; ModuleID = '../../net/nqe/network_quality_store.cc'
source_filename = "../../net/nqe/network_quality_store.cc"
target datalayout = "e-m:e-i64:64-f80:128-n8:16:32:64-S128"
target triple = "x86_64-unknown-linux-gnu"

module asm ".symver exp, exp@GLIBC_2.2.5"
module asm ".symver exp2, exp2@GLIBC_2.2.5"
module asm ".symver exp2f, exp2f@GLIBC_2.2.5"
module asm ".symver expf, expf@GLIBC_2.2.5"
module asm ".symver lgamma, lgamma@GLIBC_2.2.5"
module asm ".symver lgammaf, lgammaf@GLIBC_2.2.5"
module asm ".symver lgammal, lgammal@GLIBC_2.2.5"
module asm ".symver log, log@GLIBC_2.2.5"
module asm ".symver log2, log2@GLIBC_2.2.5"
module asm ".symver log2f, log2f@GLIBC_2.2.5"
module asm ".symver logf, logf@GLIBC_2.2.5"
module asm ".symver pow, pow@GLIBC_2.2.5"
module asm ".symver powf, powf@GLIBC_2.2.5"

%"class.net::nqe::internal::NetworkQualityStore" = type { %"class.std::__1::map", %"class.base::ObserverList", %"class.base::WeakPtrFactory" }
%"class.std::__1::map" = type { %"class.std::__1::__tree" }
%"class.std::__1::__tree" = type { %"class.std::__1::__tree_end_node"*, %"class.std::__1::__compressed_pair", %"class.std::__1::__compressed_pair.1" }
%"class.std::__1::__tree_end_node" = type { %"class.std::__1::__tree_node_base"* }
%"class.std::__1::__tree_node_base" = type <{ %"class.std::__1::__tree_end_node", %"class.std::__1::__tree_node_base"*, %"class.std::__1::__tree_end_node"*, i8, [7 x i8] }>
%"class.std::__1::__compressed_pair" = type { %"struct.std::__1::__compressed_pair_elem" }
%"struct.std::__1::__compressed_pair_elem" = type { %"class.std::__1::__tree_end_node" }
%"class.std::__1::__compressed_pair.1" = type { %"struct.std::__1::__compressed_pair_elem.2" }
%"struct.std::__1::__compressed_pair_elem.2" = type { i64 }
%"class.base::ObserverList" = type <{ %"class.std::__1::vector", %"class.base::LinkedList", i64, i32, [4 x i8] }>
%"class.std::__1::vector" = type { %"class.std::__1::__vector_base" }
%"class.std::__1::__vector_base" = type { %"class.base::internal::UncheckedObserverAdapter"*, %"class.base::internal::UncheckedObserverAdapter"*, %"class.std::__1::__compressed_pair.4" }
%"class.base::internal::UncheckedObserverAdapter" = type { i8* }
%"class.std::__1::__compressed_pair.4" = type { %"struct.std::__1::__compressed_pair_elem.5" }
%"struct.std::__1::__compressed_pair_elem.5" = type { %"class.base::internal::UncheckedObserverAdapter"* }
%"class.base::LinkedList" = type { %"class.base::LinkNode" }
%"class.base::LinkNode" = type { %"class.base::internal::LinkNodeBase" }
%"class.base::internal::LinkNodeBase" = type { %"class.base::internal::LinkNodeBase"*, %"class.base::internal::LinkNodeBase"* }
%"class.base::WeakPtrFactory" = type { %"class.base::internal::WeakPtrFactoryBase" }
%"class.base::internal::WeakPtrFactoryBase" = type { %"class.base::internal::WeakReferenceOwner", i64 }
%"class.base::internal::WeakReferenceOwner" = type { %class.scoped_refptr }
%class.scoped_refptr = type { %"class.base::internal::WeakReference::Flag"* }
%"class.base::internal::WeakReference::Flag" = type <{ %"class.base::RefCountedThreadSafe", %"class.base::AtomicFlag", [3 x i8] }>
%"class.base::RefCountedThreadSafe" = type { %"class.base::subtle::RefCountedThreadSafeBase" }
%"class.base::subtle::RefCountedThreadSafeBase" = type { %"class.base::AtomicRefCount" }
%"class.base::AtomicRefCount" = type { %"struct.std::__1::atomic" }
%"struct.std::__1::atomic" = type { %"struct.std::__1::__atomic_base" }
%"struct.std::__1::__atomic_base" = type { %"struct.std::__1::__atomic_base.9" }
%"struct.std::__1::__atomic_base.9" = type { %"struct.std::__1::__cxx_atomic_impl" }
%"struct.std::__1::__cxx_atomic_impl" = type { %"struct.std::__1::__cxx_atomic_base_impl" }
%"struct.std::__1::__cxx_atomic_base_impl" = type { i32 }
%"class.base::AtomicFlag" = type { %"struct.std::__1::atomic.10" }
%"struct.std::__1::atomic.10" = type { %"struct.std::__1::__atomic_base.11" }
%"struct.std::__1::__atomic_base.11" = type { %"struct.std::__1::__atomic_base.12" }
%"struct.std::__1::__atomic_base.12" = type { %"struct.std::__1::__cxx_atomic_impl.13" }
%"struct.std::__1::__cxx_atomic_impl.13" = type { %"struct.std::__1::__cxx_atomic_base_impl.14" }
%"struct.std::__1::__cxx_atomic_base_impl.14" = type { i8 }
%"class.std::__1::__tree_node" = type { %"class.std::__1::__tree_node_base.base", [7 x i8], %"struct.std::__1::__value_type" }
%"class.std::__1::__tree_node_base.base" = type <{ %"class.std::__1::__tree_end_node", %"class.std::__1::__tree_node_base"*, %"class.std::__1::__tree_end_node"*, i8 }>
%"struct.std::__1::__value_type" = type { %"struct.std::__1::pair" }
%"struct.std::__1::pair" = type { %"struct.net::nqe::internal::NetworkID", %"class.net::nqe::internal::CachedNetworkQuality" }
%"struct.net::nqe::internal::NetworkID" = type <{ i32, [4 x i8], %"class.std::__1::basic_string", i32, [4 x i8] }>
%"class.std::__1::basic_string" = type { %"class.std::__1::__compressed_pair.15" }
%"class.std::__1::__compressed_pair.15" = type { %"struct.std::__1::__compressed_pair_elem.16" }
%"struct.std::__1::__compressed_pair_elem.16" = type { %"struct.std::__1::basic_string<char, std::__1::char_traits<char>, std::__1::allocator<char> >::__rep" }
%"struct.std::__1::basic_string<char, std::__1::char_traits<char>, std::__1::allocator<char> >::__rep" = type { %union.anon }
%union.anon = type { %"struct.std::__1::basic_string<char, std::__1::char_traits<char>, std::__1::allocator<char> >::__long" }
%"struct.std::__1::basic_string<char, std::__1::char_traits<char>, std::__1::allocator<char> >::__long" = type { i8*, i64, i64 }
%"class.net::nqe::internal::CachedNetworkQuality" = type <{ %"class.base::TimeTicks", %"class.net::nqe::internal::NetworkQuality", i32, [4 x i8] }>
%"class.base::TimeTicks" = type { %"class.base::time_internal::TimeBase" }
%"class.base::time_internal::TimeBase" = type { i64 }
%"class.net::nqe::internal::NetworkQuality" = type <{ %"class.base::TimeDelta", %"class.base::TimeDelta", i32, [4 x i8] }>
%"class.base::TimeDelta" = type { i64 }
%"struct.std::__1::pair.21" = type { %"struct.net::nqe::internal::NetworkID", %"class.net::nqe::internal::CachedNetworkQuality" }
%"class.base::ObserverList<net::nqe::internal::NetworkQualityStore::NetworkQualitiesCacheObserver, false, true, base::internal::UncheckedObserverAdapter>::Iter" = type { %"class.base::internal::WeakLinkNode", i64, i64 }
%"class.base::internal::WeakLinkNode" = type { %"class.base::LinkNode", %"class.base::ObserverList"* }
%"class.net::nqe::internal::NetworkQualityStore::NetworkQualitiesCacheObserver" = type { i32 (...)** }
%"struct.std::__1::basic_string<char, std::__1::char_traits<char>, std::__1::allocator<char> >::__short" = type { [23 x i8], %struct.anon }
%struct.anon = type { i8 }
%"class.base::internal::WeakReference" = type { %class.scoped_refptr.26 }
%class.scoped_refptr.26 = type { %"class.base::internal::WeakReference::Flag"* }
%"class.base::Location" = type { i8*, i8*, i32, i8* }
%"class.base::OnceCallback" = type { %"class.base::internal::CallbackBase" }
%"class.base::internal::CallbackBase" = type { %class.scoped_refptr.24 }
%class.scoped_refptr.24 = type { %"class.base::internal::BindStateBase"* }
%"class.base::internal::BindStateBase" = type { %"class.base::RefCountedThreadSafe.25", void ()*, void (%"class.base::internal::BindStateBase"*)*, i1 (%"class.base::internal::BindStateBase"*, i32)* }
%"class.base::RefCountedThreadSafe.25" = type { %"class.base::subtle::RefCountedThreadSafeBase" }
%"class.base::WeakPtr" = type { %"class.base::internal::WeakPtrBase" }
%"class.base::internal::WeakPtrBase" = type { %"class.base::internal::WeakReference", i64 }
%"class.std::__1::__vector_base_common" = type { i8 }
%class.scoped_refptr.22 = type { %"class.base::SingleThreadTaskRunner"* }
%"class.base::SingleThreadTaskRunner" = type { %"class.base::SequencedTaskRunner.base", [4 x i8] }
%"class.base::SequencedTaskRunner.base" = type { %"class.base::TaskRunner.base" }
%"class.base::TaskRunner.base" = type <{ i32 (...)**, %"class.base::RefCountedThreadSafe.23" }>
%"class.base::RefCountedThreadSafe.23" = type { %"class.base::subtle::RefCountedThreadSafeBase" }
%"class.base::TaskRunner" = type <{ i32 (...)**, %"class.base::RefCountedThreadSafe.23", [4 x i8] }>
%"class.logging::CheckError" = type { %"class.logging::LogMessage"* }
%"class.logging::LogMessage" = type { i32 (...)**, i32, %"class.std::__1::basic_ostringstream", i64, i8*, i32, %"class.base::ScopedClearLastErrorBase" }
%"class.std::__1::basic_ostringstream" = type { %"class.std::__1::basic_ostream.base", %"class.std::__1::basic_stringbuf", %"class.std::__1::basic_ios.base" }
%"class.std::__1::basic_ostream.base" = type { i32 (...)** }
%"class.std::__1::basic_stringbuf" = type <{ %"class.std::__1::basic_streambuf", %"class.std::__1::basic_string", i8*, i32, [4 x i8] }>
%"class.std::__1::basic_streambuf" = type { i32 (...)**, %"class.std::__1::locale", i8*, i8*, i8*, i8*, i8*, i8* }
%"class.std::__1::locale" = type { %"class.std::__1::locale::__imp"* }
%"class.std::__1::locale::__imp" = type opaque
%"class.std::__1::basic_ios.base" = type <{ %"class.std::__1::ios_base", %"class.std::__1::basic_ostream"*, i32 }>
%"class.std::__1::ios_base" = type { i32 (...)**, i32, i64, i64, i32, i32, i8*, i8*, void (i32, %"class.std::__1::ios_base"*, i32)**, i32*, i64, i64, i64*, i64, i64, i8**, i64, i64 }
%"class.std::__1::basic_ostream" = type { i32 (...)**, %"class.std::__1::basic_ios.base" }
%"class.base::ScopedClearLastErrorBase" = type { i32 }

$_ZNSt3__16__treeINS_12__value_typeIN3net3nqe8internal9NetworkIDENS4_20CachedNetworkQualityEEENS_19__map_value_compareIS5_S7_NS_4lessIS5_EELb1EEENS_9allocatorIS7_EEE7destroyEPNS_11__tree_nodeIS7_PvEE = comdat any

$_ZNSt3__16__treeINS_12__value_typeIN3net3nqe8internal9NetworkIDENS4_20CachedNetworkQualityEEENS_19__map_value_compareIS5_S7_NS_4lessIS5_EELb1EEENS_9allocatorIS7_EEE14__erase_uniqueIS5_EEmRKT_ = comdat any

$_ZNSt3__113__tree_removeIPNS_16__tree_node_baseIPvEEEEvT_S5_ = comdat any

$_ZNSt3__16__treeINS_12__value_typeIN3net3nqe8internal9NetworkIDENS4_20CachedNetworkQualityEEENS_19__map_value_compareIS5_S7_NS_4lessIS5_EELb1EEENS_9allocatorIS7_EEE25__emplace_unique_key_argsIS5_JNS_4pairIS5_S6_EEEEENSG_INS_15__tree_iteratorIS7_PNS_11__tree_nodeIS7_PvEElEEbEERKT_DpOT0_ = comdat any

$_ZNSt3__127__tree_balance_after_insertIPNS_16__tree_node_baseIPvEEEEvT_S5_ = comdat any

$_ZN4base8internal7InvokerINS0_9BindStateIMN3net3nqe8internal19NetworkQualityStoreEKFvPNS6_29NetworkQualitiesCacheObserverEEJNS_7WeakPtrIS6_EES8_EEEFvvEE7RunOnceEPNS0_13BindStateBaseE = comdat any

$_ZN4base8internal9BindStateIMN3net3nqe8internal19NetworkQualityStoreEKFvPNS5_29NetworkQualitiesCacheObserverEEJNS_7WeakPtrIS5_EES7_EE7DestroyEPKNS0_13BindStateBaseE = comdat any

$_ZN4base8internal23QueryCancellationTraitsINS0_9BindStateIMN3net3nqe8internal19NetworkQualityStoreEKFvPNS6_29NetworkQualitiesCacheObserverEEJNS_7WeakPtrIS6_EES8_EEEEEbPKNS0_13BindStateBaseENSE_21CancellationQueryModeE = comdat any

@.str = private unnamed_addr constant [33 x i8] c"AddNetworkQualitiesCacheObserver\00", align 1
@.str.1 = private unnamed_addr constant [39 x i8] c"../../net/nqe/network_quality_store.cc\00", align 1
@.str.3 = private unnamed_addr constant [29 x i8] c"../../base/memory/weak_ptr.h\00", align 1
@.str.4 = private unnamed_addr constant [15 x i8] c"ref_.IsValid()\00", align 1

@_ZN3net3nqe8internal19NetworkQualityStoreC1Ev = hidden unnamed_addr alias void (%"class.net::nqe::internal::NetworkQualityStore"*), void (%"class.net::nqe::internal::NetworkQualityStore"*)* @_ZN3net3nqe8internal19NetworkQualityStoreC2Ev
@_ZN3net3nqe8internal19NetworkQualityStoreD1Ev = hidden unnamed_addr alias void (%"class.net::nqe::internal::NetworkQualityStore"*), void (%"class.net::nqe::internal::NetworkQualityStore"*)* @_ZN3net3nqe8internal19NetworkQualityStoreD2Ev

; Function Attrs: nounwind ssp uwtable
define hidden void @_ZN3net3nqe8internal19NetworkQualityStoreC2Ev(%"class.net::nqe::internal::NetworkQualityStore"*) unnamed_addr #0 align 2 {
  %2 = getelementptr inbounds %"class.net::nqe::internal::NetworkQualityStore", %"class.net::nqe::internal::NetworkQualityStore"* %0, i64 0, i32 0, i32 0, i32 1, i32 0, i32 0, i32 0
  %3 = getelementptr inbounds %"class.net::nqe::internal::NetworkQualityStore", %"class.net::nqe::internal::NetworkQualityStore"* %0, i64 0, i32 0, i32 0, i32 1, i32 0, i32 0
  %4 = getelementptr inbounds %"class.net::nqe::internal::NetworkQualityStore", %"class.net::nqe::internal::NetworkQualityStore"* %0, i64 0, i32 0, i32 0, i32 0
  %5 = bitcast %"class.std::__1::__tree_node_base"** %2 to i8*
  tail call void @llvm.memset.p0i8.i64(i8* align 8 %5, i8 0, i64 16, i1 false) #9
  store %"class.std::__1::__tree_end_node"* %3, %"class.std::__1::__tree_end_node"** %4, align 8
  %6 = getelementptr inbounds %"class.net::nqe::internal::NetworkQualityStore", %"class.net::nqe::internal::NetworkQualityStore"* %0, i64 0, i32 1
  %7 = bitcast %"class.base::ObserverList"* %6 to i8*
  tail call void @llvm.memset.p0i8.i64(i8* align 8 %7, i8 0, i64 24, i1 false) #9
  %8 = getelementptr inbounds %"class.net::nqe::internal::NetworkQualityStore", %"class.net::nqe::internal::NetworkQualityStore"* %0, i64 0, i32 1, i32 1, i32 0, i32 0
  tail call void @_ZN4base8internal12LinkNodeBaseC2EPS1_S2_(%"class.base::internal::LinkNodeBase"* %8, %"class.base::internal::LinkNodeBase"* %8, %"class.base::internal::LinkNodeBase"* %8) #9
  %9 = getelementptr inbounds %"class.net::nqe::internal::NetworkQualityStore", %"class.net::nqe::internal::NetworkQualityStore"* %0, i64 0, i32 1, i32 2
  store i64 0, i64* %9, align 8
  %10 = getelementptr inbounds %"class.net::nqe::internal::NetworkQualityStore", %"class.net::nqe::internal::NetworkQualityStore"* %0, i64 0, i32 1, i32 3
  store i32 0, i32* %10, align 8
  %11 = getelementptr inbounds %"class.net::nqe::internal::NetworkQualityStore", %"class.net::nqe::internal::NetworkQualityStore"* %0, i64 0, i32 2, i32 0
  %12 = ptrtoint %"class.net::nqe::internal::NetworkQualityStore"* %0 to i64
  tail call void @_ZN4base8internal18WeakPtrFactoryBaseC2Em(%"class.base::internal::WeakPtrFactoryBase"* %11, i64 %12) #9
  ret void
}

; Function Attrs: nounwind ssp uwtable
define hidden void @_ZN3net3nqe8internal19NetworkQualityStoreD2Ev(%"class.net::nqe::internal::NetworkQualityStore"*) unnamed_addr #0 align 2 {
  %2 = getelementptr inbounds %"class.net::nqe::internal::NetworkQualityStore", %"class.net::nqe::internal::NetworkQualityStore"* %0, i64 0, i32 2, i32 0
  tail call void @_ZN4base8internal18WeakPtrFactoryBaseD2Ev(%"class.base::internal::WeakPtrFactoryBase"* %2) #9
  %3 = getelementptr inbounds %"class.net::nqe::internal::NetworkQualityStore", %"class.net::nqe::internal::NetworkQualityStore"* %0, i64 0, i32 1, i32 1, i32 0, i32 0, i32 1
  %4 = bitcast %"class.base::internal::LinkNodeBase"** %3 to %"class.base::LinkNode"**
  %5 = getelementptr inbounds %"class.net::nqe::internal::NetworkQualityStore", %"class.net::nqe::internal::NetworkQualityStore"* %0, i64 0, i32 1, i32 1, i32 0
  %6 = load %"class.base::LinkNode"*, %"class.base::LinkNode"** %4, align 8
  %7 = icmp eq %"class.base::LinkNode"* %6, %5
  br i1 %7, label %20, label %8

8:                                                ; preds = %1, %17
  %9 = phi %"class.base::LinkNode"* [ %18, %17 ], [ %6, %1 ]
  %10 = getelementptr inbounds %"class.base::LinkNode", %"class.base::LinkNode"* %9, i64 1
  %11 = bitcast %"class.base::LinkNode"* %10 to %"class.base::ObserverList"**
  %12 = load %"class.base::ObserverList"*, %"class.base::ObserverList"** %11, align 8
  %13 = icmp eq %"class.base::ObserverList"* %12, null
  br i1 %13, label %17, label %14

14:                                               ; preds = %8
  store %"class.base::ObserverList"* null, %"class.base::ObserverList"** %11, align 8
  %15 = getelementptr inbounds %"class.base::LinkNode", %"class.base::LinkNode"* %9, i64 0, i32 0
  tail call void @_ZN4base8internal12LinkNodeBase14RemoveFromListEv(%"class.base::internal::LinkNodeBase"* %15) #9
  %16 = load %"class.base::LinkNode"*, %"class.base::LinkNode"** %4, align 8
  br label %17

17:                                               ; preds = %14, %8
  %18 = phi %"class.base::LinkNode"* [ %9, %8 ], [ %16, %14 ]
  %19 = icmp eq %"class.base::LinkNode"* %18, %5
  br i1 %19, label %20, label %8

20:                                               ; preds = %17, %1
  %21 = getelementptr inbounds %"class.net::nqe::internal::NetworkQualityStore", %"class.net::nqe::internal::NetworkQualityStore"* %0, i64 0, i32 1, i32 0, i32 0, i32 0
  %22 = load %"class.base::internal::UncheckedObserverAdapter"*, %"class.base::internal::UncheckedObserverAdapter"** %21, align 8
  %23 = icmp eq %"class.base::internal::UncheckedObserverAdapter"* %22, null
  br i1 %23, label %29, label %24

24:                                               ; preds = %20
  %25 = ptrtoint %"class.base::internal::UncheckedObserverAdapter"* %22 to i64
  %26 = getelementptr inbounds %"class.net::nqe::internal::NetworkQualityStore", %"class.net::nqe::internal::NetworkQualityStore"* %0, i64 0, i32 1, i32 0, i32 0, i32 1
  %27 = bitcast %"class.base::internal::UncheckedObserverAdapter"** %26 to i64*
  store i64 %25, i64* %27, align 8
  %28 = bitcast %"class.base::internal::UncheckedObserverAdapter"* %22 to i8*
  tail call void @_ZdlPv(i8* %28) #10
  br label %29

29:                                               ; preds = %20, %24
  %30 = getelementptr inbounds %"class.net::nqe::internal::NetworkQualityStore", %"class.net::nqe::internal::NetworkQualityStore"* %0, i64 0, i32 0, i32 0
  %31 = getelementptr inbounds %"class.net::nqe::internal::NetworkQualityStore", %"class.net::nqe::internal::NetworkQualityStore"* %0, i64 0, i32 0, i32 0, i32 1, i32 0, i32 0
  %32 = bitcast %"class.std::__1::__tree_end_node"* %31 to %"class.std::__1::__tree_node"**
  %33 = load %"class.std::__1::__tree_node"*, %"class.std::__1::__tree_node"** %32, align 8
  tail call void @_ZNSt3__16__treeINS_12__value_typeIN3net3nqe8internal9NetworkIDENS4_20CachedNetworkQualityEEENS_19__map_value_compareIS5_S7_NS_4lessIS5_EELb1EEENS_9allocatorIS7_EEE7destroyEPNS_11__tree_nodeIS7_PvEE(%"class.std::__1::__tree"* %30, %"class.std::__1::__tree_node"* %33) #9
  ret void
}

; Function Attrs: nounwind
declare void @_ZN4base8internal18WeakPtrFactoryBaseD2Ev(%"class.base::internal::WeakPtrFactoryBase"*) unnamed_addr #1

; Function Attrs: nounwind ssp uwtable
define hidden void @_ZN3net3nqe8internal19NetworkQualityStore3AddERKNS1_9NetworkIDERKNS1_20CachedNetworkQualityE(%"class.net::nqe::internal::NetworkQualityStore"*, %"struct.net::nqe::internal::NetworkID"* dereferenceable(40), %"class.net::nqe::internal::CachedNetworkQuality"* dereferenceable(40)) local_unnamed_addr #0 align 2 {
  %4 = alloca %"struct.std::__1::pair.21", align 8
  %5 = alloca %"class.base::ObserverList<net::nqe::internal::NetworkQualityStore::NetworkQualitiesCacheObserver, false, true, base::internal::UncheckedObserverAdapter>::Iter", align 8
  %6 = alloca %"class.base::ObserverList<net::nqe::internal::NetworkQualityStore::NetworkQualitiesCacheObserver, false, true, base::internal::UncheckedObserverAdapter>::Iter", align 8
  %7 = getelementptr inbounds %"class.net::nqe::internal::CachedNetworkQuality", %"class.net::nqe::internal::CachedNetworkQuality"* %2, i64 0, i32 2
  %8 = load i32, i32* %7, align 8
  %9 = icmp eq i32 %8, 0
  br i1 %9, label %448, label %10

10:                                               ; preds = %3
  %11 = getelementptr inbounds %"class.net::nqe::internal::NetworkQualityStore", %"class.net::nqe::internal::NetworkQualityStore"* %0, i64 0, i32 0, i32 0
  %12 = tail call i64 @_ZNSt3__16__treeINS_12__value_typeIN3net3nqe8internal9NetworkIDENS4_20CachedNetworkQualityEEENS_19__map_value_compareIS5_S7_NS_4lessIS5_EELb1EEENS_9allocatorIS7_EEE14__erase_uniqueIS5_EEmRKT_(%"class.std::__1::__tree"* %11, %"struct.net::nqe::internal::NetworkID"* dereferenceable(40) %1) #9
  %13 = getelementptr inbounds %"class.net::nqe::internal::NetworkQualityStore", %"class.net::nqe::internal::NetworkQualityStore"* %0, i64 0, i32 0, i32 0, i32 2, i32 0, i32 0
  %14 = load i64, i64* %13, align 8
  %15 = icmp eq i64 %14, 20
  br i1 %15, label %16, label %111

16:                                               ; preds = %10
  %17 = getelementptr inbounds %"class.net::nqe::internal::NetworkQualityStore", %"class.net::nqe::internal::NetworkQualityStore"* %0, i64 0, i32 0, i32 0, i32 0
  %18 = bitcast %"class.net::nqe::internal::NetworkQualityStore"* %0 to i64*
  %19 = load i64, i64* %18, align 8
  %20 = getelementptr inbounds %"class.net::nqe::internal::NetworkQualityStore", %"class.net::nqe::internal::NetworkQualityStore"* %0, i64 0, i32 0, i32 0, i32 1, i32 0, i32 0
  %21 = inttoptr i64 %19 to %"class.std::__1::__tree_end_node"*
  %22 = icmp eq %"class.std::__1::__tree_end_node"* %20, %21
  br i1 %22, label %25, label %72

23:                                               ; preds = %107
  %24 = inttoptr i64 %80 to %"class.std::__1::__tree_end_node"*
  br label %25

25:                                               ; preds = %23, %16
  %26 = phi %"class.std::__1::__tree_end_node"* [ %24, %23 ], [ %21, %16 ]
  %27 = phi i64 [ %80, %23 ], [ %19, %16 ]
  %28 = getelementptr inbounds %"class.std::__1::__tree_end_node", %"class.std::__1::__tree_end_node"* %26, i64 1, i32 0
  %29 = load %"class.std::__1::__tree_node_base"*, %"class.std::__1::__tree_node_base"** %28, align 8
  %30 = icmp eq %"class.std::__1::__tree_node_base"* %29, null
  br i1 %30, label %31, label %39

31:                                               ; preds = %25
  %32 = inttoptr i64 %27 to %"class.std::__1::__tree_node_base"*
  %33 = getelementptr inbounds %"class.std::__1::__tree_end_node", %"class.std::__1::__tree_end_node"* %26, i64 2
  %34 = bitcast %"class.std::__1::__tree_end_node"* %33 to %"class.std::__1::__tree_end_node"**
  %35 = load %"class.std::__1::__tree_end_node"*, %"class.std::__1::__tree_end_node"** %34, align 8
  %36 = getelementptr inbounds %"class.std::__1::__tree_end_node", %"class.std::__1::__tree_end_node"* %35, i64 0, i32 0
  %37 = load %"class.std::__1::__tree_node_base"*, %"class.std::__1::__tree_node_base"** %36, align 8
  %38 = icmp eq %"class.std::__1::__tree_node_base"* %37, %32
  br i1 %38, label %55, label %46

39:                                               ; preds = %25, %39
  %40 = phi %"class.std::__1::__tree_node_base"* [ %42, %39 ], [ %29, %25 ]
  %41 = getelementptr inbounds %"class.std::__1::__tree_node_base", %"class.std::__1::__tree_node_base"* %40, i64 0, i32 0, i32 0
  %42 = load %"class.std::__1::__tree_node_base"*, %"class.std::__1::__tree_node_base"** %41, align 8
  %43 = icmp eq %"class.std::__1::__tree_node_base"* %42, null
  br i1 %43, label %44, label %39

44:                                               ; preds = %39
  %45 = getelementptr inbounds %"class.std::__1::__tree_node_base", %"class.std::__1::__tree_node_base"* %40, i64 0, i32 0
  br label %55

46:                                               ; preds = %31, %46
  %47 = phi %"class.std::__1::__tree_end_node"** [ %50, %46 ], [ %34, %31 ]
  %48 = bitcast %"class.std::__1::__tree_end_node"** %47 to %"class.std::__1::__tree_node_base"**
  %49 = load %"class.std::__1::__tree_node_base"*, %"class.std::__1::__tree_node_base"** %48, align 8
  %50 = getelementptr inbounds %"class.std::__1::__tree_node_base", %"class.std::__1::__tree_node_base"* %49, i64 0, i32 2
  %51 = load %"class.std::__1::__tree_end_node"*, %"class.std::__1::__tree_end_node"** %50, align 8
  %52 = getelementptr inbounds %"class.std::__1::__tree_end_node", %"class.std::__1::__tree_end_node"* %51, i64 0, i32 0
  %53 = load %"class.std::__1::__tree_node_base"*, %"class.std::__1::__tree_node_base"** %52, align 8
  %54 = icmp eq %"class.std::__1::__tree_node_base"* %53, %49
  br i1 %54, label %55, label %46

55:                                               ; preds = %46, %44, %31
  %56 = phi %"class.std::__1::__tree_end_node"* [ %45, %44 ], [ %35, %31 ], [ %51, %46 ]
  %57 = load %"class.std::__1::__tree_end_node"*, %"class.std::__1::__tree_end_node"** %17, align 8
  %58 = icmp eq %"class.std::__1::__tree_end_node"* %57, %26
  br i1 %58, label %59, label %61

59:                                               ; preds = %55
  %60 = ptrtoint %"class.std::__1::__tree_end_node"* %56 to i64
  store i64 %60, i64* %18, align 8
  br label %61

61:                                               ; preds = %55, %59
  %62 = load i64, i64* %13, align 8
  %63 = add i64 %62, -1
  store i64 %63, i64* %13, align 8
  %64 = getelementptr inbounds %"class.net::nqe::internal::NetworkQualityStore", %"class.net::nqe::internal::NetworkQualityStore"* %0, i64 0, i32 0, i32 0, i32 1, i32 0, i32 0, i32 0
  %65 = load %"class.std::__1::__tree_node_base"*, %"class.std::__1::__tree_node_base"** %64, align 8
  %66 = inttoptr i64 %27 to %"class.std::__1::__tree_node_base"*
  tail call void @_ZNSt3__113__tree_removeIPNS_16__tree_node_baseIPvEEEEvT_S5_(%"class.std::__1::__tree_node_base"* %65, %"class.std::__1::__tree_node_base"* %66) #9
  %67 = getelementptr inbounds %"class.std::__1::__tree_end_node", %"class.std::__1::__tree_end_node"* %26, i64 4
  %68 = getelementptr inbounds %"class.std::__1::__tree_end_node", %"class.std::__1::__tree_end_node"* %26, i64 9
  %69 = bitcast %"class.std::__1::__tree_end_node"* %68 to %"class.net::nqe::internal::CachedNetworkQuality"*
  tail call void @_ZN3net3nqe8internal20CachedNetworkQualityD1Ev(%"class.net::nqe::internal::CachedNetworkQuality"* %69) #9
  %70 = bitcast %"class.std::__1::__tree_end_node"* %67 to %"struct.net::nqe::internal::NetworkID"*
  tail call void @_ZN3net3nqe8internal9NetworkIDD1Ev(%"struct.net::nqe::internal::NetworkID"* %70) #9
  %71 = inttoptr i64 %27 to i8*
  tail call void @_ZdlPv(i8* %71) #10
  br label %111

72:                                               ; preds = %16, %107
  %73 = phi i64 [ %80, %107 ], [ %19, %16 ]
  %74 = phi i64 [ %109, %107 ], [ %19, %16 ]
  %75 = inttoptr i64 %74 to %"class.std::__1::__tree_node"*
  %76 = getelementptr inbounds %"class.std::__1::__tree_node", %"class.std::__1::__tree_node"* %75, i64 0, i32 2, i32 0, i32 1
  %77 = inttoptr i64 %73 to %"class.std::__1::__tree_node"*
  %78 = getelementptr inbounds %"class.std::__1::__tree_node", %"class.std::__1::__tree_node"* %77, i64 0, i32 2, i32 0, i32 1
  %79 = tail call zeroext i1 @_ZNK3net3nqe8internal20CachedNetworkQuality9OlderThanERKS2_(%"class.net::nqe::internal::CachedNetworkQuality"* %76, %"class.net::nqe::internal::CachedNetworkQuality"* dereferenceable(40) %78) #9
  %80 = select i1 %79, i64 %74, i64 %73
  %81 = inttoptr i64 %74 to %"class.std::__1::__tree_node_base"*
  %82 = getelementptr inbounds %"class.std::__1::__tree_node_base", %"class.std::__1::__tree_node_base"* %81, i64 0, i32 1
  %83 = load %"class.std::__1::__tree_node_base"*, %"class.std::__1::__tree_node_base"** %82, align 8
  %84 = icmp eq %"class.std::__1::__tree_node_base"* %83, null
  br i1 %84, label %85, label %91

85:                                               ; preds = %72
  %86 = getelementptr inbounds %"class.std::__1::__tree_node_base", %"class.std::__1::__tree_node_base"* %81, i64 0, i32 2
  %87 = load %"class.std::__1::__tree_end_node"*, %"class.std::__1::__tree_end_node"** %86, align 8
  %88 = getelementptr inbounds %"class.std::__1::__tree_end_node", %"class.std::__1::__tree_end_node"* %87, i64 0, i32 0
  %89 = load %"class.std::__1::__tree_node_base"*, %"class.std::__1::__tree_node_base"** %88, align 8
  %90 = icmp eq %"class.std::__1::__tree_node_base"* %89, %81
  br i1 %90, label %107, label %98

91:                                               ; preds = %72, %91
  %92 = phi %"class.std::__1::__tree_node_base"* [ %94, %91 ], [ %83, %72 ]
  %93 = getelementptr inbounds %"class.std::__1::__tree_node_base", %"class.std::__1::__tree_node_base"* %92, i64 0, i32 0, i32 0
  %94 = load %"class.std::__1::__tree_node_base"*, %"class.std::__1::__tree_node_base"** %93, align 8
  %95 = icmp eq %"class.std::__1::__tree_node_base"* %94, null
  br i1 %95, label %96, label %91

96:                                               ; preds = %91
  %97 = getelementptr inbounds %"class.std::__1::__tree_node_base", %"class.std::__1::__tree_node_base"* %92, i64 0, i32 0
  br label %107

98:                                               ; preds = %85, %98
  %99 = phi %"class.std::__1::__tree_end_node"** [ %102, %98 ], [ %86, %85 ]
  %100 = bitcast %"class.std::__1::__tree_end_node"** %99 to %"class.std::__1::__tree_node_base"**
  %101 = load %"class.std::__1::__tree_node_base"*, %"class.std::__1::__tree_node_base"** %100, align 8
  %102 = getelementptr inbounds %"class.std::__1::__tree_node_base", %"class.std::__1::__tree_node_base"* %101, i64 0, i32 2
  %103 = load %"class.std::__1::__tree_end_node"*, %"class.std::__1::__tree_end_node"** %102, align 8
  %104 = getelementptr inbounds %"class.std::__1::__tree_end_node", %"class.std::__1::__tree_end_node"* %103, i64 0, i32 0
  %105 = load %"class.std::__1::__tree_node_base"*, %"class.std::__1::__tree_node_base"** %104, align 8
  %106 = icmp eq %"class.std::__1::__tree_node_base"* %105, %101
  br i1 %106, label %107, label %98

107:                                              ; preds = %98, %85, %96
  %108 = phi %"class.std::__1::__tree_end_node"* [ %97, %96 ], [ %87, %85 ], [ %103, %98 ]
  %109 = ptrtoint %"class.std::__1::__tree_end_node"* %108 to i64
  %110 = icmp eq %"class.std::__1::__tree_end_node"* %20, %108
  br i1 %110, label %23, label %72

111:                                              ; preds = %61, %10
  %112 = bitcast %"struct.std::__1::pair.21"* %4 to i8*
  call void @llvm.lifetime.start.p0i8(i64 80, i8* nonnull %112) #9
  %113 = getelementptr inbounds %"struct.std::__1::pair.21", %"struct.std::__1::pair.21"* %4, i64 0, i32 0
  call void @_ZN3net3nqe8internal9NetworkIDC1ERKS2_(%"struct.net::nqe::internal::NetworkID"* nonnull %113, %"struct.net::nqe::internal::NetworkID"* dereferenceable(40) %1) #9
  %114 = getelementptr inbounds %"struct.std::__1::pair.21", %"struct.std::__1::pair.21"* %4, i64 0, i32 1
  call void @_ZN3net3nqe8internal20CachedNetworkQualityC1ERKS2_(%"class.net::nqe::internal::CachedNetworkQuality"* %114, %"class.net::nqe::internal::CachedNetworkQuality"* dereferenceable(40) %2) #9
  %115 = call { %"class.std::__1::__tree_end_node"*, i8 } @_ZNSt3__16__treeINS_12__value_typeIN3net3nqe8internal9NetworkIDENS4_20CachedNetworkQualityEEENS_19__map_value_compareIS5_S7_NS_4lessIS5_EELb1EEENS_9allocatorIS7_EEE25__emplace_unique_key_argsIS5_JNS_4pairIS5_S6_EEEEENSG_INS_15__tree_iteratorIS7_PNS_11__tree_nodeIS7_PvEElEEbEERKT_DpOT0_(%"class.std::__1::__tree"* %11, %"struct.net::nqe::internal::NetworkID"* nonnull dereferenceable(40) %113, %"struct.std::__1::pair.21"* nonnull dereferenceable(80) %4) #9
  call void @_ZN3net3nqe8internal20CachedNetworkQualityD1Ev(%"class.net::nqe::internal::CachedNetworkQuality"* %114) #9
  call void @_ZN3net3nqe8internal9NetworkIDD1Ev(%"struct.net::nqe::internal::NetworkID"* nonnull %113) #9
  call void @llvm.lifetime.end.p0i8(i64 80, i8* nonnull %112) #9
  %116 = getelementptr inbounds %"class.net::nqe::internal::NetworkQualityStore", %"class.net::nqe::internal::NetworkQualityStore"* %0, i64 0, i32 1
  %117 = bitcast %"class.base::ObserverList<net::nqe::internal::NetworkQualityStore::NetworkQualitiesCacheObserver, false, true, base::internal::UncheckedObserverAdapter>::Iter"* %5 to i8*
  call void @llvm.lifetime.start.p0i8(i64 40, i8* nonnull %117) #9
  %118 = getelementptr inbounds %"class.base::ObserverList<net::nqe::internal::NetworkQualityStore::NetworkQualitiesCacheObserver, false, true, base::internal::UncheckedObserverAdapter>::Iter", %"class.base::ObserverList<net::nqe::internal::NetworkQualityStore::NetworkQualitiesCacheObserver, false, true, base::internal::UncheckedObserverAdapter>::Iter"* %5, i64 0, i32 0, i32 1
  %119 = getelementptr inbounds %"class.base::ObserverList<net::nqe::internal::NetworkQualityStore::NetworkQualitiesCacheObserver, false, true, base::internal::UncheckedObserverAdapter>::Iter", %"class.base::ObserverList<net::nqe::internal::NetworkQualityStore::NetworkQualitiesCacheObserver, false, true, base::internal::UncheckedObserverAdapter>::Iter"* %5, i64 0, i32 1
  %120 = getelementptr inbounds %"class.base::ObserverList<net::nqe::internal::NetworkQualityStore::NetworkQualitiesCacheObserver, false, true, base::internal::UncheckedObserverAdapter>::Iter", %"class.base::ObserverList<net::nqe::internal::NetworkQualityStore::NetworkQualitiesCacheObserver, false, true, base::internal::UncheckedObserverAdapter>::Iter"* %5, i64 0, i32 2
  %121 = getelementptr inbounds %"class.base::ObserverList", %"class.base::ObserverList"* %116, i64 0, i32 0, i32 0, i32 0
  %122 = bitcast %"class.base::ObserverList<net::nqe::internal::NetworkQualityStore::NetworkQualitiesCacheObserver, false, true, base::internal::UncheckedObserverAdapter>::Iter"* %5 to i8*
  call void @llvm.memset.p0i8.i64(i8* nonnull align 8 %122, i8 -86, i64 40, i1 false)
  %123 = load %"class.base::internal::UncheckedObserverAdapter"*, %"class.base::internal::UncheckedObserverAdapter"** %121, align 8, !noalias !2
  %124 = getelementptr inbounds %"class.net::nqe::internal::NetworkQualityStore", %"class.net::nqe::internal::NetworkQualityStore"* %0, i64 0, i32 1, i32 0, i32 0, i32 1
  %125 = load %"class.base::internal::UncheckedObserverAdapter"*, %"class.base::internal::UncheckedObserverAdapter"** %124, align 8, !noalias !2
  %126 = icmp eq %"class.base::internal::UncheckedObserverAdapter"* %123, %125
  %127 = getelementptr inbounds %"class.base::ObserverList<net::nqe::internal::NetworkQualityStore::NetworkQualitiesCacheObserver, false, true, base::internal::UncheckedObserverAdapter>::Iter", %"class.base::ObserverList<net::nqe::internal::NetworkQualityStore::NetworkQualitiesCacheObserver, false, true, base::internal::UncheckedObserverAdapter>::Iter"* %5, i64 0, i32 0, i32 0, i32 0
  call void @_ZN4base8internal12LinkNodeBaseC2Ev(%"class.base::internal::LinkNodeBase"* nonnull %127) #9
  br i1 %126, label %128, label %130

128:                                              ; preds = %111
  %129 = bitcast %"class.base::ObserverList"** %118 to i8*
  call void @llvm.memset.p0i8.i64(i8* align 8 %129, i8 0, i64 24, i1 false) #9, !alias.scope !2
  br label %170

130:                                              ; preds = %111
  store %"class.base::ObserverList"* %116, %"class.base::ObserverList"** %118, align 8
  %131 = getelementptr inbounds %"class.net::nqe::internal::NetworkQualityStore", %"class.net::nqe::internal::NetworkQualityStore"* %0, i64 0, i32 1, i32 1, i32 0, i32 0
  call void @_ZN4base8internal12LinkNodeBase16InsertBeforeBaseEPS1_(%"class.base::internal::LinkNodeBase"* nonnull %127, %"class.base::internal::LinkNodeBase"* %131) #9
  store i64 0, i64* %119, align 8
  %132 = getelementptr inbounds %"class.net::nqe::internal::NetworkQualityStore", %"class.net::nqe::internal::NetworkQualityStore"* %0, i64 0, i32 1, i32 3
  %133 = load i32, i32* %132, align 8
  %134 = icmp eq i32 %133, 0
  br i1 %134, label %142, label %135

135:                                              ; preds = %130
  %136 = bitcast %"class.base::internal::UncheckedObserverAdapter"** %124 to i64*
  %137 = load i64, i64* %136, align 8
  %138 = bitcast %"class.base::ObserverList"* %116 to i64*
  %139 = load i64, i64* %138, align 8
  %140 = sub i64 %137, %139
  %141 = ashr exact i64 %140, 3
  br label %142

142:                                              ; preds = %135, %130
  %143 = phi i64 [ %141, %135 ], [ -1, %130 ]
  store i64 %143, i64* %120, align 8
  %144 = load %"class.base::ObserverList"*, %"class.base::ObserverList"** %118, align 8
  %145 = getelementptr inbounds %"class.base::ObserverList", %"class.base::ObserverList"* %144, i64 0, i32 0, i32 0, i32 1
  %146 = bitcast %"class.base::internal::UncheckedObserverAdapter"** %145 to i64*
  %147 = load i64, i64* %146, align 8
  %148 = bitcast %"class.base::ObserverList"* %144 to i64*
  %149 = load i64, i64* %148, align 8
  %150 = sub i64 %147, %149
  %151 = ashr exact i64 %150, 3
  %152 = icmp ult i64 %151, %143
  %153 = select i1 %152, i64 %151, i64 %143
  %154 = icmp eq i64 %153, 0
  br i1 %154, label %170, label %155

155:                                              ; preds = %142
  %156 = inttoptr i64 %149 to %"class.base::internal::UncheckedObserverAdapter"*
  %157 = getelementptr inbounds %"class.base::ObserverList", %"class.base::ObserverList"* %144, i64 0, i32 0, i32 0, i32 0
  %158 = getelementptr inbounds %"class.base::internal::UncheckedObserverAdapter", %"class.base::internal::UncheckedObserverAdapter"* %156, i64 0, i32 0
  %159 = load i8*, i8** %158, align 8
  %160 = icmp eq i8* %159, null
  br i1 %160, label %161, label %170

161:                                              ; preds = %155, %165
  %162 = phi i64 [ %163, %165 ], [ 0, %155 ]
  %163 = add nuw i64 %162, 1
  store i64 %163, i64* %119, align 8
  %164 = icmp ult i64 %163, %153
  br i1 %164, label %165, label %170

165:                                              ; preds = %161
  %166 = load %"class.base::internal::UncheckedObserverAdapter"*, %"class.base::internal::UncheckedObserverAdapter"** %157, align 8
  %167 = getelementptr inbounds %"class.base::internal::UncheckedObserverAdapter", %"class.base::internal::UncheckedObserverAdapter"* %166, i64 %163, i32 0
  %168 = load i8*, i8** %167, align 8
  %169 = icmp eq i8* %168, null
  br i1 %169, label %161, label %170

170:                                              ; preds = %165, %161, %155, %142, %128
  %171 = bitcast %"class.base::ObserverList<net::nqe::internal::NetworkQualityStore::NetworkQualitiesCacheObserver, false, true, base::internal::UncheckedObserverAdapter>::Iter"* %6 to i8*
  call void @llvm.lifetime.start.p0i8(i64 40, i8* nonnull %171) #9
  %172 = getelementptr inbounds %"class.base::ObserverList<net::nqe::internal::NetworkQualityStore::NetworkQualitiesCacheObserver, false, true, base::internal::UncheckedObserverAdapter>::Iter", %"class.base::ObserverList<net::nqe::internal::NetworkQualityStore::NetworkQualitiesCacheObserver, false, true, base::internal::UncheckedObserverAdapter>::Iter"* %6, i64 0, i32 0, i32 1
  %173 = getelementptr inbounds %"class.base::ObserverList<net::nqe::internal::NetworkQualityStore::NetworkQualitiesCacheObserver, false, true, base::internal::UncheckedObserverAdapter>::Iter", %"class.base::ObserverList<net::nqe::internal::NetworkQualityStore::NetworkQualitiesCacheObserver, false, true, base::internal::UncheckedObserverAdapter>::Iter"* %6, i64 0, i32 1
  %174 = getelementptr inbounds %"class.base::ObserverList<net::nqe::internal::NetworkQualityStore::NetworkQualitiesCacheObserver, false, true, base::internal::UncheckedObserverAdapter>::Iter", %"class.base::ObserverList<net::nqe::internal::NetworkQualityStore::NetworkQualitiesCacheObserver, false, true, base::internal::UncheckedObserverAdapter>::Iter"* %6, i64 0, i32 2
  %175 = getelementptr inbounds %"class.base::ObserverList<net::nqe::internal::NetworkQualityStore::NetworkQualitiesCacheObserver, false, true, base::internal::UncheckedObserverAdapter>::Iter", %"class.base::ObserverList<net::nqe::internal::NetworkQualityStore::NetworkQualitiesCacheObserver, false, true, base::internal::UncheckedObserverAdapter>::Iter"* %6, i64 0, i32 0, i32 0, i32 0
  %176 = bitcast %"class.base::ObserverList<net::nqe::internal::NetworkQualityStore::NetworkQualitiesCacheObserver, false, true, base::internal::UncheckedObserverAdapter>::Iter"* %6 to i8*
  call void @llvm.memset.p0i8.i64(i8* nonnull align 8 %176, i8 -86, i64 40, i1 false)
  call void @_ZN4base8internal12LinkNodeBaseC2Ev(%"class.base::internal::LinkNodeBase"* nonnull %175) #9
  %177 = bitcast %"class.base::ObserverList"** %172 to i8*
  call void @llvm.memset.p0i8.i64(i8* align 8 %177, i8 0, i64 24, i1 false) #9, !alias.scope !5
  %178 = load %"class.base::ObserverList"*, %"class.base::ObserverList"** %118, align 8
  br label %179

179:                                              ; preds = %418, %170
  %180 = phi %"class.base::ObserverList"* [ %178, %170 ], [ %416, %418 ]
  %181 = icmp eq %"class.base::ObserverList"* %180, null
  br i1 %181, label %197, label %182

182:                                              ; preds = %179
  %183 = load i64, i64* %119, align 8
  %184 = getelementptr inbounds %"class.base::ObserverList", %"class.base::ObserverList"* %180, i64 0, i32 0, i32 0, i32 1
  %185 = bitcast %"class.base::internal::UncheckedObserverAdapter"** %184 to i64*
  %186 = load i64, i64* %185, align 8
  %187 = bitcast %"class.base::ObserverList"* %180 to i64*
  %188 = load i64, i64* %187, align 8
  %189 = sub i64 %186, %188
  %190 = ashr exact i64 %189, 3
  %191 = load i64, i64* %120, align 8
  %192 = icmp ult i64 %190, %191
  %193 = select i1 %192, i64 %190, i64 %191
  %194 = icmp eq i64 %183, %193
  br i1 %194, label %197, label %195

195:                                              ; preds = %182
  %196 = load %"class.base::ObserverList"*, %"class.base::ObserverList"** %172, align 8
  br label %213

197:                                              ; preds = %182, %179
  %198 = load %"class.base::ObserverList"*, %"class.base::ObserverList"** %172, align 8
  %199 = icmp eq %"class.base::ObserverList"* %198, null
  br i1 %199, label %313, label %200

200:                                              ; preds = %197
  %201 = load i64, i64* %173, align 8
  %202 = getelementptr inbounds %"class.base::ObserverList", %"class.base::ObserverList"* %198, i64 0, i32 0, i32 0, i32 1
  %203 = bitcast %"class.base::internal::UncheckedObserverAdapter"** %202 to i64*
  %204 = load i64, i64* %203, align 8
  %205 = bitcast %"class.base::ObserverList"* %198 to i64*
  %206 = load i64, i64* %205, align 8
  %207 = sub i64 %204, %206
  %208 = ashr exact i64 %207, 3
  %209 = load i64, i64* %174, align 8
  %210 = icmp ult i64 %208, %209
  %211 = select i1 %210, i64 %208, i64 %209
  %212 = icmp eq i64 %201, %211
  br i1 %212, label %222, label %213

213:                                              ; preds = %200, %195
  %214 = phi %"class.base::ObserverList"* [ %196, %195 ], [ %198, %200 ]
  %215 = icmp eq %"class.base::ObserverList"* %180, %214
  %216 = load i64, i64* %119, align 8
  %217 = load i64, i64* %173, align 8
  %218 = icmp eq i64 %216, %217
  %219 = and i1 %215, %218
  br i1 %219, label %220, label %407

220:                                              ; preds = %213
  %221 = icmp eq %"class.base::ObserverList"* %180, null
  br i1 %221, label %313, label %222

222:                                              ; preds = %200, %220
  %223 = phi %"class.base::ObserverList"* [ %180, %220 ], [ %198, %200 ]
  %224 = getelementptr inbounds %"class.base::ObserverList", %"class.base::ObserverList"* %223, i64 0, i32 1
  %225 = getelementptr inbounds %"class.base::ObserverList", %"class.base::ObserverList"* %223, i64 0, i32 1, i32 0, i32 0, i32 1
  %226 = bitcast %"class.base::internal::LinkNodeBase"** %225 to %"class.base::LinkNode"**
  %227 = load %"class.base::LinkNode"*, %"class.base::LinkNode"** %226, align 8
  %228 = bitcast %"class.base::LinkedList"* %224 to %"class.base::LinkNode"**
  %229 = load %"class.base::LinkNode"*, %"class.base::LinkNode"** %228, align 8
  %230 = icmp eq %"class.base::LinkNode"* %227, %229
  br i1 %230, label %231, label %309

231:                                              ; preds = %222
  %232 = getelementptr inbounds %"class.base::ObserverList", %"class.base::ObserverList"* %223, i64 0, i32 0, i32 0, i32 0
  %233 = load %"class.base::internal::UncheckedObserverAdapter"*, %"class.base::internal::UncheckedObserverAdapter"** %232, align 8
  %234 = getelementptr inbounds %"class.base::ObserverList", %"class.base::ObserverList"* %223, i64 0, i32 0, i32 0, i32 1
  %235 = load %"class.base::internal::UncheckedObserverAdapter"*, %"class.base::internal::UncheckedObserverAdapter"** %234, align 8
  %236 = icmp eq %"class.base::internal::UncheckedObserverAdapter"* %233, %235
  br i1 %236, label %245, label %237

237:                                              ; preds = %231, %242
  %238 = phi %"class.base::internal::UncheckedObserverAdapter"* [ %243, %242 ], [ %233, %231 ]
  %239 = getelementptr inbounds %"class.base::internal::UncheckedObserverAdapter", %"class.base::internal::UncheckedObserverAdapter"* %238, i64 0, i32 0
  %240 = load i8*, i8** %239, align 8
  %241 = icmp eq i8* %240, null
  br i1 %241, label %245, label %242

242:                                              ; preds = %237
  %243 = getelementptr inbounds %"class.base::internal::UncheckedObserverAdapter", %"class.base::internal::UncheckedObserverAdapter"* %238, i64 1
  %244 = icmp eq %"class.base::internal::UncheckedObserverAdapter"* %243, %235
  br i1 %244, label %309, label %237

245:                                              ; preds = %237, %231
  %246 = phi %"class.base::internal::UncheckedObserverAdapter"* [ %233, %231 ], [ %238, %237 ]
  %247 = ptrtoint %"class.base::internal::UncheckedObserverAdapter"* %246 to i64
  %248 = icmp eq %"class.base::internal::UncheckedObserverAdapter"* %246, %235
  br i1 %248, label %309, label %249

249:                                              ; preds = %245
  %250 = getelementptr inbounds %"class.base::internal::UncheckedObserverAdapter", %"class.base::internal::UncheckedObserverAdapter"* %246, i64 1
  %251 = icmp eq %"class.base::internal::UncheckedObserverAdapter"* %250, %235
  br i1 %251, label %304, label %252

252:                                              ; preds = %249
  %253 = getelementptr %"class.base::internal::UncheckedObserverAdapter", %"class.base::internal::UncheckedObserverAdapter"* %235, i64 -2, i32 0
  %254 = ptrtoint i8** %253 to i64
  %255 = sub i64 %254, %247
  %256 = lshr i64 %255, 3
  %257 = add nuw nsw i64 %256, 1
  %258 = and i64 %257, 3
  %259 = icmp eq i64 %258, 0
  br i1 %259, label %278, label %260

260:                                              ; preds = %252, %273
  %261 = phi %"class.base::internal::UncheckedObserverAdapter"* [ %275, %273 ], [ %250, %252 ]
  %262 = phi i64 [ %274, %273 ], [ %247, %252 ]
  %263 = phi i64 [ %276, %273 ], [ %258, %252 ]
  %264 = getelementptr inbounds %"class.base::internal::UncheckedObserverAdapter", %"class.base::internal::UncheckedObserverAdapter"* %261, i64 0, i32 0
  %265 = load i8*, i8** %264, align 8
  %266 = icmp eq i8* %265, null
  br i1 %266, label %273, label %267

267:                                              ; preds = %260
  %268 = ptrtoint i8* %265 to i64
  %269 = inttoptr i64 %262 to %"class.base::internal::UncheckedObserverAdapter"*
  %270 = inttoptr i64 %262 to i64*
  store i64 %268, i64* %270, align 8
  %271 = getelementptr inbounds %"class.base::internal::UncheckedObserverAdapter", %"class.base::internal::UncheckedObserverAdapter"* %269, i64 1
  %272 = ptrtoint %"class.base::internal::UncheckedObserverAdapter"* %271 to i64
  br label %273

273:                                              ; preds = %267, %260
  %274 = phi i64 [ %262, %260 ], [ %272, %267 ]
  %275 = getelementptr inbounds %"class.base::internal::UncheckedObserverAdapter", %"class.base::internal::UncheckedObserverAdapter"* %261, i64 1
  %276 = add i64 %263, -1
  %277 = icmp eq i64 %276, 0
  br i1 %277, label %278, label %260, !llvm.loop !8

278:                                              ; preds = %273, %252
  %279 = phi i64 [ undef, %252 ], [ %274, %273 ]
  %280 = phi %"class.base::internal::UncheckedObserverAdapter"* [ %250, %252 ], [ %275, %273 ]
  %281 = phi i64 [ %247, %252 ], [ %274, %273 ]
  %282 = icmp ult i64 %255, 24
  br i1 %282, label %300, label %283

283:                                              ; preds = %278, %509
  %284 = phi %"class.base::internal::UncheckedObserverAdapter"* [ %511, %509 ], [ %280, %278 ]
  %285 = phi i64 [ %510, %509 ], [ %281, %278 ]
  %286 = getelementptr inbounds %"class.base::internal::UncheckedObserverAdapter", %"class.base::internal::UncheckedObserverAdapter"* %284, i64 0, i32 0
  %287 = load i8*, i8** %286, align 8
  %288 = icmp eq i8* %287, null
  br i1 %288, label %295, label %289

289:                                              ; preds = %283
  %290 = ptrtoint i8* %287 to i64
  %291 = inttoptr i64 %285 to %"class.base::internal::UncheckedObserverAdapter"*
  %292 = inttoptr i64 %285 to i64*
  store i64 %290, i64* %292, align 8
  %293 = getelementptr inbounds %"class.base::internal::UncheckedObserverAdapter", %"class.base::internal::UncheckedObserverAdapter"* %291, i64 1
  %294 = ptrtoint %"class.base::internal::UncheckedObserverAdapter"* %293 to i64
  br label %295

295:                                              ; preds = %289, %283
  %296 = phi i64 [ %285, %283 ], [ %294, %289 ]
  %297 = getelementptr inbounds %"class.base::internal::UncheckedObserverAdapter", %"class.base::internal::UncheckedObserverAdapter"* %284, i64 1, i32 0
  %298 = load i8*, i8** %297, align 8
  %299 = icmp eq i8* %298, null
  br i1 %299, label %487, label %481

300:                                              ; preds = %509, %278
  %301 = phi i64 [ %279, %278 ], [ %510, %509 ]
  %302 = inttoptr i64 %301 to %"class.base::internal::UncheckedObserverAdapter"*
  %303 = load %"class.base::internal::UncheckedObserverAdapter"*, %"class.base::internal::UncheckedObserverAdapter"** %234, align 8
  br label %304

304:                                              ; preds = %300, %249
  %305 = phi %"class.base::internal::UncheckedObserverAdapter"* [ %235, %249 ], [ %303, %300 ]
  %306 = phi %"class.base::internal::UncheckedObserverAdapter"* [ %246, %249 ], [ %302, %300 ]
  %307 = icmp eq %"class.base::internal::UncheckedObserverAdapter"* %306, %305
  br i1 %307, label %309, label %308

308:                                              ; preds = %304
  store %"class.base::internal::UncheckedObserverAdapter"* %306, %"class.base::internal::UncheckedObserverAdapter"** %234, align 8
  br label %309

309:                                              ; preds = %242, %308, %304, %245, %222
  %310 = load %"class.base::ObserverList"*, %"class.base::ObserverList"** %172, align 8
  %311 = icmp eq %"class.base::ObserverList"* %310, null
  br i1 %311, label %313, label %312

312:                                              ; preds = %309
  store %"class.base::ObserverList"* null, %"class.base::ObserverList"** %172, align 8
  call void @_ZN4base8internal12LinkNodeBase14RemoveFromListEv(%"class.base::internal::LinkNodeBase"* nonnull %175) #9
  br label %313

313:                                              ; preds = %197, %220, %309, %312
  call void @llvm.lifetime.end.p0i8(i64 40, i8* nonnull %171) #9
  %314 = load %"class.base::ObserverList"*, %"class.base::ObserverList"** %118, align 8
  %315 = icmp eq %"class.base::ObserverList"* %314, null
  br i1 %315, label %406, label %316

316:                                              ; preds = %313
  %317 = getelementptr inbounds %"class.base::ObserverList", %"class.base::ObserverList"* %314, i64 0, i32 1
  %318 = getelementptr inbounds %"class.base::ObserverList", %"class.base::ObserverList"* %314, i64 0, i32 1, i32 0, i32 0, i32 1
  %319 = bitcast %"class.base::internal::LinkNodeBase"** %318 to %"class.base::LinkNode"**
  %320 = load %"class.base::LinkNode"*, %"class.base::LinkNode"** %319, align 8
  %321 = bitcast %"class.base::LinkedList"* %317 to %"class.base::LinkNode"**
  %322 = load %"class.base::LinkNode"*, %"class.base::LinkNode"** %321, align 8
  %323 = icmp eq %"class.base::LinkNode"* %320, %322
  br i1 %323, label %324, label %402

324:                                              ; preds = %316
  %325 = getelementptr inbounds %"class.base::ObserverList", %"class.base::ObserverList"* %314, i64 0, i32 0, i32 0, i32 0
  %326 = load %"class.base::internal::UncheckedObserverAdapter"*, %"class.base::internal::UncheckedObserverAdapter"** %325, align 8
  %327 = getelementptr inbounds %"class.base::ObserverList", %"class.base::ObserverList"* %314, i64 0, i32 0, i32 0, i32 1
  %328 = load %"class.base::internal::UncheckedObserverAdapter"*, %"class.base::internal::UncheckedObserverAdapter"** %327, align 8
  %329 = icmp eq %"class.base::internal::UncheckedObserverAdapter"* %326, %328
  br i1 %329, label %338, label %330

330:                                              ; preds = %324, %335
  %331 = phi %"class.base::internal::UncheckedObserverAdapter"* [ %336, %335 ], [ %326, %324 ]
  %332 = getelementptr inbounds %"class.base::internal::UncheckedObserverAdapter", %"class.base::internal::UncheckedObserverAdapter"* %331, i64 0, i32 0
  %333 = load i8*, i8** %332, align 8
  %334 = icmp eq i8* %333, null
  br i1 %334, label %338, label %335

335:                                              ; preds = %330
  %336 = getelementptr inbounds %"class.base::internal::UncheckedObserverAdapter", %"class.base::internal::UncheckedObserverAdapter"* %331, i64 1
  %337 = icmp eq %"class.base::internal::UncheckedObserverAdapter"* %336, %328
  br i1 %337, label %402, label %330

338:                                              ; preds = %330, %324
  %339 = phi %"class.base::internal::UncheckedObserverAdapter"* [ %326, %324 ], [ %331, %330 ]
  %340 = ptrtoint %"class.base::internal::UncheckedObserverAdapter"* %339 to i64
  %341 = icmp eq %"class.base::internal::UncheckedObserverAdapter"* %339, %328
  br i1 %341, label %402, label %342

342:                                              ; preds = %338
  %343 = getelementptr inbounds %"class.base::internal::UncheckedObserverAdapter", %"class.base::internal::UncheckedObserverAdapter"* %339, i64 1
  %344 = icmp eq %"class.base::internal::UncheckedObserverAdapter"* %343, %328
  br i1 %344, label %397, label %345

345:                                              ; preds = %342
  %346 = getelementptr %"class.base::internal::UncheckedObserverAdapter", %"class.base::internal::UncheckedObserverAdapter"* %328, i64 -2, i32 0
  %347 = ptrtoint i8** %346 to i64
  %348 = sub i64 %347, %340
  %349 = lshr i64 %348, 3
  %350 = add nuw nsw i64 %349, 1
  %351 = and i64 %350, 3
  %352 = icmp eq i64 %351, 0
  br i1 %352, label %371, label %353

353:                                              ; preds = %345, %366
  %354 = phi %"class.base::internal::UncheckedObserverAdapter"* [ %368, %366 ], [ %343, %345 ]
  %355 = phi i64 [ %367, %366 ], [ %340, %345 ]
  %356 = phi i64 [ %369, %366 ], [ %351, %345 ]
  %357 = getelementptr inbounds %"class.base::internal::UncheckedObserverAdapter", %"class.base::internal::UncheckedObserverAdapter"* %354, i64 0, i32 0
  %358 = load i8*, i8** %357, align 8
  %359 = icmp eq i8* %358, null
  br i1 %359, label %366, label %360

360:                                              ; preds = %353
  %361 = ptrtoint i8* %358 to i64
  %362 = inttoptr i64 %355 to %"class.base::internal::UncheckedObserverAdapter"*
  %363 = inttoptr i64 %355 to i64*
  store i64 %361, i64* %363, align 8
  %364 = getelementptr inbounds %"class.base::internal::UncheckedObserverAdapter", %"class.base::internal::UncheckedObserverAdapter"* %362, i64 1
  %365 = ptrtoint %"class.base::internal::UncheckedObserverAdapter"* %364 to i64
  br label %366

366:                                              ; preds = %360, %353
  %367 = phi i64 [ %355, %353 ], [ %365, %360 ]
  %368 = getelementptr inbounds %"class.base::internal::UncheckedObserverAdapter", %"class.base::internal::UncheckedObserverAdapter"* %354, i64 1
  %369 = add i64 %356, -1
  %370 = icmp eq i64 %369, 0
  br i1 %370, label %371, label %353, !llvm.loop !10

371:                                              ; preds = %366, %345
  %372 = phi i64 [ undef, %345 ], [ %367, %366 ]
  %373 = phi %"class.base::internal::UncheckedObserverAdapter"* [ %343, %345 ], [ %368, %366 ]
  %374 = phi i64 [ %340, %345 ], [ %367, %366 ]
  %375 = icmp ult i64 %348, 24
  br i1 %375, label %393, label %376

376:                                              ; preds = %371, %477
  %377 = phi %"class.base::internal::UncheckedObserverAdapter"* [ %479, %477 ], [ %373, %371 ]
  %378 = phi i64 [ %478, %477 ], [ %374, %371 ]
  %379 = getelementptr inbounds %"class.base::internal::UncheckedObserverAdapter", %"class.base::internal::UncheckedObserverAdapter"* %377, i64 0, i32 0
  %380 = load i8*, i8** %379, align 8
  %381 = icmp eq i8* %380, null
  br i1 %381, label %388, label %382

382:                                              ; preds = %376
  %383 = ptrtoint i8* %380 to i64
  %384 = inttoptr i64 %378 to %"class.base::internal::UncheckedObserverAdapter"*
  %385 = inttoptr i64 %378 to i64*
  store i64 %383, i64* %385, align 8
  %386 = getelementptr inbounds %"class.base::internal::UncheckedObserverAdapter", %"class.base::internal::UncheckedObserverAdapter"* %384, i64 1
  %387 = ptrtoint %"class.base::internal::UncheckedObserverAdapter"* %386 to i64
  br label %388

388:                                              ; preds = %382, %376
  %389 = phi i64 [ %378, %376 ], [ %387, %382 ]
  %390 = getelementptr inbounds %"class.base::internal::UncheckedObserverAdapter", %"class.base::internal::UncheckedObserverAdapter"* %377, i64 1, i32 0
  %391 = load i8*, i8** %390, align 8
  %392 = icmp eq i8* %391, null
  br i1 %392, label %455, label %449

393:                                              ; preds = %477, %371
  %394 = phi i64 [ %372, %371 ], [ %478, %477 ]
  %395 = inttoptr i64 %394 to %"class.base::internal::UncheckedObserverAdapter"*
  %396 = load %"class.base::internal::UncheckedObserverAdapter"*, %"class.base::internal::UncheckedObserverAdapter"** %327, align 8
  br label %397

397:                                              ; preds = %393, %342
  %398 = phi %"class.base::internal::UncheckedObserverAdapter"* [ %328, %342 ], [ %396, %393 ]
  %399 = phi %"class.base::internal::UncheckedObserverAdapter"* [ %339, %342 ], [ %395, %393 ]
  %400 = icmp eq %"class.base::internal::UncheckedObserverAdapter"* %399, %398
  br i1 %400, label %402, label %401

401:                                              ; preds = %397
  store %"class.base::internal::UncheckedObserverAdapter"* %399, %"class.base::internal::UncheckedObserverAdapter"** %327, align 8
  br label %402

402:                                              ; preds = %335, %401, %397, %338, %316
  %403 = load %"class.base::ObserverList"*, %"class.base::ObserverList"** %118, align 8
  %404 = icmp eq %"class.base::ObserverList"* %403, null
  br i1 %404, label %406, label %405

405:                                              ; preds = %402
  store %"class.base::ObserverList"* null, %"class.base::ObserverList"** %118, align 8
  call void @_ZN4base8internal12LinkNodeBase14RemoveFromListEv(%"class.base::internal::LinkNodeBase"* nonnull %127) #9
  br label %406

406:                                              ; preds = %313, %402, %405
  call void @llvm.lifetime.end.p0i8(i64 40, i8* nonnull %117) #9
  br label %448

407:                                              ; preds = %213
  %408 = getelementptr inbounds %"class.base::ObserverList", %"class.base::ObserverList"* %180, i64 0, i32 0, i32 0, i32 0
  %409 = load %"class.base::internal::UncheckedObserverAdapter"*, %"class.base::internal::UncheckedObserverAdapter"** %408, align 8
  %410 = getelementptr inbounds %"class.base::internal::UncheckedObserverAdapter", %"class.base::internal::UncheckedObserverAdapter"* %409, i64 %216
  %411 = bitcast %"class.base::internal::UncheckedObserverAdapter"* %410 to %"class.net::nqe::internal::NetworkQualityStore::NetworkQualitiesCacheObserver"**
  %412 = load %"class.net::nqe::internal::NetworkQualityStore::NetworkQualitiesCacheObserver"*, %"class.net::nqe::internal::NetworkQualityStore::NetworkQualitiesCacheObserver"** %411, align 8
  %413 = bitcast %"class.net::nqe::internal::NetworkQualityStore::NetworkQualitiesCacheObserver"* %412 to void (%"class.net::nqe::internal::NetworkQualityStore::NetworkQualitiesCacheObserver"*, %"struct.net::nqe::internal::NetworkID"*, %"class.net::nqe::internal::CachedNetworkQuality"*)***
  %414 = load void (%"class.net::nqe::internal::NetworkQualityStore::NetworkQualitiesCacheObserver"*, %"struct.net::nqe::internal::NetworkID"*, %"class.net::nqe::internal::CachedNetworkQuality"*)**, void (%"class.net::nqe::internal::NetworkQualityStore::NetworkQualitiesCacheObserver"*, %"struct.net::nqe::internal::NetworkID"*, %"class.net::nqe::internal::CachedNetworkQuality"*)*** %413, align 8
  %415 = load void (%"class.net::nqe::internal::NetworkQualityStore::NetworkQualitiesCacheObserver"*, %"struct.net::nqe::internal::NetworkID"*, %"class.net::nqe::internal::CachedNetworkQuality"*)*, void (%"class.net::nqe::internal::NetworkQualityStore::NetworkQualitiesCacheObserver"*, %"struct.net::nqe::internal::NetworkID"*, %"class.net::nqe::internal::CachedNetworkQuality"*)** %414, align 8
  call void %415(%"class.net::nqe::internal::NetworkQualityStore::NetworkQualitiesCacheObserver"* %412, %"struct.net::nqe::internal::NetworkID"* dereferenceable(40) %1, %"class.net::nqe::internal::CachedNetworkQuality"* dereferenceable(40) %2) #9
  %416 = load %"class.base::ObserverList"*, %"class.base::ObserverList"** %118, align 8
  %417 = icmp eq %"class.base::ObserverList"* %416, null
  br i1 %417, label %418, label %419

418:                                              ; preds = %443, %439, %407, %419, %433
  br label %179

419:                                              ; preds = %407
  %420 = load i64, i64* %119, align 8
  %421 = add i64 %420, 1
  store i64 %421, i64* %119, align 8
  %422 = getelementptr inbounds %"class.base::ObserverList", %"class.base::ObserverList"* %416, i64 0, i32 0, i32 0, i32 1
  %423 = bitcast %"class.base::internal::UncheckedObserverAdapter"** %422 to i64*
  %424 = load i64, i64* %423, align 8
  %425 = bitcast %"class.base::ObserverList"* %416 to i64*
  %426 = load i64, i64* %425, align 8
  %427 = sub i64 %424, %426
  %428 = ashr exact i64 %427, 3
  %429 = load i64, i64* %120, align 8
  %430 = icmp ult i64 %428, %429
  %431 = select i1 %430, i64 %428, i64 %429
  %432 = icmp ult i64 %421, %431
  br i1 %432, label %433, label %418

433:                                              ; preds = %419
  %434 = inttoptr i64 %426 to %"class.base::internal::UncheckedObserverAdapter"*
  %435 = getelementptr inbounds %"class.base::ObserverList", %"class.base::ObserverList"* %416, i64 0, i32 0, i32 0, i32 0
  %436 = getelementptr inbounds %"class.base::internal::UncheckedObserverAdapter", %"class.base::internal::UncheckedObserverAdapter"* %434, i64 %421, i32 0
  %437 = load i8*, i8** %436, align 8
  %438 = icmp eq i8* %437, null
  br i1 %438, label %439, label %418

439:                                              ; preds = %433, %443
  %440 = phi i64 [ %441, %443 ], [ %421, %433 ]
  %441 = add nuw i64 %440, 1
  store i64 %441, i64* %119, align 8
  %442 = icmp ult i64 %441, %431
  br i1 %442, label %443, label %418

443:                                              ; preds = %439
  %444 = load %"class.base::internal::UncheckedObserverAdapter"*, %"class.base::internal::UncheckedObserverAdapter"** %435, align 8
  %445 = getelementptr inbounds %"class.base::internal::UncheckedObserverAdapter", %"class.base::internal::UncheckedObserverAdapter"* %444, i64 %441, i32 0
  %446 = load i8*, i8** %445, align 8
  %447 = icmp eq i8* %446, null
  br i1 %447, label %439, label %418

448:                                              ; preds = %3, %406
  ret void

449:                                              ; preds = %388
  %450 = ptrtoint i8* %391 to i64
  %451 = inttoptr i64 %389 to %"class.base::internal::UncheckedObserverAdapter"*
  %452 = inttoptr i64 %389 to i64*
  store i64 %450, i64* %452, align 8
  %453 = getelementptr inbounds %"class.base::internal::UncheckedObserverAdapter", %"class.base::internal::UncheckedObserverAdapter"* %451, i64 1
  %454 = ptrtoint %"class.base::internal::UncheckedObserverAdapter"* %453 to i64
  br label %455

455:                                              ; preds = %449, %388
  %456 = phi i64 [ %389, %388 ], [ %454, %449 ]
  %457 = getelementptr inbounds %"class.base::internal::UncheckedObserverAdapter", %"class.base::internal::UncheckedObserverAdapter"* %377, i64 2, i32 0
  %458 = load i8*, i8** %457, align 8
  %459 = icmp eq i8* %458, null
  br i1 %459, label %466, label %460

460:                                              ; preds = %455
  %461 = ptrtoint i8* %458 to i64
  %462 = inttoptr i64 %456 to %"class.base::internal::UncheckedObserverAdapter"*
  %463 = inttoptr i64 %456 to i64*
  store i64 %461, i64* %463, align 8
  %464 = getelementptr inbounds %"class.base::internal::UncheckedObserverAdapter", %"class.base::internal::UncheckedObserverAdapter"* %462, i64 1
  %465 = ptrtoint %"class.base::internal::UncheckedObserverAdapter"* %464 to i64
  br label %466

466:                                              ; preds = %460, %455
  %467 = phi i64 [ %456, %455 ], [ %465, %460 ]
  %468 = getelementptr inbounds %"class.base::internal::UncheckedObserverAdapter", %"class.base::internal::UncheckedObserverAdapter"* %377, i64 3, i32 0
  %469 = load i8*, i8** %468, align 8
  %470 = icmp eq i8* %469, null
  br i1 %470, label %477, label %471

471:                                              ; preds = %466
  %472 = ptrtoint i8* %469 to i64
  %473 = inttoptr i64 %467 to %"class.base::internal::UncheckedObserverAdapter"*
  %474 = inttoptr i64 %467 to i64*
  store i64 %472, i64* %474, align 8
  %475 = getelementptr inbounds %"class.base::internal::UncheckedObserverAdapter", %"class.base::internal::UncheckedObserverAdapter"* %473, i64 1
  %476 = ptrtoint %"class.base::internal::UncheckedObserverAdapter"* %475 to i64
  br label %477

477:                                              ; preds = %471, %466
  %478 = phi i64 [ %467, %466 ], [ %476, %471 ]
  %479 = getelementptr inbounds %"class.base::internal::UncheckedObserverAdapter", %"class.base::internal::UncheckedObserverAdapter"* %377, i64 4
  %480 = icmp eq %"class.base::internal::UncheckedObserverAdapter"* %479, %328
  br i1 %480, label %393, label %376

481:                                              ; preds = %295
  %482 = ptrtoint i8* %298 to i64
  %483 = inttoptr i64 %296 to %"class.base::internal::UncheckedObserverAdapter"*
  %484 = inttoptr i64 %296 to i64*
  store i64 %482, i64* %484, align 8
  %485 = getelementptr inbounds %"class.base::internal::UncheckedObserverAdapter", %"class.base::internal::UncheckedObserverAdapter"* %483, i64 1
  %486 = ptrtoint %"class.base::internal::UncheckedObserverAdapter"* %485 to i64
  br label %487

487:                                              ; preds = %481, %295
  %488 = phi i64 [ %296, %295 ], [ %486, %481 ]
  %489 = getelementptr inbounds %"class.base::internal::UncheckedObserverAdapter", %"class.base::internal::UncheckedObserverAdapter"* %284, i64 2, i32 0
  %490 = load i8*, i8** %489, align 8
  %491 = icmp eq i8* %490, null
  br i1 %491, label %498, label %492

492:                                              ; preds = %487
  %493 = ptrtoint i8* %490 to i64
  %494 = inttoptr i64 %488 to %"class.base::internal::UncheckedObserverAdapter"*
  %495 = inttoptr i64 %488 to i64*
  store i64 %493, i64* %495, align 8
  %496 = getelementptr inbounds %"class.base::internal::UncheckedObserverAdapter", %"class.base::internal::UncheckedObserverAdapter"* %494, i64 1
  %497 = ptrtoint %"class.base::internal::UncheckedObserverAdapter"* %496 to i64
  br label %498

498:                                              ; preds = %492, %487
  %499 = phi i64 [ %488, %487 ], [ %497, %492 ]
  %500 = getelementptr inbounds %"class.base::internal::UncheckedObserverAdapter", %"class.base::internal::UncheckedObserverAdapter"* %284, i64 3, i32 0
  %501 = load i8*, i8** %500, align 8
  %502 = icmp eq i8* %501, null
  br i1 %502, label %509, label %503

503:                                              ; preds = %498
  %504 = ptrtoint i8* %501 to i64
  %505 = inttoptr i64 %499 to %"class.base::internal::UncheckedObserverAdapter"*
  %506 = inttoptr i64 %499 to i64*
  store i64 %504, i64* %506, align 8
  %507 = getelementptr inbounds %"class.base::internal::UncheckedObserverAdapter", %"class.base::internal::UncheckedObserverAdapter"* %505, i64 1
  %508 = ptrtoint %"class.base::internal::UncheckedObserverAdapter"* %507 to i64
  br label %509

509:                                              ; preds = %503, %498
  %510 = phi i64 [ %499, %498 ], [ %508, %503 ]
  %511 = getelementptr inbounds %"class.base::internal::UncheckedObserverAdapter", %"class.base::internal::UncheckedObserverAdapter"* %284, i64 4
  %512 = icmp eq %"class.base::internal::UncheckedObserverAdapter"* %511, %235
  br i1 %512, label %300, label %283
}

; Function Attrs: argmemonly nounwind
declare void @llvm.lifetime.start.p0i8(i64 immarg, i8* nocapture) #2

; Function Attrs: argmemonly nounwind
declare void @llvm.lifetime.end.p0i8(i64 immarg, i8* nocapture) #2

declare zeroext i1 @_ZNK3net3nqe8internal20CachedNetworkQuality9OlderThanERKS2_(%"class.net::nqe::internal::CachedNetworkQuality"*, %"class.net::nqe::internal::CachedNetworkQuality"* dereferenceable(40)) local_unnamed_addr #3

; Function Attrs: argmemonly nounwind
declare void @llvm.memcpy.p0i8.p0i8.i64(i8* nocapture writeonly, i8* nocapture readonly, i64, i1 immarg) #2

; Function Attrs: argmemonly nounwind
declare void @llvm.memset.p0i8.i64(i8* nocapture writeonly, i8, i64, i1 immarg) #2

; Function Attrs: nounwind ssp uwtable
define hidden zeroext i1 @_ZNK3net3nqe8internal19NetworkQualityStore7GetByIdERKNS1_9NetworkIDEPNS1_20CachedNetworkQualityE(%"class.net::nqe::internal::NetworkQualityStore"*, %"struct.net::nqe::internal::NetworkID"* nocapture readonly dereferenceable(40), %"class.net::nqe::internal::CachedNetworkQuality"*) local_unnamed_addr #0 align 2 {
  %4 = getelementptr inbounds %"class.net::nqe::internal::NetworkQualityStore", %"class.net::nqe::internal::NetworkQualityStore"* %0, i64 0, i32 0, i32 0, i32 0
  %5 = load %"class.std::__1::__tree_end_node"*, %"class.std::__1::__tree_end_node"** %4, align 8
  %6 = getelementptr inbounds %"class.net::nqe::internal::NetworkQualityStore", %"class.net::nqe::internal::NetworkQualityStore"* %0, i64 0, i32 0, i32 0, i32 1, i32 0, i32 0
  %7 = icmp eq %"class.std::__1::__tree_end_node"* %5, %6
  br i1 %7, label %112, label %8

8:                                                ; preds = %3
  %9 = getelementptr inbounds %"struct.net::nqe::internal::NetworkID", %"struct.net::nqe::internal::NetworkID"* %1, i64 0, i32 0
  %10 = load i32, i32* %9, align 8
  %11 = getelementptr inbounds %"struct.net::nqe::internal::NetworkID", %"struct.net::nqe::internal::NetworkID"* %1, i64 0, i32 2
  %12 = bitcast %"class.std::__1::basic_string"* %11 to %"struct.std::__1::basic_string<char, std::__1::char_traits<char>, std::__1::allocator<char> >::__short"*
  %13 = getelementptr inbounds %"struct.std::__1::basic_string<char, std::__1::char_traits<char>, std::__1::allocator<char> >::__short", %"struct.std::__1::basic_string<char, std::__1::char_traits<char>, std::__1::allocator<char> >::__short"* %12, i64 0, i32 1, i32 0
  %14 = load i8, i8* %13, align 1
  %15 = icmp slt i8 %14, 0
  %16 = getelementptr inbounds %"struct.net::nqe::internal::NetworkID", %"struct.net::nqe::internal::NetworkID"* %1, i64 0, i32 2, i32 0, i32 0, i32 0, i32 0, i32 0, i32 1
  %17 = zext i8 %14 to i64
  %18 = getelementptr inbounds %"class.std::__1::basic_string", %"class.std::__1::basic_string"* %11, i64 0, i32 0, i32 0, i32 0, i32 0, i32 0, i32 0
  %19 = bitcast %"class.std::__1::basic_string"* %11 to i8*
  %20 = getelementptr inbounds %"struct.net::nqe::internal::NetworkID", %"struct.net::nqe::internal::NetworkID"* %1, i64 0, i32 3
  br label %21

21:                                               ; preds = %8, %109
  %22 = phi %"class.std::__1::__tree_end_node"* [ %5, %8 ], [ %110, %109 ]
  %23 = getelementptr inbounds %"class.std::__1::__tree_end_node", %"class.std::__1::__tree_end_node"* %22, i64 4
  %24 = bitcast %"class.std::__1::__tree_end_node"* %23 to i32*
  %25 = load i32, i32* %24, align 8
  %26 = icmp eq i32 %10, %25
  br i1 %26, label %27, label %81

27:                                               ; preds = %21
  %28 = getelementptr inbounds %"class.std::__1::__tree_end_node", %"class.std::__1::__tree_end_node"* %22, i64 5
  %29 = load i64, i64* %16, align 8
  %30 = select i1 %15, i64 %29, i64 %17
  %31 = bitcast %"class.std::__1::__tree_end_node"* %28 to %"struct.std::__1::basic_string<char, std::__1::char_traits<char>, std::__1::allocator<char> >::__short"*
  %32 = getelementptr inbounds %"struct.std::__1::basic_string<char, std::__1::char_traits<char>, std::__1::allocator<char> >::__short", %"struct.std::__1::basic_string<char, std::__1::char_traits<char>, std::__1::allocator<char> >::__short"* %31, i64 0, i32 1, i32 0
  %33 = load i8, i8* %32, align 1
  %34 = icmp slt i8 %33, 0
  %35 = getelementptr inbounds %"class.std::__1::__tree_end_node", %"class.std::__1::__tree_end_node"* %22, i64 6
  %36 = bitcast %"class.std::__1::__tree_end_node"* %35 to i64*
  %37 = load i64, i64* %36, align 8
  %38 = zext i8 %33 to i64
  %39 = select i1 %34, i64 %37, i64 %38
  %40 = icmp eq i64 %30, %39
  br i1 %40, label %41, label %81

41:                                               ; preds = %27
  %42 = load i8*, i8** %18, align 8
  %43 = select i1 %15, i8* %42, i8* %19
  %44 = bitcast %"class.std::__1::__tree_end_node"* %28 to i8**
  %45 = load i8*, i8** %44, align 8
  %46 = bitcast %"class.std::__1::__tree_end_node"* %28 to i8*
  %47 = select i1 %34, i8* %45, i8* %46
  %48 = icmp eq i64 %30, 0
  br i1 %15, label %55, label %49

49:                                               ; preds = %41
  br i1 %48, label %71, label %50

50:                                               ; preds = %49
  %51 = ptrtoint i8* %42 to i64
  %52 = trunc i64 %51 to i8
  %53 = load i8, i8* %47, align 1
  %54 = icmp eq i8 %53, %52
  br i1 %54, label %56, label %81

55:                                               ; preds = %41
  br i1 %48, label %71, label %68

56:                                               ; preds = %50, %63
  %57 = phi i64 [ %60, %63 ], [ %17, %50 ]
  %58 = phi i8* [ %61, %63 ], [ %19, %50 ]
  %59 = phi i8* [ %64, %63 ], [ %47, %50 ]
  %60 = add i64 %57, -1
  %61 = getelementptr inbounds i8, i8* %58, i64 1
  %62 = icmp eq i64 %60, 0
  br i1 %62, label %71, label %63

63:                                               ; preds = %56
  %64 = getelementptr inbounds i8, i8* %59, i64 1
  %65 = load i8, i8* %61, align 1
  %66 = load i8, i8* %64, align 1
  %67 = icmp eq i8 %65, %66
  br i1 %67, label %56, label %81

68:                                               ; preds = %55
  %69 = tail call i32 @bcmp(i8* %43, i8* %47, i64 %30) #9
  %70 = icmp eq i32 %69, 0
  br i1 %70, label %71, label %81

71:                                               ; preds = %56, %68, %49, %55
  %72 = load i32, i32* %20, align 8
  %73 = getelementptr inbounds %"class.std::__1::__tree_end_node", %"class.std::__1::__tree_end_node"* %22, i64 8
  %74 = bitcast %"class.std::__1::__tree_end_node"* %73 to i32*
  %75 = load i32, i32* %74, align 8
  %76 = icmp eq i32 %72, %75
  br i1 %76, label %77, label %81

77:                                               ; preds = %71
  %78 = getelementptr inbounds %"class.std::__1::__tree_end_node", %"class.std::__1::__tree_end_node"* %22, i64 9
  %79 = bitcast %"class.std::__1::__tree_end_node"* %78 to %"class.net::nqe::internal::CachedNetworkQuality"*
  %80 = tail call dereferenceable(40) %"class.net::nqe::internal::CachedNetworkQuality"* @_ZN3net3nqe8internal20CachedNetworkQualityaSERKS2_(%"class.net::nqe::internal::CachedNetworkQuality"* %2, %"class.net::nqe::internal::CachedNetworkQuality"* dereferenceable(40) %79) #9
  br label %352

81:                                               ; preds = %63, %50, %68, %27, %21, %71
  %82 = getelementptr inbounds %"class.std::__1::__tree_end_node", %"class.std::__1::__tree_end_node"* %22, i64 1, i32 0
  %83 = load %"class.std::__1::__tree_node_base"*, %"class.std::__1::__tree_node_base"** %82, align 8
  %84 = icmp eq %"class.std::__1::__tree_node_base"* %83, null
  br i1 %84, label %85, label %93

85:                                               ; preds = %81
  %86 = bitcast %"class.std::__1::__tree_end_node"* %22 to %"class.std::__1::__tree_node_base"*
  %87 = getelementptr inbounds %"class.std::__1::__tree_end_node", %"class.std::__1::__tree_end_node"* %22, i64 2
  %88 = bitcast %"class.std::__1::__tree_end_node"* %87 to %"class.std::__1::__tree_end_node"**
  %89 = load %"class.std::__1::__tree_end_node"*, %"class.std::__1::__tree_end_node"** %88, align 8
  %90 = getelementptr inbounds %"class.std::__1::__tree_end_node", %"class.std::__1::__tree_end_node"* %89, i64 0, i32 0
  %91 = load %"class.std::__1::__tree_node_base"*, %"class.std::__1::__tree_node_base"** %90, align 8
  %92 = icmp eq %"class.std::__1::__tree_node_base"* %91, %86
  br i1 %92, label %109, label %100

93:                                               ; preds = %81, %93
  %94 = phi %"class.std::__1::__tree_node_base"* [ %96, %93 ], [ %83, %81 ]
  %95 = getelementptr inbounds %"class.std::__1::__tree_node_base", %"class.std::__1::__tree_node_base"* %94, i64 0, i32 0, i32 0
  %96 = load %"class.std::__1::__tree_node_base"*, %"class.std::__1::__tree_node_base"** %95, align 8
  %97 = icmp eq %"class.std::__1::__tree_node_base"* %96, null
  br i1 %97, label %98, label %93

98:                                               ; preds = %93
  %99 = getelementptr inbounds %"class.std::__1::__tree_node_base", %"class.std::__1::__tree_node_base"* %94, i64 0, i32 0
  br label %109

100:                                              ; preds = %85, %100
  %101 = phi %"class.std::__1::__tree_end_node"** [ %104, %100 ], [ %88, %85 ]
  %102 = bitcast %"class.std::__1::__tree_end_node"** %101 to %"class.std::__1::__tree_node_base"**
  %103 = load %"class.std::__1::__tree_node_base"*, %"class.std::__1::__tree_node_base"** %102, align 8
  %104 = getelementptr inbounds %"class.std::__1::__tree_node_base", %"class.std::__1::__tree_node_base"* %103, i64 0, i32 2
  %105 = load %"class.std::__1::__tree_end_node"*, %"class.std::__1::__tree_end_node"** %104, align 8
  %106 = getelementptr inbounds %"class.std::__1::__tree_end_node", %"class.std::__1::__tree_end_node"* %105, i64 0, i32 0
  %107 = load %"class.std::__1::__tree_node_base"*, %"class.std::__1::__tree_node_base"** %106, align 8
  %108 = icmp eq %"class.std::__1::__tree_node_base"* %107, %103
  br i1 %108, label %109, label %100

109:                                              ; preds = %100, %85, %98
  %110 = phi %"class.std::__1::__tree_end_node"* [ %99, %98 ], [ %89, %85 ], [ %105, %100 ]
  %111 = icmp eq %"class.std::__1::__tree_end_node"* %110, %6
  br i1 %111, label %112, label %21

112:                                              ; preds = %109, %3
  %113 = getelementptr inbounds %"struct.net::nqe::internal::NetworkID", %"struct.net::nqe::internal::NetworkID"* %1, i64 0, i32 3
  %114 = load i32, i32* %113, align 8
  %115 = icmp eq i32 %114, -2147483648
  %116 = ptrtoint %"class.std::__1::__tree_end_node"* %6 to i64
  %117 = ptrtoint %"class.std::__1::__tree_end_node"* %5 to i64
  br i1 %115, label %131, label %118

118:                                              ; preds = %112
  br i1 %7, label %245, label %119

119:                                              ; preds = %118
  %120 = getelementptr inbounds %"struct.net::nqe::internal::NetworkID", %"struct.net::nqe::internal::NetworkID"* %1, i64 0, i32 0
  %121 = load i32, i32* %120, align 8
  %122 = getelementptr inbounds %"struct.net::nqe::internal::NetworkID", %"struct.net::nqe::internal::NetworkID"* %1, i64 0, i32 2
  %123 = bitcast %"class.std::__1::basic_string"* %122 to %"struct.std::__1::basic_string<char, std::__1::char_traits<char>, std::__1::allocator<char> >::__short"*
  %124 = getelementptr inbounds %"struct.std::__1::basic_string<char, std::__1::char_traits<char>, std::__1::allocator<char> >::__short", %"struct.std::__1::basic_string<char, std::__1::char_traits<char>, std::__1::allocator<char> >::__short"* %123, i64 0, i32 1, i32 0
  %125 = load i8, i8* %124, align 1
  %126 = icmp slt i8 %125, 0
  %127 = getelementptr inbounds %"struct.net::nqe::internal::NetworkID", %"struct.net::nqe::internal::NetworkID"* %1, i64 0, i32 2, i32 0, i32 0, i32 0, i32 0, i32 0, i32 1
  %128 = zext i8 %125 to i64
  %129 = getelementptr inbounds %"class.std::__1::basic_string", %"class.std::__1::basic_string"* %122, i64 0, i32 0, i32 0, i32 0, i32 0, i32 0, i32 0
  %130 = bitcast %"class.std::__1::basic_string"* %122 to i8*
  br label %249

131:                                              ; preds = %112
  br i1 %7, label %144, label %132

132:                                              ; preds = %131
  %133 = getelementptr inbounds %"struct.net::nqe::internal::NetworkID", %"struct.net::nqe::internal::NetworkID"* %1, i64 0, i32 0
  %134 = load i32, i32* %133, align 8
  %135 = getelementptr inbounds %"struct.net::nqe::internal::NetworkID", %"struct.net::nqe::internal::NetworkID"* %1, i64 0, i32 2
  %136 = bitcast %"class.std::__1::basic_string"* %135 to %"struct.std::__1::basic_string<char, std::__1::char_traits<char>, std::__1::allocator<char> >::__short"*
  %137 = getelementptr inbounds %"struct.std::__1::basic_string<char, std::__1::char_traits<char>, std::__1::allocator<char> >::__short", %"struct.std::__1::basic_string<char, std::__1::char_traits<char>, std::__1::allocator<char> >::__short"* %136, i64 0, i32 1, i32 0
  %138 = load i8, i8* %137, align 1
  %139 = icmp slt i8 %138, 0
  %140 = getelementptr inbounds %"struct.net::nqe::internal::NetworkID", %"struct.net::nqe::internal::NetworkID"* %1, i64 0, i32 2, i32 0, i32 0, i32 0, i32 0, i32 0, i32 1
  %141 = zext i8 %138 to i64
  %142 = getelementptr inbounds %"class.std::__1::basic_string", %"class.std::__1::basic_string"* %135, i64 0, i32 0, i32 0, i32 0, i32 0, i32 0, i32 0
  %143 = bitcast %"class.std::__1::basic_string"* %135 to i8*
  br label %148

144:                                              ; preds = %237, %131
  %145 = phi i64 [ %116, %131 ], [ %210, %237 ]
  %146 = inttoptr i64 %145 to %"class.std::__1::__tree_end_node"*
  %147 = icmp eq %"class.std::__1::__tree_end_node"* %6, %146
  br i1 %147, label %352, label %241

148:                                              ; preds = %132, %237
  %149 = phi i64 [ %116, %132 ], [ %210, %237 ]
  %150 = phi i64 [ %117, %132 ], [ %239, %237 ]
  %151 = inttoptr i64 %150 to %"class.std::__1::__tree_node"*
  %152 = getelementptr inbounds %"class.std::__1::__tree_node", %"class.std::__1::__tree_node"* %151, i64 0, i32 2, i32 0, i32 0, i32 0
  %153 = load i32, i32* %152, align 8
  %154 = icmp eq i32 %134, %153
  br i1 %154, label %155, label %209

155:                                              ; preds = %148
  %156 = getelementptr inbounds %"class.std::__1::__tree_node", %"class.std::__1::__tree_node"* %151, i64 0, i32 2, i32 0, i32 0, i32 2
  %157 = load i64, i64* %140, align 8
  %158 = select i1 %139, i64 %157, i64 %141
  %159 = bitcast %"class.std::__1::basic_string"* %156 to %"struct.std::__1::basic_string<char, std::__1::char_traits<char>, std::__1::allocator<char> >::__short"*
  %160 = getelementptr inbounds %"struct.std::__1::basic_string<char, std::__1::char_traits<char>, std::__1::allocator<char> >::__short", %"struct.std::__1::basic_string<char, std::__1::char_traits<char>, std::__1::allocator<char> >::__short"* %159, i64 0, i32 1, i32 0
  %161 = load i8, i8* %160, align 1
  %162 = icmp slt i8 %161, 0
  %163 = getelementptr inbounds %"class.std::__1::__tree_node", %"class.std::__1::__tree_node"* %151, i64 0, i32 2, i32 0, i32 0, i32 2, i32 0, i32 0, i32 0, i32 0, i32 0, i32 1
  %164 = load i64, i64* %163, align 8
  %165 = zext i8 %161 to i64
  %166 = select i1 %162, i64 %164, i64 %165
  %167 = icmp eq i64 %158, %166
  br i1 %167, label %168, label %209

168:                                              ; preds = %155
  %169 = load i8*, i8** %142, align 8
  %170 = select i1 %139, i8* %169, i8* %143
  %171 = getelementptr inbounds %"class.std::__1::basic_string", %"class.std::__1::basic_string"* %156, i64 0, i32 0, i32 0, i32 0, i32 0, i32 0, i32 0
  %172 = load i8*, i8** %171, align 8
  %173 = bitcast %"class.std::__1::basic_string"* %156 to i8*
  %174 = select i1 %162, i8* %172, i8* %173
  %175 = icmp eq i64 %158, 0
  br i1 %139, label %182, label %176

176:                                              ; preds = %168
  br i1 %175, label %198, label %177

177:                                              ; preds = %176
  %178 = ptrtoint i8* %169 to i64
  %179 = trunc i64 %178 to i8
  %180 = load i8, i8* %174, align 1
  %181 = icmp eq i8 %180, %179
  br i1 %181, label %183, label %209

182:                                              ; preds = %168
  br i1 %175, label %198, label %195

183:                                              ; preds = %177, %190
  %184 = phi i64 [ %187, %190 ], [ %141, %177 ]
  %185 = phi i8* [ %188, %190 ], [ %143, %177 ]
  %186 = phi i8* [ %191, %190 ], [ %174, %177 ]
  %187 = add i64 %184, -1
  %188 = getelementptr inbounds i8, i8* %185, i64 1
  %189 = icmp eq i64 %187, 0
  br i1 %189, label %198, label %190

190:                                              ; preds = %183
  %191 = getelementptr inbounds i8, i8* %186, i64 1
  %192 = load i8, i8* %188, align 1
  %193 = load i8, i8* %191, align 1
  %194 = icmp eq i8 %192, %193
  br i1 %194, label %183, label %209

195:                                              ; preds = %182
  %196 = tail call i32 @bcmp(i8* %170, i8* %174, i64 %158) #9
  %197 = icmp eq i32 %196, 0
  br i1 %197, label %198, label %209

198:                                              ; preds = %183, %195, %176, %182
  %199 = inttoptr i64 %149 to %"class.std::__1::__tree_end_node"*
  %200 = icmp eq %"class.std::__1::__tree_end_node"* %6, %199
  br i1 %200, label %208, label %201

201:                                              ; preds = %198
  %202 = getelementptr inbounds %"class.std::__1::__tree_node", %"class.std::__1::__tree_node"* %151, i64 0, i32 2, i32 0, i32 0, i32 3
  %203 = load i32, i32* %202, align 8
  %204 = inttoptr i64 %149 to %"class.std::__1::__tree_node"*
  %205 = getelementptr inbounds %"class.std::__1::__tree_node", %"class.std::__1::__tree_node"* %204, i64 0, i32 2, i32 0, i32 0, i32 3
  %206 = load i32, i32* %205, align 8
  %207 = icmp sgt i32 %203, %206
  br i1 %207, label %208, label %209

208:                                              ; preds = %198, %201
  br label %209

209:                                              ; preds = %190, %177, %195, %155, %148, %201, %208
  %210 = phi i64 [ %149, %195 ], [ %150, %208 ], [ %149, %201 ], [ %149, %148 ], [ %149, %155 ], [ %149, %177 ], [ %149, %190 ]
  %211 = inttoptr i64 %150 to %"class.std::__1::__tree_node_base"*
  %212 = getelementptr inbounds %"class.std::__1::__tree_node_base", %"class.std::__1::__tree_node_base"* %211, i64 0, i32 1
  %213 = load %"class.std::__1::__tree_node_base"*, %"class.std::__1::__tree_node_base"** %212, align 8
  %214 = icmp eq %"class.std::__1::__tree_node_base"* %213, null
  br i1 %214, label %215, label %221

215:                                              ; preds = %209
  %216 = getelementptr inbounds %"class.std::__1::__tree_node_base", %"class.std::__1::__tree_node_base"* %211, i64 0, i32 2
  %217 = load %"class.std::__1::__tree_end_node"*, %"class.std::__1::__tree_end_node"** %216, align 8
  %218 = getelementptr inbounds %"class.std::__1::__tree_end_node", %"class.std::__1::__tree_end_node"* %217, i64 0, i32 0
  %219 = load %"class.std::__1::__tree_node_base"*, %"class.std::__1::__tree_node_base"** %218, align 8
  %220 = icmp eq %"class.std::__1::__tree_node_base"* %219, %211
  br i1 %220, label %237, label %228

221:                                              ; preds = %209, %221
  %222 = phi %"class.std::__1::__tree_node_base"* [ %224, %221 ], [ %213, %209 ]
  %223 = getelementptr inbounds %"class.std::__1::__tree_node_base", %"class.std::__1::__tree_node_base"* %222, i64 0, i32 0, i32 0
  %224 = load %"class.std::__1::__tree_node_base"*, %"class.std::__1::__tree_node_base"** %223, align 8
  %225 = icmp eq %"class.std::__1::__tree_node_base"* %224, null
  br i1 %225, label %226, label %221

226:                                              ; preds = %221
  %227 = getelementptr inbounds %"class.std::__1::__tree_node_base", %"class.std::__1::__tree_node_base"* %222, i64 0, i32 0
  br label %237

228:                                              ; preds = %215, %228
  %229 = phi %"class.std::__1::__tree_end_node"** [ %232, %228 ], [ %216, %215 ]
  %230 = bitcast %"class.std::__1::__tree_end_node"** %229 to %"class.std::__1::__tree_node_base"**
  %231 = load %"class.std::__1::__tree_node_base"*, %"class.std::__1::__tree_node_base"** %230, align 8
  %232 = getelementptr inbounds %"class.std::__1::__tree_node_base", %"class.std::__1::__tree_node_base"* %231, i64 0, i32 2
  %233 = load %"class.std::__1::__tree_end_node"*, %"class.std::__1::__tree_end_node"** %232, align 8
  %234 = getelementptr inbounds %"class.std::__1::__tree_end_node", %"class.std::__1::__tree_end_node"* %233, i64 0, i32 0
  %235 = load %"class.std::__1::__tree_node_base"*, %"class.std::__1::__tree_node_base"** %234, align 8
  %236 = icmp eq %"class.std::__1::__tree_node_base"* %235, %231
  br i1 %236, label %237, label %228

237:                                              ; preds = %228, %215, %226
  %238 = phi %"class.std::__1::__tree_end_node"* [ %227, %226 ], [ %217, %215 ], [ %233, %228 ]
  %239 = ptrtoint %"class.std::__1::__tree_end_node"* %238 to i64
  %240 = icmp eq %"class.std::__1::__tree_end_node"* %6, %238
  br i1 %240, label %144, label %148

241:                                              ; preds = %144
  %242 = inttoptr i64 %145 to %"class.std::__1::__tree_node"*
  %243 = getelementptr inbounds %"class.std::__1::__tree_node", %"class.std::__1::__tree_node"* %242, i64 0, i32 2, i32 0, i32 1
  %244 = tail call dereferenceable(40) %"class.net::nqe::internal::CachedNetworkQuality"* @_ZN3net3nqe8internal20CachedNetworkQualityaSERKS2_(%"class.net::nqe::internal::CachedNetworkQuality"* %2, %"class.net::nqe::internal::CachedNetworkQuality"* dereferenceable(40) %243) #9
  br label %352

245:                                              ; preds = %344, %118
  %246 = phi i64 [ %116, %118 ], [ %316, %344 ]
  %247 = inttoptr i64 %246 to %"class.std::__1::__tree_end_node"*
  %248 = icmp eq %"class.std::__1::__tree_end_node"* %6, %247
  br i1 %248, label %352, label %348

249:                                              ; preds = %119, %344
  %250 = phi i32 [ 2147483647, %119 ], [ %317, %344 ]
  %251 = phi i64 [ %117, %119 ], [ %346, %344 ]
  %252 = phi i64 [ %116, %119 ], [ %316, %344 ]
  %253 = inttoptr i64 %251 to %"class.std::__1::__tree_node"*
  %254 = getelementptr inbounds %"class.std::__1::__tree_node", %"class.std::__1::__tree_node"* %253, i64 0, i32 2, i32 0, i32 0, i32 0
  %255 = load i32, i32* %254, align 8
  %256 = icmp eq i32 %121, %255
  br i1 %256, label %257, label %315

257:                                              ; preds = %249
  %258 = getelementptr inbounds %"class.std::__1::__tree_node", %"class.std::__1::__tree_node"* %253, i64 0, i32 2, i32 0, i32 0, i32 2
  %259 = load i64, i64* %127, align 8
  %260 = select i1 %126, i64 %259, i64 %128
  %261 = bitcast %"class.std::__1::basic_string"* %258 to %"struct.std::__1::basic_string<char, std::__1::char_traits<char>, std::__1::allocator<char> >::__short"*
  %262 = getelementptr inbounds %"struct.std::__1::basic_string<char, std::__1::char_traits<char>, std::__1::allocator<char> >::__short", %"struct.std::__1::basic_string<char, std::__1::char_traits<char>, std::__1::allocator<char> >::__short"* %261, i64 0, i32 1, i32 0
  %263 = load i8, i8* %262, align 1
  %264 = icmp slt i8 %263, 0
  %265 = getelementptr inbounds %"class.std::__1::__tree_node", %"class.std::__1::__tree_node"* %253, i64 0, i32 2, i32 0, i32 0, i32 2, i32 0, i32 0, i32 0, i32 0, i32 0, i32 1
  %266 = load i64, i64* %265, align 8
  %267 = zext i8 %263 to i64
  %268 = select i1 %264, i64 %266, i64 %267
  %269 = icmp eq i64 %260, %268
  br i1 %269, label %270, label %315

270:                                              ; preds = %257
  %271 = load i8*, i8** %129, align 8
  %272 = select i1 %126, i8* %271, i8* %130
  %273 = getelementptr inbounds %"class.std::__1::basic_string", %"class.std::__1::basic_string"* %258, i64 0, i32 0, i32 0, i32 0, i32 0, i32 0, i32 0
  %274 = load i8*, i8** %273, align 8
  %275 = bitcast %"class.std::__1::basic_string"* %258 to i8*
  %276 = select i1 %264, i8* %274, i8* %275
  %277 = icmp eq i64 %260, 0
  br i1 %126, label %284, label %278

278:                                              ; preds = %270
  br i1 %277, label %300, label %279

279:                                              ; preds = %278
  %280 = ptrtoint i8* %271 to i64
  %281 = trunc i64 %280 to i8
  %282 = load i8, i8* %276, align 1
  %283 = icmp eq i8 %282, %281
  br i1 %283, label %285, label %315

284:                                              ; preds = %270
  br i1 %277, label %300, label %297

285:                                              ; preds = %279, %292
  %286 = phi i64 [ %289, %292 ], [ %128, %279 ]
  %287 = phi i8* [ %290, %292 ], [ %130, %279 ]
  %288 = phi i8* [ %293, %292 ], [ %276, %279 ]
  %289 = add i64 %286, -1
  %290 = getelementptr inbounds i8, i8* %287, i64 1
  %291 = icmp eq i64 %289, 0
  br i1 %291, label %300, label %292

292:                                              ; preds = %285
  %293 = getelementptr inbounds i8, i8* %288, i64 1
  %294 = load i8, i8* %290, align 1
  %295 = load i8, i8* %293, align 1
  %296 = icmp eq i8 %294, %295
  br i1 %296, label %285, label %315

297:                                              ; preds = %284
  %298 = tail call i32 @bcmp(i8* %272, i8* %276, i64 %260) #9
  %299 = icmp eq i32 %298, 0
  br i1 %299, label %300, label %315

300:                                              ; preds = %285, %297, %278, %284
  %301 = getelementptr inbounds %"class.std::__1::__tree_node", %"class.std::__1::__tree_node"* %253, i64 0, i32 2, i32 0, i32 0, i32 3
  %302 = load i32, i32* %301, align 8
  %303 = sub nsw i32 %114, %302
  %304 = icmp slt i32 %303, 0
  %305 = sub nsw i32 0, %303
  %306 = select i1 %304, i32 %305, i32 %303
  %307 = icmp eq i32 %302, -2147483648
  %308 = select i1 %307, i32 2147483647, i32 %306
  %309 = inttoptr i64 %252 to %"class.std::__1::__tree_end_node"*
  %310 = icmp eq %"class.std::__1::__tree_end_node"* %6, %309
  %311 = icmp slt i32 %308, %250
  %312 = or i1 %310, %311
  %313 = select i1 %312, i64 %251, i64 %252
  %314 = select i1 %312, i32 %308, i32 %250
  br label %315

315:                                              ; preds = %292, %279, %297, %300, %257, %249
  %316 = phi i64 [ %252, %297 ], [ %252, %249 ], [ %252, %257 ], [ %313, %300 ], [ %252, %279 ], [ %252, %292 ]
  %317 = phi i32 [ %250, %297 ], [ %250, %249 ], [ %250, %257 ], [ %314, %300 ], [ %250, %279 ], [ %250, %292 ]
  %318 = inttoptr i64 %251 to %"class.std::__1::__tree_node_base"*
  %319 = getelementptr inbounds %"class.std::__1::__tree_node_base", %"class.std::__1::__tree_node_base"* %318, i64 0, i32 1
  %320 = load %"class.std::__1::__tree_node_base"*, %"class.std::__1::__tree_node_base"** %319, align 8
  %321 = icmp eq %"class.std::__1::__tree_node_base"* %320, null
  br i1 %321, label %322, label %328

322:                                              ; preds = %315
  %323 = getelementptr inbounds %"class.std::__1::__tree_node_base", %"class.std::__1::__tree_node_base"* %318, i64 0, i32 2
  %324 = load %"class.std::__1::__tree_end_node"*, %"class.std::__1::__tree_end_node"** %323, align 8
  %325 = getelementptr inbounds %"class.std::__1::__tree_end_node", %"class.std::__1::__tree_end_node"* %324, i64 0, i32 0
  %326 = load %"class.std::__1::__tree_node_base"*, %"class.std::__1::__tree_node_base"** %325, align 8
  %327 = icmp eq %"class.std::__1::__tree_node_base"* %326, %318
  br i1 %327, label %344, label %335

328:                                              ; preds = %315, %328
  %329 = phi %"class.std::__1::__tree_node_base"* [ %331, %328 ], [ %320, %315 ]
  %330 = getelementptr inbounds %"class.std::__1::__tree_node_base", %"class.std::__1::__tree_node_base"* %329, i64 0, i32 0, i32 0
  %331 = load %"class.std::__1::__tree_node_base"*, %"class.std::__1::__tree_node_base"** %330, align 8
  %332 = icmp eq %"class.std::__1::__tree_node_base"* %331, null
  br i1 %332, label %333, label %328

333:                                              ; preds = %328
  %334 = getelementptr inbounds %"class.std::__1::__tree_node_base", %"class.std::__1::__tree_node_base"* %329, i64 0, i32 0
  br label %344

335:                                              ; preds = %322, %335
  %336 = phi %"class.std::__1::__tree_end_node"** [ %339, %335 ], [ %323, %322 ]
  %337 = bitcast %"class.std::__1::__tree_end_node"** %336 to %"class.std::__1::__tree_node_base"**
  %338 = load %"class.std::__1::__tree_node_base"*, %"class.std::__1::__tree_node_base"** %337, align 8
  %339 = getelementptr inbounds %"class.std::__1::__tree_node_base", %"class.std::__1::__tree_node_base"* %338, i64 0, i32 2
  %340 = load %"class.std::__1::__tree_end_node"*, %"class.std::__1::__tree_end_node"** %339, align 8
  %341 = getelementptr inbounds %"class.std::__1::__tree_end_node", %"class.std::__1::__tree_end_node"* %340, i64 0, i32 0
  %342 = load %"class.std::__1::__tree_node_base"*, %"class.std::__1::__tree_node_base"** %341, align 8
  %343 = icmp eq %"class.std::__1::__tree_node_base"* %342, %338
  br i1 %343, label %344, label %335

344:                                              ; preds = %335, %322, %333
  %345 = phi %"class.std::__1::__tree_end_node"* [ %334, %333 ], [ %324, %322 ], [ %340, %335 ]
  %346 = ptrtoint %"class.std::__1::__tree_end_node"* %345 to i64
  %347 = icmp eq %"class.std::__1::__tree_end_node"* %6, %345
  br i1 %347, label %245, label %249

348:                                              ; preds = %245
  %349 = inttoptr i64 %246 to %"class.std::__1::__tree_node"*
  %350 = getelementptr inbounds %"class.std::__1::__tree_node", %"class.std::__1::__tree_node"* %349, i64 0, i32 2, i32 0, i32 1
  %351 = tail call dereferenceable(40) %"class.net::nqe::internal::CachedNetworkQuality"* @_ZN3net3nqe8internal20CachedNetworkQualityaSERKS2_(%"class.net::nqe::internal::CachedNetworkQuality"* %2, %"class.net::nqe::internal::CachedNetworkQuality"* dereferenceable(40) %350) #9
  br label %352

352:                                              ; preds = %348, %245, %241, %144, %77
  %353 = phi i1 [ true, %77 ], [ true, %241 ], [ false, %144 ], [ true, %348 ], [ false, %245 ]
  ret i1 %353
}

declare dereferenceable(40) %"class.net::nqe::internal::CachedNetworkQuality"* @_ZN3net3nqe8internal20CachedNetworkQualityaSERKS2_(%"class.net::nqe::internal::CachedNetworkQuality"*, %"class.net::nqe::internal::CachedNetworkQuality"* dereferenceable(40)) local_unnamed_addr #3

; Function Attrs: nounwind ssp uwtable
define hidden void @_ZN3net3nqe8internal19NetworkQualityStore32AddNetworkQualitiesCacheObserverEPNS2_29NetworkQualitiesCacheObserverE(%"class.net::nqe::internal::NetworkQualityStore"*, %"class.net::nqe::internal::NetworkQualityStore::NetworkQualitiesCacheObserver"*) local_unnamed_addr #0 align 2 {
  %3 = alloca %"class.base::internal::WeakReference", align 8
  %4 = alloca %"class.base::Location", align 8
  %5 = alloca %"class.base::OnceCallback", align 8
  %6 = alloca %"class.base::WeakPtr", align 8
  %7 = ptrtoint %"class.net::nqe::internal::NetworkQualityStore::NetworkQualitiesCacheObserver"* %1 to i64
  %8 = getelementptr inbounds %"class.net::nqe::internal::NetworkQualityStore", %"class.net::nqe::internal::NetworkQualityStore"* %0, i64 0, i32 1
  %9 = icmp eq %"class.net::nqe::internal::NetworkQualityStore::NetworkQualitiesCacheObserver"* %1, null
  br i1 %9, label %10, label %13

10:                                               ; preds = %2
  %11 = getelementptr inbounds %"class.net::nqe::internal::NetworkQualityStore", %"class.net::nqe::internal::NetworkQualityStore"* %0, i64 0, i32 1, i32 0, i32 0, i32 1
  %12 = load %"class.base::internal::UncheckedObserverAdapter"*, %"class.base::internal::UncheckedObserverAdapter"** %11, align 8
  br label %31

13:                                               ; preds = %2
  %14 = getelementptr inbounds %"class.base::ObserverList", %"class.base::ObserverList"* %8, i64 0, i32 0, i32 0, i32 0
  %15 = load %"class.base::internal::UncheckedObserverAdapter"*, %"class.base::internal::UncheckedObserverAdapter"** %14, align 8
  %16 = getelementptr inbounds %"class.net::nqe::internal::NetworkQualityStore", %"class.net::nqe::internal::NetworkQualityStore"* %0, i64 0, i32 1, i32 0, i32 0, i32 1
  %17 = load %"class.base::internal::UncheckedObserverAdapter"*, %"class.base::internal::UncheckedObserverAdapter"** %16, align 8
  %18 = icmp eq %"class.base::internal::UncheckedObserverAdapter"* %15, %17
  %19 = bitcast %"class.net::nqe::internal::NetworkQualityStore::NetworkQualitiesCacheObserver"* %1 to i8*
  br i1 %18, label %28, label %20

20:                                               ; preds = %13, %25
  %21 = phi %"class.base::internal::UncheckedObserverAdapter"* [ %26, %25 ], [ %15, %13 ]
  %22 = getelementptr inbounds %"class.base::internal::UncheckedObserverAdapter", %"class.base::internal::UncheckedObserverAdapter"* %21, i64 0, i32 0
  %23 = load i8*, i8** %22, align 8
  %24 = icmp eq i8* %23, %19
  br i1 %24, label %28, label %25

25:                                               ; preds = %20
  %26 = getelementptr inbounds %"class.base::internal::UncheckedObserverAdapter", %"class.base::internal::UncheckedObserverAdapter"* %21, i64 1
  %27 = icmp eq %"class.base::internal::UncheckedObserverAdapter"* %26, %17
  br i1 %27, label %31, label %20

28:                                               ; preds = %20, %13
  %29 = phi %"class.base::internal::UncheckedObserverAdapter"* [ %15, %13 ], [ %21, %20 ]
  %30 = icmp eq %"class.base::internal::UncheckedObserverAdapter"* %29, %17
  br i1 %30, label %31, label %103

31:                                               ; preds = %25, %10, %28
  %32 = phi %"class.base::internal::UncheckedObserverAdapter"* [ %12, %10 ], [ %17, %28 ], [ %17, %25 ]
  %33 = getelementptr inbounds %"class.net::nqe::internal::NetworkQualityStore", %"class.net::nqe::internal::NetworkQualityStore"* %0, i64 0, i32 1, i32 2
  %34 = load i64, i64* %33, align 8
  %35 = add i64 %34, 1
  store i64 %35, i64* %33, align 8
  %36 = getelementptr inbounds %"class.net::nqe::internal::NetworkQualityStore", %"class.net::nqe::internal::NetworkQualityStore"* %0, i64 0, i32 1, i32 0, i32 0, i32 1
  %37 = getelementptr inbounds %"class.net::nqe::internal::NetworkQualityStore", %"class.net::nqe::internal::NetworkQualityStore"* %0, i64 0, i32 1, i32 0, i32 0, i32 2, i32 0, i32 0
  %38 = load %"class.base::internal::UncheckedObserverAdapter"*, %"class.base::internal::UncheckedObserverAdapter"** %37, align 8
  %39 = icmp ult %"class.base::internal::UncheckedObserverAdapter"* %32, %38
  %40 = ptrtoint %"class.base::internal::UncheckedObserverAdapter"* %38 to i64
  br i1 %39, label %41, label %46

41:                                               ; preds = %31
  %42 = bitcast %"class.base::internal::UncheckedObserverAdapter"* %32 to i64*
  store i64 %7, i64* %42, align 8
  %43 = getelementptr inbounds %"class.base::internal::UncheckedObserverAdapter", %"class.base::internal::UncheckedObserverAdapter"* %32, i64 1
  %44 = ptrtoint %"class.base::internal::UncheckedObserverAdapter"* %43 to i64
  %45 = bitcast %"class.base::internal::UncheckedObserverAdapter"** %36 to i64*
  store i64 %44, i64* %45, align 8
  br label %103

46:                                               ; preds = %31
  %47 = ptrtoint %"class.base::internal::UncheckedObserverAdapter"* %32 to i64
  %48 = bitcast %"class.base::internal::UncheckedObserverAdapter"** %36 to i64*
  %49 = bitcast %"class.base::ObserverList"* %8 to i64*
  %50 = load i64, i64* %49, align 8
  %51 = sub i64 %47, %50
  %52 = ashr exact i64 %51, 3
  %53 = add nsw i64 %52, 1
  %54 = icmp ugt i64 %53, 2305843009213693951
  br i1 %54, label %55, label %57

55:                                               ; preds = %46
  %56 = bitcast %"class.base::ObserverList"* %8 to %"class.std::__1::__vector_base_common"*
  tail call void @_ZNKSt3__120__vector_base_commonILb1EE20__throw_length_errorEv(%"class.std::__1::__vector_base_common"* %56) #11
  unreachable

57:                                               ; preds = %46
  %58 = bitcast %"class.base::internal::UncheckedObserverAdapter"** %37 to i64*
  %59 = sub i64 %40, %50
  %60 = ashr exact i64 %59, 3
  %61 = icmp ult i64 %60, 1152921504606846975
  br i1 %61, label %62, label %70

62:                                               ; preds = %57
  %63 = ashr exact i64 %59, 2
  %64 = icmp ult i64 %63, %53
  %65 = select i1 %64, i64 %53, i64 %63
  %66 = icmp eq i64 %65, 0
  br i1 %66, label %75, label %67

67:                                               ; preds = %62
  %68 = icmp ugt i64 %65, 2305843009213693951
  br i1 %68, label %69, label %70

69:                                               ; preds = %67
  tail call void @abort() #11
  unreachable

70:                                               ; preds = %67, %57
  %71 = phi i64 [ %65, %67 ], [ 2305843009213693951, %57 ]
  %72 = shl i64 %71, 3
  %73 = tail call i8* @_Znwm(i64 %72) #10
  %74 = bitcast i8* %73 to %"class.base::internal::UncheckedObserverAdapter"*
  br label %75

75:                                               ; preds = %70, %62
  %76 = phi i64 [ %71, %70 ], [ 0, %62 ]
  %77 = phi %"class.base::internal::UncheckedObserverAdapter"* [ %74, %70 ], [ null, %62 ]
  %78 = getelementptr inbounds %"class.base::internal::UncheckedObserverAdapter", %"class.base::internal::UncheckedObserverAdapter"* %77, i64 %52
  %79 = getelementptr inbounds %"class.base::internal::UncheckedObserverAdapter", %"class.base::internal::UncheckedObserverAdapter"* %77, i64 %76
  %80 = ptrtoint %"class.base::internal::UncheckedObserverAdapter"* %79 to i64
  %81 = bitcast %"class.base::internal::UncheckedObserverAdapter"* %78 to i64*
  store i64 %7, i64* %81, align 8
  %82 = getelementptr inbounds %"class.base::internal::UncheckedObserverAdapter", %"class.base::internal::UncheckedObserverAdapter"* %78, i64 1
  %83 = ptrtoint %"class.base::internal::UncheckedObserverAdapter"* %82 to i64
  %84 = getelementptr inbounds %"class.base::ObserverList", %"class.base::ObserverList"* %8, i64 0, i32 0, i32 0, i32 0
  %85 = load %"class.base::internal::UncheckedObserverAdapter"*, %"class.base::internal::UncheckedObserverAdapter"** %84, align 8
  %86 = load i64, i64* %48, align 8
  %87 = ptrtoint %"class.base::internal::UncheckedObserverAdapter"* %85 to i64
  %88 = sub i64 %86, %87
  %89 = ashr exact i64 %88, 3
  %90 = sub nsw i64 0, %89
  %91 = getelementptr inbounds %"class.base::internal::UncheckedObserverAdapter", %"class.base::internal::UncheckedObserverAdapter"* %78, i64 %90
  %92 = ptrtoint %"class.base::internal::UncheckedObserverAdapter"* %91 to i64
  %93 = icmp sgt i64 %88, 0
  br i1 %93, label %94, label %98

94:                                               ; preds = %75
  %95 = bitcast %"class.base::internal::UncheckedObserverAdapter"* %91 to i8*
  %96 = bitcast %"class.base::internal::UncheckedObserverAdapter"* %85 to i8*
  tail call void @llvm.memcpy.p0i8.p0i8.i64(i8* align 8 %95, i8* align 8 %96, i64 %88, i1 false) #9
  %97 = load %"class.base::internal::UncheckedObserverAdapter"*, %"class.base::internal::UncheckedObserverAdapter"** %84, align 8
  br label %98

98:                                               ; preds = %94, %75
  %99 = phi %"class.base::internal::UncheckedObserverAdapter"* [ %85, %75 ], [ %97, %94 ]
  store i64 %92, i64* %49, align 8
  store i64 %83, i64* %48, align 8
  store i64 %80, i64* %58, align 8
  %100 = icmp eq %"class.base::internal::UncheckedObserverAdapter"* %99, null
  br i1 %100, label %103, label %101

101:                                              ; preds = %98
  %102 = bitcast %"class.base::internal::UncheckedObserverAdapter"* %99 to i8*
  tail call void @_ZdlPv(i8* %102) #10
  br label %103

103:                                              ; preds = %101, %98, %41, %28
  %104 = tail call dereferenceable(8) %class.scoped_refptr.22* @_ZN4base22ThreadTaskRunnerHandle3GetEv() #9
  %105 = bitcast %class.scoped_refptr.22* %104 to %"class.base::TaskRunner"**
  %106 = load %"class.base::TaskRunner"*, %"class.base::TaskRunner"** %105, align 8
  %107 = bitcast %"class.base::Location"* %4 to i8*
  call void @llvm.lifetime.start.p0i8(i64 32, i8* nonnull %107) #9
  call void @_ZN4base8Location7CurrentEPKcS2_i(%"class.base::Location"* nonnull sret %4, i8* getelementptr inbounds ([33 x i8], [33 x i8]* @.str, i64 0, i64 0), i8* getelementptr inbounds ([39 x i8], [39 x i8]* @.str.1, i64 0, i64 0), i32 178) #9
  %108 = bitcast %"class.base::WeakPtr"* %6 to i8*
  call void @llvm.lifetime.start.p0i8(i64 16, i8* nonnull %108) #9
  %109 = bitcast %"class.base::internal::WeakReference"* %3 to i8*
  call void @llvm.lifetime.start.p0i8(i64 8, i8* nonnull %109) #9, !noalias !11
  %110 = getelementptr inbounds %"class.net::nqe::internal::NetworkQualityStore", %"class.net::nqe::internal::NetworkQualityStore"* %0, i64 0, i32 2, i32 0, i32 0
  call void @_ZNK4base8internal18WeakReferenceOwner6GetRefEv(%"class.base::internal::WeakReference"* nonnull sret %3, %"class.base::internal::WeakReferenceOwner"* %110) #9, !noalias !11
  %111 = getelementptr inbounds %"class.net::nqe::internal::NetworkQualityStore", %"class.net::nqe::internal::NetworkQualityStore"* %0, i64 0, i32 2, i32 0, i32 1
  %112 = load i64, i64* %111, align 8, !noalias !11
  %113 = getelementptr inbounds %"class.base::WeakPtr", %"class.base::WeakPtr"* %6, i64 0, i32 0
  call void @_ZN4base8internal11WeakPtrBaseC2ERKNS0_13WeakReferenceEm(%"class.base::internal::WeakPtrBase"* nonnull %113, %"class.base::internal::WeakReference"* nonnull dereferenceable(8) %3, i64 %112) #9
  call void @_ZN4base8internal13WeakReferenceD1Ev(%"class.base::internal::WeakReference"* nonnull %3) #9
  call void @llvm.lifetime.end.p0i8(i64 8, i8* nonnull %109) #9, !noalias !11
  %114 = call i8* @_Znwm(i64 72) #10, !noalias !14
  %115 = bitcast i8* %114 to %"class.base::internal::BindStateBase"*
  call void @_ZN4base8internal13BindStateBaseC2EPFvvEPFvPKS1_EPFbS5_NS1_21CancellationQueryModeEE(%"class.base::internal::BindStateBase"* nonnull %115, void ()* bitcast (void (%"class.base::internal::BindStateBase"*)* @_ZN4base8internal7InvokerINS0_9BindStateIMN3net3nqe8internal19NetworkQualityStoreEKFvPNS6_29NetworkQualitiesCacheObserverEEJNS_7WeakPtrIS6_EES8_EEEFvvEE7RunOnceEPNS0_13BindStateBaseE to void ()*), void (%"class.base::internal::BindStateBase"*)* nonnull @_ZN4base8internal9BindStateIMN3net3nqe8internal19NetworkQualityStoreEKFvPNS5_29NetworkQualitiesCacheObserverEEJNS_7WeakPtrIS5_EES7_EE7DestroyEPKNS0_13BindStateBaseE, i1 (%"class.base::internal::BindStateBase"*, i32)* nonnull @_ZN4base8internal23QueryCancellationTraitsINS0_9BindStateIMN3net3nqe8internal19NetworkQualityStoreEKFvPNS6_29NetworkQualitiesCacheObserverEEJNS_7WeakPtrIS6_EES8_EEEEEbPKNS0_13BindStateBaseENSE_21CancellationQueryModeE) #9, !noalias !14
  %116 = getelementptr inbounds i8, i8* %114, i64 32
  %117 = bitcast i8* %116 to <2 x i64>*
  store <2 x i64> <i64 ptrtoint (void (%"class.net::nqe::internal::NetworkQualityStore"*, %"class.net::nqe::internal::NetworkQualityStore::NetworkQualitiesCacheObserver"*)* @_ZNK3net3nqe8internal19NetworkQualityStore28NotifyCacheObserverIfPresentEPNS2_29NetworkQualitiesCacheObserverE to i64), i64 0>, <2 x i64>* %117, align 8, !noalias !14
  %118 = getelementptr inbounds i8, i8* %114, i64 48
  %119 = bitcast i8* %118 to %"class.base::internal::WeakReference"*
  %120 = getelementptr inbounds %"class.base::WeakPtr", %"class.base::WeakPtr"* %6, i64 0, i32 0, i32 0
  call void @_ZN4base8internal13WeakReferenceC1EOS1_(%"class.base::internal::WeakReference"* %119, %"class.base::internal::WeakReference"* nonnull dereferenceable(8) %120) #9, !noalias !14
  %121 = getelementptr inbounds i8, i8* %114, i64 56
  %122 = bitcast i8* %121 to i64*
  %123 = getelementptr inbounds %"class.base::WeakPtr", %"class.base::WeakPtr"* %6, i64 0, i32 0, i32 1
  %124 = load i64, i64* %123, align 8, !noalias !14
  store i64 %124, i64* %122, align 8, !noalias !14
  %125 = getelementptr inbounds i8, i8* %114, i64 64
  %126 = bitcast i8* %125 to i64*
  store i64 %7, i64* %126, align 8, !noalias !14
  %127 = bitcast %"class.base::OnceCallback"* %5 to i8**
  store i8* %114, i8** %127, align 8, !alias.scope !14
  %128 = call zeroext i1 @_ZN4base10TaskRunner8PostTaskERKNS_8LocationENS_12OnceCallbackIFvvEEE(%"class.base::TaskRunner"* %106, %"class.base::Location"* nonnull dereferenceable(32) %4, %"class.base::OnceCallback"* nonnull %5) #9
  %129 = getelementptr inbounds %"class.base::OnceCallback", %"class.base::OnceCallback"* %5, i64 0, i32 0
  call void @_ZN4base8internal12CallbackBaseD2Ev(%"class.base::internal::CallbackBase"* nonnull %129) #9
  call void @_ZN4base8internal11WeakPtrBaseD2Ev(%"class.base::internal::WeakPtrBase"* nonnull %113) #9
  call void @llvm.lifetime.end.p0i8(i64 16, i8* nonnull %108) #9
  call void @llvm.lifetime.end.p0i8(i64 32, i8* nonnull %107) #9
  ret void
}

declare dereferenceable(8) %class.scoped_refptr.22* @_ZN4base22ThreadTaskRunnerHandle3GetEv() local_unnamed_addr #3

declare zeroext i1 @_ZN4base10TaskRunner8PostTaskERKNS_8LocationENS_12OnceCallbackIFvvEEE(%"class.base::TaskRunner"*, %"class.base::Location"* dereferenceable(32), %"class.base::OnceCallback"*) local_unnamed_addr #3

declare void @_ZN4base8Location7CurrentEPKcS2_i(%"class.base::Location"* sret, i8*, i8*, i32) local_unnamed_addr #3

; Function Attrs: nounwind ssp uwtable
define hidden void @_ZNK3net3nqe8internal19NetworkQualityStore28NotifyCacheObserverIfPresentEPNS2_29NetworkQualitiesCacheObserverE(%"class.net::nqe::internal::NetworkQualityStore"*, %"class.net::nqe::internal::NetworkQualityStore::NetworkQualitiesCacheObserver"*) #0 align 2 {
  %3 = icmp eq %"class.net::nqe::internal::NetworkQualityStore::NetworkQualitiesCacheObserver"* %1, null
  br i1 %3, label %67, label %4

4:                                                ; preds = %2
  %5 = getelementptr inbounds %"class.net::nqe::internal::NetworkQualityStore", %"class.net::nqe::internal::NetworkQualityStore"* %0, i64 0, i32 1, i32 0, i32 0, i32 0
  %6 = load %"class.base::internal::UncheckedObserverAdapter"*, %"class.base::internal::UncheckedObserverAdapter"** %5, align 8
  %7 = getelementptr inbounds %"class.net::nqe::internal::NetworkQualityStore", %"class.net::nqe::internal::NetworkQualityStore"* %0, i64 0, i32 1, i32 0, i32 0, i32 1
  %8 = load %"class.base::internal::UncheckedObserverAdapter"*, %"class.base::internal::UncheckedObserverAdapter"** %7, align 8
  %9 = icmp eq %"class.base::internal::UncheckedObserverAdapter"* %6, %8
  %10 = bitcast %"class.net::nqe::internal::NetworkQualityStore::NetworkQualitiesCacheObserver"* %1 to i8*
  br i1 %9, label %19, label %11

11:                                               ; preds = %4, %16
  %12 = phi %"class.base::internal::UncheckedObserverAdapter"* [ %17, %16 ], [ %6, %4 ]
  %13 = getelementptr inbounds %"class.base::internal::UncheckedObserverAdapter", %"class.base::internal::UncheckedObserverAdapter"* %12, i64 0, i32 0
  %14 = load i8*, i8** %13, align 8
  %15 = icmp eq i8* %14, %10
  br i1 %15, label %19, label %16

16:                                               ; preds = %11
  %17 = getelementptr inbounds %"class.base::internal::UncheckedObserverAdapter", %"class.base::internal::UncheckedObserverAdapter"* %12, i64 1
  %18 = icmp eq %"class.base::internal::UncheckedObserverAdapter"* %17, %8
  br i1 %18, label %67, label %11

19:                                               ; preds = %11, %4
  %20 = phi %"class.base::internal::UncheckedObserverAdapter"* [ %6, %4 ], [ %12, %11 ]
  %21 = icmp eq %"class.base::internal::UncheckedObserverAdapter"* %20, %8
  br i1 %21, label %67, label %22

22:                                               ; preds = %19
  %23 = getelementptr inbounds %"class.net::nqe::internal::NetworkQualityStore", %"class.net::nqe::internal::NetworkQualityStore"* %0, i64 0, i32 0, i32 0, i32 0
  %24 = load %"class.std::__1::__tree_end_node"*, %"class.std::__1::__tree_end_node"** %23, align 8
  %25 = getelementptr inbounds %"class.net::nqe::internal::NetworkQualityStore", %"class.net::nqe::internal::NetworkQualityStore"* %0, i64 0, i32 0, i32 0, i32 1, i32 0, i32 0
  %26 = icmp eq %"class.std::__1::__tree_end_node"* %24, %25
  br i1 %26, label %67, label %27

27:                                               ; preds = %22
  %28 = bitcast %"class.net::nqe::internal::NetworkQualityStore::NetworkQualitiesCacheObserver"* %1 to void (%"class.net::nqe::internal::NetworkQualityStore::NetworkQualitiesCacheObserver"*, %"struct.net::nqe::internal::NetworkID"*, %"class.net::nqe::internal::CachedNetworkQuality"*)***
  br label %29

29:                                               ; preds = %27, %64
  %30 = phi %"class.std::__1::__tree_end_node"* [ %24, %27 ], [ %65, %64 ]
  %31 = getelementptr inbounds %"class.std::__1::__tree_end_node", %"class.std::__1::__tree_end_node"* %30, i64 4
  %32 = bitcast %"class.std::__1::__tree_end_node"* %31 to %"struct.net::nqe::internal::NetworkID"*
  %33 = getelementptr inbounds %"class.std::__1::__tree_end_node", %"class.std::__1::__tree_end_node"* %30, i64 9
  %34 = bitcast %"class.std::__1::__tree_end_node"* %33 to %"class.net::nqe::internal::CachedNetworkQuality"*
  %35 = load void (%"class.net::nqe::internal::NetworkQualityStore::NetworkQualitiesCacheObserver"*, %"struct.net::nqe::internal::NetworkID"*, %"class.net::nqe::internal::CachedNetworkQuality"*)**, void (%"class.net::nqe::internal::NetworkQualityStore::NetworkQualitiesCacheObserver"*, %"struct.net::nqe::internal::NetworkID"*, %"class.net::nqe::internal::CachedNetworkQuality"*)*** %28, align 8
  %36 = load void (%"class.net::nqe::internal::NetworkQualityStore::NetworkQualitiesCacheObserver"*, %"struct.net::nqe::internal::NetworkID"*, %"class.net::nqe::internal::CachedNetworkQuality"*)*, void (%"class.net::nqe::internal::NetworkQualityStore::NetworkQualitiesCacheObserver"*, %"struct.net::nqe::internal::NetworkID"*, %"class.net::nqe::internal::CachedNetworkQuality"*)** %35, align 8
  tail call void %36(%"class.net::nqe::internal::NetworkQualityStore::NetworkQualitiesCacheObserver"* nonnull %1, %"struct.net::nqe::internal::NetworkID"* dereferenceable(40) %32, %"class.net::nqe::internal::CachedNetworkQuality"* dereferenceable(40) %34) #9
  %37 = getelementptr inbounds %"class.std::__1::__tree_end_node", %"class.std::__1::__tree_end_node"* %30, i64 1, i32 0
  %38 = load %"class.std::__1::__tree_node_base"*, %"class.std::__1::__tree_node_base"** %37, align 8
  %39 = icmp eq %"class.std::__1::__tree_node_base"* %38, null
  br i1 %39, label %40, label %48

40:                                               ; preds = %29
  %41 = bitcast %"class.std::__1::__tree_end_node"* %30 to %"class.std::__1::__tree_node_base"*
  %42 = getelementptr inbounds %"class.std::__1::__tree_end_node", %"class.std::__1::__tree_end_node"* %30, i64 2
  %43 = bitcast %"class.std::__1::__tree_end_node"* %42 to %"class.std::__1::__tree_end_node"**
  %44 = load %"class.std::__1::__tree_end_node"*, %"class.std::__1::__tree_end_node"** %43, align 8
  %45 = getelementptr inbounds %"class.std::__1::__tree_end_node", %"class.std::__1::__tree_end_node"* %44, i64 0, i32 0
  %46 = load %"class.std::__1::__tree_node_base"*, %"class.std::__1::__tree_node_base"** %45, align 8
  %47 = icmp eq %"class.std::__1::__tree_node_base"* %46, %41
  br i1 %47, label %64, label %55

48:                                               ; preds = %29, %48
  %49 = phi %"class.std::__1::__tree_node_base"* [ %51, %48 ], [ %38, %29 ]
  %50 = getelementptr inbounds %"class.std::__1::__tree_node_base", %"class.std::__1::__tree_node_base"* %49, i64 0, i32 0, i32 0
  %51 = load %"class.std::__1::__tree_node_base"*, %"class.std::__1::__tree_node_base"** %50, align 8
  %52 = icmp eq %"class.std::__1::__tree_node_base"* %51, null
  br i1 %52, label %53, label %48

53:                                               ; preds = %48
  %54 = getelementptr inbounds %"class.std::__1::__tree_node_base", %"class.std::__1::__tree_node_base"* %49, i64 0, i32 0
  br label %64

55:                                               ; preds = %40, %55
  %56 = phi %"class.std::__1::__tree_end_node"** [ %59, %55 ], [ %43, %40 ]
  %57 = bitcast %"class.std::__1::__tree_end_node"** %56 to %"class.std::__1::__tree_node_base"**
  %58 = load %"class.std::__1::__tree_node_base"*, %"class.std::__1::__tree_node_base"** %57, align 8
  %59 = getelementptr inbounds %"class.std::__1::__tree_node_base", %"class.std::__1::__tree_node_base"* %58, i64 0, i32 2
  %60 = load %"class.std::__1::__tree_end_node"*, %"class.std::__1::__tree_end_node"** %59, align 8
  %61 = getelementptr inbounds %"class.std::__1::__tree_end_node", %"class.std::__1::__tree_end_node"* %60, i64 0, i32 0
  %62 = load %"class.std::__1::__tree_node_base"*, %"class.std::__1::__tree_node_base"** %61, align 8
  %63 = icmp eq %"class.std::__1::__tree_node_base"* %62, %58
  br i1 %63, label %64, label %55

64:                                               ; preds = %55, %40, %53
  %65 = phi %"class.std::__1::__tree_end_node"* [ %54, %53 ], [ %44, %40 ], [ %60, %55 ]
  %66 = icmp eq %"class.std::__1::__tree_end_node"* %65, %25
  br i1 %66, label %67, label %29

67:                                               ; preds = %16, %64, %22, %19, %2
  ret void
}

; Function Attrs: nounwind
declare void @_ZN4base8internal12CallbackBaseD2Ev(%"class.base::internal::CallbackBase"*) unnamed_addr #1

; Function Attrs: nounwind
declare void @_ZN4base8internal11WeakPtrBaseD2Ev(%"class.base::internal::WeakPtrBase"*) unnamed_addr #1

; Function Attrs: nounwind ssp uwtable
define hidden void @_ZN3net3nqe8internal19NetworkQualityStore35RemoveNetworkQualitiesCacheObserverEPNS2_29NetworkQualitiesCacheObserverE(%"class.net::nqe::internal::NetworkQualityStore"*, %"class.net::nqe::internal::NetworkQualityStore::NetworkQualitiesCacheObserver"* readnone) local_unnamed_addr #0 align 2 {
  %3 = getelementptr inbounds %"class.net::nqe::internal::NetworkQualityStore", %"class.net::nqe::internal::NetworkQualityStore"* %0, i64 0, i32 1, i32 0, i32 0, i32 0
  %4 = load %"class.base::internal::UncheckedObserverAdapter"*, %"class.base::internal::UncheckedObserverAdapter"** %3, align 8
  %5 = getelementptr inbounds %"class.net::nqe::internal::NetworkQualityStore", %"class.net::nqe::internal::NetworkQualityStore"* %0, i64 0, i32 1, i32 0, i32 0, i32 1
  %6 = load %"class.base::internal::UncheckedObserverAdapter"*, %"class.base::internal::UncheckedObserverAdapter"** %5, align 8
  %7 = icmp eq %"class.base::internal::UncheckedObserverAdapter"* %4, %6
  %8 = bitcast %"class.net::nqe::internal::NetworkQualityStore::NetworkQualitiesCacheObserver"* %1 to i8*
  %9 = ptrtoint %"class.base::internal::UncheckedObserverAdapter"* %6 to i64
  br i1 %7, label %18, label %10

10:                                               ; preds = %2, %15
  %11 = phi %"class.base::internal::UncheckedObserverAdapter"* [ %16, %15 ], [ %4, %2 ]
  %12 = getelementptr inbounds %"class.base::internal::UncheckedObserverAdapter", %"class.base::internal::UncheckedObserverAdapter"* %11, i64 0, i32 0
  %13 = load i8*, i8** %12, align 8
  %14 = icmp eq i8* %13, %8
  br i1 %14, label %18, label %15

15:                                               ; preds = %10
  %16 = getelementptr inbounds %"class.base::internal::UncheckedObserverAdapter", %"class.base::internal::UncheckedObserverAdapter"* %11, i64 1
  %17 = icmp eq %"class.base::internal::UncheckedObserverAdapter"* %16, %6
  br i1 %17, label %47, label %10

18:                                               ; preds = %10, %2
  %19 = phi %"class.base::internal::UncheckedObserverAdapter"* [ %4, %2 ], [ %11, %10 ]
  %20 = icmp eq %"class.base::internal::UncheckedObserverAdapter"* %19, %6
  br i1 %20, label %47, label %21

21:                                               ; preds = %18
  %22 = getelementptr inbounds %"class.base::internal::UncheckedObserverAdapter", %"class.base::internal::UncheckedObserverAdapter"* %19, i64 0, i32 0
  %23 = load i8*, i8** %22, align 8
  %24 = icmp eq i8* %23, null
  br i1 %24, label %29, label %25

25:                                               ; preds = %21
  %26 = getelementptr inbounds %"class.net::nqe::internal::NetworkQualityStore", %"class.net::nqe::internal::NetworkQualityStore"* %0, i64 0, i32 1, i32 2
  %27 = load i64, i64* %26, align 8
  %28 = add i64 %27, -1
  store i64 %28, i64* %26, align 8
  br label %29

29:                                               ; preds = %25, %21
  %30 = getelementptr inbounds %"class.net::nqe::internal::NetworkQualityStore", %"class.net::nqe::internal::NetworkQualityStore"* %0, i64 0, i32 1, i32 1, i32 0, i32 0, i32 1
  %31 = bitcast %"class.base::internal::LinkNodeBase"** %30 to %"class.base::LinkNode"**
  %32 = load %"class.base::LinkNode"*, %"class.base::LinkNode"** %31, align 8
  %33 = getelementptr inbounds %"class.net::nqe::internal::NetworkQualityStore", %"class.net::nqe::internal::NetworkQualityStore"* %0, i64 0, i32 1, i32 1, i32 0
  %34 = icmp eq %"class.base::LinkNode"* %32, %33
  br i1 %34, label %35, label %46

35:                                               ; preds = %29
  %36 = getelementptr inbounds %"class.base::internal::UncheckedObserverAdapter", %"class.base::internal::UncheckedObserverAdapter"* %19, i64 1
  %37 = ptrtoint %"class.base::internal::UncheckedObserverAdapter"* %36 to i64
  %38 = sub i64 %9, %37
  %39 = ashr exact i64 %38, 3
  %40 = icmp eq i64 %38, 0
  br i1 %40, label %44, label %41

41:                                               ; preds = %35
  %42 = bitcast %"class.base::internal::UncheckedObserverAdapter"* %19 to i8*
  %43 = bitcast %"class.base::internal::UncheckedObserverAdapter"* %36 to i8*
  tail call void @llvm.memmove.p0i8.p0i8.i64(i8* align 8 %42, i8* align 8 %43, i64 %38, i1 false) #9
  br label %44

44:                                               ; preds = %41, %35
  %45 = getelementptr inbounds %"class.base::internal::UncheckedObserverAdapter", %"class.base::internal::UncheckedObserverAdapter"* %19, i64 %39
  store %"class.base::internal::UncheckedObserverAdapter"* %45, %"class.base::internal::UncheckedObserverAdapter"** %5, align 8
  br label %47

46:                                               ; preds = %29
  store i8* null, i8** %22, align 8
  br label %47

47:                                               ; preds = %15, %18, %44, %46
  ret void
}

declare void @_ZN3net3nqe8internal9NetworkIDC1ERKS2_(%"struct.net::nqe::internal::NetworkID"*, %"struct.net::nqe::internal::NetworkID"* dereferenceable(40)) unnamed_addr #3

declare void @_ZN3net3nqe8internal20CachedNetworkQualityC1ERKS2_(%"class.net::nqe::internal::CachedNetworkQuality"*, %"class.net::nqe::internal::CachedNetworkQuality"* dereferenceable(40)) unnamed_addr #3

; Function Attrs: nounwind
declare void @_ZN3net3nqe8internal20CachedNetworkQualityD1Ev(%"class.net::nqe::internal::CachedNetworkQuality"*) unnamed_addr #1

; Function Attrs: nounwind
declare void @_ZN3net3nqe8internal9NetworkIDD1Ev(%"struct.net::nqe::internal::NetworkID"*) unnamed_addr #1

declare void @_ZN4base8internal18WeakPtrFactoryBaseC2Em(%"class.base::internal::WeakPtrFactoryBase"*, i64) unnamed_addr #3

declare void @_ZN4base8internal12LinkNodeBaseC2EPS1_S2_(%"class.base::internal::LinkNodeBase"*, %"class.base::internal::LinkNodeBase"*, %"class.base::internal::LinkNodeBase"*) unnamed_addr #3

; Function Attrs: nounwind ssp uwtable
define linkonce_odr hidden void @_ZNSt3__16__treeINS_12__value_typeIN3net3nqe8internal9NetworkIDENS4_20CachedNetworkQualityEEENS_19__map_value_compareIS5_S7_NS_4lessIS5_EELb1EEENS_9allocatorIS7_EEE7destroyEPNS_11__tree_nodeIS7_PvEE(%"class.std::__1::__tree"*, %"class.std::__1::__tree_node"*) local_unnamed_addr #0 comdat align 2 {
  %3 = icmp eq %"class.std::__1::__tree_node"* %1, null
  br i1 %3, label %13, label %4

4:                                                ; preds = %2
  %5 = bitcast %"class.std::__1::__tree_node"* %1 to %"class.std::__1::__tree_node"**
  %6 = load %"class.std::__1::__tree_node"*, %"class.std::__1::__tree_node"** %5, align 8
  tail call void @_ZNSt3__16__treeINS_12__value_typeIN3net3nqe8internal9NetworkIDENS4_20CachedNetworkQualityEEENS_19__map_value_compareIS5_S7_NS_4lessIS5_EELb1EEENS_9allocatorIS7_EEE7destroyEPNS_11__tree_nodeIS7_PvEE(%"class.std::__1::__tree"* %0, %"class.std::__1::__tree_node"* %6) #9
  %7 = getelementptr inbounds %"class.std::__1::__tree_node", %"class.std::__1::__tree_node"* %1, i64 0, i32 0, i32 1
  %8 = bitcast %"class.std::__1::__tree_node_base"** %7 to %"class.std::__1::__tree_node"**
  %9 = load %"class.std::__1::__tree_node"*, %"class.std::__1::__tree_node"** %8, align 8
  tail call void @_ZNSt3__16__treeINS_12__value_typeIN3net3nqe8internal9NetworkIDENS4_20CachedNetworkQualityEEENS_19__map_value_compareIS5_S7_NS_4lessIS5_EELb1EEENS_9allocatorIS7_EEE7destroyEPNS_11__tree_nodeIS7_PvEE(%"class.std::__1::__tree"* %0, %"class.std::__1::__tree_node"* %9) #9
  %10 = getelementptr inbounds %"class.std::__1::__tree_node", %"class.std::__1::__tree_node"* %1, i64 0, i32 2, i32 0, i32 1
  tail call void @_ZN3net3nqe8internal20CachedNetworkQualityD1Ev(%"class.net::nqe::internal::CachedNetworkQuality"* %10) #9
  %11 = getelementptr inbounds %"class.std::__1::__tree_node", %"class.std::__1::__tree_node"* %1, i64 0, i32 2, i32 0, i32 0
  tail call void @_ZN3net3nqe8internal9NetworkIDD1Ev(%"struct.net::nqe::internal::NetworkID"* %11) #9
  %12 = bitcast %"class.std::__1::__tree_node"* %1 to i8*
  tail call void @_ZdlPv(i8* %12) #10
  ret void

13:                                               ; preds = %2
  ret void
}

; Function Attrs: nobuiltin nounwind
declare void @_ZdlPv(i8*) local_unnamed_addr #4

declare void @_ZN4base8internal12LinkNodeBase14RemoveFromListEv(%"class.base::internal::LinkNodeBase"*) local_unnamed_addr #3

; Function Attrs: nounwind ssp uwtable
define linkonce_odr hidden i64 @_ZNSt3__16__treeINS_12__value_typeIN3net3nqe8internal9NetworkIDENS4_20CachedNetworkQualityEEENS_19__map_value_compareIS5_S7_NS_4lessIS5_EELb1EEENS_9allocatorIS7_EEE14__erase_uniqueIS5_EEmRKT_(%"class.std::__1::__tree"*, %"struct.net::nqe::internal::NetworkID"* dereferenceable(40)) local_unnamed_addr #0 comdat align 2 {
  %3 = getelementptr inbounds %"class.std::__1::__tree", %"class.std::__1::__tree"* %0, i64 0, i32 1, i32 0, i32 0
  %4 = bitcast %"class.std::__1::__tree_end_node"* %3 to %"class.std::__1::__tree_node"**
  %5 = load %"class.std::__1::__tree_node"*, %"class.std::__1::__tree_node"** %4, align 8
  %6 = icmp eq %"class.std::__1::__tree_node"* %5, null
  br i1 %6, label %72, label %7

7:                                                ; preds = %2, %7
  %8 = phi %"class.std::__1::__tree_end_node"* [ %17, %7 ], [ %3, %2 ]
  %9 = phi %"class.std::__1::__tree_node"* [ %18, %7 ], [ %5, %2 ]
  %10 = getelementptr inbounds %"class.std::__1::__tree_node", %"class.std::__1::__tree_node"* %9, i64 0, i32 2, i32 0, i32 0
  %11 = tail call zeroext i1 @_ZNK3net3nqe8internal9NetworkIDltERKS2_(%"struct.net::nqe::internal::NetworkID"* %10, %"struct.net::nqe::internal::NetworkID"* dereferenceable(40) %1) #9
  %12 = getelementptr inbounds %"class.std::__1::__tree_node", %"class.std::__1::__tree_node"* %9, i64 0, i32 0, i32 1
  %13 = bitcast %"class.std::__1::__tree_node_base"** %12 to %"class.std::__1::__tree_node"**
  %14 = getelementptr inbounds %"class.std::__1::__tree_node", %"class.std::__1::__tree_node"* %9, i64 0, i32 0, i32 0
  %15 = bitcast %"class.std::__1::__tree_node"* %9 to %"class.std::__1::__tree_node"**
  %16 = select i1 %11, %"class.std::__1::__tree_node"** %13, %"class.std::__1::__tree_node"** %15
  %17 = select i1 %11, %"class.std::__1::__tree_end_node"* %8, %"class.std::__1::__tree_end_node"* %14
  %18 = load %"class.std::__1::__tree_node"*, %"class.std::__1::__tree_node"** %16, align 8
  %19 = icmp eq %"class.std::__1::__tree_node"* %18, null
  br i1 %19, label %20, label %7

20:                                               ; preds = %7
  %21 = icmp eq %"class.std::__1::__tree_end_node"* %17, %3
  br i1 %21, label %72, label %22

22:                                               ; preds = %20
  %23 = getelementptr inbounds %"class.std::__1::__tree_end_node", %"class.std::__1::__tree_end_node"* %17, i64 4
  %24 = bitcast %"class.std::__1::__tree_end_node"* %23 to %"struct.net::nqe::internal::NetworkID"*
  %25 = tail call zeroext i1 @_ZNK3net3nqe8internal9NetworkIDltERKS2_(%"struct.net::nqe::internal::NetworkID"* %1, %"struct.net::nqe::internal::NetworkID"* dereferenceable(40) %24) #9
  br i1 %25, label %72, label %26

26:                                               ; preds = %22
  %27 = getelementptr inbounds %"class.std::__1::__tree_end_node", %"class.std::__1::__tree_end_node"* %17, i64 1, i32 0
  %28 = load %"class.std::__1::__tree_node_base"*, %"class.std::__1::__tree_node_base"** %27, align 8
  %29 = icmp eq %"class.std::__1::__tree_node_base"* %28, null
  br i1 %29, label %30, label %38

30:                                               ; preds = %26
  %31 = bitcast %"class.std::__1::__tree_end_node"* %17 to %"class.std::__1::__tree_node_base"*
  %32 = getelementptr inbounds %"class.std::__1::__tree_end_node", %"class.std::__1::__tree_end_node"* %17, i64 2
  %33 = bitcast %"class.std::__1::__tree_end_node"* %32 to %"class.std::__1::__tree_end_node"**
  %34 = load %"class.std::__1::__tree_end_node"*, %"class.std::__1::__tree_end_node"** %33, align 8
  %35 = getelementptr inbounds %"class.std::__1::__tree_end_node", %"class.std::__1::__tree_end_node"* %34, i64 0, i32 0
  %36 = load %"class.std::__1::__tree_node_base"*, %"class.std::__1::__tree_node_base"** %35, align 8
  %37 = icmp eq %"class.std::__1::__tree_node_base"* %36, %31
  br i1 %37, label %54, label %45

38:                                               ; preds = %26, %38
  %39 = phi %"class.std::__1::__tree_node_base"* [ %41, %38 ], [ %28, %26 ]
  %40 = getelementptr inbounds %"class.std::__1::__tree_node_base", %"class.std::__1::__tree_node_base"* %39, i64 0, i32 0, i32 0
  %41 = load %"class.std::__1::__tree_node_base"*, %"class.std::__1::__tree_node_base"** %40, align 8
  %42 = icmp eq %"class.std::__1::__tree_node_base"* %41, null
  br i1 %42, label %43, label %38

43:                                               ; preds = %38
  %44 = getelementptr inbounds %"class.std::__1::__tree_node_base", %"class.std::__1::__tree_node_base"* %39, i64 0, i32 0
  br label %54

45:                                               ; preds = %30, %45
  %46 = phi %"class.std::__1::__tree_end_node"** [ %49, %45 ], [ %33, %30 ]
  %47 = bitcast %"class.std::__1::__tree_end_node"** %46 to %"class.std::__1::__tree_node_base"**
  %48 = load %"class.std::__1::__tree_node_base"*, %"class.std::__1::__tree_node_base"** %47, align 8
  %49 = getelementptr inbounds %"class.std::__1::__tree_node_base", %"class.std::__1::__tree_node_base"* %48, i64 0, i32 2
  %50 = load %"class.std::__1::__tree_end_node"*, %"class.std::__1::__tree_end_node"** %49, align 8
  %51 = getelementptr inbounds %"class.std::__1::__tree_end_node", %"class.std::__1::__tree_end_node"* %50, i64 0, i32 0
  %52 = load %"class.std::__1::__tree_node_base"*, %"class.std::__1::__tree_node_base"** %51, align 8
  %53 = icmp eq %"class.std::__1::__tree_node_base"* %52, %48
  br i1 %53, label %54, label %45

54:                                               ; preds = %45, %43, %30
  %55 = phi %"class.std::__1::__tree_end_node"* [ %44, %43 ], [ %34, %30 ], [ %50, %45 ]
  %56 = getelementptr inbounds %"class.std::__1::__tree", %"class.std::__1::__tree"* %0, i64 0, i32 0
  %57 = load %"class.std::__1::__tree_end_node"*, %"class.std::__1::__tree_end_node"** %56, align 8
  %58 = icmp eq %"class.std::__1::__tree_end_node"* %57, %17
  br i1 %58, label %59, label %62

59:                                               ; preds = %54
  %60 = ptrtoint %"class.std::__1::__tree_end_node"* %55 to i64
  %61 = bitcast %"class.std::__1::__tree"* %0 to i64*
  store i64 %60, i64* %61, align 8
  br label %62

62:                                               ; preds = %54, %59
  %63 = getelementptr inbounds %"class.std::__1::__tree", %"class.std::__1::__tree"* %0, i64 0, i32 2, i32 0, i32 0
  %64 = load i64, i64* %63, align 8
  %65 = add i64 %64, -1
  store i64 %65, i64* %63, align 8
  %66 = getelementptr inbounds %"class.std::__1::__tree", %"class.std::__1::__tree"* %0, i64 0, i32 1, i32 0, i32 0, i32 0
  %67 = load %"class.std::__1::__tree_node_base"*, %"class.std::__1::__tree_node_base"** %66, align 8
  %68 = bitcast %"class.std::__1::__tree_end_node"* %17 to %"class.std::__1::__tree_node_base"*
  tail call void @_ZNSt3__113__tree_removeIPNS_16__tree_node_baseIPvEEEEvT_S5_(%"class.std::__1::__tree_node_base"* %67, %"class.std::__1::__tree_node_base"* %68) #9
  %69 = getelementptr inbounds %"class.std::__1::__tree_end_node", %"class.std::__1::__tree_end_node"* %17, i64 9
  %70 = bitcast %"class.std::__1::__tree_end_node"* %69 to %"class.net::nqe::internal::CachedNetworkQuality"*
  tail call void @_ZN3net3nqe8internal20CachedNetworkQualityD1Ev(%"class.net::nqe::internal::CachedNetworkQuality"* %70) #9
  tail call void @_ZN3net3nqe8internal9NetworkIDD1Ev(%"struct.net::nqe::internal::NetworkID"* %24) #9
  %71 = bitcast %"class.std::__1::__tree_end_node"* %17 to i8*
  tail call void @_ZdlPv(i8* %71) #10
  br label %72

72:                                               ; preds = %22, %20, %2, %62
  %73 = phi i64 [ 1, %62 ], [ 0, %2 ], [ 0, %20 ], [ 0, %22 ]
  ret i64 %73
}

declare zeroext i1 @_ZNK3net3nqe8internal9NetworkIDltERKS2_(%"struct.net::nqe::internal::NetworkID"*, %"struct.net::nqe::internal::NetworkID"* dereferenceable(40)) local_unnamed_addr #3

; Function Attrs: nounwind ssp uwtable
define linkonce_odr hidden void @_ZNSt3__113__tree_removeIPNS_16__tree_node_baseIPvEEEEvT_S5_(%"class.std::__1::__tree_node_base"*, %"class.std::__1::__tree_node_base"*) local_unnamed_addr #0 comdat {
  %3 = getelementptr inbounds %"class.std::__1::__tree_node_base", %"class.std::__1::__tree_node_base"* %1, i64 0, i32 0, i32 0
  %4 = load %"class.std::__1::__tree_node_base"*, %"class.std::__1::__tree_node_base"** %3, align 8
  %5 = icmp eq %"class.std::__1::__tree_node_base"* %4, null
  br i1 %5, label %17, label %6

6:                                                ; preds = %2
  %7 = getelementptr inbounds %"class.std::__1::__tree_node_base", %"class.std::__1::__tree_node_base"* %1, i64 0, i32 1
  %8 = load %"class.std::__1::__tree_node_base"*, %"class.std::__1::__tree_node_base"** %7, align 8
  %9 = icmp eq %"class.std::__1::__tree_node_base"* %8, null
  br i1 %9, label %15, label %10

10:                                               ; preds = %6, %10
  %11 = phi %"class.std::__1::__tree_node_base"* [ %13, %10 ], [ %8, %6 ]
  %12 = getelementptr inbounds %"class.std::__1::__tree_node_base", %"class.std::__1::__tree_node_base"* %11, i64 0, i32 0, i32 0
  %13 = load %"class.std::__1::__tree_node_base"*, %"class.std::__1::__tree_node_base"** %12, align 8
  %14 = icmp eq %"class.std::__1::__tree_node_base"* %13, null
  br i1 %14, label %17, label %10

15:                                               ; preds = %6
  %16 = getelementptr inbounds %"class.std::__1::__tree_node_base", %"class.std::__1::__tree_node_base"* %1, i64 0, i32 0, i32 0
  br label %23

17:                                               ; preds = %10, %2
  %18 = phi %"class.std::__1::__tree_node_base"* [ %1, %2 ], [ %11, %10 ]
  %19 = getelementptr inbounds %"class.std::__1::__tree_node_base", %"class.std::__1::__tree_node_base"* %18, i64 0, i32 0, i32 0
  %20 = getelementptr inbounds %"class.std::__1::__tree_node_base", %"class.std::__1::__tree_node_base"* %18, i64 0, i32 1
  %21 = load %"class.std::__1::__tree_node_base"*, %"class.std::__1::__tree_node_base"** %20, align 8
  %22 = icmp eq %"class.std::__1::__tree_node_base"* %21, null
  br i1 %22, label %32, label %23

23:                                               ; preds = %15, %17
  %24 = phi %"class.std::__1::__tree_node_base"** [ %19, %17 ], [ %16, %15 ]
  %25 = phi %"class.std::__1::__tree_node_base"* [ %18, %17 ], [ %1, %15 ]
  %26 = phi %"class.std::__1::__tree_node_base"* [ %21, %17 ], [ %4, %15 ]
  %27 = getelementptr inbounds %"class.std::__1::__tree_node_base", %"class.std::__1::__tree_node_base"* %25, i64 0, i32 2
  %28 = bitcast %"class.std::__1::__tree_end_node"** %27 to i64*
  %29 = load i64, i64* %28, align 8
  %30 = getelementptr inbounds %"class.std::__1::__tree_node_base", %"class.std::__1::__tree_node_base"* %26, i64 0, i32 2
  %31 = bitcast %"class.std::__1::__tree_end_node"** %30 to i64*
  store i64 %29, i64* %31, align 8
  br label %32

32:                                               ; preds = %17, %23
  %33 = phi %"class.std::__1::__tree_node_base"** [ %24, %23 ], [ %19, %17 ]
  %34 = phi %"class.std::__1::__tree_node_base"* [ %25, %23 ], [ %18, %17 ]
  %35 = phi i1 [ true, %23 ], [ false, %17 ]
  %36 = phi %"class.std::__1::__tree_node_base"* [ %26, %23 ], [ null, %17 ]
  %37 = getelementptr inbounds %"class.std::__1::__tree_node_base", %"class.std::__1::__tree_node_base"* %34, i64 0, i32 2
  %38 = load %"class.std::__1::__tree_end_node"*, %"class.std::__1::__tree_end_node"** %37, align 8
  %39 = getelementptr inbounds %"class.std::__1::__tree_end_node", %"class.std::__1::__tree_end_node"* %38, i64 0, i32 0
  %40 = load %"class.std::__1::__tree_node_base"*, %"class.std::__1::__tree_node_base"** %39, align 8
  %41 = icmp eq %"class.std::__1::__tree_node_base"* %40, %34
  br i1 %41, label %42, label %48

42:                                               ; preds = %32
  store %"class.std::__1::__tree_node_base"* %36, %"class.std::__1::__tree_node_base"** %39, align 8
  %43 = icmp eq %"class.std::__1::__tree_node_base"* %34, %0
  br i1 %43, label %55, label %44

44:                                               ; preds = %42
  %45 = bitcast %"class.std::__1::__tree_end_node"** %37 to %"class.std::__1::__tree_node_base"**
  %46 = load %"class.std::__1::__tree_node_base"*, %"class.std::__1::__tree_node_base"** %45, align 8
  %47 = getelementptr inbounds %"class.std::__1::__tree_node_base", %"class.std::__1::__tree_node_base"* %46, i64 0, i32 1
  br label %52

48:                                               ; preds = %32
  %49 = getelementptr inbounds %"class.std::__1::__tree_end_node", %"class.std::__1::__tree_end_node"* %38, i64 1, i32 0
  store %"class.std::__1::__tree_node_base"* %36, %"class.std::__1::__tree_node_base"** %49, align 8
  %50 = load %"class.std::__1::__tree_end_node"*, %"class.std::__1::__tree_end_node"** %37, align 8
  %51 = getelementptr inbounds %"class.std::__1::__tree_end_node", %"class.std::__1::__tree_end_node"* %50, i64 0, i32 0
  br label %52

52:                                               ; preds = %48, %44
  %53 = phi %"class.std::__1::__tree_node_base"** [ %47, %44 ], [ %51, %48 ]
  %54 = load %"class.std::__1::__tree_node_base"*, %"class.std::__1::__tree_node_base"** %53, align 8
  br label %55

55:                                               ; preds = %52, %42
  %56 = phi %"class.std::__1::__tree_node_base"* [ %36, %42 ], [ %0, %52 ]
  %57 = phi %"class.std::__1::__tree_node_base"* [ null, %42 ], [ %54, %52 ]
  %58 = getelementptr inbounds %"class.std::__1::__tree_node_base", %"class.std::__1::__tree_node_base"* %34, i64 0, i32 3
  %59 = load i8, i8* %58, align 8, !range !19
  %60 = icmp ne i8 %59, 0
  %61 = icmp eq %"class.std::__1::__tree_node_base"* %34, %1
  br i1 %61, label %90, label %62

62:                                               ; preds = %55
  %63 = getelementptr inbounds %"class.std::__1::__tree_node_base", %"class.std::__1::__tree_node_base"* %1, i64 0, i32 2
  %64 = bitcast %"class.std::__1::__tree_end_node"** %63 to i64*
  %65 = load i64, i64* %64, align 8
  %66 = bitcast %"class.std::__1::__tree_end_node"** %37 to i64*
  store i64 %65, i64* %66, align 8
  %67 = load %"class.std::__1::__tree_end_node"*, %"class.std::__1::__tree_end_node"** %63, align 8
  %68 = getelementptr inbounds %"class.std::__1::__tree_end_node", %"class.std::__1::__tree_end_node"* %67, i64 0, i32 0
  %69 = load %"class.std::__1::__tree_node_base"*, %"class.std::__1::__tree_node_base"** %68, align 8
  %70 = icmp eq %"class.std::__1::__tree_node_base"* %69, %1
  %71 = inttoptr i64 %65 to %"class.std::__1::__tree_node_base"*
  %72 = getelementptr inbounds %"class.std::__1::__tree_node_base", %"class.std::__1::__tree_node_base"* %71, i64 0, i32 1
  %73 = inttoptr i64 %65 to %"class.std::__1::__tree_end_node"*
  %74 = getelementptr inbounds %"class.std::__1::__tree_end_node", %"class.std::__1::__tree_end_node"* %73, i64 0, i32 0
  %75 = select i1 %70, %"class.std::__1::__tree_node_base"** %74, %"class.std::__1::__tree_node_base"** %72
  store %"class.std::__1::__tree_node_base"* %34, %"class.std::__1::__tree_node_base"** %75, align 8
  %76 = load %"class.std::__1::__tree_node_base"*, %"class.std::__1::__tree_node_base"** %3, align 8
  store %"class.std::__1::__tree_node_base"* %76, %"class.std::__1::__tree_node_base"** %33, align 8
  %77 = getelementptr inbounds %"class.std::__1::__tree_node_base", %"class.std::__1::__tree_node_base"* %34, i64 0, i32 0
  %78 = getelementptr inbounds %"class.std::__1::__tree_node_base", %"class.std::__1::__tree_node_base"* %76, i64 0, i32 2
  store %"class.std::__1::__tree_end_node"* %77, %"class.std::__1::__tree_end_node"** %78, align 8
  %79 = getelementptr inbounds %"class.std::__1::__tree_node_base", %"class.std::__1::__tree_node_base"* %1, i64 0, i32 1
  %80 = load %"class.std::__1::__tree_node_base"*, %"class.std::__1::__tree_node_base"** %79, align 8
  %81 = getelementptr inbounds %"class.std::__1::__tree_node_base", %"class.std::__1::__tree_node_base"* %34, i64 0, i32 1
  store %"class.std::__1::__tree_node_base"* %80, %"class.std::__1::__tree_node_base"** %81, align 8
  %82 = icmp eq %"class.std::__1::__tree_node_base"* %80, null
  br i1 %82, label %85, label %83

83:                                               ; preds = %62
  %84 = getelementptr inbounds %"class.std::__1::__tree_node_base", %"class.std::__1::__tree_node_base"* %80, i64 0, i32 2
  store %"class.std::__1::__tree_end_node"* %77, %"class.std::__1::__tree_end_node"** %84, align 8
  br label %85

85:                                               ; preds = %62, %83
  %86 = getelementptr inbounds %"class.std::__1::__tree_node_base", %"class.std::__1::__tree_node_base"* %1, i64 0, i32 3
  %87 = load i8, i8* %86, align 8, !range !19
  store i8 %87, i8* %58, align 8
  %88 = icmp eq %"class.std::__1::__tree_node_base"* %56, %1
  %89 = select i1 %88, %"class.std::__1::__tree_node_base"* %34, %"class.std::__1::__tree_node_base"* %56
  br label %90

90:                                               ; preds = %85, %55
  %91 = phi %"class.std::__1::__tree_node_base"* [ %56, %55 ], [ %89, %85 ]
  %92 = icmp ne %"class.std::__1::__tree_node_base"* %91, null
  %93 = and i1 %60, %92
  br i1 %93, label %94, label %382

94:                                               ; preds = %90
  br i1 %35, label %95, label %97

95:                                               ; preds = %94
  %96 = getelementptr inbounds %"class.std::__1::__tree_node_base", %"class.std::__1::__tree_node_base"* %36, i64 0, i32 3
  store i8 1, i8* %96, align 8
  br label %382

97:                                               ; preds = %94, %371
  %98 = phi %"class.std::__1::__tree_node_base"* [ %373, %371 ], [ %91, %94 ]
  %99 = phi %"class.std::__1::__tree_node_base"* [ %381, %371 ], [ %57, %94 ]
  %100 = getelementptr inbounds %"class.std::__1::__tree_node_base", %"class.std::__1::__tree_node_base"* %99, i64 0, i32 2
  %101 = load %"class.std::__1::__tree_end_node"*, %"class.std::__1::__tree_end_node"** %100, align 8
  %102 = getelementptr inbounds %"class.std::__1::__tree_end_node", %"class.std::__1::__tree_end_node"* %101, i64 0, i32 0
  %103 = load %"class.std::__1::__tree_node_base"*, %"class.std::__1::__tree_node_base"** %102, align 8
  %104 = icmp eq %"class.std::__1::__tree_node_base"* %103, %99
  %105 = getelementptr inbounds %"class.std::__1::__tree_node_base", %"class.std::__1::__tree_node_base"* %99, i64 0, i32 3
  %106 = load i8, i8* %105, align 8, !range !19
  %107 = icmp ne i8 %106, 0
  br i1 %104, label %242, label %108

108:                                              ; preds = %97
  br i1 %107, label %141, label %109

109:                                              ; preds = %108
  store i8 1, i8* %105, align 8
  %110 = bitcast %"class.std::__1::__tree_end_node"** %100 to %"class.std::__1::__tree_node_base"**
  %111 = getelementptr inbounds %"class.std::__1::__tree_end_node", %"class.std::__1::__tree_end_node"* %101, i64 3
  %112 = bitcast %"class.std::__1::__tree_end_node"* %111 to i8*
  store i8 0, i8* %112, align 8
  %113 = load %"class.std::__1::__tree_node_base"*, %"class.std::__1::__tree_node_base"** %110, align 8
  %114 = getelementptr inbounds %"class.std::__1::__tree_node_base", %"class.std::__1::__tree_node_base"* %113, i64 0, i32 1
  %115 = load %"class.std::__1::__tree_node_base"*, %"class.std::__1::__tree_node_base"** %114, align 8
  %116 = getelementptr inbounds %"class.std::__1::__tree_node_base", %"class.std::__1::__tree_node_base"* %115, i64 0, i32 0, i32 0
  %117 = load %"class.std::__1::__tree_node_base"*, %"class.std::__1::__tree_node_base"** %116, align 8
  store %"class.std::__1::__tree_node_base"* %117, %"class.std::__1::__tree_node_base"** %114, align 8
  %118 = icmp eq %"class.std::__1::__tree_node_base"* %117, null
  br i1 %118, label %122, label %119

119:                                              ; preds = %109
  %120 = getelementptr inbounds %"class.std::__1::__tree_node_base", %"class.std::__1::__tree_node_base"* %113, i64 0, i32 0
  %121 = getelementptr inbounds %"class.std::__1::__tree_node_base", %"class.std::__1::__tree_node_base"* %117, i64 0, i32 2
  store %"class.std::__1::__tree_end_node"* %120, %"class.std::__1::__tree_end_node"** %121, align 8
  br label %122

122:                                              ; preds = %119, %109
  %123 = getelementptr inbounds %"class.std::__1::__tree_node_base", %"class.std::__1::__tree_node_base"* %113, i64 0, i32 2
  %124 = bitcast %"class.std::__1::__tree_end_node"** %123 to i64*
  %125 = load i64, i64* %124, align 8
  %126 = getelementptr inbounds %"class.std::__1::__tree_node_base", %"class.std::__1::__tree_node_base"* %115, i64 0, i32 2
  %127 = bitcast %"class.std::__1::__tree_end_node"** %126 to i64*
  store i64 %125, i64* %127, align 8
  %128 = load %"class.std::__1::__tree_end_node"*, %"class.std::__1::__tree_end_node"** %123, align 8
  %129 = getelementptr inbounds %"class.std::__1::__tree_end_node", %"class.std::__1::__tree_end_node"* %128, i64 0, i32 0
  %130 = load %"class.std::__1::__tree_node_base"*, %"class.std::__1::__tree_node_base"** %129, align 8
  %131 = icmp eq %"class.std::__1::__tree_node_base"* %130, %113
  %132 = getelementptr inbounds %"class.std::__1::__tree_end_node", %"class.std::__1::__tree_end_node"* %128, i64 1, i32 0
  %133 = select i1 %131, %"class.std::__1::__tree_node_base"** %129, %"class.std::__1::__tree_node_base"** %132
  store %"class.std::__1::__tree_node_base"* %115, %"class.std::__1::__tree_node_base"** %133, align 8
  store %"class.std::__1::__tree_node_base"* %113, %"class.std::__1::__tree_node_base"** %116, align 8
  %134 = getelementptr inbounds %"class.std::__1::__tree_node_base", %"class.std::__1::__tree_node_base"* %115, i64 0, i32 0
  store %"class.std::__1::__tree_end_node"* %134, %"class.std::__1::__tree_end_node"** %123, align 8
  %135 = getelementptr inbounds %"class.std::__1::__tree_node_base", %"class.std::__1::__tree_node_base"* %99, i64 0, i32 0, i32 0
  %136 = load %"class.std::__1::__tree_node_base"*, %"class.std::__1::__tree_node_base"** %135, align 8
  %137 = icmp eq %"class.std::__1::__tree_node_base"* %98, %136
  %138 = select i1 %137, %"class.std::__1::__tree_node_base"* %99, %"class.std::__1::__tree_node_base"* %98
  %139 = getelementptr inbounds %"class.std::__1::__tree_node_base", %"class.std::__1::__tree_node_base"* %136, i64 0, i32 1
  %140 = load %"class.std::__1::__tree_node_base"*, %"class.std::__1::__tree_node_base"** %139, align 8
  br label %141

141:                                              ; preds = %122, %108
  %142 = phi %"class.std::__1::__tree_node_base"* [ %98, %108 ], [ %138, %122 ]
  %143 = phi %"class.std::__1::__tree_node_base"* [ %99, %108 ], [ %140, %122 ]
  %144 = getelementptr inbounds %"class.std::__1::__tree_node_base", %"class.std::__1::__tree_node_base"* %143, i64 0, i32 0, i32 0
  %145 = load %"class.std::__1::__tree_node_base"*, %"class.std::__1::__tree_node_base"** %144, align 8
  %146 = icmp eq %"class.std::__1::__tree_node_base"* %145, null
  br i1 %146, label %151, label %147

147:                                              ; preds = %141
  %148 = getelementptr inbounds %"class.std::__1::__tree_node_base", %"class.std::__1::__tree_node_base"* %145, i64 0, i32 3
  %149 = load i8, i8* %148, align 8, !range !19
  %150 = icmp eq i8 %149, 0
  br i1 %150, label %172, label %151

151:                                              ; preds = %147, %141
  %152 = getelementptr inbounds %"class.std::__1::__tree_node_base", %"class.std::__1::__tree_node_base"* %143, i64 0, i32 1
  %153 = load %"class.std::__1::__tree_node_base"*, %"class.std::__1::__tree_node_base"** %152, align 8
  %154 = icmp eq %"class.std::__1::__tree_node_base"* %153, null
  br i1 %154, label %159, label %155

155:                                              ; preds = %151
  %156 = getelementptr inbounds %"class.std::__1::__tree_node_base", %"class.std::__1::__tree_node_base"* %153, i64 0, i32 3
  %157 = load i8, i8* %156, align 8, !range !19
  %158 = icmp eq i8 %157, 0
  br i1 %158, label %177, label %159

159:                                              ; preds = %155, %151
  %160 = getelementptr inbounds %"class.std::__1::__tree_node_base", %"class.std::__1::__tree_node_base"* %143, i64 0, i32 3
  store i8 0, i8* %160, align 8
  %161 = getelementptr inbounds %"class.std::__1::__tree_node_base", %"class.std::__1::__tree_node_base"* %143, i64 0, i32 2
  %162 = bitcast %"class.std::__1::__tree_end_node"** %161 to %"class.std::__1::__tree_node_base"**
  %163 = load %"class.std::__1::__tree_node_base"*, %"class.std::__1::__tree_node_base"** %162, align 8
  %164 = icmp eq %"class.std::__1::__tree_node_base"* %163, %142
  br i1 %164, label %169, label %165

165:                                              ; preds = %159
  %166 = getelementptr inbounds %"class.std::__1::__tree_node_base", %"class.std::__1::__tree_node_base"* %163, i64 0, i32 3
  %167 = load i8, i8* %166, align 8, !range !19
  %168 = icmp eq i8 %167, 0
  br i1 %168, label %169, label %371

169:                                              ; preds = %165, %159
  %170 = phi %"class.std::__1::__tree_node_base"* [ %163, %165 ], [ %142, %159 ]
  %171 = getelementptr inbounds %"class.std::__1::__tree_node_base", %"class.std::__1::__tree_node_base"* %170, i64 0, i32 3
  store i8 1, i8* %171, align 8
  br label %382

172:                                              ; preds = %147
  %173 = getelementptr inbounds %"class.std::__1::__tree_node_base", %"class.std::__1::__tree_node_base"* %143, i64 0, i32 0, i32 0
  %174 = getelementptr inbounds %"class.std::__1::__tree_node_base", %"class.std::__1::__tree_node_base"* %143, i64 0, i32 1
  %175 = load %"class.std::__1::__tree_node_base"*, %"class.std::__1::__tree_node_base"** %174, align 8
  %176 = icmp eq %"class.std::__1::__tree_node_base"* %175, null
  br i1 %176, label %185, label %179

177:                                              ; preds = %155
  %178 = getelementptr inbounds %"class.std::__1::__tree_node_base", %"class.std::__1::__tree_node_base"* %143, i64 0, i32 0, i32 0
  br label %179

179:                                              ; preds = %177, %172
  %180 = phi %"class.std::__1::__tree_node_base"** [ %173, %172 ], [ %178, %177 ]
  %181 = phi %"class.std::__1::__tree_node_base"* [ %175, %172 ], [ %153, %177 ]
  %182 = getelementptr inbounds %"class.std::__1::__tree_node_base", %"class.std::__1::__tree_node_base"* %181, i64 0, i32 3
  %183 = load i8, i8* %182, align 8, !range !19
  %184 = icmp eq i8 %183, 0
  br i1 %184, label %209, label %185

185:                                              ; preds = %179, %172
  %186 = phi %"class.std::__1::__tree_node_base"** [ %180, %179 ], [ %173, %172 ]
  %187 = getelementptr inbounds %"class.std::__1::__tree_node_base", %"class.std::__1::__tree_node_base"* %145, i64 0, i32 3
  store i8 1, i8* %187, align 8
  %188 = getelementptr inbounds %"class.std::__1::__tree_node_base", %"class.std::__1::__tree_node_base"* %143, i64 0, i32 3
  store i8 0, i8* %188, align 8
  %189 = load %"class.std::__1::__tree_node_base"*, %"class.std::__1::__tree_node_base"** %186, align 8
  %190 = getelementptr inbounds %"class.std::__1::__tree_node_base", %"class.std::__1::__tree_node_base"* %189, i64 0, i32 1
  %191 = load %"class.std::__1::__tree_node_base"*, %"class.std::__1::__tree_node_base"** %190, align 8
  store %"class.std::__1::__tree_node_base"* %191, %"class.std::__1::__tree_node_base"** %186, align 8
  %192 = icmp eq %"class.std::__1::__tree_node_base"* %191, null
  br i1 %192, label %196, label %193

193:                                              ; preds = %185
  %194 = getelementptr inbounds %"class.std::__1::__tree_node_base", %"class.std::__1::__tree_node_base"* %143, i64 0, i32 0
  %195 = getelementptr inbounds %"class.std::__1::__tree_node_base", %"class.std::__1::__tree_node_base"* %191, i64 0, i32 2
  store %"class.std::__1::__tree_end_node"* %194, %"class.std::__1::__tree_end_node"** %195, align 8
  br label %196

196:                                              ; preds = %193, %185
  %197 = getelementptr inbounds %"class.std::__1::__tree_node_base", %"class.std::__1::__tree_node_base"* %143, i64 0, i32 2
  %198 = bitcast %"class.std::__1::__tree_end_node"** %197 to i64*
  %199 = load i64, i64* %198, align 8
  %200 = getelementptr inbounds %"class.std::__1::__tree_node_base", %"class.std::__1::__tree_node_base"* %189, i64 0, i32 2
  %201 = bitcast %"class.std::__1::__tree_end_node"** %200 to i64*
  store i64 %199, i64* %201, align 8
  %202 = load %"class.std::__1::__tree_end_node"*, %"class.std::__1::__tree_end_node"** %197, align 8
  %203 = getelementptr inbounds %"class.std::__1::__tree_end_node", %"class.std::__1::__tree_end_node"* %202, i64 0, i32 0
  %204 = load %"class.std::__1::__tree_node_base"*, %"class.std::__1::__tree_node_base"** %203, align 8
  %205 = icmp eq %"class.std::__1::__tree_node_base"* %204, %143
  %206 = getelementptr inbounds %"class.std::__1::__tree_end_node", %"class.std::__1::__tree_end_node"* %202, i64 1, i32 0
  %207 = select i1 %205, %"class.std::__1::__tree_node_base"** %203, %"class.std::__1::__tree_node_base"** %206
  store %"class.std::__1::__tree_node_base"* %189, %"class.std::__1::__tree_node_base"** %207, align 8
  store %"class.std::__1::__tree_node_base"* %143, %"class.std::__1::__tree_node_base"** %190, align 8
  %208 = getelementptr inbounds %"class.std::__1::__tree_node_base", %"class.std::__1::__tree_node_base"* %189, i64 0, i32 0
  store %"class.std::__1::__tree_end_node"* %208, %"class.std::__1::__tree_end_node"** %197, align 8
  br label %209

209:                                              ; preds = %179, %196
  %210 = phi %"class.std::__1::__tree_node_base"* [ %189, %196 ], [ %143, %179 ]
  %211 = getelementptr inbounds %"class.std::__1::__tree_node_base", %"class.std::__1::__tree_node_base"* %210, i64 0, i32 2
  %212 = bitcast %"class.std::__1::__tree_end_node"** %211 to %"class.std::__1::__tree_node_base"**
  %213 = load %"class.std::__1::__tree_node_base"*, %"class.std::__1::__tree_node_base"** %212, align 8
  %214 = getelementptr inbounds %"class.std::__1::__tree_node_base", %"class.std::__1::__tree_node_base"* %213, i64 0, i32 3
  %215 = load i8, i8* %214, align 8, !range !19
  %216 = getelementptr inbounds %"class.std::__1::__tree_node_base", %"class.std::__1::__tree_node_base"* %210, i64 0, i32 3
  store i8 %215, i8* %216, align 8
  store i8 1, i8* %214, align 8
  %217 = getelementptr inbounds %"class.std::__1::__tree_node_base", %"class.std::__1::__tree_node_base"* %210, i64 0, i32 1
  %218 = load %"class.std::__1::__tree_node_base"*, %"class.std::__1::__tree_node_base"** %217, align 8
  %219 = getelementptr inbounds %"class.std::__1::__tree_node_base", %"class.std::__1::__tree_node_base"* %218, i64 0, i32 3
  store i8 1, i8* %219, align 8
  %220 = load %"class.std::__1::__tree_node_base"*, %"class.std::__1::__tree_node_base"** %212, align 8
  %221 = getelementptr inbounds %"class.std::__1::__tree_node_base", %"class.std::__1::__tree_node_base"* %220, i64 0, i32 1
  %222 = load %"class.std::__1::__tree_node_base"*, %"class.std::__1::__tree_node_base"** %221, align 8
  %223 = getelementptr inbounds %"class.std::__1::__tree_node_base", %"class.std::__1::__tree_node_base"* %222, i64 0, i32 0, i32 0
  %224 = load %"class.std::__1::__tree_node_base"*, %"class.std::__1::__tree_node_base"** %223, align 8
  store %"class.std::__1::__tree_node_base"* %224, %"class.std::__1::__tree_node_base"** %221, align 8
  %225 = icmp eq %"class.std::__1::__tree_node_base"* %224, null
  br i1 %225, label %229, label %226

226:                                              ; preds = %209
  %227 = getelementptr inbounds %"class.std::__1::__tree_node_base", %"class.std::__1::__tree_node_base"* %220, i64 0, i32 0
  %228 = getelementptr inbounds %"class.std::__1::__tree_node_base", %"class.std::__1::__tree_node_base"* %224, i64 0, i32 2
  store %"class.std::__1::__tree_end_node"* %227, %"class.std::__1::__tree_end_node"** %228, align 8
  br label %229

229:                                              ; preds = %226, %209
  %230 = getelementptr inbounds %"class.std::__1::__tree_node_base", %"class.std::__1::__tree_node_base"* %220, i64 0, i32 2
  %231 = bitcast %"class.std::__1::__tree_end_node"** %230 to i64*
  %232 = load i64, i64* %231, align 8
  %233 = getelementptr inbounds %"class.std::__1::__tree_node_base", %"class.std::__1::__tree_node_base"* %222, i64 0, i32 2
  %234 = bitcast %"class.std::__1::__tree_end_node"** %233 to i64*
  store i64 %232, i64* %234, align 8
  %235 = load %"class.std::__1::__tree_end_node"*, %"class.std::__1::__tree_end_node"** %230, align 8
  %236 = getelementptr inbounds %"class.std::__1::__tree_end_node", %"class.std::__1::__tree_end_node"* %235, i64 0, i32 0
  %237 = load %"class.std::__1::__tree_node_base"*, %"class.std::__1::__tree_node_base"** %236, align 8
  %238 = icmp eq %"class.std::__1::__tree_node_base"* %237, %220
  %239 = getelementptr inbounds %"class.std::__1::__tree_end_node", %"class.std::__1::__tree_end_node"* %235, i64 1, i32 0
  %240 = select i1 %238, %"class.std::__1::__tree_node_base"** %236, %"class.std::__1::__tree_node_base"** %239
  store %"class.std::__1::__tree_node_base"* %222, %"class.std::__1::__tree_node_base"** %240, align 8
  store %"class.std::__1::__tree_node_base"* %220, %"class.std::__1::__tree_node_base"** %223, align 8
  %241 = getelementptr inbounds %"class.std::__1::__tree_node_base", %"class.std::__1::__tree_node_base"* %222, i64 0, i32 0
  store %"class.std::__1::__tree_end_node"* %241, %"class.std::__1::__tree_end_node"** %230, align 8
  br label %382

242:                                              ; preds = %97
  br i1 %107, label %275, label %243

243:                                              ; preds = %242
  store i8 1, i8* %105, align 8
  %244 = bitcast %"class.std::__1::__tree_end_node"** %100 to %"class.std::__1::__tree_node_base"**
  %245 = getelementptr inbounds %"class.std::__1::__tree_end_node", %"class.std::__1::__tree_end_node"* %101, i64 3
  %246 = bitcast %"class.std::__1::__tree_end_node"* %245 to i8*
  store i8 0, i8* %246, align 8
  %247 = load %"class.std::__1::__tree_node_base"*, %"class.std::__1::__tree_node_base"** %244, align 8
  %248 = getelementptr inbounds %"class.std::__1::__tree_node_base", %"class.std::__1::__tree_node_base"* %247, i64 0, i32 0, i32 0
  %249 = load %"class.std::__1::__tree_node_base"*, %"class.std::__1::__tree_node_base"** %248, align 8
  %250 = getelementptr inbounds %"class.std::__1::__tree_node_base", %"class.std::__1::__tree_node_base"* %249, i64 0, i32 1
  %251 = load %"class.std::__1::__tree_node_base"*, %"class.std::__1::__tree_node_base"** %250, align 8
  store %"class.std::__1::__tree_node_base"* %251, %"class.std::__1::__tree_node_base"** %248, align 8
  %252 = icmp eq %"class.std::__1::__tree_node_base"* %251, null
  br i1 %252, label %256, label %253

253:                                              ; preds = %243
  %254 = getelementptr inbounds %"class.std::__1::__tree_node_base", %"class.std::__1::__tree_node_base"* %247, i64 0, i32 0
  %255 = getelementptr inbounds %"class.std::__1::__tree_node_base", %"class.std::__1::__tree_node_base"* %251, i64 0, i32 2
  store %"class.std::__1::__tree_end_node"* %254, %"class.std::__1::__tree_end_node"** %255, align 8
  br label %256

256:                                              ; preds = %253, %243
  %257 = getelementptr inbounds %"class.std::__1::__tree_node_base", %"class.std::__1::__tree_node_base"* %247, i64 0, i32 2
  %258 = bitcast %"class.std::__1::__tree_end_node"** %257 to i64*
  %259 = load i64, i64* %258, align 8
  %260 = getelementptr inbounds %"class.std::__1::__tree_node_base", %"class.std::__1::__tree_node_base"* %249, i64 0, i32 2
  %261 = bitcast %"class.std::__1::__tree_end_node"** %260 to i64*
  store i64 %259, i64* %261, align 8
  %262 = load %"class.std::__1::__tree_end_node"*, %"class.std::__1::__tree_end_node"** %257, align 8
  %263 = getelementptr inbounds %"class.std::__1::__tree_end_node", %"class.std::__1::__tree_end_node"* %262, i64 0, i32 0
  %264 = load %"class.std::__1::__tree_node_base"*, %"class.std::__1::__tree_node_base"** %263, align 8
  %265 = icmp eq %"class.std::__1::__tree_node_base"* %264, %247
  %266 = getelementptr inbounds %"class.std::__1::__tree_end_node", %"class.std::__1::__tree_end_node"* %262, i64 1, i32 0
  %267 = select i1 %265, %"class.std::__1::__tree_node_base"** %263, %"class.std::__1::__tree_node_base"** %266
  store %"class.std::__1::__tree_node_base"* %249, %"class.std::__1::__tree_node_base"** %267, align 8
  store %"class.std::__1::__tree_node_base"* %247, %"class.std::__1::__tree_node_base"** %250, align 8
  %268 = getelementptr inbounds %"class.std::__1::__tree_node_base", %"class.std::__1::__tree_node_base"* %249, i64 0, i32 0
  store %"class.std::__1::__tree_end_node"* %268, %"class.std::__1::__tree_end_node"** %257, align 8
  %269 = getelementptr inbounds %"class.std::__1::__tree_node_base", %"class.std::__1::__tree_node_base"* %99, i64 0, i32 1
  %270 = load %"class.std::__1::__tree_node_base"*, %"class.std::__1::__tree_node_base"** %269, align 8
  %271 = icmp eq %"class.std::__1::__tree_node_base"* %98, %270
  %272 = select i1 %271, %"class.std::__1::__tree_node_base"* %99, %"class.std::__1::__tree_node_base"* %98
  %273 = getelementptr inbounds %"class.std::__1::__tree_node_base", %"class.std::__1::__tree_node_base"* %270, i64 0, i32 0, i32 0
  %274 = load %"class.std::__1::__tree_node_base"*, %"class.std::__1::__tree_node_base"** %273, align 8
  br label %275

275:                                              ; preds = %256, %242
  %276 = phi %"class.std::__1::__tree_node_base"* [ %98, %242 ], [ %272, %256 ]
  %277 = phi %"class.std::__1::__tree_node_base"* [ %99, %242 ], [ %274, %256 ]
  %278 = getelementptr inbounds %"class.std::__1::__tree_node_base", %"class.std::__1::__tree_node_base"* %277, i64 0, i32 0, i32 0
  %279 = load %"class.std::__1::__tree_node_base"*, %"class.std::__1::__tree_node_base"** %278, align 8
  %280 = icmp eq %"class.std::__1::__tree_node_base"* %279, null
  br i1 %280, label %285, label %281

281:                                              ; preds = %275
  %282 = getelementptr inbounds %"class.std::__1::__tree_node_base", %"class.std::__1::__tree_node_base"* %279, i64 0, i32 3
  %283 = load i8, i8* %282, align 8, !range !19
  %284 = icmp eq i8 %283, 0
  br i1 %284, label %338, label %285

285:                                              ; preds = %281, %275
  %286 = getelementptr inbounds %"class.std::__1::__tree_node_base", %"class.std::__1::__tree_node_base"* %277, i64 0, i32 1
  %287 = load %"class.std::__1::__tree_node_base"*, %"class.std::__1::__tree_node_base"** %286, align 8
  %288 = icmp eq %"class.std::__1::__tree_node_base"* %287, null
  br i1 %288, label %293, label %289

289:                                              ; preds = %285
  %290 = getelementptr inbounds %"class.std::__1::__tree_node_base", %"class.std::__1::__tree_node_base"* %287, i64 0, i32 3
  %291 = load i8, i8* %290, align 8, !range !19
  %292 = icmp eq i8 %291, 0
  br i1 %292, label %305, label %293

293:                                              ; preds = %289, %285
  %294 = getelementptr inbounds %"class.std::__1::__tree_node_base", %"class.std::__1::__tree_node_base"* %277, i64 0, i32 3
  store i8 0, i8* %294, align 8
  %295 = getelementptr inbounds %"class.std::__1::__tree_node_base", %"class.std::__1::__tree_node_base"* %277, i64 0, i32 2
  %296 = bitcast %"class.std::__1::__tree_end_node"** %295 to %"class.std::__1::__tree_node_base"**
  %297 = load %"class.std::__1::__tree_node_base"*, %"class.std::__1::__tree_node_base"** %296, align 8
  %298 = getelementptr inbounds %"class.std::__1::__tree_node_base", %"class.std::__1::__tree_node_base"* %297, i64 0, i32 3
  %299 = load i8, i8* %298, align 8, !range !19
  %300 = icmp eq i8 %299, 0
  %301 = icmp eq %"class.std::__1::__tree_node_base"* %297, %276
  %302 = or i1 %301, %300
  br i1 %302, label %303, label %371

303:                                              ; preds = %293
  %304 = getelementptr inbounds %"class.std::__1::__tree_node_base", %"class.std::__1::__tree_node_base"* %297, i64 0, i32 3
  store i8 1, i8* %304, align 8
  br label %382

305:                                              ; preds = %289
  br i1 %280, label %313, label %306

306:                                              ; preds = %305
  %307 = getelementptr inbounds %"class.std::__1::__tree_node_base", %"class.std::__1::__tree_node_base"* %279, i64 0, i32 3
  %308 = load i8, i8* %307, align 8, !range !19
  %309 = icmp eq i8 %308, 0
  br i1 %309, label %338, label %310

310:                                              ; preds = %306
  %311 = getelementptr inbounds %"class.std::__1::__tree_node_base", %"class.std::__1::__tree_node_base"* %277, i64 0, i32 1
  %312 = load %"class.std::__1::__tree_node_base"*, %"class.std::__1::__tree_node_base"** %311, align 8
  br label %313

313:                                              ; preds = %310, %305
  %314 = phi %"class.std::__1::__tree_node_base"* [ %312, %310 ], [ %287, %305 ]
  %315 = getelementptr inbounds %"class.std::__1::__tree_node_base", %"class.std::__1::__tree_node_base"* %277, i64 0, i32 1
  %316 = getelementptr inbounds %"class.std::__1::__tree_node_base", %"class.std::__1::__tree_node_base"* %314, i64 0, i32 3
  store i8 1, i8* %316, align 8
  %317 = getelementptr inbounds %"class.std::__1::__tree_node_base", %"class.std::__1::__tree_node_base"* %277, i64 0, i32 3
  store i8 0, i8* %317, align 8
  %318 = load %"class.std::__1::__tree_node_base"*, %"class.std::__1::__tree_node_base"** %315, align 8
  %319 = getelementptr inbounds %"class.std::__1::__tree_node_base", %"class.std::__1::__tree_node_base"* %318, i64 0, i32 0, i32 0
  %320 = load %"class.std::__1::__tree_node_base"*, %"class.std::__1::__tree_node_base"** %319, align 8
  store %"class.std::__1::__tree_node_base"* %320, %"class.std::__1::__tree_node_base"** %315, align 8
  %321 = icmp eq %"class.std::__1::__tree_node_base"* %320, null
  br i1 %321, label %325, label %322

322:                                              ; preds = %313
  %323 = getelementptr inbounds %"class.std::__1::__tree_node_base", %"class.std::__1::__tree_node_base"* %277, i64 0, i32 0
  %324 = getelementptr inbounds %"class.std::__1::__tree_node_base", %"class.std::__1::__tree_node_base"* %320, i64 0, i32 2
  store %"class.std::__1::__tree_end_node"* %323, %"class.std::__1::__tree_end_node"** %324, align 8
  br label %325

325:                                              ; preds = %322, %313
  %326 = getelementptr inbounds %"class.std::__1::__tree_node_base", %"class.std::__1::__tree_node_base"* %277, i64 0, i32 2
  %327 = bitcast %"class.std::__1::__tree_end_node"** %326 to i64*
  %328 = load i64, i64* %327, align 8
  %329 = getelementptr inbounds %"class.std::__1::__tree_node_base", %"class.std::__1::__tree_node_base"* %318, i64 0, i32 2
  %330 = bitcast %"class.std::__1::__tree_end_node"** %329 to i64*
  store i64 %328, i64* %330, align 8
  %331 = load %"class.std::__1::__tree_end_node"*, %"class.std::__1::__tree_end_node"** %326, align 8
  %332 = getelementptr inbounds %"class.std::__1::__tree_end_node", %"class.std::__1::__tree_end_node"* %331, i64 0, i32 0
  %333 = load %"class.std::__1::__tree_node_base"*, %"class.std::__1::__tree_node_base"** %332, align 8
  %334 = icmp eq %"class.std::__1::__tree_node_base"* %333, %277
  %335 = getelementptr inbounds %"class.std::__1::__tree_end_node", %"class.std::__1::__tree_end_node"* %331, i64 1, i32 0
  %336 = select i1 %334, %"class.std::__1::__tree_node_base"** %332, %"class.std::__1::__tree_node_base"** %335
  store %"class.std::__1::__tree_node_base"* %318, %"class.std::__1::__tree_node_base"** %336, align 8
  store %"class.std::__1::__tree_node_base"* %277, %"class.std::__1::__tree_node_base"** %319, align 8
  %337 = getelementptr inbounds %"class.std::__1::__tree_node_base", %"class.std::__1::__tree_node_base"* %318, i64 0, i32 0
  store %"class.std::__1::__tree_end_node"* %337, %"class.std::__1::__tree_end_node"** %326, align 8
  br label %338

338:                                              ; preds = %281, %306, %325
  %339 = phi %"class.std::__1::__tree_node_base"* [ %318, %325 ], [ %277, %306 ], [ %277, %281 ]
  %340 = getelementptr inbounds %"class.std::__1::__tree_node_base", %"class.std::__1::__tree_node_base"* %339, i64 0, i32 2
  %341 = bitcast %"class.std::__1::__tree_end_node"** %340 to %"class.std::__1::__tree_node_base"**
  %342 = load %"class.std::__1::__tree_node_base"*, %"class.std::__1::__tree_node_base"** %341, align 8
  %343 = getelementptr inbounds %"class.std::__1::__tree_node_base", %"class.std::__1::__tree_node_base"* %342, i64 0, i32 3
  %344 = load i8, i8* %343, align 8, !range !19
  %345 = getelementptr inbounds %"class.std::__1::__tree_node_base", %"class.std::__1::__tree_node_base"* %339, i64 0, i32 3
  store i8 %344, i8* %345, align 8
  store i8 1, i8* %343, align 8
  %346 = getelementptr inbounds %"class.std::__1::__tree_node_base", %"class.std::__1::__tree_node_base"* %339, i64 0, i32 0, i32 0
  %347 = load %"class.std::__1::__tree_node_base"*, %"class.std::__1::__tree_node_base"** %346, align 8
  %348 = getelementptr inbounds %"class.std::__1::__tree_node_base", %"class.std::__1::__tree_node_base"* %347, i64 0, i32 3
  store i8 1, i8* %348, align 8
  %349 = load %"class.std::__1::__tree_node_base"*, %"class.std::__1::__tree_node_base"** %341, align 8
  %350 = getelementptr inbounds %"class.std::__1::__tree_node_base", %"class.std::__1::__tree_node_base"* %349, i64 0, i32 0, i32 0
  %351 = load %"class.std::__1::__tree_node_base"*, %"class.std::__1::__tree_node_base"** %350, align 8
  %352 = getelementptr inbounds %"class.std::__1::__tree_node_base", %"class.std::__1::__tree_node_base"* %351, i64 0, i32 1
  %353 = load %"class.std::__1::__tree_node_base"*, %"class.std::__1::__tree_node_base"** %352, align 8
  store %"class.std::__1::__tree_node_base"* %353, %"class.std::__1::__tree_node_base"** %350, align 8
  %354 = icmp eq %"class.std::__1::__tree_node_base"* %353, null
  br i1 %354, label %358, label %355

355:                                              ; preds = %338
  %356 = getelementptr inbounds %"class.std::__1::__tree_node_base", %"class.std::__1::__tree_node_base"* %349, i64 0, i32 0
  %357 = getelementptr inbounds %"class.std::__1::__tree_node_base", %"class.std::__1::__tree_node_base"* %353, i64 0, i32 2
  store %"class.std::__1::__tree_end_node"* %356, %"class.std::__1::__tree_end_node"** %357, align 8
  br label %358

358:                                              ; preds = %355, %338
  %359 = getelementptr inbounds %"class.std::__1::__tree_node_base", %"class.std::__1::__tree_node_base"* %349, i64 0, i32 2
  %360 = bitcast %"class.std::__1::__tree_end_node"** %359 to i64*
  %361 = load i64, i64* %360, align 8
  %362 = getelementptr inbounds %"class.std::__1::__tree_node_base", %"class.std::__1::__tree_node_base"* %351, i64 0, i32 2
  %363 = bitcast %"class.std::__1::__tree_end_node"** %362 to i64*
  store i64 %361, i64* %363, align 8
  %364 = load %"class.std::__1::__tree_end_node"*, %"class.std::__1::__tree_end_node"** %359, align 8
  %365 = getelementptr inbounds %"class.std::__1::__tree_end_node", %"class.std::__1::__tree_end_node"* %364, i64 0, i32 0
  %366 = load %"class.std::__1::__tree_node_base"*, %"class.std::__1::__tree_node_base"** %365, align 8
  %367 = icmp eq %"class.std::__1::__tree_node_base"* %366, %349
  %368 = getelementptr inbounds %"class.std::__1::__tree_end_node", %"class.std::__1::__tree_end_node"* %364, i64 1, i32 0
  %369 = select i1 %367, %"class.std::__1::__tree_node_base"** %365, %"class.std::__1::__tree_node_base"** %368
  store %"class.std::__1::__tree_node_base"* %351, %"class.std::__1::__tree_node_base"** %369, align 8
  store %"class.std::__1::__tree_node_base"* %349, %"class.std::__1::__tree_node_base"** %352, align 8
  %370 = getelementptr inbounds %"class.std::__1::__tree_node_base", %"class.std::__1::__tree_node_base"* %351, i64 0, i32 0
  store %"class.std::__1::__tree_end_node"* %370, %"class.std::__1::__tree_end_node"** %359, align 8
  br label %382

371:                                              ; preds = %293, %165
  %372 = phi %"class.std::__1::__tree_node_base"* [ %163, %165 ], [ %297, %293 ]
  %373 = phi %"class.std::__1::__tree_node_base"* [ %142, %165 ], [ %276, %293 ]
  %374 = getelementptr inbounds %"class.std::__1::__tree_node_base", %"class.std::__1::__tree_node_base"* %372, i64 0, i32 2
  %375 = load %"class.std::__1::__tree_end_node"*, %"class.std::__1::__tree_end_node"** %374, align 8
  %376 = getelementptr inbounds %"class.std::__1::__tree_end_node", %"class.std::__1::__tree_end_node"* %375, i64 0, i32 0
  %377 = load %"class.std::__1::__tree_node_base"*, %"class.std::__1::__tree_node_base"** %376, align 8
  %378 = icmp eq %"class.std::__1::__tree_node_base"* %377, %372
  %379 = getelementptr inbounds %"class.std::__1::__tree_end_node", %"class.std::__1::__tree_end_node"* %375, i64 1, i32 0
  %380 = select i1 %378, %"class.std::__1::__tree_node_base"** %379, %"class.std::__1::__tree_node_base"** %376
  %381 = load %"class.std::__1::__tree_node_base"*, %"class.std::__1::__tree_node_base"** %380, align 8
  br label %97

382:                                              ; preds = %95, %358, %303, %229, %169, %90
  ret void
}

; Function Attrs: nounwind ssp uwtable
define linkonce_odr hidden { %"class.std::__1::__tree_end_node"*, i8 } @_ZNSt3__16__treeINS_12__value_typeIN3net3nqe8internal9NetworkIDENS4_20CachedNetworkQualityEEENS_19__map_value_compareIS5_S7_NS_4lessIS5_EELb1EEENS_9allocatorIS7_EEE25__emplace_unique_key_argsIS5_JNS_4pairIS5_S6_EEEEENSG_INS_15__tree_iteratorIS7_PNS_11__tree_nodeIS7_PvEElEEbEERKT_DpOT0_(%"class.std::__1::__tree"*, %"struct.net::nqe::internal::NetworkID"* dereferenceable(40), %"struct.std::__1::pair.21"* dereferenceable(80)) local_unnamed_addr #0 comdat align 2 {
  %4 = getelementptr inbounds %"class.std::__1::__tree", %"class.std::__1::__tree"* %0, i64 0, i32 1, i32 0, i32 0
  %5 = bitcast %"class.std::__1::__tree_end_node"* %4 to %"class.std::__1::__tree_node"**
  %6 = load %"class.std::__1::__tree_node"*, %"class.std::__1::__tree_node"** %5, align 8
  %7 = icmp eq %"class.std::__1::__tree_node"* %6, null
  br i1 %7, label %35, label %8

8:                                                ; preds = %3
  %9 = getelementptr inbounds %"class.std::__1::__tree", %"class.std::__1::__tree"* %0, i64 0, i32 1, i32 0, i32 0, i32 0
  br label %10

10:                                               ; preds = %31, %8
  %11 = phi %"class.std::__1::__tree_node"* [ %34, %31 ], [ %6, %8 ]
  %12 = phi %"class.std::__1::__tree_node_base"** [ %33, %31 ], [ %9, %8 ]
  %13 = getelementptr inbounds %"class.std::__1::__tree_node", %"class.std::__1::__tree_node"* %11, i64 0, i32 2, i32 0, i32 0
  %14 = tail call zeroext i1 @_ZNK3net3nqe8internal9NetworkIDltERKS2_(%"struct.net::nqe::internal::NetworkID"* %1, %"struct.net::nqe::internal::NetworkID"* dereferenceable(40) %13) #9
  br i1 %14, label %15, label %21

15:                                               ; preds = %10
  %16 = getelementptr inbounds %"class.std::__1::__tree_node", %"class.std::__1::__tree_node"* %11, i64 0, i32 0, i32 0, i32 0
  %17 = load %"class.std::__1::__tree_node_base"*, %"class.std::__1::__tree_node_base"** %16, align 8
  %18 = icmp eq %"class.std::__1::__tree_node_base"* %17, null
  br i1 %18, label %19, label %31

19:                                               ; preds = %15
  %20 = getelementptr inbounds %"class.std::__1::__tree_node", %"class.std::__1::__tree_node"* %11, i64 0, i32 0, i32 0
  br label %37

21:                                               ; preds = %10
  %22 = tail call zeroext i1 @_ZNK3net3nqe8internal9NetworkIDltERKS2_(%"struct.net::nqe::internal::NetworkID"* %13, %"struct.net::nqe::internal::NetworkID"* dereferenceable(40) %1) #9
  br i1 %22, label %23, label %29

23:                                               ; preds = %21
  %24 = getelementptr inbounds %"class.std::__1::__tree_node", %"class.std::__1::__tree_node"* %11, i64 0, i32 0, i32 1
  %25 = load %"class.std::__1::__tree_node_base"*, %"class.std::__1::__tree_node_base"** %24, align 8
  %26 = icmp eq %"class.std::__1::__tree_node_base"* %25, null
  br i1 %26, label %27, label %31

27:                                               ; preds = %23
  %28 = getelementptr inbounds %"class.std::__1::__tree_node", %"class.std::__1::__tree_node"* %11, i64 0, i32 0, i32 0
  br label %37

29:                                               ; preds = %21
  %30 = getelementptr inbounds %"class.std::__1::__tree_node", %"class.std::__1::__tree_node"* %11, i64 0, i32 0, i32 0
  br label %37

31:                                               ; preds = %23, %15
  %32 = phi %"class.std::__1::__tree_node_base"* [ %17, %15 ], [ %25, %23 ]
  %33 = phi %"class.std::__1::__tree_node_base"** [ %16, %15 ], [ %24, %23 ]
  %34 = bitcast %"class.std::__1::__tree_node_base"* %32 to %"class.std::__1::__tree_node"*
  br label %10

35:                                               ; preds = %3
  %36 = getelementptr inbounds %"class.std::__1::__tree_end_node", %"class.std::__1::__tree_end_node"* %4, i64 0, i32 0
  br label %37

37:                                               ; preds = %19, %27, %29, %35
  %38 = phi %"class.std::__1::__tree_end_node"* [ %4, %35 ], [ %20, %19 ], [ %28, %27 ], [ %30, %29 ]
  %39 = phi %"class.std::__1::__tree_node_base"** [ %36, %35 ], [ %16, %19 ], [ %24, %27 ], [ %12, %29 ]
  %40 = bitcast %"class.std::__1::__tree_node_base"** %39 to %"class.std::__1::__tree_node"**
  %41 = load %"class.std::__1::__tree_node"*, %"class.std::__1::__tree_node"** %40, align 8
  %42 = icmp eq %"class.std::__1::__tree_node"* %41, null
  br i1 %42, label %43, label %72

43:                                               ; preds = %37
  %44 = tail call i8* @_Znwm(i64 112) #10, !noalias !20
  %45 = getelementptr inbounds i8, i8* %44, i64 32
  %46 = bitcast i8* %45 to %"struct.net::nqe::internal::NetworkID"*
  %47 = getelementptr inbounds %"struct.std::__1::pair.21", %"struct.std::__1::pair.21"* %2, i64 0, i32 0
  tail call void @_ZN3net3nqe8internal9NetworkIDC1ERKS2_(%"struct.net::nqe::internal::NetworkID"* %46, %"struct.net::nqe::internal::NetworkID"* dereferenceable(40) %47) #9, !noalias !20
  %48 = getelementptr inbounds i8, i8* %44, i64 72
  %49 = bitcast i8* %48 to %"class.net::nqe::internal::CachedNetworkQuality"*
  %50 = getelementptr inbounds %"struct.std::__1::pair.21", %"struct.std::__1::pair.21"* %2, i64 0, i32 1
  tail call void @_ZN3net3nqe8internal20CachedNetworkQualityC1ERKS2_(%"class.net::nqe::internal::CachedNetworkQuality"* %49, %"class.net::nqe::internal::CachedNetworkQuality"* dereferenceable(40) %50) #9, !noalias !20
  %51 = bitcast i8* %44 to %"class.std::__1::__tree_node"*
  %52 = bitcast i8* %44 to %"class.std::__1::__tree_node_base"*
  %53 = getelementptr inbounds i8, i8* %44, i64 16
  %54 = bitcast i8* %53 to %"class.std::__1::__tree_end_node"**
  tail call void @llvm.memset.p0i8.i64(i8* nonnull align 8 %44, i8 0, i64 16, i1 false) #9
  store %"class.std::__1::__tree_end_node"* %38, %"class.std::__1::__tree_end_node"** %54, align 8
  %55 = bitcast %"class.std::__1::__tree_node_base"** %39 to i8**
  store i8* %44, i8** %55, align 8
  %56 = getelementptr inbounds %"class.std::__1::__tree", %"class.std::__1::__tree"* %0, i64 0, i32 0
  %57 = load %"class.std::__1::__tree_end_node"*, %"class.std::__1::__tree_end_node"** %56, align 8
  %58 = getelementptr inbounds %"class.std::__1::__tree_end_node", %"class.std::__1::__tree_end_node"* %57, i64 0, i32 0
  %59 = load %"class.std::__1::__tree_node_base"*, %"class.std::__1::__tree_node_base"** %58, align 8
  %60 = icmp eq %"class.std::__1::__tree_node_base"* %59, null
  br i1 %60, label %65, label %61

61:                                               ; preds = %43
  %62 = ptrtoint %"class.std::__1::__tree_node_base"* %59 to i64
  %63 = bitcast %"class.std::__1::__tree"* %0 to i64*
  store i64 %62, i64* %63, align 8
  %64 = load %"class.std::__1::__tree_node_base"*, %"class.std::__1::__tree_node_base"** %39, align 8
  br label %65

65:                                               ; preds = %61, %43
  %66 = phi %"class.std::__1::__tree_node_base"* [ %52, %43 ], [ %64, %61 ]
  %67 = getelementptr inbounds %"class.std::__1::__tree", %"class.std::__1::__tree"* %0, i64 0, i32 1, i32 0, i32 0, i32 0
  %68 = load %"class.std::__1::__tree_node_base"*, %"class.std::__1::__tree_node_base"** %67, align 8
  tail call void @_ZNSt3__127__tree_balance_after_insertIPNS_16__tree_node_baseIPvEEEEvT_S5_(%"class.std::__1::__tree_node_base"* %68, %"class.std::__1::__tree_node_base"* %66) #9
  %69 = getelementptr inbounds %"class.std::__1::__tree", %"class.std::__1::__tree"* %0, i64 0, i32 2, i32 0, i32 0
  %70 = load i64, i64* %69, align 8
  %71 = add i64 %70, 1
  store i64 %71, i64* %69, align 8
  br label %72

72:                                               ; preds = %65, %37
  %73 = phi i8 [ 1, %65 ], [ 0, %37 ]
  %74 = phi %"class.std::__1::__tree_node"* [ %51, %65 ], [ %41, %37 ]
  %75 = getelementptr inbounds %"class.std::__1::__tree_node", %"class.std::__1::__tree_node"* %74, i64 0, i32 0, i32 0
  %76 = insertvalue { %"class.std::__1::__tree_end_node"*, i8 } undef, %"class.std::__1::__tree_end_node"* %75, 0
  %77 = insertvalue { %"class.std::__1::__tree_end_node"*, i8 } %76, i8 %73, 1
  ret { %"class.std::__1::__tree_end_node"*, i8 } %77
}

; Function Attrs: noreturn nounwind
declare void @abort() local_unnamed_addr #5

; Function Attrs: nobuiltin nofree
declare noalias nonnull i8* @_Znwm(i64) local_unnamed_addr #6

; Function Attrs: nounwind ssp uwtable
define linkonce_odr hidden void @_ZNSt3__127__tree_balance_after_insertIPNS_16__tree_node_baseIPvEEEEvT_S5_(%"class.std::__1::__tree_node_base"*, %"class.std::__1::__tree_node_base"*) local_unnamed_addr #0 comdat {
  %3 = icmp eq %"class.std::__1::__tree_node_base"* %1, %0
  %4 = getelementptr inbounds %"class.std::__1::__tree_node_base", %"class.std::__1::__tree_node_base"* %1, i64 0, i32 3
  %5 = zext i1 %3 to i8
  store i8 %5, i8* %4, align 8
  br i1 %3, label %156, label %6

6:                                                ; preds = %2, %149
  %7 = phi %"class.std::__1::__tree_node_base"* [ %20, %149 ], [ %1, %2 ]
  %8 = getelementptr inbounds %"class.std::__1::__tree_node_base", %"class.std::__1::__tree_node_base"* %7, i64 0, i32 2
  %9 = bitcast %"class.std::__1::__tree_end_node"** %8 to %"class.std::__1::__tree_node_base"**
  %10 = load %"class.std::__1::__tree_node_base"*, %"class.std::__1::__tree_node_base"** %9, align 8
  %11 = getelementptr inbounds %"class.std::__1::__tree_node_base", %"class.std::__1::__tree_node_base"* %10, i64 0, i32 3
  %12 = load i8, i8* %11, align 8, !range !19
  %13 = icmp eq i8 %12, 0
  br i1 %13, label %14, label %156

14:                                               ; preds = %6
  %15 = getelementptr inbounds %"class.std::__1::__tree_node_base", %"class.std::__1::__tree_node_base"* %10, i64 0, i32 2
  %16 = load %"class.std::__1::__tree_end_node"*, %"class.std::__1::__tree_end_node"** %15, align 8
  %17 = getelementptr inbounds %"class.std::__1::__tree_end_node", %"class.std::__1::__tree_end_node"* %16, i64 0, i32 0
  %18 = load %"class.std::__1::__tree_node_base"*, %"class.std::__1::__tree_node_base"** %17, align 8
  %19 = icmp eq %"class.std::__1::__tree_node_base"* %18, %10
  %20 = bitcast %"class.std::__1::__tree_end_node"* %16 to %"class.std::__1::__tree_node_base"*
  br i1 %19, label %21, label %87

21:                                               ; preds = %14
  %22 = getelementptr inbounds %"class.std::__1::__tree_end_node", %"class.std::__1::__tree_end_node"* %16, i64 1, i32 0
  %23 = load %"class.std::__1::__tree_node_base"*, %"class.std::__1::__tree_node_base"** %22, align 8
  %24 = icmp eq %"class.std::__1::__tree_node_base"* %23, null
  br i1 %24, label %29, label %25

25:                                               ; preds = %21
  %26 = getelementptr inbounds %"class.std::__1::__tree_node_base", %"class.std::__1::__tree_node_base"* %23, i64 0, i32 3
  %27 = load i8, i8* %26, align 8, !range !19
  %28 = icmp eq i8 %27, 0
  br i1 %28, label %149, label %29

29:                                               ; preds = %25, %21
  %30 = getelementptr inbounds %"class.std::__1::__tree_node_base", %"class.std::__1::__tree_node_base"* %10, i64 0, i32 2
  %31 = bitcast %"class.std::__1::__tree_end_node"* %16 to %"class.std::__1::__tree_node_base"*
  %32 = getelementptr inbounds %"class.std::__1::__tree_node_base", %"class.std::__1::__tree_node_base"* %10, i64 0, i32 0, i32 0
  %33 = load %"class.std::__1::__tree_node_base"*, %"class.std::__1::__tree_node_base"** %32, align 8
  %34 = icmp eq %"class.std::__1::__tree_node_base"* %33, %7
  br i1 %34, label %61, label %35

35:                                               ; preds = %29
  %36 = ptrtoint %"class.std::__1::__tree_end_node"* %16 to i64
  %37 = getelementptr inbounds %"class.std::__1::__tree_node_base", %"class.std::__1::__tree_node_base"* %10, i64 0, i32 1
  %38 = load %"class.std::__1::__tree_node_base"*, %"class.std::__1::__tree_node_base"** %37, align 8
  %39 = getelementptr inbounds %"class.std::__1::__tree_node_base", %"class.std::__1::__tree_node_base"* %38, i64 0, i32 0, i32 0
  %40 = load %"class.std::__1::__tree_node_base"*, %"class.std::__1::__tree_node_base"** %39, align 8
  store %"class.std::__1::__tree_node_base"* %40, %"class.std::__1::__tree_node_base"** %37, align 8
  %41 = icmp eq %"class.std::__1::__tree_node_base"* %40, null
  br i1 %41, label %47, label %42

42:                                               ; preds = %35
  %43 = getelementptr inbounds %"class.std::__1::__tree_node_base", %"class.std::__1::__tree_node_base"* %10, i64 0, i32 0
  %44 = getelementptr inbounds %"class.std::__1::__tree_node_base", %"class.std::__1::__tree_node_base"* %40, i64 0, i32 2
  store %"class.std::__1::__tree_end_node"* %43, %"class.std::__1::__tree_end_node"** %44, align 8
  %45 = bitcast %"class.std::__1::__tree_end_node"** %30 to i64*
  %46 = load i64, i64* %45, align 8
  br label %47

47:                                               ; preds = %35, %42
  %48 = phi i64 [ %46, %42 ], [ %36, %35 ]
  %49 = getelementptr inbounds %"class.std::__1::__tree_node_base", %"class.std::__1::__tree_node_base"* %38, i64 0, i32 2
  %50 = bitcast %"class.std::__1::__tree_end_node"** %49 to i64*
  store i64 %48, i64* %50, align 8
  %51 = load %"class.std::__1::__tree_end_node"*, %"class.std::__1::__tree_end_node"** %30, align 8
  %52 = getelementptr inbounds %"class.std::__1::__tree_end_node", %"class.std::__1::__tree_end_node"* %51, i64 0, i32 0
  %53 = load %"class.std::__1::__tree_node_base"*, %"class.std::__1::__tree_node_base"** %52, align 8
  %54 = icmp eq %"class.std::__1::__tree_node_base"* %53, %10
  %55 = getelementptr inbounds %"class.std::__1::__tree_end_node", %"class.std::__1::__tree_end_node"* %51, i64 1, i32 0
  %56 = select i1 %54, %"class.std::__1::__tree_node_base"** %52, %"class.std::__1::__tree_node_base"** %55
  store %"class.std::__1::__tree_node_base"* %38, %"class.std::__1::__tree_node_base"** %56, align 8
  store %"class.std::__1::__tree_node_base"* %10, %"class.std::__1::__tree_node_base"** %39, align 8
  %57 = getelementptr inbounds %"class.std::__1::__tree_node_base", %"class.std::__1::__tree_node_base"* %38, i64 0, i32 0
  store %"class.std::__1::__tree_end_node"* %57, %"class.std::__1::__tree_end_node"** %30, align 8
  %58 = getelementptr inbounds %"class.std::__1::__tree_node_base", %"class.std::__1::__tree_node_base"* %38, i64 0, i32 2
  %59 = bitcast %"class.std::__1::__tree_end_node"** %58 to %"class.std::__1::__tree_node_base"**
  %60 = load %"class.std::__1::__tree_node_base"*, %"class.std::__1::__tree_node_base"** %59, align 8
  br label %61

61:                                               ; preds = %47, %29
  %62 = phi %"class.std::__1::__tree_node_base"* [ %31, %29 ], [ %60, %47 ]
  %63 = phi %"class.std::__1::__tree_node_base"* [ %10, %29 ], [ %38, %47 ]
  %64 = getelementptr inbounds %"class.std::__1::__tree_node_base", %"class.std::__1::__tree_node_base"* %63, i64 0, i32 3
  store i8 1, i8* %64, align 8
  %65 = getelementptr inbounds %"class.std::__1::__tree_node_base", %"class.std::__1::__tree_node_base"* %62, i64 0, i32 3
  store i8 0, i8* %65, align 8
  %66 = getelementptr inbounds %"class.std::__1::__tree_node_base", %"class.std::__1::__tree_node_base"* %62, i64 0, i32 0, i32 0
  %67 = load %"class.std::__1::__tree_node_base"*, %"class.std::__1::__tree_node_base"** %66, align 8
  %68 = getelementptr inbounds %"class.std::__1::__tree_node_base", %"class.std::__1::__tree_node_base"* %67, i64 0, i32 1
  %69 = load %"class.std::__1::__tree_node_base"*, %"class.std::__1::__tree_node_base"** %68, align 8
  store %"class.std::__1::__tree_node_base"* %69, %"class.std::__1::__tree_node_base"** %66, align 8
  %70 = icmp eq %"class.std::__1::__tree_node_base"* %69, null
  br i1 %70, label %74, label %71

71:                                               ; preds = %61
  %72 = getelementptr inbounds %"class.std::__1::__tree_node_base", %"class.std::__1::__tree_node_base"* %62, i64 0, i32 0
  %73 = getelementptr inbounds %"class.std::__1::__tree_node_base", %"class.std::__1::__tree_node_base"* %69, i64 0, i32 2
  store %"class.std::__1::__tree_end_node"* %72, %"class.std::__1::__tree_end_node"** %73, align 8
  br label %74

74:                                               ; preds = %71, %61
  %75 = getelementptr inbounds %"class.std::__1::__tree_node_base", %"class.std::__1::__tree_node_base"* %62, i64 0, i32 2
  %76 = bitcast %"class.std::__1::__tree_end_node"** %75 to i64*
  %77 = load i64, i64* %76, align 8
  %78 = getelementptr inbounds %"class.std::__1::__tree_node_base", %"class.std::__1::__tree_node_base"* %67, i64 0, i32 2
  %79 = bitcast %"class.std::__1::__tree_end_node"** %78 to i64*
  store i64 %77, i64* %79, align 8
  %80 = load %"class.std::__1::__tree_end_node"*, %"class.std::__1::__tree_end_node"** %75, align 8
  %81 = getelementptr inbounds %"class.std::__1::__tree_end_node", %"class.std::__1::__tree_end_node"* %80, i64 0, i32 0
  %82 = load %"class.std::__1::__tree_node_base"*, %"class.std::__1::__tree_node_base"** %81, align 8
  %83 = icmp eq %"class.std::__1::__tree_node_base"* %82, %62
  %84 = getelementptr inbounds %"class.std::__1::__tree_end_node", %"class.std::__1::__tree_end_node"* %80, i64 1, i32 0
  %85 = select i1 %83, %"class.std::__1::__tree_node_base"** %81, %"class.std::__1::__tree_node_base"** %84
  store %"class.std::__1::__tree_node_base"* %67, %"class.std::__1::__tree_node_base"** %85, align 8
  store %"class.std::__1::__tree_node_base"* %62, %"class.std::__1::__tree_node_base"** %68, align 8
  %86 = getelementptr inbounds %"class.std::__1::__tree_node_base", %"class.std::__1::__tree_node_base"* %67, i64 0, i32 0
  store %"class.std::__1::__tree_end_node"* %86, %"class.std::__1::__tree_end_node"** %75, align 8
  br label %156

87:                                               ; preds = %14
  %88 = icmp eq %"class.std::__1::__tree_node_base"* %18, null
  br i1 %88, label %93, label %89

89:                                               ; preds = %87
  %90 = getelementptr inbounds %"class.std::__1::__tree_node_base", %"class.std::__1::__tree_node_base"* %18, i64 0, i32 3
  %91 = load i8, i8* %90, align 8, !range !19
  %92 = icmp eq i8 %91, 0
  br i1 %92, label %149, label %93

93:                                               ; preds = %89, %87
  %94 = getelementptr inbounds %"class.std::__1::__tree_node_base", %"class.std::__1::__tree_node_base"* %10, i64 0, i32 2
  %95 = bitcast %"class.std::__1::__tree_end_node"* %16 to %"class.std::__1::__tree_node_base"*
  %96 = getelementptr inbounds %"class.std::__1::__tree_node_base", %"class.std::__1::__tree_node_base"* %10, i64 0, i32 0, i32 0
  %97 = load %"class.std::__1::__tree_node_base"*, %"class.std::__1::__tree_node_base"** %96, align 8
  %98 = icmp eq %"class.std::__1::__tree_node_base"* %97, %7
  br i1 %98, label %99, label %123

99:                                               ; preds = %93
  %100 = ptrtoint %"class.std::__1::__tree_end_node"* %16 to i64
  %101 = getelementptr inbounds %"class.std::__1::__tree_node_base", %"class.std::__1::__tree_node_base"* %10, i64 0, i32 0, i32 0
  %102 = getelementptr inbounds %"class.std::__1::__tree_node_base", %"class.std::__1::__tree_node_base"* %7, i64 0, i32 1
  %103 = load %"class.std::__1::__tree_node_base"*, %"class.std::__1::__tree_node_base"** %102, align 8
  store %"class.std::__1::__tree_node_base"* %103, %"class.std::__1::__tree_node_base"** %101, align 8
  %104 = icmp eq %"class.std::__1::__tree_node_base"* %103, null
  br i1 %104, label %110, label %105

105:                                              ; preds = %99
  %106 = getelementptr inbounds %"class.std::__1::__tree_node_base", %"class.std::__1::__tree_node_base"* %10, i64 0, i32 0
  %107 = getelementptr inbounds %"class.std::__1::__tree_node_base", %"class.std::__1::__tree_node_base"* %103, i64 0, i32 2
  store %"class.std::__1::__tree_end_node"* %106, %"class.std::__1::__tree_end_node"** %107, align 8
  %108 = bitcast %"class.std::__1::__tree_end_node"** %94 to i64*
  %109 = load i64, i64* %108, align 8
  br label %110

110:                                              ; preds = %99, %105
  %111 = phi i64 [ %109, %105 ], [ %100, %99 ]
  %112 = bitcast %"class.std::__1::__tree_end_node"** %8 to i64*
  store i64 %111, i64* %112, align 8
  %113 = load %"class.std::__1::__tree_end_node"*, %"class.std::__1::__tree_end_node"** %94, align 8
  %114 = getelementptr inbounds %"class.std::__1::__tree_end_node", %"class.std::__1::__tree_end_node"* %113, i64 0, i32 0
  %115 = load %"class.std::__1::__tree_node_base"*, %"class.std::__1::__tree_node_base"** %114, align 8
  %116 = icmp eq %"class.std::__1::__tree_node_base"* %115, %10
  %117 = getelementptr inbounds %"class.std::__1::__tree_end_node", %"class.std::__1::__tree_end_node"* %113, i64 1, i32 0
  %118 = select i1 %116, %"class.std::__1::__tree_node_base"** %114, %"class.std::__1::__tree_node_base"** %117
  store %"class.std::__1::__tree_node_base"* %7, %"class.std::__1::__tree_node_base"** %118, align 8
  store %"class.std::__1::__tree_node_base"* %10, %"class.std::__1::__tree_node_base"** %102, align 8
  %119 = getelementptr inbounds %"class.std::__1::__tree_node_base", %"class.std::__1::__tree_node_base"* %7, i64 0, i32 0
  store %"class.std::__1::__tree_end_node"* %119, %"class.std::__1::__tree_end_node"** %94, align 8
  %120 = getelementptr inbounds %"class.std::__1::__tree_node_base", %"class.std::__1::__tree_node_base"* %7, i64 0, i32 2
  %121 = bitcast %"class.std::__1::__tree_end_node"** %120 to %"class.std::__1::__tree_node_base"**
  %122 = load %"class.std::__1::__tree_node_base"*, %"class.std::__1::__tree_node_base"** %121, align 8
  br label %123

123:                                              ; preds = %93, %110
  %124 = phi %"class.std::__1::__tree_node_base"* [ %122, %110 ], [ %95, %93 ]
  %125 = phi %"class.std::__1::__tree_node_base"* [ %7, %110 ], [ %10, %93 ]
  %126 = getelementptr inbounds %"class.std::__1::__tree_node_base", %"class.std::__1::__tree_node_base"* %125, i64 0, i32 3
  store i8 1, i8* %126, align 8
  %127 = getelementptr inbounds %"class.std::__1::__tree_node_base", %"class.std::__1::__tree_node_base"* %124, i64 0, i32 3
  store i8 0, i8* %127, align 8
  %128 = getelementptr inbounds %"class.std::__1::__tree_node_base", %"class.std::__1::__tree_node_base"* %124, i64 0, i32 1
  %129 = load %"class.std::__1::__tree_node_base"*, %"class.std::__1::__tree_node_base"** %128, align 8
  %130 = getelementptr inbounds %"class.std::__1::__tree_node_base", %"class.std::__1::__tree_node_base"* %129, i64 0, i32 0, i32 0
  %131 = load %"class.std::__1::__tree_node_base"*, %"class.std::__1::__tree_node_base"** %130, align 8
  store %"class.std::__1::__tree_node_base"* %131, %"class.std::__1::__tree_node_base"** %128, align 8
  %132 = icmp eq %"class.std::__1::__tree_node_base"* %131, null
  br i1 %132, label %136, label %133

133:                                              ; preds = %123
  %134 = getelementptr inbounds %"class.std::__1::__tree_node_base", %"class.std::__1::__tree_node_base"* %124, i64 0, i32 0
  %135 = getelementptr inbounds %"class.std::__1::__tree_node_base", %"class.std::__1::__tree_node_base"* %131, i64 0, i32 2
  store %"class.std::__1::__tree_end_node"* %134, %"class.std::__1::__tree_end_node"** %135, align 8
  br label %136

136:                                              ; preds = %133, %123
  %137 = getelementptr inbounds %"class.std::__1::__tree_node_base", %"class.std::__1::__tree_node_base"* %124, i64 0, i32 2
  %138 = bitcast %"class.std::__1::__tree_end_node"** %137 to i64*
  %139 = load i64, i64* %138, align 8
  %140 = getelementptr inbounds %"class.std::__1::__tree_node_base", %"class.std::__1::__tree_node_base"* %129, i64 0, i32 2
  %141 = bitcast %"class.std::__1::__tree_end_node"** %140 to i64*
  store i64 %139, i64* %141, align 8
  %142 = load %"class.std::__1::__tree_end_node"*, %"class.std::__1::__tree_end_node"** %137, align 8
  %143 = getelementptr inbounds %"class.std::__1::__tree_end_node", %"class.std::__1::__tree_end_node"* %142, i64 0, i32 0
  %144 = load %"class.std::__1::__tree_node_base"*, %"class.std::__1::__tree_node_base"** %143, align 8
  %145 = icmp eq %"class.std::__1::__tree_node_base"* %144, %124
  %146 = getelementptr inbounds %"class.std::__1::__tree_end_node", %"class.std::__1::__tree_end_node"* %142, i64 1, i32 0
  %147 = select i1 %145, %"class.std::__1::__tree_node_base"** %143, %"class.std::__1::__tree_node_base"** %146
  store %"class.std::__1::__tree_node_base"* %129, %"class.std::__1::__tree_node_base"** %147, align 8
  store %"class.std::__1::__tree_node_base"* %124, %"class.std::__1::__tree_node_base"** %130, align 8
  %148 = getelementptr inbounds %"class.std::__1::__tree_node_base", %"class.std::__1::__tree_node_base"* %129, i64 0, i32 0
  store %"class.std::__1::__tree_end_node"* %148, %"class.std::__1::__tree_end_node"** %137, align 8
  br label %156

149:                                              ; preds = %89, %25
  %150 = phi i8* [ %26, %25 ], [ %90, %89 ]
  store i8 1, i8* %11, align 8
  %151 = icmp eq %"class.std::__1::__tree_node_base"* %20, %0
  %152 = getelementptr inbounds %"class.std::__1::__tree_end_node", %"class.std::__1::__tree_end_node"* %16, i64 3
  %153 = bitcast %"class.std::__1::__tree_end_node"* %152 to i8*
  %154 = zext i1 %151 to i8
  store i8 %154, i8* %153, align 8
  store i8 1, i8* %150, align 8
  %155 = icmp eq %"class.std::__1::__tree_node_base"* %20, %0
  br i1 %155, label %156, label %6

156:                                              ; preds = %6, %149, %2, %136, %74
  ret void
}

declare void @_ZN4base8internal12LinkNodeBaseC2Ev(%"class.base::internal::LinkNodeBase"*) unnamed_addr #3

declare void @_ZN4base8internal12LinkNodeBase16InsertBeforeBaseEPS1_(%"class.base::internal::LinkNodeBase"*, %"class.base::internal::LinkNodeBase"*) local_unnamed_addr #3

; Function Attrs: argmemonly nounwind
declare void @llvm.memmove.p0i8.p0i8.i64(i8* nocapture, i8* nocapture readonly, i64, i1 immarg) #2

; Function Attrs: noreturn
declare void @_ZNKSt3__120__vector_base_commonILb1EE20__throw_length_errorEv(%"class.std::__1::__vector_base_common"*) local_unnamed_addr #7

declare void @_ZNK4base8internal18WeakReferenceOwner6GetRefEv(%"class.base::internal::WeakReference"* sret, %"class.base::internal::WeakReferenceOwner"*) local_unnamed_addr #3

; Function Attrs: nounwind
declare void @_ZN4base8internal13WeakReferenceD1Ev(%"class.base::internal::WeakReference"*) unnamed_addr #1

declare void @_ZN4base8internal11WeakPtrBaseC2ERKNS0_13WeakReferenceEm(%"class.base::internal::WeakPtrBase"*, %"class.base::internal::WeakReference"* dereferenceable(8), i64) unnamed_addr #3

; Function Attrs: nounwind ssp uwtable
define linkonce_odr hidden void @_ZN4base8internal7InvokerINS0_9BindStateIMN3net3nqe8internal19NetworkQualityStoreEKFvPNS6_29NetworkQualitiesCacheObserverEEJNS_7WeakPtrIS6_EES8_EEEFvvEE7RunOnceEPNS0_13BindStateBaseE(%"class.base::internal::BindStateBase"*) #0 comdat align 2 {
  %2 = alloca %"class.logging::CheckError", align 8
  %3 = getelementptr inbounds %"class.base::internal::BindStateBase", %"class.base::internal::BindStateBase"* %0, i64 1
  %4 = getelementptr inbounds %"class.base::internal::BindStateBase", %"class.base::internal::BindStateBase"* %0, i64 1, i32 2
  %5 = getelementptr inbounds void (%"class.base::internal::BindStateBase"*)*, void (%"class.base::internal::BindStateBase"*)** %4, i64 2
  %6 = bitcast void (%"class.base::internal::BindStateBase"*)** %5 to %"class.net::nqe::internal::NetworkQualityStore::NetworkQualitiesCacheObserver"**
  %7 = bitcast void (%"class.base::internal::BindStateBase"*)** %4 to %"class.base::internal::WeakReference"*
  %8 = tail call zeroext i1 @_ZNK4base8internal13WeakReference7IsValidEv(%"class.base::internal::WeakReference"* %7) #9
  br i1 %8, label %9, label %45

9:                                                ; preds = %1
  %10 = getelementptr inbounds void (%"class.base::internal::BindStateBase"*)*, void (%"class.base::internal::BindStateBase"*)** %4, i64 1
  %11 = bitcast void (%"class.base::internal::BindStateBase"*)** %10 to %"class.net::nqe::internal::NetworkQualityStore"**
  %12 = load %"class.net::nqe::internal::NetworkQualityStore"*, %"class.net::nqe::internal::NetworkQualityStore"** %11, align 8
  %13 = icmp eq %"class.net::nqe::internal::NetworkQualityStore"* %12, null
  br i1 %13, label %45, label %14

14:                                               ; preds = %9
  %15 = bitcast %"class.base::internal::BindStateBase"* %3 to i64*
  %16 = load i64, i64* %15, align 8
  %17 = getelementptr inbounds %"class.base::internal::BindStateBase", %"class.base::internal::BindStateBase"* %0, i64 1, i32 1
  %18 = bitcast void ()** %17 to i64*
  %19 = load i64, i64* %18, align 8
  %20 = tail call zeroext i1 @_ZNK4base8internal13WeakReference7IsValidEv(%"class.base::internal::WeakReference"* %7) #9
  br i1 %20, label %24, label %21

21:                                               ; preds = %14
  %22 = bitcast %"class.logging::CheckError"* %2 to i8*
  call void @llvm.lifetime.start.p0i8(i64 8, i8* nonnull %22) #9
  call void @_ZN7logging10CheckError5CheckEPKciS2_(%"class.logging::CheckError"* nonnull sret %2, i8* getelementptr inbounds ([29 x i8], [29 x i8]* @.str.3, i64 0, i64 0), i32 251, i8* getelementptr inbounds ([15 x i8], [15 x i8]* @.str.4, i64 0, i64 0)) #9
  %23 = call dereferenceable(160) %"class.std::__1::basic_ostream"* @_ZN7logging10CheckError6streamEv(%"class.logging::CheckError"* nonnull %2) #9
  call void @_ZN7logging10CheckErrorD1Ev(%"class.logging::CheckError"* nonnull %2) #9
  call void @llvm.lifetime.end.p0i8(i64 8, i8* nonnull %22) #9
  br label %24

24:                                               ; preds = %21, %14
  %25 = call zeroext i1 @_ZNK4base8internal13WeakReference7IsValidEv(%"class.base::internal::WeakReference"* %7) #9
  %26 = bitcast void (%"class.base::internal::BindStateBase"*)** %10 to i8**
  %27 = load i8*, i8** %26, align 8
  %28 = select i1 %25, i8* %27, i8* null
  %29 = getelementptr inbounds i8, i8* %28, i64 %19
  %30 = bitcast i8* %29 to %"class.net::nqe::internal::NetworkQualityStore"*
  %31 = and i64 %16, 1
  %32 = icmp eq i64 %31, 0
  br i1 %32, label %40, label %33

33:                                               ; preds = %24
  %34 = bitcast i8* %29 to i8**
  %35 = load i8*, i8** %34, align 8
  %36 = add i64 %16, -1
  %37 = getelementptr i8, i8* %35, i64 %36
  %38 = bitcast i8* %37 to void (%"class.net::nqe::internal::NetworkQualityStore"*, %"class.net::nqe::internal::NetworkQualityStore::NetworkQualitiesCacheObserver"*)**
  %39 = load void (%"class.net::nqe::internal::NetworkQualityStore"*, %"class.net::nqe::internal::NetworkQualityStore::NetworkQualitiesCacheObserver"*)*, void (%"class.net::nqe::internal::NetworkQualityStore"*, %"class.net::nqe::internal::NetworkQualityStore::NetworkQualitiesCacheObserver"*)** %38, align 8
  br label %42

40:                                               ; preds = %24
  %41 = inttoptr i64 %16 to void (%"class.net::nqe::internal::NetworkQualityStore"*, %"class.net::nqe::internal::NetworkQualityStore::NetworkQualitiesCacheObserver"*)*
  br label %42

42:                                               ; preds = %40, %33
  %43 = phi void (%"class.net::nqe::internal::NetworkQualityStore"*, %"class.net::nqe::internal::NetworkQualityStore::NetworkQualitiesCacheObserver"*)* [ %39, %33 ], [ %41, %40 ]
  %44 = load %"class.net::nqe::internal::NetworkQualityStore::NetworkQualitiesCacheObserver"*, %"class.net::nqe::internal::NetworkQualityStore::NetworkQualitiesCacheObserver"** %6, align 8
  call void %43(%"class.net::nqe::internal::NetworkQualityStore"* %30, %"class.net::nqe::internal::NetworkQualityStore::NetworkQualitiesCacheObserver"* %44) #9
  br label %45

45:                                               ; preds = %1, %9, %42
  ret void
}

declare zeroext i1 @_ZNK4base8internal13WeakReference7IsValidEv(%"class.base::internal::WeakReference"*) local_unnamed_addr #3

declare void @_ZN7logging10CheckError5CheckEPKciS2_(%"class.logging::CheckError"* sret, i8*, i32, i8*) local_unnamed_addr #3

declare dereferenceable(160) %"class.std::__1::basic_ostream"* @_ZN7logging10CheckError6streamEv(%"class.logging::CheckError"*) local_unnamed_addr #3

; Function Attrs: nounwind
declare void @_ZN7logging10CheckErrorD1Ev(%"class.logging::CheckError"*) unnamed_addr #1

; Function Attrs: nounwind ssp uwtable
define linkonce_odr hidden void @_ZN4base8internal9BindStateIMN3net3nqe8internal19NetworkQualityStoreEKFvPNS5_29NetworkQualitiesCacheObserverEEJNS_7WeakPtrIS5_EES7_EE7DestroyEPKNS0_13BindStateBaseE(%"class.base::internal::BindStateBase"*) #0 comdat align 2 {
  %2 = icmp eq %"class.base::internal::BindStateBase"* %0, null
  br i1 %2, label %7, label %3

3:                                                ; preds = %1
  %4 = getelementptr inbounds %"class.base::internal::BindStateBase", %"class.base::internal::BindStateBase"* %0, i64 1, i32 2
  %5 = bitcast void (%"class.base::internal::BindStateBase"*)** %4 to %"class.base::internal::WeakPtrBase"*
  tail call void @_ZN4base8internal11WeakPtrBaseD2Ev(%"class.base::internal::WeakPtrBase"* %5) #9
  %6 = bitcast %"class.base::internal::BindStateBase"* %0 to i8*
  tail call void @_ZdlPv(i8* %6) #10
  br label %7

7:                                                ; preds = %3, %1
  ret void
}

; Function Attrs: nounwind ssp uwtable
define linkonce_odr hidden zeroext i1 @_ZN4base8internal23QueryCancellationTraitsINS0_9BindStateIMN3net3nqe8internal19NetworkQualityStoreEKFvPNS6_29NetworkQualitiesCacheObserverEEJNS_7WeakPtrIS6_EES8_EEEEEbPKNS0_13BindStateBaseENSE_21CancellationQueryModeE(%"class.base::internal::BindStateBase"*, i32) #0 comdat {
  %3 = getelementptr inbounds %"class.base::internal::BindStateBase", %"class.base::internal::BindStateBase"* %0, i64 1, i32 2
  switch i32 %1, label %16 [
    i32 0, label %4
    i32 1, label %13
  ]

4:                                                ; preds = %2
  %5 = bitcast void (%"class.base::internal::BindStateBase"*)** %3 to %"class.base::internal::WeakReference"*
  %6 = tail call zeroext i1 @_ZNK4base8internal13WeakReference7IsValidEv(%"class.base::internal::WeakReference"* %5) #9
  %7 = getelementptr inbounds void (%"class.base::internal::BindStateBase"*)*, void (%"class.base::internal::BindStateBase"*)** %3, i64 1
  %8 = bitcast void (%"class.base::internal::BindStateBase"*)** %7 to %"class.net::nqe::internal::NetworkQualityStore"**
  %9 = load %"class.net::nqe::internal::NetworkQualityStore"*, %"class.net::nqe::internal::NetworkQualityStore"** %8, align 8
  %10 = icmp ne %"class.net::nqe::internal::NetworkQualityStore"* %9, null
  %11 = and i1 %6, %10
  %12 = xor i1 %11, true
  br label %16

13:                                               ; preds = %2
  %14 = bitcast void (%"class.base::internal::BindStateBase"*)** %3 to %"class.base::internal::WeakReference"*
  %15 = tail call zeroext i1 @_ZNK4base8internal13WeakReference10MaybeValidEv(%"class.base::internal::WeakReference"* %14) #9
  br label %16

16:                                               ; preds = %2, %4, %13
  %17 = phi i1 [ %15, %13 ], [ %12, %4 ], [ false, %2 ]
  ret i1 %17
}

declare void @_ZN4base8internal13BindStateBaseC2EPFvvEPFvPKS1_EPFbS5_NS1_21CancellationQueryModeEE(%"class.base::internal::BindStateBase"*, void ()*, void (%"class.base::internal::BindStateBase"*)*, i1 (%"class.base::internal::BindStateBase"*, i32)*) unnamed_addr #3

declare zeroext i1 @_ZNK4base8internal13WeakReference10MaybeValidEv(%"class.base::internal::WeakReference"*) local_unnamed_addr #3

; Function Attrs: nounwind
declare void @_ZN4base8internal13WeakReferenceC1EOS1_(%"class.base::internal::WeakReference"*, %"class.base::internal::WeakReference"* dereferenceable(8)) unnamed_addr #1

; Function Attrs: nofree nounwind readonly
declare i32 @bcmp(i8* nocapture, i8* nocapture, i64) local_unnamed_addr #8

attributes #0 = { nounwind ssp uwtable "correctly-rounded-divide-sqrt-fp-math"="false" "disable-tail-calls"="false" "less-precise-fpmad"="false" "min-legal-vector-width"="0" "no-frame-pointer-elim"="false" "no-frame-pointer-elim-non-leaf" "no-infs-fp-math"="false" "no-jump-tables"="false" "no-nans-fp-math"="false" "no-signed-zeros-fp-math"="false" "no-trapping-math"="false" "null-pointer-is-valid"="true" "stack-protector-buffer-size"="4" "target-cpu"="x86-64" "target-features"="+cx8,+fxsr,+mmx,+sse,+sse2,+sse3,+x87" "unsafe-fp-math"="false" "use-soft-float"="false" }
attributes #1 = { nounwind "correctly-rounded-divide-sqrt-fp-math"="false" "disable-tail-calls"="false" "less-precise-fpmad"="false" "no-frame-pointer-elim"="false" "no-frame-pointer-elim-non-leaf" "no-infs-fp-math"="false" "no-nans-fp-math"="false" "no-signed-zeros-fp-math"="false" "no-trapping-math"="false" "null-pointer-is-valid"="true" "stack-protector-buffer-size"="4" "target-cpu"="x86-64" "target-features"="+cx8,+fxsr,+mmx,+sse,+sse2,+sse3,+x87" "unsafe-fp-math"="false" "use-soft-float"="false" }
attributes #2 = { argmemonly nounwind }
attributes #3 = { "correctly-rounded-divide-sqrt-fp-math"="false" "disable-tail-calls"="false" "less-precise-fpmad"="false" "no-frame-pointer-elim"="false" "no-frame-pointer-elim-non-leaf" "no-infs-fp-math"="false" "no-nans-fp-math"="false" "no-signed-zeros-fp-math"="false" "no-trapping-math"="false" "null-pointer-is-valid"="true" "stack-protector-buffer-size"="4" "target-cpu"="x86-64" "target-features"="+cx8,+fxsr,+mmx,+sse,+sse2,+sse3,+x87" "unsafe-fp-math"="false" "use-soft-float"="false" }
attributes #4 = { nobuiltin nounwind "correctly-rounded-divide-sqrt-fp-math"="false" "disable-tail-calls"="false" "less-precise-fpmad"="false" "no-frame-pointer-elim"="false" "no-frame-pointer-elim-non-leaf" "no-infs-fp-math"="false" "no-nans-fp-math"="false" "no-signed-zeros-fp-math"="false" "no-trapping-math"="false" "null-pointer-is-valid"="true" "stack-protector-buffer-size"="4" "target-cpu"="x86-64" "target-features"="+cx8,+fxsr,+mmx,+sse,+sse2,+sse3,+x87" "unsafe-fp-math"="false" "use-soft-float"="false" }
attributes #5 = { noreturn nounwind "correctly-rounded-divide-sqrt-fp-math"="false" "disable-tail-calls"="false" "less-precise-fpmad"="false" "no-frame-pointer-elim"="false" "no-frame-pointer-elim-non-leaf" "no-infs-fp-math"="false" "no-nans-fp-math"="false" "no-signed-zeros-fp-math"="false" "no-trapping-math"="false" "null-pointer-is-valid"="true" "stack-protector-buffer-size"="4" "target-cpu"="x86-64" "target-features"="+cx8,+fxsr,+mmx,+sse,+sse2,+sse3,+x87" "unsafe-fp-math"="false" "use-soft-float"="false" }
attributes #6 = { nobuiltin nofree "correctly-rounded-divide-sqrt-fp-math"="false" "disable-tail-calls"="false" "less-precise-fpmad"="false" "no-frame-pointer-elim"="false" "no-frame-pointer-elim-non-leaf" "no-infs-fp-math"="false" "no-nans-fp-math"="false" "no-signed-zeros-fp-math"="false" "no-trapping-math"="false" "null-pointer-is-valid"="true" "stack-protector-buffer-size"="4" "target-cpu"="x86-64" "target-features"="+cx8,+fxsr,+mmx,+sse,+sse2,+sse3,+x87" "unsafe-fp-math"="false" "use-soft-float"="false" }
attributes #7 = { noreturn "correctly-rounded-divide-sqrt-fp-math"="false" "disable-tail-calls"="false" "less-precise-fpmad"="false" "no-frame-pointer-elim"="false" "no-frame-pointer-elim-non-leaf" "no-infs-fp-math"="false" "no-nans-fp-math"="false" "no-signed-zeros-fp-math"="false" "no-trapping-math"="false" "null-pointer-is-valid"="true" "stack-protector-buffer-size"="4" "target-cpu"="x86-64" "target-features"="+cx8,+fxsr,+mmx,+sse,+sse2,+sse3,+x87" "unsafe-fp-math"="false" "use-soft-float"="false" }
attributes #8 = { nofree nounwind readonly }
attributes #9 = { nounwind }
attributes #10 = { builtin nounwind }
attributes #11 = { noreturn nounwind }

!llvm.module.flags = !{!0, !1}

!0 = !{i32 1, !"wchar_size", i32 4}
!1 = !{i32 7, !"PIC Level", i32 2}
!2 = !{!3}
!3 = distinct !{!3, !4, !"_ZNK4base12ObserverListIN3net3nqe8internal19NetworkQualityStore29NetworkQualitiesCacheObserverELb0ELb1ENS_8internal24UncheckedObserverAdapterEE5beginEv: argument 0"}
!4 = distinct !{!4, !"_ZNK4base12ObserverListIN3net3nqe8internal19NetworkQualityStore29NetworkQualitiesCacheObserverELb0ELb1ENS_8internal24UncheckedObserverAdapterEE5beginEv"}
!5 = !{!6}
!6 = distinct !{!6, !7, !"_ZNK4base12ObserverListIN3net3nqe8internal19NetworkQualityStore29NetworkQualitiesCacheObserverELb0ELb1ENS_8internal24UncheckedObserverAdapterEE3endEv: argument 0"}
!7 = distinct !{!7, !"_ZNK4base12ObserverListIN3net3nqe8internal19NetworkQualityStore29NetworkQualitiesCacheObserverELb0ELb1ENS_8internal24UncheckedObserverAdapterEE3endEv"}
!8 = distinct !{!8, !9}
!9 = !{!"llvm.loop.unroll.disable"}
!10 = distinct !{!10, !9}
!11 = !{!12}
!12 = distinct !{!12, !13, !"_ZNK4base14WeakPtrFactoryIN3net3nqe8internal19NetworkQualityStoreEE10GetWeakPtrEv: argument 0"}
!13 = distinct !{!13, !"_ZNK4base14WeakPtrFactoryIN3net3nqe8internal19NetworkQualityStoreEE10GetWeakPtrEv"}
!14 = !{!15, !17}
!15 = distinct !{!15, !16, !"_ZN4base8internal8BindImplINS_12OnceCallbackEMN3net3nqe8internal19NetworkQualityStoreEKFvPNS6_29NetworkQualitiesCacheObserverEEJNS_7WeakPtrIS6_EERS8_EEEDcOT0_DpOT1_: argument 0"}
!16 = distinct !{!16, !"_ZN4base8internal8BindImplINS_12OnceCallbackEMN3net3nqe8internal19NetworkQualityStoreEKFvPNS6_29NetworkQualitiesCacheObserverEEJNS_7WeakPtrIS6_EERS8_EEEDcOT0_DpOT1_"}
!17 = distinct !{!17, !18, !"_ZN4base8BindOnceIMN3net3nqe8internal19NetworkQualityStoreEKFvPNS4_29NetworkQualitiesCacheObserverEEJNS_7WeakPtrIS4_EERS6_EEENS_12OnceCallbackINS_8internal14BindTypeHelperIT_JDpT0_EE14UnboundRunTypeEEEOSF_DpOSG_: argument 0"}
!18 = distinct !{!18, !"_ZN4base8BindOnceIMN3net3nqe8internal19NetworkQualityStoreEKFvPNS4_29NetworkQualitiesCacheObserverEEJNS_7WeakPtrIS4_EERS6_EEENS_12OnceCallbackINS_8internal14BindTypeHelperIT_JDpT0_EE14UnboundRunTypeEEEOSF_DpOSG_"}
!19 = !{i8 0, i8 2}
!20 = !{!21}
!21 = distinct !{!21, !22, !"_ZNSt3__16__treeINS_12__value_typeIN3net3nqe8internal9NetworkIDENS4_20CachedNetworkQualityEEENS_19__map_value_compareIS5_S7_NS_4lessIS5_EELb1EEENS_9allocatorIS7_EEE16__construct_nodeIJNS_4pairIS5_S6_EEEEENS_10unique_ptrINS_11__tree_nodeIS7_PvEENS_22__tree_node_destructorINSC_ISL_EEEEEEDpOT_: argument 0"}
!22 = distinct !{!22, !"_ZNSt3__16__treeINS_12__value_typeIN3net3nqe8internal9NetworkIDENS4_20CachedNetworkQualityEEENS_19__map_value_compareIS5_S7_NS_4lessIS5_EELb1EEENS_9allocatorIS7_EEE16__construct_nodeIJNS_4pairIS5_S6_EEEEENS_10unique_ptrINS_11__tree_nodeIS7_PvEENS_22__tree_node_destructorINSC_ISL_EEEEEEDpOT_"}
