; ModuleID = '../../content/browser/network_service_instance_impl.cc'
source_filename = "../../content/browser/network_service_instance_impl.cc"
target datalayout = "e-m:e-i64:64-f80:128-n8:16:32:64-S128"
target triple = "x86_64-unknown-linux-gnu"

module asm ".symver exp, exp@GLIBC_2.2.5"
module asm ".symver exp2, exp2@GLIBC_2.2.5"
module asm ".symver exp2f, exp2f@GLIBC_2.2.5"
module asm ".symver expf, expf@GLIBC_2.2.5"
module asm ".symver lgamma, lgamma@GLIBC_2.2.5"
module asm ".symver lgammaf, lgammaf@GLIBC_2.2.5"
module asm ".symver lgammal, lgammal@GLIBC_2.2.5"
module asm ".symver log, log@GLIBC_2.2.5"
module asm ".symver log2, log2@GLIBC_2.2.5"
module asm ".symver log2f, log2f@GLIBC_2.2.5"
module asm ".symver logf, logf@GLIBC_2.2.5"
module asm ".symver pow, pow@GLIBC_2.2.5"
module asm ".symver powf, powf@GLIBC_2.2.5"

%"class.mojo::Remote" = type { %"class.mojo::internal::InterfacePtrState" }
%"class.mojo::internal::InterfacePtrState" = type { %"class.mojo::internal::InterfacePtrStateBase.base", %"class.std::__1::unique_ptr.162" }
%"class.mojo::internal::InterfacePtrStateBase.base" = type <{ %class.scoped_refptr, %"class.std::__1::unique_ptr.112", %"class.mojo::ScopedHandleBase", [4 x i8], %class.scoped_refptr.1, i32 }>
%class.scoped_refptr = type { %"class.mojo::internal::MultiplexRouter"* }
%"class.mojo::internal::MultiplexRouter" = type <{ %"class.mojo::MessageReceiver", %"class.mojo::AssociatedGroupController.base", [4 x i8], %"class.mojo::PipeControlMessageHandlerDelegate", i32, i8, [3 x i8], %class.scoped_refptr.1, %"class.mojo::MessageHeaderValidator"*, %"class.mojo::MessageDispatcher", %"class.mojo::Connector", %"class.mojo::ScopedHandleBase", [4 x i8], %"class.absl::optional.75", %"class.absl::optional.80", %"class.absl::optional.37", %"class.mojo::PipeControlMessageHandler", %"class.mojo::PipeControlMessageProxy", %"class.base::small_map", i32, [4 x i8], %"class.base::circular_deque", %"class.std::__1::map.103", i8, [7 x i8], %class.scoped_refptr.1, i8, i8, i8, i8, i8, [3 x i8] }>
%"class.mojo::MessageReceiver" = type { i32 (...)** }
%"class.mojo::AssociatedGroupController.base" = type <{ i32 (...)**, %"class.base::RefCountedThreadSafe" }>
%"class.base::RefCountedThreadSafe" = type { %"class.base::subtle::RefCountedThreadSafeBase" }
%"class.base::subtle::RefCountedThreadSafeBase" = type { %"class.base::AtomicRefCount" }
%"class.base::AtomicRefCount" = type { %"struct.std::__1::atomic" }
%"struct.std::__1::atomic" = type { %"struct.std::__1::__atomic_base" }
%"struct.std::__1::__atomic_base" = type { %"struct.std::__1::__atomic_base.0" }
%"struct.std::__1::__atomic_base.0" = type { %"struct.std::__1::__cxx_atomic_impl" }
%"struct.std::__1::__cxx_atomic_impl" = type { %"struct.std::__1::__cxx_atomic_base_impl" }
%"struct.std::__1::__cxx_atomic_base_impl" = type { i32 }
%"class.mojo::PipeControlMessageHandlerDelegate" = type { i32 (...)** }
%"class.mojo::MessageHeaderValidator" = type { %"class.mojo::MessageReceiver", %"class.std::__1::basic_string" }
%"class.std::__1::basic_string" = type { %"class.std::__1::__compressed_pair" }
%"class.std::__1::__compressed_pair" = type { %"struct.std::__1::__compressed_pair_elem" }
%"struct.std::__1::__compressed_pair_elem" = type { %"struct.std::__1::basic_string<char, std::__1::char_traits<char>, std::__1::allocator<char> >::__rep" }
%"struct.std::__1::basic_string<char, std::__1::char_traits<char>, std::__1::allocator<char> >::__rep" = type { %union.anon }
%union.anon = type { %"struct.std::__1::basic_string<char, std::__1::char_traits<char>, std::__1::allocator<char> >::__long" }
%"struct.std::__1::basic_string<char, std::__1::char_traits<char>, std::__1::allocator<char> >::__long" = type { i8*, i64, i64 }
%"class.mojo::MessageDispatcher" = type { %"class.mojo::MessageReceiver", %"class.std::__1::unique_ptr", %"class.std::__1::unique_ptr.7", %"class.mojo::MessageReceiver"*, %"class.base::WeakPtrFactory" }
%"class.std::__1::unique_ptr" = type { %"class.std::__1::__compressed_pair.4" }
%"class.std::__1::__compressed_pair.4" = type { %"struct.std::__1::__compressed_pair_elem.5" }
%"struct.std::__1::__compressed_pair_elem.5" = type { %"class.mojo::MessageReceiver"* }
%"class.std::__1::unique_ptr.7" = type { %"class.std::__1::__compressed_pair.8" }
%"class.std::__1::__compressed_pair.8" = type { %"struct.std::__1::__compressed_pair_elem.9" }
%"struct.std::__1::__compressed_pair_elem.9" = type { %"class.mojo::MessageFilter"* }
%"class.mojo::MessageFilter" = type { i32 (...)** }
%"class.base::WeakPtrFactory" = type { %"class.base::internal::WeakPtrFactoryBase" }
%"class.base::internal::WeakPtrFactoryBase" = type { %"class.base::internal::WeakReferenceOwner", i64 }
%"class.base::internal::WeakReferenceOwner" = type { %class.scoped_refptr.13 }
%class.scoped_refptr.13 = type { %"class.base::internal::WeakReference::Flag"* }
%"class.base::internal::WeakReference::Flag" = type <{ %"class.base::RefCountedThreadSafe.14", %"class.base::AtomicFlag", [3 x i8] }>
%"class.base::RefCountedThreadSafe.14" = type { %"class.base::subtle::RefCountedThreadSafeBase" }
%"class.base::AtomicFlag" = type { %"struct.std::__1::atomic.15" }
%"struct.std::__1::atomic.15" = type { %"struct.std::__1::__atomic_base.16" }
%"struct.std::__1::__atomic_base.16" = type { %"struct.std::__1::__atomic_base.17" }
%"struct.std::__1::__atomic_base.17" = type { %"struct.std::__1::__cxx_atomic_impl.18" }
%"struct.std::__1::__cxx_atomic_impl.18" = type { %"struct.std::__1::__cxx_atomic_base_impl.19" }
%"struct.std::__1::__cxx_atomic_base_impl.19" = type { i8 }
%"class.mojo::Connector" = type { %"class.mojo::MessageReceiver", %"class.base::OnceCallback", %"class.mojo::ScopedHandleBase", %"class.mojo::MessageReceiver"*, %class.scoped_refptr.1, %"class.std::__1::unique_ptr.22", %"class.absl::optional", %"struct.std::__1::atomic.33", i8, i8, i8, i8, i32, i32, %"class.absl::optional.37", %"class.std::__1::unique_ptr.42", i8, i64, %class.scoped_refptr.71, %"class.base::Lock", i8, i8*, %"class.mojo::Connector::RunLoopNestingObserver"*, i8, i64, %"class.mojo::ConnectionGroup::Ref", %"class.base::WeakPtr", %"class.base::WeakPtrFactory.74" }
%"class.base::OnceCallback" = type { %"class.base::internal::CallbackBase" }
%"class.base::internal::CallbackBase" = type { %class.scoped_refptr.20 }
%class.scoped_refptr.20 = type { %"class.base::internal::BindStateBase"* }
%"class.base::internal::BindStateBase" = type { %"class.base::RefCountedThreadSafe.21", void ()*, void (%"class.base::internal::BindStateBase"*)*, i1 (%"class.base::internal::BindStateBase"*, i32)* }
%"class.base::RefCountedThreadSafe.21" = type { %"class.base::subtle::RefCountedThreadSafeBase" }
%"class.std::__1::unique_ptr.22" = type { %"class.std::__1::__compressed_pair.23" }
%"class.std::__1::__compressed_pair.23" = type { %"struct.std::__1::__compressed_pair_elem.24" }
%"struct.std::__1::__compressed_pair_elem.24" = type { %"class.mojo::SimpleWatcher"* }
%"class.mojo::SimpleWatcher" = type { i32, %class.scoped_refptr.1, i8, %"class.mojo::ScopedHandleBase.25", %class.scoped_refptr.26, %"class.mojo::Handle", i32, %"class.base::RepeatingCallback", i8*, %"class.base::WeakPtrFactory.27" }
%"class.mojo::ScopedHandleBase.25" = type { %"class.mojo::TrapHandle" }
%"class.mojo::TrapHandle" = type { %"class.mojo::Handle" }
%class.scoped_refptr.26 = type { %"class.mojo::SimpleWatcher::Context"* }
%"class.mojo::SimpleWatcher::Context" = type opaque
%"class.mojo::Handle" = type { i32 }
%"class.base::RepeatingCallback" = type { %"class.base::internal::CallbackBaseCopyable" }
%"class.base::internal::CallbackBaseCopyable" = type { %"class.base::internal::CallbackBase" }
%"class.base::WeakPtrFactory.27" = type { %"class.base::internal::WeakPtrFactoryBase" }
%"class.absl::optional" = type { %"class.absl::optional_internal::optional_data" }
%"class.absl::optional_internal::optional_data" = type { %"class.absl::optional_internal::optional_data_base" }
%"class.absl::optional_internal::optional_data_base" = type { %"class.absl::optional_internal::optional_data_dtor_base" }
%"class.absl::optional_internal::optional_data_dtor_base" = type { i8, %union.anon.31 }
%union.anon.31 = type { %"class.mojo::HandleSignalTracker" }
%"class.mojo::HandleSignalTracker" = type { %"class.base::RepeatingCallback.32", %"struct.mojo::HandleSignalsState", %"class.mojo::SimpleWatcher", %"class.mojo::SimpleWatcher" }
%"class.base::RepeatingCallback.32" = type { %"class.base::internal::CallbackBaseCopyable" }
%"struct.mojo::HandleSignalsState" = type { %struct.MojoHandleSignalsState }
%struct.MojoHandleSignalsState = type { i32, i32 }
%"struct.std::__1::atomic.33" = type { %"struct.std::__1::__atomic_base.34" }
%"struct.std::__1::__atomic_base.34" = type { %"struct.std::__1::__cxx_atomic_impl.35" }
%"struct.std::__1::__cxx_atomic_impl.35" = type { %"struct.std::__1::__cxx_atomic_base_impl.36" }
%"struct.std::__1::__cxx_atomic_base_impl.36" = type { i8 }
%"class.std::__1::unique_ptr.42" = type { %"class.std::__1::__compressed_pair.43" }
%"class.std::__1::__compressed_pair.43" = type { %"struct.std::__1::__compressed_pair_elem.44" }
%"struct.std::__1::__compressed_pair_elem.44" = type { %"class.mojo::SyncHandleWatcher"* }
%"class.mojo::SyncHandleWatcher" = type { %"class.mojo::Handle", i32, %"class.base::RepeatingCallback.45", i8, i64, %class.scoped_refptr.46, %class.scoped_refptr.67 }
%"class.base::RepeatingCallback.45" = type { %"class.base::internal::CallbackBaseCopyable" }
%class.scoped_refptr.46 = type { %"class.mojo::SyncHandleRegistry"* }
%"class.mojo::SyncHandleRegistry" = type <{ %"class.base::RefCounted", [4 x i8], %"class.mojo::WaitSet", %"class.std::__1::map", %"class.std::__1::map.56", i8, [7 x i8] }>
%"class.base::RefCounted" = type { %"class.base::subtle::RefCountedBase" }
%"class.base::subtle::RefCountedBase" = type { i32 }
%"class.mojo::WaitSet" = type { %class.scoped_refptr.47 }
%class.scoped_refptr.47 = type { %"class.mojo::WaitSet::State"* }
%"class.mojo::WaitSet::State" = type opaque
%"class.std::__1::map" = type { %"class.std::__1::__tree" }
%"class.std::__1::__tree" = type { %"class.std::__1::__tree_end_node"*, %"class.std::__1::__compressed_pair.48", %"class.std::__1::__compressed_pair.53" }
%"class.std::__1::__tree_end_node" = type { %"class.std::__1::__tree_node_base"* }
%"class.std::__1::__tree_node_base" = type <{ %"class.std::__1::__tree_end_node", %"class.std::__1::__tree_node_base"*, %"class.std::__1::__tree_end_node"*, i8, [7 x i8] }>
%"class.std::__1::__compressed_pair.48" = type { %"struct.std::__1::__compressed_pair_elem.49" }
%"struct.std::__1::__compressed_pair_elem.49" = type { %"class.std::__1::__tree_end_node" }
%"class.std::__1::__compressed_pair.53" = type { %"struct.std::__1::__compressed_pair_elem.54" }
%"struct.std::__1::__compressed_pair_elem.54" = type { i64 }
%"class.std::__1::map.56" = type { %"class.std::__1::__tree.57" }
%"class.std::__1::__tree.57" = type { %"class.std::__1::__tree_end_node"*, %"class.std::__1::__compressed_pair.58", %"class.std::__1::__compressed_pair.62" }
%"class.std::__1::__compressed_pair.58" = type { %"struct.std::__1::__compressed_pair_elem.49" }
%"class.std::__1::__compressed_pair.62" = type { %"struct.std::__1::__compressed_pair_elem.54" }
%class.scoped_refptr.67 = type { %"class.base::RefCountedData"* }
%"class.base::RefCountedData" = type opaque
%class.scoped_refptr.71 = type { %"class.mojo::internal::MessageQuotaChecker"* }
%"class.mojo::internal::MessageQuotaChecker" = type opaque
%"class.base::Lock" = type { %"class.base::internal::LockImpl" }
%"class.base::internal::LockImpl" = type { %union.pthread_mutex_t }
%union.pthread_mutex_t = type { %struct.__pthread_mutex_s }
%struct.__pthread_mutex_s = type { i32, i32, i32, i32, i32, i16, i16, %struct.__pthread_internal_list }
%struct.__pthread_internal_list = type { %struct.__pthread_internal_list*, %struct.__pthread_internal_list* }
%"class.mojo::Connector::RunLoopNestingObserver" = type opaque
%"class.mojo::ConnectionGroup::Ref" = type { i32, %class.scoped_refptr.72 }
%class.scoped_refptr.72 = type { %"class.mojo::ConnectionGroup"* }
%"class.mojo::ConnectionGroup" = type <{ i32 (...)**, %"class.base::RefCountedThreadSafe.168", [4 x i8], %"class.base::RepeatingCallback.115", %class.scoped_refptr.1, %"class.mojo::ConnectionGroup::Ref", %"struct.std::__1::atomic.169", [4 x i8] }>
%"class.base::RefCountedThreadSafe.168" = type { %"class.base::subtle::RefCountedThreadSafeBase" }
%"class.base::RepeatingCallback.115" = type { %"class.base::internal::CallbackBaseCopyable" }
%"struct.std::__1::atomic.169" = type { %"struct.std::__1::__atomic_base.170" }
%"struct.std::__1::__atomic_base.170" = type { %"struct.std::__1::__atomic_base.171" }
%"struct.std::__1::__atomic_base.171" = type { %"struct.std::__1::__cxx_atomic_impl.172" }
%"struct.std::__1::__cxx_atomic_impl.172" = type { %"struct.std::__1::__cxx_atomic_base_impl.173" }
%"struct.std::__1::__cxx_atomic_base_impl.173" = type { i32 }
%"class.base::WeakPtr" = type { %"class.base::internal::WeakPtrBase" }
%"class.base::internal::WeakPtrBase" = type { %"class.base::internal::WeakReference", i64 }
%"class.base::internal::WeakReference" = type { %class.scoped_refptr.73 }
%class.scoped_refptr.73 = type { %"class.base::internal::WeakReference::Flag"* }
%"class.base::WeakPtrFactory.74" = type { %"class.base::internal::WeakPtrFactoryBase" }
%"class.absl::optional.75" = type { %"class.absl::optional_internal::optional_data.76" }
%"class.absl::optional_internal::optional_data.76" = type { %"class.absl::optional_internal::optional_data_base.77" }
%"class.absl::optional_internal::optional_data_base.77" = type { %"class.absl::optional_internal::optional_data_dtor_base.78" }
%"class.absl::optional_internal::optional_data_dtor_base.78" = type { i8, %union.anon.79 }
%union.anon.79 = type { %"class.mojo::SimpleWatcher" }
%"class.absl::optional.80" = type { %"class.absl::optional_internal::optional_data.81" }
%"class.absl::optional_internal::optional_data.81" = type { %"class.absl::optional_internal::optional_data_base.82" }
%"class.absl::optional_internal::optional_data_base.82" = type { %"class.absl::optional_internal::optional_data_dtor_base.83" }
%"class.absl::optional_internal::optional_data_dtor_base.83" = type { i8, [7 x i8], %union.anon.84 }
%union.anon.84 = type { %"struct.mojo::internal::MultiplexRouter::ExclusiveSyncWaitInfo" }
%"struct.mojo::internal::MultiplexRouter::ExclusiveSyncWaitInfo" = type <{ i32, [4 x i8], i64, i8, [7 x i8] }>
%"class.absl::optional.37" = type { %"class.absl::optional_internal::optional_data.38" }
%"class.absl::optional_internal::optional_data.38" = type { %"class.absl::optional_internal::optional_data_base.39" }
%"class.absl::optional_internal::optional_data_base.39" = type { %"class.absl::optional_internal::optional_data_dtor_base.40" }
%"class.absl::optional_internal::optional_data_dtor_base.40" = type { i8, %union.anon.41 }
%union.anon.41 = type { %"class.base::Lock" }
%"class.mojo::PipeControlMessageHandler" = type { %"class.mojo::MessageReceiver", %"class.std::__1::basic_string", %"class.mojo::PipeControlMessageHandlerDelegate"* }
%"class.mojo::PipeControlMessageProxy" = type { %"class.mojo::MessageReceiver"* }
%"class.base::small_map" = type { i64, %"class.base::internal::small_map_default_init", %union.anon.89 }
%"class.base::internal::small_map_default_init" = type { i8 }
%union.anon.89 = type { %"class.std::__1::map.91" }
%"class.std::__1::map.91" = type { %"class.std::__1::__tree.92" }
%"class.std::__1::__tree.92" = type { %"class.std::__1::__tree_end_node"*, %"class.std::__1::__compressed_pair.93", %"class.std::__1::__compressed_pair.97" }
%"class.std::__1::__compressed_pair.93" = type { %"struct.std::__1::__compressed_pair_elem.49" }
%"class.std::__1::__compressed_pair.97" = type { %"struct.std::__1::__compressed_pair_elem.54" }
%"class.base::circular_deque" = type { %"class.base::internal::VectorBuffer", i64, i64 }
%"class.base::internal::VectorBuffer" = type { %"class.std::__1::unique_ptr.102"*, i64 }
%"class.std::__1::unique_ptr.102" = type opaque
%"class.std::__1::map.103" = type { %"class.std::__1::__tree.104" }
%"class.std::__1::__tree.104" = type { %"class.std::__1::__tree_end_node"*, %"class.std::__1::__compressed_pair.105", %"class.std::__1::__compressed_pair.109" }
%"class.std::__1::__compressed_pair.105" = type { %"struct.std::__1::__compressed_pair_elem.49" }
%"class.std::__1::__compressed_pair.109" = type { %"struct.std::__1::__compressed_pair_elem.54" }
%"class.std::__1::unique_ptr.112" = type { %"class.std::__1::__compressed_pair.113" }
%"class.std::__1::__compressed_pair.113" = type { %"struct.std::__1::__compressed_pair_elem.114" }
%"struct.std::__1::__compressed_pair_elem.114" = type { %"class.mojo::InterfaceEndpointClient"* }
%"class.mojo::InterfaceEndpointClient" = type { %"class.mojo::MessageReceiverWithResponder", i8, %"class.base::RepeatingCallback.115", %"class.base::OnceCallback.116", %"class.absl::optional.117", %"class.absl::optional.122", %"class.mojo::ConnectionGroup::Ref", i32, %"class.mojo::ScopedInterfaceEndpointHandle", %"class.std::__1::unique_ptr.129", %"class.mojo::InterfaceEndpointController"*, %"class.mojo::MessageReceiverWithResponderStatus"*, %"class.mojo::InterfaceEndpointClient::HandleIncomingMessageThunk", %"class.mojo::MessageDispatcher", %"class.std::__1::map.137", %"class.std::__1::map.148", i64, %"class.base::OnceCallback", %"class.base::OnceCallback.157", i8, %class.scoped_refptr.1, %"class.mojo::internal::ControlMessageProxy", %"class.mojo::internal::ControlMessageHandler", i8*, %"class.base::WeakPtrFactory.158" }
%"class.mojo::MessageReceiverWithResponder" = type { %"class.mojo::MessageReceiver" }
%"class.base::OnceCallback.116" = type { %"class.base::internal::CallbackBase" }
%"class.absl::optional.117" = type { %"class.absl::optional_internal::optional_data.118" }
%"class.absl::optional_internal::optional_data.118" = type { %"class.absl::optional_internal::optional_data_base.119" }
%"class.absl::optional_internal::optional_data_base.119" = type { %"class.absl::optional_internal::optional_data_dtor_base.120" }
%"class.absl::optional_internal::optional_data_dtor_base.120" = type { i8, %union.anon.121 }
%union.anon.121 = type { %"class.base::TimeDelta" }
%"class.base::TimeDelta" = type { i64 }
%"class.absl::optional.122" = type { %"class.absl::optional_internal::optional_data.123" }
%"class.absl::optional_internal::optional_data.123" = type { %"class.absl::optional_internal::optional_data_base.124" }
%"class.absl::optional_internal::optional_data_base.124" = type { %"class.absl::optional_internal::optional_data_dtor_base.125" }
%"class.absl::optional_internal::optional_data_dtor_base.125" = type { i8, %union.anon.126 }
%union.anon.126 = type { %"class.base::OneShotTimer" }
%"class.base::OneShotTimer" = type { %"class.base::internal::TimerBase", %"class.base::OnceCallback" }
%"class.base::internal::TimerBase" = type { i32 (...)**, %class.scoped_refptr.1, %"class.base::SequenceCheckerDoNothing", %"class.base::internal::TaskDestructionDetector"*, %"class.base::Location", %"class.base::TimeDelta", %"class.base::TimeTicks", %"class.base::TimeTicks", %"class.base::TickClock"*, i8, %"class.base::WeakPtrFactory.127" }
%"class.base::SequenceCheckerDoNothing" = type { i8 }
%"class.base::internal::TaskDestructionDetector" = type opaque
%"class.base::Location" = type { i8*, i8*, i32, i8* }
%"class.base::TimeTicks" = type { %"class.base::time_internal::TimeBase" }
%"class.base::time_internal::TimeBase" = type { i64 }
%"class.base::TickClock" = type { i32 (...)** }
%"class.base::WeakPtrFactory.127" = type { %"class.base::internal::WeakPtrFactoryBase" }
%"class.mojo::ScopedInterfaceEndpointHandle" = type { %class.scoped_refptr.128 }
%class.scoped_refptr.128 = type { %"class.mojo::ScopedInterfaceEndpointHandle::State"* }
%"class.mojo::ScopedInterfaceEndpointHandle::State" = type opaque
%"class.std::__1::unique_ptr.129" = type { %"class.std::__1::__compressed_pair.130" }
%"class.std::__1::__compressed_pair.130" = type { %"struct.std::__1::__compressed_pair_elem.131" }
%"struct.std::__1::__compressed_pair_elem.131" = type { %"class.mojo::AssociatedGroup"* }
%"class.mojo::AssociatedGroup" = type { %"class.base::RepeatingCallback.132", %class.scoped_refptr.133 }
%"class.base::RepeatingCallback.132" = type { %"class.base::internal::CallbackBaseCopyable" }
%class.scoped_refptr.133 = type { %"class.mojo::AssociatedGroupController"* }
%"class.mojo::AssociatedGroupController" = type <{ i32 (...)**, %"class.base::RefCountedThreadSafe", [4 x i8] }>
%"class.mojo::InterfaceEndpointController" = type opaque
%"class.mojo::MessageReceiverWithResponderStatus" = type { %"class.mojo::MessageReceiver" }
%"class.mojo::InterfaceEndpointClient::HandleIncomingMessageThunk" = type { %"class.mojo::MessageReceiver", %"class.mojo::InterfaceEndpointClient"* }
%"class.std::__1::map.137" = type { %"class.std::__1::__tree.138" }
%"class.std::__1::__tree.138" = type { %"class.std::__1::__tree_end_node"*, %"class.std::__1::__compressed_pair.139", %"class.std::__1::__compressed_pair.143" }
%"class.std::__1::__compressed_pair.139" = type { %"struct.std::__1::__compressed_pair_elem.49" }
%"class.std::__1::__compressed_pair.143" = type { %"struct.std::__1::__compressed_pair_elem.54" }
%"class.std::__1::map.148" = type { %"class.std::__1::__tree.149" }
%"class.std::__1::__tree.149" = type { %"class.std::__1::__tree_end_node"*, %"class.std::__1::__compressed_pair.150", %"class.std::__1::__compressed_pair.154" }
%"class.std::__1::__compressed_pair.150" = type { %"struct.std::__1::__compressed_pair_elem.49" }
%"class.std::__1::__compressed_pair.154" = type { %"struct.std::__1::__compressed_pair_elem.54" }
%"class.base::OnceCallback.157" = type { %"class.base::internal::CallbackBase" }
%"class.mojo::internal::ControlMessageProxy" = type { %"class.mojo::InterfaceEndpointClient"*, i8, %"class.base::OnceCallback" }
%"class.mojo::internal::ControlMessageHandler" = type <{ %"class.mojo::MessageReceiverWithResponderStatus", %"class.mojo::InterfaceEndpointClient"*, i32, [4 x i8] }>
%"class.base::WeakPtrFactory.158" = type { %"class.base::internal::WeakPtrFactoryBase" }
%"class.mojo::ScopedHandleBase" = type { %"class.mojo::MessagePipeHandle" }
%"class.mojo::MessagePipeHandle" = type { %"class.mojo::Handle" }
%class.scoped_refptr.1 = type { %"class.base::SequencedTaskRunner"* }
%"class.base::SequencedTaskRunner" = type { %"class.base::TaskRunner.base", [4 x i8] }
%"class.base::TaskRunner.base" = type <{ i32 (...)**, %"class.base::RefCountedThreadSafe.2" }>
%"class.base::RefCountedThreadSafe.2" = type { %"class.base::subtle::RefCountedThreadSafeBase" }
%"class.std::__1::unique_ptr.162" = type { %"class.std::__1::__compressed_pair.163" }
%"class.std::__1::__compressed_pair.163" = type { %"struct.std::__1::__compressed_pair_elem.164" }
%"struct.std::__1::__compressed_pair_elem.164" = type { %"class.network::mojom::NetworkServiceProxy"* }
%"class.network::mojom::NetworkServiceProxy" = type { %"class.network::mojom::NetworkService", %"class.mojo::MessageReceiverWithResponder"* }
%"class.network::mojom::NetworkService" = type { i32 (...)** }
%"struct.base::TaskTraitsExtensionStorage" = type { i8, %"struct.std::__1::array" }
%"struct.std::__1::array" = type { [8 x i8] }
%"class.content::NetworkServiceClient" = type { %"class.network::mojom::URLLoaderNetworkServiceObserver", %"class.net::CertDatabase::Observer", %"class.std::__1::unique_ptr.200", %"class.std::__1::unique_ptr.207", %"class.mojo::ReceiverSetBase" }
%"class.network::mojom::URLLoaderNetworkServiceObserver" = type { i32 (...)** }
%"class.net::CertDatabase::Observer" = type { i32 (...)** }
%"class.std::__1::unique_ptr.200" = type { %"class.std::__1::__compressed_pair.201" }
%"class.std::__1::__compressed_pair.201" = type { %"struct.std::__1::__compressed_pair_elem.202" }
%"struct.std::__1::__compressed_pair_elem.202" = type { %"class.base::MemoryPressureListener"* }
%"class.base::MemoryPressureListener" = type { %"class.base::RepeatingCallback.203", %"class.base::RepeatingCallback.203", %"class.base::Location" }
%"class.base::RepeatingCallback.203" = type { %"class.base::internal::CallbackBaseCopyable" }
%"class.std::__1::unique_ptr.207" = type { %"class.std::__1::__compressed_pair.208" }
%"class.std::__1::__compressed_pair.208" = type { %"struct.std::__1::__compressed_pair_elem.209" }
%"struct.std::__1::__compressed_pair_elem.209" = type { %"class.content::WebRtcConnectionsObserver"* }
%"class.content::WebRtcConnectionsObserver" = type opaque
%"class.mojo::ReceiverSetBase" = type { %"class.mojo::ReceiverSetState" }
%"class.mojo::ReceiverSetState" = type { %"class.base::RepeatingCallback.115", %"class.base::RepeatingCallback.213", i64, %"class.std::__1::map.214", i8*, i64, %"class.base::WeakPtrFactory.223" }
%"class.base::RepeatingCallback.213" = type { %"class.base::internal::CallbackBaseCopyable" }
%"class.std::__1::map.214" = type { %"class.std::__1::__tree.215" }
%"class.std::__1::__tree.215" = type { %"class.std::__1::__tree_end_node"*, %"class.std::__1::__compressed_pair.216", %"class.std::__1::__compressed_pair.220" }
%"class.std::__1::__compressed_pair.216" = type { %"struct.std::__1::__compressed_pair_elem.49" }
%"class.std::__1::__compressed_pair.220" = type { %"struct.std::__1::__compressed_pair_elem.54" }
%"class.base::WeakPtrFactory.223" = type { %"class.base::internal::WeakPtrFactoryBase" }
%"class.network::NetworkConnectionTracker" = type { %"class.network::mojom::NetworkChangeManagerClient", %"class.base::RepeatingCallback.298", %class.scoped_refptr.1, %"class.base::Lock", %"class.std::__1::list.299", i32, %class.scoped_refptr.306, %class.scoped_refptr.306, %"class.mojo::Receiver" }
%"class.network::mojom::NetworkChangeManagerClient" = type { i32 (...)** }
%"class.base::RepeatingCallback.298" = type { %"class.base::internal::CallbackBaseCopyable" }
%"class.std::__1::list.299" = type { %"class.std::__1::__list_imp.300" }
%"class.std::__1::__list_imp.300" = type { %"struct.std::__1::__list_node_base.301", %"class.std::__1::__compressed_pair.302" }
%"struct.std::__1::__list_node_base.301" = type { %"struct.std::__1::__list_node_base.301"*, %"struct.std::__1::__list_node_base.301"* }
%"class.std::__1::__compressed_pair.302" = type { %"struct.std::__1::__compressed_pair_elem.54" }
%class.scoped_refptr.306 = type { %"class.base::ObserverListThreadSafe"* }
%"class.base::ObserverListThreadSafe" = type opaque
%"class.mojo::Receiver" = type { %"class.mojo::internal::BindingState" }
%"class.mojo::internal::BindingState" = type { %"class.mojo::internal::BindingStateBase", %"class.network::mojom::NetworkChangeManagerClientStub" }
%"class.mojo::internal::BindingStateBase" = type { %class.scoped_refptr, %"class.std::__1::unique_ptr.112", %"class.base::WeakPtrFactory.307" }
%"class.base::WeakPtrFactory.307" = type { %"class.base::internal::WeakPtrFactoryBase" }
%"class.network::mojom::NetworkChangeManagerClientStub" = type { %"class.mojo::MessageReceiverWithResponderStatus", %"class.network::mojom::NetworkChangeManagerClient"* }
%"class.network::NetworkService" = type { %"class.network::mojom::NetworkService", i8, %"class.net::NetLog"*, %"class.std::__1::unique_ptr.326", %"class.std::__1::unique_ptr.332", %"class.net::TraceNetLogObserver", %"class.network::KeepaliveStatisticsRecorder", %"class.std::__1::unique_ptr.350", %"class.std::__1::unique_ptr.397", %"class.std::__1::unique_ptr.403", %"class.mojo::Receiver.421", %"class.mojo::Remote.423", %"class.std::__1::unique_ptr.431", %"class.std::__1::unique_ptr.456", %"class.std::__1::unique_ptr.462", %"class.std::__1::unique_ptr.468", %"class.std::__1::unique_ptr.474", %"class.mojo::StructPtr.480", %"class.mojo::StructPtr.487", %"class.std::__1::unique_ptr.494", %"class.std::__1::set", %"class.std::__1::set.536", %"class.std::__1::map.546", i8, i8, %"class.std::__1::unique_ptr.557", i8, %"class.std::__1::unique_ptr.563", %"class.std::__1::unique_ptr.579", %"class.std::__1::unique_ptr.585", %"class.std::__1::vector.591", %"class.std::__1::unique_ptr.605", %"class.std::__1::map.611" }
%"class.net::NetLog" = type { i32 (...)**, %"class.base::Lock", i32, i32, %"class.std::__1::vector.312", %"class.std::__1::vector.319" }
%"class.std::__1::vector.312" = type { %"class.std::__1::__vector_base.313" }
%"class.std::__1::__vector_base.313" = type { %"class.net::NetLog::ThreadSafeObserver"**, %"class.net::NetLog::ThreadSafeObserver"**, %"class.std::__1::__compressed_pair.314" }
%"class.net::NetLog::ThreadSafeObserver" = type { i32 (...)**, i32, %"class.net::NetLog"* }
%"class.std::__1::__compressed_pair.314" = type { %"struct.std::__1::__compressed_pair_elem.315" }
%"struct.std::__1::__compressed_pair_elem.315" = type { %"class.net::NetLog::ThreadSafeObserver"** }
%"class.std::__1::vector.319" = type { %"class.std::__1::__vector_base.320" }
%"class.std::__1::__vector_base.320" = type { %"class.net::NetLog::ThreadSafeCaptureModeObserver"**, %"class.net::NetLog::ThreadSafeCaptureModeObserver"**, %"class.std::__1::__compressed_pair.321" }
%"class.net::NetLog::ThreadSafeCaptureModeObserver" = type { i32 (...)**, %"class.net::NetLog"* }
%"class.std::__1::__compressed_pair.321" = type { %"struct.std::__1::__compressed_pair_elem.322" }
%"struct.std::__1::__compressed_pair_elem.322" = type { %"class.net::NetLog::ThreadSafeCaptureModeObserver"** }
%"class.std::__1::unique_ptr.326" = type { %"class.std::__1::__compressed_pair.327" }
%"class.std::__1::__compressed_pair.327" = type { %"struct.std::__1::__compressed_pair_elem.328" }
%"struct.std::__1::__compressed_pair_elem.328" = type { %"class.network::NetLogProxySink"* }
%"class.network::NetLogProxySink" = type opaque
%"class.std::__1::unique_ptr.332" = type { %"class.std::__1::__compressed_pair.333" }
%"class.std::__1::__compressed_pair.333" = type { %"struct.std::__1::__compressed_pair_elem.334" }
%"struct.std::__1::__compressed_pair_elem.334" = type { %"class.net::FileNetLogObserver"* }
%"class.net::FileNetLogObserver" = type opaque
%"class.net::TraceNetLogObserver" = type { %"class.net::NetLog::ThreadSafeObserver", %"class.base::trace_event::TraceLog::AsyncEnabledStateObserver", %"class.net::NetLog"*, %"class.base::WeakPtrFactory.338" }
%"class.base::trace_event::TraceLog::AsyncEnabledStateObserver" = type { i32 (...)** }
%"class.base::WeakPtrFactory.338" = type { %"class.base::internal::WeakPtrFactoryBase" }
%"class.network::KeepaliveStatisticsRecorder" = type { %"class.base::SupportsWeakPtr", %"class.std::__1::map.339", i32, i32 }
%"class.base::SupportsWeakPtr" = type { %"class.base::internal::WeakReferenceOwner" }
%"class.std::__1::map.339" = type { %"class.std::__1::__tree.340" }
%"class.std::__1::__tree.340" = type { %"class.std::__1::__tree_end_node"*, %"class.std::__1::__compressed_pair.341", %"class.std::__1::__compressed_pair.345" }
%"class.std::__1::__compressed_pair.341" = type { %"struct.std::__1::__compressed_pair_elem.49" }
%"class.std::__1::__compressed_pair.345" = type { %"struct.std::__1::__compressed_pair_elem.54" }
%"class.std::__1::unique_ptr.350" = type { %"class.std::__1::__compressed_pair.351" }
%"class.std::__1::__compressed_pair.351" = type { %"struct.std::__1::__compressed_pair_elem.352" }
%"struct.std::__1::__compressed_pair_elem.352" = type { %"class.network::NetworkChangeManager"* }
%"class.network::NetworkChangeManager" = type <{ %"class.network::mojom::NetworkChangeManager", %"class.net::NetworkChangeNotifier::NetworkChangeObserver", %"class.std::__1::unique_ptr.355", %"class.mojo::ReceiverSetBase.385", %"class.std::__1::vector.386", i32, [4 x i8] }>
%"class.network::mojom::NetworkChangeManager" = type { i32 (...)** }
%"class.net::NetworkChangeNotifier::NetworkChangeObserver" = type { i32 (...)**, %class.scoped_refptr.353 }
%class.scoped_refptr.353 = type { %"class.base::ObserverListThreadSafe.354"* }
%"class.base::ObserverListThreadSafe.354" = type opaque
%"class.std::__1::unique_ptr.355" = type { %"class.std::__1::__compressed_pair.356" }
%"class.std::__1::__compressed_pair.356" = type { %"struct.std::__1::__compressed_pair_elem.357" }
%"struct.std::__1::__compressed_pair_elem.357" = type { %"class.net::NetworkChangeNotifier"* }
%"class.net::NetworkChangeNotifier" = type <{ i32 (...)**, %class.scoped_refptr.358, %class.scoped_refptr.360, %class.scoped_refptr.362, %class.scoped_refptr.353, %class.scoped_refptr.364, %class.scoped_refptr.366, %class.scoped_refptr.368, %"class.net::SystemDnsConfigChangeNotifier"*, %"class.std::__1::unique_ptr.370", %"class.std::__1::unique_ptr.376", i8, i8, [6 x i8] }>
%class.scoped_refptr.358 = type { %"class.base::ObserverListThreadSafe.359"* }
%"class.base::ObserverListThreadSafe.359" = type opaque
%class.scoped_refptr.360 = type { %"class.base::ObserverListThreadSafe.361"* }
%"class.base::ObserverListThreadSafe.361" = type opaque
%class.scoped_refptr.362 = type { %"class.base::ObserverListThreadSafe.363"* }
%"class.base::ObserverListThreadSafe.363" = type opaque
%class.scoped_refptr.364 = type { %"class.base::ObserverListThreadSafe.365"* }
%"class.base::ObserverListThreadSafe.365" = type opaque
%class.scoped_refptr.366 = type { %"class.base::ObserverListThreadSafe.367"* }
%"class.base::ObserverListThreadSafe.367" = type opaque
%class.scoped_refptr.368 = type { %"class.base::ObserverListThreadSafe.369"* }
%"class.base::ObserverListThreadSafe.369" = type opaque
%"class.net::SystemDnsConfigChangeNotifier" = type opaque
%"class.std::__1::unique_ptr.370" = type { %"class.std::__1::__compressed_pair.371" }
%"class.std::__1::__compressed_pair.371" = type { %"struct.std::__1::__compressed_pair_elem.372" }
%"struct.std::__1::__compressed_pair_elem.372" = type { %"class.net::NetworkChangeNotifier::SystemDnsConfigObserver"* }
%"class.net::NetworkChangeNotifier::SystemDnsConfigObserver" = type opaque
%"class.std::__1::unique_ptr.376" = type { %"class.std::__1::__compressed_pair.377" }
%"class.std::__1::__compressed_pair.377" = type { %"struct.std::__1::__compressed_pair_elem.378" }
%"struct.std::__1::__compressed_pair_elem.378" = type { %"class.net::NetworkChangeNotifier::NetworkChangeCalculator"* }
%"class.net::NetworkChangeNotifier::NetworkChangeCalculator" = type opaque
%"class.mojo::ReceiverSetBase.385" = type { %"class.mojo::ReceiverSetState" }
%"class.std::__1::vector.386" = type { %"class.std::__1::__vector_base.387" }
%"class.std::__1::__vector_base.387" = type { %"class.mojo::Remote.388"*, %"class.mojo::Remote.388"*, %"class.std::__1::__compressed_pair.389" }
%"class.mojo::Remote.388" = type opaque
%"class.std::__1::__compressed_pair.389" = type { %"struct.std::__1::__compressed_pair_elem.390" }
%"struct.std::__1::__compressed_pair_elem.390" = type { %"class.mojo::Remote.388"* }
%"class.std::__1::unique_ptr.397" = type { %"class.std::__1::__compressed_pair.398" }
%"class.std::__1::__compressed_pair.398" = type { %"struct.std::__1::__compressed_pair_elem.399" }
%"struct.std::__1::__compressed_pair_elem.399" = type { %"class.net::LoggingNetworkChangeObserver"* }
%"class.net::LoggingNetworkChangeObserver" = type opaque
%"class.std::__1::unique_ptr.403" = type { %"class.std::__1::__compressed_pair.404" }
%"class.std::__1::__compressed_pair.404" = type { %"struct.std::__1::__compressed_pair_elem.405" }
%"struct.std::__1::__compressed_pair_elem.405" = type { %"class.service_manager::BinderRegistryWithArgs"* }
%"class.service_manager::BinderRegistryWithArgs" = type { %"class.std::__1::map.406", %"class.base::WeakPtrFactory.417" }
%"class.std::__1::map.406" = type { %"class.std::__1::__tree.407" }
%"class.std::__1::__tree.407" = type { %"class.std::__1::__tree_end_node"*, %"class.std::__1::__compressed_pair.408", %"class.std::__1::__compressed_pair.412" }
%"class.std::__1::__compressed_pair.408" = type { %"struct.std::__1::__compressed_pair_elem.49" }
%"class.std::__1::__compressed_pair.412" = type { %"struct.std::__1::__compressed_pair_elem.54" }
%"class.base::WeakPtrFactory.417" = type { %"class.base::internal::WeakPtrFactoryBase" }
%"class.mojo::Receiver.421" = type { %"class.mojo::internal::BindingState.422" }
%"class.mojo::internal::BindingState.422" = type { %"class.mojo::internal::BindingStateBase", %"class.network::mojom::NetworkServiceStub" }
%"class.network::mojom::NetworkServiceStub" = type { %"class.mojo::MessageReceiverWithResponderStatus", %"class.network::mojom::NetworkService"* }
%"class.mojo::Remote.423" = type { %"class.mojo::internal::InterfacePtrState.424" }
%"class.mojo::internal::InterfacePtrState.424" = type { %"class.mojo::internal::InterfacePtrStateBase.base", %"class.std::__1::unique_ptr.425" }
%"class.std::__1::unique_ptr.425" = type { %"class.std::__1::__compressed_pair.426" }
%"class.std::__1::__compressed_pair.426" = type { %"struct.std::__1::__compressed_pair_elem.427" }
%"struct.std::__1::__compressed_pair_elem.427" = type { %"class.network::mojom::URLLoaderNetworkServiceObserverProxy"* }
%"class.network::mojom::URLLoaderNetworkServiceObserverProxy" = type { %"class.network::mojom::URLLoaderNetworkServiceObserver", %"class.mojo::MessageReceiverWithResponder"* }
%"class.std::__1::unique_ptr.431" = type { %"class.std::__1::__compressed_pair.432" }
%"class.std::__1::__compressed_pair.432" = type { %"struct.std::__1::__compressed_pair_elem.433" }
%"struct.std::__1::__compressed_pair_elem.433" = type { %"class.network::NetworkQualityEstimatorManager"* }
%"class.network::NetworkQualityEstimatorManager" = type <{ %"class.network::mojom::NetworkQualityEstimatorManager", %"class.net::EffectiveConnectionTypeObserver", %"class.net::RTTAndThroughputEstimatesObserver", %"class.std::__1::unique_ptr.434", %"class.mojo::ReceiverSetBase.440", %"class.mojo::RemoteSetImpl", i32, [4 x i8], %"class.base::TimeDelta", %"class.base::TimeDelta", i32, [4 x i8] }>
%"class.network::mojom::NetworkQualityEstimatorManager" = type { i32 (...)** }
%"class.net::EffectiveConnectionTypeObserver" = type { i32 (...)** }
%"class.net::RTTAndThroughputEstimatesObserver" = type { i32 (...)** }
%"class.std::__1::unique_ptr.434" = type { %"class.std::__1::__compressed_pair.435" }
%"class.std::__1::__compressed_pair.435" = type { %"struct.std::__1::__compressed_pair_elem.436" }
%"struct.std::__1::__compressed_pair_elem.436" = type { %"class.net::NetworkQualityEstimator"* }
%"class.net::NetworkQualityEstimator" = type opaque
%"class.mojo::ReceiverSetBase.440" = type { %"class.mojo::ReceiverSetState" }
%"class.mojo::RemoteSetImpl" = type { %"class.util::IdType<mojo::internal::RemoteSetElementIdTypeTag, unsigned int, 0, 1>::Generator", %"class.std::__1::map.441", %"class.base::RepeatingCallback.452" }
%"class.util::IdType<mojo::internal::RemoteSetElementIdTypeTag, unsigned int, 0, 1>::Generator" = type { i32 }
%"class.std::__1::map.441" = type { %"class.std::__1::__tree.442" }
%"class.std::__1::__tree.442" = type { %"class.std::__1::__tree_end_node"*, %"class.std::__1::__compressed_pair.443", %"class.std::__1::__compressed_pair.447" }
%"class.std::__1::__compressed_pair.443" = type { %"struct.std::__1::__compressed_pair_elem.49" }
%"class.std::__1::__compressed_pair.447" = type { %"struct.std::__1::__compressed_pair_elem.54" }
%"class.base::RepeatingCallback.452" = type { %"class.base::internal::CallbackBaseCopyable" }
%"class.std::__1::unique_ptr.456" = type { %"class.std::__1::__compressed_pair.457" }
%"class.std::__1::__compressed_pair.457" = type { %"struct.std::__1::__compressed_pair_elem.458" }
%"struct.std::__1::__compressed_pair_elem.458" = type { %"class.network::DnsConfigChangeManager"* }
%"class.network::DnsConfigChangeManager" = type opaque
%"class.std::__1::unique_ptr.462" = type { %"class.std::__1::__compressed_pair.463" }
%"class.std::__1::__compressed_pair.463" = type { %"struct.std::__1::__compressed_pair_elem.464" }
%"struct.std::__1::__compressed_pair_elem.464" = type { %"class.net::HostResolverManager"* }
%"class.net::HostResolverManager" = type opaque
%"class.std::__1::unique_ptr.468" = type { %"class.std::__1::__compressed_pair.469" }
%"class.std::__1::__compressed_pair.469" = type { %"struct.std::__1::__compressed_pair_elem.470" }
%"struct.std::__1::__compressed_pair_elem.470" = type { %"class.net::HostResolver::Factory"* }
%"class.net::HostResolver::Factory" = type { i32 (...)** }
%"class.std::__1::unique_ptr.474" = type { %"class.std::__1::__compressed_pair.475" }
%"class.std::__1::__compressed_pair.475" = type { %"struct.std::__1::__compressed_pair_elem.476" }
%"struct.std::__1::__compressed_pair_elem.476" = type { %"class.network::HttpAuthCacheCopier"* }
%"class.network::HttpAuthCacheCopier" = type opaque
%"class.mojo::StructPtr.480" = type { %"class.std::__1::unique_ptr.481" }
%"class.std::__1::unique_ptr.481" = type { %"class.std::__1::__compressed_pair.482" }
%"class.std::__1::__compressed_pair.482" = type { %"struct.std::__1::__compressed_pair_elem.483" }
%"struct.std::__1::__compressed_pair_elem.483" = type { %"class.network::mojom::HttpAuthDynamicParams"* }
%"class.network::mojom::HttpAuthDynamicParams" = type <{ %"class.std::__1::basic_string", %"class.std::__1::basic_string", i8, i8, i8, i8, [4 x i8], %"class.std::__1::basic_string", i8, i8, [6 x i8] }>
%"class.mojo::StructPtr.487" = type { %"class.std::__1::unique_ptr.488" }
%"class.std::__1::unique_ptr.488" = type { %"class.std::__1::__compressed_pair.489" }
%"class.std::__1::__compressed_pair.489" = type { %"struct.std::__1::__compressed_pair_elem.490" }
%"struct.std::__1::__compressed_pair_elem.490" = type { %"class.network::mojom::HttpAuthStaticParams"* }
%"class.network::mojom::HttpAuthStaticParams" = type { %"class.std::__1::vector", %"class.std::__1::basic_string" }
%"class.std::__1::vector" = type { %"class.std::__1::__vector_base" }
%"class.std::__1::__vector_base" = type { %"class.std::__1::basic_string"*, %"class.std::__1::basic_string"*, %"class.std::__1::__compressed_pair.188" }
%"class.std::__1::__compressed_pair.188" = type { %"struct.std::__1::__compressed_pair_elem.189" }
%"struct.std::__1::__compressed_pair_elem.189" = type { %"class.std::__1::basic_string"* }
%"class.std::__1::unique_ptr.494" = type { %"class.std::__1::__compressed_pair.495" }
%"class.std::__1::__compressed_pair.495" = type { %"struct.std::__1::__compressed_pair_elem.496" }
%"struct.std::__1::__compressed_pair_elem.496" = type { %"class.network::FirstPartySets"* }
%"class.network::FirstPartySets" = type { %"class.base::flat_map.497", %"class.absl::optional.507" }
%"class.base::flat_map.497" = type { %"class.base::internal::flat_tree.498" }
%"class.base::internal::flat_tree.498" = type { %"class.std::__1::vector.499" }
%"class.std::__1::vector.499" = type { %"class.std::__1::__vector_base.500" }
%"class.std::__1::__vector_base.500" = type { %"struct.std::__1::pair.501"*, %"struct.std::__1::pair.501"*, %"class.std::__1::__compressed_pair.502" }
%"struct.std::__1::pair.501" = type { %"class.net::SchemefulSite", %"class.net::SchemefulSite" }
%"class.net::SchemefulSite" = type { %"class.url::Origin" }
%"class.url::Origin" = type { %"class.url::SchemeHostPort", %"class.absl::optional.513" }
%"class.url::SchemeHostPort" = type <{ %"class.std::__1::basic_string", %"class.std::__1::basic_string", i16, [6 x i8] }>
%"class.absl::optional.513" = type { %"class.absl::optional_internal::optional_data.514" }
%"class.absl::optional_internal::optional_data.514" = type { %"class.absl::optional_internal::optional_data_base.515" }
%"class.absl::optional_internal::optional_data_base.515" = type { %"class.absl::optional_internal::optional_data_dtor_base.516" }
%"class.absl::optional_internal::optional_data_dtor_base.516" = type { i8, %union.anon.517 }
%union.anon.517 = type { %"class.url::Origin::Nonce" }
%"class.url::Origin::Nonce" = type { %"class.base::UnguessableToken" }
%"class.base::UnguessableToken" = type { %"class.base::Token" }
%"class.base::Token" = type { i64, i64 }
%"class.std::__1::__compressed_pair.502" = type { %"struct.std::__1::__compressed_pair_elem.503" }
%"struct.std::__1::__compressed_pair_elem.503" = type { %"struct.std::__1::pair.501"* }
%"class.absl::optional.507" = type { %"class.absl::optional_internal::optional_data.508" }
%"class.absl::optional_internal::optional_data.508" = type { %"class.absl::optional_internal::optional_data_base.509" }
%"class.absl::optional_internal::optional_data_base.509" = type { %"class.absl::optional_internal::optional_data_dtor_base.510" }
%"class.absl::optional_internal::optional_data_dtor_base.510" = type { i8, %union.anon.511 }
%union.anon.511 = type { %"struct.std::__1::pair.512" }
%"struct.std::__1::pair.512" = type { %"class.net::SchemefulSite", %"class.base::internal::flat_tree.518" }
%"class.base::internal::flat_tree.518" = type { %"class.std::__1::vector.519" }
%"class.std::__1::vector.519" = type { %"class.std::__1::__vector_base.520" }
%"class.std::__1::__vector_base.520" = type { %"class.net::SchemefulSite"*, %"class.net::SchemefulSite"*, %"class.std::__1::__compressed_pair.521" }
%"class.std::__1::__compressed_pair.521" = type { %"struct.std::__1::__compressed_pair_elem.522" }
%"struct.std::__1::__compressed_pair_elem.522" = type { %"class.net::SchemefulSite"* }
%"class.std::__1::set" = type { %"class.std::__1::__tree.529" }
%"class.std::__1::__tree.529" = type { %"class.std::__1::__tree_end_node"*, %"class.std::__1::__compressed_pair.530", %"class.std::__1::__compressed_pair.534" }
%"class.std::__1::__compressed_pair.530" = type { %"struct.std::__1::__compressed_pair_elem.49" }
%"class.std::__1::__compressed_pair.534" = type { %"struct.std::__1::__compressed_pair_elem.54" }
%"class.std::__1::set.536" = type { %"class.std::__1::__tree.537" }
%"class.std::__1::__tree.537" = type { %"class.std::__1::__tree_end_node"*, %"class.std::__1::__compressed_pair.538", %"class.std::__1::__compressed_pair.542" }
%"class.std::__1::__compressed_pair.538" = type { %"struct.std::__1::__compressed_pair_elem.49" }
%"class.std::__1::__compressed_pair.542" = type { %"struct.std::__1::__compressed_pair_elem.54" }
%"class.std::__1::map.546" = type { %"class.std::__1::__tree.547" }
%"class.std::__1::__tree.547" = type { %"class.std::__1::__tree_end_node"*, %"class.std::__1::__compressed_pair.548", %"class.std::__1::__compressed_pair.552" }
%"class.std::__1::__compressed_pair.548" = type { %"struct.std::__1::__compressed_pair_elem.49" }
%"class.std::__1::__compressed_pair.552" = type { %"struct.std::__1::__compressed_pair_elem.54" }
%"class.std::__1::unique_ptr.557" = type { %"class.std::__1::__compressed_pair.558" }
%"class.std::__1::__compressed_pair.558" = type { %"struct.std::__1::__compressed_pair_elem.559" }
%"struct.std::__1::__compressed_pair_elem.559" = type { %"class.network::CRLSetDistributor"* }
%"class.network::CRLSetDistributor" = type opaque
%"class.std::__1::unique_ptr.563" = type { %"class.std::__1::__compressed_pair.564" }
%"class.std::__1::__compressed_pair.564" = type { %"struct.std::__1::__compressed_pair_elem.565" }
%"struct.std::__1::__compressed_pair_elem.565" = type { %"class.network::TrustTokenKeyCommitments"* }
%"class.network::TrustTokenKeyCommitments" = type { %"class.network::TrustTokenKeyCommitmentGetter", %"class.network::SynchronousTrustTokenKeyCommitmentGetter", %"class.base::flat_map.566", %"class.base::flat_map.566" }
%"class.network::TrustTokenKeyCommitmentGetter" = type { i32 (...)** }
%"class.network::SynchronousTrustTokenKeyCommitmentGetter" = type { i32 (...)** }
%"class.base::flat_map.566" = type { %"class.base::internal::flat_tree.567" }
%"class.base::internal::flat_tree.567" = type { %"class.std::__1::vector.568" }
%"class.std::__1::vector.568" = type { %"class.std::__1::__vector_base.569" }
%"class.std::__1::__vector_base.569" = type { %"struct.std::__1::pair.570"*, %"struct.std::__1::pair.570"*, %"class.std::__1::__compressed_pair.571" }
%"struct.std::__1::pair.570" = type opaque
%"class.std::__1::__compressed_pair.571" = type { %"struct.std::__1::__compressed_pair_elem.572" }
%"struct.std::__1::__compressed_pair_elem.572" = type { %"struct.std::__1::pair.570"* }
%"class.std::__1::unique_ptr.579" = type { %"class.std::__1::__compressed_pair.580" }
%"class.std::__1::__compressed_pair.580" = type { %"struct.std::__1::__compressed_pair_elem.581" }
%"struct.std::__1::__compressed_pair_elem.581" = type { %"class.network::NetworkService::DelayedDohProbeActivator"* }
%"class.network::NetworkService::DelayedDohProbeActivator" = type opaque
%"class.std::__1::unique_ptr.585" = type { %"class.std::__1::__compressed_pair.586" }
%"class.std::__1::__compressed_pair.586" = type { %"struct.std::__1::__compressed_pair_elem.587" }
%"struct.std::__1::__compressed_pair_elem.587" = type { %"class.network::SCTAuditingCache"* }
%"class.network::SCTAuditingCache" = type opaque
%"class.std::__1::vector.591" = type { %"class.std::__1::__vector_base.592" }
%"class.std::__1::__vector_base.592" = type { %"class.mojo::StructPtr.593"*, %"class.mojo::StructPtr.593"*, %"class.std::__1::__compressed_pair.600" }
%"class.mojo::StructPtr.593" = type { %"class.std::__1::unique_ptr.594" }
%"class.std::__1::unique_ptr.594" = type { %"class.std::__1::__compressed_pair.595" }
%"class.std::__1::__compressed_pair.595" = type { %"struct.std::__1::__compressed_pair_elem.596" }
%"struct.std::__1::__compressed_pair_elem.596" = type { %"class.network::mojom::CTLogInfo"* }
%"class.network::mojom::CTLogInfo" = type { %"class.std::__1::basic_string", %"class.std::__1::basic_string", i8, %"class.absl::optional.117" }
%"class.std::__1::__compressed_pair.600" = type { %"struct.std::__1::__compressed_pair_elem.601" }
%"struct.std::__1::__compressed_pair_elem.601" = type { %"class.mojo::StructPtr.593"* }
%"class.std::__1::unique_ptr.605" = type { %"class.std::__1::__compressed_pair.606" }
%"class.std::__1::__compressed_pair.606" = type { %"struct.std::__1::__compressed_pair_elem.607" }
%"struct.std::__1::__compressed_pair_elem.607" = type { %"class.network::CtLogListDistributor"* }
%"class.network::CtLogListDistributor" = type opaque
%"class.std::__1::map.611" = type { %"class.std::__1::__tree.612" }
%"class.std::__1::__tree.612" = type { %"class.std::__1::__tree_end_node"*, %"class.std::__1::__compressed_pair.613", %"class.std::__1::__compressed_pair.617" }
%"class.std::__1::__compressed_pair.613" = type { %"struct.std::__1::__compressed_pair_elem.49" }
%"class.std::__1::__compressed_pair.617" = type { %"struct.std::__1::__compressed_pair_elem.54" }
%"class.cert_verifier::mojom::CertVerifierServiceFactory" = type { i32 (...)** }
%"struct.base::Feature" = type { i8*, i32 }
%"class.base::NoDestructor" = type { [200 x i8] }
%"struct.std::__1::piecewise_construct_t" = type { i8 }
%"class.base::NoDestructor.710" = type { [4 x i8] }
%"class.base::NoDestructor.727" = type { [56 x i8] }
%"class.base::NoDestructor.728" = type { [8 x i8] }
%"class.base::NoDestructor.739" = type { [4 x i8] }
%"class.base::NoDestructor.745" = type { [4 x i8] }
%"class.std::__1::locale::id" = type <{ %"struct.std::__1::once_flag", i32, [4 x i8] }>
%"struct.std::__1::once_flag" = type { i64 }
%"class.base::ScopedAllowBlocking" = type { i8 }
%"class.logging::LogMessage" = type { i32 (...)**, i32, %"class.std::__1::basic_ostringstream", i64, i8*, i32, %"class.base::ScopedClearLastErrorBase" }
%"class.std::__1::basic_ostringstream" = type { %"class.std::__1::basic_ostream.base", %"class.std::__1::basic_stringbuf", %"class.std::__1::basic_ios.base" }
%"class.std::__1::basic_ostream.base" = type { i32 (...)** }
%"class.std::__1::basic_stringbuf" = type <{ %"class.std::__1::basic_streambuf", %"class.std::__1::basic_string", i8*, i32, [4 x i8] }>
%"class.std::__1::basic_streambuf" = type { i32 (...)**, %"class.std::__1::locale", i8*, i8*, i8*, i8*, i8*, i8* }
%"class.std::__1::locale" = type { %"class.std::__1::locale::__imp"* }
%"class.std::__1::locale::__imp" = type opaque
%"class.std::__1::basic_ios.base" = type <{ %"class.std::__1::ios_base", %"class.std::__1::basic_ostream"*, i32 }>
%"class.std::__1::ios_base" = type { i32 (...)**, i32, i64, i64, i32, i32, i8*, i8*, void (i32, %"class.std::__1::ios_base"*, i32)**, i32*, i64, i64, i64*, i64, i64, i8**, i64, i64 }
%"class.std::__1::basic_ostream" = type { i32 (...)**, %"class.std::__1::basic_ios.base" }
%"class.base::ScopedClearLastErrorBase" = type { i32 }
%"class.base::OnceCallback.237" = type { %"class.base::internal::CallbackBase" }
%"class.mojo::PendingRemote" = type { %"struct.mojo::internal::PendingRemoteState" }
%"struct.mojo::internal::PendingRemoteState" = type { %"class.mojo::ScopedHandleBase", i32 }
%"class.mojo::InlinedStructPtr" = type <{ %"class.network::mojom::EnvironmentVariable", i32, [4 x i8] }>
%"class.network::mojom::EnvironmentVariable" = type { %"class.std::__1::basic_string", %"class.std::__1::basic_string" }
%"struct.base::Thread::Options" = type <{ i32, [4 x i8], %"class.base::Thread::Delegate"*, i32, [4 x i8], %"class.base::sequence_manager::TimeDomain"*, %"class.base::RepeatingCallback.642", i64, i32, i8, i8, [2 x i8] }>
%"class.base::Thread::Delegate" = type { i32 (...)** }
%"class.base::sequence_manager::TimeDomain" = type opaque
%"class.base::RepeatingCallback.642" = type { %"class.base::internal::CallbackBaseCopyable" }
%"class.mojo::PendingReceiver" = type { %"struct.mojo::internal::PendingReceiverState" }
%"struct.mojo::internal::PendingReceiverState" = type { %"class.mojo::ScopedHandleBase", %"class.mojo::ConnectionGroup::Ref" }
%"struct.content::ServiceProcessHost::Options" = type { i32, %"class.std::__1::basic_string.174", %"class.absl::optional.183", %"class.std::__1::vector" }
%"class.std::__1::basic_string.174" = type { %"class.std::__1::__compressed_pair.175" }
%"class.std::__1::__compressed_pair.175" = type { %"struct.std::__1::__compressed_pair_elem.176" }
%"struct.std::__1::__compressed_pair_elem.176" = type { %"struct.std::__1::basic_string<char16_t, std::__1::char_traits<char16_t>, std::__1::allocator<char16_t> >::__rep" }
%"struct.std::__1::basic_string<char16_t, std::__1::char_traits<char16_t>, std::__1::allocator<char16_t> >::__rep" = type { %union.anon.177 }
%union.anon.177 = type { %"struct.std::__1::basic_string<char16_t, std::__1::char_traits<char16_t>, std::__1::allocator<char16_t> >::__long" }
%"struct.std::__1::basic_string<char16_t, std::__1::char_traits<char16_t>, std::__1::allocator<char16_t> >::__long" = type { i16*, i64, i64 }
%"class.absl::optional.183" = type { %"class.absl::optional_internal::optional_data.184" }
%"class.absl::optional_internal::optional_data.184" = type { %"class.absl::optional_internal::optional_data_base.185" }
%"class.absl::optional_internal::optional_data_base.185" = type { %"class.absl::optional_internal::optional_data_dtor_base.186" }
%"class.absl::optional_internal::optional_data_dtor_base.186" = type { i8, %union.anon.187 }
%union.anon.187 = type { i32 }
%"class.base::WaitableEvent" = type <{ %class.scoped_refptr.193, i8, [7 x i8] }>
%class.scoped_refptr.193 = type { %"struct.base::WaitableEvent::WaitableEventKernel"* }
%"struct.base::WaitableEvent::WaitableEventKernel" = type { %"class.base::RefCountedThreadSafe.194", %"class.base::Lock", i8, i8, %"class.std::__1::list" }
%"class.base::RefCountedThreadSafe.194" = type { %"class.base::subtle::RefCountedThreadSafeBase" }
%"class.std::__1::list" = type { %"class.std::__1::__list_imp" }
%"class.std::__1::__list_imp" = type { %"struct.std::__1::__list_node_base", %"class.std::__1::__compressed_pair.195" }
%"struct.std::__1::__list_node_base" = type { %"struct.std::__1::__list_node_base"*, %"struct.std::__1::__list_node_base"* }
%"class.std::__1::__compressed_pair.195" = type { %"struct.std::__1::__compressed_pair_elem.54" }
%"class.mojo::StructPtr" = type { %"class.std::__1::unique_ptr.224" }
%"class.std::__1::unique_ptr.224" = type { %"class.std::__1::__compressed_pair.225" }
%"class.std::__1::__compressed_pair.225" = type { %"struct.std::__1::__compressed_pair_elem.226" }
%"struct.std::__1::__compressed_pair_elem.226" = type { %"class.network::mojom::NetworkServiceParams"* }
%"class.network::mojom::NetworkServiceParams" = type { i32, i32, %"class.std::__1::vector.227", %"class.mojo::PendingRemote" }
%"class.std::__1::vector.227" = type { %"class.std::__1::__vector_base.228" }
%"class.std::__1::__vector_base.228" = type { %"class.mojo::InlinedStructPtr"*, %"class.mojo::InlinedStructPtr"*, %"class.std::__1::__compressed_pair.229" }
%"class.std::__1::__compressed_pair.229" = type { %"struct.std::__1::__compressed_pair_elem.230" }
%"struct.std::__1::__compressed_pair_elem.230" = type { %"class.mojo::InlinedStructPtr"* }
%"class.base::FilePath" = type { %"class.std::__1::basic_string" }
%"class.base::File" = type <{ %"class.base::ScopedGeneric", %"class.base::FilePath", %"class.base::FileTracing::ScopedEnabler", [3 x i8], i32, i8, i8, [6 x i8] }>
%"class.base::ScopedGeneric" = type <{ i32 (...)**, %"struct.base::ScopedGeneric<int, base::internal::ScopedFDCloseTraits>::Data", i8, [3 x i8] }>
%"struct.base::ScopedGeneric<int, base::internal::ScopedFDCloseTraits>::Data" = type { i32 }
%"class.base::FileTracing::ScopedEnabler" = type { i8 }
%"class.base::Value" = type { %"class.absl::variant" }
%"class.absl::variant" = type { %"class.absl::variant_internal::VariantCopyAssignBaseNontrivial" }
%"class.absl::variant_internal::VariantCopyAssignBaseNontrivial" = type { %"class.absl::variant_internal::VariantMoveAssignBaseNontrivial" }
%"class.absl::variant_internal::VariantMoveAssignBaseNontrivial" = type { %"class.absl::variant_internal::VariantCopyBaseNontrivial" }
%"class.absl::variant_internal::VariantCopyBaseNontrivial" = type { %"class.absl::variant_internal::VariantMoveBaseNontrivial" }
%"class.absl::variant_internal::VariantMoveBaseNontrivial" = type { %"class.absl::variant_internal::VariantStateBaseDestructorNontrivial" }
%"class.absl::variant_internal::VariantStateBaseDestructorNontrivial" = type { %"class.absl::variant_internal::VariantStateBase" }
%"class.absl::variant_internal::VariantStateBase" = type { %"union.absl::variant_internal::DestructibleUnionImpl", i64 }
%"union.absl::variant_internal::DestructibleUnionImpl" = type { %"union.absl::variant_internal::DestructibleUnionImpl.249" }
%"union.absl::variant_internal::DestructibleUnionImpl.249" = type { %"union.absl::variant_internal::DestructibleUnionImpl.250" }
%"union.absl::variant_internal::DestructibleUnionImpl.250" = type { %"union.absl::variant_internal::DestructibleUnionImpl.251" }
%"union.absl::variant_internal::DestructibleUnionImpl.251" = type { %"union.absl::variant_internal::DestructibleUnionImpl.252" }
%"union.absl::variant_internal::DestructibleUnionImpl.252" = type { %"class.std::__1::basic_string" }
%"class.base::DictionaryValue" = type { %"class.base::Value" }
%"class.mojo::internal::InterfacePtrStateBase" = type <{ %class.scoped_refptr, %"class.std::__1::unique_ptr.112", %"class.mojo::ScopedHandleBase", [4 x i8], %class.scoped_refptr.1, i32, [4 x i8] }>
%"class.content::ContentClient" = type { i32 (...)**, %"class.content::ContentBrowserClient"*, %"class.content::ContentGpuClient"*, %"class.content::ContentRendererClient"*, %"class.content::ContentUtilityClient"* }
%"class.content::ContentBrowserClient" = type { i32 (...)** }
%"class.content::ContentGpuClient" = type opaque
%"class.content::ContentRendererClient" = type opaque
%"class.content::ContentUtilityClient" = type opaque
%"struct.std::__1::basic_string<char, std::__1::char_traits<char>, std::__1::allocator<char> >::__short" = type { [23 x i8], %struct.anon }
%struct.anon = type { i8 }
%"class.base::Thread" = type <{ %"class.base::PlatformThread::Delegate", i8, i8, i8, [5 x i8], %"class.base::Lock", %"class.base::PlatformThreadHandle", %"class.base::Lock", i32, [4 x i8], %"class.base::WaitableEvent", %"class.std::__1::unique_ptr.643", %"class.base::RunLoop"*, i32, [4 x i8], %"class.std::__1::basic_string", %"class.base::WaitableEvent", %"class.base::SequenceCheckerDoNothing", [7 x i8] }>
%"class.base::PlatformThread::Delegate" = type { i32 (...)** }
%"class.base::PlatformThreadHandle" = type { i64 }
%"class.std::__1::unique_ptr.643" = type { %"class.std::__1::__compressed_pair.644" }
%"class.std::__1::__compressed_pair.644" = type { %"struct.std::__1::__compressed_pair_elem.645" }
%"struct.std::__1::__compressed_pair_elem.645" = type { %"class.base::Thread::Delegate"* }
%"class.base::RunLoop" = type { %"class.base::RunLoop::Delegate"*, i32, i8, i8, i8, i8, i8, %class.scoped_refptr.199, %"class.base::WeakPtrFactory.663" }
%"class.base::RunLoop::Delegate" = type <{ i32 (...)**, %"class.std::__1::stack", %"class.base::ObserverList", i8, [7 x i8] }>
%"class.std::__1::stack" = type { %"class.std::__1::vector.649" }
%"class.std::__1::vector.649" = type { %"class.std::__1::__vector_base.650" }
%"class.std::__1::__vector_base.650" = type { %"class.base::RunLoop"**, %"class.base::RunLoop"**, %"class.std::__1::__compressed_pair.651" }
%"class.std::__1::__compressed_pair.651" = type { %"struct.std::__1::__compressed_pair_elem.652" }
%"struct.std::__1::__compressed_pair_elem.652" = type { %"class.base::RunLoop"** }
%"class.base::ObserverList" = type <{ %"class.std::__1::vector.656", %"class.base::LinkedList", i64, i32, [4 x i8] }>
%"class.std::__1::vector.656" = type { %"class.std::__1::__vector_base.657" }
%"class.std::__1::__vector_base.657" = type { %"class.base::internal::UncheckedObserverAdapter"*, %"class.base::internal::UncheckedObserverAdapter"*, %"class.std::__1::__compressed_pair.658" }
%"class.base::internal::UncheckedObserverAdapter" = type { i8* }
%"class.std::__1::__compressed_pair.658" = type { %"struct.std::__1::__compressed_pair_elem.659" }
%"struct.std::__1::__compressed_pair_elem.659" = type { %"class.base::internal::UncheckedObserverAdapter"* }
%"class.base::LinkedList" = type { %"class.base::LinkNode" }
%"class.base::LinkNode" = type { %"class.base::internal::LinkNodeBase" }
%"class.base::internal::LinkNodeBase" = type { %"class.base::internal::LinkNodeBase"*, %"class.base::internal::LinkNodeBase"* }
%class.scoped_refptr.199 = type { %"class.base::SingleThreadTaskRunner"* }
%"class.base::SingleThreadTaskRunner" = type { %"class.base::SequencedTaskRunner.base", [4 x i8] }
%"class.base::SequencedTaskRunner.base" = type { %"class.base::TaskRunner.base" }
%"class.base::WeakPtrFactory.663" = type { %"class.base::internal::WeakPtrFactoryBase" }
%"class.content::BrowserTaskTraits" = type { %"class.base::TaskTraits" }
%"class.base::TaskTraits" = type { %"struct.base::TaskTraitsExtensionStorage", i8, i8, i8, i8, i8, i8 }
%"class.base::TaskRunner" = type <{ i32 (...)**, %"class.base::RefCountedThreadSafe.2", [4 x i8] }>
%"struct.std::__1::basic_string<char16_t, std::__1::char_traits<char16_t>, std::__1::allocator<char16_t> >::__short" = type { [11 x i16], %struct.anon.178 }
%struct.anon.178 = type { %"struct.std::__1::__padding.179", i8 }
%"struct.std::__1::__padding.179" = type { [1 x i8] }
%"class.base::Environment" = type { i32 (...)** }
%"class.base::CommandLine" = type { %"class.std::__1::vector", %"class.std::__1::map.239", i64 }
%"class.std::__1::map.239" = type { %"class.std::__1::__tree.240" }
%"class.std::__1::__tree.240" = type { %"class.std::__1::__tree_end_node"*, %"class.std::__1::__compressed_pair.241", %"class.std::__1::__compressed_pair.245" }
%"class.std::__1::__compressed_pair.241" = type { %"struct.std::__1::__compressed_pair_elem.49" }
%"class.std::__1::__compressed_pair.245" = type { %"struct.std::__1::__compressed_pair_elem.54" }
%"class.base::HistogramBase" = type <{ i32 (...)**, i8*, %"struct.std::__1::atomic.169", [4 x i8] }>
%"class.base::internal::CallbackListBase" = type { %"class.std::__1::list.290", i8, %"class.base::RepeatingCallback.115", %"class.base::WeakPtrFactory.297" }
%"class.std::__1::list.290" = type { %"class.std::__1::__list_imp.291" }
%"class.std::__1::__list_imp.291" = type { %"struct.std::__1::__list_node_base.292", %"class.std::__1::__compressed_pair.293" }
%"struct.std::__1::__list_node_base.292" = type { %"struct.std::__1::__list_node_base.292"*, %"struct.std::__1::__list_node_base.292"* }
%"class.std::__1::__compressed_pair.293" = type { %"struct.std::__1::__compressed_pair_elem.54" }
%"class.base::WeakPtrFactory.297" = type { %"class.base::internal::WeakPtrFactoryBase" }
%"class.mojo::GenericPendingReceiver" = type <{ %"class.absl::optional.774", %"class.mojo::ScopedHandleBase", [4 x i8] }>
%"class.absl::optional.774" = type { %"class.absl::optional_internal::optional_data.775" }
%"class.absl::optional_internal::optional_data.775" = type { %"class.absl::optional_internal::optional_data_base.776" }
%"class.absl::optional_internal::optional_data_base.776" = type { %"class.absl::optional_internal::optional_data_dtor_base.777" }
%"class.absl::optional_internal::optional_data_dtor_base.777" = type { i8, %union.anon.778 }
%union.anon.778 = type { %"class.std::__1::basic_string" }
%"class.base::internal::SequenceLocalStorageMap::ValueDestructorPair" = type { i8*, void (i8*)* }
%"class.base::internal::SequenceLocalStorageMap" = type { %"class.base::flat_map.711" }
%"class.base::flat_map.711" = type { %"class.base::internal::flat_tree.712" }
%"class.base::internal::flat_tree.712" = type { %"class.std::__1::vector.713" }
%"class.std::__1::vector.713" = type { %"class.std::__1::__vector_base.714" }
%"class.std::__1::__vector_base.714" = type { %"struct.std::__1::pair.715"*, %"struct.std::__1::pair.715"*, %"class.std::__1::__compressed_pair.716" }
%"struct.std::__1::pair.715" = type opaque
%"class.std::__1::__compressed_pair.716" = type { %"struct.std::__1::__compressed_pair_elem.717" }
%"struct.std::__1::__compressed_pair_elem.717" = type { %"struct.std::__1::pair.715"* }
%"class.base::CallbackListSubscription" = type { %"class.base::OnceCallback" }
%"class.base::WeakPtr.789" = type { %"class.base::internal::WeakPtrBase" }
%"class.mojo::PendingReceiver.308" = type { %"struct.mojo::internal::PendingReceiverState" }
%"class.base::OnceCallback.309" = type { %"class.base::internal::CallbackBase" }
%"class.base::OnceCallback.310" = type { %"class.base::internal::CallbackBase" }
%"class.base::RepeatingCallback.311" = type { %"class.base::internal::CallbackBaseCopyable" }
%"class.mojo::StructPtr.622" = type { %"class.std::__1::unique_ptr.623" }
%"class.std::__1::unique_ptr.623" = type { %"class.std::__1::__compressed_pair.624" }
%"class.std::__1::__compressed_pair.624" = type { %"struct.std::__1::__compressed_pair_elem.625" }
%"struct.std::__1::__compressed_pair_elem.625" = type { %"class.network::mojom::CertVerifierServiceRemoteParams"* }
%"class.network::mojom::CertVerifierServiceRemoteParams" = type { %"class.mojo::PendingRemote.626" }
%"class.mojo::PendingRemote.626" = type { %"struct.mojo::internal::PendingRemoteState" }
%"class.mojo::InlinedStructPtr.630" = type { %"class.cert_verifier::mojom::CertVerifierCreationParams", i32 }
%"class.cert_verifier::mojom::CertVerifierCreationParams" = type { i8 }
%"class.mojo::PendingReceiver.729" = type { %"struct.mojo::internal::PendingReceiverState" }
%"class.mojo::PendingReceiver.738" = type { %"struct.mojo::internal::PendingReceiverState" }
%"class.mojo::internal::InterfacePtrState.731" = type { %"class.mojo::internal::InterfacePtrStateBase.base", %"class.std::__1::unique_ptr.732" }
%"class.std::__1::unique_ptr.732" = type { %"class.std::__1::__compressed_pair.733" }
%"class.std::__1::__compressed_pair.733" = type { %"struct.std::__1::__compressed_pair_elem.734" }
%"struct.std::__1::__compressed_pair_elem.734" = type { %"class.cert_verifier::mojom::CertVerifierServiceFactoryProxy"* }
%"class.cert_verifier::mojom::CertVerifierServiceFactoryProxy" = type { %"class.cert_verifier::mojom::CertVerifierServiceFactory", %"class.mojo::MessageReceiverWithResponder"* }
%"class.mojo::Remote.730" = type { %"class.mojo::internal::InterfacePtrState.731" }
%"class.cert_verifier::CertVerifierServiceFactoryImpl" = type { %"class.cert_verifier::mojom::CertVerifierServiceFactory", %"class.mojo::Receiver.749" }
%"class.mojo::Receiver.749" = type { %"class.mojo::internal::BindingState.750" }
%"class.mojo::internal::BindingState.750" = type { %"class.mojo::internal::BindingStateBase", %"class.cert_verifier::mojom::CertVerifierServiceFactoryStub" }
%"class.cert_verifier::mojom::CertVerifierServiceFactoryStub" = type { %"class.mojo::MessageReceiverWithResponderStatus", %"class.cert_verifier::mojom::CertVerifierServiceFactory"* }
%struct.MojoCreateMessagePipeOptions = type { i32, i32 }
%"struct.std::__1::__list_node" = type { %"struct.std::__1::__list_node_base.292", %"class.base::RepeatingCallback.115" }
%"class.base::RepeatingCallback.667" = type { %"class.base::internal::CallbackBaseCopyable" }
%"class.std::__1::__basic_string_common" = type { i8 }
%"class.std::__1::tuple.682" = type { %"struct.std::__1::__tuple_impl.683" }
%"struct.std::__1::__tuple_impl.683" = type { %"class.std::__1::__tuple_leaf.684" }
%"class.std::__1::__tuple_leaf.684" = type { %"class.std::__1::basic_string"* }
%"class.std::__1::tuple.685" = type { i8 }
%"class.service_manager::InterfaceBinder" = type { i32 (...)** }
%"class.std::__1::__tree_node" = type { %"class.std::__1::__tree_node_base.base", %"struct.std::__1::__value_type" }
%"class.std::__1::__tree_node_base.base" = type <{ %"class.std::__1::__tree_end_node", %"class.std::__1::__tree_node_base"*, %"class.std::__1::__tree_end_node"*, i8 }>
%"struct.std::__1::__value_type" = type { %"struct.std::__1::pair.680" }
%"struct.std::__1::pair.680" = type { %"class.std::__1::basic_string", %"class.std::__1::unique_ptr.668" }
%"class.std::__1::unique_ptr.668" = type { %"class.std::__1::__compressed_pair.669" }
%"class.std::__1::__compressed_pair.669" = type { %"struct.std::__1::__compressed_pair_elem.670" }
%"struct.std::__1::__compressed_pair_elem.670" = type { %"class.service_manager::InterfaceBinder"* }
%"class.service_manager::CallbackBinder" = type { %"class.service_manager::InterfaceBinder", %"class.base::RepeatingCallback.667", %class.scoped_refptr.1 }
%"class.mojo::PendingReceiver.691" = type { %"struct.mojo::internal::PendingReceiverState" }
%"class.std::__1::__vector_base_common" = type { i8 }
%"class.logging::CheckError" = type { %"class.logging::LogMessage"* }
%"class.mojo::PendingRemote.759" = type { %"struct.mojo::internal::PendingRemoteState" }
%"class.mojo::PassThroughFilter" = type { %"class.mojo::MessageReceiver" }
%"class.std::__1::basic_ostream<char, std::__1::char_traits<char> >::sentry" = type { i8, %"class.std::__1::basic_ostream"* }
%"class.std::__1::locale::facet" = type { %"class.std::__1::__shared_count" }
%"class.std::__1::__shared_count" = type { i32 (...)**, i64 }
%"class.std::__1::ctype" = type <{ %"class.std::__1::locale::facet", i16*, i8, [7 x i8] }>
%"class.mojo::PendingRemote.766" = type { %"struct.mojo::internal::PendingRemoteState" }
%"class.std::__1::__list_iterator" = type { %"struct.std::__1::__list_node_base.292"* }
%"class.std::__1::unique_ptr.802" = type { %"class.std::__1::__compressed_pair.803" }
%"class.std::__1::__compressed_pair.803" = type { %"struct.std::__1::__compressed_pair_elem.804" }
%"struct.std::__1::__compressed_pair_elem.804" = type { %"class.network::NetworkConnectionTracker"** }

$_ZN7content18ServiceProcessHost6LaunchIN7network5mojom14NetworkServiceEEEvN4mojo15PendingReceiverIT_EENS0_7OptionsE = comdat any

$_ZN4base8internal16CallbackListBaseINS_21RepeatingCallbackListIFvvEEEE3AddENS_17RepeatingCallbackIS3_EE = comdat any

$_ZN4base8internal16CallbackListBaseINS_21RepeatingCallbackListIFvvEEEE6NotifyIJEEEvDpOT_ = comdat any

$_ZNSt3__14listIN4base17RepeatingCallbackIFvvEEENS_9allocatorIS4_EEE9remove_ifIZNS1_8internal16CallbackListBaseINS1_21RepeatingCallbackListIS3_EEE6NotifyIJEEEvDpOT_EUlTyRKT_E_EEvSI_ = comdat any

$_ZN4base8internal7InvokerINS0_9BindStateIPFvN4mojo15PendingReceiverIN7network5mojom14NetworkServiceEEEEJS8_EEEFvvEE7RunOnceEPNS0_13BindStateBaseE = comdat any

$_ZN4base8internal9BindStateIPFvN4mojo15PendingReceiverIN7network5mojom14NetworkServiceEEEEJS7_EE7DestroyEPKNS0_13BindStateBaseE = comdat any

$_ZN15service_manager22BinderRegistryWithArgsIJEE12AddInterfaceIN7network5mojom18NetworkServiceTestEEEvRKN4base17RepeatingCallbackIFvN4mojo15PendingReceiverIT_EEEEERK13scoped_refptrINS6_19SequencedTaskRunnerEE = comdat any

$_ZNSt3__16__treeINS_12__value_typeINS_12basic_stringIcNS_11char_traitsIcEENS_9allocatorIcEEEENS_10unique_ptrIN15service_manager15InterfaceBinderIJEEENS_14default_deleteISB_EEEEEENS_19__map_value_compareIS7_SF_NS_4lessIS7_EELb1EEENS5_ISF_EEE4findIS7_EENS_15__tree_iteratorISF_PNS_11__tree_nodeISF_PvEElEERKT_ = comdat any

$_ZNSt3__16__treeINS_12__value_typeINS_12basic_stringIcNS_11char_traitsIcEENS_9allocatorIcEEEENS_10unique_ptrIN15service_manager15InterfaceBinderIJEEENS_14default_deleteISB_EEEEEENS_19__map_value_compareIS7_SF_NS_4lessIS7_EELb1EEENS5_ISF_EEE5eraseENS_21__tree_const_iteratorISF_PNS_11__tree_nodeISF_PvEElEE = comdat any

$_ZNSt3__113__tree_removeIPNS_16__tree_node_baseIPvEEEEvT_S5_ = comdat any

$_ZNSt3__16__treeINS_12__value_typeINS_12basic_stringIcNS_11char_traitsIcEENS_9allocatorIcEEEENS_10unique_ptrIN15service_manager15InterfaceBinderIJEEENS_14default_deleteISB_EEEEEENS_19__map_value_compareIS7_SF_NS_4lessIS7_EELb1EEENS5_ISF_EEE25__emplace_unique_key_argsIS7_JRKNS_21piecewise_construct_tENS_5tupleIJRKS7_EEENSQ_IJEEEEEENS_4pairINS_15__tree_iteratorISF_PNS_11__tree_nodeISF_PvEElEEbEERKT_DpOT0_ = comdat any

$_ZNSt3__16__treeINS_12__value_typeINS_12basic_stringIcNS_11char_traitsIcEENS_9allocatorIcEEEENS_10unique_ptrIN15service_manager15InterfaceBinderIJEEENS_14default_deleteISB_EEEEEENS_19__map_value_compareIS7_SF_NS_4lessIS7_EELb1EEENS5_ISF_EEE12__find_equalIS7_EERPNS_16__tree_node_baseIPvEERPNS_15__tree_end_nodeISQ_EERKT_ = comdat any

$_ZNSt3__127__tree_balance_after_insertIPNS_16__tree_node_baseIPvEEEEvT_S5_ = comdat any

$_ZN15service_manager14CallbackBinderIN7network5mojom18NetworkServiceTestEJEED2Ev = comdat any

$_ZN15service_manager14CallbackBinderIN7network5mojom18NetworkServiceTestEJEED0Ev = comdat any

$_ZN15service_manager14CallbackBinderIN7network5mojom18NetworkServiceTestEJEE13BindInterfaceERKNSt3__112basic_stringIcNS5_11char_traitsIcEENS5_9allocatorIcEEEEN4mojo16ScopedHandleBaseINSE_17MessagePipeHandleEEE = comdat any

$_ZN15service_manager14CallbackBinderIN7network5mojom18NetworkServiceTestEJEE11RunCallbackERKN4base17RepeatingCallbackIFvN4mojo15PendingReceiverIS3_EEEEES9_ = comdat any

$_ZN4base8internal7InvokerINS0_9BindStateIPFvRKNS_17RepeatingCallbackIFvN4mojo15PendingReceiverIN7network5mojom18NetworkServiceTestEEEEEES9_EJSB_S9_EEEFvvEE7RunOnceEPNS0_13BindStateBaseE = comdat any

$_ZN4base8internal9BindStateIPFvRKNS_17RepeatingCallbackIFvN4mojo15PendingReceiverIN7network5mojom18NetworkServiceTestEEEEEES8_EJSA_S8_EE7DestroyEPKNS0_13BindStateBaseE = comdat any

$_ZN4base8internal7InvokerINS0_9BindStateIZNS_9DoNothing10RepeatedlyIJN4mojo15PendingReceiverIN7network5mojom18NetworkServiceTestEEEEEENS_17RepeatingCallbackIFvDpT_EEEvEUlSA_E_JEEEFvSA_EE3RunEPNS0_13BindStateBaseEOSA_ = comdat any

$_ZN4base8internal9BindStateIZNS_9DoNothing10RepeatedlyIJN4mojo15PendingReceiverIN7network5mojom18NetworkServiceTestEEEEEENS_17RepeatingCallbackIFvDpT_EEEvEUlS9_E_JEE7DestroyEPKNS0_13BindStateBaseE = comdat any

$_ZZN4base24SequenceLocalStorageSlotINSt3__110unique_ptrIN7network14NetworkServiceENS1_14default_deleteIS4_EEEENS5_IS7_EEE5AdoptEPS7_ENUlPvE_8__invokeESB_ = comdat any

$_ZNSt3__16vectorIN4mojo16InlinedStructPtrIN7network5mojom19EnvironmentVariableEEENS_9allocatorIS6_EEE21__push_back_slow_pathIS6_EEvOT_ = comdat any

$_ZNSt3__14swapIN7network5mojom19EnvironmentVariableEEENS_9enable_ifIXaasr21is_move_constructibleIT_EE5valuesr18is_move_assignableIS5_EE5valueEvE4typeERS5_S8_ = comdat any

$_ZN4mojo16InlinedStructPtrIN7network5mojom19EnvironmentVariableEEC2IJRA11_KcRNSt3__112basic_stringIcNS9_11char_traitsIcEENS9_9allocatorIcEEEEEEEN4base10in_place_tEDpOT_ = comdat any

$_ZN4mojo16InlinedStructPtrIN7network5mojom19EnvironmentVariableEEC2IJRA12_KcRNSt3__112basic_stringIcNS9_11char_traitsIcEENS9_9allocatorIcEEEEEEEN4base10in_place_tEDpOT_ = comdat any

$_ZZN4base24SequenceLocalStorageSlotIN4mojo6RemoteIN13cert_verifier5mojom26CertVerifierServiceFactoryEEENSt3__114default_deleteIS6_EEE5AdoptEPS6_ENUlPvE_8__invokeESC_ = comdat any

$_ZZN4base24SequenceLocalStorageSlotINSt3__110unique_ptrIN13cert_verifier30CertVerifierServiceFactoryImplENS1_14default_deleteIS4_EEEENS5_IS7_EEE5AdoptEPS7_ENUlPvE_8__invokeESB_ = comdat any

$_ZN4mojo6RemoteIN13cert_verifier5mojom26CertVerifierServiceFactoryEE26BindNewPipeAndPassReceiverE13scoped_refptrIN4base19SequencedTaskRunnerEE = comdat any

$_ZN4mojo6RemoteIN13cert_verifier5mojom26CertVerifierServiceFactoryEE4BindENS_13PendingRemoteIS3_EE13scoped_refptrIN4base19SequencedTaskRunnerEE = comdat any

$_ZN4mojo8internal17InterfacePtrStateIN13cert_verifier5mojom26CertVerifierServiceFactoryEE25ConfigureProxyIfNecessaryEv = comdat any

$_ZNSt3__124__put_character_sequenceIcNS_11char_traitsIcEEEERNS_13basic_ostreamIT_T0_EES7_PKS4_m = comdat any

$_ZNSt3__116__pad_and_outputIcNS_11char_traitsIcEEEENS_19ostreambuf_iteratorIT_T0_EES6_PKS4_S8_S8_RNS_8ios_baseES4_ = comdat any

$_ZN4mojo6RemoteIN7network5mojom14NetworkServiceEE26BindNewPipeAndPassReceiverE13scoped_refptrIN4base19SequencedTaskRunnerEE = comdat any

$_ZN4mojo6RemoteIN7network5mojom14NetworkServiceEE4BindENS_13PendingRemoteIS3_EE13scoped_refptrIN4base19SequencedTaskRunnerEE = comdat any

$_ZN4mojo8internal17InterfacePtrStateIN7network5mojom14NetworkServiceEE28set_connection_error_handlerEN4base12OnceCallbackIFvvEEE = comdat any

$_ZN4base8internal7InvokerINS0_9BindStateIPFvvEJEEES3_E7RunOnceEPNS0_13BindStateBaseE = comdat any

$_ZN4base8internal9BindStateIPFvvEJEE7DestroyEPKNS0_13BindStateBaseE = comdat any

$_ZN4base8internal7InvokerINS0_9BindStateIPFvN4mojo15PendingReceiverIN7network5mojom14NetworkServiceEEEPNS_13WaitableEventEEJS8_NS0_17UnretainedWrapperIS9_EEEEEFvvEE7RunOnceEPNS0_13BindStateBaseE = comdat any

$_ZN4base8internal9BindStateIPFvN4mojo15PendingReceiverIN7network5mojom14NetworkServiceEEEPNS_13WaitableEventEEJS7_NS0_17UnretainedWrapperIS8_EEEE7DestroyEPKNS0_13BindStateBaseE = comdat any

$_ZN4mojo8internal17InterfacePtrStateIN7network5mojom14NetworkServiceEE12QueryVersionEN4base12OnceCallbackIFvjEEE = comdat any

$_ZN4base8internal16CallbackListBaseINS_21RepeatingCallbackListIFvvEEEE14CancelCallbackERKNSt3__115__list_iteratorINS_17RepeatingCallbackIS3_EEPvEE = comdat any

$_ZN4base8internal7InvokerINS0_9BindStateIMNS0_16CallbackListBaseINS_21RepeatingCallbackListIFvvEEEEEFvRKNSt3__115__list_iteratorINS_17RepeatingCallbackIS5_EEPvEEEJNS_7WeakPtrIS7_EESD_EEES5_E7RunOnceEPNS0_13BindStateBaseE = comdat any

$_ZN4base8internal9BindStateIMNS0_16CallbackListBaseINS_21RepeatingCallbackListIFvvEEEEEFvRKNSt3__115__list_iteratorINS_17RepeatingCallbackIS4_EEPvEEEJNS_7WeakPtrIS6_EESC_EE7DestroyEPKNS0_13BindStateBaseE = comdat any

$_ZN4base8internal23QueryCancellationTraitsINS0_9BindStateIMNS0_16CallbackListBaseINS_21RepeatingCallbackListIFvvEEEEEFvRKNSt3__115__list_iteratorINS_17RepeatingCallbackIS5_EEPvEEEJNS_7WeakPtrIS7_EESD_EEEEEbPKNS0_13BindStateBaseENSL_21CancellationQueryModeE = comdat any

$_ZN4mojo8internal17InterfacePtrStateIN7network5mojom14NetworkServiceEE15FlushForTestingEv = comdat any

$_ZN4base8internal7InvokerINS0_9BindStateIPFvN4mojo15PendingReceiverIN7network5mojom20NetworkChangeManagerEEEEJEEES9_E3RunEPNS0_13BindStateBaseEOS8_ = comdat any

$_ZN4base8internal9BindStateIPFvN4mojo15PendingReceiverIN7network5mojom20NetworkChangeManagerEEEEJEE7DestroyEPKNS0_13BindStateBaseE = comdat any

$_ZN4base8internal7InvokerINS0_9BindStateIPFPN7network24NetworkConnectionTrackerEvEJEEES6_E7RunOnceEPNS0_13BindStateBaseE = comdat any

$_ZN4base8internal9BindStateIPFPN7network24NetworkConnectionTrackerEvEJEE7DestroyEPKNS0_13BindStateBaseE = comdat any

$_ZN4base8internal20ReturnAsParamAdapterIPN7network24NetworkConnectionTrackerEEEvNS_12OnceCallbackIFT_vEEEPNSt3__110unique_ptrIS6_NS9_14default_deleteIS6_EEEE = comdat any

$_ZN4base8internal12ReplyAdapterIPN7network24NetworkConnectionTrackerES4_EEvNS_12OnceCallbackIFvT0_EEEPNSt3__110unique_ptrIT_NS9_14default_deleteISB_EEEE = comdat any

$_ZN4base8internal7InvokerINS0_9BindStateIPFvNS_12OnceCallbackIFPN7network24NetworkConnectionTrackerEvEEEPNSt3__110unique_ptrIS6_NS9_14default_deleteIS6_EEEEEJS8_SE_EEEFvvEE7RunOnceEPNS0_13BindStateBaseE = comdat any

$_ZN4base8internal9BindStateIPFvNS_12OnceCallbackIFPN7network24NetworkConnectionTrackerEvEEEPNSt3__110unique_ptrIS5_NS8_14default_deleteIS5_EEEEEJS7_SD_EE7DestroyEPKNS0_13BindStateBaseE = comdat any

$_ZN4base8internal7InvokerINS0_9BindStateIPFvNS_12OnceCallbackIFvPN7network24NetworkConnectionTrackerEEEEPNSt3__110unique_ptrIS6_NS9_14default_deleteIS6_EEEEEJS8_NS0_12OwnedWrapperISD_NSB_ISD_EEEEEEEFvvEE7RunOnceEPNS0_13BindStateBaseE = comdat any

$_ZN4base8internal9BindStateIPFvNS_12OnceCallbackIFvPN7network24NetworkConnectionTrackerEEEEPNSt3__110unique_ptrIS5_NS8_14default_deleteIS5_EEEEEJS7_NS0_12OwnedWrapperISC_NSA_ISC_EEEEEE7DestroyEPKNS0_13BindStateBaseE = comdat any

$_ZN4base8internal7InvokerINS0_9BindStateIPFvNS_12OnceCallbackIFvPN7network24NetworkConnectionTrackerEEEEEJEEES9_E3RunEPNS0_13BindStateBaseEOS8_ = comdat any

$_ZN4base8internal9BindStateIPFvNS_12OnceCallbackIFvPN7network24NetworkConnectionTrackerEEEEEJEE7DestroyEPKNS0_13BindStateBaseE = comdat any

$_ZN4base12DeleteHelperIN7network14NetworkServiceEE8DoDeleteEPKv = comdat any

$_ZTVN15service_manager14CallbackBinderIN7network5mojom18NetworkServiceTestEJEEE = comdat any

@_ZN7content12_GLOBAL__N_124g_network_service_remoteE = internal unnamed_addr global %"class.mojo::Remote"* null, align 8
@_ZN7content12_GLOBAL__N_139g_force_create_network_service_directlyE = internal unnamed_addr global i1 false, align 1
@.str = private unnamed_addr constant [55 x i8] c"../../content/browser/network_service_instance_impl.cc\00", align 1
@.str.2 = private unnamed_addr constant [45 x i8] c"Network service crashed, restarting service.\00", align 1
@.ref.tmp = private constant { %"struct.base::TaskTraitsExtensionStorage", i8, i8, i8, i8, i8, i8 } { %"struct.base::TaskTraitsExtensionStorage" zeroinitializer, i8 2, i8 1, i8 0, i8 0, i8 0, i8 0 }, align 1
@.str.4 = private unnamed_addr constant [18 x i8] c"GetNetworkService\00", align 1
@_ZN7content12_GLOBAL__N_18g_clientE = internal unnamed_addr global %"class.content::NetworkServiceClient"* null, align 8
@_ZN7content12_GLOBAL__N_131g_network_service_is_respondingE = internal unnamed_addr global i1 false, align 1
@_ZN7network8switches10kLogNetLogE = external constant [0 x i8], align 1
@.str.5 = private unnamed_addr constant [24 x i8] c"Failed opening NetLog: \00", align 1
@_ZN7network8switches14kSSLKeyLogFileE = external constant [0 x i8], align 1
@_ZN7contentL23kSSLKeyLogFileHistogramE = internal constant [21 x i8] c"Net.SSLKeyLogFileUse\00", align 16
@.str.6 = private unnamed_addr constant [34 x i8] c"ssl-key-log-file argument missing\00", align 1
@.str.7 = private unnamed_addr constant [14 x i8] c"SSLKEYLOGFILE\00", align 1
@.str.8 = private unnamed_addr constant [34 x i8] c"Failed opening SSL key log file: \00", align 1
@_ZN7content12_GLOBAL__N_128g_network_connection_trackerE = internal unnamed_addr global %"class.network::NetworkConnectionTracker"* null, align 8
@.ref.tmp.9 = private constant { %"struct.base::TaskTraitsExtensionStorage", i8, i8, i8, i8, i8, i8 } { %"struct.base::TaskTraitsExtensionStorage" zeroinitializer, i8 0, i8 1, i8 0, i8 0, i8 0, i8 0 }, align 1
@.str.10 = private unnamed_addr constant [40 x i8] c"GetNetworkConnectionTrackerFromUIThread\00", align 1
@_ZN7content12_GLOBAL__N_121g_in_process_instanceE = internal unnamed_addr global %"class.network::NetworkService"* null, align 8
@.str.11 = private unnamed_addr constant [23 x i8] c"ShutDownNetworkService\00", align 1
@_ZN7content12_GLOBAL__N_143g_cert_verifier_service_factory_for_testingE = internal unnamed_addr global %"class.cert_verifier::mojom::CertVerifierServiceFactory"* null, align 8
@_ZN7sandbox6policy8features22kNetworkServiceSandboxE = external global %"struct.base::Feature", align 8
@_ZN7content12_GLOBAL__N_130kNetworkServiceDedicatedThreadE = internal constant %"struct.base::Feature" { i8* getelementptr inbounds ([30 x i8], [30 x i8]* @.str.14, i32 0, i32 0), i32 1 }, align 8
@.ref.tmp.12 = private constant { %"struct.base::TaskTraitsExtensionStorage", i8, i8, i8, i8, i8, i8 } { %"struct.base::TaskTraitsExtensionStorage" zeroinitializer, i8 2, i8 1, i8 0, i8 0, i8 0, i8 0 }, align 1
@.str.13 = private unnamed_addr constant [30 x i8] c"CreateInProcessNetworkService\00", align 1
@.str.14 = private unnamed_addr constant [30 x i8] c"NetworkServiceDedicatedThread\00", align 1
@_ZZN7content12_GLOBAL__N_132GetNetworkServiceDedicatedThreadEvE6thread = internal global %"class.base::NoDestructor" zeroinitializer, align 8
@_ZGVZN7content12_GLOBAL__N_132GetNetworkServiceDedicatedThreadEvE6thread = internal global i64 0, align 8
@.str.15 = private unnamed_addr constant [15 x i8] c"NetworkService\00", align 1
@_ZN7network5mojom18NetworkServiceTest5Name_E = external constant [0 x i8], align 1
@_ZNSt3__1L19piecewise_constructE = internal constant %"struct.std::__1::piecewise_construct_t" undef, align 1
@_ZTVN15service_manager14CallbackBinderIN7network5mojom18NetworkServiceTestEJEEE = linkonce_odr hidden unnamed_addr constant { [5 x i8*] } { [5 x i8*] [i8* null, i8* null, i8* bitcast (void (%"class.service_manager::CallbackBinder"*)* @_ZN15service_manager14CallbackBinderIN7network5mojom18NetworkServiceTestEJEED2Ev to i8*), i8* bitcast (void (%"class.service_manager::CallbackBinder"*)* @_ZN15service_manager14CallbackBinderIN7network5mojom18NetworkServiceTestEJEED0Ev to i8*), i8* bitcast (void (%"class.service_manager::CallbackBinder"*, %"class.std::__1::basic_string"*, %"class.mojo::ScopedHandleBase"*)* @_ZN15service_manager14CallbackBinderIN7network5mojom18NetworkServiceTestEJEE13BindInterfaceERKNSt3__112basic_stringIcNS5_11char_traitsIcEENS5_9allocatorIcEEEEN4mojo16ScopedHandleBaseINSE_17MessagePipeHandleEEE to i8*)] }, comdat, align 8
@.str.17 = private unnamed_addr constant [14 x i8] c"BindInterface\00", align 1
@.str.18 = private unnamed_addr constant [61 x i8] c"../../services/service_manager/public/cpp/interface_binder.h\00", align 1
@_ZZN7content12_GLOBAL__N_122GetLocalNetworkServiceEvE7service = internal unnamed_addr global %"class.base::NoDestructor.710" zeroinitializer, align 4
@_ZGVZN7content12_GLOBAL__N_122GetLocalNetworkServiceEvE7service = internal global i64 0, align 8
@_ZN7content12_GLOBAL__N_114kKrb5CCEnvNameE = internal constant [11 x i8] c"KRB5CCNAME\00", align 1
@_ZN7content12_GLOBAL__N_116kKrb5ConfEnvNameE = internal constant [12 x i8] c"KRB5_CONFIG\00", align 1
@.str.21 = private unnamed_addr constant [17 x i8] c"BlockingOpenFile\00", align 1
@_ZN7network8switches18kNetLogCaptureModeE = external constant [0 x i8], align 1
@.str.22 = private unnamed_addr constant [8 x i8] c"Default\00", align 1
@.str.23 = private unnamed_addr constant [17 x i8] c"IncludeSensitive\00", align 1
@.str.24 = private unnamed_addr constant [11 x i8] c"Everything\00", align 1
@.str.25 = private unnamed_addr constant [29 x i8] c"IncludeCookiesAndCredentials\00", align 1
@.str.26 = private unnamed_addr constant [24 x i8] c"Deprecated value for --\00", align 1
@.str.27 = private unnamed_addr constant [31 x i8] c". Use IncludeSensitive instead\00", align 1
@.str.28 = private unnamed_addr constant [19 x i8] c"IncludeSocketBytes\00", align 1
@.str.29 = private unnamed_addr constant [25 x i8] c". Use Everything instead\00", align 1
@.str.30 = private unnamed_addr constant [26 x i8] c"Unrecognized value for --\00", align 1
@_ZZN7content12_GLOBAL__N_120GetCrashHandlersListEvE6s_list = internal global %"class.base::NoDestructor.727" zeroinitializer, align 16
@_ZGVZN7content12_GLOBAL__N_120GetCrashHandlersListEvE6s_list = internal global i64 0, align 8
@_ZZN7content12_GLOBAL__N_127GetNetworkTaskRunnerStorageEvE7storage = internal global %"class.base::NoDestructor.728" zeroinitializer, align 8
@_ZGVZN7content12_GLOBAL__N_127GetNetworkTaskRunnerStorageEvE7storage = internal global i64 0, align 8
@_ZZN7content12_GLOBAL__N_142GetCertVerifierServiceFactoryRemoteStorageEvE36cert_verifier_service_factory_remote = internal unnamed_addr global %"class.base::NoDestructor.739" zeroinitializer, align 4
@_ZGVZN7content12_GLOBAL__N_142GetCertVerifierServiceFactoryRemoteStorageEvE36cert_verifier_service_factory_remote = internal global i64 0, align 8
@_ZZN7content12_GLOBAL__N_138RunInProcessCertVerifierServiceFactoryEN4mojo15PendingReceiverIN13cert_verifier5mojom26CertVerifierServiceFactoryEEEE20service_factory_slot = internal unnamed_addr global %"class.base::NoDestructor.745" zeroinitializer, align 4
@_ZGVZN7content12_GLOBAL__N_138RunInProcessCertVerifierServiceFactoryEN4mojo15PendingReceiverIN13cert_verifier5mojom26CertVerifierServiceFactoryEEEE20service_factory_slot = internal global i64 0, align 8
@_ZN13cert_verifier5mojom26CertVerifierServiceFactory5Name_E = external constant [0 x i8], align 1
@_ZNSt3__15ctypeIcE2idE = external global %"class.std::__1::locale::id", align 8
@_ZN7network5mojom14NetworkService5Name_E = external constant [0 x i8], align 1
@_ZTVN7network5mojom31NetworkServiceResponseValidatorE = external unnamed_addr constant { [6 x i8*] }, align 8
@.str.32 = private unnamed_addr constant [35 x i8] c"NetworkService.TimeToFirstResponse\00", align 1
@.str.33 = private unnamed_addr constant [45 x i8] c"NetworkService.TimeToFirstResponse.OnStartup\00", align 1
@.str.34 = private unnamed_addr constant [46 x i8] c"NetworkService.TimeToFirstResponse.AfterCrash\00", align 1
@.str.35 = private unnamed_addr constant [29 x i8] c"../../base/memory/weak_ptr.h\00", align 1
@.str.36 = private unnamed_addr constant [15 x i8] c"ref_.IsValid()\00", align 1
@_ZN7content12_GLOBAL__N_128g_last_network_service_crashE.0 = internal unnamed_addr global i64 0, align 8
@_ZZN7content17GetNetworkServiceEvE24atomic_histogram_pointer.0.0.0.0.0 = internal unnamed_addr global i64 0, align 8
@_ZZN7content17GetNetworkServiceEvE24atomic_histogram_pointer_0.0.0.0.0.0 = internal unnamed_addr global i64 0, align 8
@_ZZN7content17GetNetworkServiceEvE24atomic_histogram_pointer_1.0.0.0.0.0 = internal unnamed_addr global i64 0, align 8
@"_ZZZN7content17GetNetworkServiceEvENK3$_0clEN4base4TimeEjE24atomic_histogram_pointer.0.0.0.0.0" = internal unnamed_addr global i64 0, align 8
@"_ZZZN7content17GetNetworkServiceEvENK3$_0clEN4base4TimeEjE24atomic_histogram_pointer_0.0.0.0.0.0" = internal unnamed_addr global i64 0, align 8
@"_ZZZN7content17GetNetworkServiceEvENK3$_0clEN4base4TimeEjE24atomic_histogram_pointer_1.0.0.0.0.0" = internal unnamed_addr global i64 0, align 8

; Function Attrs: nounwind ssp uwtable
define hidden %"class.network::mojom::NetworkService"* @_ZN7content17GetNetworkServiceEv() local_unnamed_addr #0 {
  %1 = alloca %"class.base::ScopedAllowBlocking", align 1
  %2 = alloca %"class.base::Location", align 8
  %3 = alloca %"class.std::__1::basic_string", align 8
  %4 = alloca %"class.logging::LogMessage", align 8
  %5 = alloca %"class.logging::LogMessage", align 8
  %6 = alloca %"class.logging::LogMessage", align 8
  %7 = alloca %"class.base::ScopedAllowBlocking", align 1
  %8 = alloca %"class.base::Location", align 8
  %9 = alloca %"class.base::OnceCallback.237", align 8
  %10 = alloca %"class.mojo::PendingRemote", align 4
  %11 = alloca %"class.std::__1::basic_string", align 8
  %12 = alloca %"class.mojo::InlinedStructPtr", align 8
  %13 = alloca %"class.mojo::InlinedStructPtr", align 8
  %14 = alloca %"class.std::__1::basic_string", align 8
  %15 = alloca %"class.std::__1::basic_string", align 8
  %16 = alloca %"struct.base::Thread::Options", align 8
  %17 = alloca %"class.base::Location", align 8
  %18 = alloca %"class.base::OnceCallback", align 8
  %19 = alloca %"class.base::OnceCallback", align 8
  %20 = alloca %"class.mojo::internal::InterfacePtrState", align 8
  %21 = alloca %"class.mojo::PendingReceiver", align 8
  %22 = alloca %"class.mojo::PendingReceiver", align 8
  %23 = alloca %"class.base::OnceCallback", align 8
  %24 = alloca %"class.mojo::PendingReceiver", align 8
  %25 = alloca %"class.logging::LogMessage", align 8
  %26 = alloca %"class.mojo::PendingReceiver", align 8
  %27 = alloca %"struct.content::ServiceProcessHost::Options", align 8
  %28 = alloca %"struct.content::ServiceProcessHost::Options", align 8
  %29 = alloca %"class.std::__1::basic_string.174", align 8
  %30 = alloca %"class.mojo::PendingReceiver", align 8
  %31 = alloca %"class.base::WaitableEvent", align 8
  %32 = alloca %"class.base::Location", align 8
  %33 = alloca %"class.base::OnceCallback", align 8
  %34 = alloca %"class.mojo::PendingReceiver", align 8
  %35 = alloca %"class.mojo::StructPtr", align 8
  %36 = alloca %"class.base::OnceCallback.237", align 8
  %37 = alloca %"class.base::FilePath", align 8
  %38 = alloca %"class.base::File", align 8
  %39 = alloca %"class.logging::LogMessage", align 8
  %40 = alloca %"class.base::File", align 8
  %41 = alloca %"class.base::Value", align 8
  %42 = alloca %"class.base::DictionaryValue", align 8
  %43 = alloca %"class.base::FilePath", align 8
  %44 = alloca %"class.base::FilePath", align 8
  %45 = alloca %"class.logging::LogMessage", align 8
  %46 = alloca %"class.std::__1::basic_string", align 8
  %47 = alloca %"class.base::FilePath", align 8
  %48 = alloca %"class.base::File", align 8
  %49 = alloca %"class.logging::LogMessage", align 8
  %50 = alloca %"class.base::File", align 8
  %51 = load %"class.mojo::Remote"*, %"class.mojo::Remote"** @_ZN7content12_GLOBAL__N_124g_network_service_remoteE, align 8
  %52 = icmp eq %"class.mojo::Remote"* %51, null
  br i1 %52, label %53, label %59

53:                                               ; preds = %0
  %54 = tail call i8* @_Znwm(i64 48) #15
  %55 = bitcast i8* %54 to %"class.mojo::internal::InterfacePtrStateBase"*
  tail call void @_ZN4mojo8internal21InterfacePtrStateBaseC2Ev(%"class.mojo::internal::InterfacePtrStateBase"* nonnull %55) #16
  %56 = getelementptr inbounds i8, i8* %54, i64 40
  %57 = bitcast i8* %56 to i64*
  store i64 0, i64* %57, align 8
  store i8* %54, i8** bitcast (%"class.mojo::Remote"** @_ZN7content12_GLOBAL__N_124g_network_service_remoteE to i8**), align 8
  %58 = bitcast i8* %54 to %"class.mojo::Remote"*
  br label %59

59:                                               ; preds = %0, %53
  %60 = phi %"class.mojo::Remote"* [ %51, %0 ], [ %58, %53 ]
  %61 = getelementptr inbounds %"class.mojo::Remote", %"class.mojo::Remote"* %60, i64 0, i32 0, i32 0, i32 2, i32 0, i32 0, i32 0
  %62 = load i32, i32* %61, align 4
  %63 = icmp eq i32 %62, 0
  %64 = getelementptr inbounds %"class.mojo::Remote", %"class.mojo::Remote"* %60, i64 0, i32 0, i32 0, i32 1, i32 0, i32 0, i32 0
  %65 = load %"class.mojo::InterfaceEndpointClient"*, %"class.mojo::InterfaceEndpointClient"** %64, align 8
  %66 = icmp eq %"class.mojo::InterfaceEndpointClient"* %65, null
  br i1 %63, label %67, label %68

67:                                               ; preds = %59
  br i1 %66, label %74, label %69

68:                                               ; preds = %59
  br i1 %66, label %833, label %69

69:                                               ; preds = %67, %68
  %70 = getelementptr inbounds %"class.mojo::InterfaceEndpointClient", %"class.mojo::InterfaceEndpointClient"* %65, i64 0, i32 19
  %71 = load i8, i8* %70, align 8, !range !2
  %72 = icmp eq i8 %71, 0
  br i1 %72, label %833, label %73

73:                                               ; preds = %69
  br i1 %63, label %74, label %77

74:                                               ; preds = %67, %73
  %75 = phi %"class.mojo::InterfaceEndpointClient"* [ null, %67 ], [ %65, %73 ]
  %76 = icmp ne %"class.mojo::InterfaceEndpointClient"* %75, null
  br label %77

77:                                               ; preds = %73, %74
  %78 = phi i1 [ true, %73 ], [ %76, %74 ]
  %79 = bitcast %"class.mojo::internal::InterfacePtrState"* %20 to i8*
  call void @llvm.lifetime.start.p0i8(i64 48, i8* nonnull %79) #16
  call void @llvm.memset.p0i8.i64(i8* nonnull align 8 %79, i8 -86, i64 48, i1 false) #16
  %80 = bitcast %"class.mojo::internal::InterfacePtrState"* %20 to %"class.mojo::internal::InterfacePtrStateBase"*
  call void @_ZN4mojo8internal21InterfacePtrStateBaseC2Ev(%"class.mojo::internal::InterfacePtrStateBase"* nonnull %80) #16
  %81 = getelementptr inbounds %"class.mojo::internal::InterfacePtrState", %"class.mojo::internal::InterfacePtrState"* %20, i64 0, i32 1
  %82 = bitcast %"class.std::__1::unique_ptr.162"* %81 to i64*
  %83 = getelementptr inbounds %"class.mojo::Remote", %"class.mojo::Remote"* %60, i64 0, i32 0, i32 1
  %84 = bitcast %"class.std::__1::unique_ptr.162"* %83 to i64*
  %85 = load i64, i64* %84, align 8
  store i64 %85, i64* %82, align 8
  store i64 0, i64* %84, align 8
  %86 = bitcast %"class.mojo::Remote"* %60 to %"class.mojo::internal::InterfacePtrStateBase"*
  call void @_ZN4mojo8internal21InterfacePtrStateBase4SwapEPS1_(%"class.mojo::internal::InterfacePtrStateBase"* %86, %"class.mojo::internal::InterfacePtrStateBase"* nonnull %80) #16
  %87 = getelementptr inbounds %"class.mojo::internal::InterfacePtrState", %"class.mojo::internal::InterfacePtrState"* %20, i64 0, i32 1, i32 0, i32 0, i32 0
  %88 = load %"class.network::mojom::NetworkServiceProxy"*, %"class.network::mojom::NetworkServiceProxy"** %87, align 8
  store %"class.network::mojom::NetworkServiceProxy"* null, %"class.network::mojom::NetworkServiceProxy"** %87, align 8
  %89 = icmp eq %"class.network::mojom::NetworkServiceProxy"* %88, null
  br i1 %89, label %95, label %90

90:                                               ; preds = %77
  %91 = bitcast %"class.network::mojom::NetworkServiceProxy"* %88 to void (%"class.network::mojom::NetworkServiceProxy"*)***
  %92 = load void (%"class.network::mojom::NetworkServiceProxy"*)**, void (%"class.network::mojom::NetworkServiceProxy"*)*** %91, align 8
  %93 = getelementptr inbounds void (%"class.network::mojom::NetworkServiceProxy"*)*, void (%"class.network::mojom::NetworkServiceProxy"*)** %92, i64 1
  %94 = load void (%"class.network::mojom::NetworkServiceProxy"*)*, void (%"class.network::mojom::NetworkServiceProxy"*)** %93, align 8
  call void %94(%"class.network::mojom::NetworkServiceProxy"* nonnull %88) #16
  br label %95

95:                                               ; preds = %77, %90
  call void @_ZN4mojo8internal21InterfacePtrStateBaseD2Ev(%"class.mojo::internal::InterfacePtrStateBase"* nonnull %80) #16
  call void @llvm.lifetime.end.p0i8(i64 48, i8* nonnull %79) #16
  %96 = call %"class.content::ContentClient"* @_ZN7content16GetContentClientEv() #16
  %97 = getelementptr inbounds %"class.content::ContentClient", %"class.content::ContentClient"* %96, i64 0, i32 1
  %98 = load %"class.content::ContentBrowserClient"*, %"class.content::ContentBrowserClient"** %97, align 8
  %99 = bitcast %"class.content::ContentBrowserClient"* %98 to i1 (%"class.content::ContentBrowserClient"*)***
  %100 = load i1 (%"class.content::ContentBrowserClient"*)**, i1 (%"class.content::ContentBrowserClient"*)*** %99, align 8
  %101 = getelementptr inbounds i1 (%"class.content::ContentBrowserClient"*)*, i1 (%"class.content::ContentBrowserClient"*)** %100, i64 6
  %102 = load i1 (%"class.content::ContentBrowserClient"*)*, i1 (%"class.content::ContentBrowserClient"*)** %101, align 8
  %103 = call zeroext i1 %102(%"class.content::ContentBrowserClient"* %98) #16
  br i1 %103, label %104, label %109

104:                                              ; preds = %95
  %105 = bitcast %"class.mojo::PendingReceiver"* %21 to i8*
  call void @llvm.lifetime.start.p0i8(i64 24, i8* nonnull %105) #16
  call void @llvm.memset.p0i8.i64(i8* nonnull align 8 %105, i8 -86, i64 24, i1 false)
  %106 = load %"class.mojo::Remote"*, %"class.mojo::Remote"** @_ZN7content12_GLOBAL__N_124g_network_service_remoteE, align 8
  call void @_ZN4mojo6RemoteIN7network5mojom14NetworkServiceEE26BindNewPipeAndPassReceiverE13scoped_refptrIN4base19SequencedTaskRunnerEE(%"class.mojo::PendingReceiver"* nonnull sret %21, %"class.mojo::Remote"* %106, %"class.base::SequencedTaskRunner"* null) #16
  %107 = getelementptr inbounds %"class.mojo::PendingReceiver", %"class.mojo::PendingReceiver"* %21, i64 0, i32 0, i32 0, i32 0, i32 0, i32 0
  store i32 0, i32* %107, align 8, !noalias !3
  %108 = getelementptr inbounds %"class.mojo::PendingReceiver", %"class.mojo::PendingReceiver"* %21, i64 0, i32 0
  call void @_ZN4mojo8internal20PendingReceiverStateD1Ev(%"struct.mojo::internal::PendingReceiverState"* nonnull %108) #16
  call void @llvm.lifetime.end.p0i8(i64 24, i8* nonnull %105) #16
  br label %833

109:                                              ; preds = %95
  %110 = load i1, i1* @_ZN7content12_GLOBAL__N_139g_force_create_network_service_directlyE, align 1
  br i1 %110, label %262, label %111

111:                                              ; preds = %109
  %112 = bitcast %"class.mojo::PendingReceiver"* %22 to i8*
  call void @llvm.lifetime.start.p0i8(i64 24, i8* nonnull %112) #16
  call void @llvm.memset.p0i8.i64(i8* nonnull align 8 %112, i8 -86, i64 24, i1 false)
  %113 = load %"class.mojo::Remote"*, %"class.mojo::Remote"** @_ZN7content12_GLOBAL__N_124g_network_service_remoteE, align 8
  call void @_ZN4mojo6RemoteIN7network5mojom14NetworkServiceEE26BindNewPipeAndPassReceiverE13scoped_refptrIN4base19SequencedTaskRunnerEE(%"class.mojo::PendingReceiver"* nonnull sret %22, %"class.mojo::Remote"* %113, %"class.base::SequencedTaskRunner"* null) #16
  %114 = load %"class.mojo::Remote"*, %"class.mojo::Remote"** @_ZN7content12_GLOBAL__N_124g_network_service_remoteE, align 8
  %115 = call i8* @_Znwm(i64 48) #15, !noalias !8
  %116 = bitcast i8* %115 to %"class.base::internal::BindStateBase"*
  call void @_ZN4base8internal13BindStateBaseC2EPFvvEPFvPKS1_E(%"class.base::internal::BindStateBase"* nonnull %116, void ()* bitcast (void (%"class.base::internal::BindStateBase"*)* @_ZN4base8internal7InvokerINS0_9BindStateIPFvvEJEEES3_E7RunOnceEPNS0_13BindStateBaseE to void ()*), void (%"class.base::internal::BindStateBase"*)* nonnull @_ZN4base8internal9BindStateIPFvvEJEE7DestroyEPKNS0_13BindStateBaseE) #16, !noalias !8
  %117 = getelementptr inbounds i8, i8* %115, i64 32
  %118 = bitcast i8* %117 to i64*
  store i64 ptrtoint (void ()* @_ZN7content12_GLOBAL__N_121OnNetworkServiceCrashEv to i64), i64* %118, align 8, !noalias !8
  %119 = bitcast %"class.base::OnceCallback"* %23 to i8**
  store i8* %115, i8** %119, align 8, !alias.scope !8
  %120 = bitcast %"class.base::OnceCallback"* %19 to i8*
  call void @llvm.lifetime.start.p0i8(i64 8, i8* nonnull %120)
  %121 = getelementptr inbounds %"class.mojo::Remote", %"class.mojo::Remote"* %114, i64 0, i32 0, i32 0, i32 1, i32 0, i32 0, i32 0
  %122 = load %"class.mojo::InterfaceEndpointClient"*, %"class.mojo::InterfaceEndpointClient"** %121, align 8
  %123 = icmp eq %"class.mojo::InterfaceEndpointClient"* %122, null
  %124 = ptrtoint i8* %115 to i64
  br i1 %123, label %129, label %125

125:                                              ; preds = %111
  %126 = getelementptr inbounds %"class.mojo::InterfaceEndpointClient", %"class.mojo::InterfaceEndpointClient"* %122, i64 0, i32 19
  %127 = load i8, i8* %126, align 8, !range !2
  %128 = icmp eq i8 %127, 0
  br i1 %128, label %129, label %134

129:                                              ; preds = %125, %111
  %130 = getelementptr inbounds %"class.mojo::Remote", %"class.mojo::Remote"* %114, i64 0, i32 0
  %131 = getelementptr inbounds %"class.base::OnceCallback", %"class.base::OnceCallback"* %23, i64 0, i32 0, i32 0, i32 0
  %132 = bitcast %"class.base::OnceCallback"* %19 to i64*
  store i64 %124, i64* %132, align 8
  store %"class.base::internal::BindStateBase"* null, %"class.base::internal::BindStateBase"** %131, align 8
  call void @_ZN4mojo8internal17InterfacePtrStateIN7network5mojom14NetworkServiceEE28set_connection_error_handlerEN4base12OnceCallbackIFvvEEE(%"class.mojo::internal::InterfacePtrState"* %130, %"class.base::OnceCallback"* nonnull %19) #16
  %133 = getelementptr inbounds %"class.base::OnceCallback", %"class.base::OnceCallback"* %19, i64 0, i32 0
  call void @_ZN4base8internal12CallbackBaseD2Ev(%"class.base::internal::CallbackBase"* nonnull %133) #16
  br label %134

134:                                              ; preds = %125, %129
  call void @llvm.lifetime.end.p0i8(i64 8, i8* nonnull %120)
  %135 = getelementptr inbounds %"class.base::OnceCallback", %"class.base::OnceCallback"* %23, i64 0, i32 0
  call void @_ZN4base8internal12CallbackBaseD2Ev(%"class.base::internal::CallbackBase"* nonnull %135) #16
  %136 = call zeroext i1 @_ZN7content25IsInProcessNetworkServiceEv() #16
  br i1 %136, label %137, label %230

137:                                              ; preds = %134
  %138 = getelementptr inbounds %"class.mojo::PendingReceiver", %"class.mojo::PendingReceiver"* %24, i64 0, i32 0
  %139 = getelementptr inbounds %"class.mojo::PendingReceiver", %"class.mojo::PendingReceiver"* %22, i64 0, i32 0
  call void @_ZN4mojo8internal20PendingReceiverStateC1EOS1_(%"struct.mojo::internal::PendingReceiverState"* nonnull %138, %"struct.mojo::internal::PendingReceiverState"* nonnull dereferenceable(24) %139) #16
  %140 = bitcast %"class.base::OnceCallback"* %18 to i8*
  call void @llvm.lifetime.start.p0i8(i64 8, i8* nonnull %140)
  %141 = call zeroext i1 @_ZN4base11FeatureList9IsEnabledERKNS_7FeatureE(%"struct.base::Feature"* nonnull dereferenceable(16) @_ZN7content12_GLOBAL__N_130kNetworkServiceDedicatedThreadE) #16
  br i1 %141, label %142, label %189

142:                                              ; preds = %137
  %143 = bitcast %"struct.base::Thread::Options"* %16 to i8*
  call void @llvm.lifetime.start.p0i8(i64 56, i8* nonnull %143) #16
  call void @llvm.memset.p0i8.i64(i8* nonnull align 8 %143, i8 -86, i64 56, i1 false) #16
  call void @_ZN4base6Thread7OptionsC1ENS_15MessagePumpTypeEm(%"struct.base::Thread::Options"* nonnull %16, i32 3, i64 0) #16
  %144 = load atomic i8, i8* bitcast (i64* @_ZGVZN7content12_GLOBAL__N_132GetNetworkServiceDedicatedThreadEvE6thread to i8*) acquire, align 8
  %145 = icmp eq i8 %144, 0
  br i1 %145, label %146, label %160, !prof !13

146:                                              ; preds = %142
  %147 = call i32 @__cxa_guard_acquire(i64* nonnull @_ZGVZN7content12_GLOBAL__N_132GetNetworkServiceDedicatedThreadEvE6thread) #16
  %148 = icmp eq i32 %147, 0
  br i1 %148, label %160, label %149

149:                                              ; preds = %146
  %150 = bitcast %"class.std::__1::basic_string"* %15 to i8*
  call void @llvm.lifetime.start.p0i8(i64 24, i8* nonnull %150) #16
  %151 = bitcast %"class.std::__1::basic_string"* %15 to %"struct.std::__1::basic_string<char, std::__1::char_traits<char>, std::__1::allocator<char> >::__short"*
  %152 = getelementptr inbounds %"struct.std::__1::basic_string<char, std::__1::char_traits<char>, std::__1::allocator<char> >::__short", %"struct.std::__1::basic_string<char, std::__1::char_traits<char>, std::__1::allocator<char> >::__short"* %151, i64 0, i32 1, i32 0
  store i8 14, i8* %152, align 1
  call void @llvm.memcpy.p0i8.p0i8.i64(i8* nonnull align 8 %150, i8* align 1 getelementptr inbounds ([15 x i8], [15 x i8]* @.str.15, i64 0, i64 0), i64 14, i1 false) #16
  %153 = getelementptr inbounds i8, i8* %150, i64 14
  store i8 0, i8* %153, align 2
  call void @_ZN4base6ThreadC1ERKNSt3__112basic_stringIcNS1_11char_traitsIcEENS1_9allocatorIcEEEE(%"class.base::Thread"* bitcast (%"class.base::NoDestructor"* @_ZZN7content12_GLOBAL__N_132GetNetworkServiceDedicatedThreadEvE6thread to %"class.base::Thread"*), %"class.std::__1::basic_string"* nonnull dereferenceable(24) %15) #16
  %154 = load i8, i8* %152, align 1
  %155 = icmp slt i8 %154, 0
  br i1 %155, label %156, label %159

156:                                              ; preds = %149
  %157 = getelementptr inbounds %"class.std::__1::basic_string", %"class.std::__1::basic_string"* %15, i64 0, i32 0, i32 0, i32 0, i32 0, i32 0, i32 0
  %158 = load i8*, i8** %157, align 8
  call void @_ZdlPv(i8* %158) #15
  br label %159

159:                                              ; preds = %156, %149
  call void @llvm.lifetime.end.p0i8(i64 24, i8* nonnull %150) #16
  call void @__cxa_guard_release(i64* nonnull @_ZGVZN7content12_GLOBAL__N_132GetNetworkServiceDedicatedThreadEvE6thread) #16
  br label %160

160:                                              ; preds = %159, %146, %142
  %161 = call zeroext i1 @_ZN4base6Thread16StartWithOptionsERKNS0_7OptionsE(%"class.base::Thread"* bitcast (%"class.base::NoDestructor"* @_ZZN7content12_GLOBAL__N_132GetNetworkServiceDedicatedThreadEvE6thread to %"class.base::Thread"*), %"struct.base::Thread::Options"* nonnull dereferenceable(56) %16) #16
  %162 = load atomic i8, i8* bitcast (i64* @_ZGVZN7content12_GLOBAL__N_132GetNetworkServiceDedicatedThreadEvE6thread to i8*) acquire, align 8
  %163 = icmp eq i8 %162, 0
  br i1 %163, label %164, label %178, !prof !13

164:                                              ; preds = %160
  %165 = call i32 @__cxa_guard_acquire(i64* nonnull @_ZGVZN7content12_GLOBAL__N_132GetNetworkServiceDedicatedThreadEvE6thread) #16
  %166 = icmp eq i32 %165, 0
  br i1 %166, label %178, label %167

167:                                              ; preds = %164
  %168 = bitcast %"class.std::__1::basic_string"* %14 to i8*
  call void @llvm.lifetime.start.p0i8(i64 24, i8* nonnull %168) #16
  %169 = bitcast %"class.std::__1::basic_string"* %14 to %"struct.std::__1::basic_string<char, std::__1::char_traits<char>, std::__1::allocator<char> >::__short"*
  %170 = getelementptr inbounds %"struct.std::__1::basic_string<char, std::__1::char_traits<char>, std::__1::allocator<char> >::__short", %"struct.std::__1::basic_string<char, std::__1::char_traits<char>, std::__1::allocator<char> >::__short"* %169, i64 0, i32 1, i32 0
  store i8 14, i8* %170, align 1
  call void @llvm.memcpy.p0i8.p0i8.i64(i8* nonnull align 8 %168, i8* align 1 getelementptr inbounds ([15 x i8], [15 x i8]* @.str.15, i64 0, i64 0), i64 14, i1 false) #16
  %171 = getelementptr inbounds i8, i8* %168, i64 14
  store i8 0, i8* %171, align 2
  call void @_ZN4base6ThreadC1ERKNSt3__112basic_stringIcNS1_11char_traitsIcEENS1_9allocatorIcEEEE(%"class.base::Thread"* bitcast (%"class.base::NoDestructor"* @_ZZN7content12_GLOBAL__N_132GetNetworkServiceDedicatedThreadEvE6thread to %"class.base::Thread"*), %"class.std::__1::basic_string"* nonnull dereferenceable(24) %14) #16
  %172 = load i8, i8* %170, align 1
  %173 = icmp slt i8 %172, 0
  br i1 %173, label %174, label %177

174:                                              ; preds = %167
  %175 = getelementptr inbounds %"class.std::__1::basic_string", %"class.std::__1::basic_string"* %14, i64 0, i32 0, i32 0, i32 0, i32 0, i32 0, i32 0
  %176 = load i8*, i8** %175, align 8
  call void @_ZdlPv(i8* %176) #15
  br label %177

177:                                              ; preds = %174, %167
  call void @llvm.lifetime.end.p0i8(i64 24, i8* nonnull %168) #16
  call void @__cxa_guard_release(i64* nonnull @_ZGVZN7content12_GLOBAL__N_132GetNetworkServiceDedicatedThreadEvE6thread) #16
  br label %178

178:                                              ; preds = %177, %164, %160
  %179 = load %"class.base::Thread::Delegate"*, %"class.base::Thread::Delegate"** bitcast (i8* getelementptr inbounds (%"class.base::NoDestructor", %"class.base::NoDestructor"* @_ZZN7content12_GLOBAL__N_132GetNetworkServiceDedicatedThreadEvE6thread, i64 0, i32 0, i64 128) to %"class.base::Thread::Delegate"**), align 8
  %180 = icmp eq %"class.base::Thread::Delegate"* %179, null
  br i1 %180, label %187, label %181

181:                                              ; preds = %178
  %182 = bitcast %"class.base::Thread::Delegate"* %179 to %"class.base::SingleThreadTaskRunner"* (%"class.base::Thread::Delegate"*)***
  %183 = load %"class.base::SingleThreadTaskRunner"* (%"class.base::Thread::Delegate"*)**, %"class.base::SingleThreadTaskRunner"* (%"class.base::Thread::Delegate"*)*** %182, align 8
  %184 = getelementptr inbounds %"class.base::SingleThreadTaskRunner"* (%"class.base::Thread::Delegate"*)*, %"class.base::SingleThreadTaskRunner"* (%"class.base::Thread::Delegate"*)** %183, i64 2
  %185 = load %"class.base::SingleThreadTaskRunner"* (%"class.base::Thread::Delegate"*)*, %"class.base::SingleThreadTaskRunner"* (%"class.base::Thread::Delegate"*)** %184, align 8
  %186 = call %"class.base::SingleThreadTaskRunner"* %185(%"class.base::Thread::Delegate"* nonnull %179) #16
  br label %187

187:                                              ; preds = %181, %178
  %188 = phi %"class.base::SingleThreadTaskRunner"* [ %186, %181 ], [ null, %178 ]
  call void @_ZN4base6Thread7OptionsD1Ev(%"struct.base::Thread::Options"* nonnull %16) #16
  call void @llvm.lifetime.end.p0i8(i64 56, i8* nonnull %143) #16
  br label %191

189:                                              ; preds = %137
  %190 = call %"class.base::SingleThreadTaskRunner"* @_ZN7content21GetIOThreadTaskRunnerERKNS_17BrowserTaskTraitsE(%"class.content::BrowserTaskTraits"* dereferenceable(15) bitcast ({ %"struct.base::TaskTraitsExtensionStorage", i8, i8, i8, i8, i8, i8 }* @.ref.tmp.12 to %"class.content::BrowserTaskTraits"*)) #16
  br label %191

191:                                              ; preds = %189, %187
  %192 = phi %"class.base::SingleThreadTaskRunner"* [ %188, %187 ], [ %190, %189 ]
  %193 = ptrtoint %"class.base::SingleThreadTaskRunner"* %192 to i64
  %194 = load atomic i8, i8* bitcast (i64* @_ZGVZN7content12_GLOBAL__N_127GetNetworkTaskRunnerStorageEvE7storage to i8*) acquire, align 8
  %195 = icmp eq i8 %194, 0
  br i1 %195, label %196, label %200, !prof !13

196:                                              ; preds = %191
  %197 = call i32 @__cxa_guard_acquire(i64* nonnull @_ZGVZN7content12_GLOBAL__N_127GetNetworkTaskRunnerStorageEvE7storage) #16
  %198 = icmp eq i32 %197, 0
  br i1 %198, label %200, label %199

199:                                              ; preds = %196
  store %"class.base::SequencedTaskRunner"* null, %"class.base::SequencedTaskRunner"** bitcast (%"class.base::NoDestructor.728"* @_ZZN7content12_GLOBAL__N_127GetNetworkTaskRunnerStorageEvE7storage to %"class.base::SequencedTaskRunner"**), align 8
  call void @__cxa_guard_release(i64* nonnull @_ZGVZN7content12_GLOBAL__N_127GetNetworkTaskRunnerStorageEvE7storage) #16
  br label %200

200:                                              ; preds = %199, %196, %191
  %201 = load %"class.base::SequencedTaskRunner"*, %"class.base::SequencedTaskRunner"** bitcast (%"class.base::NoDestructor.728"* @_ZZN7content12_GLOBAL__N_127GetNetworkTaskRunnerStorageEvE7storage to %"class.base::SequencedTaskRunner"**), align 8
  store i64 %193, i64* bitcast (%"class.base::NoDestructor.728"* @_ZZN7content12_GLOBAL__N_127GetNetworkTaskRunnerStorageEvE7storage to i64*), align 8
  %202 = icmp eq %"class.base::SequencedTaskRunner"* %201, null
  br i1 %202, label %211, label %203

203:                                              ; preds = %200
  %204 = getelementptr inbounds %"class.base::SequencedTaskRunner", %"class.base::SequencedTaskRunner"* %201, i64 0, i32 0, i32 1
  %205 = getelementptr inbounds %"class.base::RefCountedThreadSafe.2", %"class.base::RefCountedThreadSafe.2"* %204, i64 0, i32 0, i32 0, i32 0, i32 0, i32 0, i32 0, i32 0, i32 0
  %206 = atomicrmw sub i32* %205, i32 1 acq_rel
  %207 = icmp eq i32 %206, 1
  br i1 %207, label %208, label %211

208:                                              ; preds = %203
  %209 = getelementptr inbounds %"class.base::RefCountedThreadSafe.2", %"class.base::RefCountedThreadSafe.2"* %204, i64 -2
  %210 = bitcast %"class.base::RefCountedThreadSafe.2"* %209 to %"class.base::TaskRunner"*
  call void @_ZN4base16TaskRunnerTraits8DestructEPKNS_10TaskRunnerE(%"class.base::TaskRunner"* %210) #16
  br label %211

211:                                              ; preds = %208, %203, %200
  %212 = load atomic i8, i8* bitcast (i64* @_ZGVZN7content12_GLOBAL__N_127GetNetworkTaskRunnerStorageEvE7storage to i8*) acquire, align 8
  %213 = icmp eq i8 %212, 0
  br i1 %213, label %214, label %218, !prof !13

214:                                              ; preds = %211
  %215 = call i32 @__cxa_guard_acquire(i64* nonnull @_ZGVZN7content12_GLOBAL__N_127GetNetworkTaskRunnerStorageEvE7storage) #16
  %216 = icmp eq i32 %215, 0
  br i1 %216, label %218, label %217

217:                                              ; preds = %214
  store %"class.base::SequencedTaskRunner"* null, %"class.base::SequencedTaskRunner"** bitcast (%"class.base::NoDestructor.728"* @_ZZN7content12_GLOBAL__N_127GetNetworkTaskRunnerStorageEvE7storage to %"class.base::SequencedTaskRunner"**), align 8
  call void @__cxa_guard_release(i64* nonnull @_ZGVZN7content12_GLOBAL__N_127GetNetworkTaskRunnerStorageEvE7storage) #16
  br label %218

218:                                              ; preds = %211, %214, %217
  %219 = load %"class.base::TaskRunner"*, %"class.base::TaskRunner"** bitcast (%"class.base::NoDestructor.728"* @_ZZN7content12_GLOBAL__N_127GetNetworkTaskRunnerStorageEvE7storage to %"class.base::TaskRunner"**), align 8
  %220 = bitcast %"class.base::Location"* %17 to i8*
  call void @llvm.lifetime.start.p0i8(i64 32, i8* nonnull %220) #16
  call void @_ZN4base8Location7CurrentEPKcS2_i(%"class.base::Location"* nonnull sret %17, i8* getelementptr inbounds ([30 x i8], [30 x i8]* @.str.13, i64 0, i64 0), i8* getelementptr inbounds ([55 x i8], [55 x i8]* @.str, i64 0, i64 0), i32 146) #16
  %221 = call i8* @_Znwm(i64 64) #15, !noalias !14
  %222 = bitcast i8* %221 to %"class.base::internal::BindStateBase"*
  call void @_ZN4base8internal13BindStateBaseC2EPFvvEPFvPKS1_E(%"class.base::internal::BindStateBase"* nonnull %222, void ()* bitcast (void (%"class.base::internal::BindStateBase"*)* @_ZN4base8internal7InvokerINS0_9BindStateIPFvN4mojo15PendingReceiverIN7network5mojom14NetworkServiceEEEEJS8_EEEFvvEE7RunOnceEPNS0_13BindStateBaseE to void ()*), void (%"class.base::internal::BindStateBase"*)* nonnull @_ZN4base8internal9BindStateIPFvN4mojo15PendingReceiverIN7network5mojom14NetworkServiceEEEEJS7_EE7DestroyEPKNS0_13BindStateBaseE) #16, !noalias !14
  %223 = getelementptr inbounds i8, i8* %221, i64 32
  %224 = bitcast i8* %223 to i64*
  store i64 ptrtoint (void (%"class.mojo::PendingReceiver"*)* @_ZN7content12_GLOBAL__N_137CreateInProcessNetworkServiceOnThreadEN4mojo15PendingReceiverIN7network5mojom14NetworkServiceEEE to i64), i64* %224, align 8, !noalias !14
  %225 = getelementptr inbounds i8, i8* %221, i64 40
  %226 = bitcast i8* %225 to %"struct.mojo::internal::PendingReceiverState"*
  call void @_ZN4mojo8internal20PendingReceiverStateC1EOS1_(%"struct.mojo::internal::PendingReceiverState"* %226, %"struct.mojo::internal::PendingReceiverState"* nonnull dereferenceable(24) %138) #16, !noalias !14
  %227 = bitcast %"class.base::OnceCallback"* %18 to i8**
  store i8* %221, i8** %227, align 8, !alias.scope !14
  %228 = call zeroext i1 @_ZN4base10TaskRunner8PostTaskERKNS_8LocationENS_12OnceCallbackIFvvEEE(%"class.base::TaskRunner"* %219, %"class.base::Location"* nonnull dereferenceable(32) %17, %"class.base::OnceCallback"* nonnull %18) #16
  %229 = getelementptr inbounds %"class.base::OnceCallback", %"class.base::OnceCallback"* %18, i64 0, i32 0
  call void @_ZN4base8internal12CallbackBaseD2Ev(%"class.base::internal::CallbackBase"* nonnull %229) #16
  call void @llvm.lifetime.end.p0i8(i64 32, i8* nonnull %220) #16
  call void @llvm.lifetime.end.p0i8(i64 8, i8* nonnull %140)
  br label %259

230:                                              ; preds = %134
  br i1 %78, label %231, label %238

231:                                              ; preds = %230
  %232 = call zeroext i1 @_ZN7logging22ShouldCreateLogMessageEi(i32 2) #16
  br i1 %232, label %233, label %238

233:                                              ; preds = %231
  %234 = bitcast %"class.logging::LogMessage"* %25 to i8*
  call void @llvm.lifetime.start.p0i8(i64 304, i8* nonnull %234) #16
  call void @_ZN7logging10LogMessageC1EPKcii(%"class.logging::LogMessage"* nonnull %25, i8* getelementptr inbounds ([55 x i8], [55 x i8]* @.str, i64 0, i64 0), i32 331, i32 2) #16
  %235 = getelementptr inbounds %"class.logging::LogMessage", %"class.logging::LogMessage"* %25, i64 0, i32 2
  %236 = bitcast %"class.std::__1::basic_ostringstream"* %235 to %"class.std::__1::basic_ostream"*
  %237 = call dereferenceable(160) %"class.std::__1::basic_ostream"* @_ZNSt3__124__put_character_sequenceIcNS_11char_traitsIcEEEERNS_13basic_ostreamIT_T0_EES7_PKS4_m(%"class.std::__1::basic_ostream"* dereferenceable(160) %236, i8* getelementptr inbounds ([45 x i8], [45 x i8]* @.str.2, i64 0, i64 0), i64 44) #16
  call void @_ZN7logging10LogMessageD1Ev(%"class.logging::LogMessage"* nonnull %25) #16
  call void @llvm.lifetime.end.p0i8(i64 304, i8* nonnull %234) #16
  br label %238

238:                                              ; preds = %230, %231, %233
  %239 = getelementptr inbounds %"class.mojo::PendingReceiver", %"class.mojo::PendingReceiver"* %26, i64 0, i32 0
  %240 = getelementptr inbounds %"class.mojo::PendingReceiver", %"class.mojo::PendingReceiver"* %22, i64 0, i32 0
  call void @_ZN4mojo8internal20PendingReceiverStateC1EOS1_(%"struct.mojo::internal::PendingReceiverState"* nonnull %239, %"struct.mojo::internal::PendingReceiverState"* nonnull dereferenceable(24) %240) #16
  %241 = bitcast %"struct.content::ServiceProcessHost::Options"* %28 to i8*
  call void @llvm.lifetime.start.p0i8(i64 64, i8* nonnull %241) #16
  call void @_ZN7content18ServiceProcessHost7OptionsC1Ev(%"struct.content::ServiceProcessHost::Options"* nonnull %28) #16
  %242 = bitcast %"class.std::__1::basic_string.174"* %29 to i8*
  call void @llvm.lifetime.start.p0i8(i64 24, i8* nonnull %242) #16
  %243 = call i8* @_Znwm(i64 32) #15
  %244 = bitcast %"class.std::__1::basic_string.174"* %29 to i8**
  store i8* %243, i8** %244, align 8
  %245 = getelementptr inbounds %"class.std::__1::basic_string.174", %"class.std::__1::basic_string.174"* %29, i64 0, i32 0, i32 0, i32 0, i32 0, i32 0, i32 1
  %246 = bitcast i64* %245 to <2 x i64>*
  store <2 x i64> <i64 15, i64 -9223372036854775792>, <2 x i64>* %246, align 8
  %247 = bitcast %"class.std::__1::basic_string.174"* %29 to %"struct.std::__1::basic_string<char16_t, std::__1::char_traits<char16_t>, std::__1::allocator<char16_t> >::__short"*
  %248 = bitcast i8* %243 to <8 x i16>*
  store <8 x i16> <i16 78, i16 101, i16 116, i16 119, i16 111, i16 114, i16 107, i16 32>, <8 x i16>* %248, align 2
  %249 = getelementptr inbounds i8, i8* %243, i64 16
  %250 = bitcast i8* %249 to <8 x i16>*
  store <8 x i16> <i16 83, i16 101, i16 114, i16 118, i16 105, i16 99, i16 101, i16 0>, <8 x i16>* %250, align 2
  %251 = call dereferenceable(64) %"struct.content::ServiceProcessHost::Options"* @_ZN7content18ServiceProcessHost7Options15WithDisplayNameERKNSt3__112basic_stringIDsNS2_11char_traitsIDsEENS2_9allocatorIDsEEEE(%"struct.content::ServiceProcessHost::Options"* nonnull %28, %"class.std::__1::basic_string.174"* nonnull dereferenceable(24) %29) #16
  call void @_ZN7content18ServiceProcessHost7Options4PassEv(%"struct.content::ServiceProcessHost::Options"* nonnull sret %27, %"struct.content::ServiceProcessHost::Options"* %251) #16
  call void @_ZN7content18ServiceProcessHost6LaunchIN7network5mojom14NetworkServiceEEEvN4mojo15PendingReceiverIT_EENS0_7OptionsE(%"class.mojo::PendingReceiver"* nonnull %26, %"struct.content::ServiceProcessHost::Options"* nonnull %27)
  call void @_ZN7content18ServiceProcessHost7OptionsD1Ev(%"struct.content::ServiceProcessHost::Options"* nonnull %27) #16
  %252 = getelementptr inbounds %"struct.std::__1::basic_string<char16_t, std::__1::char_traits<char16_t>, std::__1::allocator<char16_t> >::__short", %"struct.std::__1::basic_string<char16_t, std::__1::char_traits<char16_t>, std::__1::allocator<char16_t> >::__short"* %247, i64 0, i32 1, i32 1
  %253 = load i8, i8* %252, align 1
  %254 = icmp slt i8 %253, 0
  br i1 %254, label %255, label %258

255:                                              ; preds = %238
  %256 = bitcast %"class.std::__1::basic_string.174"* %29 to i8**
  %257 = load i8*, i8** %256, align 8
  call void @_ZdlPv(i8* %257) #15
  br label %258

258:                                              ; preds = %238, %255
  call void @llvm.lifetime.end.p0i8(i64 24, i8* nonnull %242) #16
  call void @_ZN7content18ServiceProcessHost7OptionsD1Ev(%"struct.content::ServiceProcessHost::Options"* nonnull %28) #16
  call void @llvm.lifetime.end.p0i8(i64 64, i8* nonnull %241) #16
  br label %259

259:                                              ; preds = %258, %218
  %260 = phi %"struct.mojo::internal::PendingReceiverState"* [ %239, %258 ], [ %138, %218 ]
  call void @_ZN4mojo8internal20PendingReceiverStateD1Ev(%"struct.mojo::internal::PendingReceiverState"* nonnull %260) #16
  %261 = getelementptr inbounds %"class.mojo::PendingReceiver", %"class.mojo::PendingReceiver"* %22, i64 0, i32 0
  call void @_ZN4mojo8internal20PendingReceiverStateD1Ev(%"struct.mojo::internal::PendingReceiverState"* nonnull %261) #16
  call void @llvm.lifetime.end.p0i8(i64 24, i8* nonnull %112) #16
  br label %298

262:                                              ; preds = %109
  %263 = call zeroext i1 @_ZN7content13BrowserThread11CurrentlyOnENS0_2IDE(i32 1) #16
  br i1 %263, label %264, label %267

264:                                              ; preds = %262
  %265 = load %"class.mojo::Remote"*, %"class.mojo::Remote"** @_ZN7content12_GLOBAL__N_124g_network_service_remoteE, align 8
  call void @_ZN4mojo6RemoteIN7network5mojom14NetworkServiceEE26BindNewPipeAndPassReceiverE13scoped_refptrIN4base19SequencedTaskRunnerEE(%"class.mojo::PendingReceiver"* nonnull sret %30, %"class.mojo::Remote"* %265, %"class.base::SequencedTaskRunner"* null) #16
  call void @_ZN7content12_GLOBAL__N_134CreateNetworkServiceOnIOForTestingEN4mojo15PendingReceiverIN7network5mojom14NetworkServiceEEEPN4base13WaitableEventE(%"class.mojo::PendingReceiver"* nonnull %30, %"class.base::WaitableEvent"* null)
  %266 = getelementptr inbounds %"class.mojo::PendingReceiver", %"class.mojo::PendingReceiver"* %30, i64 0, i32 0
  call void @_ZN4mojo8internal20PendingReceiverStateD1Ev(%"struct.mojo::internal::PendingReceiverState"* nonnull %266) #16
  br label %298

267:                                              ; preds = %262
  %268 = bitcast %"class.base::WaitableEvent"* %31 to i8*
  call void @llvm.lifetime.start.p0i8(i64 16, i8* nonnull %268) #16
  %269 = bitcast %"class.base::WaitableEvent"* %31 to i8*
  call void @llvm.memset.p0i8.i64(i8* nonnull align 8 %269, i8 -86, i64 16, i1 false)
  call void @_ZN4base13WaitableEventC1ENS0_11ResetPolicyENS0_12InitialStateE(%"class.base::WaitableEvent"* nonnull %31, i32 0, i32 1) #16
  %270 = call %"class.base::SingleThreadTaskRunner"* @_ZN7content21GetIOThreadTaskRunnerERKNS_17BrowserTaskTraitsE(%"class.content::BrowserTaskTraits"* dereferenceable(15) bitcast ({ %"struct.base::TaskTraitsExtensionStorage", i8, i8, i8, i8, i8, i8 }* @.ref.tmp to %"class.content::BrowserTaskTraits"*)) #16
  %271 = bitcast %"class.base::SingleThreadTaskRunner"* %270 to %"class.base::TaskRunner"*
  %272 = bitcast %"class.base::Location"* %32 to i8*
  call void @llvm.lifetime.start.p0i8(i64 32, i8* nonnull %272) #16
  call void @_ZN4base8Location7CurrentEPKcS2_i(%"class.base::Location"* nonnull sret %32, i8* getelementptr inbounds ([18 x i8], [18 x i8]* @.str.4, i64 0, i64 0), i8* getelementptr inbounds ([55 x i8], [55 x i8]* @.str, i64 0, i64 0), i32 346) #16
  %273 = bitcast %"class.mojo::PendingReceiver"* %34 to i8*
  call void @llvm.lifetime.start.p0i8(i64 24, i8* nonnull %273) #16
  %274 = load %"class.mojo::Remote"*, %"class.mojo::Remote"** @_ZN7content12_GLOBAL__N_124g_network_service_remoteE, align 8
  call void @_ZN4mojo6RemoteIN7network5mojom14NetworkServiceEE26BindNewPipeAndPassReceiverE13scoped_refptrIN4base19SequencedTaskRunnerEE(%"class.mojo::PendingReceiver"* nonnull sret %34, %"class.mojo::Remote"* %274, %"class.base::SequencedTaskRunner"* null) #16
  %275 = ptrtoint %"class.base::WaitableEvent"* %31 to i64
  %276 = call i8* @_Znwm(i64 72) #15, !noalias !19
  %277 = bitcast i8* %276 to %"class.base::internal::BindStateBase"*
  call void @_ZN4base8internal13BindStateBaseC2EPFvvEPFvPKS1_E(%"class.base::internal::BindStateBase"* nonnull %277, void ()* bitcast (void (%"class.base::internal::BindStateBase"*)* @_ZN4base8internal7InvokerINS0_9BindStateIPFvN4mojo15PendingReceiverIN7network5mojom14NetworkServiceEEEPNS_13WaitableEventEEJS8_NS0_17UnretainedWrapperIS9_EEEEEFvvEE7RunOnceEPNS0_13BindStateBaseE to void ()*), void (%"class.base::internal::BindStateBase"*)* nonnull @_ZN4base8internal9BindStateIPFvN4mojo15PendingReceiverIN7network5mojom14NetworkServiceEEEPNS_13WaitableEventEEJS7_NS0_17UnretainedWrapperIS8_EEEE7DestroyEPKNS0_13BindStateBaseE) #16, !noalias !19
  %278 = getelementptr inbounds i8, i8* %276, i64 32
  %279 = bitcast i8* %278 to void (%"class.mojo::PendingReceiver"*, %"class.base::WaitableEvent"*)**
  store void (%"class.mojo::PendingReceiver"*, %"class.base::WaitableEvent"*)* @_ZN7content12_GLOBAL__N_134CreateNetworkServiceOnIOForTestingEN4mojo15PendingReceiverIN7network5mojom14NetworkServiceEEEPN4base13WaitableEventE, void (%"class.mojo::PendingReceiver"*, %"class.base::WaitableEvent"*)** %279, align 8, !noalias !19
  %280 = getelementptr inbounds i8, i8* %276, i64 40
  %281 = bitcast i8* %280 to %"struct.mojo::internal::PendingReceiverState"*
  %282 = getelementptr inbounds %"class.mojo::PendingReceiver", %"class.mojo::PendingReceiver"* %34, i64 0, i32 0
  call void @_ZN4mojo8internal20PendingReceiverStateC1EOS1_(%"struct.mojo::internal::PendingReceiverState"* %281, %"struct.mojo::internal::PendingReceiverState"* nonnull dereferenceable(24) %282) #16, !noalias !19
  %283 = getelementptr inbounds i8, i8* %276, i64 64
  %284 = bitcast i8* %283 to i64*
  store i64 %275, i64* %284, align 8, !noalias !19
  %285 = bitcast %"class.base::OnceCallback"* %33 to i8**
  store i8* %276, i8** %285, align 8, !alias.scope !19
  %286 = call zeroext i1 @_ZN4base10TaskRunner8PostTaskERKNS_8LocationENS_12OnceCallbackIFvvEEE(%"class.base::TaskRunner"* %271, %"class.base::Location"* nonnull dereferenceable(32) %32, %"class.base::OnceCallback"* nonnull %33) #16
  %287 = getelementptr inbounds %"class.base::OnceCallback", %"class.base::OnceCallback"* %33, i64 0, i32 0
  call void @_ZN4base8internal12CallbackBaseD2Ev(%"class.base::internal::CallbackBase"* nonnull %287) #16
  call void @_ZN4mojo8internal20PendingReceiverStateD1Ev(%"struct.mojo::internal::PendingReceiverState"* nonnull %282) #16
  call void @llvm.lifetime.end.p0i8(i64 24, i8* nonnull %273) #16
  call void @llvm.lifetime.end.p0i8(i64 32, i8* nonnull %272) #16
  %288 = icmp eq %"class.base::SingleThreadTaskRunner"* %270, null
  br i1 %288, label %297, label %289

289:                                              ; preds = %267
  %290 = getelementptr inbounds %"class.base::SingleThreadTaskRunner", %"class.base::SingleThreadTaskRunner"* %270, i64 0, i32 0, i32 0, i32 1
  %291 = getelementptr inbounds %"class.base::RefCountedThreadSafe.2", %"class.base::RefCountedThreadSafe.2"* %290, i64 0, i32 0, i32 0, i32 0, i32 0, i32 0, i32 0, i32 0, i32 0
  %292 = atomicrmw sub i32* %291, i32 1 acq_rel
  %293 = icmp eq i32 %292, 1
  br i1 %293, label %294, label %297

294:                                              ; preds = %289
  %295 = getelementptr inbounds %"class.base::RefCountedThreadSafe.2", %"class.base::RefCountedThreadSafe.2"* %290, i64 -2
  %296 = bitcast %"class.base::RefCountedThreadSafe.2"* %295 to %"class.base::TaskRunner"*
  call void @_ZN4base16TaskRunnerTraits8DestructEPKNS_10TaskRunnerE(%"class.base::TaskRunner"* %296) #16
  br label %297

297:                                              ; preds = %267, %289, %294
  notail call void @_ZN4base13WaitableEvent4WaitEv(%"class.base::WaitableEvent"* nonnull %31) #16
  call void @_ZN4base13WaitableEventD1Ev(%"class.base::WaitableEvent"* nonnull %31) #16
  call void @llvm.lifetime.end.p0i8(i64 16, i8* nonnull %268) #16
  br label %298

298:                                              ; preds = %264, %297, %259
  %299 = load %"class.content::NetworkServiceClient"*, %"class.content::NetworkServiceClient"** @_ZN7content12_GLOBAL__N_18g_clientE, align 8
  %300 = icmp eq %"class.content::NetworkServiceClient"* %299, null
  br i1 %300, label %306, label %301

301:                                              ; preds = %298
  %302 = bitcast %"class.content::NetworkServiceClient"* %299 to void (%"class.content::NetworkServiceClient"*)***
  %303 = load void (%"class.content::NetworkServiceClient"*)**, void (%"class.content::NetworkServiceClient"*)*** %302, align 8
  %304 = getelementptr inbounds void (%"class.content::NetworkServiceClient"*)*, void (%"class.content::NetworkServiceClient"*)** %303, i64 1
  %305 = load void (%"class.content::NetworkServiceClient"*)*, void (%"class.content::NetworkServiceClient"*)** %304, align 8
  call void %305(%"class.content::NetworkServiceClient"* nonnull %299) #16
  br label %306

306:                                              ; preds = %301, %298
  %307 = call i8* @_Znwm(i64 112) #15
  %308 = bitcast i8* %307 to %"class.content::NetworkServiceClient"*
  call void @_ZN7content20NetworkServiceClientC1Ev(%"class.content::NetworkServiceClient"* nonnull %308) #16
  store i8* %307, i8** bitcast (%"class.content::NetworkServiceClient"** @_ZN7content12_GLOBAL__N_18g_clientE to i8**), align 8
  %309 = load %"class.mojo::Remote"*, %"class.mojo::Remote"** @_ZN7content12_GLOBAL__N_124g_network_service_remoteE, align 8
  %310 = getelementptr inbounds %"class.mojo::Remote", %"class.mojo::Remote"* %309, i64 0, i32 0, i32 1
  %311 = getelementptr inbounds %"class.std::__1::unique_ptr.162", %"class.std::__1::unique_ptr.162"* %310, i64 0, i32 0, i32 0, i32 0
  %312 = load %"class.network::mojom::NetworkServiceProxy"*, %"class.network::mojom::NetworkServiceProxy"** %311, align 8
  %313 = icmp eq %"class.network::mojom::NetworkServiceProxy"* %312, null
  br i1 %313, label %314, label %335

314:                                              ; preds = %306
  %315 = bitcast %"class.mojo::Remote"* %309 to %"class.mojo::internal::InterfacePtrStateBase"*
  %316 = call i8* @_Znwm(i64 8) #15
  %317 = bitcast i8* %316 to i32 (...)***
  store i32 (...)** bitcast (i8** getelementptr inbounds ({ [6 x i8*] }, { [6 x i8*] }* @_ZTVN7network5mojom31NetworkServiceResponseValidatorE, i64 0, inrange i32 0, i64 2) to i32 (...)**), i32 (...)*** %317, align 8
  %318 = bitcast i8* %316 to %"class.mojo::MessageReceiver"*
  %319 = call zeroext i1 @_ZN4mojo8internal21InterfacePtrStateBase24InitializeEndpointClientEbbbNSt3__110unique_ptrINS_15MessageReceiverENS2_14default_deleteIS4_EEEEPKc(%"class.mojo::internal::InterfacePtrStateBase"* %315, i1 zeroext false, i1 zeroext false, i1 zeroext false, %"class.mojo::MessageReceiver"* nonnull %318, i8* getelementptr inbounds ([0 x i8], [0 x i8]* @_ZN7network5mojom14NetworkService5Name_E, i64 0, i64 0)) #16
  br i1 %319, label %320, label %335

320:                                              ; preds = %314
  %321 = getelementptr inbounds %"class.mojo::Remote", %"class.mojo::Remote"* %309, i64 0, i32 0, i32 0, i32 1, i32 0, i32 0, i32 0
  %322 = bitcast %"class.mojo::InterfaceEndpointClient"** %321 to %"class.mojo::MessageReceiverWithResponder"**
  %323 = load %"class.mojo::MessageReceiverWithResponder"*, %"class.mojo::MessageReceiverWithResponder"** %322, align 8
  %324 = call i8* @_Znwm(i64 16) #15
  %325 = bitcast i8* %324 to %"class.network::mojom::NetworkServiceProxy"*
  call void @_ZN7network5mojom19NetworkServiceProxyC1EPN4mojo28MessageReceiverWithResponderE(%"class.network::mojom::NetworkServiceProxy"* nonnull %325, %"class.mojo::MessageReceiverWithResponder"* %323) #16
  %326 = ptrtoint i8* %324 to i64
  %327 = load %"class.network::mojom::NetworkServiceProxy"*, %"class.network::mojom::NetworkServiceProxy"** %311, align 8
  %328 = bitcast %"class.std::__1::unique_ptr.162"* %310 to i64*
  store i64 %326, i64* %328, align 8
  %329 = icmp eq %"class.network::mojom::NetworkServiceProxy"* %327, null
  br i1 %329, label %335, label %330

330:                                              ; preds = %320
  %331 = bitcast %"class.network::mojom::NetworkServiceProxy"* %327 to void (%"class.network::mojom::NetworkServiceProxy"*)***
  %332 = load void (%"class.network::mojom::NetworkServiceProxy"*)**, void (%"class.network::mojom::NetworkServiceProxy"*)*** %331, align 8
  %333 = getelementptr inbounds void (%"class.network::mojom::NetworkServiceProxy"*)*, void (%"class.network::mojom::NetworkServiceProxy"*)** %332, i64 1
  %334 = load void (%"class.network::mojom::NetworkServiceProxy"*)*, void (%"class.network::mojom::NetworkServiceProxy"*)** %333, align 8
  call void %334(%"class.network::mojom::NetworkServiceProxy"* nonnull %327) #16
  br label %335

335:                                              ; preds = %306, %314, %320, %330
  %336 = load %"class.network::mojom::NetworkServiceProxy"*, %"class.network::mojom::NetworkServiceProxy"** %311, align 8
  %337 = call i8* @_Znwm(i64 40) #15, !noalias !24
  %338 = bitcast i8* %337 to %"class.network::mojom::NetworkServiceParams"*
  call void @_ZN7network5mojom20NetworkServiceParamsC1Ev(%"class.network::mojom::NetworkServiceParams"* nonnull %338) #16, !noalias !24
  %339 = ptrtoint i8* %337 to i64
  %340 = bitcast %"class.mojo::StructPtr"* %35 to i64*
  store i64 %339, i64* %340, align 8, !alias.scope !24
  %341 = call i32 @_ZN3net21NetworkChangeNotifier17GetConnectionTypeEv() #16, !noalias !29
  %342 = bitcast i8* %337 to i32*
  store i32 %341, i32* %342, align 8, !noalias !29
  %343 = call i32 @_ZN3net21NetworkChangeNotifier20GetConnectionSubtypeEv() #16, !noalias !29
  %344 = getelementptr inbounds i8, i8* %337, i64 4
  %345 = bitcast i8* %344 to i32*
  store i32 %343, i32* %345, align 4, !noalias !29
  %346 = bitcast %"class.mojo::PendingRemote"* %10 to i8*
  call void @llvm.lifetime.start.p0i8(i64 8, i8* nonnull %346) #16, !noalias !29
  %347 = load %"class.content::NetworkServiceClient"*, %"class.content::NetworkServiceClient"** @_ZN7content12_GLOBAL__N_18g_clientE, align 8, !noalias !29
  call void @_ZN7content20NetworkServiceClient35BindURLLoaderNetworkServiceObserverEv(%"class.mojo::PendingRemote"* nonnull sret %10, %"class.content::NetworkServiceClient"* %347) #16, !noalias !29
  %348 = getelementptr inbounds i8, i8* %337, i64 32
  %349 = bitcast i8* %348 to %"struct.mojo::internal::PendingRemoteState"*
  %350 = getelementptr inbounds %"class.mojo::PendingRemote", %"class.mojo::PendingRemote"* %10, i64 0, i32 0
  %351 = call dereferenceable(8) %"struct.mojo::internal::PendingRemoteState"* @_ZN4mojo8internal18PendingRemoteStateaSEOS1_(%"struct.mojo::internal::PendingRemoteState"* %349, %"struct.mojo::internal::PendingRemoteState"* nonnull dereferenceable(8) %350) #16, !noalias !29
  call void @_ZN4mojo8internal18PendingRemoteStateD1Ev(%"struct.mojo::internal::PendingRemoteState"* nonnull %350) #16, !noalias !29
  call void @llvm.lifetime.end.p0i8(i64 8, i8* nonnull %346) #16, !noalias !29
  %352 = call zeroext i1 @_ZN7content28IsOutOfProcessNetworkServiceEv() #16, !noalias !29
  br i1 %352, label %353, label %439

353:                                              ; preds = %335
  %354 = call %"class.base::Environment"* @_ZN4base11Environment6CreateEv() #16, !noalias !29
  %355 = bitcast %"class.std::__1::basic_string"* %11 to i8*
  call void @llvm.lifetime.start.p0i8(i64 24, i8* nonnull %355) #16, !noalias !29
  %356 = getelementptr inbounds %"class.std::__1::basic_string", %"class.std::__1::basic_string"* %11, i64 0, i32 0, i32 0, i32 0, i32 0, i32 0, i32 0
  call void @llvm.memset.p0i8.i64(i8* nonnull align 8 %355, i8 0, i64 24, i1 false) #16, !noalias !29
  %357 = bitcast %"class.base::Environment"* %354 to i1 (%"class.base::Environment"*, i8*, i64)***
  %358 = load i1 (%"class.base::Environment"*, i8*, i64)**, i1 (%"class.base::Environment"*, i8*, i64)*** %357, align 8, !noalias !29
  %359 = getelementptr inbounds i1 (%"class.base::Environment"*, i8*, i64)*, i1 (%"class.base::Environment"*, i8*, i64)** %358, i64 3
  %360 = load i1 (%"class.base::Environment"*, i8*, i64)*, i1 (%"class.base::Environment"*, i8*, i64)** %359, align 8, !noalias !29
  %361 = call zeroext i1 %360(%"class.base::Environment"* %354, i8* getelementptr inbounds ([11 x i8], [11 x i8]* @_ZN7content12_GLOBAL__N_114kKrb5CCEnvNameE, i64 0, i64 0), i64 10) #16, !noalias !29
  br i1 %361, label %362, label %391

362:                                              ; preds = %353
  %363 = bitcast %"class.base::Environment"* %354 to i1 (%"class.base::Environment"*, i8*, i64, %"class.std::__1::basic_string"*)***
  %364 = load i1 (%"class.base::Environment"*, i8*, i64, %"class.std::__1::basic_string"*)**, i1 (%"class.base::Environment"*, i8*, i64, %"class.std::__1::basic_string"*)*** %363, align 8, !noalias !29
  %365 = getelementptr inbounds i1 (%"class.base::Environment"*, i8*, i64, %"class.std::__1::basic_string"*)*, i1 (%"class.base::Environment"*, i8*, i64, %"class.std::__1::basic_string"*)** %364, i64 2
  %366 = load i1 (%"class.base::Environment"*, i8*, i64, %"class.std::__1::basic_string"*)*, i1 (%"class.base::Environment"*, i8*, i64, %"class.std::__1::basic_string"*)** %365, align 8, !noalias !29
  %367 = call zeroext i1 %366(%"class.base::Environment"* %354, i8* getelementptr inbounds ([11 x i8], [11 x i8]* @_ZN7content12_GLOBAL__N_114kKrb5CCEnvNameE, i64 0, i64 0), i64 10, %"class.std::__1::basic_string"* nonnull %11) #16, !noalias !29
  %368 = bitcast %"class.mojo::InlinedStructPtr"* %12 to i8*
  call void @llvm.lifetime.start.p0i8(i64 56, i8* nonnull %368) #16, !noalias !29
  call void @_ZN4mojo16InlinedStructPtrIN7network5mojom19EnvironmentVariableEEC2IJRA11_KcRNSt3__112basic_stringIcNS9_11char_traitsIcEENS9_9allocatorIcEEEEEEEN4base10in_place_tEDpOT_(%"class.mojo::InlinedStructPtr"* nonnull %12, [11 x i8]* nonnull dereferenceable(11) @_ZN7content12_GLOBAL__N_114kKrb5CCEnvNameE, %"class.std::__1::basic_string"* nonnull dereferenceable(24) %11) #16, !noalias !29
  %369 = getelementptr inbounds i8, i8* %337, i64 16
  %370 = bitcast i8* %369 to %"class.mojo::InlinedStructPtr"**
  %371 = load %"class.mojo::InlinedStructPtr"*, %"class.mojo::InlinedStructPtr"** %370, align 8, !noalias !29
  %372 = getelementptr inbounds i8, i8* %337, i64 24
  %373 = bitcast i8* %372 to %"class.mojo::InlinedStructPtr"**
  %374 = load %"class.mojo::InlinedStructPtr"*, %"class.mojo::InlinedStructPtr"** %373, align 8, !noalias !29
  %375 = icmp ult %"class.mojo::InlinedStructPtr"* %371, %374
  br i1 %375, label %376, label %386

376:                                              ; preds = %362
  %377 = getelementptr inbounds %"class.mojo::InlinedStructPtr", %"class.mojo::InlinedStructPtr"* %371, i64 0, i32 0
  call void @_ZN7network5mojom19EnvironmentVariableC1Ev(%"class.network::mojom::EnvironmentVariable"* %377) #16, !noalias !29
  %378 = getelementptr inbounds %"class.mojo::InlinedStructPtr", %"class.mojo::InlinedStructPtr"* %371, i64 0, i32 1
  store i32 0, i32* %378, align 8, !noalias !29
  call void @_ZN7network5mojom19EnvironmentVariableD1Ev(%"class.network::mojom::EnvironmentVariable"* %377) #16, !noalias !29
  call void @_ZN7network5mojom19EnvironmentVariableC1Ev(%"class.network::mojom::EnvironmentVariable"* %377) #16, !noalias !29
  %379 = getelementptr inbounds %"class.mojo::InlinedStructPtr", %"class.mojo::InlinedStructPtr"* %12, i64 0, i32 0
  call void @_ZNSt3__14swapIN7network5mojom19EnvironmentVariableEEENS_9enable_ifIXaasr21is_move_constructibleIT_EE5valuesr18is_move_assignableIS5_EE5valueEvE4typeERS5_S8_(%"class.network::mojom::EnvironmentVariable"* dereferenceable(48) %377, %"class.network::mojom::EnvironmentVariable"* nonnull dereferenceable(48) %379) #16, !noalias !29
  %380 = getelementptr inbounds %"class.mojo::InlinedStructPtr", %"class.mojo::InlinedStructPtr"* %12, i64 0, i32 1
  %381 = load i32, i32* %378, align 4, !noalias !29
  %382 = load i32, i32* %380, align 8, !noalias !29
  store i32 %382, i32* %378, align 4, !noalias !29
  store i32 %381, i32* %380, align 8, !noalias !29
  %383 = getelementptr inbounds %"class.mojo::InlinedStructPtr", %"class.mojo::InlinedStructPtr"* %371, i64 1
  %384 = ptrtoint %"class.mojo::InlinedStructPtr"* %383 to i64
  %385 = bitcast i8* %369 to i64*
  store i64 %384, i64* %385, align 8, !noalias !29
  br label %389

386:                                              ; preds = %362
  %387 = getelementptr inbounds i8, i8* %337, i64 8
  %388 = bitcast i8* %387 to %"class.std::__1::vector.227"*
  call void @_ZNSt3__16vectorIN4mojo16InlinedStructPtrIN7network5mojom19EnvironmentVariableEEENS_9allocatorIS6_EEE21__push_back_slow_pathIS6_EEvOT_(%"class.std::__1::vector.227"* %388, %"class.mojo::InlinedStructPtr"* nonnull dereferenceable(56) %12) #16, !noalias !29
  br label %389

389:                                              ; preds = %386, %376
  %390 = getelementptr inbounds %"class.mojo::InlinedStructPtr", %"class.mojo::InlinedStructPtr"* %12, i64 0, i32 0
  call void @_ZN7network5mojom19EnvironmentVariableD1Ev(%"class.network::mojom::EnvironmentVariable"* nonnull %390) #16, !noalias !29
  call void @llvm.lifetime.end.p0i8(i64 56, i8* nonnull %368) #16, !noalias !29
  br label %391

391:                                              ; preds = %389, %353
  %392 = load i1 (%"class.base::Environment"*, i8*, i64)**, i1 (%"class.base::Environment"*, i8*, i64)*** %357, align 8, !noalias !29
  %393 = getelementptr inbounds i1 (%"class.base::Environment"*, i8*, i64)*, i1 (%"class.base::Environment"*, i8*, i64)** %392, i64 3
  %394 = load i1 (%"class.base::Environment"*, i8*, i64)*, i1 (%"class.base::Environment"*, i8*, i64)** %393, align 8, !noalias !29
  %395 = call zeroext i1 %394(%"class.base::Environment"* %354, i8* getelementptr inbounds ([12 x i8], [12 x i8]* @_ZN7content12_GLOBAL__N_116kKrb5ConfEnvNameE, i64 0, i64 0), i64 11) #16, !noalias !29
  br i1 %395, label %396, label %425

396:                                              ; preds = %391
  %397 = bitcast %"class.base::Environment"* %354 to i1 (%"class.base::Environment"*, i8*, i64, %"class.std::__1::basic_string"*)***
  %398 = load i1 (%"class.base::Environment"*, i8*, i64, %"class.std::__1::basic_string"*)**, i1 (%"class.base::Environment"*, i8*, i64, %"class.std::__1::basic_string"*)*** %397, align 8, !noalias !29
  %399 = getelementptr inbounds i1 (%"class.base::Environment"*, i8*, i64, %"class.std::__1::basic_string"*)*, i1 (%"class.base::Environment"*, i8*, i64, %"class.std::__1::basic_string"*)** %398, i64 2
  %400 = load i1 (%"class.base::Environment"*, i8*, i64, %"class.std::__1::basic_string"*)*, i1 (%"class.base::Environment"*, i8*, i64, %"class.std::__1::basic_string"*)** %399, align 8, !noalias !29
  %401 = call zeroext i1 %400(%"class.base::Environment"* %354, i8* getelementptr inbounds ([12 x i8], [12 x i8]* @_ZN7content12_GLOBAL__N_116kKrb5ConfEnvNameE, i64 0, i64 0), i64 11, %"class.std::__1::basic_string"* nonnull %11) #16, !noalias !29
  %402 = bitcast %"class.mojo::InlinedStructPtr"* %13 to i8*
  call void @llvm.lifetime.start.p0i8(i64 56, i8* nonnull %402) #16, !noalias !29
  call void @_ZN4mojo16InlinedStructPtrIN7network5mojom19EnvironmentVariableEEC2IJRA12_KcRNSt3__112basic_stringIcNS9_11char_traitsIcEENS9_9allocatorIcEEEEEEEN4base10in_place_tEDpOT_(%"class.mojo::InlinedStructPtr"* nonnull %13, [12 x i8]* nonnull dereferenceable(12) @_ZN7content12_GLOBAL__N_116kKrb5ConfEnvNameE, %"class.std::__1::basic_string"* nonnull dereferenceable(24) %11) #16, !noalias !29
  %403 = getelementptr inbounds i8, i8* %337, i64 16
  %404 = bitcast i8* %403 to %"class.mojo::InlinedStructPtr"**
  %405 = load %"class.mojo::InlinedStructPtr"*, %"class.mojo::InlinedStructPtr"** %404, align 8, !noalias !29
  %406 = getelementptr inbounds i8, i8* %337, i64 24
  %407 = bitcast i8* %406 to %"class.mojo::InlinedStructPtr"**
  %408 = load %"class.mojo::InlinedStructPtr"*, %"class.mojo::InlinedStructPtr"** %407, align 8, !noalias !29
  %409 = icmp ult %"class.mojo::InlinedStructPtr"* %405, %408
  br i1 %409, label %410, label %420

410:                                              ; preds = %396
  %411 = getelementptr inbounds %"class.mojo::InlinedStructPtr", %"class.mojo::InlinedStructPtr"* %405, i64 0, i32 0
  call void @_ZN7network5mojom19EnvironmentVariableC1Ev(%"class.network::mojom::EnvironmentVariable"* %411) #16, !noalias !29
  %412 = getelementptr inbounds %"class.mojo::InlinedStructPtr", %"class.mojo::InlinedStructPtr"* %405, i64 0, i32 1
  store i32 0, i32* %412, align 8, !noalias !29
  call void @_ZN7network5mojom19EnvironmentVariableD1Ev(%"class.network::mojom::EnvironmentVariable"* %411) #16, !noalias !29
  call void @_ZN7network5mojom19EnvironmentVariableC1Ev(%"class.network::mojom::EnvironmentVariable"* %411) #16, !noalias !29
  %413 = getelementptr inbounds %"class.mojo::InlinedStructPtr", %"class.mojo::InlinedStructPtr"* %13, i64 0, i32 0
  call void @_ZNSt3__14swapIN7network5mojom19EnvironmentVariableEEENS_9enable_ifIXaasr21is_move_constructibleIT_EE5valuesr18is_move_assignableIS5_EE5valueEvE4typeERS5_S8_(%"class.network::mojom::EnvironmentVariable"* dereferenceable(48) %411, %"class.network::mojom::EnvironmentVariable"* nonnull dereferenceable(48) %413) #16, !noalias !29
  %414 = getelementptr inbounds %"class.mojo::InlinedStructPtr", %"class.mojo::InlinedStructPtr"* %13, i64 0, i32 1
  %415 = load i32, i32* %412, align 4, !noalias !29
  %416 = load i32, i32* %414, align 8, !noalias !29
  store i32 %416, i32* %412, align 4, !noalias !29
  store i32 %415, i32* %414, align 8, !noalias !29
  %417 = getelementptr inbounds %"class.mojo::InlinedStructPtr", %"class.mojo::InlinedStructPtr"* %405, i64 1
  %418 = ptrtoint %"class.mojo::InlinedStructPtr"* %417 to i64
  %419 = bitcast i8* %403 to i64*
  store i64 %418, i64* %419, align 8, !noalias !29
  br label %423

420:                                              ; preds = %396
  %421 = getelementptr inbounds i8, i8* %337, i64 8
  %422 = bitcast i8* %421 to %"class.std::__1::vector.227"*
  call void @_ZNSt3__16vectorIN4mojo16InlinedStructPtrIN7network5mojom19EnvironmentVariableEEENS_9allocatorIS6_EEE21__push_back_slow_pathIS6_EEvOT_(%"class.std::__1::vector.227"* %422, %"class.mojo::InlinedStructPtr"* nonnull dereferenceable(56) %13) #16, !noalias !29
  br label %423

423:                                              ; preds = %420, %410
  %424 = getelementptr inbounds %"class.mojo::InlinedStructPtr", %"class.mojo::InlinedStructPtr"* %13, i64 0, i32 0
  call void @_ZN7network5mojom19EnvironmentVariableD1Ev(%"class.network::mojom::EnvironmentVariable"* nonnull %424) #16, !noalias !29
  call void @llvm.lifetime.end.p0i8(i64 56, i8* nonnull %402) #16, !noalias !29
  br label %425

425:                                              ; preds = %423, %391
  %426 = bitcast %"class.std::__1::basic_string"* %11 to %"struct.std::__1::basic_string<char, std::__1::char_traits<char>, std::__1::allocator<char> >::__short"*
  %427 = getelementptr inbounds %"struct.std::__1::basic_string<char, std::__1::char_traits<char>, std::__1::allocator<char> >::__short", %"struct.std::__1::basic_string<char, std::__1::char_traits<char>, std::__1::allocator<char> >::__short"* %426, i64 0, i32 1, i32 0
  %428 = load i8, i8* %427, align 1, !noalias !29
  %429 = icmp slt i8 %428, 0
  br i1 %429, label %430, label %432

430:                                              ; preds = %425
  %431 = load i8*, i8** %356, align 8, !noalias !29
  call void @_ZdlPv(i8* %431) #15, !noalias !29
  br label %432

432:                                              ; preds = %430, %425
  call void @llvm.lifetime.end.p0i8(i64 24, i8* nonnull %355) #16, !noalias !29
  %433 = icmp eq %"class.base::Environment"* %354, null
  br i1 %433, label %439, label %434

434:                                              ; preds = %432
  %435 = bitcast %"class.base::Environment"* %354 to void (%"class.base::Environment"*)***
  %436 = load void (%"class.base::Environment"*)**, void (%"class.base::Environment"*)*** %435, align 8, !noalias !29
  %437 = getelementptr inbounds void (%"class.base::Environment"*)*, void (%"class.base::Environment"*)** %436, i64 1
  %438 = load void (%"class.base::Environment"*)*, void (%"class.base::Environment"*)** %437, align 8, !noalias !29
  call void %438(%"class.base::Environment"* nonnull %354) #16, !noalias !29
  br label %439

439:                                              ; preds = %335, %432, %434
  call void @_ZN7network5mojom19NetworkServiceProxy9SetParamsEN4mojo9StructPtrINS0_20NetworkServiceParamsEEE(%"class.network::mojom::NetworkServiceProxy"* %336, %"class.mojo::StructPtr"* nonnull %35) #16
  %440 = getelementptr inbounds %"class.mojo::StructPtr", %"class.mojo::StructPtr"* %35, i64 0, i32 0, i32 0, i32 0, i32 0
  %441 = load %"class.network::mojom::NetworkServiceParams"*, %"class.network::mojom::NetworkServiceParams"** %440, align 8
  store %"class.network::mojom::NetworkServiceParams"* null, %"class.network::mojom::NetworkServiceParams"** %440, align 8
  %442 = icmp eq %"class.network::mojom::NetworkServiceParams"* %441, null
  br i1 %442, label %445, label %443

443:                                              ; preds = %439
  call void @_ZN7network5mojom20NetworkServiceParamsD1Ev(%"class.network::mojom::NetworkServiceParams"* nonnull %441) #16
  %444 = bitcast %"class.network::mojom::NetworkServiceParams"* %441 to i8*
  call void @_ZdlPv(i8* %444) #15
  br label %445

445:                                              ; preds = %439, %443
  store i1 false, i1* @_ZN7content12_GLOBAL__N_131g_network_service_is_respondingE, align 1
  %446 = load %"class.mojo::Remote"*, %"class.mojo::Remote"** @_ZN7content12_GLOBAL__N_124g_network_service_remoteE, align 8
  %447 = call i64 @_ZN4base4Time3NowEv() #16
  %448 = call i8* @_Znwm(i64 48) #15, !noalias !30
  %449 = bitcast i8* %448 to %"class.base::internal::BindStateBase"*
  call void @_ZN4base8internal13BindStateBaseC2EPFvvEPFvPKS1_E(%"class.base::internal::BindStateBase"* nonnull %449, void ()* bitcast (void (%"class.base::internal::BindStateBase"*, i32)* @"_ZN4base8internal7InvokerINS0_9BindStateIZN7content17GetNetworkServiceEvE3$_0JNS_4TimeEEEEFvjEE7RunOnceEPNS0_13BindStateBaseEj" to void ()*), void (%"class.base::internal::BindStateBase"*)* nonnull @"_ZN4base8internal9BindStateIZN7content17GetNetworkServiceEvE3$_0JNS_4TimeEEE7DestroyEPKNS0_13BindStateBaseE") #16, !noalias !30
  %450 = getelementptr inbounds i8, i8* %448, i64 40
  %451 = bitcast i8* %450 to i64*
  store i64 %447, i64* %451, align 8, !noalias !30
  %452 = bitcast %"class.base::OnceCallback.237"* %9 to i8*
  call void @llvm.lifetime.start.p0i8(i64 8, i8* nonnull %452)
  %453 = getelementptr inbounds %"class.mojo::Remote", %"class.mojo::Remote"* %446, i64 0, i32 0
  %454 = getelementptr inbounds %"class.base::OnceCallback.237", %"class.base::OnceCallback.237"* %36, i64 0, i32 0, i32 0, i32 0
  %455 = ptrtoint i8* %448 to i64
  %456 = bitcast %"class.base::OnceCallback.237"* %9 to i64*
  store i64 %455, i64* %456, align 8
  store %"class.base::internal::BindStateBase"* null, %"class.base::internal::BindStateBase"** %454, align 8
  call void @_ZN4mojo8internal17InterfacePtrStateIN7network5mojom14NetworkServiceEE12QueryVersionEN4base12OnceCallbackIFvjEEE(%"class.mojo::internal::InterfacePtrState"* %453, %"class.base::OnceCallback.237"* nonnull %9) #16
  %457 = getelementptr inbounds %"class.base::OnceCallback.237", %"class.base::OnceCallback.237"* %9, i64 0, i32 0
  call void @_ZN4base8internal12CallbackBaseD2Ev(%"class.base::internal::CallbackBase"* nonnull %457) #16
  call void @llvm.lifetime.end.p0i8(i64 8, i8* nonnull %452)
  %458 = getelementptr inbounds %"class.base::OnceCallback.237", %"class.base::OnceCallback.237"* %36, i64 0, i32 0
  call void @_ZN4base8internal12CallbackBaseD2Ev(%"class.base::internal::CallbackBase"* nonnull %458) #16
  %459 = call %"class.base::CommandLine"* @_ZN4base11CommandLine17ForCurrentProcessEv() #16
  %460 = call zeroext i1 @_ZNK4base11CommandLine9HasSwitchEPKc(%"class.base::CommandLine"* %459, i8* getelementptr inbounds ([0 x i8], [0 x i8]* @_ZN7network8switches10kLogNetLogE, i64 0, i64 0)) #16
  br i1 %460, label %461, label %638

461:                                              ; preds = %445
  %462 = bitcast %"class.base::FilePath"* %37 to i8*
  call void @llvm.lifetime.start.p0i8(i64 24, i8* nonnull %462) #16
  %463 = getelementptr inbounds %"class.base::FilePath", %"class.base::FilePath"* %37, i64 0, i32 0, i32 0, i32 0, i32 0, i32 0, i32 0, i32 0
  %464 = getelementptr inbounds %"class.base::FilePath", %"class.base::FilePath"* %37, i64 0, i32 0, i32 0, i32 0, i32 0, i32 0, i32 0, i32 1
  %465 = bitcast %"class.base::FilePath"* %37 to i8*
  call void @llvm.memset.p0i8.i64(i8* nonnull align 8 %465, i8 -86, i64 24, i1 false)
  %466 = call i64 @strlen(i8* nonnull getelementptr inbounds ([0 x i8], [0 x i8]* @_ZN7network8switches10kLogNetLogE, i64 0, i64 0)) #16
  call void @_ZNK4base11CommandLine18GetSwitchValuePathENS_16BasicStringPieceIcNSt3__111char_traitsIcEEEE(%"class.base::FilePath"* nonnull sret %37, %"class.base::CommandLine"* %459, i8* getelementptr inbounds ([0 x i8], [0 x i8]* @_ZN7network8switches10kLogNetLogE, i64 0, i64 0), i64 %466) #16
  %467 = bitcast %"class.base::File"* %38 to i8*
  call void @llvm.lifetime.start.p0i8(i64 56, i8* nonnull %467) #16
  call void @llvm.memset.p0i8.i64(i8* nonnull align 8 %467, i8 -86, i64 56, i1 false)
  %468 = getelementptr inbounds %"class.base::ScopedAllowBlocking", %"class.base::ScopedAllowBlocking"* %7, i64 0, i32 0
  call void @llvm.lifetime.start.p0i8(i64 1, i8* nonnull %468) #16, !noalias !35
  store i8 -86, i8* %468, align 1, !noalias !35
  %469 = bitcast %"class.base::Location"* %8 to i8*
  call void @llvm.lifetime.start.p0i8(i64 32, i8* nonnull %469) #16, !noalias !35
  call void @_ZN4base8Location7CurrentEPKcS2_i(%"class.base::Location"* nonnull sret %8, i8* getelementptr inbounds ([17 x i8], [17 x i8]* @.str.21, i64 0, i64 0), i8* getelementptr inbounds ([55 x i8], [55 x i8]* @.str, i64 0, i64 0), i32 301) #16, !noalias !35
  call void @_ZN4base19ScopedAllowBlockingC1ERKNS_8LocationE(%"class.base::ScopedAllowBlocking"* nonnull %7, %"class.base::Location"* nonnull dereferenceable(32) %8) #16, !noalias !35
  call void @llvm.lifetime.end.p0i8(i64 32, i8* nonnull %469) #16, !noalias !35
  call void @_ZN4base4FileC1ERKNS_8FilePathEj(%"class.base::File"* nonnull %38, %"class.base::FilePath"* nonnull dereferenceable(24) %37, i32 72) #16
  call void @_ZN4base19ScopedAllowBlockingD1Ev(%"class.base::ScopedAllowBlocking"* nonnull %7) #16
  call void @llvm.lifetime.end.p0i8(i64 1, i8* nonnull %468) #16, !noalias !35
  %470 = call zeroext i1 @_ZNK4base4File7IsValidEv(%"class.base::File"* nonnull %38) #16
  br i1 %470, label %488, label %471

471:                                              ; preds = %461
  %472 = call zeroext i1 @_ZN7logging22ShouldCreateLogMessageEi(i32 2) #16
  br i1 %472, label %473, label %637

473:                                              ; preds = %471
  %474 = bitcast %"class.logging::LogMessage"* %39 to i8*
  call void @llvm.lifetime.start.p0i8(i64 304, i8* nonnull %474) #16
  call void @_ZN7logging10LogMessageC1EPKcii(%"class.logging::LogMessage"* nonnull %39, i8* getelementptr inbounds ([55 x i8], [55 x i8]* @.str, i64 0, i64 0), i32 387, i32 2) #16
  %475 = getelementptr inbounds %"class.logging::LogMessage", %"class.logging::LogMessage"* %39, i64 0, i32 2
  %476 = bitcast %"class.std::__1::basic_ostringstream"* %475 to %"class.std::__1::basic_ostream"*
  %477 = call dereferenceable(160) %"class.std::__1::basic_ostream"* @_ZNSt3__124__put_character_sequenceIcNS_11char_traitsIcEEEERNS_13basic_ostreamIT_T0_EES7_PKS4_m(%"class.std::__1::basic_ostream"* dereferenceable(160) %476, i8* getelementptr inbounds ([24 x i8], [24 x i8]* @.str.5, i64 0, i64 0), i64 23) #16
  %478 = bitcast %"class.base::FilePath"* %37 to %"struct.std::__1::basic_string<char, std::__1::char_traits<char>, std::__1::allocator<char> >::__short"*
  %479 = getelementptr inbounds %"struct.std::__1::basic_string<char, std::__1::char_traits<char>, std::__1::allocator<char> >::__short", %"struct.std::__1::basic_string<char, std::__1::char_traits<char>, std::__1::allocator<char> >::__short"* %478, i64 0, i32 1, i32 0
  %480 = load i8, i8* %479, align 1
  %481 = icmp slt i8 %480, 0
  %482 = load i8*, i8** %463, align 8
  %483 = load i64, i64* %464, align 8
  %484 = zext i8 %480 to i64
  %485 = select i1 %481, i8* %482, i8* %462
  %486 = select i1 %481, i64 %483, i64 %484
  %487 = call dereferenceable(160) %"class.std::__1::basic_ostream"* @_ZNSt3__124__put_character_sequenceIcNS_11char_traitsIcEEEERNS_13basic_ostreamIT_T0_EES7_PKS4_m(%"class.std::__1::basic_ostream"* dereferenceable(160) %477, i8* %485, i64 %486) #16
  call void @_ZN7logging10LogMessageD1Ev(%"class.logging::LogMessage"* nonnull %39) #16
  call void @llvm.lifetime.end.p0i8(i64 304, i8* nonnull %474) #16
  br label %637

488:                                              ; preds = %461
  %489 = load %"class.mojo::Remote"*, %"class.mojo::Remote"** @_ZN7content12_GLOBAL__N_124g_network_service_remoteE, align 8
  %490 = getelementptr inbounds %"class.mojo::Remote", %"class.mojo::Remote"* %489, i64 0, i32 0, i32 1
  %491 = getelementptr inbounds %"class.std::__1::unique_ptr.162", %"class.std::__1::unique_ptr.162"* %490, i64 0, i32 0, i32 0, i32 0
  %492 = load %"class.network::mojom::NetworkServiceProxy"*, %"class.network::mojom::NetworkServiceProxy"** %491, align 8
  %493 = icmp eq %"class.network::mojom::NetworkServiceProxy"* %492, null
  br i1 %493, label %494, label %515

494:                                              ; preds = %488
  %495 = bitcast %"class.mojo::Remote"* %489 to %"class.mojo::internal::InterfacePtrStateBase"*
  %496 = call i8* @_Znwm(i64 8) #15
  %497 = bitcast i8* %496 to i32 (...)***
  store i32 (...)** bitcast (i8** getelementptr inbounds ({ [6 x i8*] }, { [6 x i8*] }* @_ZTVN7network5mojom31NetworkServiceResponseValidatorE, i64 0, inrange i32 0, i64 2) to i32 (...)**), i32 (...)*** %497, align 8
  %498 = bitcast i8* %496 to %"class.mojo::MessageReceiver"*
  %499 = call zeroext i1 @_ZN4mojo8internal21InterfacePtrStateBase24InitializeEndpointClientEbbbNSt3__110unique_ptrINS_15MessageReceiverENS2_14default_deleteIS4_EEEEPKc(%"class.mojo::internal::InterfacePtrStateBase"* %495, i1 zeroext false, i1 zeroext false, i1 zeroext false, %"class.mojo::MessageReceiver"* nonnull %498, i8* getelementptr inbounds ([0 x i8], [0 x i8]* @_ZN7network5mojom14NetworkService5Name_E, i64 0, i64 0)) #16
  br i1 %499, label %500, label %515

500:                                              ; preds = %494
  %501 = getelementptr inbounds %"class.mojo::Remote", %"class.mojo::Remote"* %489, i64 0, i32 0, i32 0, i32 1, i32 0, i32 0, i32 0
  %502 = bitcast %"class.mojo::InterfaceEndpointClient"** %501 to %"class.mojo::MessageReceiverWithResponder"**
  %503 = load %"class.mojo::MessageReceiverWithResponder"*, %"class.mojo::MessageReceiverWithResponder"** %502, align 8
  %504 = call i8* @_Znwm(i64 16) #15
  %505 = bitcast i8* %504 to %"class.network::mojom::NetworkServiceProxy"*
  call void @_ZN7network5mojom19NetworkServiceProxyC1EPN4mojo28MessageReceiverWithResponderE(%"class.network::mojom::NetworkServiceProxy"* nonnull %505, %"class.mojo::MessageReceiverWithResponder"* %503) #16
  %506 = ptrtoint i8* %504 to i64
  %507 = load %"class.network::mojom::NetworkServiceProxy"*, %"class.network::mojom::NetworkServiceProxy"** %491, align 8
  %508 = bitcast %"class.std::__1::unique_ptr.162"* %490 to i64*
  store i64 %506, i64* %508, align 8
  %509 = icmp eq %"class.network::mojom::NetworkServiceProxy"* %507, null
  br i1 %509, label %515, label %510

510:                                              ; preds = %500
  %511 = bitcast %"class.network::mojom::NetworkServiceProxy"* %507 to void (%"class.network::mojom::NetworkServiceProxy"*)***
  %512 = load void (%"class.network::mojom::NetworkServiceProxy"*)**, void (%"class.network::mojom::NetworkServiceProxy"*)*** %511, align 8
  %513 = getelementptr inbounds void (%"class.network::mojom::NetworkServiceProxy"*)*, void (%"class.network::mojom::NetworkServiceProxy"*)** %512, i64 1
  %514 = load void (%"class.network::mojom::NetworkServiceProxy"*)*, void (%"class.network::mojom::NetworkServiceProxy"*)** %513, align 8
  call void %514(%"class.network::mojom::NetworkServiceProxy"* nonnull %507) #16
  br label %515

515:                                              ; preds = %488, %494, %500, %510
  %516 = load %"class.network::mojom::NetworkServiceProxy"*, %"class.network::mojom::NetworkServiceProxy"** %491, align 8
  call void @_ZN4base4FileC1EOS0_(%"class.base::File"* nonnull %40, %"class.base::File"* nonnull dereferenceable(56) %38) #16
  %517 = call i64 @strlen(i8* nonnull getelementptr inbounds ([0 x i8], [0 x i8]* @_ZN7network8switches18kNetLogCaptureModeE, i64 0, i64 0)) #16
  %518 = call zeroext i1 @_ZNK4base11CommandLine9HasSwitchENS_16BasicStringPieceIcNSt3__111char_traitsIcEEEE(%"class.base::CommandLine"* %459, i8* getelementptr inbounds ([0 x i8], [0 x i8]* @_ZN7network8switches18kNetLogCaptureModeE, i64 0, i64 0), i64 %517) #16
  br i1 %518, label %519, label %625

519:                                              ; preds = %515
  %520 = bitcast %"class.std::__1::basic_string"* %3 to i8*
  call void @llvm.lifetime.start.p0i8(i64 24, i8* nonnull %520) #16
  %521 = getelementptr inbounds %"class.std::__1::basic_string", %"class.std::__1::basic_string"* %3, i64 0, i32 0, i32 0, i32 0, i32 0, i32 0, i32 0
  %522 = getelementptr inbounds %"class.std::__1::basic_string", %"class.std::__1::basic_string"* %3, i64 0, i32 0, i32 0, i32 0, i32 0, i32 0, i32 1
  call void @llvm.memset.p0i8.i64(i8* nonnull align 8 %520, i8 -86, i64 24, i1 false) #16
  call void @_ZNK4base11CommandLine19GetSwitchValueASCIIENS_16BasicStringPieceIcNSt3__111char_traitsIcEEEE(%"class.std::__1::basic_string"* nonnull sret %3, %"class.base::CommandLine"* %459, i8* getelementptr inbounds ([0 x i8], [0 x i8]* @_ZN7network8switches18kNetLogCaptureModeE, i64 0, i64 0), i64 %517) #16
  %523 = bitcast %"class.std::__1::basic_string"* %3 to %"struct.std::__1::basic_string<char, std::__1::char_traits<char>, std::__1::allocator<char> >::__short"*
  %524 = getelementptr inbounds %"struct.std::__1::basic_string<char, std::__1::char_traits<char>, std::__1::allocator<char> >::__short", %"struct.std::__1::basic_string<char, std::__1::char_traits<char>, std::__1::allocator<char> >::__short"* %523, i64 0, i32 1, i32 0
  %525 = load i8, i8* %524, align 1
  %526 = icmp slt i8 %525, 0
  %527 = load i64, i64* %522, align 8
  %528 = zext i8 %525 to i64
  %529 = select i1 %526, i64 %527, i64 %528
  %530 = icmp eq i64 %529, 7
  br i1 %530, label %531, label %538

531:                                              ; preds = %519
  %532 = call i32 @_ZNKSt3__112basic_stringIcNS_11char_traitsIcEENS_9allocatorIcEEE7compareEmmPKcm(%"class.std::__1::basic_string"* nonnull %3, i64 0, i64 -1, i8* getelementptr inbounds ([8 x i8], [8 x i8]* @.str.22, i64 0, i64 0), i64 7) #16
  %533 = icmp eq i32 %532, 0
  br i1 %533, label %617, label %534

534:                                              ; preds = %531
  %535 = load i8, i8* %524, align 1
  %536 = load i64, i64* %522, align 8
  %537 = zext i8 %535 to i64
  br label %538

538:                                              ; preds = %534, %519
  %539 = phi i64 [ %537, %534 ], [ %528, %519 ]
  %540 = phi i64 [ %536, %534 ], [ %527, %519 ]
  %541 = phi i8 [ %535, %534 ], [ %525, %519 ]
  %542 = icmp slt i8 %541, 0
  %543 = select i1 %542, i64 %540, i64 %539
  %544 = icmp eq i64 %543, 16
  br i1 %544, label %545, label %552

545:                                              ; preds = %538
  %546 = call i32 @_ZNKSt3__112basic_stringIcNS_11char_traitsIcEENS_9allocatorIcEEE7compareEmmPKcm(%"class.std::__1::basic_string"* nonnull %3, i64 0, i64 -1, i8* getelementptr inbounds ([17 x i8], [17 x i8]* @.str.23, i64 0, i64 0), i64 16) #16
  %547 = icmp eq i32 %546, 0
  br i1 %547, label %617, label %548

548:                                              ; preds = %545
  %549 = load i8, i8* %524, align 1
  %550 = load i64, i64* %522, align 8
  %551 = zext i8 %549 to i64
  br label %552

552:                                              ; preds = %548, %538
  %553 = phi i64 [ %551, %548 ], [ %539, %538 ]
  %554 = phi i64 [ %550, %548 ], [ %540, %538 ]
  %555 = phi i8 [ %549, %548 ], [ %541, %538 ]
  %556 = icmp slt i8 %555, 0
  %557 = select i1 %556, i64 %554, i64 %553
  %558 = icmp eq i64 %557, 10
  br i1 %558, label %559, label %566

559:                                              ; preds = %552
  %560 = call i32 @_ZNKSt3__112basic_stringIcNS_11char_traitsIcEENS_9allocatorIcEEE7compareEmmPKcm(%"class.std::__1::basic_string"* nonnull %3, i64 0, i64 -1, i8* getelementptr inbounds ([11 x i8], [11 x i8]* @.str.24, i64 0, i64 0), i64 10) #16
  %561 = icmp eq i32 %560, 0
  br i1 %561, label %617, label %562

562:                                              ; preds = %559
  %563 = load i8, i8* %524, align 1
  %564 = load i64, i64* %522, align 8
  %565 = zext i8 %563 to i64
  br label %566

566:                                              ; preds = %562, %552
  %567 = phi i64 [ %565, %562 ], [ %553, %552 ]
  %568 = phi i64 [ %564, %562 ], [ %554, %552 ]
  %569 = phi i8 [ %563, %562 ], [ %555, %552 ]
  %570 = icmp slt i8 %569, 0
  %571 = select i1 %570, i64 %568, i64 %567
  %572 = icmp eq i64 %571, 28
  br i1 %572, label %573, label %589

573:                                              ; preds = %566
  %574 = call i32 @_ZNKSt3__112basic_stringIcNS_11char_traitsIcEENS_9allocatorIcEEE7compareEmmPKcm(%"class.std::__1::basic_string"* nonnull %3, i64 0, i64 -1, i8* getelementptr inbounds ([29 x i8], [29 x i8]* @.str.25, i64 0, i64 0), i64 28) #16
  %575 = icmp eq i32 %574, 0
  br i1 %575, label %580, label %576

576:                                              ; preds = %573
  %577 = load i8, i8* %524, align 1
  %578 = load i64, i64* %522, align 8
  %579 = zext i8 %577 to i64
  br label %589

580:                                              ; preds = %573
  %581 = call zeroext i1 @_ZN7logging22ShouldCreateLogMessageEi(i32 2) #16
  br i1 %581, label %582, label %617

582:                                              ; preds = %580
  %583 = bitcast %"class.logging::LogMessage"* %4 to i8*
  call void @llvm.lifetime.start.p0i8(i64 304, i8* nonnull %583) #16
  call void @_ZN7logging10LogMessageC1EPKcii(%"class.logging::LogMessage"* nonnull %4, i8* getelementptr inbounds ([55 x i8], [55 x i8]* @.str, i64 0, i64 0), i32 236, i32 2) #16
  %584 = getelementptr inbounds %"class.logging::LogMessage", %"class.logging::LogMessage"* %4, i64 0, i32 2
  %585 = bitcast %"class.std::__1::basic_ostringstream"* %584 to %"class.std::__1::basic_ostream"*
  %586 = call dereferenceable(160) %"class.std::__1::basic_ostream"* @_ZNSt3__124__put_character_sequenceIcNS_11char_traitsIcEEEERNS_13basic_ostreamIT_T0_EES7_PKS4_m(%"class.std::__1::basic_ostream"* dereferenceable(160) %585, i8* getelementptr inbounds ([24 x i8], [24 x i8]* @.str.26, i64 0, i64 0), i64 23) #16
  %587 = call dereferenceable(160) %"class.std::__1::basic_ostream"* @_ZN4baselsERNSt3__113basic_ostreamIcNS0_11char_traitsIcEEEENS_16BasicStringPieceIcS3_EE(%"class.std::__1::basic_ostream"* dereferenceable(160) %586, i8* getelementptr inbounds ([0 x i8], [0 x i8]* @_ZN7network8switches18kNetLogCaptureModeE, i64 0, i64 0), i64 %517) #16
  %588 = call dereferenceable(160) %"class.std::__1::basic_ostream"* @_ZNSt3__124__put_character_sequenceIcNS_11char_traitsIcEEEERNS_13basic_ostreamIT_T0_EES7_PKS4_m(%"class.std::__1::basic_ostream"* dereferenceable(160) %587, i8* getelementptr inbounds ([31 x i8], [31 x i8]* @.str.27, i64 0, i64 0), i64 30) #16
  call void @_ZN7logging10LogMessageD1Ev(%"class.logging::LogMessage"* nonnull %4) #16
  call void @llvm.lifetime.end.p0i8(i64 304, i8* nonnull %583) #16
  br label %617

589:                                              ; preds = %576, %566
  %590 = phi i64 [ %579, %576 ], [ %567, %566 ]
  %591 = phi i64 [ %578, %576 ], [ %568, %566 ]
  %592 = phi i8 [ %577, %576 ], [ %569, %566 ]
  %593 = icmp slt i8 %592, 0
  %594 = select i1 %593, i64 %591, i64 %590
  %595 = icmp eq i64 %594, 18
  br i1 %595, label %598, label %596

596:                                              ; preds = %589
  %597 = call zeroext i1 @_ZN7logging22ShouldCreateLogMessageEi(i32 2) #16
  br i1 %597, label %611, label %617

598:                                              ; preds = %589
  %599 = call i32 @_ZNKSt3__112basic_stringIcNS_11char_traitsIcEENS_9allocatorIcEEE7compareEmmPKcm(%"class.std::__1::basic_string"* nonnull %3, i64 0, i64 -1, i8* getelementptr inbounds ([19 x i8], [19 x i8]* @.str.28, i64 0, i64 0), i64 18) #16
  %600 = icmp eq i32 %599, 0
  %601 = call zeroext i1 @_ZN7logging22ShouldCreateLogMessageEi(i32 2) #16
  br i1 %600, label %602, label %610

602:                                              ; preds = %598
  br i1 %601, label %603, label %617

603:                                              ; preds = %602
  %604 = bitcast %"class.logging::LogMessage"* %5 to i8*
  call void @llvm.lifetime.start.p0i8(i64 304, i8* nonnull %604) #16
  call void @_ZN7logging10LogMessageC1EPKcii(%"class.logging::LogMessage"* nonnull %5, i8* getelementptr inbounds ([55 x i8], [55 x i8]* @.str, i64 0, i64 0), i32 241, i32 2) #16
  %605 = getelementptr inbounds %"class.logging::LogMessage", %"class.logging::LogMessage"* %5, i64 0, i32 2
  %606 = bitcast %"class.std::__1::basic_ostringstream"* %605 to %"class.std::__1::basic_ostream"*
  %607 = call dereferenceable(160) %"class.std::__1::basic_ostream"* @_ZNSt3__124__put_character_sequenceIcNS_11char_traitsIcEEEERNS_13basic_ostreamIT_T0_EES7_PKS4_m(%"class.std::__1::basic_ostream"* dereferenceable(160) %606, i8* getelementptr inbounds ([24 x i8], [24 x i8]* @.str.26, i64 0, i64 0), i64 23) #16
  %608 = call dereferenceable(160) %"class.std::__1::basic_ostream"* @_ZN4baselsERNSt3__113basic_ostreamIcNS0_11char_traitsIcEEEENS_16BasicStringPieceIcS3_EE(%"class.std::__1::basic_ostream"* dereferenceable(160) %607, i8* getelementptr inbounds ([0 x i8], [0 x i8]* @_ZN7network8switches18kNetLogCaptureModeE, i64 0, i64 0), i64 %517) #16
  %609 = call dereferenceable(160) %"class.std::__1::basic_ostream"* @_ZNSt3__124__put_character_sequenceIcNS_11char_traitsIcEEEERNS_13basic_ostreamIT_T0_EES7_PKS4_m(%"class.std::__1::basic_ostream"* dereferenceable(160) %608, i8* getelementptr inbounds ([25 x i8], [25 x i8]* @.str.29, i64 0, i64 0), i64 24) #16
  call void @_ZN7logging10LogMessageD1Ev(%"class.logging::LogMessage"* nonnull %5) #16
  call void @llvm.lifetime.end.p0i8(i64 304, i8* nonnull %604) #16
  br label %617

610:                                              ; preds = %598
  br i1 %601, label %611, label %617

611:                                              ; preds = %610, %596
  %612 = bitcast %"class.logging::LogMessage"* %6 to i8*
  call void @llvm.lifetime.start.p0i8(i64 304, i8* nonnull %612) #16
  call void @_ZN7logging10LogMessageC1EPKcii(%"class.logging::LogMessage"* nonnull %6, i8* getelementptr inbounds ([55 x i8], [55 x i8]* @.str, i64 0, i64 0), i32 246, i32 2) #16
  %613 = getelementptr inbounds %"class.logging::LogMessage", %"class.logging::LogMessage"* %6, i64 0, i32 2
  %614 = bitcast %"class.std::__1::basic_ostringstream"* %613 to %"class.std::__1::basic_ostream"*
  %615 = call dereferenceable(160) %"class.std::__1::basic_ostream"* @_ZNSt3__124__put_character_sequenceIcNS_11char_traitsIcEEEERNS_13basic_ostreamIT_T0_EES7_PKS4_m(%"class.std::__1::basic_ostream"* dereferenceable(160) %614, i8* getelementptr inbounds ([26 x i8], [26 x i8]* @.str.30, i64 0, i64 0), i64 25) #16
  %616 = call dereferenceable(160) %"class.std::__1::basic_ostream"* @_ZN4baselsERNSt3__113basic_ostreamIcNS0_11char_traitsIcEEEENS_16BasicStringPieceIcS3_EE(%"class.std::__1::basic_ostream"* dereferenceable(160) %615, i8* getelementptr inbounds ([0 x i8], [0 x i8]* @_ZN7network8switches18kNetLogCaptureModeE, i64 0, i64 0), i64 %517) #16
  call void @_ZN7logging10LogMessageD1Ev(%"class.logging::LogMessage"* nonnull %6) #16
  call void @llvm.lifetime.end.p0i8(i64 304, i8* nonnull %612) #16
  br label %617

617:                                              ; preds = %611, %610, %603, %602, %596, %582, %580, %559, %545, %531
  %618 = phi i1 [ false, %531 ], [ false, %545 ], [ false, %559 ], [ false, %580 ], [ false, %582 ], [ false, %602 ], [ false, %603 ], [ true, %596 ], [ true, %610 ], [ true, %611 ]
  %619 = phi i32 [ 0, %531 ], [ 1, %545 ], [ 2, %559 ], [ 1, %580 ], [ 1, %582 ], [ 2, %602 ], [ 2, %603 ], [ undef, %596 ], [ undef, %610 ], [ undef, %611 ]
  %620 = load i8, i8* %524, align 1
  %621 = icmp slt i8 %620, 0
  br i1 %621, label %622, label %624

622:                                              ; preds = %617
  %623 = load i8*, i8** %521, align 8
  call void @_ZdlPv(i8* %623) #15
  br label %624

624:                                              ; preds = %622, %617
  call void @llvm.lifetime.end.p0i8(i64 24, i8* nonnull %520) #16
  br i1 %618, label %625, label %626

625:                                              ; preds = %624, %515
  br label %626

626:                                              ; preds = %624, %625
  %627 = phi i32 [ 0, %625 ], [ %619, %624 ]
  %628 = bitcast %"class.base::DictionaryValue"* %42 to i8*
  call void @llvm.lifetime.start.p0i8(i64 32, i8* nonnull %628) #16
  %629 = call %"class.content::ContentClient"* @_ZN7content16GetContentClientEv() #16
  %630 = getelementptr inbounds %"class.content::ContentClient", %"class.content::ContentClient"* %629, i64 0, i32 1
  %631 = load %"class.content::ContentBrowserClient"*, %"class.content::ContentBrowserClient"** %630, align 8
  %632 = bitcast %"class.content::ContentBrowserClient"* %631 to void (%"class.base::DictionaryValue"*, %"class.content::ContentBrowserClient"*)***
  %633 = load void (%"class.base::DictionaryValue"*, %"class.content::ContentBrowserClient"*)**, void (%"class.base::DictionaryValue"*, %"class.content::ContentBrowserClient"*)*** %632, align 8
  %634 = getelementptr inbounds void (%"class.base::DictionaryValue"*, %"class.content::ContentBrowserClient"*)*, void (%"class.base::DictionaryValue"*, %"class.content::ContentBrowserClient"*)** %633, i64 152
  %635 = load void (%"class.base::DictionaryValue"*, %"class.content::ContentBrowserClient"*)*, void (%"class.base::DictionaryValue"*, %"class.content::ContentBrowserClient"*)** %634, align 8
  call void %635(%"class.base::DictionaryValue"* nonnull sret %42, %"class.content::ContentBrowserClient"* %631) #16
  %636 = getelementptr inbounds %"class.base::DictionaryValue", %"class.base::DictionaryValue"* %42, i64 0, i32 0
  call void @_ZN4base5ValueC1EOS0_(%"class.base::Value"* nonnull %41, %"class.base::Value"* nonnull dereferenceable(32) %636) #16
  call void @_ZN7network5mojom19NetworkServiceProxy11StartNetLogEN4base4FileEN3net17NetLogCaptureModeENS2_5ValueE(%"class.network::mojom::NetworkServiceProxy"* %516, %"class.base::File"* nonnull %40, i32 %627, %"class.base::Value"* nonnull %41) #16
  call void @_ZN4base5ValueD1Ev(%"class.base::Value"* nonnull %41) #16
  call void @_ZN4base5ValueD2Ev(%"class.base::Value"* nonnull %636) #16
  call void @llvm.lifetime.end.p0i8(i64 32, i8* nonnull %628) #16
  call void @_ZN4base4FileD1Ev(%"class.base::File"* nonnull %40) #16
  br label %637

637:                                              ; preds = %473, %471, %626
  call void @_ZN4base4FileD1Ev(%"class.base::File"* nonnull %38) #16
  call void @llvm.lifetime.end.p0i8(i64 56, i8* nonnull %467) #16
  call void @_ZN4base8FilePathD1Ev(%"class.base::FilePath"* nonnull %37) #16
  call void @llvm.lifetime.end.p0i8(i64 24, i8* nonnull %462) #16
  br label %638

638:                                              ; preds = %637, %445
  %639 = bitcast %"class.base::FilePath"* %43 to i8*
  call void @llvm.lifetime.start.p0i8(i64 24, i8* nonnull %639) #16
  %640 = getelementptr inbounds %"class.base::FilePath", %"class.base::FilePath"* %43, i64 0, i32 0, i32 0, i32 0, i32 0, i32 0, i32 0, i32 0
  %641 = getelementptr inbounds %"class.base::FilePath", %"class.base::FilePath"* %43, i64 0, i32 0, i32 0, i32 0, i32 0, i32 0, i32 0, i32 1
  %642 = bitcast %"class.base::FilePath"* %43 to i8*
  call void @llvm.memset.p0i8.i64(i8* nonnull align 8 %642, i8 -86, i64 24, i1 false)
  call void @_ZN4base8FilePathC1Ev(%"class.base::FilePath"* nonnull %43) #16
  %643 = call zeroext i1 @_ZNK4base11CommandLine9HasSwitchEPKc(%"class.base::CommandLine"* %459, i8* getelementptr inbounds ([0 x i8], [0 x i8]* @_ZN7network8switches14kSSLKeyLogFileE, i64 0, i64 0)) #16
  br i1 %643, label %644, label %675

644:                                              ; preds = %638
  %645 = load atomic i64, i64* @_ZZN7content17GetNetworkServiceEvE24atomic_histogram_pointer.0.0.0.0.0 acquire, align 8
  %646 = inttoptr i64 %645 to %"class.base::HistogramBase"*
  %647 = icmp eq i64 %645, 0
  br i1 %647, label %648, label %651

648:                                              ; preds = %644
  %649 = call %"class.base::HistogramBase"* @_ZN4base15LinearHistogram10FactoryGetEPKciiji(i8* getelementptr inbounds ([21 x i8], [21 x i8]* @_ZN7contentL23kSSLKeyLogFileHistogramE, i64 0, i64 0), i32 1, i32 3, i32 4, i32 1) #16
  %650 = ptrtoint %"class.base::HistogramBase"* %649 to i64
  store atomic i64 %650, i64* @_ZZN7content17GetNetworkServiceEvE24atomic_histogram_pointer.0.0.0.0.0 release, align 8
  br label %651

651:                                              ; preds = %644, %648
  %652 = phi %"class.base::HistogramBase"* [ %646, %644 ], [ %649, %648 ]
  %653 = bitcast %"class.base::HistogramBase"* %652 to void (%"class.base::HistogramBase"*, i32)***
  %654 = load void (%"class.base::HistogramBase"*, i32)**, void (%"class.base::HistogramBase"*, i32)*** %653, align 8
  %655 = getelementptr inbounds void (%"class.base::HistogramBase"*, i32)*, void (%"class.base::HistogramBase"*, i32)** %654, i64 6
  %656 = load void (%"class.base::HistogramBase"*, i32)*, void (%"class.base::HistogramBase"*, i32)** %655, align 8
  call void %656(%"class.base::HistogramBase"* %652, i32 1) #16
  %657 = bitcast %"class.base::FilePath"* %44 to i8*
  call void @llvm.lifetime.start.p0i8(i64 24, i8* nonnull %657) #16
  %658 = call i64 @strlen(i8* nonnull getelementptr inbounds ([0 x i8], [0 x i8]* @_ZN7network8switches14kSSLKeyLogFileE, i64 0, i64 0)) #16
  call void @_ZNK4base11CommandLine18GetSwitchValuePathENS_16BasicStringPieceIcNSt3__111char_traitsIcEEEE(%"class.base::FilePath"* nonnull sret %44, %"class.base::CommandLine"* %459, i8* getelementptr inbounds ([0 x i8], [0 x i8]* @_ZN7network8switches14kSSLKeyLogFileE, i64 0, i64 0), i64 %658) #16
  %659 = call dereferenceable(24) %"class.base::FilePath"* @_ZN4base8FilePathaSEOS0_(%"class.base::FilePath"* nonnull %43, %"class.base::FilePath"* nonnull dereferenceable(24) %44) #16
  call void @_ZN4base8FilePathD1Ev(%"class.base::FilePath"* nonnull %44) #16
  call void @llvm.lifetime.end.p0i8(i64 24, i8* nonnull %657) #16
  %660 = call zeroext i1 @_ZN7logging22ShouldCreateLogMessageEi(i32 1) #16
  br i1 %660, label %661, label %725

661:                                              ; preds = %651
  %662 = bitcast %"class.base::FilePath"* %43 to %"struct.std::__1::basic_string<char, std::__1::char_traits<char>, std::__1::allocator<char> >::__short"*
  %663 = getelementptr inbounds %"struct.std::__1::basic_string<char, std::__1::char_traits<char>, std::__1::allocator<char> >::__short", %"struct.std::__1::basic_string<char, std::__1::char_traits<char>, std::__1::allocator<char> >::__short"* %662, i64 0, i32 1, i32 0
  %664 = load i8, i8* %663, align 1
  %665 = icmp slt i8 %664, 0
  %666 = load i64, i64* %641, align 8
  %667 = zext i8 %664 to i64
  %668 = select i1 %665, i64 %666, i64 %667
  %669 = icmp eq i64 %668, 0
  br i1 %669, label %670, label %725

670:                                              ; preds = %661
  %671 = bitcast %"class.logging::LogMessage"* %45 to i8*
  call void @llvm.lifetime.start.p0i8(i64 304, i8* nonnull %671) #16
  call void @_ZN7logging10LogMessageC1EPKcii(%"class.logging::LogMessage"* nonnull %45, i8* getelementptr inbounds ([55 x i8], [55 x i8]* @.str, i64 0, i64 0), i32 403, i32 1) #16
  %672 = getelementptr inbounds %"class.logging::LogMessage", %"class.logging::LogMessage"* %45, i64 0, i32 2
  %673 = bitcast %"class.std::__1::basic_ostringstream"* %672 to %"class.std::__1::basic_ostream"*
  %674 = call dereferenceable(160) %"class.std::__1::basic_ostream"* @_ZNSt3__124__put_character_sequenceIcNS_11char_traitsIcEEEERNS_13basic_ostreamIT_T0_EES7_PKS4_m(%"class.std::__1::basic_ostream"* dereferenceable(160) %673, i8* getelementptr inbounds ([34 x i8], [34 x i8]* @.str.6, i64 0, i64 0), i64 33) #16
  call void @_ZN7logging10LogMessageD1Ev(%"class.logging::LogMessage"* nonnull %45) #16
  call void @llvm.lifetime.end.p0i8(i64 304, i8* nonnull %671) #16
  br label %725

675:                                              ; preds = %638
  %676 = call %"class.base::Environment"* @_ZN4base11Environment6CreateEv() #16
  %677 = bitcast %"class.std::__1::basic_string"* %46 to i8*
  call void @llvm.lifetime.start.p0i8(i64 24, i8* nonnull %677) #16
  %678 = getelementptr inbounds %"class.std::__1::basic_string", %"class.std::__1::basic_string"* %46, i64 0, i32 0, i32 0, i32 0, i32 0, i32 0, i32 0
  %679 = getelementptr inbounds %"class.std::__1::basic_string", %"class.std::__1::basic_string"* %46, i64 0, i32 0, i32 0, i32 0, i32 0, i32 0, i32 1
  call void @llvm.memset.p0i8.i64(i8* nonnull align 8 %677, i8 0, i64 24, i1 false) #16
  %680 = bitcast %"class.base::Environment"* %676 to i1 (%"class.base::Environment"*, i8*, i64, %"class.std::__1::basic_string"*)***
  %681 = load i1 (%"class.base::Environment"*, i8*, i64, %"class.std::__1::basic_string"*)**, i1 (%"class.base::Environment"*, i8*, i64, %"class.std::__1::basic_string"*)*** %680, align 8
  %682 = getelementptr inbounds i1 (%"class.base::Environment"*, i8*, i64, %"class.std::__1::basic_string"*)*, i1 (%"class.base::Environment"*, i8*, i64, %"class.std::__1::basic_string"*)** %681, i64 2
  %683 = load i1 (%"class.base::Environment"*, i8*, i64, %"class.std::__1::basic_string"*)*, i1 (%"class.base::Environment"*, i8*, i64, %"class.std::__1::basic_string"*)** %682, align 8
  %684 = call zeroext i1 %683(%"class.base::Environment"* %676, i8* getelementptr inbounds ([14 x i8], [14 x i8]* @.str.7, i64 0, i64 0), i64 13, %"class.std::__1::basic_string"* nonnull %46) #16
  br i1 %684, label %687, label %685

685:                                              ; preds = %675
  %686 = bitcast %"class.std::__1::basic_string"* %46 to %"struct.std::__1::basic_string<char, std::__1::char_traits<char>, std::__1::allocator<char> >::__short"*
  br label %711

687:                                              ; preds = %675
  %688 = load atomic i64, i64* @_ZZN7content17GetNetworkServiceEvE24atomic_histogram_pointer_0.0.0.0.0.0 acquire, align 8
  %689 = inttoptr i64 %688 to %"class.base::HistogramBase"*
  %690 = icmp eq i64 %688, 0
  br i1 %690, label %691, label %694

691:                                              ; preds = %687
  %692 = call %"class.base::HistogramBase"* @_ZN4base15LinearHistogram10FactoryGetEPKciiji(i8* getelementptr inbounds ([21 x i8], [21 x i8]* @_ZN7contentL23kSSLKeyLogFileHistogramE, i64 0, i64 0), i32 1, i32 3, i32 4, i32 1) #16
  %693 = ptrtoint %"class.base::HistogramBase"* %692 to i64
  store atomic i64 %693, i64* @_ZZN7content17GetNetworkServiceEvE24atomic_histogram_pointer_0.0.0.0.0.0 release, align 8
  br label %694

694:                                              ; preds = %687, %691
  %695 = phi %"class.base::HistogramBase"* [ %689, %687 ], [ %692, %691 ]
  %696 = bitcast %"class.base::HistogramBase"* %695 to void (%"class.base::HistogramBase"*, i32)***
  %697 = load void (%"class.base::HistogramBase"*, i32)**, void (%"class.base::HistogramBase"*, i32)*** %696, align 8
  %698 = getelementptr inbounds void (%"class.base::HistogramBase"*, i32)*, void (%"class.base::HistogramBase"*, i32)** %697, i64 6
  %699 = load void (%"class.base::HistogramBase"*, i32)*, void (%"class.base::HistogramBase"*, i32)** %698, align 8
  call void %699(%"class.base::HistogramBase"* %695, i32 2) #16
  %700 = bitcast %"class.base::FilePath"* %47 to i8*
  call void @llvm.lifetime.start.p0i8(i64 24, i8* nonnull %700) #16
  %701 = bitcast %"class.std::__1::basic_string"* %46 to %"struct.std::__1::basic_string<char, std::__1::char_traits<char>, std::__1::allocator<char> >::__short"*
  %702 = getelementptr inbounds %"struct.std::__1::basic_string<char, std::__1::char_traits<char>, std::__1::allocator<char> >::__short", %"struct.std::__1::basic_string<char, std::__1::char_traits<char>, std::__1::allocator<char> >::__short"* %701, i64 0, i32 1, i32 0
  %703 = load i8, i8* %702, align 1
  %704 = icmp slt i8 %703, 0
  %705 = load i8*, i8** %678, align 8
  %706 = select i1 %704, i8* %705, i8* %677
  %707 = load i64, i64* %679, align 8
  %708 = zext i8 %703 to i64
  %709 = select i1 %704, i64 %707, i64 %708
  call void @_ZN4base8FilePathC1ENS_16BasicStringPieceIcNSt3__111char_traitsIcEEEE(%"class.base::FilePath"* nonnull %47, i8* %706, i64 %709) #16
  %710 = call dereferenceable(24) %"class.base::FilePath"* @_ZN4base8FilePathaSEOS0_(%"class.base::FilePath"* nonnull %43, %"class.base::FilePath"* nonnull dereferenceable(24) %47) #16
  call void @_ZN4base8FilePathD1Ev(%"class.base::FilePath"* nonnull %47) #16
  call void @llvm.lifetime.end.p0i8(i64 24, i8* nonnull %700) #16
  br label %711

711:                                              ; preds = %685, %694
  %712 = phi %"struct.std::__1::basic_string<char, std::__1::char_traits<char>, std::__1::allocator<char> >::__short"* [ %686, %685 ], [ %701, %694 ]
  %713 = getelementptr inbounds %"struct.std::__1::basic_string<char, std::__1::char_traits<char>, std::__1::allocator<char> >::__short", %"struct.std::__1::basic_string<char, std::__1::char_traits<char>, std::__1::allocator<char> >::__short"* %712, i64 0, i32 1, i32 0
  %714 = load i8, i8* %713, align 1
  %715 = icmp slt i8 %714, 0
  br i1 %715, label %716, label %718

716:                                              ; preds = %711
  %717 = load i8*, i8** %678, align 8
  call void @_ZdlPv(i8* %717) #15
  br label %718

718:                                              ; preds = %711, %716
  call void @llvm.lifetime.end.p0i8(i64 24, i8* nonnull %677) #16
  %719 = icmp eq %"class.base::Environment"* %676, null
  br i1 %719, label %725, label %720

720:                                              ; preds = %718
  %721 = bitcast %"class.base::Environment"* %676 to void (%"class.base::Environment"*)***
  %722 = load void (%"class.base::Environment"*)**, void (%"class.base::Environment"*)*** %721, align 8
  %723 = getelementptr inbounds void (%"class.base::Environment"*)*, void (%"class.base::Environment"*)** %722, i64 1
  %724 = load void (%"class.base::Environment"*)*, void (%"class.base::Environment"*)** %723, align 8
  call void %724(%"class.base::Environment"* nonnull %676) #16
  br label %725

725:                                              ; preds = %720, %718, %670, %651, %661
  %726 = bitcast %"class.base::FilePath"* %43 to %"struct.std::__1::basic_string<char, std::__1::char_traits<char>, std::__1::allocator<char> >::__short"*
  %727 = getelementptr inbounds %"struct.std::__1::basic_string<char, std::__1::char_traits<char>, std::__1::allocator<char> >::__short", %"struct.std::__1::basic_string<char, std::__1::char_traits<char>, std::__1::allocator<char> >::__short"* %726, i64 0, i32 1, i32 0
  %728 = load i8, i8* %727, align 1
  %729 = icmp slt i8 %728, 0
  %730 = load i64, i64* %641, align 8
  %731 = zext i8 %728 to i64
  %732 = select i1 %729, i64 %730, i64 %731
  %733 = icmp eq i64 %732, 0
  br i1 %733, label %796, label %734

734:                                              ; preds = %725
  %735 = bitcast %"class.base::File"* %48 to i8*
  call void @llvm.lifetime.start.p0i8(i64 56, i8* nonnull %735) #16
  call void @llvm.memset.p0i8.i64(i8* nonnull align 8 %735, i8 -86, i64 56, i1 false)
  %736 = getelementptr inbounds %"class.base::ScopedAllowBlocking", %"class.base::ScopedAllowBlocking"* %1, i64 0, i32 0
  call void @llvm.lifetime.start.p0i8(i64 1, i8* nonnull %736) #16, !noalias !38
  store i8 -86, i8* %736, align 1, !noalias !38
  %737 = bitcast %"class.base::Location"* %2 to i8*
  call void @llvm.lifetime.start.p0i8(i64 32, i8* nonnull %737) #16, !noalias !38
  call void @_ZN4base8Location7CurrentEPKcS2_i(%"class.base::Location"* nonnull sret %2, i8* getelementptr inbounds ([17 x i8], [17 x i8]* @.str.21, i64 0, i64 0), i8* getelementptr inbounds ([55 x i8], [55 x i8]* @.str, i64 0, i64 0), i32 301) #16, !noalias !38
  call void @_ZN4base19ScopedAllowBlockingC1ERKNS_8LocationE(%"class.base::ScopedAllowBlocking"* nonnull %1, %"class.base::Location"* nonnull dereferenceable(32) %2) #16, !noalias !38
  call void @llvm.lifetime.end.p0i8(i64 32, i8* nonnull %737) #16, !noalias !38
  call void @_ZN4base4FileC1ERKNS_8FilePathEj(%"class.base::File"* nonnull %48, %"class.base::FilePath"* nonnull dereferenceable(24) %43, i32 132) #16
  call void @_ZN4base19ScopedAllowBlockingD1Ev(%"class.base::ScopedAllowBlocking"* nonnull %1) #16
  call void @llvm.lifetime.end.p0i8(i64 1, i8* nonnull %736) #16, !noalias !38
  %738 = call zeroext i1 @_ZNK4base4File7IsValidEv(%"class.base::File"* nonnull %48) #16
  br i1 %738, label %754, label %739

739:                                              ; preds = %734
  %740 = call zeroext i1 @_ZN7logging22ShouldCreateLogMessageEi(i32 2) #16
  br i1 %740, label %741, label %795

741:                                              ; preds = %739
  %742 = bitcast %"class.logging::LogMessage"* %49 to i8*
  call void @llvm.lifetime.start.p0i8(i64 304, i8* nonnull %742) #16
  call void @_ZN7logging10LogMessageC1EPKcii(%"class.logging::LogMessage"* nonnull %49, i8* getelementptr inbounds ([55 x i8], [55 x i8]* @.str, i64 0, i64 0), i32 426, i32 2) #16
  %743 = getelementptr inbounds %"class.logging::LogMessage", %"class.logging::LogMessage"* %49, i64 0, i32 2
  %744 = bitcast %"class.std::__1::basic_ostringstream"* %743 to %"class.std::__1::basic_ostream"*
  %745 = call dereferenceable(160) %"class.std::__1::basic_ostream"* @_ZNSt3__124__put_character_sequenceIcNS_11char_traitsIcEEEERNS_13basic_ostreamIT_T0_EES7_PKS4_m(%"class.std::__1::basic_ostream"* dereferenceable(160) %744, i8* getelementptr inbounds ([34 x i8], [34 x i8]* @.str.8, i64 0, i64 0), i64 33) #16
  %746 = load i8, i8* %727, align 1
  %747 = icmp slt i8 %746, 0
  %748 = load i8*, i8** %640, align 8
  %749 = load i64, i64* %641, align 8
  %750 = zext i8 %746 to i64
  %751 = select i1 %747, i8* %748, i8* %639
  %752 = select i1 %747, i64 %749, i64 %750
  %753 = call dereferenceable(160) %"class.std::__1::basic_ostream"* @_ZNSt3__124__put_character_sequenceIcNS_11char_traitsIcEEEERNS_13basic_ostreamIT_T0_EES7_PKS4_m(%"class.std::__1::basic_ostream"* dereferenceable(160) %745, i8* %751, i64 %752) #16
  call void @_ZN7logging10LogMessageD1Ev(%"class.logging::LogMessage"* nonnull %49) #16
  call void @llvm.lifetime.end.p0i8(i64 304, i8* nonnull %742) #16
  br label %795

754:                                              ; preds = %734
  %755 = load atomic i64, i64* @_ZZN7content17GetNetworkServiceEvE24atomic_histogram_pointer_1.0.0.0.0.0 acquire, align 8
  %756 = inttoptr i64 %755 to %"class.base::HistogramBase"*
  %757 = icmp eq i64 %755, 0
  br i1 %757, label %758, label %761

758:                                              ; preds = %754
  %759 = call %"class.base::HistogramBase"* @_ZN4base15LinearHistogram10FactoryGetEPKciiji(i8* getelementptr inbounds ([21 x i8], [21 x i8]* @_ZN7contentL23kSSLKeyLogFileHistogramE, i64 0, i64 0), i32 1, i32 3, i32 4, i32 1) #16
  %760 = ptrtoint %"class.base::HistogramBase"* %759 to i64
  store atomic i64 %760, i64* @_ZZN7content17GetNetworkServiceEvE24atomic_histogram_pointer_1.0.0.0.0.0 release, align 8
  br label %761

761:                                              ; preds = %754, %758
  %762 = phi %"class.base::HistogramBase"* [ %756, %754 ], [ %759, %758 ]
  %763 = bitcast %"class.base::HistogramBase"* %762 to void (%"class.base::HistogramBase"*, i32)***
  %764 = load void (%"class.base::HistogramBase"*, i32)**, void (%"class.base::HistogramBase"*, i32)*** %763, align 8
  %765 = getelementptr inbounds void (%"class.base::HistogramBase"*, i32)*, void (%"class.base::HistogramBase"*, i32)** %764, i64 6
  %766 = load void (%"class.base::HistogramBase"*, i32)*, void (%"class.base::HistogramBase"*, i32)** %765, align 8
  call void %766(%"class.base::HistogramBase"* %762, i32 0) #16
  %767 = load %"class.mojo::Remote"*, %"class.mojo::Remote"** @_ZN7content12_GLOBAL__N_124g_network_service_remoteE, align 8
  %768 = getelementptr inbounds %"class.mojo::Remote", %"class.mojo::Remote"* %767, i64 0, i32 0, i32 1
  %769 = getelementptr inbounds %"class.std::__1::unique_ptr.162", %"class.std::__1::unique_ptr.162"* %768, i64 0, i32 0, i32 0, i32 0
  %770 = load %"class.network::mojom::NetworkServiceProxy"*, %"class.network::mojom::NetworkServiceProxy"** %769, align 8
  %771 = icmp eq %"class.network::mojom::NetworkServiceProxy"* %770, null
  br i1 %771, label %772, label %793

772:                                              ; preds = %761
  %773 = bitcast %"class.mojo::Remote"* %767 to %"class.mojo::internal::InterfacePtrStateBase"*
  %774 = call i8* @_Znwm(i64 8) #15
  %775 = bitcast i8* %774 to i32 (...)***
  store i32 (...)** bitcast (i8** getelementptr inbounds ({ [6 x i8*] }, { [6 x i8*] }* @_ZTVN7network5mojom31NetworkServiceResponseValidatorE, i64 0, inrange i32 0, i64 2) to i32 (...)**), i32 (...)*** %775, align 8
  %776 = bitcast i8* %774 to %"class.mojo::MessageReceiver"*
  %777 = call zeroext i1 @_ZN4mojo8internal21InterfacePtrStateBase24InitializeEndpointClientEbbbNSt3__110unique_ptrINS_15MessageReceiverENS2_14default_deleteIS4_EEEEPKc(%"class.mojo::internal::InterfacePtrStateBase"* %773, i1 zeroext false, i1 zeroext false, i1 zeroext false, %"class.mojo::MessageReceiver"* nonnull %776, i8* getelementptr inbounds ([0 x i8], [0 x i8]* @_ZN7network5mojom14NetworkService5Name_E, i64 0, i64 0)) #16
  br i1 %777, label %778, label %793

778:                                              ; preds = %772
  %779 = getelementptr inbounds %"class.mojo::Remote", %"class.mojo::Remote"* %767, i64 0, i32 0, i32 0, i32 1, i32 0, i32 0, i32 0
  %780 = bitcast %"class.mojo::InterfaceEndpointClient"** %779 to %"class.mojo::MessageReceiverWithResponder"**
  %781 = load %"class.mojo::MessageReceiverWithResponder"*, %"class.mojo::MessageReceiverWithResponder"** %780, align 8
  %782 = call i8* @_Znwm(i64 16) #15
  %783 = bitcast i8* %782 to %"class.network::mojom::NetworkServiceProxy"*
  call void @_ZN7network5mojom19NetworkServiceProxyC1EPN4mojo28MessageReceiverWithResponderE(%"class.network::mojom::NetworkServiceProxy"* nonnull %783, %"class.mojo::MessageReceiverWithResponder"* %781) #16
  %784 = ptrtoint i8* %782 to i64
  %785 = load %"class.network::mojom::NetworkServiceProxy"*, %"class.network::mojom::NetworkServiceProxy"** %769, align 8
  %786 = bitcast %"class.std::__1::unique_ptr.162"* %768 to i64*
  store i64 %784, i64* %786, align 8
  %787 = icmp eq %"class.network::mojom::NetworkServiceProxy"* %785, null
  br i1 %787, label %793, label %788

788:                                              ; preds = %778
  %789 = bitcast %"class.network::mojom::NetworkServiceProxy"* %785 to void (%"class.network::mojom::NetworkServiceProxy"*)***
  %790 = load void (%"class.network::mojom::NetworkServiceProxy"*)**, void (%"class.network::mojom::NetworkServiceProxy"*)*** %789, align 8
  %791 = getelementptr inbounds void (%"class.network::mojom::NetworkServiceProxy"*)*, void (%"class.network::mojom::NetworkServiceProxy"*)** %790, i64 1
  %792 = load void (%"class.network::mojom::NetworkServiceProxy"*)*, void (%"class.network::mojom::NetworkServiceProxy"*)** %791, align 8
  call void %792(%"class.network::mojom::NetworkServiceProxy"* nonnull %785) #16
  br label %793

793:                                              ; preds = %761, %772, %778, %788
  %794 = load %"class.network::mojom::NetworkServiceProxy"*, %"class.network::mojom::NetworkServiceProxy"** %769, align 8
  call void @_ZN4base4FileC1EOS0_(%"class.base::File"* nonnull %50, %"class.base::File"* nonnull dereferenceable(56) %48) #16
  call void @_ZN7network5mojom19NetworkServiceProxy16SetSSLKeyLogFileEN4base4FileE(%"class.network::mojom::NetworkServiceProxy"* %794, %"class.base::File"* nonnull %50) #16
  call void @_ZN4base4FileD1Ev(%"class.base::File"* nonnull %50) #16
  br label %795

795:                                              ; preds = %741, %739, %793
  call void @_ZN4base4FileD1Ev(%"class.base::File"* nonnull %48) #16
  call void @llvm.lifetime.end.p0i8(i64 56, i8* nonnull %735) #16
  br label %796

796:                                              ; preds = %795, %725
  %797 = call %"class.content::ContentClient"* @_ZN7content16GetContentClientEv() #16
  %798 = getelementptr inbounds %"class.content::ContentClient", %"class.content::ContentClient"* %797, i64 0, i32 1
  %799 = load %"class.content::ContentBrowserClient"*, %"class.content::ContentBrowserClient"** %798, align 8
  %800 = load %"class.mojo::Remote"*, %"class.mojo::Remote"** @_ZN7content12_GLOBAL__N_124g_network_service_remoteE, align 8
  %801 = getelementptr inbounds %"class.mojo::Remote", %"class.mojo::Remote"* %800, i64 0, i32 0, i32 1
  %802 = getelementptr inbounds %"class.std::__1::unique_ptr.162", %"class.std::__1::unique_ptr.162"* %801, i64 0, i32 0, i32 0, i32 0
  %803 = load %"class.network::mojom::NetworkServiceProxy"*, %"class.network::mojom::NetworkServiceProxy"** %802, align 8
  %804 = icmp eq %"class.network::mojom::NetworkServiceProxy"* %803, null
  br i1 %804, label %805, label %826

805:                                              ; preds = %796
  %806 = bitcast %"class.mojo::Remote"* %800 to %"class.mojo::internal::InterfacePtrStateBase"*
  %807 = call i8* @_Znwm(i64 8) #15
  %808 = bitcast i8* %807 to i32 (...)***
  store i32 (...)** bitcast (i8** getelementptr inbounds ({ [6 x i8*] }, { [6 x i8*] }* @_ZTVN7network5mojom31NetworkServiceResponseValidatorE, i64 0, inrange i32 0, i64 2) to i32 (...)**), i32 (...)*** %808, align 8
  %809 = bitcast i8* %807 to %"class.mojo::MessageReceiver"*
  %810 = call zeroext i1 @_ZN4mojo8internal21InterfacePtrStateBase24InitializeEndpointClientEbbbNSt3__110unique_ptrINS_15MessageReceiverENS2_14default_deleteIS4_EEEEPKc(%"class.mojo::internal::InterfacePtrStateBase"* %806, i1 zeroext false, i1 zeroext false, i1 zeroext false, %"class.mojo::MessageReceiver"* nonnull %809, i8* getelementptr inbounds ([0 x i8], [0 x i8]* @_ZN7network5mojom14NetworkService5Name_E, i64 0, i64 0)) #16
  br i1 %810, label %811, label %826

811:                                              ; preds = %805
  %812 = getelementptr inbounds %"class.mojo::Remote", %"class.mojo::Remote"* %800, i64 0, i32 0, i32 0, i32 1, i32 0, i32 0, i32 0
  %813 = bitcast %"class.mojo::InterfaceEndpointClient"** %812 to %"class.mojo::MessageReceiverWithResponder"**
  %814 = load %"class.mojo::MessageReceiverWithResponder"*, %"class.mojo::MessageReceiverWithResponder"** %813, align 8
  %815 = call i8* @_Znwm(i64 16) #15
  %816 = bitcast i8* %815 to %"class.network::mojom::NetworkServiceProxy"*
  call void @_ZN7network5mojom19NetworkServiceProxyC1EPN4mojo28MessageReceiverWithResponderE(%"class.network::mojom::NetworkServiceProxy"* nonnull %816, %"class.mojo::MessageReceiverWithResponder"* %814) #16
  %817 = ptrtoint i8* %815 to i64
  %818 = load %"class.network::mojom::NetworkServiceProxy"*, %"class.network::mojom::NetworkServiceProxy"** %802, align 8
  %819 = bitcast %"class.std::__1::unique_ptr.162"* %801 to i64*
  store i64 %817, i64* %819, align 8
  %820 = icmp eq %"class.network::mojom::NetworkServiceProxy"* %818, null
  br i1 %820, label %826, label %821

821:                                              ; preds = %811
  %822 = bitcast %"class.network::mojom::NetworkServiceProxy"* %818 to void (%"class.network::mojom::NetworkServiceProxy"*)***
  %823 = load void (%"class.network::mojom::NetworkServiceProxy"*)**, void (%"class.network::mojom::NetworkServiceProxy"*)*** %822, align 8
  %824 = getelementptr inbounds void (%"class.network::mojom::NetworkServiceProxy"*)*, void (%"class.network::mojom::NetworkServiceProxy"*)** %823, i64 1
  %825 = load void (%"class.network::mojom::NetworkServiceProxy"*)*, void (%"class.network::mojom::NetworkServiceProxy"*)** %824, align 8
  call void %825(%"class.network::mojom::NetworkServiceProxy"* nonnull %818) #16
  br label %826

826:                                              ; preds = %796, %805, %811, %821
  %827 = load %"class.network::mojom::NetworkServiceProxy"*, %"class.network::mojom::NetworkServiceProxy"** %802, align 8
  %828 = getelementptr inbounds %"class.network::mojom::NetworkServiceProxy", %"class.network::mojom::NetworkServiceProxy"* %827, i64 0, i32 0
  %829 = bitcast %"class.content::ContentBrowserClient"* %799 to void (%"class.content::ContentBrowserClient"*, %"class.network::mojom::NetworkService"*)***
  %830 = load void (%"class.content::ContentBrowserClient"*, %"class.network::mojom::NetworkService"*)**, void (%"class.content::ContentBrowserClient"*, %"class.network::mojom::NetworkService"*)*** %829, align 8
  %831 = getelementptr inbounds void (%"class.content::ContentBrowserClient"*, %"class.network::mojom::NetworkService"*)*, void (%"class.content::ContentBrowserClient"*, %"class.network::mojom::NetworkService"*)** %830, i64 149
  %832 = load void (%"class.content::ContentBrowserClient"*, %"class.network::mojom::NetworkService"*)*, void (%"class.content::ContentBrowserClient"*, %"class.network::mojom::NetworkService"*)** %831, align 8
  call void %832(%"class.content::ContentBrowserClient"* %799, %"class.network::mojom::NetworkService"* %828) #16
  call void @_ZN4base8FilePathD1Ev(%"class.base::FilePath"* nonnull %43) #16
  call void @llvm.lifetime.end.p0i8(i64 24, i8* nonnull %639) #16
  br label %833

833:                                              ; preds = %68, %104, %826, %69
  %834 = load %"class.mojo::Remote"*, %"class.mojo::Remote"** @_ZN7content12_GLOBAL__N_124g_network_service_remoteE, align 8
  %835 = getelementptr inbounds %"class.mojo::Remote", %"class.mojo::Remote"* %834, i64 0, i32 0, i32 1
  %836 = getelementptr inbounds %"class.std::__1::unique_ptr.162", %"class.std::__1::unique_ptr.162"* %835, i64 0, i32 0, i32 0, i32 0
  %837 = load %"class.network::mojom::NetworkServiceProxy"*, %"class.network::mojom::NetworkServiceProxy"** %836, align 8
  %838 = icmp eq %"class.network::mojom::NetworkServiceProxy"* %837, null
  br i1 %838, label %839, label %860

839:                                              ; preds = %833
  %840 = bitcast %"class.mojo::Remote"* %834 to %"class.mojo::internal::InterfacePtrStateBase"*
  %841 = call i8* @_Znwm(i64 8) #15
  %842 = bitcast i8* %841 to i32 (...)***
  store i32 (...)** bitcast (i8** getelementptr inbounds ({ [6 x i8*] }, { [6 x i8*] }* @_ZTVN7network5mojom31NetworkServiceResponseValidatorE, i64 0, inrange i32 0, i64 2) to i32 (...)**), i32 (...)*** %842, align 8
  %843 = bitcast i8* %841 to %"class.mojo::MessageReceiver"*
  %844 = call zeroext i1 @_ZN4mojo8internal21InterfacePtrStateBase24InitializeEndpointClientEbbbNSt3__110unique_ptrINS_15MessageReceiverENS2_14default_deleteIS4_EEEEPKc(%"class.mojo::internal::InterfacePtrStateBase"* %840, i1 zeroext false, i1 zeroext false, i1 zeroext false, %"class.mojo::MessageReceiver"* nonnull %843, i8* getelementptr inbounds ([0 x i8], [0 x i8]* @_ZN7network5mojom14NetworkService5Name_E, i64 0, i64 0)) #16
  br i1 %844, label %845, label %860

845:                                              ; preds = %839
  %846 = getelementptr inbounds %"class.mojo::Remote", %"class.mojo::Remote"* %834, i64 0, i32 0, i32 0, i32 1, i32 0, i32 0, i32 0
  %847 = bitcast %"class.mojo::InterfaceEndpointClient"** %846 to %"class.mojo::MessageReceiverWithResponder"**
  %848 = load %"class.mojo::MessageReceiverWithResponder"*, %"class.mojo::MessageReceiverWithResponder"** %847, align 8
  %849 = call i8* @_Znwm(i64 16) #15
  %850 = bitcast i8* %849 to %"class.network::mojom::NetworkServiceProxy"*
  call void @_ZN7network5mojom19NetworkServiceProxyC1EPN4mojo28MessageReceiverWithResponderE(%"class.network::mojom::NetworkServiceProxy"* nonnull %850, %"class.mojo::MessageReceiverWithResponder"* %848) #16
  %851 = ptrtoint i8* %849 to i64
  %852 = load %"class.network::mojom::NetworkServiceProxy"*, %"class.network::mojom::NetworkServiceProxy"** %836, align 8
  %853 = bitcast %"class.std::__1::unique_ptr.162"* %835 to i64*
  store i64 %851, i64* %853, align 8
  %854 = icmp eq %"class.network::mojom::NetworkServiceProxy"* %852, null
  br i1 %854, label %860, label %855

855:                                              ; preds = %845
  %856 = bitcast %"class.network::mojom::NetworkServiceProxy"* %852 to void (%"class.network::mojom::NetworkServiceProxy"*)***
  %857 = load void (%"class.network::mojom::NetworkServiceProxy"*)**, void (%"class.network::mojom::NetworkServiceProxy"*)*** %856, align 8
  %858 = getelementptr inbounds void (%"class.network::mojom::NetworkServiceProxy"*)*, void (%"class.network::mojom::NetworkServiceProxy"*)** %857, i64 1
  %859 = load void (%"class.network::mojom::NetworkServiceProxy"*)*, void (%"class.network::mojom::NetworkServiceProxy"*)** %858, align 8
  call void %859(%"class.network::mojom::NetworkServiceProxy"* nonnull %852) #16
  br label %860

860:                                              ; preds = %833, %839, %845, %855
  %861 = load %"class.network::mojom::NetworkServiceProxy"*, %"class.network::mojom::NetworkServiceProxy"** %836, align 8
  %862 = getelementptr inbounds %"class.network::mojom::NetworkServiceProxy", %"class.network::mojom::NetworkServiceProxy"* %861, i64 0, i32 0
  ret %"class.network::mojom::NetworkService"* %862
}

; Function Attrs: nobuiltin nofree
declare noalias nonnull i8* @_Znwm(i64) local_unnamed_addr #1

; Function Attrs: argmemonly nounwind
declare void @llvm.lifetime.start.p0i8(i64 immarg, i8* nocapture) #2

declare %"class.content::ContentClient"* @_ZN7content16GetContentClientEv() local_unnamed_addr #3

; Function Attrs: argmemonly nounwind
declare void @llvm.memcpy.p0i8.p0i8.i64(i8* nocapture writeonly, i8* nocapture readonly, i64, i1 immarg) #2

; Function Attrs: argmemonly nounwind
declare void @llvm.lifetime.end.p0i8(i64 immarg, i8* nocapture) #2

; Function Attrs: nounwind ssp uwtable
define internal void @_ZN7content12_GLOBAL__N_121OnNetworkServiceCrashEv() #0 {
  %1 = tail call i64 @_ZN4base4Time3NowEv() #16
  store i64 %1, i64* @_ZN7content12_GLOBAL__N_128g_last_network_service_crashE.0, align 8
  %2 = load atomic i8, i8* bitcast (i64* @_ZGVZN7content12_GLOBAL__N_120GetCrashHandlersListEvE6s_list to i8*) acquire, align 8
  %3 = icmp eq i8 %2, 0
  br i1 %3, label %4, label %8, !prof !13

4:                                                ; preds = %0
  %5 = tail call i32 @__cxa_guard_acquire(i64* nonnull @_ZGVZN7content12_GLOBAL__N_120GetCrashHandlersListEvE6s_list) #16
  %6 = icmp eq i32 %5, 0
  br i1 %6, label %8, label %7

7:                                                ; preds = %4
  tail call void @llvm.memset.p0i8.i64(i8* align 16 getelementptr inbounds (%"class.base::NoDestructor.727", %"class.base::NoDestructor.727"* @_ZZN7content12_GLOBAL__N_120GetCrashHandlersListEvE6s_list, i64 0, i32 0, i64 0), i8 0, i64 56, i1 false) #16
  store <2 x %"class.base::NoDestructor.727"*> <%"class.base::NoDestructor.727"* @_ZZN7content12_GLOBAL__N_120GetCrashHandlersListEvE6s_list, %"class.base::NoDestructor.727"* @_ZZN7content12_GLOBAL__N_120GetCrashHandlersListEvE6s_list>, <2 x %"class.base::NoDestructor.727"*>* bitcast (%"class.base::NoDestructor.727"* @_ZZN7content12_GLOBAL__N_120GetCrashHandlersListEvE6s_list to <2 x %"class.base::NoDestructor.727"*>*), align 16
  store i64 0, i64* bitcast (i8* getelementptr inbounds (%"class.base::NoDestructor.727", %"class.base::NoDestructor.727"* @_ZZN7content12_GLOBAL__N_120GetCrashHandlersListEvE6s_list, i64 0, i32 0, i64 16) to i64*), align 16
  store i8 0, i8* getelementptr inbounds (%"class.base::NoDestructor.727", %"class.base::NoDestructor.727"* @_ZZN7content12_GLOBAL__N_120GetCrashHandlersListEvE6s_list, i64 0, i32 0, i64 24), align 8
  store %"class.base::internal::BindStateBase"* null, %"class.base::internal::BindStateBase"** bitcast (i8* getelementptr inbounds (%"class.base::NoDestructor.727", %"class.base::NoDestructor.727"* @_ZZN7content12_GLOBAL__N_120GetCrashHandlersListEvE6s_list, i64 0, i32 0, i64 32) to %"class.base::internal::BindStateBase"**), align 16
  tail call void @_ZN4base8internal18WeakPtrFactoryBaseC2Em(%"class.base::internal::WeakPtrFactoryBase"* bitcast (i8* getelementptr inbounds (%"class.base::NoDestructor.727", %"class.base::NoDestructor.727"* @_ZZN7content12_GLOBAL__N_120GetCrashHandlersListEvE6s_list, i64 0, i32 0, i64 40) to %"class.base::internal::WeakPtrFactoryBase"*), i64 ptrtoint (%"class.base::NoDestructor.727"* @_ZZN7content12_GLOBAL__N_120GetCrashHandlersListEvE6s_list to i64)) #16
  tail call void @__cxa_guard_release(i64* nonnull @_ZGVZN7content12_GLOBAL__N_120GetCrashHandlersListEvE6s_list) #16
  br label %8

8:                                                ; preds = %0, %4, %7
  tail call void @_ZN4base8internal16CallbackListBaseINS_21RepeatingCallbackListIFvvEEEE6NotifyIJEEEvDpOT_(%"class.base::internal::CallbackListBase"* bitcast (%"class.base::NoDestructor.727"* @_ZZN7content12_GLOBAL__N_120GetCrashHandlersListEvE6s_list to %"class.base::internal::CallbackListBase"*))
  ret void
}

declare zeroext i1 @_ZN7content25IsInProcessNetworkServiceEv() local_unnamed_addr #3

declare zeroext i1 @_ZN7logging22ShouldCreateLogMessageEi(i32) local_unnamed_addr #3

declare void @_ZN7logging10LogMessageC1EPKcii(%"class.logging::LogMessage"*, i8*, i32, i32) unnamed_addr #3

; Function Attrs: nounwind
declare void @_ZN7logging10LogMessageD1Ev(%"class.logging::LogMessage"*) unnamed_addr #4

; Function Attrs: nounwind ssp uwtable
define linkonce_odr hidden void @_ZN7content18ServiceProcessHost6LaunchIN7network5mojom14NetworkServiceEEEvN4mojo15PendingReceiverIT_EENS0_7OptionsE(%"class.mojo::PendingReceiver"*, %"struct.content::ServiceProcessHost::Options"*) local_unnamed_addr #0 comdat align 2 {
  %3 = alloca %"class.mojo::ScopedHandleBase", align 4
  %4 = alloca %"class.mojo::GenericPendingReceiver", align 8
  %5 = alloca %"class.mojo::PendingReceiver", align 8
  %6 = alloca %"struct.content::ServiceProcessHost::Options", align 8
  %7 = tail call zeroext i1 @_ZN4base11FeatureList9IsEnabledERKNS_7FeatureE(%"struct.base::Feature"* nonnull dereferenceable(16) @_ZN7sandbox6policy8features22kNetworkServiceSandboxE) #16
  %8 = select i1 %7, i32 6, i32 0
  %9 = getelementptr inbounds %"struct.content::ServiceProcessHost::Options", %"struct.content::ServiceProcessHost::Options"* %1, i64 0, i32 0
  store i32 %8, i32* %9, align 8
  %10 = getelementptr inbounds %"class.mojo::PendingReceiver", %"class.mojo::PendingReceiver"* %5, i64 0, i32 0
  %11 = getelementptr inbounds %"class.mojo::PendingReceiver", %"class.mojo::PendingReceiver"* %0, i64 0, i32 0
  call void @_ZN4mojo8internal20PendingReceiverStateC1EOS1_(%"struct.mojo::internal::PendingReceiverState"* nonnull %10, %"struct.mojo::internal::PendingReceiverState"* dereferenceable(24) %11) #16
  %12 = bitcast %"class.mojo::ScopedHandleBase"* %3 to i8*
  call void @llvm.lifetime.start.p0i8(i64 4, i8* nonnull %12)
  %13 = call i64 @strlen(i8* nonnull getelementptr inbounds ([0 x i8], [0 x i8]* @_ZN7network5mojom14NetworkService5Name_E, i64 0, i64 0)) #16
  %14 = getelementptr inbounds %"class.mojo::ScopedHandleBase", %"class.mojo::ScopedHandleBase"* %3, i64 0, i32 0, i32 0, i32 0
  %15 = getelementptr inbounds %"class.mojo::PendingReceiver", %"class.mojo::PendingReceiver"* %5, i64 0, i32 0, i32 0, i32 0, i32 0, i32 0
  %16 = load i32, i32* %15, align 8, !noalias !41
  store i32 %16, i32* %14, align 4, !alias.scope !41
  store i32 0, i32* %15, align 8, !noalias !41
  call void @_ZN4mojo22GenericPendingReceiverC2EN4base16BasicStringPieceIcNSt3__111char_traitsIcEEEENS_16ScopedHandleBaseINS_17MessagePipeHandleEEE(%"class.mojo::GenericPendingReceiver"* nonnull %4, i8* getelementptr inbounds ([0 x i8], [0 x i8]* @_ZN7network5mojom14NetworkService5Name_E, i64 0, i64 0), i64 %13, %"class.mojo::ScopedHandleBase"* nonnull %3) #16
  %17 = load i32, i32* %14, align 4
  %18 = icmp eq i32 %17, 0
  br i1 %18, label %21, label %19

19:                                               ; preds = %2
  %20 = call i32 @MojoClose(i32 %17) #16
  br label %21

21:                                               ; preds = %2, %19
  call void @llvm.lifetime.end.p0i8(i64 4, i8* nonnull %12)
  call void @_ZN7content18ServiceProcessHost7OptionsC1EOS1_(%"struct.content::ServiceProcessHost::Options"* nonnull %6, %"struct.content::ServiceProcessHost::Options"* dereferenceable(64) %1) #16
  call void @_ZN7content18ServiceProcessHost6LaunchEN4mojo22GenericPendingReceiverENS0_7OptionsE(%"class.mojo::GenericPendingReceiver"* nonnull %4, %"struct.content::ServiceProcessHost::Options"* nonnull %6) #16
  call void @_ZN7content18ServiceProcessHost7OptionsD1Ev(%"struct.content::ServiceProcessHost::Options"* nonnull %6) #16
  call void @_ZN4mojo22GenericPendingReceiverD1Ev(%"class.mojo::GenericPendingReceiver"* nonnull %4) #16
  call void @_ZN4mojo8internal20PendingReceiverStateD1Ev(%"struct.mojo::internal::PendingReceiverState"* nonnull %10) #16
  ret void
}

declare void @_ZN7content18ServiceProcessHost7OptionsC1Ev(%"struct.content::ServiceProcessHost::Options"*) unnamed_addr #3

declare dereferenceable(64) %"struct.content::ServiceProcessHost::Options"* @_ZN7content18ServiceProcessHost7Options15WithDisplayNameERKNSt3__112basic_stringIDsNS2_11char_traitsIDsEENS2_9allocatorIDsEEEE(%"struct.content::ServiceProcessHost::Options"*, %"class.std::__1::basic_string.174"* dereferenceable(24)) local_unnamed_addr #3

declare void @_ZN7content18ServiceProcessHost7Options4PassEv(%"struct.content::ServiceProcessHost::Options"* sret, %"struct.content::ServiceProcessHost::Options"*) local_unnamed_addr #3

; Function Attrs: nounwind
declare void @_ZN7content18ServiceProcessHost7OptionsD1Ev(%"struct.content::ServiceProcessHost::Options"*) unnamed_addr #4

declare zeroext i1 @_ZN7content13BrowserThread11CurrentlyOnENS0_2IDE(i32) local_unnamed_addr #3

; Function Attrs: nounwind ssp uwtable
define internal void @_ZN7content12_GLOBAL__N_134CreateNetworkServiceOnIOForTestingEN4mojo15PendingReceiverIN7network5mojom14NetworkServiceEEEPN4base13WaitableEventE(%"class.mojo::PendingReceiver"*, %"class.base::WaitableEvent"*) #0 {
  %3 = alloca %"class.base::internal::SequenceLocalStorageMap::ValueDestructorPair", align 8
  %4 = alloca %"class.base::internal::SequenceLocalStorageMap::ValueDestructorPair", align 8
  %5 = alloca %"class.base::internal::SequenceLocalStorageMap::ValueDestructorPair", align 8
  %6 = alloca %"class.base::internal::SequenceLocalStorageMap::ValueDestructorPair", align 8
  %7 = alloca %"class.mojo::PendingReceiver", align 8
  %8 = alloca %"class.base::internal::SequenceLocalStorageMap::ValueDestructorPair", align 8
  %9 = alloca %"class.base::internal::SequenceLocalStorageMap::ValueDestructorPair", align 8
  %10 = alloca %"class.base::internal::SequenceLocalStorageMap::ValueDestructorPair", align 8
  %11 = alloca %"class.base::internal::SequenceLocalStorageMap::ValueDestructorPair", align 8
  %12 = alloca %"class.mojo::PendingReceiver", align 8
  %13 = alloca %"class.mojo::StructPtr", align 8
  %14 = load atomic i8, i8* bitcast (i64* @_ZGVZN7content12_GLOBAL__N_122GetLocalNetworkServiceEvE7service to i8*) acquire, align 8
  %15 = icmp eq i8 %14, 0
  br i1 %15, label %16, label %21, !prof !13

16:                                               ; preds = %2
  %17 = tail call i32 @__cxa_guard_acquire(i64* nonnull @_ZGVZN7content12_GLOBAL__N_122GetLocalNetworkServiceEvE7service) #16
  %18 = icmp eq i32 %17, 0
  br i1 %18, label %21, label %19

19:                                               ; preds = %16
  %20 = tail call i32 @_ZN4base8internal37GetNextSequenceLocalStorageSlotNumberEv() #16
  store i32 %20, i32* bitcast (%"class.base::NoDestructor.710"* @_ZZN7content12_GLOBAL__N_122GetLocalNetworkServiceEvE7service to i32*), align 4
  tail call void @__cxa_guard_release(i64* nonnull @_ZGVZN7content12_GLOBAL__N_122GetLocalNetworkServiceEvE7service) #16
  br label %21

21:                                               ; preds = %19, %16, %2
  %22 = tail call dereferenceable(24) %"class.base::internal::SequenceLocalStorageMap"* @_ZN4base8internal23SequenceLocalStorageMap19GetForCurrentThreadEv() #16
  %23 = load i32, i32* bitcast (%"class.base::NoDestructor.710"* @_ZZN7content12_GLOBAL__N_122GetLocalNetworkServiceEvE7service to i32*), align 4
  %24 = tail call i8* @_ZN4base8internal23SequenceLocalStorageMap3GetEi(%"class.base::internal::SequenceLocalStorageMap"* %22, i32 %23) #16
  %25 = icmp eq i8* %24, null
  br i1 %25, label %26, label %33

26:                                               ; preds = %21
  %27 = tail call i8* @_Znwm(i64 8) #15
  %28 = bitcast i8* %27 to i64*
  store i64 0, i64* %28, align 8
  %29 = bitcast %"class.base::internal::SequenceLocalStorageMap::ValueDestructorPair"* %11 to i8*
  call void @llvm.lifetime.start.p0i8(i64 16, i8* nonnull %29) #16
  %30 = bitcast %"class.base::internal::SequenceLocalStorageMap::ValueDestructorPair"* %10 to i8*
  call void @llvm.lifetime.start.p0i8(i64 16, i8* nonnull %30) #16
  call void @llvm.memset.p0i8.i64(i8* nonnull align 8 %30, i8 -86, i64 16, i1 false) #16
  call void @_ZN4base8internal23SequenceLocalStorageMap19ValueDestructorPairC1EPvPFvS3_E(%"class.base::internal::SequenceLocalStorageMap::ValueDestructorPair"* nonnull %10, i8* nonnull %27, void (i8*)* nonnull @_ZZN4base24SequenceLocalStorageSlotINSt3__110unique_ptrIN7network14NetworkServiceENS1_14default_deleteIS4_EEEENS5_IS7_EEE5AdoptEPS7_ENUlPvE_8__invokeESB_) #16
  %31 = call dereferenceable(24) %"class.base::internal::SequenceLocalStorageMap"* @_ZN4base8internal23SequenceLocalStorageMap19GetForCurrentThreadEv() #16
  %32 = load i32, i32* bitcast (%"class.base::NoDestructor.710"* @_ZZN7content12_GLOBAL__N_122GetLocalNetworkServiceEvE7service to i32*), align 4
  call void @_ZN4base8internal23SequenceLocalStorageMap19ValueDestructorPairC1EOS2_(%"class.base::internal::SequenceLocalStorageMap::ValueDestructorPair"* nonnull %11, %"class.base::internal::SequenceLocalStorageMap::ValueDestructorPair"* nonnull dereferenceable(16) %10) #16
  call void @_ZN4base8internal23SequenceLocalStorageMap3SetEiNS1_19ValueDestructorPairE(%"class.base::internal::SequenceLocalStorageMap"* %31, i32 %32, %"class.base::internal::SequenceLocalStorageMap::ValueDestructorPair"* nonnull %11) #16
  call void @_ZN4base8internal23SequenceLocalStorageMap19ValueDestructorPairD1Ev(%"class.base::internal::SequenceLocalStorageMap::ValueDestructorPair"* nonnull %11) #16
  call void @_ZN4base8internal23SequenceLocalStorageMap19ValueDestructorPairD1Ev(%"class.base::internal::SequenceLocalStorageMap::ValueDestructorPair"* nonnull %10) #16
  call void @llvm.lifetime.end.p0i8(i64 16, i8* nonnull %30) #16
  call void @llvm.lifetime.end.p0i8(i64 16, i8* nonnull %29) #16
  br label %33

33:                                               ; preds = %21, %26
  %34 = phi i8* [ %24, %21 ], [ %27, %26 ]
  %35 = bitcast i8* %34 to %"class.network::NetworkService"**
  %36 = load %"class.network::NetworkService"*, %"class.network::NetworkService"** %35, align 8
  %37 = icmp eq %"class.network::NetworkService"* %36, null
  br i1 %37, label %64, label %38

38:                                               ; preds = %33
  %39 = load atomic i8, i8* bitcast (i64* @_ZGVZN7content12_GLOBAL__N_122GetLocalNetworkServiceEvE7service to i8*) acquire, align 8
  %40 = icmp eq i8 %39, 0
  br i1 %40, label %41, label %46, !prof !13

41:                                               ; preds = %38
  %42 = call i32 @__cxa_guard_acquire(i64* nonnull @_ZGVZN7content12_GLOBAL__N_122GetLocalNetworkServiceEvE7service) #16
  %43 = icmp eq i32 %42, 0
  br i1 %43, label %46, label %44

44:                                               ; preds = %41
  %45 = call i32 @_ZN4base8internal37GetNextSequenceLocalStorageSlotNumberEv() #16
  store i32 %45, i32* bitcast (%"class.base::NoDestructor.710"* @_ZZN7content12_GLOBAL__N_122GetLocalNetworkServiceEvE7service to i32*), align 4
  call void @__cxa_guard_release(i64* nonnull @_ZGVZN7content12_GLOBAL__N_122GetLocalNetworkServiceEvE7service) #16
  br label %46

46:                                               ; preds = %44, %41, %38
  %47 = call dereferenceable(24) %"class.base::internal::SequenceLocalStorageMap"* @_ZN4base8internal23SequenceLocalStorageMap19GetForCurrentThreadEv() #16
  %48 = load i32, i32* bitcast (%"class.base::NoDestructor.710"* @_ZZN7content12_GLOBAL__N_122GetLocalNetworkServiceEvE7service to i32*), align 4
  %49 = call i8* @_ZN4base8internal23SequenceLocalStorageMap3GetEi(%"class.base::internal::SequenceLocalStorageMap"* %47, i32 %48) #16
  %50 = icmp eq i8* %49, null
  br i1 %50, label %51, label %58

51:                                               ; preds = %46
  %52 = call i8* @_Znwm(i64 8) #15
  %53 = bitcast i8* %52 to i64*
  store i64 0, i64* %53, align 8
  %54 = bitcast %"class.base::internal::SequenceLocalStorageMap::ValueDestructorPair"* %9 to i8*
  call void @llvm.lifetime.start.p0i8(i64 16, i8* nonnull %54) #16
  %55 = bitcast %"class.base::internal::SequenceLocalStorageMap::ValueDestructorPair"* %8 to i8*
  call void @llvm.lifetime.start.p0i8(i64 16, i8* nonnull %55) #16
  call void @llvm.memset.p0i8.i64(i8* nonnull align 8 %55, i8 -86, i64 16, i1 false) #16
  call void @_ZN4base8internal23SequenceLocalStorageMap19ValueDestructorPairC1EPvPFvS3_E(%"class.base::internal::SequenceLocalStorageMap::ValueDestructorPair"* nonnull %8, i8* nonnull %52, void (i8*)* nonnull @_ZZN4base24SequenceLocalStorageSlotINSt3__110unique_ptrIN7network14NetworkServiceENS1_14default_deleteIS4_EEEENS5_IS7_EEE5AdoptEPS7_ENUlPvE_8__invokeESB_) #16
  %56 = call dereferenceable(24) %"class.base::internal::SequenceLocalStorageMap"* @_ZN4base8internal23SequenceLocalStorageMap19GetForCurrentThreadEv() #16
  %57 = load i32, i32* bitcast (%"class.base::NoDestructor.710"* @_ZZN7content12_GLOBAL__N_122GetLocalNetworkServiceEvE7service to i32*), align 4
  call void @_ZN4base8internal23SequenceLocalStorageMap19ValueDestructorPairC1EOS2_(%"class.base::internal::SequenceLocalStorageMap::ValueDestructorPair"* nonnull %9, %"class.base::internal::SequenceLocalStorageMap::ValueDestructorPair"* nonnull dereferenceable(16) %8) #16
  call void @_ZN4base8internal23SequenceLocalStorageMap3SetEiNS1_19ValueDestructorPairE(%"class.base::internal::SequenceLocalStorageMap"* %56, i32 %57, %"class.base::internal::SequenceLocalStorageMap::ValueDestructorPair"* nonnull %9) #16
  call void @_ZN4base8internal23SequenceLocalStorageMap19ValueDestructorPairD1Ev(%"class.base::internal::SequenceLocalStorageMap::ValueDestructorPair"* nonnull %9) #16
  call void @_ZN4base8internal23SequenceLocalStorageMap19ValueDestructorPairD1Ev(%"class.base::internal::SequenceLocalStorageMap::ValueDestructorPair"* nonnull %8) #16
  call void @llvm.lifetime.end.p0i8(i64 16, i8* nonnull %55) #16
  call void @llvm.lifetime.end.p0i8(i64 16, i8* nonnull %54) #16
  br label %58

58:                                               ; preds = %46, %51
  %59 = phi i8* [ %49, %46 ], [ %52, %51 ]
  %60 = bitcast i8* %59 to %"class.network::NetworkService"**
  %61 = load %"class.network::NetworkService"*, %"class.network::NetworkService"** %60, align 8
  %62 = getelementptr inbounds %"class.mojo::PendingReceiver", %"class.mojo::PendingReceiver"* %12, i64 0, i32 0
  %63 = getelementptr inbounds %"class.mojo::PendingReceiver", %"class.mojo::PendingReceiver"* %0, i64 0, i32 0
  call void @_ZN4mojo8internal20PendingReceiverStateC1EOS1_(%"struct.mojo::internal::PendingReceiverState"* nonnull %62, %"struct.mojo::internal::PendingReceiverState"* dereferenceable(24) %63) #16
  call void @_ZN7network14NetworkService4BindEN4mojo15PendingReceiverINS_5mojom14NetworkServiceEEE(%"class.network::NetworkService"* %61, %"class.mojo::PendingReceiver"* nonnull %12) #16
  call void @_ZN4mojo8internal20PendingReceiverStateD1Ev(%"struct.mojo::internal::PendingReceiverState"* nonnull %62) #16
  br label %139

64:                                               ; preds = %33
  %65 = bitcast %"class.mojo::PendingReceiver"* %7 to i8*
  call void @llvm.lifetime.start.p0i8(i64 24, i8* nonnull %65)
  %66 = call i8* @_Znwm(i64 496) #15
  %67 = bitcast i8* %66 to %"class.network::NetworkService"*
  %68 = getelementptr inbounds %"class.mojo::PendingReceiver", %"class.mojo::PendingReceiver"* %7, i64 0, i32 0
  %69 = getelementptr inbounds %"class.mojo::PendingReceiver", %"class.mojo::PendingReceiver"* %0, i64 0, i32 0
  call void @_ZN4mojo8internal20PendingReceiverStateC1EOS1_(%"struct.mojo::internal::PendingReceiverState"* nonnull %68, %"struct.mojo::internal::PendingReceiverState"* dereferenceable(24) %69) #16
  call void @_ZN7network14NetworkServiceC1ENSt3__110unique_ptrIN15service_manager22BinderRegistryWithArgsIJEEENS1_14default_deleteIS5_EEEEN4mojo15PendingReceiverINS_5mojom14NetworkServiceEEEb(%"class.network::NetworkService"* nonnull %67, %"class.service_manager::BinderRegistryWithArgs"* null, %"class.mojo::PendingReceiver"* nonnull %7, i1 zeroext true) #16
  call void @_ZN4mojo8internal20PendingReceiverStateD1Ev(%"struct.mojo::internal::PendingReceiverState"* nonnull %68) #16
  call void @llvm.lifetime.end.p0i8(i64 24, i8* nonnull %65)
  %70 = ptrtoint i8* %66 to i64
  %71 = load atomic i8, i8* bitcast (i64* @_ZGVZN7content12_GLOBAL__N_122GetLocalNetworkServiceEvE7service to i8*) acquire, align 8
  %72 = icmp eq i8 %71, 0
  br i1 %72, label %73, label %78, !prof !13

73:                                               ; preds = %64
  %74 = call i32 @__cxa_guard_acquire(i64* nonnull @_ZGVZN7content12_GLOBAL__N_122GetLocalNetworkServiceEvE7service) #16
  %75 = icmp eq i32 %74, 0
  br i1 %75, label %78, label %76

76:                                               ; preds = %73
  %77 = call i32 @_ZN4base8internal37GetNextSequenceLocalStorageSlotNumberEv() #16
  store i32 %77, i32* bitcast (%"class.base::NoDestructor.710"* @_ZZN7content12_GLOBAL__N_122GetLocalNetworkServiceEvE7service to i32*), align 4
  call void @__cxa_guard_release(i64* nonnull @_ZGVZN7content12_GLOBAL__N_122GetLocalNetworkServiceEvE7service) #16
  br label %78

78:                                               ; preds = %76, %73, %64
  %79 = call dereferenceable(24) %"class.base::internal::SequenceLocalStorageMap"* @_ZN4base8internal23SequenceLocalStorageMap19GetForCurrentThreadEv() #16
  %80 = load i32, i32* bitcast (%"class.base::NoDestructor.710"* @_ZZN7content12_GLOBAL__N_122GetLocalNetworkServiceEvE7service to i32*), align 4
  %81 = call i8* @_ZN4base8internal23SequenceLocalStorageMap3GetEi(%"class.base::internal::SequenceLocalStorageMap"* %79, i32 %80) #16
  %82 = icmp eq i8* %81, null
  br i1 %82, label %85, label %83

83:                                               ; preds = %78
  %84 = bitcast i8* %81 to i64*
  br label %92

85:                                               ; preds = %78
  %86 = call i8* @_Znwm(i64 8) #15
  %87 = bitcast i8* %86 to i64*
  store i64 0, i64* %87, align 8
  %88 = bitcast %"class.base::internal::SequenceLocalStorageMap::ValueDestructorPair"* %6 to i8*
  call void @llvm.lifetime.start.p0i8(i64 16, i8* nonnull %88) #16
  %89 = bitcast %"class.base::internal::SequenceLocalStorageMap::ValueDestructorPair"* %5 to i8*
  call void @llvm.lifetime.start.p0i8(i64 16, i8* nonnull %89) #16
  call void @llvm.memset.p0i8.i64(i8* nonnull align 8 %89, i8 -86, i64 16, i1 false) #16
  call void @_ZN4base8internal23SequenceLocalStorageMap19ValueDestructorPairC1EPvPFvS3_E(%"class.base::internal::SequenceLocalStorageMap::ValueDestructorPair"* nonnull %5, i8* nonnull %86, void (i8*)* nonnull @_ZZN4base24SequenceLocalStorageSlotINSt3__110unique_ptrIN7network14NetworkServiceENS1_14default_deleteIS4_EEEENS5_IS7_EEE5AdoptEPS7_ENUlPvE_8__invokeESB_) #16
  %90 = call dereferenceable(24) %"class.base::internal::SequenceLocalStorageMap"* @_ZN4base8internal23SequenceLocalStorageMap19GetForCurrentThreadEv() #16
  %91 = load i32, i32* bitcast (%"class.base::NoDestructor.710"* @_ZZN7content12_GLOBAL__N_122GetLocalNetworkServiceEvE7service to i32*), align 4
  call void @_ZN4base8internal23SequenceLocalStorageMap19ValueDestructorPairC1EOS2_(%"class.base::internal::SequenceLocalStorageMap::ValueDestructorPair"* nonnull %6, %"class.base::internal::SequenceLocalStorageMap::ValueDestructorPair"* nonnull dereferenceable(16) %5) #16
  call void @_ZN4base8internal23SequenceLocalStorageMap3SetEiNS1_19ValueDestructorPairE(%"class.base::internal::SequenceLocalStorageMap"* %90, i32 %91, %"class.base::internal::SequenceLocalStorageMap::ValueDestructorPair"* nonnull %6) #16
  call void @_ZN4base8internal23SequenceLocalStorageMap19ValueDestructorPairD1Ev(%"class.base::internal::SequenceLocalStorageMap::ValueDestructorPair"* nonnull %6) #16
  call void @_ZN4base8internal23SequenceLocalStorageMap19ValueDestructorPairD1Ev(%"class.base::internal::SequenceLocalStorageMap::ValueDestructorPair"* nonnull %5) #16
  call void @llvm.lifetime.end.p0i8(i64 16, i8* nonnull %89) #16
  call void @llvm.lifetime.end.p0i8(i64 16, i8* nonnull %88) #16
  br label %92

92:                                               ; preds = %83, %85
  %93 = phi i64* [ %84, %83 ], [ %87, %85 ]
  %94 = phi i8* [ %81, %83 ], [ %86, %85 ]
  %95 = bitcast i8* %94 to %"class.network::NetworkService"**
  %96 = load %"class.network::NetworkService"*, %"class.network::NetworkService"** %95, align 8
  store i64 %70, i64* %93, align 8
  %97 = icmp eq %"class.network::NetworkService"* %96, null
  br i1 %97, label %103, label %98

98:                                               ; preds = %92
  %99 = bitcast %"class.network::NetworkService"* %96 to void (%"class.network::NetworkService"*)***
  %100 = load void (%"class.network::NetworkService"*)**, void (%"class.network::NetworkService"*)*** %99, align 8
  %101 = getelementptr inbounds void (%"class.network::NetworkService"*)*, void (%"class.network::NetworkService"*)** %100, i64 1
  %102 = load void (%"class.network::NetworkService"*)*, void (%"class.network::NetworkService"*)** %101, align 8
  call void %102(%"class.network::NetworkService"* nonnull %96) #16
  br label %103

103:                                              ; preds = %98, %92
  %104 = load atomic i8, i8* bitcast (i64* @_ZGVZN7content12_GLOBAL__N_122GetLocalNetworkServiceEvE7service to i8*) acquire, align 8
  %105 = icmp eq i8 %104, 0
  br i1 %105, label %106, label %111, !prof !13

106:                                              ; preds = %103
  %107 = call i32 @__cxa_guard_acquire(i64* nonnull @_ZGVZN7content12_GLOBAL__N_122GetLocalNetworkServiceEvE7service) #16
  %108 = icmp eq i32 %107, 0
  br i1 %108, label %111, label %109

109:                                              ; preds = %106
  %110 = call i32 @_ZN4base8internal37GetNextSequenceLocalStorageSlotNumberEv() #16
  store i32 %110, i32* bitcast (%"class.base::NoDestructor.710"* @_ZZN7content12_GLOBAL__N_122GetLocalNetworkServiceEvE7service to i32*), align 4
  call void @__cxa_guard_release(i64* nonnull @_ZGVZN7content12_GLOBAL__N_122GetLocalNetworkServiceEvE7service) #16
  br label %111

111:                                              ; preds = %109, %106, %103
  %112 = call dereferenceable(24) %"class.base::internal::SequenceLocalStorageMap"* @_ZN4base8internal23SequenceLocalStorageMap19GetForCurrentThreadEv() #16
  %113 = load i32, i32* bitcast (%"class.base::NoDestructor.710"* @_ZZN7content12_GLOBAL__N_122GetLocalNetworkServiceEvE7service to i32*), align 4
  %114 = call i8* @_ZN4base8internal23SequenceLocalStorageMap3GetEi(%"class.base::internal::SequenceLocalStorageMap"* %112, i32 %113) #16
  %115 = icmp eq i8* %114, null
  br i1 %115, label %116, label %123

116:                                              ; preds = %111
  %117 = call i8* @_Znwm(i64 8) #15
  %118 = bitcast i8* %117 to i64*
  store i64 0, i64* %118, align 8
  %119 = bitcast %"class.base::internal::SequenceLocalStorageMap::ValueDestructorPair"* %4 to i8*
  call void @llvm.lifetime.start.p0i8(i64 16, i8* nonnull %119) #16
  %120 = bitcast %"class.base::internal::SequenceLocalStorageMap::ValueDestructorPair"* %3 to i8*
  call void @llvm.lifetime.start.p0i8(i64 16, i8* nonnull %120) #16
  call void @llvm.memset.p0i8.i64(i8* nonnull align 8 %120, i8 -86, i64 16, i1 false) #16
  call void @_ZN4base8internal23SequenceLocalStorageMap19ValueDestructorPairC1EPvPFvS3_E(%"class.base::internal::SequenceLocalStorageMap::ValueDestructorPair"* nonnull %3, i8* nonnull %117, void (i8*)* nonnull @_ZZN4base24SequenceLocalStorageSlotINSt3__110unique_ptrIN7network14NetworkServiceENS1_14default_deleteIS4_EEEENS5_IS7_EEE5AdoptEPS7_ENUlPvE_8__invokeESB_) #16
  %121 = call dereferenceable(24) %"class.base::internal::SequenceLocalStorageMap"* @_ZN4base8internal23SequenceLocalStorageMap19GetForCurrentThreadEv() #16
  %122 = load i32, i32* bitcast (%"class.base::NoDestructor.710"* @_ZZN7content12_GLOBAL__N_122GetLocalNetworkServiceEvE7service to i32*), align 4
  call void @_ZN4base8internal23SequenceLocalStorageMap19ValueDestructorPairC1EOS2_(%"class.base::internal::SequenceLocalStorageMap::ValueDestructorPair"* nonnull %4, %"class.base::internal::SequenceLocalStorageMap::ValueDestructorPair"* nonnull dereferenceable(16) %3) #16
  call void @_ZN4base8internal23SequenceLocalStorageMap3SetEiNS1_19ValueDestructorPairE(%"class.base::internal::SequenceLocalStorageMap"* %121, i32 %122, %"class.base::internal::SequenceLocalStorageMap::ValueDestructorPair"* nonnull %4) #16
  call void @_ZN4base8internal23SequenceLocalStorageMap19ValueDestructorPairD1Ev(%"class.base::internal::SequenceLocalStorageMap::ValueDestructorPair"* nonnull %4) #16
  call void @_ZN4base8internal23SequenceLocalStorageMap19ValueDestructorPairD1Ev(%"class.base::internal::SequenceLocalStorageMap::ValueDestructorPair"* nonnull %3) #16
  call void @llvm.lifetime.end.p0i8(i64 16, i8* nonnull %120) #16
  call void @llvm.lifetime.end.p0i8(i64 16, i8* nonnull %119) #16
  br label %123

123:                                              ; preds = %111, %116
  %124 = phi i8* [ %114, %111 ], [ %117, %116 ]
  %125 = bitcast i8* %124 to %"class.network::NetworkService"**
  %126 = load %"class.network::NetworkService"*, %"class.network::NetworkService"** %125, align 8
  %127 = call i8* @_Znwm(i64 40) #15, !noalias !46
  %128 = bitcast i8* %127 to %"class.network::mojom::NetworkServiceParams"*
  call void @_ZN7network5mojom20NetworkServiceParamsC1Ev(%"class.network::mojom::NetworkServiceParams"* nonnull %128) #16, !noalias !46
  %129 = ptrtoint i8* %127 to i64
  %130 = bitcast %"class.mojo::StructPtr"* %13 to i64*
  store i64 %129, i64* %130, align 8, !alias.scope !46
  call void @_ZN7network14NetworkService10InitializeEN4mojo9StructPtrINS_5mojom20NetworkServiceParamsEEEb(%"class.network::NetworkService"* %126, %"class.mojo::StructPtr"* nonnull %13, i1 zeroext true) #16
  %131 = getelementptr inbounds %"class.mojo::StructPtr", %"class.mojo::StructPtr"* %13, i64 0, i32 0, i32 0, i32 0, i32 0
  %132 = load %"class.network::mojom::NetworkServiceParams"*, %"class.network::mojom::NetworkServiceParams"** %131, align 8
  store %"class.network::mojom::NetworkServiceParams"* null, %"class.network::mojom::NetworkServiceParams"** %131, align 8
  %133 = icmp eq %"class.network::mojom::NetworkServiceParams"* %132, null
  br i1 %133, label %136, label %134

134:                                              ; preds = %123
  call void @_ZN7network5mojom20NetworkServiceParamsD1Ev(%"class.network::mojom::NetworkServiceParams"* nonnull %132) #16
  %135 = bitcast %"class.network::mojom::NetworkServiceParams"* %132 to i8*
  call void @_ZdlPv(i8* %135) #15
  br label %136

136:                                              ; preds = %123, %134
  %137 = icmp eq %"class.base::WaitableEvent"* %1, null
  br i1 %137, label %139, label %138

138:                                              ; preds = %136
  call void @_ZN4base13WaitableEvent6SignalEv(%"class.base::WaitableEvent"* nonnull %1) #16
  br label %139

139:                                              ; preds = %136, %58, %138
  ret void
}

declare void @_ZN4base13WaitableEventC1ENS0_11ResetPolicyENS0_12InitialStateE(%"class.base::WaitableEvent"*, i32, i32) unnamed_addr #3

declare %"class.base::SingleThreadTaskRunner"* @_ZN7content21GetIOThreadTaskRunnerERKNS_17BrowserTaskTraitsE(%"class.content::BrowserTaskTraits"* dereferenceable(15)) local_unnamed_addr #3

declare zeroext i1 @_ZN4base10TaskRunner8PostTaskERKNS_8LocationENS_12OnceCallbackIFvvEEE(%"class.base::TaskRunner"*, %"class.base::Location"* dereferenceable(32), %"class.base::OnceCallback"*) local_unnamed_addr #3

declare void @_ZN4base8Location7CurrentEPKcS2_i(%"class.base::Location"* sret, i8*, i8*, i32) local_unnamed_addr #3

declare void @_ZN4base13WaitableEvent4WaitEv(%"class.base::WaitableEvent"*) local_unnamed_addr #3

; Function Attrs: nounwind
declare void @_ZN4base13WaitableEventD1Ev(%"class.base::WaitableEvent"*) unnamed_addr #4

declare void @_ZN7content20NetworkServiceClientC1Ev(%"class.content::NetworkServiceClient"*) unnamed_addr #3

declare void @_ZN7network5mojom19NetworkServiceProxy9SetParamsEN4mojo9StructPtrINS0_20NetworkServiceParamsEEE(%"class.network::mojom::NetworkServiceProxy"*, %"class.mojo::StructPtr"*) unnamed_addr #3

declare i64 @_ZN4base4Time3NowEv() local_unnamed_addr #3

declare %"class.base::CommandLine"* @_ZN4base11CommandLine17ForCurrentProcessEv() local_unnamed_addr #3

declare zeroext i1 @_ZNK4base11CommandLine9HasSwitchEPKc(%"class.base::CommandLine"*, i8*) local_unnamed_addr #3

declare void @_ZNK4base11CommandLine18GetSwitchValuePathENS_16BasicStringPieceIcNSt3__111char_traitsIcEEEE(%"class.base::FilePath"* sret, %"class.base::CommandLine"*, i8*, i64) local_unnamed_addr #3

; Function Attrs: argmemonly nounwind
declare void @llvm.memset.p0i8.i64(i8* nocapture writeonly, i8, i64, i1 immarg) #2

declare zeroext i1 @_ZNK4base4File7IsValidEv(%"class.base::File"*) local_unnamed_addr #3

declare void @_ZN7network5mojom19NetworkServiceProxy11StartNetLogEN4base4FileEN3net17NetLogCaptureModeENS2_5ValueE(%"class.network::mojom::NetworkServiceProxy"*, %"class.base::File"*, i32, %"class.base::Value"*) unnamed_addr #3

declare void @_ZN4base4FileC1EOS0_(%"class.base::File"*, %"class.base::File"* dereferenceable(56)) unnamed_addr #3

; Function Attrs: nounwind
declare void @_ZN4base5ValueC1EOS0_(%"class.base::Value"*, %"class.base::Value"* dereferenceable(32)) unnamed_addr #4

; Function Attrs: nounwind
declare void @_ZN4base5ValueD1Ev(%"class.base::Value"*) unnamed_addr #4

; Function Attrs: nounwind
declare void @_ZN4base5ValueD2Ev(%"class.base::Value"*) unnamed_addr #4

; Function Attrs: nounwind
declare void @_ZN4base4FileD1Ev(%"class.base::File"*) unnamed_addr #4

; Function Attrs: nounwind
declare void @_ZN4base8FilePathD1Ev(%"class.base::FilePath"*) unnamed_addr #4

declare void @_ZN4base8FilePathC1Ev(%"class.base::FilePath"*) unnamed_addr #3

declare %"class.base::HistogramBase"* @_ZN4base15LinearHistogram10FactoryGetEPKciiji(i8*, i32, i32, i32, i32) local_unnamed_addr #3

; Function Attrs: nounwind
declare dereferenceable(24) %"class.base::FilePath"* @_ZN4base8FilePathaSEOS0_(%"class.base::FilePath"*, %"class.base::FilePath"* dereferenceable(24)) local_unnamed_addr #4

declare %"class.base::Environment"* @_ZN4base11Environment6CreateEv() local_unnamed_addr #3

declare void @_ZN4base8FilePathC1ENS_16BasicStringPieceIcNSt3__111char_traitsIcEEEE(%"class.base::FilePath"*, i8*, i64) unnamed_addr #3

declare void @_ZN7network5mojom19NetworkServiceProxy16SetSSLKeyLogFileEN4base4FileE(%"class.network::mojom::NetworkServiceProxy"*, %"class.base::File"*) unnamed_addr #3

; Function Attrs: nounwind ssp uwtable
define hidden void @_ZN7content34RegisterNetworkServiceCrashHandlerEN4base17RepeatingCallbackIFvvEEE(%"class.base::CallbackListSubscription"* noalias sret, %"class.base::RepeatingCallback.115"* nocapture) local_unnamed_addr #0 {
  %3 = alloca %"class.base::RepeatingCallback.115", align 8
  %4 = load atomic i8, i8* bitcast (i64* @_ZGVZN7content12_GLOBAL__N_120GetCrashHandlersListEvE6s_list to i8*) acquire, align 8
  %5 = icmp eq i8 %4, 0
  br i1 %5, label %6, label %10, !prof !13

6:                                                ; preds = %2
  %7 = tail call i32 @__cxa_guard_acquire(i64* nonnull @_ZGVZN7content12_GLOBAL__N_120GetCrashHandlersListEvE6s_list) #16
  %8 = icmp eq i32 %7, 0
  br i1 %8, label %10, label %9

9:                                                ; preds = %6
  tail call void @llvm.memset.p0i8.i64(i8* align 16 getelementptr inbounds (%"class.base::NoDestructor.727", %"class.base::NoDestructor.727"* @_ZZN7content12_GLOBAL__N_120GetCrashHandlersListEvE6s_list, i64 0, i32 0, i64 0), i8 0, i64 56, i1 false) #16
  store <2 x %"class.base::NoDestructor.727"*> <%"class.base::NoDestructor.727"* @_ZZN7content12_GLOBAL__N_120GetCrashHandlersListEvE6s_list, %"class.base::NoDestructor.727"* @_ZZN7content12_GLOBAL__N_120GetCrashHandlersListEvE6s_list>, <2 x %"class.base::NoDestructor.727"*>* bitcast (%"class.base::NoDestructor.727"* @_ZZN7content12_GLOBAL__N_120GetCrashHandlersListEvE6s_list to <2 x %"class.base::NoDestructor.727"*>*), align 16
  store i64 0, i64* bitcast (i8* getelementptr inbounds (%"class.base::NoDestructor.727", %"class.base::NoDestructor.727"* @_ZZN7content12_GLOBAL__N_120GetCrashHandlersListEvE6s_list, i64 0, i32 0, i64 16) to i64*), align 16
  store i8 0, i8* getelementptr inbounds (%"class.base::NoDestructor.727", %"class.base::NoDestructor.727"* @_ZZN7content12_GLOBAL__N_120GetCrashHandlersListEvE6s_list, i64 0, i32 0, i64 24), align 8
  store %"class.base::internal::BindStateBase"* null, %"class.base::internal::BindStateBase"** bitcast (i8* getelementptr inbounds (%"class.base::NoDestructor.727", %"class.base::NoDestructor.727"* @_ZZN7content12_GLOBAL__N_120GetCrashHandlersListEvE6s_list, i64 0, i32 0, i64 32) to %"class.base::internal::BindStateBase"**), align 16
  tail call void @_ZN4base8internal18WeakPtrFactoryBaseC2Em(%"class.base::internal::WeakPtrFactoryBase"* bitcast (i8* getelementptr inbounds (%"class.base::NoDestructor.727", %"class.base::NoDestructor.727"* @_ZZN7content12_GLOBAL__N_120GetCrashHandlersListEvE6s_list, i64 0, i32 0, i64 40) to %"class.base::internal::WeakPtrFactoryBase"*), i64 ptrtoint (%"class.base::NoDestructor.727"* @_ZZN7content12_GLOBAL__N_120GetCrashHandlersListEvE6s_list to i64)) #16
  tail call void @__cxa_guard_release(i64* nonnull @_ZGVZN7content12_GLOBAL__N_120GetCrashHandlersListEvE6s_list) #16
  br label %10

10:                                               ; preds = %2, %6, %9
  %11 = getelementptr inbounds %"class.base::RepeatingCallback.115", %"class.base::RepeatingCallback.115"* %1, i64 0, i32 0, i32 0, i32 0, i32 0
  %12 = bitcast %"class.base::RepeatingCallback.115"* %1 to i64*
  %13 = load i64, i64* %12, align 8
  %14 = bitcast %"class.base::RepeatingCallback.115"* %3 to i64*
  store i64 %13, i64* %14, align 8
  store %"class.base::internal::BindStateBase"* null, %"class.base::internal::BindStateBase"** %11, align 8
  call void @_ZN4base8internal16CallbackListBaseINS_21RepeatingCallbackListIFvvEEEE3AddENS_17RepeatingCallbackIS3_EE(%"class.base::CallbackListSubscription"* sret %0, %"class.base::internal::CallbackListBase"* bitcast (%"class.base::NoDestructor.727"* @_ZZN7content12_GLOBAL__N_120GetCrashHandlersListEvE6s_list to %"class.base::internal::CallbackListBase"*), %"class.base::RepeatingCallback.115"* nonnull %3)
  %15 = getelementptr inbounds %"class.base::RepeatingCallback.115", %"class.base::RepeatingCallback.115"* %3, i64 0, i32 0, i32 0
  call void @_ZN4base8internal12CallbackBaseD2Ev(%"class.base::internal::CallbackBase"* nonnull %15) #16
  ret void
}

; Function Attrs: nounwind ssp uwtable
define linkonce_odr hidden void @_ZN4base8internal16CallbackListBaseINS_21RepeatingCallbackListIFvvEEEE3AddENS_17RepeatingCallbackIS3_EE(%"class.base::CallbackListSubscription"* noalias sret, %"class.base::internal::CallbackListBase"*, %"class.base::RepeatingCallback.115"*) local_unnamed_addr #0 comdat align 2 {
  %4 = alloca %"class.base::internal::WeakReference", align 8
  %5 = alloca %"class.base::OnceCallback", align 8
  %6 = alloca %"class.base::WeakPtr.789", align 8
  %7 = bitcast %"class.base::WeakPtr.789"* %6 to i8*
  call void @llvm.lifetime.start.p0i8(i64 16, i8* nonnull %7) #16
  %8 = bitcast %"class.base::internal::WeakReference"* %4 to i8*
  call void @llvm.lifetime.start.p0i8(i64 8, i8* nonnull %8) #16, !noalias !49
