; ModuleID = '../../extensions/browser/api/networking_private/networking_private_api.cc'
source_filename = "../../extensions/browser/api/networking_private/networking_private_api.cc"
target datalayout = "e-m:e-i64:64-f80:128-n8:16:32:64-S128"
target triple = "x86_64-unknown-linux-gnu"

module asm ".symver exp, exp@GLIBC_2.2.5"
module asm ".symver exp2, exp2@GLIBC_2.2.5"
module asm ".symver exp2f, exp2f@GLIBC_2.2.5"
module asm ".symver expf, expf@GLIBC_2.2.5"
module asm ".symver lgamma, lgamma@GLIBC_2.2.5"
module asm ".symver lgammaf, lgammaf@GLIBC_2.2.5"
module asm ".symver lgammal, lgammal@GLIBC_2.2.5"
module asm ".symver log, log@GLIBC_2.2.5"
module asm ".symver log2, log2@GLIBC_2.2.5"
module asm ".symver log2f, log2f@GLIBC_2.2.5"
module asm ".symver logf, logf@GLIBC_2.2.5"
module asm ".symver pow, pow@GLIBC_2.2.5"
module asm ".symver powf, powf@GLIBC_2.2.5"

%"class.std::__1::locale::id" = type <{ %"struct.std::__1::once_flag", i32, [4 x i8] }>
%"struct.std::__1::once_flag" = type { i64 }
%"class.extensions::NetworkingPrivateGetPropertiesFunction" = type { %class.ExtensionFunction.base, [4 x i8] }
%class.ExtensionFunction.base = type <{ i32 (...)**, %"class.base::RefCountedThreadSafe", [4 x i8], %class.scoped_refptr, %"class.std::__1::unique_ptr.88", %"class.base::ElapsedTimer", %"class.std::__1::unique_ptr.88", %"class.std::__1::basic_string", %"class.base::OnceCallback", i32, [4 x i8], i8*, i8*, %class.GURL, i8, i8, i8, i8, i32, i32, i32, i64, %"class.std::__1::unique_ptr.96", i8, [7 x i8], %"class.base::WeakPtr", %"class.content::BrowserContext"*, %"class.content::BrowserContext"*, %"class.base::CallbackListSubscription", %"class.content::RenderFrameHost"*, %"class.std::__1::unique_ptr.110", %"class.std::__1::vector.116", i32 }>
%"class.base::RefCountedThreadSafe" = type { %"class.base::subtle::RefCountedThreadSafeBase" }
%"class.base::subtle::RefCountedThreadSafeBase" = type { %"class.base::AtomicRefCount" }
%"class.base::AtomicRefCount" = type { %"struct.std::__1::atomic" }
%"struct.std::__1::atomic" = type { %"struct.std::__1::__atomic_base" }
%"struct.std::__1::__atomic_base" = type { %"struct.std::__1::__atomic_base.0" }
%"struct.std::__1::__atomic_base.0" = type { %"struct.std::__1::__cxx_atomic_impl" }
%"struct.std::__1::__cxx_atomic_impl" = type { %"struct.std::__1::__cxx_atomic_base_impl" }
%"struct.std::__1::__cxx_atomic_base_impl" = type { i32 }
%class.scoped_refptr = type { %"class.extensions::Extension"* }
%"class.extensions::Extension" = type { %"class.base::RefCountedThreadSafe.1", %"class.std::__1::basic_string", %"class.std::__1::basic_string", %"class.std::__1::basic_string", i32, %"class.base::FilePath", %"class.extensions::URLPatternSet", %"class.std::__1::unique_ptr", %"class.std::__1::unique_ptr.14", %"class.std::__1::vector", %class.GURL, %"class.base::Version", %"class.std::__1::basic_string", %"class.std::__1::basic_string", i8, %"class.std::__1::basic_string", %"class.std::__1::unique_ptr.38", %"class.std::__1::map", i8, %"class.base::ThreadChecker", i8, i8, i8, i32, %"class.base::GUID" }
%"class.base::RefCountedThreadSafe.1" = type { %"class.base::subtle::RefCountedThreadSafeBase" }
%"class.base::FilePath" = type { %"class.std::__1::basic_string" }
%"class.extensions::URLPatternSet" = type { %"class.std::__1::set" }
%"class.std::__1::set" = type { %"class.std::__1::__tree" }
%"class.std::__1::__tree" = type { %"class.std::__1::__tree_end_node"*, %"class.std::__1::__compressed_pair.3", %"class.std::__1::__compressed_pair.8" }
%"class.std::__1::__tree_end_node" = type { %"class.std::__1::__tree_node_base"* }
%"class.std::__1::__tree_node_base" = type <{ %"class.std::__1::__tree_end_node", %"class.std::__1::__tree_node_base"*, %"class.std::__1::__tree_end_node"*, i8, [7 x i8] }>
%"class.std::__1::__compressed_pair.3" = type { %"struct.std::__1::__compressed_pair_elem.4" }
%"struct.std::__1::__compressed_pair_elem.4" = type { %"class.std::__1::__tree_end_node" }
%"class.std::__1::__compressed_pair.8" = type { %"struct.std::__1::__compressed_pair_elem.9" }
%"struct.std::__1::__compressed_pair_elem.9" = type { i64 }
%"class.std::__1::unique_ptr" = type { %"class.std::__1::__compressed_pair.11" }
%"class.std::__1::__compressed_pair.11" = type { %"struct.std::__1::__compressed_pair_elem.12" }
%"struct.std::__1::__compressed_pair_elem.12" = type { %"class.extensions::PermissionsParser"* }
%"class.extensions::PermissionsParser" = type opaque
%"class.std::__1::unique_ptr.14" = type { %"class.std::__1::__compressed_pair.15" }
%"class.std::__1::__compressed_pair.15" = type { %"struct.std::__1::__compressed_pair_elem.16" }
%"struct.std::__1::__compressed_pair_elem.16" = type { %"class.extensions::PermissionsData"* }
%"class.extensions::PermissionsData" = type opaque
%"class.std::__1::vector" = type { %"class.std::__1::__vector_base" }
%"class.std::__1::__vector_base" = type { %"struct.extensions::InstallWarning"*, %"struct.extensions::InstallWarning"*, %"class.std::__1::__compressed_pair.20" }
%"struct.extensions::InstallWarning" = type { %"class.std::__1::basic_string", %"class.std::__1::basic_string", %"class.std::__1::basic_string" }
%"class.std::__1::__compressed_pair.20" = type { %"struct.std::__1::__compressed_pair_elem.21" }
%"struct.std::__1::__compressed_pair_elem.21" = type { %"struct.extensions::InstallWarning"* }
%"class.base::Version" = type { %"class.std::__1::vector.31" }
%"class.std::__1::vector.31" = type { %"class.std::__1::__vector_base.32" }
%"class.std::__1::__vector_base.32" = type { i32*, i32*, %"class.std::__1::__compressed_pair.33" }
%"class.std::__1::__compressed_pair.33" = type { %"struct.std::__1::__compressed_pair_elem.34" }
%"struct.std::__1::__compressed_pair_elem.34" = type { i32* }
%"class.std::__1::unique_ptr.38" = type { %"class.std::__1::__compressed_pair.39" }
%"class.std::__1::__compressed_pair.39" = type { %"struct.std::__1::__compressed_pair_elem.40" }
%"struct.std::__1::__compressed_pair_elem.40" = type { %"class.extensions::Manifest"* }
%"class.extensions::Manifest" = type { %"class.std::__1::basic_string", %"class.extensions::HashedExtensionId", i32, %"class.std::__1::unique_ptr.41", %"class.std::__1::unique_ptr.41", i32, i32 }
%"class.extensions::HashedExtensionId" = type { %"class.std::__1::basic_string" }
%"class.std::__1::unique_ptr.41" = type { %"class.std::__1::__compressed_pair.42" }
%"class.std::__1::__compressed_pair.42" = type { %"struct.std::__1::__compressed_pair_elem.43" }
%"struct.std::__1::__compressed_pair_elem.43" = type { %"class.base::DictionaryValue"* }
%"class.base::DictionaryValue" = type { %"class.base::Value" }
%"class.base::Value" = type { %"class.absl::variant" }
%"class.absl::variant" = type { %"class.absl::variant_internal::VariantCopyAssignBaseNontrivial" }
%"class.absl::variant_internal::VariantCopyAssignBaseNontrivial" = type { %"class.absl::variant_internal::VariantMoveAssignBaseNontrivial" }
%"class.absl::variant_internal::VariantMoveAssignBaseNontrivial" = type { %"class.absl::variant_internal::VariantCopyBaseNontrivial" }
%"class.absl::variant_internal::VariantCopyBaseNontrivial" = type { %"class.absl::variant_internal::VariantMoveBaseNontrivial" }
%"class.absl::variant_internal::VariantMoveBaseNontrivial" = type { %"class.absl::variant_internal::VariantStateBaseDestructorNontrivial" }
%"class.absl::variant_internal::VariantStateBaseDestructorNontrivial" = type { %"class.absl::variant_internal::VariantStateBase" }
%"class.absl::variant_internal::VariantStateBase" = type { %"union.absl::variant_internal::DestructibleUnionImpl", i64 }
%"union.absl::variant_internal::DestructibleUnionImpl" = type { %"union.absl::variant_internal::DestructibleUnionImpl.44" }
%"union.absl::variant_internal::DestructibleUnionImpl.44" = type { %"union.absl::variant_internal::DestructibleUnionImpl.45" }
%"union.absl::variant_internal::DestructibleUnionImpl.45" = type { %"union.absl::variant_internal::DestructibleUnionImpl.46" }
%"union.absl::variant_internal::DestructibleUnionImpl.46" = type { %"union.absl::variant_internal::DestructibleUnionImpl.47" }
%"union.absl::variant_internal::DestructibleUnionImpl.47" = type { %"class.std::__1::basic_string" }
%"class.std::__1::map" = type { %"class.std::__1::__tree.79" }
%"class.std::__1::__tree.79" = type { %"class.std::__1::__tree_end_node"*, %"class.std::__1::__compressed_pair.80", %"class.std::__1::__compressed_pair.84" }
%"class.std::__1::__compressed_pair.80" = type { %"struct.std::__1::__compressed_pair_elem.4" }
%"class.std::__1::__compressed_pair.84" = type { %"struct.std::__1::__compressed_pair_elem.9" }
%"class.base::ThreadChecker" = type { i8 }
%"class.base::GUID" = type { %"class.std::__1::basic_string" }
%"class.base::ElapsedTimer" = type { %"class.base::TimeTicks" }
%"class.base::TimeTicks" = type { %"class.base::time_internal::TimeBase" }
%"class.base::time_internal::TimeBase" = type { i64 }
%"class.std::__1::unique_ptr.88" = type { %"class.std::__1::__compressed_pair.89" }
%"class.std::__1::__compressed_pair.89" = type { %"struct.std::__1::__compressed_pair_elem.90" }
%"struct.std::__1::__compressed_pair_elem.90" = type { %"class.base::ListValue"* }
%"class.base::ListValue" = type { %"class.base::Value" }
%"class.std::__1::basic_string" = type { %"class.std::__1::__compressed_pair" }
%"class.std::__1::__compressed_pair" = type { %"struct.std::__1::__compressed_pair_elem" }
%"struct.std::__1::__compressed_pair_elem" = type { %"struct.std::__1::basic_string<char, std::__1::char_traits<char>, std::__1::allocator<char> >::__rep" }
%"struct.std::__1::basic_string<char, std::__1::char_traits<char>, std::__1::allocator<char> >::__rep" = type { %union.anon }
%union.anon = type { %"struct.std::__1::basic_string<char, std::__1::char_traits<char>, std::__1::allocator<char> >::__long" }
%"struct.std::__1::basic_string<char, std::__1::char_traits<char>, std::__1::allocator<char> >::__long" = type { i8*, i64, i64 }
%"class.base::OnceCallback" = type { %"class.base::internal::CallbackBase" }
%"class.base::internal::CallbackBase" = type { %class.scoped_refptr.94 }
%class.scoped_refptr.94 = type { %"class.base::internal::BindStateBase"* }
%"class.base::internal::BindStateBase" = type { %"class.base::RefCountedThreadSafe.95", void ()*, void (%"class.base::internal::BindStateBase"*)*, i1 (%"class.base::internal::BindStateBase"*, i32)* }
%"class.base::RefCountedThreadSafe.95" = type { %"class.base::subtle::RefCountedThreadSafeBase" }
%class.GURL = type { %"class.std::__1::basic_string", i8, %"struct.url::Parsed", %"class.std::__1::unique_ptr.25" }
%"struct.url::Parsed" = type { %"struct.url::Component", %"struct.url::Component", %"struct.url::Component", %"struct.url::Component", %"struct.url::Component", %"struct.url::Component", %"struct.url::Component", %"struct.url::Component", i8, %"struct.url::Parsed"* }
%"struct.url::Component" = type { i32, i32 }
%"class.std::__1::unique_ptr.25" = type { %"class.std::__1::__compressed_pair.26" }
%"class.std::__1::__compressed_pair.26" = type { %"struct.std::__1::__compressed_pair_elem.27" }
%"struct.std::__1::__compressed_pair_elem.27" = type { %class.GURL* }
%"class.std::__1::unique_ptr.96" = type { %"class.std::__1::__compressed_pair.97" }
%"class.std::__1::__compressed_pair.97" = type { %"struct.std::__1::__compressed_pair_elem.98" }
%"struct.std::__1::__compressed_pair_elem.98" = type { i32* }
%"class.base::WeakPtr" = type { %"class.base::internal::WeakPtrBase" }
%"class.base::internal::WeakPtrBase" = type { %"class.base::internal::WeakReference", i64 }
%"class.base::internal::WeakReference" = type { %class.scoped_refptr.102 }
%class.scoped_refptr.102 = type { %"class.base::internal::WeakReference::Flag"* }
%"class.base::internal::WeakReference::Flag" = type <{ %"class.base::RefCountedThreadSafe.103", %"class.base::AtomicFlag", [3 x i8] }>
%"class.base::RefCountedThreadSafe.103" = type { %"class.base::subtle::RefCountedThreadSafeBase" }
%"class.base::AtomicFlag" = type { %"struct.std::__1::atomic.104" }
%"struct.std::__1::atomic.104" = type { %"struct.std::__1::__atomic_base.105" }
%"struct.std::__1::__atomic_base.105" = type { %"struct.std::__1::__atomic_base.106" }
%"struct.std::__1::__atomic_base.106" = type { %"struct.std::__1::__cxx_atomic_impl.107" }
%"struct.std::__1::__cxx_atomic_impl.107" = type { %"struct.std::__1::__cxx_atomic_base_impl.108" }
%"struct.std::__1::__cxx_atomic_base_impl.108" = type { i8 }
%"class.content::BrowserContext" = type opaque
%"class.base::CallbackListSubscription" = type { %"class.base::OnceCallback.109" }
%"class.base::OnceCallback.109" = type { %"class.base::internal::CallbackBase" }
%"class.content::RenderFrameHost" = type opaque
%"class.std::__1::unique_ptr.110" = type { %"class.std::__1::__compressed_pair.111" }
%"class.std::__1::__compressed_pair.111" = type { %"struct.std::__1::__compressed_pair_elem.112" }
%"struct.std::__1::__compressed_pair_elem.112" = type { %"class.ExtensionFunction::RenderFrameHostTracker"* }
%"class.ExtensionFunction::RenderFrameHostTracker" = type opaque
%"class.std::__1::vector.116" = type { %"class.std::__1::__vector_base.117" }
%"class.std::__1::__vector_base.117" = type { %"class.std::__1::basic_string"*, %"class.std::__1::basic_string"*, %"class.std::__1::__compressed_pair.118" }
%"class.std::__1::__compressed_pair.118" = type { %"struct.std::__1::__compressed_pair_elem.119" }
%"struct.std::__1::__compressed_pair_elem.119" = type { %"class.std::__1::basic_string"* }
%"class.extensions::NetworkingPrivateGetManagedPropertiesFunction" = type { %class.ExtensionFunction.base, [4 x i8] }
%"class.extensions::NetworkingPrivateGetStateFunction" = type { %class.ExtensionFunction.base, [4 x i8] }
%"class.extensions::NetworkingPrivateSetPropertiesFunction" = type { %class.ExtensionFunction.base, [4 x i8] }
%"class.extensions::NetworkingPrivateCreateNetworkFunction" = type { %class.ExtensionFunction.base, [4 x i8] }
%"class.extensions::NetworkingPrivateForgetNetworkFunction" = type { %class.ExtensionFunction.base, [4 x i8] }
%"class.extensions::NetworkingPrivateGetNetworksFunction" = type { %class.ExtensionFunction.base, [4 x i8] }
%"class.extensions::NetworkingPrivateGetVisibleNetworksFunction" = type { %class.ExtensionFunction.base, [4 x i8] }
%"class.extensions::NetworkingPrivateGetEnabledNetworkTypesFunction" = type { %class.ExtensionFunction.base, [4 x i8] }
%"class.extensions::NetworkingPrivateGetDeviceStatesFunction" = type { %class.ExtensionFunction.base, [4 x i8] }
%"class.extensions::NetworkingPrivateEnableNetworkTypeFunction" = type { %class.ExtensionFunction.base, [4 x i8] }
%"class.extensions::NetworkingPrivateDisableNetworkTypeFunction" = type { %class.ExtensionFunction.base, [4 x i8] }
%"class.extensions::NetworkingPrivateRequestNetworkScanFunction" = type { %class.ExtensionFunction.base, [4 x i8] }
%"class.extensions::NetworkingPrivateStartConnectFunction" = type { %class.ExtensionFunction.base, [4 x i8] }
%"class.extensions::NetworkingPrivateStartDisconnectFunction" = type { %class.ExtensionFunction.base, [4 x i8] }
%"class.extensions::NetworkingPrivateStartActivateFunction" = type { %class.ExtensionFunction.base, [4 x i8] }
%"class.extensions::NetworkingPrivateGetCaptivePortalStatusFunction" = type { %class.ExtensionFunction.base, [4 x i8] }
%"class.extensions::NetworkingPrivateUnlockCellularSimFunction" = type { %class.ExtensionFunction.base, [4 x i8] }
%"class.extensions::NetworkingPrivateSetCellularSimStateFunction" = type { %class.ExtensionFunction.base, [4 x i8] }
%"class.extensions::NetworkingPrivateSelectCellularMobileNetworkFunction" = type { %class.ExtensionFunction.base, [4 x i8] }
%"class.extensions::NetworkingPrivateGetGlobalPolicyFunction" = type { %class.ExtensionFunction.base, [4 x i8] }
%"class.extensions::NetworkingPrivateGetCertificateListsFunction" = type { %class.ExtensionFunction.base, [4 x i8] }
%class.ExtensionFunction = type <{ i32 (...)**, %"class.base::RefCountedThreadSafe", [4 x i8], %class.scoped_refptr, %"class.std::__1::unique_ptr.88", %"class.base::ElapsedTimer", %"class.std::__1::unique_ptr.88", %"class.std::__1::basic_string", %"class.base::OnceCallback", i32, [4 x i8], i8*, i8*, %class.GURL, i8, i8, i8, i8, i32, i32, i32, i64, %"class.std::__1::unique_ptr.96", i8, [7 x i8], %"class.base::WeakPtr", %"class.content::BrowserContext"*, %"class.content::BrowserContext"*, %"class.base::CallbackListSubscription", %"class.content::RenderFrameHost"*, %"class.std::__1::unique_ptr.110", %"class.std::__1::vector.116", i32, [4 x i8] }>
%"class.ExtensionFunction::ResponseActionObject" = type { i32 (...)** }
%"class.base::OnceCallback.141" = type { %"class.base::internal::CallbackBase" }
%"struct.extensions::api::networking_private::GetProperties::Params" = type { %"class.std::__1::basic_string" }
%"class.extensions::NetworkingPrivateDelegate" = type { %class.KeyedService, %"class.std::__1::unique_ptr.135" }
%class.KeyedService = type { i32 (...)** }
%"class.std::__1::unique_ptr.135" = type { %"class.std::__1::__compressed_pair.136" }
%"class.std::__1::__compressed_pair.136" = type { %"struct.std::__1::__compressed_pair_elem.137" }
%"struct.std::__1::__compressed_pair_elem.137" = type { %"class.extensions::NetworkingPrivateDelegate::UIDelegate"* }
%"class.extensions::NetworkingPrivateDelegate::UIDelegate" = type { i32 (...)** }
%"class.absl::optional" = type { %"class.absl::optional_internal::optional_data" }
%"class.absl::optional_internal::optional_data" = type { %"class.absl::optional_internal::optional_data_base" }
%"class.absl::optional_internal::optional_data_base" = type { %"class.absl::optional_internal::optional_data_dtor_base" }
%"class.absl::optional_internal::optional_data_dtor_base" = type { i8, %union.anon.142 }
%union.anon.142 = type { %"class.base::Value" }
%"class.absl::optional.143" = type { %"class.absl::optional_internal::optional_data.144" }
%"class.absl::optional_internal::optional_data.144" = type { %"class.absl::optional_internal::optional_data_base.145" }
%"class.absl::optional_internal::optional_data_base.145" = type { %"class.absl::optional_internal::optional_data_dtor_base.146" }
%"class.absl::optional_internal::optional_data_dtor_base.146" = type { i8, %union.anon.147 }
%union.anon.147 = type { %"class.std::__1::basic_string" }
%"class.ExtensionFunction::ResponseValueObject" = type { i32 (...)** }
%"struct.std::__1::basic_string<char, std::__1::char_traits<char>, std::__1::allocator<char> >::__short" = type { [23 x i8], %struct.anon }
%struct.anon = type { i8 }
%"class.std::__1::__basic_string_common" = type { i8 }
%"class.logging::CheckError" = type { %"class.logging::LogMessage"* }
%"class.logging::LogMessage" = type { i32 (...)**, i32, %"class.std::__1::basic_ostringstream", i64, i8*, i32, %"class.base::ScopedClearLastErrorBase" }
%"class.std::__1::basic_ostringstream" = type { %"class.std::__1::basic_ostream.base", %"class.std::__1::basic_stringbuf", %"class.std::__1::basic_ios.base" }
%"class.std::__1::basic_ostream.base" = type { i32 (...)** }
%"class.std::__1::basic_stringbuf" = type <{ %"class.std::__1::basic_streambuf", %"class.std::__1::basic_string", i8*, i32, [4 x i8] }>
%"class.std::__1::basic_streambuf" = type { i32 (...)**, %"class.std::__1::locale", i8*, i8*, i8*, i8*, i8*, i8* }
%"class.std::__1::locale" = type { %"class.std::__1::locale::__imp"* }
%"class.std::__1::locale::__imp" = type opaque
%"class.std::__1::basic_ios.base" = type <{ %"class.std::__1::ios_base", %"class.std::__1::basic_ostream"*, i32 }>
%"class.std::__1::ios_base" = type { i32 (...)**, i32, i64, i64, i32, i32, i8*, i8*, void (i32, %"class.std::__1::ios_base"*, i32)**, i32*, i64, i64, i64*, i64, i64, i8**, i64, i64 }
%"class.std::__1::basic_ostream" = type { i32 (...)**, %"class.std::__1::basic_ios.base" }
%"class.base::ScopedClearLastErrorBase" = type { i32 }
%"class.extensions::Feature::Availability" = type { i32, %"class.std::__1::basic_string" }
%"class.extensions::ExtensionAPI" = type { i32 (...)**, i8, %"class.base::Lock", %"class.std::__1::map.472", %"class.std::__1::map.481" }
%"class.base::Lock" = type { %"class.base::internal::LockImpl" }
%"class.base::internal::LockImpl" = type { %union.pthread_mutex_t }
%union.pthread_mutex_t = type { %struct.__pthread_mutex_s }
%struct.__pthread_mutex_s = type { i32, i32, i32, i32, i32, i16, i16, %struct.__pthread_internal_list }
%struct.__pthread_internal_list = type { %struct.__pthread_internal_list*, %struct.__pthread_internal_list* }
%"class.std::__1::map.472" = type { %"class.std::__1::__tree.473" }
%"class.std::__1::__tree.473" = type { %"class.std::__1::__tree_end_node"*, %"class.std::__1::__compressed_pair.474", %"class.std::__1::__compressed_pair.478" }
%"class.std::__1::__compressed_pair.474" = type { %"struct.std::__1::__compressed_pair_elem.4" }
%"class.std::__1::__compressed_pair.478" = type { %"struct.std::__1::__compressed_pair_elem.9" }
%"class.std::__1::map.481" = type { %"class.std::__1::__tree.482" }
%"class.std::__1::__tree.482" = type { %"class.std::__1::__tree_end_node"*, %"class.std::__1::__compressed_pair.483", %"class.std::__1::__compressed_pair.487" }
%"class.std::__1::__compressed_pair.483" = type { %"struct.std::__1::__compressed_pair_elem.4" }
%"class.std::__1::__compressed_pair.487" = type { %"struct.std::__1::__compressed_pair_elem.9" }
%"struct.extensions::api::networking_private::GetManagedProperties::Params" = type { %"class.std::__1::basic_string" }
%"class.base::OnceCallback.170" = type { %"class.base::internal::CallbackBase" }
%"class.base::OnceCallback.171" = type { %"class.base::internal::CallbackBase" }
%"struct.extensions::api::networking_private::GetState::Params" = type { %"class.std::__1::basic_string" }
%"struct.extensions::api::networking_private::SetProperties::Params" = type { %"class.std::__1::basic_string", %"struct.extensions::api::networking_private::NetworkConfigProperties" }
%"struct.extensions::api::networking_private::NetworkConfigProperties" = type { %"class.std::__1::unique_ptr.186", %"class.std::__1::unique_ptr.247", %"class.std::__1::unique_ptr.198", i32, %"class.std::__1::unique_ptr.198", i32, %"class.std::__1::unique_ptr.235", %"class.std::__1::unique_ptr.277", %"class.std::__1::unique_ptr.295", i32, %"class.std::__1::unique_ptr.301", %"class.std::__1::unique_ptr.343" }
%"class.std::__1::unique_ptr.186" = type { %"class.std::__1::__compressed_pair.187" }
%"class.std::__1::__compressed_pair.187" = type { %"struct.std::__1::__compressed_pair_elem.188" }
%"struct.std::__1::__compressed_pair_elem.188" = type { %"struct.extensions::api::networking_private::CellularProperties"* }
%"struct.extensions::api::networking_private::CellularProperties" = type { %"class.std::__1::unique_ptr.189", %"class.std::__1::unique_ptr.195", %"class.std::__1::unique_ptr.206", %"class.std::__1::unique_ptr.198", i32, %"class.std::__1::unique_ptr.189", %"class.std::__1::unique_ptr.198", %"class.std::__1::unique_ptr.198", %"class.std::__1::unique_ptr.198", %"class.std::__1::unique_ptr.213", %"class.std::__1::unique_ptr.198", %"class.std::__1::unique_ptr.220", %"class.std::__1::unique_ptr.198", %"class.std::__1::unique_ptr.198", %"class.std::__1::unique_ptr.195", %"class.std::__1::unique_ptr.198", %"class.std::__1::unique_ptr.198", %"class.std::__1::unique_ptr.198", %"class.std::__1::unique_ptr.198", %"class.std::__1::unique_ptr.198", %"class.std::__1::unique_ptr.198", %"class.std::__1::unique_ptr.226", %"class.std::__1::unique_ptr.198", %"class.std::__1::unique_ptr.189", %"class.std::__1::unique_ptr.220", %"class.std::__1::unique_ptr.232", %"class.std::__1::unique_ptr.189", %"class.std::__1::unique_ptr.235", %"class.std::__1::unique_ptr.189" }
%"class.std::__1::unique_ptr.206" = type { %"class.std::__1::__compressed_pair.207" }
%"class.std::__1::__compressed_pair.207" = type { %"struct.std::__1::__compressed_pair_elem.208" }
%"struct.std::__1::__compressed_pair_elem.208" = type { %"class.std::__1::vector.209"* }
%"class.std::__1::vector.209" = type opaque
%"class.std::__1::unique_ptr.213" = type { %"class.std::__1::__compressed_pair.214" }
%"class.std::__1::__compressed_pair.214" = type { %"struct.std::__1::__compressed_pair_elem.215" }
%"struct.std::__1::__compressed_pair_elem.215" = type { %"class.std::__1::vector.216"* }
%"class.std::__1::vector.216" = type opaque
%"class.std::__1::unique_ptr.195" = type { %"class.std::__1::__compressed_pair.196" }
%"class.std::__1::__compressed_pair.196" = type { %"struct.std::__1::__compressed_pair_elem.197" }
%"struct.std::__1::__compressed_pair_elem.197" = type { %"struct.extensions::api::networking_private::APNProperties"* }
%"struct.extensions::api::networking_private::APNProperties" = type { %"class.std::__1::basic_string", %"class.std::__1::unique_ptr.198", %"class.std::__1::unique_ptr.198", %"class.std::__1::unique_ptr.198", %"class.std::__1::unique_ptr.198", %"class.std::__1::unique_ptr.198", %"class.std::__1::unique_ptr.198" }
%"class.std::__1::unique_ptr.226" = type { %"class.std::__1::__compressed_pair.227" }
%"class.std::__1::__compressed_pair.227" = type { %"struct.std::__1::__compressed_pair_elem.228" }
%"struct.std::__1::__compressed_pair_elem.228" = type { %"struct.extensions::api::networking_private::PaymentPortal"* }
%"struct.extensions::api::networking_private::PaymentPortal" = type { %"class.std::__1::basic_string", %"class.std::__1::unique_ptr.198", %"class.std::__1::unique_ptr.198" }
%"class.std::__1::unique_ptr.220" = type { %"class.std::__1::__compressed_pair.221" }
%"class.std::__1::__compressed_pair.221" = type { %"struct.std::__1::__compressed_pair_elem.222" }
%"struct.std::__1::__compressed_pair_elem.222" = type { %"struct.extensions::api::networking_private::CellularProviderProperties"* }
%"struct.extensions::api::networking_private::CellularProviderProperties" = type { %"class.std::__1::basic_string", %"class.std::__1::basic_string", %"class.std::__1::unique_ptr.198" }
%"class.std::__1::unique_ptr.232" = type { %"class.std::__1::__compressed_pair.233" }
%"class.std::__1::__compressed_pair.233" = type { %"struct.std::__1::__compressed_pair_elem.234" }
%"struct.std::__1::__compressed_pair_elem.234" = type { %"struct.extensions::api::networking_private::SIMLockStatus"* }
%"struct.extensions::api::networking_private::SIMLockStatus" = type { %"class.std::__1::basic_string", i8, %"class.std::__1::unique_ptr.235" }
%"class.std::__1::unique_ptr.189" = type { %"class.std::__1::__compressed_pair.190" }
%"class.std::__1::__compressed_pair.190" = type { %"struct.std::__1::__compressed_pair_elem.191" }
%"struct.std::__1::__compressed_pair_elem.191" = type { i8* }
%"class.std::__1::unique_ptr.247" = type { %"class.std::__1::__compressed_pair.248" }
%"class.std::__1::__compressed_pair.248" = type { %"struct.std::__1::__compressed_pair_elem.249" }
%"struct.std::__1::__compressed_pair_elem.249" = type { %"struct.extensions::api::networking_private::EthernetProperties"* }
%"struct.extensions::api::networking_private::EthernetProperties" = type { %"class.std::__1::unique_ptr.189", %"class.std::__1::unique_ptr.198", %"class.std::__1::unique_ptr.250" }
%"class.std::__1::unique_ptr.250" = type { %"class.std::__1::__compressed_pair.251" }
%"class.std::__1::__compressed_pair.251" = type { %"struct.std::__1::__compressed_pair_elem.252" }
%"struct.std::__1::__compressed_pair_elem.252" = type { %"struct.extensions::api::networking_private::EAPProperties"* }
%"struct.extensions::api::networking_private::EAPProperties" = type { %"class.std::__1::unique_ptr.198", %"class.std::__1::unique_ptr.253", %"class.std::__1::unique_ptr.198", %"class.std::__1::unique_ptr.198", %"class.std::__1::unique_ptr.198", %"class.std::__1::unique_ptr.198", %"class.std::__1::unique_ptr.198", %"class.std::__1::unique_ptr.198", %"class.std::__1::unique_ptr.198", %"class.std::__1::unique_ptr.189", %"class.std::__1::unique_ptr.256", %"class.std::__1::unique_ptr.256", %"class.std::__1::unique_ptr.198", %"class.std::__1::unique_ptr.198", %"class.std::__1::unique_ptr.189", %"class.std::__1::unique_ptr.189" }
%"class.std::__1::unique_ptr.253" = type { %"class.std::__1::__compressed_pair.254" }
%"class.std::__1::__compressed_pair.254" = type { %"struct.std::__1::__compressed_pair_elem.255" }
%"struct.std::__1::__compressed_pair_elem.255" = type { %"struct.extensions::api::networking_private::CertificatePattern"* }
%"struct.extensions::api::networking_private::CertificatePattern" = type { %"class.std::__1::unique_ptr.256", %"class.std::__1::unique_ptr.262", %"class.std::__1::unique_ptr.256", %"class.std::__1::unique_ptr.256", %"class.std::__1::unique_ptr.262" }
%"class.std::__1::unique_ptr.262" = type { %"class.std::__1::__compressed_pair.263" }
%"class.std::__1::__compressed_pair.263" = type { %"struct.std::__1::__compressed_pair_elem.264" }
%"struct.std::__1::__compressed_pair_elem.264" = type { %"struct.extensions::api::networking_private::IssuerSubjectPattern"* }
%"struct.extensions::api::networking_private::IssuerSubjectPattern" = type { %"class.std::__1::unique_ptr.198", %"class.std::__1::unique_ptr.198", %"class.std::__1::unique_ptr.198", %"class.std::__1::unique_ptr.198" }
%"class.std::__1::unique_ptr.256" = type { %"class.std::__1::__compressed_pair.257" }
%"class.std::__1::__compressed_pair.257" = type { %"struct.std::__1::__compressed_pair_elem.258" }
%"struct.std::__1::__compressed_pair_elem.258" = type { %"class.std::__1::vector.116"* }
%"class.std::__1::unique_ptr.198" = type { %"class.std::__1::__compressed_pair.199" }
%"class.std::__1::__compressed_pair.199" = type { %"struct.std::__1::__compressed_pair_elem.119" }
%"class.std::__1::unique_ptr.235" = type { %"class.std::__1::__compressed_pair.236" }
%"class.std::__1::__compressed_pair.236" = type { %"struct.std::__1::__compressed_pair_elem.237" }
%"struct.std::__1::__compressed_pair_elem.237" = type { i32* }
%"class.std::__1::unique_ptr.277" = type { %"class.std::__1::__compressed_pair.278" }
%"class.std::__1::__compressed_pair.278" = type { %"struct.std::__1::__compressed_pair_elem.279" }
%"struct.std::__1::__compressed_pair_elem.279" = type { %"struct.extensions::api::networking_private::ProxySettings"* }
%"struct.extensions::api::networking_private::ProxySettings" = type { i32, %"class.std::__1::unique_ptr.280", %"class.std::__1::unique_ptr.256", %"class.std::__1::unique_ptr.198" }
%"class.std::__1::unique_ptr.280" = type { %"class.std::__1::__compressed_pair.281" }
%"class.std::__1::__compressed_pair.281" = type { %"struct.std::__1::__compressed_pair_elem.282" }
%"struct.std::__1::__compressed_pair_elem.282" = type { %"struct.extensions::api::networking_private::ManualProxySettings"* }
%"struct.extensions::api::networking_private::ManualProxySettings" = type { %"class.std::__1::unique_ptr.283", %"class.std::__1::unique_ptr.283", %"class.std::__1::unique_ptr.283", %"class.std::__1::unique_ptr.283" }
%"class.std::__1::unique_ptr.283" = type { %"class.std::__1::__compressed_pair.284" }
%"class.std::__1::__compressed_pair.284" = type { %"struct.std::__1::__compressed_pair_elem.285" }
%"struct.std::__1::__compressed_pair_elem.285" = type { %"struct.extensions::api::networking_private::ProxyLocation"* }
%"struct.extensions::api::networking_private::ProxyLocation" = type <{ %"class.std::__1::basic_string", i32, [4 x i8] }>
%"class.std::__1::unique_ptr.295" = type { %"class.std::__1::__compressed_pair.296" }
%"class.std::__1::__compressed_pair.296" = type { %"struct.std::__1::__compressed_pair_elem.297" }
%"struct.std::__1::__compressed_pair_elem.297" = type { %"struct.extensions::api::networking_private::IPConfigProperties"* }
%"struct.extensions::api::networking_private::IPConfigProperties" = type { %"class.std::__1::unique_ptr.198", %"class.std::__1::unique_ptr.198", %"class.std::__1::unique_ptr.256", %"class.std::__1::unique_ptr.256", %"class.std::__1::unique_ptr.256", %"class.std::__1::unique_ptr.256", %"class.std::__1::unique_ptr.235", %"class.std::__1::unique_ptr.198", %"class.std::__1::unique_ptr.198" }
%"class.std::__1::unique_ptr.301" = type { %"class.std::__1::__compressed_pair.302" }
%"class.std::__1::__compressed_pair.302" = type { %"struct.std::__1::__compressed_pair_elem.303" }
%"struct.std::__1::__compressed_pair_elem.303" = type { %"struct.extensions::api::networking_private::VPNProperties"* }
%"struct.extensions::api::networking_private::VPNProperties" = type { %"class.std::__1::unique_ptr.189", %"class.std::__1::unique_ptr.198", %"class.std::__1::unique_ptr.304", %"class.std::__1::unique_ptr.316", %"class.std::__1::unique_ptr.322", %"class.std::__1::unique_ptr.334", %"class.std::__1::unique_ptr.198" }
%"class.std::__1::unique_ptr.304" = type { %"class.std::__1::__compressed_pair.305" }
%"class.std::__1::__compressed_pair.305" = type { %"struct.std::__1::__compressed_pair_elem.306" }
%"struct.std::__1::__compressed_pair_elem.306" = type { %"struct.extensions::api::networking_private::IPSecProperties"* }
%"struct.extensions::api::networking_private::IPSecProperties" = type { %"class.std::__1::basic_string", %"class.std::__1::unique_ptr.253", %"class.std::__1::unique_ptr.198", %"class.std::__1::unique_ptr.198", %"class.std::__1::unique_ptr.198", %"class.std::__1::unique_ptr.250", %"class.std::__1::unique_ptr.198", %"class.std::__1::unique_ptr.235", %"class.std::__1::unique_ptr.198", %"class.std::__1::unique_ptr.189", %"class.std::__1::unique_ptr.256", %"class.std::__1::unique_ptr.256", %"class.std::__1::unique_ptr.307" }
%"class.std::__1::unique_ptr.307" = type { %"class.std::__1::__compressed_pair.308" }
%"class.std::__1::__compressed_pair.308" = type { %"struct.std::__1::__compressed_pair_elem.309" }
%"struct.std::__1::__compressed_pair_elem.309" = type { %"struct.extensions::api::networking_private::XAUTHProperties"* }
%"struct.extensions::api::networking_private::XAUTHProperties" = type { %"class.std::__1::unique_ptr.198", %"class.std::__1::unique_ptr.189", %"class.std::__1::unique_ptr.198" }
%"class.std::__1::unique_ptr.316" = type { %"class.std::__1::__compressed_pair.317" }
%"class.std::__1::__compressed_pair.317" = type { %"struct.std::__1::__compressed_pair_elem.318" }
%"struct.std::__1::__compressed_pair_elem.318" = type { %"struct.extensions::api::networking_private::L2TPProperties"* }
%"struct.extensions::api::networking_private::L2TPProperties" = type { %"class.std::__1::unique_ptr.189", %"class.std::__1::unique_ptr.198", %"class.std::__1::unique_ptr.189", %"class.std::__1::unique_ptr.198" }
%"class.std::__1::unique_ptr.322" = type { %"class.std::__1::__compressed_pair.323" }
%"class.std::__1::__compressed_pair.323" = type { %"struct.std::__1::__compressed_pair_elem.324" }
%"struct.std::__1::__compressed_pair_elem.324" = type { %"struct.extensions::api::networking_private::OpenVPNProperties"* }
%"struct.extensions::api::networking_private::OpenVPNProperties" = type { %"class.std::__1::unique_ptr.198", %"class.std::__1::unique_ptr.198", %"class.std::__1::unique_ptr.189", %"class.std::__1::unique_ptr.198", %"class.std::__1::unique_ptr.198", %"class.std::__1::unique_ptr.253", %"class.std::__1::unique_ptr.198", %"class.std::__1::unique_ptr.198", %"class.std::__1::unique_ptr.198", %"class.std::__1::unique_ptr.189", %"class.std::__1::unique_ptr.256", %"class.std::__1::unique_ptr.189", %"class.std::__1::unique_ptr.198", %"class.std::__1::unique_ptr.198", %"class.std::__1::unique_ptr.198", %"class.std::__1::unique_ptr.198", %"class.std::__1::unique_ptr.235", %"class.std::__1::unique_ptr.198", %"class.std::__1::unique_ptr.189", %"class.std::__1::unique_ptr.198", %"class.std::__1::unique_ptr.256", %"class.std::__1::unique_ptr.198", %"class.std::__1::unique_ptr.235", %"class.std::__1::unique_ptr.189", %"class.std::__1::unique_ptr.256", %"class.std::__1::unique_ptr.256", %"class.std::__1::unique_ptr.198", %"class.std::__1::unique_ptr.235", %"class.std::__1::unique_ptr.235", %"class.std::__1::unique_ptr.198", %"class.std::__1::unique_ptr.198", %"class.std::__1::unique_ptr.198", %"class.std::__1::unique_ptr.198", %"class.std::__1::unique_ptr.198", %"class.std::__1::unique_ptr.198", %"class.std::__1::unique_ptr.198", %"class.std::__1::unique_ptr.198", %"class.std::__1::unique_ptr.325" }
%"class.std::__1::unique_ptr.325" = type { %"class.std::__1::__compressed_pair.326" }
%"class.std::__1::__compressed_pair.326" = type { %"struct.std::__1::__compressed_pair_elem.327" }
%"struct.std::__1::__compressed_pair_elem.327" = type { %"struct.extensions::api::networking_private::VerifyX509"* }
%"struct.extensions::api::networking_private::VerifyX509" = type { %"class.std::__1::unique_ptr.198", %"class.std::__1::unique_ptr.198" }
%"class.std::__1::unique_ptr.334" = type { %"class.std::__1::__compressed_pair.335" }
%"class.std::__1::__compressed_pair.335" = type { %"struct.std::__1::__compressed_pair_elem.336" }
%"struct.std::__1::__compressed_pair_elem.336" = type { %"struct.extensions::api::networking_private::ThirdPartyVPNProperties"* }
%"struct.extensions::api::networking_private::ThirdPartyVPNProperties" = type { %"class.std::__1::basic_string", %"class.std::__1::unique_ptr.198" }
%"class.std::__1::unique_ptr.343" = type { %"class.std::__1::__compressed_pair.344" }
%"class.std::__1::__compressed_pair.344" = type { %"struct.std::__1::__compressed_pair_elem.345" }
%"struct.std::__1::__compressed_pair_elem.345" = type { %"struct.extensions::api::networking_private::WiFiProperties"* }
%"struct.extensions::api::networking_private::WiFiProperties" = type { %"class.std::__1::unique_ptr.189", %"class.std::__1::unique_ptr.189", %"class.std::__1::unique_ptr.198", %"class.std::__1::unique_ptr.250", %"class.std::__1::unique_ptr.235", %"class.std::__1::unique_ptr.346", %"class.std::__1::unique_ptr.198", %"class.std::__1::unique_ptr.189", %"class.std::__1::unique_ptr.198", %"class.std::__1::unique_ptr.198", %"class.std::__1::unique_ptr.198", %"class.std::__1::unique_ptr.235" }
%"class.std::__1::unique_ptr.346" = type { %"class.std::__1::__compressed_pair.347" }
%"class.std::__1::__compressed_pair.347" = type { %"struct.std::__1::__compressed_pair_elem.348" }
%"struct.std::__1::__compressed_pair_elem.348" = type { %"class.std::__1::vector.349"* }
%"class.std::__1::vector.349" = type opaque
%"struct.extensions::api::networking_private::CreateNetwork::Params" = type { i8, %"struct.extensions::api::networking_private::NetworkConfigProperties" }
%"class.std::__1::vector.65" = type { %"class.std::__1::__vector_base.66" }
%"class.std::__1::__vector_base.66" = type { %"class.base::Value"*, %"class.base::Value"*, %"class.std::__1::__compressed_pair.67" }
%"class.std::__1::__compressed_pair.67" = type { %"struct.std::__1::__compressed_pair_elem.68" }
%"struct.std::__1::__compressed_pair_elem.68" = type { %"class.base::Value"* }
%"struct.extensions::api::networking_private::ForgetNetwork::Params" = type { %"class.std::__1::basic_string" }
%"class.base::OnceCallback.377" = type { %"class.base::internal::CallbackBase" }
%"struct.extensions::api::networking_private::GetNetworks::Params" = type { %"struct.extensions::api::networking_private::NetworkFilter" }
%"struct.extensions::api::networking_private::NetworkFilter" = type { i32, %"class.std::__1::unique_ptr.189", %"class.std::__1::unique_ptr.189", %"class.std::__1::unique_ptr.235" }
%"struct.extensions::api::networking_private::GetVisibleNetworks::Params" = type { i32 }
%"class.base::CheckedContiguousIterator" = type { %"class.base::Value"*, %"class.base::Value"*, %"class.base::Value"* }
%"class.logging::CheckOpResult" = type { i8* }
%"class.std::__1::vector.387" = type { %"class.std::__1::__vector_base.388" }
%"class.std::__1::__vector_base.388" = type { %"class.std::__1::unique_ptr.389"*, %"class.std::__1::unique_ptr.389"*, %"class.std::__1::__compressed_pair.395" }
%"class.std::__1::unique_ptr.389" = type { %"class.std::__1::__compressed_pair.390" }
%"class.std::__1::__compressed_pair.390" = type { %"struct.std::__1::__compressed_pair_elem.391" }
%"struct.std::__1::__compressed_pair_elem.391" = type { %"struct.extensions::api::networking_private::DeviceStateProperties"* }
%"struct.extensions::api::networking_private::DeviceStateProperties" = type { %"class.std::__1::unique_ptr.189", %"class.std::__1::unique_ptr.232", %"class.std::__1::unique_ptr.189", i32, i32, %"class.std::__1::unique_ptr.189" }
%"class.std::__1::__compressed_pair.395" = type { %"struct.std::__1::__compressed_pair_elem.396" }
%"struct.std::__1::__compressed_pair_elem.396" = type { %"class.std::__1::unique_ptr.389"* }
%"struct.extensions::api::networking_private::EnableNetworkType::Params" = type { i32 }
%"struct.extensions::api::networking_private::DisableNetworkType::Params" = type { i32 }
%"struct.extensions::api::networking_private::RequestNetworkScan::Params" = type { i32 }
%"struct.extensions::api::networking_private::StartConnect::Params" = type { %"class.std::__1::basic_string" }
%"struct.extensions::api::networking_private::StartDisconnect::Params" = type { %"class.std::__1::basic_string" }
%"struct.extensions::api::networking_private::StartActivate::Params" = type { %"class.std::__1::basic_string", %"class.std::__1::unique_ptr.198" }
%"struct.extensions::api::networking_private::GetCaptivePortalStatus::Params" = type { %"class.std::__1::basic_string" }
%"struct.extensions::api::networking_private::UnlockCellularSim::Params" = type { %"class.std::__1::basic_string", %"class.std::__1::basic_string", %"class.std::__1::unique_ptr.198" }
%"struct.extensions::api::networking_private::SetCellularSimState::Params" = type { %"class.std::__1::basic_string", %"struct.extensions::api::networking_private::CellularSimState" }
%"struct.extensions::api::networking_private::CellularSimState" = type { i8, %"class.std::__1::basic_string", %"class.std::__1::unique_ptr.198" }
%"struct.extensions::api::networking_private::SelectCellularMobileNetwork::Params" = type { %"class.std::__1::basic_string", %"class.std::__1::basic_string" }
%"struct.extensions::api::networking_private::GlobalPolicy" = type { %"class.std::__1::unique_ptr.189", %"class.std::__1::unique_ptr.189", %"class.std::__1::unique_ptr.189", %"class.std::__1::unique_ptr.256" }
%"class.std::__1::list" = type opaque
%"class.IPC::Message" = type { %"class.base::Pickle", i8, %class.scoped_refptr.469 }
%"class.base::Pickle" = type { i32 (...)**, %"struct.base::Pickle::Header"*, i64, i64, i64 }
%"struct.base::Pickle::Header" = type { i32 }
%class.scoped_refptr.469 = type { %"class.IPC::MessageAttachmentSet"* }
%"class.IPC::MessageAttachmentSet" = type opaque
%"class.std::__1::__vector_base_common" = type { i8 }
%"class.std::__1::basic_ostream<char, std::__1::char_traits<char> >::sentry" = type { i8, %"class.std::__1::basic_ostream"* }
%"class.std::__1::locale::facet" = type { %"class.std::__1::__shared_count" }
%"class.std::__1::__shared_count" = type { i32 (...)**, i64 }
%"class.std::__1::ctype" = type <{ %"class.std::__1::locale::facet", i16*, i8, [7 x i8] }>
%class.scoped_refptr.495 = type { %"class.extensions::NetworkingPrivateGetPropertiesFunction"* }
%"class.base::Location" = type { i8*, i8*, i32, i8* }
%"class.base::SingleThreadTaskRunner" = type { %"class.base::SequencedTaskRunner.base", [4 x i8] }
%"class.base::SequencedTaskRunner.base" = type { %"class.base::TaskRunner.base" }
%"class.base::TaskRunner.base" = type <{ i32 (...)**, %"class.base::RefCountedThreadSafe.497" }>
%"class.base::RefCountedThreadSafe.497" = type { %"class.base::subtle::RefCountedThreadSafeBase" }
%"class.base::SequencedTaskRunner" = type { %"class.base::TaskRunner.base", [4 x i8] }
%"class.base::TaskRunner" = type <{ i32 (...)**, %"class.base::RefCountedThreadSafe.497", [4 x i8] }>
%class.scoped_refptr.506 = type { %"class.extensions::NetworkingPrivateGetManagedPropertiesFunction"* }
%"class.std::__1::unique_ptr.172" = type { %"class.std::__1::__compressed_pair.173" }
%"class.std::__1::__compressed_pair.173" = type { %"struct.std::__1::__compressed_pair_elem.174" }
%"struct.std::__1::__compressed_pair_elem.174" = type { %"class.base::DictionaryValue"* }

$_ZNKR4absl8optionalINSt3__112basic_stringIcNS1_11char_traitsIcEENS1_9allocatorIcEEEEE8value_orIRA7_KcEES7_OT_ = comdat any

$_ZNK4base25CheckedContiguousIteratorINS_5ValueEEdeEv = comdat any

$_ZN4base25CheckedContiguousIteratorINS_5ValueEEppEv = comdat any

$_ZNK17ExtensionFunction23GetQuotaLimitHeuristicsEPNSt3__14listINS0_10unique_ptrIN10extensions19QuotaLimitHeuristicENS0_14default_deleteIS4_EEEENS0_9allocatorIS7_EEEE = comdat any

$_ZNSt3__16vectorINS_12basic_stringIcNS_11char_traitsIcEENS_9allocatorIcEEEENS4_IS6_EEE21__push_back_slow_pathIS6_EEvOT_ = comdat any

$_ZN4base25CheckedContiguousIteratorINS_5ValueEEC2EPKS1_PS1_S4_ = comdat any

$_ZZN7logging15CheckOpValueStrIPKN4base5ValueEEENSt3__19enable_ifIXaasr4base8internal23SupportsOstreamOperatorIRKT_EE5valuentsr3std11is_functionINS5_14remove_pointerIS7_E4typeEEE5valueEPcE4typeES9_ENUlRNS5_13basic_ostreamIcNS5_11char_traitsIcEEEEPKvE_8__invokeESK_SM_ = comdat any

$_ZZN7logging15CheckOpValueStrIPN4base5ValueEEENSt3__19enable_ifIXaasr4base8internal23SupportsOstreamOperatorIRKT_EE5valuentsr3std11is_functionINS4_14remove_pointerIS6_E4typeEEE5valueEPcE4typeES8_ENUlRNS4_13basic_ostreamIcNS4_11char_traitsIcEEEEPKvE_8__invokeESJ_SL_ = comdat any

$_ZNK4base25CheckedContiguousIteratorINS_5ValueEE15CheckComparableERKS2_ = comdat any

$_ZNSt3__124__put_character_sequenceIcNS_11char_traitsIcEEEERNS_13basic_ostreamIT_T0_EES7_PKS4_m = comdat any

$_ZNSt3__116__pad_and_outputIcNS_11char_traitsIcEEEENS_19ostreambuf_iteratorIT_T0_EES6_PKS4_S8_S8_RNS_8ios_baseES4_ = comdat any

$_ZN4base8internal7InvokerINS0_9BindStateIMN10extensions38NetworkingPrivateGetPropertiesFunctionEFvN4absl8optionalINS_5ValueEEENS6_INSt3__112basic_stringIcNS9_11char_traitsIcEENS9_9allocatorIcEEEEEEEJ13scoped_refptrIS4_EEEEFvS8_SG_EE7RunOnceEPNS0_13BindStateBaseEOS8_OSG_ = comdat any

$_ZN4base8internal13FunctorTraitsIMN10extensions38NetworkingPrivateGetPropertiesFunctionEFvN4absl8optionalINS_5ValueEEENS5_INSt3__112basic_stringIcNS8_11char_traitsIcEENS8_9allocatorIcEEEEEEEvE6InvokeISH_13scoped_refptrIS3_EJS7_SF_EEEvT_OT0_DpOT1_ = comdat any

$_ZN4base8internal9BindStateIMN10extensions38NetworkingPrivateGetPropertiesFunctionEFvN4absl8optionalINS_5ValueEEENS5_INSt3__112basic_stringIcNS8_11char_traitsIcEENS8_9allocatorIcEEEEEEEJ13scoped_refptrIS3_EEE7DestroyEPKNS0_13BindStateBaseE = comdat any

$_ZN7content13BrowserThread14DeleteOnThreadILNS0_2IDE0EE8DestructI17ExtensionFunctionEEvPKT_ = comdat any

$_ZN4base12DeleteHelperI17ExtensionFunctionE8DoDeleteEPKv = comdat any

$_ZN4base8internal7InvokerINS0_9BindStateIMN10extensions45NetworkingPrivateGetManagedPropertiesFunctionEFvN4absl8optionalINS_5ValueEEENS6_INSt3__112basic_stringIcNS9_11char_traitsIcEENS9_9allocatorIcEEEEEEEJ13scoped_refptrIS4_EEEEFvS8_SG_EE7RunOnceEPNS0_13BindStateBaseEOS8_OSG_ = comdat any

$_ZN4base8internal13FunctorTraitsIMN10extensions45NetworkingPrivateGetManagedPropertiesFunctionEFvN4absl8optionalINS_5ValueEEENS5_INSt3__112basic_stringIcNS8_11char_traitsIcEENS8_9allocatorIcEEEEEEEvE6InvokeISH_13scoped_refptrIS3_EJS7_SF_EEEvT_OT0_DpOT1_ = comdat any

$_ZN4base8internal9BindStateIMN10extensions45NetworkingPrivateGetManagedPropertiesFunctionEFvN4absl8optionalINS_5ValueEEENS5_INSt3__112basic_stringIcNS8_11char_traitsIcEENS8_9allocatorIcEEEEEEEJ13scoped_refptrIS3_EEE7DestroyEPKNS0_13BindStateBaseE = comdat any

$_ZN4base8internal7InvokerINS0_9BindStateIMN10extensions33NetworkingPrivateGetStateFunctionEFvNSt3__110unique_ptrINS_15DictionaryValueENS5_14default_deleteIS7_EEEEEJ13scoped_refptrIS4_EEEEFvSA_EE7RunOnceEPNS0_13BindStateBaseEOSA_ = comdat any

$_ZN4base8internal9BindStateIMN10extensions33NetworkingPrivateGetStateFunctionEFvNSt3__110unique_ptrINS_15DictionaryValueENS4_14default_deleteIS6_EEEEEJ13scoped_refptrIS3_EEE7DestroyEPKNS0_13BindStateBaseE = comdat any

$_ZN4base8internal7InvokerINS0_9BindStateIMN10extensions33NetworkingPrivateGetStateFunctionEFvRKNSt3__112basic_stringIcNS5_11char_traitsIcEENS5_9allocatorIcEEEEEJ13scoped_refptrIS4_EEEEFvSD_EE7RunOnceEPNS0_13BindStateBaseESD_ = comdat any

$_ZN4base8internal9BindStateIMN10extensions33NetworkingPrivateGetStateFunctionEFvRKNSt3__112basic_stringIcNS4_11char_traitsIcEENS4_9allocatorIcEEEEEJ13scoped_refptrIS3_EEE7DestroyEPKNS0_13BindStateBaseE = comdat any

$_ZN4base8internal7InvokerINS0_9BindStateIMN10extensions38NetworkingPrivateSetPropertiesFunctionEFvvEJ13scoped_refptrIS4_EEEEFvvEE7RunOnceEPNS0_13BindStateBaseE = comdat any

$_ZN4base8internal9BindStateIMN10extensions38NetworkingPrivateSetPropertiesFunctionEFvvEJ13scoped_refptrIS3_EEE7DestroyEPKNS0_13BindStateBaseE = comdat any

$_ZN4base8internal7InvokerINS0_9BindStateIMN10extensions38NetworkingPrivateSetPropertiesFunctionEFvRKNSt3__112basic_stringIcNS5_11char_traitsIcEENS5_9allocatorIcEEEEEJ13scoped_refptrIS4_EEEEFvSD_EE7RunOnceEPNS0_13BindStateBaseESD_ = comdat any

$_ZN4base8internal9BindStateIMN10extensions38NetworkingPrivateSetPropertiesFunctionEFvRKNSt3__112basic_stringIcNS4_11char_traitsIcEENS4_9allocatorIcEEEEEJ13scoped_refptrIS3_EEE7DestroyEPKNS0_13BindStateBaseE = comdat any

$_ZN4base8internal7InvokerINS0_9BindStateIMN10extensions38NetworkingPrivateCreateNetworkFunctionEFvRKNSt3__112basic_stringIcNS5_11char_traitsIcEENS5_9allocatorIcEEEEEJ13scoped_refptrIS4_EEEEFvSD_EE7RunOnceEPNS0_13BindStateBaseESD_ = comdat any

$_ZN4base8internal9BindStateIMN10extensions38NetworkingPrivateCreateNetworkFunctionEFvRKNSt3__112basic_stringIcNS4_11char_traitsIcEENS4_9allocatorIcEEEEEJ13scoped_refptrIS3_EEE7DestroyEPKNS0_13BindStateBaseE = comdat any

$_ZN4base8internal7InvokerINS0_9BindStateIMN10extensions38NetworkingPrivateForgetNetworkFunctionEFvvEJ13scoped_refptrIS4_EEEEFvvEE7RunOnceEPNS0_13BindStateBaseE = comdat any

$_ZN4base8internal9BindStateIMN10extensions38NetworkingPrivateForgetNetworkFunctionEFvvEJ13scoped_refptrIS3_EEE7DestroyEPKNS0_13BindStateBaseE = comdat any

$_ZN4base8internal7InvokerINS0_9BindStateIMN10extensions38NetworkingPrivateForgetNetworkFunctionEFvRKNSt3__112basic_stringIcNS5_11char_traitsIcEENS5_9allocatorIcEEEEEJ13scoped_refptrIS4_EEEEFvSD_EE7RunOnceEPNS0_13BindStateBaseESD_ = comdat any

$_ZN4base8internal9BindStateIMN10extensions38NetworkingPrivateForgetNetworkFunctionEFvRKNSt3__112basic_stringIcNS4_11char_traitsIcEENS4_9allocatorIcEEEEEJ13scoped_refptrIS3_EEE7DestroyEPKNS0_13BindStateBaseE = comdat any

$_ZN4base8internal7InvokerINS0_9BindStateIMN10extensions36NetworkingPrivateGetNetworksFunctionEFvNSt3__110unique_ptrINS_9ListValueENS5_14default_deleteIS7_EEEEEJ13scoped_refptrIS4_EEEEFvSA_EE7RunOnceEPNS0_13BindStateBaseEOSA_ = comdat any

$_ZN4base8internal9BindStateIMN10extensions36NetworkingPrivateGetNetworksFunctionEFvNSt3__110unique_ptrINS_9ListValueENS4_14default_deleteIS6_EEEEEJ13scoped_refptrIS3_EEE7DestroyEPKNS0_13BindStateBaseE = comdat any

$_ZN4base8internal7InvokerINS0_9BindStateIMN10extensions36NetworkingPrivateGetNetworksFunctionEFvRKNSt3__112basic_stringIcNS5_11char_traitsIcEENS5_9allocatorIcEEEEEJ13scoped_refptrIS4_EEEEFvSD_EE7RunOnceEPNS0_13BindStateBaseESD_ = comdat any

$_ZN4base8internal9BindStateIMN10extensions36NetworkingPrivateGetNetworksFunctionEFvRKNSt3__112basic_stringIcNS4_11char_traitsIcEENS4_9allocatorIcEEEEEJ13scoped_refptrIS3_EEE7DestroyEPKNS0_13BindStateBaseE = comdat any

$_ZN4base8internal7InvokerINS0_9BindStateIMN10extensions43NetworkingPrivateGetVisibleNetworksFunctionEFvNSt3__110unique_ptrINS_9ListValueENS5_14default_deleteIS7_EEEEEJ13scoped_refptrIS4_EEEEFvSA_EE7RunOnceEPNS0_13BindStateBaseEOSA_ = comdat any

$_ZN4base8internal9BindStateIMN10extensions43NetworkingPrivateGetVisibleNetworksFunctionEFvNSt3__110unique_ptrINS_9ListValueENS4_14default_deleteIS6_EEEEEJ13scoped_refptrIS3_EEE7DestroyEPKNS0_13BindStateBaseE = comdat any

$_ZN4base8internal7InvokerINS0_9BindStateIMN10extensions43NetworkingPrivateGetVisibleNetworksFunctionEFvRKNSt3__112basic_stringIcNS5_11char_traitsIcEENS5_9allocatorIcEEEEEJ13scoped_refptrIS4_EEEEFvSD_EE7RunOnceEPNS0_13BindStateBaseESD_ = comdat any

$_ZN4base8internal9BindStateIMN10extensions43NetworkingPrivateGetVisibleNetworksFunctionEFvRKNSt3__112basic_stringIcNS4_11char_traitsIcEENS4_9allocatorIcEEEEEJ13scoped_refptrIS3_EEE7DestroyEPKNS0_13BindStateBaseE = comdat any

$_ZN4base8internal7InvokerINS0_9BindStateIMN10extensions37NetworkingPrivateStartConnectFunctionEFvvEJ13scoped_refptrIS4_EEEEFvvEE7RunOnceEPNS0_13BindStateBaseE = comdat any

$_ZN4base8internal9BindStateIMN10extensions37NetworkingPrivateStartConnectFunctionEFvvEJ13scoped_refptrIS3_EEE7DestroyEPKNS0_13BindStateBaseE = comdat any

$_ZN4base8internal7InvokerINS0_9BindStateIMN10extensions37NetworkingPrivateStartConnectFunctionEFvRKNSt3__112basic_stringIcNS5_11char_traitsIcEENS5_9allocatorIcEEEESD_EJ13scoped_refptrIS4_ESB_EEEFvSD_EE7RunOnceEPNS0_13BindStateBaseESD_ = comdat any

$_ZN4base8internal9BindStateIMN10extensions37NetworkingPrivateStartConnectFunctionEFvRKNSt3__112basic_stringIcNS4_11char_traitsIcEENS4_9allocatorIcEEEESC_EJ13scoped_refptrIS3_ESA_EE7DestroyEPKNS0_13BindStateBaseE = comdat any

$_ZN4base8internal7InvokerINS0_9BindStateIMN10extensions40NetworkingPrivateStartDisconnectFunctionEFvvEJ13scoped_refptrIS4_EEEEFvvEE7RunOnceEPNS0_13BindStateBaseE = comdat any

$_ZN4base8internal9BindStateIMN10extensions40NetworkingPrivateStartDisconnectFunctionEFvvEJ13scoped_refptrIS3_EEE7DestroyEPKNS0_13BindStateBaseE = comdat any

$_ZN4base8internal7InvokerINS0_9BindStateIMN10extensions40NetworkingPrivateStartDisconnectFunctionEFvRKNSt3__112basic_stringIcNS5_11char_traitsIcEENS5_9allocatorIcEEEEEJ13scoped_refptrIS4_EEEEFvSD_EE7RunOnceEPNS0_13BindStateBaseESD_ = comdat any

$_ZN4base8internal9BindStateIMN10extensions40NetworkingPrivateStartDisconnectFunctionEFvRKNSt3__112basic_stringIcNS4_11char_traitsIcEENS4_9allocatorIcEEEEEJ13scoped_refptrIS3_EEE7DestroyEPKNS0_13BindStateBaseE = comdat any

$_ZN4base8internal7InvokerINS0_9BindStateIMN10extensions38NetworkingPrivateStartActivateFunctionEFvvEJ13scoped_refptrIS4_EEEEFvvEE7RunOnceEPNS0_13BindStateBaseE = comdat any

$_ZN4base8internal9BindStateIMN10extensions38NetworkingPrivateStartActivateFunctionEFvvEJ13scoped_refptrIS3_EEE7DestroyEPKNS0_13BindStateBaseE = comdat any

$_ZN4base8internal7InvokerINS0_9BindStateIMN10extensions38NetworkingPrivateStartActivateFunctionEFvRKNSt3__112basic_stringIcNS5_11char_traitsIcEENS5_9allocatorIcEEEEEJ13scoped_refptrIS4_EEEEFvSD_EE7RunOnceEPNS0_13BindStateBaseESD_ = comdat any

$_ZN4base8internal9BindStateIMN10extensions38NetworkingPrivateStartActivateFunctionEFvRKNSt3__112basic_stringIcNS4_11char_traitsIcEENS4_9allocatorIcEEEEEJ13scoped_refptrIS3_EEE7DestroyEPKNS0_13BindStateBaseE = comdat any

$_ZN4base8internal7InvokerINS0_9BindStateIMN10extensions47NetworkingPrivateGetCaptivePortalStatusFunctionEFvRKNSt3__112basic_stringIcNS5_11char_traitsIcEENS5_9allocatorIcEEEEEJ13scoped_refptrIS4_EEEEFvSD_EE7RunOnceEPNS0_13BindStateBaseESD_ = comdat any

$_ZN4base8internal9BindStateIMN10extensions47NetworkingPrivateGetCaptivePortalStatusFunctionEFvRKNSt3__112basic_stringIcNS4_11char_traitsIcEENS4_9allocatorIcEEEEEJ13scoped_refptrIS3_EEE7DestroyEPKNS0_13BindStateBaseE = comdat any

$_ZN4base8internal7InvokerINS0_9BindStateIMN10extensions42NetworkingPrivateUnlockCellularSimFunctionEFvvEJ13scoped_refptrIS4_EEEEFvvEE7RunOnceEPNS0_13BindStateBaseE = comdat any

$_ZN4base8internal9BindStateIMN10extensions42NetworkingPrivateUnlockCellularSimFunctionEFvvEJ13scoped_refptrIS3_EEE7DestroyEPKNS0_13BindStateBaseE = comdat any

$_ZN4base8internal7InvokerINS0_9BindStateIMN10extensions42NetworkingPrivateUnlockCellularSimFunctionEFvRKNSt3__112basic_stringIcNS5_11char_traitsIcEENS5_9allocatorIcEEEEEJ13scoped_refptrIS4_EEEEFvSD_EE7RunOnceEPNS0_13BindStateBaseESD_ = comdat any

$_ZN4base8internal9BindStateIMN10extensions42NetworkingPrivateUnlockCellularSimFunctionEFvRKNSt3__112basic_stringIcNS4_11char_traitsIcEENS4_9allocatorIcEEEEEJ13scoped_refptrIS3_EEE7DestroyEPKNS0_13BindStateBaseE = comdat any

$_ZN4base8internal7InvokerINS0_9BindStateIMN10extensions44NetworkingPrivateSetCellularSimStateFunctionEFvvEJ13scoped_refptrIS4_EEEEFvvEE7RunOnceEPNS0_13BindStateBaseE = comdat any

$_ZN4base8internal9BindStateIMN10extensions44NetworkingPrivateSetCellularSimStateFunctionEFvvEJ13scoped_refptrIS3_EEE7DestroyEPKNS0_13BindStateBaseE = comdat any

$_ZN4base8internal7InvokerINS0_9BindStateIMN10extensions44NetworkingPrivateSetCellularSimStateFunctionEFvRKNSt3__112basic_stringIcNS5_11char_traitsIcEENS5_9allocatorIcEEEEEJ13scoped_refptrIS4_EEEEFvSD_EE7RunOnceEPNS0_13BindStateBaseESD_ = comdat any

$_ZN4base8internal9BindStateIMN10extensions44NetworkingPrivateSetCellularSimStateFunctionEFvRKNSt3__112basic_stringIcNS4_11char_traitsIcEENS4_9allocatorIcEEEEEJ13scoped_refptrIS3_EEE7DestroyEPKNS0_13BindStateBaseE = comdat any

$_ZN4base8internal7InvokerINS0_9BindStateIMN10extensions52NetworkingPrivateSelectCellularMobileNetworkFunctionEFvvEJ13scoped_refptrIS4_EEEEFvvEE7RunOnceEPNS0_13BindStateBaseE = comdat any

$_ZN4base8internal9BindStateIMN10extensions52NetworkingPrivateSelectCellularMobileNetworkFunctionEFvvEJ13scoped_refptrIS3_EEE7DestroyEPKNS0_13BindStateBaseE = comdat any

$_ZN4base8internal7InvokerINS0_9BindStateIMN10extensions52NetworkingPrivateSelectCellularMobileNetworkFunctionEFvRKNSt3__112basic_stringIcNS5_11char_traitsIcEENS5_9allocatorIcEEEEEJ13scoped_refptrIS4_EEEEFvSD_EE7RunOnceEPNS0_13BindStateBaseESD_ = comdat any

$_ZN4base8internal9BindStateIMN10extensions52NetworkingPrivateSelectCellularMobileNetworkFunctionEFvRKNSt3__112basic_stringIcNS4_11char_traitsIcEENS4_9allocatorIcEEEEEJ13scoped_refptrIS3_EEE7DestroyEPKNS0_13BindStateBaseE = comdat any

@_ZN10extensions18networking_private26kErrorAccessToSharedConfigE = hidden local_unnamed_addr constant [31 x i8] c"Error.CannotChangeSharedConfig\00", align 16
@_ZN10extensions18networking_private22kErrorInvalidArgumentsE = hidden local_unnamed_addr constant [23 x i8] c"Error.InvalidArguments\00", align 16
@_ZN10extensions18networking_private24kErrorInvalidNetworkGuidE = hidden local_unnamed_addr constant [25 x i8] c"Error.InvalidNetworkGuid\00", align 16
@_ZN10extensions18networking_private29kErrorInvalidNetworkOperationE = hidden local_unnamed_addr constant [30 x i8] c"Error.InvalidNetworkOperation\00", align 16
@_ZN10extensions18networking_private24kErrorNetworkUnavailableE = hidden local_unnamed_addr constant [25 x i8] c"Error.NetworkUnavailable\00", align 16
@_ZN10extensions18networking_private18kErrorNotSupportedE = hidden local_unnamed_addr constant [19 x i8] c"Error.NotSupported\00", align 16
@_ZN10extensions18networking_private22kErrorPolicyControlledE = hidden local_unnamed_addr constant [23 x i8] c"Error.PolicyControlled\00", align 16
@_ZN10extensions18networking_private15kErrorSimLockedE = hidden local_unnamed_addr constant [16 x i8] c"Error.SimLocked\00", align 16
@_ZN10extensions18networking_private25kErrorUnconfiguredNetworkE = hidden local_unnamed_addr constant [26 x i8] c"Error.UnconfiguredNetwork\00", align 16
@.str = private unnamed_addr constant [7 x i8] c"Failed\00", align 1
@_ZN10extensions12_GLOBAL__N_117kPrivateOnlyErrorE = internal unnamed_addr constant [39 x i8] c"Requires networkingPrivate API access.\00", align 16
@_ZN3onc12network_type9kEthernetE = external constant [0 x i8], align 1
@_ZN3onc12network_type5kWiFiE = external constant [0 x i8], align 1
@_ZN3onc12network_type9kCellularE = external constant [0 x i8], align 1
@.str.1 = private unnamed_addr constant [74 x i8] c"../../extensions/browser/api/networking_private/networking_private_api.cc\00", align 1
@.str.2 = private unnamed_addr constant [37 x i8] c"networkingPrivate: Unexpected type: \00", align 1
@_ZTVN10extensions38NetworkingPrivateGetPropertiesFunctionE = hidden unnamed_addr constant { [15 x i8*] } { [15 x i8*] [i8* null, i8* null, i8* bitcast (i1 (%class.ExtensionFunction*, %"class.std::__1::basic_string"*)* @_ZN17ExtensionFunction16PreRunValidationEPNSt3__112basic_stringIcNS0_11char_traitsIcEENS0_9allocatorIcEEEE to i8*), i8* bitcast (%"class.ExtensionFunction::ResponseActionObject"* (%"class.extensions::NetworkingPrivateGetPropertiesFunction"*)* @_ZN10extensions38NetworkingPrivateGetPropertiesFunction3RunEv to i8*), i8* bitcast (i1 (%class.ExtensionFunction*)* @_ZNK17ExtensionFunction23ShouldSkipQuotaLimitingEv to i8*), i8* bitcast (void (%class.ExtensionFunction*, %"class.std::__1::list"*)* @_ZNK17ExtensionFunction23GetQuotaLimitHeuristicsEPNSt3__14listINS0_10unique_ptrIN10extensions19QuotaLimitHeuristicENS0_14default_deleteIS4_EEEENS0_9allocatorIS7_EEEE to i8*), i8* bitcast (void (%class.ExtensionFunction*, %"class.std::__1::basic_string"*)* @_ZN17ExtensionFunction15OnQuotaExceededENSt3__112basic_stringIcNS0_11char_traitsIcEENS0_9allocatorIcEEEE to i8*), i8* bitcast (%"class.std::__1::basic_string"* (%class.ExtensionFunction*)* @_ZNK17ExtensionFunction8GetErrorEv to i8*), i8* bitcast (void (%class.ExtensionFunction*)* @_ZN17ExtensionFunction13SetBadMessageEv to i8*), i8* bitcast (void (%class.ExtensionFunction*, i8*)* @_ZN17ExtensionFunction7SetNameEPKc to i8*), i8* bitcast (i1 (%class.ExtensionFunction*, %"class.IPC::Message"*)* @_ZN17ExtensionFunction17OnMessageReceivedERKN3IPC7MessageE to i8*), i8* bitcast (void (%class.ExtensionFunction*)* @_ZN17ExtensionFunction18OnServiceWorkerAckEv to i8*), i8* bitcast (void (%"class.extensions::NetworkingPrivateGetPropertiesFunction"*)* @_ZN10extensions38NetworkingPrivateGetPropertiesFunctionD2Ev to i8*), i8* bitcast (void (%"class.extensions::NetworkingPrivateGetPropertiesFunction"*)* @_ZN10extensions38NetworkingPrivateGetPropertiesFunctionD0Ev to i8*), i8* bitcast (void (%class.ExtensionFunction*)* @_ZN17ExtensionFunction11OnRespondedEv to i8*)] }, align 8
@_ZTVN10extensions45NetworkingPrivateGetManagedPropertiesFunctionE = hidden unnamed_addr constant { [15 x i8*] } { [15 x i8*] [i8* null, i8* null, i8* bitcast (i1 (%class.ExtensionFunction*, %"class.std::__1::basic_string"*)* @_ZN17ExtensionFunction16PreRunValidationEPNSt3__112basic_stringIcNS0_11char_traitsIcEENS0_9allocatorIcEEEE to i8*), i8* bitcast (%"class.ExtensionFunction::ResponseActionObject"* (%"class.extensions::NetworkingPrivateGetManagedPropertiesFunction"*)* @_ZN10extensions45NetworkingPrivateGetManagedPropertiesFunction3RunEv to i8*), i8* bitcast (i1 (%class.ExtensionFunction*)* @_ZNK17ExtensionFunction23ShouldSkipQuotaLimitingEv to i8*), i8* bitcast (void (%class.ExtensionFunction*, %"class.std::__1::list"*)* @_ZNK17ExtensionFunction23GetQuotaLimitHeuristicsEPNSt3__14listINS0_10unique_ptrIN10extensions19QuotaLimitHeuristicENS0_14default_deleteIS4_EEEENS0_9allocatorIS7_EEEE to i8*), i8* bitcast (void (%class.ExtensionFunction*, %"class.std::__1::basic_string"*)* @_ZN17ExtensionFunction15OnQuotaExceededENSt3__112basic_stringIcNS0_11char_traitsIcEENS0_9allocatorIcEEEE to i8*), i8* bitcast (%"class.std::__1::basic_string"* (%class.ExtensionFunction*)* @_ZNK17ExtensionFunction8GetErrorEv to i8*), i8* bitcast (void (%class.ExtensionFunction*)* @_ZN17ExtensionFunction13SetBadMessageEv to i8*), i8* bitcast (void (%class.ExtensionFunction*, i8*)* @_ZN17ExtensionFunction7SetNameEPKc to i8*), i8* bitcast (i1 (%class.ExtensionFunction*, %"class.IPC::Message"*)* @_ZN17ExtensionFunction17OnMessageReceivedERKN3IPC7MessageE to i8*), i8* bitcast (void (%class.ExtensionFunction*)* @_ZN17ExtensionFunction18OnServiceWorkerAckEv to i8*), i8* bitcast (void (%"class.extensions::NetworkingPrivateGetManagedPropertiesFunction"*)* @_ZN10extensions45NetworkingPrivateGetManagedPropertiesFunctionD2Ev to i8*), i8* bitcast (void (%"class.extensions::NetworkingPrivateGetManagedPropertiesFunction"*)* @_ZN10extensions45NetworkingPrivateGetManagedPropertiesFunctionD0Ev to i8*), i8* bitcast (void (%class.ExtensionFunction*)* @_ZN17ExtensionFunction11OnRespondedEv to i8*)] }, align 8
@_ZTVN10extensions33NetworkingPrivateGetStateFunctionE = hidden unnamed_addr constant { [15 x i8*] } { [15 x i8*] [i8* null, i8* null, i8* bitcast (i1 (%class.ExtensionFunction*, %"class.std::__1::basic_string"*)* @_ZN17ExtensionFunction16PreRunValidationEPNSt3__112basic_stringIcNS0_11char_traitsIcEENS0_9allocatorIcEEEE to i8*), i8* bitcast (%"class.ExtensionFunction::ResponseActionObject"* (%"class.extensions::NetworkingPrivateGetStateFunction"*)* @_ZN10extensions33NetworkingPrivateGetStateFunction3RunEv to i8*), i8* bitcast (i1 (%class.ExtensionFunction*)* @_ZNK17ExtensionFunction23ShouldSkipQuotaLimitingEv to i8*), i8* bitcast (void (%class.ExtensionFunction*, %"class.std::__1::list"*)* @_ZNK17ExtensionFunction23GetQuotaLimitHeuristicsEPNSt3__14listINS0_10unique_ptrIN10extensions19QuotaLimitHeuristicENS0_14default_deleteIS4_EEEENS0_9allocatorIS7_EEEE to i8*), i8* bitcast (void (%class.ExtensionFunction*, %"class.std::__1::basic_string"*)* @_ZN17ExtensionFunction15OnQuotaExceededENSt3__112basic_stringIcNS0_11char_traitsIcEENS0_9allocatorIcEEEE to i8*), i8* bitcast (%"class.std::__1::basic_string"* (%class.ExtensionFunction*)* @_ZNK17ExtensionFunction8GetErrorEv to i8*), i8* bitcast (void (%class.ExtensionFunction*)* @_ZN17ExtensionFunction13SetBadMessageEv to i8*), i8* bitcast (void (%class.ExtensionFunction*, i8*)* @_ZN17ExtensionFunction7SetNameEPKc to i8*), i8* bitcast (i1 (%class.ExtensionFunction*, %"class.IPC::Message"*)* @_ZN17ExtensionFunction17OnMessageReceivedERKN3IPC7MessageE to i8*), i8* bitcast (void (%class.ExtensionFunction*)* @_ZN17ExtensionFunction18OnServiceWorkerAckEv to i8*), i8* bitcast (void (%"class.extensions::NetworkingPrivateGetStateFunction"*)* @_ZN10extensions33NetworkingPrivateGetStateFunctionD2Ev to i8*), i8* bitcast (void (%"class.extensions::NetworkingPrivateGetStateFunction"*)* @_ZN10extensions33NetworkingPrivateGetStateFunctionD0Ev to i8*), i8* bitcast (void (%class.ExtensionFunction*)* @_ZN17ExtensionFunction11OnRespondedEv to i8*)] }, align 8
@_ZTVN10extensions38NetworkingPrivateSetPropertiesFunctionE = hidden unnamed_addr constant { [15 x i8*] } { [15 x i8*] [i8* null, i8* null, i8* bitcast (i1 (%class.ExtensionFunction*, %"class.std::__1::basic_string"*)* @_ZN17ExtensionFunction16PreRunValidationEPNSt3__112basic_stringIcNS0_11char_traitsIcEENS0_9allocatorIcEEEE to i8*), i8* bitcast (%"class.ExtensionFunction::ResponseActionObject"* (%"class.extensions::NetworkingPrivateSetPropertiesFunction"*)* @_ZN10extensions38NetworkingPrivateSetPropertiesFunction3RunEv to i8*), i8* bitcast (i1 (%class.ExtensionFunction*)* @_ZNK17ExtensionFunction23ShouldSkipQuotaLimitingEv to i8*), i8* bitcast (void (%class.ExtensionFunction*, %"class.std::__1::list"*)* @_ZNK17ExtensionFunction23GetQuotaLimitHeuristicsEPNSt3__14listINS0_10unique_ptrIN10extensions19QuotaLimitHeuristicENS0_14default_deleteIS4_EEEENS0_9allocatorIS7_EEEE to i8*), i8* bitcast (void (%class.ExtensionFunction*, %"class.std::__1::basic_string"*)* @_ZN17ExtensionFunction15OnQuotaExceededENSt3__112basic_stringIcNS0_11char_traitsIcEENS0_9allocatorIcEEEE to i8*), i8* bitcast (%"class.std::__1::basic_string"* (%class.ExtensionFunction*)* @_ZNK17ExtensionFunction8GetErrorEv to i8*), i8* bitcast (void (%class.ExtensionFunction*)* @_ZN17ExtensionFunction13SetBadMessageEv to i8*), i8* bitcast (void (%class.ExtensionFunction*, i8*)* @_ZN17ExtensionFunction7SetNameEPKc to i8*), i8* bitcast (i1 (%class.ExtensionFunction*, %"class.IPC::Message"*)* @_ZN17ExtensionFunction17OnMessageReceivedERKN3IPC7MessageE to i8*), i8* bitcast (void (%class.ExtensionFunction*)* @_ZN17ExtensionFunction18OnServiceWorkerAckEv to i8*), i8* bitcast (void (%"class.extensions::NetworkingPrivateSetPropertiesFunction"*)* @_ZN10extensions38NetworkingPrivateSetPropertiesFunctionD2Ev to i8*), i8* bitcast (void (%"class.extensions::NetworkingPrivateSetPropertiesFunction"*)* @_ZN10extensions38NetworkingPrivateSetPropertiesFunctionD0Ev to i8*), i8* bitcast (void (%class.ExtensionFunction*)* @_ZN17ExtensionFunction11OnRespondedEv to i8*)] }, align 8
@_ZTVN10extensions38NetworkingPrivateCreateNetworkFunctionE = hidden unnamed_addr constant { [15 x i8*] } { [15 x i8*] [i8* null, i8* null, i8* bitcast (i1 (%class.ExtensionFunction*, %"class.std::__1::basic_string"*)* @_ZN17ExtensionFunction16PreRunValidationEPNSt3__112basic_stringIcNS0_11char_traitsIcEENS0_9allocatorIcEEEE to i8*), i8* bitcast (%"class.ExtensionFunction::ResponseActionObject"* (%"class.extensions::NetworkingPrivateCreateNetworkFunction"*)* @_ZN10extensions38NetworkingPrivateCreateNetworkFunction3RunEv to i8*), i8* bitcast (i1 (%class.ExtensionFunction*)* @_ZNK17ExtensionFunction23ShouldSkipQuotaLimitingEv to i8*), i8* bitcast (void (%class.ExtensionFunction*, %"class.std::__1::list"*)* @_ZNK17ExtensionFunction23GetQuotaLimitHeuristicsEPNSt3__14listINS0_10unique_ptrIN10extensions19QuotaLimitHeuristicENS0_14default_deleteIS4_EEEENS0_9allocatorIS7_EEEE to i8*), i8* bitcast (void (%class.ExtensionFunction*, %"class.std::__1::basic_string"*)* @_ZN17ExtensionFunction15OnQuotaExceededENSt3__112basic_stringIcNS0_11char_traitsIcEENS0_9allocatorIcEEEE to i8*), i8* bitcast (%"class.std::__1::basic_string"* (%class.ExtensionFunction*)* @_ZNK17ExtensionFunction8GetErrorEv to i8*), i8* bitcast (void (%class.ExtensionFunction*)* @_ZN17ExtensionFunction13SetBadMessageEv to i8*), i8* bitcast (void (%class.ExtensionFunction*, i8*)* @_ZN17ExtensionFunction7SetNameEPKc to i8*), i8* bitcast (i1 (%class.ExtensionFunction*, %"class.IPC::Message"*)* @_ZN17ExtensionFunction17OnMessageReceivedERKN3IPC7MessageE to i8*), i8* bitcast (void (%class.ExtensionFunction*)* @_ZN17ExtensionFunction18OnServiceWorkerAckEv to i8*), i8* bitcast (void (%"class.extensions::NetworkingPrivateCreateNetworkFunction"*)* @_ZN10extensions38NetworkingPrivateCreateNetworkFunctionD2Ev to i8*), i8* bitcast (void (%"class.extensions::NetworkingPrivateCreateNetworkFunction"*)* @_ZN10extensions38NetworkingPrivateCreateNetworkFunctionD0Ev to i8*), i8* bitcast (void (%class.ExtensionFunction*)* @_ZN17ExtensionFunction11OnRespondedEv to i8*)] }, align 8
@_ZTVN10extensions38NetworkingPrivateForgetNetworkFunctionE = hidden unnamed_addr constant { [15 x i8*] } { [15 x i8*] [i8* null, i8* null, i8* bitcast (i1 (%class.ExtensionFunction*, %"class.std::__1::basic_string"*)* @_ZN17ExtensionFunction16PreRunValidationEPNSt3__112basic_stringIcNS0_11char_traitsIcEENS0_9allocatorIcEEEE to i8*), i8* bitcast (%"class.ExtensionFunction::ResponseActionObject"* (%"class.extensions::NetworkingPrivateForgetNetworkFunction"*)* @_ZN10extensions38NetworkingPrivateForgetNetworkFunction3RunEv to i8*), i8* bitcast (i1 (%class.ExtensionFunction*)* @_ZNK17ExtensionFunction23ShouldSkipQuotaLimitingEv to i8*), i8* bitcast (void (%class.ExtensionFunction*, %"class.std::__1::list"*)* @_ZNK17ExtensionFunction23GetQuotaLimitHeuristicsEPNSt3__14listINS0_10unique_ptrIN10extensions19QuotaLimitHeuristicENS0_14default_deleteIS4_EEEENS0_9allocatorIS7_EEEE to i8*), i8* bitcast (void (%class.ExtensionFunction*, %"class.std::__1::basic_string"*)* @_ZN17ExtensionFunction15OnQuotaExceededENSt3__112basic_stringIcNS0_11char_traitsIcEENS0_9allocatorIcEEEE to i8*), i8* bitcast (%"class.std::__1::basic_string"* (%class.ExtensionFunction*)* @_ZNK17ExtensionFunction8GetErrorEv to i8*), i8* bitcast (void (%class.ExtensionFunction*)* @_ZN17ExtensionFunction13SetBadMessageEv to i8*), i8* bitcast (void (%class.ExtensionFunction*, i8*)* @_ZN17ExtensionFunction7SetNameEPKc to i8*), i8* bitcast (i1 (%class.ExtensionFunction*, %"class.IPC::Message"*)* @_ZN17ExtensionFunction17OnMessageReceivedERKN3IPC7MessageE to i8*), i8* bitcast (void (%class.ExtensionFunction*)* @_ZN17ExtensionFunction18OnServiceWorkerAckEv to i8*), i8* bitcast (void (%"class.extensions::NetworkingPrivateForgetNetworkFunction"*)* @_ZN10extensions38NetworkingPrivateForgetNetworkFunctionD2Ev to i8*), i8* bitcast (void (%"class.extensions::NetworkingPrivateForgetNetworkFunction"*)* @_ZN10extensions38NetworkingPrivateForgetNetworkFunctionD0Ev to i8*), i8* bitcast (void (%class.ExtensionFunction*)* @_ZN17ExtensionFunction11OnRespondedEv to i8*)] }, align 8
@_ZTVN10extensions36NetworkingPrivateGetNetworksFunctionE = hidden unnamed_addr constant { [15 x i8*] } { [15 x i8*] [i8* null, i8* null, i8* bitcast (i1 (%class.ExtensionFunction*, %"class.std::__1::basic_string"*)* @_ZN17ExtensionFunction16PreRunValidationEPNSt3__112basic_stringIcNS0_11char_traitsIcEENS0_9allocatorIcEEEE to i8*), i8* bitcast (%"class.ExtensionFunction::ResponseActionObject"* (%"class.extensions::NetworkingPrivateGetNetworksFunction"*)* @_ZN10extensions36NetworkingPrivateGetNetworksFunction3RunEv to i8*), i8* bitcast (i1 (%class.ExtensionFunction*)* @_ZNK17ExtensionFunction23ShouldSkipQuotaLimitingEv to i8*), i8* bitcast (void (%class.ExtensionFunction*, %"class.std::__1::list"*)* @_ZNK17ExtensionFunction23GetQuotaLimitHeuristicsEPNSt3__14listINS0_10unique_ptrIN10extensions19QuotaLimitHeuristicENS0_14default_deleteIS4_EEEENS0_9allocatorIS7_EEEE to i8*), i8* bitcast (void (%class.ExtensionFunction*, %"class.std::__1::basic_string"*)* @_ZN17ExtensionFunction15OnQuotaExceededENSt3__112basic_stringIcNS0_11char_traitsIcEENS0_9allocatorIcEEEE to i8*), i8* bitcast (%"class.std::__1::basic_string"* (%class.ExtensionFunction*)* @_ZNK17ExtensionFunction8GetErrorEv to i8*), i8* bitcast (void (%class.ExtensionFunction*)* @_ZN17ExtensionFunction13SetBadMessageEv to i8*), i8* bitcast (void (%class.ExtensionFunction*, i8*)* @_ZN17ExtensionFunction7SetNameEPKc to i8*), i8* bitcast (i1 (%class.ExtensionFunction*, %"class.IPC::Message"*)* @_ZN17ExtensionFunction17OnMessageReceivedERKN3IPC7MessageE to i8*), i8* bitcast (void (%class.ExtensionFunction*)* @_ZN17ExtensionFunction18OnServiceWorkerAckEv to i8*), i8* bitcast (void (%"class.extensions::NetworkingPrivateGetNetworksFunction"*)* @_ZN10extensions36NetworkingPrivateGetNetworksFunctionD2Ev to i8*), i8* bitcast (void (%"class.extensions::NetworkingPrivateGetNetworksFunction"*)* @_ZN10extensions36NetworkingPrivateGetNetworksFunctionD0Ev to i8*), i8* bitcast (void (%class.ExtensionFunction*)* @_ZN17ExtensionFunction11OnRespondedEv to i8*)] }, align 8
@_ZTVN10extensions43NetworkingPrivateGetVisibleNetworksFunctionE = hidden unnamed_addr constant { [15 x i8*] } { [15 x i8*] [i8* null, i8* null, i8* bitcast (i1 (%class.ExtensionFunction*, %"class.std::__1::basic_string"*)* @_ZN17ExtensionFunction16PreRunValidationEPNSt3__112basic_stringIcNS0_11char_traitsIcEENS0_9allocatorIcEEEE to i8*), i8* bitcast (%"class.ExtensionFunction::ResponseActionObject"* (%"class.extensions::NetworkingPrivateGetVisibleNetworksFunction"*)* @_ZN10extensions43NetworkingPrivateGetVisibleNetworksFunction3RunEv to i8*), i8* bitcast (i1 (%class.ExtensionFunction*)* @_ZNK17ExtensionFunction23ShouldSkipQuotaLimitingEv to i8*), i8* bitcast (void (%class.ExtensionFunction*, %"class.std::__1::list"*)* @_ZNK17ExtensionFunction23GetQuotaLimitHeuristicsEPNSt3__14listINS0_10unique_ptrIN10extensions19QuotaLimitHeuristicENS0_14default_deleteIS4_EEEENS0_9allocatorIS7_EEEE to i8*), i8* bitcast (void (%class.ExtensionFunction*, %"class.std::__1::basic_string"*)* @_ZN17ExtensionFunction15OnQuotaExceededENSt3__112basic_stringIcNS0_11char_traitsIcEENS0_9allocatorIcEEEE to i8*), i8* bitcast (%"class.std::__1::basic_string"* (%class.ExtensionFunction*)* @_ZNK17ExtensionFunction8GetErrorEv to i8*), i8* bitcast (void (%class.ExtensionFunction*)* @_ZN17ExtensionFunction13SetBadMessageEv to i8*), i8* bitcast (void (%class.ExtensionFunction*, i8*)* @_ZN17ExtensionFunction7SetNameEPKc to i8*), i8* bitcast (i1 (%class.ExtensionFunction*, %"class.IPC::Message"*)* @_ZN17ExtensionFunction17OnMessageReceivedERKN3IPC7MessageE to i8*), i8* bitcast (void (%class.ExtensionFunction*)* @_ZN17ExtensionFunction18OnServiceWorkerAckEv to i8*), i8* bitcast (void (%"class.extensions::NetworkingPrivateGetVisibleNetworksFunction"*)* @_ZN10extensions43NetworkingPrivateGetVisibleNetworksFunctionD2Ev to i8*), i8* bitcast (void (%"class.extensions::NetworkingPrivateGetVisibleNetworksFunction"*)* @_ZN10extensions43NetworkingPrivateGetVisibleNetworksFunctionD0Ev to i8*), i8* bitcast (void (%class.ExtensionFunction*)* @_ZN17ExtensionFunction11OnRespondedEv to i8*)] }, align 8
@_ZTVN10extensions47NetworkingPrivateGetEnabledNetworkTypesFunctionE = hidden unnamed_addr constant { [15 x i8*] } { [15 x i8*] [i8* null, i8* null, i8* bitcast (i1 (%class.ExtensionFunction*, %"class.std::__1::basic_string"*)* @_ZN17ExtensionFunction16PreRunValidationEPNSt3__112basic_stringIcNS0_11char_traitsIcEENS0_9allocatorIcEEEE to i8*), i8* bitcast (%"class.ExtensionFunction::ResponseActionObject"* (%"class.extensions::NetworkingPrivateGetEnabledNetworkTypesFunction"*)* @_ZN10extensions47NetworkingPrivateGetEnabledNetworkTypesFunction3RunEv to i8*), i8* bitcast (i1 (%class.ExtensionFunction*)* @_ZNK17ExtensionFunction23ShouldSkipQuotaLimitingEv to i8*), i8* bitcast (void (%class.ExtensionFunction*, %"class.std::__1::list"*)* @_ZNK17ExtensionFunction23GetQuotaLimitHeuristicsEPNSt3__14listINS0_10unique_ptrIN10extensions19QuotaLimitHeuristicENS0_14default_deleteIS4_EEEENS0_9allocatorIS7_EEEE to i8*), i8* bitcast (void (%class.ExtensionFunction*, %"class.std::__1::basic_string"*)* @_ZN17ExtensionFunction15OnQuotaExceededENSt3__112basic_stringIcNS0_11char_traitsIcEENS0_9allocatorIcEEEE to i8*), i8* bitcast (%"class.std::__1::basic_string"* (%class.ExtensionFunction*)* @_ZNK17ExtensionFunction8GetErrorEv to i8*), i8* bitcast (void (%class.ExtensionFunction*)* @_ZN17ExtensionFunction13SetBadMessageEv to i8*), i8* bitcast (void (%class.ExtensionFunction*, i8*)* @_ZN17ExtensionFunction7SetNameEPKc to i8*), i8* bitcast (i1 (%class.ExtensionFunction*, %"class.IPC::Message"*)* @_ZN17ExtensionFunction17OnMessageReceivedERKN3IPC7MessageE to i8*), i8* bitcast (void (%class.ExtensionFunction*)* @_ZN17ExtensionFunction18OnServiceWorkerAckEv to i8*), i8* bitcast (void (%"class.extensions::NetworkingPrivateGetEnabledNetworkTypesFunction"*)* @_ZN10extensions47NetworkingPrivateGetEnabledNetworkTypesFunctionD2Ev to i8*), i8* bitcast (void (%"class.extensions::NetworkingPrivateGetEnabledNetworkTypesFunction"*)* @_ZN10extensions47NetworkingPrivateGetEnabledNetworkTypesFunctionD0Ev to i8*), i8* bitcast (void (%class.ExtensionFunction*)* @_ZN17ExtensionFunction11OnRespondedEv to i8*)] }, align 8
@_ZTVN10extensions40NetworkingPrivateGetDeviceStatesFunctionE = hidden unnamed_addr constant { [15 x i8*] } { [15 x i8*] [i8* null, i8* null, i8* bitcast (i1 (%class.ExtensionFunction*, %"class.std::__1::basic_string"*)* @_ZN17ExtensionFunction16PreRunValidationEPNSt3__112basic_stringIcNS0_11char_traitsIcEENS0_9allocatorIcEEEE to i8*), i8* bitcast (%"class.ExtensionFunction::ResponseActionObject"* (%"class.extensions::NetworkingPrivateGetDeviceStatesFunction"*)* @_ZN10extensions40NetworkingPrivateGetDeviceStatesFunction3RunEv to i8*), i8* bitcast (i1 (%class.ExtensionFunction*)* @_ZNK17ExtensionFunction23ShouldSkipQuotaLimitingEv to i8*), i8* bitcast (void (%class.ExtensionFunction*, %"class.std::__1::list"*)* @_ZNK17ExtensionFunction23GetQuotaLimitHeuristicsEPNSt3__14listINS0_10unique_ptrIN10extensions19QuotaLimitHeuristicENS0_14default_deleteIS4_EEEENS0_9allocatorIS7_EEEE to i8*), i8* bitcast (void (%class.ExtensionFunction*, %"class.std::__1::basic_string"*)* @_ZN17ExtensionFunction15OnQuotaExceededENSt3__112basic_stringIcNS0_11char_traitsIcEENS0_9allocatorIcEEEE to i8*), i8* bitcast (%"class.std::__1::basic_string"* (%class.ExtensionFunction*)* @_ZNK17ExtensionFunction8GetErrorEv to i8*), i8* bitcast (void (%class.ExtensionFunction*)* @_ZN17ExtensionFunction13SetBadMessageEv to i8*), i8* bitcast (void (%class.ExtensionFunction*, i8*)* @_ZN17ExtensionFunction7SetNameEPKc to i8*), i8* bitcast (i1 (%class.ExtensionFunction*, %"class.IPC::Message"*)* @_ZN17ExtensionFunction17OnMessageReceivedERKN3IPC7MessageE to i8*), i8* bitcast (void (%class.ExtensionFunction*)* @_ZN17ExtensionFunction18OnServiceWorkerAckEv to i8*), i8* bitcast (void (%"class.extensions::NetworkingPrivateGetDeviceStatesFunction"*)* @_ZN10extensions40NetworkingPrivateGetDeviceStatesFunctionD2Ev to i8*), i8* bitcast (void (%"class.extensions::NetworkingPrivateGetDeviceStatesFunction"*)* @_ZN10extensions40NetworkingPrivateGetDeviceStatesFunctionD0Ev to i8*), i8* bitcast (void (%class.ExtensionFunction*)* @_ZN17ExtensionFunction11OnRespondedEv to i8*)] }, align 8
@_ZTVN10extensions42NetworkingPrivateEnableNetworkTypeFunctionE = hidden unnamed_addr constant { [15 x i8*] } { [15 x i8*] [i8* null, i8* null, i8* bitcast (i1 (%class.ExtensionFunction*, %"class.std::__1::basic_string"*)* @_ZN17ExtensionFunction16PreRunValidationEPNSt3__112basic_stringIcNS0_11char_traitsIcEENS0_9allocatorIcEEEE to i8*), i8* bitcast (%"class.ExtensionFunction::ResponseActionObject"* (%"class.extensions::NetworkingPrivateEnableNetworkTypeFunction"*)* @_ZN10extensions42NetworkingPrivateEnableNetworkTypeFunction3RunEv to i8*), i8* bitcast (i1 (%class.ExtensionFunction*)* @_ZNK17ExtensionFunction23ShouldSkipQuotaLimitingEv to i8*), i8* bitcast (void (%class.ExtensionFunction*, %"class.std::__1::list"*)* @_ZNK17ExtensionFunction23GetQuotaLimitHeuristicsEPNSt3__14listINS0_10unique_ptrIN10extensions19QuotaLimitHeuristicENS0_14default_deleteIS4_EEEENS0_9allocatorIS7_EEEE to i8*), i8* bitcast (void (%class.ExtensionFunction*, %"class.std::__1::basic_string"*)* @_ZN17ExtensionFunction15OnQuotaExceededENSt3__112basic_stringIcNS0_11char_traitsIcEENS0_9allocatorIcEEEE to i8*), i8* bitcast (%"class.std::__1::basic_string"* (%class.ExtensionFunction*)* @_ZNK17ExtensionFunction8GetErrorEv to i8*), i8* bitcast (void (%class.ExtensionFunction*)* @_ZN17ExtensionFunction13SetBadMessageEv to i8*), i8* bitcast (void (%class.ExtensionFunction*, i8*)* @_ZN17ExtensionFunction7SetNameEPKc to i8*), i8* bitcast (i1 (%class.ExtensionFunction*, %"class.IPC::Message"*)* @_ZN17ExtensionFunction17OnMessageReceivedERKN3IPC7MessageE to i8*), i8* bitcast (void (%class.ExtensionFunction*)* @_ZN17ExtensionFunction18OnServiceWorkerAckEv to i8*), i8* bitcast (void (%"class.extensions::NetworkingPrivateEnableNetworkTypeFunction"*)* @_ZN10extensions42NetworkingPrivateEnableNetworkTypeFunctionD2Ev to i8*), i8* bitcast (void (%"class.extensions::NetworkingPrivateEnableNetworkTypeFunction"*)* @_ZN10extensions42NetworkingPrivateEnableNetworkTypeFunctionD0Ev to i8*), i8* bitcast (void (%class.ExtensionFunction*)* @_ZN17ExtensionFunction11OnRespondedEv to i8*)] }, align 8
@_ZTVN10extensions43NetworkingPrivateDisableNetworkTypeFunctionE = hidden unnamed_addr constant { [15 x i8*] } { [15 x i8*] [i8* null, i8* null, i8* bitcast (i1 (%class.ExtensionFunction*, %"class.std::__1::basic_string"*)* @_ZN17ExtensionFunction16PreRunValidationEPNSt3__112basic_stringIcNS0_11char_traitsIcEENS0_9allocatorIcEEEE to i8*), i8* bitcast (%"class.ExtensionFunction::ResponseActionObject"* (%"class.extensions::NetworkingPrivateDisableNetworkTypeFunction"*)* @_ZN10extensions43NetworkingPrivateDisableNetworkTypeFunction3RunEv to i8*), i8* bitcast (i1 (%class.ExtensionFunction*)* @_ZNK17ExtensionFunction23ShouldSkipQuotaLimitingEv to i8*), i8* bitcast (void (%class.ExtensionFunction*, %"class.std::__1::list"*)* @_ZNK17ExtensionFunction23GetQuotaLimitHeuristicsEPNSt3__14listINS0_10unique_ptrIN10extensions19QuotaLimitHeuristicENS0_14default_deleteIS4_EEEENS0_9allocatorIS7_EEEE to i8*), i8* bitcast (void (%class.ExtensionFunction*, %"class.std::__1::basic_string"*)* @_ZN17ExtensionFunction15OnQuotaExceededENSt3__112basic_stringIcNS0_11char_traitsIcEENS0_9allocatorIcEEEE to i8*), i8* bitcast (%"class.std::__1::basic_string"* (%class.ExtensionFunction*)* @_ZNK17ExtensionFunction8GetErrorEv to i8*), i8* bitcast (void (%class.ExtensionFunction*)* @_ZN17ExtensionFunction13SetBadMessageEv to i8*), i8* bitcast (void (%class.ExtensionFunction*, i8*)* @_ZN17ExtensionFunction7SetNameEPKc to i8*), i8* bitcast (i1 (%class.ExtensionFunction*, %"class.IPC::Message"*)* @_ZN17ExtensionFunction17OnMessageReceivedERKN3IPC7MessageE to i8*), i8* bitcast (void (%class.ExtensionFunction*)* @_ZN17ExtensionFunction18OnServiceWorkerAckEv to i8*), i8* bitcast (void (%"class.extensions::NetworkingPrivateDisableNetworkTypeFunction"*)* @_ZN10extensions43NetworkingPrivateDisableNetworkTypeFunctionD2Ev to i8*), i8* bitcast (void (%"class.extensions::NetworkingPrivateDisableNetworkTypeFunction"*)* @_ZN10extensions43NetworkingPrivateDisableNetworkTypeFunctionD0Ev to i8*), i8* bitcast (void (%class.ExtensionFunction*)* @_ZN17ExtensionFunction11OnRespondedEv to i8*)] }, align 8
@_ZTVN10extensions43NetworkingPrivateRequestNetworkScanFunctionE = hidden unnamed_addr constant { [15 x i8*] } { [15 x i8*] [i8* null, i8* null, i8* bitcast (i1 (%class.ExtensionFunction*, %"class.std::__1::basic_string"*)* @_ZN17ExtensionFunction16PreRunValidationEPNSt3__112basic_stringIcNS0_11char_traitsIcEENS0_9allocatorIcEEEE to i8*), i8* bitcast (%"class.ExtensionFunction::ResponseActionObject"* (%"class.extensions::NetworkingPrivateRequestNetworkScanFunction"*)* @_ZN10extensions43NetworkingPrivateRequestNetworkScanFunction3RunEv to i8*), i8* bitcast (i1 (%class.ExtensionFunction*)* @_ZNK17ExtensionFunction23ShouldSkipQuotaLimitingEv to i8*), i8* bitcast (void (%class.ExtensionFunction*, %"class.std::__1::list"*)* @_ZNK17ExtensionFunction23GetQuotaLimitHeuristicsEPNSt3__14listINS0_10unique_ptrIN10extensions19QuotaLimitHeuristicENS0_14default_deleteIS4_EEEENS0_9allocatorIS7_EEEE to i8*), i8* bitcast (void (%class.ExtensionFunction*, %"class.std::__1::basic_string"*)* @_ZN17ExtensionFunction15OnQuotaExceededENSt3__112basic_stringIcNS0_11char_traitsIcEENS0_9allocatorIcEEEE to i8*), i8* bitcast (%"class.std::__1::basic_string"* (%class.ExtensionFunction*)* @_ZNK17ExtensionFunction8GetErrorEv to i8*), i8* bitcast (void (%class.ExtensionFunction*)* @_ZN17ExtensionFunction13SetBadMessageEv to i8*), i8* bitcast (void (%class.ExtensionFunction*, i8*)* @_ZN17ExtensionFunction7SetNameEPKc to i8*), i8* bitcast (i1 (%class.ExtensionFunction*, %"class.IPC::Message"*)* @_ZN17ExtensionFunction17OnMessageReceivedERKN3IPC7MessageE to i8*), i8* bitcast (void (%class.ExtensionFunction*)* @_ZN17ExtensionFunction18OnServiceWorkerAckEv to i8*), i8* bitcast (void (%"class.extensions::NetworkingPrivateRequestNetworkScanFunction"*)* @_ZN10extensions43NetworkingPrivateRequestNetworkScanFunctionD2Ev to i8*), i8* bitcast (void (%"class.extensions::NetworkingPrivateRequestNetworkScanFunction"*)* @_ZN10extensions43NetworkingPrivateRequestNetworkScanFunctionD0Ev to i8*), i8* bitcast (void (%class.ExtensionFunction*)* @_ZN17ExtensionFunction11OnRespondedEv to i8*)] }, align 8
@_ZTVN10extensions37NetworkingPrivateStartConnectFunctionE = hidden unnamed_addr constant { [15 x i8*] } { [15 x i8*] [i8* null, i8* null, i8* bitcast (i1 (%class.ExtensionFunction*, %"class.std::__1::basic_string"*)* @_ZN17ExtensionFunction16PreRunValidationEPNSt3__112basic_stringIcNS0_11char_traitsIcEENS0_9allocatorIcEEEE to i8*), i8* bitcast (%"class.ExtensionFunction::ResponseActionObject"* (%"class.extensions::NetworkingPrivateStartConnectFunction"*)* @_ZN10extensions37NetworkingPrivateStartConnectFunction3RunEv to i8*), i8* bitcast (i1 (%class.ExtensionFunction*)* @_ZNK17ExtensionFunction23ShouldSkipQuotaLimitingEv to i8*), i8* bitcast (void (%class.ExtensionFunction*, %"class.std::__1::list"*)* @_ZNK17ExtensionFunction23GetQuotaLimitHeuristicsEPNSt3__14listINS0_10unique_ptrIN10extensions19QuotaLimitHeuristicENS0_14default_deleteIS4_EEEENS0_9allocatorIS7_EEEE to i8*), i8* bitcast (void (%class.ExtensionFunction*, %"class.std::__1::basic_string"*)* @_ZN17ExtensionFunction15OnQuotaExceededENSt3__112basic_stringIcNS0_11char_traitsIcEENS0_9allocatorIcEEEE to i8*), i8* bitcast (%"class.std::__1::basic_string"* (%class.ExtensionFunction*)* @_ZNK17ExtensionFunction8GetErrorEv to i8*), i8* bitcast (void (%class.ExtensionFunction*)* @_ZN17ExtensionFunction13SetBadMessageEv to i8*), i8* bitcast (void (%class.ExtensionFunction*, i8*)* @_ZN17ExtensionFunction7SetNameEPKc to i8*), i8* bitcast (i1 (%class.ExtensionFunction*, %"class.IPC::Message"*)* @_ZN17ExtensionFunction17OnMessageReceivedERKN3IPC7MessageE to i8*), i8* bitcast (void (%class.ExtensionFunction*)* @_ZN17ExtensionFunction18OnServiceWorkerAckEv to i8*), i8* bitcast (void (%"class.extensions::NetworkingPrivateStartConnectFunction"*)* @_ZN10extensions37NetworkingPrivateStartConnectFunctionD2Ev to i8*), i8* bitcast (void (%"class.extensions::NetworkingPrivateStartConnectFunction"*)* @_ZN10extensions37NetworkingPrivateStartConnectFunctionD0Ev to i8*), i8* bitcast (void (%class.ExtensionFunction*)* @_ZN17ExtensionFunction11OnRespondedEv to i8*)] }, align 8
@_ZTVN10extensions40NetworkingPrivateStartDisconnectFunctionE = hidden unnamed_addr constant { [15 x i8*] } { [15 x i8*] [i8* null, i8* null, i8* bitcast (i1 (%class.ExtensionFunction*, %"class.std::__1::basic_string"*)* @_ZN17ExtensionFunction16PreRunValidationEPNSt3__112basic_stringIcNS0_11char_traitsIcEENS0_9allocatorIcEEEE to i8*), i8* bitcast (%"class.ExtensionFunction::ResponseActionObject"* (%"class.extensions::NetworkingPrivateStartDisconnectFunction"*)* @_ZN10extensions40NetworkingPrivateStartDisconnectFunction3RunEv to i8*), i8* bitcast (i1 (%class.ExtensionFunction*)* @_ZNK17ExtensionFunction23ShouldSkipQuotaLimitingEv to i8*), i8* bitcast (void (%class.ExtensionFunction*, %"class.std::__1::list"*)* @_ZNK17ExtensionFunction23GetQuotaLimitHeuristicsEPNSt3__14listINS0_10unique_ptrIN10extensions19QuotaLimitHeuristicENS0_14default_deleteIS4_EEEENS0_9allocatorIS7_EEEE to i8*), i8* bitcast (void (%class.ExtensionFunction*, %"class.std::__1::basic_string"*)* @_ZN17ExtensionFunction15OnQuotaExceededENSt3__112basic_stringIcNS0_11char_traitsIcEENS0_9allocatorIcEEEE to i8*), i8* bitcast (%"class.std::__1::basic_string"* (%class.ExtensionFunction*)* @_ZNK17ExtensionFunction8GetErrorEv to i8*), i8* bitcast (void (%class.ExtensionFunction*)* @_ZN17ExtensionFunction13SetBadMessageEv to i8*), i8* bitcast (void (%class.ExtensionFunction*, i8*)* @_ZN17ExtensionFunction7SetNameEPKc to i8*), i8* bitcast (i1 (%class.ExtensionFunction*, %"class.IPC::Message"*)* @_ZN17ExtensionFunction17OnMessageReceivedERKN3IPC7MessageE to i8*), i8* bitcast (void (%class.ExtensionFunction*)* @_ZN17ExtensionFunction18OnServiceWorkerAckEv to i8*), i8* bitcast (void (%"class.extensions::NetworkingPrivateStartDisconnectFunction"*)* @_ZN10extensions40NetworkingPrivateStartDisconnectFunctionD2Ev to i8*), i8* bitcast (void (%"class.extensions::NetworkingPrivateStartDisconnectFunction"*)* @_ZN10extensions40NetworkingPrivateStartDisconnectFunctionD0Ev to i8*), i8* bitcast (void (%class.ExtensionFunction*)* @_ZN17ExtensionFunction11OnRespondedEv to i8*)] }, align 8
@_ZTVN10extensions38NetworkingPrivateStartActivateFunctionE = hidden unnamed_addr constant { [15 x i8*] } { [15 x i8*] [i8* null, i8* null, i8* bitcast (i1 (%class.ExtensionFunction*, %"class.std::__1::basic_string"*)* @_ZN17ExtensionFunction16PreRunValidationEPNSt3__112basic_stringIcNS0_11char_traitsIcEENS0_9allocatorIcEEEE to i8*), i8* bitcast (%"class.ExtensionFunction::ResponseActionObject"* (%"class.extensions::NetworkingPrivateStartActivateFunction"*)* @_ZN10extensions38NetworkingPrivateStartActivateFunction3RunEv to i8*), i8* bitcast (i1 (%class.ExtensionFunction*)* @_ZNK17ExtensionFunction23ShouldSkipQuotaLimitingEv to i8*), i8* bitcast (void (%class.ExtensionFunction*, %"class.std::__1::list"*)* @_ZNK17ExtensionFunction23GetQuotaLimitHeuristicsEPNSt3__14listINS0_10unique_ptrIN10extensions19QuotaLimitHeuristicENS0_14default_deleteIS4_EEEENS0_9allocatorIS7_EEEE to i8*), i8* bitcast (void (%class.ExtensionFunction*, %"class.std::__1::basic_string"*)* @_ZN17ExtensionFunction15OnQuotaExceededENSt3__112basic_stringIcNS0_11char_traitsIcEENS0_9allocatorIcEEEE to i8*), i8* bitcast (%"class.std::__1::basic_string"* (%class.ExtensionFunction*)* @_ZNK17ExtensionFunction8GetErrorEv to i8*), i8* bitcast (void (%class.ExtensionFunction*)* @_ZN17ExtensionFunction13SetBadMessageEv to i8*), i8* bitcast (void (%class.ExtensionFunction*, i8*)* @_ZN17ExtensionFunction7SetNameEPKc to i8*), i8* bitcast (i1 (%class.ExtensionFunction*, %"class.IPC::Message"*)* @_ZN17ExtensionFunction17OnMessageReceivedERKN3IPC7MessageE to i8*), i8* bitcast (void (%class.ExtensionFunction*)* @_ZN17ExtensionFunction18OnServiceWorkerAckEv to i8*), i8* bitcast (void (%"class.extensions::NetworkingPrivateStartActivateFunction"*)* @_ZN10extensions38NetworkingPrivateStartActivateFunctionD2Ev to i8*), i8* bitcast (void (%"class.extensions::NetworkingPrivateStartActivateFunction"*)* @_ZN10extensions38NetworkingPrivateStartActivateFunctionD0Ev to i8*), i8* bitcast (void (%class.ExtensionFunction*)* @_ZN17ExtensionFunction11OnRespondedEv to i8*)] }, align 8
@_ZTVN10extensions47NetworkingPrivateGetCaptivePortalStatusFunctionE = hidden unnamed_addr constant { [15 x i8*] } { [15 x i8*] [i8* null, i8* null, i8* bitcast (i1 (%class.ExtensionFunction*, %"class.std::__1::basic_string"*)* @_ZN17ExtensionFunction16PreRunValidationEPNSt3__112basic_stringIcNS0_11char_traitsIcEENS0_9allocatorIcEEEE to i8*), i8* bitcast (%"class.ExtensionFunction::ResponseActionObject"* (%"class.extensions::NetworkingPrivateGetCaptivePortalStatusFunction"*)* @_ZN10extensions47NetworkingPrivateGetCaptivePortalStatusFunction3RunEv to i8*), i8* bitcast (i1 (%class.ExtensionFunction*)* @_ZNK17ExtensionFunction23ShouldSkipQuotaLimitingEv to i8*), i8* bitcast (void (%class.ExtensionFunction*, %"class.std::__1::list"*)* @_ZNK17ExtensionFunction23GetQuotaLimitHeuristicsEPNSt3__14listINS0_10unique_ptrIN10extensions19QuotaLimitHeuristicENS0_14default_deleteIS4_EEEENS0_9allocatorIS7_EEEE to i8*), i8* bitcast (void (%class.ExtensionFunction*, %"class.std::__1::basic_string"*)* @_ZN17ExtensionFunction15OnQuotaExceededENSt3__112basic_stringIcNS0_11char_traitsIcEENS0_9allocatorIcEEEE to i8*), i8* bitcast (%"class.std::__1::basic_string"* (%class.ExtensionFunction*)* @_ZNK17ExtensionFunction8GetErrorEv to i8*), i8* bitcast (void (%class.ExtensionFunction*)* @_ZN17ExtensionFunction13SetBadMessageEv to i8*), i8* bitcast (void (%class.ExtensionFunction*, i8*)* @_ZN17ExtensionFunction7SetNameEPKc to i8*), i8* bitcast (i1 (%class.ExtensionFunction*, %"class.IPC::Message"*)* @_ZN17ExtensionFunction17OnMessageReceivedERKN3IPC7MessageE to i8*), i8* bitcast (void (%class.ExtensionFunction*)* @_ZN17ExtensionFunction18OnServiceWorkerAckEv to i8*), i8* bitcast (void (%"class.extensions::NetworkingPrivateGetCaptivePortalStatusFunction"*)* @_ZN10extensions47NetworkingPrivateGetCaptivePortalStatusFunctionD2Ev to i8*), i8* bitcast (void (%"class.extensions::NetworkingPrivateGetCaptivePortalStatusFunction"*)* @_ZN10extensions47NetworkingPrivateGetCaptivePortalStatusFunctionD0Ev to i8*), i8* bitcast (void (%class.ExtensionFunction*)* @_ZN17ExtensionFunction11OnRespondedEv to i8*)] }, align 8
@_ZTVN10extensions42NetworkingPrivateUnlockCellularSimFunctionE = hidden unnamed_addr constant { [15 x i8*] } { [15 x i8*] [i8* null, i8* null, i8* bitcast (i1 (%class.ExtensionFunction*, %"class.std::__1::basic_string"*)* @_ZN17ExtensionFunction16PreRunValidationEPNSt3__112basic_stringIcNS0_11char_traitsIcEENS0_9allocatorIcEEEE to i8*), i8* bitcast (%"class.ExtensionFunction::ResponseActionObject"* (%"class.extensions::NetworkingPrivateUnlockCellularSimFunction"*)* @_ZN10extensions42NetworkingPrivateUnlockCellularSimFunction3RunEv to i8*), i8* bitcast (i1 (%class.ExtensionFunction*)* @_ZNK17ExtensionFunction23ShouldSkipQuotaLimitingEv to i8*), i8* bitcast (void (%class.ExtensionFunction*, %"class.std::__1::list"*)* @_ZNK17ExtensionFunction23GetQuotaLimitHeuristicsEPNSt3__14listINS0_10unique_ptrIN10extensions19QuotaLimitHeuristicENS0_14default_deleteIS4_EEEENS0_9allocatorIS7_EEEE to i8*), i8* bitcast (void (%class.ExtensionFunction*, %"class.std::__1::basic_string"*)* @_ZN17ExtensionFunction15OnQuotaExceededENSt3__112basic_stringIcNS0_11char_traitsIcEENS0_9allocatorIcEEEE to i8*), i8* bitcast (%"class.std::__1::basic_string"* (%class.ExtensionFunction*)* @_ZNK17ExtensionFunction8GetErrorEv to i8*), i8* bitcast (void (%class.ExtensionFunction*)* @_ZN17ExtensionFunction13SetBadMessageEv to i8*), i8* bitcast (void (%class.ExtensionFunction*, i8*)* @_ZN17ExtensionFunction7SetNameEPKc to i8*), i8* bitcast (i1 (%class.ExtensionFunction*, %"class.IPC::Message"*)* @_ZN17ExtensionFunction17OnMessageReceivedERKN3IPC7MessageE to i8*), i8* bitcast (void (%class.ExtensionFunction*)* @_ZN17ExtensionFunction18OnServiceWorkerAckEv to i8*), i8* bitcast (void (%"class.extensions::NetworkingPrivateUnlockCellularSimFunction"*)* @_ZN10extensions42NetworkingPrivateUnlockCellularSimFunctionD2Ev to i8*), i8* bitcast (void (%"class.extensions::NetworkingPrivateUnlockCellularSimFunction"*)* @_ZN10extensions42NetworkingPrivateUnlockCellularSimFunctionD0Ev to i8*), i8* bitcast (void (%class.ExtensionFunction*)* @_ZN17ExtensionFunction11OnRespondedEv to i8*)] }, align 8
@_ZTVN10extensions44NetworkingPrivateSetCellularSimStateFunctionE = hidden unnamed_addr constant { [15 x i8*] } { [15 x i8*] [i8* null, i8* null, i8* bitcast (i1 (%class.ExtensionFunction*, %"class.std::__1::basic_string"*)* @_ZN17ExtensionFunction16PreRunValidationEPNSt3__112basic_stringIcNS0_11char_traitsIcEENS0_9allocatorIcEEEE to i8*), i8* bitcast (%"class.ExtensionFunction::ResponseActionObject"* (%"class.extensions::NetworkingPrivateSetCellularSimStateFunction"*)* @_ZN10extensions44NetworkingPrivateSetCellularSimStateFunction3RunEv to i8*), i8* bitcast (i1 (%class.ExtensionFunction*)* @_ZNK17ExtensionFunction23ShouldSkipQuotaLimitingEv to i8*), i8* bitcast (void (%class.ExtensionFunction*, %"class.std::__1::list"*)* @_ZNK17ExtensionFunction23GetQuotaLimitHeuristicsEPNSt3__14listINS0_10unique_ptrIN10extensions19QuotaLimitHeuristicENS0_14default_deleteIS4_EEEENS0_9allocatorIS7_EEEE to i8*), i8* bitcast (void (%class.ExtensionFunction*, %"class.std::__1::basic_string"*)* @_ZN17ExtensionFunction15OnQuotaExceededENSt3__112basic_stringIcNS0_11char_traitsIcEENS0_9allocatorIcEEEE to i8*), i8* bitcast (%"class.std::__1::basic_string"* (%class.ExtensionFunction*)* @_ZNK17ExtensionFunction8GetErrorEv to i8*), i8* bitcast (void (%class.ExtensionFunction*)* @_ZN17ExtensionFunction13SetBadMessageEv to i8*), i8* bitcast (void (%class.ExtensionFunction*, i8*)* @_ZN17ExtensionFunction7SetNameEPKc to i8*), i8* bitcast (i1 (%class.ExtensionFunction*, %"class.IPC::Message"*)* @_ZN17ExtensionFunction17OnMessageReceivedERKN3IPC7MessageE to i8*), i8* bitcast (void (%class.ExtensionFunction*)* @_ZN17ExtensionFunction18OnServiceWorkerAckEv to i8*), i8* bitcast (void (%"class.extensions::NetworkingPrivateSetCellularSimStateFunction"*)* @_ZN10extensions44NetworkingPrivateSetCellularSimStateFunctionD2Ev to i8*), i8* bitcast (void (%"class.extensions::NetworkingPrivateSetCellularSimStateFunction"*)* @_ZN10extensions44NetworkingPrivateSetCellularSimStateFunctionD0Ev to i8*), i8* bitcast (void (%class.ExtensionFunction*)* @_ZN17ExtensionFunction11OnRespondedEv to i8*)] }, align 8
@_ZTVN10extensions52NetworkingPrivateSelectCellularMobileNetworkFunctionE = hidden unnamed_addr constant { [15 x i8*] } { [15 x i8*] [i8* null, i8* null, i8* bitcast (i1 (%class.ExtensionFunction*, %"class.std::__1::basic_string"*)* @_ZN17ExtensionFunction16PreRunValidationEPNSt3__112basic_stringIcNS0_11char_traitsIcEENS0_9allocatorIcEEEE to i8*), i8* bitcast (%"class.ExtensionFunction::ResponseActionObject"* (%"class.extensions::NetworkingPrivateSelectCellularMobileNetworkFunction"*)* @_ZN10extensions52NetworkingPrivateSelectCellularMobileNetworkFunction3RunEv to i8*), i8* bitcast (i1 (%class.ExtensionFunction*)* @_ZNK17ExtensionFunction23ShouldSkipQuotaLimitingEv to i8*), i8* bitcast (void (%class.ExtensionFunction*, %"class.std::__1::list"*)* @_ZNK17ExtensionFunction23GetQuotaLimitHeuristicsEPNSt3__14listINS0_10unique_ptrIN10extensions19QuotaLimitHeuristicENS0_14default_deleteIS4_EEEENS0_9allocatorIS7_EEEE to i8*), i8* bitcast (void (%class.ExtensionFunction*, %"class.std::__1::basic_string"*)* @_ZN17ExtensionFunction15OnQuotaExceededENSt3__112basic_stringIcNS0_11char_traitsIcEENS0_9allocatorIcEEEE to i8*), i8* bitcast (%"class.std::__1::basic_string"* (%class.ExtensionFunction*)* @_ZNK17ExtensionFunction8GetErrorEv to i8*), i8* bitcast (void (%class.ExtensionFunction*)* @_ZN17ExtensionFunction13SetBadMessageEv to i8*), i8* bitcast (void (%class.ExtensionFunction*, i8*)* @_ZN17ExtensionFunction7SetNameEPKc to i8*), i8* bitcast (i1 (%class.ExtensionFunction*, %"class.IPC::Message"*)* @_ZN17ExtensionFunction17OnMessageReceivedERKN3IPC7MessageE to i8*), i8* bitcast (void (%class.ExtensionFunction*)* @_ZN17ExtensionFunction18OnServiceWorkerAckEv to i8*), i8* bitcast (void (%"class.extensions::NetworkingPrivateSelectCellularMobileNetworkFunction"*)* @_ZN10extensions52NetworkingPrivateSelectCellularMobileNetworkFunctionD2Ev to i8*), i8* bitcast (void (%"class.extensions::NetworkingPrivateSelectCellularMobileNetworkFunction"*)* @_ZN10extensions52NetworkingPrivateSelectCellularMobileNetworkFunctionD0Ev to i8*), i8* bitcast (void (%class.ExtensionFunction*)* @_ZN17ExtensionFunction11OnRespondedEv to i8*)] }, align 8
@_ZTVN10extensions40NetworkingPrivateGetGlobalPolicyFunctionE = hidden unnamed_addr constant { [15 x i8*] } { [15 x i8*] [i8* null, i8* null, i8* bitcast (i1 (%class.ExtensionFunction*, %"class.std::__1::basic_string"*)* @_ZN17ExtensionFunction16PreRunValidationEPNSt3__112basic_stringIcNS0_11char_traitsIcEENS0_9allocatorIcEEEE to i8*), i8* bitcast (%"class.ExtensionFunction::ResponseActionObject"* (%"class.extensions::NetworkingPrivateGetGlobalPolicyFunction"*)* @_ZN10extensions40NetworkingPrivateGetGlobalPolicyFunction3RunEv to i8*), i8* bitcast (i1 (%class.ExtensionFunction*)* @_ZNK17ExtensionFunction23ShouldSkipQuotaLimitingEv to i8*), i8* bitcast (void (%class.ExtensionFunction*, %"class.std::__1::list"*)* @_ZNK17ExtensionFunction23GetQuotaLimitHeuristicsEPNSt3__14listINS0_10unique_ptrIN10extensions19QuotaLimitHeuristicENS0_14default_deleteIS4_EEEENS0_9allocatorIS7_EEEE to i8*), i8* bitcast (void (%class.ExtensionFunction*, %"class.std::__1::basic_string"*)* @_ZN17ExtensionFunction15OnQuotaExceededENSt3__112basic_stringIcNS0_11char_traitsIcEENS0_9allocatorIcEEEE to i8*), i8* bitcast (%"class.std::__1::basic_string"* (%class.ExtensionFunction*)* @_ZNK17ExtensionFunction8GetErrorEv to i8*), i8* bitcast (void (%class.ExtensionFunction*)* @_ZN17ExtensionFunction13SetBadMessageEv to i8*), i8* bitcast (void (%class.ExtensionFunction*, i8*)* @_ZN17ExtensionFunction7SetNameEPKc to i8*), i8* bitcast (i1 (%class.ExtensionFunction*, %"class.IPC::Message"*)* @_ZN17ExtensionFunction17OnMessageReceivedERKN3IPC7MessageE to i8*), i8* bitcast (void (%class.ExtensionFunction*)* @_ZN17ExtensionFunction18OnServiceWorkerAckEv to i8*), i8* bitcast (void (%"class.extensions::NetworkingPrivateGetGlobalPolicyFunction"*)* @_ZN10extensions40NetworkingPrivateGetGlobalPolicyFunctionD2Ev to i8*), i8* bitcast (void (%"class.extensions::NetworkingPrivateGetGlobalPolicyFunction"*)* @_ZN10extensions40NetworkingPrivateGetGlobalPolicyFunctionD0Ev to i8*), i8* bitcast (void (%class.ExtensionFunction*)* @_ZN17ExtensionFunction11OnRespondedEv to i8*)] }, align 8
@_ZTVN10extensions44NetworkingPrivateGetCertificateListsFunctionE = hidden unnamed_addr constant { [15 x i8*] } { [15 x i8*] [i8* null, i8* null, i8* bitcast (i1 (%class.ExtensionFunction*, %"class.std::__1::basic_string"*)* @_ZN17ExtensionFunction16PreRunValidationEPNSt3__112basic_stringIcNS0_11char_traitsIcEENS0_9allocatorIcEEEE to i8*), i8* bitcast (%"class.ExtensionFunction::ResponseActionObject"* (%"class.extensions::NetworkingPrivateGetCertificateListsFunction"*)* @_ZN10extensions44NetworkingPrivateGetCertificateListsFunction3RunEv to i8*), i8* bitcast (i1 (%class.ExtensionFunction*)* @_ZNK17ExtensionFunction23ShouldSkipQuotaLimitingEv to i8*), i8* bitcast (void (%class.ExtensionFunction*, %"class.std::__1::list"*)* @_ZNK17ExtensionFunction23GetQuotaLimitHeuristicsEPNSt3__14listINS0_10unique_ptrIN10extensions19QuotaLimitHeuristicENS0_14default_deleteIS4_EEEENS0_9allocatorIS7_EEEE to i8*), i8* bitcast (void (%class.ExtensionFunction*, %"class.std::__1::basic_string"*)* @_ZN17ExtensionFunction15OnQuotaExceededENSt3__112basic_stringIcNS0_11char_traitsIcEENS0_9allocatorIcEEEE to i8*), i8* bitcast (%"class.std::__1::basic_string"* (%class.ExtensionFunction*)* @_ZNK17ExtensionFunction8GetErrorEv to i8*), i8* bitcast (void (%class.ExtensionFunction*)* @_ZN17ExtensionFunction13SetBadMessageEv to i8*), i8* bitcast (void (%class.ExtensionFunction*, i8*)* @_ZN17ExtensionFunction7SetNameEPKc to i8*), i8* bitcast (i1 (%class.ExtensionFunction*, %"class.IPC::Message"*)* @_ZN17ExtensionFunction17OnMessageReceivedERKN3IPC7MessageE to i8*), i8* bitcast (void (%class.ExtensionFunction*)* @_ZN17ExtensionFunction18OnServiceWorkerAckEv to i8*), i8* bitcast (void (%"class.extensions::NetworkingPrivateGetCertificateListsFunction"*)* @_ZN10extensions44NetworkingPrivateGetCertificateListsFunctionD2Ev to i8*), i8* bitcast (void (%"class.extensions::NetworkingPrivateGetCertificateListsFunction"*)* @_ZN10extensions44NetworkingPrivateGetCertificateListsFunctionD0Ev to i8*), i8* bitcast (void (%class.ExtensionFunction*)* @_ZN17ExtensionFunction11OnRespondedEv to i8*)] }, align 8
@_ZN10extensions12_GLOBAL__N_127kPrivatePropertyPathsForGetE = internal unnamed_addr constant [16 x i8*] [i8* getelementptr inbounds ([13 x i8], [13 x i8]* @.str.4, i32 0, i32 0), i8* getelementptr inbounds ([17 x i8], [17 x i8]* @.str.5, i32 0, i32 0), i8* getelementptr inbounds ([21 x i8], [21 x i8]* @.str.6, i32 0, i32 0), i8* getelementptr inbounds ([13 x i8], [13 x i8]* @.str.7, i32 0, i32 0), i8* getelementptr inbounds ([15 x i8], [15 x i8]* @.str.8, i32 0, i32 0), i8* getelementptr inbounds ([14 x i8], [14 x i8]* @.str.9, i32 0, i32 0), i8* getelementptr inbounds ([14 x i8], [14 x i8]* @.str.10, i32 0, i32 0), i8* getelementptr inbounds ([13 x i8], [13 x i8]* @.str.11, i32 0, i32 0), i8* getelementptr inbounds ([14 x i8], [14 x i8]* @.str.12, i32 0, i32 0), i8* getelementptr inbounds ([13 x i8], [13 x i8]* @.str.13, i32 0, i32 0), i8* getelementptr inbounds ([13 x i8], [13 x i8]* @.str.14, i32 0, i32 0), i8* getelementptr inbounds ([10 x i8], [10 x i8]* @.str.15, i32 0, i32 0), i8* getelementptr inbounds ([9 x i8], [9 x i8]* @.str.16, i32 0, i32 0), i8* getelementptr inbounds ([12 x i8], [12 x i8]* @.str.17, i32 0, i32 0), i8* getelementptr inbounds ([9 x i8], [9 x i8]* @.str.18, i32 0, i32 0), i8* getelementptr inbounds ([10 x i8], [10 x i8]* @.str.19, i32 0, i32 0)], align 16
@_ZN10extensions12_GLOBAL__N_127kPrivatePropertyPathsForSetE = internal unnamed_addr constant [8 x i8*] [i8* getelementptr inbounds ([13 x i8], [13 x i8]* @.str.4, i32 0, i32 0), i8* getelementptr inbounds ([14 x i8], [14 x i8]* @.str.20, i32 0, i32 0), i8* getelementptr inbounds ([15 x i8], [15 x i8]* @.str.21, i32 0, i32 0), i8* getelementptr inbounds ([9 x i8], [9 x i8]* @.str.22, i32 0, i32 0), i8* getelementptr inbounds ([10 x i8], [10 x i8]* @.str.15, i32 0, i32 0), i8* getelementptr inbounds ([9 x i8], [9 x i8]* @.str.16, i32 0, i32 0), i8* getelementptr inbounds ([12 x i8], [12 x i8]* @.str.17, i32 0, i32 0), i8* getelementptr inbounds ([18 x i8], [18 x i8]* @.str.23, i32 0, i32 0)], align 16
@.str.4 = private unnamed_addr constant [13 x i8] c"Cellular.APN\00", align 1
@.str.5 = private unnamed_addr constant [17 x i8] c"Cellular.APNList\00", align 1
@.str.6 = private unnamed_addr constant [21 x i8] c"Cellular.LastGoodAPN\00", align 1
@.str.7 = private unnamed_addr constant [13 x i8] c"Cellular.ESN\00", align 1
@.str.8 = private unnamed_addr constant [15 x i8] c"Cellular.ICCID\00", align 1
@.str.9 = private unnamed_addr constant [14 x i8] c"Cellular.IMEI\00", align 1
@.str.10 = private unnamed_addr constant [14 x i8] c"Cellular.IMSI\00", align 1
@.str.11 = private unnamed_addr constant [13 x i8] c"Cellular.MDN\00", align 1
@.str.12 = private unnamed_addr constant [14 x i8] c"Cellular.MEID\00", align 1
@.str.13 = private unnamed_addr constant [13 x i8] c"Cellular.MIN\00", align 1
@.str.14 = private unnamed_addr constant [13 x i8] c"Ethernet.EAP\00", align 1
@.str.15 = private unnamed_addr constant [10 x i8] c"VPN.IPsec\00", align 1
@.str.16 = private unnamed_addr constant [9 x i8] c"VPN.L2TP\00", align 1
@.str.17 = private unnamed_addr constant [12 x i8] c"VPN.OpenVPN\00", align 1
@.str.18 = private unnamed_addr constant [9 x i8] c"WiFi.EAP\00", align 1
@.str.19 = private unnamed_addr constant [10 x i8] c"WiMax.EAP\00", align 1
@.str.20 = private unnamed_addr constant [14 x i8] c"ProxySettings\00", align 1
@.str.21 = private unnamed_addr constant [15 x i8] c"StaticIPConfig\00", align 1
@.str.22 = private unnamed_addr constant [9 x i8] c"VPN.Host\00", align 1
@.str.23 = private unnamed_addr constant [18 x i8] c"VPN.ThirdPartyVPN\00", align 1
@.str.25 = private unnamed_addr constant [30 x i8] c"Error.PropertiesNotAllowed: [\00", align 1
@.str.26 = private unnamed_addr constant [3 x i8] c", \00", align 1
@.str.27 = private unnamed_addr constant [2 x i8] c"]\00", align 1
@.str.28 = private unnamed_addr constant [18 x i8] c"networkingPrivate\00", align 1
@.str.29 = private unnamed_addr constant [17 x i8] c"start <= current\00", align 1
@.str.30 = private unnamed_addr constant [42 x i8] c"../../base/containers/checked_iterators.h\00", align 1
@.str.31 = private unnamed_addr constant [15 x i8] c"current <= end\00", align 1
@.str.32 = private unnamed_addr constant [23 x i8] c"start_ == other.start_\00", align 1
@.str.33 = private unnamed_addr constant [19 x i8] c"end_ == other.end_\00", align 1
@.str.34 = private unnamed_addr constant [17 x i8] c"current_ != end_\00", align 1
@.str.35 = private unnamed_addr constant [34 x i8] c"../../base/strings/string_piece.h\00", align 1
@.str.36 = private unnamed_addr constant [2 x i8] c"s\00", align 1
@_ZNSt3__15ctypeIcE2idE = external global %"class.std::__1::locale::id", align 8
@.str.37 = private unnamed_addr constant [9 x i8] c"Destruct\00", align 1
@.str.38 = private unnamed_addr constant [46 x i8] c"../../content/public/browser/browser_thread.h\00", align 1

@_ZN10extensions38NetworkingPrivateGetPropertiesFunctionD1Ev = hidden unnamed_addr alias void (%"class.extensions::NetworkingPrivateGetPropertiesFunction"*), void (%"class.extensions::NetworkingPrivateGetPropertiesFunction"*)* @_ZN10extensions38NetworkingPrivateGetPropertiesFunctionD2Ev
@_ZN10extensions45NetworkingPrivateGetManagedPropertiesFunctionD1Ev = hidden unnamed_addr alias void (%"class.extensions::NetworkingPrivateGetManagedPropertiesFunction"*), void (%"class.extensions::NetworkingPrivateGetManagedPropertiesFunction"*)* @_ZN10extensions45NetworkingPrivateGetManagedPropertiesFunctionD2Ev
@_ZN10extensions33NetworkingPrivateGetStateFunctionD1Ev = hidden unnamed_addr alias void (%"class.extensions::NetworkingPrivateGetStateFunction"*), void (%"class.extensions::NetworkingPrivateGetStateFunction"*)* @_ZN10extensions33NetworkingPrivateGetStateFunctionD2Ev
@_ZN10extensions38NetworkingPrivateSetPropertiesFunctionD1Ev = hidden unnamed_addr alias void (%"class.extensions::NetworkingPrivateSetPropertiesFunction"*), void (%"class.extensions::NetworkingPrivateSetPropertiesFunction"*)* @_ZN10extensions38NetworkingPrivateSetPropertiesFunctionD2Ev
@_ZN10extensions38NetworkingPrivateCreateNetworkFunctionD1Ev = hidden unnamed_addr alias void (%"class.extensions::NetworkingPrivateCreateNetworkFunction"*), void (%"class.extensions::NetworkingPrivateCreateNetworkFunction"*)* @_ZN10extensions38NetworkingPrivateCreateNetworkFunctionD2Ev
@_ZN10extensions38NetworkingPrivateForgetNetworkFunctionD1Ev = hidden unnamed_addr alias void (%"class.extensions::NetworkingPrivateForgetNetworkFunction"*), void (%"class.extensions::NetworkingPrivateForgetNetworkFunction"*)* @_ZN10extensions38NetworkingPrivateForgetNetworkFunctionD2Ev
@_ZN10extensions36NetworkingPrivateGetNetworksFunctionD1Ev = hidden unnamed_addr alias void (%"class.extensions::NetworkingPrivateGetNetworksFunction"*), void (%"class.extensions::NetworkingPrivateGetNetworksFunction"*)* @_ZN10extensions36NetworkingPrivateGetNetworksFunctionD2Ev
@_ZN10extensions43NetworkingPrivateGetVisibleNetworksFunctionD1Ev = hidden unnamed_addr alias void (%"class.extensions::NetworkingPrivateGetVisibleNetworksFunction"*), void (%"class.extensions::NetworkingPrivateGetVisibleNetworksFunction"*)* @_ZN10extensions43NetworkingPrivateGetVisibleNetworksFunctionD2Ev
@_ZN10extensions47NetworkingPrivateGetEnabledNetworkTypesFunctionD1Ev = hidden unnamed_addr alias void (%"class.extensions::NetworkingPrivateGetEnabledNetworkTypesFunction"*), void (%"class.extensions::NetworkingPrivateGetEnabledNetworkTypesFunction"*)* @_ZN10extensions47NetworkingPrivateGetEnabledNetworkTypesFunctionD2Ev
@_ZN10extensions40NetworkingPrivateGetDeviceStatesFunctionD1Ev = hidden unnamed_addr alias void (%"class.extensions::NetworkingPrivateGetDeviceStatesFunction"*), void (%"class.extensions::NetworkingPrivateGetDeviceStatesFunction"*)* @_ZN10extensions40NetworkingPrivateGetDeviceStatesFunctionD2Ev
@_ZN10extensions42NetworkingPrivateEnableNetworkTypeFunctionD1Ev = hidden unnamed_addr alias void (%"class.extensions::NetworkingPrivateEnableNetworkTypeFunction"*), void (%"class.extensions::NetworkingPrivateEnableNetworkTypeFunction"*)* @_ZN10extensions42NetworkingPrivateEnableNetworkTypeFunctionD2Ev
@_ZN10extensions43NetworkingPrivateDisableNetworkTypeFunctionD1Ev = hidden unnamed_addr alias void (%"class.extensions::NetworkingPrivateDisableNetworkTypeFunction"*), void (%"class.extensions::NetworkingPrivateDisableNetworkTypeFunction"*)* @_ZN10extensions43NetworkingPrivateDisableNetworkTypeFunctionD2Ev
@_ZN10extensions43NetworkingPrivateRequestNetworkScanFunctionD1Ev = hidden unnamed_addr alias void (%"class.extensions::NetworkingPrivateRequestNetworkScanFunction"*), void (%"class.extensions::NetworkingPrivateRequestNetworkScanFunction"*)* @_ZN10extensions43NetworkingPrivateRequestNetworkScanFunctionD2Ev
@_ZN10extensions37NetworkingPrivateStartConnectFunctionD1Ev = hidden unnamed_addr alias void (%"class.extensions::NetworkingPrivateStartConnectFunction"*), void (%"class.extensions::NetworkingPrivateStartConnectFunction"*)* @_ZN10extensions37NetworkingPrivateStartConnectFunctionD2Ev
@_ZN10extensions40NetworkingPrivateStartDisconnectFunctionD1Ev = hidden unnamed_addr alias void (%"class.extensions::NetworkingPrivateStartDisconnectFunction"*), void (%"class.extensions::NetworkingPrivateStartDisconnectFunction"*)* @_ZN10extensions40NetworkingPrivateStartDisconnectFunctionD2Ev
@_ZN10extensions38NetworkingPrivateStartActivateFunctionD1Ev = hidden unnamed_addr alias void (%"class.extensions::NetworkingPrivateStartActivateFunction"*), void (%"class.extensions::NetworkingPrivateStartActivateFunction"*)* @_ZN10extensions38NetworkingPrivateStartActivateFunctionD2Ev
@_ZN10extensions47NetworkingPrivateGetCaptivePortalStatusFunctionD1Ev = hidden unnamed_addr alias void (%"class.extensions::NetworkingPrivateGetCaptivePortalStatusFunction"*), void (%"class.extensions::NetworkingPrivateGetCaptivePortalStatusFunction"*)* @_ZN10extensions47NetworkingPrivateGetCaptivePortalStatusFunctionD2Ev
@_ZN10extensions42NetworkingPrivateUnlockCellularSimFunctionD1Ev = hidden unnamed_addr alias void (%"class.extensions::NetworkingPrivateUnlockCellularSimFunction"*), void (%"class.extensions::NetworkingPrivateUnlockCellularSimFunction"*)* @_ZN10extensions42NetworkingPrivateUnlockCellularSimFunctionD2Ev
@_ZN10extensions44NetworkingPrivateSetCellularSimStateFunctionD1Ev = hidden unnamed_addr alias void (%"class.extensions::NetworkingPrivateSetCellularSimStateFunction"*), void (%"class.extensions::NetworkingPrivateSetCellularSimStateFunction"*)* @_ZN10extensions44NetworkingPrivateSetCellularSimStateFunctionD2Ev
@_ZN10extensions52NetworkingPrivateSelectCellularMobileNetworkFunctionD1Ev = hidden unnamed_addr alias void (%"class.extensions::NetworkingPrivateSelectCellularMobileNetworkFunction"*), void (%"class.extensions::NetworkingPrivateSelectCellularMobileNetworkFunction"*)* @_ZN10extensions52NetworkingPrivateSelectCellularMobileNetworkFunctionD2Ev
@_ZN10extensions40NetworkingPrivateGetGlobalPolicyFunctionD1Ev = hidden unnamed_addr alias void (%"class.extensions::NetworkingPrivateGetGlobalPolicyFunction"*), void (%"class.extensions::NetworkingPrivateGetGlobalPolicyFunction"*)* @_ZN10extensions40NetworkingPrivateGetGlobalPolicyFunctionD2Ev
@_ZN10extensions44NetworkingPrivateGetCertificateListsFunctionD1Ev = hidden unnamed_addr alias void (%"class.extensions::NetworkingPrivateGetCertificateListsFunction"*), void (%"class.extensions::NetworkingPrivateGetCertificateListsFunction"*)* @_ZN10extensions44NetworkingPrivateGetCertificateListsFunctionD2Ev

; Function Attrs: nounwind
declare void @_ZN17ExtensionFunctionD2Ev(%class.ExtensionFunction*) unnamed_addr #0

; Function Attrs: nounwind ssp uwtable
define hidden void @_ZN10extensions38NetworkingPrivateGetPropertiesFunctionD2Ev(%"class.extensions::NetworkingPrivateGetPropertiesFunction"*) unnamed_addr #1 align 2 {
  %2 = bitcast %"class.extensions::NetworkingPrivateGetPropertiesFunction"* %0 to %class.ExtensionFunction*
  tail call void @_ZN17ExtensionFunctionD2Ev(%class.ExtensionFunction* %2) #10
  ret void
}

; Function Attrs: nounwind ssp uwtable
define hidden void @_ZN10extensions38NetworkingPrivateGetPropertiesFunctionD0Ev(%"class.extensions::NetworkingPrivateGetPropertiesFunction"*) unnamed_addr #1 align 2 {
  %2 = bitcast %"class.extensions::NetworkingPrivateGetPropertiesFunction"* %0 to %class.ExtensionFunction*
  tail call void @_ZN17ExtensionFunctionD2Ev(%class.ExtensionFunction* %2) #10
  %3 = bitcast %"class.extensions::NetworkingPrivateGetPropertiesFunction"* %0 to i8*
  tail call void @_ZdlPv(i8* %3) #11
  ret void
}

; Function Attrs: nobuiltin nounwind
declare void @_ZdlPv(i8*) local_unnamed_addr #2

; Function Attrs: nounwind ssp uwtable
define hidden %"class.ExtensionFunction::ResponseActionObject"* @_ZN10extensions38NetworkingPrivateGetPropertiesFunction3RunEv(%"class.extensions::NetworkingPrivateGetPropertiesFunction"*) unnamed_addr #1 align 2 {
  %2 = alloca %"class.base::OnceCallback.141", align 8
  %3 = bitcast %"class.extensions::NetworkingPrivateGetPropertiesFunction"* %0 to %class.ExtensionFunction*
  %4 = getelementptr inbounds %"class.extensions::NetworkingPrivateGetPropertiesFunction", %"class.extensions::NetworkingPrivateGetPropertiesFunction"* %0, i64 0, i32 0, i32 4, i32 0, i32 0, i32 0
  %5 = load %"class.base::ListValue"*, %"class.base::ListValue"** %4, align 8
  %6 = tail call %"struct.extensions::api::networking_private::GetProperties::Params"* @_ZN10extensions3api18networking_private13GetProperties6Params6CreateERKN4base9ListValueE(%"class.base::ListValue"* dereferenceable(32) %5) #10
  %7 = icmp eq %"struct.extensions::api::networking_private::GetProperties::Params"* %6, null
  br i1 %7, label %36, label %8

8:                                                ; preds = %1
  %9 = tail call %"class.content::BrowserContext"* @_ZNK17ExtensionFunction15browser_contextEv(%class.ExtensionFunction* %3) #10
  %10 = tail call %"class.extensions::NetworkingPrivateDelegate"* @_ZN10extensions32NetworkingPrivateDelegateFactory20GetForBrowserContextEPN7content14BrowserContextE(%"class.content::BrowserContext"* %9) #10
  %11 = getelementptr inbounds %"struct.extensions::api::networking_private::GetProperties::Params", %"struct.extensions::api::networking_private::GetProperties::Params"* %6, i64 0, i32 0
  %12 = tail call i8* @_Znwm(i64 56) #11, !noalias !2
  %13 = bitcast i8* %12 to %"class.base::internal::BindStateBase"*
  tail call void @_ZN4base8internal13BindStateBaseC2EPFvvEPFvPKS1_E(%"class.base::internal::BindStateBase"* nonnull %13, void ()* bitcast (void (%"class.base::internal::BindStateBase"*, %"class.absl::optional"*, %"class.absl::optional.143"*)* @_ZN4base8internal7InvokerINS0_9BindStateIMN10extensions38NetworkingPrivateGetPropertiesFunctionEFvN4absl8optionalINS_5ValueEEENS6_INSt3__112basic_stringIcNS9_11char_traitsIcEENS9_9allocatorIcEEEEEEEJ13scoped_refptrIS4_EEEEFvS8_SG_EE7RunOnceEPNS0_13BindStateBaseEOS8_OSG_ to void ()*), void (%"class.base::internal::BindStateBase"*)* nonnull @_ZN4base8internal9BindStateIMN10extensions38NetworkingPrivateGetPropertiesFunctionEFvN4absl8optionalINS_5ValueEEENS5_INSt3__112basic_stringIcNS8_11char_traitsIcEENS8_9allocatorIcEEEEEEEJ13scoped_refptrIS3_EEE7DestroyEPKNS0_13BindStateBaseE) #10, !noalias !2
  %14 = getelementptr inbounds i8, i8* %12, i64 32
  %15 = bitcast i8* %14 to <2 x i64>*
  store <2 x i64> <i64 ptrtoint (void (%"class.extensions::NetworkingPrivateGetPropertiesFunction"*, %"class.absl::optional"*, %"class.absl::optional.143"*)* @_ZN10extensions38NetworkingPrivateGetPropertiesFunction6ResultEN4absl8optionalIN4base5ValueEEENS2_INSt3__112basic_stringIcNS6_11char_traitsIcEENS6_9allocatorIcEEEEEE to i64), i64 0>, <2 x i64>* %15, align 8, !noalias !2
  %16 = getelementptr inbounds i8, i8* %12, i64 48
  %17 = bitcast i8* %16 to %"class.extensions::NetworkingPrivateGetPropertiesFunction"**
  store %"class.extensions::NetworkingPrivateGetPropertiesFunction"* %0, %"class.extensions::NetworkingPrivateGetPropertiesFunction"** %17, align 8, !noalias !2
  %18 = icmp eq %"class.extensions::NetworkingPrivateGetPropertiesFunction"* %0, null
  br i1 %18, label %22, label %19

19:                                               ; preds = %8
  %20 = getelementptr inbounds %"class.extensions::NetworkingPrivateGetPropertiesFunction", %"class.extensions::NetworkingPrivateGetPropertiesFunction"* %0, i64 0, i32 0, i32 1, i32 0, i32 0, i32 0, i32 0, i32 0, i32 0, i32 0, i32 0
  %21 = atomicrmw add i32* %20, i32 1 monotonic, !noalias !2
  br label %22

22:                                               ; preds = %8, %19
  %23 = bitcast %"class.base::OnceCallback.141"* %2 to i8**
  store i8* %12, i8** %23, align 8, !alias.scope !2
  %24 = bitcast %"class.extensions::NetworkingPrivateDelegate"* %10 to void (%"class.extensions::NetworkingPrivateDelegate"*, %"class.std::__1::basic_string"*, %"class.base::OnceCallback.141"*)***
  %25 = load void (%"class.extensions::NetworkingPrivateDelegate"*, %"class.std::__1::basic_string"*, %"class.base::OnceCallback.141"*)**, void (%"class.extensions::NetworkingPrivateDelegate"*, %"class.std::__1::basic_string"*, %"class.base::OnceCallback.141"*)*** %24, align 8
  %26 = getelementptr inbounds void (%"class.extensions::NetworkingPrivateDelegate"*, %"class.std::__1::basic_string"*, %"class.base::OnceCallback.141"*)*, void (%"class.extensions::NetworkingPrivateDelegate"*, %"class.std::__1::basic_string"*, %"class.base::OnceCallback.141"*)** %25, i64 3
  %27 = load void (%"class.extensions::NetworkingPrivateDelegate"*, %"class.std::__1::basic_string"*, %"class.base::OnceCallback.141"*)*, void (%"class.extensions::NetworkingPrivateDelegate"*, %"class.std::__1::basic_string"*, %"class.base::OnceCallback.141"*)** %26, align 8
  call void %27(%"class.extensions::NetworkingPrivateDelegate"* %10, %"class.std::__1::basic_string"* dereferenceable(24) %11, %"class.base::OnceCallback.141"* nonnull %2) #10
  %28 = getelementptr inbounds %"class.base::OnceCallback.141", %"class.base::OnceCallback.141"* %2, i64 0, i32 0
  call void @_ZN4base8internal12CallbackBaseD2Ev(%"class.base::internal::CallbackBase"* nonnull %28) #10
  %29 = getelementptr inbounds %"class.extensions::NetworkingPrivateGetPropertiesFunction", %"class.extensions::NetworkingPrivateGetPropertiesFunction"* %0, i64 0, i32 0, i32 23
  %30 = load i8, i8* %29, align 8, !range !7
  %31 = icmp eq i8 %30, 0
  br i1 %31, label %34, label %32

32:                                               ; preds = %22
  %33 = call %"class.ExtensionFunction::ResponseActionObject"* @_ZN17ExtensionFunction16AlreadyRespondedEv(%class.ExtensionFunction* %3) #10
  br label %42

34:                                               ; preds = %22
  %35 = call %"class.ExtensionFunction::ResponseActionObject"* @_ZN17ExtensionFunction12RespondLaterEv(%class.ExtensionFunction* %3) #10
  br label %42

36:                                               ; preds = %1
  %37 = bitcast %"class.extensions::NetworkingPrivateGetPropertiesFunction"* %0 to void (%class.ExtensionFunction*)***
  %38 = load void (%class.ExtensionFunction*)**, void (%class.ExtensionFunction*)*** %37, align 8
  %39 = getelementptr inbounds void (%class.ExtensionFunction*)*, void (%class.ExtensionFunction*)** %38, i64 6
  %40 = load void (%class.ExtensionFunction*)*, void (%class.ExtensionFunction*)** %39, align 8
  tail call void %40(%class.ExtensionFunction* %3) #10
  %41 = tail call %"class.ExtensionFunction::ResponseActionObject"* @_ZN17ExtensionFunction17ValidationFailureEPS_(%class.ExtensionFunction* %3) #10
  br label %45

42:                                               ; preds = %32, %34
  %43 = phi %"class.ExtensionFunction::ResponseActionObject"* [ %35, %34 ], [ %33, %32 ]
  call void @_ZN10extensions3api18networking_private13GetProperties6ParamsD1Ev(%"struct.extensions::api::networking_private::GetProperties::Params"* nonnull %6) #10
  %44 = bitcast %"struct.extensions::api::networking_private::GetProperties::Params"* %6 to i8*
  call void @_ZdlPv(i8* %44) #11
  br label %45

45:                                               ; preds = %36, %42
  %46 = phi %"class.ExtensionFunction::ResponseActionObject"* [ %41, %36 ], [ %43, %42 ]
  ret %"class.ExtensionFunction::ResponseActionObject"* %46
}

; Function Attrs: argmemonly nounwind
declare void @llvm.lifetime.start.p0i8(i64 immarg, i8* nocapture) #3

declare %"struct.extensions::api::networking_private::GetProperties::Params"* @_ZN10extensions3api18networking_private13GetProperties6Params6CreateERKN4base9ListValueE(%"class.base::ListValue"* dereferenceable(32)) local_unnamed_addr #4

declare %"class.ExtensionFunction::ResponseActionObject"* @_ZN17ExtensionFunction17ValidationFailureEPS_(%class.ExtensionFunction*) local_unnamed_addr #4

declare %"class.content::BrowserContext"* @_ZNK17ExtensionFunction15browser_contextEv(%class.ExtensionFunction*) local_unnamed_addr #4

; Function Attrs: nounwind ssp uwtable
define hidden void @_ZN10extensions38NetworkingPrivateGetPropertiesFunction6ResultEN4absl8optionalIN4base5ValueEEENS2_INSt3__112basic_stringIcNS6_11char_traitsIcEENS6_9allocatorIcEEEEEE(%"class.extensions::NetworkingPrivateGetPropertiesFunction"*, %"class.absl::optional"*, %"class.absl::optional.143"*) #1 align 2 {
  %4 = alloca %"class.std::__1::basic_string", align 8
  %5 = alloca %"class.std::__1::vector.116", align 8
  %6 = alloca %"class.base::Value", align 8
  %7 = getelementptr inbounds %"class.absl::optional", %"class.absl::optional"* %1, i64 0, i32 0, i32 0, i32 0, i32 0
  %8 = load i8, i8* %7, align 8, !range !7
  %9 = icmp eq i8 %8, 0
  br i1 %9, label %10, label %20

10:                                               ; preds = %3
  %11 = bitcast %"class.extensions::NetworkingPrivateGetPropertiesFunction"* %0 to %class.ExtensionFunction*
  call void @_ZNKR4absl8optionalINSt3__112basic_stringIcNS1_11char_traitsIcEENS1_9allocatorIcEEEEE8value_orIRA7_KcEES7_OT_(%"class.std::__1::basic_string"* nonnull sret %4, %"class.absl::optional.143"* %2, [7 x i8]* nonnull dereferenceable(7) @.str)
  %12 = call %"class.ExtensionFunction::ResponseValueObject"* @_ZN17ExtensionFunction5ErrorENSt3__112basic_stringIcNS0_11char_traitsIcEENS0_9allocatorIcEEEE(%class.ExtensionFunction* %11, %"class.std::__1::basic_string"* nonnull %4) #10
  call void @_ZN17ExtensionFunction7RespondENSt3__110unique_ptrINS_19ResponseValueObjectENS0_14default_deleteIS2_EEEE(%class.ExtensionFunction* %11, %"class.ExtensionFunction::ResponseValueObject"* %12) #10
  %13 = bitcast %"class.std::__1::basic_string"* %4 to %"struct.std::__1::basic_string<char, std::__1::char_traits<char>, std::__1::allocator<char> >::__short"*
  %14 = getelementptr inbounds %"struct.std::__1::basic_string<char, std::__1::char_traits<char>, std::__1::allocator<char> >::__short", %"struct.std::__1::basic_string<char, std::__1::char_traits<char>, std::__1::allocator<char> >::__short"* %13, i64 0, i32 1, i32 0
  %15 = load i8, i8* %14, align 1
  %16 = icmp slt i8 %15, 0
  br i1 %16, label %17, label %55

17:                                               ; preds = %10
  %18 = getelementptr inbounds %"class.std::__1::basic_string", %"class.std::__1::basic_string"* %4, i64 0, i32 0, i32 0, i32 0, i32 0, i32 0, i32 0
  %19 = load i8*, i8** %18, align 8
  call void @_ZdlPv(i8* %19) #11
  br label %55

20:                                               ; preds = %3
  %21 = getelementptr inbounds %"class.absl::optional", %"class.absl::optional"* %1, i64 0, i32 0, i32 0, i32 0, i32 1, i32 0
  %22 = bitcast %"class.extensions::NetworkingPrivateGetPropertiesFunction"* %0 to %class.ExtensionFunction*
  %23 = getelementptr inbounds %"class.extensions::NetworkingPrivateGetPropertiesFunction", %"class.extensions::NetworkingPrivateGetPropertiesFunction"* %0, i64 0, i32 0, i32 3, i32 0
  %24 = load %"class.extensions::Extension"*, %"class.extensions::Extension"** %23, align 8
  %25 = getelementptr inbounds %"class.extensions::NetworkingPrivateGetPropertiesFunction", %"class.extensions::NetworkingPrivateGetPropertiesFunction"* %0, i64 0, i32 0, i32 19
  %26 = load i32, i32* %25, align 8
  %27 = getelementptr inbounds %"class.extensions::NetworkingPrivateGetPropertiesFunction", %"class.extensions::NetworkingPrivateGetPropertiesFunction"* %0, i64 0, i32 0, i32 13
  call fastcc void @_ZN10extensions12_GLOBAL__N_116FilterPropertiesEPN4base5ValueENS0_14PropertiesTypeEPKNS_9ExtensionENS_7Feature7ContextERK4GURL(%"class.std::__1::vector.116"* nonnull sret %5, %"class.base::Value"* %21, i32 0, %"class.extensions::Extension"* %24, i32 %26, %class.GURL* dereferenceable(120) %27)
  %28 = getelementptr inbounds %"class.std::__1::vector.116", %"class.std::__1::vector.116"* %5, i64 0, i32 0, i32 0
  %29 = load %"class.std::__1::basic_string"*, %"class.std::__1::basic_string"** %28, align 8
  %30 = icmp eq %"class.std::__1::basic_string"* %29, null
  %31 = bitcast %"class.std::__1::basic_string"* %29 to i8*
  br i1 %30, label %49, label %32

32:                                               ; preds = %20
  %33 = getelementptr inbounds %"class.std::__1::vector.116", %"class.std::__1::vector.116"* %5, i64 0, i32 0, i32 1
  %34 = load %"class.std::__1::basic_string"*, %"class.std::__1::basic_string"** %33, align 8
  %35 = icmp eq %"class.std::__1::basic_string"* %34, %29
  br i1 %35, label %48, label %36

36:                                               ; preds = %32, %46
  %37 = phi %"class.std::__1::basic_string"* [ %38, %46 ], [ %34, %32 ]
  %38 = getelementptr inbounds %"class.std::__1::basic_string", %"class.std::__1::basic_string"* %37, i64 -1
  %39 = bitcast %"class.std::__1::basic_string"* %38 to %"struct.std::__1::basic_string<char, std::__1::char_traits<char>, std::__1::allocator<char> >::__short"*
  %40 = getelementptr inbounds %"struct.std::__1::basic_string<char, std::__1::char_traits<char>, std::__1::allocator<char> >::__short", %"struct.std::__1::basic_string<char, std::__1::char_traits<char>, std::__1::allocator<char> >::__short"* %39, i64 0, i32 1, i32 0
  %41 = load i8, i8* %40, align 1
  %42 = icmp slt i8 %41, 0
  br i1 %42, label %43, label %46

43:                                               ; preds = %36
  %44 = getelementptr inbounds %"class.std::__1::basic_string", %"class.std::__1::basic_string"* %38, i64 0, i32 0, i32 0, i32 0, i32 0, i32 0, i32 0
  %45 = load i8*, i8** %44, align 8
  tail call void @_ZdlPv(i8* %45) #11
  br label %46

46:                                               ; preds = %43, %36
  %47 = icmp eq %"class.std::__1::basic_string"* %38, %29
  br i1 %47, label %48, label %36

48:                                               ; preds = %46, %32
  store %"class.std::__1::basic_string"* %29, %"class.std::__1::basic_string"** %33, align 8
  tail call void @_ZdlPv(i8* %31) #11
  br label %49

49:                                               ; preds = %20, %48
  %50 = load i8, i8* %7, align 8, !range !7
  %51 = icmp eq i8 %50, 0
  br i1 %51, label %52, label %53, !prof !8

52:                                               ; preds = %49
  tail call void @llvm.trap() #10
  unreachable

53:                                               ; preds = %49
  call void @_ZN4base5ValueC1EOS0_(%"class.base::Value"* nonnull %6, %"class.base::Value"* dereferenceable(32) %21) #10
  %54 = call %"class.ExtensionFunction::ResponseValueObject"* @_ZN17ExtensionFunction11OneArgumentEN4base5ValueE(%class.ExtensionFunction* %22, %"class.base::Value"* nonnull %6) #10
  call void @_ZN17ExtensionFunction7RespondENSt3__110unique_ptrINS_19ResponseValueObjectENS0_14default_deleteIS2_EEEE(%class.ExtensionFunction* %22, %"class.ExtensionFunction::ResponseValueObject"* %54) #10
  call void @_ZN4base5ValueD1Ev(%"class.base::Value"* nonnull %6) #10
  br label %55

55:                                               ; preds = %17, %10, %53
  ret void
}

; Function Attrs: argmemonly nounwind
declare void @llvm.lifetime.end.p0i8(i64 immarg, i8* nocapture) #3

declare %"class.ExtensionFunction::ResponseActionObject"* @_ZN17ExtensionFunction16AlreadyRespondedEv(%class.ExtensionFunction*) local_unnamed_addr #4

declare %"class.ExtensionFunction::ResponseActionObject"* @_ZN17ExtensionFunction12RespondLaterEv(%class.ExtensionFunction*) local_unnamed_addr #4

declare void @_ZN17ExtensionFunction7RespondENSt3__110unique_ptrINS_19ResponseValueObjectENS0_14default_deleteIS2_EEEE(%class.ExtensionFunction*, %"class.ExtensionFunction::ResponseValueObject"*) local_unnamed_addr #4

declare %"class.ExtensionFunction::ResponseValueObject"* @_ZN17ExtensionFunction5ErrorENSt3__112basic_stringIcNS0_11char_traitsIcEENS0_9allocatorIcEEEE(%class.ExtensionFunction*, %"class.std::__1::basic_string"*) local_unnamed_addr #4

; Function Attrs: nounwind ssp uwtable
define linkonce_odr hidden void @_ZNKR4absl8optionalINSt3__112basic_stringIcNS1_11char_traitsIcEENS1_9allocatorIcEEEEE8value_orIRA7_KcEES7_OT_(%"class.std::__1::basic_string"* noalias sret, %"class.absl::optional.143"*, [7 x i8]* dereferenceable(7)) local_unnamed_addr #1 comdat align 2 {
  %4 = getelementptr inbounds %"class.absl::optional.143", %"class.absl::optional.143"* %1, i64 0, i32 0, i32 0, i32 0, i32 0
  %5 = load i8, i8* %4, align 8, !range !7
  %6 = icmp eq i8 %5, 0
  br i1 %6, label %21, label %7

7:                                                ; preds = %3
  %8 = getelementptr inbounds %"class.absl::optional.143", %"class.absl::optional.143"* %1, i64 0, i32 0, i32 0, i32 0, i32 1, i32 0
  %9 = bitcast %"class.std::__1::basic_string"* %8 to %"struct.std::__1::basic_string<char, std::__1::char_traits<char>, std::__1::allocator<char> >::__short"*
  %10 = getelementptr inbounds %"struct.std::__1::basic_string<char, std::__1::char_traits<char>, std::__1::allocator<char> >::__short", %"struct.std::__1::basic_string<char, std::__1::char_traits<char>, std::__1::allocator<char> >::__short"* %9, i64 0, i32 1, i32 0
  %11 = load i8, i8* %10, align 1
  %12 = icmp slt i8 %11, 0
  br i1 %12, label %16, label %13

13:                                               ; preds = %7
  %14 = bitcast %"class.std::__1::basic_string"* %0 to i8*
  %15 = bitcast %"class.std::__1::basic_string"* %8 to i8*
  tail call void @llvm.memcpy.p0i8.p0i8.i64(i8* align 8 %14, i8* align 8 %15, i64 24, i1 false) #10
  br label %48

16:                                               ; preds = %7
  %17 = getelementptr inbounds %"class.std::__1::basic_string", %"class.std::__1::basic_string"* %8, i64 0, i32 0, i32 0, i32 0, i32 0, i32 0, i32 0
  %18 = load i8*, i8** %17, align 8
  %19 = getelementptr inbounds %"class.absl::optional.143", %"class.absl::optional.143"* %1, i64 0, i32 0, i32 0, i32 0, i32 1, i32 0, i32 0, i32 0, i32 0, i32 0, i32 0, i32 1
  %20 = load i64, i64* %19, align 8
  tail call void @_ZNSt3__112basic_stringIcNS_11char_traitsIcEENS_9allocatorIcEEE25__init_copy_ctor_externalEPKcm(%"class.std::__1::basic_string"* %0, i8* %18, i64 %20) #10
  br label %48

21:                                               ; preds = %3
  %22 = getelementptr inbounds [7 x i8], [7 x i8]* %2, i64 0, i64 0
  %23 = tail call i64 @strlen(i8* %22) #10
  %24 = icmp ugt i64 %23, -17
  br i1 %24, label %25, label %27

25:                                               ; preds = %21
  %26 = bitcast %"class.std::__1::basic_string"* %0 to %"class.std::__1::__basic_string_common"*
  tail call void @_ZNKSt3__121__basic_string_commonILb1EE20__throw_length_errorEv(%"class.std::__1::__basic_string_common"* %26) #12
  unreachable

27:                                               ; preds = %21
  %28 = icmp ult i64 %23, 23
  br i1 %28, label %37, label %29

29:                                               ; preds = %27
  %30 = add nuw i64 %23, 16
  %31 = and i64 %30, -16
  %32 = tail call i8* @_Znwm(i64 %31) #11
  %33 = getelementptr inbounds %"class.std::__1::basic_string", %"class.std::__1::basic_string"* %0, i64 0, i32 0, i32 0, i32 0, i32 0, i32 0, i32 0
  store i8* %32, i8** %33, align 8
  %34 = or i64 %31, -9223372036854775808
  %35 = getelementptr inbounds %"class.std::__1::basic_string", %"class.std::__1::basic_string"* %0, i64 0, i32 0, i32 0, i32 0, i32 0, i32 0, i32 2
  store i64 %34, i64* %35, align 8
  %36 = getelementptr inbounds %"class.std::__1::basic_string", %"class.std::__1::basic_string"* %0, i64 0, i32 0, i32 0, i32 0, i32 0, i32 0, i32 1
  store i64 %23, i64* %36, align 8
  br label %43

37:                                               ; preds = %27
  %38 = trunc i64 %23 to i8
  %39 = bitcast %"class.std::__1::basic_string"* %0 to %"struct.std::__1::basic_string<char, std::__1::char_traits<char>, std::__1::allocator<char> >::__short"*
  %40 = getelementptr inbounds %"struct.std::__1::basic_string<char, std::__1::char_traits<char>, std::__1::allocator<char> >::__short", %"struct.std::__1::basic_string<char, std::__1::char_traits<char>, std::__1::allocator<char> >::__short"* %39, i64 0, i32 1, i32 0
  store i8 %38, i8* %40, align 1
  %41 = bitcast %"class.std::__1::basic_string"* %0 to i8*
  %42 = icmp eq i64 %23, 0
  br i1 %42, label %45, label %43

43:                                               ; preds = %37, %29
  %44 = phi i8* [ %32, %29 ], [ %41, %37 ]
  tail call void @llvm.memcpy.p0i8.p0i8.i64(i8* align 1 %44, i8* align 1 %22, i64 %23, i1 false) #10
  br label %45

45:                                               ; preds = %37, %43
  %46 = phi i8* [ %41, %37 ], [ %44, %43 ]
  %47 = getelementptr inbounds i8, i8* %46, i64 %23
  store i8 0, i8* %47, align 1
  br label %48

48:                                               ; preds = %16, %13, %45
  ret void
}

; Function Attrs: nounwind ssp uwtable
define internal fastcc void @_ZN10extensions12_GLOBAL__N_116FilterPropertiesEPN4base5ValueENS0_14PropertiesTypeEPKNS_9ExtensionENS_7Feature7ContextERK4GURL(%"class.std::__1::vector.116"* noalias nocapture sret, %"class.base::Value"*, i32, %"class.extensions::Extension"*, i32, %class.GURL* dereferenceable(120)) unnamed_addr #1 {
  %7 = alloca %"class.logging::CheckError", align 8
  %8 = alloca %"class.extensions::Feature::Availability", align 8
  %9 = alloca %"class.std::__1::basic_string", align 8
  %10 = alloca %"class.std::__1::vector.116", align 16
  %11 = alloca %"class.std::__1::basic_string", align 8
  %12 = bitcast %"class.extensions::Feature::Availability"* %8 to i8*
  call void @llvm.lifetime.start.p0i8(i64 32, i8* nonnull %12) #10
  %13 = tail call %"class.extensions::ExtensionAPI"* @_ZN10extensions12ExtensionAPI17GetSharedInstanceEv() #10
  %14 = bitcast %"class.std::__1::basic_string"* %9 to i8*
  call void @llvm.lifetime.start.p0i8(i64 24, i8* nonnull %14) #10
  %15 = bitcast %"class.std::__1::basic_string"* %9 to %"struct.std::__1::basic_string<char, std::__1::char_traits<char>, std::__1::allocator<char> >::__short"*
  %16 = getelementptr inbounds %"struct.std::__1::basic_string<char, std::__1::char_traits<char>, std::__1::allocator<char> >::__short", %"struct.std::__1::basic_string<char, std::__1::char_traits<char>, std::__1::allocator<char> >::__short"* %15, i64 0, i32 1, i32 0
  store i8 17, i8* %16, align 1
  call void @llvm.memcpy.p0i8.p0i8.i64(i8* nonnull align 8 %14, i8* align 1 getelementptr inbounds ([18 x i8], [18 x i8]* @.str.28, i64 0, i64 0), i64 17, i1 false) #10
  %17 = getelementptr inbounds i8, i8* %14, i64 17
  store i8 0, i8* %17, align 1
  call void @_ZN10extensions12ExtensionAPI11IsAvailableERKNSt3__112basic_stringIcNS1_11char_traitsIcEENS1_9allocatorIcEEEEPKNS_9ExtensionENS_7Feature7ContextERK4GURLNS_16CheckAliasStatusE(%"class.extensions::Feature::Availability"* nonnull sret %8, %"class.extensions::ExtensionAPI"* %13, %"class.std::__1::basic_string"* nonnull dereferenceable(24) %9, %"class.extensions::Extension"* %3, i32 %4, %class.GURL* dereferenceable(120) %5, i32 1) #10
  %18 = getelementptr inbounds %"class.extensions::Feature::Availability", %"class.extensions::Feature::Availability"* %8, i64 0, i32 0
  %19 = load i32, i32* %18, align 8
  %20 = icmp eq i32 %19, 0
  %21 = getelementptr inbounds %"class.extensions::Feature::Availability", %"class.extensions::Feature::Availability"* %8, i64 0, i32 1
  %22 = bitcast %"class.std::__1::basic_string"* %21 to %"struct.std::__1::basic_string<char, std::__1::char_traits<char>, std::__1::allocator<char> >::__short"*
  %23 = getelementptr inbounds %"struct.std::__1::basic_string<char, std::__1::char_traits<char>, std::__1::allocator<char> >::__short", %"struct.std::__1::basic_string<char, std::__1::char_traits<char>, std::__1::allocator<char> >::__short"* %22, i64 0, i32 1, i32 0
  %24 = load i8, i8* %23, align 1
  %25 = icmp slt i8 %24, 0
  br i1 %25, label %26, label %29

26:                                               ; preds = %6
  %27 = getelementptr inbounds %"class.std::__1::basic_string", %"class.std::__1::basic_string"* %21, i64 0, i32 0, i32 0, i32 0, i32 0, i32 0, i32 0
  %28 = load i8*, i8** %27, align 8
  call void @_ZdlPv(i8* %28) #11
  br label %29

29:                                               ; preds = %26, %6
  %30 = load i8, i8* %16, align 1
  %31 = icmp slt i8 %30, 0
  br i1 %31, label %32, label %35

32:                                               ; preds = %29
  %33 = getelementptr inbounds %"class.std::__1::basic_string", %"class.std::__1::basic_string"* %9, i64 0, i32 0, i32 0, i32 0, i32 0, i32 0, i32 0
  %34 = load i8*, i8** %33, align 8
  call void @_ZdlPv(i8* %34) #11
  br label %35

35:                                               ; preds = %29, %32
  call void @llvm.lifetime.end.p0i8(i64 24, i8* nonnull %14) #10
  call void @llvm.lifetime.end.p0i8(i64 32, i8* nonnull %12) #10
  br i1 %20, label %36, label %38

36:                                               ; preds = %35
  %37 = bitcast %"class.std::__1::vector.116"* %0 to i8*
  call void @llvm.memset.p0i8.i64(i8* align 8 %37, i8 0, i64 24, i1 false) #10
  br label %109

38:                                               ; preds = %35
  %39 = icmp eq i32 %2, 0
  %40 = select i1 %39, i8** getelementptr inbounds ([16 x i8*], [16 x i8*]* @_ZN10extensions12_GLOBAL__N_127kPrivatePropertyPathsForGetE, i64 0, i64 0), i8** getelementptr inbounds ([8 x i8*], [8 x i8*]* @_ZN10extensions12_GLOBAL__N_127kPrivatePropertyPathsForSetE, i64 0, i64 0)
  %41 = select i1 %39, i64 16, i64 8
  %42 = bitcast %"class.std::__1::vector.116"* %10 to i8*
  call void @llvm.lifetime.start.p0i8(i64 24, i8* nonnull %42) #10
  %43 = getelementptr inbounds %"class.std::__1::vector.116", %"class.std::__1::vector.116"* %10, i64 0, i32 0, i32 1
  %44 = getelementptr inbounds %"class.std::__1::vector.116", %"class.std::__1::vector.116"* %10, i64 0, i32 0, i32 2, i32 0, i32 0
  call void @llvm.memset.p0i8.i64(i8* nonnull align 16 %42, i8 0, i64 24, i1 false) #10
  %45 = bitcast %"class.logging::CheckError"* %7 to i8*
  %46 = bitcast %"class.std::__1::basic_string"* %11 to i8*
  %47 = getelementptr inbounds %"class.std::__1::basic_string", %"class.std::__1::basic_string"* %11, i64 0, i32 0, i32 0, i32 0, i32 0, i32 0, i32 0
  %48 = getelementptr inbounds %"class.std::__1::basic_string", %"class.std::__1::basic_string"* %11, i64 0, i32 0, i32 0, i32 0, i32 0, i32 0, i32 2
  %49 = getelementptr inbounds %"class.std::__1::basic_string", %"class.std::__1::basic_string"* %11, i64 0, i32 0, i32 0, i32 0, i32 0, i32 0, i32 1
  %50 = bitcast %"class.std::__1::basic_string"* %11 to %"struct.std::__1::basic_string<char, std::__1::char_traits<char>, std::__1::allocator<char> >::__short"*
  %51 = getelementptr inbounds %"struct.std::__1::basic_string<char, std::__1::char_traits<char>, std::__1::allocator<char> >::__short", %"struct.std::__1::basic_string<char, std::__1::char_traits<char>, std::__1::allocator<char> >::__short"* %50, i64 0, i32 1, i32 0
  %52 = bitcast %"class.std::__1::basic_string"** %43 to i64*
  br label %61

53:                                               ; preds = %106
  %54 = bitcast %"class.std::__1::vector.116"* %10 to <2 x i64>*
  %55 = load <2 x i64>, <2 x i64>* %54, align 16
  %56 = bitcast %"class.std::__1::vector.116"* %0 to <2 x i64>*
  store <2 x i64> %55, <2 x i64>* %56, align 8
  %57 = bitcast %"class.std::__1::basic_string"** %44 to i64*
  %58 = load i64, i64* %57, align 16
  %59 = getelementptr inbounds %"class.std::__1::vector.116", %"class.std::__1::vector.116"* %0, i64 0, i32 0, i32 2, i32 0, i32 0
  %60 = bitcast %"class.std::__1::basic_string"** %59 to i64*
  store i64 %58, i64* %60, align 8
  call void @llvm.lifetime.end.p0i8(i64 24, i8* nonnull %42) #10
  br label %109

61:                                               ; preds = %38, %106
  %62 = phi i64 [ 0, %38 ], [ %107, %106 ]
  %63 = getelementptr inbounds i8*, i8** %40, i64 %62
  %64 = load i8*, i8** %63, align 8
  %65 = icmp eq i8* %64, null
  br i1 %65, label %68, label %66

66:                                               ; preds = %61
  %67 = call i64 @strlen(i8* nonnull %64) #10
  br label %70

68:                                               ; preds = %61
  call void @llvm.lifetime.start.p0i8(i64 8, i8* nonnull %45) #10
  call void @_ZN7logging10CheckError5CheckEPKciS2_(%"class.logging::CheckError"* nonnull sret %7, i8* getelementptr inbounds ([34 x i8], [34 x i8]* @.str.35, i64 0, i64 0), i32 125, i8* getelementptr inbounds ([2 x i8], [2 x i8]* @.str.36, i64 0, i64 0)) #10
  %69 = call dereferenceable(160) %"class.std::__1::basic_ostream"* @_ZN7logging10CheckError6streamEv(%"class.logging::CheckError"* nonnull %7) #10
  call void @_ZN7logging10CheckErrorD1Ev(%"class.logging::CheckError"* nonnull %7) #10
  call void @llvm.lifetime.end.p0i8(i64 8, i8* nonnull %45) #10
  br label %70

70:                                               ; preds = %66, %68
  %71 = phi i64 [ 0, %68 ], [ %67, %66 ]
  %72 = call zeroext i1 @_ZN4base5Value10RemovePathENS_16BasicStringPieceIcNSt3__111char_traitsIcEEEE(%"class.base::Value"* %1, i8* %64, i64 %71) #10
  br i1 %72, label %73, label %106

73:                                               ; preds = %70
  call void @llvm.lifetime.start.p0i8(i64 24, i8* nonnull %46) #10
  %74 = call i64 @strlen(i8* %64) #10
  %75 = icmp ugt i64 %74, -17
  br i1 %75, label %76, label %78

76:                                               ; preds = %73
  %77 = bitcast %"class.std::__1::basic_string"* %11 to %"class.std::__1::__basic_string_common"*
  call void @_ZNKSt3__121__basic_string_commonILb1EE20__throw_length_errorEv(%"class.std::__1::__basic_string_common"* nonnull %77) #12
  unreachable

78:                                               ; preds = %73
  %79 = icmp ult i64 %74, 23
  br i1 %79, label %85, label %80

80:                                               ; preds = %78
  %81 = add nuw i64 %74, 16
  %82 = and i64 %81, -16
  %83 = call i8* @_Znwm(i64 %82) #11
  store i8* %83, i8** %47, align 8
  %84 = or i64 %82, -9223372036854775808
  store i64 %84, i64* %48, align 8
  store i64 %74, i64* %49, align 8
  br label %88

85:                                               ; preds = %78
  %86 = trunc i64 %74 to i8
  store i8 %86, i8* %51, align 1
  %87 = icmp eq i64 %74, 0
  br i1 %87, label %90, label %88

88:                                               ; preds = %85, %80
  %89 = phi i8* [ %83, %80 ], [ %46, %85 ]
  call void @llvm.memcpy.p0i8.p0i8.i64(i8* nonnull align 1 %89, i8* align 1 %64, i64 %74, i1 false) #10
  br label %90

90:                                               ; preds = %85, %88
  %91 = phi i8* [ %46, %85 ], [ %89, %88 ]
  %92 = getelementptr inbounds i8, i8* %91, i64 %74
  store i8 0, i8* %92, align 1
  %93 = load %"class.std::__1::basic_string"*, %"class.std::__1::basic_string"** %43, align 8
  %94 = load %"class.std::__1::basic_string"*, %"class.std::__1::basic_string"** %44, align 16
  %95 = icmp ult %"class.std::__1::basic_string"* %93, %94
  br i1 %95, label %96, label %100

96:                                               ; preds = %90
  %97 = bitcast %"class.std::__1::basic_string"* %93 to i8*
  call void @llvm.memcpy.p0i8.p0i8.i64(i8* align 8 %97, i8* nonnull align 8 %46, i64 24, i1 false) #10
  call void @llvm.memset.p0i8.i64(i8* nonnull align 8 %46, i8 0, i64 24, i1 false) #10
  %98 = getelementptr inbounds %"class.std::__1::basic_string", %"class.std::__1::basic_string"* %93, i64 1
  %99 = ptrtoint %"class.std::__1::basic_string"* %98 to i64
  store i64 %99, i64* %52, align 8
  br label %105

100:                                              ; preds = %90
  call void @_ZNSt3__16vectorINS_12basic_stringIcNS_11char_traitsIcEENS_9allocatorIcEEEENS4_IS6_EEE21__push_back_slow_pathIS6_EEvOT_(%"class.std::__1::vector.116"* nonnull %10, %"class.std::__1::basic_string"* nonnull dereferenceable(24) %11) #10
  %101 = load i8, i8* %51, align 1
  %102 = icmp slt i8 %101, 0
  br i1 %102, label %103, label %105

103:                                              ; preds = %100
  %104 = load i8*, i8** %47, align 8
  call void @_ZdlPv(i8* %104) #11
  br label %105

105:                                              ; preds = %96, %100, %103
  call void @llvm.lifetime.end.p0i8(i64 24, i8* nonnull %46) #10
  br label %106

106:                                              ; preds = %70, %105
  %107 = add nuw nsw i64 %62, 1
  %108 = icmp ult i64 %107, %41
  br i1 %108, label %61, label %53

109:                                              ; preds = %53, %36
  ret void
}

declare %"class.ExtensionFunction::ResponseValueObject"* @_ZN17ExtensionFunction11OneArgumentEN4base5ValueE(%class.ExtensionFunction*, %"class.base::Value"*) local_unnamed_addr #4

; Function Attrs: nounwind
declare void @_ZN4base5ValueC1EOS0_(%"class.base::Value"*, %"class.base::Value"* dereferenceable(32)) unnamed_addr #0

; Function Attrs: nounwind
declare void @_ZN4base5ValueD1Ev(%"class.base::Value"*) unnamed_addr #0

; Function Attrs: nounwind ssp uwtable
define hidden void @_ZN10extensions45NetworkingPrivateGetManagedPropertiesFunctionD2Ev(%"class.extensions::NetworkingPrivateGetManagedPropertiesFunction"*) unnamed_addr #1 align 2 {
  %2 = bitcast %"class.extensions::NetworkingPrivateGetManagedPropertiesFunction"* %0 to %class.ExtensionFunction*
  tail call void @_ZN17ExtensionFunctionD2Ev(%class.ExtensionFunction* %2) #10
  ret void
}

; Function Attrs: nounwind ssp uwtable
define hidden void @_ZN10extensions45NetworkingPrivateGetManagedPropertiesFunctionD0Ev(%"class.extensions::NetworkingPrivateGetManagedPropertiesFunction"*) unnamed_addr #1 align 2 {
  %2 = bitcast %"class.extensions::NetworkingPrivateGetManagedPropertiesFunction"* %0 to %class.ExtensionFunction*
  tail call void @_ZN17ExtensionFunctionD2Ev(%class.ExtensionFunction* %2) #10
  %3 = bitcast %"class.extensions::NetworkingPrivateGetManagedPropertiesFunction"* %0 to i8*
  tail call void @_ZdlPv(i8* %3) #11
  ret void
}

; Function Attrs: nounwind ssp uwtable
define hidden %"class.ExtensionFunction::ResponseActionObject"* @_ZN10extensions45NetworkingPrivateGetManagedPropertiesFunction3RunEv(%"class.extensions::NetworkingPrivateGetManagedPropertiesFunction"*) unnamed_addr #1 align 2 {
  %2 = alloca %"class.base::OnceCallback.141", align 8
  %3 = bitcast %"class.extensions::NetworkingPrivateGetManagedPropertiesFunction"* %0 to %class.ExtensionFunction*
  %4 = getelementptr inbounds %"class.extensions::NetworkingPrivateGetManagedPropertiesFunction", %"class.extensions::NetworkingPrivateGetManagedPropertiesFunction"* %0, i64 0, i32 0, i32 4, i32 0, i32 0, i32 0
  %5 = load %"class.base::ListValue"*, %"class.base::ListValue"** %4, align 8
  %6 = tail call %"struct.extensions::api::networking_private::GetManagedProperties::Params"* @_ZN10extensions3api18networking_private20GetManagedProperties6Params6CreateERKN4base9ListValueE(%"class.base::ListValue"* dereferenceable(32) %5) #10
  %7 = icmp eq %"struct.extensions::api::networking_private::GetManagedProperties::Params"* %6, null
  br i1 %7, label %36, label %8

8:                                                ; preds = %1
  %9 = tail call %"class.content::BrowserContext"* @_ZNK17ExtensionFunction15browser_contextEv(%class.ExtensionFunction* %3) #10
  %10 = tail call %"class.extensions::NetworkingPrivateDelegate"* @_ZN10extensions32NetworkingPrivateDelegateFactory20GetForBrowserContextEPN7content14BrowserContextE(%"class.content::BrowserContext"* %9) #10
  %11 = getelementptr inbounds %"struct.extensions::api::networking_private::GetManagedProperties::Params", %"struct.extensions::api::networking_private::GetManagedProperties::Params"* %6, i64 0, i32 0
  %12 = tail call i8* @_Znwm(i64 56) #11, !noalias !9
  %13 = bitcast i8* %12 to %"class.base::internal::BindStateBase"*
  tail call void @_ZN4base8internal13BindStateBaseC2EPFvvEPFvPKS1_E(%"class.base::internal::BindStateBase"* nonnull %13, void ()* bitcast (void (%"class.base::internal::BindStateBase"*, %"class.absl::optional"*, %"class.absl::optional.143"*)* @_ZN4base8internal7InvokerINS0_9BindStateIMN10extensions45NetworkingPrivateGetManagedPropertiesFunctionEFvN4absl8optionalINS_5ValueEEENS6_INSt3__112basic_stringIcNS9_11char_traitsIcEENS9_9allocatorIcEEEEEEEJ13scoped_refptrIS4_EEEEFvS8_SG_EE7RunOnceEPNS0_13BindStateBaseEOS8_OSG_ to void ()*), void (%"class.base::internal::BindStateBase"*)* nonnull @_ZN4base8internal9BindStateIMN10extensions45NetworkingPrivateGetManagedPropertiesFunctionEFvN4absl8optionalINS_5ValueEEENS5_INSt3__112basic_stringIcNS8_11char_traitsIcEENS8_9allocatorIcEEEEEEEJ13scoped_refptrIS3_EEE7DestroyEPKNS0_13BindStateBaseE) #10, !noalias !9
  %14 = getelementptr inbounds i8, i8* %12, i64 32
  %15 = bitcast i8* %14 to <2 x i64>*
  store <2 x i64> <i64 ptrtoint (void (%"class.extensions::NetworkingPrivateGetManagedPropertiesFunction"*, %"class.absl::optional"*, %"class.absl::optional.143"*)* @_ZN10extensions45NetworkingPrivateGetManagedPropertiesFunction6ResultEN4absl8optionalIN4base5ValueEEENS2_INSt3__112basic_stringIcNS6_11char_traitsIcEENS6_9allocatorIcEEEEEE to i64), i64 0>, <2 x i64>* %15, align 8, !noalias !9
  %16 = getelementptr inbounds i8, i8* %12, i64 48
  %17 = bitcast i8* %16 to %"class.extensions::NetworkingPrivateGetManagedPropertiesFunction"**
  store %"class.extensions::NetworkingPrivateGetManagedPropertiesFunction"* %0, %"class.extensions::NetworkingPrivateGetManagedPropertiesFunction"** %17, align 8, !noalias !9
  %18 = icmp eq %"class.extensions::NetworkingPrivateGetManagedPropertiesFunction"* %0, null
  br i1 %18, label %22, label %19

19:                                               ; preds = %8
  %20 = getelementptr inbounds %"class.extensions::NetworkingPrivateGetManagedPropertiesFunction", %"class.extensions::NetworkingPrivateGetManagedPropertiesFunction"* %0, i64 0, i32 0, i32 1, i32 0, i32 0, i32 0, i32 0, i32 0, i32 0, i32 0, i32 0
  %21 = atomicrmw add i32* %20, i32 1 monotonic, !noalias !9
  br label %22

22:                                               ; preds = %8, %19
  %23 = bitcast %"class.base::OnceCallback.141"* %2 to i8**
  store i8* %12, i8** %23, align 8, !alias.scope !9
  %24 = bitcast %"class.extensions::NetworkingPrivateDelegate"* %10 to void (%"class.extensions::NetworkingPrivateDelegate"*, %"class.std::__1::basic_string"*, %"class.base::OnceCallback.141"*)***
  %25 = load void (%"class.extensions::NetworkingPrivateDelegate"*, %"class.std::__1::basic_string"*, %"class.base::OnceCallback.141"*)**, void (%"class.extensions::NetworkingPrivateDelegate"*, %"class.std::__1::basic_string"*, %"class.base::OnceCallback.141"*)*** %24, align 8
  %26 = getelementptr inbounds void (%"class.extensions::NetworkingPrivateDelegate"*, %"class.std::__1::basic_string"*, %"class.base::OnceCallback.141"*)*, void (%"class.extensions::NetworkingPrivateDelegate"*, %"class.std::__1::basic_string"*, %"class.base::OnceCallback.141"*)** %25, i64 4
  %27 = load void (%"class.extensions::NetworkingPrivateDelegate"*, %"class.std::__1::basic_string"*, %"class.base::OnceCallback.141"*)*, void (%"class.extensions::NetworkingPrivateDelegate"*, %"class.std::__1::basic_string"*, %"class.base::OnceCallback.141"*)** %26, align 8
  call void %27(%"class.extensions::NetworkingPrivateDelegate"* %10, %"class.std::__1::basic_string"* dereferenceable(24) %11, %"class.base::OnceCallback.141"* nonnull %2) #10
  %28 = getelementptr inbounds %"class.base::OnceCallback.141", %"class.base::OnceCallback.141"* %2, i64 0, i32 0
  call void @_ZN4base8internal12CallbackBaseD2Ev(%"class.base::internal::CallbackBase"* nonnull %28) #10
  %29 = getelementptr inbounds %"class.extensions::NetworkingPrivateGetManagedPropertiesFunction", %"class.extensions::NetworkingPrivateGetManagedPropertiesFunction"* %0, i64 0, i32 0, i32 23
  %30 = load i8, i8* %29, align 8, !range !7
  %31 = icmp eq i8 %30, 0
  br i1 %31, label %34, label %32

32:                                               ; preds = %22
  %33 = call %"class.ExtensionFunction::ResponseActionObject"* @_ZN17ExtensionFunction16AlreadyRespondedEv(%class.ExtensionFunction* %3) #10
  br label %42

34:                                               ; preds = %22
  %35 = call %"class.ExtensionFunction::ResponseActionObject"* @_ZN17ExtensionFunction12RespondLaterEv(%class.ExtensionFunction* %3) #10
  br label %42

36:                                               ; preds = %1
  %37 = bitcast %"class.extensions::NetworkingPrivateGetManagedPropertiesFunction"* %0 to void (%class.ExtensionFunction*)***
  %38 = load void (%class.ExtensionFunction*)**, void (%class.ExtensionFunction*)*** %37, align 8
  %39 = getelementptr inbounds void (%class.ExtensionFunction*)*, void (%class.ExtensionFunction*)** %38, i64 6
  %40 = load void (%class.ExtensionFunction*)*, void (%class.ExtensionFunction*)** %39, align 8
  tail call void %40(%class.ExtensionFunction* %3) #10
  %41 = tail call %"class.ExtensionFunction::ResponseActionObject"* @_ZN17ExtensionFunction17ValidationFailureEPS_(%class.ExtensionFunction* %3) #10
  br label %45

42:                                               ; preds = %32, %34
  %43 = phi %"class.ExtensionFunction::ResponseActionObject"* [ %35, %34 ], [ %33, %32 ]
  call void @_ZN10extensions3api18networking_private20GetManagedProperties6ParamsD1Ev(%"struct.extensions::api::networking_private::GetManagedProperties::Params"* nonnull %6) #10
  %44 = bitcast %"struct.extensions::api::networking_private::GetManagedProperties::Params"* %6 to i8*
  call void @_ZdlPv(i8* %44) #11
  br label %45

45:                                               ; preds = %36, %42
  %46 = phi %"class.ExtensionFunction::ResponseActionObject"* [ %41, %36 ], [ %43, %42 ]
  ret %"class.ExtensionFunction::ResponseActionObject"* %46
}

declare %"struct.extensions::api::networking_private::GetManagedProperties::Params"* @_ZN10extensions3api18networking_private20GetManagedProperties6Params6CreateERKN4base9ListValueE(%"class.base::ListValue"* dereferenceable(32)) local_unnamed_addr #4

; Function Attrs: nounwind ssp uwtable
define hidden void @_ZN10extensions45NetworkingPrivateGetManagedPropertiesFunction6ResultEN4absl8optionalIN4base5ValueEEENS2_INSt3__112basic_stringIcNS6_11char_traitsIcEENS6_9allocatorIcEEEEEE(%"class.extensions::NetworkingPrivateGetManagedPropertiesFunction"*, %"class.absl::optional"*, %"class.absl::optional.143"*) #1 align 2 {
  %4 = alloca %"class.std::__1::basic_string", align 8
  %5 = alloca %"class.std::__1::vector.116", align 8
  %6 = alloca %"class.base::Value", align 8
  %7 = getelementptr inbounds %"class.absl::optional", %"class.absl::optional"* %1, i64 0, i32 0, i32 0, i32 0, i32 0
  %8 = load i8, i8* %7, align 8, !range !7
  %9 = icmp eq i8 %8, 0
  br i1 %9, label %10, label %20

10:                                               ; preds = %3
  %11 = bitcast %"class.extensions::NetworkingPrivateGetManagedPropertiesFunction"* %0 to %class.ExtensionFunction*
  call void @_ZNKR4absl8optionalINSt3__112basic_stringIcNS1_11char_traitsIcEENS1_9allocatorIcEEEEE8value_orIRA7_KcEES7_OT_(%"class.std::__1::basic_string"* nonnull sret %4, %"class.absl::optional.143"* %2, [7 x i8]* nonnull dereferenceable(7) @.str)
  %12 = call %"class.ExtensionFunction::ResponseValueObject"* @_ZN17ExtensionFunction5ErrorENSt3__112basic_stringIcNS0_11char_traitsIcEENS0_9allocatorIcEEEE(%class.ExtensionFunction* %11, %"class.std::__1::basic_string"* nonnull %4) #10
  call void @_ZN17ExtensionFunction7RespondENSt3__110unique_ptrINS_19ResponseValueObjectENS0_14default_deleteIS2_EEEE(%class.ExtensionFunction* %11, %"class.ExtensionFunction::ResponseValueObject"* %12) #10
  %13 = bitcast %"class.std::__1::basic_string"* %4 to %"struct.std::__1::basic_string<char, std::__1::char_traits<char>, std::__1::allocator<char> >::__short"*
  %14 = getelementptr inbounds %"struct.std::__1::basic_string<char, std::__1::char_traits<char>, std::__1::allocator<char> >::__short", %"struct.std::__1::basic_string<char, std::__1::char_traits<char>, std::__1::allocator<char> >::__short"* %13, i64 0, i32 1, i32 0
  %15 = load i8, i8* %14, align 1
  %16 = icmp slt i8 %15, 0
  br i1 %16, label %17, label %55

17:                                               ; preds = %10
  %18 = getelementptr inbounds %"class.std::__1::basic_string", %"class.std::__1::basic_string"* %4, i64 0, i32 0, i32 0, i32 0, i32 0, i32 0, i32 0
  %19 = load i8*, i8** %18, align 8
  call void @_ZdlPv(i8* %19) #11
  br label %55

20:                                               ; preds = %3
  %21 = getelementptr inbounds %"class.absl::optional", %"class.absl::optional"* %1, i64 0, i32 0, i32 0, i32 0, i32 1, i32 0
  %22 = bitcast %"class.extensions::NetworkingPrivateGetManagedPropertiesFunction"* %0 to %class.ExtensionFunction*
  %23 = getelementptr inbounds %"class.extensions::NetworkingPrivateGetManagedPropertiesFunction", %"class.extensions::NetworkingPrivateGetManagedPropertiesFunction"* %0, i64 0, i32 0, i32 3, i32 0
  %24 = load %"class.extensions::Extension"*, %"class.extensions::Extension"** %23, align 8
  %25 = getelementptr inbounds %"class.extensions::NetworkingPrivateGetManagedPropertiesFunction", %"class.extensions::NetworkingPrivateGetManagedPropertiesFunction"* %0, i64 0, i32 0, i32 19
  %26 = load i32, i32* %25, align 8
  %27 = getelementptr inbounds %"class.extensions::NetworkingPrivateGetManagedPropertiesFunction", %"class.extensions::NetworkingPrivateGetManagedPropertiesFunction"* %0, i64 0, i32 0, i32 13
  call fastcc void @_ZN10extensions12_GLOBAL__N_116FilterPropertiesEPN4base5ValueENS0_14PropertiesTypeEPKNS_9ExtensionENS_7Feature7ContextERK4GURL(%"class.std::__1::vector.116"* nonnull sret %5, %"class.base::Value"* %21, i32 0, %"class.extensions::Extension"* %24, i32 %26, %class.GURL* dereferenceable(120) %27)
  %28 = getelementptr inbounds %"class.std::__1::vector.116", %"class.std::__1::vector.116"* %5, i64 0, i32 0, i32 0
  %29 = load %"class.std::__1::basic_string"*, %"class.std::__1::basic_string"** %28, align 8
  %30 = icmp eq %"class.std::__1::basic_string"* %29, null
  %31 = bitcast %"class.std::__1::basic_string"* %29 to i8*
  br i1 %30, label %49, label %32

32:                                               ; preds = %20
  %33 = getelementptr inbounds %"class.std::__1::vector.116", %"class.std::__1::vector.116"* %5, i64 0, i32 0, i32 1
  %34 = load %"class.std::__1::basic_string"*, %"class.std::__1::basic_string"** %33, align 8
  %35 = icmp eq %"class.std::__1::basic_string"* %34, %29
  br i1 %35, label %48, label %36

36:                                               ; preds = %32, %46
  %37 = phi %"class.std::__1::basic_string"* [ %38, %46 ], [ %34, %32 ]
  %38 = getelementptr inbounds %"class.std::__1::basic_string", %"class.std::__1::basic_string"* %37, i64 -1
  %39 = bitcast %"class.std::__1::basic_string"* %38 to %"struct.std::__1::basic_string<char, std::__1::char_traits<char>, std::__1::allocator<char> >::__short"*
  %40 = getelementptr inbounds %"struct.std::__1::basic_string<char, std::__1::char_traits<char>, std::__1::allocator<char> >::__short", %"struct.std::__1::basic_string<char, std::__1::char_traits<char>, std::__1::allocator<char> >::__short"* %39, i64 0, i32 1, i32 0
  %41 = load i8, i8* %40, align 1
  %42 = icmp slt i8 %41, 0
  br i1 %42, label %43, label %46

43:                                               ; preds = %36
  %44 = getelementptr inbounds %"class.std::__1::basic_string", %"class.std::__1::basic_string"* %38, i64 0, i32 0, i32 0, i32 0, i32 0, i32 0, i32 0
  %45 = load i8*, i8** %44, align 8
  tail call void @_ZdlPv(i8* %45) #11
  br label %46

46:                                               ; preds = %43, %36
  %47 = icmp eq %"class.std::__1::basic_string"* %38, %29
  br i1 %47, label %48, label %36

48:                                               ; preds = %46, %32
  store %"class.std::__1::basic_string"* %29, %"class.std::__1::basic_string"** %33, align 8
  tail call void @_ZdlPv(i8* %31) #11
  br label %49

49:                                               ; preds = %20, %48
  %50 = load i8, i8* %7, align 8, !range !7
  %51 = icmp eq i8 %50, 0
  br i1 %51, label %52, label %53, !prof !8

52:                                               ; preds = %49
  tail call void @llvm.trap() #10
  unreachable

53:                                               ; preds = %49
  call void @_ZN4base5ValueC1EOS0_(%"class.base::Value"* nonnull %6, %"class.base::Value"* dereferenceable(32) %21) #10
  %54 = call %"class.ExtensionFunction::ResponseValueObject"* @_ZN17ExtensionFunction11OneArgumentEN4base5ValueE(%class.ExtensionFunction* %22, %"class.base::Value"* nonnull %6) #10
  call void @_ZN17ExtensionFunction7RespondENSt3__110unique_ptrINS_19ResponseValueObjectENS0_14default_deleteIS2_EEEE(%class.ExtensionFunction* %22, %"class.ExtensionFunction::ResponseValueObject"* %54) #10
  call void @_ZN4base5ValueD1Ev(%"class.base::Value"* nonnull %6) #10
  br label %55

55:                                               ; preds = %17, %10, %53
  ret void
}

; Function Attrs: nounwind ssp uwtable
define hidden void @_ZN10extensions33NetworkingPrivateGetStateFunctionD2Ev(%"class.extensions::NetworkingPrivateGetStateFunction"*) unnamed_addr #1 align 2 {
  %2 = bitcast %"class.extensions::NetworkingPrivateGetStateFunction"* %0 to %class.ExtensionFunction*
  tail call void @_ZN17ExtensionFunctionD2Ev(%class.ExtensionFunction* %2) #10
  ret void
}

; Function Attrs: nounwind ssp uwtable
define hidden void @_ZN10extensions33NetworkingPrivateGetStateFunctionD0Ev(%"class.extensions::NetworkingPrivateGetStateFunction"*) unnamed_addr #1 align 2 {
  %2 = bitcast %"class.extensions::NetworkingPrivateGetStateFunction"* %0 to %class.ExtensionFunction*
  tail call void @_ZN17ExtensionFunctionD2Ev(%class.ExtensionFunction* %2) #10
  %3 = bitcast %"class.extensions::NetworkingPrivateGetStateFunction"* %0 to i8*
  tail call void @_ZdlPv(i8* %3) #11
  ret void
}

; Function Attrs: nounwind ssp uwtable
define hidden %"class.ExtensionFunction::ResponseActionObject"* @_ZN10extensions33NetworkingPrivateGetStateFunction3RunEv(%"class.extensions::NetworkingPrivateGetStateFunction"*) unnamed_addr #1 align 2 {
  %2 = alloca %"class.base::OnceCallback.170", align 8
  %3 = alloca %"class.base::OnceCallback.171", align 8
  %4 = bitcast %"class.extensions::NetworkingPrivateGetStateFunction"* %0 to %class.ExtensionFunction*
  %5 = getelementptr inbounds %"class.extensions::NetworkingPrivateGetStateFunction", %"class.extensions::NetworkingPrivateGetStateFunction"* %0, i64 0, i32 0, i32 4, i32 0, i32 0, i32 0
  %6 = load %"class.base::ListValue"*, %"class.base::ListValue"** %5, align 8
  %7 = tail call %"struct.extensions::api::networking_private::GetState::Params"* @_ZN10extensions3api18networking_private8GetState6Params6CreateERKN4base9ListValueE(%"class.base::ListValue"* dereferenceable(32) %6) #10
  %8 = icmp eq %"struct.extensions::api::networking_private::GetState::Params"* %7, null
  br i1 %8, label %49, label %9

9:                                                ; preds = %1
  %10 = tail call %"class.content::BrowserContext"* @_ZNK17ExtensionFunction15browser_contextEv(%class.ExtensionFunction* %4) #10
  %11 = tail call %"class.extensions::NetworkingPrivateDelegate"* @_ZN10extensions32NetworkingPrivateDelegateFactory20GetForBrowserContextEPN7content14BrowserContextE(%"class.content::BrowserContext"* %10) #10
  %12 = getelementptr inbounds %"struct.extensions::api::networking_private::GetState::Params", %"struct.extensions::api::networking_private::GetState::Params"* %7, i64 0, i32 0
  %13 = tail call i8* @_Znwm(i64 56) #11, !noalias !14
  %14 = bitcast i8* %13 to %"class.base::internal::BindStateBase"*
  tail call void @_ZN4base8internal13BindStateBaseC2EPFvvEPFvPKS1_E(%"class.base::internal::BindStateBase"* nonnull %14, void ()* bitcast (void (%"class.base::internal::BindStateBase"*, %"class.std::__1::unique_ptr.172"*)* @_ZN4base8internal7InvokerINS0_9BindStateIMN10extensions33NetworkingPrivateGetStateFunctionEFvNSt3__110unique_ptrINS_15DictionaryValueENS5_14default_deleteIS7_EEEEEJ13scoped_refptrIS4_EEEEFvSA_EE7RunOnceEPNS0_13BindStateBaseEOSA_ to void ()*), void (%"class.base::internal::BindStateBase"*)* nonnull @_ZN4base8internal9BindStateIMN10extensions33NetworkingPrivateGetStateFunctionEFvNSt3__110unique_ptrINS_15DictionaryValueENS4_14default_deleteIS6_EEEEEJ13scoped_refptrIS3_EEE7DestroyEPKNS0_13BindStateBaseE) #10, !noalias !14
  %15 = getelementptr inbounds i8, i8* %13, i64 32
  %16 = bitcast i8* %15 to <2 x i64>*
  store <2 x i64> <i64 ptrtoint (void (%"class.extensions::NetworkingPrivateGetStateFunction"*, %"class.base::DictionaryValue"*)* @_ZN10extensions33NetworkingPrivateGetStateFunction7SuccessENSt3__110unique_ptrIN4base15DictionaryValueENS1_14default_deleteIS4_EEEE to i64), i64 0>, <2 x i64>* %16, align 8, !noalias !14
  %17 = getelementptr inbounds i8, i8* %13, i64 48
  %18 = bitcast i8* %17 to %"class.extensions::NetworkingPrivateGetStateFunction"**
  store %"class.extensions::NetworkingPrivateGetStateFunction"* %0, %"class.extensions::NetworkingPrivateGetStateFunction"** %18, align 8, !noalias !14
  %19 = icmp eq %"class.extensions::NetworkingPrivateGetStateFunction"* %0, null
  br i1 %19, label %23, label %20

20:                                               ; preds = %9
  %21 = getelementptr inbounds %"class.extensions::NetworkingPrivateGetStateFunction", %"class.extensions::NetworkingPrivateGetStateFunction"* %0, i64 0, i32 0, i32 1, i32 0, i32 0, i32 0, i32 0, i32 0, i32 0, i32 0, i32 0
  %22 = atomicrmw add i32* %21, i32 1 monotonic, !noalias !14
  br label %23

23:                                               ; preds = %9, %20
  %24 = bitcast %"class.base::OnceCallback.170"* %2 to i8**
  store i8* %13, i8** %24, align 8, !alias.scope !14
  %25 = tail call i8* @_Znwm(i64 56) #11, !noalias !19
  %26 = bitcast i8* %25 to %"class.base::internal::BindStateBase"*
  tail call void @_ZN4base8internal13BindStateBaseC2EPFvvEPFvPKS1_E(%"class.base::internal::BindStateBase"* nonnull %26, void ()* bitcast (void (%"class.base::internal::BindStateBase"*, %"class.std::__1::basic_string"*)* @_ZN4base8internal7InvokerINS0_9BindStateIMN10extensions33NetworkingPrivateGetStateFunctionEFvRKNSt3__112basic_stringIcNS5_11char_traitsIcEENS5_9allocatorIcEEEEEJ13scoped_refptrIS4_EEEEFvSD_EE7RunOnceEPNS0_13BindStateBaseESD_ to void ()*), void (%"class.base::internal::BindStateBase"*)* nonnull @_ZN4base8internal9BindStateIMN10extensions33NetworkingPrivateGetStateFunctionEFvRKNSt3__112basic_stringIcNS4_11char_traitsIcEENS4_9allocatorIcEEEEEJ13scoped_refptrIS3_EEE7DestroyEPKNS0_13BindStateBaseE) #10, !noalias !19
  %27 = getelementptr inbounds i8, i8* %25, i64 32
  %28 = bitcast i8* %27 to <2 x i64>*
  store <2 x i64> <i64 ptrtoint (void (%"class.extensions::NetworkingPrivateGetStateFunction"*, %"class.std::__1::basic_string"*)* @_ZN10extensions33NetworkingPrivateGetStateFunction7FailureERKNSt3__112basic_stringIcNS1_11char_traitsIcEENS1_9allocatorIcEEEE to i64), i64 0>, <2 x i64>* %28, align 8, !noalias !19
  %29 = getelementptr inbounds i8, i8* %25, i64 48
  %30 = bitcast i8* %29 to %"class.extensions::NetworkingPrivateGetStateFunction"**
  store %"class.extensions::NetworkingPrivateGetStateFunction"* %0, %"class.extensions::NetworkingPrivateGetStateFunction"** %30, align 8, !noalias !19
  br i1 %19, label %34, label %31

31:                                               ; preds = %23
  %32 = getelementptr inbounds %"class.extensions::NetworkingPrivateGetStateFunction", %"class.extensions::NetworkingPrivateGetStateFunction"* %0, i64 0, i32 0, i32 1, i32 0, i32 0, i32 0, i32 0, i32 0, i32 0, i32 0, i32 0
  %33 = atomicrmw add i32* %32, i32 1 monotonic, !noalias !19
  br label %34

34:                                               ; preds = %23, %31
  %35 = bitcast %"class.base::OnceCallback.171"* %3 to i8**
  store i8* %25, i8** %35, align 8, !alias.scope !19
  %36 = bitcast %"class.extensions::NetworkingPrivateDelegate"* %11 to void (%"class.extensions::NetworkingPrivateDelegate"*, %"class.std::__1::basic_string"*, %"class.base::OnceCallback.170"*, %"class.base::OnceCallback.171"*)***
  %37 = load void (%"class.extensions::NetworkingPrivateDelegate"*, %"class.std::__1::basic_string"*, %"class.base::OnceCallback.170"*, %"class.base::OnceCallback.171"*)**, void (%"class.extensions::NetworkingPrivateDelegate"*, %"class.std::__1::basic_string"*, %"class.base::OnceCallback.170"*, %"class.base::OnceCallback.171"*)*** %36, align 8
  %38 = getelementptr inbounds void (%"class.extensions::NetworkingPrivateDelegate"*, %"class.std::__1::basic_string"*, %"class.base::OnceCallback.170"*, %"class.base::OnceCallback.171"*)*, void (%"class.extensions::NetworkingPrivateDelegate"*, %"class.std::__1::basic_string"*, %"class.base::OnceCallback.170"*, %"class.base::OnceCallback.171"*)** %37, i64 5
  %39 = load void (%"class.extensions::NetworkingPrivateDelegate"*, %"class.std::__1::basic_string"*, %"class.base::OnceCallback.170"*, %"class.base::OnceCallback.171"*)*, void (%"class.extensions::NetworkingPrivateDelegate"*, %"class.std::__1::basic_string"*, %"class.base::OnceCallback.170"*, %"class.base::OnceCallback.171"*)** %38, align 8
  call void %39(%"class.extensions::NetworkingPrivateDelegate"* %11, %"class.std::__1::basic_string"* dereferenceable(24) %12, %"class.base::OnceCallback.170"* nonnull %2, %"class.base::OnceCallback.171"* nonnull %3) #10
  %40 = getelementptr inbounds %"class.base::OnceCallback.171", %"class.base::OnceCallback.171"* %3, i64 0, i32 0
  call void @_ZN4base8internal12CallbackBaseD2Ev(%"class.base::internal::CallbackBase"* nonnull %40) #10
  %41 = getelementptr inbounds %"class.base::OnceCallback.170", %"class.base::OnceCallback.170"* %2, i64 0, i32 0
  call void @_ZN4base8internal12CallbackBaseD2Ev(%"class.base::internal::CallbackBase"* nonnull %41) #10
  %42 = getelementptr inbounds %"class.extensions::NetworkingPrivateGetStateFunction", %"class.extensions::NetworkingPrivateGetStateFunction"* %0, i64 0, i32 0, i32 23
  %43 = load i8, i8* %42, align 8, !range !7
  %44 = icmp eq i8 %43, 0
  br i1 %44, label %47, label %45

45:                                               ; preds = %34
  %46 = call %"class.ExtensionFunction::ResponseActionObject"* @_ZN17ExtensionFunction16AlreadyRespondedEv(%class.ExtensionFunction* %4) #10
  br label %55

47:                                               ; preds = %34
  %48 = call %"class.ExtensionFunction::ResponseActionObject"* @_ZN17ExtensionFunction12RespondLaterEv(%class.ExtensionFunction* %4) #10
  br label %55

49:                                               ; preds = %1
  %50 = bitcast %"class.extensions::NetworkingPrivateGetStateFunction"* %0 to void (%class.ExtensionFunction*)***
  %51 = load void (%class.ExtensionFunction*)**, void (%class.ExtensionFunction*)*** %50, align 8
  %52 = getelementptr inbounds void (%class.ExtensionFunction*)*, void (%class.ExtensionFunction*)** %51, i64 6
  %53 = load void (%class.ExtensionFunction*)*, void (%class.ExtensionFunction*)** %52, align 8
  tail call void %53(%class.ExtensionFunction* %4) #10
  %54 = tail call %"class.ExtensionFunction::ResponseActionObject"* @_ZN17ExtensionFunction17ValidationFailureEPS_(%class.ExtensionFunction* %4) #10
  br label %58

55:                                               ; preds = %45, %47
  %56 = phi %"class.ExtensionFunction::ResponseActionObject"* [ %48, %47 ], [ %46, %45 ]
  call void @_ZN10extensions3api18networking_private8GetState6ParamsD1Ev(%"struct.extensions::api::networking_private::GetState::Params"* nonnull %7) #10
  %57 = bitcast %"struct.extensions::api::networking_private::GetState::Params"* %7 to i8*
  call void @_ZdlPv(i8* %57) #11
  br label %58

58:                                               ; preds = %49, %55
  %59 = phi %"class.ExtensionFunction::ResponseActionObject"* [ %54, %49 ], [ %56, %55 ]
  ret %"class.ExtensionFunction::ResponseActionObject"* %59
}

declare %"struct.extensions::api::networking_private::GetState::Params"* @_ZN10extensions3api18networking_private8GetState6Params6CreateERKN4base9ListValueE(%"class.base::ListValue"* dereferenceable(32)) local_unnamed_addr #4

; Function Attrs: nounwind ssp uwtable
define hidden void @_ZN10extensions33NetworkingPrivateGetStateFunction7SuccessENSt3__110unique_ptrIN4base15DictionaryValueENS1_14default_deleteIS4_EEEE(%"class.extensions::NetworkingPrivateGetStateFunction"*, %"class.base::DictionaryValue"*) #1 align 2 {
  %3 = alloca %"class.std::__1::vector.116", align 8
  %4 = alloca %"class.base::Value", align 8
  %5 = getelementptr inbounds %"class.base::DictionaryValue", %"class.base::DictionaryValue"* %1, i64 0, i32 0
  %6 = bitcast %"class.extensions::NetworkingPrivateGetStateFunction"* %0 to %class.ExtensionFunction*
  %7 = getelementptr inbounds %"class.extensions::NetworkingPrivateGetStateFunction", %"class.extensions::NetworkingPrivateGetStateFunction"* %0, i64 0, i32 0, i32 3, i32 0
  %8 = load %"class.extensions::Extension"*, %"class.extensions::Extension"** %7, align 8
  %9 = getelementptr inbounds %"class.extensions::NetworkingPrivateGetStateFunction", %"class.extensions::NetworkingPrivateGetStateFunction"* %0, i64 0, i32 0, i32 19
  %10 = load i32, i32* %9, align 8
  %11 = getelementptr inbounds %"class.extensions::NetworkingPrivateGetStateFunction", %"class.extensions::NetworkingPrivateGetStateFunction"* %0, i64 0, i32 0, i32 13
  call fastcc void @_ZN10extensions12_GLOBAL__N_116FilterPropertiesEPN4base5ValueENS0_14PropertiesTypeEPKNS_9ExtensionENS_7Feature7ContextERK4GURL(%"class.std::__1::vector.116"* nonnull sret %3, %"class.base::Value"* %5, i32 0, %"class.extensions::Extension"* %8, i32 %10, %class.GURL* dereferenceable(120) %11)
  %12 = getelementptr inbounds %"class.std::__1::vector.116", %"class.std::__1::vector.116"* %3, i64 0, i32 0, i32 0
  %13 = load %"class.std::__1::basic_string"*, %"class.std::__1::basic_string"** %12, align 8
  %14 = icmp eq %"class.std::__1::basic_string"* %13, null
  %15 = bitcast %"class.std::__1::basic_string"* %13 to i8*
  br i1 %14, label %33, label %16

16:                                               ; preds = %2
  %17 = getelementptr inbounds %"class.std::__1::vector.116", %"class.std::__1::vector.116"* %3, i64 0, i32 0, i32 1
  %18 = load %"class.std::__1::basic_string"*, %"class.std::__1::basic_string"** %17, align 8
  %19 = icmp eq %"class.std::__1::basic_string"* %18, %13
  br i1 %19, label %32, label %20

20:                                               ; preds = %16, %30
  %21 = phi %"class.std::__1::basic_string"* [ %22, %30 ], [ %18, %16 ]
  %22 = getelementptr inbounds %"class.std::__1::basic_string", %"class.std::__1::basic_string"* %21, i64 -1
  %23 = bitcast %"class.std::__1::basic_string"* %22 to %"struct.std::__1::basic_string<char, std::__1::char_traits<char>, std::__1::allocator<char> >::__short"*
  %24 = getelementptr inbounds %"struct.std::__1::basic_string<char, std::__1::char_traits<char>, std::__1::allocator<char> >::__short", %"struct.std::__1::basic_string<char, std::__1::char_traits<char>, std::__1::allocator<char> >::__short"* %23, i64 0, i32 1, i32 0
  %25 = load i8, i8* %24, align 1
  %26 = icmp slt i8 %25, 0
  br i1 %26, label %27, label %30

27:                                               ; preds = %20
  %28 = getelementptr inbounds %"class.std::__1::basic_string", %"class.std::__1::basic_string"* %22, i64 0, i32 0, i32 0, i32 0, i32 0, i32 0, i32 0
  %29 = load i8*, i8** %28, align 8
  tail call void @_ZdlPv(i8* %29) #11
  br label %30

30:                                               ; preds = %27, %20
  %31 = icmp eq %"class.std::__1::basic_string"* %22, %13
  br i1 %31, label %32, label %20

32:                                               ; preds = %30, %16
  store %"class.std::__1::basic_string"* %13, %"class.std::__1::basic_string"** %17, align 8
  tail call void @_ZdlPv(i8* %15) #11
  br label %33

33:                                               ; preds = %32, %2
  call void @_ZN4base5Value18FromUniquePtrValueENSt3__110unique_ptrIS0_NS1_14default_deleteIS0_EEEE(%"class.base::Value"* nonnull sret %4, %"class.base::Value"* %5) #10
  %34 = call %"class.ExtensionFunction::ResponseValueObject"* @_ZN17ExtensionFunction11OneArgumentEN4base5ValueE(%class.ExtensionFunction* %6, %"class.base::Value"* nonnull %4) #10
  call void @_ZN17ExtensionFunction7RespondENSt3__110unique_ptrINS_19ResponseValueObjectENS0_14default_deleteIS2_EEEE(%class.ExtensionFunction* %6, %"class.ExtensionFunction::ResponseValueObject"* %34) #10
  call void @_ZN4base5ValueD1Ev(%"class.base::Value"* nonnull %4) #10
  ret void
}

; Function Attrs: nounwind ssp uwtable
define hidden void @_ZN10extensions33NetworkingPrivateGetStateFunction7FailureERKNSt3__112basic_stringIcNS1_11char_traitsIcEENS1_9allocatorIcEEEE(%"class.extensions::NetworkingPrivateGetStateFunction"*, %"class.std::__1::basic_string"* nocapture readonly dereferenceable(24)) #1 align 2 {
  %3 = alloca %"class.std::__1::basic_string", align 8
  %4 = bitcast %"class.extensions::NetworkingPrivateGetStateFunction"* %0 to %class.ExtensionFunction*
  %5 = bitcast %"class.std::__1::basic_string"* %1 to %"struct.std::__1::basic_string<char, std::__1::char_traits<char>, std::__1::allocator<char> >::__short"*
  %6 = getelementptr inbounds %"struct.std::__1::basic_string<char, std::__1::char_traits<char>, std::__1::allocator<char> >::__short", %"struct.std::__1::basic_string<char, std::__1::char_traits<char>, std::__1::allocator<char> >::__short"* %5, i64 0, i32 1, i32 0
  %7 = load i8, i8* %6, align 1
  %8 = icmp slt i8 %7, 0
  br i1 %8, label %12, label %9

9:                                                ; preds = %2
  %10 = bitcast %"class.std::__1::basic_string"* %3 to i8*
  %11 = bitcast %"class.std::__1::basic_string"* %1 to i8*
  call void @llvm.memcpy.p0i8.p0i8.i64(i8* nonnull align 8 %10, i8* align 8 %11, i64 24, i1 false) #10
  br label %17

12:                                               ; preds = %2
  %13 = getelementptr inbounds %"class.std::__1::basic_string", %"class.std::__1::basic_string"* %1, i64 0, i32 0, i32 0, i32 0, i32 0, i32 0, i32 0
  %14 = load i8*, i8** %13, align 8
  %15 = getelementptr inbounds %"class.std::__1::basic_string", %"class.std::__1::basic_string"* %1, i64 0, i32 0, i32 0, i32 0, i32 0, i32 0, i32 1
  %16 = load i64, i64* %15, align 8
  call void @_ZNSt3__112basic_stringIcNS_11char_traitsIcEENS_9allocatorIcEEE25__init_copy_ctor_externalEPKcm(%"class.std::__1::basic_string"* nonnull %3, i8* %14, i64 %16) #10
  br label %17

17:                                               ; preds = %9, %12
  %18 = call %"class.ExtensionFunction::ResponseValueObject"* @_ZN17ExtensionFunction5ErrorENSt3__112basic_stringIcNS0_11char_traitsIcEENS0_9allocatorIcEEEE(%class.ExtensionFunction* %4, %"class.std::__1::basic_string"* nonnull %3) #10
  call void @_ZN17ExtensionFunction7RespondENSt3__110unique_ptrINS_19ResponseValueObjectENS0_14default_deleteIS2_EEEE(%class.ExtensionFunction* %4, %"class.ExtensionFunction::ResponseValueObject"* %18) #10
  %19 = bitcast %"class.std::__1::basic_string"* %3 to %"struct.std::__1::basic_string<char, std::__1::char_traits<char>, std::__1::allocator<char> >::__short"*
  %20 = getelementptr inbounds %"struct.std::__1::basic_string<char, std::__1::char_traits<char>, std::__1::allocator<char> >::__short", %"struct.std::__1::basic_string<char, std::__1::char_traits<char>, std::__1::allocator<char> >::__short"* %19, i64 0, i32 1, i32 0
  %21 = load i8, i8* %20, align 1
  %22 = icmp slt i8 %21, 0
  br i1 %22, label %23, label %26

23:                                               ; preds = %17
  %24 = getelementptr inbounds %"class.std::__1::basic_string", %"class.std::__1::basic_string"* %3, i64 0, i32 0, i32 0, i32 0, i32 0, i32 0, i32 0
  %25 = load i8*, i8** %24, align 8
  call void @_ZdlPv(i8* %25) #11
  br label %26

26:                                               ; preds = %17, %23
  ret void
}

; Function Attrs: nounwind
declare void @_ZN4base8internal12CallbackBaseD2Ev(%"class.base::internal::CallbackBase"*) unnamed_addr #0

declare void @_ZN4base5Value18FromUniquePtrValueENSt3__110unique_ptrIS0_NS1_14default_deleteIS0_EEEE(%"class.base::Value"* sret, %"class.base::Value"*) local_unnamed_addr #4

; Function Attrs: nounwind ssp uwtable
define hidden void @_ZN10extensions38NetworkingPrivateSetPropertiesFunctionD2Ev(%"class.extensions::NetworkingPrivateSetPropertiesFunction"*) unnamed_addr #1 align 2 {
  %2 = bitcast %"class.extensions::NetworkingPrivateSetPropertiesFunction"* %0 to %class.ExtensionFunction*
  tail call void @_ZN17ExtensionFunctionD2Ev(%class.ExtensionFunction* %2) #10
  ret void
}

; Function Attrs: nounwind ssp uwtable
define hidden void @_ZN10extensions38NetworkingPrivateSetPropertiesFunctionD0Ev(%"class.extensions::NetworkingPrivateSetPropertiesFunction"*) unnamed_addr #1 align 2 {
  %2 = bitcast %"class.extensions::NetworkingPrivateSetPropertiesFunction"* %0 to %class.ExtensionFunction*
  tail call void @_ZN17ExtensionFunctionD2Ev(%class.ExtensionFunction* %2) #10
  %3 = bitcast %"class.extensions::NetworkingPrivateSetPropertiesFunction"* %0 to i8*
  tail call void @_ZdlPv(i8* %3) #11
  ret void
}

; Function Attrs: nounwind ssp uwtable
define hidden %"class.ExtensionFunction::ResponseActionObject"* @_ZN10extensions38NetworkingPrivateSetPropertiesFunction3RunEv(%"class.extensions::NetworkingPrivateSetPropertiesFunction"*) unnamed_addr #1 align 2 {
  %2 = alloca %"class.std::__1::vector.116", align 8
  %3 = alloca %"class.std::__1::basic_string", align 8
  %4 = alloca %"class.base::OnceCallback.109", align 8
  %5 = alloca %"class.base::OnceCallback.171", align 8
  %6 = bitcast %"class.extensions::NetworkingPrivateSetPropertiesFunction"* %0 to %class.ExtensionFunction*
  %7 = getelementptr inbounds %"class.extensions::NetworkingPrivateSetPropertiesFunction", %"class.extensions::NetworkingPrivateSetPropertiesFunction"* %0, i64 0, i32 0, i32 4, i32 0, i32 0, i32 0
  %8 = load %"class.base::ListValue"*, %"class.base::ListValue"** %7, align 8
  %9 = tail call %"struct.extensions::api::networking_private::SetProperties::Params"* @_ZN10extensions3api18networking_private13SetProperties6Params6CreateERKN4base9ListValueE(%"class.base::ListValue"* dereferenceable(32) %8) #10
  %10 = icmp eq %"struct.extensions::api::networking_private::SetProperties::Params"* %9, null
  br i1 %10, label %11, label %17

11:                                               ; preds = %1
  %12 = bitcast %"class.extensions::NetworkingPrivateSetPropertiesFunction"* %0 to void (%class.ExtensionFunction*)***
  %13 = load void (%class.ExtensionFunction*)**, void (%class.ExtensionFunction*)*** %12, align 8
  %14 = getelementptr inbounds void (%class.ExtensionFunction*)*, void (%class.ExtensionFunction*)** %13, i64 6
  %15 = load void (%class.ExtensionFunction*)*, void (%class.ExtensionFunction*)** %14, align 8
  tail call void %15(%class.ExtensionFunction* %6) #10
  %16 = tail call %"class.ExtensionFunction::ResponseActionObject"* @_ZN17ExtensionFunction17ValidationFailureEPS_(%class.ExtensionFunction* %6) #10
  br label %111

17:                                               ; preds = %1
  %18 = getelementptr inbounds %"struct.extensions::api::networking_private::SetProperties::Params", %"struct.extensions::api::networking_private::SetProperties::Params"* %9, i64 0, i32 1
  %19 = tail call %"class.base::DictionaryValue"* @_ZNK10extensions3api18networking_private23NetworkConfigProperties7ToValueEv(%"struct.extensions::api::networking_private::NetworkConfigProperties"* %18) #10
  %20 = ptrtoint %"class.base::DictionaryValue"* %19 to i64
  %21 = bitcast %"class.std::__1::vector.116"* %2 to i8*
  call void @llvm.lifetime.start.p0i8(i64 24, i8* nonnull %21) #10
  %22 = getelementptr inbounds %"class.std::__1::vector.116", %"class.std::__1::vector.116"* %2, i64 0, i32 0, i32 0
  %23 = getelementptr inbounds %"class.std::__1::vector.116", %"class.std::__1::vector.116"* %2, i64 0, i32 0, i32 1
  %24 = getelementptr inbounds %"class.base::DictionaryValue", %"class.base::DictionaryValue"* %19, i64 0, i32 0
  %25 = getelementptr inbounds %"class.extensions::NetworkingPrivateSetPropertiesFunction", %"class.extensions::NetworkingPrivateSetPropertiesFunction"* %0, i64 0, i32 0, i32 3, i32 0
  %26 = bitcast %"class.std::__1::vector.116"* %2 to i8*
  call void @llvm.memset.p0i8.i64(i8* nonnull align 8 %26, i8 -86, i64 24, i1 false)
  %27 = load %"class.extensions::Extension"*, %"class.extensions::Extension"** %25, align 8
  %28 = getelementptr inbounds %"class.extensions::NetworkingPrivateSetPropertiesFunction", %"class.extensions::NetworkingPrivateSetPropertiesFunction"* %0, i64 0, i32 0, i32 19
  %29 = load i32, i32* %28, align 8
  %30 = getelementptr inbounds %"class.extensions::NetworkingPrivateSetPropertiesFunction", %"class.extensions::NetworkingPrivateSetPropertiesFunction"* %0, i64 0, i32 0, i32 13
  call fastcc void @_ZN10extensions12_GLOBAL__N_116FilterPropertiesEPN4base5ValueENS0_14PropertiesTypeEPKNS_9ExtensionENS_7Feature7ContextERK4GURL(%"class.std::__1::vector.116"* nonnull sret %2, %"class.base::Value"* %24, i32 1, %"class.extensions::Extension"* %27, i32 %29, %class.GURL* dereferenceable(120) %30)
  %31 = load %"class.std::__1::basic_string"*, %"class.std::__1::basic_string"** %22, align 8
  %32 = load %"class.std::__1::basic_string"*, %"class.std::__1::basic_string"** %23, align 8
  %33 = icmp eq %"class.std::__1::basic_string"* %31, %32
  %34 = bitcast %"class.std::__1::basic_string"* %31 to i8*
  br i1 %33, label %45, label %35

35:                                               ; preds = %17
  call fastcc void @_ZN10extensions12_GLOBAL__N_122InvalidPropertiesErrorERKNSt3__16vectorINS1_12basic_stringIcNS1_11char_traitsIcEENS1_9allocatorIcEEEENS6_IS8_EEEE(%"class.std::__1::basic_string"* nonnull sret %3, %"class.std::__1::vector.116"* nonnull dereferenceable(24) %2)
  %36 = call %"class.ExtensionFunction::ResponseValueObject"* @_ZN17ExtensionFunction5ErrorENSt3__112basic_stringIcNS0_11char_traitsIcEENS0_9allocatorIcEEEE(%class.ExtensionFunction* %6, %"class.std::__1::basic_string"* nonnull %3) #10
  %37 = call %"class.ExtensionFunction::ResponseActionObject"* @_ZN17ExtensionFunction10RespondNowENSt3__110unique_ptrINS_19ResponseValueObjectENS0_14default_deleteIS2_EEEE(%class.ExtensionFunction* %6, %"class.ExtensionFunction::ResponseValueObject"* %36) #10
  %38 = bitcast %"class.std::__1::basic_string"* %3 to %"struct.std::__1::basic_string<char, std::__1::char_traits<char>, std::__1::allocator<char> >::__short"*
  %39 = getelementptr inbounds %"struct.std::__1::basic_string<char, std::__1::char_traits<char>, std::__1::allocator<char> >::__short", %"struct.std::__1::basic_string<char, std::__1::char_traits<char>, std::__1::allocator<char> >::__short"* %38, i64 0, i32 1, i32 0
  %40 = load i8, i8* %39, align 1
  %41 = icmp slt i8 %40, 0
  br i1 %41, label %42, label %85

42:                                               ; preds = %35
  %43 = getelementptr inbounds %"class.std::__1::basic_string", %"class.std::__1::basic_string"* %3, i64 0, i32 0, i32 0, i32 0, i32 0, i32 0, i32 0
  %44 = load i8*, i8** %43, align 8
  call void @_ZdlPv(i8* %44) #11
  br label %85

45:                                               ; preds = %17
  %46 = tail call %"class.content::BrowserContext"* @_ZNK17ExtensionFunction15browser_contextEv(%class.ExtensionFunction* %6) #10
  %47 = tail call %"class.extensions::NetworkingPrivateDelegate"* @_ZN10extensions32NetworkingPrivateDelegateFactory20GetForBrowserContextEPN7content14BrowserContextE(%"class.content::BrowserContext"* %46) #10
  %48 = getelementptr inbounds %"struct.extensions::api::networking_private::SetProperties::Params", %"struct.extensions::api::networking_private::SetProperties::Params"* %9, i64 0, i32 0
  %49 = tail call i8* @_Znwm(i64 56) #11, !noalias !24
  %50 = bitcast i8* %49 to %"class.base::internal::BindStateBase"*
  tail call void @_ZN4base8internal13BindStateBaseC2EPFvvEPFvPKS1_E(%"class.base::internal::BindStateBase"* nonnull %50, void ()* bitcast (void (%"class.base::internal::BindStateBase"*)* @_ZN4base8internal7InvokerINS0_9BindStateIMN10extensions38NetworkingPrivateSetPropertiesFunctionEFvvEJ13scoped_refptrIS4_EEEEFvvEE7RunOnceEPNS0_13BindStateBaseE to void ()*), void (%"class.base::internal::BindStateBase"*)* nonnull @_ZN4base8internal9BindStateIMN10extensions38NetworkingPrivateSetPropertiesFunctionEFvvEJ13scoped_refptrIS3_EEE7DestroyEPKNS0_13BindStateBaseE) #10, !noalias !24
  %51 = getelementptr inbounds i8, i8* %49, i64 32
  %52 = bitcast i8* %51 to <2 x i64>*
  store <2 x i64> <i64 ptrtoint (void (%"class.extensions::NetworkingPrivateSetPropertiesFunction"*)* @_ZN10extensions38NetworkingPrivateSetPropertiesFunction7SuccessEv to i64), i64 0>, <2 x i64>* %52, align 8, !noalias !24
  %53 = getelementptr inbounds i8, i8* %49, i64 48
  %54 = bitcast i8* %53 to %"class.extensions::NetworkingPrivateSetPropertiesFunction"**
  store %"class.extensions::NetworkingPrivateSetPropertiesFunction"* %0, %"class.extensions::NetworkingPrivateSetPropertiesFunction"** %54, align 8, !noalias !24
  %55 = icmp eq %"class.extensions::NetworkingPrivateSetPropertiesFunction"* %0, null
  br i1 %55, label %59, label %56

56:                                               ; preds = %45
  %57 = getelementptr inbounds %"class.extensions::NetworkingPrivateSetPropertiesFunction", %"class.extensions::NetworkingPrivateSetPropertiesFunction"* %0, i64 0, i32 0, i32 1, i32 0, i32 0, i32 0, i32 0, i32 0, i32 0, i32 0, i32 0
  %58 = atomicrmw add i32* %57, i32 1 monotonic, !noalias !24
  br label %59

59:                                               ; preds = %45, %56
  %60 = bitcast %"class.base::OnceCallback.109"* %4 to i8**
  store i8* %49, i8** %60, align 8, !alias.scope !24
  %61 = tail call i8* @_Znwm(i64 56) #11, !noalias !29
  %62 = bitcast i8* %61 to %"class.base::internal::BindStateBase"*
  tail call void @_ZN4base8internal13BindStateBaseC2EPFvvEPFvPKS1_E(%"class.base::internal::BindStateBase"* nonnull %62, void ()* bitcast (void (%"class.base::internal::BindStateBase"*, %"class.std::__1::basic_string"*)* @_ZN4base8internal7InvokerINS0_9BindStateIMN10extensions38NetworkingPrivateSetPropertiesFunctionEFvRKNSt3__112basic_stringIcNS5_11char_traitsIcEENS5_9allocatorIcEEEEEJ13scoped_refptrIS4_EEEEFvSD_EE7RunOnceEPNS0_13BindStateBaseESD_ to void ()*), void (%"class.base::internal::BindStateBase"*)* nonnull @_ZN4base8internal9BindStateIMN10extensions38NetworkingPrivateSetPropertiesFunctionEFvRKNSt3__112basic_stringIcNS4_11char_traitsIcEENS4_9allocatorIcEEEEEJ13scoped_refptrIS3_EEE7DestroyEPKNS0_13BindStateBaseE) #10, !noalias !29
  %63 = getelementptr inbounds i8, i8* %61, i64 32
  %64 = bitcast i8* %63 to <2 x i64>*
  store <2 x i64> <i64 ptrtoint (void (%"class.extensions::NetworkingPrivateSetPropertiesFunction"*, %"class.std::__1::basic_string"*)* @_ZN10extensions38NetworkingPrivateSetPropertiesFunction7FailureERKNSt3__112basic_stringIcNS1_11char_traitsIcEENS1_9allocatorIcEEEE to i64), i64 0>, <2 x i64>* %64, align 8, !noalias !29
  %65 = getelementptr inbounds i8, i8* %61, i64 48
  %66 = bitcast i8* %65 to %"class.extensions::NetworkingPrivateSetPropertiesFunction"**
  store %"class.extensions::NetworkingPrivateSetPropertiesFunction"* %0, %"class.extensions::NetworkingPrivateSetPropertiesFunction"** %66, align 8, !noalias !29
  br i1 %55, label %70, label %67

67:                                               ; preds = %59
  %68 = getelementptr inbounds %"class.extensions::NetworkingPrivateSetPropertiesFunction", %"class.extensions::NetworkingPrivateSetPropertiesFunction"* %0, i64 0, i32 0, i32 1, i32 0, i32 0, i32 0, i32 0, i32 0, i32 0, i32 0, i32 0
  %69 = atomicrmw add i32* %68, i32 1 monotonic, !noalias !29
  br label %70

70:                                               ; preds = %59, %67
  %71 = bitcast %"class.base::OnceCallback.171"* %5 to i8**
  store i8* %61, i8** %71, align 8, !alias.scope !29
  %72 = bitcast %"class.extensions::NetworkingPrivateDelegate"* %47 to void (%"class.extensions::NetworkingPrivateDelegate"*, %"class.std::__1::basic_string"*, %"class.base::DictionaryValue"*, i1, %"class.base::OnceCallback.109"*, %"class.base::OnceCallback.171"*)***
  %73 = load void (%"class.extensions::NetworkingPrivateDelegate"*, %"class.std::__1::basic_string"*, %"class.base::DictionaryValue"*, i1, %"class.base::OnceCallback.109"*, %"class.base::OnceCallback.171"*)**, void (%"class.extensions::NetworkingPrivateDelegate"*, %"class.std::__1::basic_string"*, %"class.base::DictionaryValue"*, i1, %"class.base::OnceCallback.109"*, %"class.base::OnceCallback.171"*)*** %72, align 8
  %74 = getelementptr inbounds void (%"class.extensions::NetworkingPrivateDelegate"*, %"class.std::__1::basic_string"*, %"class.base::DictionaryValue"*, i1, %"class.base::OnceCallback.109"*, %"class.base::OnceCallback.171"*)*, void (%"class.extensions::NetworkingPrivateDelegate"*, %"class.std::__1::basic_string"*, %"class.base::DictionaryValue"*, i1, %"class.base::OnceCallback.109"*, %"class.base::OnceCallback.171"*)** %73, i64 6
  %75 = load void (%"class.extensions::NetworkingPrivateDelegate"*, %"class.std::__1::basic_string"*, %"class.base::DictionaryValue"*, i1, %"class.base::OnceCallback.109"*, %"class.base::OnceCallback.171"*)*, void (%"class.extensions::NetworkingPrivateDelegate"*, %"class.std::__1::basic_string"*, %"class.base::DictionaryValue"*, i1, %"class.base::OnceCallback.109"*, %"class.base::OnceCallback.171"*)** %74, align 8
  call void %75(%"class.extensions::NetworkingPrivateDelegate"* %47, %"class.std::__1::basic_string"* dereferenceable(24) %48, %"class.base::DictionaryValue"* %19, i1 zeroext true, %"class.base::OnceCallback.109"* nonnull %4, %"class.base::OnceCallback.171"* nonnull %5) #10
  %76 = getelementptr inbounds %"class.base::OnceCallback.171", %"class.base::OnceCallback.171"* %5, i64 0, i32 0
  call void @_ZN4base8internal12CallbackBaseD2Ev(%"class.base::internal::CallbackBase"* nonnull %76) #10
  %77 = getelementptr inbounds %"class.base::OnceCallback.109", %"class.base::OnceCallback.109"* %4, i64 0, i32 0
  call void @_ZN4base8internal12CallbackBaseD2Ev(%"class.base::internal::CallbackBase"* nonnull %77) #10
  %78 = getelementptr inbounds %"class.extensions::NetworkingPrivateSetPropertiesFunction", %"class.extensions::NetworkingPrivateSetPropertiesFunction"* %0, i64 0, i32 0, i32 23
  %79 = load i8, i8* %78, align 8, !range !7
  %80 = icmp eq i8 %79, 0
  br i1 %80, label %83, label %81

81:                                               ; preds = %70
  %82 = call %"class.ExtensionFunction::ResponseActionObject"* @_ZN17ExtensionFunction16AlreadyRespondedEv(%class.ExtensionFunction* %6) #10
  br label %85

83:                                               ; preds = %70
  %84 = call %"class.ExtensionFunction::ResponseActionObject"* @_ZN17ExtensionFunction12RespondLaterEv(%class.ExtensionFunction* %6) #10
  br label %85

85:                                               ; preds = %42, %35, %81, %83
  %86 = phi i64 [ 0, %81 ], [ 0, %83 ], [ %20, %35 ], [ %20, %42 ]
  %87 = phi %"class.ExtensionFunction::ResponseActionObject"* [ %82, %81 ], [ %84, %83 ], [ %37, %35 ], [ %37, %42 ]
  %88 = icmp eq %"class.std::__1::basic_string"* %31, null
  br i1 %88, label %103, label %89

89:                                               ; preds = %85
  br i1 %33, label %102, label %90

90:                                               ; preds = %89, %100
  %91 = phi %"class.std::__1::basic_string"* [ %92, %100 ], [ %32, %89 ]
  %92 = getelementptr inbounds %"class.std::__1::basic_string", %"class.std::__1::basic_string"* %91, i64 -1
  %93 = bitcast %"class.std::__1::basic_string"* %92 to %"struct.std::__1::basic_string<char, std::__1::char_traits<char>, std::__1::allocator<char> >::__short"*
  %94 = getelementptr inbounds %"struct.std::__1::basic_string<char, std::__1::char_traits<char>, std::__1::allocator<char> >::__short", %"struct.std::__1::basic_string<char, std::__1::char_traits<char>, std::__1::allocator<char> >::__short"* %93, i64 0, i32 1, i32 0
  %95 = load i8, i8* %94, align 1
  %96 = icmp slt i8 %95, 0
  br i1 %96, label %97, label %100

97:                                               ; preds = %90
  %98 = getelementptr inbounds %"class.std::__1::basic_string", %"class.std::__1::basic_string"* %92, i64 0, i32 0, i32 0, i32 0, i32 0, i32 0, i32 0
  %99 = load i8*, i8** %98, align 8
  call void @_ZdlPv(i8* %99) #11
  br label %100

100:                                              ; preds = %97, %90
  %101 = icmp eq %"class.std::__1::basic_string"* %92, %31
  br i1 %101, label %102, label %90

102:                                              ; preds = %100, %89
  store %"class.std::__1::basic_string"* %31, %"class.std::__1::basic_string"** %23, align 8
  call void @_ZdlPv(i8* %34) #11
  br label %103

103:                                              ; preds = %85, %102
  call void @llvm.lifetime.end.p0i8(i64 24, i8* nonnull %21) #10
  %104 = icmp eq i64 %86, 0
  br i1 %104, label %109, label %105

105:                                              ; preds = %103
  %106 = inttoptr i64 %86 to %"class.base::DictionaryValue"*
  %107 = getelementptr inbounds %"class.base::DictionaryValue", %"class.base::DictionaryValue"* %106, i64 0, i32 0
  call void @_ZN4base5ValueD2Ev(%"class.base::Value"* nonnull %107) #10
  %108 = inttoptr i64 %86 to i8*
  call void @_ZdlPv(i8* %108) #11
  br label %109

109:                                              ; preds = %103, %105
  call void @_ZN10extensions3api18networking_private13SetProperties6ParamsD1Ev(%"struct.extensions::api::networking_private::SetProperties::Params"* nonnull %9) #10
  %110 = bitcast %"struct.extensions::api::networking_private::SetProperties::Params"* %9 to i8*
  call void @_ZdlPv(i8* %110) #11
  br label %111

111:                                              ; preds = %11, %109
  %112 = phi %"class.ExtensionFunction::ResponseActionObject"* [ %16, %11 ], [ %87, %109 ]
  ret %"class.ExtensionFunction::ResponseActionObject"* %112
}

declare %"struct.extensions::api::networking_private::SetProperties::Params"* @_ZN10extensions3api18networking_private13SetProperties6Params6CreateERKN4base9ListValueE(%"class.base::ListValue"* dereferenceable(32)) local_unnamed_addr #4

declare %"class.base::DictionaryValue"* @_ZNK10extensions3api18networking_private23NetworkConfigProperties7ToValueEv(%"struct.extensions::api::networking_private::NetworkConfigProperties"*) local_unnamed_addr #4

declare %"class.ExtensionFunction::ResponseActionObject"* @_ZN17ExtensionFunction10RespondNowENSt3__110unique_ptrINS_19ResponseValueObjectENS0_14default_deleteIS2_EEEE(%class.ExtensionFunction*, %"class.ExtensionFunction::ResponseValueObject"*) local_unnamed_addr #4

; Function Attrs: nounwind ssp uwtable
define internal fastcc void @_ZN10extensions12_GLOBAL__N_122InvalidPropertiesErrorERKNSt3__16vectorINS1_12basic_stringIcNS1_11char_traitsIcEENS1_9allocatorIcEEEENS6_IS8_EEEE(%"class.std::__1::basic_string"* noalias nocapture sret, %"class.std::__1::vector.116"* nocapture readonly dereferenceable(24)) unnamed_addr #1 {
  %3 = alloca %"class.std::__1::basic_string", align 8
  %4 = alloca %"class.std::__1::basic_string", align 8
  %5 = bitcast %"class.std::__1::basic_string"* %3 to i8*
  call void @llvm.lifetime.start.p0i8(i64 24, i8* nonnull %5) #10
  %6 = bitcast %"class.std::__1::basic_string"* %4 to i8*
  call void @llvm.lifetime.start.p0i8(i64 24, i8* nonnull %6) #10
  %7 = bitcast %"class.std::__1::vector.116"* %1 to i64*
  %8 = load i64, i64* %7, align 8
  %9 = getelementptr inbounds %"class.std::__1::vector.116", %"class.std::__1::vector.116"* %1, i64 0, i32 0, i32 1
  %10 = bitcast %"class.std::__1::basic_string"** %9 to i64*
  %11 = load i64, i64* %10, align 8
  %12 = sub i64 %11, %8
  %13 = sdiv exact i64 %12, 24
  %14 = inttoptr i64 %8 to %"class.std::__1::basic_string"*
  call void @_ZN4base10JoinStringENS_4spanIKNSt3__112basic_stringIcNS1_11char_traitsIcEENS1_9allocatorIcEEEELm18446744073709551615EEENS_16BasicStringPieceIcS4_EE(%"class.std::__1::basic_string"* nonnull sret %4, i64 %13, %"class.std::__1::basic_string"* %14, i8* getelementptr inbounds ([3 x i8], [3 x i8]* @.str.26, i64 0, i64 0), i64 2) #10
  %15 = call dereferenceable(24) %"class.std::__1::basic_string"* @_ZNSt3__112basic_stringIcNS_11char_traitsIcEENS_9allocatorIcEEE6insertEmPKc(%"class.std::__1::basic_string"* nonnull %4, i64 0, i8* getelementptr inbounds ([30 x i8], [30 x i8]* @.str.25, i64 0, i64 0)) #10, !noalias !34
  %16 = bitcast %"class.std::__1::basic_string"* %15 to i8*
  call void @llvm.memcpy.p0i8.p0i8.i64(i8* nonnull align 8 %5, i8* align 8 %16, i64 24, i1 false) #10
  call void @llvm.memset.p0i8.i64(i8* align 8 %16, i8 0, i64 24, i1 false) #10, !noalias !34
  %17 = call dereferenceable(24) %"class.std::__1::basic_string"* @_ZNSt3__112basic_stringIcNS_11char_traitsIcEENS_9allocatorIcEEE6appendEPKc(%"class.std::__1::basic_string"* nonnull %3, i8* getelementptr inbounds ([2 x i8], [2 x i8]* @.str.27, i64 0, i64 0)) #10, !noalias !37
  %18 = bitcast %"class.std::__1::basic_string"* %0 to i8*
  %19 = bitcast %"class.std::__1::basic_string"* %17 to i8*
  call void @llvm.memcpy.p0i8.p0i8.i64(i8* align 8 %18, i8* align 8 %19, i64 24, i1 false) #10
  call void @llvm.memset.p0i8.i64(i8* align 8 %19, i8 0, i64 24, i1 false) #10, !noalias !37
  %20 = bitcast %"class.std::__1::basic_string"* %3 to %"struct.std::__1::basic_string<char, std::__1::char_traits<char>, std::__1::allocator<char> >::__short"*
  %21 = getelementptr inbounds %"struct.std::__1::basic_string<char, std::__1::char_traits<char>, std::__1::allocator<char> >::__short", %"struct.std::__1::basic_string<char, std::__1::char_traits<char>, std::__1::allocator<char> >::__short"* %20, i64 0, i32 1, i32 0
  %22 = load i8, i8* %21, align 1
  %23 = icmp slt i8 %22, 0
  br i1 %23, label %24, label %27

24:                                               ; preds = %2
  %25 = getelementptr inbounds %"class.std::__1::basic_string", %"class.std::__1::basic_string"* %3, i64 0, i32 0, i32 0, i32 0, i32 0, i32 0, i32 0
  %26 = load i8*, i8** %25, align 8
  call void @_ZdlPv(i8* %26) #11
  br label %27

27:                                               ; preds = %2, %24
  %28 = bitcast %"class.std::__1::basic_string"* %4 to %"struct.std::__1::basic_string<char, std::__1::char_traits<char>, std::__1::allocator<char> >::__short"*
  %29 = getelementptr inbounds %"struct.std::__1::basic_string<char, std::__1::char_traits<char>, std::__1::allocator<char> >::__short", %"struct.std::__1::basic_string<char, std::__1::char_traits<char>, std::__1::allocator<char> >::__short"* %28, i64 0, i32 1, i32 0
  %30 = load i8, i8* %29, align 1
  %31 = icmp slt i8 %30, 0
  br i1 %31, label %32, label %35

32:                                               ; preds = %27
  %33 = getelementptr inbounds %"class.std::__1::basic_string", %"class.std::__1::basic_string"* %4, i64 0, i32 0, i32 0, i32 0, i32 0, i32 0, i32 0
  %34 = load i8*, i8** %33, align 8
  call void @_ZdlPv(i8* %34) #11
  br label %35

35:                                               ; preds = %27, %32
  call void @llvm.lifetime.end.p0i8(i64 24, i8* nonnull %6) #10
  call void @llvm.lifetime.end.p0i8(i64 24, i8* nonnull %5) #10
  ret void
}

; Function Attrs: nounwind ssp uwtable
define hidden void @_ZN10extensions38NetworkingPrivateSetPropertiesFunction7SuccessEv(%"class.extensions::NetworkingPrivateSetPropertiesFunction"*) #1 align 2 {
  %2 = bitcast %"class.extensions::NetworkingPrivateSetPropertiesFunction"* %0 to %class.ExtensionFunction*
  %3 = tail call %"class.ExtensionFunction::ResponseValueObject"* @_ZN17ExtensionFunction11NoArgumentsEv(%class.ExtensionFunction* %2) #10
  tail call void @_ZN17ExtensionFunction7RespondENSt3__110unique_ptrINS_19ResponseValueObjectENS0_14default_deleteIS2_EEEE(%class.ExtensionFunction* %2, %"class.ExtensionFunction::ResponseValueObject"* %3) #10
  ret void
}

; Function Attrs: nounwind ssp uwtable
define hidden void @_ZN10extensions38NetworkingPrivateSetPropertiesFunction7FailureERKNSt3__112basic_stringIcNS1_11char_traitsIcEENS1_9allocatorIcEEEE(%"class.extensions::NetworkingPrivateSetPropertiesFunction"*, %"class.std::__1::basic_string"* nocapture readonly dereferenceable(24)) #1 align 2 {
  %3 = alloca %"class.std::__1::basic_string", align 8
  %4 = bitcast %"class.extensions::NetworkingPrivateSetPropertiesFunction"* %0 to %class.ExtensionFunction*
  %5 = bitcast %"class.std::__1::basic_string"* %1 to %"struct.std::__1::basic_string<char, std::__1::char_traits<char>, std::__1::allocator<char> >::__short"*
  %6 = getelementptr inbounds %"struct.std::__1::basic_string<char, std::__1::char_traits<char>, std::__1::allocator<char> >::__short", %"struct.std::__1::basic_string<char, std::__1::char_traits<char>, std::__1::allocator<char> >::__short"* %5, i64 0, i32 1, i32 0
  %7 = load i8, i8* %6, align 1
  %8 = icmp slt i8 %7, 0
  br i1 %8, label %12, label %9

9:                                                ; preds = %2
  %10 = bitcast %"class.std::__1::basic_string"* %3 to i8*
  %11 = bitcast %"class.std::__1::basic_string"* %1 to i8*
  call void @llvm.memcpy.p0i8.p0i8.i64(i8* nonnull align 8 %10, i8* align 8 %11, i64 24, i1 false) #10
  br label %17

12:                                               ; preds = %2
  %13 = getelementptr inbounds %"class.std::__1::basic_string", %"class.std::__1::basic_string"* %1, i64 0, i32 0, i32 0, i32 0, i32 0, i32 0, i32 0
  %14 = load i8*, i8** %13, align 8
  %15 = getelementptr inbounds %"class.std::__1::basic_string", %"class.std::__1::basic_string"* %1, i64 0, i32 0, i32 0, i32 0, i32 0, i32 0, i32 1
  %16 = load i64, i64* %15, align 8
  call void @_ZNSt3__112basic_stringIcNS_11char_traitsIcEENS_9allocatorIcEEE25__init_copy_ctor_externalEPKcm(%"class.std::__1::basic_string"* nonnull %3, i8* %14, i64 %16) #10
  br label %17

17:                                               ; preds = %9, %12
  %18 = call %"class.ExtensionFunction::ResponseValueObject"* @_ZN17ExtensionFunction5ErrorENSt3__112basic_stringIcNS0_11char_traitsIcEENS0_9allocatorIcEEEE(%class.ExtensionFunction* %4, %"class.std::__1::basic_string"* nonnull %3) #10
  call void @_ZN17ExtensionFunction7RespondENSt3__110unique_ptrINS_19ResponseValueObjectENS0_14default_deleteIS2_EEEE(%class.ExtensionFunction* %4, %"class.ExtensionFunction::ResponseValueObject"* %18) #10
  %19 = bitcast %"class.std::__1::basic_string"* %3 to %"struct.std::__1::basic_string<char, std::__1::char_traits<char>, std::__1::allocator<char> >::__short"*
  %20 = getelementptr inbounds %"struct.std::__1::basic_string<char, std::__1::char_traits<char>, std::__1::allocator<char> >::__short", %"struct.std::__1::basic_string<char, std::__1::char_traits<char>, std::__1::allocator<char> >::__short"* %19, i64 0, i32 1, i32 0
  %21 = load i8, i8* %20, align 1
  %22 = icmp slt i8 %21, 0
  br i1 %22, label %23, label %26

23:                                               ; preds = %17
  %24 = getelementptr inbounds %"class.std::__1::basic_string", %"class.std::__1::basic_string"* %3, i64 0, i32 0, i32 0, i32 0, i32 0, i32 0, i32 0
  %25 = load i8*, i8** %24, align 8
  call void @_ZdlPv(i8* %25) #11
  br label %26

26:                                               ; preds = %17, %23
  ret void
}

declare %"class.ExtensionFunction::ResponseValueObject"* @_ZN17ExtensionFunction11NoArgumentsEv(%class.ExtensionFunction*) local_unnamed_addr #4

; Function Attrs: nounwind ssp uwtable
define hidden void @_ZN10extensions38NetworkingPrivateCreateNetworkFunctionD2Ev(%"class.extensions::NetworkingPrivateCreateNetworkFunction"*) unnamed_addr #1 align 2 {
  %2 = bitcast %"class.extensions::NetworkingPrivateCreateNetworkFunction"* %0 to %class.ExtensionFunction*
  tail call void @_ZN17ExtensionFunctionD2Ev(%class.ExtensionFunction* %2) #10
  ret void
}

; Function Attrs: nounwind ssp uwtable
define hidden void @_ZN10extensions38NetworkingPrivateCreateNetworkFunctionD0Ev(%"class.extensions::NetworkingPrivateCreateNetworkFunction"*) unnamed_addr #1 align 2 {
  %2 = bitcast %"class.extensions::NetworkingPrivateCreateNetworkFunction"* %0 to %class.ExtensionFunction*
  tail call void @_ZN17ExtensionFunctionD2Ev(%class.ExtensionFunction* %2) #10
  %3 = bitcast %"class.extensions::NetworkingPrivateCreateNetworkFunction"* %0 to i8*
  tail call void @_ZdlPv(i8* %3) #11
  ret void
}

; Function Attrs: nounwind ssp uwtable
define hidden %"class.ExtensionFunction::ResponseActionObject"* @_ZN10extensions38NetworkingPrivateCreateNetworkFunction3RunEv(%"class.extensions::NetworkingPrivateCreateNetworkFunction"*) unnamed_addr #1 align 2 {
  %2 = alloca %"class.std::__1::vector.116", align 8
  %3 = alloca %"class.std::__1::basic_string", align 8
  %4 = alloca %"class.base::OnceCallback.171", align 8
  %5 = alloca %"class.base::OnceCallback.171", align 8
  %6 = bitcast %"class.extensions::NetworkingPrivateCreateNetworkFunction"* %0 to %class.ExtensionFunction*
  %7 = getelementptr inbounds %"class.extensions::NetworkingPrivateCreateNetworkFunction", %"class.extensions::NetworkingPrivateCreateNetworkFunction"* %0, i64 0, i32 0, i32 4, i32 0, i32 0, i32 0
  %8 = load %"class.base::ListValue"*, %"class.base::ListValue"** %7, align 8
  %9 = tail call %"struct.extensions::api::networking_private::CreateNetwork::Params"* @_ZN10extensions3api18networking_private13CreateNetwork6Params6CreateERKN4base9ListValueE(%"class.base::ListValue"* dereferenceable(32) %8) #10
  %10 = icmp eq %"struct.extensions::api::networking_private::CreateNetwork::Params"* %9, null
  br i1 %10, label %11, label %17

11:                                               ; preds = %1
  %12 = bitcast %"class.extensions::NetworkingPrivateCreateNetworkFunction"* %0 to void (%class.ExtensionFunction*)***
  %13 = load void (%class.ExtensionFunction*)**, void (%class.ExtensionFunction*)*** %12, align 8
  %14 = getelementptr inbounds void (%class.ExtensionFunction*)*, void (%class.ExtensionFunction*)** %13, i64 6
  %15 = load void (%class.ExtensionFunction*)*, void (%class.ExtensionFunction*)** %14, align 8
  tail call void %15(%class.ExtensionFunction* %6) #10
  %16 = tail call %"class.ExtensionFunction::ResponseActionObject"* @_ZN17ExtensionFunction17ValidationFailureEPS_(%class.ExtensionFunction* %6) #10
  br label %113

17:                                               ; preds = %1
  %18 = getelementptr inbounds %"struct.extensions::api::networking_private::CreateNetwork::Params", %"struct.extensions::api::networking_private::CreateNetwork::Params"* %9, i64 0, i32 1
  %19 = tail call %"class.base::DictionaryValue"* @_ZNK10extensions3api18networking_private23NetworkConfigProperties7ToValueEv(%"struct.extensions::api::networking_private::NetworkConfigProperties"* %18) #10
  %20 = ptrtoint %"class.base::DictionaryValue"* %19 to i64
  %21 = bitcast %"class.std::__1::vector.116"* %2 to i8*
  call void @llvm.lifetime.start.p0i8(i64 24, i8* nonnull %21) #10
  %22 = getelementptr inbounds %"class.std::__1::vector.116", %"class.std::__1::vector.116"* %2, i64 0, i32 0, i32 0
  %23 = getelementptr inbounds %"class.std::__1::vector.116", %"class.std::__1::vector.116"* %2, i64 0, i32 0, i32 1
  %24 = getelementptr inbounds %"class.base::DictionaryValue", %"class.base::DictionaryValue"* %19, i64 0, i32 0
  %25 = getelementptr inbounds %"class.extensions::NetworkingPrivateCreateNetworkFunction", %"class.extensions::NetworkingPrivateCreateNetworkFunction"* %0, i64 0, i32 0, i32 3, i32 0
  %26 = bitcast %"class.std::__1::vector.116"* %2 to i8*
  call void @llvm.memset.p0i8.i64(i8* nonnull align 8 %26, i8 -86, i64 24, i1 false)
  %27 = load %"class.extensions::Extension"*, %"class.extensions::Extension"** %25, align 8
  %28 = getelementptr inbounds %"class.extensions::NetworkingPrivateCreateNetworkFunction", %"class.extensions::NetworkingPrivateCreateNetworkFunction"* %0, i64 0, i32 0, i32 19
  %29 = load i32, i32* %28, align 8
  %30 = getelementptr inbounds %"class.extensions::NetworkingPrivateCreateNetworkFunction", %"class.extensions::NetworkingPrivateCreateNetworkFunction"* %0, i64 0, i32 0, i32 13
  call fastcc void @_ZN10extensions12_GLOBAL__N_116FilterPropertiesEPN4base5ValueENS0_14PropertiesTypeEPKNS_9ExtensionENS_7Feature7ContextERK4GURL(%"class.std::__1::vector.116"* nonnull sret %2, %"class.base::Value"* %24, i32 1, %"class.extensions::Extension"* %27, i32 %29, %class.GURL* dereferenceable(120) %30)
  %31 = load %"class.std::__1::basic_string"*, %"class.std::__1::basic_string"** %22, align 8
  %32 = load %"class.std::__1::basic_string"*, %"class.std::__1::basic_string"** %23, align 8
  %33 = icmp eq %"class.std::__1::basic_string"* %31, %32
  %34 = bitcast %"class.std::__1::basic_string"* %31 to i8*
  br i1 %33, label %45, label %35

35:                                               ; preds = %17
  call fastcc void @_ZN10extensions12_GLOBAL__N_122InvalidPropertiesErrorERKNSt3__16vectorINS1_12basic_stringIcNS1_11char_traitsIcEENS1_9allocatorIcEEEENS6_IS8_EEEE(%"class.std::__1::basic_string"* nonnull sret %3, %"class.std::__1::vector.116"* nonnull dereferenceable(24) %2)
  %36 = call %"class.ExtensionFunction::ResponseValueObject"* @_ZN17ExtensionFunction5ErrorENSt3__112basic_stringIcNS0_11char_traitsIcEENS0_9allocatorIcEEEE(%class.ExtensionFunction* %6, %"class.std::__1::basic_string"* nonnull %3) #10
  %37 = call %"class.ExtensionFunction::ResponseActionObject"* @_ZN17ExtensionFunction10RespondNowENSt3__110unique_ptrINS_19ResponseValueObjectENS0_14default_deleteIS2_EEEE(%class.ExtensionFunction* %6, %"class.ExtensionFunction::ResponseValueObject"* %36) #10
  %38 = bitcast %"class.std::__1::basic_string"* %3 to %"struct.std::__1::basic_string<char, std::__1::char_traits<char>, std::__1::allocator<char> >::__short"*
  %39 = getelementptr inbounds %"struct.std::__1::basic_string<char, std::__1::char_traits<char>, std::__1::allocator<char> >::__short", %"struct.std::__1::basic_string<char, std::__1::char_traits<char>, std::__1::allocator<char> >::__short"* %38, i64 0, i32 1, i32 0
  %40 = load i8, i8* %39, align 1
  %41 = icmp slt i8 %40, 0
  br i1 %41, label %42, label %87

42:                                               ; preds = %35
  %43 = getelementptr inbounds %"class.std::__1::basic_string", %"class.std::__1::basic_string"* %3, i64 0, i32 0, i32 0, i32 0, i32 0, i32 0, i32 0
  %44 = load i8*, i8** %43, align 8
  call void @_ZdlPv(i8* %44) #11
  br label %87

45:                                               ; preds = %17
  %46 = getelementptr inbounds %"struct.extensions::api::networking_private::CreateNetwork::Params", %"struct.extensions::api::networking_private::CreateNetwork::Params"* %9, i64 0, i32 0
  %47 = tail call %"class.content::BrowserContext"* @_ZNK17ExtensionFunction15browser_contextEv(%class.ExtensionFunction* %6) #10
  %48 = tail call %"class.extensions::NetworkingPrivateDelegate"* @_ZN10extensions32NetworkingPrivateDelegateFactory20GetForBrowserContextEPN7content14BrowserContextE(%"class.content::BrowserContext"* %47) #10
  %49 = load i8, i8* %46, align 8, !range !7
  %50 = icmp ne i8 %49, 0
  %51 = tail call i8* @_Znwm(i64 56) #11, !noalias !40
  %52 = bitcast i8* %51 to %"class.base::internal::BindStateBase"*
  tail call void @_ZN4base8internal13BindStateBaseC2EPFvvEPFvPKS1_E(%"class.base::internal::BindStateBase"* nonnull %52, void ()* bitcast (void (%"class.base::internal::BindStateBase"*, %"class.std::__1::basic_string"*)* @_ZN4base8internal7InvokerINS0_9BindStateIMN10extensions38NetworkingPrivateCreateNetworkFunctionEFvRKNSt3__112basic_stringIcNS5_11char_traitsIcEENS5_9allocatorIcEEEEEJ13scoped_refptrIS4_EEEEFvSD_EE7RunOnceEPNS0_13BindStateBaseESD_ to void ()*), void (%"class.base::internal::BindStateBase"*)* nonnull @_ZN4base8internal9BindStateIMN10extensions38NetworkingPrivateCreateNetworkFunctionEFvRKNSt3__112basic_stringIcNS4_11char_traitsIcEENS4_9allocatorIcEEEEEJ13scoped_refptrIS3_EEE7DestroyEPKNS0_13BindStateBaseE) #10, !noalias !40
  %53 = getelementptr inbounds i8, i8* %51, i64 32
  %54 = bitcast i8* %53 to <2 x i64>*
  store <2 x i64> <i64 ptrtoint (void (%"class.extensions::NetworkingPrivateCreateNetworkFunction"*, %"class.std::__1::basic_string"*)* @_ZN10extensions38NetworkingPrivateCreateNetworkFunction7SuccessERKNSt3__112basic_stringIcNS1_11char_traitsIcEENS1_9allocatorIcEEEE to i64), i64 0>, <2 x i64>* %54, align 8, !noalias !40
  %55 = getelementptr inbounds i8, i8* %51, i64 48
  %56 = bitcast i8* %55 to %"class.extensions::NetworkingPrivateCreateNetworkFunction"**
  store %"class.extensions::NetworkingPrivateCreateNetworkFunction"* %0, %"class.extensions::NetworkingPrivateCreateNetworkFunction"** %56, align 8, !noalias !40
  %57 = icmp eq %"class.extensions::NetworkingPrivateCreateNetworkFunction"* %0, null
  br i1 %57, label %61, label %58

58:                                               ; preds = %45
  %59 = getelementptr inbounds %"class.extensions::NetworkingPrivateCreateNetworkFunction", %"class.extensions::NetworkingPrivateCreateNetworkFunction"* %0, i64 0, i32 0, i32 1, i32 0, i32 0, i32 0, i32 0, i32 0, i32 0, i32 0, i32 0
  %60 = atomicrmw add i32* %59, i32 1 monotonic, !noalias !40
  br label %61

61:                                               ; preds = %45, %58
  %62 = bitcast %"class.base::OnceCallback.171"* %4 to i8**
  store i8* %51, i8** %62, align 8, !alias.scope !40
  %63 = tail call i8* @_Znwm(i64 56) #11, !noalias !45
  %64 = bitcast i8* %63 to %"class.base::internal::BindStateBase"*
  tail call void @_ZN4base8internal13BindStateBaseC2EPFvvEPFvPKS1_E(%"class.base::internal::BindStateBase"* nonnull %64, void ()* bitcast (void (%"class.base::internal::BindStateBase"*, %"class.std::__1::basic_string"*)* @_ZN4base8internal7InvokerINS0_9BindStateIMN10extensions38NetworkingPrivateCreateNetworkFunctionEFvRKNSt3__112basic_stringIcNS5_11char_traitsIcEENS5_9allocatorIcEEEEEJ13scoped_refptrIS4_EEEEFvSD_EE7RunOnceEPNS0_13BindStateBaseESD_ to void ()*), void (%"class.base::internal::BindStateBase"*)* nonnull @_ZN4base8internal9BindStateIMN10extensions38NetworkingPrivateCreateNetworkFunctionEFvRKNSt3__112basic_stringIcNS4_11char_traitsIcEENS4_9allocatorIcEEEEEJ13scoped_refptrIS3_EEE7DestroyEPKNS0_13BindStateBaseE) #10, !noalias !45
  %65 = getelementptr inbounds i8, i8* %63, i64 32
  %66 = bitcast i8* %65 to <2 x i64>*
  store <2 x i64> <i64 ptrtoint (void (%"class.extensions::NetworkingPrivateCreateNetworkFunction"*, %"class.std::__1::basic_string"*)* @_ZN10extensions38NetworkingPrivateCreateNetworkFunction7FailureERKNSt3__112basic_stringIcNS1_11char_traitsIcEENS1_9allocatorIcEEEE to i64), i64 0>, <2 x i64>* %66, align 8, !noalias !45
  %67 = getelementptr inbounds i8, i8* %63, i64 48
  %68 = bitcast i8* %67 to %"class.extensions::NetworkingPrivateCreateNetworkFunction"**
  store %"class.extensions::NetworkingPrivateCreateNetworkFunction"* %0, %"class.extensions::NetworkingPrivateCreateNetworkFunction"** %68, align 8, !noalias !45
  br i1 %57, label %72, label %69

69:                                               ; preds = %61
  %70 = getelementptr inbounds %"class.extensions::NetworkingPrivateCreateNetworkFunction", %"class.extensions::NetworkingPrivateCreateNetworkFunction"* %0, i64 0, i32 0, i32 1, i32 0, i32 0, i32 0, i32 0, i32 0, i32 0, i32 0, i32 0
  %71 = atomicrmw add i32* %70, i32 1 monotonic, !noalias !45
  br label %72

72:                                               ; preds = %61, %69
  %73 = bitcast %"class.base::OnceCallback.171"* %5 to i8**
  store i8* %63, i8** %73, align 8, !alias.scope !45
  %74 = bitcast %"class.extensions::NetworkingPrivateDelegate"* %48 to void (%"class.extensions::NetworkingPrivateDelegate"*, i1, %"class.base::DictionaryValue"*, %"class.base::OnceCallback.171"*, %"class.base::OnceCallback.171"*)***
  %75 = load void (%"class.extensions::NetworkingPrivateDelegate"*, i1, %"class.base::DictionaryValue"*, %"class.base::OnceCallback.171"*, %"class.base::OnceCallback.171"*)**, void (%"class.extensions::NetworkingPrivateDelegate"*, i1, %"class.base::DictionaryValue"*, %"class.base::OnceCallback.171"*, %"class.base::OnceCallback.171"*)*** %74, align 8
  %76 = getelementptr inbounds void (%"class.extensions::NetworkingPrivateDelegate"*, i1, %"class.base::DictionaryValue"*, %"class.base::OnceCallback.171"*, %"class.base::OnceCallback.171"*)*, void (%"class.extensions::NetworkingPrivateDelegate"*, i1, %"class.base::DictionaryValue"*, %"class.base::OnceCallback.171"*, %"class.base::OnceCallback.171"*)** %75, i64 7
  %77 = load void (%"class.extensions::NetworkingPrivateDelegate"*, i1, %"class.base::DictionaryValue"*, %"class.base::OnceCallback.171"*, %"class.base::OnceCallback.171"*)*, void (%"class.extensions::NetworkingPrivateDelegate"*, i1, %"class.base::DictionaryValue"*, %"class.base::OnceCallback.171"*, %"class.base::OnceCallback.171"*)** %76, align 8
  call void %77(%"class.extensions::NetworkingPrivateDelegate"* %48, i1 zeroext %50, %"class.base::DictionaryValue"* %19, %"class.base::OnceCallback.171"* nonnull %4, %"class.base::OnceCallback.171"* nonnull %5) #10
  %78 = getelementptr inbounds %"class.base::OnceCallback.171", %"class.base::OnceCallback.171"* %5, i64 0, i32 0
  call void @_ZN4base8internal12CallbackBaseD2Ev(%"class.base::internal::CallbackBase"* nonnull %78) #10
  %79 = getelementptr inbounds %"class.base::OnceCallback.171", %"class.base::OnceCallback.171"* %4, i64 0, i32 0
  call void @_ZN4base8internal12CallbackBaseD2Ev(%"class.base::internal::CallbackBase"* nonnull %79) #10
  %80 = getelementptr inbounds %"class.extensions::NetworkingPrivateCreateNetworkFunction", %"class.extensions::NetworkingPrivateCreateNetworkFunction"* %0, i64 0, i32 0, i32 23
  %81 = load i8, i8* %80, align 8, !range !7
  %82 = icmp eq i8 %81, 0
  br i1 %82, label %85, label %83

83:                                               ; preds = %72
  %84 = call %"class.ExtensionFunction::ResponseActionObject"* @_ZN17ExtensionFunction16AlreadyRespondedEv(%class.ExtensionFunction* %6) #10
  br label %87

85:                                               ; preds = %72
  %86 = call %"class.ExtensionFunction::ResponseActionObject"* @_ZN17ExtensionFunction12RespondLaterEv(%class.ExtensionFunction* %6) #10
  br label %87

87:                                               ; preds = %42, %35, %83, %85
  %88 = phi i64 [ 0, %83 ], [ 0, %85 ], [ %20, %35 ], [ %20, %42 ]
  %89 = phi %"class.ExtensionFunction::ResponseActionObject"* [ %84, %83 ], [ %86, %85 ], [ %37, %35 ], [ %37, %42 ]
  %90 = icmp eq %"class.std::__1::basic_string"* %31, null
  br i1 %90, label %105, label %91

91:                                               ; preds = %87
  br i1 %33, label %104, label %92

92:                                               ; preds = %91, %102
  %93 = phi %"class.std::__1::basic_string"* [ %94, %102 ], [ %32, %91 ]
  %94 = getelementptr inbounds %"class.std::__1::basic_string", %"class.std::__1::basic_string"* %93, i64 -1
  %95 = bitcast %"class.std::__1::basic_string"* %94 to %"struct.std::__1::basic_string<char, std::__1::char_traits<char>, std::__1::allocator<char> >::__short"*
  %96 = getelementptr inbounds %"struct.std::__1::basic_string<char, std::__1::char_traits<char>, std::__1::allocator<char> >::__short", %"struct.std::__1::basic_string<char, std::__1::char_traits<char>, std::__1::allocator<char> >::__short"* %95, i64 0, i32 1, i32 0
  %97 = load i8, i8* %96, align 1
  %98 = icmp slt i8 %97, 0
  br i1 %98, label %99, label %102

99:                                               ; preds = %92
  %100 = getelementptr inbounds %"class.std::__1::basic_string", %"class.std::__1::basic_string"* %94, i64 0, i32 0, i32 0, i32 0, i32 0, i32 0, i32 0
  %101 = load i8*, i8** %100, align 8
  call void @_ZdlPv(i8* %101) #11
  br label %102

102:                                              ; preds = %99, %92
  %103 = icmp eq %"class.std::__1::basic_string"* %94, %31
  br i1 %103, label %104, label %92

104:                                              ; preds = %102, %91
  store %"class.std::__1::basic_string"* %31, %"class.std::__1::basic_string"** %23, align 8
  call void @_ZdlPv(i8* %34) #11
  br label %105

105:                                              ; preds = %87, %104
  call void @llvm.lifetime.end.p0i8(i64 24, i8* nonnull %21) #10
  %106 = icmp eq i64 %88, 0
  br i1 %106, label %111, label %107

107:                                              ; preds = %105
  %108 = inttoptr i64 %88 to %"class.base::DictionaryValue"*
  %109 = getelementptr inbounds %"class.base::DictionaryValue", %"class.base::DictionaryValue"* %108, i64 0, i32 0
  call void @_ZN4base5ValueD2Ev(%"class.base::Value"* nonnull %109) #10
  %110 = inttoptr i64 %88 to i8*
  call void @_ZdlPv(i8* %110) #11
  br label %111

111:                                              ; preds = %105, %107
  call void @_ZN10extensions3api18networking_private13CreateNetwork6ParamsD1Ev(%"struct.extensions::api::networking_private::CreateNetwork::Params"* nonnull %9) #10
  %112 = getelementptr inbounds %"struct.extensions::api::networking_private::CreateNetwork::Params", %"struct.extensions::api::networking_private::CreateNetwork::Params"* %9, i64 0, i32 0
  call void @_ZdlPv(i8* %112) #11
  br label %113

113:                                              ; preds = %11, %111
  %114 = phi %"class.ExtensionFunction::ResponseActionObject"* [ %16, %11 ], [ %89, %111 ]
  ret %"class.ExtensionFunction::ResponseActionObject"* %114
}

declare %"struct.extensions::api::networking_private::CreateNetwork::Params"* @_ZN10extensions3api18networking_private13CreateNetwork6Params6CreateERKN4base9ListValueE(%"class.base::ListValue"* dereferenceable(32)) local_unnamed_addr #4

; Function Attrs: nounwind ssp uwtable
define hidden void @_ZN10extensions38NetworkingPrivateCreateNetworkFunction7SuccessERKNSt3__112basic_stringIcNS1_11char_traitsIcEENS1_9allocatorIcEEEE(%"class.extensions::NetworkingPrivateCreateNetworkFunction"*, %"class.std::__1::basic_string"* dereferenceable(24)) #1 align 2 {
  %3 = alloca %"class.std::__1::vector.65", align 8
  %4 = bitcast %"class.extensions::NetworkingPrivateCreateNetworkFunction"* %0 to %class.ExtensionFunction*
  call void @_ZN10extensions3api18networking_private13CreateNetwork7Results6CreateERKNSt3__112basic_stringIcNS4_11char_traitsIcEENS4_9allocatorIcEEEE(%"class.std::__1::vector.65"* nonnull sret %3, %"class.std::__1::basic_string"* dereferenceable(24) %1) #10
  %5 = call %"class.ExtensionFunction::ResponseValueObject"* @_ZN17ExtensionFunction12ArgumentListENSt3__16vectorIN4base5ValueENS0_9allocatorIS3_EEEE(%class.ExtensionFunction* %4, %"class.std::__1::vector.65"* nonnull %3) #10
  call void @_ZN17ExtensionFunction7RespondENSt3__110unique_ptrINS_19ResponseValueObjectENS0_14default_deleteIS2_EEEE(%class.ExtensionFunction* %4, %"class.ExtensionFunction::ResponseValueObject"* %5) #10
  %6 = getelementptr inbounds %"class.std::__1::vector.65", %"class.std::__1::vector.65"* %3, i64 0, i32 0, i32 0
  %7 = load %"class.base::Value"*, %"class.base::Value"** %6, align 8
  %8 = icmp eq %"class.base::Value"* %7, null
  br i1 %8, label %23, label %9

9:                                                ; preds = %2
  %10 = bitcast %"class.base::Value"* %7 to i8*
  %11 = getelementptr inbounds %"class.std::__1::vector.65", %"class.std::__1::vector.65"* %3, i64 0, i32 0, i32 1
  %12 = load %"class.base::Value"*, %"class.base::Value"** %11, align 8
  %13 = icmp eq %"class.base::Value"* %12, %7
  br i1 %13, label %21, label %14

14:                                               ; preds = %9, %14
  %15 = phi %"class.base::Value"* [ %16, %14 ], [ %12, %9 ]
  %16 = getelementptr inbounds %"class.base::Value", %"class.base::Value"* %15, i64 -1
  call void @_ZN4base5ValueD1Ev(%"class.base::Value"* %16) #10
  %17 = icmp eq %"class.base::Value"* %16, %7
  br i1 %17, label %18, label %14

18:                                               ; preds = %14
  %19 = bitcast %"class.std::__1::vector.65"* %3 to i8**
  %20 = load i8*, i8** %19, align 8
  br label %21

21:                                               ; preds = %18, %9
  %22 = phi i8* [ %20, %18 ], [ %10, %9 ]
  store %"class.base::Value"* %7, %"class.base::Value"** %11, align 8
  call void @_ZdlPv(i8* %22) #11
  br label %23

23:                                               ; preds = %2, %21
  ret void
}

; Function Attrs: nounwind ssp uwtable
define hidden void @_ZN10extensions38NetworkingPrivateCreateNetworkFunction7FailureERKNSt3__112basic_stringIcNS1_11char_traitsIcEENS1_9allocatorIcEEEE(%"class.extensions::NetworkingPrivateCreateNetworkFunction"*, %"class.std::__1::basic_string"* nocapture readonly dereferenceable(24)) #1 align 2 {
  %3 = alloca %"class.std::__1::basic_string", align 8
  %4 = bitcast %"class.extensions::NetworkingPrivateCreateNetworkFunction"* %0 to %class.ExtensionFunction*
  %5 = bitcast %"class.std::__1::basic_string"* %1 to %"struct.std::__1::basic_string<char, std::__1::char_traits<char>, std::__1::allocator<char> >::__short"*
  %6 = getelementptr inbounds %"struct.std::__1::basic_string<char, std::__1::char_traits<char>, std::__1::allocator<char> >::__short", %"struct.std::__1::basic_string<char, std::__1::char_traits<char>, std::__1::allocator<char> >::__short"* %5, i64 0, i32 1, i32 0
  %7 = load i8, i8* %6, align 1
  %8 = icmp slt i8 %7, 0
  br i1 %8, label %12, label %9

9:                                                ; preds = %2
  %10 = bitcast %"class.std::__1::basic_string"* %3 to i8*
  %11 = bitcast %"class.std::__1::basic_string"* %1 to i8*
  call void @llvm.memcpy.p0i8.p0i8.i64(i8* nonnull align 8 %10, i8* align 8 %11, i64 24, i1 false) #10
  br label %17

12:                                               ; preds = %2
  %13 = getelementptr inbounds %"class.std::__1::basic_string", %"class.std::__1::basic_string"* %1, i64 0, i32 0, i32 0, i32 0, i32 0, i32 0, i32 0
  %14 = load i8*, i8** %13, align 8
  %15 = getelementptr inbounds %"class.std::__1::basic_string", %"class.std::__1::basic_string"* %1, i64 0, i32 0, i32 0, i32 0, i32 0, i32 0, i32 1
  %16 = load i64, i64* %15, align 8
  call void @_ZNSt3__112basic_stringIcNS_11char_traitsIcEENS_9allocatorIcEEE25__init_copy_ctor_externalEPKcm(%"class.std::__1::basic_string"* nonnull %3, i8* %14, i64 %16) #10
  br label %17

17:                                               ; preds = %9, %12
  %18 = call %"class.ExtensionFunction::ResponseValueObject"* @_ZN17ExtensionFunction5ErrorENSt3__112basic_stringIcNS0_11char_traitsIcEENS0_9allocatorIcEEEE(%class.ExtensionFunction* %4, %"class.std::__1::basic_string"* nonnull %3) #10
  call void @_ZN17ExtensionFunction7RespondENSt3__110unique_ptrINS_19ResponseValueObjectENS0_14default_deleteIS2_EEEE(%class.ExtensionFunction* %4, %"class.ExtensionFunction::ResponseValueObject"* %18) #10
  %19 = bitcast %"class.std::__1::basic_string"* %3 to %"struct.std::__1::basic_string<char, std::__1::char_traits<char>, std::__1::allocator<char> >::__short"*
  %20 = getelementptr inbounds %"struct.std::__1::basic_string<char, std::__1::char_traits<char>, std::__1::allocator<char> >::__short", %"struct.std::__1::basic_string<char, std::__1::char_traits<char>, std::__1::allocator<char> >::__short"* %19, i64 0, i32 1, i32 0
  %21 = load i8, i8* %20, align 1
  %22 = icmp slt i8 %21, 0
  br i1 %22, label %23, label %26

23:                                               ; preds = %17
  %24 = getelementptr inbounds %"class.std::__1::basic_string", %"class.std::__1::basic_string"* %3, i64 0, i32 0, i32 0, i32 0, i32 0, i32 0, i32 0
  %25 = load i8*, i8** %24, align 8
  call void @_ZdlPv(i8* %25) #11
  br label %26

26:                                               ; preds = %17, %23
  ret void
}

declare %"class.ExtensionFunction::ResponseValueObject"* @_ZN17ExtensionFunction12ArgumentListENSt3__16vectorIN4base5ValueENS0_9allocatorIS3_EEEE(%class.ExtensionFunction*, %"class.std::__1::vector.65"*) local_unnamed_addr #4

declare void @_ZN10extensions3api18networking_private13CreateNetwork7Results6CreateERKNSt3__112basic_stringIcNS4_11char_traitsIcEENS4_9allocatorIcEEEE(%"class.std::__1::vector.65"* sret, %"class.std::__1::basic_string"* dereferenceable(24)) local_unnamed_addr #4

; Function Attrs: nounwind ssp uwtable
define hidden void @_ZN10extensions38NetworkingPrivateForgetNetworkFunctionD2Ev(%"class.extensions::NetworkingPrivateForgetNetworkFunction"*) unnamed_addr #1 align 2 {
  %2 = bitcast %"class.extensions::NetworkingPrivateForgetNetworkFunction"* %0 to %class.ExtensionFunction*
  tail call void @_ZN17ExtensionFunctionD2Ev(%class.ExtensionFunction* %2) #10
  ret void
}

; Function Attrs: nounwind ssp uwtable
define hidden void @_ZN10extensions38NetworkingPrivateForgetNetworkFunctionD0Ev(%"class.extensions::NetworkingPrivateForgetNetworkFunction"*) unnamed_addr #1 align 2 {
  %2 = bitcast %"class.extensions::NetworkingPrivateForgetNetworkFunction"* %0 to %class.ExtensionFunction*
  tail call void @_ZN17ExtensionFunctionD2Ev(%class.ExtensionFunction* %2) #10
  %3 = bitcast %"class.extensions::NetworkingPrivateForgetNetworkFunction"* %0 to i8*
  tail call void @_ZdlPv(i8* %3) #11
  ret void
}

; Function Attrs: nounwind ssp uwtable
define hidden %"class.ExtensionFunction::ResponseActionObject"* @_ZN10extensions38NetworkingPrivateForgetNetworkFunction3RunEv(%"class.extensions::NetworkingPrivateForgetNetworkFunction"*) unnamed_addr #1 align 2 {
  %2 = alloca %"class.base::OnceCallback.109", align 8
  %3 = alloca %"class.base::OnceCallback.171", align 8
  %4 = bitcast %"class.extensions::NetworkingPrivateForgetNetworkFunction"* %0 to %class.ExtensionFunction*
  %5 = getelementptr inbounds %"class.extensions::NetworkingPrivateForgetNetworkFunction", %"class.extensions::NetworkingPrivateForgetNetworkFunction"* %0, i64 0, i32 0, i32 4, i32 0, i32 0, i32 0
  %6 = load %"class.base::ListValue"*, %"class.base::ListValue"** %5, align 8
  %7 = tail call %"struct.extensions::api::networking_private::ForgetNetwork::Params"* @_ZN10extensions3api18networking_private13ForgetNetwork6Params6CreateERKN4base9ListValueE(%"class.base::ListValue"* dereferenceable(32) %6) #10
  %8 = icmp eq %"struct.extensions::api::networking_private::ForgetNetwork::Params"* %7, null
  br i1 %8, label %49, label %9

9:                                                ; preds = %1
  %10 = tail call %"class.content::BrowserContext"* @_ZNK17ExtensionFunction15browser_contextEv(%class.ExtensionFunction* %4) #10
  %11 = tail call %"class.extensions::NetworkingPrivateDelegate"* @_ZN10extensions32NetworkingPrivateDelegateFactory20GetForBrowserContextEPN7content14BrowserContextE(%"class.content::BrowserContext"* %10) #10
  %12 = getelementptr inbounds %"struct.extensions::api::networking_private::ForgetNetwork::Params", %"struct.extensions::api::networking_private::ForgetNetwork::Params"* %7, i64 0, i32 0
  %13 = tail call i8* @_Znwm(i64 56) #11, !noalias !50
  %14 = bitcast i8* %13 to %"class.base::internal::BindStateBase"*
  tail call void @_ZN4base8internal13BindStateBaseC2EPFvvEPFvPKS1_E(%"class.base::internal::BindStateBase"* nonnull %14, void ()* bitcast (void (%"class.base::internal::BindStateBase"*)* @_ZN4base8internal7InvokerINS0_9BindStateIMN10extensions38NetworkingPrivateForgetNetworkFunctionEFvvEJ13scoped_refptrIS4_EEEEFvvEE7RunOnceEPNS0_13BindStateBaseE to void ()*), void (%"class.base::internal::BindStateBase"*)* nonnull @_ZN4base8internal9BindStateIMN10extensions38NetworkingPrivateForgetNetworkFunctionEFvvEJ13scoped_refptrIS3_EEE7DestroyEPKNS0_13BindStateBaseE) #10, !noalias !50
  %15 = getelementptr inbounds i8, i8* %13, i64 32
  %16 = bitcast i8* %15 to <2 x i64>*
  store <2 x i64> <i64 ptrtoint (void (%"class.extensions::NetworkingPrivateForgetNetworkFunction"*)* @_ZN10extensions38NetworkingPrivateForgetNetworkFunction7SuccessEv to i64), i64 0>, <2 x i64>* %16, align 8, !noalias !50
  %17 = getelementptr inbounds i8, i8* %13, i64 48
  %18 = bitcast i8* %17 to %"class.extensions::NetworkingPrivateForgetNetworkFunction"**
  store %"class.extensions::NetworkingPrivateForgetNetworkFunction"* %0, %"class.extensions::NetworkingPrivateForgetNetworkFunction"** %18, align 8, !noalias !50
  %19 = icmp eq %"class.extensions::NetworkingPrivateForgetNetworkFunction"* %0, null
  br i1 %19, label %23, label %20

20:                                               ; preds = %9
  %21 = getelementptr inbounds %"class.extensions::NetworkingPrivateForgetNetworkFunction", %"class.extensions::NetworkingPrivateForgetNetworkFunction"* %0, i64 0, i32 0, i32 1, i32 0, i32 0, i32 0, i32 0, i32 0, i32 0, i32 0, i32 0
  %22 = atomicrmw add i32* %21, i32 1 monotonic, !noalias !50
  br label %23

23:                                               ; preds = %9, %20
  %24 = bitcast %"class.base::OnceCallback.109"* %2 to i8**
  store i8* %13, i8** %24, align 8, !alias.scope !50
  %25 = tail call i8* @_Znwm(i64 56) #11, !noalias !55
  %26 = bitcast i8* %25 to %"class.base::internal::BindStateBase"*
  tail call void @_ZN4base8internal13BindStateBaseC2EPFvvEPFvPKS1_E(%"class.base::internal::BindStateBase"* nonnull %26, void ()* bitcast (void (%"class.base::internal::BindStateBase"*, %"class.std::__1::basic_string"*)* @_ZN4base8internal7InvokerINS0_9BindStateIMN10extensions38NetworkingPrivateForgetNetworkFunctionEFvRKNSt3__112basic_stringIcNS5_11char_traitsIcEENS5_9allocatorIcEEEEEJ13scoped_refptrIS4_EEEEFvSD_EE7RunOnceEPNS0_13BindStateBaseESD_ to void ()*), void (%"class.base::internal::BindStateBase"*)* nonnull @_ZN4base8internal9BindStateIMN10extensions38NetworkingPrivateForgetNetworkFunctionEFvRKNSt3__112basic_stringIcNS4_11char_traitsIcEENS4_9allocatorIcEEEEEJ13scoped_refptrIS3_EEE7DestroyEPKNS0_13BindStateBaseE) #10, !noalias !55
  %27 = getelementptr inbounds i8, i8* %25, i64 32
  %28 = bitcast i8* %27 to <2 x i64>*
  store <2 x i64> <i64 ptrtoint (void (%"class.extensions::NetworkingPrivateForgetNetworkFunction"*, %"class.std::__1::basic_string"*)* @_ZN10extensions38NetworkingPrivateForgetNetworkFunction7FailureERKNSt3__112basic_stringIcNS1_11char_traitsIcEENS1_9allocatorIcEEEE to i64), i64 0>, <2 x i64>* %28, align 8, !noalias !55
  %29 = getelementptr inbounds i8, i8* %25, i64 48
  %30 = bitcast i8* %29 to %"class.extensions::NetworkingPrivateForgetNetworkFunction"**
  store %"class.extensions::NetworkingPrivateForgetNetworkFunction"* %0, %"class.extensions::NetworkingPrivateForgetNetworkFunction"** %30, align 8, !noalias !55
  br i1 %19, label %34, label %31

31:                                               ; preds = %23
  %32 = getelementptr inbounds %"class.extensions::NetworkingPrivateForgetNetworkFunction", %"class.extensions::NetworkingPrivateForgetNetworkFunction"* %0, i64 0, i32 0, i32 1, i32 0, i32 0, i32 0, i32 0, i32 0, i32 0, i32 0, i32 0
  %33 = atomicrmw add i32* %32, i32 1 monotonic, !noalias !55
  br label %34

34:                                               ; preds = %23, %31
  %35 = bitcast %"class.base::OnceCallback.171"* %3 to i8**
  store i8* %25, i8** %35, align 8, !alias.scope !55
  %36 = bitcast %"class.extensions::NetworkingPrivateDelegate"* %11 to void (%"class.extensions::NetworkingPrivateDelegate"*, %"class.std::__1::basic_string"*, i1, %"class.base::OnceCallback.109"*, %"class.base::OnceCallback.171"*)***
  %37 = load void (%"class.extensions::NetworkingPrivateDelegate"*, %"class.std::__1::basic_string"*, i1, %"class.base::OnceCallback.109"*, %"class.base::OnceCallback.171"*)**, void (%"class.extensions::NetworkingPrivateDelegate"*, %"class.std::__1::basic_string"*, i1, %"class.base::OnceCallback.109"*, %"class.base::OnceCallback.171"*)*** %36, align 8
  %38 = getelementptr inbounds void (%"class.extensions::NetworkingPrivateDelegate"*, %"class.std::__1::basic_string"*, i1, %"class.base::OnceCallback.109"*, %"class.base::OnceCallback.171"*)*, void (%"class.extensions::NetworkingPrivateDelegate"*, %"class.std::__1::basic_string"*, i1, %"class.base::OnceCallback.109"*, %"class.base::OnceCallback.171"*)** %37, i64 8
  %39 = load void (%"class.extensions::NetworkingPrivateDelegate"*, %"class.std::__1::basic_string"*, i1, %"class.base::OnceCallback.109"*, %"class.base::OnceCallback.171"*)*, void (%"class.extensions::NetworkingPrivateDelegate"*, %"class.std::__1::basic_string"*, i1, %"class.base::OnceCallback.109"*, %"class.base::OnceCallback.171"*)** %38, align 8
  call void %39(%"class.extensions::NetworkingPrivateDelegate"* %11, %"class.std::__1::basic_string"* dereferenceable(24) %12, i1 zeroext true, %"class.base::OnceCallback.109"* nonnull %2, %"class.base::OnceCallback.171"* nonnull %3) #10
  %40 = getelementptr inbounds %"class.base::OnceCallback.171", %"class.base::OnceCallback.171"* %3, i64 0, i32 0
  call void @_ZN4base8internal12CallbackBaseD2Ev(%"class.base::internal::CallbackBase"* nonnull %40) #10
  %41 = getelementptr inbounds %"class.base::OnceCallback.109", %"class.base::OnceCallback.109"* %2, i64 0, i32 0
  call void @_ZN4base8internal12CallbackBaseD2Ev(%"class.base::internal::CallbackBase"* nonnull %41) #10
  %42 = getelementptr inbounds %"class.extensions::NetworkingPrivateForgetNetworkFunction", %"class.extensions::NetworkingPrivateForgetNetworkFunction"* %0, i64 0, i32 0, i32 23
  %43 = load i8, i8* %42, align 8, !range !7
  %44 = icmp eq i8 %43, 0
  br i1 %44, label %47, label %45

45:                                               ; preds = %34
  %46 = call %"class.ExtensionFunction::ResponseActionObject"* @_ZN17ExtensionFunction16AlreadyRespondedEv(%class.ExtensionFunction* %4) #10
  br label %55

47:                                               ; preds = %34
  %48 = call %"class.ExtensionFunction::ResponseActionObject"* @_ZN17ExtensionFunction12RespondLaterEv(%class.ExtensionFunction* %4) #10
  br label %55

49:                                               ; preds = %1
  %50 = bitcast %"class.extensions::NetworkingPrivateForgetNetworkFunction"* %0 to void (%class.ExtensionFunction*)***
  %51 = load void (%class.ExtensionFunction*)**, void (%class.ExtensionFunction*)*** %50, align 8
  %52 = getelementptr inbounds void (%class.ExtensionFunction*)*, void (%class.ExtensionFunction*)** %51, i64 6
  %53 = load void (%class.ExtensionFunction*)*, void (%class.ExtensionFunction*)** %52, align 8
  tail call void %53(%class.ExtensionFunction* %4) #10
  %54 = tail call %"class.ExtensionFunction::ResponseActionObject"* @_ZN17ExtensionFunction17ValidationFailureEPS_(%class.ExtensionFunction* %4) #10
  br label %58

55:                                               ; preds = %45, %47
  %56 = phi %"class.ExtensionFunction::ResponseActionObject"* [ %48, %47 ], [ %46, %45 ]
  call void @_ZN10extensions3api18networking_private13ForgetNetwork6ParamsD1Ev(%"struct.extensions::api::networking_private::ForgetNetwork::Params"* nonnull %7) #10
  %57 = bitcast %"struct.extensions::api::networking_private::ForgetNetwork::Params"* %7 to i8*
  call void @_ZdlPv(i8* %57) #11
  br label %58

58:                                               ; preds = %49, %55
  %59 = phi %"class.ExtensionFunction::ResponseActionObject"* [ %54, %49 ], [ %56, %55 ]
  ret %"class.ExtensionFunction::ResponseActionObject"* %59
}

declare %"struct.extensions::api::networking_private::ForgetNetwork::Params"* @_ZN10extensions3api18networking_private13ForgetNetwork6Params6CreateERKN4base9ListValueE(%"class.base::ListValue"* dereferenceable(32)) local_unnamed_addr #4

; Function Attrs: nounwind ssp uwtable
define hidden void @_ZN10extensions38NetworkingPrivateForgetNetworkFunction7SuccessEv(%"class.extensions::NetworkingPrivateForgetNetworkFunction"*) #1 align 2 {
  %2 = bitcast %"class.extensions::NetworkingPrivateForgetNetworkFunction"* %0 to %class.ExtensionFunction*
  %3 = tail call %"class.ExtensionFunction::ResponseValueObject"* @_ZN17ExtensionFunction11NoArgumentsEv(%class.ExtensionFunction* %2) #10
  tail call void @_ZN17ExtensionFunction7RespondENSt3__110unique_ptrINS_19ResponseValueObjectENS0_14default_deleteIS2_EEEE(%class.ExtensionFunction* %2, %"class.ExtensionFunction::ResponseValueObject"* %3) #10
  ret void
}

; Function Attrs: nounwind ssp uwtable
define hidden void @_ZN10extensions38NetworkingPrivateForgetNetworkFunction7FailureERKNSt3__112basic_stringIcNS1_11char_traitsIcEENS1_9allocatorIcEEEE(%"class.extensions::NetworkingPrivateForgetNetworkFunction"*, %"class.std::__1::basic_string"* nocapture readonly dereferenceable(24)) #1 align 2 {
  %3 = alloca %"class.std::__1::basic_string", align 8
  %4 = bitcast %"class.extensions::NetworkingPrivateForgetNetworkFunction"* %0 to %class.ExtensionFunction*
  %5 = bitcast %"class.std::__1::basic_string"* %1 to %"struct.std::__1::basic_string<char, std::__1::char_traits<char>, std::__1::allocator<char> >::__short"*
  %6 = getelementptr inbounds %"struct.std::__1::basic_string<char, std::__1::char_traits<char>, std::__1::allocator<char> >::__short", %"struct.std::__1::basic_string<char, std::__1::char_traits<char>, std::__1::allocator<char> >::__short"* %5, i64 0, i32 1, i32 0
  %7 = load i8, i8* %6, align 1
  %8 = icmp slt i8 %7, 0
  br i1 %8, label %12, label %9

9:                                                ; preds = %2
  %10 = bitcast %"class.std::__1::basic_string"* %3 to i8*
  %11 = bitcast %"class.std::__1::basic_string"* %1 to i8*
  call void @llvm.memcpy.p0i8.p0i8.i64(i8* nonnull align 8 %10, i8* align 8 %11, i64 24, i1 false) #10
  br label %17

12:                                               ; preds = %2
  %13 = getelementptr inbounds %"class.std::__1::basic_string", %"class.std::__1::basic_string"* %1, i64 0, i32 0, i32 0, i32 0, i32 0, i32 0, i32 0
  %14 = load i8*, i8** %13, align 8
  %15 = getelementptr inbounds %"class.std::__1::basic_string", %"class.std::__1::basic_string"* %1, i64 0, i32 0, i32 0, i32 0, i32 0, i32 0, i32 1
  %16 = load i64, i64* %15, align 8
  call void @_ZNSt3__112basic_stringIcNS_11char_traitsIcEENS_9allocatorIcEEE25__init_copy_ctor_externalEPKcm(%"class.std::__1::basic_string"* nonnull %3, i8* %14, i64 %16) #10
  br label %17

17:                                               ; preds = %9, %12
  %18 = call %"class.ExtensionFunction::ResponseValueObject"* @_ZN17ExtensionFunction5ErrorENSt3__112basic_stringIcNS0_11char_traitsIcEENS0_9allocatorIcEEEE(%class.ExtensionFunction* %4, %"class.std::__1::basic_string"* nonnull %3) #10
  call void @_ZN17ExtensionFunction7RespondENSt3__110unique_ptrINS_19ResponseValueObjectENS0_14default_deleteIS2_EEEE(%class.ExtensionFunction* %4, %"class.ExtensionFunction::ResponseValueObject"* %18) #10
  %19 = bitcast %"class.std::__1::basic_string"* %3 to %"struct.std::__1::basic_string<char, std::__1::char_traits<char>, std::__1::allocator<char> >::__short"*
  %20 = getelementptr inbounds %"struct.std::__1::basic_string<char, std::__1::char_traits<char>, std::__1::allocator<char> >::__short", %"struct.std::__1::basic_string<char, std::__1::char_traits<char>, std::__1::allocator<char> >::__short"* %19, i64 0, i32 1, i32 0
  %21 = load i8, i8* %20, align 1
  %22 = icmp slt i8 %21, 0
  br i1 %22, label %23, label %26

23:                                               ; preds = %17
  %24 = getelementptr inbounds %"class.std::__1::basic_string", %"class.std::__1::basic_string"* %3, i64 0, i32 0, i32 0, i32 0, i32 0, i32 0, i32 0
  %25 = load i8*, i8** %24, align 8
  call void @_ZdlPv(i8* %25) #11
  br label %26

26:                                               ; preds = %17, %23
  ret void
}

; Function Attrs: nounwind ssp uwtable
define hidden void @_ZN10extensions36NetworkingPrivateGetNetworksFunctionD2Ev(%"class.extensions::NetworkingPrivateGetNetworksFunction"*) unnamed_addr #1 align 2 {
  %2 = bitcast %"class.extensions::NetworkingPrivateGetNetworksFunction"* %0 to %class.ExtensionFunction*
  tail call void @_ZN17ExtensionFunctionD2Ev(%class.ExtensionFunction* %2) #10
  ret void
}

; Function Attrs: nounwind ssp uwtable
define hidden void @_ZN10extensions36NetworkingPrivateGetNetworksFunctionD0Ev(%"class.extensions::NetworkingPrivateGetNetworksFunction"*) unnamed_addr #1 align 2 {
  %2 = bitcast %"class.extensions::NetworkingPrivateGetNetworksFunction"* %0 to %class.ExtensionFunction*
  tail call void @_ZN17ExtensionFunctionD2Ev(%class.ExtensionFunction* %2) #10
  %3 = bitcast %"class.extensions::NetworkingPrivateGetNetworksFunction"* %0 to i8*
  tail call void @_ZdlPv(i8* %3) #11
  ret void
}

; Function Attrs: nounwind ssp uwtable
define hidden %"class.ExtensionFunction::ResponseActionObject"* @_ZN10extensions36NetworkingPrivateGetNetworksFunction3RunEv(%"class.extensions::NetworkingPrivateGetNetworksFunction"*) unnamed_addr #1 align 2 {
  %2 = alloca %"class.std::__1::basic_string", align 8
  %3 = alloca %"class.base::OnceCallback.377", align 8
  %4 = alloca %"class.base::OnceCallback.171", align 8
  %5 = bitcast %"class.extensions::NetworkingPrivateGetNetworksFunction"* %0 to %class.ExtensionFunction*
  %6 = getelementptr inbounds %"class.extensions::NetworkingPrivateGetNetworksFunction", %"class.extensions::NetworkingPrivateGetNetworksFunction"* %0, i64 0, i32 0, i32 4, i32 0, i32 0, i32 0
  %7 = load %"class.base::ListValue"*, %"class.base::ListValue"** %6, align 8
  %8 = tail call %"struct.extensions::api::networking_private::GetNetworks::Params"* @_ZN10extensions3api18networking_private11GetNetworks6Params6CreateERKN4base9ListValueE(%"class.base::ListValue"* dereferenceable(32) %7) #10
  %9 = icmp eq %"struct.extensions::api::networking_private::GetNetworks::Params"* %8, null
  br i1 %9, label %10, label %16

10:                                               ; preds = %1
  %11 = bitcast %"class.extensions::NetworkingPrivateGetNetworksFunction"* %0 to void (%class.ExtensionFunction*)***
  %12 = load void (%class.ExtensionFunction*)**, void (%class.ExtensionFunction*)*** %11, align 8
  %13 = getelementptr inbounds void (%class.ExtensionFunction*)*, void (%class.ExtensionFunction*)** %12, i64 6
  %14 = load void (%class.ExtensionFunction*)*, void (%class.ExtensionFunction*)** %13, align 8
  tail call void %14(%class.ExtensionFunction* %5) #10
  %15 = tail call %"class.ExtensionFunction::ResponseActionObject"* @_ZN17ExtensionFunction17ValidationFailureEPS_(%class.ExtensionFunction* %5) #10
  br label %117

16:                                               ; preds = %1
  %17 = bitcast %"class.std::__1::basic_string"* %2 to i8*
  call void @llvm.lifetime.start.p0i8(i64 24, i8* nonnull %17) #10
  %18 = getelementptr inbounds %"class.std::__1::basic_string", %"class.std::__1::basic_string"* %2, i64 0, i32 0, i32 0, i32 0, i32 0, i32 0, i32 0
  %19 = getelementptr inbounds %"class.std::__1::basic_string", %"class.std::__1::basic_string"* %2, i64 0, i32 0, i32 0, i32 0, i32 0, i32 0, i32 1
  %20 = getelementptr inbounds %"class.std::__1::basic_string", %"class.std::__1::basic_string"* %2, i64 0, i32 0, i32 0, i32 0, i32 0, i32 0, i32 2
  %21 = getelementptr inbounds %"struct.extensions::api::networking_private::GetNetworks::Params", %"struct.extensions::api::networking_private::GetNetworks::Params"* %8, i64 0, i32 0, i32 0
  %22 = bitcast %"class.std::__1::basic_string"* %2 to i8*
  call void @llvm.memset.p0i8.i64(i8* nonnull align 8 %22, i8 -86, i64 24, i1 false)
  %23 = load i32, i32* %21, align 8
  %24 = tail call i8* @_ZN10extensions3api18networking_private8ToStringENS1_11NetworkTypeE(i32 %23) #10
  %25 = tail call i64 @strlen(i8* %24) #10
  %26 = icmp ugt i64 %25, -17
  br i1 %26, label %27, label %29

27:                                               ; preds = %16
  %28 = bitcast %"class.std::__1::basic_string"* %2 to %"class.std::__1::__basic_string_common"*
  call void @_ZNKSt3__121__basic_string_commonILb1EE20__throw_length_errorEv(%"class.std::__1::__basic_string_common"* nonnull %28) #12
  unreachable

29:                                               ; preds = %16
  %30 = icmp ult i64 %25, 23
  br i1 %30, label %36, label %31

31:                                               ; preds = %29
  %32 = add nuw i64 %25, 16
  %33 = and i64 %32, -16
  %34 = tail call i8* @_Znwm(i64 %33) #11
  store i8* %34, i8** %18, align 8
  %35 = or i64 %33, -9223372036854775808
  store i64 %35, i64* %20, align 8
  store i64 %25, i64* %19, align 8
  br label %41

36:                                               ; preds = %29
  %37 = trunc i64 %25 to i8
  %38 = bitcast %"class.std::__1::basic_string"* %2 to %"struct.std::__1::basic_string<char, std::__1::char_traits<char>, std::__1::allocator<char> >::__short"*
  %39 = getelementptr inbounds %"struct.std::__1::basic_string<char, std::__1::char_traits<char>, std::__1::allocator<char> >::__short", %"struct.std::__1::basic_string<char, std::__1::char_traits<char>, std::__1::allocator<char> >::__short"* %38, i64 0, i32 1, i32 0
  store i8 %37, i8* %39, align 1
  %40 = icmp eq i64 %25, 0
  br i1 %40, label %43, label %41

41:                                               ; preds = %36, %31
  %42 = phi i8* [ %34, %31 ], [ %17, %36 ]
  call void @llvm.memcpy.p0i8.p0i8.i64(i8* nonnull align 1 %42, i8* align 1 %24, i64 %25, i1 false) #10
  br label %43

43:                                               ; preds = %36, %41
  %44 = phi i8* [ %17, %36 ], [ %42, %41 ]
  %45 = getelementptr inbounds i8, i8* %44, i64 %25
  store i8 0, i8* %45, align 1
  %46 = getelementptr inbounds %"struct.extensions::api::networking_private::GetNetworks::Params", %"struct.extensions::api::networking_private::GetNetworks::Params"* %8, i64 0, i32 0, i32 2, i32 0, i32 0, i32 0
  %47 = load i8*, i8** %46, align 8
  %48 = icmp eq i8* %47, null
  br i1 %48, label %52, label %49

49:                                               ; preds = %43
  %50 = load i8, i8* %47, align 1, !range !7
  %51 = icmp ne i8 %50, 0
  br label %52

52:                                               ; preds = %43, %49
  %53 = phi i1 [ %51, %49 ], [ false, %43 ]
  %54 = getelementptr inbounds %"struct.extensions::api::networking_private::GetNetworks::Params", %"struct.extensions::api::networking_private::GetNetworks::Params"* %8, i64 0, i32 0, i32 1, i32 0, i32 0, i32 0
  %55 = load i8*, i8** %54, align 8
  %56 = icmp eq i8* %55, null
  br i1 %56, label %60, label %57

57:                                               ; preds = %52
  %58 = load i8, i8* %55, align 1, !range !7
  %59 = icmp ne i8 %58, 0
  br label %60

60:                                               ; preds = %52, %57
  %61 = phi i1 [ %59, %57 ], [ false, %52 ]
  %62 = getelementptr inbounds %"struct.extensions::api::networking_private::GetNetworks::Params", %"struct.extensions::api::networking_private::GetNetworks::Params"* %8, i64 0, i32 0, i32 3, i32 0, i32 0, i32 0
  %63 = load i32*, i32** %62, align 8
  %64 = icmp eq i32* %63, null
  br i1 %64, label %67, label %65

65:                                               ; preds = %60
  %66 = load i32, i32* %63, align 4
  br label %67

67:                                               ; preds = %60, %65
  %68 = phi i32 [ %66, %65 ], [ 1000, %60 ]
  %69 = tail call %"class.content::BrowserContext"* @_ZNK17ExtensionFunction15browser_contextEv(%class.ExtensionFunction* %5) #10
  %70 = tail call %"class.extensions::NetworkingPrivateDelegate"* @_ZN10extensions32NetworkingPrivateDelegateFactory20GetForBrowserContextEPN7content14BrowserContextE(%"class.content::BrowserContext"* %69) #10
  %71 = tail call i8* @_Znwm(i64 56) #11, !noalias !60
  %72 = bitcast i8* %71 to %"class.base::internal::BindStateBase"*
  tail call void @_ZN4base8internal13BindStateBaseC2EPFvvEPFvPKS1_E(%"class.base::internal::BindStateBase"* nonnull %72, void ()* bitcast (void (%"class.base::internal::BindStateBase"*, %"class.std::__1::unique_ptr.88"*)* @_ZN4base8internal7InvokerINS0_9BindStateIMN10extensions36NetworkingPrivateGetNetworksFunctionEFvNSt3__110unique_ptrINS_9ListValueENS5_14default_deleteIS7_EEEEEJ13scoped_refptrIS4_EEEEFvSA_EE7RunOnceEPNS0_13BindStateBaseEOSA_ to void ()*), void (%"class.base::internal::BindStateBase"*)* nonnull @_ZN4base8internal9BindStateIMN10extensions36NetworkingPrivateGetNetworksFunctionEFvNSt3__110unique_ptrINS_9ListValueENS4_14default_deleteIS6_EEEEEJ13scoped_refptrIS3_EEE7DestroyEPKNS0_13BindStateBaseE) #10, !noalias !60
  %73 = getelementptr inbounds i8, i8* %71, i64 32
  %74 = bitcast i8* %73 to <2 x i64>*
  store <2 x i64> <i64 ptrtoint (void (%"class.extensions::NetworkingPrivateGetNetworksFunction"*, %"class.base::ListValue"*)* @_ZN10extensions36NetworkingPrivateGetNetworksFunction7SuccessENSt3__110unique_ptrIN4base9ListValueENS1_14default_deleteIS4_EEEE to i64), i64 0>, <2 x i64>* %74, align 8, !noalias !60
  %75 = getelementptr inbounds i8, i8* %71, i64 48
  %76 = bitcast i8* %75 to %"class.extensions::NetworkingPrivateGetNetworksFunction"**
  store %"class.extensions::NetworkingPrivateGetNetworksFunction"* %0, %"class.extensions::NetworkingPrivateGetNetworksFunction"** %76, align 8, !noalias !60
  %77 = icmp eq %"class.extensions::NetworkingPrivateGetNetworksFunction"* %0, null
  br i1 %77, label %81, label %78

78:                                               ; preds = %67
  %79 = getelementptr inbounds %"class.extensions::NetworkingPrivateGetNetworksFunction", %"class.extensions::NetworkingPrivateGetNetworksFunction"* %0, i64 0, i32 0, i32 1, i32 0, i32 0, i32 0, i32 0, i32 0, i32 0, i32 0, i32 0
  %80 = atomicrmw add i32* %79, i32 1 monotonic, !noalias !60
  br label %81

81:                                               ; preds = %67, %78
  %82 = bitcast %"class.base::OnceCallback.377"* %3 to i8**
  store i8* %71, i8** %82, align 8, !alias.scope !60
  %83 = tail call i8* @_Znwm(i64 56) #11, !noalias !65
  %84 = bitcast i8* %83 to %"class.base::internal::BindStateBase"*
  tail call void @_ZN4base8internal13BindStateBaseC2EPFvvEPFvPKS1_E(%"class.base::internal::BindStateBase"* nonnull %84, void ()* bitcast (void (%"class.base::internal::BindStateBase"*, %"class.std::__1::basic_string"*)* @_ZN4base8internal7InvokerINS0_9BindStateIMN10extensions36NetworkingPrivateGetNetworksFunctionEFvRKNSt3__112basic_stringIcNS5_11char_traitsIcEENS5_9allocatorIcEEEEEJ13scoped_refptrIS4_EEEEFvSD_EE7RunOnceEPNS0_13BindStateBaseESD_ to void ()*), void (%"class.base::internal::BindStateBase"*)* nonnull @_ZN4base8internal9BindStateIMN10extensions36NetworkingPrivateGetNetworksFunctionEFvRKNSt3__112basic_stringIcNS4_11char_traitsIcEENS4_9allocatorIcEEEEEJ13scoped_refptrIS3_EEE7DestroyEPKNS0_13BindStateBaseE) #10, !noalias !65
  %85 = getelementptr inbounds i8, i8* %83, i64 32
  %86 = bitcast i8* %85 to <2 x i64>*
  store <2 x i64> <i64 ptrtoint (void (%"class.extensions::NetworkingPrivateGetNetworksFunction"*, %"class.std::__1::basic_string"*)* @_ZN10extensions36NetworkingPrivateGetNetworksFunction7FailureERKNSt3__112basic_stringIcNS1_11char_traitsIcEENS1_9allocatorIcEEEE to i64), i64 0>, <2 x i64>* %86, align 8, !noalias !65
  %87 = getelementptr inbounds i8, i8* %83, i64 48
  %88 = bitcast i8* %87 to %"class.extensions::NetworkingPrivateGetNetworksFunction"**
  store %"class.extensions::NetworkingPrivateGetNetworksFunction"* %0, %"class.extensions::NetworkingPrivateGetNetworksFunction"** %88, align 8, !noalias !65
  br i1 %77, label %92, label %89

89:                                               ; preds = %81
  %90 = getelementptr inbounds %"class.extensions::NetworkingPrivateGetNetworksFunction", %"class.extensions::NetworkingPrivateGetNetworksFunction"* %0, i64 0, i32 0, i32 1, i32 0, i32 0, i32 0, i32 0, i32 0, i32 0, i32 0, i32 0
  %91 = atomicrmw add i32* %90, i32 1 monotonic, !noalias !65
  br label %92

92:                                               ; preds = %81, %89
  %93 = bitcast %"class.base::OnceCallback.171"* %4 to i8**
  store i8* %83, i8** %93, align 8, !alias.scope !65
  %94 = bitcast %"class.extensions::NetworkingPrivateDelegate"* %70 to void (%"class.extensions::NetworkingPrivateDelegate"*, %"class.std::__1::basic_string"*, i1, i1, i32, %"class.base::OnceCallback.377"*, %"class.base::OnceCallback.171"*)***
  %95 = load void (%"class.extensions::NetworkingPrivateDelegate"*, %"class.std::__1::basic_string"*, i1, i1, i32, %"class.base::OnceCallback.377"*, %"class.base::OnceCallback.171"*)**, void (%"class.extensions::NetworkingPrivateDelegate"*, %"class.std::__1::basic_string"*, i1, i1, i32, %"class.base::OnceCallback.377"*, %"class.base::OnceCallback.171"*)*** %94, align 8
  %96 = getelementptr inbounds void (%"class.extensions::NetworkingPrivateDelegate"*, %"class.std::__1::basic_string"*, i1, i1, i32, %"class.base::OnceCallback.377"*, %"class.base::OnceCallback.171"*)*, void (%"class.extensions::NetworkingPrivateDelegate"*, %"class.std::__1::basic_string"*, i1, i1, i32, %"class.base::OnceCallback.377"*, %"class.base::OnceCallback.171"*)** %95, i64 9
  %97 = load void (%"class.extensions::NetworkingPrivateDelegate"*, %"class.std::__1::basic_string"*, i1, i1, i32, %"class.base::OnceCallback.377"*, %"class.base::OnceCallback.171"*)*, void (%"class.extensions::NetworkingPrivateDelegate"*, %"class.std::__1::basic_string"*, i1, i1, i32, %"class.base::OnceCallback.377"*, %"class.base::OnceCallback.171"*)** %96, align 8
  call void %97(%"class.extensions::NetworkingPrivateDelegate"* %70, %"class.std::__1::basic_string"* nonnull dereferenceable(24) %2, i1 zeroext %53, i1 zeroext %61, i32 %68, %"class.base::OnceCallback.377"* nonnull %3, %"class.base::OnceCallback.171"* nonnull %4) #10
  %98 = getelementptr inbounds %"class.base::OnceCallback.171", %"class.base::OnceCallback.171"* %4, i64 0, i32 0
  call void @_ZN4base8internal12CallbackBaseD2Ev(%"class.base::internal::CallbackBase"* nonnull %98) #10
  %99 = getelementptr inbounds %"class.base::OnceCallback.377", %"class.base::OnceCallback.377"* %3, i64 0, i32 0
  call void @_ZN4base8internal12CallbackBaseD2Ev(%"class.base::internal::CallbackBase"* nonnull %99) #10
  %100 = getelementptr inbounds %"class.extensions::NetworkingPrivateGetNetworksFunction", %"class.extensions::NetworkingPrivateGetNetworksFunction"* %0, i64 0, i32 0, i32 23
  %101 = load i8, i8* %100, align 8, !range !7
  %102 = icmp eq i8 %101, 0
  br i1 %102, label %105, label %103

103:                                              ; preds = %92
  %104 = call %"class.ExtensionFunction::ResponseActionObject"* @_ZN17ExtensionFunction16AlreadyRespondedEv(%class.ExtensionFunction* %5) #10
  br label %107

105:                                              ; preds = %92
  %106 = call %"class.ExtensionFunction::ResponseActionObject"* @_ZN17ExtensionFunction12RespondLaterEv(%class.ExtensionFunction* %5) #10
  br label %107

107:                                              ; preds = %105, %103
  %108 = phi %"class.ExtensionFunction::ResponseActionObject"* [ %104, %103 ], [ %106, %105 ]
  %109 = bitcast %"class.std::__1::basic_string"* %2 to %"struct.std::__1::basic_string<char, std::__1::char_traits<char>, std::__1::allocator<char> >::__short"*
  %110 = getelementptr inbounds %"struct.std::__1::basic_string<char, std::__1::char_traits<char>, std::__1::allocator<char> >::__short", %"struct.std::__1::basic_string<char, std::__1::char_traits<char>, std::__1::allocator<char> >::__short"* %109, i64 0, i32 1, i32 0
  %111 = load i8, i8* %110, align 1
  %112 = icmp slt i8 %111, 0
  br i1 %112, label %113, label %115

113:                                              ; preds = %107
  %114 = load i8*, i8** %18, align 8
  call void @_ZdlPv(i8* %114) #11
  br label %115

115:                                              ; preds = %107, %113
  call void @llvm.lifetime.end.p0i8(i64 24, i8* nonnull %17) #10
  call void @_ZN10extensions3api18networking_private11GetNetworks6ParamsD1Ev(%"struct.extensions::api::networking_private::GetNetworks::Params"* nonnull %8) #10
  %116 = bitcast %"struct.extensions::api::networking_private::GetNetworks::Params"* %8 to i8*
  call void @_ZdlPv(i8* %116) #11
  br label %117

117:                                              ; preds = %10, %115
  %118 = phi %"class.ExtensionFunction::ResponseActionObject"* [ %15, %10 ], [ %108, %115 ]
  ret %"class.ExtensionFunction::ResponseActionObject"* %118
}

declare %"struct.extensions::api::networking_private::GetNetworks::Params"* @_ZN10extensions3api18networking_private11GetNetworks6Params6CreateERKN4base9ListValueE(%"class.base::ListValue"* dereferenceable(32)) local_unnamed_addr #4

declare i8* @_ZN10extensions3api18networking_private8ToStringENS1_11NetworkTypeE(i32) local_unnamed_addr #4

; Function Attrs: nounwind ssp uwtable
define hidden void @_ZN10extensions36NetworkingPrivateGetNetworksFunction7SuccessENSt3__110unique_ptrIN4base9ListValueENS1_14default_deleteIS4_EEEE(%"class.extensions::NetworkingPrivateGetNetworksFunction"*, %"class.base::ListValue"*) #1 align 2 {
  %3 = alloca %"class.base::Value", align 8
  %4 = bitcast %"class.extensions::NetworkingPrivateGetNetworksFunction"* %0 to %class.ExtensionFunction*
  %5 = getelementptr inbounds %"class.base::ListValue", %"class.base::ListValue"* %1, i64 0, i32 0
  call void @_ZN4base5Value18FromUniquePtrValueENSt3__110unique_ptrIS0_NS1_14default_deleteIS0_EEEE(%"class.base::Value"* nonnull sret %3, %"class.base::Value"* %5) #10
  %6 = call %"class.ExtensionFunction::ResponseValueObject"* @_ZN17ExtensionFunction11OneArgumentEN4base5ValueE(%class.ExtensionFunction* %4, %"class.base::Value"* nonnull %3) #10
  call void @_ZN17ExtensionFunction7RespondENSt3__110unique_ptrINS_19ResponseValueObjectENS0_14default_deleteIS2_EEEE(%class.ExtensionFunction* %4, %"class.ExtensionFunction::ResponseValueObject"* %6) #10
  call void @_ZN4base5ValueD1Ev(%"class.base::Value"* nonnull %3) #10
  ret void
}

; Function Attrs: nounwind ssp uwtable
define hidden void @_ZN10extensions36NetworkingPrivateGetNetworksFunction7FailureERKNSt3__112basic_stringIcNS1_11char_traitsIcEENS1_9allocatorIcEEEE(%"class.extensions::NetworkingPrivateGetNetworksFunction"*, %"class.std::__1::basic_string"* nocapture readonly dereferenceable(24)) #1 align 2 {
  %3 = alloca %"class.std::__1::basic_string", align 8
  %4 = bitcast %"class.extensions::NetworkingPrivateGetNetworksFunction"* %0 to %class.ExtensionFunction*
  %5 = bitcast %"class.std::__1::basic_string"* %1 to %"struct.std::__1::basic_string<char, std::__1::char_traits<char>, std::__1::allocator<char> >::__short"*
  %6 = getelementptr inbounds %"struct.std::__1::basic_string<char, std::__1::char_traits<char>, std::__1::allocator<char> >::__short", %"struct.std::__1::basic_string<char, std::__1::char_traits<char>, std::__1::allocator<char> >::__short"* %5, i64 0, i32 1, i32 0
  %7 = load i8, i8* %6, align 1
  %8 = icmp slt i8 %7, 0
  br i1 %8, label %12, label %9

9:                                                ; preds = %2
  %10 = bitcast %"class.std::__1::basic_string"* %3 to i8*
  %11 = bitcast %"class.std::__1::basic_string"* %1 to i8*
  call void @llvm.memcpy.p0i8.p0i8.i64(i8* nonnull align 8 %10, i8* align 8 %11, i64 24, i1 false) #10
  br label %17

12:                                               ; preds = %2
  %13 = getelementptr inbounds %"class.std::__1::basic_string", %"class.std::__1::basic_string"* %1, i64 0, i32 0, i32 0, i32 0, i32 0, i32 0, i32 0
  %14 = load i8*, i8** %13, align 8
  %15 = getelementptr inbounds %"class.std::__1::basic_string", %"class.std::__1::basic_string"* %1, i64 0, i32 0, i32 0, i32 0, i32 0, i32 0, i32 1
  %16 = load i64, i64* %15, align 8
  call void @_ZNSt3__112basic_stringIcNS_11char_traitsIcEENS_9allocatorIcEEE25__init_copy_ctor_externalEPKcm(%"class.std::__1::basic_string"* nonnull %3, i8* %14, i64 %16) #10
  br label %17

17:                                               ; preds = %9, %12
  %18 = call %"class.ExtensionFunction::ResponseValueObject"* @_ZN17ExtensionFunction5ErrorENSt3__112basic_stringIcNS0_11char_traitsIcEENS0_9allocatorIcEEEE(%class.ExtensionFunction* %4, %"class.std::__1::basic_string"* nonnull %3) #10
  call void @_ZN17ExtensionFunction7RespondENSt3__110unique_ptrINS_19ResponseValueObjectENS0_14default_deleteIS2_EEEE(%class.ExtensionFunction* %4, %"class.ExtensionFunction::ResponseValueObject"* %18) #10
  %19 = bitcast %"class.std::__1::basic_string"* %3 to %"struct.std::__1::basic_string<char, std::__1::char_traits<char>, std::__1::allocator<char> >::__short"*
  %20 = getelementptr inbounds %"struct.std::__1::basic_string<char, std::__1::char_traits<char>, std::__1::allocator<char> >::__short", %"struct.std::__1::basic_string<char, std::__1::char_traits<char>, std::__1::allocator<char> >::__short"* %19, i64 0, i32 1, i32 0
  %21 = load i8, i8* %20, align 1
  %22 = icmp slt i8 %21, 0
  br i1 %22, label %23, label %26

23:                                               ; preds = %17
  %24 = getelementptr inbounds %"class.std::__1::basic_string", %"class.std::__1::basic_string"* %3, i64 0, i32 0, i32 0, i32 0, i32 0, i32 0, i32 0
  %25 = load i8*, i8** %24, align 8
  call void @_ZdlPv(i8* %25) #11
  br label %26

26:                                               ; preds = %17, %23
  ret void
}

; Function Attrs: nounwind ssp uwtable
define hidden void @_ZN10extensions43NetworkingPrivateGetVisibleNetworksFunctionD2Ev(%"class.extensions::NetworkingPrivateGetVisibleNetworksFunction"*) unnamed_addr #1 align 2 {
  %2 = bitcast %"class.extensions::NetworkingPrivateGetVisibleNetworksFunction"* %0 to %class.ExtensionFunction*
  tail call void @_ZN17ExtensionFunctionD2Ev(%class.ExtensionFunction* %2) #10
  ret void
}

; Function Attrs: nounwind ssp uwtable
define hidden void @_ZN10extensions43NetworkingPrivateGetVisibleNetworksFunctionD0Ev(%"class.extensions::NetworkingPrivateGetVisibleNetworksFunction"*) unnamed_addr #1 align 2 {
  %2 = bitcast %"class.extensions::NetworkingPrivateGetVisibleNetworksFunction"* %0 to %class.ExtensionFunction*
  tail call void @_ZN17ExtensionFunctionD2Ev(%class.ExtensionFunction* %2) #10
  %3 = bitcast %"class.extensions::NetworkingPrivateGetVisibleNetworksFunction"* %0 to i8*
  tail call void @_ZdlPv(i8* %3) #11
  ret void
}

; Function Attrs: nounwind ssp uwtable
define hidden %"class.ExtensionFunction::ResponseActionObject"* @_ZN10extensions43NetworkingPrivateGetVisibleNetworksFunction3RunEv(%"class.extensions::NetworkingPrivateGetVisibleNetworksFunction"*) unnamed_addr #1 align 2 {
  %2 = alloca %"class.extensions::Feature::Availability", align 8
  %3 = alloca %"class.std::__1::basic_string", align 8
  %4 = alloca %"class.std::__1::basic_string", align 8
  %5 = alloca %"class.std::__1::basic_string", align 8
  %6 = alloca %"class.base::OnceCallback.377", align 8
  %7 = alloca %"class.base::OnceCallback.171", align 8
  %8 = bitcast %"class.extensions::NetworkingPrivateGetVisibleNetworksFunction"* %0 to %class.ExtensionFunction*
  %9 = getelementptr inbounds %"class.extensions::NetworkingPrivateGetVisibleNetworksFunction", %"class.extensions::NetworkingPrivateGetVisibleNetworksFunction"* %0, i64 0, i32 0, i32 4, i32 0, i32 0, i32 0
  %10 = load %"class.base::ListValue"*, %"class.base::ListValue"** %9, align 8
  %11 = tail call %"struct.extensions::api::networking_private::GetVisibleNetworks::Params"* @_ZN10extensions3api18networking_private18GetVisibleNetworks6Params6CreateERKN4base9ListValueE(%"class.base::ListValue"* dereferenceable(32) %10) #10
  %12 = icmp eq %"struct.extensions::api::networking_private::GetVisibleNetworks::Params"* %11, null
  br i1 %12, label %134, label %13

13:                                               ; preds = %1
  %14 = getelementptr inbounds %"class.extensions::NetworkingPrivateGetVisibleNetworksFunction", %"class.extensions::NetworkingPrivateGetVisibleNetworksFunction"* %0, i64 0, i32 0, i32 3, i32 0
  %15 = load %"class.extensions::Extension"*, %"class.extensions::Extension"** %14, align 8
  %16 = getelementptr inbounds %"class.extensions::NetworkingPrivateGetVisibleNetworksFunction", %"class.extensions::NetworkingPrivateGetVisibleNetworksFunction"* %0, i64 0, i32 0, i32 19
  %17 = load i32, i32* %16, align 8
  %18 = getelementptr inbounds %"class.extensions::NetworkingPrivateGetVisibleNetworksFunction", %"class.extensions::NetworkingPrivateGetVisibleNetworksFunction"* %0, i64 0, i32 0, i32 13
  %19 = bitcast %"class.extensions::Feature::Availability"* %2 to i8*
  call void @llvm.lifetime.start.p0i8(i64 32, i8* nonnull %19) #10
  %20 = tail call %"class.extensions::ExtensionAPI"* @_ZN10extensions12ExtensionAPI17GetSharedInstanceEv() #10
  %21 = bitcast %"class.std::__1::basic_string"* %3 to i8*
  call void @llvm.lifetime.start.p0i8(i64 24, i8* nonnull %21) #10
  %22 = bitcast %"class.std::__1::basic_string"* %3 to %"struct.std::__1::basic_string<char, std::__1::char_traits<char>, std::__1::allocator<char> >::__short"*
  %23 = getelementptr inbounds %"struct.std::__1::basic_string<char, std::__1::char_traits<char>, std::__1::allocator<char> >::__short", %"struct.std::__1::basic_string<char, std::__1::char_traits<char>, std::__1::allocator<char> >::__short"* %22, i64 0, i32 1, i32 0
  store i8 17, i8* %23, align 1
  call void @llvm.memcpy.p0i8.p0i8.i64(i8* nonnull align 8 %21, i8* align 1 getelementptr inbounds ([18 x i8], [18 x i8]* @.str.28, i64 0, i64 0), i64 17, i1 false) #10
  %24 = getelementptr inbounds i8, i8* %21, i64 17
  store i8 0, i8* %24, align 1
  call void @_ZN10extensions12ExtensionAPI11IsAvailableERKNSt3__112basic_stringIcNS1_11char_traitsIcEENS1_9allocatorIcEEEEPKNS_9ExtensionENS_7Feature7ContextERK4GURLNS_16CheckAliasStatusE(%"class.extensions::Feature::Availability"* nonnull sret %2, %"class.extensions::ExtensionAPI"* %20, %"class.std::__1::basic_string"* nonnull dereferenceable(24) %3, %"class.extensions::Extension"* %15, i32 %17, %class.GURL* dereferenceable(120) %18, i32 1) #10
  %25 = getelementptr inbounds %"class.extensions::Feature::Availability", %"class.extensions::Feature::Availability"* %2, i64 0, i32 0
  %26 = load i32, i32* %25, align 8
  %27 = icmp eq i32 %26, 0
  %28 = getelementptr inbounds %"class.extensions::Feature::Availability", %"class.extensions::Feature::Availability"* %2, i64 0, i32 1
  %29 = bitcast %"class.std::__1::basic_string"* %28 to %"struct.std::__1::basic_string<char, std::__1::char_traits<char>, std::__1::allocator<char> >::__short"*
  %30 = getelementptr inbounds %"struct.std::__1::basic_string<char, std::__1::char_traits<char>, std::__1::allocator<char> >::__short", %"struct.std::__1::basic_string<char, std::__1::char_traits<char>, std::__1::allocator<char> >::__short"* %29, i64 0, i32 1, i32 0
  %31 = load i8, i8* %30, align 1
  %32 = icmp slt i8 %31, 0
  br i1 %32, label %33, label %36

33:                                               ; preds = %13
  %34 = getelementptr inbounds %"class.std::__1::basic_string", %"class.std::__1::basic_string"* %28, i64 0, i32 0, i32 0, i32 0, i32 0, i32 0, i32 0
  %35 = load i8*, i8** %34, align 8
  call void @_ZdlPv(i8* %35) #11
  br label %36

36:                                               ; preds = %33, %13
  %37 = load i8, i8* %23, align 1
  %38 = icmp slt i8 %37, 0
  br i1 %38, label %39, label %42

39:                                               ; preds = %36
  %40 = getelementptr inbounds %"class.std::__1::basic_string", %"class.std::__1::basic_string"* %3, i64 0, i32 0, i32 0, i32 0, i32 0, i32 0, i32 0
  %41 = load i8*, i8** %40, align 8
  call void @_ZdlPv(i8* %41) #11
  br label %42

42:                                               ; preds = %36, %39
  call void @llvm.lifetime.end.p0i8(i64 24, i8* nonnull %21) #10
  call void @llvm.lifetime.end.p0i8(i64 32, i8* nonnull %19) #10
  br i1 %27, label %57, label %43

43:                                               ; preds = %42
  %44 = call i8* @_Znwm(i64 48) #11
  %45 = getelementptr inbounds %"class.std::__1::basic_string", %"class.std::__1::basic_string"* %4, i64 0, i32 0, i32 0, i32 0, i32 0, i32 0, i32 0
  store i8* %44, i8** %45, align 8
  %46 = getelementptr inbounds %"class.std::__1::basic_string", %"class.std::__1::basic_string"* %4, i64 0, i32 0, i32 0, i32 0, i32 0, i32 0, i32 1
  %47 = bitcast i64* %46 to <2 x i64>*
  store <2 x i64> <i64 38, i64 -9223372036854775760>, <2 x i64>* %47, align 8
  call void @llvm.memcpy.p0i8.p0i8.i64(i8* nonnull align 1 %44, i8* align 16 getelementptr inbounds ([39 x i8], [39 x i8]* @_ZN10extensions12_GLOBAL__N_117kPrivateOnlyErrorE, i64 0, i64 0), i64 38, i1 false) #10
  %48 = getelementptr inbounds i8, i8* %44, i64 38
  store i8 0, i8* %48, align 1
  %49 = call %"class.ExtensionFunction::ResponseValueObject"* @_ZN17ExtensionFunction5ErrorENSt3__112basic_stringIcNS0_11char_traitsIcEENS0_9allocatorIcEEEE(%class.ExtensionFunction* %8, %"class.std::__1::basic_string"* nonnull %4) #10
  %50 = call %"class.ExtensionFunction::ResponseActionObject"* @_ZN17ExtensionFunction10RespondNowENSt3__110unique_ptrINS_19ResponseValueObjectENS0_14default_deleteIS2_EEEE(%class.ExtensionFunction* %8, %"class.ExtensionFunction::ResponseValueObject"* %49) #10
  %51 = bitcast %"class.std::__1::basic_string"* %4 to %"struct.std::__1::basic_string<char, std::__1::char_traits<char>, std::__1::allocator<char> >::__short"*
  %52 = getelementptr inbounds %"struct.std::__1::basic_string<char, std::__1::char_traits<char>, std::__1::allocator<char> >::__short", %"struct.std::__1::basic_string<char, std::__1::char_traits<char>, std::__1::allocator<char> >::__short"* %51, i64 0, i32 1, i32 0
  %53 = load i8, i8* %52, align 1
  %54 = icmp slt i8 %53, 0
  br i1 %54, label %55, label %140

55:                                               ; preds = %43
  %56 = load i8*, i8** %45, align 8
  call void @_ZdlPv(i8* %56) #11
  br label %140

57:                                               ; preds = %42
  %58 = bitcast %"class.std::__1::basic_string"* %5 to i8*
  call void @llvm.lifetime.start.p0i8(i64 24, i8* nonnull %58) #10
  %59 = getelementptr inbounds %"class.std::__1::basic_string", %"class.std::__1::basic_string"* %5, i64 0, i32 0, i32 0, i32 0, i32 0, i32 0, i32 0
  %60 = getelementptr inbounds %"class.std::__1::basic_string", %"class.std::__1::basic_string"* %5, i64 0, i32 0, i32 0, i32 0, i32 0, i32 0, i32 1
  %61 = getelementptr inbounds %"class.std::__1::basic_string", %"class.std::__1::basic_string"* %5, i64 0, i32 0, i32 0, i32 0, i32 0, i32 0, i32 2
  %62 = getelementptr inbounds %"struct.extensions::api::networking_private::GetVisibleNetworks::Params", %"struct.extensions::api::networking_private::GetVisibleNetworks::Params"* %11, i64 0, i32 0
  %63 = bitcast %"class.std::__1::basic_string"* %5 to i8*
  call void @llvm.memset.p0i8.i64(i8* nonnull align 8 %63, i8 -86, i64 24, i1 false)
  %64 = load i32, i32* %62, align 4
  %65 = call i8* @_ZN10extensions3api18networking_private8ToStringENS1_11NetworkTypeE(i32 %64) #10
  %66 = call i64 @strlen(i8* %65) #10
  %67 = icmp ugt i64 %66, -17
  br i1 %67, label %68, label %70

68:                                               ; preds = %57
  %69 = bitcast %"class.std::__1::basic_string"* %5 to %"class.std::__1::__basic_string_common"*
  call void @_ZNKSt3__121__basic_string_commonILb1EE20__throw_length_errorEv(%"class.std::__1::__basic_string_common"* nonnull %69) #12
  unreachable

70:                                               ; preds = %57
  %71 = icmp ult i64 %66, 23
  br i1 %71, label %77, label %72

72:                                               ; preds = %70
  %73 = add nuw i64 %66, 16
  %74 = and i64 %73, -16
  %75 = call i8* @_Znwm(i64 %74) #11
  store i8* %75, i8** %59, align 8
  %76 = or i64 %74, -9223372036854775808
  store i64 %76, i64* %61, align 8
  store i64 %66, i64* %60, align 8
  br label %82

77:                                               ; preds = %70
  %78 = trunc i64 %66 to i8
  %79 = bitcast %"class.std::__1::basic_string"* %5 to %"struct.std::__1::basic_string<char, std::__1::char_traits<char>, std::__1::allocator<char> >::__short"*
  %80 = getelementptr inbounds %"struct.std::__1::basic_string<char, std::__1::char_traits<char>, std::__1::allocator<char> >::__short", %"struct.std::__1::basic_string<char, std::__1::char_traits<char>, std::__1::allocator<char> >::__short"* %79, i64 0, i32 1, i32 0
  store i8 %78, i8* %80, align 1
  %81 = icmp eq i64 %66, 0
  br i1 %81, label %84, label %82

82:                                               ; preds = %77, %72
  %83 = phi i8* [ %75, %72 ], [ %58, %77 ]
  call void @llvm.memcpy.p0i8.p0i8.i64(i8* nonnull align 1 %83, i8* align 1 %65, i64 %66, i1 false) #10
  br label %84

84:                                               ; preds = %77, %82
  %85 = phi i8* [ %58, %77 ], [ %83, %82 ]
  %86 = getelementptr inbounds i8, i8* %85, i64 %66
  store i8 0, i8* %86, align 1
  %87 = call %"class.content::BrowserContext"* @_ZNK17ExtensionFunction15browser_contextEv(%class.ExtensionFunction* %8) #10
  %88 = call %"class.extensions::NetworkingPrivateDelegate"* @_ZN10extensions32NetworkingPrivateDelegateFactory20GetForBrowserContextEPN7content14BrowserContextE(%"class.content::BrowserContext"* %87) #10
  %89 = call i8* @_Znwm(i64 56) #11, !noalias !70
  %90 = bitcast i8* %89 to %"class.base::internal::BindStateBase"*
  call void @_ZN4base8internal13BindStateBaseC2EPFvvEPFvPKS1_E(%"class.base::internal::BindStateBase"* nonnull %90, void ()* bitcast (void (%"class.base::internal::BindStateBase"*, %"class.std::__1::unique_ptr.88"*)* @_ZN4base8internal7InvokerINS0_9BindStateIMN10extensions43NetworkingPrivateGetVisibleNetworksFunctionEFvNSt3__110unique_ptrINS_9ListValueENS5_14default_deleteIS7_EEEEEJ13scoped_refptrIS4_EEEEFvSA_EE7RunOnceEPNS0_13BindStateBaseEOSA_ to void ()*), void (%"class.base::internal::BindStateBase"*)* nonnull @_ZN4base8internal9BindStateIMN10extensions43NetworkingPrivateGetVisibleNetworksFunctionEFvNSt3__110unique_ptrINS_9ListValueENS4_14default_deleteIS6_EEEEEJ13scoped_refptrIS3_EEE7DestroyEPKNS0_13BindStateBaseE) #10, !noalias !70
  %91 = getelementptr inbounds i8, i8* %89, i64 32
  %92 = bitcast i8* %91 to <2 x i64>*
  store <2 x i64> <i64 ptrtoint (void (%"class.extensions::NetworkingPrivateGetVisibleNetworksFunction"*, %"class.base::ListValue"*)* @_ZN10extensions43NetworkingPrivateGetVisibleNetworksFunction7SuccessENSt3__110unique_ptrIN4base9ListValueENS1_14default_deleteIS4_EEEE to i64), i64 0>, <2 x i64>* %92, align 8, !noalias !70
  %93 = getelementptr inbounds i8, i8* %89, i64 48
  %94 = bitcast i8* %93 to %"class.extensions::NetworkingPrivateGetVisibleNetworksFunction"**
  store %"class.extensions::NetworkingPrivateGetVisibleNetworksFunction"* %0, %"class.extensions::NetworkingPrivateGetVisibleNetworksFunction"** %94, align 8, !noalias !70
  %95 = icmp eq %"class.extensions::NetworkingPrivateGetVisibleNetworksFunction"* %0, null
  br i1 %95, label %99, label %96

96:                                               ; preds = %84
  %97 = getelementptr inbounds %"class.extensions::NetworkingPrivateGetVisibleNetworksFunction", %"class.extensions::NetworkingPrivateGetVisibleNetworksFunction"* %0, i64 0, i32 0, i32 1, i32 0, i32 0, i32 0, i32 0, i32 0, i32 0, i32 0, i32 0
  %98 = atomicrmw add i32* %97, i32 1 monotonic, !noalias !70
  br label %99

99:                                               ; preds = %84, %96
  %100 = bitcast %"class.base::OnceCallback.377"* %6 to i8**
  store i8* %89, i8** %100, align 8, !alias.scope !70
  %101 = call i8* @_Znwm(i64 56) #11, !noalias !75
  %102 = bitcast i8* %101 to %"class.base::internal::BindStateBase"*
  call void @_ZN4base8internal13BindStateBaseC2EPFvvEPFvPKS1_E(%"class.base::internal::BindStateBase"* nonnull %102, void ()* bitcast (void (%"class.base::internal::BindStateBase"*, %"class.std::__1::basic_string"*)* @_ZN4base8internal7InvokerINS0_9BindStateIMN10extensions43NetworkingPrivateGetVisibleNetworksFunctionEFvRKNSt3__112basic_stringIcNS5_11char_traitsIcEENS5_9allocatorIcEEEEEJ13scoped_refptrIS4_EEEEFvSD_EE7RunOnceEPNS0_13BindStateBaseESD_ to void ()*), void (%"class.base::internal::BindStateBase"*)* nonnull @_ZN4base8internal9BindStateIMN10extensions43NetworkingPrivateGetVisibleNetworksFunctionEFvRKNSt3__112basic_stringIcNS4_11char_traitsIcEENS4_9allocatorIcEEEEEJ13scoped_refptrIS3_EEE7DestroyEPKNS0_13BindStateBaseE) #10, !noalias !75
  %103 = getelementptr inbounds i8, i8* %101, i64 32
  %104 = bitcast i8* %103 to <2 x i64>*
  store <2 x i64> <i64 ptrtoint (void (%"class.extensions::NetworkingPrivateGetVisibleNetworksFunction"*, %"class.std::__1::basic_string"*)* @_ZN10extensions43NetworkingPrivateGetVisibleNetworksFunction7FailureERKNSt3__112basic_stringIcNS1_11char_traitsIcEENS1_9allocatorIcEEEE to i64), i64 0>, <2 x i64>* %104, align 8, !noalias !75
  %105 = getelementptr inbounds i8, i8* %101, i64 48
  %106 = bitcast i8* %105 to %"class.extensions::NetworkingPrivateGetVisibleNetworksFunction"**
  store %"class.extensions::NetworkingPrivateGetVisibleNetworksFunction"* %0, %"class.extensions::NetworkingPrivateGetVisibleNetworksFunction"** %106, align 8, !noalias !75
  br i1 %95, label %110, label %107

107:                                              ; preds = %99
  %108 = getelementptr inbounds %"class.extensions::NetworkingPrivateGetVisibleNetworksFunction", %"class.extensions::NetworkingPrivateGetVisibleNetworksFunction"* %0, i64 0, i32 0, i32 1, i32 0, i32 0, i32 0, i32 0, i32 0, i32 0, i32 0, i32 0
  %109 = atomicrmw add i32* %108, i32 1 monotonic, !noalias !75
  br label %110

110:                                              ; preds = %99, %107
  %111 = bitcast %"class.base::OnceCallback.171"* %7 to i8**
  store i8* %101, i8** %111, align 8, !alias.scope !75
  %112 = bitcast %"class.extensions::NetworkingPrivateDelegate"* %88 to void (%"class.extensions::NetworkingPrivateDelegate"*, %"class.std::__1::basic_string"*, i1, i1, i32, %"class.base::OnceCallback.377"*, %"class.base::OnceCallback.171"*)***
  %113 = load void (%"class.extensions::NetworkingPrivateDelegate"*, %"class.std::__1::basic_string"*, i1, i1, i32, %"class.base::OnceCallback.377"*, %"class.base::OnceCallback.171"*)**, void (%"class.extensions::NetworkingPrivateDelegate"*, %"class.std::__1::basic_string"*, i1, i1, i32, %"class.base::OnceCallback.377"*, %"class.base::OnceCallback.171"*)*** %112, align 8
  %114 = getelementptr inbounds void (%"class.extensions::NetworkingPrivateDelegate"*, %"class.std::__1::basic_string"*, i1, i1, i32, %"class.base::OnceCallback.377"*, %"class.base::OnceCallback.171"*)*, void (%"class.extensions::NetworkingPrivateDelegate"*, %"class.std::__1::basic_string"*, i1, i1, i32, %"class.base::OnceCallback.377"*, %"class.base::OnceCallback.171"*)** %113, i64 9
  %115 = load void (%"class.extensions::NetworkingPrivateDelegate"*, %"class.std::__1::basic_string"*, i1, i1, i32, %"class.base::OnceCallback.377"*, %"class.base::OnceCallback.171"*)*, void (%"class.extensions::NetworkingPrivateDelegate"*, %"class.std::__1::basic_string"*, i1, i1, i32, %"class.base::OnceCallback.377"*, %"class.base::OnceCallback.171"*)** %114, align 8
  call void %115(%"class.extensions::NetworkingPrivateDelegate"* %88, %"class.std::__1::basic_string"* nonnull dereferenceable(24) %5, i1 zeroext false, i1 zeroext true, i32 1000, %"class.base::OnceCallback.377"* nonnull %6, %"class.base::OnceCallback.171"* nonnull %7) #10
  %116 = getelementptr inbounds %"class.base::OnceCallback.171", %"class.base::OnceCallback.171"* %7, i64 0, i32 0
  call void @_ZN4base8internal12CallbackBaseD2Ev(%"class.base::internal::CallbackBase"* nonnull %116) #10
  %117 = getelementptr inbounds %"class.base::OnceCallback.377", %"class.base::OnceCallback.377"* %6, i64 0, i32 0
  call void @_ZN4base8internal12CallbackBaseD2Ev(%"class.base::internal::CallbackBase"* nonnull %117) #10
  %118 = getelementptr inbounds %"class.extensions::NetworkingPrivateGetVisibleNetworksFunction", %"class.extensions::NetworkingPrivateGetVisibleNetworksFunction"* %0, i64 0, i32 0, i32 23
  %119 = load i8, i8* %118, align 8, !range !7
  %120 = icmp eq i8 %119, 0
  br i1 %120, label %123, label %121

121:                                              ; preds = %110
  %122 = call %"class.ExtensionFunction::ResponseActionObject"* @_ZN17ExtensionFunction16AlreadyRespondedEv(%class.ExtensionFunction* %8) #10
  br label %125

123:                                              ; preds = %110
  %124 = call %"class.ExtensionFunction::ResponseActionObject"* @_ZN17ExtensionFunction12RespondLaterEv(%class.ExtensionFunction* %8) #10
  br label %125

125:                                              ; preds = %123, %121
  %126 = phi %"class.ExtensionFunction::ResponseActionObject"* [ %122, %121 ], [ %124, %123 ]
  %127 = bitcast %"class.std::__1::basic_string"* %5 to %"struct.std::__1::basic_string<char, std::__1::char_traits<char>, std::__1::allocator<char> >::__short"*
  %128 = getelementptr inbounds %"struct.std::__1::basic_string<char, std::__1::char_traits<char>, std::__1::allocator<char> >::__short", %"struct.std::__1::basic_string<char, std::__1::char_traits<char>, std::__1::allocator<char> >::__short"* %127, i64 0, i32 1, i32 0
  %129 = load i8, i8* %128, align 1
  %130 = icmp slt i8 %129, 0
  br i1 %130, label %131, label %133

131:                                              ; preds = %125
  %132 = load i8*, i8** %59, align 8
  call void @_ZdlPv(i8* %132) #11
  br label %133

133:                                              ; preds = %125, %131
  call void @llvm.lifetime.end.p0i8(i64 24, i8* nonnull %58) #10
  br label %140

134:                                              ; preds = %1
  %135 = bitcast %"class.extensions::NetworkingPrivateGetVisibleNetworksFunction"* %0 to void (%class.ExtensionFunction*)***
  %136 = load void (%class.ExtensionFunction*)**, void (%class.ExtensionFunction*)*** %135, align 8
  %137 = getelementptr inbounds void (%class.ExtensionFunction*)*, void (%class.ExtensionFunction*)** %136, i64 6
  %138 = load void (%class.ExtensionFunction*)*, void (%class.ExtensionFunction*)** %137, align 8
  tail call void %138(%class.ExtensionFunction* %8) #10
  %139 = tail call %"class.ExtensionFunction::ResponseActionObject"* @_ZN17ExtensionFunction17ValidationFailureEPS_(%class.ExtensionFunction* %8) #10
  br label %143

140:                                              ; preds = %55, %43, %133
  %141 = phi %"class.ExtensionFunction::ResponseActionObject"* [ %50, %55 ], [ %50, %43 ], [ %126, %133 ]
  call void @_ZN10extensions3api18networking_private18GetVisibleNetworks6ParamsD1Ev(%"struct.extensions::api::networking_private::GetVisibleNetworks::Params"* nonnull %11) #10
  %142 = bitcast %"struct.extensions::api::networking_private::GetVisibleNetworks::Params"* %11 to i8*
  call void @_ZdlPv(i8* %142) #11
  br label %143

143:                                              ; preds = %134, %140
  %144 = phi %"class.ExtensionFunction::ResponseActionObject"* [ %139, %134 ], [ %141, %140 ]
  ret %"class.ExtensionFunction::ResponseActionObject"* %144
}

declare %"struct.extensions::api::networking_private::GetVisibleNetworks::Params"* @_ZN10extensions3api18networking_private18GetVisibleNetworks6Params6CreateERKN4base9ListValueE(%"class.base::ListValue"* dereferenceable(32)) local_unnamed_addr #4

; Function Attrs: nounwind ssp uwtable
define hidden void @_ZN10extensions43NetworkingPrivateGetVisibleNetworksFunction7SuccessENSt3__110unique_ptrIN4base9ListValueENS1_14default_deleteIS4_EEEE(%"class.extensions::NetworkingPrivateGetVisibleNetworksFunction"*, %"class.base::ListValue"*) #1 align 2 {
  %3 = alloca %"class.base::Value", align 8
  %4 = bitcast %"class.extensions::NetworkingPrivateGetVisibleNetworksFunction"* %0 to %class.ExtensionFunction*
  %5 = getelementptr inbounds %"class.base::ListValue", %"class.base::ListValue"* %1, i64 0, i32 0
  call void @_ZN4base5Value18FromUniquePtrValueENSt3__110unique_ptrIS0_NS1_14default_deleteIS0_EEEE(%"class.base::Value"* nonnull sret %3, %"class.base::Value"* %5) #10
  %6 = call %"class.ExtensionFunction::ResponseValueObject"* @_ZN17ExtensionFunction11OneArgumentEN4base5ValueE(%class.ExtensionFunction* %4, %"class.base::Value"* nonnull %3) #10
  call void @_ZN17ExtensionFunction7RespondENSt3__110unique_ptrINS_19ResponseValueObjectENS0_14default_deleteIS2_EEEE(%class.ExtensionFunction* %4, %"class.ExtensionFunction::ResponseValueObject"* %6) #10
  call void @_ZN4base5ValueD1Ev(%"class.base::Value"* nonnull %3) #10
  ret void
}

; Function Attrs: nounwind ssp uwtable
define hidden void @_ZN10extensions43NetworkingPrivateGetVisibleNetworksFunction7FailureERKNSt3__112basic_stringIcNS1_11char_traitsIcEENS1_9allocatorIcEEEE(%"class.extensions::NetworkingPrivateGetVisibleNetworksFunction"*, %"class.std::__1::basic_string"* nocapture readonly dereferenceable(24)) #1 align 2 {
  %3 = alloca %"class.std::__1::basic_string", align 8
  %4 = bitcast %"class.extensions::NetworkingPrivateGetVisibleNetworksFunction"* %0 to %class.ExtensionFunction*
  %5 = bitcast %"class.std::__1::basic_string"* %1 to %"struct.std::__1::basic_string<char, std::__1::char_traits<char>, std::__1::allocator<char> >::__short"*
  %6 = getelementptr inbounds %"struct.std::__1::basic_string<char, std::__1::char_traits<char>, std::__1::allocator<char> >::__short", %"struct.std::__1::basic_string<char, std::__1::char_traits<char>, std::__1::allocator<char> >::__short"* %5, i64 0, i32 1, i32 0
  %7 = load i8, i8* %6, align 1
  %8 = icmp slt i8 %7, 0
  br i1 %8, label %12, label %9

9:                                                ; preds = %2
  %10 = bitcast %"class.std::__1::basic_string"* %3 to i8*
  %11 = bitcast %"class.std::__1::basic_string"* %1 to i8*
  call void @llvm.memcpy.p0i8.p0i8.i64(i8* nonnull align 8 %10, i8* align 8 %11, i64 24, i1 false) #10
  br label %17

12:                                               ; preds = %2
  %13 = getelementptr inbounds %"class.std::__1::basic_string", %"class.std::__1::basic_string"* %1, i64 0, i32 0, i32 0, i32 0, i32 0, i32 0, i32 0
  %14 = load i8*, i8** %13, align 8
  %15 = getelementptr inbounds %"class.std::__1::basic_string", %"class.std::__1::basic_string"* %1, i64 0, i32 0, i32 0, i32 0, i32 0, i32 0, i32 1
  %16 = load i64, i64* %15, align 8
  call void @_ZNSt3__112basic_stringIcNS_11char_traitsIcEENS_9allocatorIcEEE25__init_copy_ctor_externalEPKcm(%"class.std::__1::basic_string"* nonnull %3, i8* %14, i64 %16) #10
  br label %17

17:                                               ; preds = %9, %12
  %18 = call %"class.ExtensionFunction::ResponseValueObject"* @_ZN17ExtensionFunction5ErrorENSt3__112basic_stringIcNS0_11char_traitsIcEENS0_9allocatorIcEEEE(%class.ExtensionFunction* %4, %"class.std::__1::basic_string"* nonnull %3) #10
  call void @_ZN17ExtensionFunction7RespondENSt3__110unique_ptrINS_19ResponseValueObjectENS0_14default_deleteIS2_EEEE(%class.ExtensionFunction* %4, %"class.ExtensionFunction::ResponseValueObject"* %18) #10
  %19 = bitcast %"class.std::__1::basic_string"* %3 to %"struct.std::__1::basic_string<char, std::__1::char_traits<char>, std::__1::allocator<char> >::__short"*
  %20 = getelementptr inbounds %"struct.std::__1::basic_string<char, std::__1::char_traits<char>, std::__1::allocator<char> >::__short", %"struct.std::__1::basic_string<char, std::__1::char_traits<char>, std::__1::allocator<char> >::__short"* %19, i64 0, i32 1, i32 0
  %21 = load i8, i8* %20, align 1
  %22 = icmp slt i8 %21, 0
  br i1 %22, label %23, label %26

23:                                               ; preds = %17
  %24 = getelementptr inbounds %"class.std::__1::basic_string", %"class.std::__1::basic_string"* %3, i64 0, i32 0, i32 0, i32 0, i32 0, i32 0, i32 0
  %25 = load i8*, i8** %24, align 8
  call void @_ZdlPv(i8* %25) #11
  br label %26

26:                                               ; preds = %17, %23
  ret void
}

; Function Attrs: nounwind ssp uwtable
define hidden void @_ZN10extensions47NetworkingPrivateGetEnabledNetworkTypesFunctionD2Ev(%"class.extensions::NetworkingPrivateGetEnabledNetworkTypesFunction"*) unnamed_addr #1 align 2 {
  %2 = bitcast %"class.extensions::NetworkingPrivateGetEnabledNetworkTypesFunction"* %0 to %class.ExtensionFunction*
  tail call void @_ZN17ExtensionFunctionD2Ev(%class.ExtensionFunction* %2) #10
  ret void
}

; Function Attrs: nounwind ssp uwtable
define hidden void @_ZN10extensions47NetworkingPrivateGetEnabledNetworkTypesFunctionD0Ev(%"class.extensions::NetworkingPrivateGetEnabledNetworkTypesFunction"*) unnamed_addr #1 align 2 {
  %2 = bitcast %"class.extensions::NetworkingPrivateGetEnabledNetworkTypesFunction"* %0 to %class.ExtensionFunction*
  tail call void @_ZN17ExtensionFunctionD2Ev(%class.ExtensionFunction* %2) #10
  %3 = bitcast %"class.extensions::NetworkingPrivateGetEnabledNetworkTypesFunction"* %0 to i8*
  tail call void @_ZdlPv(i8* %3) #11
  ret void
}

; Function Attrs: nounwind ssp uwtable
define hidden %"class.ExtensionFunction::ResponseActionObject"* @_ZN10extensions47NetworkingPrivateGetEnabledNetworkTypesFunction3RunEv(%"class.extensions::NetworkingPrivateGetEnabledNetworkTypesFunction"*) unnamed_addr #1 align 2 {
  %2 = alloca %"class.logging::CheckError", align 8
  %3 = alloca %"class.logging::CheckError", align 8
  %4 = alloca %"class.logging::CheckError", align 8
  %5 = alloca %"class.extensions::Feature::Availability", align 8
  %6 = alloca %"class.std::__1::basic_string", align 8
  %7 = alloca %"class.std::__1::basic_string", align 8
  %8 = alloca %"class.std::__1::basic_string", align 8
  %9 = alloca %"class.base::CheckedContiguousIterator", align 8
  %10 = alloca %"class.base::CheckedContiguousIterator", align 8
  %11 = alloca %"class.std::__1::basic_string", align 8
  %12 = alloca %"class.logging::LogMessage", align 8
  %13 = alloca %"class.base::Value", align 8
  %14 = bitcast %"class.extensions::NetworkingPrivateGetEnabledNetworkTypesFunction"* %0 to %class.ExtensionFunction*
  %15 = getelementptr inbounds %"class.extensions::NetworkingPrivateGetEnabledNetworkTypesFunction", %"class.extensions::NetworkingPrivateGetEnabledNetworkTypesFunction"* %0, i64 0, i32 0, i32 3, i32 0
  %16 = load %"class.extensions::Extension"*, %"class.extensions::Extension"** %15, align 8
  %17 = getelementptr inbounds %"class.extensions::NetworkingPrivateGetEnabledNetworkTypesFunction", %"class.extensions::NetworkingPrivateGetEnabledNetworkTypesFunction"* %0, i64 0, i32 0, i32 19
  %18 = load i32, i32* %17, align 8
  %19 = getelementptr inbounds %"class.extensions::NetworkingPrivateGetEnabledNetworkTypesFunction", %"class.extensions::NetworkingPrivateGetEnabledNetworkTypesFunction"* %0, i64 0, i32 0, i32 13
  %20 = bitcast %"class.extensions::Feature::Availability"* %5 to i8*
  call void @llvm.lifetime.start.p0i8(i64 32, i8* nonnull %20) #10
  %21 = tail call %"class.extensions::ExtensionAPI"* @_ZN10extensions12ExtensionAPI17GetSharedInstanceEv() #10
  %22 = bitcast %"class.std::__1::basic_string"* %6 to i8*
  call void @llvm.lifetime.start.p0i8(i64 24, i8* nonnull %22) #10
  %23 = bitcast %"class.std::__1::basic_string"* %6 to %"struct.std::__1::basic_string<char, std::__1::char_traits<char>, std::__1::allocator<char> >::__short"*
  %24 = getelementptr inbounds %"struct.std::__1::basic_string<char, std::__1::char_traits<char>, std::__1::allocator<char> >::__short", %"struct.std::__1::basic_string<char, std::__1::char_traits<char>, std::__1::allocator<char> >::__short"* %23, i64 0, i32 1, i32 0
  store i8 17, i8* %24, align 1
  call void @llvm.memcpy.p0i8.p0i8.i64(i8* nonnull align 8 %22, i8* align 1 getelementptr inbounds ([18 x i8], [18 x i8]* @.str.28, i64 0, i64 0), i64 17, i1 false) #10
  %25 = getelementptr inbounds i8, i8* %22, i64 17
  store i8 0, i8* %25, align 1
  call void @_ZN10extensions12ExtensionAPI11IsAvailableERKNSt3__112basic_stringIcNS1_11char_traitsIcEENS1_9allocatorIcEEEEPKNS_9ExtensionENS_7Feature7ContextERK4GURLNS_16CheckAliasStatusE(%"class.extensions::Feature::Availability"* nonnull sret %5, %"class.extensions::ExtensionAPI"* %21, %"class.std::__1::basic_string"* nonnull dereferenceable(24) %6, %"class.extensions::Extension"* %16, i32 %18, %class.GURL* dereferenceable(120) %19, i32 1) #10
  %26 = getelementptr inbounds %"class.extensions::Feature::Availability", %"class.extensions::Feature::Availability"* %5, i64 0, i32 0
  %27 = load i32, i32* %26, align 8
  %28 = icmp eq i32 %27, 0
  %29 = getelementptr inbounds %"class.extensions::Feature::Availability", %"class.extensions::Feature::Availability"* %5, i64 0, i32 1
  %30 = bitcast %"class.std::__1::basic_string"* %29 to %"struct.std::__1::basic_string<char, std::__1::char_traits<char>, std::__1::allocator<char> >::__short"*
  %31 = getelementptr inbounds %"struct.std::__1::basic_string<char, std::__1::char_traits<char>, std::__1::allocator<char> >::__short", %"struct.std::__1::basic_string<char, std::__1::char_traits<char>, std::__1::allocator<char> >::__short"* %30, i64 0, i32 1, i32 0
  %32 = load i8, i8* %31, align 1
  %33 = icmp slt i8 %32, 0
  br i1 %33, label %34, label %37

34:                                               ; preds = %1
  %35 = getelementptr inbounds %"class.std::__1::basic_string", %"class.std::__1::basic_string"* %29, i64 0, i32 0, i32 0, i32 0, i32 0, i32 0, i32 0
  %36 = load i8*, i8** %35, align 8
  call void @_ZdlPv(i8* %36) #11
  br label %37

37:                                               ; preds = %34, %1
  %38 = load i8, i8* %24, align 1
  %39 = icmp slt i8 %38, 0
  br i1 %39, label %40, label %43

40:                                               ; preds = %37
  %41 = getelementptr inbounds %"class.std::__1::basic_string", %"class.std::__1::basic_string"* %6, i64 0, i32 0, i32 0, i32 0, i32 0, i32 0, i32 0
  %42 = load i8*, i8** %41, align 8
  call void @_ZdlPv(i8* %42) #11
  br label %43

43:                                               ; preds = %37, %40
  call void @llvm.lifetime.end.p0i8(i64 24, i8* nonnull %22) #10
  call void @llvm.lifetime.end.p0i8(i64 32, i8* nonnull %20) #10
  br i1 %28, label %58, label %44

44:                                               ; preds = %43
  %45 = call i8* @_Znwm(i64 48) #11
  %46 = getelementptr inbounds %"class.std::__1::basic_string", %"class.std::__1::basic_string"* %7, i64 0, i32 0, i32 0, i32 0, i32 0, i32 0, i32 0
  store i8* %45, i8** %46, align 8
  %47 = getelementptr inbounds %"class.std::__1::basic_string", %"class.std::__1::basic_string"* %7, i64 0, i32 0, i32 0, i32 0, i32 0, i32 0, i32 1
  %48 = bitcast i64* %47 to <2 x i64>*
  store <2 x i64> <i64 38, i64 -9223372036854775760>, <2 x i64>* %48, align 8
  call void @llvm.memcpy.p0i8.p0i8.i64(i8* nonnull align 1 %45, i8* align 16 getelementptr inbounds ([39 x i8], [39 x i8]* @_ZN10extensions12_GLOBAL__N_117kPrivateOnlyErrorE, i64 0, i64 0), i64 38, i1 false) #10
  %49 = getelementptr inbounds i8, i8* %45, i64 38
  store i8 0, i8* %49, align 1
  %50 = call %"class.ExtensionFunction::ResponseValueObject"* @_ZN17ExtensionFunction5ErrorENSt3__112basic_stringIcNS0_11char_traitsIcEENS0_9allocatorIcEEEE(%class.ExtensionFunction* %14, %"class.std::__1::basic_string"* nonnull %7) #10
  %51 = call %"class.ExtensionFunction::ResponseActionObject"* @_ZN17ExtensionFunction10RespondNowENSt3__110unique_ptrINS_19ResponseValueObjectENS0_14default_deleteIS2_EEEE(%class.ExtensionFunction* %14, %"class.ExtensionFunction::ResponseValueObject"* %50) #10
  %52 = bitcast %"class.std::__1::basic_string"* %7 to %"struct.std::__1::basic_string<char, std::__1::char_traits<char>, std::__1::allocator<char> >::__short"*
  %53 = getelementptr inbounds %"struct.std::__1::basic_string<char, std::__1::char_traits<char>, std::__1::allocator<char> >::__short", %"struct.std::__1::basic_string<char, std::__1::char_traits<char>, std::__1::allocator<char> >::__short"* %52, i64 0, i32 1, i32 0
  %54 = load i8, i8* %53, align 1
  %55 = icmp slt i8 %54, 0
  br i1 %55, label %56, label %231

56:                                               ; preds = %44
  %57 = load i8*, i8** %46, align 8
  call void @_ZdlPv(i8* %57) #11
  br label %231

58:                                               ; preds = %43
  %59 = call %"class.content::BrowserContext"* @_ZNK17ExtensionFunction15browser_contextEv(%class.ExtensionFunction* %14) #10
  %60 = call %"class.extensions::NetworkingPrivateDelegate"* @_ZN10extensions32NetworkingPrivateDelegateFactory20GetForBrowserContextEPN7content14BrowserContextE(%"class.content::BrowserContext"* %59) #10
  %61 = bitcast %"class.extensions::NetworkingPrivateDelegate"* %60 to %"class.base::ListValue"* (%"class.extensions::NetworkingPrivateDelegate"*)***
  %62 = load %"class.base::ListValue"* (%"class.extensions::NetworkingPrivateDelegate"*)**, %"class.base::ListValue"* (%"class.extensions::NetworkingPrivateDelegate"*)*** %61, align 8
  %63 = getelementptr inbounds %"class.base::ListValue"* (%"class.extensions::NetworkingPrivateDelegate"*)*, %"class.base::ListValue"* (%"class.extensions::NetworkingPrivateDelegate"*)** %62, i64 17
  %64 = load %"class.base::ListValue"* (%"class.extensions::NetworkingPrivateDelegate"*)*, %"class.base::ListValue"* (%"class.extensions::NetworkingPrivateDelegate"*)** %63, align 8
  %65 = call %"class.base::ListValue"* %64(%"class.extensions::NetworkingPrivateDelegate"* %60) #10
  %66 = icmp eq %"class.base::ListValue"* %65, null
  br i1 %66, label %67, label %79

67:                                               ; preds = %58
  %68 = bitcast %"class.std::__1::basic_string"* %8 to %"struct.std::__1::basic_string<char, std::__1::char_traits<char>, std::__1::allocator<char> >::__short"*
  %69 = getelementptr inbounds %"struct.std::__1::basic_string<char, std::__1::char_traits<char>, std::__1::allocator<char> >::__short", %"struct.std::__1::basic_string<char, std::__1::char_traits<char>, std::__1::allocator<char> >::__short"* %68, i64 0, i32 1, i32 0
  store i8 18, i8* %69, align 1
  %70 = bitcast %"class.std::__1::basic_string"* %8 to i8*
  call void @llvm.memcpy.p0i8.p0i8.i64(i8* nonnull align 8 %70, i8* align 16 getelementptr inbounds ([19 x i8], [19 x i8]* @_ZN10extensions18networking_private18kErrorNotSupportedE, i64 0, i64 0), i64 18, i1 false) #10
  %71 = getelementptr inbounds i8, i8* %70, i64 18
  store i8 0, i8* %71, align 2
  %72 = call %"class.ExtensionFunction::ResponseValueObject"* @_ZN17ExtensionFunction5ErrorENSt3__112basic_stringIcNS0_11char_traitsIcEENS0_9allocatorIcEEEE(%class.ExtensionFunction* %14, %"class.std::__1::basic_string"* nonnull %8) #10
  %73 = call %"class.ExtensionFunction::ResponseActionObject"* @_ZN17ExtensionFunction10RespondNowENSt3__110unique_ptrINS_19ResponseValueObjectENS0_14default_deleteIS2_EEEE(%class.ExtensionFunction* %14, %"class.ExtensionFunction::ResponseValueObject"* %72) #10
  %74 = load i8, i8* %69, align 1
  %75 = icmp slt i8 %74, 0
  br i1 %75, label %76, label %231

76:                                               ; preds = %67
  %77 = getelementptr inbounds %"class.std::__1::basic_string", %"class.std::__1::basic_string"* %8, i64 0, i32 0, i32 0, i32 0, i32 0, i32 0, i32 0
  %78 = load i8*, i8** %77, align 8
  call void @_ZdlPv(i8* %78) #11
  br label %231

79:                                               ; preds = %58
  %80 = call i8* @_Znwm(i64 32) #11
  %81 = bitcast i8* %80 to %"class.base::ListValue"*
  call void @_ZN4base9ListValueC1Ev(%"class.base::ListValue"* nonnull %81) #10
  %82 = getelementptr inbounds %"class.base::ListValue", %"class.base::ListValue"* %65, i64 0, i32 0
  %83 = call %"class.std::__1::vector.65"* @_ZN4base5Value7GetListEv(%"class.base::Value"* %82) #10
  %84 = bitcast %"class.base::CheckedContiguousIterator"* %9 to i8*
  call void @llvm.lifetime.start.p0i8(i64 24, i8* nonnull %84) #10
  %85 = getelementptr inbounds %"class.base::CheckedContiguousIterator", %"class.base::CheckedContiguousIterator"* %9, i64 0, i32 1
  %86 = icmp eq %"class.std::__1::vector.65"* %83, null
  %87 = bitcast %"class.base::CheckedContiguousIterator"* %9 to i8*
  call void @llvm.memset.p0i8.i64(i8* nonnull align 8 %87, i8 -86, i64 24, i1 false)
  br i1 %86, label %97, label %88

88:                                               ; preds = %79
  %89 = getelementptr inbounds %"class.std::__1::vector.65", %"class.std::__1::vector.65"* %83, i64 0, i32 0, i32 0
  %90 = load %"class.base::Value"*, %"class.base::Value"** %89, align 8
  %91 = getelementptr inbounds %"class.std::__1::vector.65", %"class.std::__1::vector.65"* %83, i64 0, i32 0, i32 1
  %92 = bitcast %"class.base::Value"** %91 to i64*
  %93 = load i64, i64* %92, align 8
  %94 = ptrtoint %"class.base::Value"* %90 to i64
  %95 = sub i64 %93, %94
  %96 = ashr exact i64 %95, 5
  br label %97

97:                                               ; preds = %79, %88
  %98 = phi %"class.base::Value"* [ %90, %88 ], [ null, %79 ]
  %99 = phi i64 [ %96, %88 ], [ 0, %79 ]
  %100 = getelementptr inbounds %"class.base::Value", %"class.base::Value"* %98, i64 %99
  call void @_ZN4base25CheckedContiguousIteratorINS_5ValueEEC2EPKS1_PS1_S4_(%"class.base::CheckedContiguousIterator"* nonnull %9, %"class.base::Value"* %98, %"class.base::Value"* %98, %"class.base::Value"* %100) #10
  %101 = bitcast %"class.base::CheckedContiguousIterator"* %10 to i8*
  call void @llvm.lifetime.start.p0i8(i64 24, i8* nonnull %101) #10
  %102 = getelementptr inbounds %"class.base::CheckedContiguousIterator", %"class.base::CheckedContiguousIterator"* %10, i64 0, i32 1
  %103 = bitcast %"class.base::CheckedContiguousIterator"* %10 to i8*
  call void @llvm.memset.p0i8.i64(i8* nonnull align 8 %103, i8 -86, i64 24, i1 false)
  br i1 %86, label %114, label %104

104:                                              ; preds = %97
  %105 = getelementptr inbounds %"class.std::__1::vector.65", %"class.std::__1::vector.65"* %83, i64 0, i32 0, i32 0
  %106 = load %"class.base::Value"*, %"class.base::Value"** %105, align 8
  %107 = getelementptr inbounds %"class.std::__1::vector.65", %"class.std::__1::vector.65"* %83, i64 0, i32 0, i32 1
  %108 = bitcast %"class.base::Value"** %107 to i64*
  %109 = load i64, i64* %108, align 8
  %110 = ptrtoint %"class.base::Value"* %106 to i64
  %111 = sub i64 %109, %110
  %112 = ashr exact i64 %111, 5
  %113 = getelementptr inbounds %"class.base::Value", %"class.base::Value"* %106, i64 %112
  br label %114

114:                                              ; preds = %97, %104
  %115 = phi %"class.base::Value"* [ %106, %104 ], [ null, %97 ]
  %116 = phi %"class.base::Value"* [ %113, %104 ], [ null, %97 ]
  %117 = phi i64 [ %112, %104 ], [ 0, %97 ]
  %118 = getelementptr inbounds %"class.base::Value", %"class.base::Value"* %115, i64 %117
  call void @_ZN4base25CheckedContiguousIteratorINS_5ValueEEC2EPKS1_PS1_S4_(%"class.base::CheckedContiguousIterator"* nonnull %10, %"class.base::Value"* %115, %"class.base::Value"* %116, %"class.base::Value"* %118) #10
  call void @_ZNK4base25CheckedContiguousIteratorINS_5ValueEE15CheckComparableERKS2_(%"class.base::CheckedContiguousIterator"* nonnull %9, %"class.base::CheckedContiguousIterator"* nonnull dereferenceable(24) %10) #10
  %119 = load %"class.base::Value"*, %"class.base::Value"** %85, align 8
  %120 = load %"class.base::Value"*, %"class.base::Value"** %102, align 8
  %121 = icmp eq %"class.base::Value"* %119, %120
  br i1 %121, label %226, label %122

122:                                              ; preds = %114
  %123 = bitcast %"class.std::__1::basic_string"* %11 to i8*
  %124 = getelementptr inbounds %"class.std::__1::basic_string", %"class.std::__1::basic_string"* %11, i64 0, i32 0, i32 0, i32 0, i32 0, i32 0, i32 0
  %125 = getelementptr inbounds %"class.std::__1::basic_string", %"class.std::__1::basic_string"* %11, i64 0, i32 0, i32 0, i32 0, i32 0, i32 0, i32 1
  %126 = bitcast %"class.std::__1::basic_string"* %11 to %"struct.std::__1::basic_string<char, std::__1::char_traits<char>, std::__1::allocator<char> >::__short"*
  %127 = getelementptr inbounds %"struct.std::__1::basic_string<char, std::__1::char_traits<char>, std::__1::allocator<char> >::__short", %"struct.std::__1::basic_string<char, std::__1::char_traits<char>, std::__1::allocator<char> >::__short"* %126, i64 0, i32 1, i32 0
  %128 = bitcast %"class.logging::LogMessage"* %12 to i8*
  %129 = getelementptr inbounds %"class.logging::LogMessage", %"class.logging::LogMessage"* %12, i64 0, i32 2
  %130 = bitcast %"class.std::__1::basic_ostringstream"* %129 to %"class.std::__1::basic_ostream"*
  %131 = bitcast %"class.logging::CheckError"* %2 to i8*
  %132 = bitcast %"class.logging::CheckError"* %3 to i8*
  %133 = bitcast %"class.logging::CheckError"* %4 to i8*
  br label %134

134:                                              ; preds = %122, %221
  %135 = call dereferenceable(32) %"class.base::Value"* @_ZNK4base25CheckedContiguousIteratorINS_5ValueEEdeEv(%"class.base::CheckedContiguousIterator"* nonnull %9)
  call void @llvm.lifetime.start.p0i8(i64 24, i8* nonnull %123) #10
  call void @llvm.memset.p0i8.i64(i8* nonnull align 8 %123, i8 0, i64 24, i1 false) #10
  %136 = call zeroext i1 @_ZNK4base5Value11GetAsStringEPNSt3__112basic_stringIcNS1_11char_traitsIcEENS1_9allocatorIcEEEE(%"class.base::Value"* %135, %"class.std::__1::basic_string"* nonnull %11) #10
  %137 = call i64 @strlen(i8* getelementptr inbounds ([0 x i8], [0 x i8]* @_ZN3onc12network_type9kEthernetE, i64 0, i64 0)) #10
  %138 = load i8, i8* %127, align 1
  %139 = icmp slt i8 %138, 0
  %140 = load i64, i64* %125, align 8
  %141 = zext i8 %138 to i64
  %142 = select i1 %139, i64 %140, i64 %141
  %143 = icmp eq i64 %137, %142
  br i1 %143, label %144, label %160

144:                                              ; preds = %134
  %145 = call i32 @_ZNKSt3__112basic_stringIcNS_11char_traitsIcEENS_9allocatorIcEEE7compareEmmPKcm(%"class.std::__1::basic_string"* nonnull %11, i64 0, i64 -1, i8* getelementptr inbounds ([0 x i8], [0 x i8]* @_ZN3onc12network_type9kEthernetE, i64 0, i64 0), i64 %137) #10
  %146 = icmp eq i32 %145, 0
  br i1 %146, label %151, label %147

147:                                              ; preds = %144
  %148 = load i8, i8* %127, align 1
  %149 = load i64, i64* %125, align 8
  %150 = zext i8 %148 to i64
  br label %160

151:                                              ; preds = %144
  %152 = call i8* @_ZN10extensions3api18networking_private8ToStringENS1_11NetworkTypeE(i32 3) #10
  %153 = icmp eq i8* %152, null
  br i1 %153, label %156, label %154

154:                                              ; preds = %151
  %155 = call i64 @strlen(i8* nonnull %152) #10
  br label %158

156:                                              ; preds = %151
  call void @llvm.lifetime.start.p0i8(i64 8, i8* nonnull %133) #10
  call void @_ZN7logging10CheckError5CheckEPKciS2_(%"class.logging::CheckError"* nonnull sret %4, i8* getelementptr inbounds ([34 x i8], [34 x i8]* @.str.35, i64 0, i64 0), i32 125, i8* getelementptr inbounds ([2 x i8], [2 x i8]* @.str.36, i64 0, i64 0)) #10
  %157 = call dereferenceable(160) %"class.std::__1::basic_ostream"* @_ZN7logging10CheckError6streamEv(%"class.logging::CheckError"* nonnull %4) #10
  call void @_ZN7logging10CheckErrorD1Ev(%"class.logging::CheckError"* nonnull %4) #10
  call void @llvm.lifetime.end.p0i8(i64 8, i8* nonnull %133) #10
  br label %158

158:                                              ; preds = %154, %156
  %159 = phi i64 [ 0, %156 ], [ %155, %154 ]
  call void @_ZN4base9ListValue12AppendStringENS_16BasicStringPieceIcNSt3__111char_traitsIcEEEE(%"class.base::ListValue"* nonnull %81, i8* %152, i64 %159) #10
  br label %216

160:                                              ; preds = %147, %134
  %161 = phi i64 [ %150, %147 ], [ %141, %134 ]
  %162 = phi i64 [ %149, %147 ], [ %140, %134 ]
  %163 = phi i8 [ %148, %147 ], [ %138, %134 ]
  %164 = call i64 @strlen(i8* getelementptr inbounds ([0 x i8], [0 x i8]* @_ZN3onc12network_type5kWiFiE, i64 0, i64 0)) #10
  %165 = icmp slt i8 %163, 0
  %166 = select i1 %165, i64 %162, i64 %161
  %167 = icmp eq i64 %164, %166
  br i1 %167, label %168, label %184

168:                                              ; preds = %160
  %169 = call i32 @_ZNKSt3__112basic_stringIcNS_11char_traitsIcEENS_9allocatorIcEEE7compareEmmPKcm(%"class.std::__1::basic_string"* nonnull %11, i64 0, i64 -1, i8* getelementptr inbounds ([0 x i8], [0 x i8]* @_ZN3onc12network_type5kWiFiE, i64 0, i64 0), i64 %164) #10
  %170 = icmp eq i32 %169, 0
  br i1 %170, label %175, label %171

171:                                              ; preds = %168
  %172 = load i8, i8* %127, align 1
  %173 = load i64, i64* %125, align 8
  %174 = zext i8 %172 to i64
  br label %184

175:                                              ; preds = %168
  %176 = call i8* @_ZN10extensions3api18networking_private8ToStringENS1_11NetworkTypeE(i32 7) #10
  %177 = icmp eq i8* %176, null
  br i1 %177, label %180, label %178

178:                                              ; preds = %175
  %179 = call i64 @strlen(i8* nonnull %176) #10
  br label %182

180:                                              ; preds = %175
  call void @llvm.lifetime.start.p0i8(i64 8, i8* nonnull %132) #10
  call void @_ZN7logging10CheckError5CheckEPKciS2_(%"class.logging::CheckError"* nonnull sret %3, i8* getelementptr inbounds ([34 x i8], [34 x i8]* @.str.35, i64 0, i64 0), i32 125, i8* getelementptr inbounds ([2 x i8], [2 x i8]* @.str.36, i64 0, i64 0)) #10
  %181 = call dereferenceable(160) %"class.std::__1::basic_ostream"* @_ZN7logging10CheckError6streamEv(%"class.logging::CheckError"* nonnull %3) #10
  call void @_ZN7logging10CheckErrorD1Ev(%"class.logging::CheckError"* nonnull %3) #10
  call void @llvm.lifetime.end.p0i8(i64 8, i8* nonnull %132) #10
  br label %182

182:                                              ; preds = %178, %180
  %183 = phi i64 [ 0, %180 ], [ %179, %178 ]
  call void @_ZN4base9ListValue12AppendStringENS_16BasicStringPieceIcNSt3__111char_traitsIcEEEE(%"class.base::ListValue"* nonnull %81, i8* %176, i64 %183) #10
  br label %216

184:                                              ; preds = %171, %160
  %185 = phi i64 [ %174, %171 ], [ %161, %160 ]
  %186 = phi i64 [ %173, %171 ], [ %162, %160 ]
  %187 = phi i8 [ %172, %171 ], [ %163, %160 ]
  %188 = call i64 @strlen(i8* getelementptr inbounds ([0 x i8], [0 x i8]* @_ZN3onc12network_type9kCellularE, i64 0, i64 0)) #10
  %189 = icmp slt i8 %187, 0
  %190 = select i1 %189, i64 %186, i64 %185
  %191 = icmp eq i64 %188, %190
  br i1 %191, label %192, label %204

192:                                              ; preds = %184
  %193 = call i32 @_ZNKSt3__112basic_stringIcNS_11char_traitsIcEENS_9allocatorIcEEE7compareEmmPKcm(%"class.std::__1::basic_string"* nonnull %11, i64 0, i64 -1, i8* getelementptr inbounds ([0 x i8], [0 x i8]* @_ZN3onc12network_type9kCellularE, i64 0, i64 0), i64 %188) #10
  %194 = icmp eq i32 %193, 0
  br i1 %194, label %195, label %204

195:                                              ; preds = %192
  %196 = call i8* @_ZN10extensions3api18networking_private8ToStringENS1_11NetworkTypeE(i32 2) #10
  %197 = icmp eq i8* %196, null
  br i1 %197, label %200, label %198

198:                                              ; preds = %195
  %199 = call i64 @strlen(i8* nonnull %196) #10
  br label %202

200:                                              ; preds = %195
  call void @llvm.lifetime.start.p0i8(i64 8, i8* nonnull %131) #10
  call void @_ZN7logging10CheckError5CheckEPKciS2_(%"class.logging::CheckError"* nonnull sret %2, i8* getelementptr inbounds ([34 x i8], [34 x i8]* @.str.35, i64 0, i64 0), i32 125, i8* getelementptr inbounds ([2 x i8], [2 x i8]* @.str.36, i64 0, i64 0)) #10
  %201 = call dereferenceable(160) %"class.std::__1::basic_ostream"* @_ZN7logging10CheckError6streamEv(%"class.logging::CheckError"* nonnull %2) #10
  call void @_ZN7logging10CheckErrorD1Ev(%"class.logging::CheckError"* nonnull %2) #10
  call void @llvm.lifetime.end.p0i8(i64 8, i8* nonnull %131) #10
  br label %202

202:                                              ; preds = %198, %200
  %203 = phi i64 [ 0, %200 ], [ %199, %198 ]
  call void @_ZN4base9ListValue12AppendStringENS_16BasicStringPieceIcNSt3__111char_traitsIcEEEE(%"class.base::ListValue"* nonnull %81, i8* %196, i64 %203) #10
  br label %216

204:                                              ; preds = %184, %192
  %205 = call zeroext i1 @_ZN7logging22ShouldCreateLogMessageEi(i32 2) #10
  br i1 %205, label %206, label %216

206:                                              ; preds = %204
  call void @llvm.lifetime.start.p0i8(i64 304, i8* nonnull %128) #10
  call void @_ZN7logging10LogMessageC1EPKcii(%"class.logging::LogMessage"* nonnull %12, i8* getelementptr inbounds ([74 x i8], [74 x i8]* @.str.1, i64 0, i64 0), i32 489, i32 2) #10
  %207 = call dereferenceable(160) %"class.std::__1::basic_ostream"* @_ZNSt3__124__put_character_sequenceIcNS_11char_traitsIcEEEERNS_13basic_ostreamIT_T0_EES7_PKS4_m(%"class.std::__1::basic_ostream"* dereferenceable(160) %130, i8* getelementptr inbounds ([37 x i8], [37 x i8]* @.str.2, i64 0, i64 0), i64 36) #10
  %208 = load i8, i8* %127, align 1
  %209 = icmp slt i8 %208, 0
  %210 = load i8*, i8** %124, align 8
  %211 = load i64, i64* %125, align 8
  %212 = zext i8 %208 to i64
  %213 = select i1 %209, i8* %210, i8* %123
  %214 = select i1 %209, i64 %211, i64 %212
  %215 = call dereferenceable(160) %"class.std::__1::basic_ostream"* @_ZNSt3__124__put_character_sequenceIcNS_11char_traitsIcEEEERNS_13basic_ostreamIT_T0_EES7_PKS4_m(%"class.std::__1::basic_ostream"* dereferenceable(160) %207, i8* %213, i64 %214) #10
  call void @_ZN7logging10LogMessageD1Ev(%"class.logging::LogMessage"* nonnull %12) #10
  call void @llvm.lifetime.end.p0i8(i64 304, i8* nonnull %128) #10
  br label %216

216:                                              ; preds = %206, %204, %182, %202, %158
  %217 = load i8, i8* %127, align 1
  %218 = icmp slt i8 %217, 0
  br i1 %218, label %219, label %221

219:                                              ; preds = %216
  %220 = load i8*, i8** %124, align 8
  call void @_ZdlPv(i8* %220) #11
  br label %221

221:                                              ; preds = %216, %219
  call void @llvm.lifetime.end.p0i8(i64 24, i8* nonnull %123) #10
  %222 = call dereferenceable(24) %"class.base::CheckedContiguousIterator"* @_ZN4base25CheckedContiguousIteratorINS_5ValueEEppEv(%"class.base::CheckedContiguousIterator"* nonnull %9)
  call void @_ZNK4base25CheckedContiguousIteratorINS_5ValueEE15CheckComparableERKS2_(%"class.base::CheckedContiguousIterator"* nonnull %9, %"class.base::CheckedContiguousIterator"* nonnull dereferenceable(24) %10) #10
  %223 = load %"class.base::Value"*, %"class.base::Value"** %85, align 8
  %224 = load %"class.base::Value"*, %"class.base::Value"** %102, align 8
  %225 = icmp eq %"class.base::Value"* %223, %224
  br i1 %225, label %226, label %134

226:                                              ; preds = %221, %114
  call void @llvm.lifetime.end.p0i8(i64 24, i8* nonnull %101) #10
  call void @llvm.lifetime.end.p0i8(i64 24, i8* nonnull %84) #10
  %227 = bitcast i8* %80 to %"class.base::Value"*
  call void @_ZN4base5Value18FromUniquePtrValueENSt3__110unique_ptrIS0_NS1_14default_deleteIS0_EEEE(%"class.base::Value"* nonnull sret %13, %"class.base::Value"* nonnull %227) #10
  %228 = call %"class.ExtensionFunction::ResponseValueObject"* @_ZN17ExtensionFunction11OneArgumentEN4base5ValueE(%class.ExtensionFunction* %14, %"class.base::Value"* nonnull %13) #10
  %229 = call %"class.ExtensionFunction::ResponseActionObject"* @_ZN17ExtensionFunction10RespondNowENSt3__110unique_ptrINS_19ResponseValueObjectENS0_14default_deleteIS2_EEEE(%class.ExtensionFunction* %14, %"class.ExtensionFunction::ResponseValueObject"* %228) #10
  call void @_ZN4base5ValueD1Ev(%"class.base::Value"* nonnull %13) #10
  call void @_ZN4base5ValueD2Ev(%"class.base::Value"* nonnull %82) #10
  %230 = bitcast %"class.base::ListValue"* %65 to i8*
  call void @_ZdlPv(i8* %230) #11
  br label %231

231:                                              ; preds = %67, %76, %226, %56, %44
  %232 = phi %"class.ExtensionFunction::ResponseActionObject"* [ %51, %44 ], [ %51, %56 ], [ %229, %226 ], [ %73, %76 ], [ %73, %67 ]
  ret %"class.ExtensionFunction::ResponseActionObject"* %232
}

; Function Attrs: nobuiltin nofree
declare noalias nonnull i8* @_Znwm(i64) local_unnamed_addr #5

declare void @_ZN4base9ListValueC1Ev(%"class.base::ListValue"*) unnamed_addr #4

declare %"class.std::__1::vector.65"* @_ZN4base5Value7GetListEv(%"class.base::Value"*) local_unnamed_addr #4

; Function Attrs: nounwind ssp uwtable
define linkonce_odr hidden dereferenceable(32) %"class.base::Value"* @_ZNK4base25CheckedContiguousIteratorINS_5ValueEEdeEv(%"class.base::CheckedContiguousIterator"*) local_unnamed_addr #1 comdat align 2 {
  %2 = alloca %"class.logging::CheckOpResult", align 8
  %3 = alloca %"class.logging::CheckOpResult", align 8
  %4 = alloca %"class.logging::CheckError", align 8
  %5 = bitcast %"class.logging::CheckOpResult"* %3 to i8*
  call void @llvm.lifetime.start.p0i8(i64 8, i8* nonnull %5) #10
  %6 = getelementptr inbounds %"class.logging::CheckOpResult", %"class.logging::CheckOpResult"* %3, i64 0, i32 0
  store i8* inttoptr (i64 -6148914691236517206 to i8*), i8** %6, align 8
  %7 = getelementptr inbounds %"class.base::CheckedContiguousIterator", %"class.base::CheckedContiguousIterator"* %0, i64 0, i32 1
  %8 = getelementptr inbounds %"class.base::CheckedContiguousIterator", %"class.base::CheckedContiguousIterator"* %0, i64 0, i32 2
  %9 = bitcast %"class.logging::CheckOpResult"* %2 to i8*
  call void @llvm.lifetime.start.p0i8(i64 8, i8* nonnull %9)
  %10 = load %"class.base::Value"*, %"class.base::Value"** %7, align 8
  %11 = load %"class.base::Value"*, %"class.base::Value"** %8, align 8
  %12 = icmp eq %"class.base::Value"* %10, %11
  br i1 %12, label %14, label %13

13:                                               ; preds = %1
  call void @llvm.lifetime.end.p0i8(i64 8, i8* nonnull %9)
  store i8* null, i8** %6, align 8
  br label %25

14:                                               ; preds = %1
  %15 = bitcast %"class.base::Value"** %7 to i8*
  %16 = tail call i8* @_ZN7logging14StreamValToStrEPKvPFvRNSt3__113basic_ostreamIcNS2_11char_traitsIcEEEES1_E(i8* %15, void (%"class.std::__1::basic_ostream"*, i8*)* nonnull @_ZZN7logging15CheckOpValueStrIPN4base5ValueEEENSt3__19enable_ifIXaasr4base8internal23SupportsOstreamOperatorIRKT_EE5valuentsr3std11is_functionINS4_14remove_pointerIS6_E4typeEEE5valueEPcE4typeES8_ENUlRNS4_13basic_ostreamIcNS4_11char_traitsIcEEEEPKvE_8__invokeESJ_SL_) #10
  %17 = bitcast %"class.base::Value"** %8 to i8*
  %18 = tail call i8* @_ZN7logging14StreamValToStrEPKvPFvRNSt3__113basic_ostreamIcNS2_11char_traitsIcEEEES1_E(i8* %17, void (%"class.std::__1::basic_ostream"*, i8*)* nonnull @_ZZN7logging15CheckOpValueStrIPKN4base5ValueEEENSt3__19enable_ifIXaasr4base8internal23SupportsOstreamOperatorIRKT_EE5valuentsr3std11is_functionINS5_14remove_pointerIS7_E4typeEEE5valueEPcE4typeES9_ENUlRNS5_13basic_ostreamIcNS5_11char_traitsIcEEEEPKvE_8__invokeESK_SM_) #10
  call void @_ZN7logging13CheckOpResultC1EPKcPcS3_(%"class.logging::CheckOpResult"* nonnull %2, i8* getelementptr inbounds ([17 x i8], [17 x i8]* @.str.34, i64 0, i64 0), i8* %16, i8* %18) #10
  %19 = getelementptr inbounds %"class.logging::CheckOpResult", %"class.logging::CheckOpResult"* %2, i64 0, i32 0
  %20 = load i8*, i8** %19, align 8
  call void @llvm.lifetime.end.p0i8(i64 8, i8* nonnull %9)
  store i8* %20, i8** %6, align 8
  %21 = icmp eq i8* %20, null
  br i1 %21, label %25, label %22

22:                                               ; preds = %14
  %23 = bitcast %"class.logging::CheckError"* %4 to i8*
  call void @llvm.lifetime.start.p0i8(i64 8, i8* nonnull %23) #10
  call void @_ZN7logging10CheckError7CheckOpEPKciPNS_13CheckOpResultE(%"class.logging::CheckError"* nonnull sret %4, i8* getelementptr inbounds ([42 x i8], [42 x i8]* @.str.30, i64 0, i64 0), i32 173, %"class.logging::CheckOpResult"* nonnull %3) #10
  %24 = call dereferenceable(160) %"class.std::__1::basic_ostream"* @_ZN7logging10CheckError6streamEv(%"class.logging::CheckError"* nonnull %4) #10
  call void @_ZN7logging10CheckErrorD1Ev(%"class.logging::CheckError"* nonnull %4) #10
  call void @llvm.lifetime.end.p0i8(i64 8, i8* nonnull %23) #10
  br label %25

25:                                               ; preds = %13, %14, %22
  call void @llvm.lifetime.end.p0i8(i64 8, i8* nonnull %5) #10
  %26 = load %"class.base::Value"*, %"class.base::Value"** %7, align 8
  ret %"class.base::Value"* %26
}

declare zeroext i1 @_ZNK4base5Value11GetAsStringEPNSt3__112basic_stringIcNS1_11char_traitsIcEENS1_9allocatorIcEEEE(%"class.base::Value"*, %"class.std::__1::basic_string"*) local_unnamed_addr #4

declare void @_ZN4base9ListValue12AppendStringENS_16BasicStringPieceIcNSt3__111char_traitsIcEEEE(%"class.base::ListValue"*, i8*, i64) local_unnamed_addr #4

declare zeroext i1 @_ZN7logging22ShouldCreateLogMessageEi(i32) local_unnamed_addr #4

declare void @_ZN7logging10LogMessageC1EPKcii(%"class.logging::LogMessage"*, i8*, i32, i32) unnamed_addr #4

; Function Attrs: nounwind
declare void @_ZN7logging10LogMessageD1Ev(%"class.logging::LogMessage"*) unnamed_addr #0

; Function Attrs: nounwind ssp uwtable
define linkonce_odr hidden dereferenceable(24) %"class.base::CheckedContiguousIterator"* @_ZN4base25CheckedContiguousIteratorINS_5ValueEEppEv(%"class.base::CheckedContiguousIterator"*) local_unnamed_addr #1 comdat align 2 {
  %2 = alloca %"class.logging::CheckOpResult", align 8
  %3 = alloca %"class.logging::CheckOpResult", align 8
  %4 = alloca %"class.logging::CheckError", align 8
  %5 = bitcast %"class.logging::CheckOpResult"* %3 to i8*
  call void @llvm.lifetime.start.p0i8(i64 8, i8* nonnull %5) #10
  %6 = getelementptr inbounds %"class.logging::CheckOpResult", %"class.logging::CheckOpResult"* %3, i64 0, i32 0
  store i8* inttoptr (i64 -6148914691236517206 to i8*), i8** %6, align 8
  %7 = getelementptr inbounds %"class.base::CheckedContiguousIterator", %"class.base::CheckedContiguousIterator"* %0, i64 0, i32 1
  %8 = getelementptr inbounds %"class.base::CheckedContiguousIterator", %"class.base::CheckedContiguousIterator"* %0, i64 0, i32 2
  %9 = bitcast %"class.logging::CheckOpResult"* %2 to i8*
  call void @llvm.lifetime.start.p0i8(i64 8, i8* nonnull %9)
  %10 = load %"class.base::Value"*, %"class.base::Value"** %7, align 8
  %11 = load %"class.base::Value"*, %"class.base::Value"** %8, align 8
  %12 = icmp eq %"class.base::Value"* %10, %11
  br i1 %12, label %14, label %13

13:                                               ; preds = %1
  call void @llvm.lifetime.end.p0i8(i64 8, i8* nonnull %9)
  store i8* null, i8** %6, align 8
  br label %25

14:                                               ; preds = %1
  %15 = bitcast %"class.base::Value"** %7 to i8*
  %16 = tail call i8* @_ZN7logging14StreamValToStrEPKvPFvRNSt3__113basic_ostreamIcNS2_11char_traitsIcEEEES1_E(i8* %15, void (%"class.std::__1::basic_ostream"*, i8*)* nonnull @_ZZN7logging15CheckOpValueStrIPN4base5ValueEEENSt3__19enable_ifIXaasr4base8internal23SupportsOstreamOperatorIRKT_EE5valuentsr3std11is_functionINS4_14remove_pointerIS6_E4typeEEE5valueEPcE4typeES8_ENUlRNS4_13basic_ostreamIcNS4_11char_traitsIcEEEEPKvE_8__invokeESJ_SL_) #10
  %17 = bitcast %"class.base::Value"** %8 to i8*
  %18 = tail call i8* @_ZN7logging14StreamValToStrEPKvPFvRNSt3__113basic_ostreamIcNS2_11char_traitsIcEEEES1_E(i8* %17, void (%"class.std::__1::basic_ostream"*, i8*)* nonnull @_ZZN7logging15CheckOpValueStrIPKN4base5ValueEEENSt3__19enable_ifIXaasr4base8internal23SupportsOstreamOperatorIRKT_EE5valuentsr3std11is_functionINS5_14remove_pointerIS7_E4typeEEE5valueEPcE4typeES9_ENUlRNS5_13basic_ostreamIcNS5_11char_traitsIcEEEEPKvE_8__invokeESK_SM_) #10
  call void @_ZN7logging13CheckOpResultC1EPKcPcS3_(%"class.logging::CheckOpResult"* nonnull %2, i8* getelementptr inbounds ([17 x i8], [17 x i8]* @.str.34, i64 0, i64 0), i8* %16, i8* %18) #10
  %19 = getelementptr inbounds %"class.logging::CheckOpResult", %"class.logging::CheckOpResult"* %2, i64 0, i32 0
  %20 = load i8*, i8** %19, align 8
  call void @llvm.lifetime.end.p0i8(i64 8, i8* nonnull %9)
  store i8* %20, i8** %6, align 8
  %21 = icmp eq i8* %20, null
  br i1 %21, label %25, label %22

22:                                               ; preds = %14
  %23 = bitcast %"class.logging::CheckError"* %4 to i8*
  call void @llvm.lifetime.start.p0i8(i64 8, i8* nonnull %23) #10
  call void @_ZN7logging10CheckError7CheckOpEPKciPNS_13CheckOpResultE(%"class.logging::CheckError"* nonnull sret %4, i8* getelementptr inbounds ([42 x i8], [42 x i8]* @.str.30, i64 0, i64 0), i32 110, %"class.logging::CheckOpResult"* nonnull %3) #10
  %24 = call dereferenceable(160) %"class.std::__1::basic_ostream"* @_ZN7logging10CheckError6streamEv(%"class.logging::CheckError"* nonnull %4) #10
  call void @_ZN7logging10CheckErrorD1Ev(%"class.logging::CheckError"* nonnull %4) #10
  call void @llvm.lifetime.end.p0i8(i64 8, i8* nonnull %23) #10
  br label %25

25:                                               ; preds = %13, %14, %22
  call void @llvm.lifetime.end.p0i8(i64 8, i8* nonnull %5) #10
  %26 = load %"class.base::Value"*, %"class.base::Value"** %7, align 8
  %27 = getelementptr inbounds %"class.base::Value", %"class.base::Value"* %26, i64 1
  store %"class.base::Value"* %27, %"class.base::Value"** %7, align 8
  ret %"class.base::CheckedContiguousIterator"* %0
}

; Function Attrs: nounwind ssp uwtable
define hidden void @_ZN10extensions40NetworkingPrivateGetDeviceStatesFunctionD2Ev(%"class.extensions::NetworkingPrivateGetDeviceStatesFunction"*) unnamed_addr #1 align 2 {
  %2 = bitcast %"class.extensions::NetworkingPrivateGetDeviceStatesFunction"* %0 to %class.ExtensionFunction*
  tail call void @_ZN17ExtensionFunctionD2Ev(%class.ExtensionFunction* %2) #10
  ret void
}

; Function Attrs: nounwind ssp uwtable
define hidden void @_ZN10extensions40NetworkingPrivateGetDeviceStatesFunctionD0Ev(%"class.extensions::NetworkingPrivateGetDeviceStatesFunction"*) unnamed_addr #1 align 2 {
  %2 = bitcast %"class.extensions::NetworkingPrivateGetDeviceStatesFunction"* %0 to %class.ExtensionFunction*
  tail call void @_ZN17ExtensionFunctionD2Ev(%class.ExtensionFunction* %2) #10
  %3 = bitcast %"class.extensions::NetworkingPrivateGetDeviceStatesFunction"* %0 to i8*
  tail call void @_ZdlPv(i8* %3) #11
  ret void
}

; Function Attrs: nounwind ssp uwtable
define hidden %"class.ExtensionFunction::ResponseActionObject"* @_ZN10extensions40NetworkingPrivateGetDeviceStatesFunction3RunEv(%"class.extensions::NetworkingPrivateGetDeviceStatesFunction"*) unnamed_addr #1 align 2 {
  %2 = alloca %"class.std::__1::basic_string", align 8
  %3 = alloca %"class.base::Value", align 8
  %4 = bitcast %"class.extensions::NetworkingPrivateGetDeviceStatesFunction"* %0 to %class.ExtensionFunction*
  %5 = tail call %"class.content::BrowserContext"* @_ZNK17ExtensionFunction15browser_contextEv(%class.ExtensionFunction* %4) #10
  %6 = tail call %"class.extensions::NetworkingPrivateDelegate"* @_ZN10extensions32NetworkingPrivateDelegateFactory20GetForBrowserContextEPN7content14BrowserContextE(%"class.content::BrowserContext"* %5) #10
  %7 = bitcast %"class.extensions::NetworkingPrivateDelegate"* %6 to %"class.std::__1::vector.387"* (%"class.extensions::NetworkingPrivateDelegate"*)***
  %8 = load %"class.std::__1::vector.387"* (%"class.extensions::NetworkingPrivateDelegate"*)**, %"class.std::__1::vector.387"* (%"class.extensions::NetworkingPrivateDelegate"*)*** %7, align 8
  %9 = getelementptr inbounds %"class.std::__1::vector.387"* (%"class.extensions::NetworkingPrivateDelegate"*)*, %"class.std::__1::vector.387"* (%"class.extensions::NetworkingPrivateDelegate"*)** %8, i64 18
  %10 = load %"class.std::__1::vector.387"* (%"class.extensions::NetworkingPrivateDelegate"*)*, %"class.std::__1::vector.387"* (%"class.extensions::NetworkingPrivateDelegate"*)** %9, align 8
  %11 = tail call %"class.std::__1::vector.387"* %10(%"class.extensions::NetworkingPrivateDelegate"* %6) #10
  %12 = icmp eq %"class.std::__1::vector.387"* %11, null
  br i1 %12, label %13, label %25

13:                                               ; preds = %1
  %14 = bitcast %"class.std::__1::basic_string"* %2 to %"struct.std::__1::basic_string<char, std::__1::char_traits<char>, std::__1::allocator<char> >::__short"*
  %15 = getelementptr inbounds %"struct.std::__1::basic_string<char, std::__1::char_traits<char>, std::__1::allocator<char> >::__short", %"struct.std::__1::basic_string<char, std::__1::char_traits<char>, std::__1::allocator<char> >::__short"* %14, i64 0, i32 1, i32 0
  store i8 18, i8* %15, align 1
  %16 = bitcast %"class.std::__1::basic_string"* %2 to i8*
  call void @llvm.memcpy.p0i8.p0i8.i64(i8* nonnull align 8 %16, i8* align 16 getelementptr inbounds ([19 x i8], [19 x i8]* @_ZN10extensions18networking_private18kErrorNotSupportedE, i64 0, i64 0), i64 18, i1 false) #10
  %17 = getelementptr inbounds i8, i8* %16, i64 18
  store i8 0, i8* %17, align 2
  %18 = call %"class.ExtensionFunction::ResponseValueObject"* @_ZN17ExtensionFunction5ErrorENSt3__112basic_stringIcNS0_11char_traitsIcEENS0_9allocatorIcEEEE(%class.ExtensionFunction* %4, %"class.std::__1::basic_string"* nonnull %2) #10
  %19 = call %"class.ExtensionFunction::ResponseActionObject"* @_ZN17ExtensionFunction10RespondNowENSt3__110unique_ptrINS_19ResponseValueObjectENS0_14default_deleteIS2_EEEE(%class.ExtensionFunction* %4, %"class.ExtensionFunction::ResponseValueObject"* %18) #10
  %20 = load i8, i8* %15, align 1
  %21 = icmp slt i8 %20, 0
  br i1 %21, label %22, label %71

22:                                               ; preds = %13
  %23 = getelementptr inbounds %"class.std::__1::basic_string", %"class.std::__1::basic_string"* %2, i64 0, i32 0, i32 0, i32 0, i32 0, i32 0, i32 0
  %24 = load i8*, i8** %23, align 8
  br label %68

25:                                               ; preds = %1
  %26 = tail call i8* @_Znwm(i64 32) #11
  %27 = bitcast i8* %26 to %"class.base::ListValue"*
  tail call void @_ZN4base9ListValueC1Ev(%"class.base::ListValue"* nonnull %27) #10
  %28 = getelementptr inbounds %"class.std::__1::vector.387", %"class.std::__1::vector.387"* %11, i64 0, i32 0, i32 0
  %29 = load %"class.std::__1::unique_ptr.389"*, %"class.std::__1::unique_ptr.389"** %28, align 8
  %30 = getelementptr inbounds %"class.std::__1::vector.387", %"class.std::__1::vector.387"* %11, i64 0, i32 0, i32 1
  %31 = load %"class.std::__1::unique_ptr.389"*, %"class.std::__1::unique_ptr.389"** %30, align 8
  %32 = icmp eq %"class.std::__1::unique_ptr.389"* %29, %31
  br i1 %32, label %41, label %33

33:                                               ; preds = %25, %33
  %34 = phi %"class.std::__1::unique_ptr.389"* [ %39, %33 ], [ %29, %25 ]
  %35 = getelementptr inbounds %"class.std::__1::unique_ptr.389", %"class.std::__1::unique_ptr.389"* %34, i64 0, i32 0, i32 0, i32 0
  %36 = load %"struct.extensions::api::networking_private::DeviceStateProperties"*, %"struct.extensions::api::networking_private::DeviceStateProperties"** %35, align 8
  %37 = tail call %"class.base::DictionaryValue"* @_ZNK10extensions3api18networking_private21DeviceStateProperties7ToValueEv(%"struct.extensions::api::networking_private::DeviceStateProperties"* %36) #10
  %38 = getelementptr inbounds %"class.base::DictionaryValue", %"class.base::DictionaryValue"* %37, i64 0, i32 0
  tail call void @_ZN4base9ListValue6AppendENSt3__110unique_ptrINS_5ValueENS1_14default_deleteIS3_EEEE(%"class.base::ListValue"* nonnull %27, %"class.base::Value"* %38) #10
  %39 = getelementptr inbounds %"class.std::__1::unique_ptr.389", %"class.std::__1::unique_ptr.389"* %34, i64 1
  %40 = icmp eq %"class.std::__1::unique_ptr.389"* %39, %31
  br i1 %40, label %41, label %33

41:                                               ; preds = %33, %25
  %42 = bitcast i8* %26 to %"class.base::Value"*
  call void @_ZN4base5Value18FromUniquePtrValueENSt3__110unique_ptrIS0_NS1_14default_deleteIS0_EEEE(%"class.base::Value"* nonnull sret %3, %"class.base::Value"* nonnull %42) #10
  %43 = call %"class.ExtensionFunction::ResponseValueObject"* @_ZN17ExtensionFunction11OneArgumentEN4base5ValueE(%class.ExtensionFunction* %4, %"class.base::Value"* nonnull %3) #10
  %44 = call %"class.ExtensionFunction::ResponseActionObject"* @_ZN17ExtensionFunction10RespondNowENSt3__110unique_ptrINS_19ResponseValueObjectENS0_14default_deleteIS2_EEEE(%class.ExtensionFunction* %4, %"class.ExtensionFunction::ResponseValueObject"* %43) #10
  call void @_ZN4base5ValueD1Ev(%"class.base::Value"* nonnull %3) #10
  %45 = load %"class.std::__1::unique_ptr.389"*, %"class.std::__1::unique_ptr.389"** %28, align 8
  %46 = icmp eq %"class.std::__1::unique_ptr.389"* %45, null
  br i1 %46, label %66, label %47

47:                                               ; preds = %41
  %48 = bitcast %"class.std::__1::unique_ptr.389"* %45 to i8*
  %49 = load %"class.std::__1::unique_ptr.389"*, %"class.std::__1::unique_ptr.389"** %30, align 8
  %50 = icmp eq %"class.std::__1::unique_ptr.389"* %49, %45
  br i1 %50, label %64, label %51

51:                                               ; preds = %47, %59
  %52 = phi %"class.std::__1::unique_ptr.389"* [ %53, %59 ], [ %49, %47 ]
  %53 = getelementptr inbounds %"class.std::__1::unique_ptr.389", %"class.std::__1::unique_ptr.389"* %52, i64 -1
  %54 = getelementptr inbounds %"class.std::__1::unique_ptr.389", %"class.std::__1::unique_ptr.389"* %53, i64 0, i32 0, i32 0, i32 0
  %55 = load %"struct.extensions::api::networking_private::DeviceStateProperties"*, %"struct.extensions::api::networking_private::DeviceStateProperties"** %54, align 8
  store %"struct.extensions::api::networking_private::DeviceStateProperties"* null, %"struct.extensions::api::networking_private::DeviceStateProperties"** %54, align 8
  %56 = icmp eq %"struct.extensions::api::networking_private::DeviceStateProperties"* %55, null
  br i1 %56, label %59, label %57

57:                                               ; preds = %51
  call void @_ZN10extensions3api18networking_private21DeviceStatePropertiesD1Ev(%"struct.extensions::api::networking_private::DeviceStateProperties"* nonnull %55) #10
  %58 = bitcast %"struct.extensions::api::networking_private::DeviceStateProperties"* %55 to i8*
  call void @_ZdlPv(i8* %58) #11
  br label %59

59:                                               ; preds = %57, %51
  %60 = icmp eq %"class.std::__1::unique_ptr.389"* %53, %45
  br i1 %60, label %61, label %51

61:                                               ; preds = %59
  %62 = bitcast %"class.std::__1::vector.387"* %11 to i8**
  %63 = load i8*, i8** %62, align 8
  br label %64

64:                                               ; preds = %61, %47
  %65 = phi i8* [ %63, %61 ], [ %48, %47 ]
  store %"class.std::__1::unique_ptr.389"* %45, %"class.std::__1::unique_ptr.389"** %30, align 8
  call void @_ZdlPv(i8* %65) #11
  br label %66

66:                                               ; preds = %64, %41
  %67 = bitcast %"class.std::__1::vector.387"* %11 to i8*
  br label %68

68:                                               ; preds = %66, %22
  %69 = phi i8* [ %24, %22 ], [ %67, %66 ]
  %70 = phi %"class.ExtensionFunction::ResponseActionObject"* [ %19, %22 ], [ %44, %66 ]
  call void @_ZdlPv(i8* %69) #11
  br label %71

71:                                               ; preds = %68, %13
  %72 = phi %"class.ExtensionFunction::ResponseActionObject"* [ %19, %13 ], [ %70, %68 ]
  ret %"class.ExtensionFunction::ResponseActionObject"* %72
}

declare void @_ZN4base9ListValue6AppendENSt3__110unique_ptrINS_5ValueENS1_14default_deleteIS3_EEEE(%"class.base::ListValue"*, %"class.base::Value"*) local_unnamed_addr #4

declare %"class.base::DictionaryValue"* @_ZNK10extensions3api18networking_private21DeviceStateProperties7ToValueEv(%"struct.extensions::api::networking_private::DeviceStateProperties"*) local_unnamed_addr #4

; Function Attrs: nounwind ssp uwtable
define hidden void @_ZN10extensions42NetworkingPrivateEnableNetworkTypeFunctionD2Ev(%"class.extensions::NetworkingPrivateEnableNetworkTypeFunction"*) unnamed_addr #1 align 2 {
  %2 = bitcast %"class.extensions::NetworkingPrivateEnableNetworkTypeFunction"* %0 to %class.ExtensionFunction*
  tail call void @_ZN17ExtensionFunctionD2Ev(%class.ExtensionFunction* %2) #10
  ret void
}

; Function Attrs: nounwind ssp uwtable
define hidden void @_ZN10extensions42NetworkingPrivateEnableNetworkTypeFunctionD0Ev(%"class.extensions::NetworkingPrivateEnableNetworkTypeFunction"*) unnamed_addr #1 align 2 {
  %2 = bitcast %"class.extensions::NetworkingPrivateEnableNetworkTypeFunction"* %0 to %class.ExtensionFunction*
  tail call void @_ZN17ExtensionFunctionD2Ev(%class.ExtensionFunction* %2) #10
  %3 = bitcast %"class.extensions::NetworkingPrivateEnableNetworkTypeFunction"* %0 to i8*
  tail call void @_ZdlPv(i8* %3) #11
  ret void
}

; Function Attrs: nounwind ssp uwtable
define hidden %"class.ExtensionFunction::ResponseActionObject"* @_ZN10extensions42NetworkingPrivateEnableNetworkTypeFunction3RunEv(%"class.extensions::NetworkingPrivateEnableNetworkTypeFunction"*) unnamed_addr #1 align 2 {
  %2 = alloca %"class.std::__1::basic_string", align 8
  %3 = alloca %"class.std::__1::basic_string", align 8
  %4 = bitcast %"class.extensions::NetworkingPrivateEnableNetworkTypeFunction"* %0 to %class.ExtensionFunction*
  %5 = getelementptr inbounds %"class.extensions::NetworkingPrivateEnableNetworkTypeFunction", %"class.extensions::NetworkingPrivateEnableNetworkTypeFunction"* %0, i64 0, i32 0, i32 4, i32 0, i32 0, i32 0
  %6 = load %"class.base::ListValue"*, %"class.base::ListValue"** %5, align 8
  %7 = tail call %"struct.extensions::api::networking_private::EnableNetworkType::Params"* @_ZN10extensions3api18networking_private17EnableNetworkType6Params6CreateERKN4base9ListValueE(%"class.base::ListValue"* dereferenceable(32) %6) #10
  %8 = icmp eq %"struct.extensions::api::networking_private::EnableNetworkType::Params"* %7, null
  br i1 %8, label %70, label %9

9:                                                ; preds = %1
  %10 = tail call %"class.content::BrowserContext"* @_ZNK17ExtensionFunction15browser_contextEv(%class.ExtensionFunction* %4) #10
  %11 = tail call %"class.extensions::NetworkingPrivateDelegate"* @_ZN10extensions32NetworkingPrivateDelegateFactory20GetForBrowserContextEPN7content14BrowserContextE(%"class.content::BrowserContext"* %10) #10
  %12 = bitcast %"class.std::__1::basic_string"* %2 to i8*
  call void @llvm.lifetime.start.p0i8(i64 24, i8* nonnull %12) #10
  %13 = getelementptr inbounds %"struct.extensions::api::networking_private::EnableNetworkType::Params", %"struct.extensions::api::networking_private::EnableNetworkType::Params"* %7, i64 0, i32 0
  %14 = load i32, i32* %13, align 4
  %15 = tail call i8* @_ZN10extensions3api18networking_private8ToStringENS1_11NetworkTypeE(i32 %14) #10
  %16 = tail call i64 @strlen(i8* %15) #10
  %17 = icmp ugt i64 %16, -17
  br i1 %17, label %18, label %20

18:                                               ; preds = %9
  %19 = bitcast %"class.std::__1::basic_string"* %2 to %"class.std::__1::__basic_string_common"*
  call void @_ZNKSt3__121__basic_string_commonILb1EE20__throw_length_errorEv(%"class.std::__1::__basic_string_common"* nonnull %19) #12
  unreachable

20:                                               ; preds = %9
  %21 = icmp ult i64 %16, 23
  br i1 %21, label %31, label %22

22:                                               ; preds = %20
  %23 = add nuw i64 %16, 16
  %24 = and i64 %23, -16
  %25 = tail call i8* @_Znwm(i64 %24) #11
  %26 = getelementptr inbounds %"class.std::__1::basic_string", %"class.std::__1::basic_string"* %2, i64 0, i32 0, i32 0, i32 0, i32 0, i32 0, i32 0
  store i8* %25, i8** %26, align 8
  %27 = or i64 %24, -9223372036854775808
  %28 = getelementptr inbounds %"class.std::__1::basic_string", %"class.std::__1::basic_string"* %2, i64 0, i32 0, i32 0, i32 0, i32 0, i32 0, i32 2
  store i64 %27, i64* %28, align 8
  %29 = getelementptr inbounds %"class.std::__1::basic_string", %"class.std::__1::basic_string"* %2, i64 0, i32 0, i32 0, i32 0, i32 0, i32 0, i32 1
  store i64 %16, i64* %29, align 8
  %30 = bitcast %"class.std::__1::basic_string"* %2 to %"struct.std::__1::basic_string<char, std::__1::char_traits<char>, std::__1::allocator<char> >::__short"*
  br label %36

31:                                               ; preds = %20
  %32 = trunc i64 %16 to i8
  %33 = bitcast %"class.std::__1::basic_string"* %2 to %"struct.std::__1::basic_string<char, std::__1::char_traits<char>, std::__1::allocator<char> >::__short"*
  %34 = getelementptr inbounds %"struct.std::__1::basic_string<char, std::__1::char_traits<char>, std::__1::allocator<char> >::__short", %"struct.std::__1::basic_string<char, std::__1::char_traits<char>, std::__1::allocator<char> >::__short"* %33, i64 0, i32 1, i32 0
  store i8 %32, i8* %34, align 1
  %35 = icmp eq i64 %16, 0
  br i1 %35, label %39, label %36

36:                                               ; preds = %31, %22
  %37 = phi %"struct.std::__1::basic_string<char, std::__1::char_traits<char>, std::__1::allocator<char> >::__short"* [ %33, %31 ], [ %30, %22 ]
  %38 = phi i8* [ %12, %31 ], [ %25, %22 ]
  call void @llvm.memcpy.p0i8.p0i8.i64(i8* nonnull align 1 %38, i8* align 1 %15, i64 %16, i1 false) #10
  br label %39

39:                                               ; preds = %31, %36
  %40 = phi %"struct.std::__1::basic_string<char, std::__1::char_traits<char>, std::__1::allocator<char> >::__short"* [ %33, %31 ], [ %37, %36 ]
  %41 = phi i8* [ %12, %31 ], [ %38, %36 ]
  %42 = getelementptr inbounds i8, i8* %41, i64 %16
  store i8 0, i8* %42, align 1
  %43 = bitcast %"class.extensions::NetworkingPrivateDelegate"* %11 to i1 (%"class.extensions::NetworkingPrivateDelegate"*, %"class.std::__1::basic_string"*)***
  %44 = load i1 (%"class.extensions::NetworkingPrivateDelegate"*, %"class.std::__1::basic_string"*)**, i1 (%"class.extensions::NetworkingPrivateDelegate"*, %"class.std::__1::basic_string"*)*** %43, align 8
  %45 = getelementptr inbounds i1 (%"class.extensions::NetworkingPrivateDelegate"*, %"class.std::__1::basic_string"*)*, i1 (%"class.extensions::NetworkingPrivateDelegate"*, %"class.std::__1::basic_string"*)** %44, i64 21
  %46 = load i1 (%"class.extensions::NetworkingPrivateDelegate"*, %"class.std::__1::basic_string"*)*, i1 (%"class.extensions::NetworkingPrivateDelegate"*, %"class.std::__1::basic_string"*)** %45, align 8
  %47 = call zeroext i1 %46(%"class.extensions::NetworkingPrivateDelegate"* %11, %"class.std::__1::basic_string"* nonnull dereferenceable(24) %2) #10
  %48 = getelementptr inbounds %"struct.std::__1::basic_string<char, std::__1::char_traits<char>, std::__1::allocator<char> >::__short", %"struct.std::__1::basic_string<char, std::__1::char_traits<char>, std::__1::allocator<char> >::__short"* %40, i64 0, i32 1, i32 0
  %49 = load i8, i8* %48, align 1
  %50 = icmp slt i8 %49, 0
  br i1 %50, label %51, label %54

51:                                               ; preds = %39
  %52 = getelementptr inbounds %"class.std::__1::basic_string", %"class.std::__1::basic_string"* %2, i64 0, i32 0, i32 0, i32 0, i32 0, i32 0, i32 0
  %53 = load i8*, i8** %52, align 8
  call void @_ZdlPv(i8* %53) #11
  br label %54

54:                                               ; preds = %39, %51
  call void @llvm.lifetime.end.p0i8(i64 24, i8* nonnull %12) #10
  br i1 %47, label %67, label %55

55:                                               ; preds = %54
  %56 = bitcast %"class.std::__1::basic_string"* %3 to %"struct.std::__1::basic_string<char, std::__1::char_traits<char>, std::__1::allocator<char> >::__short"*
  %57 = getelementptr inbounds %"struct.std::__1::basic_string<char, std::__1::char_traits<char>, std::__1::allocator<char> >::__short", %"struct.std::__1::basic_string<char, std::__1::char_traits<char>, std::__1::allocator<char> >::__short"* %56, i64 0, i32 1, i32 0
  store i8 18, i8* %57, align 1
  %58 = bitcast %"class.std::__1::basic_string"* %3 to i8*
  call void @llvm.memcpy.p0i8.p0i8.i64(i8* nonnull align 8 %58, i8* align 16 getelementptr inbounds ([19 x i8], [19 x i8]* @_ZN10extensions18networking_private18kErrorNotSupportedE, i64 0, i64 0), i64 18, i1 false) #10
  %59 = getelementptr inbounds i8, i8* %58, i64 18
  store i8 0, i8* %59, align 2
  %60 = call %"class.ExtensionFunction::ResponseValueObject"* @_ZN17ExtensionFunction5ErrorENSt3__112basic_stringIcNS0_11char_traitsIcEENS0_9allocatorIcEEEE(%class.ExtensionFunction* %4, %"class.std::__1::basic_string"* nonnull %3) #10
  %61 = call %"class.ExtensionFunction::ResponseActionObject"* @_ZN17ExtensionFunction10RespondNowENSt3__110unique_ptrINS_19ResponseValueObjectENS0_14default_deleteIS2_EEEE(%class.ExtensionFunction* %4, %"class.ExtensionFunction::ResponseValueObject"* %60) #10
  %62 = load i8, i8* %57, align 1
  %63 = icmp slt i8 %62, 0
  br i1 %63, label %64, label %76

64:                                               ; preds = %55
  %65 = getelementptr inbounds %"class.std::__1::basic_string", %"class.std::__1::basic_string"* %3, i64 0, i32 0, i32 0, i32 0, i32 0, i32 0, i32 0
  %66 = load i8*, i8** %65, align 8
  call void @_ZdlPv(i8* %66) #11
  br label %76

67:                                               ; preds = %54
  %68 = call %"class.ExtensionFunction::ResponseValueObject"* @_ZN17ExtensionFunction11NoArgumentsEv(%class.ExtensionFunction* %4) #10
  %69 = call %"class.ExtensionFunction::ResponseActionObject"* @_ZN17ExtensionFunction10RespondNowENSt3__110unique_ptrINS_19ResponseValueObjectENS0_14default_deleteIS2_EEEE(%class.ExtensionFunction* %4, %"class.ExtensionFunction::ResponseValueObject"* %68) #10
  br label %76

70:                                               ; preds = %1
  %71 = bitcast %"class.extensions::NetworkingPrivateEnableNetworkTypeFunction"* %0 to void (%class.ExtensionFunction*)***
  %72 = load void (%class.ExtensionFunction*)**, void (%class.ExtensionFunction*)*** %71, align 8
  %73 = getelementptr inbounds void (%class.ExtensionFunction*)*, void (%class.ExtensionFunction*)** %72, i64 6
  %74 = load void (%class.ExtensionFunction*)*, void (%class.ExtensionFunction*)** %73, align 8
  tail call void %74(%class.ExtensionFunction* %4) #10
  %75 = tail call %"class.ExtensionFunction::ResponseActionObject"* @_ZN17ExtensionFunction17ValidationFailureEPS_(%class.ExtensionFunction* %4) #10
  br label %79

76:                                               ; preds = %64, %55, %67
  %77 = phi %"class.ExtensionFunction::ResponseActionObject"* [ %61, %64 ], [ %61, %55 ], [ %69, %67 ]
  call void @_ZN10extensions3api18networking_private17EnableNetworkType6ParamsD1Ev(%"struct.extensions::api::networking_private::EnableNetworkType::Params"* nonnull %7) #10
  %78 = bitcast %"struct.extensions::api::networking_private::EnableNetworkType::Params"* %7 to i8*
  call void @_ZdlPv(i8* %78) #11
  br label %79

79:                                               ; preds = %70, %76
  %80 = phi %"class.ExtensionFunction::ResponseActionObject"* [ %75, %70 ], [ %77, %76 ]
  ret %"class.ExtensionFunction::ResponseActionObject"* %80
}

declare %"struct.extensions::api::networking_private::EnableNetworkType::Params"* @_ZN10extensions3api18networking_private17EnableNetworkType6Params6CreateERKN4base9ListValueE(%"class.base::ListValue"* dereferenceable(32)) local_unnamed_addr #4

; Function Attrs: nounwind ssp uwtable
define hidden void @_ZN10extensions43NetworkingPrivateDisableNetworkTypeFunctionD2Ev(%"class.extensions::NetworkingPrivateDisableNetworkTypeFunction"*) unnamed_addr #1 align 2 {
  %2 = bitcast %"class.extensions::NetworkingPrivateDisableNetworkTypeFunction"* %0 to %class.ExtensionFunction*
  tail call void @_ZN17ExtensionFunctionD2Ev(%class.ExtensionFunction* %2) #10
  ret void
}

; Function Attrs: nounwind ssp uwtable
define hidden void @_ZN10extensions43NetworkingPrivateDisableNetworkTypeFunctionD0Ev(%"class.extensions::NetworkingPrivateDisableNetworkTypeFunction"*) unnamed_addr #1 align 2 {
  %2 = bitcast %"class.extensions::NetworkingPrivateDisableNetworkTypeFunction"* %0 to %class.ExtensionFunction*
  tail call void @_ZN17ExtensionFunctionD2Ev(%class.ExtensionFunction* %2) #10
  %3 = bitcast %"class.extensions::NetworkingPrivateDisableNetworkTypeFunction"* %0 to i8*
  tail call void @_ZdlPv(i8* %3) #11
  ret void
}

; Function Attrs: nounwind ssp uwtable
define hidden %"class.ExtensionFunction::ResponseActionObject"* @_ZN10extensions43NetworkingPrivateDisableNetworkTypeFunction3RunEv(%"class.extensions::NetworkingPrivateDisableNetworkTypeFunction"*) unnamed_addr #1 align 2 {
  %2 = alloca %"class.std::__1::basic_string", align 8
  %3 = alloca %"class.std::__1::basic_string", align 8
  %4 = bitcast %"class.extensions::NetworkingPrivateDisableNetworkTypeFunction"* %0 to %class.ExtensionFunction*
  %5 = getelementptr inbounds %"class.extensions::NetworkingPrivateDisableNetworkTypeFunction", %"class.extensions::NetworkingPrivateDisableNetworkTypeFunction"* %0, i64 0, i32 0, i32 4, i32 0, i32 0, i32 0
  %6 = load %"class.base::ListValue"*, %"class.base::ListValue"** %5, align 8
  %7 = tail call %"struct.extensions::api::networking_private::DisableNetworkType::Params"* @_ZN10extensions3api18networking_private18DisableNetworkType6Params6CreateERKN4base9ListValueE(%"class.base::ListValue"* dereferenceable(32) %6) #10
  %8 = tail call %"class.content::BrowserContext"* @_ZNK17ExtensionFunction15browser_contextEv(%class.ExtensionFunction* %4) #10
  %9 = tail call %"class.extensions::NetworkingPrivateDelegate"* @_ZN10extensions32NetworkingPrivateDelegateFactory20GetForBrowserContextEPN7content14BrowserContextE(%"class.content::BrowserContext"* %8) #10
  %10 = bitcast %"class.std::__1::basic_string"* %2 to i8*
  call void @llvm.lifetime.start.p0i8(i64 24, i8* nonnull %10) #10
  %11 = getelementptr inbounds %"struct.extensions::api::networking_private::DisableNetworkType::Params", %"struct.extensions::api::networking_private::DisableNetworkType::Params"* %7, i64 0, i32 0
  %12 = load i32, i32* %11, align 4
  %13 = tail call i8* @_ZN10extensions3api18networking_private8ToStringENS1_11NetworkTypeE(i32 %12) #10
  %14 = tail call i64 @strlen(i8* %13) #10
  %15 = icmp ugt i64 %14, -17
  br i1 %15, label %16, label %18

16:                                               ; preds = %1
  %17 = bitcast %"class.std::__1::basic_string"* %2 to %"class.std::__1::__basic_string_common"*
  call void @_ZNKSt3__121__basic_string_commonILb1EE20__throw_length_errorEv(%"class.std::__1::__basic_string_common"* nonnull %17) #12
  unreachable

18:                                               ; preds = %1
  %19 = icmp ult i64 %14, 23
  br i1 %19, label %29, label %20

20:                                               ; preds = %18
  %21 = add nuw i64 %14, 16
  %22 = and i64 %21, -16
  %23 = tail call i8* @_Znwm(i64 %22) #11
  %24 = getelementptr inbounds %"class.std::__1::basic_string", %"class.std::__1::basic_string"* %2, i64 0, i32 0, i32 0, i32 0, i32 0, i32 0, i32 0
  store i8* %23, i8** %24, align 8
  %25 = or i64 %22, -9223372036854775808
  %26 = getelementptr inbounds %"class.std::__1::basic_string", %"class.std::__1::basic_string"* %2, i64 0, i32 0, i32 0, i32 0, i32 0, i32 0, i32 2
  store i64 %25, i64* %26, align 8
  %27 = getelementptr inbounds %"class.std::__1::basic_string", %"class.std::__1::basic_string"* %2, i64 0, i32 0, i32 0, i32 0, i32 0, i32 0, i32 1
  store i64 %14, i64* %27, align 8
  %28 = bitcast %"class.std::__1::basic_string"* %2 to %"struct.std::__1::basic_string<char, std::__1::char_traits<char>, std::__1::allocator<char> >::__short"*
  br label %34

29:                                               ; preds = %18
  %30 = trunc i64 %14 to i8
  %31 = bitcast %"class.std::__1::basic_string"* %2 to %"struct.std::__1::basic_string<char, std::__1::char_traits<char>, std::__1::allocator<char> >::__short"*
  %32 = getelementptr inbounds %"struct.std::__1::basic_string<char, std::__1::char_traits<char>, std::__1::allocator<char> >::__short", %"struct.std::__1::basic_string<char, std::__1::char_traits<char>, std::__1::allocator<char> >::__short"* %31, i64 0, i32 1, i32 0
  store i8 %30, i8* %32, align 1
  %33 = icmp eq i64 %14, 0
  br i1 %33, label %37, label %34

34:                                               ; preds = %29, %20
  %35 = phi %"struct.std::__1::basic_string<char, std::__1::char_traits<char>, std::__1::allocator<char> >::__short"* [ %31, %29 ], [ %28, %20 ]
  %36 = phi i8* [ %10, %29 ], [ %23, %20 ]
  call void @llvm.memcpy.p0i8.p0i8.i64(i8* nonnull align 1 %36, i8* align 1 %13, i64 %14, i1 false) #10
  br label %37

37:                                               ; preds = %29, %34
  %38 = phi %"struct.std::__1::basic_string<char, std::__1::char_traits<char>, std::__1::allocator<char> >::__short"* [ %31, %29 ], [ %35, %34 ]
  %39 = phi i8* [ %10, %29 ], [ %36, %34 ]
  %40 = getelementptr inbounds i8, i8* %39, i64 %14
  store i8 0, i8* %40, align 1
  %41 = bitcast %"class.extensions::NetworkingPrivateDelegate"* %9 to i1 (%"class.extensions::NetworkingPrivateDelegate"*, %"class.std::__1::basic_string"*)***
  %42 = load i1 (%"class.extensions::NetworkingPrivateDelegate"*, %"class.std::__1::basic_string"*)**, i1 (%"class.extensions::NetworkingPrivateDelegate"*, %"class.std::__1::basic_string"*)*** %41, align 8
  %43 = getelementptr inbounds i1 (%"class.extensions::NetworkingPrivateDelegate"*, %"class.std::__1::basic_string"*)*, i1 (%"class.extensions::NetworkingPrivateDelegate"*, %"class.std::__1::basic_string"*)** %42, i64 22
  %44 = load i1 (%"class.extensions::NetworkingPrivateDelegate"*, %"class.std::__1::basic_string"*)*, i1 (%"class.extensions::NetworkingPrivateDelegate"*, %"class.std::__1::basic_string"*)** %43, align 8
  %45 = call zeroext i1 %44(%"class.extensions::NetworkingPrivateDelegate"* %9, %"class.std::__1::basic_string"* nonnull dereferenceable(24) %2) #10
  %46 = getelementptr inbounds %"struct.std::__1::basic_string<char, std::__1::char_traits<char>, std::__1::allocator<char> >::__short", %"struct.std::__1::basic_string<char, std::__1::char_traits<char>, std::__1::allocator<char> >::__short"* %38, i64 0, i32 1, i32 0
  %47 = load i8, i8* %46, align 1
  %48 = icmp slt i8 %47, 0
  br i1 %48, label %49, label %52

49:                                               ; preds = %37
  %50 = getelementptr inbounds %"class.std::__1::basic_string", %"class.std::__1::basic_string"* %2, i64 0, i32 0, i32 0, i32 0, i32 0, i32 0, i32 0
  %51 = load i8*, i8** %50, align 8
  call void @_ZdlPv(i8* %51) #11
  br label %52

52:                                               ; preds = %37, %49
  call void @llvm.lifetime.end.p0i8(i64 24, i8* nonnull %10) #10
  br i1 %45, label %65, label %53

53:                                               ; preds = %52
  %54 = bitcast %"class.std::__1::basic_string"* %3 to %"struct.std::__1::basic_string<char, std::__1::char_traits<char>, std::__1::allocator<char> >::__short"*
  %55 = getelementptr inbounds %"struct.std::__1::basic_string<char, std::__1::char_traits<char>, std::__1::allocator<char> >::__short", %"struct.std::__1::basic_string<char, std::__1::char_traits<char>, std::__1::allocator<char> >::__short"* %54, i64 0, i32 1, i32 0
  store i8 18, i8* %55, align 1
  %56 = bitcast %"class.std::__1::basic_string"* %3 to i8*
  call void @llvm.memcpy.p0i8.p0i8.i64(i8* nonnull align 8 %56, i8* align 16 getelementptr inbounds ([19 x i8], [19 x i8]* @_ZN10extensions18networking_private18kErrorNotSupportedE, i64 0, i64 0), i64 18, i1 false) #10
  %57 = getelementptr inbounds i8, i8* %56, i64 18
  store i8 0, i8* %57, align 2
  %58 = call %"class.ExtensionFunction::ResponseValueObject"* @_ZN17ExtensionFunction5ErrorENSt3__112basic_stringIcNS0_11char_traitsIcEENS0_9allocatorIcEEEE(%class.ExtensionFunction* %4, %"class.std::__1::basic_string"* nonnull %3) #10
  %59 = call %"class.ExtensionFunction::ResponseActionObject"* @_ZN17ExtensionFunction10RespondNowENSt3__110unique_ptrINS_19ResponseValueObjectENS0_14default_deleteIS2_EEEE(%class.ExtensionFunction* %4, %"class.ExtensionFunction::ResponseValueObject"* %58) #10
  %60 = load i8, i8* %55, align 1
  %61 = icmp slt i8 %60, 0
  br i1 %61, label %62, label %68

62:                                               ; preds = %53
  %63 = getelementptr inbounds %"class.std::__1::basic_string", %"class.std::__1::basic_string"* %3, i64 0, i32 0, i32 0, i32 0, i32 0, i32 0, i32 0
  %64 = load i8*, i8** %63, align 8
  call void @_ZdlPv(i8* %64) #11
  br label %68

65:                                               ; preds = %52
  %66 = call %"class.ExtensionFunction::ResponseValueObject"* @_ZN17ExtensionFunction11NoArgumentsEv(%class.ExtensionFunction* %4) #10
  %67 = call %"class.ExtensionFunction::ResponseActionObject"* @_ZN17ExtensionFunction10RespondNowENSt3__110unique_ptrINS_19ResponseValueObjectENS0_14default_deleteIS2_EEEE(%class.ExtensionFunction* %4, %"class.ExtensionFunction::ResponseValueObject"* %66) #10
  br label %68

68:                                               ; preds = %62, %53, %65
  %69 = phi %"class.ExtensionFunction::ResponseActionObject"* [ %67, %65 ], [ %59, %53 ], [ %59, %62 ]
  %70 = icmp eq %"struct.extensions::api::networking_private::DisableNetworkType::Params"* %7, null
  br i1 %70, label %73, label %71

71:                                               ; preds = %68
  call void @_ZN10extensions3api18networking_private18DisableNetworkType6ParamsD1Ev(%"struct.extensions::api::networking_private::DisableNetworkType::Params"* nonnull %7) #10
  %72 = bitcast %"struct.extensions::api::networking_private::DisableNetworkType::Params"* %7 to i8*
  call void @_ZdlPv(i8* %72) #11
  br label %73

73:                                               ; preds = %68, %71
  ret %"class.ExtensionFunction::ResponseActionObject"* %69
}

declare %"struct.extensions::api::networking_private::DisableNetworkType::Params"* @_ZN10extensions3api18networking_private18DisableNetworkType6Params6CreateERKN4base9ListValueE(%"class.base::ListValue"* dereferenceable(32)) local_unnamed_addr #4

; Function Attrs: nounwind ssp uwtable
define hidden void @_ZN10extensions43NetworkingPrivateRequestNetworkScanFunctionD2Ev(%"class.extensions::NetworkingPrivateRequestNetworkScanFunction"*) unnamed_addr #1 align 2 {
  %2 = bitcast %"class.extensions::NetworkingPrivateRequestNetworkScanFunction"* %0 to %class.ExtensionFunction*
  tail call void @_ZN17ExtensionFunctionD2Ev(%class.ExtensionFunction* %2) #10
  ret void
}

; Function Attrs: nounwind ssp uwtable
define hidden void @_ZN10extensions43NetworkingPrivateRequestNetworkScanFunctionD0Ev(%"class.extensions::NetworkingPrivateRequestNetworkScanFunction"*) unnamed_addr #1 align 2 {
  %2 = bitcast %"class.extensions::NetworkingPrivateRequestNetworkScanFunction"* %0 to %class.ExtensionFunction*
  tail call void @_ZN17ExtensionFunctionD2Ev(%class.ExtensionFunction* %2) #10
  %3 = bitcast %"class.extensions::NetworkingPrivateRequestNetworkScanFunction"* %0 to i8*
  tail call void @_ZdlPv(i8* %3) #11
  ret void
}

; Function Attrs: nounwind ssp uwtable
define hidden %"class.ExtensionFunction::ResponseActionObject"* @_ZN10extensions43NetworkingPrivateRequestNetworkScanFunction3RunEv(%"class.extensions::NetworkingPrivateRequestNetworkScanFunction"*) unnamed_addr #1 align 2 {
  %2 = alloca %"class.std::__1::basic_string", align 8
  %3 = alloca %"class.std::__1::basic_string", align 8
  %4 = bitcast %"class.extensions::NetworkingPrivateRequestNetworkScanFunction"* %0 to %class.ExtensionFunction*
  %5 = getelementptr inbounds %"class.extensions::NetworkingPrivateRequestNetworkScanFunction", %"class.extensions::NetworkingPrivateRequestNetworkScanFunction"* %0, i64 0, i32 0, i32 4, i32 0, i32 0, i32 0
  %6 = load %"class.base::ListValue"*, %"class.base::ListValue"** %5, align 8
  %7 = tail call %"struct.extensions::api::networking_private::RequestNetworkScan::Params"* @_ZN10extensions3api18networking_private18RequestNetworkScan6Params6CreateERKN4base9ListValueE(%"class.base::ListValue"* dereferenceable(32) %6) #10
  %8 = icmp eq %"struct.extensions::api::networking_private::RequestNetworkScan::Params"* %7, null
  br i1 %8, label %9, label %15

9:                                                ; preds = %1
  %10 = bitcast %"class.extensions::NetworkingPrivateRequestNetworkScanFunction"* %0 to void (%class.ExtensionFunction*)***
  %11 = load void (%class.ExtensionFunction*)**, void (%class.ExtensionFunction*)*** %10, align 8
  %12 = getelementptr inbounds void (%class.ExtensionFunction*)*, void (%class.ExtensionFunction*)** %11, i64 6
  %13 = load void (%class.ExtensionFunction*)*, void (%class.ExtensionFunction*)** %12, align 8
  tail call void %13(%class.ExtensionFunction* %4) #10
  %14 = tail call %"class.ExtensionFunction::ResponseActionObject"* @_ZN17ExtensionFunction17ValidationFailureEPS_(%class.ExtensionFunction* %4) #10
  br label %77

15:                                               ; preds = %1
  %16 = bitcast %"class.std::__1::basic_string"* %2 to i8*
  call void @llvm.lifetime.start.p0i8(i64 24, i8* nonnull %16) #10
  %17 = getelementptr inbounds %"class.std::__1::basic_string", %"class.std::__1::basic_string"* %2, i64 0, i32 0, i32 0, i32 0, i32 0, i32 0, i32 0
  %18 = getelementptr inbounds %"class.std::__1::basic_string", %"class.std::__1::basic_string"* %2, i64 0, i32 0, i32 0, i32 0, i32 0, i32 0, i32 1
  %19 = getelementptr inbounds %"class.std::__1::basic_string", %"class.std::__1::basic_string"* %2, i64 0, i32 0, i32 0, i32 0, i32 0, i32 0, i32 2
  %20 = getelementptr inbounds %"struct.extensions::api::networking_private::RequestNetworkScan::Params", %"struct.extensions::api::networking_private::RequestNetworkScan::Params"* %7, i64 0, i32 0
  %21 = bitcast %"class.std::__1::basic_string"* %2 to i8*
  call void @llvm.memset.p0i8.i64(i8* nonnull align 8 %21, i8 -86, i64 24, i1 false)
  %22 = load i32, i32* %20, align 4
  %23 = tail call i8* @_ZN10extensions3api18networking_private8ToStringENS1_11NetworkTypeE(i32 %22) #10
  %24 = tail call i64 @strlen(i8* %23) #10
  %25 = icmp ugt i64 %24, -17
  br i1 %25, label %26, label %28

26:                                               ; preds = %15
  %27 = bitcast %"class.std::__1::basic_string"* %2 to %"class.std::__1::__basic_string_common"*
  call void @_ZNKSt3__121__basic_string_commonILb1EE20__throw_length_errorEv(%"class.std::__1::__basic_string_common"* nonnull %27) #12
  unreachable

28:                                               ; preds = %15
  %29 = icmp ult i64 %24, 23
  br i1 %29, label %35, label %30

30:                                               ; preds = %28
  %31 = add nuw i64 %24, 16
  %32 = and i64 %31, -16
  %33 = tail call i8* @_Znwm(i64 %32) #11
  store i8* %33, i8** %17, align 8
  %34 = or i64 %32, -9223372036854775808
  store i64 %34, i64* %19, align 8
  store i64 %24, i64* %18, align 8
  br label %40

35:                                               ; preds = %28
  %36 = trunc i64 %24 to i8
  %37 = bitcast %"class.std::__1::basic_string"* %2 to %"struct.std::__1::basic_string<char, std::__1::char_traits<char>, std::__1::allocator<char> >::__short"*
  %38 = getelementptr inbounds %"struct.std::__1::basic_string<char, std::__1::char_traits<char>, std::__1::allocator<char> >::__short", %"struct.std::__1::basic_string<char, std::__1::char_traits<char>, std::__1::allocator<char> >::__short"* %37, i64 0, i32 1, i32 0
  store i8 %36, i8* %38, align 1
  %39 = icmp eq i64 %24, 0
  br i1 %39, label %42, label %40

40:                                               ; preds = %35, %30
  %41 = phi i8* [ %33, %30 ], [ %16, %35 ]
  call void @llvm.memcpy.p0i8.p0i8.i64(i8* nonnull align 1 %41, i8* align 1 %23, i64 %24, i1 false) #10
  br label %42

42:                                               ; preds = %35, %40
  %43 = phi i8* [ %16, %35 ], [ %41, %40 ]
  %44 = getelementptr inbounds i8, i8* %43, i64 %24
  store i8 0, i8* %44, align 1
  %45 = tail call %"class.content::BrowserContext"* @_ZNK17ExtensionFunction15browser_contextEv(%class.ExtensionFunction* %4) #10
  %46 = tail call %"class.extensions::NetworkingPrivateDelegate"* @_ZN10extensions32NetworkingPrivateDelegateFactory20GetForBrowserContextEPN7content14BrowserContextE(%"class.content::BrowserContext"* %45) #10
  %47 = bitcast %"class.extensions::NetworkingPrivateDelegate"* %46 to i1 (%"class.extensions::NetworkingPrivateDelegate"*, %"class.std::__1::basic_string"*)***
  %48 = load i1 (%"class.extensions::NetworkingPrivateDelegate"*, %"class.std::__1::basic_string"*)**, i1 (%"class.extensions::NetworkingPrivateDelegate"*, %"class.std::__1::basic_string"*)*** %47, align 8
  %49 = getelementptr inbounds i1 (%"class.extensions::NetworkingPrivateDelegate"*, %"class.std::__1::basic_string"*)*, i1 (%"class.extensions::NetworkingPrivateDelegate"*, %"class.std::__1::basic_string"*)** %48, i64 23
  %50 = load i1 (%"class.extensions::NetworkingPrivateDelegate"*, %"class.std::__1::basic_string"*)*, i1 (%"class.extensions::NetworkingPrivateDelegate"*, %"class.std::__1::basic_string"*)** %49, align 8
  %51 = call zeroext i1 %50(%"class.extensions::NetworkingPrivateDelegate"* %46, %"class.std::__1::basic_string"* nonnull dereferenceable(24) %2) #10
  br i1 %51, label %64, label %52

52:                                               ; preds = %42
  %53 = bitcast %"class.std::__1::basic_string"* %3 to %"struct.std::__1::basic_string<char, std::__1::char_traits<char>, std::__1::allocator<char> >::__short"*
  %54 = getelementptr inbounds %"struct.std::__1::basic_string<char, std::__1::char_traits<char>, std::__1::allocator<char> >::__short", %"struct.std::__1::basic_string<char, std::__1::char_traits<char>, std::__1::allocator<char> >::__short"* %53, i64 0, i32 1, i32 0
  store i8 18, i8* %54, align 1
  %55 = bitcast %"class.std::__1::basic_string"* %3 to i8*
  call void @llvm.memcpy.p0i8.p0i8.i64(i8* nonnull align 8 %55, i8* align 16 getelementptr inbounds ([19 x i8], [19 x i8]* @_ZN10extensions18networking_private18kErrorNotSupportedE, i64 0, i64 0), i64 18, i1 false) #10
  %56 = getelementptr inbounds i8, i8* %55, i64 18
  store i8 0, i8* %56, align 2
  %57 = call %"class.ExtensionFunction::ResponseValueObject"* @_ZN17ExtensionFunction5ErrorENSt3__112basic_stringIcNS0_11char_traitsIcEENS0_9allocatorIcEEEE(%class.ExtensionFunction* %4, %"class.std::__1::basic_string"* nonnull %3) #10
  %58 = call %"class.ExtensionFunction::ResponseActionObject"* @_ZN17ExtensionFunction10RespondNowENSt3__110unique_ptrINS_19ResponseValueObjectENS0_14default_deleteIS2_EEEE(%class.ExtensionFunction* %4, %"class.ExtensionFunction::ResponseValueObject"* %57) #10
  %59 = load i8, i8* %54, align 1
  %60 = icmp slt i8 %59, 0
  br i1 %60, label %61, label %67

61:                                               ; preds = %52
  %62 = getelementptr inbounds %"class.std::__1::basic_string", %"class.std::__1::basic_string"* %3, i64 0, i32 0, i32 0, i32 0, i32 0, i32 0, i32 0
  %63 = load i8*, i8** %62, align 8
  call void @_ZdlPv(i8* %63) #11
  br label %67

64:                                               ; preds = %42
  %65 = call %"class.ExtensionFunction::ResponseValueObject"* @_ZN17ExtensionFunction11NoArgumentsEv(%class.ExtensionFunction* %4) #10
  %66 = call %"class.ExtensionFunction::ResponseActionObject"* @_ZN17ExtensionFunction10RespondNowENSt3__110unique_ptrINS_19ResponseValueObjectENS0_14default_deleteIS2_EEEE(%class.ExtensionFunction* %4, %"class.ExtensionFunction::ResponseValueObject"* %65) #10
  br label %67

67:                                               ; preds = %61, %52, %64
  %68 = phi %"class.ExtensionFunction::ResponseActionObject"* [ %66, %64 ], [ %58, %52 ], [ %58, %61 ]
  %69 = bitcast %"class.std::__1::basic_string"* %2 to %"struct.std::__1::basic_string<char, std::__1::char_traits<char>, std::__1::allocator<char> >::__short"*
  %70 = getelementptr inbounds %"struct.std::__1::basic_string<char, std::__1::char_traits<char>, std::__1::allocator<char> >::__short", %"struct.std::__1::basic_string<char, std::__1::char_traits<char>, std::__1::allocator<char> >::__short"* %69, i64 0, i32 1, i32 0
  %71 = load i8, i8* %70, align 1
  %72 = icmp slt i8 %71, 0
  br i1 %72, label %73, label %75

73:                                               ; preds = %67
  %74 = load i8*, i8** %17, align 8
  call void @_ZdlPv(i8* %74) #11
  br label %75

75:                                               ; preds = %67, %73
  call void @llvm.lifetime.end.p0i8(i64 24, i8* nonnull %16) #10
  call void @_ZN10extensions3api18networking_private18RequestNetworkScan6ParamsD1Ev(%"struct.extensions::api::networking_private::RequestNetworkScan::Params"* nonnull %7) #10
  %76 = bitcast %"struct.extensions::api::networking_private::RequestNetworkScan::Params"* %7 to i8*
  call void @_ZdlPv(i8* %76) #11
  br label %77

77:                                               ; preds = %9, %75
  %78 = phi %"class.ExtensionFunction::ResponseActionObject"* [ %14, %9 ], [ %68, %75 ]
  ret %"class.ExtensionFunction::ResponseActionObject"* %78
}

declare %"struct.extensions::api::networking_private::RequestNetworkScan::Params"* @_ZN10extensions3api18networking_private18RequestNetworkScan6Params6CreateERKN4base9ListValueE(%"class.base::ListValue"* dereferenceable(32)) local_unnamed_addr #4

; Function Attrs: nounwind ssp uwtable
define hidden void @_ZN10extensions37NetworkingPrivateStartConnectFunctionD2Ev(%"class.extensions::NetworkingPrivateStartConnectFunction"*) unnamed_addr #1 align 2 {
  %2 = bitcast %"class.extensions::NetworkingPrivateStartConnectFunction"* %0 to %class.ExtensionFunction*
  tail call void @_ZN17ExtensionFunctionD2Ev(%class.ExtensionFunction* %2) #10
  ret void
}

; Function Attrs: nounwind ssp uwtable
define hidden void @_ZN10extensions37NetworkingPrivateStartConnectFunctionD0Ev(%"class.extensions::NetworkingPrivateStartConnectFunction"*) unnamed_addr #1 align 2 {
  %2 = bitcast %"class.extensions::NetworkingPrivateStartConnectFunction"* %0 to %class.ExtensionFunction*
  tail call void @_ZN17ExtensionFunctionD2Ev(%class.ExtensionFunction* %2) #10
  %3 = bitcast %"class.extensions::NetworkingPrivateStartConnectFunction"* %0 to i8*
  tail call void @_ZdlPv(i8* %3) #11
  ret void
}

; Function Attrs: nounwind ssp uwtable
define hidden %"class.ExtensionFunction::ResponseActionObject"* @_ZN10extensions37NetworkingPrivateStartConnectFunction3RunEv(%"class.extensions::NetworkingPrivateStartConnectFunction"*) unnamed_addr #1 align 2 {
  %2 = alloca %"class.base::OnceCallback.109", align 8
  %3 = alloca %"class.base::OnceCallback.171", align 8
  %4 = bitcast %"class.extensions::NetworkingPrivateStartConnectFunction"* %0 to %class.ExtensionFunction*
  %5 = getelementptr inbounds %"class.extensions::NetworkingPrivateStartConnectFunction", %"class.extensions::NetworkingPrivateStartConnectFunction"* %0, i64 0, i32 0, i32 4, i32 0, i32 0, i32 0
  %6 = load %"class.base::ListValue"*, %"class.base::ListValue"** %5, align 8
  %7 = tail call %"struct.extensions::api::networking_private::StartConnect::Params"* @_ZN10extensions3api18networking_private12StartConnect6Params6CreateERKN4base9ListValueE(%"class.base::ListValue"* dereferenceable(32) %6) #10
  %8 = icmp eq %"struct.extensions::api::networking_private::StartConnect::Params"* %7, null
  br i1 %8, label %63, label %9

9:                                                ; preds = %1
  %10 = tail call %"class.content::BrowserContext"* @_ZNK17ExtensionFunction15browser_contextEv(%class.ExtensionFunction* %4) #10
  %11 = tail call %"class.extensions::NetworkingPrivateDelegate"* @_ZN10extensions32NetworkingPrivateDelegateFactory20GetForBrowserContextEPN7content14BrowserContextE(%"class.content::BrowserContext"* %10) #10
  %12 = getelementptr inbounds %"struct.extensions::api::networking_private::StartConnect::Params", %"struct.extensions::api::networking_private::StartConnect::Params"* %7, i64 0, i32 0
  %13 = tail call i8* @_Znwm(i64 56) #11, !noalias !80
  %14 = bitcast i8* %13 to %"class.base::internal::BindStateBase"*
  tail call void @_ZN4base8internal13BindStateBaseC2EPFvvEPFvPKS1_E(%"class.base::internal::BindStateBase"* nonnull %14, void ()* bitcast (void (%"class.base::internal::BindStateBase"*)* @_ZN4base8internal7InvokerINS0_9BindStateIMN10extensions37NetworkingPrivateStartConnectFunctionEFvvEJ13scoped_refptrIS4_EEEEFvvEE7RunOnceEPNS0_13BindStateBaseE to void ()*), void (%"class.base::internal::BindStateBase"*)* nonnull @_ZN4base8internal9BindStateIMN10extensions37NetworkingPrivateStartConnectFunctionEFvvEJ13scoped_refptrIS3_EEE7DestroyEPKNS0_13BindStateBaseE) #10, !noalias !80
  %15 = getelementptr inbounds i8, i8* %13, i64 32
  %16 = bitcast i8* %15 to <2 x i64>*
  store <2 x i64> <i64 ptrtoint (void (%"class.extensions::NetworkingPrivateStartConnectFunction"*)* @_ZN10extensions37NetworkingPrivateStartConnectFunction7SuccessEv to i64), i64 0>, <2 x i64>* %16, align 8, !noalias !80
  %17 = getelementptr inbounds i8, i8* %13, i64 48
  %18 = bitcast i8* %17 to %"class.extensions::NetworkingPrivateStartConnectFunction"**
  store %"class.extensions::NetworkingPrivateStartConnectFunction"* %0, %"class.extensions::NetworkingPrivateStartConnectFunction"** %18, align 8, !noalias !80
  %19 = icmp eq %"class.extensions::NetworkingPrivateStartConnectFunction"* %0, null
  br i1 %19, label %23, label %20

20:                                               ; preds = %9
  %21 = getelementptr inbounds %"class.extensions::NetworkingPrivateStartConnectFunction", %"class.extensions::NetworkingPrivateStartConnectFunction"* %0, i64 0, i32 0, i32 1, i32 0, i32 0, i32 0, i32 0, i32 0, i32 0, i32 0, i32 0
  %22 = atomicrmw add i32* %21, i32 1 monotonic, !noalias !80
  br label %23

23:                                               ; preds = %9, %20
  %24 = bitcast %"class.base::OnceCallback.109"* %2 to i8**
  store i8* %13, i8** %24, align 8, !alias.scope !80
  %25 = tail call i8* @_Znwm(i64 80) #11, !noalias !85
  %26 = bitcast i8* %25 to %"class.base::internal::BindStateBase"*
  tail call void @_ZN4base8internal13BindStateBaseC2EPFvvEPFvPKS1_E(%"class.base::internal::BindStateBase"* nonnull %26, void ()* bitcast (void (%"class.base::internal::BindStateBase"*, %"class.std::__1::basic_string"*)* @_ZN4base8internal7InvokerINS0_9BindStateIMN10extensions37NetworkingPrivateStartConnectFunctionEFvRKNSt3__112basic_stringIcNS5_11char_traitsIcEENS5_9allocatorIcEEEESD_EJ13scoped_refptrIS4_ESB_EEEFvSD_EE7RunOnceEPNS0_13BindStateBaseESD_ to void ()*), void (%"class.base::internal::BindStateBase"*)* nonnull @_ZN4base8internal9BindStateIMN10extensions37NetworkingPrivateStartConnectFunctionEFvRKNSt3__112basic_stringIcNS4_11char_traitsIcEENS4_9allocatorIcEEEESC_EJ13scoped_refptrIS3_ESA_EE7DestroyEPKNS0_13BindStateBaseE) #10, !noalias !85
  %27 = getelementptr inbounds i8, i8* %25, i64 32
  %28 = bitcast i8* %27 to <2 x i64>*
  store <2 x i64> <i64 ptrtoint (void (%"class.extensions::NetworkingPrivateStartConnectFunction"*, %"class.std::__1::basic_string"*, %"class.std::__1::basic_string"*)* @_ZN10extensions37NetworkingPrivateStartConnectFunction7FailureERKNSt3__112basic_stringIcNS1_11char_traitsIcEENS1_9allocatorIcEEEES9_ to i64), i64 0>, <2 x i64>* %28, align 8, !noalias !85
  %29 = getelementptr inbounds i8, i8* %25, i64 48
  %30 = bitcast i8* %29 to %"class.extensions::NetworkingPrivateStartConnectFunction"**
  store %"class.extensions::NetworkingPrivateStartConnectFunction"* %0, %"class.extensions::NetworkingPrivateStartConnectFunction"** %30, align 8, !noalias !85
  br i1 %19, label %34, label %31

31:                                               ; preds = %23
  %32 = getelementptr inbounds %"class.extensions::NetworkingPrivateStartConnectFunction", %"class.extensions::NetworkingPrivateStartConnectFunction"* %0, i64 0, i32 0, i32 1, i32 0, i32 0, i32 0, i32 0, i32 0, i32 0, i32 0, i32 0
  %33 = atomicrmw add i32* %32, i32 1 monotonic, !noalias !85
  br label %34

34:                                               ; preds = %31, %23
  %35 = getelementptr inbounds i8, i8* %25, i64 56
  %36 = bitcast %"struct.extensions::api::networking_private::StartConnect::Params"* %7 to %"struct.std::__1::basic_string<char, std::__1::char_traits<char>, std::__1::allocator<char> >::__short"*
  %37 = getelementptr inbounds %"struct.std::__1::basic_string<char, std::__1::char_traits<char>, std::__1::allocator<char> >::__short", %"struct.std::__1::basic_string<char, std::__1::char_traits<char>, std::__1::allocator<char> >::__short"* %36, i64 0, i32 1, i32 0
  %38 = load i8, i8* %37, align 1, !noalias !85
  %39 = icmp slt i8 %38, 0
  br i1 %39, label %42, label %40

40:                                               ; preds = %34
  %41 = bitcast %"struct.extensions::api::networking_private::StartConnect::Params"* %7 to i8*
  tail call void @llvm.memcpy.p0i8.p0i8.i64(i8* align 8 %35, i8* nonnull align 8 %41, i64 24, i1 false) #10, !noalias !85
  br label %48

42:                                               ; preds = %34
  %43 = bitcast i8* %35 to %"class.std::__1::basic_string"*
  %44 = getelementptr inbounds %"struct.extensions::api::networking_private::StartConnect::Params", %"struct.extensions::api::networking_private::StartConnect::Params"* %7, i64 0, i32 0, i32 0, i32 0, i32 0, i32 0, i32 0, i32 0
  %45 = load i8*, i8** %44, align 8, !noalias !85
  %46 = getelementptr inbounds %"struct.extensions::api::networking_private::StartConnect::Params", %"struct.extensions::api::networking_private::StartConnect::Params"* %7, i64 0, i32 0, i32 0, i32 0, i32 0, i32 0, i32 0, i32 1
  %47 = load i64, i64* %46, align 8, !noalias !85
  tail call void @_ZNSt3__112basic_stringIcNS_11char_traitsIcEENS_9allocatorIcEEE25__init_copy_ctor_externalEPKcm(%"class.std::__1::basic_string"* %43, i8* %45, i64 %47) #10, !noalias !85
  br label %48

48:                                               ; preds = %40, %42
  %49 = bitcast %"class.base::OnceCallback.171"* %3 to i8**
  store i8* %25, i8** %49, align 8, !alias.scope !85
  %50 = bitcast %"class.extensions::NetworkingPrivateDelegate"* %11 to void (%"class.extensions::NetworkingPrivateDelegate"*, %"class.std::__1::basic_string"*, %"class.base::OnceCallback.109"*, %"class.base::OnceCallback.171"*)***
  %51 = load void (%"class.extensions::NetworkingPrivateDelegate"*, %"class.std::__1::basic_string"*, %"class.base::OnceCallback.109"*, %"class.base::OnceCallback.171"*)**, void (%"class.extensions::NetworkingPrivateDelegate"*, %"class.std::__1::basic_string"*, %"class.base::OnceCallback.109"*, %"class.base::OnceCallback.171"*)*** %50, align 8
  %52 = getelementptr inbounds void (%"class.extensions::NetworkingPrivateDelegate"*, %"class.std::__1::basic_string"*, %"class.base::OnceCallback.109"*, %"class.base::OnceCallback.171"*)*, void (%"class.extensions::NetworkingPrivateDelegate"*, %"class.std::__1::basic_string"*, %"class.base::OnceCallback.109"*, %"class.base::OnceCallback.171"*)** %51, i64 10
  %53 = load void (%"class.extensions::NetworkingPrivateDelegate"*, %"class.std::__1::basic_string"*, %"class.base::OnceCallback.109"*, %"class.base::OnceCallback.171"*)*, void (%"class.extensions::NetworkingPrivateDelegate"*, %"class.std::__1::basic_string"*, %"class.base::OnceCallback.109"*, %"class.base::OnceCallback.171"*)** %52, align 8
  call void %53(%"class.extensions::NetworkingPrivateDelegate"* %11, %"class.std::__1::basic_string"* dereferenceable(24) %12, %"class.base::OnceCallback.109"* nonnull %2, %"class.base::OnceCallback.171"* nonnull %3) #10
  %54 = getelementptr inbounds %"class.base::OnceCallback.171", %"class.base::OnceCallback.171"* %3, i64 0, i32 0
  call void @_ZN4base8internal12CallbackBaseD2Ev(%"class.base::internal::CallbackBase"* nonnull %54) #10
  %55 = getelementptr inbounds %"class.base::OnceCallback.109", %"class.base::OnceCallback.109"* %2, i64 0, i32 0
  call void @_ZN4base8internal12CallbackBaseD2Ev(%"class.base::internal::CallbackBase"* nonnull %55) #10
  %56 = getelementptr inbounds %"class.extensions::NetworkingPrivateStartConnectFunction", %"class.extensions::NetworkingPrivateStartConnectFunction"* %0, i64 0, i32 0, i32 23
  %57 = load i8, i8* %56, align 8, !range !7
  %58 = icmp eq i8 %57, 0
  br i1 %58, label %61, label %59

59:                                               ; preds = %48
  %60 = call %"class.ExtensionFunction::ResponseActionObject"* @_ZN17ExtensionFunction16AlreadyRespondedEv(%class.ExtensionFunction* %4) #10
  br label %69

61:                                               ; preds = %48
  %62 = call %"class.ExtensionFunction::ResponseActionObject"* @_ZN17ExtensionFunction12RespondLaterEv(%class.ExtensionFunction* %4) #10
  br label %69

63:                                               ; preds = %1
  %64 = bitcast %"class.extensions::NetworkingPrivateStartConnectFunction"* %0 to void (%class.ExtensionFunction*)***
  %65 = load void (%class.ExtensionFunction*)**, void (%class.ExtensionFunction*)*** %64, align 8
  %66 = getelementptr inbounds void (%class.ExtensionFunction*)*, void (%class.ExtensionFunction*)** %65, i64 6
  %67 = load void (%class.ExtensionFunction*)*, void (%class.ExtensionFunction*)** %66, align 8
  tail call void %67(%class.ExtensionFunction* %4) #10
  %68 = tail call %"class.ExtensionFunction::ResponseActionObject"* @_ZN17ExtensionFunction17ValidationFailureEPS_(%class.ExtensionFunction* %4) #10
  br label %72

69:                                               ; preds = %59, %61
  %70 = phi %"class.ExtensionFunction::ResponseActionObject"* [ %62, %61 ], [ %60, %59 ]
  call void @_ZN10extensions3api18networking_private12StartConnect6ParamsD1Ev(%"struct.extensions::api::networking_private::StartConnect::Params"* nonnull %7) #10
  %71 = bitcast %"struct.extensions::api::networking_private::StartConnect::Params"* %7 to i8*
  call void @_ZdlPv(i8* %71) #11
  br label %72

72:                                               ; preds = %63, %69
  %73 = phi %"class.ExtensionFunction::ResponseActionObject"* [ %68, %63 ], [ %70, %69 ]
  ret %"class.ExtensionFunction::ResponseActionObject"* %73
}

declare %"struct.extensions::api::networking_private::StartConnect::Params"* @_ZN10extensions3api18networking_private12StartConnect6Params6CreateERKN4base9ListValueE(%"class.base::ListValue"* dereferenceable(32)) local_unnamed_addr #4

; Function Attrs: nounwind ssp uwtable
define hidden void @_ZN10extensions37NetworkingPrivateStartConnectFunction7SuccessEv(%"class.extensions::NetworkingPrivateStartConnectFunction"*) #1 align 2 {
  %2 = bitcast %"class.extensions::NetworkingPrivateStartConnectFunction"* %0 to %class.ExtensionFunction*
  %3 = tail call %"class.ExtensionFunction::ResponseValueObject"* @_ZN17ExtensionFunction11NoArgumentsEv(%class.ExtensionFunction* %2) #10
  tail call void @_ZN17ExtensionFunction7RespondENSt3__110unique_ptrINS_19ResponseValueObjectENS0_14default_deleteIS2_EEEE(%class.ExtensionFunction* %2, %"class.ExtensionFunction::ResponseValueObject"* %3) #10
  ret void
}

; Function Attrs: nounwind ssp uwtable
define hidden void @_ZN10extensions37NetworkingPrivateStartConnectFunction7FailureERKNSt3__112basic_stringIcNS1_11char_traitsIcEENS1_9allocatorIcEEEES9_(%"class.extensions::NetworkingPrivateStartConnectFunction"*, %"class.std::__1::basic_string"* nocapture readnone dereferenceable(24), %"class.std::__1::basic_string"* nocapture readonly dereferenceable(24)) #1 align 2 {
  %4 = alloca %"class.std::__1::basic_string", align 8
  %5 = bitcast %"class.extensions::NetworkingPrivateStartConnectFunction"* %0 to %class.ExtensionFunction*
  %6 = bitcast %"class.std::__1::basic_string"* %2 to %"struct.std::__1::basic_string<char, std::__1::char_traits<char>, std::__1::allocator<char> >::__short"*
  %7 = getelementptr inbounds %"struct.std::__1::basic_string<char, std::__1::char_traits<char>, std::__1::allocator<char> >::__short", %"struct.std::__1::basic_string<char, std::__1::char_traits<char>, std::__1::allocator<char> >::__short"* %6, i64 0, i32 1, i32 0
  %8 = load i8, i8* %7, align 1
  %9 = icmp slt i8 %8, 0
  br i1 %9, label %13, label %10

10:                                               ; preds = %3
  %11 = bitcast %"class.std::__1::basic_string"* %4 to i8*
  %12 = bitcast %"class.std::__1::basic_string"* %2 to i8*
  call void @llvm.memcpy.p0i8.p0i8.i64(i8* nonnull align 8 %11, i8* align 8 %12, i64 24, i1 false) #10
  br label %18

13:                                               ; preds = %3
  %14 = getelementptr inbounds %"class.std::__1::basic_string", %"class.std::__1::basic_string"* %2, i64 0, i32 0, i32 0, i32 0, i32 0, i32 0, i32 0
  %15 = load i8*, i8** %14, align 8
  %16 = getelementptr inbounds %"class.std::__1::basic_string", %"class.std::__1::basic_string"* %2, i64 0, i32 0, i32 0, i32 0, i32 0, i32 0, i32 1
  %17 = load i64, i64* %16, align 8
  call void @_ZNSt3__112basic_stringIcNS_11char_traitsIcEENS_9allocatorIcEEE25__init_copy_ctor_externalEPKcm(%"class.std::__1::basic_string"* nonnull %4, i8* %15, i64 %17) #10
  br label %18

18:                                               ; preds = %10, %13
  %19 = call %"class.ExtensionFunction::ResponseValueObject"* @_ZN17ExtensionFunction5ErrorENSt3__112basic_stringIcNS0_11char_traitsIcEENS0_9allocatorIcEEEE(%class.ExtensionFunction* %5, %"class.std::__1::basic_string"* nonnull %4) #10
  call void @_ZN17ExtensionFunction7RespondENSt3__110unique_ptrINS_19ResponseValueObjectENS0_14default_deleteIS2_EEEE(%class.ExtensionFunction* %5, %"class.ExtensionFunction::ResponseValueObject"* %19) #10
  %20 = bitcast %"class.std::__1::basic_string"* %4 to %"struct.std::__1::basic_string<char, std::__1::char_traits<char>, std::__1::allocator<char> >::__short"*
  %21 = getelementptr inbounds %"struct.std::__1::basic_string<char, std::__1::char_traits<char>, std::__1::allocator<char> >::__short", %"struct.std::__1::basic_string<char, std::__1::char_traits<char>, std::__1::allocator<char> >::__short"* %20, i64 0, i32 1, i32 0
  %22 = load i8, i8* %21, align 1
  %23 = icmp slt i8 %22, 0
  br i1 %23, label %24, label %27

24:                                               ; preds = %18
  %25 = getelementptr inbounds %"class.std::__1::basic_string", %"class.std::__1::basic_string"* %4, i64 0, i32 0, i32 0, i32 0, i32 0, i32 0, i32 0
  %26 = load i8*, i8** %25, align 8
  call void @_ZdlPv(i8* %26) #11
  br label %27

27:                                               ; preds = %18, %24
  ret void
}

; Function Attrs: nounwind ssp uwtable
define hidden void @_ZN10extensions40NetworkingPrivateStartDisconnectFunctionD2Ev(%"class.extensions::NetworkingPrivateStartDisconnectFunction"*) unnamed_addr #1 align 2 {
  %2 = bitcast %"class.extensions::NetworkingPrivateStartDisconnectFunction"* %0 to %class.ExtensionFunction*
  tail call void @_ZN17ExtensionFunctionD2Ev(%class.ExtensionFunction* %2) #10
  ret void
}

; Function Attrs: nounwind ssp uwtable
define hidden void @_ZN10extensions40NetworkingPrivateStartDisconnectFunctionD0Ev(%"class.extensions::NetworkingPrivateStartDisconnectFunction"*) unnamed_addr #1 align 2 {
  %2 = bitcast %"class.extensions::NetworkingPrivateStartDisconnectFunction"* %0 to %class.ExtensionFunction*
  tail call void @_ZN17ExtensionFunctionD2Ev(%class.ExtensionFunction* %2) #10
  %3 = bitcast %"class.extensions::NetworkingPrivateStartDisconnectFunction"* %0 to i8*
  tail call void @_ZdlPv(i8* %3) #11
  ret void
}

; Function Attrs: nounwind ssp uwtable
define hidden %"class.ExtensionFunction::ResponseActionObject"* @_ZN10extensions40NetworkingPrivateStartDisconnectFunction3RunEv(%"class.extensions::NetworkingPrivateStartDisconnectFunction"*) unnamed_addr #1 align 2 {
  %2 = alloca %"class.base::OnceCallback.109", align 8
  %3 = alloca %"class.base::OnceCallback.171", align 8
  %4 = bitcast %"class.extensions::NetworkingPrivateStartDisconnectFunction"* %0 to %class.ExtensionFunction*
  %5 = getelementptr inbounds %"class.extensions::NetworkingPrivateStartDisconnectFunction", %"class.extensions::NetworkingPrivateStartDisconnectFunction"* %0, i64 0, i32 0, i32 4, i32 0, i32 0, i32 0
  %6 = load %"class.base::ListValue"*, %"class.base::ListValue"** %5, align 8
  %7 = tail call %"struct.extensions::api::networking_private::StartDisconnect::Params"* @_ZN10extensions3api18networking_private15StartDisconnect6Params6CreateERKN4base9ListValueE(%"class.base::ListValue"* dereferenceable(32) %6) #10
  %8 = icmp eq %"struct.extensions::api::networking_private::StartDisconnect::Params"* %7, null
  br i1 %8, label %49, label %9

9:                                                ; preds = %1
  %10 = tail call %"class.content::BrowserContext"* @_ZNK17ExtensionFunction15browser_contextEv(%class.ExtensionFunction* %4) #10
  %11 = tail call %"class.extensions::NetworkingPrivateDelegate"* @_ZN10extensions32NetworkingPrivateDelegateFactory20GetForBrowserContextEPN7content14BrowserContextE(%"class.content::BrowserContext"* %10) #10
  %12 = getelementptr inbounds %"struct.extensions::api::networking_private::StartDisconnect::Params", %"struct.extensions::api::networking_private::StartDisconnect::Params"* %7, i64 0, i32 0
  %13 = tail call i8* @_Znwm(i64 56) #11, !noalias !90
  %14 = bitcast i8* %13 to %"class.base::internal::BindStateBase"*
  tail call void @_ZN4base8internal13BindStateBaseC2EPFvvEPFvPKS1_E(%"class.base::internal::BindStateBase"* nonnull %14, void ()* bitcast (void (%"class.base::internal::BindStateBase"*)* @_ZN4base8internal7InvokerINS0_9BindStateIMN10extensions40NetworkingPrivateStartDisconnectFunctionEFvvEJ13scoped_refptrIS4_EEEEFvvEE7RunOnceEPNS0_13BindStateBaseE to void ()*), void (%"class.base::internal::BindStateBase"*)* nonnull @_ZN4base8internal9BindStateIMN10extensions40NetworkingPrivateStartDisconnectFunctionEFvvEJ13scoped_refptrIS3_EEE7DestroyEPKNS0_13BindStateBaseE) #10, !noalias !90
  %15 = getelementptr inbounds i8, i8* %13, i64 32
  %16 = bitcast i8* %15 to <2 x i64>*
  store <2 x i64> <i64 ptrtoint (void (%"class.extensions::NetworkingPrivateStartDisconnectFunction"*)* @_ZN10extensions40NetworkingPrivateStartDisconnectFunction7SuccessEv to i64), i64 0>, <2 x i64>* %16, align 8, !noalias !90
  %17 = getelementptr inbounds i8, i8* %13, i64 48
  %18 = bitcast i8* %17 to %"class.extensions::NetworkingPrivateStartDisconnectFunction"**
  store %"class.extensions::NetworkingPrivateStartDisconnectFunction"* %0, %"class.extensions::NetworkingPrivateStartDisconnectFunction"** %18, align 8, !noalias !90
  %19 = icmp eq %"class.extensions::NetworkingPrivateStartDisconnectFunction"* %0, null
  br i1 %19, label %23, label %20

20:                                               ; preds = %9
  %21 = getelementptr inbounds %"class.extensions::NetworkingPrivateStartDisconnectFunction", %"class.extensions::NetworkingPrivateStartDisconnectFunction"* %0, i64 0, i32 0, i32 1, i32 0, i32 0, i32 0, i32 0, i32 0, i32 0, i32 0, i32 0
  %22 = atomicrmw add i32* %21, i32 1 monotonic, !noalias !90
  br label %23

23:                                               ; preds = %9, %20
  %24 = bitcast %"class.base::OnceCallback.109"* %2 to i8**
  store i8* %13, i8** %24, align 8, !alias.scope !90
  %25 = tail call i8* @_Znwm(i64 56) #11, !noalias !95
  %26 = bitcast i8* %25 to %"class.base::internal::BindStateBase"*
  tail call void @_ZN4base8internal13BindStateBaseC2EPFvvEPFvPKS1_E(%"class.base::internal::BindStateBase"* nonnull %26, void ()* bitcast (void (%"class.base::internal::BindStateBase"*, %"class.std::__1::basic_string"*)* @_ZN4base8internal7InvokerINS0_9BindStateIMN10extensions40NetworkingPrivateStartDisconnectFunctionEFvRKNSt3__112basic_stringIcNS5_11char_traitsIcEENS5_9allocatorIcEEEEEJ13scoped_refptrIS4_EEEEFvSD_EE7RunOnceEPNS0_13BindStateBaseESD_ to void ()*), void (%"class.base::internal::BindStateBase"*)* nonnull @_ZN4base8internal9BindStateIMN10extensions40NetworkingPrivateStartDisconnectFunctionEFvRKNSt3__112basic_stringIcNS4_11char_traitsIcEENS4_9allocatorIcEEEEEJ13scoped_refptrIS3_EEE7DestroyEPKNS0_13BindStateBaseE) #10, !noalias !95
  %27 = getelementptr inbounds i8, i8* %25, i64 32
  %28 = bitcast i8* %27 to <2 x i64>*
  store <2 x i64> <i64 ptrtoint (void (%"class.extensions::NetworkingPrivateStartDisconnectFunction"*, %"class.std::__1::basic_string"*)* @_ZN10extensions40NetworkingPrivateStartDisconnectFunction7FailureERKNSt3__112basic_stringIcNS1_11char_traitsIcEENS1_9allocatorIcEEEE to i64), i64 0>, <2 x i64>* %28, align 8, !noalias !95
  %29 = getelementptr inbounds i8, i8* %25, i64 48
  %30 = bitcast i8* %29 to %"class.extensions::NetworkingPrivateStartDisconnectFunction"**
  store %"class.extensions::NetworkingPrivateStartDisconnectFunction"* %0, %"class.extensions::NetworkingPrivateStartDisconnectFunction"** %30, align 8, !noalias !95
  br i1 %19, label %34, label %31

31:                                               ; preds = %23
  %32 = getelementptr inbounds %"class.extensions::NetworkingPrivateStartDisconnectFunction", %"class.extensions::NetworkingPrivateStartDisconnectFunction"* %0, i64 0, i32 0, i32 1, i32 0, i32 0, i32 0, i32 0, i32 0, i32 0, i32 0, i32 0
  %33 = atomicrmw add i32* %32, i32 1 monotonic, !noalias !95
  br label %34

34:                                               ; preds = %23, %31
  %35 = bitcast %"class.base::OnceCallback.171"* %3 to i8**
  store i8* %25, i8** %35, align 8, !alias.scope !95
  %36 = bitcast %"class.extensions::NetworkingPrivateDelegate"* %11 to void (%"class.extensions::NetworkingPrivateDelegate"*, %"class.std::__1::basic_string"*, %"class.base::OnceCallback.109"*, %"class.base::OnceCallback.171"*)***
  %37 = load void (%"class.extensions::NetworkingPrivateDelegate"*, %"class.std::__1::basic_string"*, %"class.base::OnceCallback.109"*, %"class.base::OnceCallback.171"*)**, void (%"class.extensions::NetworkingPrivateDelegate"*, %"class.std::__1::basic_string"*, %"class.base::OnceCallback.109"*, %"class.base::OnceCallback.171"*)*** %36, align 8
  %38 = getelementptr inbounds void (%"class.extensions::NetworkingPrivateDelegate"*, %"class.std::__1::basic_string"*, %"class.base::OnceCallback.109"*, %"class.base::OnceCallback.171"*)*, void (%"class.extensions::NetworkingPrivateDelegate"*, %"class.std::__1::basic_string"*, %"class.base::OnceCallback.109"*, %"class.base::OnceCallback.171"*)** %37, i64 11
  %39 = load void (%"class.extensions::NetworkingPrivateDelegate"*, %"class.std::__1::basic_string"*, %"class.base::OnceCallback.109"*, %"class.base::OnceCallback.171"*)*, void (%"class.extensions::NetworkingPrivateDelegate"*, %"class.std::__1::basic_string"*, %"class.base::OnceCallback.109"*, %"class.base::OnceCallback.171"*)** %38, align 8
  call void %39(%"class.extensions::NetworkingPrivateDelegate"* %11, %"class.std::__1::basic_string"* dereferenceable(24) %12, %"class.base::OnceCallback.109"* nonnull %2, %"class.base::OnceCallback.171"* nonnull %3) #10
  %40 = getelementptr inbounds %"class.base::OnceCallback.171", %"class.base::OnceCallback.171"* %3, i64 0, i32 0
  call void @_ZN4base8internal12CallbackBaseD2Ev(%"class.base::internal::CallbackBase"* nonnull %40) #10
  %41 = getelementptr inbounds %"class.base::OnceCallback.109", %"class.base::OnceCallback.109"* %2, i64 0, i32 0
  call void @_ZN4base8internal12CallbackBaseD2Ev(%"class.base::internal::CallbackBase"* nonnull %41) #10
  %42 = getelementptr inbounds %"class.extensions::NetworkingPrivateStartDisconnectFunction", %"class.extensions::NetworkingPrivateStartDisconnectFunction"* %0, i64 0, i32 0, i32 23
  %43 = load i8, i8* %42, align 8, !range !7
  %44 = icmp eq i8 %43, 0
  br i1 %44, label %47, label %45

45:                                               ; preds = %34
  %46 = call %"class.ExtensionFunction::ResponseActionObject"* @_ZN17ExtensionFunction16AlreadyRespondedEv(%class.ExtensionFunction* %4) #10
  br label %55

47:                                               ; preds = %34
  %48 = call %"class.ExtensionFunction::ResponseActionObject"* @_ZN17ExtensionFunction12RespondLaterEv(%class.ExtensionFunction* %4) #10
  br label %55

49:                                               ; preds = %1
  %50 = bitcast %"class.extensions::NetworkingPrivateStartDisconnectFunction"* %0 to void (%class.ExtensionFunction*)***
  %51 = load void (%class.ExtensionFunction*)**, void (%class.ExtensionFunction*)*** %50, align 8
  %52 = getelementptr inbounds void (%class.ExtensionFunction*)*, void (%class.ExtensionFunction*)** %51, i64 6
  %53 = load void (%class.ExtensionFunction*)*, void (%class.ExtensionFunction*)** %52, align 8
  tail call void %53(%class.ExtensionFunction* %4) #10
  %54 = tail call %"class.ExtensionFunction::ResponseActionObject"* @_ZN17ExtensionFunction17ValidationFailureEPS_(%class.ExtensionFunction* %4) #10
  br label %58

55:                                               ; preds = %45, %47
  %56 = phi %"class.ExtensionFunction::ResponseActionObject"* [ %48, %47 ], [ %46, %45 ]
  call void @_ZN10extensions3api18networking_private15StartDisconnect6ParamsD1Ev(%"struct.extensions::api::networking_private::StartDisconnect::Params"* nonnull %7) #10
  %57 = bitcast %"struct.extensions::api::networking_private::StartDisconnect::Params"* %7 to i8*
  call void @_ZdlPv(i8* %57) #11
  br label %58

58:                                               ; preds = %49, %55
  %59 = phi %"class.ExtensionFunction::ResponseActionObject"* [ %54, %49 ], [ %56, %55 ]
  ret %"class.ExtensionFunction::ResponseActionObject"* %59
}

declare %"struct.extensions::api::networking_private::StartDisconnect::Params"* @_ZN10extensions3api18networking_private15StartDisconnect6Params6CreateERKN4base9ListValueE(%"class.base::ListValue"* dereferenceable(32)) local_unnamed_addr #4

; Function Attrs: nounwind ssp uwtable
define hidden void @_ZN10extensions40NetworkingPrivateStartDisconnectFunction7SuccessEv(%"class.extensions::NetworkingPrivateStartDisconnectFunction"*) #1 align 2 {
  %2 = bitcast %"class.extensions::NetworkingPrivateStartDisconnectFunction"* %0 to %class.ExtensionFunction*
  %3 = tail call %"class.ExtensionFunction::ResponseValueObject"* @_ZN17ExtensionFunction11NoArgumentsEv(%class.ExtensionFunction* %2) #10
  tail call void @_ZN17ExtensionFunction7RespondENSt3__110unique_ptrINS_19ResponseValueObjectENS0_14default_deleteIS2_EEEE(%class.ExtensionFunction* %2, %"class.ExtensionFunction::ResponseValueObject"* %3) #10
  ret void
}

; Function Attrs: nounwind ssp uwtable
define hidden void @_ZN10extensions40NetworkingPrivateStartDisconnectFunction7FailureERKNSt3__112basic_stringIcNS1_11char_traitsIcEENS1_9allocatorIcEEEE(%"class.extensions::NetworkingPrivateStartDisconnectFunction"*, %"class.std::__1::basic_string"* nocapture readonly dereferenceable(24)) #1 align 2 {
  %3 = alloca %"class.std::__1::basic_string", align 8
  %4 = bitcast %"class.extensions::NetworkingPrivateStartDisconnectFunction"* %0 to %class.ExtensionFunction*
  %5 = bitcast %"class.std::__1::basic_string"* %1 to %"struct.std::__1::basic_string<char, std::__1::char_traits<char>, std::__1::allocator<char> >::__short"*
  %6 = getelementptr inbounds %"struct.std::__1::basic_string<char, std::__1::char_traits<char>, std::__1::allocator<char> >::__short", %"struct.std::__1::basic_string<char, std::__1::char_traits<char>, std::__1::allocator<char> >::__short"* %5, i64 0, i32 1, i32 0
  %7 = load i8, i8* %6, align 1
  %8 = icmp slt i8 %7, 0
  br i1 %8, label %12, label %9

9:                                                ; preds = %2
  %10 = bitcast %"class.std::__1::basic_string"* %3 to i8*
  %11 = bitcast %"class.std::__1::basic_string"* %1 to i8*
  call void @llvm.memcpy.p0i8.p0i8.i64(i8* nonnull align 8 %10, i8* align 8 %11, i64 24, i1 false) #10
  br label %17

12:                                               ; preds = %2
  %13 = getelementptr inbounds %"class.std::__1::basic_string", %"class.std::__1::basic_string"* %1, i64 0, i32 0, i32 0, i32 0, i32 0, i32 0, i32 0
  %14 = load i8*, i8** %13, align 8
  %15 = getelementptr inbounds %"class.std::__1::basic_string", %"class.std::__1::basic_string"* %1, i64 0, i32 0, i32 0, i32 0, i32 0, i32 0, i32 1
  %16 = load i64, i64* %15, align 8
  call void @_ZNSt3__112basic_stringIcNS_11char_traitsIcEENS_9allocatorIcEEE25__init_copy_ctor_externalEPKcm(%"class.std::__1::basic_string"* nonnull %3, i8* %14, i64 %16) #10
  br label %17

17:                                               ; preds = %9, %12
  %18 = call %"class.ExtensionFunction::ResponseValueObject"* @_ZN17ExtensionFunction5ErrorENSt3__112basic_stringIcNS0_11char_traitsIcEENS0_9allocatorIcEEEE(%class.ExtensionFunction* %4, %"class.std::__1::basic_string"* nonnull %3) #10
  call void @_ZN17ExtensionFunction7RespondENSt3__110unique_ptrINS_19ResponseValueObjectENS0_14default_deleteIS2_EEEE(%class.ExtensionFunction* %4, %"class.ExtensionFunction::ResponseValueObject"* %18) #10
  %19 = bitcast %"class.std::__1::basic_string"* %3 to %"struct.std::__1::basic_string<char, std::__1::char_traits<char>, std::__1::allocator<char> >::__short"*
  %20 = getelementptr inbounds %"struct.std::__1::basic_string<char, std::__1::char_traits<char>, std::__1::allocator<char> >::__short", %"struct.std::__1::basic_string<char, std::__1::char_traits<char>, std::__1::allocator<char> >::__short"* %19, i64 0, i32 1, i32 0
  %21 = load i8, i8* %20, align 1
  %22 = icmp slt i8 %21, 0
  br i1 %22, label %23, label %26

23:                                               ; preds = %17
  %24 = getelementptr inbounds %"class.std::__1::basic_string", %"class.std::__1::basic_string"* %3, i64 0, i32 0, i32 0, i32 0, i32 0, i32 0, i32 0
  %25 = load i8*, i8** %24, align 8
  call void @_ZdlPv(i8* %25) #11
  br label %26

26:                                               ; preds = %17, %23
  ret void
}

; Function Attrs: nounwind ssp uwtable
define hidden void @_ZN10extensions38NetworkingPrivateStartActivateFunctionD2Ev(%"class.extensions::NetworkingPrivateStartActivateFunction"*) unnamed_addr #1 align 2 {
  %2 = bitcast %"class.extensions::NetworkingPrivateStartActivateFunction"* %0 to %class.ExtensionFunction*
  tail call void @_ZN17ExtensionFunctionD2Ev(%class.ExtensionFunction* %2) #10
  ret void
}

; Function Attrs: nounwind ssp uwtable
define hidden void @_ZN10extensions38NetworkingPrivateStartActivateFunctionD0Ev(%"class.extensions::NetworkingPrivateStartActivateFunction"*) unnamed_addr #1 align 2 {
  %2 = bitcast %"class.extensions::NetworkingPrivateStartActivateFunction"* %0 to %class.ExtensionFunction*
  tail call void @_ZN17ExtensionFunctionD2Ev(%class.ExtensionFunction* %2) #10
  %3 = bitcast %"class.extensions::NetworkingPrivateStartActivateFunction"* %0 to i8*
  tail call void @_ZdlPv(i8* %3) #11
  ret void
}

; Function Attrs: nounwind ssp uwtable
define hidden %"class.ExtensionFunction::ResponseActionObject"* @_ZN10extensions38NetworkingPrivateStartActivateFunction3RunEv(%"class.extensions::NetworkingPrivateStartActivateFunction"*) unnamed_addr #1 align 2 {
  %2 = alloca %"class.extensions::Feature::Availability", align 8
  %3 = alloca %"class.std::__1::basic_string", align 8
  %4 = alloca %"class.std::__1::basic_string", align 8
  %5 = alloca %"class.std::__1::basic_string", align 8
  %6 = alloca %"class.base::OnceCallback.109", align 8
  %7 = alloca %"class.base::OnceCallback.171", align 8
  %8 = bitcast %"class.extensions::NetworkingPrivateStartActivateFunction"* %0 to %class.ExtensionFunction*
  %9 = getelementptr inbounds %"class.extensions::NetworkingPrivateStartActivateFunction", %"class.extensions::NetworkingPrivateStartActivateFunction"* %0, i64 0, i32 0, i32 3, i32 0
  %10 = load %"class.extensions::Extension"*, %"class.extensions::Extension"** %9, align 8
  %11 = getelementptr inbounds %"class.extensions::NetworkingPrivateStartActivateFunction", %"class.extensions::NetworkingPrivateStartActivateFunction"* %0, i64 0, i32 0, i32 19
  %12 = load i32, i32* %11, align 8
  %13 = getelementptr inbounds %"class.extensions::NetworkingPrivateStartActivateFunction", %"class.extensions::NetworkingPrivateStartActivateFunction"* %0, i64 0, i32 0, i32 13
  %14 = bitcast %"class.extensions::Feature::Availability"* %2 to i8*
  call void @llvm.lifetime.start.p0i8(i64 32, i8* nonnull %14) #10
  %15 = tail call %"class.extensions::ExtensionAPI"* @_ZN10extensions12ExtensionAPI17GetSharedInstanceEv() #10
  %16 = bitcast %"class.std::__1::basic_string"* %3 to i8*
  call void @llvm.lifetime.start.p0i8(i64 24, i8* nonnull %16) #10
  %17 = bitcast %"class.std::__1::basic_string"* %3 to %"struct.std::__1::basic_string<char, std::__1::char_traits<char>, std::__1::allocator<char> >::__short"*
  %18 = getelementptr inbounds %"struct.std::__1::basic_string<char, std::__1::char_traits<char>, std::__1::allocator<char> >::__short", %"struct.std::__1::basic_string<char, std::__1::char_traits<char>, std::__1::allocator<char> >::__short"* %17, i64 0, i32 1, i32 0
  store i8 17, i8* %18, align 1
  call void @llvm.memcpy.p0i8.p0i8.i64(i8* nonnull align 8 %16, i8* align 1 getelementptr inbounds ([18 x i8], [18 x i8]* @.str.28, i64 0, i64 0), i64 17, i1 false) #10
  %19 = getelementptr inbounds i8, i8* %16, i64 17
  store i8 0, i8* %19, align 1
  call void @_ZN10extensions12ExtensionAPI11IsAvailableERKNSt3__112basic_stringIcNS1_11char_traitsIcEENS1_9allocatorIcEEEEPKNS_9ExtensionENS_7Feature7ContextERK4GURLNS_16CheckAliasStatusE(%"class.extensions::Feature::Availability"* nonnull sret %2, %"class.extensions::ExtensionAPI"* %15, %"class.std::__1::basic_string"* nonnull dereferenceable(24) %3, %"class.extensions::Extension"* %10, i32 %12, %class.GURL* dereferenceable(120) %13, i32 1) #10
  %20 = getelementptr inbounds %"class.extensions::Feature::Availability", %"class.extensions::Feature::Availability"* %2, i64 0, i32 0
  %21 = load i32, i32* %20, align 8
  %22 = icmp eq i32 %21, 0
  %23 = getelementptr inbounds %"class.extensions::Feature::Availability", %"class.extensions::Feature::Availability"* %2, i64 0, i32 1
  %24 = bitcast %"class.std::__1::basic_string"* %23 to %"struct.std::__1::basic_string<char, std::__1::char_traits<char>, std::__1::allocator<char> >::__short"*
  %25 = getelementptr inbounds %"struct.std::__1::basic_string<char, std::__1::char_traits<char>, std::__1::allocator<char> >::__short", %"struct.std::__1::basic_string<char, std::__1::char_traits<char>, std::__1::allocator<char> >::__short"* %24, i64 0, i32 1, i32 0
  %26 = load i8, i8* %25, align 1
  %27 = icmp slt i8 %26, 0
  br i1 %27, label %28, label %31

28:                                               ; preds = %1
  %29 = getelementptr inbounds %"class.std::__1::basic_string", %"class.std::__1::basic_string"* %23, i64 0, i32 0, i32 0, i32 0, i32 0, i32 0, i32 0
  %30 = load i8*, i8** %29, align 8
  call void @_ZdlPv(i8* %30) #11
  br label %31

31:                                               ; preds = %28, %1
  %32 = load i8, i8* %18, align 1
  %33 = icmp slt i8 %32, 0
  br i1 %33, label %34, label %37

34:                                               ; preds = %31
  %35 = getelementptr inbounds %"class.std::__1::basic_string", %"class.std::__1::basic_string"* %3, i64 0, i32 0, i32 0, i32 0, i32 0, i32 0, i32 0
  %36 = load i8*, i8** %35, align 8
  call void @_ZdlPv(i8* %36) #11
  br label %37

37:                                               ; preds = %31, %34
  call void @llvm.lifetime.end.p0i8(i64 24, i8* nonnull %16) #10
  call void @llvm.lifetime.end.p0i8(i64 32, i8* nonnull %14) #10
  br i1 %22, label %52, label %38

38:                                               ; preds = %37
  %39 = call i8* @_Znwm(i64 48) #11
  %40 = getelementptr inbounds %"class.std::__1::basic_string", %"class.std::__1::basic_string"* %4, i64 0, i32 0, i32 0, i32 0, i32 0, i32 0, i32 0
  store i8* %39, i8** %40, align 8
  %41 = getelementptr inbounds %"class.std::__1::basic_string", %"class.std::__1::basic_string"* %4, i64 0, i32 0, i32 0, i32 0, i32 0, i32 0, i32 1
  %42 = bitcast i64* %41 to <2 x i64>*
  store <2 x i64> <i64 38, i64 -9223372036854775760>, <2 x i64>* %42, align 8
  call void @llvm.memcpy.p0i8.p0i8.i64(i8* nonnull align 1 %39, i8* align 16 getelementptr inbounds ([39 x i8], [39 x i8]* @_ZN10extensions12_GLOBAL__N_117kPrivateOnlyErrorE, i64 0, i64 0), i64 38, i1 false) #10
  %43 = getelementptr inbounds i8, i8* %39, i64 38
  store i8 0, i8* %43, align 1
  %44 = call %"class.ExtensionFunction::ResponseValueObject"* @_ZN17ExtensionFunction5ErrorENSt3__112basic_stringIcNS0_11char_traitsIcEENS0_9allocatorIcEEEE(%class.ExtensionFunction* %8, %"class.std::__1::basic_string"* nonnull %4) #10
  %45 = call %"class.ExtensionFunction::ResponseActionObject"* @_ZN17ExtensionFunction10RespondNowENSt3__110unique_ptrINS_19ResponseValueObjectENS0_14default_deleteIS2_EEEE(%class.ExtensionFunction* %8, %"class.ExtensionFunction::ResponseValueObject"* %44) #10
  %46 = bitcast %"class.std::__1::basic_string"* %4 to %"struct.std::__1::basic_string<char, std::__1::char_traits<char>, std::__1::allocator<char> >::__short"*
  %47 = getelementptr inbounds %"struct.std::__1::basic_string<char, std::__1::char_traits<char>, std::__1::allocator<char> >::__short", %"struct.std::__1::basic_string<char, std::__1::char_traits<char>, std::__1::allocator<char> >::__short"* %46, i64 0, i32 1, i32 0
  %48 = load i8, i8* %47, align 1
  %49 = icmp slt i8 %48, 0
  br i1 %49, label %50, label %134

50:                                               ; preds = %38
  %51 = load i8*, i8** %40, align 8
  call void @_ZdlPv(i8* %51) #11
  br label %134

52:                                               ; preds = %37
  %53 = getelementptr inbounds %"class.extensions::NetworkingPrivateStartActivateFunction", %"class.extensions::NetworkingPrivateStartActivateFunction"* %0, i64 0, i32 0, i32 4, i32 0, i32 0, i32 0
  %54 = load %"class.base::ListValue"*, %"class.base::ListValue"** %53, align 8
  %55 = call %"struct.extensions::api::networking_private::StartActivate::Params"* @_ZN10extensions3api18networking_private13StartActivate6Params6CreateERKN4base9ListValueE(%"class.base::ListValue"* dereferenceable(32) %54) #10
  %56 = icmp eq %"struct.extensions::api::networking_private::StartActivate::Params"* %55, null
  br i1 %56, label %125, label %57

57:                                               ; preds = %52
  %58 = call %"class.content::BrowserContext"* @_ZNK17ExtensionFunction15browser_contextEv(%class.ExtensionFunction* %8) #10
  %59 = call %"class.extensions::NetworkingPrivateDelegate"* @_ZN10extensions32NetworkingPrivateDelegateFactory20GetForBrowserContextEPN7content14BrowserContextE(%"class.content::BrowserContext"* %58) #10
  %60 = getelementptr inbounds %"struct.extensions::api::networking_private::StartActivate::Params", %"struct.extensions::api::networking_private::StartActivate::Params"* %55, i64 0, i32 0
  %61 = bitcast %"class.std::__1::basic_string"* %5 to i8*
  call void @llvm.lifetime.start.p0i8(i64 24, i8* nonnull %61) #10
  %62 = getelementptr inbounds %"struct.extensions::api::networking_private::StartActivate::Params", %"struct.extensions::api::networking_private::StartActivate::Params"* %55, i64 0, i32 1, i32 0, i32 0, i32 0
  %63 = load %"class.std::__1::basic_string"*, %"class.std::__1::basic_string"** %62, align 8
  %64 = icmp eq %"class.std::__1::basic_string"* %63, null
  br i1 %64, label %77, label %65

65:                                               ; preds = %57
  %66 = bitcast %"class.std::__1::basic_string"* %63 to %"struct.std::__1::basic_string<char, std::__1::char_traits<char>, std::__1::allocator<char> >::__short"*
  %67 = getelementptr inbounds %"struct.std::__1::basic_string<char, std::__1::char_traits<char>, std::__1::allocator<char> >::__short", %"struct.std::__1::basic_string<char, std::__1::char_traits<char>, std::__1::allocator<char> >::__short"* %66, i64 0, i32 1, i32 0
  %68 = load i8, i8* %67, align 1
  %69 = icmp slt i8 %68, 0
  br i1 %69, label %72, label %70

70:                                               ; preds = %65
  %71 = bitcast %"class.std::__1::basic_string"* %63 to i8*
  call void @llvm.memcpy.p0i8.p0i8.i64(i8* nonnull align 8 %61, i8* nonnull align 8 %71, i64 24, i1 false) #10
  br label %80

72:                                               ; preds = %65
  %73 = getelementptr inbounds %"class.std::__1::basic_string", %"class.std::__1::basic_string"* %63, i64 0, i32 0, i32 0, i32 0, i32 0, i32 0, i32 0
  %74 = load i8*, i8** %73, align 8
  %75 = getelementptr inbounds %"class.std::__1::basic_string", %"class.std::__1::basic_string"* %63, i64 0, i32 0, i32 0, i32 0, i32 0, i32 0, i32 1
  %76 = load i64, i64* %75, align 8
  call void @_ZNSt3__112basic_stringIcNS_11char_traitsIcEENS_9allocatorIcEEE25__init_copy_ctor_externalEPKcm(%"class.std::__1::basic_string"* nonnull %5, i8* %74, i64 %76) #10
  br label %80

77:                                               ; preds = %57
  %78 = bitcast %"class.std::__1::basic_string"* %5 to %"struct.std::__1::basic_string<char, std::__1::char_traits<char>, std::__1::allocator<char> >::__short"*
  %79 = getelementptr inbounds %"struct.std::__1::basic_string<char, std::__1::char_traits<char>, std::__1::allocator<char> >::__short", %"struct.std::__1::basic_string<char, std::__1::char_traits<char>, std::__1::allocator<char> >::__short"* %78, i64 0, i32 1, i32 0
  store i8 0, i8* %79, align 1
  store i8 0, i8* %61, align 8
  br label %80

80:                                               ; preds = %72, %70, %77
  %81 = call i8* @_Znwm(i64 56) #11, !noalias !100
  %82 = bitcast i8* %81 to %"class.base::internal::BindStateBase"*
  call void @_ZN4base8internal13BindStateBaseC2EPFvvEPFvPKS1_E(%"class.base::internal::BindStateBase"* nonnull %82, void ()* bitcast (void (%"class.base::internal::BindStateBase"*)* @_ZN4base8internal7InvokerINS0_9BindStateIMN10extensions38NetworkingPrivateStartActivateFunctionEFvvEJ13scoped_refptrIS4_EEEEFvvEE7RunOnceEPNS0_13BindStateBaseE to void ()*), void (%"class.base::internal::BindStateBase"*)* nonnull @_ZN4base8internal9BindStateIMN10extensions38NetworkingPrivateStartActivateFunctionEFvvEJ13scoped_refptrIS3_EEE7DestroyEPKNS0_13BindStateBaseE) #10, !noalias !100
  %83 = getelementptr inbounds i8, i8* %81, i64 32
  %84 = bitcast i8* %83 to <2 x i64>*
  store <2 x i64> <i64 ptrtoint (void (%"class.extensions::NetworkingPrivateStartActivateFunction"*)* @_ZN10extensions38NetworkingPrivateStartActivateFunction7SuccessEv to i64), i64 0>, <2 x i64>* %84, align 8, !noalias !100
  %85 = getelementptr inbounds i8, i8* %81, i64 48
  %86 = bitcast i8* %85 to %"class.extensions::NetworkingPrivateStartActivateFunction"**
  store %"class.extensions::NetworkingPrivateStartActivateFunction"* %0, %"class.extensions::NetworkingPrivateStartActivateFunction"** %86, align 8, !noalias !100
  %87 = icmp eq %"class.extensions::NetworkingPrivateStartActivateFunction"* %0, null
  br i1 %87, label %91, label %88

88:                                               ; preds = %80
  %89 = getelementptr inbounds %"class.extensions::NetworkingPrivateStartActivateFunction", %"class.extensions::NetworkingPrivateStartActivateFunction"* %0, i64 0, i32 0, i32 1, i32 0, i32 0, i32 0, i32 0, i32 0, i32 0, i32 0, i32 0
  %90 = atomicrmw add i32* %89, i32 1 monotonic, !noalias !100
  br label %91

91:                                               ; preds = %80, %88
  %92 = bitcast %"class.base::OnceCallback.109"* %6 to i8**
  store i8* %81, i8** %92, align 8, !alias.scope !100
  %93 = call i8* @_Znwm(i64 56) #11, !noalias !105
  %94 = bitcast i8* %93 to %"class.base::internal::BindStateBase"*
  call void @_ZN4base8internal13BindStateBaseC2EPFvvEPFvPKS1_E(%"class.base::internal::BindStateBase"* nonnull %94, void ()* bitcast (void (%"class.base::internal::BindStateBase"*, %"class.std::__1::basic_string"*)* @_ZN4base8internal7InvokerINS0_9BindStateIMN10extensions38NetworkingPrivateStartActivateFunctionEFvRKNSt3__112basic_stringIcNS5_11char_traitsIcEENS5_9allocatorIcEEEEEJ13scoped_refptrIS4_EEEEFvSD_EE7RunOnceEPNS0_13BindStateBaseESD_ to void ()*), void (%"class.base::internal::BindStateBase"*)* nonnull @_ZN4base8internal9BindStateIMN10extensions38NetworkingPrivateStartActivateFunctionEFvRKNSt3__112basic_stringIcNS4_11char_traitsIcEENS4_9allocatorIcEEEEEJ13scoped_refptrIS3_EEE7DestroyEPKNS0_13BindStateBaseE) #10, !noalias !105
  %95 = getelementptr inbounds i8, i8* %93, i64 32
  %96 = bitcast i8* %95 to <2 x i64>*
  store <2 x i64> <i64 ptrtoint (void (%"class.extensions::NetworkingPrivateStartActivateFunction"*, %"class.std::__1::basic_string"*)* @_ZN10extensions38NetworkingPrivateStartActivateFunction7FailureERKNSt3__112basic_stringIcNS1_11char_traitsIcEENS1_9allocatorIcEEEE to i64), i64 0>, <2 x i64>* %96, align 8, !noalias !105
  %97 = getelementptr inbounds i8, i8* %93, i64 48
  %98 = bitcast i8* %97 to %"class.extensions::NetworkingPrivateStartActivateFunction"**
  store %"class.extensions::NetworkingPrivateStartActivateFunction"* %0, %"class.extensions::NetworkingPrivateStartActivateFunction"** %98, align 8, !noalias !105
  br i1 %87, label %102, label %99

99:                                               ; preds = %91
  %100 = getelementptr inbounds %"class.extensions::NetworkingPrivateStartActivateFunction", %"class.extensions::NetworkingPrivateStartActivateFunction"* %0, i64 0, i32 0, i32 1, i32 0, i32 0, i32 0, i32 0, i32 0, i32 0, i32 0, i32 0
  %101 = atomicrmw add i32* %100, i32 1 monotonic, !noalias !105
  br label %102

102:                                              ; preds = %91, %99
  %103 = bitcast %"class.base::OnceCallback.171"* %7 to i8**
  store i8* %93, i8** %103, align 8, !alias.scope !105
  %104 = bitcast %"class.extensions::NetworkingPrivateDelegate"* %59 to void (%"class.extensions::NetworkingPrivateDelegate"*, %"class.std::__1::basic_string"*, %"class.std::__1::basic_string"*, %"class.base::OnceCallback.109"*, %"class.base::OnceCallback.171"*)***
  %105 = load void (%"class.extensions::NetworkingPrivateDelegate"*, %"class.std::__1::basic_string"*, %"class.std::__1::basic_string"*, %"class.base::OnceCallback.109"*, %"class.base::OnceCallback.171"*)**, void (%"class.extensions::NetworkingPrivateDelegate"*, %"class.std::__1::basic_string"*, %"class.std::__1::basic_string"*, %"class.base::OnceCallback.109"*, %"class.base::OnceCallback.171"*)*** %104, align 8
  %106 = getelementptr inbounds void (%"class.extensions::NetworkingPrivateDelegate"*, %"class.std::__1::basic_string"*, %"class.std::__1::basic_string"*, %"class.base::OnceCallback.109"*, %"class.base::OnceCallback.171"*)*, void (%"class.extensions::NetworkingPrivateDelegate"*, %"class.std::__1::basic_string"*, %"class.std::__1::basic_string"*, %"class.base::OnceCallback.109"*, %"class.base::OnceCallback.171"*)** %105, i64 12
  %107 = load void (%"class.extensions::NetworkingPrivateDelegate"*, %"class.std::__1::basic_string"*, %"class.std::__1::basic_string"*, %"class.base::OnceCallback.109"*, %"class.base::OnceCallback.171"*)*, void (%"class.extensions::NetworkingPrivateDelegate"*, %"class.std::__1::basic_string"*, %"class.std::__1::basic_string"*, %"class.base::OnceCallback.109"*, %"class.base::OnceCallback.171"*)** %106, align 8
  call void %107(%"class.extensions::NetworkingPrivateDelegate"* %59, %"class.std::__1::basic_string"* dereferenceable(24) %60, %"class.std::__1::basic_string"* nonnull dereferenceable(24) %5, %"class.base::OnceCallback.109"* nonnull %6, %"class.base::OnceCallback.171"* nonnull %7) #10
  %108 = getelementptr inbounds %"class.base::OnceCallback.171", %"class.base::OnceCallback.171"* %7, i64 0, i32 0
  call void @_ZN4base8internal12CallbackBaseD2Ev(%"class.base::internal::CallbackBase"* nonnull %108) #10
  %109 = getelementptr inbounds %"class.base::OnceCallback.109", %"class.base::OnceCallback.109"* %6, i64 0, i32 0
  call void @_ZN4base8internal12CallbackBaseD2Ev(%"class.base::internal::CallbackBase"* nonnull %109) #10
  %110 = bitcast %"class.std::__1::basic_string"* %5 to %"struct.std::__1::basic_string<char, std::__1::char_traits<char>, std::__1::allocator<char> >::__short"*
  %111 = getelementptr inbounds %"struct.std::__1::basic_string<char, std::__1::char_traits<char>, std::__1::allocator<char> >::__short", %"struct.std::__1::basic_string<char, std::__1::char_traits<char>, std::__1::allocator<char> >::__short"* %110, i64 0, i32 1, i32 0
  %112 = load i8, i8* %111, align 1
  %113 = icmp slt i8 %112, 0
  br i1 %113, label %114, label %117

114:                                              ; preds = %102
  %115 = getelementptr inbounds %"class.std::__1::basic_string", %"class.std::__1::basic_string"* %5, i64 0, i32 0, i32 0, i32 0, i32 0, i32 0, i32 0
  %116 = load i8*, i8** %115, align 8
  call void @_ZdlPv(i8* %116) #11
  br label %117

117:                                              ; preds = %102, %114
  call void @llvm.lifetime.end.p0i8(i64 24, i8* nonnull %61) #10
  %118 = getelementptr inbounds %"class.extensions::NetworkingPrivateStartActivateFunction", %"class.extensions::NetworkingPrivateStartActivateFunction"* %0, i64 0, i32 0, i32 23
  %119 = load i8, i8* %118, align 8, !range !7
  %120 = icmp eq i8 %119, 0
  br i1 %120, label %123, label %121

121:                                              ; preds = %117
  %122 = call %"class.ExtensionFunction::ResponseActionObject"* @_ZN17ExtensionFunction16AlreadyRespondedEv(%class.ExtensionFunction* %8) #10
  br label %131

123:                                              ; preds = %117
  %124 = call %"class.ExtensionFunction::ResponseActionObject"* @_ZN17ExtensionFunction12RespondLaterEv(%class.ExtensionFunction* %8) #10
  br label %131

125:                                              ; preds = %52
  %126 = bitcast %"class.extensions::NetworkingPrivateStartActivateFunction"* %0 to void (%class.ExtensionFunction*)***
  %127 = load void (%class.ExtensionFunction*)**, void (%class.ExtensionFunction*)*** %126, align 8
  %128 = getelementptr inbounds void (%class.ExtensionFunction*)*, void (%class.ExtensionFunction*)** %127, i64 6
  %129 = load void (%class.ExtensionFunction*)*, void (%class.ExtensionFunction*)** %128, align 8
  call void %129(%class.ExtensionFunction* %8) #10
  %130 = call %"class.ExtensionFunction::ResponseActionObject"* @_ZN17ExtensionFunction17ValidationFailureEPS_(%class.ExtensionFunction* %8) #10
  br label %134

131:                                              ; preds = %121, %123
  %132 = phi %"class.ExtensionFunction::ResponseActionObject"* [ %124, %123 ], [ %122, %121 ]
  call void @_ZN10extensions3api18networking_private13StartActivate6ParamsD1Ev(%"struct.extensions::api::networking_private::StartActivate::Params"* nonnull %55) #10
  %133 = bitcast %"struct.extensions::api::networking_private::StartActivate::Params"* %55 to i8*
  call void @_ZdlPv(i8* %133) #11
  br label %134

134:                                              ; preds = %131, %125, %50, %38
  %135 = phi %"class.ExtensionFunction::ResponseActionObject"* [ %45, %38 ], [ %45, %50 ], [ %130, %125 ], [ %132, %131 ]
  ret %"class.ExtensionFunction::ResponseActionObject"* %135
}

declare %"struct.extensions::api::networking_private::StartActivate::Params"* @_ZN10extensions3api18networking_private13StartActivate6Params6CreateERKN4base9ListValueE(%"class.base::ListValue"* dereferenceable(32)) local_unnamed_addr #4

; Function Attrs: nounwind ssp uwtable
define hidden void @_ZN10extensions38NetworkingPrivateStartActivateFunction7SuccessEv(%"class.extensions::NetworkingPrivateStartActivateFunction"*) #1 align 2 {
  %2 = bitcast %"class.extensions::NetworkingPrivateStartActivateFunction"* %0 to %class.ExtensionFunction*
  %3 = tail call %"class.ExtensionFunction::ResponseValueObject"* @_ZN17ExtensionFunction11NoArgumentsEv(%class.ExtensionFunction* %2) #10
  tail call void @_ZN17ExtensionFunction7RespondENSt3__110unique_ptrINS_19ResponseValueObjectENS0_14default_deleteIS2_EEEE(%class.ExtensionFunction* %2, %"class.ExtensionFunction::ResponseValueObject"* %3) #10
  ret void
}

; Function Attrs: nounwind ssp uwtable
define hidden void @_ZN10extensions38NetworkingPrivateStartActivateFunction7FailureERKNSt3__112basic_stringIcNS1_11char_traitsIcEENS1_9allocatorIcEEEE(%"class.extensions::NetworkingPrivateStartActivateFunction"*, %"class.std::__1::basic_string"* nocapture readonly dereferenceable(24)) #1 align 2 {
  %3 = alloca %"class.std::__1::basic_string", align 8
  %4 = bitcast %"class.extensions::NetworkingPrivateStartActivateFunction"* %0 to %class.ExtensionFunction*
  %5 = bitcast %"class.std::__1::basic_string"* %1 to %"struct.std::__1::basic_string<char, std::__1::char_traits<char>, std::__1::allocator<char> >::__short"*
  %6 = getelementptr inbounds %"struct.std::__1::basic_string<char, std::__1::char_traits<char>, std::__1::allocator<char> >::__short", %"struct.std::__1::basic_string<char, std::__1::char_traits<char>, std::__1::allocator<char> >::__short"* %5, i64 0, i32 1, i32 0
  %7 = load i8, i8* %6, align 1
  %8 = icmp slt i8 %7, 0
  br i1 %8, label %12, label %9

9:                                                ; preds = %2
  %10 = bitcast %"class.std::__1::basic_string"* %3 to i8*
  %11 = bitcast %"class.std::__1::basic_string"* %1 to i8*
  call void @llvm.memcpy.p0i8.p0i8.i64(i8* nonnull align 8 %10, i8* align 8 %11, i64 24, i1 false) #10
  br label %17

12:                                               ; preds = %2
  %13 = getelementptr inbounds %"class.std::__1::basic_string", %"class.std::__1::basic_string"* %1, i64 0, i32 0, i32 0, i32 0, i32 0, i32 0, i32 0
  %14 = load i8*, i8** %13, align 8
  %15 = getelementptr inbounds %"class.std::__1::basic_string", %"class.std::__1::basic_string"* %1, i64 0, i32 0, i32 0, i32 0, i32 0, i32 0, i32 1
  %16 = load i64, i64* %15, align 8
  call void @_ZNSt3__112basic_stringIcNS_11char_traitsIcEENS_9allocatorIcEEE25__init_copy_ctor_externalEPKcm(%"class.std::__1::basic_string"* nonnull %3, i8* %14, i64 %16) #10
  br label %17

17:                                               ; preds = %9, %12
  %18 = call %"class.ExtensionFunction::ResponseValueObject"* @_ZN17ExtensionFunction5ErrorENSt3__112basic_stringIcNS0_11char_traitsIcEENS0_9allocatorIcEEEE(%class.ExtensionFunction* %4, %"class.std::__1::basic_string"* nonnull %3) #10
  call void @_ZN17ExtensionFunction7RespondENSt3__110unique_ptrINS_19ResponseValueObjectENS0_14default_deleteIS2_EEEE(%class.ExtensionFunction* %4, %"class.ExtensionFunction::ResponseValueObject"* %18) #10
  %19 = bitcast %"class.std::__1::basic_string"* %3 to %"struct.std::__1::basic_string<char, std::__1::char_traits<char>, std::__1::allocator<char> >::__short"*
  %20 = getelementptr inbounds %"struct.std::__1::basic_string<char, std::__1::char_traits<char>, std::__1::allocator<char> >::__short", %"struct.std::__1::basic_string<char, std::__1::char_traits<char>, std::__1::allocator<char> >::__short"* %19, i64 0, i32 1, i32 0
  %21 = load i8, i8* %20, align 1
  %22 = icmp slt i8 %21, 0
  br i1 %22, label %23, label %26

23:                                               ; preds = %17
  %24 = getelementptr inbounds %"class.std::__1::basic_string", %"class.std::__1::basic_string"* %3, i64 0, i32 0, i32 0, i32 0, i32 0, i32 0, i32 0
  %25 = load i8*, i8** %24, align 8
  call void @_ZdlPv(i8* %25) #11
  br label %26

26:                                               ; preds = %17, %23
  ret void
}

; Function Attrs: nounwind ssp uwtable
define hidden void @_ZN10extensions47NetworkingPrivateGetCaptivePortalStatusFunctionD2Ev(%"class.extensions::NetworkingPrivateGetCaptivePortalStatusFunction"*) unnamed_addr #1 align 2 {
  %2 = bitcast %"class.extensions::NetworkingPrivateGetCaptivePortalStatusFunction"* %0 to %class.ExtensionFunction*
  tail call void @_ZN17ExtensionFunctionD2Ev(%class.ExtensionFunction* %2) #10
  ret void
}

; Function Attrs: nounwind ssp uwtable
define hidden void @_ZN10extensions47NetworkingPrivateGetCaptivePortalStatusFunctionD0Ev(%"class.extensions::NetworkingPrivateGetCaptivePortalStatusFunction"*) unnamed_addr #1 align 2 {
  %2 = bitcast %"class.extensions::NetworkingPrivateGetCaptivePortalStatusFunction"* %0 to %class.ExtensionFunction*
  tail call void @_ZN17ExtensionFunctionD2Ev(%class.ExtensionFunction* %2) #10
  %3 = bitcast %"class.extensions::NetworkingPrivateGetCaptivePortalStatusFunction"* %0 to i8*
  tail call void @_ZdlPv(i8* %3) #11
  ret void
}

; Function Attrs: nounwind ssp uwtable
define hidden %"class.ExtensionFunction::ResponseActionObject"* @_ZN10extensions47NetworkingPrivateGetCaptivePortalStatusFunction3RunEv(%"class.extensions::NetworkingPrivateGetCaptivePortalStatusFunction"*) unnamed_addr #1 align 2 {
  %2 = alloca %"class.base::OnceCallback.171", align 8
  %3 = alloca %"class.base::OnceCallback.171", align 8
  %4 = bitcast %"class.extensions::NetworkingPrivateGetCaptivePortalStatusFunction"* %0 to %class.ExtensionFunction*
  %5 = getelementptr inbounds %"class.extensions::NetworkingPrivateGetCaptivePortalStatusFunction", %"class.extensions::NetworkingPrivateGetCaptivePortalStatusFunction"* %0, i64 0, i32 0, i32 4, i32 0, i32 0, i32 0
  %6 = load %"class.base::ListValue"*, %"class.base::ListValue"** %5, align 8
  %7 = tail call %"struct.extensions::api::networking_private::GetCaptivePortalStatus::Params"* @_ZN10extensions3api18networking_private22GetCaptivePortalStatus6Params6CreateERKN4base9ListValueE(%"class.base::ListValue"* dereferenceable(32) %6) #10
  %8 = icmp eq %"struct.extensions::api::networking_private::GetCaptivePortalStatus::Params"* %7, null
  br i1 %8, label %49, label %9

9:                                                ; preds = %1
  %10 = tail call %"class.content::BrowserContext"* @_ZNK17ExtensionFunction15browser_contextEv(%class.ExtensionFunction* %4) #10
  %11 = tail call %"class.extensions::NetworkingPrivateDelegate"* @_ZN10extensions32NetworkingPrivateDelegateFactory20GetForBrowserContextEPN7content14BrowserContextE(%"class.content::BrowserContext"* %10) #10
  %12 = getelementptr inbounds %"struct.extensions::api::networking_private::GetCaptivePortalStatus::Params", %"struct.extensions::api::networking_private::GetCaptivePortalStatus::Params"* %7, i64 0, i32 0
  %13 = tail call i8* @_Znwm(i64 56) #11, !noalias !110
  %14 = bitcast i8* %13 to %"class.base::internal::BindStateBase"*
  tail call void @_ZN4base8internal13BindStateBaseC2EPFvvEPFvPKS1_E(%"class.base::internal::BindStateBase"* nonnull %14, void ()* bitcast (void (%"class.base::internal::BindStateBase"*, %"class.std::__1::basic_string"*)* @_ZN4base8internal7InvokerINS0_9BindStateIMN10extensions47NetworkingPrivateGetCaptivePortalStatusFunctionEFvRKNSt3__112basic_stringIcNS5_11char_traitsIcEENS5_9allocatorIcEEEEEJ13scoped_refptrIS4_EEEEFvSD_EE7RunOnceEPNS0_13BindStateBaseESD_ to void ()*), void (%"class.base::internal::BindStateBase"*)* nonnull @_ZN4base8internal9BindStateIMN10extensions47NetworkingPrivateGetCaptivePortalStatusFunctionEFvRKNSt3__112basic_stringIcNS4_11char_traitsIcEENS4_9allocatorIcEEEEEJ13scoped_refptrIS3_EEE7DestroyEPKNS0_13BindStateBaseE) #10, !noalias !110
  %15 = getelementptr inbounds i8, i8* %13, i64 32
  %16 = bitcast i8* %15 to <2 x i64>*
  store <2 x i64> <i64 ptrtoint (void (%"class.extensions::NetworkingPrivateGetCaptivePortalStatusFunction"*, %"class.std::__1::basic_string"*)* @_ZN10extensions47NetworkingPrivateGetCaptivePortalStatusFunction7SuccessERKNSt3__112basic_stringIcNS1_11char_traitsIcEENS1_9allocatorIcEEEE to i64), i64 0>, <2 x i64>* %16, align 8, !noalias !110
  %17 = getelementptr inbounds i8, i8* %13, i64 48
  %18 = bitcast i8* %17 to %"class.extensions::NetworkingPrivateGetCaptivePortalStatusFunction"**
  store %"class.extensions::NetworkingPrivateGetCaptivePortalStatusFunction"* %0, %"class.extensions::NetworkingPrivateGetCaptivePortalStatusFunction"** %18, align 8, !noalias !110
  %19 = icmp eq %"class.extensions::NetworkingPrivateGetCaptivePortalStatusFunction"* %0, null
  br i1 %19, label %23, label %20

20:                                               ; preds = %9
  %21 = getelementptr inbounds %"class.extensions::NetworkingPrivateGetCaptivePortalStatusFunction", %"class.extensions::NetworkingPrivateGetCaptivePortalStatusFunction"* %0, i64 0, i32 0, i32 1, i32 0, i32 0, i32 0, i32 0, i32 0, i32 0, i32 0, i32 0
  %22 = atomicrmw add i32* %21, i32 1 monotonic, !noalias !110
  br label %23

23:                                               ; preds = %9, %20
  %24 = bitcast %"class.base::OnceCallback.171"* %2 to i8**
  store i8* %13, i8** %24, align 8, !alias.scope !110
  %25 = tail call i8* @_Znwm(i64 56) #11, !noalias !115
  %26 = bitcast i8* %25 to %"class.base::internal::BindStateBase"*
  tail call void @_ZN4base8internal13BindStateBaseC2EPFvvEPFvPKS1_E(%"class.base::internal::BindStateBase"* nonnull %26, void ()* bitcast (void (%"class.base::internal::BindStateBase"*, %"class.std::__1::basic_string"*)* @_ZN4base8internal7InvokerINS0_9BindStateIMN10extensions47NetworkingPrivateGetCaptivePortalStatusFunctionEFvRKNSt3__112basic_stringIcNS5_11char_traitsIcEENS5_9allocatorIcEEEEEJ13scoped_refptrIS4_EEEEFvSD_EE7RunOnceEPNS0_13BindStateBaseESD_ to void ()*), void (%"class.base::internal::BindStateBase"*)* nonnull @_ZN4base8internal9BindStateIMN10extensions47NetworkingPrivateGetCaptivePortalStatusFunctionEFvRKNSt3__112basic_stringIcNS4_11char_traitsIcEENS4_9allocatorIcEEEEEJ13scoped_refptrIS3_EEE7DestroyEPKNS0_13BindStateBaseE) #10, !noalias !115
  %27 = getelementptr inbounds i8, i8* %25, i64 32
  %28 = bitcast i8* %27 to <2 x i64>*
  store <2 x i64> <i64 ptrtoint (void (%"class.extensions::NetworkingPrivateGetCaptivePortalStatusFunction"*, %"class.std::__1::basic_string"*)* @_ZN10extensions47NetworkingPrivateGetCaptivePortalStatusFunction7FailureERKNSt3__112basic_stringIcNS1_11char_traitsIcEENS1_9allocatorIcEEEE to i64), i64 0>, <2 x i64>* %28, align 8, !noalias !115
  %29 = getelementptr inbounds i8, i8* %25, i64 48
  %30 = bitcast i8* %29 to %"class.extensions::NetworkingPrivateGetCaptivePortalStatusFunction"**
  store %"class.extensions::NetworkingPrivateGetCaptivePortalStatusFunction"* %0, %"class.extensions::NetworkingPrivateGetCaptivePortalStatusFunction"** %30, align 8, !noalias !115
  br i1 %19, label %34, label %31

31:                                               ; preds = %23
  %32 = getelementptr inbounds %"class.extensions::NetworkingPrivateGetCaptivePortalStatusFunction", %"class.extensions::NetworkingPrivateGetCaptivePortalStatusFunction"* %0, i64 0, i32 0, i32 1, i32 0, i32 0, i32 0, i32 0, i32 0, i32 0, i32 0, i32 0
  %33 = atomicrmw add i32* %32, i32 1 monotonic, !noalias !115
  br label %34

34:                                               ; preds = %23, %31
  %35 = bitcast %"class.base::OnceCallback.171"* %3 to i8**
  store i8* %25, i8** %35, align 8, !alias.scope !115
  %36 = bitcast %"class.extensions::NetworkingPrivateDelegate"* %11 to void (%"class.extensions::NetworkingPrivateDelegate"*, %"class.std::__1::basic_string"*, %"class.base::OnceCallback.171"*, %"class.base::OnceCallback.171"*)***
  %37 = load void (%"class.extensions::NetworkingPrivateDelegate"*, %"class.std::__1::basic_string"*, %"class.base::OnceCallback.171"*, %"class.base::OnceCallback.171"*)**, void (%"class.extensions::NetworkingPrivateDelegate"*, %"class.std::__1::basic_string"*, %"class.base::OnceCallback.171"*, %"class.base::OnceCallback.171"*)*** %36, align 8
  %38 = getelementptr inbounds void (%"class.extensions::NetworkingPrivateDelegate"*, %"class.std::__1::basic_string"*, %"class.base::OnceCallback.171"*, %"class.base::OnceCallback.171"*)*, void (%"class.extensions::NetworkingPrivateDelegate"*, %"class.std::__1::basic_string"*, %"class.base::OnceCallback.171"*, %"class.base::OnceCallback.171"*)** %37, i64 13
  %39 = load void (%"class.extensions::NetworkingPrivateDelegate"*, %"class.std::__1::basic_string"*, %"class.base::OnceCallback.171"*, %"class.base::OnceCallback.171"*)*, void (%"class.extensions::NetworkingPrivateDelegate"*, %"class.std::__1::basic_string"*, %"class.base::OnceCallback.171"*, %"class.base::OnceCallback.171"*)** %38, align 8
  call void %39(%"class.extensions::NetworkingPrivateDelegate"* %11, %"class.std::__1::basic_string"* dereferenceable(24) %12, %"class.base::OnceCallback.171"* nonnull %2, %"class.base::OnceCallback.171"* nonnull %3) #10
  %40 = getelementptr inbounds %"class.base::OnceCallback.171", %"class.base::OnceCallback.171"* %3, i64 0, i32 0
  call void @_ZN4base8internal12CallbackBaseD2Ev(%"class.base::internal::CallbackBase"* nonnull %40) #10
  %41 = getelementptr inbounds %"class.base::OnceCallback.171", %"class.base::OnceCallback.171"* %2, i64 0, i32 0
  call void @_ZN4base8internal12CallbackBaseD2Ev(%"class.base::internal::CallbackBase"* nonnull %41) #10
  %42 = getelementptr inbounds %"class.extensions::NetworkingPrivateGetCaptivePortalStatusFunction", %"class.extensions::NetworkingPrivateGetCaptivePortalStatusFunction"* %0, i64 0, i32 0, i32 23
  %43 = load i8, i8* %42, align 8, !range !7
  %44 = icmp eq i8 %43, 0
  br i1 %44, label %47, label %45

45:                                               ; preds = %34
  %46 = call %"class.ExtensionFunction::ResponseActionObject"* @_ZN17ExtensionFunction16AlreadyRespondedEv(%class.ExtensionFunction* %4) #10
  br label %55

47:                                               ; preds = %34
  %48 = call %"class.ExtensionFunction::ResponseActionObject"* @_ZN17ExtensionFunction12RespondLaterEv(%class.ExtensionFunction* %4) #10
  br label %55

49:                                               ; preds = %1
  %50 = bitcast %"class.extensions::NetworkingPrivateGetCaptivePortalStatusFunction"* %0 to void (%class.ExtensionFunction*)***
  %51 = load void (%class.ExtensionFunction*)**, void (%class.ExtensionFunction*)*** %50, align 8
  %52 = getelementptr inbounds void (%class.ExtensionFunction*)*, void (%class.ExtensionFunction*)** %51, i64 6
  %53 = load void (%class.ExtensionFunction*)*, void (%class.ExtensionFunction*)** %52, align 8
  tail call void %53(%class.ExtensionFunction* %4) #10
  %54 = tail call %"class.ExtensionFunction::ResponseActionObject"* @_ZN17ExtensionFunction17ValidationFailureEPS_(%class.ExtensionFunction* %4) #10
  br label %58

55:                                               ; preds = %45, %47
  %56 = phi %"class.ExtensionFunction::ResponseActionObject"* [ %48, %47 ], [ %46, %45 ]
  call void @_ZN10extensions3api18networking_private22GetCaptivePortalStatus6ParamsD1Ev(%"struct.extensions::api::networking_private::GetCaptivePortalStatus::Params"* nonnull %7) #10
  %57 = bitcast %"struct.extensions::api::networking_private::GetCaptivePortalStatus::Params"* %7 to i8*
  call void @_ZdlPv(i8* %57) #11
  br label %58

58:                                               ; preds = %49, %55
  %59 = phi %"class.ExtensionFunction::ResponseActionObject"* [ %54, %49 ], [ %56, %55 ]
  ret %"class.ExtensionFunction::ResponseActionObject"* %59
}

declare %"struct.extensions::api::networking_private::GetCaptivePortalStatus::Params"* @_ZN10extensions3api18networking_private22GetCaptivePortalStatus6Params6CreateERKN4base9ListValueE(%"class.base::ListValue"* dereferenceable(32)) local_unnamed_addr #4

; Function Attrs: nounwind ssp uwtable
define hidden void @_ZN10extensions47NetworkingPrivateGetCaptivePortalStatusFunction7SuccessERKNSt3__112basic_stringIcNS1_11char_traitsIcEENS1_9allocatorIcEEEE(%"class.extensions::NetworkingPrivateGetCaptivePortalStatusFunction"*, %"class.std::__1::basic_string"* dereferenceable(24)) #1 align 2 {
  %3 = alloca %"class.std::__1::vector.65", align 8
  %4 = alloca i32, align 4
  %5 = bitcast %"class.extensions::NetworkingPrivateGetCaptivePortalStatusFunction"* %0 to %class.ExtensionFunction*
  %6 = bitcast i32* %4 to i8*
  call void @llvm.lifetime.start.p0i8(i64 4, i8* nonnull %6) #10
  %7 = tail call i32 @_ZN10extensions3api18networking_private24ParseCaptivePortalStatusERKNSt3__112basic_stringIcNS2_11char_traitsIcEENS2_9allocatorIcEEEE(%"class.std::__1::basic_string"* dereferenceable(24) %1) #10
  store i32 %7, i32* %4, align 4
  call void @_ZN10extensions3api18networking_private22GetCaptivePortalStatus7Results6CreateERKNS1_19CaptivePortalStatusE(%"class.std::__1::vector.65"* nonnull sret %3, i32* nonnull dereferenceable(4) %4) #10
  %8 = call %"class.ExtensionFunction::ResponseValueObject"* @_ZN17ExtensionFunction12ArgumentListENSt3__16vectorIN4base5ValueENS0_9allocatorIS3_EEEE(%class.ExtensionFunction* %5, %"class.std::__1::vector.65"* nonnull %3) #10
  call void @_ZN17ExtensionFunction7RespondENSt3__110unique_ptrINS_19ResponseValueObjectENS0_14default_deleteIS2_EEEE(%class.ExtensionFunction* %5, %"class.ExtensionFunction::ResponseValueObject"* %8) #10
  %9 = getelementptr inbounds %"class.std::__1::vector.65", %"class.std::__1::vector.65"* %3, i64 0, i32 0, i32 0
  %10 = load %"class.base::Value"*, %"class.base::Value"** %9, align 8
  %11 = icmp eq %"class.base::Value"* %10, null
  br i1 %11, label %26, label %12

12:                                               ; preds = %2
  %13 = bitcast %"class.base::Value"* %10 to i8*
  %14 = getelementptr inbounds %"class.std::__1::vector.65", %"class.std::__1::vector.65"* %3, i64 0, i32 0, i32 1
  %15 = load %"class.base::Value"*, %"class.base::Value"** %14, align 8
  %16 = icmp eq %"class.base::Value"* %15, %10
  br i1 %16, label %24, label %17

17:                                               ; preds = %12, %17
  %18 = phi %"class.base::Value"* [ %19, %17 ], [ %15, %12 ]
  %19 = getelementptr inbounds %"class.base::Value", %"class.base::Value"* %18, i64 -1
  call void @_ZN4base5ValueD1Ev(%"class.base::Value"* %19) #10
  %20 = icmp eq %"class.base::Value"* %19, %10
  br i1 %20, label %21, label %17

21:                                               ; preds = %17
  %22 = bitcast %"class.std::__1::vector.65"* %3 to i8**
  %23 = load i8*, i8** %22, align 8
  br label %24

24:                                               ; preds = %21, %12
  %25 = phi i8* [ %23, %21 ], [ %13, %12 ]
  store %"class.base::Value"* %10, %"class.base::Value"** %14, align 8
  call void @_ZdlPv(i8* %25) #11
  br label %26

26:                                               ; preds = %2, %24
  call void @llvm.lifetime.end.p0i8(i64 4, i8* nonnull %6) #10
  ret void
}

; Function Attrs: nounwind ssp uwtable
define hidden void @_ZN10extensions47NetworkingPrivateGetCaptivePortalStatusFunction7FailureERKNSt3__112basic_stringIcNS1_11char_traitsIcEENS1_9allocatorIcEEEE(%"class.extensions::NetworkingPrivateGetCaptivePortalStatusFunction"*, %"class.std::__1::basic_string"* nocapture readonly dereferenceable(24)) #1 align 2 {
  %3 = alloca %"class.std::__1::basic_string", align 8
  %4 = bitcast %"class.extensions::NetworkingPrivateGetCaptivePortalStatusFunction"* %0 to %class.ExtensionFunction*
  %5 = bitcast %"class.std::__1::basic_string"* %1 to %"struct.std::__1::basic_string<char, std::__1::char_traits<char>, std::__1::allocator<char> >::__short"*
  %6 = getelementptr inbounds %"struct.std::__1::basic_string<char, std::__1::char_traits<char>, std::__1::allocator<char> >::__short", %"struct.std::__1::basic_string<char, std::__1::char_traits<char>, std::__1::allocator<char> >::__short"* %5, i64 0, i32 1, i32 0
  %7 = load i8, i8* %6, align 1
  %8 = icmp slt i8 %7, 0
  br i1 %8, label %12, label %9

9:                                                ; preds = %2
  %10 = bitcast %"class.std::__1::basic_string"* %3 to i8*
  %11 = bitcast %"class.std::__1::basic_string"* %1 to i8*
  call void @llvm.memcpy.p0i8.p0i8.i64(i8* nonnull align 8 %10, i8* align 8 %11, i64 24, i1 false) #10
  br label %17

12:                                               ; preds = %2
  %13 = getelementptr inbounds %"class.std::__1::basic_string", %"class.std::__1::basic_string"* %1, i64 0, i32 0, i32 0, i32 0, i32 0, i32 0, i32 0
  %14 = load i8*, i8** %13, align 8
  %15 = getelementptr inbounds %"class.std::__1::basic_string", %"class.std::__1::basic_string"* %1, i64 0, i32 0, i32 0, i32 0, i32 0, i32 0, i32 1
  %16 = load i64, i64* %15, align 8
  call void @_ZNSt3__112basic_stringIcNS_11char_traitsIcEENS_9allocatorIcEEE25__init_copy_ctor_externalEPKcm(%"class.std::__1::basic_string"* nonnull %3, i8* %14, i64 %16) #10
  br label %17

17:                                               ; preds = %9, %12
  %18 = call %"class.ExtensionFunction::ResponseValueObject"* @_ZN17ExtensionFunction5ErrorENSt3__112basic_stringIcNS0_11char_traitsIcEENS0_9allocatorIcEEEE(%class.ExtensionFunction* %4, %"class.std::__1::basic_string"* nonnull %3) #10
  call void @_ZN17ExtensionFunction7RespondENSt3__110unique_ptrINS_19ResponseValueObjectENS0_14default_deleteIS2_EEEE(%class.ExtensionFunction* %4, %"class.ExtensionFunction::ResponseValueObject"* %18) #10
  %19 = bitcast %"class.std::__1::basic_string"* %3 to %"struct.std::__1::basic_string<char, std::__1::char_traits<char>, std::__1::allocator<char> >::__short"*
  %20 = getelementptr inbounds %"struct.std::__1::basic_string<char, std::__1::char_traits<char>, std::__1::allocator<char> >::__short", %"struct.std::__1::basic_string<char, std::__1::char_traits<char>, std::__1::allocator<char> >::__short"* %19, i64 0, i32 1, i32 0
  %21 = load i8, i8* %20, align 1
  %22 = icmp slt i8 %21, 0
  br i1 %22, label %23, label %26

23:                                               ; preds = %17
  %24 = getelementptr inbounds %"class.std::__1::basic_string", %"class.std::__1::basic_string"* %3, i64 0, i32 0, i32 0, i32 0, i32 0, i32 0, i32 0
  %25 = load i8*, i8** %24, align 8
  call void @_ZdlPv(i8* %25) #11
  br label %26

26:                                               ; preds = %17, %23
  ret void
}

declare void @_ZN10extensions3api18networking_private22GetCaptivePortalStatus7Results6CreateERKNS1_19CaptivePortalStatusE(%"class.std::__1::vector.65"* sret, i32* dereferenceable(4)) local_unnamed_addr #4

declare i32 @_ZN10extensions3api18networking_private24ParseCaptivePortalStatusERKNSt3__112basic_stringIcNS2_11char_traitsIcEENS2_9allocatorIcEEEE(%"class.std::__1::basic_string"* dereferenceable(24)) local_unnamed_addr #4

; Function Attrs: nounwind ssp uwtable
define hidden void @_ZN10extensions42NetworkingPrivateUnlockCellularSimFunctionD2Ev(%"class.extensions::NetworkingPrivateUnlockCellularSimFunction"*) unnamed_addr #1 align 2 {
  %2 = bitcast %"class.extensions::NetworkingPrivateUnlockCellularSimFunction"* %0 to %class.ExtensionFunction*
  tail call void @_ZN17ExtensionFunctionD2Ev(%class.ExtensionFunction* %2) #10
  ret void
}

; Function Attrs: nounwind ssp uwtable
define hidden void @_ZN10extensions42NetworkingPrivateUnlockCellularSimFunctionD0Ev(%"class.extensions::NetworkingPrivateUnlockCellularSimFunction"*) unnamed_addr #1 align 2 {
  %2 = bitcast %"class.extensions::NetworkingPrivateUnlockCellularSimFunction"* %0 to %class.ExtensionFunction*
  tail call void @_ZN17ExtensionFunctionD2Ev(%class.ExtensionFunction* %2) #10
  %3 = bitcast %"class.extensions::NetworkingPrivateUnlockCellularSimFunction"* %0 to i8*
  tail call void @_ZdlPv(i8* %3) #11
  ret void
}

; Function Attrs: nounwind ssp uwtable
define hidden %"class.ExtensionFunction::ResponseActionObject"* @_ZN10extensions42NetworkingPrivateUnlockCellularSimFunction3RunEv(%"class.extensions::NetworkingPrivateUnlockCellularSimFunction"*) unnamed_addr #1 align 2 {
  %2 = alloca %"class.extensions::Feature::Availability", align 8
  %3 = alloca %"class.std::__1::basic_string", align 8
  %4 = alloca %"class.std::__1::basic_string", align 8
  %5 = alloca %"class.std::__1::basic_string", align 8
  %6 = alloca %"class.base::OnceCallback.109", align 8
  %7 = alloca %"class.base::OnceCallback.171", align 8
  %8 = bitcast %"class.extensions::NetworkingPrivateUnlockCellularSimFunction"* %0 to %class.ExtensionFunction*
  %9 = getelementptr inbounds %"class.extensions::NetworkingPrivateUnlockCellularSimFunction", %"class.extensions::NetworkingPrivateUnlockCellularSimFunction"* %0, i64 0, i32 0, i32 3, i32 0
  %10 = load %"class.extensions::Extension"*, %"class.extensions::Extension"** %9, align 8
  %11 = getelementptr inbounds %"class.extensions::NetworkingPrivateUnlockCellularSimFunction", %"class.extensions::NetworkingPrivateUnlockCellularSimFunction"* %0, i64 0, i32 0, i32 19
  %12 = load i32, i32* %11, align 8
  %13 = getelementptr inbounds %"class.extensions::NetworkingPrivateUnlockCellularSimFunction", %"class.extensions::NetworkingPrivateUnlockCellularSimFunction"* %0, i64 0, i32 0, i32 13
  %14 = bitcast %"class.extensions::Feature::Availability"* %2 to i8*
  call void @llvm.lifetime.start.p0i8(i64 32, i8* nonnull %14) #10
  %15 = tail call %"class.extensions::ExtensionAPI"* @_ZN10extensions12ExtensionAPI17GetSharedInstanceEv() #10
  %16 = bitcast %"class.std::__1::basic_string"* %3 to i8*
  call void @llvm.lifetime.start.p0i8(i64 24, i8* nonnull %16) #10
  %17 = bitcast %"class.std::__1::basic_string"* %3 to %"struct.std::__1::basic_string<char, std::__1::char_traits<char>, std::__1::allocator<char> >::__short"*
  %18 = getelementptr inbounds %"struct.std::__1::basic_string<char, std::__1::char_traits<char>, std::__1::allocator<char> >::__short", %"struct.std::__1::basic_string<char, std::__1::char_traits<char>, std::__1::allocator<char> >::__short"* %17, i64 0, i32 1, i32 0
  store i8 17, i8* %18, align 1
  call void @llvm.memcpy.p0i8.p0i8.i64(i8* nonnull align 8 %16, i8* align 1 getelementptr inbounds ([18 x i8], [18 x i8]* @.str.28, i64 0, i64 0), i64 17, i1 false) #10
  %19 = getelementptr inbounds i8, i8* %16, i64 17
  store i8 0, i8* %19, align 1
  call void @_ZN10extensions12ExtensionAPI11IsAvailableERKNSt3__112basic_stringIcNS1_11char_traitsIcEENS1_9allocatorIcEEEEPKNS_9ExtensionENS_7Feature7ContextERK4GURLNS_16CheckAliasStatusE(%"class.extensions::Feature::Availability"* nonnull sret %2, %"class.extensions::ExtensionAPI"* %15, %"class.std::__1::basic_string"* nonnull dereferenceable(24) %3, %"class.extensions::Extension"* %10, i32 %12, %class.GURL* dereferenceable(120) %13, i32 1) #10
  %20 = getelementptr inbounds %"class.extensions::Feature::Availability", %"class.extensions::Feature::Availability"* %2, i64 0, i32 0
  %21 = load i32, i32* %20, align 8
  %22 = icmp eq i32 %21, 0
  %23 = getelementptr inbounds %"class.extensions::Feature::Availability", %"class.extensions::Feature::Availability"* %2, i64 0, i32 1
  %24 = bitcast %"class.std::__1::basic_string"* %23 to %"struct.std::__1::basic_string<char, std::__1::char_traits<char>, std::__1::allocator<char> >::__short"*
  %25 = getelementptr inbounds %"struct.std::__1::basic_string<char, std::__1::char_traits<char>, std::__1::allocator<char> >::__short", %"struct.std::__1::basic_string<char, std::__1::char_traits<char>, std::__1::allocator<char> >::__short"* %24, i64 0, i32 1, i32 0
  %26 = load i8, i8* %25, align 1
  %27 = icmp slt i8 %26, 0
  br i1 %27, label %28, label %31

28:                                               ; preds = %1
  %29 = getelementptr inbounds %"class.std::__1::basic_string", %"class.std::__1::basic_string"* %23, i64 0, i32 0, i32 0, i32 0, i32 0, i32 0, i32 0
  %30 = load i8*, i8** %29, align 8
  call void @_ZdlPv(i8* %30) #11
  br label %31

31:                                               ; preds = %28, %1
  %32 = load i8, i8* %18, align 1
  %33 = icmp slt i8 %32, 0
  br i1 %33, label %34, label %37

34:                                               ; preds = %31
  %35 = getelementptr inbounds %"class.std::__1::basic_string", %"class.std::__1::basic_string"* %3, i64 0, i32 0, i32 0, i32 0, i32 0, i32 0, i32 0
  %36 = load i8*, i8** %35, align 8
  call void @_ZdlPv(i8* %36) #11
  br label %37

37:                                               ; preds = %31, %34
  call void @llvm.lifetime.end.p0i8(i64 24, i8* nonnull %16) #10
  call void @llvm.lifetime.end.p0i8(i64 32, i8* nonnull %14) #10
  br i1 %22, label %52, label %38

38:                                               ; preds = %37
  %39 = call i8* @_Znwm(i64 48) #11
  %40 = getelementptr inbounds %"class.std::__1::basic_string", %"class.std::__1::basic_string"* %4, i64 0, i32 0, i32 0, i32 0, i32 0, i32 0, i32 0
  store i8* %39, i8** %40, align 8
  %41 = getelementptr inbounds %"class.std::__1::basic_string", %"class.std::__1::basic_string"* %4, i64 0, i32 0, i32 0, i32 0, i32 0, i32 0, i32 1
  %42 = bitcast i64* %41 to <2 x i64>*
  store <2 x i64> <i64 38, i64 -9223372036854775760>, <2 x i64>* %42, align 8
  call void @llvm.memcpy.p0i8.p0i8.i64(i8* nonnull align 1 %39, i8* align 16 getelementptr inbounds ([39 x i8], [39 x i8]* @_ZN10extensions12_GLOBAL__N_117kPrivateOnlyErrorE, i64 0, i64 0), i64 38, i1 false) #10
  %43 = getelementptr inbounds i8, i8* %39, i64 38
  store i8 0, i8* %43, align 1
  %44 = call %"class.ExtensionFunction::ResponseValueObject"* @_ZN17ExtensionFunction5ErrorENSt3__112basic_stringIcNS0_11char_traitsIcEENS0_9allocatorIcEEEE(%class.ExtensionFunction* %8, %"class.std::__1::basic_string"* nonnull %4) #10
  %45 = call %"class.ExtensionFunction::ResponseActionObject"* @_ZN17ExtensionFunction10RespondNowENSt3__110unique_ptrINS_19ResponseValueObjectENS0_14default_deleteIS2_EEEE(%class.ExtensionFunction* %8, %"class.ExtensionFunction::ResponseValueObject"* %44) #10
  %46 = bitcast %"class.std::__1::basic_string"* %4 to %"struct.std::__1::basic_string<char, std::__1::char_traits<char>, std::__1::allocator<char> >::__short"*
  %47 = getelementptr inbounds %"struct.std::__1::basic_string<char, std::__1::char_traits<char>, std::__1::allocator<char> >::__short", %"struct.std::__1::basic_string<char, std::__1::char_traits<char>, std::__1::allocator<char> >::__short"* %46, i64 0, i32 1, i32 0
  %48 = load i8, i8* %47, align 1
  %49 = icmp slt i8 %48, 0
  br i1 %49, label %50, label %135

50:                                               ; preds = %38
  %51 = load i8*, i8** %40, align 8
  call void @_ZdlPv(i8* %51) #11
  br label %135

52:                                               ; preds = %37
  %53 = getelementptr inbounds %"class.extensions::NetworkingPrivateUnlockCellularSimFunction", %"class.extensions::NetworkingPrivateUnlockCellularSimFunction"* %0, i64 0, i32 0, i32 4, i32 0, i32 0, i32 0
  %54 = load %"class.base::ListValue"*, %"class.base::ListValue"** %53, align 8
  %55 = call %"struct.extensions::api::networking_private::UnlockCellularSim::Params"* @_ZN10extensions3api18networking_private17UnlockCellularSim6Params6CreateERKN4base9ListValueE(%"class.base::ListValue"* dereferenceable(32) %54) #10
  %56 = icmp eq %"struct.extensions::api::networking_private::UnlockCellularSim::Params"* %55, null
  br i1 %56, label %126, label %57

57:                                               ; preds = %52
  %58 = call %"class.content::BrowserContext"* @_ZNK17ExtensionFunction15browser_contextEv(%class.ExtensionFunction* %8) #10
  %59 = call %"class.extensions::NetworkingPrivateDelegate"* @_ZN10extensions32NetworkingPrivateDelegateFactory20GetForBrowserContextEPN7content14BrowserContextE(%"class.content::BrowserContext"* %58) #10
  %60 = getelementptr inbounds %"struct.extensions::api::networking_private::UnlockCellularSim::Params", %"struct.extensions::api::networking_private::UnlockCellularSim::Params"* %55, i64 0, i32 0
  %61 = getelementptr inbounds %"struct.extensions::api::networking_private::UnlockCellularSim::Params", %"struct.extensions::api::networking_private::UnlockCellularSim::Params"* %55, i64 0, i32 1
  %62 = bitcast %"class.std::__1::basic_string"* %5 to i8*
  call void @llvm.lifetime.start.p0i8(i64 24, i8* nonnull %62) #10
  %63 = getelementptr inbounds %"struct.extensions::api::networking_private::UnlockCellularSim::Params", %"struct.extensions::api::networking_private::UnlockCellularSim::Params"* %55, i64 0, i32 2, i32 0, i32 0, i32 0
  %64 = load %"class.std::__1::basic_string"*, %"class.std::__1::basic_string"** %63, align 8
  %65 = icmp eq %"class.std::__1::basic_string"* %64, null
  br i1 %65, label %78, label %66

66:                                               ; preds = %57
  %67 = bitcast %"class.std::__1::basic_string"* %64 to %"struct.std::__1::basic_string<char, std::__1::char_traits<char>, std::__1::allocator<char> >::__short"*
  %68 = getelementptr inbounds %"struct.std::__1::basic_string<char, std::__1::char_traits<char>, std::__1::allocator<char> >::__short", %"struct.std::__1::basic_string<char, std::__1::char_traits<char>, std::__1::allocator<char> >::__short"* %67, i64 0, i32 1, i32 0
  %69 = load i8, i8* %68, align 1
  %70 = icmp slt i8 %69, 0
  br i1 %70, label %73, label %71

71:                                               ; preds = %66
  %72 = bitcast %"class.std::__1::basic_string"* %64 to i8*
  call void @llvm.memcpy.p0i8.p0i8.i64(i8* nonnull align 8 %62, i8* nonnull align 8 %72, i64 24, i1 false) #10
  br label %81

73:                                               ; preds = %66
  %74 = getelementptr inbounds %"class.std::__1::basic_string", %"class.std::__1::basic_string"* %64, i64 0, i32 0, i32 0, i32 0, i32 0, i32 0, i32 0
  %75 = load i8*, i8** %74, align 8
  %76 = getelementptr inbounds %"class.std::__1::basic_string", %"class.std::__1::basic_string"* %64, i64 0, i32 0, i32 0, i32 0, i32 0, i32 0, i32 1
  %77 = load i64, i64* %76, align 8
  call void @_ZNSt3__112basic_stringIcNS_11char_traitsIcEENS_9allocatorIcEEE25__init_copy_ctor_externalEPKcm(%"class.std::__1::basic_string"* nonnull %5, i8* %75, i64 %77) #10
  br label %81

78:                                               ; preds = %57
  %79 = bitcast %"class.std::__1::basic_string"* %5 to %"struct.std::__1::basic_string<char, std::__1::char_traits<char>, std::__1::allocator<char> >::__short"*
  %80 = getelementptr inbounds %"struct.std::__1::basic_string<char, std::__1::char_traits<char>, std::__1::allocator<char> >::__short", %"struct.std::__1::basic_string<char, std::__1::char_traits<char>, std::__1::allocator<char> >::__short"* %79, i64 0, i32 1, i32 0
  store i8 0, i8* %80, align 1
  store i8 0, i8* %62, align 8
  br label %81

81:                                               ; preds = %73, %71, %78
  %82 = call i8* @_Znwm(i64 56) #11, !noalias !120
  %83 = bitcast i8* %82 to %"class.base::internal::BindStateBase"*
  call void @_ZN4base8internal13BindStateBaseC2EPFvvEPFvPKS1_E(%"class.base::internal::BindStateBase"* nonnull %83, void ()* bitcast (void (%"class.base::internal::BindStateBase"*)* @_ZN4base8internal7InvokerINS0_9BindStateIMN10extensions42NetworkingPrivateUnlockCellularSimFunctionEFvvEJ13scoped_refptrIS4_EEEEFvvEE7RunOnceEPNS0_13BindStateBaseE to void ()*), void (%"class.base::internal::BindStateBase"*)* nonnull @_ZN4base8internal9BindStateIMN10extensions42NetworkingPrivateUnlockCellularSimFunctionEFvvEJ13scoped_refptrIS3_EEE7DestroyEPKNS0_13BindStateBaseE) #10, !noalias !120
  %84 = getelementptr inbounds i8, i8* %82, i64 32
  %85 = bitcast i8* %84 to <2 x i64>*
  store <2 x i64> <i64 ptrtoint (void (%"class.extensions::NetworkingPrivateUnlockCellularSimFunction"*)* @_ZN10extensions42NetworkingPrivateUnlockCellularSimFunction7SuccessEv to i64), i64 0>, <2 x i64>* %85, align 8, !noalias !120
  %86 = getelementptr inbounds i8, i8* %82, i64 48
  %87 = bitcast i8* %86 to %"class.extensions::NetworkingPrivateUnlockCellularSimFunction"**
  store %"class.extensions::NetworkingPrivateUnlockCellularSimFunction"* %0, %"class.extensions::NetworkingPrivateUnlockCellularSimFunction"** %87, align 8, !noalias !120
  %88 = icmp eq %"class.extensions::NetworkingPrivateUnlockCellularSimFunction"* %0, null
  br i1 %88, label %92, label %89

89:                                               ; preds = %81
  %90 = getelementptr inbounds %"class.extensions::NetworkingPrivateUnlockCellularSimFunction", %"class.extensions::NetworkingPrivateUnlockCellularSimFunction"* %0, i64 0, i32 0, i32 1, i32 0, i32 0, i32 0, i32 0, i32 0, i32 0, i32 0, i32 0
  %91 = atomicrmw add i32* %90, i32 1 monotonic, !noalias !120
  br label %92

92:                                               ; preds = %81, %89
  %93 = bitcast %"class.base::OnceCallback.109"* %6 to i8**
  store i8* %82, i8** %93, align 8, !alias.scope !120
  %94 = call i8* @_Znwm(i64 56) #11, !noalias !125
  %95 = bitcast i8* %94 to %"class.base::internal::BindStateBase"*
  call void @_ZN4base8internal13BindStateBaseC2EPFvvEPFvPKS1_E(%"class.base::internal::BindStateBase"* nonnull %95, void ()* bitcast (void (%"class.base::internal::BindStateBase"*, %"class.std::__1::basic_string"*)* @_ZN4base8internal7InvokerINS0_9BindStateIMN10extensions42NetworkingPrivateUnlockCellularSimFunctionEFvRKNSt3__112basic_stringIcNS5_11char_traitsIcEENS5_9allocatorIcEEEEEJ13scoped_refptrIS4_EEEEFvSD_EE7RunOnceEPNS0_13BindStateBaseESD_ to void ()*), void (%"class.base::internal::BindStateBase"*)* nonnull @_ZN4base8internal9BindStateIMN10extensions42NetworkingPrivateUnlockCellularSimFunctionEFvRKNSt3__112basic_stringIcNS4_11char_traitsIcEENS4_9allocatorIcEEEEEJ13scoped_refptrIS3_EEE7DestroyEPKNS0_13BindStateBaseE) #10, !noalias !125
  %96 = getelementptr inbounds i8, i8* %94, i64 32
  %97 = bitcast i8* %96 to <2 x i64>*
  store <2 x i64> <i64 ptrtoint (void (%"class.extensions::NetworkingPrivateUnlockCellularSimFunction"*, %"class.std::__1::basic_string"*)* @_ZN10extensions42NetworkingPrivateUnlockCellularSimFunction7FailureERKNSt3__112basic_stringIcNS1_11char_traitsIcEENS1_9allocatorIcEEEE to i64), i64 0>, <2 x i64>* %97, align 8, !noalias !125
  %98 = getelementptr inbounds i8, i8* %94, i64 48
  %99 = bitcast i8* %98 to %"class.extensions::NetworkingPrivateUnlockCellularSimFunction"**
  store %"class.extensions::NetworkingPrivateUnlockCellularSimFunction"* %0, %"class.extensions::NetworkingPrivateUnlockCellularSimFunction"** %99, align 8, !noalias !125
  br i1 %88, label %103, label %100

100:                                              ; preds = %92
  %101 = getelementptr inbounds %"class.extensions::NetworkingPrivateUnlockCellularSimFunction", %"class.extensions::NetworkingPrivateUnlockCellularSimFunction"* %0, i64 0, i32 0, i32 1, i32 0, i32 0, i32 0, i32 0, i32 0, i32 0, i32 0, i32 0
  %102 = atomicrmw add i32* %101, i32 1 monotonic, !noalias !125
  br label %103

103:                                              ; preds = %92, %100
  %104 = bitcast %"class.base::OnceCallback.171"* %7 to i8**
  store i8* %94, i8** %104, align 8, !alias.scope !125
  %105 = bitcast %"class.extensions::NetworkingPrivateDelegate"* %59 to void (%"class.extensions::NetworkingPrivateDelegate"*, %"class.std::__1::basic_string"*, %"class.std::__1::basic_string"*, %"class.std::__1::basic_string"*, %"class.base::OnceCallback.109"*, %"class.base::OnceCallback.171"*)***
  %106 = load void (%"class.extensions::NetworkingPrivateDelegate"*, %"class.std::__1::basic_string"*, %"class.std::__1::basic_string"*, %"class.std::__1::basic_string"*, %"class.base::OnceCallback.109"*, %"class.base::OnceCallback.171"*)**, void (%"class.extensions::NetworkingPrivateDelegate"*, %"class.std::__1::basic_string"*, %"class.std::__1::basic_string"*, %"class.std::__1::basic_string"*, %"class.base::OnceCallback.109"*, %"class.base::OnceCallback.171"*)*** %105, align 8
  %107 = getelementptr inbounds void (%"class.extensions::NetworkingPrivateDelegate"*, %"class.std::__1::basic_string"*, %"class.std::__1::basic_string"*, %"class.std::__1::basic_string"*, %"class.base::OnceCallback.109"*, %"class.base::OnceCallback.171"*)*, void (%"class.extensions::NetworkingPrivateDelegate"*, %"class.std::__1::basic_string"*, %"class.std::__1::basic_string"*, %"class.std::__1::basic_string"*, %"class.base::OnceCallback.109"*, %"class.base::OnceCallback.171"*)** %106, i64 14
  %108 = load void (%"class.extensions::NetworkingPrivateDelegate"*, %"class.std::__1::basic_string"*, %"class.std::__1::basic_string"*, %"class.std::__1::basic_string"*, %"class.base::OnceCallback.109"*, %"class.base::OnceCallback.171"*)*, void (%"class.extensions::NetworkingPrivateDelegate"*, %"class.std::__1::basic_string"*, %"class.std::__1::basic_string"*, %"class.std::__1::basic_string"*, %"class.base::OnceCallback.109"*, %"class.base::OnceCallback.171"*)** %107, align 8
  call void %108(%"class.extensions::NetworkingPrivateDelegate"* %59, %"class.std::__1::basic_string"* dereferenceable(24) %60, %"class.std::__1::basic_string"* dereferenceable(24) %61, %"class.std::__1::basic_string"* nonnull dereferenceable(24) %5, %"class.base::OnceCallback.109"* nonnull %6, %"class.base::OnceCallback.171"* nonnull %7) #10
  %109 = getelementptr inbounds %"class.base::OnceCallback.171", %"class.base::OnceCallback.171"* %7, i64 0, i32 0
  call void @_ZN4base8internal12CallbackBaseD2Ev(%"class.base::internal::CallbackBase"* nonnull %109) #10
  %110 = getelementptr inbounds %"class.base::OnceCallback.109", %"class.base::OnceCallback.109"* %6, i64 0, i32 0
  call void @_ZN4base8internal12CallbackBaseD2Ev(%"class.base::internal::CallbackBase"* nonnull %110) #10
  %111 = bitcast %"class.std::__1::basic_string"* %5 to %"struct.std::__1::basic_string<char, std::__1::char_traits<char>, std::__1::allocator<char> >::__short"*
  %112 = getelementptr inbounds %"struct.std::__1::basic_string<char, std::__1::char_traits<char>, std::__1::allocator<char> >::__short", %"struct.std::__1::basic_string<char, std::__1::char_traits<char>, std::__1::allocator<char> >::__short"* %111, i64 0, i32 1, i32 0
  %113 = load i8, i8* %112, align 1
  %114 = icmp slt i8 %113, 0
  br i1 %114, label %115, label %118

115:                                              ; preds = %103
  %116 = getelementptr inbounds %"class.std::__1::basic_string", %"class.std::__1::basic_string"* %5, i64 0, i32 0, i32 0, i32 0, i32 0, i32 0, i32 0
  %117 = load i8*, i8** %116, align 8
  call void @_ZdlPv(i8* %117) #11
  br label %118

118:                                              ; preds = %103, %115
  call void @llvm.lifetime.end.p0i8(i64 24, i8* nonnull %62) #10
  %119 = getelementptr inbounds %"class.extensions::NetworkingPrivateUnlockCellularSimFunction", %"class.extensions::NetworkingPrivateUnlockCellularSimFunction"* %0, i64 0, i32 0, i32 23
  %120 = load i8, i8* %119, align 8, !range !7
  %121 = icmp eq i8 %120, 0
  br i1 %121, label %124, label %122

122:                                              ; preds = %118
  %123 = call %"class.ExtensionFunction::ResponseActionObject"* @_ZN17ExtensionFunction16AlreadyRespondedEv(%class.ExtensionFunction* %8) #10
  br label %132

124:                                              ; preds = %118
  %125 = call %"class.ExtensionFunction::ResponseActionObject"* @_ZN17ExtensionFunction12RespondLaterEv(%class.ExtensionFunction* %8) #10
  br label %132

126:                                              ; preds = %52
  %127 = bitcast %"class.extensions::NetworkingPrivateUnlockCellularSimFunction"* %0 to void (%class.ExtensionFunction*)***
  %128 = load void (%class.ExtensionFunction*)**, void (%class.ExtensionFunction*)*** %127, align 8
  %129 = getelementptr inbounds void (%class.ExtensionFunction*)*, void (%class.ExtensionFunction*)** %128, i64 6
  %130 = load void (%class.ExtensionFunction*)*, void (%class.ExtensionFunction*)** %129, align 8
  call void %130(%class.ExtensionFunction* %8) #10
  %131 = call %"class.ExtensionFunction::ResponseActionObject"* @_ZN17ExtensionFunction17ValidationFailureEPS_(%class.ExtensionFunction* %8) #10
  br label %135

132:                                              ; preds = %122, %124
  %133 = phi %"class.ExtensionFunction::ResponseActionObject"* [ %125, %124 ], [ %123, %122 ]
  call void @_ZN10extensions3api18networking_private17UnlockCellularSim6ParamsD1Ev(%"struct.extensions::api::networking_private::UnlockCellularSim::Params"* nonnull %55) #10
  %134 = bitcast %"struct.extensions::api::networking_private::UnlockCellularSim::Params"* %55 to i8*
  call void @_ZdlPv(i8* %134) #11
  br label %135

135:                                              ; preds = %132, %126, %50, %38
  %136 = phi %"class.ExtensionFunction::ResponseActionObject"* [ %45, %38 ], [ %45, %50 ], [ %131, %126 ], [ %133, %132 ]
  ret %"class.ExtensionFunction::ResponseActionObject"* %136
}

declare %"struct.extensions::api::networking_private::UnlockCellularSim::Params"* @_ZN10extensions3api18networking_private17UnlockCellularSim6Params6CreateERKN4base9ListValueE(%"class.base::ListValue"* dereferenceable(32)) local_unnamed_addr #4

; Function Attrs: nounwind ssp uwtable
define hidden void @_ZN10extensions42NetworkingPrivateUnlockCellularSimFunction7SuccessEv(%"class.extensions::NetworkingPrivateUnlockCellularSimFunction"*) #1 align 2 {
  %2 = bitcast %"class.extensions::NetworkingPrivateUnlockCellularSimFunction"* %0 to %class.ExtensionFunction*
  %3 = tail call %"class.ExtensionFunction::ResponseValueObject"* @_ZN17ExtensionFunction11NoArgumentsEv(%class.ExtensionFunction* %2) #10
  tail call void @_ZN17ExtensionFunction7RespondENSt3__110unique_ptrINS_19ResponseValueObjectENS0_14default_deleteIS2_EEEE(%class.ExtensionFunction* %2, %"class.ExtensionFunction::ResponseValueObject"* %3) #10
  ret void
}

; Function Attrs: nounwind ssp uwtable
define hidden void @_ZN10extensions42NetworkingPrivateUnlockCellularSimFunction7FailureERKNSt3__112basic_stringIcNS1_11char_traitsIcEENS1_9allocatorIcEEEE(%"class.extensions::NetworkingPrivateUnlockCellularSimFunction"*, %"class.std::__1::basic_string"* nocapture readonly dereferenceable(24)) #1 align 2 {
  %3 = alloca %"class.std::__1::basic_string", align 8
  %4 = bitcast %"class.extensions::NetworkingPrivateUnlockCellularSimFunction"* %0 to %class.ExtensionFunction*
  %5 = bitcast %"class.std::__1::basic_string"* %1 to %"struct.std::__1::basic_string<char, std::__1::char_traits<char>, std::__1::allocator<char> >::__short"*
  %6 = getelementptr inbounds %"struct.std::__1::basic_string<char, std::__1::char_traits<char>, std::__1::allocator<char> >::__short", %"struct.std::__1::basic_string<char, std::__1::char_traits<char>, std::__1::allocator<char> >::__short"* %5, i64 0, i32 1, i32 0
  %7 = load i8, i8* %6, align 1
  %8 = icmp slt i8 %7, 0
  br i1 %8, label %12, label %9

9:                                                ; preds = %2
  %10 = bitcast %"class.std::__1::basic_string"* %3 to i8*
  %11 = bitcast %"class.std::__1::basic_string"* %1 to i8*
  call void @llvm.memcpy.p0i8.p0i8.i64(i8* nonnull align 8 %10, i8* align 8 %11, i64 24, i1 false) #10
  br label %17

12:                                               ; preds = %2
  %13 = getelementptr inbounds %"class.std::__1::basic_string", %"class.std::__1::basic_string"* %1, i64 0, i32 0, i32 0, i32 0, i32 0, i32 0, i32 0
  %14 = load i8*, i8** %13, align 8
  %15 = getelementptr inbounds %"class.std::__1::basic_string", %"class.std::__1::basic_string"* %1, i64 0, i32 0, i32 0, i32 0, i32 0, i32 0, i32 1
  %16 = load i64, i64* %15, align 8
  call void @_ZNSt3__112basic_stringIcNS_11char_traitsIcEENS_9allocatorIcEEE25__init_copy_ctor_externalEPKcm(%"class.std::__1::basic_string"* nonnull %3, i8* %14, i64 %16) #10
  br label %17

17:                                               ; preds = %9, %12
  %18 = call %"class.ExtensionFunction::ResponseValueObject"* @_ZN17ExtensionFunction5ErrorENSt3__112basic_stringIcNS0_11char_traitsIcEENS0_9allocatorIcEEEE(%class.ExtensionFunction* %4, %"class.std::__1::basic_string"* nonnull %3) #10
  call void @_ZN17ExtensionFunction7RespondENSt3__110unique_ptrINS_19ResponseValueObjectENS0_14default_deleteIS2_EEEE(%class.ExtensionFunction* %4, %"class.ExtensionFunction::ResponseValueObject"* %18) #10
  %19 = bitcast %"class.std::__1::basic_string"* %3 to %"struct.std::__1::basic_string<char, std::__1::char_traits<char>, std::__1::allocator<char> >::__short"*
  %20 = getelementptr inbounds %"struct.std::__1::basic_string<char, std::__1::char_traits<char>, std::__1::allocator<char> >::__short", %"struct.std::__1::basic_string<char, std::__1::char_traits<char>, std::__1::allocator<char> >::__short"* %19, i64 0, i32 1, i32 0
  %21 = load i8, i8* %20, align 1
  %22 = icmp slt i8 %21, 0
  br i1 %22, label %23, label %26

23:                                               ; preds = %17
  %24 = getelementptr inbounds %"class.std::__1::basic_string", %"class.std::__1::basic_string"* %3, i64 0, i32 0, i32 0, i32 0, i32 0, i32 0, i32 0
  %25 = load i8*, i8** %24, align 8
  call void @_ZdlPv(i8* %25) #11
  br label %26

26:                                               ; preds = %17, %23
  ret void
}

; Function Attrs: nounwind ssp uwtable
define hidden void @_ZN10extensions44NetworkingPrivateSetCellularSimStateFunctionD2Ev(%"class.extensions::NetworkingPrivateSetCellularSimStateFunction"*) unnamed_addr #1 align 2 {
  %2 = bitcast %"class.extensions::NetworkingPrivateSetCellularSimStateFunction"* %0 to %class.ExtensionFunction*
  tail call void @_ZN17ExtensionFunctionD2Ev(%class.ExtensionFunction* %2) #10
  ret void
}

; Function Attrs: nounwind ssp uwtable
define hidden void @_ZN10extensions44NetworkingPrivateSetCellularSimStateFunctionD0Ev(%"class.extensions::NetworkingPrivateSetCellularSimStateFunction"*) unnamed_addr #1 align 2 {
  %2 = bitcast %"class.extensions::NetworkingPrivateSetCellularSimStateFunction"* %0 to %class.ExtensionFunction*
  tail call void @_ZN17ExtensionFunctionD2Ev(%class.ExtensionFunction* %2) #10
  %3 = bitcast %"class.extensions::NetworkingPrivateSetCellularSimStateFunction"* %0 to i8*
  tail call void @_ZdlPv(i8* %3) #11
  ret void
}

; Function Attrs: nounwind ssp uwtable
define hidden %"class.ExtensionFunction::ResponseActionObject"* @_ZN10extensions44NetworkingPrivateSetCellularSimStateFunction3RunEv(%"class.extensions::NetworkingPrivateSetCellularSimStateFunction"*) unnamed_addr #1 align 2 {
  %2 = alloca %"class.extensions::Feature::Availability", align 8
  %3 = alloca %"class.std::__1::basic_string", align 8
  %4 = alloca %"class.std::__1::basic_string", align 8
  %5 = alloca %"class.std::__1::basic_string", align 8
  %6 = alloca %"class.base::OnceCallback.109", align 8
  %7 = alloca %"class.base::OnceCallback.171", align 8
  %8 = bitcast %"class.extensions::NetworkingPrivateSetCellularSimStateFunction"* %0 to %class.ExtensionFunction*
  %9 = getelementptr inbounds %"class.extensions::NetworkingPrivateSetCellularSimStateFunction", %"class.extensions::NetworkingPrivateSetCellularSimStateFunction"* %0, i64 0, i32 0, i32 3, i32 0
  %10 = load %"class.extensions::Extension"*, %"class.extensions::Extension"** %9, align 8
  %11 = getelementptr inbounds %"class.extensions::NetworkingPrivateSetCellularSimStateFunction", %"class.extensions::NetworkingPrivateSetCellularSimStateFunction"* %0, i64 0, i32 0, i32 19
  %12 = load i32, i32* %11, align 8
  %13 = getelementptr inbounds %"class.extensions::NetworkingPrivateSetCellularSimStateFunction", %"class.extensions::NetworkingPrivateSetCellularSimStateFunction"* %0, i64 0, i32 0, i32 13
  %14 = bitcast %"class.extensions::Feature::Availability"* %2 to i8*
  call void @llvm.lifetime.start.p0i8(i64 32, i8* nonnull %14) #10
  %15 = tail call %"class.extensions::ExtensionAPI"* @_ZN10extensions12ExtensionAPI17GetSharedInstanceEv() #10
  %16 = bitcast %"class.std::__1::basic_string"* %3 to i8*
  call void @llvm.lifetime.start.p0i8(i64 24, i8* nonnull %16) #10
  %17 = bitcast %"class.std::__1::basic_string"* %3 to %"struct.std::__1::basic_string<char, std::__1::char_traits<char>, std::__1::allocator<char> >::__short"*
  %18 = getelementptr inbounds %"struct.std::__1::basic_string<char, std::__1::char_traits<char>, std::__1::allocator<char> >::__short", %"struct.std::__1::basic_string<char, std::__1::char_traits<char>, std::__1::allocator<char> >::__short"* %17, i64 0, i32 1, i32 0
  store i8 17, i8* %18, align 1
  call void @llvm.memcpy.p0i8.p0i8.i64(i8* nonnull align 8 %16, i8* align 1 getelementptr inbounds ([18 x i8], [18 x i8]* @.str.28, i64 0, i64 0), i64 17, i1 false) #10
  %19 = getelementptr inbounds i8, i8* %16, i64 17
  store i8 0, i8* %19, align 1
  call void @_ZN10extensions12ExtensionAPI11IsAvailableERKNSt3__112basic_stringIcNS1_11char_traitsIcEENS1_9allocatorIcEEEEPKNS_9ExtensionENS_7Feature7ContextERK4GURLNS_16CheckAliasStatusE(%"class.extensions::Feature::Availability"* nonnull sret %2, %"class.extensions::ExtensionAPI"* %15, %"class.std::__1::basic_string"* nonnull dereferenceable(24) %3, %"class.extensions::Extension"* %10, i32 %12, %class.GURL* dereferenceable(120) %13, i32 1) #10
  %20 = getelementptr inbounds %"class.extensions::Feature::Availability", %"class.extensions::Feature::Availability"* %2, i64 0, i32 0
  %21 = load i32, i32* %20, align 8
  %22 = icmp eq i32 %21, 0
  %23 = getelementptr inbounds %"class.extensions::Feature::Availability", %"class.extensions::Feature::Availability"* %2, i64 0, i32 1
  %24 = bitcast %"class.std::__1::basic_string"* %23 to %"struct.std::__1::basic_string<char, std::__1::char_traits<char>, std::__1::allocator<char> >::__short"*
  %25 = getelementptr inbounds %"struct.std::__1::basic_string<char, std::__1::char_traits<char>, std::__1::allocator<char> >::__short", %"struct.std::__1::basic_string<char, std::__1::char_traits<char>, std::__1::allocator<char> >::__short"* %24, i64 0, i32 1, i32 0
  %26 = load i8, i8* %25, align 1
  %27 = icmp slt i8 %26, 0
  br i1 %27, label %28, label %31

28:                                               ; preds = %1
  %29 = getelementptr inbounds %"class.std::__1::basic_string", %"class.std::__1::basic_string"* %23, i64 0, i32 0, i32 0, i32 0, i32 0, i32 0, i32 0
  %30 = load i8*, i8** %29, align 8
  call void @_ZdlPv(i8* %30) #11
  br label %31

31:                                               ; preds = %28, %1
  %32 = load i8, i8* %18, align 1
  %33 = icmp slt i8 %32, 0
  br i1 %33, label %34, label %37

34:                                               ; preds = %31
  %35 = getelementptr inbounds %"class.std::__1::basic_string", %"class.std::__1::basic_string"* %3, i64 0, i32 0, i32 0, i32 0, i32 0, i32 0, i32 0
  %36 = load i8*, i8** %35, align 8
  call void @_ZdlPv(i8* %36) #11
  br label %37

37:                                               ; preds = %31, %34
  call void @llvm.lifetime.end.p0i8(i64 24, i8* nonnull %16) #10
  call void @llvm.lifetime.end.p0i8(i64 32, i8* nonnull %14) #10
  br i1 %22, label %52, label %38

38:                                               ; preds = %37
  %39 = call i8* @_Znwm(i64 48) #11
  %40 = getelementptr inbounds %"class.std::__1::basic_string", %"class.std::__1::basic_string"* %4, i64 0, i32 0, i32 0, i32 0, i32 0, i32 0, i32 0
  store i8* %39, i8** %40, align 8
  %41 = getelementptr inbounds %"class.std::__1::basic_string", %"class.std::__1::basic_string"* %4, i64 0, i32 0, i32 0, i32 0, i32 0, i32 0, i32 1
  %42 = bitcast i64* %41 to <2 x i64>*
  store <2 x i64> <i64 38, i64 -9223372036854775760>, <2 x i64>* %42, align 8
  call void @llvm.memcpy.p0i8.p0i8.i64(i8* nonnull align 1 %39, i8* align 16 getelementptr inbounds ([39 x i8], [39 x i8]* @_ZN10extensions12_GLOBAL__N_117kPrivateOnlyErrorE, i64 0, i64 0), i64 38, i1 false) #10
  %43 = getelementptr inbounds i8, i8* %39, i64 38
  store i8 0, i8* %43, align 1
  %44 = call %"class.ExtensionFunction::ResponseValueObject"* @_ZN17ExtensionFunction5ErrorENSt3__112basic_stringIcNS0_11char_traitsIcEENS0_9allocatorIcEEEE(%class.ExtensionFunction* %8, %"class.std::__1::basic_string"* nonnull %4) #10
  %45 = call %"class.ExtensionFunction::ResponseActionObject"* @_ZN17ExtensionFunction10RespondNowENSt3__110unique_ptrINS_19ResponseValueObjectENS0_14default_deleteIS2_EEEE(%class.ExtensionFunction* %8, %"class.ExtensionFunction::ResponseValueObject"* %44) #10
  %46 = bitcast %"class.std::__1::basic_string"* %4 to %"struct.std::__1::basic_string<char, std::__1::char_traits<char>, std::__1::allocator<char> >::__short"*
  %47 = getelementptr inbounds %"struct.std::__1::basic_string<char, std::__1::char_traits<char>, std::__1::allocator<char> >::__short", %"struct.std::__1::basic_string<char, std::__1::char_traits<char>, std::__1::allocator<char> >::__short"* %46, i64 0, i32 1, i32 0
  %48 = load i8, i8* %47, align 1
  %49 = icmp slt i8 %48, 0
  br i1 %49, label %50, label %138

50:                                               ; preds = %38
  %51 = load i8*, i8** %40, align 8
  call void @_ZdlPv(i8* %51) #11
  br label %138

52:                                               ; preds = %37
  %53 = getelementptr inbounds %"class.extensions::NetworkingPrivateSetCellularSimStateFunction", %"class.extensions::NetworkingPrivateSetCellularSimStateFunction"* %0, i64 0, i32 0, i32 4, i32 0, i32 0, i32 0
  %54 = load %"class.base::ListValue"*, %"class.base::ListValue"** %53, align 8
  %55 = call %"struct.extensions::api::networking_private::SetCellularSimState::Params"* @_ZN10extensions3api18networking_private19SetCellularSimState6Params6CreateERKN4base9ListValueE(%"class.base::ListValue"* dereferenceable(32) %54) #10
  %56 = icmp eq %"struct.extensions::api::networking_private::SetCellularSimState::Params"* %55, null
  br i1 %56, label %129, label %57

57:                                               ; preds = %52
  %58 = call %"class.content::BrowserContext"* @_ZNK17ExtensionFunction15browser_contextEv(%class.ExtensionFunction* %8) #10
  %59 = call %"class.extensions::NetworkingPrivateDelegate"* @_ZN10extensions32NetworkingPrivateDelegateFactory20GetForBrowserContextEPN7content14BrowserContextE(%"class.content::BrowserContext"* %58) #10
  %60 = getelementptr inbounds %"struct.extensions::api::networking_private::SetCellularSimState::Params", %"struct.extensions::api::networking_private::SetCellularSimState::Params"* %55, i64 0, i32 0
  %61 = getelementptr inbounds %"struct.extensions::api::networking_private::SetCellularSimState::Params", %"struct.extensions::api::networking_private::SetCellularSimState::Params"* %55, i64 0, i32 1, i32 0
  %62 = load i8, i8* %61, align 8, !range !7
  %63 = icmp ne i8 %62, 0
  %64 = getelementptr inbounds %"struct.extensions::api::networking_private::SetCellularSimState::Params", %"struct.extensions::api::networking_private::SetCellularSimState::Params"* %55, i64 0, i32 1, i32 1
  %65 = bitcast %"class.std::__1::basic_string"* %5 to i8*
  call void @llvm.lifetime.start.p0i8(i64 24, i8* nonnull %65) #10
  %66 = getelementptr inbounds %"struct.extensions::api::networking_private::SetCellularSimState::Params", %"struct.extensions::api::networking_private::SetCellularSimState::Params"* %55, i64 0, i32 1, i32 2, i32 0, i32 0, i32 0
  %67 = load %"class.std::__1::basic_string"*, %"class.std::__1::basic_string"** %66, align 8
  %68 = icmp eq %"class.std::__1::basic_string"* %67, null
  br i1 %68, label %81, label %69

69:                                               ; preds = %57
  %70 = bitcast %"class.std::__1::basic_string"* %67 to %"struct.std::__1::basic_string<char, std::__1::char_traits<char>, std::__1::allocator<char> >::__short"*
  %71 = getelementptr inbounds %"struct.std::__1::basic_string<char, std::__1::char_traits<char>, std::__1::allocator<char> >::__short", %"struct.std::__1::basic_string<char, std::__1::char_traits<char>, std::__1::allocator<char> >::__short"* %70, i64 0, i32 1, i32 0
  %72 = load i8, i8* %71, align 1
  %73 = icmp slt i8 %72, 0
  br i1 %73, label %76, label %74

74:                                               ; preds = %69
  %75 = bitcast %"class.std::__1::basic_string"* %67 to i8*
  call void @llvm.memcpy.p0i8.p0i8.i64(i8* nonnull align 8 %65, i8* nonnull align 8 %75, i64 24, i1 false) #10
  br label %84

76:                                               ; preds = %69
  %77 = getelementptr inbounds %"class.std::__1::basic_string", %"class.std::__1::basic_string"* %67, i64 0, i32 0, i32 0, i32 0, i32 0, i32 0, i32 0
  %78 = load i8*, i8** %77, align 8
  %79 = getelementptr inbounds %"class.std::__1::basic_string", %"class.std::__1::basic_string"* %67, i64 0, i32 0, i32 0, i32 0, i32 0, i32 0, i32 1
  %80 = load i64, i64* %79, align 8
  call void @_ZNSt3__112basic_stringIcNS_11char_traitsIcEENS_9allocatorIcEEE25__init_copy_ctor_externalEPKcm(%"class.std::__1::basic_string"* nonnull %5, i8* %78, i64 %80) #10
  br label %84

81:                                               ; preds = %57
  %82 = bitcast %"class.std::__1::basic_string"* %5 to %"struct.std::__1::basic_string<char, std::__1::char_traits<char>, std::__1::allocator<char> >::__short"*
  %83 = getelementptr inbounds %"struct.std::__1::basic_string<char, std::__1::char_traits<char>, std::__1::allocator<char> >::__short", %"struct.std::__1::basic_string<char, std::__1::char_traits<char>, std::__1::allocator<char> >::__short"* %82, i64 0, i32 1, i32 0
  store i8 0, i8* %83, align 1
  store i8 0, i8* %65, align 8
  br label %84

84:                                               ; preds = %76, %74, %81
  %85 = call i8* @_Znwm(i64 56) #11, !noalias !130
  %86 = bitcast i8* %85 to %"class.base::internal::BindStateBase"*
  call void @_ZN4base8internal13BindStateBaseC2EPFvvEPFvPKS1_E(%"class.base::internal::BindStateBase"* nonnull %86, void ()* bitcast (void (%"class.base::internal::BindStateBase"*)* @_ZN4base8internal7InvokerINS0_9BindStateIMN10extensions44NetworkingPrivateSetCellularSimStateFunctionEFvvEJ13scoped_refptrIS4_EEEEFvvEE7RunOnceEPNS0_13BindStateBaseE to void ()*), void (%"class.base::internal::BindStateBase"*)* nonnull @_ZN4base8internal9BindStateIMN10extensions44NetworkingPrivateSetCellularSimStateFunctionEFvvEJ13scoped_refptrIS3_EEE7DestroyEPKNS0_13BindStateBaseE) #10, !noalias !130
  %87 = getelementptr inbounds i8, i8* %85, i64 32
  %88 = bitcast i8* %87 to <2 x i64>*
  store <2 x i64> <i64 ptrtoint (void (%"class.extensions::NetworkingPrivateSetCellularSimStateFunction"*)* @_ZN10extensions44NetworkingPrivateSetCellularSimStateFunction7SuccessEv to i64), i64 0>, <2 x i64>* %88, align 8, !noalias !130
  %89 = getelementptr inbounds i8, i8* %85, i64 48
  %90 = bitcast i8* %89 to %"class.extensions::NetworkingPrivateSetCellularSimStateFunction"**
  store %"class.extensions::NetworkingPrivateSetCellularSimStateFunction"* %0, %"class.extensions::NetworkingPrivateSetCellularSimStateFunction"** %90, align 8, !noalias !130
  %91 = icmp eq %"class.extensions::NetworkingPrivateSetCellularSimStateFunction"* %0, null
  br i1 %91, label %95, label %92

92:                                               ; preds = %84
  %93 = getelementptr inbounds %"class.extensions::NetworkingPrivateSetCellularSimStateFunction", %"class.extensions::NetworkingPrivateSetCellularSimStateFunction"* %0, i64 0, i32 0, i32 1, i32 0, i32 0, i32 0, i32 0, i32 0, i32 0, i32 0, i32 0
  %94 = atomicrmw add i32* %93, i32 1 monotonic, !noalias !130
  br label %95

95:                                               ; preds = %84, %92
  %96 = bitcast %"class.base::OnceCallback.109"* %6 to i8**
  store i8* %85, i8** %96, align 8, !alias.scope !130
  %97 = call i8* @_Znwm(i64 56) #11, !noalias !135
  %98 = bitcast i8* %97 to %"class.base::internal::BindStateBase"*
