; ModuleID = 'gen/services/network/public/mojom/network_service_test.mojom-blink.cc'
source_filename = "gen/services/network/public/mojom/network_service_test.mojom-blink.cc"
target datalayout = "e-m:e-i64:64-f80:128-n8:16:32:64-S128"
target triple = "x86_64-unknown-linux-gnu"

module asm ".symver exp, exp@GLIBC_2.2.5"
module asm ".symver exp2, exp2@GLIBC_2.2.5"
module asm ".symver exp2f, exp2f@GLIBC_2.2.5"
module asm ".symver expf, expf@GLIBC_2.2.5"
module asm ".symver lgamma, lgamma@GLIBC_2.2.5"
module asm ".symver lgammaf, lgammaf@GLIBC_2.2.5"
module asm ".symver lgammal, lgammal@GLIBC_2.2.5"
module asm ".symver log, log@GLIBC_2.2.5"
module asm ".symver log2, log2@GLIBC_2.2.5"
module asm ".symver log2f, log2f@GLIBC_2.2.5"
module asm ".symver logf, logf@GLIBC_2.2.5"
module asm ".symver pow, pow@GLIBC_2.2.5"
module asm ".symver powf, powf@GLIBC_2.2.5"

%"struct.std::__1::pair" = type { i32, %"struct.mojo::internal::GenericValidationInfo" }
%"struct.mojo::internal::GenericValidationInfo" = type { i1 (i8*, %"class.mojo::internal::ValidationContext"*)*, i1 (i8*, %"class.mojo::internal::ValidationContext"*)* }
%"class.mojo::internal::ValidationContext" = type <{ %"class.mojo::Message"*, i8*, i32, [4 x i8], i64, i64, i32, i32, i32, i32, i32, [4 x i8] }>
%"class.mojo::Message" = type { %"class.mojo::ScopedHandleBase", %"class.mojo::internal::Buffer", %"class.std::__1::vector", %"class.std::__1::vector.13", %"class.mojo::ConnectionGroup::Ref"*, i8, i8, i8* }
%"class.mojo::ScopedHandleBase" = type { %"class.mojo::MessageHandle" }
%"class.mojo::MessageHandle" = type { i64 }
%"class.mojo::internal::Buffer" = type { %"class.mojo::MessageHandle", i64, i8*, i64, i64 }
%"class.std::__1::vector" = type { %"class.std::__1::__vector_base" }
%"class.std::__1::__vector_base" = type { %"class.mojo::ScopedHandleBase.7"*, %"class.mojo::ScopedHandleBase.7"*, %"class.std::__1::__compressed_pair.8" }
%"class.mojo::ScopedHandleBase.7" = type { %"class.mojo::Handle" }
%"class.mojo::Handle" = type { i32 }
%"class.std::__1::__compressed_pair.8" = type { %"struct.std::__1::__compressed_pair_elem.9" }
%"struct.std::__1::__compressed_pair_elem.9" = type { %"class.mojo::ScopedHandleBase.7"* }
%"class.std::__1::vector.13" = type { %"class.std::__1::__vector_base.14" }
%"class.std::__1::__vector_base.14" = type { %"class.mojo::ScopedInterfaceEndpointHandle"*, %"class.mojo::ScopedInterfaceEndpointHandle"*, %"class.std::__1::__compressed_pair.16" }
%"class.mojo::ScopedInterfaceEndpointHandle" = type { %class.scoped_refptr.15 }
%class.scoped_refptr.15 = type { %"class.mojo::ScopedInterfaceEndpointHandle::State"* }
%"class.mojo::ScopedInterfaceEndpointHandle::State" = type opaque
%"class.std::__1::__compressed_pair.16" = type { %"struct.std::__1::__compressed_pair_elem.17" }
%"struct.std::__1::__compressed_pair_elem.17" = type { %"class.mojo::ScopedInterfaceEndpointHandle"* }
%"class.mojo::ConnectionGroup::Ref" = type { i32, %class.scoped_refptr.21 }
%class.scoped_refptr.21 = type { %"class.mojo::ConnectionGroup"* }
%"class.mojo::ConnectionGroup" = type <{ i32 (...)**, %"class.base::RefCountedThreadSafe", [4 x i8], %"class.base::RepeatingCallback", %class.scoped_refptr.29, %"class.mojo::ConnectionGroup::Ref", %"struct.std::__1::atomic", [4 x i8] }>
%"class.base::RefCountedThreadSafe" = type { %"class.base::subtle::RefCountedThreadSafeBase" }
%"class.base::subtle::RefCountedThreadSafeBase" = type { %"class.base::AtomicRefCount" }
%"class.base::AtomicRefCount" = type { %"struct.std::__1::atomic.22" }
%"struct.std::__1::atomic.22" = type { %"struct.std::__1::__atomic_base.23" }
%"struct.std::__1::__atomic_base.23" = type { %"struct.std::__1::__atomic_base.24" }
%"struct.std::__1::__atomic_base.24" = type { %"struct.std::__1::__cxx_atomic_impl.25" }
%"struct.std::__1::__cxx_atomic_impl.25" = type { %"struct.std::__1::__cxx_atomic_base_impl.26" }
%"struct.std::__1::__cxx_atomic_base_impl.26" = type { i32 }
%"class.base::RepeatingCallback" = type { %"class.base::internal::CallbackBaseCopyable" }
%"class.base::internal::CallbackBaseCopyable" = type { %"class.base::internal::CallbackBase" }
%"class.base::internal::CallbackBase" = type { %class.scoped_refptr.27 }
%class.scoped_refptr.27 = type { %"class.base::internal::BindStateBase"* }
%"class.base::internal::BindStateBase" = type { %"class.base::RefCountedThreadSafe.28", void ()*, void (%"class.base::internal::BindStateBase"*)*, i1 (%"class.base::internal::BindStateBase"*, i32)* }
%"class.base::RefCountedThreadSafe.28" = type { %"class.base::subtle::RefCountedThreadSafeBase" }
%class.scoped_refptr.29 = type { %"class.base::SequencedTaskRunner"* }
%"class.base::SequencedTaskRunner" = type { %"class.base::TaskRunner.base", [4 x i8] }
%"class.base::TaskRunner.base" = type <{ i32 (...)**, %"class.base::RefCountedThreadSafe.30" }>
%"class.base::RefCountedThreadSafe.30" = type { %"class.base::subtle::RefCountedThreadSafeBase" }
%"struct.std::__1::atomic" = type { %"struct.std::__1::__atomic_base" }
%"struct.std::__1::__atomic_base" = type { %"struct.std::__1::__atomic_base.0" }
%"struct.std::__1::__atomic_base.0" = type { %"struct.std::__1::__cxx_atomic_impl" }
%"struct.std::__1::__cxx_atomic_impl" = type { %"struct.std::__1::__cxx_atomic_base_impl" }
%"struct.std::__1::__cxx_atomic_base_impl" = type { i32 }
%"class.network::mojom::blink::Rule" = type { i32, %"class.WTF::String", %"class.WTF::String", i32, %"class.WTF::Vector" }
%"class.WTF::String" = type { %class.scoped_refptr }
%class.scoped_refptr = type { %"class.WTF::StringImpl"* }
%"class.WTF::StringImpl" = type { i32, i32, %"struct.std::__1::atomic" }
%"class.WTF::Vector" = type { %"class.WTF::VectorBuffer" }
%"class.WTF::VectorBuffer" = type { %"class.WTF::VectorBufferBase" }
%"class.WTF::VectorBufferBase" = type { %"class.WTF::String"*, i32, i32 }
%"class.network::mojom::blink::NetworkServiceTestProxy" = type { %"class.network::mojom::blink::NetworkServiceTest", %"class.mojo::MessageReceiverWithResponder"* }
%"class.network::mojom::blink::NetworkServiceTest" = type { i32 (...)** }
%"class.mojo::MessageReceiverWithResponder" = type { %"class.mojo::MessageReceiver" }
%"class.mojo::MessageReceiver" = type { i32 (...)** }
%"class.perfetto::TracedValue" = type <{ %"class.perfetto::protos::pbzero::DebugAnnotation"*, %"class.perfetto::internal::CheckedScope", [7 x i8] }>
%"class.perfetto::protos::pbzero::DebugAnnotation" = type { %"class.protozero::Message.base", [7 x i8] }
%"class.protozero::Message.base" = type <{ %"class.protozero::ScatteredStreamWriter"*, %"class.protozero::MessageArena"*, %"class.protozero::Message"*, i8*, i32, i32, i8 }>
%"class.protozero::ScatteredStreamWriter" = type { %"class.protozero::ScatteredStreamWriter::Delegate"*, %"struct.protozero::ContiguousMemoryRange", i8*, i64 }
%"class.protozero::ScatteredStreamWriter::Delegate" = type { i32 (...)** }
%"struct.protozero::ContiguousMemoryRange" = type { i8*, i8* }
%"class.protozero::MessageArena" = type { %"class.std::__1::list" }
%"class.std::__1::list" = type { %"class.std::__1::__list_imp" }
%"class.std::__1::__list_imp" = type { %"struct.std::__1::__list_node_base", %"class.std::__1::__compressed_pair" }
%"struct.std::__1::__list_node_base" = type { %"struct.std::__1::__list_node_base"*, %"struct.std::__1::__list_node_base"* }
%"class.std::__1::__compressed_pair" = type { %"struct.std::__1::__compressed_pair_elem" }
%"struct.std::__1::__compressed_pair_elem" = type { i64 }
%"class.protozero::Message" = type <{ %"class.protozero::ScatteredStreamWriter"*, %"class.protozero::MessageArena"*, %"class.protozero::Message"*, i8*, i32, i32, i8, [7 x i8] }>
%"class.perfetto::internal::CheckedScope" = type { i8 }
%"class.perfetto::TracedArray" = type <{ %"class.perfetto::protos::pbzero::DebugAnnotation"*, %"class.perfetto::internal::CheckedScope", [7 x i8] }>
%"class.perfetto::TracedDictionary" = type <{ %"class.protozero::Message"*, i32, %"class.perfetto::internal::CheckedScope", [3 x i8] }>
%"class.WTF::Vector.31" = type { %"class.WTF::VectorBuffer.32" }
%"class.WTF::VectorBuffer.32" = type { %"class.WTF::VectorBufferBase.33" }
%"class.WTF::VectorBufferBase.33" = type { %"class.mojo::StructPtr"*, i32, i32 }
%"class.mojo::StructPtr" = type { %"class.std::__1::unique_ptr" }
%"class.std::__1::unique_ptr" = type { %"class.std::__1::__compressed_pair.34" }
%"class.std::__1::__compressed_pair.34" = type { %"struct.std::__1::__compressed_pair_elem.35" }
%"struct.std::__1::__compressed_pair_elem.35" = type { %"class.network::mojom::blink::Rule"* }
%"class.mojo::StructPtr.39" = type { %"class.std::__1::unique_ptr.40" }
%"class.std::__1::unique_ptr.40" = type { %"class.std::__1::__compressed_pair.41" }
%"class.std::__1::__compressed_pair.41" = type { %"struct.std::__1::__compressed_pair_elem.42" }
%"struct.std::__1::__compressed_pair_elem.42" = type { %"class.mojo::native::NativeStruct"* }
%"class.mojo::native::NativeStruct" = type { %"class.std::__1::vector.43", %"class.absl::optional" }
%"class.std::__1::vector.43" = type { %"class.std::__1::__vector_base.44" }
%"class.std::__1::__vector_base.44" = type { i8*, i8*, %"class.std::__1::__compressed_pair.45" }
%"class.std::__1::__compressed_pair.45" = type { %"struct.std::__1::__compressed_pair_elem.46" }
%"struct.std::__1::__compressed_pair_elem.46" = type { i8* }
%"class.absl::optional" = type { %"class.absl::optional_internal::optional_data" }
%"class.absl::optional_internal::optional_data" = type { %"class.absl::optional_internal::optional_data_base" }
%"class.absl::optional_internal::optional_data_base" = type { %"class.absl::optional_internal::optional_data_dtor_base" }
%"class.absl::optional_internal::optional_data_dtor_base" = type { i8, %union.anon.50 }
%union.anon.50 = type { %"class.std::__1::vector.51" }
%"class.std::__1::vector.51" = type { %"class.std::__1::__vector_base.52" }
%"class.std::__1::__vector_base.52" = type { %"class.mojo::StructPtr.53"*, %"class.mojo::StructPtr.53"*, %"class.std::__1::__compressed_pair.60" }
%"class.mojo::StructPtr.53" = type { %"class.std::__1::unique_ptr.54" }
%"class.std::__1::unique_ptr.54" = type { %"class.std::__1::__compressed_pair.55" }
%"class.std::__1::__compressed_pair.55" = type { %"struct.std::__1::__compressed_pair_elem.56" }
%"struct.std::__1::__compressed_pair_elem.56" = type { %"class.mojo::native::SerializedHandle"* }
%"class.mojo::native::SerializedHandle" = type { %"class.mojo::ScopedHandleBase.7", i32 }
%"class.std::__1::__compressed_pair.60" = type { %"struct.std::__1::__compressed_pair_elem.61" }
%"struct.std::__1::__compressed_pair_elem.61" = type { %"class.mojo::StructPtr.53"* }
%"class.WTF::Vector.68" = type { %"class.WTF::VectorBuffer.69" }
%"class.WTF::VectorBuffer.69" = type { %"class.WTF::VectorBufferBase.70" }
%"class.WTF::VectorBufferBase.70" = type { i8*, i32, i32 }
%"class.mojo::internal::MessageFragment.338" = type { %"class.mojo::Message"*, i64 }
%"class.mojo::internal::ContainerValidateParams" = type { i32, i8, %"class.mojo::internal::ContainerValidateParams"*, %"class.mojo::internal::ContainerValidateParams"*, i1 (i32, %"class.mojo::internal::ValidationContext"*)* }
%"class.network::mojom::internal::NetworkServiceTest_AddRules_Params_Data" = type { %"struct.mojo::internal::StructHeader", %"struct.mojo::internal::Pointer" }
%"struct.mojo::internal::StructHeader" = type { i32, i32 }
%"struct.mojo::internal::Pointer" = type { i64 }
%"class.mojo::internal::Array_Data" = type { %"struct.mojo::internal::ArrayHeader" }
%"struct.mojo::internal::ArrayHeader" = type { i32, i32 }
%"class.network::mojom::internal::Rule_Data" = type { %"struct.mojo::internal::StructHeader", i32, i32, %"struct.mojo::internal::Pointer.92", %"struct.mojo::internal::Pointer.92", %"struct.mojo::internal::Pointer.144" }
%"struct.mojo::internal::Pointer.92" = type { i64 }
%"struct.mojo::internal::Pointer.144" = type { i64 }
%"class.base::OnceCallback" = type { %"class.base::internal::CallbackBase" }
%"class.network::mojom::internal::NetworkServiceTest_SimulateNetworkChange_Params_Data" = type { %"struct.mojo::internal::StructHeader", i32, [4 x i8] }
%"class.network::mojom::internal::NetworkServiceTest_SimulateNetworkQualityChange_Params_Data" = type { %"struct.mojo::internal::StructHeader", i32, [4 x i8] }
%"class.network::mojom::internal::NetworkServiceTest_SimulateCrash_Params_Data" = type { %"struct.mojo::internal::StructHeader" }
%"class.network::mojom::internal::NetworkServiceTest_MockCertVerifierSetDefaultResult_Params_Data" = type { %"struct.mojo::internal::StructHeader", i32, [4 x i8] }
%"class.WTF::StringUTF8Adaptor" = type <{ %"class.std::__1::basic_string", i8*, i32, [4 x i8] }>
%"class.std::__1::basic_string" = type { %"class.std::__1::__compressed_pair.2" }
%"class.std::__1::__compressed_pair.2" = type { %"struct.std::__1::__compressed_pair_elem.3" }
%"struct.std::__1::__compressed_pair_elem.3" = type { %"struct.std::__1::basic_string<char, std::__1::char_traits<char>, std::__1::allocator<char> >::__rep" }
%"struct.std::__1::basic_string<char, std::__1::char_traits<char>, std::__1::allocator<char> >::__rep" = type { %union.anon }
%union.anon = type { %"struct.std::__1::basic_string<char, std::__1::char_traits<char>, std::__1::allocator<char> >::__long" }
%"struct.std::__1::basic_string<char, std::__1::char_traits<char>, std::__1::allocator<char> >::__long" = type { i8*, i64, i64 }
%"class.mojo::internal::MessageFragment.90" = type { %"class.mojo::Message"*, i64 }
%"class.network::mojom::internal::NetworkServiceTest_MockCertVerifierAddResultForCertAndHost_Params_Data" = type { %"struct.mojo::internal::StructHeader", %"struct.mojo::internal::Pointer.91", %"struct.mojo::internal::Pointer.92", %"struct.mojo::internal::Pointer.91", i32, [4 x i8] }
%"struct.mojo::internal::Pointer.91" = type { i64 }
%"class.mojo::native::internal::NativeStruct_Data" = type { %"struct.mojo::internal::StructHeader", %"struct.mojo::internal::Pointer.93", %"struct.mojo::internal::Pointer.94" }
%"struct.mojo::internal::Pointer.93" = type { i64 }
%"struct.mojo::internal::Pointer.94" = type { i64 }
%"class.mojo::internal::Array_Data.96" = type { %"struct.mojo::internal::ArrayHeader" }
%"class.network::mojom::internal::NetworkServiceTest_SetRequireCT_Params_Data" = type { %"struct.mojo::internal::StructHeader", i32, [4 x i8] }
%"class.network::mojom::internal::NetworkServiceTest_SetTransportSecurityStateSource_Params_Data" = type { %"struct.mojo::internal::StructHeader", i16, [6 x i8] }
%"class.network::mojom::internal::NetworkServiceTest_SetAllowNetworkAccessToHostResolutions_Params_Data" = type { %"struct.mojo::internal::StructHeader" }
%"class.network::mojom::internal::NetworkServiceTest_CrashOnResolveHost_Params_Data" = type { %"struct.mojo::internal::StructHeader", %"struct.mojo::internal::Pointer.92" }
%"class.network::mojom::internal::NetworkServiceTest_CrashOnGetCookieList_Params_Data" = type { %"struct.mojo::internal::StructHeader" }
%"class.network::mojom::internal::NetworkServiceTest_GetLatestMemoryPressureLevel_Params_Data" = type { %"struct.mojo::internal::StructHeader" }
%"class.base::OnceCallback.103" = type { %"class.base::internal::CallbackBase" }
%"class.network::mojom::internal::NetworkServiceTest_GetPeerToPeerConnectionsCountChange_Params_Data" = type { %"struct.mojo::internal::StructHeader" }
%"class.base::OnceCallback.105" = type { %"class.base::internal::CallbackBase" }
%"class.network::mojom::internal::NetworkServiceTest_GetEnvironmentVariableValue_Params_Data" = type { %"struct.mojo::internal::StructHeader", %"struct.mojo::internal::Pointer.92" }
%"class.base::OnceCallback.107" = type { %"class.base::internal::CallbackBase" }
%"class.network::mojom::internal::NetworkServiceTest_Log_Params_Data" = type { %"struct.mojo::internal::StructHeader", %"struct.mojo::internal::Pointer.92" }
%"class.network::mojom::internal::NetworkServiceTest_ActivateFieldTrial_Params_Data" = type { %"struct.mojo::internal::StructHeader", %"struct.mojo::internal::Pointer.92" }
%"class.network::mojom::internal::NetworkServiceTest_SetEVPolicy_Params_Data" = type { %"struct.mojo::internal::StructHeader", %"struct.mojo::internal::Pointer.93", %"struct.mojo::internal::Pointer.92" }
%"class.mojo::internal::Array_Data.112" = type { %"struct.mojo::internal::ArrayHeader" }
%"class.network::mojom::internal::NetworkServiceTest_GetFirstPartySetEntriesCount_Params_Data" = type { %"struct.mojo::internal::StructHeader" }
%"class.base::OnceCallback.114" = type { %"class.base::internal::CallbackBase" }
%"class.absl::optional.73" = type { %"class.absl::optional_internal::optional_data.74" }
%"class.absl::optional_internal::optional_data.74" = type { %"class.absl::optional_internal::optional_data_base.75" }
%"class.absl::optional_internal::optional_data_base.75" = type { %"class.absl::optional_internal::optional_data_dtor_base.76" }
%"class.absl::optional_internal::optional_data_dtor_base.76" = type { i8, %union.anon.77 }
%union.anon.77 = type { %"class.base::TimeDelta" }
%"class.base::TimeDelta" = type { i64 }
%"class.network::mojom::internal::NetworkServiceTest_SetSCTAuditingRetryDelay_Params_Data" = type { %"struct.mojo::internal::StructHeader", %"struct.mojo::internal::Pointer.117" }
%"struct.mojo::internal::Pointer.117" = type { i64 }
%"class.mojo_base::mojom::internal::TimeDelta_Data" = type { %"struct.mojo::internal::StructHeader", i64 }
%"class.network::mojom::internal::NetworkServiceTest_GetSCTAuditingPendingReportsCount_Params_Data" = type { %"struct.mojo::internal::StructHeader" }
%"class.base::OnceCallback.119" = type { %"class.base::internal::CallbackBase" }
%"class.network::mojom::internal::NetworkServiceTest_SetSCTAuditingReportCompletionCallback_Params_Data" = type { %"struct.mojo::internal::StructHeader" }
%"class.network::mojom::blink::NetworkServiceTest_AddRules_ForwardToCallback" = type { %"class.mojo::MessageReceiver", %"class.base::OnceCallback" }
%"class.network::mojom::blink::NetworkServiceTest_AddRules_ProxyToResponder" = type { i64, i8, %"class.std::__1::unique_ptr.121" }
%"class.std::__1::unique_ptr.121" = type { %"class.std::__1::__compressed_pair.122" }
%"class.std::__1::__compressed_pair.122" = type { %"struct.std::__1::__compressed_pair_elem.123" }
%"struct.std::__1::__compressed_pair_elem.123" = type { %"class.mojo::MessageReceiverWithStatus"* }
%"class.mojo::MessageReceiverWithStatus" = type { %"class.mojo::MessageReceiver" }
%"class.network::mojom::internal::NetworkServiceTest_AddRules_ResponseParams_Data" = type { %"struct.mojo::internal::StructHeader" }
%"struct.mojo::internal::MessageHeaderV1" = type { %"struct.mojo::internal::MessageHeader", i64 }
%"struct.mojo::internal::MessageHeader" = type { %"struct.mojo::internal::StructHeader", i32, i32, i32, i32 }
%"class.network::mojom::blink::NetworkServiceTest_AddRules_HandleSyncResponse" = type { %"class.mojo::MessageReceiver", i8* }
%"class.network::mojom::blink::NetworkServiceTest_SimulateNetworkChange_ForwardToCallback" = type { %"class.mojo::MessageReceiver", %"class.base::OnceCallback" }
%"class.network::mojom::blink::NetworkServiceTest_SimulateNetworkChange_ProxyToResponder" = type { i64, i8, %"class.std::__1::unique_ptr.121" }
%"class.network::mojom::internal::NetworkServiceTest_SimulateNetworkChange_ResponseParams_Data" = type { %"struct.mojo::internal::StructHeader" }
%"class.network::mojom::blink::NetworkServiceTest_SimulateNetworkQualityChange_ForwardToCallback" = type { %"class.mojo::MessageReceiver", %"class.base::OnceCallback" }
%"class.network::mojom::blink::NetworkServiceTest_SimulateNetworkQualityChange_ProxyToResponder" = type { i64, i8, %"class.std::__1::unique_ptr.121" }
%"class.network::mojom::internal::NetworkServiceTest_SimulateNetworkQualityChange_ResponseParams_Data" = type { %"struct.mojo::internal::StructHeader" }
%"class.network::mojom::blink::NetworkServiceTest_MockCertVerifierSetDefaultResult_ForwardToCallback" = type { %"class.mojo::MessageReceiver", %"class.base::OnceCallback" }
%"class.network::mojom::blink::NetworkServiceTest_MockCertVerifierSetDefaultResult_ProxyToResponder" = type { i64, i8, %"class.std::__1::unique_ptr.121" }
%"class.network::mojom::internal::NetworkServiceTest_MockCertVerifierSetDefaultResult_ResponseParams_Data" = type { %"struct.mojo::internal::StructHeader" }
%"class.network::mojom::blink::NetworkServiceTest_MockCertVerifierSetDefaultResult_HandleSyncResponse" = type { %"class.mojo::MessageReceiver", i8* }
%"class.network::mojom::blink::NetworkServiceTest_MockCertVerifierAddResultForCertAndHost_ForwardToCallback" = type { %"class.mojo::MessageReceiver", %"class.base::OnceCallback" }
%"class.network::mojom::blink::NetworkServiceTest_MockCertVerifierAddResultForCertAndHost_ProxyToResponder" = type { i64, i8, %"class.std::__1::unique_ptr.121" }
%"class.network::mojom::internal::NetworkServiceTest_MockCertVerifierAddResultForCertAndHost_ResponseParams_Data" = type { %"struct.mojo::internal::StructHeader" }
%"class.network::mojom::blink::NetworkServiceTest_MockCertVerifierAddResultForCertAndHost_HandleSyncResponse" = type { %"class.mojo::MessageReceiver", i8* }
%"class.network::mojom::blink::NetworkServiceTest_SetRequireCT_ForwardToCallback" = type { %"class.mojo::MessageReceiver", %"class.base::OnceCallback" }
%"class.network::mojom::blink::NetworkServiceTest_SetRequireCT_ProxyToResponder" = type { i64, i8, %"class.std::__1::unique_ptr.121" }
%"class.network::mojom::internal::NetworkServiceTest_SetRequireCT_ResponseParams_Data" = type { %"struct.mojo::internal::StructHeader" }
%"class.network::mojom::blink::NetworkServiceTest_SetRequireCT_HandleSyncResponse" = type { %"class.mojo::MessageReceiver", i8* }
%"class.network::mojom::blink::NetworkServiceTest_SetTransportSecurityStateSource_ForwardToCallback" = type { %"class.mojo::MessageReceiver", %"class.base::OnceCallback" }
%"class.network::mojom::blink::NetworkServiceTest_SetTransportSecurityStateSource_ProxyToResponder" = type { i64, i8, %"class.std::__1::unique_ptr.121" }
%"class.network::mojom::internal::NetworkServiceTest_SetTransportSecurityStateSource_ResponseParams_Data" = type { %"struct.mojo::internal::StructHeader" }
%"class.network::mojom::blink::NetworkServiceTest_SetTransportSecurityStateSource_HandleSyncResponse" = type { %"class.mojo::MessageReceiver", i8* }
%"class.network::mojom::blink::NetworkServiceTest_SetAllowNetworkAccessToHostResolutions_ForwardToCallback" = type { %"class.mojo::MessageReceiver", %"class.base::OnceCallback" }
%"class.network::mojom::blink::NetworkServiceTest_SetAllowNetworkAccessToHostResolutions_ProxyToResponder" = type { i64, i8, %"class.std::__1::unique_ptr.121" }
%"class.network::mojom::internal::NetworkServiceTest_SetAllowNetworkAccessToHostResolutions_ResponseParams_Data" = type { %"struct.mojo::internal::StructHeader" }
%"class.network::mojom::blink::NetworkServiceTest_SetAllowNetworkAccessToHostResolutions_HandleSyncResponse" = type { %"class.mojo::MessageReceiver", i8* }
%"class.network::mojom::blink::NetworkServiceTest_GetLatestMemoryPressureLevel_ForwardToCallback" = type { %"class.mojo::MessageReceiver", %"class.base::OnceCallback.103" }
%"class.network::mojom::blink::NetworkServiceTest_GetLatestMemoryPressureLevel_ProxyToResponder" = type { i64, i8, %"class.std::__1::unique_ptr.121" }
%"class.network::mojom::internal::NetworkServiceTest_GetLatestMemoryPressureLevel_ResponseParams_Data" = type { %"struct.mojo::internal::StructHeader", i32, [4 x i8] }
%"class.network::mojom::blink::NetworkServiceTest_GetLatestMemoryPressureLevel_HandleSyncResponse" = type { %"class.mojo::MessageReceiver", i8*, i32* }
%"class.network::mojom::blink::NetworkServiceTest_GetPeerToPeerConnectionsCountChange_ForwardToCallback" = type { %"class.mojo::MessageReceiver", %"class.base::OnceCallback.105" }
%"class.network::mojom::blink::NetworkServiceTest_GetPeerToPeerConnectionsCountChange_ProxyToResponder" = type { i64, i8, %"class.std::__1::unique_ptr.121" }
%"class.network::mojom::internal::NetworkServiceTest_GetPeerToPeerConnectionsCountChange_ResponseParams_Data" = type { %"struct.mojo::internal::StructHeader", i32, [4 x i8] }
%"class.network::mojom::blink::NetworkServiceTest_GetPeerToPeerConnectionsCountChange_HandleSyncResponse" = type { %"class.mojo::MessageReceiver", i8*, i32* }
%"class.network::mojom::blink::NetworkServiceTest_GetEnvironmentVariableValue_ForwardToCallback" = type { %"class.mojo::MessageReceiver", %"class.base::OnceCallback.107" }
%"class.network::mojom::blink::NetworkServiceTest_GetEnvironmentVariableValue_ProxyToResponder" = type { i64, i8, %"class.std::__1::unique_ptr.121" }
%"class.network::mojom::internal::NetworkServiceTest_GetEnvironmentVariableValue_ResponseParams_Data" = type { %"struct.mojo::internal::StructHeader", %"struct.mojo::internal::Pointer.92" }
%"class.network::mojom::blink::NetworkServiceTest_GetEnvironmentVariableValue_HandleSyncResponse" = type { %"class.mojo::MessageReceiver", i8*, %"class.WTF::String"* }
%"class.network::mojom::blink::NetworkServiceTest_Log_ForwardToCallback" = type { %"class.mojo::MessageReceiver", %"class.base::OnceCallback" }
%"class.network::mojom::blink::NetworkServiceTest_Log_ProxyToResponder" = type { i64, i8, %"class.std::__1::unique_ptr.121" }
%"class.network::mojom::internal::NetworkServiceTest_Log_ResponseParams_Data" = type { %"struct.mojo::internal::StructHeader" }
%"class.network::mojom::blink::NetworkServiceTest_Log_HandleSyncResponse" = type { %"class.mojo::MessageReceiver", i8* }
%"class.network::mojom::blink::NetworkServiceTest_SetEVPolicy_ForwardToCallback" = type { %"class.mojo::MessageReceiver", %"class.base::OnceCallback" }
%"class.network::mojom::blink::NetworkServiceTest_SetEVPolicy_ProxyToResponder" = type { i64, i8, %"class.std::__1::unique_ptr.121" }
%"class.network::mojom::internal::NetworkServiceTest_SetEVPolicy_ResponseParams_Data" = type { %"struct.mojo::internal::StructHeader" }
%"class.network::mojom::blink::NetworkServiceTest_SetEVPolicy_HandleSyncResponse" = type { %"class.mojo::MessageReceiver", i8* }
%"class.network::mojom::blink::NetworkServiceTest_GetFirstPartySetEntriesCount_ForwardToCallback" = type { %"class.mojo::MessageReceiver", %"class.base::OnceCallback.114" }
%"class.network::mojom::blink::NetworkServiceTest_GetFirstPartySetEntriesCount_ProxyToResponder" = type { i64, i8, %"class.std::__1::unique_ptr.121" }
%"class.network::mojom::internal::NetworkServiceTest_GetFirstPartySetEntriesCount_ResponseParams_Data" = type { %"struct.mojo::internal::StructHeader", i64 }
%"class.network::mojom::blink::NetworkServiceTest_GetFirstPartySetEntriesCount_HandleSyncResponse" = type { %"class.mojo::MessageReceiver", i8*, i64* }
%"class.network::mojom::blink::NetworkServiceTest_SetSCTAuditingRetryDelay_ForwardToCallback" = type { %"class.mojo::MessageReceiver", %"class.base::OnceCallback" }
%"class.network::mojom::blink::NetworkServiceTest_SetSCTAuditingRetryDelay_ProxyToResponder" = type { i64, i8, %"class.std::__1::unique_ptr.121" }
%"class.network::mojom::internal::NetworkServiceTest_SetSCTAuditingRetryDelay_ResponseParams_Data" = type { %"struct.mojo::internal::StructHeader" }
%"class.network::mojom::blink::NetworkServiceTest_SetSCTAuditingRetryDelay_HandleSyncResponse" = type { %"class.mojo::MessageReceiver", i8* }
%"class.network::mojom::blink::NetworkServiceTest_GetSCTAuditingPendingReportsCount_ForwardToCallback" = type { %"class.mojo::MessageReceiver", %"class.base::OnceCallback.119" }
%"class.network::mojom::blink::NetworkServiceTest_GetSCTAuditingPendingReportsCount_ProxyToResponder" = type { i64, i8, %"class.std::__1::unique_ptr.121" }
%"class.network::mojom::internal::NetworkServiceTest_GetSCTAuditingPendingReportsCount_ResponseParams_Data" = type { %"struct.mojo::internal::StructHeader", i64 }
%"class.network::mojom::blink::NetworkServiceTest_GetSCTAuditingPendingReportsCount_HandleSyncResponse" = type { %"class.mojo::MessageReceiver", i8*, i64* }
%"class.network::mojom::blink::NetworkServiceTest_SetSCTAuditingReportCompletionCallback_ForwardToCallback" = type { %"class.mojo::MessageReceiver", %"class.base::OnceCallback" }
%"class.network::mojom::blink::NetworkServiceTest_SetSCTAuditingReportCompletionCallback_ProxyToResponder" = type { i64, i8, %"class.std::__1::unique_ptr.121" }
%"class.network::mojom::internal::NetworkServiceTest_SetSCTAuditingReportCompletionCallback_ResponseParams_Data" = type { %"struct.mojo::internal::StructHeader" }
%"class.base::TaskAnnotator::ScopedSetIpcHash" = type { %"class.base::TaskAnnotator::ScopedSetIpcHash"*, i32, i8* }
%"class.network::mojom::blink::NetworkServiceTestRequestValidator" = type { %"class.mojo::MessageReceiver" }
%"class.network::mojom::blink::NetworkServiceTestResponseValidator" = type { %"class.mojo::MessageReceiver" }
%"class.network::mojom::RuleDataView" = type { %"class.network::mojom::internal::Rule_Data"*, %"class.mojo::Message"* }
%"class.mojo::internal::Array_Data.341" = type { %"struct.mojo::internal::ArrayHeader" }
%"class.logging::CheckOpResult" = type { i8* }
%"class.logging::CheckError" = type { %"class.logging::LogMessage"* }
%"class.logging::LogMessage" = type { i32 (...)**, i32, %"class.std::__1::basic_ostringstream", i64, i8*, i32, %"class.base::ScopedClearLastErrorBase" }
%"class.std::__1::basic_ostringstream" = type { %"class.std::__1::basic_ostream.base", %"class.std::__1::basic_stringbuf", %"class.std::__1::basic_ios.base" }
%"class.std::__1::basic_ostream.base" = type { i32 (...)** }
%"class.std::__1::basic_stringbuf" = type <{ %"class.std::__1::basic_streambuf", %"class.std::__1::basic_string", i8*, i32, [4 x i8] }>
%"class.std::__1::basic_streambuf" = type { i32 (...)**, %"class.std::__1::locale", i8*, i8*, i8*, i8*, i8*, i8* }
%"class.std::__1::locale" = type { %"class.std::__1::locale::__imp"* }
%"class.std::__1::locale::__imp" = type opaque
%"class.std::__1::basic_ios.base" = type <{ %"class.std::__1::ios_base", %"class.std::__1::basic_ostream"*, i32 }>
%"class.std::__1::ios_base" = type { i32 (...)**, i32, i64, i64, i32, i32, i8*, i8*, void (i32, %"class.std::__1::ios_base"*, i32)**, i32*, i64, i64, i64*, i64, i64, i8**, i64, i64 }
%"class.std::__1::basic_ostream" = type { i32 (...)**, %"class.std::__1::basic_ios.base" }
%"class.base::ScopedClearLastErrorBase" = type { i32 }
%"class.mojo::internal::ArrayIterator.342" = type { %"class.WTF::Vector"*, i64 }
%"class.mojo::internal::MessageFragment.340" = type { %"class.mojo::Message"*, i64 }

$_ZN4mojo8internal23ContainerValidateParamsD2Ev = comdat any

$_ZN7network5mojom12RuleDataView14ReadDnsAliasesIN3WTF6VectorINS3_6StringELj0ENS3_18PartitionAllocatorEEEEEbPT_ = comdat any

$_ZN7network5mojom5blink18NetworkServiceTestD0Ev = comdat any

$_ZN7network5mojom5blink46NetworkServiceTest_AddRules_HandleSyncResponseD0Ev = comdat any

$_ZN7network5mojom5blink45NetworkServiceTest_AddRules_ForwardToCallbackD2Ev = comdat any

$_ZN7network5mojom5blink45NetworkServiceTest_AddRules_ForwardToCallbackD0Ev = comdat any

$_ZN7network5mojom5blink58NetworkServiceTest_SimulateNetworkChange_ForwardToCallbackD2Ev = comdat any

$_ZN7network5mojom5blink58NetworkServiceTest_SimulateNetworkChange_ForwardToCallbackD0Ev = comdat any

$_ZN7network5mojom5blink65NetworkServiceTest_SimulateNetworkQualityChange_ForwardToCallbackD2Ev = comdat any

$_ZN7network5mojom5blink65NetworkServiceTest_SimulateNetworkQualityChange_ForwardToCallbackD0Ev = comdat any

$_ZN7network5mojom5blink70NetworkServiceTest_MockCertVerifierSetDefaultResult_HandleSyncResponseD0Ev = comdat any

$_ZN7network5mojom5blink69NetworkServiceTest_MockCertVerifierSetDefaultResult_ForwardToCallbackD2Ev = comdat any

$_ZN7network5mojom5blink69NetworkServiceTest_MockCertVerifierSetDefaultResult_ForwardToCallbackD0Ev = comdat any

$_ZN7network5mojom5blink77NetworkServiceTest_MockCertVerifierAddResultForCertAndHost_HandleSyncResponseD0Ev = comdat any

$_ZN7network5mojom5blink76NetworkServiceTest_MockCertVerifierAddResultForCertAndHost_ForwardToCallbackD2Ev = comdat any

$_ZN7network5mojom5blink76NetworkServiceTest_MockCertVerifierAddResultForCertAndHost_ForwardToCallbackD0Ev = comdat any

$_ZN7network5mojom5blink50NetworkServiceTest_SetRequireCT_HandleSyncResponseD0Ev = comdat any

$_ZN7network5mojom5blink49NetworkServiceTest_SetRequireCT_ForwardToCallbackD2Ev = comdat any

$_ZN7network5mojom5blink49NetworkServiceTest_SetRequireCT_ForwardToCallbackD0Ev = comdat any

$_ZN7network5mojom5blink69NetworkServiceTest_SetTransportSecurityStateSource_HandleSyncResponseD0Ev = comdat any

$_ZN7network5mojom5blink68NetworkServiceTest_SetTransportSecurityStateSource_ForwardToCallbackD2Ev = comdat any

$_ZN7network5mojom5blink68NetworkServiceTest_SetTransportSecurityStateSource_ForwardToCallbackD0Ev = comdat any

$_ZN7network5mojom5blink76NetworkServiceTest_SetAllowNetworkAccessToHostResolutions_HandleSyncResponseD0Ev = comdat any

$_ZN7network5mojom5blink75NetworkServiceTest_SetAllowNetworkAccessToHostResolutions_ForwardToCallbackD2Ev = comdat any

$_ZN7network5mojom5blink75NetworkServiceTest_SetAllowNetworkAccessToHostResolutions_ForwardToCallbackD0Ev = comdat any

$_ZN7network5mojom5blink66NetworkServiceTest_GetLatestMemoryPressureLevel_HandleSyncResponseD0Ev = comdat any

$_ZN7network5mojom5blink65NetworkServiceTest_GetLatestMemoryPressureLevel_ForwardToCallbackD2Ev = comdat any

$_ZN7network5mojom5blink65NetworkServiceTest_GetLatestMemoryPressureLevel_ForwardToCallbackD0Ev = comdat any

$_ZN7network5mojom5blink73NetworkServiceTest_GetPeerToPeerConnectionsCountChange_HandleSyncResponseD0Ev = comdat any

$_ZN7network5mojom5blink72NetworkServiceTest_GetPeerToPeerConnectionsCountChange_ForwardToCallbackD2Ev = comdat any

$_ZN7network5mojom5blink72NetworkServiceTest_GetPeerToPeerConnectionsCountChange_ForwardToCallbackD0Ev = comdat any

$_ZN7network5mojom5blink65NetworkServiceTest_GetEnvironmentVariableValue_HandleSyncResponseD0Ev = comdat any

$_ZN7network5mojom5blink64NetworkServiceTest_GetEnvironmentVariableValue_ForwardToCallbackD2Ev = comdat any

$_ZN7network5mojom5blink64NetworkServiceTest_GetEnvironmentVariableValue_ForwardToCallbackD0Ev = comdat any

$_ZN7network5mojom5blink41NetworkServiceTest_Log_HandleSyncResponseD0Ev = comdat any

$_ZN7network5mojom5blink40NetworkServiceTest_Log_ForwardToCallbackD2Ev = comdat any

$_ZN7network5mojom5blink40NetworkServiceTest_Log_ForwardToCallbackD0Ev = comdat any

$_ZN7network5mojom5blink49NetworkServiceTest_SetEVPolicy_HandleSyncResponseD0Ev = comdat any

$_ZN7network5mojom5blink48NetworkServiceTest_SetEVPolicy_ForwardToCallbackD2Ev = comdat any

$_ZN7network5mojom5blink48NetworkServiceTest_SetEVPolicy_ForwardToCallbackD0Ev = comdat any

$_ZN7network5mojom5blink66NetworkServiceTest_GetFirstPartySetEntriesCount_HandleSyncResponseD0Ev = comdat any

$_ZN7network5mojom5blink65NetworkServiceTest_GetFirstPartySetEntriesCount_ForwardToCallbackD2Ev = comdat any

$_ZN7network5mojom5blink65NetworkServiceTest_GetFirstPartySetEntriesCount_ForwardToCallbackD0Ev = comdat any

$_ZN7network5mojom5blink62NetworkServiceTest_SetSCTAuditingRetryDelay_HandleSyncResponseD0Ev = comdat any

$_ZN7network5mojom5blink61NetworkServiceTest_SetSCTAuditingRetryDelay_ForwardToCallbackD2Ev = comdat any

$_ZN7network5mojom5blink61NetworkServiceTest_SetSCTAuditingRetryDelay_ForwardToCallbackD0Ev = comdat any

$_ZN7network5mojom5blink71NetworkServiceTest_GetSCTAuditingPendingReportsCount_HandleSyncResponseD0Ev = comdat any

$_ZN7network5mojom5blink70NetworkServiceTest_GetSCTAuditingPendingReportsCount_ForwardToCallbackD2Ev = comdat any

$_ZN7network5mojom5blink70NetworkServiceTest_GetSCTAuditingPendingReportsCount_ForwardToCallbackD0Ev = comdat any

$_ZN7network5mojom5blink75NetworkServiceTest_SetSCTAuditingReportCompletionCallback_ForwardToCallbackD2Ev = comdat any

$_ZN7network5mojom5blink75NetworkServiceTest_SetSCTAuditingReportCompletionCallback_ForwardToCallbackD0Ev = comdat any

$_ZN7network5mojom5blink18NetworkServiceTestD2Ev = comdat any

$_ZN7network5mojom5blink23NetworkServiceTestProxyD0Ev = comdat any

$_ZN7network5mojom5blink34NetworkServiceTestRequestValidatorD0Ev = comdat any

$_ZN4mojo15MessageReceiverD2Ev = comdat any

$_ZN7network5mojom5blink35NetworkServiceTestResponseValidatorD0Ev = comdat any

$_ZN4base8internal7InvokerINS0_9BindStateIMN7network5mojom5blink44NetworkServiceTest_AddRules_ProxyToResponderEFvvEJNSt3__110unique_ptrIS6_NS9_14default_deleteIS6_EEEEEEEFvvEE7RunOnceEPNS0_13BindStateBaseE = comdat any

$_ZN4base8internal9BindStateIMN7network5mojom5blink44NetworkServiceTest_AddRules_ProxyToResponderEFvvEJNSt3__110unique_ptrIS5_NS8_14default_deleteIS5_EEEEEE7DestroyEPKNS0_13BindStateBaseE = comdat any

$_ZN4base8internal7InvokerINS0_9BindStateIMN7network5mojom5blink57NetworkServiceTest_SimulateNetworkChange_ProxyToResponderEFvvEJNSt3__110unique_ptrIS6_NS9_14default_deleteIS6_EEEEEEEFvvEE7RunOnceEPNS0_13BindStateBaseE = comdat any

$_ZN4base8internal9BindStateIMN7network5mojom5blink57NetworkServiceTest_SimulateNetworkChange_ProxyToResponderEFvvEJNSt3__110unique_ptrIS5_NS8_14default_deleteIS5_EEEEEE7DestroyEPKNS0_13BindStateBaseE = comdat any

$_ZN4base8internal7InvokerINS0_9BindStateIMN7network5mojom5blink64NetworkServiceTest_SimulateNetworkQualityChange_ProxyToResponderEFvvEJNSt3__110unique_ptrIS6_NS9_14default_deleteIS6_EEEEEEEFvvEE7RunOnceEPNS0_13BindStateBaseE = comdat any

$_ZN4base8internal9BindStateIMN7network5mojom5blink64NetworkServiceTest_SimulateNetworkQualityChange_ProxyToResponderEFvvEJNSt3__110unique_ptrIS5_NS8_14default_deleteIS5_EEEEEE7DestroyEPKNS0_13BindStateBaseE = comdat any

$_ZN4base8internal7InvokerINS0_9BindStateIMN7network5mojom5blink68NetworkServiceTest_MockCertVerifierSetDefaultResult_ProxyToResponderEFvvEJNSt3__110unique_ptrIS6_NS9_14default_deleteIS6_EEEEEEEFvvEE7RunOnceEPNS0_13BindStateBaseE = comdat any

$_ZN4base8internal9BindStateIMN7network5mojom5blink68NetworkServiceTest_MockCertVerifierSetDefaultResult_ProxyToResponderEFvvEJNSt3__110unique_ptrIS5_NS8_14default_deleteIS5_EEEEEE7DestroyEPKNS0_13BindStateBaseE = comdat any

$_ZN4base8internal7InvokerINS0_9BindStateIMN7network5mojom5blink75NetworkServiceTest_MockCertVerifierAddResultForCertAndHost_ProxyToResponderEFvvEJNSt3__110unique_ptrIS6_NS9_14default_deleteIS6_EEEEEEEFvvEE7RunOnceEPNS0_13BindStateBaseE = comdat any

$_ZN4base8internal9BindStateIMN7network5mojom5blink75NetworkServiceTest_MockCertVerifierAddResultForCertAndHost_ProxyToResponderEFvvEJNSt3__110unique_ptrIS5_NS8_14default_deleteIS5_EEEEEE7DestroyEPKNS0_13BindStateBaseE = comdat any

$_ZN4base8internal7InvokerINS0_9BindStateIMN7network5mojom5blink48NetworkServiceTest_SetRequireCT_ProxyToResponderEFvvEJNSt3__110unique_ptrIS6_NS9_14default_deleteIS6_EEEEEEEFvvEE7RunOnceEPNS0_13BindStateBaseE = comdat any

$_ZN4base8internal9BindStateIMN7network5mojom5blink48NetworkServiceTest_SetRequireCT_ProxyToResponderEFvvEJNSt3__110unique_ptrIS5_NS8_14default_deleteIS5_EEEEEE7DestroyEPKNS0_13BindStateBaseE = comdat any

$_ZN4base8internal7InvokerINS0_9BindStateIMN7network5mojom5blink67NetworkServiceTest_SetTransportSecurityStateSource_ProxyToResponderEFvvEJNSt3__110unique_ptrIS6_NS9_14default_deleteIS6_EEEEEEEFvvEE7RunOnceEPNS0_13BindStateBaseE = comdat any

$_ZN4base8internal9BindStateIMN7network5mojom5blink67NetworkServiceTest_SetTransportSecurityStateSource_ProxyToResponderEFvvEJNSt3__110unique_ptrIS5_NS8_14default_deleteIS5_EEEEEE7DestroyEPKNS0_13BindStateBaseE = comdat any

$_ZN4base8internal7InvokerINS0_9BindStateIMN7network5mojom5blink74NetworkServiceTest_SetAllowNetworkAccessToHostResolutions_ProxyToResponderEFvvEJNSt3__110unique_ptrIS6_NS9_14default_deleteIS6_EEEEEEEFvvEE7RunOnceEPNS0_13BindStateBaseE = comdat any

$_ZN4base8internal9BindStateIMN7network5mojom5blink74NetworkServiceTest_SetAllowNetworkAccessToHostResolutions_ProxyToResponderEFvvEJNSt3__110unique_ptrIS5_NS8_14default_deleteIS5_EEEEEE7DestroyEPKNS0_13BindStateBaseE = comdat any

$_ZN4base8internal7InvokerINS0_9BindStateIMN7network5mojom5blink64NetworkServiceTest_GetLatestMemoryPressureLevel_ProxyToResponderEFvN9mojo_base5mojom19MemoryPressureLevelEEJNSt3__110unique_ptrIS6_NSC_14default_deleteIS6_EEEEEEEFvS9_EE7RunOnceEPNS0_13BindStateBaseES9_ = comdat any

$_ZN4base8internal9BindStateIMN7network5mojom5blink64NetworkServiceTest_GetLatestMemoryPressureLevel_ProxyToResponderEFvN9mojo_base5mojom19MemoryPressureLevelEEJNSt3__110unique_ptrIS5_NSB_14default_deleteIS5_EEEEEE7DestroyEPKNS0_13BindStateBaseE = comdat any

$_ZN4base8internal7InvokerINS0_9BindStateIMN7network5mojom5blink71NetworkServiceTest_GetPeerToPeerConnectionsCountChange_ProxyToResponderEFvjEJNSt3__110unique_ptrIS6_NS9_14default_deleteIS6_EEEEEEEFvjEE7RunOnceEPNS0_13BindStateBaseEj = comdat any

$_ZN4base8internal9BindStateIMN7network5mojom5blink71NetworkServiceTest_GetPeerToPeerConnectionsCountChange_ProxyToResponderEFvjEJNSt3__110unique_ptrIS5_NS8_14default_deleteIS5_EEEEEE7DestroyEPKNS0_13BindStateBaseE = comdat any

$_ZN4base8internal7InvokerINS0_9BindStateIMN7network5mojom5blink63NetworkServiceTest_GetEnvironmentVariableValue_ProxyToResponderEFvRKN3WTF6StringEEJNSt3__110unique_ptrIS6_NSD_14default_deleteIS6_EEEEEEEFvSA_EE7RunOnceEPNS0_13BindStateBaseESA_ = comdat any

$_ZN4base8internal9BindStateIMN7network5mojom5blink63NetworkServiceTest_GetEnvironmentVariableValue_ProxyToResponderEFvRKN3WTF6StringEEJNSt3__110unique_ptrIS5_NSC_14default_deleteIS5_EEEEEE7DestroyEPKNS0_13BindStateBaseE = comdat any

$_ZN4base8internal7InvokerINS0_9BindStateIMN7network5mojom5blink39NetworkServiceTest_Log_ProxyToResponderEFvvEJNSt3__110unique_ptrIS6_NS9_14default_deleteIS6_EEEEEEEFvvEE7RunOnceEPNS0_13BindStateBaseE = comdat any

$_ZN4base8internal9BindStateIMN7network5mojom5blink39NetworkServiceTest_Log_ProxyToResponderEFvvEJNSt3__110unique_ptrIS5_NS8_14default_deleteIS5_EEEEEE7DestroyEPKNS0_13BindStateBaseE = comdat any

$_ZN4base8internal7InvokerINS0_9BindStateIMN7network5mojom5blink47NetworkServiceTest_SetEVPolicy_ProxyToResponderEFvvEJNSt3__110unique_ptrIS6_NS9_14default_deleteIS6_EEEEEEEFvvEE7RunOnceEPNS0_13BindStateBaseE = comdat any

$_ZN4base8internal9BindStateIMN7network5mojom5blink47NetworkServiceTest_SetEVPolicy_ProxyToResponderEFvvEJNSt3__110unique_ptrIS5_NS8_14default_deleteIS5_EEEEEE7DestroyEPKNS0_13BindStateBaseE = comdat any

$_ZN4base8internal7InvokerINS0_9BindStateIMN7network5mojom5blink64NetworkServiceTest_GetFirstPartySetEntriesCount_ProxyToResponderEFvlEJNSt3__110unique_ptrIS6_NS9_14default_deleteIS6_EEEEEEEFvlEE7RunOnceEPNS0_13BindStateBaseEl = comdat any

$_ZN4base8internal9BindStateIMN7network5mojom5blink64NetworkServiceTest_GetFirstPartySetEntriesCount_ProxyToResponderEFvlEJNSt3__110unique_ptrIS5_NS8_14default_deleteIS5_EEEEEE7DestroyEPKNS0_13BindStateBaseE = comdat any

$_ZN4base8internal7InvokerINS0_9BindStateIMN7network5mojom5blink60NetworkServiceTest_SetSCTAuditingRetryDelay_ProxyToResponderEFvvEJNSt3__110unique_ptrIS6_NS9_14default_deleteIS6_EEEEEEEFvvEE7RunOnceEPNS0_13BindStateBaseE = comdat any

$_ZN4base8internal9BindStateIMN7network5mojom5blink60NetworkServiceTest_SetSCTAuditingRetryDelay_ProxyToResponderEFvvEJNSt3__110unique_ptrIS5_NS8_14default_deleteIS5_EEEEEE7DestroyEPKNS0_13BindStateBaseE = comdat any

$_ZN4base8internal7InvokerINS0_9BindStateIMN7network5mojom5blink69NetworkServiceTest_GetSCTAuditingPendingReportsCount_ProxyToResponderEFvmEJNSt3__110unique_ptrIS6_NS9_14default_deleteIS6_EEEEEEEFvmEE7RunOnceEPNS0_13BindStateBaseEm = comdat any

$_ZN4base8internal9BindStateIMN7network5mojom5blink69NetworkServiceTest_GetSCTAuditingPendingReportsCount_ProxyToResponderEFvmEJNSt3__110unique_ptrIS5_NS8_14default_deleteIS5_EEEEEE7DestroyEPKNS0_13BindStateBaseE = comdat any

$_ZN4base8internal7InvokerINS0_9BindStateIMN7network5mojom5blink74NetworkServiceTest_SetSCTAuditingReportCompletionCallback_ProxyToResponderEFvvEJNSt3__110unique_ptrIS6_NS9_14default_deleteIS6_EEEEEEEFvvEE7RunOnceEPNS0_13BindStateBaseE = comdat any

$_ZN4base8internal9BindStateIMN7network5mojom5blink74NetworkServiceTest_SetSCTAuditingReportCompletionCallback_ProxyToResponderEFvvEJNSt3__110unique_ptrIS5_NS8_14default_deleteIS5_EEEEEE7DestroyEPKNS0_13BindStateBaseE = comdat any

$_ZN3WTF6VectorIN4mojo9StructPtrIN7network5mojom5blink4RuleEEELj0ENS_18PartitionAllocatorEE2atEj = comdat any

$_ZN4mojo8internal10SerializerIN7network5mojom12RuleDataViewENS_9StructPtrINS3_5blink4RuleEEEE9SerializeERS8_RNS0_15MessageFragmentINS3_8internal9Rule_DataEEE = comdat any

$_ZN4mojo8internal15ArraySerializerINS_13ArrayDataViewINS_14StringDataViewEEEKN3WTF6VectorINS5_6StringELj0ENS5_18PartitionAllocatorEEENS0_13ArrayIteratorINS_11ArrayTraitsIS9_EESA_Lb0EEEvE17SerializeElementsEPSE_RNS0_15MessageFragmentINS0_10Array_DataINS0_7PointerINSI_IcEEEEEEEEPKNS0_23ContainerValidateParamsE = comdat any

$_ZNK3WTF6VectorINS_6StringELj0ENS_18PartitionAllocatorEE2atEj = comdat any

$_ZNK3WTF6VectorIhLj0ENS_18PartitionAllocatorEE2atEj = comdat any

$_ZN4mojo8internal15ArraySerializerINS_13ArrayDataViewIN7network5mojom12RuleDataViewEEEN3WTF6VectorINS_9StructPtrINS4_5blink4RuleEEELj0ENS7_18PartitionAllocatorEEENS0_13ArrayIteratorINS_11ArrayTraitsISE_EESE_Lb0EEEvE19DeserializeElementsEPNS0_10Array_DataINS0_7PointerINS4_8internal9Rule_DataEEEEEPSE_PNS_7MessageE = comdat any

$_ZN3WTF6VectorIN4mojo9StructPtrIN7network5mojom5blink4RuleEEELj0ENS_18PartitionAllocatorEE16ReallocateBufferEj = comdat any

$_ZN3WTF18PartitionAllocator13QuantizedSizeIN4mojo9StructPtrIN7network5mojom5blink4RuleEEEEEmm = comdat any

$_ZN3WTF6VectorIN4mojo9StructPtrIN7network5mojom5blink4RuleEEELj0ENS_18PartitionAllocatorEE6resizeEj = comdat any

$_ZN4mojo8internal15ArraySerializerINS_13ArrayDataViewIhEEN3WTF6VectorIhLj0ENS4_18PartitionAllocatorEEENS0_13ArrayIteratorINS_11ArrayTraitsIS7_EES7_Lb0EEEvE19DeserializeElementsEPNS0_10Array_DataIhEEPS7_PNS_7MessageE = comdat any

$_ZN3WTF18PartitionAllocator13QuantizedSizeIhEEmm = comdat any

$_ZN3WTF6VectorIhLj0ENS_18PartitionAllocatorEE2atEj = comdat any

$_ZN4mojo8internal15ArraySerializerINS_13ArrayDataViewINS_14StringDataViewEEEN3WTF6VectorINS5_6StringELj0ENS5_18PartitionAllocatorEEENS0_13ArrayIteratorINS_11ArrayTraitsIS9_EES9_Lb0EEEvE19DeserializeElementsEPNS0_10Array_DataINS0_7PointerINSF_IcEEEEEEPS9_PNS_7MessageE = comdat any

$_ZN3WTF18PartitionAllocator13QuantizedSizeINS_6StringEEEmm = comdat any

$_ZN3WTF6VectorINS_6StringELj0ENS_18PartitionAllocatorEE6resizeEj = comdat any

$_ZN3WTF6VectorINS_6StringELj0ENS_18PartitionAllocatorEE2atEj = comdat any

@.str = private unnamed_addr constant [14 x i8] c"resolver_type\00", align 1
@.str.2 = private unnamed_addr constant [13 x i8] c"host_pattern\00", align 1
@.str.3 = private unnamed_addr constant [12 x i8] c"replacement\00", align 1
@.str.4 = private unnamed_addr constant [20 x i8] c"host_resolver_flags\00", align 1
@.str.5 = private unnamed_addr constant [12 x i8] c"dns_aliases\00", align 1
@_ZN7network5mojom5blink18NetworkServiceTest5Name_E = hidden constant [33 x i8] c"network.mojom.NetworkServiceTest\00", align 16
@_ZTVN7network5mojom5blink23NetworkServiceTestProxyE = hidden unnamed_addr constant { [39 x i8*] } { [39 x i8*] [i8* null, i8* null, i8* bitcast (void (%"class.network::mojom::blink::NetworkServiceTest"*)* @_ZN7network5mojom5blink18NetworkServiceTestD2Ev to i8*), i8* bitcast (void (%"class.network::mojom::blink::NetworkServiceTestProxy"*)* @_ZN7network5mojom5blink23NetworkServiceTestProxyD0Ev to i8*), i8* bitcast (i1 (%"class.network::mojom::blink::NetworkServiceTestProxy"*, %"class.WTF::Vector.31"*)* @_ZN7network5mojom5blink23NetworkServiceTestProxy8AddRulesEN3WTF6VectorIN4mojo9StructPtrINS1_4RuleEEELj0ENS3_18PartitionAllocatorEEE to i8*), i8* bitcast (void (%"class.network::mojom::blink::NetworkServiceTestProxy"*, %"class.WTF::Vector.31"*, %"class.base::OnceCallback"*)* @_ZN7network5mojom5blink23NetworkServiceTestProxy8AddRulesEN3WTF6VectorIN4mojo9StructPtrINS1_4RuleEEELj0ENS3_18PartitionAllocatorEEEN4base12OnceCallbackIFvvEEE to i8*), i8* bitcast (void (%"class.network::mojom::blink::NetworkServiceTestProxy"*, i32, %"class.base::OnceCallback"*)* @_ZN7network5mojom5blink23NetworkServiceTestProxy21SimulateNetworkChangeENS0_14ConnectionTypeEN4base12OnceCallbackIFvvEEE to i8*), i8* bitcast (void (%"class.network::mojom::blink::NetworkServiceTestProxy"*, i32, %"class.base::OnceCallback"*)* @_ZN7network5mojom5blink23NetworkServiceTestProxy28SimulateNetworkQualityChangeEN4mojo10NativeEnumEN4base12OnceCallbackIFvvEEE to i8*), i8* bitcast (void (%"class.network::mojom::blink::NetworkServiceTestProxy"*)* @_ZN7network5mojom5blink23NetworkServiceTestProxy13SimulateCrashEv to i8*), i8* bitcast (i1 (%"class.network::mojom::blink::NetworkServiceTestProxy"*, i32)* @_ZN7network5mojom5blink23NetworkServiceTestProxy32MockCertVerifierSetDefaultResultEi to i8*), i8* bitcast (void (%"class.network::mojom::blink::NetworkServiceTestProxy"*, i32, %"class.base::OnceCallback"*)* @_ZN7network5mojom5blink23NetworkServiceTestProxy32MockCertVerifierSetDefaultResultEiN4base12OnceCallbackIFvvEEE to i8*), i8* bitcast (i1 (%"class.network::mojom::blink::NetworkServiceTestProxy"*, %"class.mojo::StructPtr.39"*, %"class.WTF::String"*, %"class.mojo::StructPtr.39"*, i32)* @_ZN7network5mojom5blink23NetworkServiceTestProxy39MockCertVerifierAddResultForCertAndHostEN4mojo9StructPtrINS3_6native12NativeStructEEERKN3WTF6StringES7_i to i8*), i8* bitcast (void (%"class.network::mojom::blink::NetworkServiceTestProxy"*, %"class.mojo::StructPtr.39"*, %"class.WTF::String"*, %"class.mojo::StructPtr.39"*, i32, %"class.base::OnceCallback"*)* @_ZN7network5mojom5blink23NetworkServiceTestProxy39MockCertVerifierAddResultForCertAndHostEN4mojo9StructPtrINS3_6native12NativeStructEEERKN3WTF6StringES7_iN4base12OnceCallbackIFvvEEE to i8*), i8* bitcast (i1 (%"class.network::mojom::blink::NetworkServiceTestProxy"*, i32)* @_ZN7network5mojom5blink23NetworkServiceTestProxy12SetRequireCTENS0_28NetworkServiceTest_RequireCTE to i8*), i8* bitcast (void (%"class.network::mojom::blink::NetworkServiceTestProxy"*, i32, %"class.base::OnceCallback"*)* @_ZN7network5mojom5blink23NetworkServiceTestProxy12SetRequireCTENS0_28NetworkServiceTest_RequireCTEN4base12OnceCallbackIFvvEEE to i8*), i8* bitcast (i1 (%"class.network::mojom::blink::NetworkServiceTestProxy"*, i16)* @_ZN7network5mojom5blink23NetworkServiceTestProxy31SetTransportSecurityStateSourceEt to i8*), i8* bitcast (void (%"class.network::mojom::blink::NetworkServiceTestProxy"*, i16, %"class.base::OnceCallback"*)* @_ZN7network5mojom5blink23NetworkServiceTestProxy31SetTransportSecurityStateSourceEtN4base12OnceCallbackIFvvEEE to i8*), i8* bitcast (i1 (%"class.network::mojom::blink::NetworkServiceTestProxy"*)* @_ZN7network5mojom5blink23NetworkServiceTestProxy38SetAllowNetworkAccessToHostResolutionsEv to i8*), i8* bitcast (void (%"class.network::mojom::blink::NetworkServiceTestProxy"*, %"class.base::OnceCallback"*)* @_ZN7network5mojom5blink23NetworkServiceTestProxy38SetAllowNetworkAccessToHostResolutionsEN4base12OnceCallbackIFvvEEE to i8*), i8* bitcast (void (%"class.network::mojom::blink::NetworkServiceTestProxy"*, %"class.WTF::String"*)* @_ZN7network5mojom5blink23NetworkServiceTestProxy18CrashOnResolveHostERKN3WTF6StringE to i8*), i8* bitcast (void (%"class.network::mojom::blink::NetworkServiceTestProxy"*)* @_ZN7network5mojom5blink23NetworkServiceTestProxy20CrashOnGetCookieListEv to i8*), i8* bitcast (i1 (%"class.network::mojom::blink::NetworkServiceTestProxy"*, i32*)* @_ZN7network5mojom5blink23NetworkServiceTestProxy28GetLatestMemoryPressureLevelEPN9mojo_base5mojom19MemoryPressureLevelE to i8*), i8* bitcast (void (%"class.network::mojom::blink::NetworkServiceTestProxy"*, %"class.base::OnceCallback.103"*)* @_ZN7network5mojom5blink23NetworkServiceTestProxy28GetLatestMemoryPressureLevelEN4base12OnceCallbackIFvN9mojo_base5mojom19MemoryPressureLevelEEEE to i8*), i8* bitcast (i1 (%"class.network::mojom::blink::NetworkServiceTestProxy"*, i32*)* @_ZN7network5mojom5blink23NetworkServiceTestProxy35GetPeerToPeerConnectionsCountChangeEPj to i8*), i8* bitcast (void (%"class.network::mojom::blink::NetworkServiceTestProxy"*, %"class.base::OnceCallback.105"*)* @_ZN7network5mojom5blink23NetworkServiceTestProxy35GetPeerToPeerConnectionsCountChangeEN4base12OnceCallbackIFvjEEE to i8*), i8* bitcast (i1 (%"class.network::mojom::blink::NetworkServiceTestProxy"*, %"class.WTF::String"*, %"class.WTF::String"*)* @_ZN7network5mojom5blink23NetworkServiceTestProxy27GetEnvironmentVariableValueERKN3WTF6StringEPS4_ to i8*), i8* bitcast (void (%"class.network::mojom::blink::NetworkServiceTestProxy"*, %"class.WTF::String"*, %"class.base::OnceCallback.107"*)* @_ZN7network5mojom5blink23NetworkServiceTestProxy27GetEnvironmentVariableValueERKN3WTF6StringEN4base12OnceCallbackIFvS6_EEE to i8*), i8* bitcast (i1 (%"class.network::mojom::blink::NetworkServiceTestProxy"*, %"class.WTF::String"*)* @_ZN7network5mojom5blink23NetworkServiceTestProxy3LogERKN3WTF6StringE to i8*), i8* bitcast (void (%"class.network::mojom::blink::NetworkServiceTestProxy"*, %"class.WTF::String"*, %"class.base::OnceCallback"*)* @_ZN7network5mojom5blink23NetworkServiceTestProxy3LogERKN3WTF6StringEN4base12OnceCallbackIFvvEEE to i8*), i8* bitcast (void (%"class.network::mojom::blink::NetworkServiceTestProxy"*, %"class.WTF::String"*)* @_ZN7network5mojom5blink23NetworkServiceTestProxy18ActivateFieldTrialERKN3WTF6StringE to i8*), i8* bitcast (i1 (%"class.network::mojom::blink::NetworkServiceTestProxy"*, %"class.WTF::Vector.68"*, %"class.WTF::String"*)* @_ZN7network5mojom5blink23NetworkServiceTestProxy11SetEVPolicyERKN3WTF6VectorIhLj0ENS3_18PartitionAllocatorEEERKNS3_6StringE to i8*), i8* bitcast (void (%"class.network::mojom::blink::NetworkServiceTestProxy"*, %"class.WTF::Vector.68"*, %"class.WTF::String"*, %"class.base::OnceCallback"*)* @_ZN7network5mojom5blink23NetworkServiceTestProxy11SetEVPolicyERKN3WTF6VectorIhLj0ENS3_18PartitionAllocatorEEERKNS3_6StringEN4base12OnceCallbackIFvvEEE to i8*), i8* bitcast (i1 (%"class.network::mojom::blink::NetworkServiceTestProxy"*, i64*)* @_ZN7network5mojom5blink23NetworkServiceTestProxy28GetFirstPartySetEntriesCountEPl to i8*), i8* bitcast (void (%"class.network::mojom::blink::NetworkServiceTestProxy"*, %"class.base::OnceCallback.114"*)* @_ZN7network5mojom5blink23NetworkServiceTestProxy28GetFirstPartySetEntriesCountEN4base12OnceCallbackIFvlEEE to i8*), i8* bitcast (i1 (%"class.network::mojom::blink::NetworkServiceTestProxy"*, i8, i64)* @_ZN7network5mojom5blink23NetworkServiceTestProxy24SetSCTAuditingRetryDelayEN4absl8optionalIN4base9TimeDeltaEEE to i8*), i8* bitcast (void (%"class.network::mojom::blink::NetworkServiceTestProxy"*, i8, i64, %"class.base::OnceCallback"*)* @_ZN7network5mojom5blink23NetworkServiceTestProxy24SetSCTAuditingRetryDelayEN4absl8optionalIN4base9TimeDeltaEEENS5_12OnceCallbackIFvvEEE to i8*), i8* bitcast (i1 (%"class.network::mojom::blink::NetworkServiceTestProxy"*, i64*)* @_ZN7network5mojom5blink23NetworkServiceTestProxy33GetSCTAuditingPendingReportsCountEPm to i8*), i8* bitcast (void (%"class.network::mojom::blink::NetworkServiceTestProxy"*, %"class.base::OnceCallback.119"*)* @_ZN7network5mojom5blink23NetworkServiceTestProxy33GetSCTAuditingPendingReportsCountEN4base12OnceCallbackIFvmEEE to i8*), i8* bitcast (void (%"class.network::mojom::blink::NetworkServiceTestProxy"*, %"class.base::OnceCallback"*)* @_ZN7network5mojom5blink23NetworkServiceTestProxy38SetSCTAuditingReportCompletionCallbackEN4base12OnceCallbackIFvvEEE to i8*)] }, align 8
@_ZN7network5mojom5blinkL33kNetworkServiceTestValidationInfoE = internal constant [21 x %"struct.std::__1::pair"] [%"struct.std::__1::pair" { i32 1842504132, %"struct.mojo::internal::GenericValidationInfo" { i1 (i8*, %"class.mojo::internal::ValidationContext"*)* @_ZN7network5mojom8internal39NetworkServiceTest_AddRules_Params_Data8ValidateEPKvPN4mojo8internal17ValidationContextE, i1 (i8*, %"class.mojo::internal::ValidationContext"*)* @_ZN7network5mojom8internal47NetworkServiceTest_AddRules_ResponseParams_Data8ValidateEPKvPN4mojo8internal17ValidationContextE } }, %"struct.std::__1::pair" { i32 770970789, %"struct.mojo::internal::GenericValidationInfo" { i1 (i8*, %"class.mojo::internal::ValidationContext"*)* @_ZN7network5mojom8internal52NetworkServiceTest_SimulateNetworkChange_Params_Data8ValidateEPKvPN4mojo8internal17ValidationContextE, i1 (i8*, %"class.mojo::internal::ValidationContext"*)* @_ZN7network5mojom8internal60NetworkServiceTest_SimulateNetworkChange_ResponseParams_Data8ValidateEPKvPN4mojo8internal17ValidationContextE } }, %"struct.std::__1::pair" { i32 529548984, %"struct.mojo::internal::GenericValidationInfo" { i1 (i8*, %"class.mojo::internal::ValidationContext"*)* @_ZN7network5mojom8internal59NetworkServiceTest_SimulateNetworkQualityChange_Params_Data8ValidateEPKvPN4mojo8internal17ValidationContextE, i1 (i8*, %"class.mojo::internal::ValidationContext"*)* @_ZN7network5mojom8internal67NetworkServiceTest_SimulateNetworkQualityChange_ResponseParams_Data8ValidateEPKvPN4mojo8internal17ValidationContextE } }, %"struct.std::__1::pair" { i32 1355754339, %"struct.mojo::internal::GenericValidationInfo" { i1 (i8*, %"class.mojo::internal::ValidationContext"*)* @_ZN7network5mojom8internal44NetworkServiceTest_SimulateCrash_Params_Data8ValidateEPKvPN4mojo8internal17ValidationContextE, i1 (i8*, %"class.mojo::internal::ValidationContext"*)* null } }, %"struct.std::__1::pair" { i32 343609816, %"struct.mojo::internal::GenericValidationInfo" { i1 (i8*, %"class.mojo::internal::ValidationContext"*)* @_ZN7network5mojom8internal63NetworkServiceTest_MockCertVerifierSetDefaultResult_Params_Data8ValidateEPKvPN4mojo8internal17ValidationContextE, i1 (i8*, %"class.mojo::internal::ValidationContext"*)* @_ZN7network5mojom8internal71NetworkServiceTest_MockCertVerifierSetDefaultResult_ResponseParams_Data8ValidateEPKvPN4mojo8internal17ValidationContextE } }, %"struct.std::__1::pair" { i32 278364737, %"struct.mojo::internal::GenericValidationInfo" { i1 (i8*, %"class.mojo::internal::ValidationContext"*)* @_ZN7network5mojom8internal70NetworkServiceTest_MockCertVerifierAddResultForCertAndHost_Params_Data8ValidateEPKvPN4mojo8internal17ValidationContextE, i1 (i8*, %"class.mojo::internal::ValidationContext"*)* @_ZN7network5mojom8internal78NetworkServiceTest_MockCertVerifierAddResultForCertAndHost_ResponseParams_Data8ValidateEPKvPN4mojo8internal17ValidationContextE } }, %"struct.std::__1::pair" { i32 401814863, %"struct.mojo::internal::GenericValidationInfo" { i1 (i8*, %"class.mojo::internal::ValidationContext"*)* @_ZN7network5mojom8internal43NetworkServiceTest_SetRequireCT_Params_Data8ValidateEPKvPN4mojo8internal17ValidationContextE, i1 (i8*, %"class.mojo::internal::ValidationContext"*)* @_ZN7network5mojom8internal51NetworkServiceTest_SetRequireCT_ResponseParams_Data8ValidateEPKvPN4mojo8internal17ValidationContextE } }, %"struct.std::__1::pair" { i32 1633370188, %"struct.mojo::internal::GenericValidationInfo" { i1 (i8*, %"class.mojo::internal::ValidationContext"*)* @_ZN7network5mojom8internal62NetworkServiceTest_SetTransportSecurityStateSource_Params_Data8ValidateEPKvPN4mojo8internal17ValidationContextE, i1 (i8*, %"class.mojo::internal::ValidationContext"*)* @_ZN7network5mojom8internal70NetworkServiceTest_SetTransportSecurityStateSource_ResponseParams_Data8ValidateEPKvPN4mojo8internal17ValidationContextE } }, %"struct.std::__1::pair" { i32 348381728, %"struct.mojo::internal::GenericValidationInfo" { i1 (i8*, %"class.mojo::internal::ValidationContext"*)* @_ZN7network5mojom8internal69NetworkServiceTest_SetAllowNetworkAccessToHostResolutions_Params_Data8ValidateEPKvPN4mojo8internal17ValidationContextE, i1 (i8*, %"class.mojo::internal::ValidationContext"*)* @_ZN7network5mojom8internal77NetworkServiceTest_SetAllowNetworkAccessToHostResolutions_ResponseParams_Data8ValidateEPKvPN4mojo8internal17ValidationContextE } }, %"struct.std::__1::pair" { i32 1259990622, %"struct.mojo::internal::GenericValidationInfo" { i1 (i8*, %"class.mojo::internal::ValidationContext"*)* @_ZN7network5mojom8internal49NetworkServiceTest_CrashOnResolveHost_Params_Data8ValidateEPKvPN4mojo8internal17ValidationContextE, i1 (i8*, %"class.mojo::internal::ValidationContext"*)* null } }, %"struct.std::__1::pair" { i32 1923533677, %"struct.mojo::internal::GenericValidationInfo" { i1 (i8*, %"class.mojo::internal::ValidationContext"*)* @_ZN7network5mojom8internal51NetworkServiceTest_CrashOnGetCookieList_Params_Data8ValidateEPKvPN4mojo8internal17ValidationContextE, i1 (i8*, %"class.mojo::internal::ValidationContext"*)* null } }, %"struct.std::__1::pair" { i32 1911011900, %"struct.mojo::internal::GenericValidationInfo" { i1 (i8*, %"class.mojo::internal::ValidationContext"*)* @_ZN7network5mojom8internal59NetworkServiceTest_GetLatestMemoryPressureLevel_Params_Data8ValidateEPKvPN4mojo8internal17ValidationContextE, i1 (i8*, %"class.mojo::internal::ValidationContext"*)* @_ZN7network5mojom8internal67NetworkServiceTest_GetLatestMemoryPressureLevel_ResponseParams_Data8ValidateEPKvPN4mojo8internal17ValidationContextE } }, %"struct.std::__1::pair" { i32 2111883237, %"struct.mojo::internal::GenericValidationInfo" { i1 (i8*, %"class.mojo::internal::ValidationContext"*)* @_ZN7network5mojom8internal66NetworkServiceTest_GetPeerToPeerConnectionsCountChange_Params_Data8ValidateEPKvPN4mojo8internal17ValidationContextE, i1 (i8*, %"class.mojo::internal::ValidationContext"*)* @_ZN7network5mojom8internal74NetworkServiceTest_GetPeerToPeerConnectionsCountChange_ResponseParams_Data8ValidateEPKvPN4mojo8internal17ValidationContextE } }, %"struct.std::__1::pair" { i32 1072134097, %"struct.mojo::internal::GenericValidationInfo" { i1 (i8*, %"class.mojo::internal::ValidationContext"*)* @_ZN7network5mojom8internal58NetworkServiceTest_GetEnvironmentVariableValue_Params_Data8ValidateEPKvPN4mojo8internal17ValidationContextE, i1 (i8*, %"class.mojo::internal::ValidationContext"*)* @_ZN7network5mojom8internal66NetworkServiceTest_GetEnvironmentVariableValue_ResponseParams_Data8ValidateEPKvPN4mojo8internal17ValidationContextE } }, %"struct.std::__1::pair" { i32 74253995, %"struct.mojo::internal::GenericValidationInfo" { i1 (i8*, %"class.mojo::internal::ValidationContext"*)* @_ZN7network5mojom8internal34NetworkServiceTest_Log_Params_Data8ValidateEPKvPN4mojo8internal17ValidationContextE, i1 (i8*, %"class.mojo::internal::ValidationContext"*)* @_ZN7network5mojom8internal42NetworkServiceTest_Log_ResponseParams_Data8ValidateEPKvPN4mojo8internal17ValidationContextE } }, %"struct.std::__1::pair" { i32 12603606, %"struct.mojo::internal::GenericValidationInfo" { i1 (i8*, %"class.mojo::internal::ValidationContext"*)* @_ZN7network5mojom8internal49NetworkServiceTest_ActivateFieldTrial_Params_Data8ValidateEPKvPN4mojo8internal17ValidationContextE, i1 (i8*, %"class.mojo::internal::ValidationContext"*)* null } }, %"struct.std::__1::pair" { i32 1188838258, %"struct.mojo::internal::GenericValidationInfo" { i1 (i8*, %"class.mojo::internal::ValidationContext"*)* @_ZN7network5mojom8internal42NetworkServiceTest_SetEVPolicy_Params_Data8ValidateEPKvPN4mojo8internal17ValidationContextE, i1 (i8*, %"class.mojo::internal::ValidationContext"*)* @_ZN7network5mojom8internal50NetworkServiceTest_SetEVPolicy_ResponseParams_Data8ValidateEPKvPN4mojo8internal17ValidationContextE } }, %"struct.std::__1::pair" { i32 832733096, %"struct.mojo::internal::GenericValidationInfo" { i1 (i8*, %"class.mojo::internal::ValidationContext"*)* @_ZN7network5mojom8internal59NetworkServiceTest_GetFirstPartySetEntriesCount_Params_Data8ValidateEPKvPN4mojo8internal17ValidationContextE, i1 (i8*, %"class.mojo::internal::ValidationContext"*)* @_ZN7network5mojom8internal67NetworkServiceTest_GetFirstPartySetEntriesCount_ResponseParams_Data8ValidateEPKvPN4mojo8internal17ValidationContextE } }, %"struct.std::__1::pair" { i32 177127893, %"struct.mojo::internal::GenericValidationInfo" { i1 (i8*, %"class.mojo::internal::ValidationContext"*)* @_ZN7network5mojom8internal55NetworkServiceTest_SetSCTAuditingRetryDelay_Params_Data8ValidateEPKvPN4mojo8internal17ValidationContextE, i1 (i8*, %"class.mojo::internal::ValidationContext"*)* @_ZN7network5mojom8internal63NetworkServiceTest_SetSCTAuditingRetryDelay_ResponseParams_Data8ValidateEPKvPN4mojo8internal17ValidationContextE } }, %"struct.std::__1::pair" { i32 1623448593, %"struct.mojo::internal::GenericValidationInfo" { i1 (i8*, %"class.mojo::internal::ValidationContext"*)* @_ZN7network5mojom8internal64NetworkServiceTest_GetSCTAuditingPendingReportsCount_Params_Data8ValidateEPKvPN4mojo8internal17ValidationContextE, i1 (i8*, %"class.mojo::internal::ValidationContext"*)* @_ZN7network5mojom8internal72NetworkServiceTest_GetSCTAuditingPendingReportsCount_ResponseParams_Data8ValidateEPKvPN4mojo8internal17ValidationContextE } }, %"struct.std::__1::pair" { i32 1816001466, %"struct.mojo::internal::GenericValidationInfo" { i1 (i8*, %"class.mojo::internal::ValidationContext"*)* @_ZN7network5mojom8internal69NetworkServiceTest_SetSCTAuditingReportCompletionCallback_Params_Data8ValidateEPKvPN4mojo8internal17ValidationContextE, i1 (i8*, %"class.mojo::internal::ValidationContext"*)* @_ZN7network5mojom8internal77NetworkServiceTest_SetSCTAuditingReportCompletionCallback_ResponseParams_Data8ValidateEPKvPN4mojo8internal17ValidationContextE } }], align 16
@_ZTVN7network5mojom5blink18NetworkServiceTestE = hidden unnamed_addr constant { [39 x i8*] } { [39 x i8*] [i8* null, i8* null, i8* bitcast (void (%"class.network::mojom::blink::NetworkServiceTest"*)* @_ZN7network5mojom5blink18NetworkServiceTestD2Ev to i8*), i8* bitcast (void (%"class.network::mojom::blink::NetworkServiceTest"*)* @_ZN7network5mojom5blink18NetworkServiceTestD0Ev to i8*), i8* bitcast (i1 (%"class.network::mojom::blink::NetworkServiceTest"*, %"class.WTF::Vector.31"*)* @_ZN7network5mojom5blink18NetworkServiceTest8AddRulesEN3WTF6VectorIN4mojo9StructPtrINS1_4RuleEEELj0ENS3_18PartitionAllocatorEEE to i8*), i8* bitcast (void ()* @__cxa_pure_virtual to i8*), i8* bitcast (void ()* @__cxa_pure_virtual to i8*), i8* bitcast (void ()* @__cxa_pure_virtual to i8*), i8* bitcast (void ()* @__cxa_pure_virtual to i8*), i8* bitcast (i1 (%"class.network::mojom::blink::NetworkServiceTest"*, i32)* @_ZN7network5mojom5blink18NetworkServiceTest32MockCertVerifierSetDefaultResultEi to i8*), i8* bitcast (void ()* @__cxa_pure_virtual to i8*), i8* bitcast (i1 (%"class.network::mojom::blink::NetworkServiceTest"*, %"class.mojo::StructPtr.39"*, %"class.WTF::String"*, %"class.mojo::StructPtr.39"*, i32)* @_ZN7network5mojom5blink18NetworkServiceTest39MockCertVerifierAddResultForCertAndHostEN4mojo9StructPtrINS3_6native12NativeStructEEERKN3WTF6StringES7_i to i8*), i8* bitcast (void ()* @__cxa_pure_virtual to i8*), i8* bitcast (i1 (%"class.network::mojom::blink::NetworkServiceTest"*, i32)* @_ZN7network5mojom5blink18NetworkServiceTest12SetRequireCTENS0_28NetworkServiceTest_RequireCTE to i8*), i8* bitcast (void ()* @__cxa_pure_virtual to i8*), i8* bitcast (i1 (%"class.network::mojom::blink::NetworkServiceTest"*, i16)* @_ZN7network5mojom5blink18NetworkServiceTest31SetTransportSecurityStateSourceEt to i8*), i8* bitcast (void ()* @__cxa_pure_virtual to i8*), i8* bitcast (i1 (%"class.network::mojom::blink::NetworkServiceTest"*)* @_ZN7network5mojom5blink18NetworkServiceTest38SetAllowNetworkAccessToHostResolutionsEv to i8*), i8* bitcast (void ()* @__cxa_pure_virtual to i8*), i8* bitcast (void ()* @__cxa_pure_virtual to i8*), i8* bitcast (void ()* @__cxa_pure_virtual to i8*), i8* bitcast (i1 (%"class.network::mojom::blink::NetworkServiceTest"*, i32*)* @_ZN7network5mojom5blink18NetworkServiceTest28GetLatestMemoryPressureLevelEPN9mojo_base5mojom19MemoryPressureLevelE to i8*), i8* bitcast (void ()* @__cxa_pure_virtual to i8*), i8* bitcast (i1 (%"class.network::mojom::blink::NetworkServiceTest"*, i32*)* @_ZN7network5mojom5blink18NetworkServiceTest35GetPeerToPeerConnectionsCountChangeEPj to i8*), i8* bitcast (void ()* @__cxa_pure_virtual to i8*), i8* bitcast (i1 (%"class.network::mojom::blink::NetworkServiceTest"*, %"class.WTF::String"*, %"class.WTF::String"*)* @_ZN7network5mojom5blink18NetworkServiceTest27GetEnvironmentVariableValueERKN3WTF6StringEPS4_ to i8*), i8* bitcast (void ()* @__cxa_pure_virtual to i8*), i8* bitcast (i1 (%"class.network::mojom::blink::NetworkServiceTest"*, %"class.WTF::String"*)* @_ZN7network5mojom5blink18NetworkServiceTest3LogERKN3WTF6StringE to i8*), i8* bitcast (void ()* @__cxa_pure_virtual to i8*), i8* bitcast (void ()* @__cxa_pure_virtual to i8*), i8* bitcast (i1 (%"class.network::mojom::blink::NetworkServiceTest"*, %"class.WTF::Vector.68"*, %"class.WTF::String"*)* @_ZN7network5mojom5blink18NetworkServiceTest11SetEVPolicyERKN3WTF6VectorIhLj0ENS3_18PartitionAllocatorEEERKNS3_6StringE to i8*), i8* bitcast (void ()* @__cxa_pure_virtual to i8*), i8* bitcast (i1 (%"class.network::mojom::blink::NetworkServiceTest"*, i64*)* @_ZN7network5mojom5blink18NetworkServiceTest28GetFirstPartySetEntriesCountEPl to i8*), i8* bitcast (void ()* @__cxa_pure_virtual to i8*), i8* bitcast (i1 (%"class.network::mojom::blink::NetworkServiceTest"*, i8, i64)* @_ZN7network5mojom5blink18NetworkServiceTest24SetSCTAuditingRetryDelayEN4absl8optionalIN4base9TimeDeltaEEE to i8*), i8* bitcast (void ()* @__cxa_pure_virtual to i8*), i8* bitcast (i1 (%"class.network::mojom::blink::NetworkServiceTest"*, i64*)* @_ZN7network5mojom5blink18NetworkServiceTest33GetSCTAuditingPendingReportsCountEPm to i8*), i8* bitcast (void ()* @__cxa_pure_virtual to i8*), i8* bitcast (void ()* @__cxa_pure_virtual to i8*)] }, align 8
@_ZTVN7network5mojom5blink46NetworkServiceTest_AddRules_HandleSyncResponseE = hidden unnamed_addr constant { [6 x i8*] } { [6 x i8*] [i8* null, i8* null, i8* bitcast (void (%"class.mojo::MessageReceiver"*)* @_ZN4mojo15MessageReceiverD2Ev to i8*), i8* bitcast (void (%"class.network::mojom::blink::NetworkServiceTest_AddRules_HandleSyncResponse"*)* @_ZN7network5mojom5blink46NetworkServiceTest_AddRules_HandleSyncResponseD0Ev to i8*), i8* bitcast (i1 (%"class.mojo::MessageReceiver"*)* @_ZN4mojo15MessageReceiver25PrefersSerializedMessagesEv to i8*), i8* bitcast (i1 (%"class.network::mojom::blink::NetworkServiceTest_AddRules_HandleSyncResponse"*, %"class.mojo::Message"*)* @_ZN7network5mojom5blink46NetworkServiceTest_AddRules_HandleSyncResponse6AcceptEPN4mojo7MessageE to i8*)] }, align 8
@_ZTVN7network5mojom5blink45NetworkServiceTest_AddRules_ForwardToCallbackE = hidden unnamed_addr constant { [6 x i8*] } { [6 x i8*] [i8* null, i8* null, i8* bitcast (void (%"class.network::mojom::blink::NetworkServiceTest_AddRules_ForwardToCallback"*)* @_ZN7network5mojom5blink45NetworkServiceTest_AddRules_ForwardToCallbackD2Ev to i8*), i8* bitcast (void (%"class.network::mojom::blink::NetworkServiceTest_AddRules_ForwardToCallback"*)* @_ZN7network5mojom5blink45NetworkServiceTest_AddRules_ForwardToCallbackD0Ev to i8*), i8* bitcast (i1 (%"class.mojo::MessageReceiver"*)* @_ZN4mojo15MessageReceiver25PrefersSerializedMessagesEv to i8*), i8* bitcast (i1 (%"class.network::mojom::blink::NetworkServiceTest_AddRules_ForwardToCallback"*, %"class.mojo::Message"*)* @_ZN7network5mojom5blink45NetworkServiceTest_AddRules_ForwardToCallback6AcceptEPN4mojo7MessageE to i8*)] }, align 8
@_ZTVN7network5mojom5blink58NetworkServiceTest_SimulateNetworkChange_ForwardToCallbackE = hidden unnamed_addr constant { [6 x i8*] } { [6 x i8*] [i8* null, i8* null, i8* bitcast (void (%"class.network::mojom::blink::NetworkServiceTest_SimulateNetworkChange_ForwardToCallback"*)* @_ZN7network5mojom5blink58NetworkServiceTest_SimulateNetworkChange_ForwardToCallbackD2Ev to i8*), i8* bitcast (void (%"class.network::mojom::blink::NetworkServiceTest_SimulateNetworkChange_ForwardToCallback"*)* @_ZN7network5mojom5blink58NetworkServiceTest_SimulateNetworkChange_ForwardToCallbackD0Ev to i8*), i8* bitcast (i1 (%"class.mojo::MessageReceiver"*)* @_ZN4mojo15MessageReceiver25PrefersSerializedMessagesEv to i8*), i8* bitcast (i1 (%"class.network::mojom::blink::NetworkServiceTest_SimulateNetworkChange_ForwardToCallback"*, %"class.mojo::Message"*)* @_ZN7network5mojom5blink58NetworkServiceTest_SimulateNetworkChange_ForwardToCallback6AcceptEPN4mojo7MessageE to i8*)] }, align 8
@_ZTVN7network5mojom5blink65NetworkServiceTest_SimulateNetworkQualityChange_ForwardToCallbackE = hidden unnamed_addr constant { [6 x i8*] } { [6 x i8*] [i8* null, i8* null, i8* bitcast (void (%"class.network::mojom::blink::NetworkServiceTest_SimulateNetworkQualityChange_ForwardToCallback"*)* @_ZN7network5mojom5blink65NetworkServiceTest_SimulateNetworkQualityChange_ForwardToCallbackD2Ev to i8*), i8* bitcast (void (%"class.network::mojom::blink::NetworkServiceTest_SimulateNetworkQualityChange_ForwardToCallback"*)* @_ZN7network5mojom5blink65NetworkServiceTest_SimulateNetworkQualityChange_ForwardToCallbackD0Ev to i8*), i8* bitcast (i1 (%"class.mojo::MessageReceiver"*)* @_ZN4mojo15MessageReceiver25PrefersSerializedMessagesEv to i8*), i8* bitcast (i1 (%"class.network::mojom::blink::NetworkServiceTest_SimulateNetworkQualityChange_ForwardToCallback"*, %"class.mojo::Message"*)* @_ZN7network5mojom5blink65NetworkServiceTest_SimulateNetworkQualityChange_ForwardToCallback6AcceptEPN4mojo7MessageE to i8*)] }, align 8
@_ZTVN7network5mojom5blink70NetworkServiceTest_MockCertVerifierSetDefaultResult_HandleSyncResponseE = hidden unnamed_addr constant { [6 x i8*] } { [6 x i8*] [i8* null, i8* null, i8* bitcast (void (%"class.mojo::MessageReceiver"*)* @_ZN4mojo15MessageReceiverD2Ev to i8*), i8* bitcast (void (%"class.network::mojom::blink::NetworkServiceTest_MockCertVerifierSetDefaultResult_HandleSyncResponse"*)* @_ZN7network5mojom5blink70NetworkServiceTest_MockCertVerifierSetDefaultResult_HandleSyncResponseD0Ev to i8*), i8* bitcast (i1 (%"class.mojo::MessageReceiver"*)* @_ZN4mojo15MessageReceiver25PrefersSerializedMessagesEv to i8*), i8* bitcast (i1 (%"class.network::mojom::blink::NetworkServiceTest_MockCertVerifierSetDefaultResult_HandleSyncResponse"*, %"class.mojo::Message"*)* @_ZN7network5mojom5blink70NetworkServiceTest_MockCertVerifierSetDefaultResult_HandleSyncResponse6AcceptEPN4mojo7MessageE to i8*)] }, align 8
@_ZTVN7network5mojom5blink69NetworkServiceTest_MockCertVerifierSetDefaultResult_ForwardToCallbackE = hidden unnamed_addr constant { [6 x i8*] } { [6 x i8*] [i8* null, i8* null, i8* bitcast (void (%"class.network::mojom::blink::NetworkServiceTest_MockCertVerifierSetDefaultResult_ForwardToCallback"*)* @_ZN7network5mojom5blink69NetworkServiceTest_MockCertVerifierSetDefaultResult_ForwardToCallbackD2Ev to i8*), i8* bitcast (void (%"class.network::mojom::blink::NetworkServiceTest_MockCertVerifierSetDefaultResult_ForwardToCallback"*)* @_ZN7network5mojom5blink69NetworkServiceTest_MockCertVerifierSetDefaultResult_ForwardToCallbackD0Ev to i8*), i8* bitcast (i1 (%"class.mojo::MessageReceiver"*)* @_ZN4mojo15MessageReceiver25PrefersSerializedMessagesEv to i8*), i8* bitcast (i1 (%"class.network::mojom::blink::NetworkServiceTest_MockCertVerifierSetDefaultResult_ForwardToCallback"*, %"class.mojo::Message"*)* @_ZN7network5mojom5blink69NetworkServiceTest_MockCertVerifierSetDefaultResult_ForwardToCallback6AcceptEPN4mojo7MessageE to i8*)] }, align 8
@_ZTVN7network5mojom5blink77NetworkServiceTest_MockCertVerifierAddResultForCertAndHost_HandleSyncResponseE = hidden unnamed_addr constant { [6 x i8*] } { [6 x i8*] [i8* null, i8* null, i8* bitcast (void (%"class.mojo::MessageReceiver"*)* @_ZN4mojo15MessageReceiverD2Ev to i8*), i8* bitcast (void (%"class.network::mojom::blink::NetworkServiceTest_MockCertVerifierAddResultForCertAndHost_HandleSyncResponse"*)* @_ZN7network5mojom5blink77NetworkServiceTest_MockCertVerifierAddResultForCertAndHost_HandleSyncResponseD0Ev to i8*), i8* bitcast (i1 (%"class.mojo::MessageReceiver"*)* @_ZN4mojo15MessageReceiver25PrefersSerializedMessagesEv to i8*), i8* bitcast (i1 (%"class.network::mojom::blink::NetworkServiceTest_MockCertVerifierAddResultForCertAndHost_HandleSyncResponse"*, %"class.mojo::Message"*)* @_ZN7network5mojom5blink77NetworkServiceTest_MockCertVerifierAddResultForCertAndHost_HandleSyncResponse6AcceptEPN4mojo7MessageE to i8*)] }, align 8
@_ZTVN7network5mojom5blink76NetworkServiceTest_MockCertVerifierAddResultForCertAndHost_ForwardToCallbackE = hidden unnamed_addr constant { [6 x i8*] } { [6 x i8*] [i8* null, i8* null, i8* bitcast (void (%"class.network::mojom::blink::NetworkServiceTest_MockCertVerifierAddResultForCertAndHost_ForwardToCallback"*)* @_ZN7network5mojom5blink76NetworkServiceTest_MockCertVerifierAddResultForCertAndHost_ForwardToCallbackD2Ev to i8*), i8* bitcast (void (%"class.network::mojom::blink::NetworkServiceTest_MockCertVerifierAddResultForCertAndHost_ForwardToCallback"*)* @_ZN7network5mojom5blink76NetworkServiceTest_MockCertVerifierAddResultForCertAndHost_ForwardToCallbackD0Ev to i8*), i8* bitcast (i1 (%"class.mojo::MessageReceiver"*)* @_ZN4mojo15MessageReceiver25PrefersSerializedMessagesEv to i8*), i8* bitcast (i1 (%"class.network::mojom::blink::NetworkServiceTest_MockCertVerifierAddResultForCertAndHost_ForwardToCallback"*, %"class.mojo::Message"*)* @_ZN7network5mojom5blink76NetworkServiceTest_MockCertVerifierAddResultForCertAndHost_ForwardToCallback6AcceptEPN4mojo7MessageE to i8*)] }, align 8
@_ZTVN7network5mojom5blink50NetworkServiceTest_SetRequireCT_HandleSyncResponseE = hidden unnamed_addr constant { [6 x i8*] } { [6 x i8*] [i8* null, i8* null, i8* bitcast (void (%"class.mojo::MessageReceiver"*)* @_ZN4mojo15MessageReceiverD2Ev to i8*), i8* bitcast (void (%"class.network::mojom::blink::NetworkServiceTest_SetRequireCT_HandleSyncResponse"*)* @_ZN7network5mojom5blink50NetworkServiceTest_SetRequireCT_HandleSyncResponseD0Ev to i8*), i8* bitcast (i1 (%"class.mojo::MessageReceiver"*)* @_ZN4mojo15MessageReceiver25PrefersSerializedMessagesEv to i8*), i8* bitcast (i1 (%"class.network::mojom::blink::NetworkServiceTest_SetRequireCT_HandleSyncResponse"*, %"class.mojo::Message"*)* @_ZN7network5mojom5blink50NetworkServiceTest_SetRequireCT_HandleSyncResponse6AcceptEPN4mojo7MessageE to i8*)] }, align 8
@_ZTVN7network5mojom5blink49NetworkServiceTest_SetRequireCT_ForwardToCallbackE = hidden unnamed_addr constant { [6 x i8*] } { [6 x i8*] [i8* null, i8* null, i8* bitcast (void (%"class.network::mojom::blink::NetworkServiceTest_SetRequireCT_ForwardToCallback"*)* @_ZN7network5mojom5blink49NetworkServiceTest_SetRequireCT_ForwardToCallbackD2Ev to i8*), i8* bitcast (void (%"class.network::mojom::blink::NetworkServiceTest_SetRequireCT_ForwardToCallback"*)* @_ZN7network5mojom5blink49NetworkServiceTest_SetRequireCT_ForwardToCallbackD0Ev to i8*), i8* bitcast (i1 (%"class.mojo::MessageReceiver"*)* @_ZN4mojo15MessageReceiver25PrefersSerializedMessagesEv to i8*), i8* bitcast (i1 (%"class.network::mojom::blink::NetworkServiceTest_SetRequireCT_ForwardToCallback"*, %"class.mojo::Message"*)* @_ZN7network5mojom5blink49NetworkServiceTest_SetRequireCT_ForwardToCallback6AcceptEPN4mojo7MessageE to i8*)] }, align 8
@_ZTVN7network5mojom5blink69NetworkServiceTest_SetTransportSecurityStateSource_HandleSyncResponseE = hidden unnamed_addr constant { [6 x i8*] } { [6 x i8*] [i8* null, i8* null, i8* bitcast (void (%"class.mojo::MessageReceiver"*)* @_ZN4mojo15MessageReceiverD2Ev to i8*), i8* bitcast (void (%"class.network::mojom::blink::NetworkServiceTest_SetTransportSecurityStateSource_HandleSyncResponse"*)* @_ZN7network5mojom5blink69NetworkServiceTest_SetTransportSecurityStateSource_HandleSyncResponseD0Ev to i8*), i8* bitcast (i1 (%"class.mojo::MessageReceiver"*)* @_ZN4mojo15MessageReceiver25PrefersSerializedMessagesEv to i8*), i8* bitcast (i1 (%"class.network::mojom::blink::NetworkServiceTest_SetTransportSecurityStateSource_HandleSyncResponse"*, %"class.mojo::Message"*)* @_ZN7network5mojom5blink69NetworkServiceTest_SetTransportSecurityStateSource_HandleSyncResponse6AcceptEPN4mojo7MessageE to i8*)] }, align 8
@_ZTVN7network5mojom5blink68NetworkServiceTest_SetTransportSecurityStateSource_ForwardToCallbackE = hidden unnamed_addr constant { [6 x i8*] } { [6 x i8*] [i8* null, i8* null, i8* bitcast (void (%"class.network::mojom::blink::NetworkServiceTest_SetTransportSecurityStateSource_ForwardToCallback"*)* @_ZN7network5mojom5blink68NetworkServiceTest_SetTransportSecurityStateSource_ForwardToCallbackD2Ev to i8*), i8* bitcast (void (%"class.network::mojom::blink::NetworkServiceTest_SetTransportSecurityStateSource_ForwardToCallback"*)* @_ZN7network5mojom5blink68NetworkServiceTest_SetTransportSecurityStateSource_ForwardToCallbackD0Ev to i8*), i8* bitcast (i1 (%"class.mojo::MessageReceiver"*)* @_ZN4mojo15MessageReceiver25PrefersSerializedMessagesEv to i8*), i8* bitcast (i1 (%"class.network::mojom::blink::NetworkServiceTest_SetTransportSecurityStateSource_ForwardToCallback"*, %"class.mojo::Message"*)* @_ZN7network5mojom5blink68NetworkServiceTest_SetTransportSecurityStateSource_ForwardToCallback6AcceptEPN4mojo7MessageE to i8*)] }, align 8
@_ZTVN7network5mojom5blink76NetworkServiceTest_SetAllowNetworkAccessToHostResolutions_HandleSyncResponseE = hidden unnamed_addr constant { [6 x i8*] } { [6 x i8*] [i8* null, i8* null, i8* bitcast (void (%"class.mojo::MessageReceiver"*)* @_ZN4mojo15MessageReceiverD2Ev to i8*), i8* bitcast (void (%"class.network::mojom::blink::NetworkServiceTest_SetAllowNetworkAccessToHostResolutions_HandleSyncResponse"*)* @_ZN7network5mojom5blink76NetworkServiceTest_SetAllowNetworkAccessToHostResolutions_HandleSyncResponseD0Ev to i8*), i8* bitcast (i1 (%"class.mojo::MessageReceiver"*)* @_ZN4mojo15MessageReceiver25PrefersSerializedMessagesEv to i8*), i8* bitcast (i1 (%"class.network::mojom::blink::NetworkServiceTest_SetAllowNetworkAccessToHostResolutions_HandleSyncResponse"*, %"class.mojo::Message"*)* @_ZN7network5mojom5blink76NetworkServiceTest_SetAllowNetworkAccessToHostResolutions_HandleSyncResponse6AcceptEPN4mojo7MessageE to i8*)] }, align 8
@_ZTVN7network5mojom5blink75NetworkServiceTest_SetAllowNetworkAccessToHostResolutions_ForwardToCallbackE = hidden unnamed_addr constant { [6 x i8*] } { [6 x i8*] [i8* null, i8* null, i8* bitcast (void (%"class.network::mojom::blink::NetworkServiceTest_SetAllowNetworkAccessToHostResolutions_ForwardToCallback"*)* @_ZN7network5mojom5blink75NetworkServiceTest_SetAllowNetworkAccessToHostResolutions_ForwardToCallbackD2Ev to i8*), i8* bitcast (void (%"class.network::mojom::blink::NetworkServiceTest_SetAllowNetworkAccessToHostResolutions_ForwardToCallback"*)* @_ZN7network5mojom5blink75NetworkServiceTest_SetAllowNetworkAccessToHostResolutions_ForwardToCallbackD0Ev to i8*), i8* bitcast (i1 (%"class.mojo::MessageReceiver"*)* @_ZN4mojo15MessageReceiver25PrefersSerializedMessagesEv to i8*), i8* bitcast (i1 (%"class.network::mojom::blink::NetworkServiceTest_SetAllowNetworkAccessToHostResolutions_ForwardToCallback"*, %"class.mojo::Message"*)* @_ZN7network5mojom5blink75NetworkServiceTest_SetAllowNetworkAccessToHostResolutions_ForwardToCallback6AcceptEPN4mojo7MessageE to i8*)] }, align 8
@_ZTVN7network5mojom5blink66NetworkServiceTest_GetLatestMemoryPressureLevel_HandleSyncResponseE = hidden unnamed_addr constant { [6 x i8*] } { [6 x i8*] [i8* null, i8* null, i8* bitcast (void (%"class.mojo::MessageReceiver"*)* @_ZN4mojo15MessageReceiverD2Ev to i8*), i8* bitcast (void (%"class.network::mojom::blink::NetworkServiceTest_GetLatestMemoryPressureLevel_HandleSyncResponse"*)* @_ZN7network5mojom5blink66NetworkServiceTest_GetLatestMemoryPressureLevel_HandleSyncResponseD0Ev to i8*), i8* bitcast (i1 (%"class.mojo::MessageReceiver"*)* @_ZN4mojo15MessageReceiver25PrefersSerializedMessagesEv to i8*), i8* bitcast (i1 (%"class.network::mojom::blink::NetworkServiceTest_GetLatestMemoryPressureLevel_HandleSyncResponse"*, %"class.mojo::Message"*)* @_ZN7network5mojom5blink66NetworkServiceTest_GetLatestMemoryPressureLevel_HandleSyncResponse6AcceptEPN4mojo7MessageE to i8*)] }, align 8
@_ZTVN7network5mojom5blink65NetworkServiceTest_GetLatestMemoryPressureLevel_ForwardToCallbackE = hidden unnamed_addr constant { [6 x i8*] } { [6 x i8*] [i8* null, i8* null, i8* bitcast (void (%"class.network::mojom::blink::NetworkServiceTest_GetLatestMemoryPressureLevel_ForwardToCallback"*)* @_ZN7network5mojom5blink65NetworkServiceTest_GetLatestMemoryPressureLevel_ForwardToCallbackD2Ev to i8*), i8* bitcast (void (%"class.network::mojom::blink::NetworkServiceTest_GetLatestMemoryPressureLevel_ForwardToCallback"*)* @_ZN7network5mojom5blink65NetworkServiceTest_GetLatestMemoryPressureLevel_ForwardToCallbackD0Ev to i8*), i8* bitcast (i1 (%"class.mojo::MessageReceiver"*)* @_ZN4mojo15MessageReceiver25PrefersSerializedMessagesEv to i8*), i8* bitcast (i1 (%"class.network::mojom::blink::NetworkServiceTest_GetLatestMemoryPressureLevel_ForwardToCallback"*, %"class.mojo::Message"*)* @_ZN7network5mojom5blink65NetworkServiceTest_GetLatestMemoryPressureLevel_ForwardToCallback6AcceptEPN4mojo7MessageE to i8*)] }, align 8
@_ZTVN7network5mojom5blink73NetworkServiceTest_GetPeerToPeerConnectionsCountChange_HandleSyncResponseE = hidden unnamed_addr constant { [6 x i8*] } { [6 x i8*] [i8* null, i8* null, i8* bitcast (void (%"class.mojo::MessageReceiver"*)* @_ZN4mojo15MessageReceiverD2Ev to i8*), i8* bitcast (void (%"class.network::mojom::blink::NetworkServiceTest_GetPeerToPeerConnectionsCountChange_HandleSyncResponse"*)* @_ZN7network5mojom5blink73NetworkServiceTest_GetPeerToPeerConnectionsCountChange_HandleSyncResponseD0Ev to i8*), i8* bitcast (i1 (%"class.mojo::MessageReceiver"*)* @_ZN4mojo15MessageReceiver25PrefersSerializedMessagesEv to i8*), i8* bitcast (i1 (%"class.network::mojom::blink::NetworkServiceTest_GetPeerToPeerConnectionsCountChange_HandleSyncResponse"*, %"class.mojo::Message"*)* @_ZN7network5mojom5blink73NetworkServiceTest_GetPeerToPeerConnectionsCountChange_HandleSyncResponse6AcceptEPN4mojo7MessageE to i8*)] }, align 8
@_ZTVN7network5mojom5blink72NetworkServiceTest_GetPeerToPeerConnectionsCountChange_ForwardToCallbackE = hidden unnamed_addr constant { [6 x i8*] } { [6 x i8*] [i8* null, i8* null, i8* bitcast (void (%"class.network::mojom::blink::NetworkServiceTest_GetPeerToPeerConnectionsCountChange_ForwardToCallback"*)* @_ZN7network5mojom5blink72NetworkServiceTest_GetPeerToPeerConnectionsCountChange_ForwardToCallbackD2Ev to i8*), i8* bitcast (void (%"class.network::mojom::blink::NetworkServiceTest_GetPeerToPeerConnectionsCountChange_ForwardToCallback"*)* @_ZN7network5mojom5blink72NetworkServiceTest_GetPeerToPeerConnectionsCountChange_ForwardToCallbackD0Ev to i8*), i8* bitcast (i1 (%"class.mojo::MessageReceiver"*)* @_ZN4mojo15MessageReceiver25PrefersSerializedMessagesEv to i8*), i8* bitcast (i1 (%"class.network::mojom::blink::NetworkServiceTest_GetPeerToPeerConnectionsCountChange_ForwardToCallback"*, %"class.mojo::Message"*)* @_ZN7network5mojom5blink72NetworkServiceTest_GetPeerToPeerConnectionsCountChange_ForwardToCallback6AcceptEPN4mojo7MessageE to i8*)] }, align 8
@_ZTVN7network5mojom5blink65NetworkServiceTest_GetEnvironmentVariableValue_HandleSyncResponseE = hidden unnamed_addr constant { [6 x i8*] } { [6 x i8*] [i8* null, i8* null, i8* bitcast (void (%"class.mojo::MessageReceiver"*)* @_ZN4mojo15MessageReceiverD2Ev to i8*), i8* bitcast (void (%"class.network::mojom::blink::NetworkServiceTest_GetEnvironmentVariableValue_HandleSyncResponse"*)* @_ZN7network5mojom5blink65NetworkServiceTest_GetEnvironmentVariableValue_HandleSyncResponseD0Ev to i8*), i8* bitcast (i1 (%"class.mojo::MessageReceiver"*)* @_ZN4mojo15MessageReceiver25PrefersSerializedMessagesEv to i8*), i8* bitcast (i1 (%"class.network::mojom::blink::NetworkServiceTest_GetEnvironmentVariableValue_HandleSyncResponse"*, %"class.mojo::Message"*)* @_ZN7network5mojom5blink65NetworkServiceTest_GetEnvironmentVariableValue_HandleSyncResponse6AcceptEPN4mojo7MessageE to i8*)] }, align 8
@_ZTVN7network5mojom5blink64NetworkServiceTest_GetEnvironmentVariableValue_ForwardToCallbackE = hidden unnamed_addr constant { [6 x i8*] } { [6 x i8*] [i8* null, i8* null, i8* bitcast (void (%"class.network::mojom::blink::NetworkServiceTest_GetEnvironmentVariableValue_ForwardToCallback"*)* @_ZN7network5mojom5blink64NetworkServiceTest_GetEnvironmentVariableValue_ForwardToCallbackD2Ev to i8*), i8* bitcast (void (%"class.network::mojom::blink::NetworkServiceTest_GetEnvironmentVariableValue_ForwardToCallback"*)* @_ZN7network5mojom5blink64NetworkServiceTest_GetEnvironmentVariableValue_ForwardToCallbackD0Ev to i8*), i8* bitcast (i1 (%"class.mojo::MessageReceiver"*)* @_ZN4mojo15MessageReceiver25PrefersSerializedMessagesEv to i8*), i8* bitcast (i1 (%"class.network::mojom::blink::NetworkServiceTest_GetEnvironmentVariableValue_ForwardToCallback"*, %"class.mojo::Message"*)* @_ZN7network5mojom5blink64NetworkServiceTest_GetEnvironmentVariableValue_ForwardToCallback6AcceptEPN4mojo7MessageE to i8*)] }, align 8
@_ZTVN7network5mojom5blink41NetworkServiceTest_Log_HandleSyncResponseE = hidden unnamed_addr constant { [6 x i8*] } { [6 x i8*] [i8* null, i8* null, i8* bitcast (void (%"class.mojo::MessageReceiver"*)* @_ZN4mojo15MessageReceiverD2Ev to i8*), i8* bitcast (void (%"class.network::mojom::blink::NetworkServiceTest_Log_HandleSyncResponse"*)* @_ZN7network5mojom5blink41NetworkServiceTest_Log_HandleSyncResponseD0Ev to i8*), i8* bitcast (i1 (%"class.mojo::MessageReceiver"*)* @_ZN4mojo15MessageReceiver25PrefersSerializedMessagesEv to i8*), i8* bitcast (i1 (%"class.network::mojom::blink::NetworkServiceTest_Log_HandleSyncResponse"*, %"class.mojo::Message"*)* @_ZN7network5mojom5blink41NetworkServiceTest_Log_HandleSyncResponse6AcceptEPN4mojo7MessageE to i8*)] }, align 8
@_ZTVN7network5mojom5blink40NetworkServiceTest_Log_ForwardToCallbackE = hidden unnamed_addr constant { [6 x i8*] } { [6 x i8*] [i8* null, i8* null, i8* bitcast (void (%"class.network::mojom::blink::NetworkServiceTest_Log_ForwardToCallback"*)* @_ZN7network5mojom5blink40NetworkServiceTest_Log_ForwardToCallbackD2Ev to i8*), i8* bitcast (void (%"class.network::mojom::blink::NetworkServiceTest_Log_ForwardToCallback"*)* @_ZN7network5mojom5blink40NetworkServiceTest_Log_ForwardToCallbackD0Ev to i8*), i8* bitcast (i1 (%"class.mojo::MessageReceiver"*)* @_ZN4mojo15MessageReceiver25PrefersSerializedMessagesEv to i8*), i8* bitcast (i1 (%"class.network::mojom::blink::NetworkServiceTest_Log_ForwardToCallback"*, %"class.mojo::Message"*)* @_ZN7network5mojom5blink40NetworkServiceTest_Log_ForwardToCallback6AcceptEPN4mojo7MessageE to i8*)] }, align 8
@_ZTVN7network5mojom5blink49NetworkServiceTest_SetEVPolicy_HandleSyncResponseE = hidden unnamed_addr constant { [6 x i8*] } { [6 x i8*] [i8* null, i8* null, i8* bitcast (void (%"class.mojo::MessageReceiver"*)* @_ZN4mojo15MessageReceiverD2Ev to i8*), i8* bitcast (void (%"class.network::mojom::blink::NetworkServiceTest_SetEVPolicy_HandleSyncResponse"*)* @_ZN7network5mojom5blink49NetworkServiceTest_SetEVPolicy_HandleSyncResponseD0Ev to i8*), i8* bitcast (i1 (%"class.mojo::MessageReceiver"*)* @_ZN4mojo15MessageReceiver25PrefersSerializedMessagesEv to i8*), i8* bitcast (i1 (%"class.network::mojom::blink::NetworkServiceTest_SetEVPolicy_HandleSyncResponse"*, %"class.mojo::Message"*)* @_ZN7network5mojom5blink49NetworkServiceTest_SetEVPolicy_HandleSyncResponse6AcceptEPN4mojo7MessageE to i8*)] }, align 8
@_ZTVN7network5mojom5blink48NetworkServiceTest_SetEVPolicy_ForwardToCallbackE = hidden unnamed_addr constant { [6 x i8*] } { [6 x i8*] [i8* null, i8* null, i8* bitcast (void (%"class.network::mojom::blink::NetworkServiceTest_SetEVPolicy_ForwardToCallback"*)* @_ZN7network5mojom5blink48NetworkServiceTest_SetEVPolicy_ForwardToCallbackD2Ev to i8*), i8* bitcast (void (%"class.network::mojom::blink::NetworkServiceTest_SetEVPolicy_ForwardToCallback"*)* @_ZN7network5mojom5blink48NetworkServiceTest_SetEVPolicy_ForwardToCallbackD0Ev to i8*), i8* bitcast (i1 (%"class.mojo::MessageReceiver"*)* @_ZN4mojo15MessageReceiver25PrefersSerializedMessagesEv to i8*), i8* bitcast (i1 (%"class.network::mojom::blink::NetworkServiceTest_SetEVPolicy_ForwardToCallback"*, %"class.mojo::Message"*)* @_ZN7network5mojom5blink48NetworkServiceTest_SetEVPolicy_ForwardToCallback6AcceptEPN4mojo7MessageE to i8*)] }, align 8
@_ZTVN7network5mojom5blink66NetworkServiceTest_GetFirstPartySetEntriesCount_HandleSyncResponseE = hidden unnamed_addr constant { [6 x i8*] } { [6 x i8*] [i8* null, i8* null, i8* bitcast (void (%"class.mojo::MessageReceiver"*)* @_ZN4mojo15MessageReceiverD2Ev to i8*), i8* bitcast (void (%"class.network::mojom::blink::NetworkServiceTest_GetFirstPartySetEntriesCount_HandleSyncResponse"*)* @_ZN7network5mojom5blink66NetworkServiceTest_GetFirstPartySetEntriesCount_HandleSyncResponseD0Ev to i8*), i8* bitcast (i1 (%"class.mojo::MessageReceiver"*)* @_ZN4mojo15MessageReceiver25PrefersSerializedMessagesEv to i8*), i8* bitcast (i1 (%"class.network::mojom::blink::NetworkServiceTest_GetFirstPartySetEntriesCount_HandleSyncResponse"*, %"class.mojo::Message"*)* @_ZN7network5mojom5blink66NetworkServiceTest_GetFirstPartySetEntriesCount_HandleSyncResponse6AcceptEPN4mojo7MessageE to i8*)] }, align 8
@_ZTVN7network5mojom5blink65NetworkServiceTest_GetFirstPartySetEntriesCount_ForwardToCallbackE = hidden unnamed_addr constant { [6 x i8*] } { [6 x i8*] [i8* null, i8* null, i8* bitcast (void (%"class.network::mojom::blink::NetworkServiceTest_GetFirstPartySetEntriesCount_ForwardToCallback"*)* @_ZN7network5mojom5blink65NetworkServiceTest_GetFirstPartySetEntriesCount_ForwardToCallbackD2Ev to i8*), i8* bitcast (void (%"class.network::mojom::blink::NetworkServiceTest_GetFirstPartySetEntriesCount_ForwardToCallback"*)* @_ZN7network5mojom5blink65NetworkServiceTest_GetFirstPartySetEntriesCount_ForwardToCallbackD0Ev to i8*), i8* bitcast (i1 (%"class.mojo::MessageReceiver"*)* @_ZN4mojo15MessageReceiver25PrefersSerializedMessagesEv to i8*), i8* bitcast (i1 (%"class.network::mojom::blink::NetworkServiceTest_GetFirstPartySetEntriesCount_ForwardToCallback"*, %"class.mojo::Message"*)* @_ZN7network5mojom5blink65NetworkServiceTest_GetFirstPartySetEntriesCount_ForwardToCallback6AcceptEPN4mojo7MessageE to i8*)] }, align 8
@_ZTVN7network5mojom5blink62NetworkServiceTest_SetSCTAuditingRetryDelay_HandleSyncResponseE = hidden unnamed_addr constant { [6 x i8*] } { [6 x i8*] [i8* null, i8* null, i8* bitcast (void (%"class.mojo::MessageReceiver"*)* @_ZN4mojo15MessageReceiverD2Ev to i8*), i8* bitcast (void (%"class.network::mojom::blink::NetworkServiceTest_SetSCTAuditingRetryDelay_HandleSyncResponse"*)* @_ZN7network5mojom5blink62NetworkServiceTest_SetSCTAuditingRetryDelay_HandleSyncResponseD0Ev to i8*), i8* bitcast (i1 (%"class.mojo::MessageReceiver"*)* @_ZN4mojo15MessageReceiver25PrefersSerializedMessagesEv to i8*), i8* bitcast (i1 (%"class.network::mojom::blink::NetworkServiceTest_SetSCTAuditingRetryDelay_HandleSyncResponse"*, %"class.mojo::Message"*)* @_ZN7network5mojom5blink62NetworkServiceTest_SetSCTAuditingRetryDelay_HandleSyncResponse6AcceptEPN4mojo7MessageE to i8*)] }, align 8
@_ZTVN7network5mojom5blink61NetworkServiceTest_SetSCTAuditingRetryDelay_ForwardToCallbackE = hidden unnamed_addr constant { [6 x i8*] } { [6 x i8*] [i8* null, i8* null, i8* bitcast (void (%"class.network::mojom::blink::NetworkServiceTest_SetSCTAuditingRetryDelay_ForwardToCallback"*)* @_ZN7network5mojom5blink61NetworkServiceTest_SetSCTAuditingRetryDelay_ForwardToCallbackD2Ev to i8*), i8* bitcast (void (%"class.network::mojom::blink::NetworkServiceTest_SetSCTAuditingRetryDelay_ForwardToCallback"*)* @_ZN7network5mojom5blink61NetworkServiceTest_SetSCTAuditingRetryDelay_ForwardToCallbackD0Ev to i8*), i8* bitcast (i1 (%"class.mojo::MessageReceiver"*)* @_ZN4mojo15MessageReceiver25PrefersSerializedMessagesEv to i8*), i8* bitcast (i1 (%"class.network::mojom::blink::NetworkServiceTest_SetSCTAuditingRetryDelay_ForwardToCallback"*, %"class.mojo::Message"*)* @_ZN7network5mojom5blink61NetworkServiceTest_SetSCTAuditingRetryDelay_ForwardToCallback6AcceptEPN4mojo7MessageE to i8*)] }, align 8
@_ZTVN7network5mojom5blink71NetworkServiceTest_GetSCTAuditingPendingReportsCount_HandleSyncResponseE = hidden unnamed_addr constant { [6 x i8*] } { [6 x i8*] [i8* null, i8* null, i8* bitcast (void (%"class.mojo::MessageReceiver"*)* @_ZN4mojo15MessageReceiverD2Ev to i8*), i8* bitcast (void (%"class.network::mojom::blink::NetworkServiceTest_GetSCTAuditingPendingReportsCount_HandleSyncResponse"*)* @_ZN7network5mojom5blink71NetworkServiceTest_GetSCTAuditingPendingReportsCount_HandleSyncResponseD0Ev to i8*), i8* bitcast (i1 (%"class.mojo::MessageReceiver"*)* @_ZN4mojo15MessageReceiver25PrefersSerializedMessagesEv to i8*), i8* bitcast (i1 (%"class.network::mojom::blink::NetworkServiceTest_GetSCTAuditingPendingReportsCount_HandleSyncResponse"*, %"class.mojo::Message"*)* @_ZN7network5mojom5blink71NetworkServiceTest_GetSCTAuditingPendingReportsCount_HandleSyncResponse6AcceptEPN4mojo7MessageE to i8*)] }, align 8
@_ZTVN7network5mojom5blink70NetworkServiceTest_GetSCTAuditingPendingReportsCount_ForwardToCallbackE = hidden unnamed_addr constant { [6 x i8*] } { [6 x i8*] [i8* null, i8* null, i8* bitcast (void (%"class.network::mojom::blink::NetworkServiceTest_GetSCTAuditingPendingReportsCount_ForwardToCallback"*)* @_ZN7network5mojom5blink70NetworkServiceTest_GetSCTAuditingPendingReportsCount_ForwardToCallbackD2Ev to i8*), i8* bitcast (void (%"class.network::mojom::blink::NetworkServiceTest_GetSCTAuditingPendingReportsCount_ForwardToCallback"*)* @_ZN7network5mojom5blink70NetworkServiceTest_GetSCTAuditingPendingReportsCount_ForwardToCallbackD0Ev to i8*), i8* bitcast (i1 (%"class.mojo::MessageReceiver"*)* @_ZN4mojo15MessageReceiver25PrefersSerializedMessagesEv to i8*), i8* bitcast (i1 (%"class.network::mojom::blink::NetworkServiceTest_GetSCTAuditingPendingReportsCount_ForwardToCallback"*, %"class.mojo::Message"*)* @_ZN7network5mojom5blink70NetworkServiceTest_GetSCTAuditingPendingReportsCount_ForwardToCallback6AcceptEPN4mojo7MessageE to i8*)] }, align 8
@_ZTVN7network5mojom5blink75NetworkServiceTest_SetSCTAuditingReportCompletionCallback_ForwardToCallbackE = hidden unnamed_addr constant { [6 x i8*] } { [6 x i8*] [i8* null, i8* null, i8* bitcast (void (%"class.network::mojom::blink::NetworkServiceTest_SetSCTAuditingReportCompletionCallback_ForwardToCallback"*)* @_ZN7network5mojom5blink75NetworkServiceTest_SetSCTAuditingReportCompletionCallback_ForwardToCallbackD2Ev to i8*), i8* bitcast (void (%"class.network::mojom::blink::NetworkServiceTest_SetSCTAuditingReportCompletionCallback_ForwardToCallback"*)* @_ZN7network5mojom5blink75NetworkServiceTest_SetSCTAuditingReportCompletionCallback_ForwardToCallbackD0Ev to i8*), i8* bitcast (i1 (%"class.mojo::MessageReceiver"*)* @_ZN4mojo15MessageReceiver25PrefersSerializedMessagesEv to i8*), i8* bitcast (i1 (%"class.network::mojom::blink::NetworkServiceTest_SetSCTAuditingReportCompletionCallback_ForwardToCallback"*, %"class.mojo::Message"*)* @_ZN7network5mojom5blink75NetworkServiceTest_SetSCTAuditingReportCompletionCallback_ForwardToCallback6AcceptEPN4mojo7MessageE to i8*)] }, align 8
@_ZTVN7network5mojom5blink34NetworkServiceTestRequestValidatorE = hidden unnamed_addr constant { [6 x i8*] } { [6 x i8*] [i8* null, i8* null, i8* bitcast (void (%"class.mojo::MessageReceiver"*)* @_ZN4mojo15MessageReceiverD2Ev to i8*), i8* bitcast (void (%"class.network::mojom::blink::NetworkServiceTestRequestValidator"*)* @_ZN7network5mojom5blink34NetworkServiceTestRequestValidatorD0Ev to i8*), i8* bitcast (i1 (%"class.mojo::MessageReceiver"*)* @_ZN4mojo15MessageReceiver25PrefersSerializedMessagesEv to i8*), i8* bitcast (i1 (%"class.network::mojom::blink::NetworkServiceTestRequestValidator"*, %"class.mojo::Message"*)* @_ZN7network5mojom5blink34NetworkServiceTestRequestValidator6AcceptEPN4mojo7MessageE to i8*)] }, align 8
@_ZTVN7network5mojom5blink35NetworkServiceTestResponseValidatorE = hidden unnamed_addr constant { [6 x i8*] } { [6 x i8*] [i8* null, i8* null, i8* bitcast (void (%"class.mojo::MessageReceiver"*)* @_ZN4mojo15MessageReceiverD2Ev to i8*), i8* bitcast (void (%"class.network::mojom::blink::NetworkServiceTestResponseValidator"*)* @_ZN7network5mojom5blink35NetworkServiceTestResponseValidatorD0Ev to i8*), i8* bitcast (i1 (%"class.mojo::MessageReceiver"*)* @_ZN4mojo15MessageReceiver25PrefersSerializedMessagesEv to i8*), i8* bitcast (i1 (%"class.network::mojom::blink::NetworkServiceTestResponseValidator"*, %"class.mojo::Message"*)* @_ZN7network5mojom5blink35NetworkServiceTestResponseValidator6AcceptEPN4mojo7MessageE to i8*)] }, align 8
@.str.26 = private unnamed_addr constant [11 x i8] c"i < size()\00", align 1
@.str.27 = private unnamed_addr constant [55 x i8] c"../../third_party/blink/renderer/platform/wtf/vector.h\00", align 1
@.str.28 = private unnamed_addr constant [44 x i8] c"count <= MaxElementCountInBackingStore<T>()\00", align 1
@.str.29 = private unnamed_addr constant [78 x i8] c"../../third_party/blink/renderer/platform/wtf/allocator/partition_allocator.h\00", align 1
@__PRETTY_FUNCTION__._ZN3WTF21GetStringWithTypeNameIN4mojo9StructPtrIN7network5mojom5blink4RuleEEEEEPKcv = private unnamed_addr constant [92 x i8] c"const char *WTF::GetStringWithTypeName() [T = mojo::StructPtr<network::mojom::blink::Rule>]\00", align 1
@__PRETTY_FUNCTION__._ZN3WTF21GetStringWithTypeNameIhEEPKcv = private unnamed_addr constant [61 x i8] c"const char *WTF::GetStringWithTypeName() [T = unsigned char]\00", align 1
@__PRETTY_FUNCTION__._ZN3WTF21GetStringWithTypeNameINS_6StringEEEPKcv = private unnamed_addr constant [59 x i8] c"const char *WTF::GetStringWithTypeName() [T = WTF::String]\00", align 1

@_ZN7network5mojom5blink4RuleC1Ev = hidden unnamed_addr alias void (%"class.network::mojom::blink::Rule"*), void (%"class.network::mojom::blink::Rule"*)* @_ZN7network5mojom5blink4RuleC2Ev
@_ZN7network5mojom5blink4RuleC1ENS0_12ResolverTypeERKN3WTF6StringES7_iNS4_6VectorIS5_Lj0ENS4_18PartitionAllocatorEEE = hidden unnamed_addr alias void (%"class.network::mojom::blink::Rule"*, i32, %"class.WTF::String"*, %"class.WTF::String"*, i32, %"class.WTF::Vector"*), void (%"class.network::mojom::blink::Rule"*, i32, %"class.WTF::String"*, %"class.WTF::String"*, i32, %"class.WTF::Vector"*)* @_ZN7network5mojom5blink4RuleC2ENS0_12ResolverTypeERKN3WTF6StringES7_iNS4_6VectorIS5_Lj0ENS4_18PartitionAllocatorEEE
@_ZN7network5mojom5blink4RuleD1Ev = hidden unnamed_addr alias void (%"class.network::mojom::blink::Rule"*), void (%"class.network::mojom::blink::Rule"*)* @_ZN7network5mojom5blink4RuleD2Ev
@_ZN7network5mojom5blink23NetworkServiceTestProxyC1EPN4mojo28MessageReceiverWithResponderE = hidden unnamed_addr alias void (%"class.network::mojom::blink::NetworkServiceTestProxy"*, %"class.mojo::MessageReceiverWithResponder"*), void (%"class.network::mojom::blink::NetworkServiceTestProxy"*, %"class.mojo::MessageReceiverWithResponder"*)* @_ZN7network5mojom5blink23NetworkServiceTestProxyC2EPN4mojo28MessageReceiverWithResponderE

; Function Attrs: nounwind ssp uwtable
define hidden void @_ZN7network5mojom5blink4RuleC2Ev(%"class.network::mojom::blink::Rule"* nocapture) unnamed_addr #0 align 2 {
  %2 = getelementptr inbounds %"class.network::mojom::blink::Rule", %"class.network::mojom::blink::Rule"* %0, i64 0, i32 0
  store i32 0, i32* %2, align 8
  %3 = getelementptr inbounds %"class.network::mojom::blink::Rule", %"class.network::mojom::blink::Rule"* %0, i64 0, i32 1
  %4 = getelementptr inbounds %"class.network::mojom::blink::Rule", %"class.network::mojom::blink::Rule"* %0, i64 0, i32 4
  %5 = bitcast %"class.WTF::Vector"* %4 to i8*
  tail call void @llvm.memset.p0i8.i64(i8* align 8 %5, i8 0, i64 16, i1 false) #11
  %6 = bitcast %"class.WTF::String"* %3 to i8*
  call void @llvm.memset.p0i8.i64(i8* align 8 %6, i8 0, i64 20, i1 false)
  ret void
}

; Function Attrs: argmemonly nounwind
declare void @llvm.memset.p0i8.i64(i8* nocapture writeonly, i8, i64, i1 immarg) #1

; Function Attrs: nounwind ssp uwtable
define hidden void @_ZN7network5mojom5blink4RuleC2ENS0_12ResolverTypeERKN3WTF6StringES7_iNS4_6VectorIS5_Lj0ENS4_18PartitionAllocatorEEE(%"class.network::mojom::blink::Rule"* nocapture, i32, %"class.WTF::String"* nocapture readonly dereferenceable(8), %"class.WTF::String"* nocapture readonly dereferenceable(8), i32, %"class.WTF::Vector"* nocapture) unnamed_addr #0 align 2 {
  %7 = getelementptr inbounds %"class.network::mojom::blink::Rule", %"class.network::mojom::blink::Rule"* %0, i64 0, i32 0
  store i32 %1, i32* %7, align 8
  %8 = getelementptr inbounds %"class.WTF::String", %"class.WTF::String"* %2, i64 0, i32 0, i32 0
  %9 = load %"class.WTF::StringImpl"*, %"class.WTF::StringImpl"** %8, align 8
  %10 = getelementptr inbounds %"class.network::mojom::blink::Rule", %"class.network::mojom::blink::Rule"* %0, i64 0, i32 1, i32 0, i32 0
  store %"class.WTF::StringImpl"* %9, %"class.WTF::StringImpl"** %10, align 8
  %11 = icmp eq %"class.WTF::StringImpl"* %9, null
  br i1 %11, label %29, label %12

12:                                               ; preds = %6
  %13 = getelementptr inbounds %"class.WTF::StringImpl", %"class.WTF::StringImpl"* %9, i64 0, i32 2, i32 0, i32 0, i32 0, i32 0, i32 0
  %14 = load atomic i32, i32* %13 monotonic, align 4
  %15 = and i32 %14, 2
  %16 = icmp eq i32 %15, 0
  br i1 %16, label %17, label %29

17:                                               ; preds = %12
  %18 = getelementptr inbounds %"class.WTF::StringImpl", %"class.WTF::StringImpl"* %9, i64 0, i32 0
  %19 = load i32, i32* %18, align 4
  %20 = zext i32 %19 to i33
  %21 = tail call { i33, i1 } @llvm.sadd.with.overflow.i33(i33 %20, i33 1) #11
  %22 = extractvalue { i33, i1 } %21, 1
  %23 = extractvalue { i33, i1 } %21, 0
  %24 = icmp slt i33 %23, 0
  %25 = or i1 %22, %24
  br i1 %25, label %26, label %27, !prof !2

26:                                               ; preds = %17
  tail call void @llvm.trap() #11
  unreachable

27:                                               ; preds = %17
  %28 = trunc i33 %23 to i32
  store i32 %28, i32* %18, align 4
  br label %29

29:                                               ; preds = %6, %12, %27
  %30 = getelementptr inbounds %"class.WTF::String", %"class.WTF::String"* %3, i64 0, i32 0, i32 0
  %31 = load %"class.WTF::StringImpl"*, %"class.WTF::StringImpl"** %30, align 8
  %32 = getelementptr inbounds %"class.network::mojom::blink::Rule", %"class.network::mojom::blink::Rule"* %0, i64 0, i32 2, i32 0, i32 0
  store %"class.WTF::StringImpl"* %31, %"class.WTF::StringImpl"** %32, align 8
  %33 = icmp eq %"class.WTF::StringImpl"* %31, null
  br i1 %33, label %51, label %34

34:                                               ; preds = %29
  %35 = getelementptr inbounds %"class.WTF::StringImpl", %"class.WTF::StringImpl"* %31, i64 0, i32 2, i32 0, i32 0, i32 0, i32 0, i32 0
  %36 = load atomic i32, i32* %35 monotonic, align 4
  %37 = and i32 %36, 2
  %38 = icmp eq i32 %37, 0
  br i1 %38, label %39, label %51

39:                                               ; preds = %34
  %40 = getelementptr inbounds %"class.WTF::StringImpl", %"class.WTF::StringImpl"* %31, i64 0, i32 0
  %41 = load i32, i32* %40, align 4
  %42 = zext i32 %41 to i33
  %43 = tail call { i33, i1 } @llvm.sadd.with.overflow.i33(i33 %42, i33 1) #11
  %44 = extractvalue { i33, i1 } %43, 1
  %45 = extractvalue { i33, i1 } %43, 0
  %46 = icmp slt i33 %45, 0
  %47 = or i1 %44, %46
  br i1 %47, label %48, label %49, !prof !2

48:                                               ; preds = %39
  tail call void @llvm.trap() #11
  unreachable

49:                                               ; preds = %39
  %50 = trunc i33 %45 to i32
  store i32 %50, i32* %40, align 4
  br label %51

51:                                               ; preds = %29, %34, %49
  %52 = getelementptr inbounds %"class.network::mojom::blink::Rule", %"class.network::mojom::blink::Rule"* %0, i64 0, i32 3
  store i32 %4, i32* %52, align 8
  %53 = getelementptr inbounds %"class.network::mojom::blink::Rule", %"class.network::mojom::blink::Rule"* %0, i64 0, i32 4
  %54 = getelementptr inbounds %"class.network::mojom::blink::Rule", %"class.network::mojom::blink::Rule"* %0, i64 0, i32 4, i32 0, i32 0, i32 1
  %55 = getelementptr inbounds %"class.network::mojom::blink::Rule", %"class.network::mojom::blink::Rule"* %0, i64 0, i32 4, i32 0, i32 0, i32 2
  %56 = bitcast %"class.WTF::Vector"* %5 to i64*
  %57 = bitcast %"class.WTF::Vector"* %53 to i8*
  tail call void @llvm.memset.p0i8.i64(i8* align 8 %57, i8 0, i64 16, i1 false) #11
  %58 = load i64, i64* %56, align 8
  %59 = bitcast %"class.WTF::Vector"* %53 to i64*
  store atomic i64 0, i64* %56 monotonic, align 8
  store atomic i64 %58, i64* %59 monotonic, align 8
  %60 = getelementptr inbounds %"class.WTF::Vector", %"class.WTF::Vector"* %5, i64 0, i32 0, i32 0, i32 1
  %61 = load i32, i32* %54, align 4
  %62 = load i32, i32* %60, align 4
  store i32 %62, i32* %54, align 4
  store i32 %61, i32* %60, align 4
  %63 = getelementptr inbounds %"class.WTF::Vector", %"class.WTF::Vector"* %5, i64 0, i32 0, i32 0, i32 2
  %64 = load i32, i32* %55, align 4
  %65 = load i32, i32* %63, align 4
  store i32 %65, i32* %55, align 4
  store i32 %64, i32* %63, align 4
  ret void
}

; Function Attrs: nounwind ssp uwtable
define hidden void @_ZN7network5mojom5blink4RuleD2Ev(%"class.network::mojom::blink::Rule"* nocapture) unnamed_addr #0 align 2 {
  %2 = getelementptr inbounds %"class.network::mojom::blink::Rule", %"class.network::mojom::blink::Rule"* %0, i64 0, i32 4
  %3 = getelementptr inbounds %"class.WTF::Vector", %"class.WTF::Vector"* %2, i64 0, i32 0, i32 0, i32 0
  %4 = load %"class.WTF::String"*, %"class.WTF::String"** %3, align 8
  %5 = icmp eq %"class.WTF::String"* %4, null
  br i1 %5, label %40, label %6, !prof !3

6:                                                ; preds = %1
  %7 = bitcast %"class.WTF::String"* %4 to i8*
  %8 = getelementptr inbounds %"class.network::mojom::blink::Rule", %"class.network::mojom::blink::Rule"* %0, i64 0, i32 4, i32 0, i32 0, i32 2
  %9 = load i32, i32* %8, align 4
  %10 = icmp eq i32 %9, 0
  br i1 %10, label %38, label %11, !prof !2

11:                                               ; preds = %6
  %12 = zext i32 %9 to i64
  %13 = getelementptr inbounds %"class.WTF::String", %"class.WTF::String"* %4, i64 %12
  br label %14

14:                                               ; preds = %32, %11
  %15 = phi %"class.WTF::String"* [ %33, %32 ], [ %4, %11 ]
  %16 = getelementptr inbounds %"class.WTF::String", %"class.WTF::String"* %15, i64 0, i32 0, i32 0
  %17 = load %"class.WTF::StringImpl"*, %"class.WTF::StringImpl"** %16, align 8
  %18 = icmp eq %"class.WTF::StringImpl"* %17, null
  br i1 %18, label %32, label %19

19:                                               ; preds = %14
  %20 = getelementptr inbounds %"class.WTF::StringImpl", %"class.WTF::StringImpl"* %17, i64 0, i32 2, i32 0, i32 0, i32 0, i32 0, i32 0
  %21 = load atomic i32, i32* %20 monotonic, align 4
  %22 = and i32 %21, 2
  %23 = icmp eq i32 %22, 0
  %24 = getelementptr inbounds %"class.WTF::StringImpl", %"class.WTF::StringImpl"* %17, i64 0, i32 0
  %25 = load i32, i32* %24, align 4
  br i1 %23, label %26, label %28

26:                                               ; preds = %19
  %27 = add i32 %25, -1
  store i32 %27, i32* %24, align 4
  br label %28

28:                                               ; preds = %26, %19
  %29 = phi i32 [ %27, %26 ], [ %25, %19 ]
  %30 = icmp eq i32 %29, 0
  br i1 %30, label %31, label %32

31:                                               ; preds = %28
  tail call void @_ZNK3WTF10StringImpl18DestroyIfNotStaticEv(%"class.WTF::StringImpl"* nonnull %17) #11
  br label %32

32:                                               ; preds = %31, %28, %14
  %33 = getelementptr inbounds %"class.WTF::String", %"class.WTF::String"* %15, i64 1
  %34 = icmp eq %"class.WTF::String"* %33, %13
  br i1 %34, label %35, label %14

35:                                               ; preds = %32
  store i32 0, i32* %8, align 4
  %36 = bitcast %"class.WTF::Vector"* %2 to i8**
  %37 = load i8*, i8** %36, align 8
  br label %38

38:                                               ; preds = %35, %6
  %39 = phi i8* [ %37, %35 ], [ %7, %6 ]
  tail call void @_ZN3WTF18PartitionAllocator11FreeBackingEPv(i8* %39) #11
  store %"class.WTF::String"* null, %"class.WTF::String"** %3, align 8
  br label %40

40:                                               ; preds = %1, %38
  %41 = getelementptr inbounds %"class.network::mojom::blink::Rule", %"class.network::mojom::blink::Rule"* %0, i64 0, i32 2, i32 0, i32 0
  %42 = load %"class.WTF::StringImpl"*, %"class.WTF::StringImpl"** %41, align 8
  %43 = icmp eq %"class.WTF::StringImpl"* %42, null
  br i1 %43, label %57, label %44

44:                                               ; preds = %40
  %45 = getelementptr inbounds %"class.WTF::StringImpl", %"class.WTF::StringImpl"* %42, i64 0, i32 2, i32 0, i32 0, i32 0, i32 0, i32 0
  %46 = load atomic i32, i32* %45 monotonic, align 4
  %47 = and i32 %46, 2
  %48 = icmp eq i32 %47, 0
  %49 = getelementptr inbounds %"class.WTF::StringImpl", %"class.WTF::StringImpl"* %42, i64 0, i32 0
  %50 = load i32, i32* %49, align 4
  br i1 %48, label %51, label %53

51:                                               ; preds = %44
  %52 = add i32 %50, -1
  store i32 %52, i32* %49, align 4
  br label %53

53:                                               ; preds = %51, %44
  %54 = phi i32 [ %52, %51 ], [ %50, %44 ]
  %55 = icmp eq i32 %54, 0
  br i1 %55, label %56, label %57

56:                                               ; preds = %53
  tail call void @_ZNK3WTF10StringImpl18DestroyIfNotStaticEv(%"class.WTF::StringImpl"* nonnull %42) #11
  br label %57

57:                                               ; preds = %40, %53, %56
  %58 = getelementptr inbounds %"class.network::mojom::blink::Rule", %"class.network::mojom::blink::Rule"* %0, i64 0, i32 1, i32 0, i32 0
  %59 = load %"class.WTF::StringImpl"*, %"class.WTF::StringImpl"** %58, align 8
  %60 = icmp eq %"class.WTF::StringImpl"* %59, null
  br i1 %60, label %74, label %61

61:                                               ; preds = %57
  %62 = getelementptr inbounds %"class.WTF::StringImpl", %"class.WTF::StringImpl"* %59, i64 0, i32 2, i32 0, i32 0, i32 0, i32 0, i32 0
  %63 = load atomic i32, i32* %62 monotonic, align 4
  %64 = and i32 %63, 2
  %65 = icmp eq i32 %64, 0
  %66 = getelementptr inbounds %"class.WTF::StringImpl", %"class.WTF::StringImpl"* %59, i64 0, i32 0
  %67 = load i32, i32* %66, align 4
  br i1 %65, label %68, label %70

68:                                               ; preds = %61
  %69 = add i32 %67, -1
  store i32 %69, i32* %66, align 4
  br label %70

70:                                               ; preds = %68, %61
  %71 = phi i32 [ %69, %68 ], [ %67, %61 ]
  %72 = icmp eq i32 %71, 0
  br i1 %72, label %73, label %74

73:                                               ; preds = %70
  tail call void @_ZNK3WTF10StringImpl18DestroyIfNotStaticEv(%"class.WTF::StringImpl"* nonnull %59) #11
  br label %74

74:                                               ; preds = %57, %70, %73
  ret void
}

; Function Attrs: nounwind ssp uwtable
define hidden void @_ZNK7network5mojom5blink4Rule14WriteIntoTraceEN8perfetto11TracedValueE(%"class.network::mojom::blink::Rule"*, %"class.perfetto::TracedValue"*) local_unnamed_addr #0 align 2 {
  %3 = alloca %"class.perfetto::TracedValue", align 8
  %4 = alloca %"class.perfetto::TracedValue", align 8
  %5 = alloca %"class.perfetto::TracedValue", align 8
  %6 = alloca %"class.perfetto::TracedValue", align 8
  %7 = alloca %"class.perfetto::TracedValue", align 8
  %8 = alloca %"class.perfetto::TracedValue", align 8
  %9 = alloca %"class.perfetto::TracedArray", align 8
  %10 = alloca %"class.perfetto::TracedValue", align 8
  %11 = alloca %"class.perfetto::TracedDictionary", align 8
  %12 = alloca %"class.perfetto::TracedValue", align 8
  %13 = alloca %"class.perfetto::TracedValue", align 8
  %14 = alloca %"class.perfetto::TracedValue", align 8
  %15 = alloca %"class.perfetto::TracedValue", align 8
  %16 = alloca %"class.perfetto::TracedValue", align 8
  %17 = bitcast %"class.perfetto::TracedDictionary"* %11 to i8*
  call void @llvm.lifetime.start.p0i8(i64 16, i8* nonnull %17) #11
  %18 = bitcast %"class.perfetto::TracedDictionary"* %11 to i8*
  call void @llvm.memset.p0i8.i64(i8* nonnull align 8 %18, i8 -86, i64 16, i1 false)
  call void @_ZNO8perfetto11TracedValue15WriteDictionaryEv(%"class.perfetto::TracedDictionary"* nonnull sret %11, %"class.perfetto::TracedValue"* %1) #11
  call void @_ZN8perfetto16TracedDictionary7AddItemENS_12StaticStringE(%"class.perfetto::TracedValue"* nonnull sret %12, %"class.perfetto::TracedDictionary"* nonnull %11, i8* getelementptr inbounds ([14 x i8], [14 x i8]* @.str, i64 0, i64 0)) #11
  %19 = getelementptr inbounds %"class.network::mojom::blink::Rule", %"class.network::mojom::blink::Rule"* %0, i64 0, i32 0
  %20 = bitcast %"class.perfetto::TracedValue"* %12 to i8*
  %21 = bitcast %"class.perfetto::TracedValue"* %6 to i8*
  call void @llvm.lifetime.start.p0i8(i64 16, i8* nonnull %21) #11
  call void @llvm.memcpy.p0i8.p0i8.i64(i8* nonnull align 8 %21, i8* nonnull align 8 %20, i64 16, i1 false) #11
  %22 = load i32, i32* %19, align 4
  call void @_ZN8perfetto17TraceFormatTraitsIN7network5mojom12ResolverTypeEvE14WriteIntoTraceENS_11TracedValueES3_(%"class.perfetto::TracedValue"* nonnull %6, i32 %22) #11
  call void @llvm.lifetime.end.p0i8(i64 16, i8* nonnull %21) #11
  call void @_ZN8perfetto16TracedDictionary7AddItemENS_12StaticStringE(%"class.perfetto::TracedValue"* nonnull sret %13, %"class.perfetto::TracedDictionary"* nonnull %11, i8* getelementptr inbounds ([13 x i8], [13 x i8]* @.str.2, i64 0, i64 0)) #11
  %23 = getelementptr inbounds %"class.network::mojom::blink::Rule", %"class.network::mojom::blink::Rule"* %0, i64 0, i32 1
  %24 = bitcast %"class.perfetto::TracedValue"* %13 to i8*
  %25 = bitcast %"class.perfetto::TracedValue"* %5 to i8*
  call void @llvm.lifetime.start.p0i8(i64 16, i8* nonnull %25) #11
  call void @llvm.memcpy.p0i8.p0i8.i64(i8* nonnull align 8 %25, i8* nonnull align 8 %24, i64 16, i1 false) #11
  call void @_ZNK3WTF6String14WriteIntoTraceEN8perfetto11TracedValueE(%"class.WTF::String"* %23, %"class.perfetto::TracedValue"* nonnull %5) #11
  call void @llvm.lifetime.end.p0i8(i64 16, i8* nonnull %25) #11
  call void @_ZN8perfetto16TracedDictionary7AddItemENS_12StaticStringE(%"class.perfetto::TracedValue"* nonnull sret %14, %"class.perfetto::TracedDictionary"* nonnull %11, i8* getelementptr inbounds ([12 x i8], [12 x i8]* @.str.3, i64 0, i64 0)) #11
  %26 = getelementptr inbounds %"class.network::mojom::blink::Rule", %"class.network::mojom::blink::Rule"* %0, i64 0, i32 2
  %27 = bitcast %"class.perfetto::TracedValue"* %14 to i8*
  %28 = bitcast %"class.perfetto::TracedValue"* %4 to i8*
  call void @llvm.lifetime.start.p0i8(i64 16, i8* nonnull %28) #11
  call void @llvm.memcpy.p0i8.p0i8.i64(i8* nonnull align 8 %28, i8* nonnull align 8 %27, i64 16, i1 false) #11
  call void @_ZNK3WTF6String14WriteIntoTraceEN8perfetto11TracedValueE(%"class.WTF::String"* %26, %"class.perfetto::TracedValue"* nonnull %4) #11
  call void @llvm.lifetime.end.p0i8(i64 16, i8* nonnull %28) #11
  call void @_ZN8perfetto16TracedDictionary7AddItemENS_12StaticStringE(%"class.perfetto::TracedValue"* nonnull sret %15, %"class.perfetto::TracedDictionary"* nonnull %11, i8* getelementptr inbounds ([20 x i8], [20 x i8]* @.str.4, i64 0, i64 0)) #11
  %29 = getelementptr inbounds %"class.network::mojom::blink::Rule", %"class.network::mojom::blink::Rule"* %0, i64 0, i32 3
  %30 = bitcast %"class.perfetto::TracedValue"* %15 to i8*
  %31 = bitcast %"class.perfetto::TracedValue"* %3 to i8*
  call void @llvm.lifetime.start.p0i8(i64 16, i8* nonnull %31) #11
  call void @llvm.memcpy.p0i8.p0i8.i64(i8* nonnull align 8 %31, i8* nonnull align 8 %30, i64 16, i1 false) #11
  %32 = load i32, i32* %29, align 4
  %33 = sext i32 %32 to i64
  call void @_ZNO8perfetto11TracedValue10WriteInt64El(%"class.perfetto::TracedValue"* nonnull %3, i64 %33) #11
  call void @llvm.lifetime.end.p0i8(i64 16, i8* nonnull %31) #11
  call void @_ZN8perfetto16TracedDictionary7AddItemENS_12StaticStringE(%"class.perfetto::TracedValue"* nonnull sret %16, %"class.perfetto::TracedDictionary"* nonnull %11, i8* getelementptr inbounds ([12 x i8], [12 x i8]* @.str.5, i64 0, i64 0)) #11
  %34 = bitcast %"class.perfetto::TracedValue"* %16 to i8*
  %35 = bitcast %"class.perfetto::TracedValue"* %10 to i8*
  call void @llvm.lifetime.start.p0i8(i64 16, i8* nonnull %35) #11
  call void @llvm.memcpy.p0i8.p0i8.i64(i8* nonnull align 8 %35, i8* nonnull align 8 %34, i64 16, i1 false) #11
  %36 = bitcast %"class.perfetto::TracedArray"* %9 to i8*
  call void @llvm.lifetime.start.p0i8(i64 16, i8* nonnull %36) #11
  call void @llvm.memset.p0i8.i64(i8* nonnull align 8 %36, i8 -86, i64 16, i1 false) #11
  call void @_ZNO8perfetto11TracedValue10WriteArrayEv(%"class.perfetto::TracedArray"* nonnull sret %9, %"class.perfetto::TracedValue"* nonnull %10) #11
  %37 = getelementptr inbounds %"class.network::mojom::blink::Rule", %"class.network::mojom::blink::Rule"* %0, i64 0, i32 4, i32 0, i32 0, i32 0
  %38 = load %"class.WTF::String"*, %"class.WTF::String"** %37, align 8
  %39 = getelementptr inbounds %"class.network::mojom::blink::Rule", %"class.network::mojom::blink::Rule"* %0, i64 0, i32 4, i32 0, i32 0, i32 2
  %40 = load i32, i32* %39, align 4
  %41 = zext i32 %40 to i64
  %42 = getelementptr inbounds %"class.WTF::String", %"class.WTF::String"* %38, i64 %41
  %43 = icmp eq i32 %40, 0
  br i1 %43, label %51, label %44

44:                                               ; preds = %2
  %45 = bitcast %"class.perfetto::TracedValue"* %8 to i8*
  %46 = bitcast %"class.perfetto::TracedValue"* %7 to i8*
  br label %47

47:                                               ; preds = %47, %44
  %48 = phi %"class.WTF::String"* [ %38, %44 ], [ %49, %47 ]
  call void @llvm.lifetime.start.p0i8(i64 16, i8* nonnull %45) #11
  call void @_ZN8perfetto11TracedArray10AppendItemEv(%"class.perfetto::TracedValue"* nonnull sret %8, %"class.perfetto::TracedArray"* nonnull %9) #11
  call void @llvm.lifetime.start.p0i8(i64 16, i8* nonnull %46) #11
  call void @llvm.memcpy.p0i8.p0i8.i64(i8* nonnull align 8 %46, i8* nonnull align 8 %45, i64 16, i1 false) #11
  call void @_ZNK3WTF6String14WriteIntoTraceEN8perfetto11TracedValueE(%"class.WTF::String"* %48, %"class.perfetto::TracedValue"* nonnull %7) #11
  call void @llvm.lifetime.end.p0i8(i64 16, i8* nonnull %46) #11
  call void @llvm.lifetime.end.p0i8(i64 16, i8* nonnull %45) #11
  %49 = getelementptr inbounds %"class.WTF::String", %"class.WTF::String"* %48, i64 1
  %50 = icmp eq %"class.WTF::String"* %49, %42
  br i1 %50, label %51, label %47

51:                                               ; preds = %47, %2
  call void @llvm.lifetime.end.p0i8(i64 16, i8* nonnull %36) #11
  call void @llvm.lifetime.end.p0i8(i64 16, i8* nonnull %35) #11
  call void @llvm.lifetime.end.p0i8(i64 16, i8* nonnull %17) #11
  ret void
}

; Function Attrs: argmemonly nounwind
declare void @llvm.lifetime.start.p0i8(i64 immarg, i8* nocapture) #1

declare void @_ZNO8perfetto11TracedValue15WriteDictionaryEv(%"class.perfetto::TracedDictionary"* sret, %"class.perfetto::TracedValue"*) local_unnamed_addr #2

declare void @_ZN8perfetto16TracedDictionary7AddItemENS_12StaticStringE(%"class.perfetto::TracedValue"* sret, %"class.perfetto::TracedDictionary"*, i8*) local_unnamed_addr #2

; Function Attrs: argmemonly nounwind
declare void @llvm.lifetime.end.p0i8(i64 immarg, i8* nocapture) #1

; Function Attrs: nounwind ssp uwtable
define hidden zeroext i1 @_ZN7network5mojom5blink4Rule8ValidateEPKvPN4mojo8internal17ValidationContextE(i8*, %"class.mojo::internal::ValidationContext"*) local_unnamed_addr #0 align 2 {
  %3 = tail call zeroext i1 @_ZN7network5mojom8internal9Rule_Data8ValidateEPKvPN4mojo8internal17ValidationContextE(i8* %0, %"class.mojo::internal::ValidationContext"* %1) #11
  ret i1 %3
}

declare zeroext i1 @_ZN7network5mojom8internal9Rule_Data8ValidateEPKvPN4mojo8internal17ValidationContextE(i8*, %"class.mojo::internal::ValidationContext"*) local_unnamed_addr #2

; Function Attrs: norecurse nounwind readnone ssp uwtable
define hidden zeroext i1 @_ZN7network5mojom5blink18NetworkServiceTest8AddRulesEN3WTF6VectorIN4mojo9StructPtrINS1_4RuleEEELj0ENS3_18PartitionAllocatorEEE(%"class.network::mojom::blink::NetworkServiceTest"* nocapture readnone, %"class.WTF::Vector.31"* nocapture readnone) unnamed_addr #3 align 2 {
  ret i1 false
}

; Function Attrs: norecurse nounwind readnone ssp uwtable
define hidden zeroext i1 @_ZN7network5mojom5blink18NetworkServiceTest32MockCertVerifierSetDefaultResultEi(%"class.network::mojom::blink::NetworkServiceTest"* nocapture readnone, i32) unnamed_addr #3 align 2 {
  ret i1 false
}

; Function Attrs: norecurse nounwind readnone ssp uwtable
define hidden zeroext i1 @_ZN7network5mojom5blink18NetworkServiceTest39MockCertVerifierAddResultForCertAndHostEN4mojo9StructPtrINS3_6native12NativeStructEEERKN3WTF6StringES7_i(%"class.network::mojom::blink::NetworkServiceTest"* nocapture readnone, %"class.mojo::StructPtr.39"* nocapture readnone, %"class.WTF::String"* nocapture readnone dereferenceable(8), %"class.mojo::StructPtr.39"* nocapture readnone, i32) unnamed_addr #3 align 2 {
  ret i1 false
}

; Function Attrs: norecurse nounwind readnone ssp uwtable
define hidden zeroext i1 @_ZN7network5mojom5blink18NetworkServiceTest12SetRequireCTENS0_28NetworkServiceTest_RequireCTE(%"class.network::mojom::blink::NetworkServiceTest"* nocapture readnone, i32) unnamed_addr #3 align 2 {
  ret i1 false
}

; Function Attrs: norecurse nounwind readnone ssp uwtable
define hidden zeroext i1 @_ZN7network5mojom5blink18NetworkServiceTest31SetTransportSecurityStateSourceEt(%"class.network::mojom::blink::NetworkServiceTest"* nocapture readnone, i16 zeroext) unnamed_addr #3 align 2 {
  ret i1 false
}

; Function Attrs: norecurse nounwind readnone ssp uwtable
define hidden zeroext i1 @_ZN7network5mojom5blink18NetworkServiceTest38SetAllowNetworkAccessToHostResolutionsEv(%"class.network::mojom::blink::NetworkServiceTest"* nocapture readnone) unnamed_addr #3 align 2 {
  ret i1 false
}

; Function Attrs: norecurse nounwind readnone ssp uwtable
define hidden zeroext i1 @_ZN7network5mojom5blink18NetworkServiceTest28GetLatestMemoryPressureLevelEPN9mojo_base5mojom19MemoryPressureLevelE(%"class.network::mojom::blink::NetworkServiceTest"* nocapture readnone, i32* nocapture readnone) unnamed_addr #3 align 2 {
  ret i1 false
}

; Function Attrs: norecurse nounwind readnone ssp uwtable
define hidden zeroext i1 @_ZN7network5mojom5blink18NetworkServiceTest35GetPeerToPeerConnectionsCountChangeEPj(%"class.network::mojom::blink::NetworkServiceTest"* nocapture readnone, i32* nocapture readnone) unnamed_addr #3 align 2 {
  ret i1 false
}

; Function Attrs: norecurse nounwind readnone ssp uwtable
define hidden zeroext i1 @_ZN7network5mojom5blink18NetworkServiceTest27GetEnvironmentVariableValueERKN3WTF6StringEPS4_(%"class.network::mojom::blink::NetworkServiceTest"* nocapture readnone, %"class.WTF::String"* nocapture readnone dereferenceable(8), %"class.WTF::String"* nocapture readnone) unnamed_addr #3 align 2 {
  ret i1 false
}

; Function Attrs: norecurse nounwind readnone ssp uwtable
define hidden zeroext i1 @_ZN7network5mojom5blink18NetworkServiceTest3LogERKN3WTF6StringE(%"class.network::mojom::blink::NetworkServiceTest"* nocapture readnone, %"class.WTF::String"* nocapture readnone dereferenceable(8)) unnamed_addr #3 align 2 {
  ret i1 false
}

; Function Attrs: norecurse nounwind readnone ssp uwtable
define hidden zeroext i1 @_ZN7network5mojom5blink18NetworkServiceTest11SetEVPolicyERKN3WTF6VectorIhLj0ENS3_18PartitionAllocatorEEERKNS3_6StringE(%"class.network::mojom::blink::NetworkServiceTest"* nocapture readnone, %"class.WTF::Vector.68"* nocapture readnone dereferenceable(16), %"class.WTF::String"* nocapture readnone dereferenceable(8)) unnamed_addr #3 align 2 {
  ret i1 false
}

; Function Attrs: norecurse nounwind readnone ssp uwtable
define hidden zeroext i1 @_ZN7network5mojom5blink18NetworkServiceTest28GetFirstPartySetEntriesCountEPl(%"class.network::mojom::blink::NetworkServiceTest"* nocapture readnone, i64* nocapture readnone) unnamed_addr #3 align 2 {
  ret i1 false
}

; Function Attrs: norecurse nounwind readnone ssp uwtable
define hidden zeroext i1 @_ZN7network5mojom5blink18NetworkServiceTest24SetSCTAuditingRetryDelayEN4absl8optionalIN4base9TimeDeltaEEE(%"class.network::mojom::blink::NetworkServiceTest"* nocapture readnone, i8, i64) unnamed_addr #3 align 2 {
  ret i1 false
}

; Function Attrs: norecurse nounwind readnone ssp uwtable
define hidden zeroext i1 @_ZN7network5mojom5blink18NetworkServiceTest33GetSCTAuditingPendingReportsCountEPm(%"class.network::mojom::blink::NetworkServiceTest"* nocapture readnone, i64* nocapture readnone) unnamed_addr #3 align 2 {
  ret i1 false
}

; Function Attrs: nofree norecurse nounwind ssp uwtable writeonly
define hidden void @_ZN7network5mojom5blink23NetworkServiceTestProxyC2EPN4mojo28MessageReceiverWithResponderE(%"class.network::mojom::blink::NetworkServiceTestProxy"* nocapture, %"class.mojo::MessageReceiverWithResponder"*) unnamed_addr #4 align 2 {
  %3 = getelementptr inbounds %"class.network::mojom::blink::NetworkServiceTestProxy", %"class.network::mojom::blink::NetworkServiceTestProxy"* %0, i64 0, i32 0, i32 0
  store i32 (...)** bitcast (i8** getelementptr inbounds ({ [39 x i8*] }, { [39 x i8*] }* @_ZTVN7network5mojom5blink23NetworkServiceTestProxyE, i64 0, inrange i32 0, i64 2) to i32 (...)**), i32 (...)*** %3, align 8
  %4 = getelementptr inbounds %"class.network::mojom::blink::NetworkServiceTestProxy", %"class.network::mojom::blink::NetworkServiceTestProxy"* %0, i64 0, i32 1
  store %"class.mojo::MessageReceiverWithResponder"* %1, %"class.mojo::MessageReceiverWithResponder"** %4, align 8
  ret void
}

; Function Attrs: nounwind ssp uwtable
define hidden zeroext i1 @_ZN7network5mojom5blink23NetworkServiceTestProxy8AddRulesEN3WTF6VectorIN4mojo9StructPtrINS1_4RuleEEELj0ENS3_18PartitionAllocatorEEE(%"class.network::mojom::blink::NetworkServiceTestProxy"* nocapture readonly, %"class.WTF::Vector.31"*) unnamed_addr #0 align 2 {
  %3 = alloca %"class.mojo::internal::MessageFragment.338", align 8
  %4 = alloca %"class.mojo::Message", align 8
  %5 = alloca %"class.mojo::internal::ContainerValidateParams", align 8
  %6 = alloca i8, align 1
  %7 = bitcast %"class.mojo::Message"* %4 to i8*
  call void @llvm.lifetime.start.p0i8(i64 120, i8* nonnull %7) #11
  call void @llvm.memset.p0i8.i64(i8* nonnull align 8 %7, i8 -86, i64 120, i1 false)
  call void @_ZN4mojo7MessageC1EjjmmPNSt3__16vectorINS_16ScopedHandleBaseINS_6HandleEEENS1_9allocatorIS5_EEEE(%"class.mojo::Message"* nonnull %4, i32 1842504132, i32 5, i64 0, i64 0, %"class.std::__1::vector"* null) #11
  %8 = getelementptr inbounds %"class.mojo::Message", %"class.mojo::Message"* %4, i64 0, i32 1
  %9 = call i64 @_ZN4mojo8internal6Buffer8AllocateEm(%"class.mojo::internal::Buffer"* %8, i64 16) #11
  %10 = getelementptr inbounds %"class.mojo::Message", %"class.mojo::Message"* %4, i64 0, i32 1, i32 2
  %11 = load i8*, i8** %10, align 8
  %12 = getelementptr inbounds i8, i8* %11, i64 %9
  %13 = bitcast i8* %12 to %"class.network::mojom::internal::NetworkServiceTest_AddRules_Params_Data"*
  call void @_ZN7network5mojom8internal39NetworkServiceTest_AddRules_Params_DataC1Ev(%"class.network::mojom::internal::NetworkServiceTest_AddRules_Params_Data"* %13) #11
  %14 = ptrtoint %"class.mojo::Message"* %4 to i64
  %15 = bitcast %"class.mojo::internal::ContainerValidateParams"* %5 to i8*
  call void @llvm.lifetime.start.p0i8(i64 32, i8* nonnull %15) #11
  %16 = bitcast %"class.mojo::internal::ContainerValidateParams"* %5 to i64*
  store i64 -6148914691236517206, i64* %16, align 8
  %17 = getelementptr inbounds %"class.mojo::internal::ContainerValidateParams", %"class.mojo::internal::ContainerValidateParams"* %5, i64 0, i32 0
  store i32 0, i32* %17, align 8
  %18 = getelementptr inbounds %"class.mojo::internal::ContainerValidateParams", %"class.mojo::internal::ContainerValidateParams"* %5, i64 0, i32 1
  store i8 0, i8* %18, align 4
  %19 = getelementptr inbounds %"class.mojo::internal::ContainerValidateParams", %"class.mojo::internal::ContainerValidateParams"* %5, i64 0, i32 2
  %20 = getelementptr inbounds %"class.WTF::Vector.31", %"class.WTF::Vector.31"* %1, i64 0, i32 0, i32 0, i32 2
  %21 = bitcast %"class.mojo::internal::ContainerValidateParams"** %19 to i8*
  call void @llvm.memset.p0i8.i64(i8* align 8 %21, i8 0, i64 24, i1 false)
  %22 = load i32, i32* %20, align 4
  %23 = icmp ugt i32 %22, 536870910
  br i1 %23, label %36, label %24

24:                                               ; preds = %2
  %25 = shl i32 %22, 3
  %26 = add nuw i32 %25, 8
  %27 = zext i32 %26 to i64
  %28 = call i64 @_ZN4mojo8internal6Buffer8AllocateEm(%"class.mojo::internal::Buffer"* %8, i64 %27) #11
  %29 = load i8*, i8** %10, align 8
  %30 = getelementptr inbounds i8, i8* %29, i64 %28
  %31 = bitcast i8* %30 to i32*
  store i32 %26, i32* %31, align 1
  %32 = getelementptr inbounds i8, i8* %30, i64 4
  %33 = bitcast i8* %32 to i32*
  store i32 %22, i32* %33, align 1
  %34 = load i32, i32* %20, align 4
  %35 = icmp eq i32 %34, 0
  br i1 %35, label %71, label %36

36:                                               ; preds = %24, %2
  %37 = phi i64 [ -1, %2 ], [ %28, %24 ]
  %38 = phi i32 [ %22, %2 ], [ %34, %24 ]
  %39 = zext i32 %38 to i64
  %40 = bitcast %"class.mojo::internal::MessageFragment.338"* %3 to i8*
  %41 = getelementptr inbounds %"class.mojo::internal::MessageFragment.338", %"class.mojo::internal::MessageFragment.338"* %3, i64 0, i32 0
  %42 = getelementptr inbounds %"class.mojo::internal::MessageFragment.338", %"class.mojo::internal::MessageFragment.338"* %3, i64 0, i32 1
  %43 = bitcast %"class.mojo::internal::MessageFragment.338"* %3 to i64*
  br label %44

44:                                               ; preds = %62, %36
  %45 = phi i64 [ 0, %36 ], [ %46, %62 ]
  call void @llvm.lifetime.start.p0i8(i64 16, i8* nonnull %40) #11
  store i64 %14, i64* %43, align 8
  store i64 -1, i64* %42, align 8
  %46 = add nuw i64 %45, 1
  %47 = trunc i64 %45 to i32
  %48 = call dereferenceable(8) %"class.mojo::StructPtr"* @_ZN3WTF6VectorIN4mojo9StructPtrIN7network5mojom5blink4RuleEEELj0ENS_18PartitionAllocatorEE2atEj(%"class.WTF::Vector.31"* %1, i32 %47) #11
  call void @_ZN4mojo8internal10SerializerIN7network5mojom12RuleDataViewENS_9StructPtrINS3_5blink4RuleEEEE9SerializeERS8_RNS0_15MessageFragmentINS3_8internal9Rule_DataEEE(%"class.mojo::StructPtr"* dereferenceable(8) %48, %"class.mojo::internal::MessageFragment.338"* nonnull dereferenceable(16) %3) #11
  %49 = load i8*, i8** %10, align 8
  %50 = getelementptr inbounds i8, i8* %49, i64 8
  %51 = getelementptr inbounds i8, i8* %50, i64 %37
  %52 = bitcast i8* %51 to %"class.mojo::internal::Array_Data"*
  %53 = getelementptr inbounds %"class.mojo::internal::Array_Data", %"class.mojo::internal::Array_Data"* %52, i64 %45
  %54 = load i64, i64* %42, align 8
  %55 = icmp eq i64 %54, -1
  br i1 %55, label %62, label %56

56:                                               ; preds = %44
  %57 = load %"class.mojo::Message"*, %"class.mojo::Message"** %41, align 8
  %58 = getelementptr inbounds %"class.mojo::Message", %"class.mojo::Message"* %57, i64 0, i32 1, i32 2
  %59 = load i8*, i8** %58, align 8
  %60 = getelementptr inbounds i8, i8* %59, i64 %54
  %61 = bitcast i8* %60 to %"class.network::mojom::internal::Rule_Data"*
  br label %62

62:                                               ; preds = %56, %44
  %63 = phi %"class.network::mojom::internal::Rule_Data"* [ %61, %56 ], [ null, %44 ]
  %64 = bitcast %"class.mojo::internal::Array_Data"* %53 to i64*
  %65 = icmp eq %"class.network::mojom::internal::Rule_Data"* %63, null
  %66 = ptrtoint %"class.network::mojom::internal::Rule_Data"* %63 to i64
  %67 = ptrtoint %"class.mojo::internal::Array_Data"* %53 to i64
  %68 = sub i64 %66, %67
  %69 = select i1 %65, i64 0, i64 %68
  store i64 %69, i64* %64, align 8
  call void @llvm.lifetime.end.p0i8(i64 16, i8* nonnull %40) #11
  %70 = icmp eq i64 %46, %39
  br i1 %70, label %71, label %44

71:                                               ; preds = %62, %24
  %72 = phi i64 [ %28, %24 ], [ %37, %62 ]
  %73 = load i8*, i8** %10, align 8
  %74 = getelementptr inbounds i8, i8* %73, i64 %9
  %75 = getelementptr inbounds i8, i8* %74, i64 8
  %76 = icmp eq i64 %72, -1
  %77 = getelementptr inbounds i8, i8* %73, i64 %72
  %78 = bitcast i8* %77 to %"class.mojo::internal::Array_Data"*
  %79 = select i1 %76, %"class.mojo::internal::Array_Data"* null, %"class.mojo::internal::Array_Data"* %78
  %80 = bitcast i8* %75 to i64*
  %81 = icmp eq %"class.mojo::internal::Array_Data"* %79, null
  %82 = ptrtoint %"class.mojo::internal::Array_Data"* %79 to i64
  %83 = ptrtoint i8* %75 to i64
  %84 = sub i64 %82, %83
  %85 = select i1 %81, i64 0, i64 %84
  store i64 %85, i64* %80, align 8
  call void @llvm.lifetime.start.p0i8(i64 1, i8* nonnull %6) #11
  store i8 0, i8* %6, align 1
  %86 = call i8* @_Znwm(i64 16) #12
  %87 = bitcast i8* %86 to i32 (...)***
  store i32 (...)** bitcast (i8** getelementptr inbounds ({ [6 x i8*] }, { [6 x i8*] }* @_ZTVN7network5mojom5blink46NetworkServiceTest_AddRules_HandleSyncResponseE, i64 0, inrange i32 0, i64 2) to i32 (...)**), i32 (...)*** %87, align 8
  %88 = getelementptr inbounds i8, i8* %86, i64 8
  %89 = bitcast i8* %88 to i8**
  store i8* %6, i8** %89, align 8
  %90 = bitcast i8* %86 to %"class.mojo::MessageReceiver"*
  %91 = getelementptr inbounds %"class.network::mojom::blink::NetworkServiceTestProxy", %"class.network::mojom::blink::NetworkServiceTestProxy"* %0, i64 0, i32 1
  %92 = load %"class.mojo::MessageReceiverWithResponder"*, %"class.mojo::MessageReceiverWithResponder"** %91, align 8
  %93 = bitcast %"class.mojo::MessageReceiverWithResponder"* %92 to i1 (%"class.mojo::MessageReceiverWithResponder"*, %"class.mojo::Message"*, %"class.mojo::MessageReceiver"*)***
  %94 = load i1 (%"class.mojo::MessageReceiverWithResponder"*, %"class.mojo::Message"*, %"class.mojo::MessageReceiver"*)**, i1 (%"class.mojo::MessageReceiverWithResponder"*, %"class.mojo::Message"*, %"class.mojo::MessageReceiver"*)*** %93, align 8
  %95 = getelementptr inbounds i1 (%"class.mojo::MessageReceiverWithResponder"*, %"class.mojo::Message"*, %"class.mojo::MessageReceiver"*)*, i1 (%"class.mojo::MessageReceiverWithResponder"*, %"class.mojo::Message"*, %"class.mojo::MessageReceiver"*)** %94, i64 4
  %96 = load i1 (%"class.mojo::MessageReceiverWithResponder"*, %"class.mojo::Message"*, %"class.mojo::MessageReceiver"*)*, i1 (%"class.mojo::MessageReceiverWithResponder"*, %"class.mojo::Message"*, %"class.mojo::MessageReceiver"*)** %95, align 8
  %97 = call zeroext i1 %96(%"class.mojo::MessageReceiverWithResponder"* %92, %"class.mojo::Message"* nonnull %4, %"class.mojo::MessageReceiver"* nonnull %90) #11
  %98 = load i8, i8* %6, align 1, !range !4
  %99 = icmp ne i8 %98, 0
  call void @llvm.lifetime.end.p0i8(i64 1, i8* nonnull %6) #11
  call void @_ZN4mojo8internal23ContainerValidateParamsD2Ev(%"class.mojo::internal::ContainerValidateParams"* nonnull %5) #11
  call void @llvm.lifetime.end.p0i8(i64 32, i8* nonnull %15) #11
  call void @_ZN4mojo7MessageD1Ev(%"class.mojo::Message"* nonnull %4) #11
  call void @llvm.lifetime.end.p0i8(i64 120, i8* nonnull %7) #11
  ret i1 %99
}

declare void @_ZN4mojo7MessageC1EjjmmPNSt3__16vectorINS_16ScopedHandleBaseINS_6HandleEEENS1_9allocatorIS5_EEEE(%"class.mojo::Message"*, i32, i32, i64, i64, %"class.std::__1::vector"*) unnamed_addr #2

; Function Attrs: argmemonly nounwind
declare void @llvm.memcpy.p0i8.p0i8.i64(i8* nocapture writeonly, i8* nocapture readonly, i64, i1 immarg) #1

; Function Attrs: nobuiltin nofree
declare noalias nonnull i8* @_Znwm(i64) local_unnamed_addr #5

; Function Attrs: nounwind ssp uwtable
define linkonce_odr hidden void @_ZN4mojo8internal23ContainerValidateParamsD2Ev(%"class.mojo::internal::ContainerValidateParams"*) unnamed_addr #0 comdat align 2 {
  %2 = getelementptr inbounds %"class.mojo::internal::ContainerValidateParams", %"class.mojo::internal::ContainerValidateParams"* %0, i64 0, i32 3
  %3 = load %"class.mojo::internal::ContainerValidateParams"*, %"class.mojo::internal::ContainerValidateParams"** %2, align 8
  %4 = icmp eq %"class.mojo::internal::ContainerValidateParams"* %3, null
  br i1 %4, label %7, label %5

5:                                                ; preds = %1
  tail call void @_ZN4mojo8internal23ContainerValidateParamsD2Ev(%"class.mojo::internal::ContainerValidateParams"* nonnull %3) #11
  %6 = bitcast %"class.mojo::internal::ContainerValidateParams"* %3 to i8*
  tail call void @_ZdlPv(i8* %6) #12
  br label %7

7:                                                ; preds = %1, %5
  %8 = getelementptr inbounds %"class.mojo::internal::ContainerValidateParams", %"class.mojo::internal::ContainerValidateParams"* %0, i64 0, i32 2
  %9 = load %"class.mojo::internal::ContainerValidateParams"*, %"class.mojo::internal::ContainerValidateParams"** %8, align 8
  %10 = icmp eq %"class.mojo::internal::ContainerValidateParams"* %9, null
  br i1 %10, label %13, label %11

11:                                               ; preds = %7
  tail call void @_ZN4mojo8internal23ContainerValidateParamsD2Ev(%"class.mojo::internal::ContainerValidateParams"* nonnull %9) #11
  %12 = bitcast %"class.mojo::internal::ContainerValidateParams"* %9 to i8*
  tail call void @_ZdlPv(i8* %12) #12
  ret void

13:                                               ; preds = %7
  ret void
}

; Function Attrs: nounwind
declare void @_ZN4mojo7MessageD1Ev(%"class.mojo::Message"*) unnamed_addr #6

; Function Attrs: nounwind ssp uwtable
define hidden void @_ZN7network5mojom5blink23NetworkServiceTestProxy8AddRulesEN3WTF6VectorIN4mojo9StructPtrINS1_4RuleEEELj0ENS3_18PartitionAllocatorEEEN4base12OnceCallbackIFvvEEE(%"class.network::mojom::blink::NetworkServiceTestProxy"* nocapture readonly, %"class.WTF::Vector.31"*, %"class.base::OnceCallback"* nocapture) unnamed_addr #0 align 2 {
  %4 = alloca %"class.mojo::internal::MessageFragment.338", align 8
  %5 = alloca %"class.mojo::Message", align 8
  %6 = alloca %"class.mojo::internal::ContainerValidateParams", align 8
  %7 = alloca %"class.base::OnceCallback", align 8
  %8 = bitcast %"class.mojo::Message"* %5 to i8*
  call void @llvm.lifetime.start.p0i8(i64 120, i8* nonnull %8) #11
  call void @llvm.memset.p0i8.i64(i8* nonnull align 8 %8, i8 -86, i64 120, i1 false)
  call void @_ZN4mojo7MessageC1EjjmmPNSt3__16vectorINS_16ScopedHandleBaseINS_6HandleEEENS1_9allocatorIS5_EEEE(%"class.mojo::Message"* nonnull %5, i32 1842504132, i32 1, i64 0, i64 0, %"class.std::__1::vector"* null) #11
  %9 = getelementptr inbounds %"class.mojo::Message", %"class.mojo::Message"* %5, i64 0, i32 1
  %10 = call i64 @_ZN4mojo8internal6Buffer8AllocateEm(%"class.mojo::internal::Buffer"* %9, i64 16) #11
  %11 = getelementptr inbounds %"class.mojo::Message", %"class.mojo::Message"* %5, i64 0, i32 1, i32 2
  %12 = load i8*, i8** %11, align 8
  %13 = getelementptr inbounds i8, i8* %12, i64 %10
  %14 = bitcast i8* %13 to %"class.network::mojom::internal::NetworkServiceTest_AddRules_Params_Data"*
  call void @_ZN7network5mojom8internal39NetworkServiceTest_AddRules_Params_DataC1Ev(%"class.network::mojom::internal::NetworkServiceTest_AddRules_Params_Data"* %14) #11
  %15 = ptrtoint %"class.mojo::Message"* %5 to i64
  %16 = bitcast %"class.mojo::internal::ContainerValidateParams"* %6 to i8*
  call void @llvm.lifetime.start.p0i8(i64 32, i8* nonnull %16) #11
  %17 = bitcast %"class.mojo::internal::ContainerValidateParams"* %6 to i64*
  store i64 -6148914691236517206, i64* %17, align 8
  %18 = getelementptr inbounds %"class.mojo::internal::ContainerValidateParams", %"class.mojo::internal::ContainerValidateParams"* %6, i64 0, i32 0
  store i32 0, i32* %18, align 8
  %19 = getelementptr inbounds %"class.mojo::internal::ContainerValidateParams", %"class.mojo::internal::ContainerValidateParams"* %6, i64 0, i32 1
  store i8 0, i8* %19, align 4
  %20 = getelementptr inbounds %"class.mojo::internal::ContainerValidateParams", %"class.mojo::internal::ContainerValidateParams"* %6, i64 0, i32 2
  %21 = getelementptr inbounds %"class.WTF::Vector.31", %"class.WTF::Vector.31"* %1, i64 0, i32 0, i32 0, i32 2
  %22 = bitcast %"class.mojo::internal::ContainerValidateParams"** %20 to i8*
  call void @llvm.memset.p0i8.i64(i8* align 8 %22, i8 0, i64 24, i1 false)
  %23 = load i32, i32* %21, align 4
  %24 = icmp ugt i32 %23, 536870910
  br i1 %24, label %37, label %25

25:                                               ; preds = %3
  %26 = shl i32 %23, 3
  %27 = add nuw i32 %26, 8
  %28 = zext i32 %27 to i64
  %29 = call i64 @_ZN4mojo8internal6Buffer8AllocateEm(%"class.mojo::internal::Buffer"* %9, i64 %28) #11
  %30 = load i8*, i8** %11, align 8
  %31 = getelementptr inbounds i8, i8* %30, i64 %29
  %32 = bitcast i8* %31 to i32*
  store i32 %27, i32* %32, align 1
  %33 = getelementptr inbounds i8, i8* %31, i64 4
  %34 = bitcast i8* %33 to i32*
  store i32 %23, i32* %34, align 1
  %35 = load i32, i32* %21, align 4
  %36 = icmp eq i32 %35, 0
  br i1 %36, label %72, label %37

37:                                               ; preds = %25, %3
  %38 = phi i64 [ -1, %3 ], [ %29, %25 ]
  %39 = phi i32 [ %23, %3 ], [ %35, %25 ]
  %40 = zext i32 %39 to i64
  %41 = bitcast %"class.mojo::internal::MessageFragment.338"* %4 to i8*
  %42 = getelementptr inbounds %"class.mojo::internal::MessageFragment.338", %"class.mojo::internal::MessageFragment.338"* %4, i64 0, i32 0
  %43 = getelementptr inbounds %"class.mojo::internal::MessageFragment.338", %"class.mojo::internal::MessageFragment.338"* %4, i64 0, i32 1
  %44 = bitcast %"class.mojo::internal::MessageFragment.338"* %4 to i64*
  br label %45

45:                                               ; preds = %63, %37
  %46 = phi i64 [ 0, %37 ], [ %47, %63 ]
  call void @llvm.lifetime.start.p0i8(i64 16, i8* nonnull %41) #11
  store i64 %15, i64* %44, align 8
  store i64 -1, i64* %43, align 8
  %47 = add nuw i64 %46, 1
  %48 = trunc i64 %46 to i32
  %49 = call dereferenceable(8) %"class.mojo::StructPtr"* @_ZN3WTF6VectorIN4mojo9StructPtrIN7network5mojom5blink4RuleEEELj0ENS_18PartitionAllocatorEE2atEj(%"class.WTF::Vector.31"* %1, i32 %48) #11
  call void @_ZN4mojo8internal10SerializerIN7network5mojom12RuleDataViewENS_9StructPtrINS3_5blink4RuleEEEE9SerializeERS8_RNS0_15MessageFragmentINS3_8internal9Rule_DataEEE(%"class.mojo::StructPtr"* dereferenceable(8) %49, %"class.mojo::internal::MessageFragment.338"* nonnull dereferenceable(16) %4) #11
  %50 = load i8*, i8** %11, align 8
  %51 = getelementptr inbounds i8, i8* %50, i64 8
  %52 = getelementptr inbounds i8, i8* %51, i64 %38
  %53 = bitcast i8* %52 to %"class.mojo::internal::Array_Data"*
  %54 = getelementptr inbounds %"class.mojo::internal::Array_Data", %"class.mojo::internal::Array_Data"* %53, i64 %46
  %55 = load i64, i64* %43, align 8
  %56 = icmp eq i64 %55, -1
  br i1 %56, label %63, label %57

57:                                               ; preds = %45
  %58 = load %"class.mojo::Message"*, %"class.mojo::Message"** %42, align 8
  %59 = getelementptr inbounds %"class.mojo::Message", %"class.mojo::Message"* %58, i64 0, i32 1, i32 2
  %60 = load i8*, i8** %59, align 8
  %61 = getelementptr inbounds i8, i8* %60, i64 %55
  %62 = bitcast i8* %61 to %"class.network::mojom::internal::Rule_Data"*
  br label %63

63:                                               ; preds = %57, %45
  %64 = phi %"class.network::mojom::internal::Rule_Data"* [ %62, %57 ], [ null, %45 ]
  %65 = bitcast %"class.mojo::internal::Array_Data"* %54 to i64*
  %66 = icmp eq %"class.network::mojom::internal::Rule_Data"* %64, null
  %67 = ptrtoint %"class.network::mojom::internal::Rule_Data"* %64 to i64
  %68 = ptrtoint %"class.mojo::internal::Array_Data"* %54 to i64
  %69 = sub i64 %67, %68
  %70 = select i1 %66, i64 0, i64 %69
  store i64 %70, i64* %65, align 8
  call void @llvm.lifetime.end.p0i8(i64 16, i8* nonnull %41) #11
  %71 = icmp eq i64 %47, %40
  br i1 %71, label %72, label %45

72:                                               ; preds = %63, %25
  %73 = phi i64 [ %29, %25 ], [ %38, %63 ]
  %74 = load i8*, i8** %11, align 8
  %75 = getelementptr inbounds i8, i8* %74, i64 %10
  %76 = getelementptr inbounds i8, i8* %75, i64 8
  %77 = icmp eq i64 %73, -1
  %78 = getelementptr inbounds i8, i8* %74, i64 %73
  %79 = bitcast i8* %78 to %"class.mojo::internal::Array_Data"*
  %80 = select i1 %77, %"class.mojo::internal::Array_Data"* null, %"class.mojo::internal::Array_Data"* %79
  %81 = bitcast i8* %76 to i64*
  %82 = icmp eq %"class.mojo::internal::Array_Data"* %80, null
  %83 = ptrtoint %"class.mojo::internal::Array_Data"* %80 to i64
  %84 = ptrtoint i8* %76 to i64
  %85 = sub i64 %83, %84
  %86 = select i1 %82, i64 0, i64 %85
  store i64 %86, i64* %81, align 8
  %87 = call i8* @_Znwm(i64 16) #12
  %88 = getelementptr inbounds %"class.base::OnceCallback", %"class.base::OnceCallback"* %2, i64 0, i32 0, i32 0, i32 0
  %89 = bitcast %"class.base::OnceCallback"* %2 to i64*
  %90 = load i64, i64* %89, align 8
  store %"class.base::internal::BindStateBase"* null, %"class.base::internal::BindStateBase"** %88, align 8
  %91 = bitcast i8* %87 to i32 (...)***
  store i32 (...)** bitcast (i8** getelementptr inbounds ({ [6 x i8*] }, { [6 x i8*] }* @_ZTVN7network5mojom5blink45NetworkServiceTest_AddRules_ForwardToCallbackE, i64 0, inrange i32 0, i64 2) to i32 (...)**), i32 (...)*** %91, align 8
  %92 = getelementptr inbounds i8, i8* %87, i64 8
  %93 = getelementptr inbounds %"class.base::OnceCallback", %"class.base::OnceCallback"* %7, i64 0, i32 0, i32 0, i32 0
  %94 = bitcast i8* %92 to i64*
  store i64 %90, i64* %94, align 8
  store %"class.base::internal::BindStateBase"* null, %"class.base::internal::BindStateBase"** %93, align 8
  %95 = bitcast i8* %87 to %"class.mojo::MessageReceiver"*
  %96 = getelementptr inbounds %"class.base::OnceCallback", %"class.base::OnceCallback"* %7, i64 0, i32 0
  call void @_ZN4base8internal12CallbackBaseD2Ev(%"class.base::internal::CallbackBase"* nonnull %96) #11
  %97 = getelementptr inbounds %"class.network::mojom::blink::NetworkServiceTestProxy", %"class.network::mojom::blink::NetworkServiceTestProxy"* %0, i64 0, i32 1
  %98 = load %"class.mojo::MessageReceiverWithResponder"*, %"class.mojo::MessageReceiverWithResponder"** %97, align 8
  %99 = bitcast %"class.mojo::MessageReceiverWithResponder"* %98 to i1 (%"class.mojo::MessageReceiverWithResponder"*, %"class.mojo::Message"*, %"class.mojo::MessageReceiver"*)***
  %100 = load i1 (%"class.mojo::MessageReceiverWithResponder"*, %"class.mojo::Message"*, %"class.mojo::MessageReceiver"*)**, i1 (%"class.mojo::MessageReceiverWithResponder"*, %"class.mojo::Message"*, %"class.mojo::MessageReceiver"*)*** %99, align 8
  %101 = getelementptr inbounds i1 (%"class.mojo::MessageReceiverWithResponder"*, %"class.mojo::Message"*, %"class.mojo::MessageReceiver"*)*, i1 (%"class.mojo::MessageReceiverWithResponder"*, %"class.mojo::Message"*, %"class.mojo::MessageReceiver"*)** %100, i64 4
  %102 = load i1 (%"class.mojo::MessageReceiverWithResponder"*, %"class.mojo::Message"*, %"class.mojo::MessageReceiver"*)*, i1 (%"class.mojo::MessageReceiverWithResponder"*, %"class.mojo::Message"*, %"class.mojo::MessageReceiver"*)** %101, align 8
  %103 = call zeroext i1 %102(%"class.mojo::MessageReceiverWithResponder"* %98, %"class.mojo::Message"* nonnull %5, %"class.mojo::MessageReceiver"* nonnull %95) #11
  call void @_ZN4mojo8internal23ContainerValidateParamsD2Ev(%"class.mojo::internal::ContainerValidateParams"* nonnull %6) #11
  call void @llvm.lifetime.end.p0i8(i64 32, i8* nonnull %16) #11
  call void @_ZN4mojo7MessageD1Ev(%"class.mojo::Message"* nonnull %5) #11
  call void @llvm.lifetime.end.p0i8(i64 120, i8* nonnull %8) #11
  ret void
}

; Function Attrs: nounwind ssp uwtable
define hidden void @_ZN7network5mojom5blink23NetworkServiceTestProxy21SimulateNetworkChangeENS0_14ConnectionTypeEN4base12OnceCallbackIFvvEEE(%"class.network::mojom::blink::NetworkServiceTestProxy"* nocapture readonly, i32, %"class.base::OnceCallback"* nocapture) unnamed_addr #0 align 2 {
  %4 = alloca %"class.mojo::Message", align 8
  %5 = alloca %"class.base::OnceCallback", align 8
  %6 = bitcast %"class.mojo::Message"* %4 to i8*
  call void @llvm.lifetime.start.p0i8(i64 120, i8* nonnull %6) #11
  call void @llvm.memset.p0i8.i64(i8* nonnull align 8 %6, i8 -86, i64 120, i1 false)
  call void @_ZN4mojo7MessageC1EjjmmPNSt3__16vectorINS_16ScopedHandleBaseINS_6HandleEEENS1_9allocatorIS5_EEEE(%"class.mojo::Message"* nonnull %4, i32 770970789, i32 1, i64 0, i64 0, %"class.std::__1::vector"* null) #11
  %7 = getelementptr inbounds %"class.mojo::Message", %"class.mojo::Message"* %4, i64 0, i32 1
  %8 = call i64 @_ZN4mojo8internal6Buffer8AllocateEm(%"class.mojo::internal::Buffer"* %7, i64 16) #11
  %9 = getelementptr inbounds %"class.mojo::Message", %"class.mojo::Message"* %4, i64 0, i32 1, i32 2
  %10 = load i8*, i8** %9, align 8
  %11 = getelementptr inbounds i8, i8* %10, i64 %8
  %12 = bitcast i8* %11 to %"class.network::mojom::internal::NetworkServiceTest_SimulateNetworkChange_Params_Data"*
  call void @_ZN7network5mojom8internal52NetworkServiceTest_SimulateNetworkChange_Params_DataC1Ev(%"class.network::mojom::internal::NetworkServiceTest_SimulateNetworkChange_Params_Data"* %12) #11
  %13 = load i8*, i8** %9, align 8
  %14 = getelementptr inbounds i8, i8* %13, i64 %8
  %15 = getelementptr inbounds i8, i8* %14, i64 8
  %16 = bitcast i8* %15 to i32*
  store i32 %1, i32* %16, align 4
  %17 = call i8* @_Znwm(i64 16) #12
  %18 = getelementptr inbounds %"class.base::OnceCallback", %"class.base::OnceCallback"* %2, i64 0, i32 0, i32 0, i32 0
  %19 = bitcast %"class.base::OnceCallback"* %2 to i64*
  %20 = load i64, i64* %19, align 8
  store %"class.base::internal::BindStateBase"* null, %"class.base::internal::BindStateBase"** %18, align 8
  %21 = bitcast i8* %17 to i32 (...)***
  store i32 (...)** bitcast (i8** getelementptr inbounds ({ [6 x i8*] }, { [6 x i8*] }* @_ZTVN7network5mojom5blink58NetworkServiceTest_SimulateNetworkChange_ForwardToCallbackE, i64 0, inrange i32 0, i64 2) to i32 (...)**), i32 (...)*** %21, align 8
  %22 = getelementptr inbounds i8, i8* %17, i64 8
  %23 = getelementptr inbounds %"class.base::OnceCallback", %"class.base::OnceCallback"* %5, i64 0, i32 0, i32 0, i32 0
  %24 = bitcast i8* %22 to i64*
  store i64 %20, i64* %24, align 8
  store %"class.base::internal::BindStateBase"* null, %"class.base::internal::BindStateBase"** %23, align 8
  %25 = bitcast i8* %17 to %"class.mojo::MessageReceiver"*
  %26 = getelementptr inbounds %"class.base::OnceCallback", %"class.base::OnceCallback"* %5, i64 0, i32 0
  call void @_ZN4base8internal12CallbackBaseD2Ev(%"class.base::internal::CallbackBase"* nonnull %26) #11
  %27 = getelementptr inbounds %"class.network::mojom::blink::NetworkServiceTestProxy", %"class.network::mojom::blink::NetworkServiceTestProxy"* %0, i64 0, i32 1
  %28 = load %"class.mojo::MessageReceiverWithResponder"*, %"class.mojo::MessageReceiverWithResponder"** %27, align 8
  %29 = bitcast %"class.mojo::MessageReceiverWithResponder"* %28 to i1 (%"class.mojo::MessageReceiverWithResponder"*, %"class.mojo::Message"*, %"class.mojo::MessageReceiver"*)***
  %30 = load i1 (%"class.mojo::MessageReceiverWithResponder"*, %"class.mojo::Message"*, %"class.mojo::MessageReceiver"*)**, i1 (%"class.mojo::MessageReceiverWithResponder"*, %"class.mojo::Message"*, %"class.mojo::MessageReceiver"*)*** %29, align 8
  %31 = getelementptr inbounds i1 (%"class.mojo::MessageReceiverWithResponder"*, %"class.mojo::Message"*, %"class.mojo::MessageReceiver"*)*, i1 (%"class.mojo::MessageReceiverWithResponder"*, %"class.mojo::Message"*, %"class.mojo::MessageReceiver"*)** %30, i64 4
  %32 = load i1 (%"class.mojo::MessageReceiverWithResponder"*, %"class.mojo::Message"*, %"class.mojo::MessageReceiver"*)*, i1 (%"class.mojo::MessageReceiverWithResponder"*, %"class.mojo::Message"*, %"class.mojo::MessageReceiver"*)** %31, align 8
  %33 = call zeroext i1 %32(%"class.mojo::MessageReceiverWithResponder"* %28, %"class.mojo::Message"* nonnull %4, %"class.mojo::MessageReceiver"* nonnull %25) #11
  call void @_ZN4mojo7MessageD1Ev(%"class.mojo::Message"* nonnull %4) #11
  call void @llvm.lifetime.end.p0i8(i64 120, i8* nonnull %6) #11
  ret void
}

; Function Attrs: nounwind ssp uwtable
define hidden void @_ZN7network5mojom5blink23NetworkServiceTestProxy28SimulateNetworkQualityChangeEN4mojo10NativeEnumEN4base12OnceCallbackIFvvEEE(%"class.network::mojom::blink::NetworkServiceTestProxy"* nocapture readonly, i32, %"class.base::OnceCallback"* nocapture) unnamed_addr #0 align 2 {
  %4 = alloca %"class.mojo::Message", align 8
  %5 = alloca %"class.base::OnceCallback", align 8
  %6 = bitcast %"class.mojo::Message"* %4 to i8*
  call void @llvm.lifetime.start.p0i8(i64 120, i8* nonnull %6) #11
  call void @llvm.memset.p0i8.i64(i8* nonnull align 8 %6, i8 -86, i64 120, i1 false)
  call void @_ZN4mojo7MessageC1EjjmmPNSt3__16vectorINS_16ScopedHandleBaseINS_6HandleEEENS1_9allocatorIS5_EEEE(%"class.mojo::Message"* nonnull %4, i32 529548984, i32 1, i64 0, i64 0, %"class.std::__1::vector"* null) #11
  %7 = getelementptr inbounds %"class.mojo::Message", %"class.mojo::Message"* %4, i64 0, i32 1
  %8 = call i64 @_ZN4mojo8internal6Buffer8AllocateEm(%"class.mojo::internal::Buffer"* %7, i64 16) #11
  %9 = getelementptr inbounds %"class.mojo::Message", %"class.mojo::Message"* %4, i64 0, i32 1, i32 2
  %10 = load i8*, i8** %9, align 8
  %11 = getelementptr inbounds i8, i8* %10, i64 %8
  %12 = bitcast i8* %11 to %"class.network::mojom::internal::NetworkServiceTest_SimulateNetworkQualityChange_Params_Data"*
  call void @_ZN7network5mojom8internal59NetworkServiceTest_SimulateNetworkQualityChange_Params_DataC1Ev(%"class.network::mojom::internal::NetworkServiceTest_SimulateNetworkQualityChange_Params_Data"* %12) #11
  %13 = load i8*, i8** %9, align 8
  %14 = getelementptr inbounds i8, i8* %13, i64 %8
  %15 = getelementptr inbounds i8, i8* %14, i64 8
  %16 = bitcast i8* %15 to i32*
  store i32 %1, i32* %16, align 4
  %17 = call i8* @_Znwm(i64 16) #12
  %18 = getelementptr inbounds %"class.base::OnceCallback", %"class.base::OnceCallback"* %2, i64 0, i32 0, i32 0, i32 0
  %19 = bitcast %"class.base::OnceCallback"* %2 to i64*
  %20 = load i64, i64* %19, align 8
  store %"class.base::internal::BindStateBase"* null, %"class.base::internal::BindStateBase"** %18, align 8
  %21 = bitcast i8* %17 to i32 (...)***
  store i32 (...)** bitcast (i8** getelementptr inbounds ({ [6 x i8*] }, { [6 x i8*] }* @_ZTVN7network5mojom5blink65NetworkServiceTest_SimulateNetworkQualityChange_ForwardToCallbackE, i64 0, inrange i32 0, i64 2) to i32 (...)**), i32 (...)*** %21, align 8
  %22 = getelementptr inbounds i8, i8* %17, i64 8
  %23 = getelementptr inbounds %"class.base::OnceCallback", %"class.base::OnceCallback"* %5, i64 0, i32 0, i32 0, i32 0
  %24 = bitcast i8* %22 to i64*
  store i64 %20, i64* %24, align 8
  store %"class.base::internal::BindStateBase"* null, %"class.base::internal::BindStateBase"** %23, align 8
  %25 = bitcast i8* %17 to %"class.mojo::MessageReceiver"*
  %26 = getelementptr inbounds %"class.base::OnceCallback", %"class.base::OnceCallback"* %5, i64 0, i32 0
  call void @_ZN4base8internal12CallbackBaseD2Ev(%"class.base::internal::CallbackBase"* nonnull %26) #11
  %27 = getelementptr inbounds %"class.network::mojom::blink::NetworkServiceTestProxy", %"class.network::mojom::blink::NetworkServiceTestProxy"* %0, i64 0, i32 1
  %28 = load %"class.mojo::MessageReceiverWithResponder"*, %"class.mojo::MessageReceiverWithResponder"** %27, align 8
  %29 = bitcast %"class.mojo::MessageReceiverWithResponder"* %28 to i1 (%"class.mojo::MessageReceiverWithResponder"*, %"class.mojo::Message"*, %"class.mojo::MessageReceiver"*)***
  %30 = load i1 (%"class.mojo::MessageReceiverWithResponder"*, %"class.mojo::Message"*, %"class.mojo::MessageReceiver"*)**, i1 (%"class.mojo::MessageReceiverWithResponder"*, %"class.mojo::Message"*, %"class.mojo::MessageReceiver"*)*** %29, align 8
  %31 = getelementptr inbounds i1 (%"class.mojo::MessageReceiverWithResponder"*, %"class.mojo::Message"*, %"class.mojo::MessageReceiver"*)*, i1 (%"class.mojo::MessageReceiverWithResponder"*, %"class.mojo::Message"*, %"class.mojo::MessageReceiver"*)** %30, i64 4
  %32 = load i1 (%"class.mojo::MessageReceiverWithResponder"*, %"class.mojo::Message"*, %"class.mojo::MessageReceiver"*)*, i1 (%"class.mojo::MessageReceiverWithResponder"*, %"class.mojo::Message"*, %"class.mojo::MessageReceiver"*)** %31, align 8
  %33 = call zeroext i1 %32(%"class.mojo::MessageReceiverWithResponder"* %28, %"class.mojo::Message"* nonnull %4, %"class.mojo::MessageReceiver"* nonnull %25) #11
  call void @_ZN4mojo7MessageD1Ev(%"class.mojo::Message"* nonnull %4) #11
  call void @llvm.lifetime.end.p0i8(i64 120, i8* nonnull %6) #11
  ret void
}

; Function Attrs: nounwind ssp uwtable
define hidden void @_ZN7network5mojom5blink23NetworkServiceTestProxy13SimulateCrashEv(%"class.network::mojom::blink::NetworkServiceTestProxy"* nocapture readonly) unnamed_addr #0 align 2 {
  %2 = alloca %"class.mojo::Message", align 8
  %3 = bitcast %"class.mojo::Message"* %2 to i8*
  call void @llvm.lifetime.start.p0i8(i64 120, i8* nonnull %3) #11
  call void @llvm.memset.p0i8.i64(i8* nonnull align 8 %3, i8 -86, i64 120, i1 false)
  call void @_ZN4mojo7MessageC1EjjmmPNSt3__16vectorINS_16ScopedHandleBaseINS_6HandleEEENS1_9allocatorIS5_EEEE(%"class.mojo::Message"* nonnull %2, i32 1355754339, i32 0, i64 0, i64 0, %"class.std::__1::vector"* null) #11
  %4 = getelementptr inbounds %"class.mojo::Message", %"class.mojo::Message"* %2, i64 0, i32 1
  %5 = call i64 @_ZN4mojo8internal6Buffer8AllocateEm(%"class.mojo::internal::Buffer"* %4, i64 8) #11
  %6 = getelementptr inbounds %"class.mojo::Message", %"class.mojo::Message"* %2, i64 0, i32 1, i32 2
  %7 = load i8*, i8** %6, align 8
  %8 = getelementptr inbounds i8, i8* %7, i64 %5
  %9 = bitcast i8* %8 to %"class.network::mojom::internal::NetworkServiceTest_SimulateCrash_Params_Data"*
  call void @_ZN7network5mojom8internal44NetworkServiceTest_SimulateCrash_Params_DataC1Ev(%"class.network::mojom::internal::NetworkServiceTest_SimulateCrash_Params_Data"* %9) #11
  %10 = getelementptr inbounds %"class.network::mojom::blink::NetworkServiceTestProxy", %"class.network::mojom::blink::NetworkServiceTestProxy"* %0, i64 0, i32 1
  %11 = bitcast %"class.mojo::MessageReceiverWithResponder"** %10 to %"class.mojo::MessageReceiver"**
  %12 = load %"class.mojo::MessageReceiver"*, %"class.mojo::MessageReceiver"** %11, align 8
  %13 = bitcast %"class.mojo::MessageReceiver"* %12 to i1 (%"class.mojo::MessageReceiver"*, %"class.mojo::Message"*)***
  %14 = load i1 (%"class.mojo::MessageReceiver"*, %"class.mojo::Message"*)**, i1 (%"class.mojo::MessageReceiver"*, %"class.mojo::Message"*)*** %13, align 8
  %15 = getelementptr inbounds i1 (%"class.mojo::MessageReceiver"*, %"class.mojo::Message"*)*, i1 (%"class.mojo::MessageReceiver"*, %"class.mojo::Message"*)** %14, i64 3
  %16 = load i1 (%"class.mojo::MessageReceiver"*, %"class.mojo::Message"*)*, i1 (%"class.mojo::MessageReceiver"*, %"class.mojo::Message"*)** %15, align 8
  %17 = call zeroext i1 %16(%"class.mojo::MessageReceiver"* %12, %"class.mojo::Message"* nonnull %2) #11
  call void @_ZN4mojo7MessageD1Ev(%"class.mojo::Message"* nonnull %2) #11
  call void @llvm.lifetime.end.p0i8(i64 120, i8* nonnull %3) #11
  ret void
}

; Function Attrs: nounwind ssp uwtable
define hidden zeroext i1 @_ZN7network5mojom5blink23NetworkServiceTestProxy32MockCertVerifierSetDefaultResultEi(%"class.network::mojom::blink::NetworkServiceTestProxy"* nocapture readonly, i32) unnamed_addr #0 align 2 {
  %3 = alloca %"class.mojo::Message", align 8
  %4 = alloca i8, align 1
  %5 = bitcast %"class.mojo::Message"* %3 to i8*
  call void @llvm.lifetime.start.p0i8(i64 120, i8* nonnull %5) #11
  call void @llvm.memset.p0i8.i64(i8* nonnull align 8 %5, i8 -86, i64 120, i1 false)
  call void @_ZN4mojo7MessageC1EjjmmPNSt3__16vectorINS_16ScopedHandleBaseINS_6HandleEEENS1_9allocatorIS5_EEEE(%"class.mojo::Message"* nonnull %3, i32 343609816, i32 5, i64 0, i64 0, %"class.std::__1::vector"* null) #11
  %6 = getelementptr inbounds %"class.mojo::Message", %"class.mojo::Message"* %3, i64 0, i32 1
  %7 = call i64 @_ZN4mojo8internal6Buffer8AllocateEm(%"class.mojo::internal::Buffer"* %6, i64 16) #11
  %8 = getelementptr inbounds %"class.mojo::Message", %"class.mojo::Message"* %3, i64 0, i32 1, i32 2
  %9 = load i8*, i8** %8, align 8
  %10 = getelementptr inbounds i8, i8* %9, i64 %7
  %11 = bitcast i8* %10 to %"class.network::mojom::internal::NetworkServiceTest_MockCertVerifierSetDefaultResult_Params_Data"*
  call void @_ZN7network5mojom8internal63NetworkServiceTest_MockCertVerifierSetDefaultResult_Params_DataC1Ev(%"class.network::mojom::internal::NetworkServiceTest_MockCertVerifierSetDefaultResult_Params_Data"* %11) #11
  %12 = load i8*, i8** %8, align 8
  %13 = getelementptr inbounds i8, i8* %12, i64 %7
  %14 = getelementptr inbounds i8, i8* %13, i64 8
  %15 = bitcast i8* %14 to i32*
  store i32 %1, i32* %15, align 4
  call void @llvm.lifetime.start.p0i8(i64 1, i8* nonnull %4) #11
  store i8 0, i8* %4, align 1
  %16 = call i8* @_Znwm(i64 16) #12
  %17 = bitcast i8* %16 to i32 (...)***
  store i32 (...)** bitcast (i8** getelementptr inbounds ({ [6 x i8*] }, { [6 x i8*] }* @_ZTVN7network5mojom5blink70NetworkServiceTest_MockCertVerifierSetDefaultResult_HandleSyncResponseE, i64 0, inrange i32 0, i64 2) to i32 (...)**), i32 (...)*** %17, align 8
  %18 = getelementptr inbounds i8, i8* %16, i64 8
  %19 = bitcast i8* %18 to i8**
  store i8* %4, i8** %19, align 8
  %20 = bitcast i8* %16 to %"class.mojo::MessageReceiver"*
  %21 = getelementptr inbounds %"class.network::mojom::blink::NetworkServiceTestProxy", %"class.network::mojom::blink::NetworkServiceTestProxy"* %0, i64 0, i32 1
  %22 = load %"class.mojo::MessageReceiverWithResponder"*, %"class.mojo::MessageReceiverWithResponder"** %21, align 8
  %23 = bitcast %"class.mojo::MessageReceiverWithResponder"* %22 to i1 (%"class.mojo::MessageReceiverWithResponder"*, %"class.mojo::Message"*, %"class.mojo::MessageReceiver"*)***
  %24 = load i1 (%"class.mojo::MessageReceiverWithResponder"*, %"class.mojo::Message"*, %"class.mojo::MessageReceiver"*)**, i1 (%"class.mojo::MessageReceiverWithResponder"*, %"class.mojo::Message"*, %"class.mojo::MessageReceiver"*)*** %23, align 8
  %25 = getelementptr inbounds i1 (%"class.mojo::MessageReceiverWithResponder"*, %"class.mojo::Message"*, %"class.mojo::MessageReceiver"*)*, i1 (%"class.mojo::MessageReceiverWithResponder"*, %"class.mojo::Message"*, %"class.mojo::MessageReceiver"*)** %24, i64 4
  %26 = load i1 (%"class.mojo::MessageReceiverWithResponder"*, %"class.mojo::Message"*, %"class.mojo::MessageReceiver"*)*, i1 (%"class.mojo::MessageReceiverWithResponder"*, %"class.mojo::Message"*, %"class.mojo::MessageReceiver"*)** %25, align 8
  %27 = call zeroext i1 %26(%"class.mojo::MessageReceiverWithResponder"* %22, %"class.mojo::Message"* nonnull %3, %"class.mojo::MessageReceiver"* nonnull %20) #11
  %28 = load i8, i8* %4, align 1, !range !4
  %29 = icmp ne i8 %28, 0
  call void @llvm.lifetime.end.p0i8(i64 1, i8* nonnull %4) #11
  call void @_ZN4mojo7MessageD1Ev(%"class.mojo::Message"* nonnull %3) #11
  call void @llvm.lifetime.end.p0i8(i64 120, i8* nonnull %5) #11
  ret i1 %29
}

; Function Attrs: nounwind ssp uwtable
define hidden void @_ZN7network5mojom5blink23NetworkServiceTestProxy32MockCertVerifierSetDefaultResultEiN4base12OnceCallbackIFvvEEE(%"class.network::mojom::blink::NetworkServiceTestProxy"* nocapture readonly, i32, %"class.base::OnceCallback"* nocapture) unnamed_addr #0 align 2 {
  %4 = alloca %"class.mojo::Message", align 8
  %5 = alloca %"class.base::OnceCallback", align 8
  %6 = bitcast %"class.mojo::Message"* %4 to i8*
  call void @llvm.lifetime.start.p0i8(i64 120, i8* nonnull %6) #11
  call void @llvm.memset.p0i8.i64(i8* nonnull align 8 %6, i8 -86, i64 120, i1 false)
  call void @_ZN4mojo7MessageC1EjjmmPNSt3__16vectorINS_16ScopedHandleBaseINS_6HandleEEENS1_9allocatorIS5_EEEE(%"class.mojo::Message"* nonnull %4, i32 343609816, i32 1, i64 0, i64 0, %"class.std::__1::vector"* null) #11
  %7 = getelementptr inbounds %"class.mojo::Message", %"class.mojo::Message"* %4, i64 0, i32 1
  %8 = call i64 @_ZN4mojo8internal6Buffer8AllocateEm(%"class.mojo::internal::Buffer"* %7, i64 16) #11
  %9 = getelementptr inbounds %"class.mojo::Message", %"class.mojo::Message"* %4, i64 0, i32 1, i32 2
  %10 = load i8*, i8** %9, align 8
  %11 = getelementptr inbounds i8, i8* %10, i64 %8
  %12 = bitcast i8* %11 to %"class.network::mojom::internal::NetworkServiceTest_MockCertVerifierSetDefaultResult_Params_Data"*
  call void @_ZN7network5mojom8internal63NetworkServiceTest_MockCertVerifierSetDefaultResult_Params_DataC1Ev(%"class.network::mojom::internal::NetworkServiceTest_MockCertVerifierSetDefaultResult_Params_Data"* %12) #11
  %13 = load i8*, i8** %9, align 8
  %14 = getelementptr inbounds i8, i8* %13, i64 %8
  %15 = getelementptr inbounds i8, i8* %14, i64 8
  %16 = bitcast i8* %15 to i32*
  store i32 %1, i32* %16, align 4
  %17 = call i8* @_Znwm(i64 16) #12
  %18 = getelementptr inbounds %"class.base::OnceCallback", %"class.base::OnceCallback"* %2, i64 0, i32 0, i32 0, i32 0
  %19 = bitcast %"class.base::OnceCallback"* %2 to i64*
  %20 = load i64, i64* %19, align 8
  store %"class.base::internal::BindStateBase"* null, %"class.base::internal::BindStateBase"** %18, align 8
  %21 = bitcast i8* %17 to i32 (...)***
  store i32 (...)** bitcast (i8** getelementptr inbounds ({ [6 x i8*] }, { [6 x i8*] }* @_ZTVN7network5mojom5blink69NetworkServiceTest_MockCertVerifierSetDefaultResult_ForwardToCallbackE, i64 0, inrange i32 0, i64 2) to i32 (...)**), i32 (...)*** %21, align 8
  %22 = getelementptr inbounds i8, i8* %17, i64 8
  %23 = getelementptr inbounds %"class.base::OnceCallback", %"class.base::OnceCallback"* %5, i64 0, i32 0, i32 0, i32 0
  %24 = bitcast i8* %22 to i64*
  store i64 %20, i64* %24, align 8
  store %"class.base::internal::BindStateBase"* null, %"class.base::internal::BindStateBase"** %23, align 8
  %25 = bitcast i8* %17 to %"class.mojo::MessageReceiver"*
  %26 = getelementptr inbounds %"class.base::OnceCallback", %"class.base::OnceCallback"* %5, i64 0, i32 0
  call void @_ZN4base8internal12CallbackBaseD2Ev(%"class.base::internal::CallbackBase"* nonnull %26) #11
  %27 = getelementptr inbounds %"class.network::mojom::blink::NetworkServiceTestProxy", %"class.network::mojom::blink::NetworkServiceTestProxy"* %0, i64 0, i32 1
  %28 = load %"class.mojo::MessageReceiverWithResponder"*, %"class.mojo::MessageReceiverWithResponder"** %27, align 8
  %29 = bitcast %"class.mojo::MessageReceiverWithResponder"* %28 to i1 (%"class.mojo::MessageReceiverWithResponder"*, %"class.mojo::Message"*, %"class.mojo::MessageReceiver"*)***
  %30 = load i1 (%"class.mojo::MessageReceiverWithResponder"*, %"class.mojo::Message"*, %"class.mojo::MessageReceiver"*)**, i1 (%"class.mojo::MessageReceiverWithResponder"*, %"class.mojo::Message"*, %"class.mojo::MessageReceiver"*)*** %29, align 8
  %31 = getelementptr inbounds i1 (%"class.mojo::MessageReceiverWithResponder"*, %"class.mojo::Message"*, %"class.mojo::MessageReceiver"*)*, i1 (%"class.mojo::MessageReceiverWithResponder"*, %"class.mojo::Message"*, %"class.mojo::MessageReceiver"*)** %30, i64 4
  %32 = load i1 (%"class.mojo::MessageReceiverWithResponder"*, %"class.mojo::Message"*, %"class.mojo::MessageReceiver"*)*, i1 (%"class.mojo::MessageReceiverWithResponder"*, %"class.mojo::Message"*, %"class.mojo::MessageReceiver"*)** %31, align 8
  %33 = call zeroext i1 %32(%"class.mojo::MessageReceiverWithResponder"* %28, %"class.mojo::Message"* nonnull %4, %"class.mojo::MessageReceiver"* nonnull %25) #11
  call void @_ZN4mojo7MessageD1Ev(%"class.mojo::Message"* nonnull %4) #11
  call void @llvm.lifetime.end.p0i8(i64 120, i8* nonnull %6) #11
  ret void
}

; Function Attrs: nounwind ssp uwtable
define hidden zeroext i1 @_ZN7network5mojom5blink23NetworkServiceTestProxy39MockCertVerifierAddResultForCertAndHostEN4mojo9StructPtrINS3_6native12NativeStructEEERKN3WTF6StringES7_i(%"class.network::mojom::blink::NetworkServiceTestProxy"* nocapture readonly, %"class.mojo::StructPtr.39"*, %"class.WTF::String"* dereferenceable(8), %"class.mojo::StructPtr.39"*, i32) unnamed_addr #0 align 2 {
  %6 = alloca %"class.WTF::StringUTF8Adaptor", align 8
  %7 = alloca %"class.mojo::Message", align 8
  %8 = alloca %"class.mojo::internal::MessageFragment.90", align 8
  %9 = alloca %"class.mojo::internal::MessageFragment.90", align 8
  %10 = alloca i8, align 1
  %11 = bitcast %"class.mojo::Message"* %7 to i8*
  call void @llvm.lifetime.start.p0i8(i64 120, i8* nonnull %11) #11
  call void @llvm.memset.p0i8.i64(i8* nonnull align 8 %11, i8 -86, i64 120, i1 false)
  call void @_ZN4mojo7MessageC1EjjmmPNSt3__16vectorINS_16ScopedHandleBaseINS_6HandleEEENS1_9allocatorIS5_EEEE(%"class.mojo::Message"* nonnull %7, i32 278364737, i32 5, i64 0, i64 0, %"class.std::__1::vector"* null) #11
  %12 = getelementptr inbounds %"class.mojo::Message", %"class.mojo::Message"* %7, i64 0, i32 1
  %13 = call i64 @_ZN4mojo8internal6Buffer8AllocateEm(%"class.mojo::internal::Buffer"* %12, i64 40) #11
  %14 = getelementptr inbounds %"class.mojo::Message", %"class.mojo::Message"* %7, i64 0, i32 1, i32 2
  %15 = load i8*, i8** %14, align 8
  %16 = getelementptr inbounds i8, i8* %15, i64 %13
  %17 = bitcast i8* %16 to %"class.network::mojom::internal::NetworkServiceTest_MockCertVerifierAddResultForCertAndHost_Params_Data"*
  call void @_ZN7network5mojom8internal70NetworkServiceTest_MockCertVerifierAddResultForCertAndHost_Params_DataC1Ev(%"class.network::mojom::internal::NetworkServiceTest_MockCertVerifierAddResultForCertAndHost_Params_Data"* %17) #11
  %18 = bitcast %"class.mojo::internal::MessageFragment.90"* %8 to i8*
  call void @llvm.lifetime.start.p0i8(i64 16, i8* nonnull %18) #11
  %19 = getelementptr inbounds %"class.mojo::internal::MessageFragment.90", %"class.mojo::internal::MessageFragment.90"* %8, i64 0, i32 0
  %20 = getelementptr inbounds %"class.mojo::internal::MessageFragment.90", %"class.mojo::internal::MessageFragment.90"* %8, i64 0, i32 1
  store %"class.mojo::Message"* %7, %"class.mojo::Message"** %19, align 8
  store i64 -1, i64* %20, align 8
  call void @_ZN4mojo8internal34UnmappedNativeStructSerializerImpl9SerializeERKNS_9StructPtrINS_6native12NativeStructEEERNS0_15MessageFragmentINS3_8internal17NativeStruct_DataEEE(%"class.mojo::StructPtr.39"* dereferenceable(8) %1, %"class.mojo::internal::MessageFragment.90"* nonnull dereferenceable(16) %8) #11
  %21 = load i8*, i8** %14, align 8
  %22 = getelementptr inbounds i8, i8* %21, i64 %13
  %23 = getelementptr inbounds i8, i8* %22, i64 8
  %24 = load i64, i64* %20, align 8
  %25 = icmp eq i64 %24, -1
  br i1 %25, label %32, label %26

26:                                               ; preds = %5
  %27 = load %"class.mojo::Message"*, %"class.mojo::Message"** %19, align 8
  %28 = getelementptr inbounds %"class.mojo::Message", %"class.mojo::Message"* %27, i64 0, i32 1, i32 2
  %29 = load i8*, i8** %28, align 8
  %30 = getelementptr inbounds i8, i8* %29, i64 %24
  %31 = bitcast i8* %30 to %"class.mojo::native::internal::NativeStruct_Data"*
  br label %32

32:                                               ; preds = %5, %26
  %33 = phi %"class.mojo::native::internal::NativeStruct_Data"* [ %31, %26 ], [ null, %5 ]
  %34 = bitcast i8* %23 to i64*
  %35 = icmp eq %"class.mojo::native::internal::NativeStruct_Data"* %33, null
  %36 = ptrtoint %"class.mojo::native::internal::NativeStruct_Data"* %33 to i64
  %37 = ptrtoint i8* %23 to i64
  %38 = sub i64 %36, %37
  %39 = select i1 %35, i64 0, i64 %38
  store i64 %39, i64* %34, align 8
  %40 = getelementptr inbounds %"class.WTF::String", %"class.WTF::String"* %2, i64 0, i32 0, i32 0
  %41 = load %"class.WTF::StringImpl"*, %"class.WTF::StringImpl"** %40, align 8
  %42 = icmp eq %"class.WTF::StringImpl"* %41, null
  br i1 %42, label %43, label %48

43:                                               ; preds = %32
  %44 = load i8*, i8** %14, align 8
  %45 = getelementptr inbounds i8, i8* %44, i64 %13
  %46 = getelementptr inbounds i8, i8* %45, i64 16
  %47 = bitcast i8* %46 to %"struct.mojo::internal::Pointer.92"*
  br label %80

48:                                               ; preds = %32
  %49 = bitcast %"class.WTF::StringUTF8Adaptor"* %6 to i8*
  call void @llvm.lifetime.start.p0i8(i64 40, i8* nonnull %49) #11
  call void @llvm.memset.p0i8.i64(i8* nonnull align 8 %49, i8 -86, i64 40, i1 false) #11
  call void @_ZN4mojo12StringTraitsIN3WTF6StringEE7GetUTF8ERKS2_(%"class.WTF::StringUTF8Adaptor"* nonnull sret %6, %"class.WTF::String"* dereferenceable(8) %2) #11
  %50 = getelementptr inbounds %"class.WTF::StringUTF8Adaptor", %"class.WTF::StringUTF8Adaptor"* %6, i64 0, i32 2
  %51 = load i32, i32* %50, align 8
  %52 = icmp ugt i32 %51, -9
  br i1 %52, label %63, label %53

53:                                               ; preds = %48
  %54 = add nuw i32 %51, 8
  %55 = zext i32 %54 to i64
  %56 = call i64 @_ZN4mojo8internal6Buffer8AllocateEm(%"class.mojo::internal::Buffer"* %12, i64 %55) #11
  %57 = load i8*, i8** %14, align 8
  %58 = getelementptr inbounds i8, i8* %57, i64 %56
  %59 = bitcast i8* %58 to i32*
  store i32 %54, i32* %59, align 1
  %60 = getelementptr inbounds i8, i8* %58, i64 4
  %61 = bitcast i8* %60 to i32*
  store i32 %51, i32* %61, align 1
  %62 = load i32, i32* %50, align 8
  br label %63

63:                                               ; preds = %48, %53
  %64 = phi i64 [ -1, %48 ], [ %56, %53 ]
  %65 = phi i32 [ %51, %48 ], [ %62, %53 ]
  %66 = load i8*, i8** %14, align 8
  %67 = getelementptr inbounds i8, i8* %66, i64 %64
  %68 = getelementptr inbounds i8, i8* %67, i64 8
  %69 = getelementptr inbounds %"class.WTF::StringUTF8Adaptor", %"class.WTF::StringUTF8Adaptor"* %6, i64 0, i32 1
  %70 = load i8*, i8** %69, align 8
  %71 = zext i32 %65 to i64
  call void @llvm.memcpy.p0i8.p0i8.i64(i8* align 1 %68, i8* align 1 %70, i64 %71, i1 false) #11
  call void @_ZN3WTF17StringUTF8AdaptorD1Ev(%"class.WTF::StringUTF8Adaptor"* nonnull %6) #11
  call void @llvm.lifetime.end.p0i8(i64 40, i8* nonnull %49) #11
  %72 = load i8*, i8** %14, align 8
  %73 = getelementptr inbounds i8, i8* %72, i64 %13
  %74 = getelementptr inbounds i8, i8* %73, i64 16
  %75 = bitcast i8* %74 to %"struct.mojo::internal::Pointer.92"*
  %76 = icmp eq i64 %64, -1
  br i1 %76, label %80, label %77

77:                                               ; preds = %63
  %78 = getelementptr inbounds i8, i8* %72, i64 %64
  %79 = bitcast i8* %78 to %"class.mojo::internal::Array_Data.96"*
  br label %80

80:                                               ; preds = %43, %63, %77
  %81 = phi %"struct.mojo::internal::Pointer.92"* [ %75, %77 ], [ %75, %63 ], [ %47, %43 ]
  %82 = phi %"class.mojo::internal::Array_Data.96"* [ %79, %77 ], [ null, %63 ], [ null, %43 ]
  %83 = getelementptr inbounds %"struct.mojo::internal::Pointer.92", %"struct.mojo::internal::Pointer.92"* %81, i64 0, i32 0
  %84 = icmp eq %"class.mojo::internal::Array_Data.96"* %82, null
  %85 = ptrtoint %"class.mojo::internal::Array_Data.96"* %82 to i64
  %86 = ptrtoint %"struct.mojo::internal::Pointer.92"* %81 to i64
  %87 = sub i64 %85, %86
  %88 = select i1 %84, i64 0, i64 %87
  store i64 %88, i64* %83, align 8
  %89 = bitcast %"class.mojo::internal::MessageFragment.90"* %9 to i8*
  call void @llvm.lifetime.start.p0i8(i64 16, i8* nonnull %89) #11
  %90 = getelementptr inbounds %"class.mojo::internal::MessageFragment.90", %"class.mojo::internal::MessageFragment.90"* %9, i64 0, i32 0
  %91 = getelementptr inbounds %"class.mojo::internal::MessageFragment.90", %"class.mojo::internal::MessageFragment.90"* %9, i64 0, i32 1
  store %"class.mojo::Message"* %7, %"class.mojo::Message"** %90, align 8
  store i64 -1, i64* %91, align 8
  call void @_ZN4mojo8internal34UnmappedNativeStructSerializerImpl9SerializeERKNS_9StructPtrINS_6native12NativeStructEEERNS0_15MessageFragmentINS3_8internal17NativeStruct_DataEEE(%"class.mojo::StructPtr.39"* dereferenceable(8) %3, %"class.mojo::internal::MessageFragment.90"* nonnull dereferenceable(16) %9) #11
  %92 = load i8*, i8** %14, align 8
  %93 = getelementptr inbounds i8, i8* %92, i64 %13
  %94 = getelementptr inbounds i8, i8* %93, i64 24
  %95 = load i64, i64* %91, align 8
  %96 = icmp eq i64 %95, -1
  br i1 %96, label %103, label %97

97:                                               ; preds = %80
  %98 = load %"class.mojo::Message"*, %"class.mojo::Message"** %90, align 8
  %99 = getelementptr inbounds %"class.mojo::Message", %"class.mojo::Message"* %98, i64 0, i32 1, i32 2
  %100 = load i8*, i8** %99, align 8
  %101 = getelementptr inbounds i8, i8* %100, i64 %95
  %102 = bitcast i8* %101 to %"class.mojo::native::internal::NativeStruct_Data"*
  br label %103

103:                                              ; preds = %97, %80
  %104 = phi %"class.mojo::native::internal::NativeStruct_Data"* [ %102, %97 ], [ null, %80 ]
  %105 = bitcast i8* %94 to i64*
  %106 = icmp eq %"class.mojo::native::internal::NativeStruct_Data"* %104, null
  %107 = ptrtoint %"class.mojo::native::internal::NativeStruct_Data"* %104 to i64
  %108 = ptrtoint i8* %94 to i64
  %109 = sub i64 %107, %108
  %110 = select i1 %106, i64 0, i64 %109
  store i64 %110, i64* %105, align 8
  %111 = load i8*, i8** %14, align 8
  %112 = getelementptr inbounds i8, i8* %111, i64 %13
  %113 = getelementptr inbounds i8, i8* %112, i64 32
  %114 = bitcast i8* %113 to i32*
  store i32 %4, i32* %114, align 4
  call void @llvm.lifetime.start.p0i8(i64 1, i8* nonnull %10) #11
  store i8 0, i8* %10, align 1
  %115 = call i8* @_Znwm(i64 16) #12
  %116 = bitcast i8* %115 to i32 (...)***
  store i32 (...)** bitcast (i8** getelementptr inbounds ({ [6 x i8*] }, { [6 x i8*] }* @_ZTVN7network5mojom5blink77NetworkServiceTest_MockCertVerifierAddResultForCertAndHost_HandleSyncResponseE, i64 0, inrange i32 0, i64 2) to i32 (...)**), i32 (...)*** %116, align 8
  %117 = getelementptr inbounds i8, i8* %115, i64 8
  %118 = bitcast i8* %117 to i8**
  store i8* %10, i8** %118, align 8
  %119 = bitcast i8* %115 to %"class.mojo::MessageReceiver"*
  %120 = getelementptr inbounds %"class.network::mojom::blink::NetworkServiceTestProxy", %"class.network::mojom::blink::NetworkServiceTestProxy"* %0, i64 0, i32 1
  %121 = load %"class.mojo::MessageReceiverWithResponder"*, %"class.mojo::MessageReceiverWithResponder"** %120, align 8
  %122 = bitcast %"class.mojo::MessageReceiverWithResponder"* %121 to i1 (%"class.mojo::MessageReceiverWithResponder"*, %"class.mojo::Message"*, %"class.mojo::MessageReceiver"*)***
  %123 = load i1 (%"class.mojo::MessageReceiverWithResponder"*, %"class.mojo::Message"*, %"class.mojo::MessageReceiver"*)**, i1 (%"class.mojo::MessageReceiverWithResponder"*, %"class.mojo::Message"*, %"class.mojo::MessageReceiver"*)*** %122, align 8
  %124 = getelementptr inbounds i1 (%"class.mojo::MessageReceiverWithResponder"*, %"class.mojo::Message"*, %"class.mojo::MessageReceiver"*)*, i1 (%"class.mojo::MessageReceiverWithResponder"*, %"class.mojo::Message"*, %"class.mojo::MessageReceiver"*)** %123, i64 4
  %125 = load i1 (%"class.mojo::MessageReceiverWithResponder"*, %"class.mojo::Message"*, %"class.mojo::MessageReceiver"*)*, i1 (%"class.mojo::MessageReceiverWithResponder"*, %"class.mojo::Message"*, %"class.mojo::MessageReceiver"*)** %124, align 8
  %126 = call zeroext i1 %125(%"class.mojo::MessageReceiverWithResponder"* %121, %"class.mojo::Message"* nonnull %7, %"class.mojo::MessageReceiver"* nonnull %119) #11
  %127 = load i8, i8* %10, align 1, !range !4
  %128 = icmp ne i8 %127, 0
  call void @llvm.lifetime.end.p0i8(i64 1, i8* nonnull %10) #11
  call void @llvm.lifetime.end.p0i8(i64 16, i8* nonnull %89) #11
  call void @llvm.lifetime.end.p0i8(i64 16, i8* nonnull %18) #11
  call void @_ZN4mojo7MessageD1Ev(%"class.mojo::Message"* nonnull %7) #11
  call void @llvm.lifetime.end.p0i8(i64 120, i8* nonnull %11) #11
  ret i1 %128
}

; Function Attrs: nounwind ssp uwtable
define hidden void @_ZN7network5mojom5blink23NetworkServiceTestProxy39MockCertVerifierAddResultForCertAndHostEN4mojo9StructPtrINS3_6native12NativeStructEEERKN3WTF6StringES7_iN4base12OnceCallbackIFvvEEE(%"class.network::mojom::blink::NetworkServiceTestProxy"* nocapture readonly, %"class.mojo::StructPtr.39"*, %"class.WTF::String"* dereferenceable(8), %"class.mojo::StructPtr.39"*, i32, %"class.base::OnceCallback"* nocapture) unnamed_addr #0 align 2 {
  %7 = alloca %"class.WTF::StringUTF8Adaptor", align 8
  %8 = alloca %"class.mojo::Message", align 8
  %9 = alloca %"class.mojo::internal::MessageFragment.90", align 8
  %10 = alloca %"class.mojo::internal::MessageFragment.90", align 8
  %11 = alloca %"class.base::OnceCallback", align 8
  %12 = bitcast %"class.mojo::Message"* %8 to i8*
  call void @llvm.lifetime.start.p0i8(i64 120, i8* nonnull %12) #11
  call void @llvm.memset.p0i8.i64(i8* nonnull align 8 %12, i8 -86, i64 120, i1 false)
  call void @_ZN4mojo7MessageC1EjjmmPNSt3__16vectorINS_16ScopedHandleBaseINS_6HandleEEENS1_9allocatorIS5_EEEE(%"class.mojo::Message"* nonnull %8, i32 278364737, i32 1, i64 0, i64 0, %"class.std::__1::vector"* null) #11
  %13 = getelementptr inbounds %"class.mojo::Message", %"class.mojo::Message"* %8, i64 0, i32 1
  %14 = call i64 @_ZN4mojo8internal6Buffer8AllocateEm(%"class.mojo::internal::Buffer"* %13, i64 40) #11
  %15 = getelementptr inbounds %"class.mojo::Message", %"class.mojo::Message"* %8, i64 0, i32 1, i32 2
  %16 = load i8*, i8** %15, align 8
  %17 = getelementptr inbounds i8, i8* %16, i64 %14
  %18 = bitcast i8* %17 to %"class.network::mojom::internal::NetworkServiceTest_MockCertVerifierAddResultForCertAndHost_Params_Data"*
  call void @_ZN7network5mojom8internal70NetworkServiceTest_MockCertVerifierAddResultForCertAndHost_Params_DataC1Ev(%"class.network::mojom::internal::NetworkServiceTest_MockCertVerifierAddResultForCertAndHost_Params_Data"* %18) #11
  %19 = bitcast %"class.mojo::internal::MessageFragment.90"* %9 to i8*
  call void @llvm.lifetime.start.p0i8(i64 16, i8* nonnull %19) #11
  %20 = getelementptr inbounds %"class.mojo::internal::MessageFragment.90", %"class.mojo::internal::MessageFragment.90"* %9, i64 0, i32 0
  %21 = getelementptr inbounds %"class.mojo::internal::MessageFragment.90", %"class.mojo::internal::MessageFragment.90"* %9, i64 0, i32 1
  store %"class.mojo::Message"* %8, %"class.mojo::Message"** %20, align 8
  store i64 -1, i64* %21, align 8
  call void @_ZN4mojo8internal34UnmappedNativeStructSerializerImpl9SerializeERKNS_9StructPtrINS_6native12NativeStructEEERNS0_15MessageFragmentINS3_8internal17NativeStruct_DataEEE(%"class.mojo::StructPtr.39"* dereferenceable(8) %1, %"class.mojo::internal::MessageFragment.90"* nonnull dereferenceable(16) %9) #11
  %22 = load i8*, i8** %15, align 8
  %23 = getelementptr inbounds i8, i8* %22, i64 %14
  %24 = getelementptr inbounds i8, i8* %23, i64 8
  %25 = load i64, i64* %21, align 8
  %26 = icmp eq i64 %25, -1
  br i1 %26, label %33, label %27

27:                                               ; preds = %6
  %28 = load %"class.mojo::Message"*, %"class.mojo::Message"** %20, align 8
  %29 = getelementptr inbounds %"class.mojo::Message", %"class.mojo::Message"* %28, i64 0, i32 1, i32 2
  %30 = load i8*, i8** %29, align 8
  %31 = getelementptr inbounds i8, i8* %30, i64 %25
  %32 = bitcast i8* %31 to %"class.mojo::native::internal::NativeStruct_Data"*
  br label %33

33:                                               ; preds = %6, %27
  %34 = phi %"class.mojo::native::internal::NativeStruct_Data"* [ %32, %27 ], [ null, %6 ]
  %35 = bitcast i8* %24 to i64*
  %36 = icmp eq %"class.mojo::native::internal::NativeStruct_Data"* %34, null
  %37 = ptrtoint %"class.mojo::native::internal::NativeStruct_Data"* %34 to i64
  %38 = ptrtoint i8* %24 to i64
  %39 = sub i64 %37, %38
  %40 = select i1 %36, i64 0, i64 %39
  store i64 %40, i64* %35, align 8
  %41 = getelementptr inbounds %"class.WTF::String", %"class.WTF::String"* %2, i64 0, i32 0, i32 0
  %42 = load %"class.WTF::StringImpl"*, %"class.WTF::StringImpl"** %41, align 8
  %43 = icmp eq %"class.WTF::StringImpl"* %42, null
  br i1 %43, label %44, label %49

44:                                               ; preds = %33
  %45 = load i8*, i8** %15, align 8
  %46 = getelementptr inbounds i8, i8* %45, i64 %14
  %47 = getelementptr inbounds i8, i8* %46, i64 16
  %48 = bitcast i8* %47 to %"struct.mojo::internal::Pointer.92"*
  br label %81

49:                                               ; preds = %33
  %50 = bitcast %"class.WTF::StringUTF8Adaptor"* %7 to i8*
  call void @llvm.lifetime.start.p0i8(i64 40, i8* nonnull %50) #11
  call void @llvm.memset.p0i8.i64(i8* nonnull align 8 %50, i8 -86, i64 40, i1 false) #11
  call void @_ZN4mojo12StringTraitsIN3WTF6StringEE7GetUTF8ERKS2_(%"class.WTF::StringUTF8Adaptor"* nonnull sret %7, %"class.WTF::String"* dereferenceable(8) %2) #11
  %51 = getelementptr inbounds %"class.WTF::StringUTF8Adaptor", %"class.WTF::StringUTF8Adaptor"* %7, i64 0, i32 2
  %52 = load i32, i32* %51, align 8
  %53 = icmp ugt i32 %52, -9
  br i1 %53, label %64, label %54

54:                                               ; preds = %49
  %55 = add nuw i32 %52, 8
  %56 = zext i32 %55 to i64
  %57 = call i64 @_ZN4mojo8internal6Buffer8AllocateEm(%"class.mojo::internal::Buffer"* %13, i64 %56) #11
  %58 = load i8*, i8** %15, align 8
  %59 = getelementptr inbounds i8, i8* %58, i64 %57
  %60 = bitcast i8* %59 to i32*
  store i32 %55, i32* %60, align 1
  %61 = getelementptr inbounds i8, i8* %59, i64 4
  %62 = bitcast i8* %61 to i32*
  store i32 %52, i32* %62, align 1
  %63 = load i32, i32* %51, align 8
  br label %64

64:                                               ; preds = %49, %54
  %65 = phi i64 [ -1, %49 ], [ %57, %54 ]
  %66 = phi i32 [ %52, %49 ], [ %63, %54 ]
  %67 = load i8*, i8** %15, align 8
  %68 = getelementptr inbounds i8, i8* %67, i64 %65
  %69 = getelementptr inbounds i8, i8* %68, i64 8
  %70 = getelementptr inbounds %"class.WTF::StringUTF8Adaptor", %"class.WTF::StringUTF8Adaptor"* %7, i64 0, i32 1
  %71 = load i8*, i8** %70, align 8
  %72 = zext i32 %66 to i64
  call void @llvm.memcpy.p0i8.p0i8.i64(i8* align 1 %69, i8* align 1 %71, i64 %72, i1 false) #11
  call void @_ZN3WTF17StringUTF8AdaptorD1Ev(%"class.WTF::StringUTF8Adaptor"* nonnull %7) #11
  call void @llvm.lifetime.end.p0i8(i64 40, i8* nonnull %50) #11
  %73 = load i8*, i8** %15, align 8
  %74 = getelementptr inbounds i8, i8* %73, i64 %14
  %75 = getelementptr inbounds i8, i8* %74, i64 16
  %76 = bitcast i8* %75 to %"struct.mojo::internal::Pointer.92"*
  %77 = icmp eq i64 %65, -1
  br i1 %77, label %81, label %78

78:                                               ; preds = %64
  %79 = getelementptr inbounds i8, i8* %73, i64 %65
  %80 = bitcast i8* %79 to %"class.mojo::internal::Array_Data.96"*
  br label %81

81:                                               ; preds = %44, %64, %78
  %82 = phi %"struct.mojo::internal::Pointer.92"* [ %76, %78 ], [ %76, %64 ], [ %48, %44 ]
  %83 = phi %"class.mojo::internal::Array_Data.96"* [ %80, %78 ], [ null, %64 ], [ null, %44 ]
  %84 = getelementptr inbounds %"struct.mojo::internal::Pointer.92", %"struct.mojo::internal::Pointer.92"* %82, i64 0, i32 0
  %85 = icmp eq %"class.mojo::internal::Array_Data.96"* %83, null
  %86 = ptrtoint %"class.mojo::internal::Array_Data.96"* %83 to i64
  %87 = ptrtoint %"struct.mojo::internal::Pointer.92"* %82 to i64
  %88 = sub i64 %86, %87
  %89 = select i1 %85, i64 0, i64 %88
  store i64 %89, i64* %84, align 8
  %90 = bitcast %"class.mojo::internal::MessageFragment.90"* %10 to i8*
  call void @llvm.lifetime.start.p0i8(i64 16, i8* nonnull %90) #11
  %91 = getelementptr inbounds %"class.mojo::internal::MessageFragment.90", %"class.mojo::internal::MessageFragment.90"* %10, i64 0, i32 0
  %92 = getelementptr inbounds %"class.mojo::internal::MessageFragment.90", %"class.mojo::internal::MessageFragment.90"* %10, i64 0, i32 1
  store %"class.mojo::Message"* %8, %"class.mojo::Message"** %91, align 8
  store i64 -1, i64* %92, align 8
  call void @_ZN4mojo8internal34UnmappedNativeStructSerializerImpl9SerializeERKNS_9StructPtrINS_6native12NativeStructEEERNS0_15MessageFragmentINS3_8internal17NativeStruct_DataEEE(%"class.mojo::StructPtr.39"* dereferenceable(8) %3, %"class.mojo::internal::MessageFragment.90"* nonnull dereferenceable(16) %10) #11
  %93 = load i8*, i8** %15, align 8
  %94 = getelementptr inbounds i8, i8* %93, i64 %14
  %95 = getelementptr inbounds i8, i8* %94, i64 24
  %96 = load i64, i64* %92, align 8
  %97 = icmp eq i64 %96, -1
  br i1 %97, label %104, label %98

98:                                               ; preds = %81
  %99 = load %"class.mojo::Message"*, %"class.mojo::Message"** %91, align 8
  %100 = getelementptr inbounds %"class.mojo::Message", %"class.mojo::Message"* %99, i64 0, i32 1, i32 2
  %101 = load i8*, i8** %100, align 8
  %102 = getelementptr inbounds i8, i8* %101, i64 %96
  %103 = bitcast i8* %102 to %"class.mojo::native::internal::NativeStruct_Data"*
  br label %104

104:                                              ; preds = %98, %81
  %105 = phi %"class.mojo::native::internal::NativeStruct_Data"* [ %103, %98 ], [ null, %81 ]
  %106 = bitcast i8* %95 to i64*
  %107 = icmp eq %"class.mojo::native::internal::NativeStruct_Data"* %105, null
  %108 = ptrtoint %"class.mojo::native::internal::NativeStruct_Data"* %105 to i64
  %109 = ptrtoint i8* %95 to i64
  %110 = sub i64 %108, %109
  %111 = select i1 %107, i64 0, i64 %110
  store i64 %111, i64* %106, align 8
  %112 = load i8*, i8** %15, align 8
  %113 = getelementptr inbounds i8, i8* %112, i64 %14
  %114 = getelementptr inbounds i8, i8* %113, i64 32
  %115 = bitcast i8* %114 to i32*
  store i32 %4, i32* %115, align 4
  %116 = call i8* @_Znwm(i64 16) #12
  %117 = getelementptr inbounds %"class.base::OnceCallback", %"class.base::OnceCallback"* %5, i64 0, i32 0, i32 0, i32 0
  %118 = bitcast %"class.base::OnceCallback"* %5 to i64*
  %119 = load i64, i64* %118, align 8
  store %"class.base::internal::BindStateBase"* null, %"class.base::internal::BindStateBase"** %117, align 8
  %120 = bitcast i8* %116 to i32 (...)***
  store i32 (...)** bitcast (i8** getelementptr inbounds ({ [6 x i8*] }, { [6 x i8*] }* @_ZTVN7network5mojom5blink76NetworkServiceTest_MockCertVerifierAddResultForCertAndHost_ForwardToCallbackE, i64 0, inrange i32 0, i64 2) to i32 (...)**), i32 (...)*** %120, align 8
  %121 = getelementptr inbounds i8, i8* %116, i64 8
  %122 = getelementptr inbounds %"class.base::OnceCallback", %"class.base::OnceCallback"* %11, i64 0, i32 0, i32 0, i32 0
  %123 = bitcast i8* %121 to i64*
  store i64 %119, i64* %123, align 8
  store %"class.base::internal::BindStateBase"* null, %"class.base::internal::BindStateBase"** %122, align 8
  %124 = bitcast i8* %116 to %"class.mojo::MessageReceiver"*
  %125 = getelementptr inbounds %"class.base::OnceCallback", %"class.base::OnceCallback"* %11, i64 0, i32 0
  call void @_ZN4base8internal12CallbackBaseD2Ev(%"class.base::internal::CallbackBase"* nonnull %125) #11
  %126 = getelementptr inbounds %"class.network::mojom::blink::NetworkServiceTestProxy", %"class.network::mojom::blink::NetworkServiceTestProxy"* %0, i64 0, i32 1
  %127 = load %"class.mojo::MessageReceiverWithResponder"*, %"class.mojo::MessageReceiverWithResponder"** %126, align 8
  %128 = bitcast %"class.mojo::MessageReceiverWithResponder"* %127 to i1 (%"class.mojo::MessageReceiverWithResponder"*, %"class.mojo::Message"*, %"class.mojo::MessageReceiver"*)***
  %129 = load i1 (%"class.mojo::MessageReceiverWithResponder"*, %"class.mojo::Message"*, %"class.mojo::MessageReceiver"*)**, i1 (%"class.mojo::MessageReceiverWithResponder"*, %"class.mojo::Message"*, %"class.mojo::MessageReceiver"*)*** %128, align 8
  %130 = getelementptr inbounds i1 (%"class.mojo::MessageReceiverWithResponder"*, %"class.mojo::Message"*, %"class.mojo::MessageReceiver"*)*, i1 (%"class.mojo::MessageReceiverWithResponder"*, %"class.mojo::Message"*, %"class.mojo::MessageReceiver"*)** %129, i64 4
  %131 = load i1 (%"class.mojo::MessageReceiverWithResponder"*, %"class.mojo::Message"*, %"class.mojo::MessageReceiver"*)*, i1 (%"class.mojo::MessageReceiverWithResponder"*, %"class.mojo::Message"*, %"class.mojo::MessageReceiver"*)** %130, align 8
  %132 = call zeroext i1 %131(%"class.mojo::MessageReceiverWithResponder"* %127, %"class.mojo::Message"* nonnull %8, %"class.mojo::MessageReceiver"* nonnull %124) #11
  call void @llvm.lifetime.end.p0i8(i64 16, i8* nonnull %90) #11
  call void @llvm.lifetime.end.p0i8(i64 16, i8* nonnull %19) #11
  call void @_ZN4mojo7MessageD1Ev(%"class.mojo::Message"* nonnull %8) #11
  call void @llvm.lifetime.end.p0i8(i64 120, i8* nonnull %12) #11
  ret void
}

; Function Attrs: nounwind ssp uwtable
define hidden zeroext i1 @_ZN7network5mojom5blink23NetworkServiceTestProxy12SetRequireCTENS0_28NetworkServiceTest_RequireCTE(%"class.network::mojom::blink::NetworkServiceTestProxy"* nocapture readonly, i32) unnamed_addr #0 align 2 {
  %3 = alloca %"class.mojo::Message", align 8
  %4 = alloca i8, align 1
  %5 = bitcast %"class.mojo::Message"* %3 to i8*
  call void @llvm.lifetime.start.p0i8(i64 120, i8* nonnull %5) #11
  call void @llvm.memset.p0i8.i64(i8* nonnull align 8 %5, i8 -86, i64 120, i1 false)
  call void @_ZN4mojo7MessageC1EjjmmPNSt3__16vectorINS_16ScopedHandleBaseINS_6HandleEEENS1_9allocatorIS5_EEEE(%"class.mojo::Message"* nonnull %3, i32 401814863, i32 5, i64 0, i64 0, %"class.std::__1::vector"* null) #11
  %6 = getelementptr inbounds %"class.mojo::Message", %"class.mojo::Message"* %3, i64 0, i32 1
  %7 = call i64 @_ZN4mojo8internal6Buffer8AllocateEm(%"class.mojo::internal::Buffer"* %6, i64 16) #11
  %8 = getelementptr inbounds %"class.mojo::Message", %"class.mojo::Message"* %3, i64 0, i32 1, i32 2
  %9 = load i8*, i8** %8, align 8
  %10 = getelementptr inbounds i8, i8* %9, i64 %7
  %11 = bitcast i8* %10 to %"class.network::mojom::internal::NetworkServiceTest_SetRequireCT_Params_Data"*
  call void @_ZN7network5mojom8internal43NetworkServiceTest_SetRequireCT_Params_DataC1Ev(%"class.network::mojom::internal::NetworkServiceTest_SetRequireCT_Params_Data"* %11) #11
  %12 = load i8*, i8** %8, align 8
  %13 = getelementptr inbounds i8, i8* %12, i64 %7
  %14 = getelementptr inbounds i8, i8* %13, i64 8
  %15 = bitcast i8* %14 to i32*
  store i32 %1, i32* %15, align 4
  call void @llvm.lifetime.start.p0i8(i64 1, i8* nonnull %4) #11
  store i8 0, i8* %4, align 1
  %16 = call i8* @_Znwm(i64 16) #12
  %17 = bitcast i8* %16 to i32 (...)***
  store i32 (...)** bitcast (i8** getelementptr inbounds ({ [6 x i8*] }, { [6 x i8*] }* @_ZTVN7network5mojom5blink50NetworkServiceTest_SetRequireCT_HandleSyncResponseE, i64 0, inrange i32 0, i64 2) to i32 (...)**), i32 (...)*** %17, align 8
  %18 = getelementptr inbounds i8, i8* %16, i64 8
  %19 = bitcast i8* %18 to i8**
  store i8* %4, i8** %19, align 8
  %20 = bitcast i8* %16 to %"class.mojo::MessageReceiver"*
  %21 = getelementptr inbounds %"class.network::mojom::blink::NetworkServiceTestProxy", %"class.network::mojom::blink::NetworkServiceTestProxy"* %0, i64 0, i32 1
  %22 = load %"class.mojo::MessageReceiverWithResponder"*, %"class.mojo::MessageReceiverWithResponder"** %21, align 8
  %23 = bitcast %"class.mojo::MessageReceiverWithResponder"* %22 to i1 (%"class.mojo::MessageReceiverWithResponder"*, %"class.mojo::Message"*, %"class.mojo::MessageReceiver"*)***
  %24 = load i1 (%"class.mojo::MessageReceiverWithResponder"*, %"class.mojo::Message"*, %"class.mojo::MessageReceiver"*)**, i1 (%"class.mojo::MessageReceiverWithResponder"*, %"class.mojo::Message"*, %"class.mojo::MessageReceiver"*)*** %23, align 8
  %25 = getelementptr inbounds i1 (%"class.mojo::MessageReceiverWithResponder"*, %"class.mojo::Message"*, %"class.mojo::MessageReceiver"*)*, i1 (%"class.mojo::MessageReceiverWithResponder"*, %"class.mojo::Message"*, %"class.mojo::MessageReceiver"*)** %24, i64 4
  %26 = load i1 (%"class.mojo::MessageReceiverWithResponder"*, %"class.mojo::Message"*, %"class.mojo::MessageReceiver"*)*, i1 (%"class.mojo::MessageReceiverWithResponder"*, %"class.mojo::Message"*, %"class.mojo::MessageReceiver"*)** %25, align 8
  %27 = call zeroext i1 %26(%"class.mojo::MessageReceiverWithResponder"* %22, %"class.mojo::Message"* nonnull %3, %"class.mojo::MessageReceiver"* nonnull %20) #11
  %28 = load i8, i8* %4, align 1, !range !4
  %29 = icmp ne i8 %28, 0
  call void @llvm.lifetime.end.p0i8(i64 1, i8* nonnull %4) #11
  call void @_ZN4mojo7MessageD1Ev(%"class.mojo::Message"* nonnull %3) #11
  call void @llvm.lifetime.end.p0i8(i64 120, i8* nonnull %5) #11
  ret i1 %29
}

; Function Attrs: nounwind ssp uwtable
define hidden void @_ZN7network5mojom5blink23NetworkServiceTestProxy12SetRequireCTENS0_28NetworkServiceTest_RequireCTEN4base12OnceCallbackIFvvEEE(%"class.network::mojom::blink::NetworkServiceTestProxy"* nocapture readonly, i32, %"class.base::OnceCallback"* nocapture) unnamed_addr #0 align 2 {
  %4 = alloca %"class.mojo::Message", align 8
  %5 = alloca %"class.base::OnceCallback", align 8
  %6 = bitcast %"class.mojo::Message"* %4 to i8*
  call void @llvm.lifetime.start.p0i8(i64 120, i8* nonnull %6) #11
  call void @llvm.memset.p0i8.i64(i8* nonnull align 8 %6, i8 -86, i64 120, i1 false)
  call void @_ZN4mojo7MessageC1EjjmmPNSt3__16vectorINS_16ScopedHandleBaseINS_6HandleEEENS1_9allocatorIS5_EEEE(%"class.mojo::Message"* nonnull %4, i32 401814863, i32 1, i64 0, i64 0, %"class.std::__1::vector"* null) #11
  %7 = getelementptr inbounds %"class.mojo::Message", %"class.mojo::Message"* %4, i64 0, i32 1
  %8 = call i64 @_ZN4mojo8internal6Buffer8AllocateEm(%"class.mojo::internal::Buffer"* %7, i64 16) #11
  %9 = getelementptr inbounds %"class.mojo::Message", %"class.mojo::Message"* %4, i64 0, i32 1, i32 2
  %10 = load i8*, i8** %9, align 8
  %11 = getelementptr inbounds i8, i8* %10, i64 %8
  %12 = bitcast i8* %11 to %"class.network::mojom::internal::NetworkServiceTest_SetRequireCT_Params_Data"*
  call void @_ZN7network5mojom8internal43NetworkServiceTest_SetRequireCT_Params_DataC1Ev(%"class.network::mojom::internal::NetworkServiceTest_SetRequireCT_Params_Data"* %12) #11
  %13 = load i8*, i8** %9, align 8
  %14 = getelementptr inbounds i8, i8* %13, i64 %8
  %15 = getelementptr inbounds i8, i8* %14, i64 8
  %16 = bitcast i8* %15 to i32*
  store i32 %1, i32* %16, align 4
  %17 = call i8* @_Znwm(i64 16) #12
  %18 = getelementptr inbounds %"class.base::OnceCallback", %"class.base::OnceCallback"* %2, i64 0, i32 0, i32 0, i32 0
  %19 = bitcast %"class.base::OnceCallback"* %2 to i64*
  %20 = load i64, i64* %19, align 8
  store %"class.base::internal::BindStateBase"* null, %"class.base::internal::BindStateBase"** %18, align 8
  %21 = bitcast i8* %17 to i32 (...)***
  store i32 (...)** bitcast (i8** getelementptr inbounds ({ [6 x i8*] }, { [6 x i8*] }* @_ZTVN7network5mojom5blink49NetworkServiceTest_SetRequireCT_ForwardToCallbackE, i64 0, inrange i32 0, i64 2) to i32 (...)**), i32 (...)*** %21, align 8
  %22 = getelementptr inbounds i8, i8* %17, i64 8
  %23 = getelementptr inbounds %"class.base::OnceCallback", %"class.base::OnceCallback"* %5, i64 0, i32 0, i32 0, i32 0
  %24 = bitcast i8* %22 to i64*
  store i64 %20, i64* %24, align 8
  store %"class.base::internal::BindStateBase"* null, %"class.base::internal::BindStateBase"** %23, align 8
  %25 = bitcast i8* %17 to %"class.mojo::MessageReceiver"*
  %26 = getelementptr inbounds %"class.base::OnceCallback", %"class.base::OnceCallback"* %5, i64 0, i32 0
  call void @_ZN4base8internal12CallbackBaseD2Ev(%"class.base::internal::CallbackBase"* nonnull %26) #11
  %27 = getelementptr inbounds %"class.network::mojom::blink::NetworkServiceTestProxy", %"class.network::mojom::blink::NetworkServiceTestProxy"* %0, i64 0, i32 1
  %28 = load %"class.mojo::MessageReceiverWithResponder"*, %"class.mojo::MessageReceiverWithResponder"** %27, align 8
  %29 = bitcast %"class.mojo::MessageReceiverWithResponder"* %28 to i1 (%"class.mojo::MessageReceiverWithResponder"*, %"class.mojo::Message"*, %"class.mojo::MessageReceiver"*)***
  %30 = load i1 (%"class.mojo::MessageReceiverWithResponder"*, %"class.mojo::Message"*, %"class.mojo::MessageReceiver"*)**, i1 (%"class.mojo::MessageReceiverWithResponder"*, %"class.mojo::Message"*, %"class.mojo::MessageReceiver"*)*** %29, align 8
  %31 = getelementptr inbounds i1 (%"class.mojo::MessageReceiverWithResponder"*, %"class.mojo::Message"*, %"class.mojo::MessageReceiver"*)*, i1 (%"class.mojo::MessageReceiverWithResponder"*, %"class.mojo::Message"*, %"class.mojo::MessageReceiver"*)** %30, i64 4
  %32 = load i1 (%"class.mojo::MessageReceiverWithResponder"*, %"class.mojo::Message"*, %"class.mojo::MessageReceiver"*)*, i1 (%"class.mojo::MessageReceiverWithResponder"*, %"class.mojo::Message"*, %"class.mojo::MessageReceiver"*)** %31, align 8
  %33 = call zeroext i1 %32(%"class.mojo::MessageReceiverWithResponder"* %28, %"class.mojo::Message"* nonnull %4, %"class.mojo::MessageReceiver"* nonnull %25) #11
  call void @_ZN4mojo7MessageD1Ev(%"class.mojo::Message"* nonnull %4) #11
  call void @llvm.lifetime.end.p0i8(i64 120, i8* nonnull %6) #11
  ret void
}

; Function Attrs: nounwind ssp uwtable
define hidden zeroext i1 @_ZN7network5mojom5blink23NetworkServiceTestProxy31SetTransportSecurityStateSourceEt(%"class.network::mojom::blink::NetworkServiceTestProxy"* nocapture readonly, i16 zeroext) unnamed_addr #0 align 2 {
  %3 = alloca %"class.mojo::Message", align 8
  %4 = alloca i8, align 1
  %5 = bitcast %"class.mojo::Message"* %3 to i8*
  call void @llvm.lifetime.start.p0i8(i64 120, i8* nonnull %5) #11
  call void @llvm.memset.p0i8.i64(i8* nonnull align 8 %5, i8 -86, i64 120, i1 false)
  call void @_ZN4mojo7MessageC1EjjmmPNSt3__16vectorINS_16ScopedHandleBaseINS_6HandleEEENS1_9allocatorIS5_EEEE(%"class.mojo::Message"* nonnull %3, i32 1633370188, i32 5, i64 0, i64 0, %"class.std::__1::vector"* null) #11
  %6 = getelementptr inbounds %"class.mojo::Message", %"class.mojo::Message"* %3, i64 0, i32 1
  %7 = call i64 @_ZN4mojo8internal6Buffer8AllocateEm(%"class.mojo::internal::Buffer"* %6, i64 16) #11
  %8 = getelementptr inbounds %"class.mojo::Message", %"class.mojo::Message"* %3, i64 0, i32 1, i32 2
  %9 = load i8*, i8** %8, align 8
  %10 = getelementptr inbounds i8, i8* %9, i64 %7
  %11 = bitcast i8* %10 to %"class.network::mojom::internal::NetworkServiceTest_SetTransportSecurityStateSource_Params_Data"*
  call void @_ZN7network5mojom8internal62NetworkServiceTest_SetTransportSecurityStateSource_Params_DataC1Ev(%"class.network::mojom::internal::NetworkServiceTest_SetTransportSecurityStateSource_Params_Data"* %11) #11
  %12 = load i8*, i8** %8, align 8
  %13 = getelementptr inbounds i8, i8* %12, i64 %7
  %14 = getelementptr inbounds i8, i8* %13, i64 8
  %15 = bitcast i8* %14 to i16*
  store i16 %1, i16* %15, align 2
  call void @llvm.lifetime.start.p0i8(i64 1, i8* nonnull %4) #11
  store i8 0, i8* %4, align 1
  %16 = call i8* @_Znwm(i64 16) #12
  %17 = bitcast i8* %16 to i32 (...)***
  store i32 (...)** bitcast (i8** getelementptr inbounds ({ [6 x i8*] }, { [6 x i8*] }* @_ZTVN7network5mojom5blink69NetworkServiceTest_SetTransportSecurityStateSource_HandleSyncResponseE, i64 0, inrange i32 0, i64 2) to i32 (...)**), i32 (...)*** %17, align 8
  %18 = getelementptr inbounds i8, i8* %16, i64 8
  %19 = bitcast i8* %18 to i8**
  store i8* %4, i8** %19, align 8
  %20 = bitcast i8* %16 to %"class.mojo::MessageReceiver"*
  %21 = getelementptr inbounds %"class.network::mojom::blink::NetworkServiceTestProxy", %"class.network::mojom::blink::NetworkServiceTestProxy"* %0, i64 0, i32 1
  %22 = load %"class.mojo::MessageReceiverWithResponder"*, %"class.mojo::MessageReceiverWithResponder"** %21, align 8
  %23 = bitcast %"class.mojo::MessageReceiverWithResponder"* %22 to i1 (%"class.mojo::MessageReceiverWithResponder"*, %"class.mojo::Message"*, %"class.mojo::MessageReceiver"*)***
  %24 = load i1 (%"class.mojo::MessageReceiverWithResponder"*, %"class.mojo::Message"*, %"class.mojo::MessageReceiver"*)**, i1 (%"class.mojo::MessageReceiverWithResponder"*, %"class.mojo::Message"*, %"class.mojo::MessageReceiver"*)*** %23, align 8
  %25 = getelementptr inbounds i1 (%"class.mojo::MessageReceiverWithResponder"*, %"class.mojo::Message"*, %"class.mojo::MessageReceiver"*)*, i1 (%"class.mojo::MessageReceiverWithResponder"*, %"class.mojo::Message"*, %"class.mojo::MessageReceiver"*)** %24, i64 4
  %26 = load i1 (%"class.mojo::MessageReceiverWithResponder"*, %"class.mojo::Message"*, %"class.mojo::MessageReceiver"*)*, i1 (%"class.mojo::MessageReceiverWithResponder"*, %"class.mojo::Message"*, %"class.mojo::MessageReceiver"*)** %25, align 8
  %27 = call zeroext i1 %26(%"class.mojo::MessageReceiverWithResponder"* %22, %"class.mojo::Message"* nonnull %3, %"class.mojo::MessageReceiver"* nonnull %20) #11
  %28 = load i8, i8* %4, align 1, !range !4
  %29 = icmp ne i8 %28, 0
  call void @llvm.lifetime.end.p0i8(i64 1, i8* nonnull %4) #11
  call void @_ZN4mojo7MessageD1Ev(%"class.mojo::Message"* nonnull %3) #11
  call void @llvm.lifetime.end.p0i8(i64 120, i8* nonnull %5) #11
  ret i1 %29
}

; Function Attrs: nounwind ssp uwtable
define hidden void @_ZN7network5mojom5blink23NetworkServiceTestProxy31SetTransportSecurityStateSourceEtN4base12OnceCallbackIFvvEEE(%"class.network::mojom::blink::NetworkServiceTestProxy"* nocapture readonly, i16 zeroext, %"class.base::OnceCallback"* nocapture) unnamed_addr #0 align 2 {
  %4 = alloca %"class.mojo::Message", align 8
  %5 = alloca %"class.base::OnceCallback", align 8
  %6 = bitcast %"class.mojo::Message"* %4 to i8*
  call void @llvm.lifetime.start.p0i8(i64 120, i8* nonnull %6) #11
  call void @llvm.memset.p0i8.i64(i8* nonnull align 8 %6, i8 -86, i64 120, i1 false)
  call void @_ZN4mojo7MessageC1EjjmmPNSt3__16vectorINS_16ScopedHandleBaseINS_6HandleEEENS1_9allocatorIS5_EEEE(%"class.mojo::Message"* nonnull %4, i32 1633370188, i32 1, i64 0, i64 0, %"class.std::__1::vector"* null) #11
  %7 = getelementptr inbounds %"class.mojo::Message", %"class.mojo::Message"* %4, i64 0, i32 1
  %8 = call i64 @_ZN4mojo8internal6Buffer8AllocateEm(%"class.mojo::internal::Buffer"* %7, i64 16) #11
  %9 = getelementptr inbounds %"class.mojo::Message", %"class.mojo::Message"* %4, i64 0, i32 1, i32 2
  %10 = load i8*, i8** %9, align 8
  %11 = getelementptr inbounds i8, i8* %10, i64 %8
  %12 = bitcast i8* %11 to %"class.network::mojom::internal::NetworkServiceTest_SetTransportSecurityStateSource_Params_Data"*
  call void @_ZN7network5mojom8internal62NetworkServiceTest_SetTransportSecurityStateSource_Params_DataC1Ev(%"class.network::mojom::internal::NetworkServiceTest_SetTransportSecurityStateSource_Params_Data"* %12) #11
  %13 = load i8*, i8** %9, align 8
  %14 = getelementptr inbounds i8, i8* %13, i64 %8
  %15 = getelementptr inbounds i8, i8* %14, i64 8
  %16 = bitcast i8* %15 to i16*
  store i16 %1, i16* %16, align 2
  %17 = call i8* @_Znwm(i64 16) #12
  %18 = getelementptr inbounds %"class.base::OnceCallback", %"class.base::OnceCallback"* %2, i64 0, i32 0, i32 0, i32 0
  %19 = bitcast %"class.base::OnceCallback"* %2 to i64*
  %20 = load i64, i64* %19, align 8
  store %"class.base::internal::BindStateBase"* null, %"class.base::internal::BindStateBase"** %18, align 8
  %21 = bitcast i8* %17 to i32 (...)***
  store i32 (...)** bitcast (i8** getelementptr inbounds ({ [6 x i8*] }, { [6 x i8*] }* @_ZTVN7network5mojom5blink68NetworkServiceTest_SetTransportSecurityStateSource_ForwardToCallbackE, i64 0, inrange i32 0, i64 2) to i32 (...)**), i32 (...)*** %21, align 8
  %22 = getelementptr inbounds i8, i8* %17, i64 8
  %23 = getelementptr inbounds %"class.base::OnceCallback", %"class.base::OnceCallback"* %5, i64 0, i32 0, i32 0, i32 0
  %24 = bitcast i8* %22 to i64*
  store i64 %20, i64* %24, align 8
  store %"class.base::internal::BindStateBase"* null, %"class.base::internal::BindStateBase"** %23, align 8
  %25 = bitcast i8* %17 to %"class.mojo::MessageReceiver"*
  %26 = getelementptr inbounds %"class.base::OnceCallback", %"class.base::OnceCallback"* %5, i64 0, i32 0
  call void @_ZN4base8internal12CallbackBaseD2Ev(%"class.base::internal::CallbackBase"* nonnull %26) #11
  %27 = getelementptr inbounds %"class.network::mojom::blink::NetworkServiceTestProxy", %"class.network::mojom::blink::NetworkServiceTestProxy"* %0, i64 0, i32 1
  %28 = load %"class.mojo::MessageReceiverWithResponder"*, %"class.mojo::MessageReceiverWithResponder"** %27, align 8
  %29 = bitcast %"class.mojo::MessageReceiverWithResponder"* %28 to i1 (%"class.mojo::MessageReceiverWithResponder"*, %"class.mojo::Message"*, %"class.mojo::MessageReceiver"*)***
  %30 = load i1 (%"class.mojo::MessageReceiverWithResponder"*, %"class.mojo::Message"*, %"class.mojo::MessageReceiver"*)**, i1 (%"class.mojo::MessageReceiverWithResponder"*, %"class.mojo::Message"*, %"class.mojo::MessageReceiver"*)*** %29, align 8
  %31 = getelementptr inbounds i1 (%"class.mojo::MessageReceiverWithResponder"*, %"class.mojo::Message"*, %"class.mojo::MessageReceiver"*)*, i1 (%"class.mojo::MessageReceiverWithResponder"*, %"class.mojo::Message"*, %"class.mojo::MessageReceiver"*)** %30, i64 4
  %32 = load i1 (%"class.mojo::MessageReceiverWithResponder"*, %"class.mojo::Message"*, %"class.mojo::MessageReceiver"*)*, i1 (%"class.mojo::MessageReceiverWithResponder"*, %"class.mojo::Message"*, %"class.mojo::MessageReceiver"*)** %31, align 8
  %33 = call zeroext i1 %32(%"class.mojo::MessageReceiverWithResponder"* %28, %"class.mojo::Message"* nonnull %4, %"class.mojo::MessageReceiver"* nonnull %25) #11
  call void @_ZN4mojo7MessageD1Ev(%"class.mojo::Message"* nonnull %4) #11
  call void @llvm.lifetime.end.p0i8(i64 120, i8* nonnull %6) #11
  ret void
}

; Function Attrs: nounwind ssp uwtable
define hidden zeroext i1 @_ZN7network5mojom5blink23NetworkServiceTestProxy38SetAllowNetworkAccessToHostResolutionsEv(%"class.network::mojom::blink::NetworkServiceTestProxy"* nocapture readonly) unnamed_addr #0 align 2 {
  %2 = alloca %"class.mojo::Message", align 8
  %3 = alloca i8, align 1
  %4 = bitcast %"class.mojo::Message"* %2 to i8*
  call void @llvm.lifetime.start.p0i8(i64 120, i8* nonnull %4) #11
  call void @llvm.memset.p0i8.i64(i8* nonnull align 8 %4, i8 -86, i64 120, i1 false)
  call void @_ZN4mojo7MessageC1EjjmmPNSt3__16vectorINS_16ScopedHandleBaseINS_6HandleEEENS1_9allocatorIS5_EEEE(%"class.mojo::Message"* nonnull %2, i32 348381728, i32 5, i64 0, i64 0, %"class.std::__1::vector"* null) #11
  %5 = getelementptr inbounds %"class.mojo::Message", %"class.mojo::Message"* %2, i64 0, i32 1
  %6 = call i64 @_ZN4mojo8internal6Buffer8AllocateEm(%"class.mojo::internal::Buffer"* %5, i64 8) #11
  %7 = getelementptr inbounds %"class.mojo::Message", %"class.mojo::Message"* %2, i64 0, i32 1, i32 2
  %8 = load i8*, i8** %7, align 8
  %9 = getelementptr inbounds i8, i8* %8, i64 %6
  %10 = bitcast i8* %9 to %"class.network::mojom::internal::NetworkServiceTest_SetAllowNetworkAccessToHostResolutions_Params_Data"*
  call void @_ZN7network5mojom8internal69NetworkServiceTest_SetAllowNetworkAccessToHostResolutions_Params_DataC1Ev(%"class.network::mojom::internal::NetworkServiceTest_SetAllowNetworkAccessToHostResolutions_Params_Data"* %10) #11
  call void @llvm.lifetime.start.p0i8(i64 1, i8* nonnull %3) #11
  store i8 0, i8* %3, align 1
  %11 = call i8* @_Znwm(i64 16) #12
  %12 = bitcast i8* %11 to i32 (...)***
  store i32 (...)** bitcast (i8** getelementptr inbounds ({ [6 x i8*] }, { [6 x i8*] }* @_ZTVN7network5mojom5blink76NetworkServiceTest_SetAllowNetworkAccessToHostResolutions_HandleSyncResponseE, i64 0, inrange i32 0, i64 2) to i32 (...)**), i32 (...)*** %12, align 8
  %13 = getelementptr inbounds i8, i8* %11, i64 8
  %14 = bitcast i8* %13 to i8**
  store i8* %3, i8** %14, align 8
  %15 = bitcast i8* %11 to %"class.mojo::MessageReceiver"*
  %16 = getelementptr inbounds %"class.network::mojom::blink::NetworkServiceTestProxy", %"class.network::mojom::blink::NetworkServiceTestProxy"* %0, i64 0, i32 1
  %17 = load %"class.mojo::MessageReceiverWithResponder"*, %"class.mojo::MessageReceiverWithResponder"** %16, align 8
  %18 = bitcast %"class.mojo::MessageReceiverWithResponder"* %17 to i1 (%"class.mojo::MessageReceiverWithResponder"*, %"class.mojo::Message"*, %"class.mojo::MessageReceiver"*)***
  %19 = load i1 (%"class.mojo::MessageReceiverWithResponder"*, %"class.mojo::Message"*, %"class.mojo::MessageReceiver"*)**, i1 (%"class.mojo::MessageReceiverWithResponder"*, %"class.mojo::Message"*, %"class.mojo::MessageReceiver"*)*** %18, align 8
  %20 = getelementptr inbounds i1 (%"class.mojo::MessageReceiverWithResponder"*, %"class.mojo::Message"*, %"class.mojo::MessageReceiver"*)*, i1 (%"class.mojo::MessageReceiverWithResponder"*, %"class.mojo::Message"*, %"class.mojo::MessageReceiver"*)** %19, i64 4
  %21 = load i1 (%"class.mojo::MessageReceiverWithResponder"*, %"class.mojo::Message"*, %"class.mojo::MessageReceiver"*)*, i1 (%"class.mojo::MessageReceiverWithResponder"*, %"class.mojo::Message"*, %"class.mojo::MessageReceiver"*)** %20, align 8
  %22 = call zeroext i1 %21(%"class.mojo::MessageReceiverWithResponder"* %17, %"class.mojo::Message"* nonnull %2, %"class.mojo::MessageReceiver"* nonnull %15) #11
  %23 = load i8, i8* %3, align 1, !range !4
  %24 = icmp ne i8 %23, 0
  call void @llvm.lifetime.end.p0i8(i64 1, i8* nonnull %3) #11
  call void @_ZN4mojo7MessageD1Ev(%"class.mojo::Message"* nonnull %2) #11
  call void @llvm.lifetime.end.p0i8(i64 120, i8* nonnull %4) #11
  ret i1 %24
}

; Function Attrs: nounwind ssp uwtable
define hidden void @_ZN7network5mojom5blink23NetworkServiceTestProxy38SetAllowNetworkAccessToHostResolutionsEN4base12OnceCallbackIFvvEEE(%"class.network::mojom::blink::NetworkServiceTestProxy"* nocapture readonly, %"class.base::OnceCallback"* nocapture) unnamed_addr #0 align 2 {
  %3 = alloca %"class.mojo::Message", align 8
  %4 = alloca %"class.base::OnceCallback", align 8
  %5 = bitcast %"class.mojo::Message"* %3 to i8*
  call void @llvm.lifetime.start.p0i8(i64 120, i8* nonnull %5) #11
  call void @llvm.memset.p0i8.i64(i8* nonnull align 8 %5, i8 -86, i64 120, i1 false)
  call void @_ZN4mojo7MessageC1EjjmmPNSt3__16vectorINS_16ScopedHandleBaseINS_6HandleEEENS1_9allocatorIS5_EEEE(%"class.mojo::Message"* nonnull %3, i32 348381728, i32 1, i64 0, i64 0, %"class.std::__1::vector"* null) #11
  %6 = getelementptr inbounds %"class.mojo::Message", %"class.mojo::Message"* %3, i64 0, i32 1
  %7 = call i64 @_ZN4mojo8internal6Buffer8AllocateEm(%"class.mojo::internal::Buffer"* %6, i64 8) #11
  %8 = getelementptr inbounds %"class.mojo::Message", %"class.mojo::Message"* %3, i64 0, i32 1, i32 2
  %9 = load i8*, i8** %8, align 8
  %10 = getelementptr inbounds i8, i8* %9, i64 %7
  %11 = bitcast i8* %10 to %"class.network::mojom::internal::NetworkServiceTest_SetAllowNetworkAccessToHostResolutions_Params_Data"*
  call void @_ZN7network5mojom8internal69NetworkServiceTest_SetAllowNetworkAccessToHostResolutions_Params_DataC1Ev(%"class.network::mojom::internal::NetworkServiceTest_SetAllowNetworkAccessToHostResolutions_Params_Data"* %11) #11
  %12 = call i8* @_Znwm(i64 16) #12
  %13 = getelementptr inbounds %"class.base::OnceCallback", %"class.base::OnceCallback"* %1, i64 0, i32 0, i32 0, i32 0
  %14 = bitcast %"class.base::OnceCallback"* %1 to i64*
  %15 = load i64, i64* %14, align 8
  store %"class.base::internal::BindStateBase"* null, %"class.base::internal::BindStateBase"** %13, align 8
  %16 = bitcast i8* %12 to i32 (...)***
  store i32 (...)** bitcast (i8** getelementptr inbounds ({ [6 x i8*] }, { [6 x i8*] }* @_ZTVN7network5mojom5blink75NetworkServiceTest_SetAllowNetworkAccessToHostResolutions_ForwardToCallbackE, i64 0, inrange i32 0, i64 2) to i32 (...)**), i32 (...)*** %16, align 8
  %17 = getelementptr inbounds i8, i8* %12, i64 8
  %18 = getelementptr inbounds %"class.base::OnceCallback", %"class.base::OnceCallback"* %4, i64 0, i32 0, i32 0, i32 0
  %19 = bitcast i8* %17 to i64*
  store i64 %15, i64* %19, align 8
  store %"class.base::internal::BindStateBase"* null, %"class.base::internal::BindStateBase"** %18, align 8
  %20 = bitcast i8* %12 to %"class.mojo::MessageReceiver"*
  %21 = getelementptr inbounds %"class.base::OnceCallback", %"class.base::OnceCallback"* %4, i64 0, i32 0
  call void @_ZN4base8internal12CallbackBaseD2Ev(%"class.base::internal::CallbackBase"* nonnull %21) #11
  %22 = getelementptr inbounds %"class.network::mojom::blink::NetworkServiceTestProxy", %"class.network::mojom::blink::NetworkServiceTestProxy"* %0, i64 0, i32 1
  %23 = load %"class.mojo::MessageReceiverWithResponder"*, %"class.mojo::MessageReceiverWithResponder"** %22, align 8
  %24 = bitcast %"class.mojo::MessageReceiverWithResponder"* %23 to i1 (%"class.mojo::MessageReceiverWithResponder"*, %"class.mojo::Message"*, %"class.mojo::MessageReceiver"*)***
  %25 = load i1 (%"class.mojo::MessageReceiverWithResponder"*, %"class.mojo::Message"*, %"class.mojo::MessageReceiver"*)**, i1 (%"class.mojo::MessageReceiverWithResponder"*, %"class.mojo::Message"*, %"class.mojo::MessageReceiver"*)*** %24, align 8
  %26 = getelementptr inbounds i1 (%"class.mojo::MessageReceiverWithResponder"*, %"class.mojo::Message"*, %"class.mojo::MessageReceiver"*)*, i1 (%"class.mojo::MessageReceiverWithResponder"*, %"class.mojo::Message"*, %"class.mojo::MessageReceiver"*)** %25, i64 4
  %27 = load i1 (%"class.mojo::MessageReceiverWithResponder"*, %"class.mojo::Message"*, %"class.mojo::MessageReceiver"*)*, i1 (%"class.mojo::MessageReceiverWithResponder"*, %"class.mojo::Message"*, %"class.mojo::MessageReceiver"*)** %26, align 8
  %28 = call zeroext i1 %27(%"class.mojo::MessageReceiverWithResponder"* %23, %"class.mojo::Message"* nonnull %3, %"class.mojo::MessageReceiver"* nonnull %20) #11
  call void @_ZN4mojo7MessageD1Ev(%"class.mojo::Message"* nonnull %3) #11
  call void @llvm.lifetime.end.p0i8(i64 120, i8* nonnull %5) #11
  ret void
}

; Function Attrs: nounwind ssp uwtable
define hidden void @_ZN7network5mojom5blink23NetworkServiceTestProxy18CrashOnResolveHostERKN3WTF6StringE(%"class.network::mojom::blink::NetworkServiceTestProxy"* nocapture readonly, %"class.WTF::String"* dereferenceable(8)) unnamed_addr #0 align 2 {
  %3 = alloca %"class.WTF::StringUTF8Adaptor", align 8
  %4 = alloca %"class.mojo::Message", align 8
  %5 = bitcast %"class.mojo::Message"* %4 to i8*
  call void @llvm.lifetime.start.p0i8(i64 120, i8* nonnull %5) #11
  call void @llvm.memset.p0i8.i64(i8* nonnull align 8 %5, i8 -86, i64 120, i1 false)
  call void @_ZN4mojo7MessageC1EjjmmPNSt3__16vectorINS_16ScopedHandleBaseINS_6HandleEEENS1_9allocatorIS5_EEEE(%"class.mojo::Message"* nonnull %4, i32 1259990622, i32 0, i64 0, i64 0, %"class.std::__1::vector"* null) #11
  %6 = getelementptr inbounds %"class.mojo::Message", %"class.mojo::Message"* %4, i64 0, i32 1
  %7 = call i64 @_ZN4mojo8internal6Buffer8AllocateEm(%"class.mojo::internal::Buffer"* %6, i64 16) #11
  %8 = getelementptr inbounds %"class.mojo::Message", %"class.mojo::Message"* %4, i64 0, i32 1, i32 2
  %9 = load i8*, i8** %8, align 8
  %10 = getelementptr inbounds i8, i8* %9, i64 %7
  %11 = bitcast i8* %10 to %"class.network::mojom::internal::NetworkServiceTest_CrashOnResolveHost_Params_Data"*
  call void @_ZN7network5mojom8internal49NetworkServiceTest_CrashOnResolveHost_Params_DataC1Ev(%"class.network::mojom::internal::NetworkServiceTest_CrashOnResolveHost_Params_Data"* %11) #11
  %12 = getelementptr inbounds %"class.WTF::String", %"class.WTF::String"* %1, i64 0, i32 0, i32 0
  %13 = load %"class.WTF::StringImpl"*, %"class.WTF::StringImpl"** %12, align 8
  %14 = icmp eq %"class.WTF::StringImpl"* %13, null
  br i1 %14, label %15, label %20

15:                                               ; preds = %2
  %16 = load i8*, i8** %8, align 8
  %17 = getelementptr inbounds i8, i8* %16, i64 %7
  %18 = getelementptr inbounds i8, i8* %17, i64 8
  %19 = bitcast i8* %18 to %"struct.mojo::internal::Pointer.92"*
  br label %52

20:                                               ; preds = %2
  %21 = bitcast %"class.WTF::StringUTF8Adaptor"* %3 to i8*
  call void @llvm.lifetime.start.p0i8(i64 40, i8* nonnull %21) #11
  call void @llvm.memset.p0i8.i64(i8* nonnull align 8 %21, i8 -86, i64 40, i1 false) #11
  call void @_ZN4mojo12StringTraitsIN3WTF6StringEE7GetUTF8ERKS2_(%"class.WTF::StringUTF8Adaptor"* nonnull sret %3, %"class.WTF::String"* dereferenceable(8) %1) #11
  %22 = getelementptr inbounds %"class.WTF::StringUTF8Adaptor", %"class.WTF::StringUTF8Adaptor"* %3, i64 0, i32 2
  %23 = load i32, i32* %22, align 8
  %24 = icmp ugt i32 %23, -9
  br i1 %24, label %35, label %25

25:                                               ; preds = %20
  %26 = add nuw i32 %23, 8
  %27 = zext i32 %26 to i64
  %28 = call i64 @_ZN4mojo8internal6Buffer8AllocateEm(%"class.mojo::internal::Buffer"* %6, i64 %27) #11
  %29 = load i8*, i8** %8, align 8
  %30 = getelementptr inbounds i8, i8* %29, i64 %28
  %31 = bitcast i8* %30 to i32*
  store i32 %26, i32* %31, align 1
  %32 = getelementptr inbounds i8, i8* %30, i64 4
  %33 = bitcast i8* %32 to i32*
  store i32 %23, i32* %33, align 1
  %34 = load i32, i32* %22, align 8
  br label %35

35:                                               ; preds = %20, %25
  %36 = phi i64 [ -1, %20 ], [ %28, %25 ]
  %37 = phi i32 [ %23, %20 ], [ %34, %25 ]
  %38 = load i8*, i8** %8, align 8
  %39 = getelementptr inbounds i8, i8* %38, i64 %36
  %40 = getelementptr inbounds i8, i8* %39, i64 8
  %41 = getelementptr inbounds %"class.WTF::StringUTF8Adaptor", %"class.WTF::StringUTF8Adaptor"* %3, i64 0, i32 1
  %42 = load i8*, i8** %41, align 8
  %43 = zext i32 %37 to i64
  call void @llvm.memcpy.p0i8.p0i8.i64(i8* align 1 %40, i8* align 1 %42, i64 %43, i1 false) #11
  call void @_ZN3WTF17StringUTF8AdaptorD1Ev(%"class.WTF::StringUTF8Adaptor"* nonnull %3) #11
  call void @llvm.lifetime.end.p0i8(i64 40, i8* nonnull %21) #11
  %44 = load i8*, i8** %8, align 8
  %45 = getelementptr inbounds i8, i8* %44, i64 %7
  %46 = getelementptr inbounds i8, i8* %45, i64 8
  %47 = bitcast i8* %46 to %"struct.mojo::internal::Pointer.92"*
  %48 = icmp eq i64 %36, -1
  br i1 %48, label %52, label %49

49:                                               ; preds = %35
  %50 = getelementptr inbounds i8, i8* %44, i64 %36
  %51 = bitcast i8* %50 to %"class.mojo::internal::Array_Data.96"*
  br label %52

52:                                               ; preds = %15, %35, %49
  %53 = phi %"struct.mojo::internal::Pointer.92"* [ %47, %49 ], [ %47, %35 ], [ %19, %15 ]
  %54 = phi %"class.mojo::internal::Array_Data.96"* [ %51, %49 ], [ null, %35 ], [ null, %15 ]
  %55 = getelementptr inbounds %"struct.mojo::internal::Pointer.92", %"struct.mojo::internal::Pointer.92"* %53, i64 0, i32 0
  %56 = icmp eq %"class.mojo::internal::Array_Data.96"* %54, null
  %57 = ptrtoint %"class.mojo::internal::Array_Data.96"* %54 to i64
  %58 = ptrtoint %"struct.mojo::internal::Pointer.92"* %53 to i64
  %59 = sub i64 %57, %58
  %60 = select i1 %56, i64 0, i64 %59
  store i64 %60, i64* %55, align 8
  %61 = getelementptr inbounds %"class.network::mojom::blink::NetworkServiceTestProxy", %"class.network::mojom::blink::NetworkServiceTestProxy"* %0, i64 0, i32 1
  %62 = bitcast %"class.mojo::MessageReceiverWithResponder"** %61 to %"class.mojo::MessageReceiver"**
  %63 = load %"class.mojo::MessageReceiver"*, %"class.mojo::MessageReceiver"** %62, align 8
  %64 = bitcast %"class.mojo::MessageReceiver"* %63 to i1 (%"class.mojo::MessageReceiver"*, %"class.mojo::Message"*)***
  %65 = load i1 (%"class.mojo::MessageReceiver"*, %"class.mojo::Message"*)**, i1 (%"class.mojo::MessageReceiver"*, %"class.mojo::Message"*)*** %64, align 8
  %66 = getelementptr inbounds i1 (%"class.mojo::MessageReceiver"*, %"class.mojo::Message"*)*, i1 (%"class.mojo::MessageReceiver"*, %"class.mojo::Message"*)** %65, i64 3
  %67 = load i1 (%"class.mojo::MessageReceiver"*, %"class.mojo::Message"*)*, i1 (%"class.mojo::MessageReceiver"*, %"class.mojo::Message"*)** %66, align 8
  %68 = call zeroext i1 %67(%"class.mojo::MessageReceiver"* %63, %"class.mojo::Message"* nonnull %4) #11
  call void @_ZN4mojo7MessageD1Ev(%"class.mojo::Message"* nonnull %4) #11
  call void @llvm.lifetime.end.p0i8(i64 120, i8* nonnull %5) #11
  ret void
}

; Function Attrs: nounwind ssp uwtable
define hidden void @_ZN7network5mojom5blink23NetworkServiceTestProxy20CrashOnGetCookieListEv(%"class.network::mojom::blink::NetworkServiceTestProxy"* nocapture readonly) unnamed_addr #0 align 2 {
  %2 = alloca %"class.mojo::Message", align 8
  %3 = bitcast %"class.mojo::Message"* %2 to i8*
  call void @llvm.lifetime.start.p0i8(i64 120, i8* nonnull %3) #11
  call void @llvm.memset.p0i8.i64(i8* nonnull align 8 %3, i8 -86, i64 120, i1 false)
  call void @_ZN4mojo7MessageC1EjjmmPNSt3__16vectorINS_16ScopedHandleBaseINS_6HandleEEENS1_9allocatorIS5_EEEE(%"class.mojo::Message"* nonnull %2, i32 1923533677, i32 0, i64 0, i64 0, %"class.std::__1::vector"* null) #11
  %4 = getelementptr inbounds %"class.mojo::Message", %"class.mojo::Message"* %2, i64 0, i32 1
  %5 = call i64 @_ZN4mojo8internal6Buffer8AllocateEm(%"class.mojo::internal::Buffer"* %4, i64 8) #11
  %6 = getelementptr inbounds %"class.mojo::Message", %"class.mojo::Message"* %2, i64 0, i32 1, i32 2
  %7 = load i8*, i8** %6, align 8
  %8 = getelementptr inbounds i8, i8* %7, i64 %5
  %9 = bitcast i8* %8 to %"class.network::mojom::internal::NetworkServiceTest_CrashOnGetCookieList_Params_Data"*
  call void @_ZN7network5mojom8internal51NetworkServiceTest_CrashOnGetCookieList_Params_DataC1Ev(%"class.network::mojom::internal::NetworkServiceTest_CrashOnGetCookieList_Params_Data"* %9) #11
  %10 = getelementptr inbounds %"class.network::mojom::blink::NetworkServiceTestProxy", %"class.network::mojom::blink::NetworkServiceTestProxy"* %0, i64 0, i32 1
  %11 = bitcast %"class.mojo::MessageReceiverWithResponder"** %10 to %"class.mojo::MessageReceiver"**
  %12 = load %"class.mojo::MessageReceiver"*, %"class.mojo::MessageReceiver"** %11, align 8
  %13 = bitcast %"class.mojo::MessageReceiver"* %12 to i1 (%"class.mojo::MessageReceiver"*, %"class.mojo::Message"*)***
  %14 = load i1 (%"class.mojo::MessageReceiver"*, %"class.mojo::Message"*)**, i1 (%"class.mojo::MessageReceiver"*, %"class.mojo::Message"*)*** %13, align 8
  %15 = getelementptr inbounds i1 (%"class.mojo::MessageReceiver"*, %"class.mojo::Message"*)*, i1 (%"class.mojo::MessageReceiver"*, %"class.mojo::Message"*)** %14, i64 3
  %16 = load i1 (%"class.mojo::MessageReceiver"*, %"class.mojo::Message"*)*, i1 (%"class.mojo::MessageReceiver"*, %"class.mojo::Message"*)** %15, align 8
  %17 = call zeroext i1 %16(%"class.mojo::MessageReceiver"* %12, %"class.mojo::Message"* nonnull %2) #11
  call void @_ZN4mojo7MessageD1Ev(%"class.mojo::Message"* nonnull %2) #11
  call void @llvm.lifetime.end.p0i8(i64 120, i8* nonnull %3) #11
  ret void
}

; Function Attrs: nounwind ssp uwtable
define hidden zeroext i1 @_ZN7network5mojom5blink23NetworkServiceTestProxy28GetLatestMemoryPressureLevelEPN9mojo_base5mojom19MemoryPressureLevelE(%"class.network::mojom::blink::NetworkServiceTestProxy"* nocapture readonly, i32*) unnamed_addr #0 align 2 {
  %3 = alloca %"class.mojo::Message", align 8
  %4 = alloca i8, align 1
  %5 = bitcast %"class.mojo::Message"* %3 to i8*
  call void @llvm.lifetime.start.p0i8(i64 120, i8* nonnull %5) #11
  call void @llvm.memset.p0i8.i64(i8* nonnull align 8 %5, i8 -86, i64 120, i1 false)
  call void @_ZN4mojo7MessageC1EjjmmPNSt3__16vectorINS_16ScopedHandleBaseINS_6HandleEEENS1_9allocatorIS5_EEEE(%"class.mojo::Message"* nonnull %3, i32 1911011900, i32 5, i64 0, i64 0, %"class.std::__1::vector"* null) #11
  %6 = getelementptr inbounds %"class.mojo::Message", %"class.mojo::Message"* %3, i64 0, i32 1
  %7 = call i64 @_ZN4mojo8internal6Buffer8AllocateEm(%"class.mojo::internal::Buffer"* %6, i64 8) #11
  %8 = getelementptr inbounds %"class.mojo::Message", %"class.mojo::Message"* %3, i64 0, i32 1, i32 2
  %9 = load i8*, i8** %8, align 8
  %10 = getelementptr inbounds i8, i8* %9, i64 %7
  %11 = bitcast i8* %10 to %"class.network::mojom::internal::NetworkServiceTest_GetLatestMemoryPressureLevel_Params_Data"*
  call void @_ZN7network5mojom8internal59NetworkServiceTest_GetLatestMemoryPressureLevel_Params_DataC1Ev(%"class.network::mojom::internal::NetworkServiceTest_GetLatestMemoryPressureLevel_Params_Data"* %11) #11
  call void @llvm.lifetime.start.p0i8(i64 1, i8* nonnull %4) #11
  store i8 0, i8* %4, align 1
  %12 = call i8* @_Znwm(i64 24) #12
  %13 = bitcast i8* %12 to i32 (...)***
  store i32 (...)** bitcast (i8** getelementptr inbounds ({ [6 x i8*] }, { [6 x i8*] }* @_ZTVN7network5mojom5blink66NetworkServiceTest_GetLatestMemoryPressureLevel_HandleSyncResponseE, i64 0, inrange i32 0, i64 2) to i32 (...)**), i32 (...)*** %13, align 8
  %14 = getelementptr inbounds i8, i8* %12, i64 8
  %15 = bitcast i8* %14 to i8**
  store i8* %4, i8** %15, align 8
  %16 = getelementptr inbounds i8, i8* %12, i64 16
  %17 = bitcast i8* %16 to i32**
  store i32* %1, i32** %17, align 8
  %18 = bitcast i8* %12 to %"class.mojo::MessageReceiver"*
  %19 = getelementptr inbounds %"class.network::mojom::blink::NetworkServiceTestProxy", %"class.network::mojom::blink::NetworkServiceTestProxy"* %0, i64 0, i32 1
  %20 = load %"class.mojo::MessageReceiverWithResponder"*, %"class.mojo::MessageReceiverWithResponder"** %19, align 8
  %21 = bitcast %"class.mojo::MessageReceiverWithResponder"* %20 to i1 (%"class.mojo::MessageReceiverWithResponder"*, %"class.mojo::Message"*, %"class.mojo::MessageReceiver"*)***
  %22 = load i1 (%"class.mojo::MessageReceiverWithResponder"*, %"class.mojo::Message"*, %"class.mojo::MessageReceiver"*)**, i1 (%"class.mojo::MessageReceiverWithResponder"*, %"class.mojo::Message"*, %"class.mojo::MessageReceiver"*)*** %21, align 8
  %23 = getelementptr inbounds i1 (%"class.mojo::MessageReceiverWithResponder"*, %"class.mojo::Message"*, %"class.mojo::MessageReceiver"*)*, i1 (%"class.mojo::MessageReceiverWithResponder"*, %"class.mojo::Message"*, %"class.mojo::MessageReceiver"*)** %22, i64 4
  %24 = load i1 (%"class.mojo::MessageReceiverWithResponder"*, %"class.mojo::Message"*, %"class.mojo::MessageReceiver"*)*, i1 (%"class.mojo::MessageReceiverWithResponder"*, %"class.mojo::Message"*, %"class.mojo::MessageReceiver"*)** %23, align 8
  %25 = call zeroext i1 %24(%"class.mojo::MessageReceiverWithResponder"* %20, %"class.mojo::Message"* nonnull %3, %"class.mojo::MessageReceiver"* nonnull %18) #11
  %26 = load i8, i8* %4, align 1, !range !4
  %27 = icmp ne i8 %26, 0
  call void @llvm.lifetime.end.p0i8(i64 1, i8* nonnull %4) #11
  call void @_ZN4mojo7MessageD1Ev(%"class.mojo::Message"* nonnull %3) #11
  call void @llvm.lifetime.end.p0i8(i64 120, i8* nonnull %5) #11
  ret i1 %27
}

; Function Attrs: nounwind ssp uwtable
define hidden void @_ZN7network5mojom5blink23NetworkServiceTestProxy28GetLatestMemoryPressureLevelEN4base12OnceCallbackIFvN9mojo_base5mojom19MemoryPressureLevelEEEE(%"class.network::mojom::blink::NetworkServiceTestProxy"* nocapture readonly, %"class.base::OnceCallback.103"* nocapture) unnamed_addr #0 align 2 {
  %3 = alloca %"class.mojo::Message", align 8
  %4 = alloca %"class.base::OnceCallback.103", align 8
  %5 = bitcast %"class.mojo::Message"* %3 to i8*
  call void @llvm.lifetime.start.p0i8(i64 120, i8* nonnull %5) #11
  call void @llvm.memset.p0i8.i64(i8* nonnull align 8 %5, i8 -86, i64 120, i1 false)
  call void @_ZN4mojo7MessageC1EjjmmPNSt3__16vectorINS_16ScopedHandleBaseINS_6HandleEEENS1_9allocatorIS5_EEEE(%"class.mojo::Message"* nonnull %3, i32 1911011900, i32 1, i64 0, i64 0, %"class.std::__1::vector"* null) #11
  %6 = getelementptr inbounds %"class.mojo::Message", %"class.mojo::Message"* %3, i64 0, i32 1
  %7 = call i64 @_ZN4mojo8internal6Buffer8AllocateEm(%"class.mojo::internal::Buffer"* %6, i64 8) #11
  %8 = getelementptr inbounds %"class.mojo::Message", %"class.mojo::Message"* %3, i64 0, i32 1, i32 2
  %9 = load i8*, i8** %8, align 8
  %10 = getelementptr inbounds i8, i8* %9, i64 %7
  %11 = bitcast i8* %10 to %"class.network::mojom::internal::NetworkServiceTest_GetLatestMemoryPressureLevel_Params_Data"*
  call void @_ZN7network5mojom8internal59NetworkServiceTest_GetLatestMemoryPressureLevel_Params_DataC1Ev(%"class.network::mojom::internal::NetworkServiceTest_GetLatestMemoryPressureLevel_Params_Data"* %11) #11
  %12 = call i8* @_Znwm(i64 16) #12
  %13 = getelementptr inbounds %"class.base::OnceCallback.103", %"class.base::OnceCallback.103"* %1, i64 0, i32 0, i32 0, i32 0
  %14 = bitcast %"class.base::OnceCallback.103"* %1 to i64*
  %15 = load i64, i64* %14, align 8
  store %"class.base::internal::BindStateBase"* null, %"class.base::internal::BindStateBase"** %13, align 8
  %16 = bitcast i8* %12 to i32 (...)***
  store i32 (...)** bitcast (i8** getelementptr inbounds ({ [6 x i8*] }, { [6 x i8*] }* @_ZTVN7network5mojom5blink65NetworkServiceTest_GetLatestMemoryPressureLevel_ForwardToCallbackE, i64 0, inrange i32 0, i64 2) to i32 (...)**), i32 (...)*** %16, align 8
  %17 = getelementptr inbounds i8, i8* %12, i64 8
  %18 = getelementptr inbounds %"class.base::OnceCallback.103", %"class.base::OnceCallback.103"* %4, i64 0, i32 0, i32 0, i32 0
  %19 = bitcast i8* %17 to i64*
  store i64 %15, i64* %19, align 8
  store %"class.base::internal::BindStateBase"* null, %"class.base::internal::BindStateBase"** %18, align 8
  %20 = bitcast i8* %12 to %"class.mojo::MessageReceiver"*
  %21 = getelementptr inbounds %"class.base::OnceCallback.103", %"class.base::OnceCallback.103"* %4, i64 0, i32 0
  call void @_ZN4base8internal12CallbackBaseD2Ev(%"class.base::internal::CallbackBase"* nonnull %21) #11
  %22 = getelementptr inbounds %"class.network::mojom::blink::NetworkServiceTestProxy", %"class.network::mojom::blink::NetworkServiceTestProxy"* %0, i64 0, i32 1
  %23 = load %"class.mojo::MessageReceiverWithResponder"*, %"class.mojo::MessageReceiverWithResponder"** %22, align 8
  %24 = bitcast %"class.mojo::MessageReceiverWithResponder"* %23 to i1 (%"class.mojo::MessageReceiverWithResponder"*, %"class.mojo::Message"*, %"class.mojo::MessageReceiver"*)***
  %25 = load i1 (%"class.mojo::MessageReceiverWithResponder"*, %"class.mojo::Message"*, %"class.mojo::MessageReceiver"*)**, i1 (%"class.mojo::MessageReceiverWithResponder"*, %"class.mojo::Message"*, %"class.mojo::MessageReceiver"*)*** %24, align 8
  %26 = getelementptr inbounds i1 (%"class.mojo::MessageReceiverWithResponder"*, %"class.mojo::Message"*, %"class.mojo::MessageReceiver"*)*, i1 (%"class.mojo::MessageReceiverWithResponder"*, %"class.mojo::Message"*, %"class.mojo::MessageReceiver"*)** %25, i64 4
  %27 = load i1 (%"class.mojo::MessageReceiverWithResponder"*, %"class.mojo::Message"*, %"class.mojo::MessageReceiver"*)*, i1 (%"class.mojo::MessageReceiverWithResponder"*, %"class.mojo::Message"*, %"class.mojo::MessageReceiver"*)** %26, align 8
  %28 = call zeroext i1 %27(%"class.mojo::MessageReceiverWithResponder"* %23, %"class.mojo::Message"* nonnull %3, %"class.mojo::MessageReceiver"* nonnull %20) #11
  call void @_ZN4mojo7MessageD1Ev(%"class.mojo::Message"* nonnull %3) #11
  call void @llvm.lifetime.end.p0i8(i64 120, i8* nonnull %5) #11
  ret void
}

; Function Attrs: nounwind ssp uwtable
define hidden zeroext i1 @_ZN7network5mojom5blink23NetworkServiceTestProxy35GetPeerToPeerConnectionsCountChangeEPj(%"class.network::mojom::blink::NetworkServiceTestProxy"* nocapture readonly, i32*) unnamed_addr #0 align 2 {
  %3 = alloca %"class.mojo::Message", align 8
  %4 = alloca i8, align 1
  %5 = bitcast %"class.mojo::Message"* %3 to i8*
  call void @llvm.lifetime.start.p0i8(i64 120, i8* nonnull %5) #11
  call void @llvm.memset.p0i8.i64(i8* nonnull align 8 %5, i8 -86, i64 120, i1 false)
  call void @_ZN4mojo7MessageC1EjjmmPNSt3__16vectorINS_16ScopedHandleBaseINS_6HandleEEENS1_9allocatorIS5_EEEE(%"class.mojo::Message"* nonnull %3, i32 2111883237, i32 5, i64 0, i64 0, %"class.std::__1::vector"* null) #11
  %6 = getelementptr inbounds %"class.mojo::Message", %"class.mojo::Message"* %3, i64 0, i32 1
  %7 = call i64 @_ZN4mojo8internal6Buffer8AllocateEm(%"class.mojo::internal::Buffer"* %6, i64 8) #11
  %8 = getelementptr inbounds %"class.mojo::Message", %"class.mojo::Message"* %3, i64 0, i32 1, i32 2
  %9 = load i8*, i8** %8, align 8
  %10 = getelementptr inbounds i8, i8* %9, i64 %7
  %11 = bitcast i8* %10 to %"class.network::mojom::internal::NetworkServiceTest_GetPeerToPeerConnectionsCountChange_Params_Data"*
  call void @_ZN7network5mojom8internal66NetworkServiceTest_GetPeerToPeerConnectionsCountChange_Params_DataC1Ev(%"class.network::mojom::internal::NetworkServiceTest_GetPeerToPeerConnectionsCountChange_Params_Data"* %11) #11
  call void @llvm.lifetime.start.p0i8(i64 1, i8* nonnull %4) #11
  store i8 0, i8* %4, align 1
  %12 = call i8* @_Znwm(i64 24) #12
  %13 = bitcast i8* %12 to i32 (...)***
  store i32 (...)** bitcast (i8** getelementptr inbounds ({ [6 x i8*] }, { [6 x i8*] }* @_ZTVN7network5mojom5blink73NetworkServiceTest_GetPeerToPeerConnectionsCountChange_HandleSyncResponseE, i64 0, inrange i32 0, i64 2) to i32 (...)**), i32 (...)*** %13, align 8
  %14 = getelementptr inbounds i8, i8* %12, i64 8
  %15 = bitcast i8* %14 to i8**
  store i8* %4, i8** %15, align 8
  %16 = getelementptr inbounds i8, i8* %12, i64 16
  %17 = bitcast i8* %16 to i32**
  store i32* %1, i32** %17, align 8
  %18 = bitcast i8* %12 to %"class.mojo::MessageReceiver"*
  %19 = getelementptr inbounds %"class.network::mojom::blink::NetworkServiceTestProxy", %"class.network::mojom::blink::NetworkServiceTestProxy"* %0, i64 0, i32 1
  %20 = load %"class.mojo::MessageReceiverWithResponder"*, %"class.mojo::MessageReceiverWithResponder"** %19, align 8
  %21 = bitcast %"class.mojo::MessageReceiverWithResponder"* %20 to i1 (%"class.mojo::MessageReceiverWithResponder"*, %"class.mojo::Message"*, %"class.mojo::MessageReceiver"*)***
  %22 = load i1 (%"class.mojo::MessageReceiverWithResponder"*, %"class.mojo::Message"*, %"class.mojo::MessageReceiver"*)**, i1 (%"class.mojo::MessageReceiverWithResponder"*, %"class.mojo::Message"*, %"class.mojo::MessageReceiver"*)*** %21, align 8
  %23 = getelementptr inbounds i1 (%"class.mojo::MessageReceiverWithResponder"*, %"class.mojo::Message"*, %"class.mojo::MessageReceiver"*)*, i1 (%"class.mojo::MessageReceiverWithResponder"*, %"class.mojo::Message"*, %"class.mojo::MessageReceiver"*)** %22, i64 4
  %24 = load i1 (%"class.mojo::MessageReceiverWithResponder"*, %"class.mojo::Message"*, %"class.mojo::MessageReceiver"*)*, i1 (%"class.mojo::MessageReceiverWithResponder"*, %"class.mojo::Message"*, %"class.mojo::MessageReceiver"*)** %23, align 8
  %25 = call zeroext i1 %24(%"class.mojo::MessageReceiverWithResponder"* %20, %"class.mojo::Message"* nonnull %3, %"class.mojo::MessageReceiver"* nonnull %18) #11
  %26 = load i8, i8* %4, align 1, !range !4
  %27 = icmp ne i8 %26, 0
  call void @llvm.lifetime.end.p0i8(i64 1, i8* nonnull %4) #11
  call void @_ZN4mojo7MessageD1Ev(%"class.mojo::Message"* nonnull %3) #11
  call void @llvm.lifetime.end.p0i8(i64 120, i8* nonnull %5) #11
  ret i1 %27
}

; Function Attrs: nounwind ssp uwtable
define hidden void @_ZN7network5mojom5blink23NetworkServiceTestProxy35GetPeerToPeerConnectionsCountChangeEN4base12OnceCallbackIFvjEEE(%"class.network::mojom::blink::NetworkServiceTestProxy"* nocapture readonly, %"class.base::OnceCallback.105"* nocapture) unnamed_addr #0 align 2 {
  %3 = alloca %"class.mojo::Message", align 8
  %4 = alloca %"class.base::OnceCallback.105", align 8
  %5 = bitcast %"class.mojo::Message"* %3 to i8*
  call void @llvm.lifetime.start.p0i8(i64 120, i8* nonnull %5) #11
  call void @llvm.memset.p0i8.i64(i8* nonnull align 8 %5, i8 -86, i64 120, i1 false)
  call void @_ZN4mojo7MessageC1EjjmmPNSt3__16vectorINS_16ScopedHandleBaseINS_6HandleEEENS1_9allocatorIS5_EEEE(%"class.mojo::Message"* nonnull %3, i32 2111883237, i32 1, i64 0, i64 0, %"class.std::__1::vector"* null) #11
  %6 = getelementptr inbounds %"class.mojo::Message", %"class.mojo::Message"* %3, i64 0, i32 1
  %7 = call i64 @_ZN4mojo8internal6Buffer8AllocateEm(%"class.mojo::internal::Buffer"* %6, i64 8) #11
  %8 = getelementptr inbounds %"class.mojo::Message", %"class.mojo::Message"* %3, i64 0, i32 1, i32 2
  %9 = load i8*, i8** %8, align 8
  %10 = getelementptr inbounds i8, i8* %9, i64 %7
  %11 = bitcast i8* %10 to %"class.network::mojom::internal::NetworkServiceTest_GetPeerToPeerConnectionsCountChange_Params_Data"*
  call void @_ZN7network5mojom8internal66NetworkServiceTest_GetPeerToPeerConnectionsCountChange_Params_DataC1Ev(%"class.network::mojom::internal::NetworkServiceTest_GetPeerToPeerConnectionsCountChange_Params_Data"* %11) #11
  %12 = call i8* @_Znwm(i64 16) #12
  %13 = getelementptr inbounds %"class.base::OnceCallback.105", %"class.base::OnceCallback.105"* %1, i64 0, i32 0, i32 0, i32 0
  %14 = bitcast %"class.base::OnceCallback.105"* %1 to i64*
  %15 = load i64, i64* %14, align 8
  store %"class.base::internal::BindStateBase"* null, %"class.base::internal::BindStateBase"** %13, align 8
  %16 = bitcast i8* %12 to i32 (...)***
  store i32 (...)** bitcast (i8** getelementptr inbounds ({ [6 x i8*] }, { [6 x i8*] }* @_ZTVN7network5mojom5blink72NetworkServiceTest_GetPeerToPeerConnectionsCountChange_ForwardToCallbackE, i64 0, inrange i32 0, i64 2) to i32 (...)**), i32 (...)*** %16, align 8
  %17 = getelementptr inbounds i8, i8* %12, i64 8
  %18 = getelementptr inbounds %"class.base::OnceCallback.105", %"class.base::OnceCallback.105"* %4, i64 0, i32 0, i32 0, i32 0
  %19 = bitcast i8* %17 to i64*
  store i64 %15, i64* %19, align 8
  store %"class.base::internal::BindStateBase"* null, %"class.base::internal::BindStateBase"** %18, align 8
  %20 = bitcast i8* %12 to %"class.mojo::MessageReceiver"*
  %21 = getelementptr inbounds %"class.base::OnceCallback.105", %"class.base::OnceCallback.105"* %4, i64 0, i32 0
  call void @_ZN4base8internal12CallbackBaseD2Ev(%"class.base::internal::CallbackBase"* nonnull %21) #11
  %22 = getelementptr inbounds %"class.network::mojom::blink::NetworkServiceTestProxy", %"class.network::mojom::blink::NetworkServiceTestProxy"* %0, i64 0, i32 1
  %23 = load %"class.mojo::MessageReceiverWithResponder"*, %"class.mojo::MessageReceiverWithResponder"** %22, align 8
  %24 = bitcast %"class.mojo::MessageReceiverWithResponder"* %23 to i1 (%"class.mojo::MessageReceiverWithResponder"*, %"class.mojo::Message"*, %"class.mojo::MessageReceiver"*)***
  %25 = load i1 (%"class.mojo::MessageReceiverWithResponder"*, %"class.mojo::Message"*, %"class.mojo::MessageReceiver"*)**, i1 (%"class.mojo::MessageReceiverWithResponder"*, %"class.mojo::Message"*, %"class.mojo::MessageReceiver"*)*** %24, align 8
  %26 = getelementptr inbounds i1 (%"class.mojo::MessageReceiverWithResponder"*, %"class.mojo::Message"*, %"class.mojo::MessageReceiver"*)*, i1 (%"class.mojo::MessageReceiverWithResponder"*, %"class.mojo::Message"*, %"class.mojo::MessageReceiver"*)** %25, i64 4
  %27 = load i1 (%"class.mojo::MessageReceiverWithResponder"*, %"class.mojo::Message"*, %"class.mojo::MessageReceiver"*)*, i1 (%"class.mojo::MessageReceiverWithResponder"*, %"class.mojo::Message"*, %"class.mojo::MessageReceiver"*)** %26, align 8
  %28 = call zeroext i1 %27(%"class.mojo::MessageReceiverWithResponder"* %23, %"class.mojo::Message"* nonnull %3, %"class.mojo::MessageReceiver"* nonnull %20) #11
  call void @_ZN4mojo7MessageD1Ev(%"class.mojo::Message"* nonnull %3) #11
  call void @llvm.lifetime.end.p0i8(i64 120, i8* nonnull %5) #11
  ret void
}

; Function Attrs: nounwind ssp uwtable
define hidden zeroext i1 @_ZN7network5mojom5blink23NetworkServiceTestProxy27GetEnvironmentVariableValueERKN3WTF6StringEPS4_(%"class.network::mojom::blink::NetworkServiceTestProxy"* nocapture readonly, %"class.WTF::String"* dereferenceable(8), %"class.WTF::String"*) unnamed_addr #0 align 2 {
  %4 = alloca %"class.WTF::StringUTF8Adaptor", align 8
  %5 = alloca %"class.mojo::Message", align 8
  %6 = alloca i8, align 1
  %7 = bitcast %"class.mojo::Message"* %5 to i8*
  call void @llvm.lifetime.start.p0i8(i64 120, i8* nonnull %7) #11
  call void @llvm.memset.p0i8.i64(i8* nonnull align 8 %7, i8 -86, i64 120, i1 false)
  call void @_ZN4mojo7MessageC1EjjmmPNSt3__16vectorINS_16ScopedHandleBaseINS_6HandleEEENS1_9allocatorIS5_EEEE(%"class.mojo::Message"* nonnull %5, i32 1072134097, i32 5, i64 0, i64 0, %"class.std::__1::vector"* null) #11
  %8 = getelementptr inbounds %"class.mojo::Message", %"class.mojo::Message"* %5, i64 0, i32 1
  %9 = call i64 @_ZN4mojo8internal6Buffer8AllocateEm(%"class.mojo::internal::Buffer"* %8, i64 16) #11
  %10 = getelementptr inbounds %"class.mojo::Message", %"class.mojo::Message"* %5, i64 0, i32 1, i32 2
  %11 = load i8*, i8** %10, align 8
  %12 = getelementptr inbounds i8, i8* %11, i64 %9
  %13 = bitcast i8* %12 to %"class.network::mojom::internal::NetworkServiceTest_GetEnvironmentVariableValue_Params_Data"*
  call void @_ZN7network5mojom8internal58NetworkServiceTest_GetEnvironmentVariableValue_Params_DataC1Ev(%"class.network::mojom::internal::NetworkServiceTest_GetEnvironmentVariableValue_Params_Data"* %13) #11
  %14 = getelementptr inbounds %"class.WTF::String", %"class.WTF::String"* %1, i64 0, i32 0, i32 0
  %15 = load %"class.WTF::StringImpl"*, %"class.WTF::StringImpl"** %14, align 8
  %16 = icmp eq %"class.WTF::StringImpl"* %15, null
  br i1 %16, label %17, label %22

17:                                               ; preds = %3
  %18 = load i8*, i8** %10, align 8
  %19 = getelementptr inbounds i8, i8* %18, i64 %9
  %20 = getelementptr inbounds i8, i8* %19, i64 8
  %21 = bitcast i8* %20 to %"struct.mojo::internal::Pointer.92"*
  br label %54

22:                                               ; preds = %3
  %23 = bitcast %"class.WTF::StringUTF8Adaptor"* %4 to i8*
  call void @llvm.lifetime.start.p0i8(i64 40, i8* nonnull %23) #11
  call void @llvm.memset.p0i8.i64(i8* nonnull align 8 %23, i8 -86, i64 40, i1 false) #11
  call void @_ZN4mojo12StringTraitsIN3WTF6StringEE7GetUTF8ERKS2_(%"class.WTF::StringUTF8Adaptor"* nonnull sret %4, %"class.WTF::String"* dereferenceable(8) %1) #11
  %24 = getelementptr inbounds %"class.WTF::StringUTF8Adaptor", %"class.WTF::StringUTF8Adaptor"* %4, i64 0, i32 2
  %25 = load i32, i32* %24, align 8
  %26 = icmp ugt i32 %25, -9
  br i1 %26, label %37, label %27

27:                                               ; preds = %22
  %28 = add nuw i32 %25, 8
  %29 = zext i32 %28 to i64
  %30 = call i64 @_ZN4mojo8internal6Buffer8AllocateEm(%"class.mojo::internal::Buffer"* %8, i64 %29) #11
  %31 = load i8*, i8** %10, align 8
  %32 = getelementptr inbounds i8, i8* %31, i64 %30
  %33 = bitcast i8* %32 to i32*
  store i32 %28, i32* %33, align 1
  %34 = getelementptr inbounds i8, i8* %32, i64 4
  %35 = bitcast i8* %34 to i32*
  store i32 %25, i32* %35, align 1
  %36 = load i32, i32* %24, align 8
  br label %37

37:                                               ; preds = %22, %27
  %38 = phi i64 [ -1, %22 ], [ %30, %27 ]
  %39 = phi i32 [ %25, %22 ], [ %36, %27 ]
  %40 = load i8*, i8** %10, align 8
  %41 = getelementptr inbounds i8, i8* %40, i64 %38
  %42 = getelementptr inbounds i8, i8* %41, i64 8
  %43 = getelementptr inbounds %"class.WTF::StringUTF8Adaptor", %"class.WTF::StringUTF8Adaptor"* %4, i64 0, i32 1
  %44 = load i8*, i8** %43, align 8
  %45 = zext i32 %39 to i64
  call void @llvm.memcpy.p0i8.p0i8.i64(i8* align 1 %42, i8* align 1 %44, i64 %45, i1 false) #11
  call void @_ZN3WTF17StringUTF8AdaptorD1Ev(%"class.WTF::StringUTF8Adaptor"* nonnull %4) #11
  call void @llvm.lifetime.end.p0i8(i64 40, i8* nonnull %23) #11
  %46 = load i8*, i8** %10, align 8
  %47 = getelementptr inbounds i8, i8* %46, i64 %9
  %48 = getelementptr inbounds i8, i8* %47, i64 8
  %49 = bitcast i8* %48 to %"struct.mojo::internal::Pointer.92"*
  %50 = icmp eq i64 %38, -1
  br i1 %50, label %54, label %51

51:                                               ; preds = %37
  %52 = getelementptr inbounds i8, i8* %46, i64 %38
  %53 = bitcast i8* %52 to %"class.mojo::internal::Array_Data.96"*
  br label %54

54:                                               ; preds = %51, %37, %17
  %55 = phi %"struct.mojo::internal::Pointer.92"* [ %49, %51 ], [ %49, %37 ], [ %21, %17 ]
  %56 = phi %"class.mojo::internal::Array_Data.96"* [ %53, %51 ], [ null, %37 ], [ null, %17 ]
  %57 = getelementptr inbounds %"struct.mojo::internal::Pointer.92", %"struct.mojo::internal::Pointer.92"* %55, i64 0, i32 0
  %58 = icmp eq %"class.mojo::internal::Array_Data.96"* %56, null
  %59 = ptrtoint %"class.mojo::internal::Array_Data.96"* %56 to i64
  %60 = ptrtoint %"struct.mojo::internal::Pointer.92"* %55 to i64
  %61 = sub i64 %59, %60
  %62 = select i1 %58, i64 0, i64 %61
  store i64 %62, i64* %57, align 8
  call void @llvm.lifetime.start.p0i8(i64 1, i8* nonnull %6) #11
  store i8 0, i8* %6, align 1
  %63 = call i8* @_Znwm(i64 24) #12
  %64 = bitcast i8* %63 to i32 (...)***
  store i32 (...)** bitcast (i8** getelementptr inbounds ({ [6 x i8*] }, { [6 x i8*] }* @_ZTVN7network5mojom5blink65NetworkServiceTest_GetEnvironmentVariableValue_HandleSyncResponseE, i64 0, inrange i32 0, i64 2) to i32 (...)**), i32 (...)*** %64, align 8
  %65 = getelementptr inbounds i8, i8* %63, i64 8
  %66 = bitcast i8* %65 to i8**
  store i8* %6, i8** %66, align 8
  %67 = getelementptr inbounds i8, i8* %63, i64 16
  %68 = bitcast i8* %67 to %"class.WTF::String"**
  store %"class.WTF::String"* %2, %"class.WTF::String"** %68, align 8
  %69 = bitcast i8* %63 to %"class.mojo::MessageReceiver"*
  %70 = getelementptr inbounds %"class.network::mojom::blink::NetworkServiceTestProxy", %"class.network::mojom::blink::NetworkServiceTestProxy"* %0, i64 0, i32 1
  %71 = load %"class.mojo::MessageReceiverWithResponder"*, %"class.mojo::MessageReceiverWithResponder"** %70, align 8
  %72 = bitcast %"class.mojo::MessageReceiverWithResponder"* %71 to i1 (%"class.mojo::MessageReceiverWithResponder"*, %"class.mojo::Message"*, %"class.mojo::MessageReceiver"*)***
  %73 = load i1 (%"class.mojo::MessageReceiverWithResponder"*, %"class.mojo::Message"*, %"class.mojo::MessageReceiver"*)**, i1 (%"class.mojo::MessageReceiverWithResponder"*, %"class.mojo::Message"*, %"class.mojo::MessageReceiver"*)*** %72, align 8
  %74 = getelementptr inbounds i1 (%"class.mojo::MessageReceiverWithResponder"*, %"class.mojo::Message"*, %"class.mojo::MessageReceiver"*)*, i1 (%"class.mojo::MessageReceiverWithResponder"*, %"class.mojo::Message"*, %"class.mojo::MessageReceiver"*)** %73, i64 4
  %75 = load i1 (%"class.mojo::MessageReceiverWithResponder"*, %"class.mojo::Message"*, %"class.mojo::MessageReceiver"*)*, i1 (%"class.mojo::MessageReceiverWithResponder"*, %"class.mojo::Message"*, %"class.mojo::MessageReceiver"*)** %74, align 8
  %76 = call zeroext i1 %75(%"class.mojo::MessageReceiverWithResponder"* %71, %"class.mojo::Message"* nonnull %5, %"class.mojo::MessageReceiver"* nonnull %69) #11
  %77 = load i8, i8* %6, align 1, !range !4
  %78 = icmp ne i8 %77, 0
  call void @llvm.lifetime.end.p0i8(i64 1, i8* nonnull %6) #11
  call void @_ZN4mojo7MessageD1Ev(%"class.mojo::Message"* nonnull %5) #11
  call void @llvm.lifetime.end.p0i8(i64 120, i8* nonnull %7) #11
  ret i1 %78
}

; Function Attrs: nounwind ssp uwtable
define hidden void @_ZN7network5mojom5blink23NetworkServiceTestProxy27GetEnvironmentVariableValueERKN3WTF6StringEN4base12OnceCallbackIFvS6_EEE(%"class.network::mojom::blink::NetworkServiceTestProxy"* nocapture readonly, %"class.WTF::String"* dereferenceable(8), %"class.base::OnceCallback.107"* nocapture) unnamed_addr #0 align 2 {
  %4 = alloca %"class.WTF::StringUTF8Adaptor", align 8
  %5 = alloca %"class.mojo::Message", align 8
  %6 = alloca %"class.base::OnceCallback.107", align 8
  %7 = bitcast %"class.mojo::Message"* %5 to i8*
  call void @llvm.lifetime.start.p0i8(i64 120, i8* nonnull %7) #11
  call void @llvm.memset.p0i8.i64(i8* nonnull align 8 %7, i8 -86, i64 120, i1 false)
  call void @_ZN4mojo7MessageC1EjjmmPNSt3__16vectorINS_16ScopedHandleBaseINS_6HandleEEENS1_9allocatorIS5_EEEE(%"class.mojo::Message"* nonnull %5, i32 1072134097, i32 1, i64 0, i64 0, %"class.std::__1::vector"* null) #11
  %8 = getelementptr inbounds %"class.mojo::Message", %"class.mojo::Message"* %5, i64 0, i32 1
  %9 = call i64 @_ZN4mojo8internal6Buffer8AllocateEm(%"class.mojo::internal::Buffer"* %8, i64 16) #11
  %10 = getelementptr inbounds %"class.mojo::Message", %"class.mojo::Message"* %5, i64 0, i32 1, i32 2
  %11 = load i8*, i8** %10, align 8
  %12 = getelementptr inbounds i8, i8* %11, i64 %9
  %13 = bitcast i8* %12 to %"class.network::mojom::internal::NetworkServiceTest_GetEnvironmentVariableValue_Params_Data"*
  call void @_ZN7network5mojom8internal58NetworkServiceTest_GetEnvironmentVariableValue_Params_DataC1Ev(%"class.network::mojom::internal::NetworkServiceTest_GetEnvironmentVariableValue_Params_Data"* %13) #11
  %14 = getelementptr inbounds %"class.WTF::String", %"class.WTF::String"* %1, i64 0, i32 0, i32 0
  %15 = load %"class.WTF::StringImpl"*, %"class.WTF::StringImpl"** %14, align 8
  %16 = icmp eq %"class.WTF::StringImpl"* %15, null
  br i1 %16, label %17, label %22

17:                                               ; preds = %3
  %18 = load i8*, i8** %10, align 8
  %19 = getelementptr inbounds i8, i8* %18, i64 %9
  %20 = getelementptr inbounds i8, i8* %19, i64 8
  %21 = bitcast i8* %20 to %"struct.mojo::internal::Pointer.92"*
  br label %54

22:                                               ; preds = %3
  %23 = bitcast %"class.WTF::StringUTF8Adaptor"* %4 to i8*
  call void @llvm.lifetime.start.p0i8(i64 40, i8* nonnull %23) #11
  call void @llvm.memset.p0i8.i64(i8* nonnull align 8 %23, i8 -86, i64 40, i1 false) #11
  call void @_ZN4mojo12StringTraitsIN3WTF6StringEE7GetUTF8ERKS2_(%"class.WTF::StringUTF8Adaptor"* nonnull sret %4, %"class.WTF::String"* dereferenceable(8) %1) #11
  %24 = getelementptr inbounds %"class.WTF::StringUTF8Adaptor", %"class.WTF::StringUTF8Adaptor"* %4, i64 0, i32 2
  %25 = load i32, i32* %24, align 8
  %26 = icmp ugt i32 %25, -9
  br i1 %26, label %37, label %27

27:                                               ; preds = %22
  %28 = add nuw i32 %25, 8
  %29 = zext i32 %28 to i64
  %30 = call i64 @_ZN4mojo8internal6Buffer8AllocateEm(%"class.mojo::internal::Buffer"* %8, i64 %29) #11
  %31 = load i8*, i8** %10, align 8
  %32 = getelementptr inbounds i8, i8* %31, i64 %30
  %33 = bitcast i8* %32 to i32*
  store i32 %28, i32* %33, align 1
  %34 = getelementptr inbounds i8, i8* %32, i64 4
  %35 = bitcast i8* %34 to i32*
  store i32 %25, i32* %35, align 1
  %36 = load i32, i32* %24, align 8
  br label %37

37:                                               ; preds = %22, %27
  %38 = phi i64 [ -1, %22 ], [ %30, %27 ]
  %39 = phi i32 [ %25, %22 ], [ %36, %27 ]
  %40 = load i8*, i8** %10, align 8
  %41 = getelementptr inbounds i8, i8* %40, i64 %38
  %42 = getelementptr inbounds i8, i8* %41, i64 8
  %43 = getelementptr inbounds %"class.WTF::StringUTF8Adaptor", %"class.WTF::StringUTF8Adaptor"* %4, i64 0, i32 1
  %44 = load i8*, i8** %43, align 8
  %45 = zext i32 %39 to i64
  call void @llvm.memcpy.p0i8.p0i8.i64(i8* align 1 %42, i8* align 1 %44, i64 %45, i1 false) #11
  call void @_ZN3WTF17StringUTF8AdaptorD1Ev(%"class.WTF::StringUTF8Adaptor"* nonnull %4) #11
  call void @llvm.lifetime.end.p0i8(i64 40, i8* nonnull %23) #11
  %46 = load i8*, i8** %10, align 8
  %47 = getelementptr inbounds i8, i8* %46, i64 %9
  %48 = getelementptr inbounds i8, i8* %47, i64 8
  %49 = bitcast i8* %48 to %"struct.mojo::internal::Pointer.92"*
  %50 = icmp eq i64 %38, -1
  br i1 %50, label %54, label %51

51:                                               ; preds = %37
  %52 = getelementptr inbounds i8, i8* %46, i64 %38
  %53 = bitcast i8* %52 to %"class.mojo::internal::Array_Data.96"*
  br label %54

54:                                               ; preds = %51, %37, %17
  %55 = phi %"struct.mojo::internal::Pointer.92"* [ %49, %51 ], [ %49, %37 ], [ %21, %17 ]
  %56 = phi %"class.mojo::internal::Array_Data.96"* [ %53, %51 ], [ null, %37 ], [ null, %17 ]
  %57 = getelementptr inbounds %"struct.mojo::internal::Pointer.92", %"struct.mojo::internal::Pointer.92"* %55, i64 0, i32 0
  %58 = icmp eq %"class.mojo::internal::Array_Data.96"* %56, null
  %59 = ptrtoint %"class.mojo::internal::Array_Data.96"* %56 to i64
  %60 = ptrtoint %"struct.mojo::internal::Pointer.92"* %55 to i64
  %61 = sub i64 %59, %60
  %62 = select i1 %58, i64 0, i64 %61
  store i64 %62, i64* %57, align 8
  %63 = call i8* @_Znwm(i64 16) #12
  %64 = getelementptr inbounds %"class.base::OnceCallback.107", %"class.base::OnceCallback.107"* %2, i64 0, i32 0, i32 0, i32 0
  %65 = bitcast %"class.base::OnceCallback.107"* %2 to i64*
  %66 = load i64, i64* %65, align 8
  store %"class.base::internal::BindStateBase"* null, %"class.base::internal::BindStateBase"** %64, align 8
  %67 = bitcast i8* %63 to i32 (...)***
  store i32 (...)** bitcast (i8** getelementptr inbounds ({ [6 x i8*] }, { [6 x i8*] }* @_ZTVN7network5mojom5blink64NetworkServiceTest_GetEnvironmentVariableValue_ForwardToCallbackE, i64 0, inrange i32 0, i64 2) to i32 (...)**), i32 (...)*** %67, align 8
  %68 = getelementptr inbounds i8, i8* %63, i64 8
  %69 = getelementptr inbounds %"class.base::OnceCallback.107", %"class.base::OnceCallback.107"* %6, i64 0, i32 0, i32 0, i32 0
  %70 = bitcast i8* %68 to i64*
  store i64 %66, i64* %70, align 8
  store %"class.base::internal::BindStateBase"* null, %"class.base::internal::BindStateBase"** %69, align 8
  %71 = bitcast i8* %63 to %"class.mojo::MessageReceiver"*
  %72 = getelementptr inbounds %"class.base::OnceCallback.107", %"class.base::OnceCallback.107"* %6, i64 0, i32 0
  call void @_ZN4base8internal12CallbackBaseD2Ev(%"class.base::internal::CallbackBase"* nonnull %72) #11
  %73 = getelementptr inbounds %"class.network::mojom::blink::NetworkServiceTestProxy", %"class.network::mojom::blink::NetworkServiceTestProxy"* %0, i64 0, i32 1
  %74 = load %"class.mojo::MessageReceiverWithResponder"*, %"class.mojo::MessageReceiverWithResponder"** %73, align 8
  %75 = bitcast %"class.mojo::MessageReceiverWithResponder"* %74 to i1 (%"class.mojo::MessageReceiverWithResponder"*, %"class.mojo::Message"*, %"class.mojo::MessageReceiver"*)***
  %76 = load i1 (%"class.mojo::MessageReceiverWithResponder"*, %"class.mojo::Message"*, %"class.mojo::MessageReceiver"*)**, i1 (%"class.mojo::MessageReceiverWithResponder"*, %"class.mojo::Message"*, %"class.mojo::MessageReceiver"*)*** %75, align 8
  %77 = getelementptr inbounds i1 (%"class.mojo::MessageReceiverWithResponder"*, %"class.mojo::Message"*, %"class.mojo::MessageReceiver"*)*, i1 (%"class.mojo::MessageReceiverWithResponder"*, %"class.mojo::Message"*, %"class.mojo::MessageReceiver"*)** %76, i64 4
  %78 = load i1 (%"class.mojo::MessageReceiverWithResponder"*, %"class.mojo::Message"*, %"class.mojo::MessageReceiver"*)*, i1 (%"class.mojo::MessageReceiverWithResponder"*, %"class.mojo::Message"*, %"class.mojo::MessageReceiver"*)** %77, align 8
  %79 = call zeroext i1 %78(%"class.mojo::MessageReceiverWithResponder"* %74, %"class.mojo::Message"* nonnull %5, %"class.mojo::MessageReceiver"* nonnull %71) #11
  call void @_ZN4mojo7MessageD1Ev(%"class.mojo::Message"* nonnull %5) #11
  call void @llvm.lifetime.end.p0i8(i64 120, i8* nonnull %7) #11
  ret void
}

; Function Attrs: nounwind ssp uwtable
define hidden zeroext i1 @_ZN7network5mojom5blink23NetworkServiceTestProxy3LogERKN3WTF6StringE(%"class.network::mojom::blink::NetworkServiceTestProxy"* nocapture readonly, %"class.WTF::String"* dereferenceable(8)) unnamed_addr #0 align 2 {
  %3 = alloca %"class.WTF::StringUTF8Adaptor", align 8
  %4 = alloca %"class.mojo::Message", align 8
  %5 = alloca i8, align 1
  %6 = bitcast %"class.mojo::Message"* %4 to i8*
  call void @llvm.lifetime.start.p0i8(i64 120, i8* nonnull %6) #11
  call void @llvm.memset.p0i8.i64(i8* nonnull align 8 %6, i8 -86, i64 120, i1 false)
  call void @_ZN4mojo7MessageC1EjjmmPNSt3__16vectorINS_16ScopedHandleBaseINS_6HandleEEENS1_9allocatorIS5_EEEE(%"class.mojo::Message"* nonnull %4, i32 74253995, i32 5, i64 0, i64 0, %"class.std::__1::vector"* null) #11
  %7 = getelementptr inbounds %"class.mojo::Message", %"class.mojo::Message"* %4, i64 0, i32 1
  %8 = call i64 @_ZN4mojo8internal6Buffer8AllocateEm(%"class.mojo::internal::Buffer"* %7, i64 16) #11
  %9 = getelementptr inbounds %"class.mojo::Message", %"class.mojo::Message"* %4, i64 0, i32 1, i32 2
  %10 = load i8*, i8** %9, align 8
  %11 = getelementptr inbounds i8, i8* %10, i64 %8
  %12 = bitcast i8* %11 to %"class.network::mojom::internal::NetworkServiceTest_Log_Params_Data"*
  call void @_ZN7network5mojom8internal34NetworkServiceTest_Log_Params_DataC1Ev(%"class.network::mojom::internal::NetworkServiceTest_Log_Params_Data"* %12) #11
  %13 = getelementptr inbounds %"class.WTF::String", %"class.WTF::String"* %1, i64 0, i32 0, i32 0
  %14 = load %"class.WTF::StringImpl"*, %"class.WTF::StringImpl"** %13, align 8
  %15 = icmp eq %"class.WTF::StringImpl"* %14, null
  br i1 %15, label %16, label %21

16:                                               ; preds = %2
  %17 = load i8*, i8** %9, align 8
  %18 = getelementptr inbounds i8, i8* %17, i64 %8
  %19 = getelementptr inbounds i8, i8* %18, i64 8
  %20 = bitcast i8* %19 to %"struct.mojo::internal::Pointer.92"*
  br label %53

21:                                               ; preds = %2
  %22 = bitcast %"class.WTF::StringUTF8Adaptor"* %3 to i8*
  call void @llvm.lifetime.start.p0i8(i64 40, i8* nonnull %22) #11
  call void @llvm.memset.p0i8.i64(i8* nonnull align 8 %22, i8 -86, i64 40, i1 false) #11
  call void @_ZN4mojo12StringTraitsIN3WTF6StringEE7GetUTF8ERKS2_(%"class.WTF::StringUTF8Adaptor"* nonnull sret %3, %"class.WTF::String"* dereferenceable(8) %1) #11
  %23 = getelementptr inbounds %"class.WTF::StringUTF8Adaptor", %"class.WTF::StringUTF8Adaptor"* %3, i64 0, i32 2
  %24 = load i32, i32* %23, align 8
  %25 = icmp ugt i32 %24, -9
  br i1 %25, label %36, label %26

26:                                               ; preds = %21
  %27 = add nuw i32 %24, 8
  %28 = zext i32 %27 to i64
  %29 = call i64 @_ZN4mojo8internal6Buffer8AllocateEm(%"class.mojo::internal::Buffer"* %7, i64 %28) #11
  %30 = load i8*, i8** %9, align 8
  %31 = getelementptr inbounds i8, i8* %30, i64 %29
  %32 = bitcast i8* %31 to i32*
  store i32 %27, i32* %32, align 1
  %33 = getelementptr inbounds i8, i8* %31, i64 4
  %34 = bitcast i8* %33 to i32*
  store i32 %24, i32* %34, align 1
  %35 = load i32, i32* %23, align 8
  br label %36

36:                                               ; preds = %21, %26
  %37 = phi i64 [ -1, %21 ], [ %29, %26 ]
  %38 = phi i32 [ %24, %21 ], [ %35, %26 ]
  %39 = load i8*, i8** %9, align 8
  %40 = getelementptr inbounds i8, i8* %39, i64 %37
  %41 = getelementptr inbounds i8, i8* %40, i64 8
  %42 = getelementptr inbounds %"class.WTF::StringUTF8Adaptor", %"class.WTF::StringUTF8Adaptor"* %3, i64 0, i32 1
  %43 = load i8*, i8** %42, align 8
  %44 = zext i32 %38 to i64
  call void @llvm.memcpy.p0i8.p0i8.i64(i8* align 1 %41, i8* align 1 %43, i64 %44, i1 false) #11
  call void @_ZN3WTF17StringUTF8AdaptorD1Ev(%"class.WTF::StringUTF8Adaptor"* nonnull %3) #11
  call void @llvm.lifetime.end.p0i8(i64 40, i8* nonnull %22) #11
  %45 = load i8*, i8** %9, align 8
  %46 = getelementptr inbounds i8, i8* %45, i64 %8
  %47 = getelementptr inbounds i8, i8* %46, i64 8
  %48 = bitcast i8* %47 to %"struct.mojo::internal::Pointer.92"*
  %49 = icmp eq i64 %37, -1
  br i1 %49, label %53, label %50

50:                                               ; preds = %36
  %51 = getelementptr inbounds i8, i8* %45, i64 %37
  %52 = bitcast i8* %51 to %"class.mojo::internal::Array_Data.96"*
  br label %53

53:                                               ; preds = %50, %36, %16
  %54 = phi %"struct.mojo::internal::Pointer.92"* [ %48, %50 ], [ %48, %36 ], [ %20, %16 ]
  %55 = phi %"class.mojo::internal::Array_Data.96"* [ %52, %50 ], [ null, %36 ], [ null, %16 ]
  %56 = getelementptr inbounds %"struct.mojo::internal::Pointer.92", %"struct.mojo::internal::Pointer.92"* %54, i64 0, i32 0
  %57 = icmp eq %"class.mojo::internal::Array_Data.96"* %55, null
  %58 = ptrtoint %"class.mojo::internal::Array_Data.96"* %55 to i64
  %59 = ptrtoint %"struct.mojo::internal::Pointer.92"* %54 to i64
  %60 = sub i64 %58, %59
  %61 = select i1 %57, i64 0, i64 %60
  store i64 %61, i64* %56, align 8
  call void @llvm.lifetime.start.p0i8(i64 1, i8* nonnull %5) #11
  store i8 0, i8* %5, align 1
  %62 = call i8* @_Znwm(i64 16) #12
  %63 = bitcast i8* %62 to i32 (...)***
  store i32 (...)** bitcast (i8** getelementptr inbounds ({ [6 x i8*] }, { [6 x i8*] }* @_ZTVN7network5mojom5blink41NetworkServiceTest_Log_HandleSyncResponseE, i64 0, inrange i32 0, i64 2) to i32 (...)**), i32 (...)*** %63, align 8
  %64 = getelementptr inbounds i8, i8* %62, i64 8
  %65 = bitcast i8* %64 to i8**
  store i8* %5, i8** %65, align 8
  %66 = bitcast i8* %62 to %"class.mojo::MessageReceiver"*
  %67 = getelementptr inbounds %"class.network::mojom::blink::NetworkServiceTestProxy", %"class.network::mojom::blink::NetworkServiceTestProxy"* %0, i64 0, i32 1
  %68 = load %"class.mojo::MessageReceiverWithResponder"*, %"class.mojo::MessageReceiverWithResponder"** %67, align 8
  %69 = bitcast %"class.mojo::MessageReceiverWithResponder"* %68 to i1 (%"class.mojo::MessageReceiverWithResponder"*, %"class.mojo::Message"*, %"class.mojo::MessageReceiver"*)***
  %70 = load i1 (%"class.mojo::MessageReceiverWithResponder"*, %"class.mojo::Message"*, %"class.mojo::MessageReceiver"*)**, i1 (%"class.mojo::MessageReceiverWithResponder"*, %"class.mojo::Message"*, %"class.mojo::MessageReceiver"*)*** %69, align 8
  %71 = getelementptr inbounds i1 (%"class.mojo::MessageReceiverWithResponder"*, %"class.mojo::Message"*, %"class.mojo::MessageReceiver"*)*, i1 (%"class.mojo::MessageReceiverWithResponder"*, %"class.mojo::Message"*, %"class.mojo::MessageReceiver"*)** %70, i64 4
  %72 = load i1 (%"class.mojo::MessageReceiverWithResponder"*, %"class.mojo::Message"*, %"class.mojo::MessageReceiver"*)*, i1 (%"class.mojo::MessageReceiverWithResponder"*, %"class.mojo::Message"*, %"class.mojo::MessageReceiver"*)** %71, align 8
  %73 = call zeroext i1 %72(%"class.mojo::MessageReceiverWithResponder"* %68, %"class.mojo::Message"* nonnull %4, %"class.mojo::MessageReceiver"* nonnull %66) #11
  %74 = load i8, i8* %5, align 1, !range !4
  %75 = icmp ne i8 %74, 0
  call void @llvm.lifetime.end.p0i8(i64 1, i8* nonnull %5) #11
  call void @_ZN4mojo7MessageD1Ev(%"class.mojo::Message"* nonnull %4) #11
  call void @llvm.lifetime.end.p0i8(i64 120, i8* nonnull %6) #11
  ret i1 %75
}

; Function Attrs: nounwind ssp uwtable
define hidden void @_ZN7network5mojom5blink23NetworkServiceTestProxy3LogERKN3WTF6StringEN4base12OnceCallbackIFvvEEE(%"class.network::mojom::blink::NetworkServiceTestProxy"* nocapture readonly, %"class.WTF::String"* dereferenceable(8), %"class.base::OnceCallback"* nocapture) unnamed_addr #0 align 2 {
  %4 = alloca %"class.WTF::StringUTF8Adaptor", align 8
  %5 = alloca %"class.mojo::Message", align 8
  %6 = alloca %"class.base::OnceCallback", align 8
  %7 = bitcast %"class.mojo::Message"* %5 to i8*
  call void @llvm.lifetime.start.p0i8(i64 120, i8* nonnull %7) #11
  call void @llvm.memset.p0i8.i64(i8* nonnull align 8 %7, i8 -86, i64 120, i1 false)
  call void @_ZN4mojo7MessageC1EjjmmPNSt3__16vectorINS_16ScopedHandleBaseINS_6HandleEEENS1_9allocatorIS5_EEEE(%"class.mojo::Message"* nonnull %5, i32 74253995, i32 1, i64 0, i64 0, %"class.std::__1::vector"* null) #11
  %8 = getelementptr inbounds %"class.mojo::Message", %"class.mojo::Message"* %5, i64 0, i32 1
  %9 = call i64 @_ZN4mojo8internal6Buffer8AllocateEm(%"class.mojo::internal::Buffer"* %8, i64 16) #11
  %10 = getelementptr inbounds %"class.mojo::Message", %"class.mojo::Message"* %5, i64 0, i32 1, i32 2
  %11 = load i8*, i8** %10, align 8
  %12 = getelementptr inbounds i8, i8* %11, i64 %9
  %13 = bitcast i8* %12 to %"class.network::mojom::internal::NetworkServiceTest_Log_Params_Data"*
  call void @_ZN7network5mojom8internal34NetworkServiceTest_Log_Params_DataC1Ev(%"class.network::mojom::internal::NetworkServiceTest_Log_Params_Data"* %13) #11
  %14 = getelementptr inbounds %"class.WTF::String", %"class.WTF::String"* %1, i64 0, i32 0, i32 0
  %15 = load %"class.WTF::StringImpl"*, %"class.WTF::StringImpl"** %14, align 8
  %16 = icmp eq %"class.WTF::StringImpl"* %15, null
  br i1 %16, label %17, label %22

17:                                               ; preds = %3
  %18 = load i8*, i8** %10, align 8
  %19 = getelementptr inbounds i8, i8* %18, i64 %9
  %20 = getelementptr inbounds i8, i8* %19, i64 8
  %21 = bitcast i8* %20 to %"struct.mojo::internal::Pointer.92"*
  br label %54

22:                                               ; preds = %3
  %23 = bitcast %"class.WTF::StringUTF8Adaptor"* %4 to i8*
  call void @llvm.lifetime.start.p0i8(i64 40, i8* nonnull %23) #11
  call void @llvm.memset.p0i8.i64(i8* nonnull align 8 %23, i8 -86, i64 40, i1 false) #11
  call void @_ZN4mojo12StringTraitsIN3WTF6StringEE7GetUTF8ERKS2_(%"class.WTF::StringUTF8Adaptor"* nonnull sret %4, %"class.WTF::String"* dereferenceable(8) %1) #11
  %24 = getelementptr inbounds %"class.WTF::StringUTF8Adaptor", %"class.WTF::StringUTF8Adaptor"* %4, i64 0, i32 2
  %25 = load i32, i32* %24, align 8
  %26 = icmp ugt i32 %25, -9
  br i1 %26, label %37, label %27

27:                                               ; preds = %22
  %28 = add nuw i32 %25, 8
  %29 = zext i32 %28 to i64
  %30 = call i64 @_ZN4mojo8internal6Buffer8AllocateEm(%"class.mojo::internal::Buffer"* %8, i64 %29) #11
  %31 = load i8*, i8** %10, align 8
  %32 = getelementptr inbounds i8, i8* %31, i64 %30
  %33 = bitcast i8* %32 to i32*
  store i32 %28, i32* %33, align 1
  %34 = getelementptr inbounds i8, i8* %32, i64 4
  %35 = bitcast i8* %34 to i32*
  store i32 %25, i32* %35, align 1
  %36 = load i32, i32* %24, align 8
  br label %37

37:                                               ; preds = %22, %27
  %38 = phi i64 [ -1, %22 ], [ %30, %27 ]
  %39 = phi i32 [ %25, %22 ], [ %36, %27 ]
  %40 = load i8*, i8** %10, align 8
  %41 = getelementptr inbounds i8, i8* %40, i64 %38
  %42 = getelementptr inbounds i8, i8* %41, i64 8
  %43 = getelementptr inbounds %"class.WTF::StringUTF8Adaptor", %"class.WTF::StringUTF8Adaptor"* %4, i64 0, i32 1
  %44 = load i8*, i8** %43, align 8
  %45 = zext i32 %39 to i64
  call void @llvm.memcpy.p0i8.p0i8.i64(i8* align 1 %42, i8* align 1 %44, i64 %45, i1 false) #11
  call void @_ZN3WTF17StringUTF8AdaptorD1Ev(%"class.WTF::StringUTF8Adaptor"* nonnull %4) #11
  call void @llvm.lifetime.end.p0i8(i64 40, i8* nonnull %23) #11
  %46 = load i8*, i8** %10, align 8
  %47 = getelementptr inbounds i8, i8* %46, i64 %9
  %48 = getelementptr inbounds i8, i8* %47, i64 8
  %49 = bitcast i8* %48 to %"struct.mojo::internal::Pointer.92"*
  %50 = icmp eq i64 %38, -1
  br i1 %50, label %54, label %51

51:                                               ; preds = %37
  %52 = getelementptr inbounds i8, i8* %46, i64 %38
  %53 = bitcast i8* %52 to %"class.mojo::internal::Array_Data.96"*
  br label %54

54:                                               ; preds = %51, %37, %17
  %55 = phi %"struct.mojo::internal::Pointer.92"* [ %49, %51 ], [ %49, %37 ], [ %21, %17 ]
  %56 = phi %"class.mojo::internal::Array_Data.96"* [ %53, %51 ], [ null, %37 ], [ null, %17 ]
  %57 = getelementptr inbounds %"struct.mojo::internal::Pointer.92", %"struct.mojo::internal::Pointer.92"* %55, i64 0, i32 0
  %58 = icmp eq %"class.mojo::internal::Array_Data.96"* %56, null
  %59 = ptrtoint %"class.mojo::internal::Array_Data.96"* %56 to i64
  %60 = ptrtoint %"struct.mojo::internal::Pointer.92"* %55 to i64
  %61 = sub i64 %59, %60
  %62 = select i1 %58, i64 0, i64 %61
  store i64 %62, i64* %57, align 8
  %63 = call i8* @_Znwm(i64 16) #12
  %64 = getelementptr inbounds %"class.base::OnceCallback", %"class.base::OnceCallback"* %2, i64 0, i32 0, i32 0, i32 0
  %65 = bitcast %"class.base::OnceCallback"* %2 to i64*
  %66 = load i64, i64* %65, align 8
  store %"class.base::internal::BindStateBase"* null, %"class.base::internal::BindStateBase"** %64, align 8
  %67 = bitcast i8* %63 to i32 (...)***
  store i32 (...)** bitcast (i8** getelementptr inbounds ({ [6 x i8*] }, { [6 x i8*] }* @_ZTVN7network5mojom5blink40NetworkServiceTest_Log_ForwardToCallbackE, i64 0, inrange i32 0, i64 2) to i32 (...)**), i32 (...)*** %67, align 8
  %68 = getelementptr inbounds i8, i8* %63, i64 8
  %69 = getelementptr inbounds %"class.base::OnceCallback", %"class.base::OnceCallback"* %6, i64 0, i32 0, i32 0, i32 0
  %70 = bitcast i8* %68 to i64*
  store i64 %66, i64* %70, align 8
  store %"class.base::internal::BindStateBase"* null, %"class.base::internal::BindStateBase"** %69, align 8
  %71 = bitcast i8* %63 to %"class.mojo::MessageReceiver"*
  %72 = getelementptr inbounds %"class.base::OnceCallback", %"class.base::OnceCallback"* %6, i64 0, i32 0
  call void @_ZN4base8internal12CallbackBaseD2Ev(%"class.base::internal::CallbackBase"* nonnull %72) #11
  %73 = getelementptr inbounds %"class.network::mojom::blink::NetworkServiceTestProxy", %"class.network::mojom::blink::NetworkServiceTestProxy"* %0, i64 0, i32 1
  %74 = load %"class.mojo::MessageReceiverWithResponder"*, %"class.mojo::MessageReceiverWithResponder"** %73, align 8
  %75 = bitcast %"class.mojo::MessageReceiverWithResponder"* %74 to i1 (%"class.mojo::MessageReceiverWithResponder"*, %"class.mojo::Message"*, %"class.mojo::MessageReceiver"*)***
  %76 = load i1 (%"class.mojo::MessageReceiverWithResponder"*, %"class.mojo::Message"*, %"class.mojo::MessageReceiver"*)**, i1 (%"class.mojo::MessageReceiverWithResponder"*, %"class.mojo::Message"*, %"class.mojo::MessageReceiver"*)*** %75, align 8
  %77 = getelementptr inbounds i1 (%"class.mojo::MessageReceiverWithResponder"*, %"class.mojo::Message"*, %"class.mojo::MessageReceiver"*)*, i1 (%"class.mojo::MessageReceiverWithResponder"*, %"class.mojo::Message"*, %"class.mojo::MessageReceiver"*)** %76, i64 4
  %78 = load i1 (%"class.mojo::MessageReceiverWithResponder"*, %"class.mojo::Message"*, %"class.mojo::MessageReceiver"*)*, i1 (%"class.mojo::MessageReceiverWithResponder"*, %"class.mojo::Message"*, %"class.mojo::MessageReceiver"*)** %77, align 8
  %79 = call zeroext i1 %78(%"class.mojo::MessageReceiverWithResponder"* %74, %"class.mojo::Message"* nonnull %5, %"class.mojo::MessageReceiver"* nonnull %71) #11
  call void @_ZN4mojo7MessageD1Ev(%"class.mojo::Message"* nonnull %5) #11
  call void @llvm.lifetime.end.p0i8(i64 120, i8* nonnull %7) #11
  ret void
}

; Function Attrs: nounwind ssp uwtable
define hidden void @_ZN7network5mojom5blink23NetworkServiceTestProxy18ActivateFieldTrialERKN3WTF6StringE(%"class.network::mojom::blink::NetworkServiceTestProxy"* nocapture readonly, %"class.WTF::String"* dereferenceable(8)) unnamed_addr #0 align 2 {
  %3 = alloca %"class.WTF::StringUTF8Adaptor", align 8
  %4 = alloca %"class.mojo::Message", align 8
  %5 = bitcast %"class.mojo::Message"* %4 to i8*
  call void @llvm.lifetime.start.p0i8(i64 120, i8* nonnull %5) #11
  call void @llvm.memset.p0i8.i64(i8* nonnull align 8 %5, i8 -86, i64 120, i1 false)
  call void @_ZN4mojo7MessageC1EjjmmPNSt3__16vectorINS_16ScopedHandleBaseINS_6HandleEEENS1_9allocatorIS5_EEEE(%"class.mojo::Message"* nonnull %4, i32 12603606, i32 0, i64 0, i64 0, %"class.std::__1::vector"* null) #11
  %6 = getelementptr inbounds %"class.mojo::Message", %"class.mojo::Message"* %4, i64 0, i32 1
  %7 = call i64 @_ZN4mojo8internal6Buffer8AllocateEm(%"class.mojo::internal::Buffer"* %6, i64 16) #11
  %8 = getelementptr inbounds %"class.mojo::Message", %"class.mojo::Message"* %4, i64 0, i32 1, i32 2
  %9 = load i8*, i8** %8, align 8
  %10 = getelementptr inbounds i8, i8* %9, i64 %7
  %11 = bitcast i8* %10 to %"class.network::mojom::internal::NetworkServiceTest_ActivateFieldTrial_Params_Data"*
  call void @_ZN7network5mojom8internal49NetworkServiceTest_ActivateFieldTrial_Params_DataC1Ev(%"class.network::mojom::internal::NetworkServiceTest_ActivateFieldTrial_Params_Data"* %11) #11
  %12 = getelementptr inbounds %"class.WTF::String", %"class.WTF::String"* %1, i64 0, i32 0, i32 0
  %13 = load %"class.WTF::StringImpl"*, %"class.WTF::StringImpl"** %12, align 8
  %14 = icmp eq %"class.WTF::StringImpl"* %13, null
  br i1 %14, label %15, label %20

15:                                               ; preds = %2
  %16 = load i8*, i8** %8, align 8
  %17 = getelementptr inbounds i8, i8* %16, i64 %7
  %18 = getelementptr inbounds i8, i8* %17, i64 8
  %19 = bitcast i8* %18 to %"struct.mojo::internal::Pointer.92"*
  br label %52

20:                                               ; preds = %2
  %21 = bitcast %"class.WTF::StringUTF8Adaptor"* %3 to i8*
  call void @llvm.lifetime.start.p0i8(i64 40, i8* nonnull %21) #11
  call void @llvm.memset.p0i8.i64(i8* nonnull align 8 %21, i8 -86, i64 40, i1 false) #11
  call void @_ZN4mojo12StringTraitsIN3WTF6StringEE7GetUTF8ERKS2_(%"class.WTF::StringUTF8Adaptor"* nonnull sret %3, %"class.WTF::String"* dereferenceable(8) %1) #11
  %22 = getelementptr inbounds %"class.WTF::StringUTF8Adaptor", %"class.WTF::StringUTF8Adaptor"* %3, i64 0, i32 2
  %23 = load i32, i32* %22, align 8
  %24 = icmp ugt i32 %23, -9
  br i1 %24, label %35, label %25

25:                                               ; preds = %20
  %26 = add nuw i32 %23, 8
  %27 = zext i32 %26 to i64
  %28 = call i64 @_ZN4mojo8internal6Buffer8AllocateEm(%"class.mojo::internal::Buffer"* %6, i64 %27) #11
  %29 = load i8*, i8** %8, align 8
  %30 = getelementptr inbounds i8, i8* %29, i64 %28
  %31 = bitcast i8* %30 to i32*
  store i32 %26, i32* %31, align 1
  %32 = getelementptr inbounds i8, i8* %30, i64 4
  %33 = bitcast i8* %32 to i32*
  store i32 %23, i32* %33, align 1
  %34 = load i32, i32* %22, align 8
  br label %35

35:                                               ; preds = %20, %25
  %36 = phi i64 [ -1, %20 ], [ %28, %25 ]
  %37 = phi i32 [ %23, %20 ], [ %34, %25 ]
  %38 = load i8*, i8** %8, align 8
  %39 = getelementptr inbounds i8, i8* %38, i64 %36
  %40 = getelementptr inbounds i8, i8* %39, i64 8
  %41 = getelementptr inbounds %"class.WTF::StringUTF8Adaptor", %"class.WTF::StringUTF8Adaptor"* %3, i64 0, i32 1
  %42 = load i8*, i8** %41, align 8
  %43 = zext i32 %37 to i64
  call void @llvm.memcpy.p0i8.p0i8.i64(i8* align 1 %40, i8* align 1 %42, i64 %43, i1 false) #11
  call void @_ZN3WTF17StringUTF8AdaptorD1Ev(%"class.WTF::StringUTF8Adaptor"* nonnull %3) #11
  call void @llvm.lifetime.end.p0i8(i64 40, i8* nonnull %21) #11
  %44 = load i8*, i8** %8, align 8
  %45 = getelementptr inbounds i8, i8* %44, i64 %7
  %46 = getelementptr inbounds i8, i8* %45, i64 8
  %47 = bitcast i8* %46 to %"struct.mojo::internal::Pointer.92"*
  %48 = icmp eq i64 %36, -1
  br i1 %48, label %52, label %49

49:                                               ; preds = %35
  %50 = getelementptr inbounds i8, i8* %44, i64 %36
  %51 = bitcast i8* %50 to %"class.mojo::internal::Array_Data.96"*
  br label %52

52:                                               ; preds = %15, %35, %49
  %53 = phi %"struct.mojo::internal::Pointer.92"* [ %47, %49 ], [ %47, %35 ], [ %19, %15 ]
  %54 = phi %"class.mojo::internal::Array_Data.96"* [ %51, %49 ], [ null, %35 ], [ null, %15 ]
  %55 = getelementptr inbounds %"struct.mojo::internal::Pointer.92", %"struct.mojo::internal::Pointer.92"* %53, i64 0, i32 0
  %56 = icmp eq %"class.mojo::internal::Array_Data.96"* %54, null
  %57 = ptrtoint %"class.mojo::internal::Array_Data.96"* %54 to i64
  %58 = ptrtoint %"struct.mojo::internal::Pointer.92"* %53 to i64
  %59 = sub i64 %57, %58
  %60 = select i1 %56, i64 0, i64 %59
  store i64 %60, i64* %55, align 8
  %61 = getelementptr inbounds %"class.network::mojom::blink::NetworkServiceTestProxy", %"class.network::mojom::blink::NetworkServiceTestProxy"* %0, i64 0, i32 1
  %62 = bitcast %"class.mojo::MessageReceiverWithResponder"** %61 to %"class.mojo::MessageReceiver"**
  %63 = load %"class.mojo::MessageReceiver"*, %"class.mojo::MessageReceiver"** %62, align 8
  %64 = bitcast %"class.mojo::MessageReceiver"* %63 to i1 (%"class.mojo::MessageReceiver"*, %"class.mojo::Message"*)***
  %65 = load i1 (%"class.mojo::MessageReceiver"*, %"class.mojo::Message"*)**, i1 (%"class.mojo::MessageReceiver"*, %"class.mojo::Message"*)*** %64, align 8
  %66 = getelementptr inbounds i1 (%"class.mojo::MessageReceiver"*, %"class.mojo::Message"*)*, i1 (%"class.mojo::MessageReceiver"*, %"class.mojo::Message"*)** %65, i64 3
  %67 = load i1 (%"class.mojo::MessageReceiver"*, %"class.mojo::Message"*)*, i1 (%"class.mojo::MessageReceiver"*, %"class.mojo::Message"*)** %66, align 8
  %68 = call zeroext i1 %67(%"class.mojo::MessageReceiver"* %63, %"class.mojo::Message"* nonnull %4) #11
  call void @_ZN4mojo7MessageD1Ev(%"class.mojo::Message"* nonnull %4) #11
  call void @llvm.lifetime.end.p0i8(i64 120, i8* nonnull %5) #11
  ret void
}

; Function Attrs: nounwind ssp uwtable
define hidden zeroext i1 @_ZN7network5mojom5blink23NetworkServiceTestProxy11SetEVPolicyERKN3WTF6VectorIhLj0ENS3_18PartitionAllocatorEEERKNS3_6StringE(%"class.network::mojom::blink::NetworkServiceTestProxy"* nocapture readonly, %"class.WTF::Vector.68"* dereferenceable(16), %"class.WTF::String"* dereferenceable(8)) unnamed_addr #0 align 2 {
  %4 = alloca %"class.WTF::StringUTF8Adaptor", align 8
  %5 = alloca %"class.mojo::Message", align 8
  %6 = alloca %"class.mojo::internal::ContainerValidateParams", align 8
  %7 = alloca i8, align 1
  %8 = bitcast %"class.mojo::Message"* %5 to i8*
  call void @llvm.lifetime.start.p0i8(i64 120, i8* nonnull %8) #11
  call void @llvm.memset.p0i8.i64(i8* nonnull align 8 %8, i8 -86, i64 120, i1 false)
  call void @_ZN4mojo7MessageC1EjjmmPNSt3__16vectorINS_16ScopedHandleBaseINS_6HandleEEENS1_9allocatorIS5_EEEE(%"class.mojo::Message"* nonnull %5, i32 1188838258, i32 5, i64 0, i64 0, %"class.std::__1::vector"* null) #11
  %9 = getelementptr inbounds %"class.mojo::Message", %"class.mojo::Message"* %5, i64 0, i32 1
  %10 = call i64 @_ZN4mojo8internal6Buffer8AllocateEm(%"class.mojo::internal::Buffer"* %9, i64 24) #11
  %11 = getelementptr inbounds %"class.mojo::Message", %"class.mojo::Message"* %5, i64 0, i32 1, i32 2
  %12 = load i8*, i8** %11, align 8
  %13 = getelementptr inbounds i8, i8* %12, i64 %10
  %14 = bitcast i8* %13 to %"class.network::mojom::internal::NetworkServiceTest_SetEVPolicy_Params_Data"*
  call void @_ZN7network5mojom8internal42NetworkServiceTest_SetEVPolicy_Params_DataC1Ev(%"class.network::mojom::internal::NetworkServiceTest_SetEVPolicy_Params_Data"* %14) #11
  %15 = bitcast %"class.mojo::internal::ContainerValidateParams"* %6 to i8*
  call void @llvm.lifetime.start.p0i8(i64 32, i8* nonnull %15) #11
  %16 = bitcast %"class.mojo::internal::ContainerValidateParams"* %6 to i64*
  store i64 -6148914691236517206, i64* %16, align 8
  %17 = getelementptr inbounds %"class.mojo::internal::ContainerValidateParams", %"class.mojo::internal::ContainerValidateParams"* %6, i64 0, i32 0
  store i32 32, i32* %17, align 8
  %18 = getelementptr inbounds %"class.mojo::internal::ContainerValidateParams", %"class.mojo::internal::ContainerValidateParams"* %6, i64 0, i32 1
  store i8 0, i8* %18, align 4
  %19 = getelementptr inbounds %"class.mojo::internal::ContainerValidateParams", %"class.mojo::internal::ContainerValidateParams"* %6, i64 0, i32 2
  %20 = getelementptr inbounds %"class.WTF::Vector.68", %"class.WTF::Vector.68"* %1, i64 0, i32 0, i32 0, i32 2
  %21 = bitcast %"class.mojo::internal::ContainerValidateParams"** %19 to i8*
  call void @llvm.memset.p0i8.i64(i8* align 8 %21, i8 0, i64 24, i1 false)
  %22 = load i32, i32* %20, align 4
  %23 = icmp ugt i32 %22, -9
  br i1 %23, label %35, label %24

24:                                               ; preds = %3
  %25 = add nuw i32 %22, 8
  %26 = zext i32 %25 to i64
  %27 = call i64 @_ZN4mojo8internal6Buffer8AllocateEm(%"class.mojo::internal::Buffer"* %9, i64 %26) #11
  %28 = load i8*, i8** %11, align 8
  %29 = getelementptr inbounds i8, i8* %28, i64 %27
  %30 = bitcast i8* %29 to i32*
  store i32 %25, i32* %30, align 1
  %31 = getelementptr inbounds i8, i8* %29, i64 4
  %32 = bitcast i8* %31 to i32*
  store i32 %22, i32* %32, align 1
  %33 = load i32, i32* %20, align 4
  %34 = icmp eq i32 %33, 0
  br i1 %34, label %54, label %35

35:                                               ; preds = %24, %3
  %36 = phi i64 [ -1, %3 ], [ %27, %24 ]
  %37 = phi i32 [ %22, %3 ], [ %33, %24 ]
  %38 = zext i32 %37 to i64
  %39 = getelementptr inbounds %"class.WTF::Vector.68", %"class.WTF::Vector.68"* %1, i64 0, i32 0, i32 0, i32 0
  %40 = load i8*, i8** %39, align 8
  %41 = load i8*, i8** %11, align 8
  %42 = getelementptr inbounds i8, i8* %41, i64 %36
  %43 = icmp eq i8* %40, null
  %44 = getelementptr inbounds i8, i8* %42, i64 8
  br i1 %43, label %46, label %45

45:                                               ; preds = %35
  call void @llvm.memcpy.p0i8.p0i8.i64(i8* align 1 %44, i8* nonnull align 1 %40, i64 %38, i1 false) #11
  br label %54

46:                                               ; preds = %35, %46
  %47 = phi i64 [ %48, %46 ], [ 0, %35 ]
  %48 = add nuw nsw i64 %47, 1
  %49 = trunc i64 %47 to i32
  %50 = call dereferenceable(1) i8* @_ZNK3WTF6VectorIhLj0ENS_18PartitionAllocatorEE2atEj(%"class.WTF::Vector.68"* %1, i32 %49) #11
  %51 = load i8, i8* %50, align 1
  %52 = getelementptr inbounds i8, i8* %44, i64 %47
  store i8 %51, i8* %52, align 1
  %53 = icmp eq i64 %48, %38
  br i1 %53, label %54, label %46

54:                                               ; preds = %46, %24, %45
  %55 = phi i64 [ %36, %45 ], [ %27, %24 ], [ %36, %46 ]
  %56 = load i8*, i8** %11, align 8
  %57 = getelementptr inbounds i8, i8* %56, i64 %10
  %58 = getelementptr inbounds i8, i8* %57, i64 8
  %59 = icmp eq i64 %55, -1
  %60 = getelementptr inbounds i8, i8* %56, i64 %55
  %61 = bitcast i8* %60 to %"class.mojo::internal::Array_Data.112"*
  %62 = select i1 %59, %"class.mojo::internal::Array_Data.112"* null, %"class.mojo::internal::Array_Data.112"* %61
  %63 = bitcast i8* %58 to i64*
  %64 = icmp eq %"class.mojo::internal::Array_Data.112"* %62, null
  %65 = ptrtoint %"class.mojo::internal::Array_Data.112"* %62 to i64
  %66 = ptrtoint i8* %58 to i64
  %67 = sub i64 %65, %66
  %68 = select i1 %64, i64 0, i64 %67
  store i64 %68, i64* %63, align 8
  %69 = getelementptr inbounds %"class.WTF::String", %"class.WTF::String"* %2, i64 0, i32 0, i32 0
  %70 = load %"class.WTF::StringImpl"*, %"class.WTF::StringImpl"** %69, align 8
  %71 = icmp eq %"class.WTF::StringImpl"* %70, null
  br i1 %71, label %72, label %77

72:                                               ; preds = %54
  %73 = load i8*, i8** %11, align 8
  %74 = getelementptr inbounds i8, i8* %73, i64 %10
  %75 = getelementptr inbounds i8, i8* %74, i64 16
  %76 = bitcast i8* %75 to %"struct.mojo::internal::Pointer.92"*
  br label %109

77:                                               ; preds = %54
  %78 = bitcast %"class.WTF::StringUTF8Adaptor"* %4 to i8*
  call void @llvm.lifetime.start.p0i8(i64 40, i8* nonnull %78) #11
  call void @llvm.memset.p0i8.i64(i8* nonnull align 8 %78, i8 -86, i64 40, i1 false) #11
  call void @_ZN4mojo12StringTraitsIN3WTF6StringEE7GetUTF8ERKS2_(%"class.WTF::StringUTF8Adaptor"* nonnull sret %4, %"class.WTF::String"* dereferenceable(8) %2) #11
  %79 = getelementptr inbounds %"class.WTF::StringUTF8Adaptor", %"class.WTF::StringUTF8Adaptor"* %4, i64 0, i32 2
  %80 = load i32, i32* %79, align 8
  %81 = icmp ugt i32 %80, -9
  br i1 %81, label %92, label %82

82:                                               ; preds = %77
  %83 = add nuw i32 %80, 8
  %84 = zext i32 %83 to i64
  %85 = call i64 @_ZN4mojo8internal6Buffer8AllocateEm(%"class.mojo::internal::Buffer"* %9, i64 %84) #11
  %86 = load i8*, i8** %11, align 8
  %87 = getelementptr inbounds i8, i8* %86, i64 %85
  %88 = bitcast i8* %87 to i32*
  store i32 %83, i32* %88, align 1
  %89 = getelementptr inbounds i8, i8* %87, i64 4
  %90 = bitcast i8* %89 to i32*
  store i32 %80, i32* %90, align 1
  %91 = load i32, i32* %79, align 8
  br label %92

92:                                               ; preds = %77, %82
  %93 = phi i64 [ -1, %77 ], [ %85, %82 ]
  %94 = phi i32 [ %80, %77 ], [ %91, %82 ]
  %95 = load i8*, i8** %11, align 8
  %96 = getelementptr inbounds i8, i8* %95, i64 %93
  %97 = getelementptr inbounds i8, i8* %96, i64 8
  %98 = getelementptr inbounds %"class.WTF::StringUTF8Adaptor", %"class.WTF::StringUTF8Adaptor"* %4, i64 0, i32 1
  %99 = load i8*, i8** %98, align 8
  %100 = zext i32 %94 to i64
  call void @llvm.memcpy.p0i8.p0i8.i64(i8* align 1 %97, i8* align 1 %99, i64 %100, i1 false) #11
  call void @_ZN3WTF17StringUTF8AdaptorD1Ev(%"class.WTF::StringUTF8Adaptor"* nonnull %4) #11
  call void @llvm.lifetime.end.p0i8(i64 40, i8* nonnull %78) #11
  %101 = load i8*, i8** %11, align 8
  %102 = getelementptr inbounds i8, i8* %101, i64 %10
  %103 = getelementptr inbounds i8, i8* %102, i64 16
  %104 = bitcast i8* %103 to %"struct.mojo::internal::Pointer.92"*
  %105 = icmp eq i64 %93, -1
  br i1 %105, label %109, label %106

106:                                              ; preds = %92
  %107 = getelementptr inbounds i8, i8* %101, i64 %93
  %108 = bitcast i8* %107 to %"class.mojo::internal::Array_Data.96"*
  br label %109

109:                                              ; preds = %106, %92, %72
  %110 = phi %"struct.mojo::internal::Pointer.92"* [ %104, %106 ], [ %104, %92 ], [ %76, %72 ]
  %111 = phi %"class.mojo::internal::Array_Data.96"* [ %108, %106 ], [ null, %92 ], [ null, %72 ]
  %112 = getelementptr inbounds %"struct.mojo::internal::Pointer.92", %"struct.mojo::internal::Pointer.92"* %110, i64 0, i32 0
  %113 = icmp eq %"class.mojo::internal::Array_Data.96"* %111, null
  %114 = ptrtoint %"class.mojo::internal::Array_Data.96"* %111 to i64
  %115 = ptrtoint %"struct.mojo::internal::Pointer.92"* %110 to i64
  %116 = sub i64 %114, %115
  %117 = select i1 %113, i64 0, i64 %116
  store i64 %117, i64* %112, align 8
  call void @llvm.lifetime.start.p0i8(i64 1, i8* nonnull %7) #11
  store i8 0, i8* %7, align 1
  %118 = call i8* @_Znwm(i64 16) #12
  %119 = bitcast i8* %118 to i32 (...)***
  store i32 (...)** bitcast (i8** getelementptr inbounds ({ [6 x i8*] }, { [6 x i8*] }* @_ZTVN7network5mojom5blink49NetworkServiceTest_SetEVPolicy_HandleSyncResponseE, i64 0, inrange i32 0, i64 2) to i32 (...)**), i32 (...)*** %119, align 8
  %120 = getelementptr inbounds i8, i8* %118, i64 8
  %121 = bitcast i8* %120 to i8**
  store i8* %7, i8** %121, align 8
  %122 = bitcast i8* %118 to %"class.mojo::MessageReceiver"*
  %123 = getelementptr inbounds %"class.network::mojom::blink::NetworkServiceTestProxy", %"class.network::mojom::blink::NetworkServiceTestProxy"* %0, i64 0, i32 1
  %124 = load %"class.mojo::MessageReceiverWithResponder"*, %"class.mojo::MessageReceiverWithResponder"** %123, align 8
  %125 = bitcast %"class.mojo::MessageReceiverWithResponder"* %124 to i1 (%"class.mojo::MessageReceiverWithResponder"*, %"class.mojo::Message"*, %"class.mojo::MessageReceiver"*)***
  %126 = load i1 (%"class.mojo::MessageReceiverWithResponder"*, %"class.mojo::Message"*, %"class.mojo::MessageReceiver"*)**, i1 (%"class.mojo::MessageReceiverWithResponder"*, %"class.mojo::Message"*, %"class.mojo::MessageReceiver"*)*** %125, align 8
  %127 = getelementptr inbounds i1 (%"class.mojo::MessageReceiverWithResponder"*, %"class.mojo::Message"*, %"class.mojo::MessageReceiver"*)*, i1 (%"class.mojo::MessageReceiverWithResponder"*, %"class.mojo::Message"*, %"class.mojo::MessageReceiver"*)** %126, i64 4
  %128 = load i1 (%"class.mojo::MessageReceiverWithResponder"*, %"class.mojo::Message"*, %"class.mojo::MessageReceiver"*)*, i1 (%"class.mojo::MessageReceiverWithResponder"*, %"class.mojo::Message"*, %"class.mojo::MessageReceiver"*)** %127, align 8
  %129 = call zeroext i1 %128(%"class.mojo::MessageReceiverWithResponder"* %124, %"class.mojo::Message"* nonnull %5, %"class.mojo::MessageReceiver"* nonnull %122) #11
  %130 = load i8, i8* %7, align 1, !range !4
  %131 = icmp ne i8 %130, 0
  call void @llvm.lifetime.end.p0i8(i64 1, i8* nonnull %7) #11
  call void @_ZN4mojo8internal23ContainerValidateParamsD2Ev(%"class.mojo::internal::ContainerValidateParams"* nonnull %6) #11
  call void @llvm.lifetime.end.p0i8(i64 32, i8* nonnull %15) #11
  call void @_ZN4mojo7MessageD1Ev(%"class.mojo::Message"* nonnull %5) #11
  call void @llvm.lifetime.end.p0i8(i64 120, i8* nonnull %8) #11
  ret i1 %131
}

; Function Attrs: nounwind ssp uwtable
define hidden void @_ZN7network5mojom5blink23NetworkServiceTestProxy11SetEVPolicyERKN3WTF6VectorIhLj0ENS3_18PartitionAllocatorEEERKNS3_6StringEN4base12OnceCallbackIFvvEEE(%"class.network::mojom::blink::NetworkServiceTestProxy"* nocapture readonly, %"class.WTF::Vector.68"* dereferenceable(16), %"class.WTF::String"* dereferenceable(8), %"class.base::OnceCallback"* nocapture) unnamed_addr #0 align 2 {
  %5 = alloca %"class.WTF::StringUTF8Adaptor", align 8
  %6 = alloca %"class.mojo::Message", align 8
  %7 = alloca %"class.mojo::internal::ContainerValidateParams", align 8
  %8 = alloca %"class.base::OnceCallback", align 8
  %9 = bitcast %"class.mojo::Message"* %6 to i8*
  call void @llvm.lifetime.start.p0i8(i64 120, i8* nonnull %9) #11
  call void @llvm.memset.p0i8.i64(i8* nonnull align 8 %9, i8 -86, i64 120, i1 false)
  call void @_ZN4mojo7MessageC1EjjmmPNSt3__16vectorINS_16ScopedHandleBaseINS_6HandleEEENS1_9allocatorIS5_EEEE(%"class.mojo::Message"* nonnull %6, i32 1188838258, i32 1, i64 0, i64 0, %"class.std::__1::vector"* null) #11
  %10 = getelementptr inbounds %"class.mojo::Message", %"class.mojo::Message"* %6, i64 0, i32 1
  %11 = call i64 @_ZN4mojo8internal6Buffer8AllocateEm(%"class.mojo::internal::Buffer"* %10, i64 24) #11
  %12 = getelementptr inbounds %"class.mojo::Message", %"class.mojo::Message"* %6, i64 0, i32 1, i32 2
  %13 = load i8*, i8** %12, align 8
  %14 = getelementptr inbounds i8, i8* %13, i64 %11
  %15 = bitcast i8* %14 to %"class.network::mojom::internal::NetworkServiceTest_SetEVPolicy_Params_Data"*
  call void @_ZN7network5mojom8internal42NetworkServiceTest_SetEVPolicy_Params_DataC1Ev(%"class.network::mojom::internal::NetworkServiceTest_SetEVPolicy_Params_Data"* %15) #11
  %16 = bitcast %"class.mojo::internal::ContainerValidateParams"* %7 to i8*
  call void @llvm.lifetime.start.p0i8(i64 32, i8* nonnull %16) #11
  %17 = bitcast %"class.mojo::internal::ContainerValidateParams"* %7 to i64*
  store i64 -6148914691236517206, i64* %17, align 8
  %18 = getelementptr inbounds %"class.mojo::internal::ContainerValidateParams", %"class.mojo::internal::ContainerValidateParams"* %7, i64 0, i32 0
  store i32 32, i32* %18, align 8
  %19 = getelementptr inbounds %"class.mojo::internal::ContainerValidateParams", %"class.mojo::internal::ContainerValidateParams"* %7, i64 0, i32 1
  store i8 0, i8* %19, align 4
  %20 = getelementptr inbounds %"class.mojo::internal::ContainerValidateParams", %"class.mojo::internal::ContainerValidateParams"* %7, i64 0, i32 2
  %21 = getelementptr inbounds %"class.WTF::Vector.68", %"class.WTF::Vector.68"* %1, i64 0, i32 0, i32 0, i32 2
  %22 = bitcast %"class.mojo::internal::ContainerValidateParams"** %20 to i8*
  call void @llvm.memset.p0i8.i64(i8* align 8 %22, i8 0, i64 24, i1 false)
  %23 = load i32, i32* %21, align 4
  %24 = icmp ugt i32 %23, -9
  br i1 %24, label %36, label %25

25:                                               ; preds = %4
  %26 = add nuw i32 %23, 8
  %27 = zext i32 %26 to i64
  %28 = call i64 @_ZN4mojo8internal6Buffer8AllocateEm(%"class.mojo::internal::Buffer"* %10, i64 %27) #11
  %29 = load i8*, i8** %12, align 8
  %30 = getelementptr inbounds i8, i8* %29, i64 %28
  %31 = bitcast i8* %30 to i32*
  store i32 %26, i32* %31, align 1
  %32 = getelementptr inbounds i8, i8* %30, i64 4
  %33 = bitcast i8* %32 to i32*
  store i32 %23, i32* %33, align 1
  %34 = load i32, i32* %21, align 4
  %35 = icmp eq i32 %34, 0
  br i1 %35, label %55, label %36

36:                                               ; preds = %25, %4
  %37 = phi i64 [ -1, %4 ], [ %28, %25 ]
  %38 = phi i32 [ %23, %4 ], [ %34, %25 ]
  %39 = zext i32 %38 to i64
  %40 = getelementptr inbounds %"class.WTF::Vector.68", %"class.WTF::Vector.68"* %1, i64 0, i32 0, i32 0, i32 0
  %41 = load i8*, i8** %40, align 8
  %42 = load i8*, i8** %12, align 8
  %43 = getelementptr inbounds i8, i8* %42, i64 %37
  %44 = icmp eq i8* %41, null
  %45 = getelementptr inbounds i8, i8* %43, i64 8
  br i1 %44, label %47, label %46

46:                                               ; preds = %36
  call void @llvm.memcpy.p0i8.p0i8.i64(i8* align 1 %45, i8* nonnull align 1 %41, i64 %39, i1 false) #11
  br label %55

47:                                               ; preds = %36, %47
  %48 = phi i64 [ %49, %47 ], [ 0, %36 ]
  %49 = add nuw nsw i64 %48, 1
  %50 = trunc i64 %48 to i32
  %51 = call dereferenceable(1) i8* @_ZNK3WTF6VectorIhLj0ENS_18PartitionAllocatorEE2atEj(%"class.WTF::Vector.68"* %1, i32 %50) #11
  %52 = load i8, i8* %51, align 1
  %53 = getelementptr inbounds i8, i8* %45, i64 %48
  store i8 %52, i8* %53, align 1
  %54 = icmp eq i64 %49, %39
  br i1 %54, label %55, label %47

55:                                               ; preds = %47, %25, %46
  %56 = phi i64 [ %37, %46 ], [ %28, %25 ], [ %37, %47 ]
  %57 = load i8*, i8** %12, align 8
  %58 = getelementptr inbounds i8, i8* %57, i64 %11
  %59 = getelementptr inbounds i8, i8* %58, i64 8
  %60 = icmp eq i64 %56, -1
  %61 = getelementptr inbounds i8, i8* %57, i64 %56
  %62 = bitcast i8* %61 to %"class.mojo::internal::Array_Data.112"*
  %63 = select i1 %60, %"class.mojo::internal::Array_Data.112"* null, %"class.mojo::internal::Array_Data.112"* %62
  %64 = bitcast i8* %59 to i64*
  %65 = icmp eq %"class.mojo::internal::Array_Data.112"* %63, null
  %66 = ptrtoint %"class.mojo::internal::Array_Data.112"* %63 to i64
  %67 = ptrtoint i8* %59 to i64
  %68 = sub i64 %66, %67
  %69 = select i1 %65, i64 0, i64 %68
  store i64 %69, i64* %64, align 8
  %70 = getelementptr inbounds %"class.WTF::String", %"class.WTF::String"* %2, i64 0, i32 0, i32 0
  %71 = load %"class.WTF::StringImpl"*, %"class.WTF::StringImpl"** %70, align 8
  %72 = icmp eq %"class.WTF::StringImpl"* %71, null
  br i1 %72, label %73, label %78

73:                                               ; preds = %55
  %74 = load i8*, i8** %12, align 8
  %75 = getelementptr inbounds i8, i8* %74, i64 %11
  %76 = getelementptr inbounds i8, i8* %75, i64 16
  %77 = bitcast i8* %76 to %"struct.mojo::internal::Pointer.92"*
  br label %110

78:                                               ; preds = %55
  %79 = bitcast %"class.WTF::StringUTF8Adaptor"* %5 to i8*
  call void @llvm.lifetime.start.p0i8(i64 40, i8* nonnull %79) #11
  call void @llvm.memset.p0i8.i64(i8* nonnull align 8 %79, i8 -86, i64 40, i1 false) #11
  call void @_ZN4mojo12StringTraitsIN3WTF6StringEE7GetUTF8ERKS2_(%"class.WTF::StringUTF8Adaptor"* nonnull sret %5, %"class.WTF::String"* dereferenceable(8) %2) #11
  %80 = getelementptr inbounds %"class.WTF::StringUTF8Adaptor", %"class.WTF::StringUTF8Adaptor"* %5, i64 0, i32 2
  %81 = load i32, i32* %80, align 8
  %82 = icmp ugt i32 %81, -9
  br i1 %82, label %93, label %83

83:                                               ; preds = %78
  %84 = add nuw i32 %81, 8
  %85 = zext i32 %84 to i64
  %86 = call i64 @_ZN4mojo8internal6Buffer8AllocateEm(%"class.mojo::internal::Buffer"* %10, i64 %85) #11
  %87 = load i8*, i8** %12, align 8
  %88 = getelementptr inbounds i8, i8* %87, i64 %86
  %89 = bitcast i8* %88 to i32*
  store i32 %84, i32* %89, align 1
  %90 = getelementptr inbounds i8, i8* %88, i64 4
  %91 = bitcast i8* %90 to i32*
  store i32 %81, i32* %91, align 1
  %92 = load i32, i32* %80, align 8
  br label %93

93:                                               ; preds = %78, %83
  %94 = phi i64 [ -1, %78 ], [ %86, %83 ]
  %95 = phi i32 [ %81, %78 ], [ %92, %83 ]
  %96 = load i8*, i8** %12, align 8
  %97 = getelementptr inbounds i8, i8* %96, i64 %94
  %98 = getelementptr inbounds i8, i8* %97, i64 8
  %99 = getelementptr inbounds %"class.WTF::StringUTF8Adaptor", %"class.WTF::StringUTF8Adaptor"* %5, i64 0, i32 1
  %100 = load i8*, i8** %99, align 8
  %101 = zext i32 %95 to i64
  call void @llvm.memcpy.p0i8.p0i8.i64(i8* align 1 %98, i8* align 1 %100, i64 %101, i1 false) #11
  call void @_ZN3WTF17StringUTF8AdaptorD1Ev(%"class.WTF::StringUTF8Adaptor"* nonnull %5) #11
  call void @llvm.lifetime.end.p0i8(i64 40, i8* nonnull %79) #11
  %102 = load i8*, i8** %12, align 8
  %103 = getelementptr inbounds i8, i8* %102, i64 %11
  %104 = getelementptr inbounds i8, i8* %103, i64 16
  %105 = bitcast i8* %104 to %"struct.mojo::internal::Pointer.92"*
  %106 = icmp eq i64 %94, -1
  br i1 %106, label %110, label %107

107:                                              ; preds = %93
  %108 = getelementptr inbounds i8, i8* %102, i64 %94
  %109 = bitcast i8* %108 to %"class.mojo::internal::Array_Data.96"*
  br label %110

110:                                              ; preds = %107, %93, %73
  %111 = phi %"struct.mojo::internal::Pointer.92"* [ %105, %107 ], [ %105, %93 ], [ %77, %73 ]
  %112 = phi %"class.mojo::internal::Array_Data.96"* [ %109, %107 ], [ null, %93 ], [ null, %73 ]
  %113 = getelementptr inbounds %"struct.mojo::internal::Pointer.92", %"struct.mojo::internal::Pointer.92"* %111, i64 0, i32 0
  %114 = icmp eq %"class.mojo::internal::Array_Data.96"* %112, null
  %115 = ptrtoint %"class.mojo::internal::Array_Data.96"* %112 to i64
  %116 = ptrtoint %"struct.mojo::internal::Pointer.92"* %111 to i64
  %117 = sub i64 %115, %116
  %118 = select i1 %114, i64 0, i64 %117
  store i64 %118, i64* %113, align 8
  %119 = call i8* @_Znwm(i64 16) #12
  %120 = getelementptr inbounds %"class.base::OnceCallback", %"class.base::OnceCallback"* %3, i64 0, i32 0, i32 0, i32 0
  %121 = bitcast %"class.base::OnceCallback"* %3 to i64*
  %122 = load i64, i64* %121, align 8
  store %"class.base::internal::BindStateBase"* null, %"class.base::internal::BindStateBase"** %120, align 8
  %123 = bitcast i8* %119 to i32 (...)***
  store i32 (...)** bitcast (i8** getelementptr inbounds ({ [6 x i8*] }, { [6 x i8*] }* @_ZTVN7network5mojom5blink48NetworkServiceTest_SetEVPolicy_ForwardToCallbackE, i64 0, inrange i32 0, i64 2) to i32 (...)**), i32 (...)*** %123, align 8
  %124 = getelementptr inbounds i8, i8* %119, i64 8
  %125 = getelementptr inbounds %"class.base::OnceCallback", %"class.base::OnceCallback"* %8, i64 0, i32 0, i32 0, i32 0
  %126 = bitcast i8* %124 to i64*
  store i64 %122, i64* %126, align 8
  store %"class.base::internal::BindStateBase"* null, %"class.base::internal::BindStateBase"** %125, align 8
  %127 = bitcast i8* %119 to %"class.mojo::MessageReceiver"*
  %128 = getelementptr inbounds %"class.base::OnceCallback", %"class.base::OnceCallback"* %8, i64 0, i32 0
  call void @_ZN4base8internal12CallbackBaseD2Ev(%"class.base::internal::CallbackBase"* nonnull %128) #11
  %129 = getelementptr inbounds %"class.network::mojom::blink::NetworkServiceTestProxy", %"class.network::mojom::blink::NetworkServiceTestProxy"* %0, i64 0, i32 1
  %130 = load %"class.mojo::MessageReceiverWithResponder"*, %"class.mojo::MessageReceiverWithResponder"** %129, align 8
  %131 = bitcast %"class.mojo::MessageReceiverWithResponder"* %130 to i1 (%"class.mojo::MessageReceiverWithResponder"*, %"class.mojo::Message"*, %"class.mojo::MessageReceiver"*)***
  %132 = load i1 (%"class.mojo::MessageReceiverWithResponder"*, %"class.mojo::Message"*, %"class.mojo::MessageReceiver"*)**, i1 (%"class.mojo::MessageReceiverWithResponder"*, %"class.mojo::Message"*, %"class.mojo::MessageReceiver"*)*** %131, align 8
  %133 = getelementptr inbounds i1 (%"class.mojo::MessageReceiverWithResponder"*, %"class.mojo::Message"*, %"class.mojo::MessageReceiver"*)*, i1 (%"class.mojo::MessageReceiverWithResponder"*, %"class.mojo::Message"*, %"class.mojo::MessageReceiver"*)** %132, i64 4
  %134 = load i1 (%"class.mojo::MessageReceiverWithResponder"*, %"class.mojo::Message"*, %"class.mojo::MessageReceiver"*)*, i1 (%"class.mojo::MessageReceiverWithResponder"*, %"class.mojo::Message"*, %"class.mojo::MessageReceiver"*)** %133, align 8
  %135 = call zeroext i1 %134(%"class.mojo::MessageReceiverWithResponder"* %130, %"class.mojo::Message"* nonnull %6, %"class.mojo::MessageReceiver"* nonnull %127) #11
  call void @_ZN4mojo8internal23ContainerValidateParamsD2Ev(%"class.mojo::internal::ContainerValidateParams"* nonnull %7) #11
  call void @llvm.lifetime.end.p0i8(i64 32, i8* nonnull %16) #11
  call void @_ZN4mojo7MessageD1Ev(%"class.mojo::Message"* nonnull %6) #11
  call void @llvm.lifetime.end.p0i8(i64 120, i8* nonnull %9) #11
  ret void
}

; Function Attrs: nounwind ssp uwtable
define hidden zeroext i1 @_ZN7network5mojom5blink23NetworkServiceTestProxy28GetFirstPartySetEntriesCountEPl(%"class.network::mojom::blink::NetworkServiceTestProxy"* nocapture readonly, i64*) unnamed_addr #0 align 2 {
  %3 = alloca %"class.mojo::Message", align 8
  %4 = alloca i8, align 1
  %5 = bitcast %"class.mojo::Message"* %3 to i8*
  call void @llvm.lifetime.start.p0i8(i64 120, i8* nonnull %5) #11
  call void @llvm.memset.p0i8.i64(i8* nonnull align 8 %5, i8 -86, i64 120, i1 false)
  call void @_ZN4mojo7MessageC1EjjmmPNSt3__16vectorINS_16ScopedHandleBaseINS_6HandleEEENS1_9allocatorIS5_EEEE(%"class.mojo::Message"* nonnull %3, i32 832733096, i32 5, i64 0, i64 0, %"class.std::__1::vector"* null) #11
  %6 = getelementptr inbounds %"class.mojo::Message", %"class.mojo::Message"* %3, i64 0, i32 1
  %7 = call i64 @_ZN4mojo8internal6Buffer8AllocateEm(%"class.mojo::internal::Buffer"* %6, i64 8) #11
  %8 = getelementptr inbounds %"class.mojo::Message", %"class.mojo::Message"* %3, i64 0, i32 1, i32 2
  %9 = load i8*, i8** %8, align 8
  %10 = getelementptr inbounds i8, i8* %9, i64 %7
  %11 = bitcast i8* %10 to %"class.network::mojom::internal::NetworkServiceTest_GetFirstPartySetEntriesCount_Params_Data"*
  call void @_ZN7network5mojom8internal59NetworkServiceTest_GetFirstPartySetEntriesCount_Params_DataC1Ev(%"class.network::mojom::internal::NetworkServiceTest_GetFirstPartySetEntriesCount_Params_Data"* %11) #11
  call void @llvm.lifetime.start.p0i8(i64 1, i8* nonnull %4) #11
  store i8 0, i8* %4, align 1
  %12 = call i8* @_Znwm(i64 24) #12
  %13 = bitcast i8* %12 to i32 (...)***
  store i32 (...)** bitcast (i8** getelementptr inbounds ({ [6 x i8*] }, { [6 x i8*] }* @_ZTVN7network5mojom5blink66NetworkServiceTest_GetFirstPartySetEntriesCount_HandleSyncResponseE, i64 0, inrange i32 0, i64 2) to i32 (...)**), i32 (...)*** %13, align 8
  %14 = getelementptr inbounds i8, i8* %12, i64 8
  %15 = bitcast i8* %14 to i8**
  store i8* %4, i8** %15, align 8
  %16 = getelementptr inbounds i8, i8* %12, i64 16
  %17 = bitcast i8* %16 to i64**
  store i64* %1, i64** %17, align 8
  %18 = bitcast i8* %12 to %"class.mojo::MessageReceiver"*
  %19 = getelementptr inbounds %"class.network::mojom::blink::NetworkServiceTestProxy", %"class.network::mojom::blink::NetworkServiceTestProxy"* %0, i64 0, i32 1
  %20 = load %"class.mojo::MessageReceiverWithResponder"*, %"class.mojo::MessageReceiverWithResponder"** %19, align 8
  %21 = bitcast %"class.mojo::MessageReceiverWithResponder"* %20 to i1 (%"class.mojo::MessageReceiverWithResponder"*, %"class.mojo::Message"*, %"class.mojo::MessageReceiver"*)***
  %22 = load i1 (%"class.mojo::MessageReceiverWithResponder"*, %"class.mojo::Message"*, %"class.mojo::MessageReceiver"*)**, i1 (%"class.mojo::MessageReceiverWithResponder"*, %"class.mojo::Message"*, %"class.mojo::MessageReceiver"*)*** %21, align 8
  %23 = getelementptr inbounds i1 (%"class.mojo::MessageReceiverWithResponder"*, %"class.mojo::Message"*, %"class.mojo::MessageReceiver"*)*, i1 (%"class.mojo::MessageReceiverWithResponder"*, %"class.mojo::Message"*, %"class.mojo::MessageReceiver"*)** %22, i64 4
  %24 = load i1 (%"class.mojo::MessageReceiverWithResponder"*, %"class.mojo::Message"*, %"class.mojo::MessageReceiver"*)*, i1 (%"class.mojo::MessageReceiverWithResponder"*, %"class.mojo::Message"*, %"class.mojo::MessageReceiver"*)** %23, align 8
  %25 = call zeroext i1 %24(%"class.mojo::MessageReceiverWithResponder"* %20, %"class.mojo::Message"* nonnull %3, %"class.mojo::MessageReceiver"* nonnull %18) #11
  %26 = load i8, i8* %4, align 1, !range !4
  %27 = icmp ne i8 %26, 0
  call void @llvm.lifetime.end.p0i8(i64 1, i8* nonnull %4) #11
  call void @_ZN4mojo7MessageD1Ev(%"class.mojo::Message"* nonnull %3) #11
  call void @llvm.lifetime.end.p0i8(i64 120, i8* nonnull %5) #11
  ret i1 %27
}

; Function Attrs: nounwind ssp uwtable
define hidden void @_ZN7network5mojom5blink23NetworkServiceTestProxy28GetFirstPartySetEntriesCountEN4base12OnceCallbackIFvlEEE(%"class.network::mojom::blink::NetworkServiceTestProxy"* nocapture readonly, %"class.base::OnceCallback.114"* nocapture) unnamed_addr #0 align 2 {
  %3 = alloca %"class.mojo::Message", align 8
  %4 = alloca %"class.base::OnceCallback.114", align 8
  %5 = bitcast %"class.mojo::Message"* %3 to i8*
  call void @llvm.lifetime.start.p0i8(i64 120, i8* nonnull %5) #11
  call void @llvm.memset.p0i8.i64(i8* nonnull align 8 %5, i8 -86, i64 120, i1 false)
  call void @_ZN4mojo7MessageC1EjjmmPNSt3__16vectorINS_16ScopedHandleBaseINS_6HandleEEENS1_9allocatorIS5_EEEE(%"class.mojo::Message"* nonnull %3, i32 832733096, i32 1, i64 0, i64 0, %"class.std::__1::vector"* null) #11
  %6 = getelementptr inbounds %"class.mojo::Message", %"class.mojo::Message"* %3, i64 0, i32 1
  %7 = call i64 @_ZN4mojo8internal6Buffer8AllocateEm(%"class.mojo::internal::Buffer"* %6, i64 8) #11
  %8 = getelementptr inbounds %"class.mojo::Message", %"class.mojo::Message"* %3, i64 0, i32 1, i32 2
  %9 = load i8*, i8** %8, align 8
  %10 = getelementptr inbounds i8, i8* %9, i64 %7
  %11 = bitcast i8* %10 to %"class.network::mojom::internal::NetworkServiceTest_GetFirstPartySetEntriesCount_Params_Data"*
  call void @_ZN7network5mojom8internal59NetworkServiceTest_GetFirstPartySetEntriesCount_Params_DataC1Ev(%"class.network::mojom::internal::NetworkServiceTest_GetFirstPartySetEntriesCount_Params_Data"* %11) #11
  %12 = call i8* @_Znwm(i64 16) #12
  %13 = getelementptr inbounds %"class.base::OnceCallback.114", %"class.base::OnceCallback.114"* %1, i64 0, i32 0, i32 0, i32 0
  %14 = bitcast %"class.base::OnceCallback.114"* %1 to i64*
  %15 = load i64, i64* %14, align 8
  store %"class.base::internal::BindStateBase"* null, %"class.base::internal::BindStateBase"** %13, align 8
  %16 = bitcast i8* %12 to i32 (...)***
  store i32 (...)** bitcast (i8** getelementptr inbounds ({ [6 x i8*] }, { [6 x i8*] }* @_ZTVN7network5mojom5blink65NetworkServiceTest_GetFirstPartySetEntriesCount_ForwardToCallbackE, i64 0, inrange i32 0, i64 2) to i32 (...)**), i32 (...)*** %16, align 8
  %17 = getelementptr inbounds i8, i8* %12, i64 8
  %18 = getelementptr inbounds %"class.base::OnceCallback.114", %"class.base::OnceCallback.114"* %4, i64 0, i32 0, i32 0, i32 0
  %19 = bitcast i8* %17 to i64*
  store i64 %15, i64* %19, align 8
  store %"class.base::internal::BindStateBase"* null, %"class.base::internal::BindStateBase"** %18, align 8
  %20 = bitcast i8* %12 to %"class.mojo::MessageReceiver"*
  %21 = getelementptr inbounds %"class.base::OnceCallback.114", %"class.base::OnceCallback.114"* %4, i64 0, i32 0
  call void @_ZN4base8internal12CallbackBaseD2Ev(%"class.base::internal::CallbackBase"* nonnull %21) #11
  %22 = getelementptr inbounds %"class.network::mojom::blink::NetworkServiceTestProxy", %"class.network::mojom::blink::NetworkServiceTestProxy"* %0, i64 0, i32 1
  %23 = load %"class.mojo::MessageReceiverWithResponder"*, %"class.mojo::MessageReceiverWithResponder"** %22, align 8
  %24 = bitcast %"class.mojo::MessageReceiverWithResponder"* %23 to i1 (%"class.mojo::MessageReceiverWithResponder"*, %"class.mojo::Message"*, %"class.mojo::MessageReceiver"*)***
  %25 = load i1 (%"class.mojo::MessageReceiverWithResponder"*, %"class.mojo::Message"*, %"class.mojo::MessageReceiver"*)**, i1 (%"class.mojo::MessageReceiverWithResponder"*, %"class.mojo::Message"*, %"class.mojo::MessageReceiver"*)*** %24, align 8
  %26 = getelementptr inbounds i1 (%"class.mojo::MessageReceiverWithResponder"*, %"class.mojo::Message"*, %"class.mojo::MessageReceiver"*)*, i1 (%"class.mojo::MessageReceiverWithResponder"*, %"class.mojo::Message"*, %"class.mojo::MessageReceiver"*)** %25, i64 4
  %27 = load i1 (%"class.mojo::MessageReceiverWithResponder"*, %"class.mojo::Message"*, %"class.mojo::MessageReceiver"*)*, i1 (%"class.mojo::MessageReceiverWithResponder"*, %"class.mojo::Message"*, %"class.mojo::MessageReceiver"*)** %26, align 8
  %28 = call zeroext i1 %27(%"class.mojo::MessageReceiverWithResponder"* %23, %"class.mojo::Message"* nonnull %3, %"class.mojo::MessageReceiver"* nonnull %20) #11
  call void @_ZN4mojo7MessageD1Ev(%"class.mojo::Message"* nonnull %3) #11
  call void @llvm.lifetime.end.p0i8(i64 120, i8* nonnull %5) #11
  ret void
}

; Function Attrs: nounwind
declare void @_ZN4base8internal12CallbackBaseD2Ev(%"class.base::internal::CallbackBase"*) unnamed_addr #6

; Function Attrs: nounwind ssp uwtable
define hidden zeroext i1 @_ZN7network5mojom5blink23NetworkServiceTestProxy24SetSCTAuditingRetryDelayEN4absl8optionalIN4base9TimeDeltaEEE(%"class.network::mojom::blink::NetworkServiceTestProxy"* nocapture readonly, i8, i64) unnamed_addr #0 align 2 {
  %4 = alloca %"class.absl::optional.73", align 8
  %5 = alloca %"class.mojo::Message", align 8
  %6 = alloca i8, align 1
  %7 = getelementptr inbounds %"class.absl::optional.73", %"class.absl::optional.73"* %4, i64 0, i32 0, i32 0, i32 0, i32 0
  store i8 %1, i8* %7, align 8
  %8 = getelementptr inbounds %"class.absl::optional.73", %"class.absl::optional.73"* %4, i64 0, i32 0, i32 0, i32 0, i32 1, i32 0, i32 0
  store i64 %2, i64* %8, align 8
  %9 = bitcast %"class.mojo::Message"* %5 to i8*
  call void @llvm.lifetime.start.p0i8(i64 120, i8* nonnull %9) #11
  call void @llvm.memset.p0i8.i64(i8* nonnull align 8 %9, i8 -86, i64 120, i1 false)
  call void @_ZN4mojo7MessageC1EjjmmPNSt3__16vectorINS_16ScopedHandleBaseINS_6HandleEEENS1_9allocatorIS5_EEEE(%"class.mojo::Message"* nonnull %5, i32 177127893, i32 5, i64 0, i64 0, %"class.std::__1::vector"* null) #11
  %10 = getelementptr inbounds %"class.mojo::Message", %"class.mojo::Message"* %5, i64 0, i32 1
  %11 = call i64 @_ZN4mojo8internal6Buffer8AllocateEm(%"class.mojo::internal::Buffer"* %10, i64 16) #11
  %12 = getelementptr inbounds %"class.mojo::Message", %"class.mojo::Message"* %5, i64 0, i32 1, i32 2
  %13 = load i8*, i8** %12, align 8
  %14 = getelementptr inbounds i8, i8* %13, i64 %11
  %15 = bitcast i8* %14 to %"class.network::mojom::internal::NetworkServiceTest_SetSCTAuditingRetryDelay_Params_Data"*
  call void @_ZN7network5mojom8internal55NetworkServiceTest_SetSCTAuditingRetryDelay_Params_DataC1Ev(%"class.network::mojom::internal::NetworkServiceTest_SetSCTAuditingRetryDelay_Params_Data"* %15) #11
  %16 = icmp eq i8 %1, 0
  br i1 %16, label %17, label %22

17:                                               ; preds = %3
  %18 = load i8*, i8** %12, align 8
  %19 = getelementptr inbounds i8, i8* %18, i64 %11
  %20 = getelementptr inbounds i8, i8* %19, i64 8
  %21 = bitcast i8* %20 to %"struct.mojo::internal::Pointer.117"*
  br label %41

22:                                               ; preds = %3
  %23 = getelementptr inbounds %"class.absl::optional.73", %"class.absl::optional.73"* %4, i64 0, i32 0, i32 0, i32 0, i32 1, i32 0
  %24 = call i64 @_ZN4mojo8internal6Buffer8AllocateEm(%"class.mojo::internal::Buffer"* %10, i64 16) #11
  %25 = load i8*, i8** %12, align 8
  %26 = getelementptr inbounds i8, i8* %25, i64 %24
  %27 = bitcast i8* %26 to %"class.mojo_base::mojom::internal::TimeDelta_Data"*
  call void @_ZN9mojo_base5mojom8internal14TimeDelta_DataC1Ev(%"class.mojo_base::mojom::internal::TimeDelta_Data"* %27) #11
  %28 = call i64 @_ZN4mojo12StructTraitsIN9mojo_base5mojom17TimeDeltaDataViewEN4base9TimeDeltaEE12microsecondsERKS5_(%"class.base::TimeDelta"* dereferenceable(8) %23) #11
  %29 = load i8*, i8** %12, align 8
  %30 = getelementptr inbounds i8, i8* %29, i64 %24
  %31 = getelementptr inbounds i8, i8* %30, i64 8
  %32 = bitcast i8* %31 to i64*
  store i64 %28, i64* %32, align 1
  %33 = load i8*, i8** %12, align 8
  %34 = getelementptr inbounds i8, i8* %33, i64 %11
  %35 = getelementptr inbounds i8, i8* %34, i64 8
  %36 = bitcast i8* %35 to %"struct.mojo::internal::Pointer.117"*
  %37 = icmp eq i64 %24, -1
  br i1 %37, label %41, label %38

38:                                               ; preds = %22
  %39 = getelementptr inbounds i8, i8* %33, i64 %24
  %40 = bitcast i8* %39 to %"class.mojo_base::mojom::internal::TimeDelta_Data"*
  br label %41

41:                                               ; preds = %38, %22, %17
  %42 = phi %"struct.mojo::internal::Pointer.117"* [ %36, %38 ], [ %36, %22 ], [ %21, %17 ]
  %43 = phi %"class.mojo_base::mojom::internal::TimeDelta_Data"* [ %40, %38 ], [ null, %22 ], [ null, %17 ]
  %44 = getelementptr inbounds %"struct.mojo::internal::Pointer.117", %"struct.mojo::internal::Pointer.117"* %42, i64 0, i32 0
  %45 = icmp eq %"class.mojo_base::mojom::internal::TimeDelta_Data"* %43, null
  %46 = ptrtoint %"class.mojo_base::mojom::internal::TimeDelta_Data"* %43 to i64
  %47 = ptrtoint %"struct.mojo::internal::Pointer.117"* %42 to i64
  %48 = sub i64 %46, %47
  %49 = select i1 %45, i64 0, i64 %48
  store i64 %49, i64* %44, align 8
  call void @llvm.lifetime.start.p0i8(i64 1, i8* nonnull %6) #11
  store i8 0, i8* %6, align 1
  %50 = call i8* @_Znwm(i64 16) #12
  %51 = bitcast i8* %50 to i32 (...)***
  store i32 (...)** bitcast (i8** getelementptr inbounds ({ [6 x i8*] }, { [6 x i8*] }* @_ZTVN7network5mojom5blink62NetworkServiceTest_SetSCTAuditingRetryDelay_HandleSyncResponseE, i64 0, inrange i32 0, i64 2) to i32 (...)**), i32 (...)*** %51, align 8
  %52 = getelementptr inbounds i8, i8* %50, i64 8
  %53 = bitcast i8* %52 to i8**
  store i8* %6, i8** %53, align 8
  %54 = bitcast i8* %50 to %"class.mojo::MessageReceiver"*
  %55 = getelementptr inbounds %"class.network::mojom::blink::NetworkServiceTestProxy", %"class.network::mojom::blink::NetworkServiceTestProxy"* %0, i64 0, i32 1
  %56 = load %"class.mojo::MessageReceiverWithResponder"*, %"class.mojo::MessageReceiverWithResponder"** %55, align 8
  %57 = bitcast %"class.mojo::MessageReceiverWithResponder"* %56 to i1 (%"class.mojo::MessageReceiverWithResponder"*, %"class.mojo::Message"*, %"class.mojo::MessageReceiver"*)***
  %58 = load i1 (%"class.mojo::MessageReceiverWithResponder"*, %"class.mojo::Message"*, %"class.mojo::MessageReceiver"*)**, i1 (%"class.mojo::MessageReceiverWithResponder"*, %"class.mojo::Message"*, %"class.mojo::MessageReceiver"*)*** %57, align 8
  %59 = getelementptr inbounds i1 (%"class.mojo::MessageReceiverWithResponder"*, %"class.mojo::Message"*, %"class.mojo::MessageReceiver"*)*, i1 (%"class.mojo::MessageReceiverWithResponder"*, %"class.mojo::Message"*, %"class.mojo::MessageReceiver"*)** %58, i64 4
  %60 = load i1 (%"class.mojo::MessageReceiverWithResponder"*, %"class.mojo::Message"*, %"class.mojo::MessageReceiver"*)*, i1 (%"class.mojo::MessageReceiverWithResponder"*, %"class.mojo::Message"*, %"class.mojo::MessageReceiver"*)** %59, align 8
  %61 = call zeroext i1 %60(%"class.mojo::MessageReceiverWithResponder"* %56, %"class.mojo::Message"* nonnull %5, %"class.mojo::MessageReceiver"* nonnull %54) #11
  %62 = load i8, i8* %6, align 1, !range !4
  %63 = icmp ne i8 %62, 0
  call void @llvm.lifetime.end.p0i8(i64 1, i8* nonnull %6) #11
  call void @_ZN4mojo7MessageD1Ev(%"class.mojo::Message"* nonnull %5) #11
  call void @llvm.lifetime.end.p0i8(i64 120, i8* nonnull %9) #11
  ret i1 %63
}

; Function Attrs: nounwind ssp uwtable
define hidden void @_ZN7network5mojom5blink23NetworkServiceTestProxy24SetSCTAuditingRetryDelayEN4absl8optionalIN4base9TimeDeltaEEENS5_12OnceCallbackIFvvEEE(%"class.network::mojom::blink::NetworkServiceTestProxy"* nocapture readonly, i8, i64, %"class.base::OnceCallback"* nocapture) unnamed_addr #0 align 2 {
  %5 = alloca %"class.absl::optional.73", align 8
  %6 = alloca %"class.mojo::Message", align 8
  %7 = alloca %"class.base::OnceCallback", align 8
  %8 = getelementptr inbounds %"class.absl::optional.73", %"class.absl::optional.73"* %5, i64 0, i32 0, i32 0, i32 0, i32 0
  store i8 %1, i8* %8, align 8
  %9 = getelementptr inbounds %"class.absl::optional.73", %"class.absl::optional.73"* %5, i64 0, i32 0, i32 0, i32 0, i32 1, i32 0, i32 0
  store i64 %2, i64* %9, align 8
  %10 = bitcast %"class.mojo::Message"* %6 to i8*
  call void @llvm.lifetime.start.p0i8(i64 120, i8* nonnull %10) #11
  call void @llvm.memset.p0i8.i64(i8* nonnull align 8 %10, i8 -86, i64 120, i1 false)
  call void @_ZN4mojo7MessageC1EjjmmPNSt3__16vectorINS_16ScopedHandleBaseINS_6HandleEEENS1_9allocatorIS5_EEEE(%"class.mojo::Message"* nonnull %6, i32 177127893, i32 1, i64 0, i64 0, %"class.std::__1::vector"* null) #11
  %11 = getelementptr inbounds %"class.mojo::Message", %"class.mojo::Message"* %6, i64 0, i32 1
  %12 = call i64 @_ZN4mojo8internal6Buffer8AllocateEm(%"class.mojo::internal::Buffer"* %11, i64 16) #11
  %13 = getelementptr inbounds %"class.mojo::Message", %"class.mojo::Message"* %6, i64 0, i32 1, i32 2
  %14 = load i8*, i8** %13, align 8
  %15 = getelementptr inbounds i8, i8* %14, i64 %12
  %16 = bitcast i8* %15 to %"class.network::mojom::internal::NetworkServiceTest_SetSCTAuditingRetryDelay_Params_Data"*
  call void @_ZN7network5mojom8internal55NetworkServiceTest_SetSCTAuditingRetryDelay_Params_DataC1Ev(%"class.network::mojom::internal::NetworkServiceTest_SetSCTAuditingRetryDelay_Params_Data"* %16) #11
  %17 = icmp eq i8 %1, 0
  br i1 %17, label %18, label %23

18:                                               ; preds = %4
  %19 = load i8*, i8** %13, align 8
  %20 = getelementptr inbounds i8, i8* %19, i64 %12
  %21 = getelementptr inbounds i8, i8* %20, i64 8
  %22 = bitcast i8* %21 to %"struct.mojo::internal::Pointer.117"*
  br label %42

23:                                               ; preds = %4
  %24 = getelementptr inbounds %"class.absl::optional.73", %"class.absl::optional.73"* %5, i64 0, i32 0, i32 0, i32 0, i32 1, i32 0
  %25 = call i64 @_ZN4mojo8internal6Buffer8AllocateEm(%"class.mojo::internal::Buffer"* %11, i64 16) #11
  %26 = load i8*, i8** %13, align 8
  %27 = getelementptr inbounds i8, i8* %26, i64 %25
  %28 = bitcast i8* %27 to %"class.mojo_base::mojom::internal::TimeDelta_Data"*
  call void @_ZN9mojo_base5mojom8internal14TimeDelta_DataC1Ev(%"class.mojo_base::mojom::internal::TimeDelta_Data"* %28) #11
  %29 = call i64 @_ZN4mojo12StructTraitsIN9mojo_base5mojom17TimeDeltaDataViewEN4base9TimeDeltaEE12microsecondsERKS5_(%"class.base::TimeDelta"* dereferenceable(8) %24) #11
  %30 = load i8*, i8** %13, align 8
  %31 = getelementptr inbounds i8, i8* %30, i64 %25
  %32 = getelementptr inbounds i8, i8* %31, i64 8
  %33 = bitcast i8* %32 to i64*
  store i64 %29, i64* %33, align 1
  %34 = load i8*, i8** %13, align 8
  %35 = getelementptr inbounds i8, i8* %34, i64 %12
  %36 = getelementptr inbounds i8, i8* %35, i64 8
  %37 = bitcast i8* %36 to %"struct.mojo::internal::Pointer.117"*
  %38 = icmp eq i64 %25, -1
  br i1 %38, label %42, label %39

39:                                               ; preds = %23
  %40 = getelementptr inbounds i8, i8* %34, i64 %25
  %41 = bitcast i8* %40 to %"class.mojo_base::mojom::internal::TimeDelta_Data"*
  br label %42

42:                                               ; preds = %39, %23, %18
  %43 = phi %"struct.mojo::internal::Pointer.117"* [ %37, %39 ], [ %37, %23 ], [ %22, %18 ]
  %44 = phi %"class.mojo_base::mojom::internal::TimeDelta_Data"* [ %41, %39 ], [ null, %23 ], [ null, %18 ]
  %45 = getelementptr inbounds %"struct.mojo::internal::Pointer.117", %"struct.mojo::internal::Pointer.117"* %43, i64 0, i32 0
  %46 = icmp eq %"class.mojo_base::mojom::internal::TimeDelta_Data"* %44, null
  %47 = ptrtoint %"class.mojo_base::mojom::internal::TimeDelta_Data"* %44 to i64
  %48 = ptrtoint %"struct.mojo::internal::Pointer.117"* %43 to i64
  %49 = sub i64 %47, %48
  %50 = select i1 %46, i64 0, i64 %49
  store i64 %50, i64* %45, align 8
  %51 = call i8* @_Znwm(i64 16) #12
  %52 = getelementptr inbounds %"class.base::OnceCallback", %"class.base::OnceCallback"* %3, i64 0, i32 0, i32 0, i32 0
  %53 = bitcast %"class.base::OnceCallback"* %3 to i64*
  %54 = load i64, i64* %53, align 8
  store %"class.base::internal::BindStateBase"* null, %"class.base::internal::BindStateBase"** %52, align 8
  %55 = bitcast i8* %51 to i32 (...)***
  store i32 (...)** bitcast (i8** getelementptr inbounds ({ [6 x i8*] }, { [6 x i8*] }* @_ZTVN7network5mojom5blink61NetworkServiceTest_SetSCTAuditingRetryDelay_ForwardToCallbackE, i64 0, inrange i32 0, i64 2) to i32 (...)**), i32 (...)*** %55, align 8
  %56 = getelementptr inbounds i8, i8* %51, i64 8
  %57 = getelementptr inbounds %"class.base::OnceCallback", %"class.base::OnceCallback"* %7, i64 0, i32 0, i32 0, i32 0
  %58 = bitcast i8* %56 to i64*
  store i64 %54, i64* %58, align 8
  store %"class.base::internal::BindStateBase"* null, %"class.base::internal::BindStateBase"** %57, align 8
  %59 = bitcast i8* %51 to %"class.mojo::MessageReceiver"*
  %60 = getelementptr inbounds %"class.base::OnceCallback", %"class.base::OnceCallback"* %7, i64 0, i32 0
  call void @_ZN4base8internal12CallbackBaseD2Ev(%"class.base::internal::CallbackBase"* nonnull %60) #11
  %61 = getelementptr inbounds %"class.network::mojom::blink::NetworkServiceTestProxy", %"class.network::mojom::blink::NetworkServiceTestProxy"* %0, i64 0, i32 1
  %62 = load %"class.mojo::MessageReceiverWithResponder"*, %"class.mojo::MessageReceiverWithResponder"** %61, align 8
  %63 = bitcast %"class.mojo::MessageReceiverWithResponder"* %62 to i1 (%"class.mojo::MessageReceiverWithResponder"*, %"class.mojo::Message"*, %"class.mojo::MessageReceiver"*)***
  %64 = load i1 (%"class.mojo::MessageReceiverWithResponder"*, %"class.mojo::Message"*, %"class.mojo::MessageReceiver"*)**, i1 (%"class.mojo::MessageReceiverWithResponder"*, %"class.mojo::Message"*, %"class.mojo::MessageReceiver"*)*** %63, align 8
  %65 = getelementptr inbounds i1 (%"class.mojo::MessageReceiverWithResponder"*, %"class.mojo::Message"*, %"class.mojo::MessageReceiver"*)*, i1 (%"class.mojo::MessageReceiverWithResponder"*, %"class.mojo::Message"*, %"class.mojo::MessageReceiver"*)** %64, i64 4
  %66 = load i1 (%"class.mojo::MessageReceiverWithResponder"*, %"class.mojo::Message"*, %"class.mojo::MessageReceiver"*)*, i1 (%"class.mojo::MessageReceiverWithResponder"*, %"class.mojo::Message"*, %"class.mojo::MessageReceiver"*)** %65, align 8
  %67 = call zeroext i1 %66(%"class.mojo::MessageReceiverWithResponder"* %62, %"class.mojo::Message"* nonnull %6, %"class.mojo::MessageReceiver"* nonnull %59) #11
  call void @_ZN4mojo7MessageD1Ev(%"class.mojo::Message"* nonnull %6) #11
  call void @llvm.lifetime.end.p0i8(i64 120, i8* nonnull %10) #11
  ret void
}

; Function Attrs: nounwind ssp uwtable
define hidden zeroext i1 @_ZN7network5mojom5blink23NetworkServiceTestProxy33GetSCTAuditingPendingReportsCountEPm(%"class.network::mojom::blink::NetworkServiceTestProxy"* nocapture readonly, i64*) unnamed_addr #0 align 2 {
  %3 = alloca %"class.mojo::Message", align 8
  %4 = alloca i8, align 1
  %5 = bitcast %"class.mojo::Message"* %3 to i8*
  call void @llvm.lifetime.start.p0i8(i64 120, i8* nonnull %5) #11
  call void @llvm.memset.p0i8.i64(i8* nonnull align 8 %5, i8 -86, i64 120, i1 false)
  call void @_ZN4mojo7MessageC1EjjmmPNSt3__16vectorINS_16ScopedHandleBaseINS_6HandleEEENS1_9allocatorIS5_EEEE(%"class.mojo::Message"* nonnull %3, i32 1623448593, i32 5, i64 0, i64 0, %"class.std::__1::vector"* null) #11
  %6 = getelementptr inbounds %"class.mojo::Message", %"class.mojo::Message"* %3, i64 0, i32 1
  %7 = call i64 @_ZN4mojo8internal6Buffer8AllocateEm(%"class.mojo::internal::Buffer"* %6, i64 8) #11
  %8 = getelementptr inbounds %"class.mojo::Message", %"class.mojo::Message"* %3, i64 0, i32 1, i32 2
  %9 = load i8*, i8** %8, align 8
  %10 = getelementptr inbounds i8, i8* %9, i64 %7
  %11 = bitcast i8* %10 to %"class.network::mojom::internal::NetworkServiceTest_GetSCTAuditingPendingReportsCount_Params_Data"*
  call void @_ZN7network5mojom8internal64NetworkServiceTest_GetSCTAuditingPendingReportsCount_Params_DataC1Ev(%"class.network::mojom::internal::NetworkServiceTest_GetSCTAuditingPendingReportsCount_Params_Data"* %11) #11
  call void @llvm.lifetime.start.p0i8(i64 1, i8* nonnull %4) #11
  store i8 0, i8* %4, align 1
  %12 = call i8* @_Znwm(i64 24) #12
  %13 = bitcast i8* %12 to i32 (...)***
  store i32 (...)** bitcast (i8** getelementptr inbounds ({ [6 x i8*] }, { [6 x i8*] }* @_ZTVN7network5mojom5blink71NetworkServiceTest_GetSCTAuditingPendingReportsCount_HandleSyncResponseE, i64 0, inrange i32 0, i64 2) to i32 (...)**), i32 (...)*** %13, align 8
  %14 = getelementptr inbounds i8, i8* %12, i64 8
  %15 = bitcast i8* %14 to i8**
  store i8* %4, i8** %15, align 8
  %16 = getelementptr inbounds i8, i8* %12, i64 16
  %17 = bitcast i8* %16 to i64**
  store i64* %1, i64** %17, align 8
  %18 = bitcast i8* %12 to %"class.mojo::MessageReceiver"*
  %19 = getelementptr inbounds %"class.network::mojom::blink::NetworkServiceTestProxy", %"class.network::mojom::blink::NetworkServiceTestProxy"* %0, i64 0, i32 1
  %20 = load %"class.mojo::MessageReceiverWithResponder"*, %"class.mojo::MessageReceiverWithResponder"** %19, align 8
  %21 = bitcast %"class.mojo::MessageReceiverWithResponder"* %20 to i1 (%"class.mojo::MessageReceiverWithResponder"*, %"class.mojo::Message"*, %"class.mojo::MessageReceiver"*)***
  %22 = load i1 (%"class.mojo::MessageReceiverWithResponder"*, %"class.mojo::Message"*, %"class.mojo::MessageReceiver"*)**, i1 (%"class.mojo::MessageReceiverWithResponder"*, %"class.mojo::Message"*, %"class.mojo::MessageReceiver"*)*** %21, align 8
  %23 = getelementptr inbounds i1 (%"class.mojo::MessageReceiverWithResponder"*, %"class.mojo::Message"*, %"class.mojo::MessageReceiver"*)*, i1 (%"class.mojo::MessageReceiverWithResponder"*, %"class.mojo::Message"*, %"class.mojo::MessageReceiver"*)** %22, i64 4
  %24 = load i1 (%"class.mojo::MessageReceiverWithResponder"*, %"class.mojo::Message"*, %"class.mojo::MessageReceiver"*)*, i1 (%"class.mojo::MessageReceiverWithResponder"*, %"class.mojo::Message"*, %"class.mojo::MessageReceiver"*)** %23, align 8
  %25 = call zeroext i1 %24(%"class.mojo::MessageReceiverWithResponder"* %20, %"class.mojo::Message"* nonnull %3, %"class.mojo::MessageReceiver"* nonnull %18) #11
  %26 = load i8, i8* %4, align 1, !range !4
  %27 = icmp ne i8 %26, 0
  call void @llvm.lifetime.end.p0i8(i64 1, i8* nonnull %4) #11
  call void @_ZN4mojo7MessageD1Ev(%"class.mojo::Message"* nonnull %3) #11
  call void @llvm.lifetime.end.p0i8(i64 120, i8* nonnull %5) #11
  ret i1 %27
}

; Function Attrs: nounwind ssp uwtable
define hidden void @_ZN7network5mojom5blink23NetworkServiceTestProxy33GetSCTAuditingPendingReportsCountEN4base12OnceCallbackIFvmEEE(%"class.network::mojom::blink::NetworkServiceTestProxy"* nocapture readonly, %"class.base::OnceCallback.119"* nocapture) unnamed_addr #0 align 2 {
  %3 = alloca %"class.mojo::Message", align 8
  %4 = alloca %"class.base::OnceCallback.119", align 8
  %5 = bitcast %"class.mojo::Message"* %3 to i8*
  call void @llvm.lifetime.start.p0i8(i64 120, i8* nonnull %5) #11
  call void @llvm.memset.p0i8.i64(i8* nonnull align 8 %5, i8 -86, i64 120, i1 false)
  call void @_ZN4mojo7MessageC1EjjmmPNSt3__16vectorINS_16ScopedHandleBaseINS_6HandleEEENS1_9allocatorIS5_EEEE(%"class.mojo::Message"* nonnull %3, i32 1623448593, i32 1, i64 0, i64 0, %"class.std::__1::vector"* null) #11
  %6 = getelementptr inbounds %"class.mojo::Message", %"class.mojo::Message"* %3, i64 0, i32 1
  %7 = call i64 @_ZN4mojo8internal6Buffer8AllocateEm(%"class.mojo::internal::Buffer"* %6, i64 8) #11
  %8 = getelementptr inbounds %"class.mojo::Message", %"class.mojo::Message"* %3, i64 0, i32 1, i32 2
  %9 = load i8*, i8** %8, align 8
  %10 = getelementptr inbounds i8, i8* %9, i64 %7
  %11 = bitcast i8* %10 to %"class.network::mojom::internal::NetworkServiceTest_GetSCTAuditingPendingReportsCount_Params_Data"*
  call void @_ZN7network5mojom8internal64NetworkServiceTest_GetSCTAuditingPendingReportsCount_Params_DataC1Ev(%"class.network::mojom::internal::NetworkServiceTest_GetSCTAuditingPendingReportsCount_Params_Data"* %11) #11
  %12 = call i8* @_Znwm(i64 16) #12
  %13 = getelementptr inbounds %"class.base::OnceCallback.119", %"class.base::OnceCallback.119"* %1, i64 0, i32 0, i32 0, i32 0
  %14 = bitcast %"class.base::OnceCallback.119"* %1 to i64*
  %15 = load i64, i64* %14, align 8
  store %"class.base::internal::BindStateBase"* null, %"class.base::internal::BindStateBase"** %13, align 8
  %16 = bitcast i8* %12 to i32 (...)***
  store i32 (...)** bitcast (i8** getelementptr inbounds ({ [6 x i8*] }, { [6 x i8*] }* @_ZTVN7network5mojom5blink70NetworkServiceTest_GetSCTAuditingPendingReportsCount_ForwardToCallbackE, i64 0, inrange i32 0, i64 2) to i32 (...)**), i32 (...)*** %16, align 8
  %17 = getelementptr inbounds i8, i8* %12, i64 8
  %18 = getelementptr inbounds %"class.base::OnceCallback.119", %"class.base::OnceCallback.119"* %4, i64 0, i32 0, i32 0, i32 0
  %19 = bitcast i8* %17 to i64*
  store i64 %15, i64* %19, align 8
  store %"class.base::internal::BindStateBase"* null, %"class.base::internal::BindStateBase"** %18, align 8
  %20 = bitcast i8* %12 to %"class.mojo::MessageReceiver"*
  %21 = getelementptr inbounds %"class.base::OnceCallback.119", %"class.base::OnceCallback.119"* %4, i64 0, i32 0
  call void @_ZN4base8internal12CallbackBaseD2Ev(%"class.base::internal::CallbackBase"* nonnull %21) #11
  %22 = getelementptr inbounds %"class.network::mojom::blink::NetworkServiceTestProxy", %"class.network::mojom::blink::NetworkServiceTestProxy"* %0, i64 0, i32 1
  %23 = load %"class.mojo::MessageReceiverWithResponder"*, %"class.mojo::MessageReceiverWithResponder"** %22, align 8
  %24 = bitcast %"class.mojo::MessageReceiverWithResponder"* %23 to i1 (%"class.mojo::MessageReceiverWithResponder"*, %"class.mojo::Message"*, %"class.mojo::MessageReceiver"*)***
  %25 = load i1 (%"class.mojo::MessageReceiverWithResponder"*, %"class.mojo::Message"*, %"class.mojo::MessageReceiver"*)**, i1 (%"class.mojo::MessageReceiverWithResponder"*, %"class.mojo::Message"*, %"class.mojo::MessageReceiver"*)*** %24, align 8
  %26 = getelementptr inbounds i1 (%"class.mojo::MessageReceiverWithResponder"*, %"class.mojo::Message"*, %"class.mojo::MessageReceiver"*)*, i1 (%"class.mojo::MessageReceiverWithResponder"*, %"class.mojo::Message"*, %"class.mojo::MessageReceiver"*)** %25, i64 4
  %27 = load i1 (%"class.mojo::MessageReceiverWithResponder"*, %"class.mojo::Message"*, %"class.mojo::MessageReceiver"*)*, i1 (%"class.mojo::MessageReceiverWithResponder"*, %"class.mojo::Message"*, %"class.mojo::MessageReceiver"*)** %26, align 8
  %28 = call zeroext i1 %27(%"class.mojo::MessageReceiverWithResponder"* %23, %"class.mojo::Message"* nonnull %3, %"class.mojo::MessageReceiver"* nonnull %20) #11
  call void @_ZN4mojo7MessageD1Ev(%"class.mojo::Message"* nonnull %3) #11
  call void @llvm.lifetime.end.p0i8(i64 120, i8* nonnull %5) #11
  ret void
}

; Function Attrs: nounwind ssp uwtable
define hidden void @_ZN7network5mojom5blink23NetworkServiceTestProxy38SetSCTAuditingReportCompletionCallbackEN4base12OnceCallbackIFvvEEE(%"class.network::mojom::blink::NetworkServiceTestProxy"* nocapture readonly, %"class.base::OnceCallback"* nocapture) unnamed_addr #0 align 2 {
  %3 = alloca %"class.mojo::Message", align 8
  %4 = alloca %"class.base::OnceCallback", align 8
  %5 = bitcast %"class.mojo::Message"* %3 to i8*
  call void @llvm.lifetime.start.p0i8(i64 120, i8* nonnull %5) #11
  call void @llvm.memset.p0i8.i64(i8* nonnull align 8 %5, i8 -86, i64 120, i1 false)
  call void @_ZN4mojo7MessageC1EjjmmPNSt3__16vectorINS_16ScopedHandleBaseINS_6HandleEEENS1_9allocatorIS5_EEEE(%"class.mojo::Message"* nonnull %3, i32 1816001466, i32 1, i64 0, i64 0, %"class.std::__1::vector"* null) #11
  %6 = getelementptr inbounds %"class.mojo::Message", %"class.mojo::Message"* %3, i64 0, i32 1
  %7 = call i64 @_ZN4mojo8internal6Buffer8AllocateEm(%"class.mojo::internal::Buffer"* %6, i64 8) #11
  %8 = getelementptr inbounds %"class.mojo::Message", %"class.mojo::Message"* %3, i64 0, i32 1, i32 2
  %9 = load i8*, i8** %8, align 8
  %10 = getelementptr inbounds i8, i8* %9, i64 %7
  %11 = bitcast i8* %10 to %"class.network::mojom::internal::NetworkServiceTest_SetSCTAuditingReportCompletionCallback_Params_Data"*
  call void @_ZN7network5mojom8internal69NetworkServiceTest_SetSCTAuditingReportCompletionCallback_Params_DataC1Ev(%"class.network::mojom::internal::NetworkServiceTest_SetSCTAuditingReportCompletionCallback_Params_Data"* %11) #11
  %12 = call i8* @_Znwm(i64 16) #12
  %13 = getelementptr inbounds %"class.base::OnceCallback", %"class.base::OnceCallback"* %1, i64 0, i32 0, i32 0, i32 0
  %14 = bitcast %"class.base::OnceCallback"* %1 to i64*
  %15 = load i64, i64* %14, align 8
  store %"class.base::internal::BindStateBase"* null, %"class.base::internal::BindStateBase"** %13, align 8
  %16 = bitcast i8* %12 to i32 (...)***
  store i32 (...)** bitcast (i8** getelementptr inbounds ({ [6 x i8*] }, { [6 x i8*] }* @_ZTVN7network5mojom5blink75NetworkServiceTest_SetSCTAuditingReportCompletionCallback_ForwardToCallbackE, i64 0, inrange i32 0, i64 2) to i32 (...)**), i32 (...)*** %16, align 8
  %17 = getelementptr inbounds i8, i8* %12, i64 8
  %18 = getelementptr inbounds %"class.base::OnceCallback", %"class.base::OnceCallback"* %4, i64 0, i32 0, i32 0, i32 0
  %19 = bitcast i8* %17 to i64*
  store i64 %15, i64* %19, align 8
  store %"class.base::internal::BindStateBase"* null, %"class.base::internal::BindStateBase"** %18, align 8
  %20 = bitcast i8* %12 to %"class.mojo::MessageReceiver"*
  %21 = getelementptr inbounds %"class.base::OnceCallback", %"class.base::OnceCallback"* %4, i64 0, i32 0
  call void @_ZN4base8internal12CallbackBaseD2Ev(%"class.base::internal::CallbackBase"* nonnull %21) #11
  %22 = getelementptr inbounds %"class.network::mojom::blink::NetworkServiceTestProxy", %"class.network::mojom::blink::NetworkServiceTestProxy"* %0, i64 0, i32 1
  %23 = load %"class.mojo::MessageReceiverWithResponder"*, %"class.mojo::MessageReceiverWithResponder"** %22, align 8
  %24 = bitcast %"class.mojo::MessageReceiverWithResponder"* %23 to i1 (%"class.mojo::MessageReceiverWithResponder"*, %"class.mojo::Message"*, %"class.mojo::MessageReceiver"*)***
  %25 = load i1 (%"class.mojo::MessageReceiverWithResponder"*, %"class.mojo::Message"*, %"class.mojo::MessageReceiver"*)**, i1 (%"class.mojo::MessageReceiverWithResponder"*, %"class.mojo::Message"*, %"class.mojo::MessageReceiver"*)*** %24, align 8
  %26 = getelementptr inbounds i1 (%"class.mojo::MessageReceiverWithResponder"*, %"class.mojo::Message"*, %"class.mojo::MessageReceiver"*)*, i1 (%"class.mojo::MessageReceiverWithResponder"*, %"class.mojo::Message"*, %"class.mojo::MessageReceiver"*)** %25, i64 4
  %27 = load i1 (%"class.mojo::MessageReceiverWithResponder"*, %"class.mojo::Message"*, %"class.mojo::MessageReceiver"*)*, i1 (%"class.mojo::MessageReceiverWithResponder"*, %"class.mojo::Message"*, %"class.mojo::MessageReceiver"*)** %26, align 8
  %28 = call zeroext i1 %27(%"class.mojo::MessageReceiverWithResponder"* %23, %"class.mojo::Message"* nonnull %3, %"class.mojo::MessageReceiver"* nonnull %20) #11
  call void @_ZN4mojo7MessageD1Ev(%"class.mojo::Message"* nonnull %3) #11
  call void @llvm.lifetime.end.p0i8(i64 120, i8* nonnull %5) #11
  ret void
}

; Function Attrs: nounwind ssp uwtable
define hidden zeroext i1 @_ZN7network5mojom5blink45NetworkServiceTest_AddRules_ForwardToCallback6AcceptEPN4mojo7MessageE(%"class.network::mojom::blink::NetworkServiceTest_AddRules_ForwardToCallback"* nocapture, %"class.mojo::Message"*) unnamed_addr #0 align 2 {
  %3 = alloca %"class.base::OnceCallback", align 8
  %4 = tail call i8* @_ZNK4mojo7Message7payloadEv(%"class.mojo::Message"* %1) #11
  %5 = getelementptr inbounds %"class.network::mojom::blink::NetworkServiceTest_AddRules_ForwardToCallback", %"class.network::mojom::blink::NetworkServiceTest_AddRules_ForwardToCallback"* %0, i64 0, i32 1, i32 0, i32 0, i32 0
  %6 = load %"class.base::internal::BindStateBase"*, %"class.base::internal::BindStateBase"** %5, align 8
  %7 = icmp eq %"class.base::internal::BindStateBase"* %6, null
  br i1 %7, label %16, label %8

8:                                                ; preds = %2
  %9 = ptrtoint %"class.base::internal::BindStateBase"* %6 to i64
  %10 = bitcast %"class.base::OnceCallback"* %3 to i8*
  call void @llvm.lifetime.start.p0i8(i64 8, i8* nonnull %10) #11
  %11 = bitcast %"class.base::OnceCallback"* %3 to i64*
  store i64 %9, i64* %11, align 8
  store %"class.base::internal::BindStateBase"* null, %"class.base::internal::BindStateBase"** %5, align 8
  %12 = getelementptr inbounds %"class.base::OnceCallback", %"class.base::OnceCallback"* %3, i64 0, i32 0
  %13 = getelementptr inbounds %"class.base::internal::BindStateBase", %"class.base::internal::BindStateBase"* %6, i64 0, i32 1
  %14 = bitcast void ()** %13 to void (%"class.base::internal::BindStateBase"*)**
  %15 = load void (%"class.base::internal::BindStateBase"*)*, void (%"class.base::internal::BindStateBase"*)** %14, align 8
  tail call void %15(%"class.base::internal::BindStateBase"* nonnull %6) #11
  call void @_ZN4base8internal12CallbackBaseD2Ev(%"class.base::internal::CallbackBase"* nonnull %12) #11
  call void @llvm.lifetime.end.p0i8(i64 8, i8* nonnull %10) #11
  br label %16

16:                                               ; preds = %2, %8
  ret i1 true
}

declare void @_ZN4mojo8internal31ReportValidationErrorForMessageEPNS_7MessageENS0_15ValidationErrorEPKcjb(%"class.mojo::Message"*, i32, i8*, i32, i1 zeroext) local_unnamed_addr #2

; Function Attrs: nounwind ssp uwtable
define hidden void @_ZN7network5mojom5blink44NetworkServiceTest_AddRules_ProxyToResponder3RunEv(%"class.network::mojom::blink::NetworkServiceTest_AddRules_ProxyToResponder"* nocapture) #0 align 2 {
  %2 = alloca %"class.mojo::Message", align 8
  %3 = getelementptr inbounds %"class.network::mojom::blink::NetworkServiceTest_AddRules_ProxyToResponder", %"class.network::mojom::blink::NetworkServiceTest_AddRules_ProxyToResponder"* %0, i64 0, i32 1
  %4 = load i8, i8* %3, align 8, !range !4
  %5 = icmp eq i8 %4, 0
  %6 = select i1 %5, i32 2, i32 6
  %7 = bitcast %"class.mojo::Message"* %2 to i8*
  call void @llvm.lifetime.start.p0i8(i64 120, i8* nonnull %7) #11
  call void @llvm.memset.p0i8.i64(i8* nonnull align 8 %7, i8 -86, i64 120, i1 false)
  call void @_ZN4mojo7MessageC1EjjmmPNSt3__16vectorINS_16ScopedHandleBaseINS_6HandleEEENS1_9allocatorIS5_EEEE(%"class.mojo::Message"* nonnull %2, i32 1842504132, i32 %6, i64 0, i64 0, %"class.std::__1::vector"* null) #11
  %8 = getelementptr inbounds %"class.mojo::Message", %"class.mojo::Message"* %2, i64 0, i32 1
  %9 = call i64 @_ZN4mojo8internal6Buffer8AllocateEm(%"class.mojo::internal::Buffer"* %8, i64 8) #11
  %10 = getelementptr inbounds %"class.mojo::Message", %"class.mojo::Message"* %2, i64 0, i32 1, i32 2
  %11 = load i8*, i8** %10, align 8
  %12 = getelementptr inbounds i8, i8* %11, i64 %9
  %13 = bitcast i8* %12 to %"class.network::mojom::internal::NetworkServiceTest_AddRules_ResponseParams_Data"*
  call void @_ZN7network5mojom8internal47NetworkServiceTest_AddRules_ResponseParams_DataC1Ev(%"class.network::mojom::internal::NetworkServiceTest_AddRules_ResponseParams_Data"* %13) #11
  %14 = getelementptr inbounds %"class.network::mojom::blink::NetworkServiceTest_AddRules_ProxyToResponder", %"class.network::mojom::blink::NetworkServiceTest_AddRules_ProxyToResponder"* %0, i64 0, i32 0
  %15 = load i64, i64* %14, align 8
  %16 = bitcast i8** %10 to %"struct.mojo::internal::MessageHeaderV1"**
  %17 = load %"struct.mojo::internal::MessageHeaderV1"*, %"struct.mojo::internal::MessageHeaderV1"** %16, align 8
  %18 = getelementptr inbounds %"struct.mojo::internal::MessageHeaderV1", %"struct.mojo::internal::MessageHeaderV1"* %17, i64 0, i32 1
  store i64 %15, i64* %18, align 1
  %19 = getelementptr inbounds %"class.network::mojom::blink::NetworkServiceTest_AddRules_ProxyToResponder", %"class.network::mojom::blink::NetworkServiceTest_AddRules_ProxyToResponder"* %0, i64 0, i32 2, i32 0, i32 0, i32 0
  %20 = load %"class.mojo::MessageReceiverWithStatus"*, %"class.mojo::MessageReceiverWithStatus"** %19, align 8
  %21 = getelementptr inbounds %"class.mojo::MessageReceiverWithStatus", %"class.mojo::MessageReceiverWithStatus"* %20, i64 0, i32 0
  %22 = bitcast %"class.mojo::MessageReceiverWithStatus"* %20 to i1 (%"class.mojo::MessageReceiver"*, %"class.mojo::Message"*)***
  %23 = load i1 (%"class.mojo::MessageReceiver"*, %"class.mojo::Message"*)**, i1 (%"class.mojo::MessageReceiver"*, %"class.mojo::Message"*)*** %22, align 8
  %24 = getelementptr inbounds i1 (%"class.mojo::MessageReceiver"*, %"class.mojo::Message"*)*, i1 (%"class.mojo::MessageReceiver"*, %"class.mojo::Message"*)** %23, i64 3
  %25 = load i1 (%"class.mojo::MessageReceiver"*, %"class.mojo::Message"*)*, i1 (%"class.mojo::MessageReceiver"*, %"class.mojo::Message"*)** %24, align 8
  %26 = call zeroext i1 %25(%"class.mojo::MessageReceiver"* %21, %"class.mojo::Message"* nonnull %2) #11
  %27 = load %"class.mojo::MessageReceiverWithStatus"*, %"class.mojo::MessageReceiverWithStatus"** %19, align 8
  store %"class.mojo::MessageReceiverWithStatus"* null, %"class.mojo::MessageReceiverWithStatus"** %19, align 8
  %28 = icmp eq %"class.mojo::MessageReceiverWithStatus"* %27, null
  br i1 %28, label %34, label %29

29:                                               ; preds = %1
  %30 = bitcast %"class.mojo::MessageReceiverWithStatus"* %27 to void (%"class.mojo::MessageReceiverWithStatus"*)***
  %31 = load void (%"class.mojo::MessageReceiverWithStatus"*)**, void (%"class.mojo::MessageReceiverWithStatus"*)*** %30, align 8
  %32 = getelementptr inbounds void (%"class.mojo::MessageReceiverWithStatus"*)*, void (%"class.mojo::MessageReceiverWithStatus"*)** %31, i64 1
  %33 = load void (%"class.mojo::MessageReceiverWithStatus"*)*, void (%"class.mojo::MessageReceiverWithStatus"*)** %32, align 8
  call void %33(%"class.mojo::MessageReceiverWithStatus"* nonnull %27) #11
  br label %34

34:                                               ; preds = %1, %29
  call void @_ZN4mojo7MessageD1Ev(%"class.mojo::Message"* nonnull %2) #11
  call void @llvm.lifetime.end.p0i8(i64 120, i8* nonnull %7) #11
  ret void
}

; Function Attrs: nounwind ssp uwtable
define hidden zeroext i1 @_ZN7network5mojom5blink46NetworkServiceTest_AddRules_HandleSyncResponse6AcceptEPN4mojo7MessageE(%"class.network::mojom::blink::NetworkServiceTest_AddRules_HandleSyncResponse"* nocapture readonly, %"class.mojo::Message"*) unnamed_addr #0 align 2 {
  %3 = tail call i8* @_ZNK4mojo7Message7payloadEv(%"class.mojo::Message"* %1) #11
  %4 = getelementptr inbounds %"class.network::mojom::blink::NetworkServiceTest_AddRules_HandleSyncResponse", %"class.network::mojom::blink::NetworkServiceTest_AddRules_HandleSyncResponse"* %0, i64 0, i32 1
  %5 = load i8*, i8** %4, align 8
  store i8 1, i8* %5, align 1
  ret i1 true
}

; Function Attrs: nounwind ssp uwtable
define hidden zeroext i1 @_ZN7network5mojom5blink58NetworkServiceTest_SimulateNetworkChange_ForwardToCallback6AcceptEPN4mojo7MessageE(%"class.network::mojom::blink::NetworkServiceTest_SimulateNetworkChange_ForwardToCallback"* nocapture, %"class.mojo::Message"*) unnamed_addr #0 align 2 {
  %3 = alloca %"class.base::OnceCallback", align 8
  %4 = tail call i8* @_ZNK4mojo7Message7payloadEv(%"class.mojo::Message"* %1) #11
  %5 = getelementptr inbounds %"class.network::mojom::blink::NetworkServiceTest_SimulateNetworkChange_ForwardToCallback", %"class.network::mojom::blink::NetworkServiceTest_SimulateNetworkChange_ForwardToCallback"* %0, i64 0, i32 1, i32 0, i32 0, i32 0
  %6 = load %"class.base::internal::BindStateBase"*, %"class.base::internal::BindStateBase"** %5, align 8
  %7 = icmp eq %"class.base::internal::BindStateBase"* %6, null
  br i1 %7, label %16, label %8

8:                                                ; preds = %2
  %9 = ptrtoint %"class.base::internal::BindStateBase"* %6 to i64
  %10 = bitcast %"class.base::OnceCallback"* %3 to i8*
  call void @llvm.lifetime.start.p0i8(i64 8, i8* nonnull %10) #11
  %11 = bitcast %"class.base::OnceCallback"* %3 to i64*
  store i64 %9, i64* %11, align 8
  store %"class.base::internal::BindStateBase"* null, %"class.base::internal::BindStateBase"** %5, align 8
  %12 = getelementptr inbounds %"class.base::OnceCallback", %"class.base::OnceCallback"* %3, i64 0, i32 0
  %13 = getelementptr inbounds %"class.base::internal::BindStateBase", %"class.base::internal::BindStateBase"* %6, i64 0, i32 1
  %14 = bitcast void ()** %13 to void (%"class.base::internal::BindStateBase"*)**
  %15 = load void (%"class.base::internal::BindStateBase"*)*, void (%"class.base::internal::BindStateBase"*)** %14, align 8
  tail call void %15(%"class.base::internal::BindStateBase"* nonnull %6) #11
  call void @_ZN4base8internal12CallbackBaseD2Ev(%"class.base::internal::CallbackBase"* nonnull %12) #11
  call void @llvm.lifetime.end.p0i8(i64 8, i8* nonnull %10) #11
  br label %16

16:                                               ; preds = %2, %8
  ret i1 true
}

; Function Attrs: nounwind ssp uwtable
define hidden void @_ZN7network5mojom5blink57NetworkServiceTest_SimulateNetworkChange_ProxyToResponder3RunEv(%"class.network::mojom::blink::NetworkServiceTest_SimulateNetworkChange_ProxyToResponder"* nocapture) #0 align 2 {
  %2 = alloca %"class.mojo::Message", align 8
  %3 = getelementptr inbounds %"class.network::mojom::blink::NetworkServiceTest_SimulateNetworkChange_ProxyToResponder", %"class.network::mojom::blink::NetworkServiceTest_SimulateNetworkChange_ProxyToResponder"* %0, i64 0, i32 1
  %4 = load i8, i8* %3, align 8, !range !4
  %5 = icmp eq i8 %4, 0
  %6 = select i1 %5, i32 2, i32 6
  %7 = bitcast %"class.mojo::Message"* %2 to i8*
  call void @llvm.lifetime.start.p0i8(i64 120, i8* nonnull %7) #11
  call void @llvm.memset.p0i8.i64(i8* nonnull align 8 %7, i8 -86, i64 120, i1 false)
  call void @_ZN4mojo7MessageC1EjjmmPNSt3__16vectorINS_16ScopedHandleBaseINS_6HandleEEENS1_9allocatorIS5_EEEE(%"class.mojo::Message"* nonnull %2, i32 770970789, i32 %6, i64 0, i64 0, %"class.std::__1::vector"* null) #11
  %8 = getelementptr inbounds %"class.mojo::Message", %"class.mojo::Message"* %2, i64 0, i32 1
  %9 = call i64 @_ZN4mojo8internal6Buffer8AllocateEm(%"class.mojo::internal::Buffer"* %8, i64 8) #11
  %10 = getelementptr inbounds %"class.mojo::Message", %"class.mojo::Message"* %2, i64 0, i32 1, i32 2
  %11 = load i8*, i8** %10, align 8
  %12 = getelementptr inbounds i8, i8* %11, i64 %9
  %13 = bitcast i8* %12 to %"class.network::mojom::internal::NetworkServiceTest_SimulateNetworkChange_ResponseParams_Data"*
  call void @_ZN7network5mojom8internal60NetworkServiceTest_SimulateNetworkChange_ResponseParams_DataC1Ev(%"class.network::mojom::internal::NetworkServiceTest_SimulateNetworkChange_ResponseParams_Data"* %13) #11
  %14 = getelementptr inbounds %"class.network::mojom::blink::NetworkServiceTest_SimulateNetworkChange_ProxyToResponder", %"class.network::mojom::blink::NetworkServiceTest_SimulateNetworkChange_ProxyToResponder"* %0, i64 0, i32 0
  %15 = load i64, i64* %14, align 8
  %16 = bitcast i8** %10 to %"struct.mojo::internal::MessageHeaderV1"**
  %17 = load %"struct.mojo::internal::MessageHeaderV1"*, %"struct.mojo::internal::MessageHeaderV1"** %16, align 8
  %18 = getelementptr inbounds %"struct.mojo::internal::MessageHeaderV1", %"struct.mojo::internal::MessageHeaderV1"* %17, i64 0, i32 1
  store i64 %15, i64* %18, align 1
  %19 = getelementptr inbounds %"class.network::mojom::blink::NetworkServiceTest_SimulateNetworkChange_ProxyToResponder", %"class.network::mojom::blink::NetworkServiceTest_SimulateNetworkChange_ProxyToResponder"* %0, i64 0, i32 2, i32 0, i32 0, i32 0
  %20 = load %"class.mojo::MessageReceiverWithStatus"*, %"class.mojo::MessageReceiverWithStatus"** %19, align 8
  %21 = getelementptr inbounds %"class.mojo::MessageReceiverWithStatus", %"class.mojo::MessageReceiverWithStatus"* %20, i64 0, i32 0
  %22 = bitcast %"class.mojo::MessageReceiverWithStatus"* %20 to i1 (%"class.mojo::MessageReceiver"*, %"class.mojo::Message"*)***
  %23 = load i1 (%"class.mojo::MessageReceiver"*, %"class.mojo::Message"*)**, i1 (%"class.mojo::MessageReceiver"*, %"class.mojo::Message"*)*** %22, align 8
  %24 = getelementptr inbounds i1 (%"class.mojo::MessageReceiver"*, %"class.mojo::Message"*)*, i1 (%"class.mojo::MessageReceiver"*, %"class.mojo::Message"*)** %23, i64 3
  %25 = load i1 (%"class.mojo::MessageReceiver"*, %"class.mojo::Message"*)*, i1 (%"class.mojo::MessageReceiver"*, %"class.mojo::Message"*)** %24, align 8
  %26 = call zeroext i1 %25(%"class.mojo::MessageReceiver"* %21, %"class.mojo::Message"* nonnull %2) #11
  %27 = load %"class.mojo::MessageReceiverWithStatus"*, %"class.mojo::MessageReceiverWithStatus"** %19, align 8
  store %"class.mojo::MessageReceiverWithStatus"* null, %"class.mojo::MessageReceiverWithStatus"** %19, align 8
  %28 = icmp eq %"class.mojo::MessageReceiverWithStatus"* %27, null
  br i1 %28, label %34, label %29

29:                                               ; preds = %1
  %30 = bitcast %"class.mojo::MessageReceiverWithStatus"* %27 to void (%"class.mojo::MessageReceiverWithStatus"*)***
  %31 = load void (%"class.mojo::MessageReceiverWithStatus"*)**, void (%"class.mojo::MessageReceiverWithStatus"*)*** %30, align 8
  %32 = getelementptr inbounds void (%"class.mojo::MessageReceiverWithStatus"*)*, void (%"class.mojo::MessageReceiverWithStatus"*)** %31, i64 1
  %33 = load void (%"class.mojo::MessageReceiverWithStatus"*)*, void (%"class.mojo::MessageReceiverWithStatus"*)** %32, align 8
  call void %33(%"class.mojo::MessageReceiverWithStatus"* nonnull %27) #11
  br label %34

34:                                               ; preds = %1, %29
  call void @_ZN4mojo7MessageD1Ev(%"class.mojo::Message"* nonnull %2) #11
  call void @llvm.lifetime.end.p0i8(i64 120, i8* nonnull %7) #11
  ret void
}

; Function Attrs: nounwind ssp uwtable
define hidden zeroext i1 @_ZN7network5mojom5blink65NetworkServiceTest_SimulateNetworkQualityChange_ForwardToCallback6AcceptEPN4mojo7MessageE(%"class.network::mojom::blink::NetworkServiceTest_SimulateNetworkQualityChange_ForwardToCallback"* nocapture, %"class.mojo::Message"*) unnamed_addr #0 align 2 {
  %3 = alloca %"class.base::OnceCallback", align 8
  %4 = tail call i8* @_ZNK4mojo7Message7payloadEv(%"class.mojo::Message"* %1) #11
  %5 = getelementptr inbounds %"class.network::mojom::blink::NetworkServiceTest_SimulateNetworkQualityChange_ForwardToCallback", %"class.network::mojom::blink::NetworkServiceTest_SimulateNetworkQualityChange_ForwardToCallback"* %0, i64 0, i32 1, i32 0, i32 0, i32 0
  %6 = load %"class.base::internal::BindStateBase"*, %"class.base::internal::BindStateBase"** %5, align 8
  %7 = icmp eq %"class.base::internal::BindStateBase"* %6, null
  br i1 %7, label %16, label %8

8:                                                ; preds = %2
  %9 = ptrtoint %"class.base::internal::BindStateBase"* %6 to i64
  %10 = bitcast %"class.base::OnceCallback"* %3 to i8*
  call void @llvm.lifetime.start.p0i8(i64 8, i8* nonnull %10) #11
  %11 = bitcast %"class.base::OnceCallback"* %3 to i64*
  store i64 %9, i64* %11, align 8
  store %"class.base::internal::BindStateBase"* null, %"class.base::internal::BindStateBase"** %5, align 8
  %12 = getelementptr inbounds %"class.base::OnceCallback", %"class.base::OnceCallback"* %3, i64 0, i32 0
  %13 = getelementptr inbounds %"class.base::internal::BindStateBase", %"class.base::internal::BindStateBase"* %6, i64 0, i32 1
  %14 = bitcast void ()** %13 to void (%"class.base::internal::BindStateBase"*)**
  %15 = load void (%"class.base::internal::BindStateBase"*)*, void (%"class.base::internal::BindStateBase"*)** %14, align 8
  tail call void %15(%"class.base::internal::BindStateBase"* nonnull %6) #11
  call void @_ZN4base8internal12CallbackBaseD2Ev(%"class.base::internal::CallbackBase"* nonnull %12) #11
  call void @llvm.lifetime.end.p0i8(i64 8, i8* nonnull %10) #11
  br label %16

16:                                               ; preds = %2, %8
  ret i1 true
}

; Function Attrs: nounwind ssp uwtable
define hidden void @_ZN7network5mojom5blink64NetworkServiceTest_SimulateNetworkQualityChange_ProxyToResponder3RunEv(%"class.network::mojom::blink::NetworkServiceTest_SimulateNetworkQualityChange_ProxyToResponder"* nocapture) #0 align 2 {
  %2 = alloca %"class.mojo::Message", align 8
  %3 = getelementptr inbounds %"class.network::mojom::blink::NetworkServiceTest_SimulateNetworkQualityChange_ProxyToResponder", %"class.network::mojom::blink::NetworkServiceTest_SimulateNetworkQualityChange_ProxyToResponder"* %0, i64 0, i32 1
  %4 = load i8, i8* %3, align 8, !range !4
  %5 = icmp eq i8 %4, 0
  %6 = select i1 %5, i32 2, i32 6
  %7 = bitcast %"class.mojo::Message"* %2 to i8*
  call void @llvm.lifetime.start.p0i8(i64 120, i8* nonnull %7) #11
  call void @llvm.memset.p0i8.i64(i8* nonnull align 8 %7, i8 -86, i64 120, i1 false)
  call void @_ZN4mojo7MessageC1EjjmmPNSt3__16vectorINS_16ScopedHandleBaseINS_6HandleEEENS1_9allocatorIS5_EEEE(%"class.mojo::Message"* nonnull %2, i32 529548984, i32 %6, i64 0, i64 0, %"class.std::__1::vector"* null) #11
  %8 = getelementptr inbounds %"class.mojo::Message", %"class.mojo::Message"* %2, i64 0, i32 1
  %9 = call i64 @_ZN4mojo8internal6Buffer8AllocateEm(%"class.mojo::internal::Buffer"* %8, i64 8) #11
  %10 = getelementptr inbounds %"class.mojo::Message", %"class.mojo::Message"* %2, i64 0, i32 1, i32 2
  %11 = load i8*, i8** %10, align 8
  %12 = getelementptr inbounds i8, i8* %11, i64 %9
  %13 = bitcast i8* %12 to %"class.network::mojom::internal::NetworkServiceTest_SimulateNetworkQualityChange_ResponseParams_Data"*
  call void @_ZN7network5mojom8internal67NetworkServiceTest_SimulateNetworkQualityChange_ResponseParams_DataC1Ev(%"class.network::mojom::internal::NetworkServiceTest_SimulateNetworkQualityChange_ResponseParams_Data"* %13) #11
  %14 = getelementptr inbounds %"class.network::mojom::blink::NetworkServiceTest_SimulateNetworkQualityChange_ProxyToResponder", %"class.network::mojom::blink::NetworkServiceTest_SimulateNetworkQualityChange_ProxyToResponder"* %0, i64 0, i32 0
  %15 = load i64, i64* %14, align 8
  %16 = bitcast i8** %10 to %"struct.mojo::internal::MessageHeaderV1"**
  %17 = load %"struct.mojo::internal::MessageHeaderV1"*, %"struct.mojo::internal::MessageHeaderV1"** %16, align 8
  %18 = getelementptr inbounds %"struct.mojo::internal::MessageHeaderV1", %"struct.mojo::internal::MessageHeaderV1"* %17, i64 0, i32 1
  store i64 %15, i64* %18, align 1
  %19 = getelementptr inbounds %"class.network::mojom::blink::NetworkServiceTest_SimulateNetworkQualityChange_ProxyToResponder", %"class.network::mojom::blink::NetworkServiceTest_SimulateNetworkQualityChange_ProxyToResponder"* %0, i64 0, i32 2, i32 0, i32 0, i32 0
  %20 = load %"class.mojo::MessageReceiverWithStatus"*, %"class.mojo::MessageReceiverWithStatus"** %19, align 8
  %21 = getelementptr inbounds %"class.mojo::MessageReceiverWithStatus", %"class.mojo::MessageReceiverWithStatus"* %20, i64 0, i32 0
  %22 = bitcast %"class.mojo::MessageReceiverWithStatus"* %20 to i1 (%"class.mojo::MessageReceiver"*, %"class.mojo::Message"*)***
  %23 = load i1 (%"class.mojo::MessageReceiver"*, %"class.mojo::Message"*)**, i1 (%"class.mojo::MessageReceiver"*, %"class.mojo::Message"*)*** %22, align 8
  %24 = getelementptr inbounds i1 (%"class.mojo::MessageReceiver"*, %"class.mojo::Message"*)*, i1 (%"class.mojo::MessageReceiver"*, %"class.mojo::Message"*)** %23, i64 3
  %25 = load i1 (%"class.mojo::MessageReceiver"*, %"class.mojo::Message"*)*, i1 (%"class.mojo::MessageReceiver"*, %"class.mojo::Message"*)** %24, align 8
  %26 = call zeroext i1 %25(%"class.mojo::MessageReceiver"* %21, %"class.mojo::Message"* nonnull %2) #11
  %27 = load %"class.mojo::MessageReceiverWithStatus"*, %"class.mojo::MessageReceiverWithStatus"** %19, align 8
  store %"class.mojo::MessageReceiverWithStatus"* null, %"class.mojo::MessageReceiverWithStatus"** %19, align 8
  %28 = icmp eq %"class.mojo::MessageReceiverWithStatus"* %27, null
  br i1 %28, label %34, label %29

29:                                               ; preds = %1
  %30 = bitcast %"class.mojo::MessageReceiverWithStatus"* %27 to void (%"class.mojo::MessageReceiverWithStatus"*)***
  %31 = load void (%"class.mojo::MessageReceiverWithStatus"*)**, void (%"class.mojo::MessageReceiverWithStatus"*)*** %30, align 8
  %32 = getelementptr inbounds void (%"class.mojo::MessageReceiverWithStatus"*)*, void (%"class.mojo::MessageReceiverWithStatus"*)** %31, i64 1
  %33 = load void (%"class.mojo::MessageReceiverWithStatus"*)*, void (%"class.mojo::MessageReceiverWithStatus"*)** %32, align 8
  call void %33(%"class.mojo::MessageReceiverWithStatus"* nonnull %27) #11
  br label %34

34:                                               ; preds = %1, %29
  call void @_ZN4mojo7MessageD1Ev(%"class.mojo::Message"* nonnull %2) #11
  call void @llvm.lifetime.end.p0i8(i64 120, i8* nonnull %7) #11
  ret void
}

; Function Attrs: nounwind ssp uwtable
define hidden zeroext i1 @_ZN7network5mojom5blink69NetworkServiceTest_MockCertVerifierSetDefaultResult_ForwardToCallback6AcceptEPN4mojo7MessageE(%"class.network::mojom::blink::NetworkServiceTest_MockCertVerifierSetDefaultResult_ForwardToCallback"* nocapture, %"class.mojo::Message"*) unnamed_addr #0 align 2 {
  %3 = alloca %"class.base::OnceCallback", align 8
  %4 = tail call i8* @_ZNK4mojo7Message7payloadEv(%"class.mojo::Message"* %1) #11
  %5 = getelementptr inbounds %"class.network::mojom::blink::NetworkServiceTest_MockCertVerifierSetDefaultResult_ForwardToCallback", %"class.network::mojom::blink::NetworkServiceTest_MockCertVerifierSetDefaultResult_ForwardToCallback"* %0, i64 0, i32 1, i32 0, i32 0, i32 0
  %6 = load %"class.base::internal::BindStateBase"*, %"class.base::internal::BindStateBase"** %5, align 8
  %7 = icmp eq %"class.base::internal::BindStateBase"* %6, null
  br i1 %7, label %16, label %8

8:                                                ; preds = %2
  %9 = ptrtoint %"class.base::internal::BindStateBase"* %6 to i64
  %10 = bitcast %"class.base::OnceCallback"* %3 to i8*
  call void @llvm.lifetime.start.p0i8(i64 8, i8* nonnull %10) #11
  %11 = bitcast %"class.base::OnceCallback"* %3 to i64*
  store i64 %9, i64* %11, align 8
  store %"class.base::internal::BindStateBase"* null, %"class.base::internal::BindStateBase"** %5, align 8
  %12 = getelementptr inbounds %"class.base::OnceCallback", %"class.base::OnceCallback"* %3, i64 0, i32 0
  %13 = getelementptr inbounds %"class.base::internal::BindStateBase", %"class.base::internal::BindStateBase"* %6, i64 0, i32 1
  %14 = bitcast void ()** %13 to void (%"class.base::internal::BindStateBase"*)**
  %15 = load void (%"class.base::internal::BindStateBase"*)*, void (%"class.base::internal::BindStateBase"*)** %14, align 8
  tail call void %15(%"class.base::internal::BindStateBase"* nonnull %6) #11
  call void @_ZN4base8internal12CallbackBaseD2Ev(%"class.base::internal::CallbackBase"* nonnull %12) #11
  call void @llvm.lifetime.end.p0i8(i64 8, i8* nonnull %10) #11
  br label %16

16:                                               ; preds = %2, %8
  ret i1 true
}

; Function Attrs: nounwind ssp uwtable
define hidden void @_ZN7network5mojom5blink68NetworkServiceTest_MockCertVerifierSetDefaultResult_ProxyToResponder3RunEv(%"class.network::mojom::blink::NetworkServiceTest_MockCertVerifierSetDefaultResult_ProxyToResponder"* nocapture) #0 align 2 {
  %2 = alloca %"class.mojo::Message", align 8
  %3 = getelementptr inbounds %"class.network::mojom::blink::NetworkServiceTest_MockCertVerifierSetDefaultResult_ProxyToResponder", %"class.network::mojom::blink::NetworkServiceTest_MockCertVerifierSetDefaultResult_ProxyToResponder"* %0, i64 0, i32 1
  %4 = load i8, i8* %3, align 8, !range !4
  %5 = icmp eq i8 %4, 0
  %6 = select i1 %5, i32 2, i32 6
  %7 = bitcast %"class.mojo::Message"* %2 to i8*
  call void @llvm.lifetime.start.p0i8(i64 120, i8* nonnull %7) #11
  call void @llvm.memset.p0i8.i64(i8* nonnull align 8 %7, i8 -86, i64 120, i1 false)
  call void @_ZN4mojo7MessageC1EjjmmPNSt3__16vectorINS_16ScopedHandleBaseINS_6HandleEEENS1_9allocatorIS5_EEEE(%"class.mojo::Message"* nonnull %2, i32 343609816, i32 %6, i64 0, i64 0, %"class.std::__1::vector"* null) #11
  %8 = getelementptr inbounds %"class.mojo::Message", %"class.mojo::Message"* %2, i64 0, i32 1
  %9 = call i64 @_ZN4mojo8internal6Buffer8AllocateEm(%"class.mojo::internal::Buffer"* %8, i64 8) #11
  %10 = getelementptr inbounds %"class.mojo::Message", %"class.mojo::Message"* %2, i64 0, i32 1, i32 2
  %11 = load i8*, i8** %10, align 8
  %12 = getelementptr inbounds i8, i8* %11, i64 %9
  %13 = bitcast i8* %12 to %"class.network::mojom::internal::NetworkServiceTest_MockCertVerifierSetDefaultResult_ResponseParams_Data"*
  call void @_ZN7network5mojom8internal71NetworkServiceTest_MockCertVerifierSetDefaultResult_ResponseParams_DataC1Ev(%"class.network::mojom::internal::NetworkServiceTest_MockCertVerifierSetDefaultResult_ResponseParams_Data"* %13) #11
  %14 = getelementptr inbounds %"class.network::mojom::blink::NetworkServiceTest_MockCertVerifierSetDefaultResult_ProxyToResponder", %"class.network::mojom::blink::NetworkServiceTest_MockCertVerifierSetDefaultResult_ProxyToResponder"* %0, i64 0, i32 0
  %15 = load i64, i64* %14, align 8
  %16 = bitcast i8** %10 to %"struct.mojo::internal::MessageHeaderV1"**
  %17 = load %"struct.mojo::internal::MessageHeaderV1"*, %"struct.mojo::internal::MessageHeaderV1"** %16, align 8
  %18 = getelementptr inbounds %"struct.mojo::internal::MessageHeaderV1", %"struct.mojo::internal::MessageHeaderV1"* %17, i64 0, i32 1
  store i64 %15, i64* %18, align 1
  %19 = getelementptr inbounds %"class.network::mojom::blink::NetworkServiceTest_MockCertVerifierSetDefaultResult_ProxyToResponder", %"class.network::mojom::blink::NetworkServiceTest_MockCertVerifierSetDefaultResult_ProxyToResponder"* %0, i64 0, i32 2, i32 0, i32 0, i32 0
  %20 = load %"class.mojo::MessageReceiverWithStatus"*, %"class.mojo::MessageReceiverWithStatus"** %19, align 8
  %21 = getelementptr inbounds %"class.mojo::MessageReceiverWithStatus", %"class.mojo::MessageReceiverWithStatus"* %20, i64 0, i32 0
  %22 = bitcast %"class.mojo::MessageReceiverWithStatus"* %20 to i1 (%"class.mojo::MessageReceiver"*, %"class.mojo::Message"*)***
  %23 = load i1 (%"class.mojo::MessageReceiver"*, %"class.mojo::Message"*)**, i1 (%"class.mojo::MessageReceiver"*, %"class.mojo::Message"*)*** %22, align 8
  %24 = getelementptr inbounds i1 (%"class.mojo::MessageReceiver"*, %"class.mojo::Message"*)*, i1 (%"class.mojo::MessageReceiver"*, %"class.mojo::Message"*)** %23, i64 3
  %25 = load i1 (%"class.mojo::MessageReceiver"*, %"class.mojo::Message"*)*, i1 (%"class.mojo::MessageReceiver"*, %"class.mojo::Message"*)** %24, align 8
  %26 = call zeroext i1 %25(%"class.mojo::MessageReceiver"* %21, %"class.mojo::Message"* nonnull %2) #11
  %27 = load %"class.mojo::MessageReceiverWithStatus"*, %"class.mojo::MessageReceiverWithStatus"** %19, align 8
  store %"class.mojo::MessageReceiverWithStatus"* null, %"class.mojo::MessageReceiverWithStatus"** %19, align 8
  %28 = icmp eq %"class.mojo::MessageReceiverWithStatus"* %27, null
  br i1 %28, label %34, label %29

29:                                               ; preds = %1
  %30 = bitcast %"class.mojo::MessageReceiverWithStatus"* %27 to void (%"class.mojo::MessageReceiverWithStatus"*)***
  %31 = load void (%"class.mojo::MessageReceiverWithStatus"*)**, void (%"class.mojo::MessageReceiverWithStatus"*)*** %30, align 8
  %32 = getelementptr inbounds void (%"class.mojo::MessageReceiverWithStatus"*)*, void (%"class.mojo::MessageReceiverWithStatus"*)** %31, i64 1
  %33 = load void (%"class.mojo::MessageReceiverWithStatus"*)*, void (%"class.mojo::MessageReceiverWithStatus"*)** %32, align 8
  call void %33(%"class.mojo::MessageReceiverWithStatus"* nonnull %27) #11
  br label %34

34:                                               ; preds = %1, %29
  call void @_ZN4mojo7MessageD1Ev(%"class.mojo::Message"* nonnull %2) #11
  call void @llvm.lifetime.end.p0i8(i64 120, i8* nonnull %7) #11
  ret void
}

; Function Attrs: nounwind ssp uwtable
define hidden zeroext i1 @_ZN7network5mojom5blink70NetworkServiceTest_MockCertVerifierSetDefaultResult_HandleSyncResponse6AcceptEPN4mojo7MessageE(%"class.network::mojom::blink::NetworkServiceTest_MockCertVerifierSetDefaultResult_HandleSyncResponse"* nocapture readonly, %"class.mojo::Message"*) unnamed_addr #0 align 2 {
  %3 = tail call i8* @_ZNK4mojo7Message7payloadEv(%"class.mojo::Message"* %1) #11
  %4 = getelementptr inbounds %"class.network::mojom::blink::NetworkServiceTest_MockCertVerifierSetDefaultResult_HandleSyncResponse", %"class.network::mojom::blink::NetworkServiceTest_MockCertVerifierSetDefaultResult_HandleSyncResponse"* %0, i64 0, i32 1
  %5 = load i8*, i8** %4, align 8
  store i8 1, i8* %5, align 1
  ret i1 true
}

; Function Attrs: nounwind ssp uwtable
define hidden zeroext i1 @_ZN7network5mojom5blink76NetworkServiceTest_MockCertVerifierAddResultForCertAndHost_ForwardToCallback6AcceptEPN4mojo7MessageE(%"class.network::mojom::blink::NetworkServiceTest_MockCertVerifierAddResultForCertAndHost_ForwardToCallback"* nocapture, %"class.mojo::Message"*) unnamed_addr #0 align 2 {
  %3 = alloca %"class.base::OnceCallback", align 8
  %4 = tail call i8* @_ZNK4mojo7Message7payloadEv(%"class.mojo::Message"* %1) #11
  %5 = getelementptr inbounds %"class.network::mojom::blink::NetworkServiceTest_MockCertVerifierAddResultForCertAndHost_ForwardToCallback", %"class.network::mojom::blink::NetworkServiceTest_MockCertVerifierAddResultForCertAndHost_ForwardToCallback"* %0, i64 0, i32 1, i32 0, i32 0, i32 0
  %6 = load %"class.base::internal::BindStateBase"*, %"class.base::internal::BindStateBase"** %5, align 8
  %7 = icmp eq %"class.base::internal::BindStateBase"* %6, null
  br i1 %7, label %16, label %8

8:                                                ; preds = %2
  %9 = ptrtoint %"class.base::internal::BindStateBase"* %6 to i64
  %10 = bitcast %"class.base::OnceCallback"* %3 to i8*
  call void @llvm.lifetime.start.p0i8(i64 8, i8* nonnull %10) #11
  %11 = bitcast %"class.base::OnceCallback"* %3 to i64*
  store i64 %9, i64* %11, align 8
  store %"class.base::internal::BindStateBase"* null, %"class.base::internal::BindStateBase"** %5, align 8
  %12 = getelementptr inbounds %"class.base::OnceCallback", %"class.base::OnceCallback"* %3, i64 0, i32 0
  %13 = getelementptr inbounds %"class.base::internal::BindStateBase", %"class.base::internal::BindStateBase"* %6, i64 0, i32 1
  %14 = bitcast void ()** %13 to void (%"class.base::internal::BindStateBase"*)**
  %15 = load void (%"class.base::internal::BindStateBase"*)*, void (%"class.base::internal::BindStateBase"*)** %14, align 8
  tail call void %15(%"class.base::internal::BindStateBase"* nonnull %6) #11
  call void @_ZN4base8internal12CallbackBaseD2Ev(%"class.base::internal::CallbackBase"* nonnull %12) #11
  call void @llvm.lifetime.end.p0i8(i64 8, i8* nonnull %10) #11
  br label %16

16:                                               ; preds = %2, %8
  ret i1 true
}

; Function Attrs: nounwind ssp uwtable
define hidden void @_ZN7network5mojom5blink75NetworkServiceTest_MockCertVerifierAddResultForCertAndHost_ProxyToResponder3RunEv(%"class.network::mojom::blink::NetworkServiceTest_MockCertVerifierAddResultForCertAndHost_ProxyToResponder"* nocapture) #0 align 2 {
  %2 = alloca %"class.mojo::Message", align 8
  %3 = getelementptr inbounds %"class.network::mojom::blink::NetworkServiceTest_MockCertVerifierAddResultForCertAndHost_ProxyToResponder", %"class.network::mojom::blink::NetworkServiceTest_MockCertVerifierAddResultForCertAndHost_ProxyToResponder"* %0, i64 0, i32 1
  %4 = load i8, i8* %3, align 8, !range !4
  %5 = icmp eq i8 %4, 0
  %6 = select i1 %5, i32 2, i32 6
  %7 = bitcast %"class.mojo::Message"* %2 to i8*
  call void @llvm.lifetime.start.p0i8(i64 120, i8* nonnull %7) #11
  call void @llvm.memset.p0i8.i64(i8* nonnull align 8 %7, i8 -86, i64 120, i1 false)
  call void @_ZN4mojo7MessageC1EjjmmPNSt3__16vectorINS_16ScopedHandleBaseINS_6HandleEEENS1_9allocatorIS5_EEEE(%"class.mojo::Message"* nonnull %2, i32 278364737, i32 %6, i64 0, i64 0, %"class.std::__1::vector"* null) #11
  %8 = getelementptr inbounds %"class.mojo::Message", %"class.mojo::Message"* %2, i64 0, i32 1
  %9 = call i64 @_ZN4mojo8internal6Buffer8AllocateEm(%"class.mojo::internal::Buffer"* %8, i64 8) #11
  %10 = getelementptr inbounds %"class.mojo::Message", %"class.mojo::Message"* %2, i64 0, i32 1, i32 2
  %11 = load i8*, i8** %10, align 8
  %12 = getelementptr inbounds i8, i8* %11, i64 %9
  %13 = bitcast i8* %12 to %"class.network::mojom::internal::NetworkServiceTest_MockCertVerifierAddResultForCertAndHost_ResponseParams_Data"*
  call void @_ZN7network5mojom8internal78NetworkServiceTest_MockCertVerifierAddResultForCertAndHost_ResponseParams_DataC1Ev(%"class.network::mojom::internal::NetworkServiceTest_MockCertVerifierAddResultForCertAndHost_ResponseParams_Data"* %13) #11
  %14 = getelementptr inbounds %"class.network::mojom::blink::NetworkServiceTest_MockCertVerifierAddResultForCertAndHost_ProxyToResponder", %"class.network::mojom::blink::NetworkServiceTest_MockCertVerifierAddResultForCertAndHost_ProxyToResponder"* %0, i64 0, i32 0
  %15 = load i64, i64* %14, align 8
  %16 = bitcast i8** %10 to %"struct.mojo::internal::MessageHeaderV1"**
  %17 = load %"struct.mojo::internal::MessageHeaderV1"*, %"struct.mojo::internal::MessageHeaderV1"** %16, align 8
  %18 = getelementptr inbounds %"struct.mojo::internal::MessageHeaderV1", %"struct.mojo::internal::MessageHeaderV1"* %17, i64 0, i32 1
  store i64 %15, i64* %18, align 1
  %19 = getelementptr inbounds %"class.network::mojom::blink::NetworkServiceTest_MockCertVerifierAddResultForCertAndHost_ProxyToResponder", %"class.network::mojom::blink::NetworkServiceTest_MockCertVerifierAddResultForCertAndHost_ProxyToResponder"* %0, i64 0, i32 2, i32 0, i32 0, i32 0
  %20 = load %"class.mojo::MessageReceiverWithStatus"*, %"class.mojo::MessageReceiverWithStatus"** %19, align 8
  %21 = getelementptr inbounds %"class.mojo::MessageReceiverWithStatus", %"class.mojo::MessageReceiverWithStatus"* %20, i64 0, i32 0
  %22 = bitcast %"class.mojo::MessageReceiverWithStatus"* %20 to i1 (%"class.mojo::MessageReceiver"*, %"class.mojo::Message"*)***
  %23 = load i1 (%"class.mojo::MessageReceiver"*, %"class.mojo::Message"*)**, i1 (%"class.mojo::MessageReceiver"*, %"class.mojo::Message"*)*** %22, align 8
  %24 = getelementptr inbounds i1 (%"class.mojo::MessageReceiver"*, %"class.mojo::Message"*)*, i1 (%"class.mojo::MessageReceiver"*, %"class.mojo::Message"*)** %23, i64 3
  %25 = load i1 (%"class.mojo::MessageReceiver"*, %"class.mojo::Message"*)*, i1 (%"class.mojo::MessageReceiver"*, %"class.mojo::Message"*)** %24, align 8
  %26 = call zeroext i1 %25(%"class.mojo::MessageReceiver"* %21, %"class.mojo::Message"* nonnull %2) #11
  %27 = load %"class.mojo::MessageReceiverWithStatus"*, %"class.mojo::MessageReceiverWithStatus"** %19, align 8
  store %"class.mojo::MessageReceiverWithStatus"* null, %"class.mojo::MessageReceiverWithStatus"** %19, align 8
  %28 = icmp eq %"class.mojo::MessageReceiverWithStatus"* %27, null
  br i1 %28, label %34, label %29

29:                                               ; preds = %1
  %30 = bitcast %"class.mojo::MessageReceiverWithStatus"* %27 to void (%"class.mojo::MessageReceiverWithStatus"*)***
  %31 = load void (%"class.mojo::MessageReceiverWithStatus"*)**, void (%"class.mojo::MessageReceiverWithStatus"*)*** %30, align 8
  %32 = getelementptr inbounds void (%"class.mojo::MessageReceiverWithStatus"*)*, void (%"class.mojo::MessageReceiverWithStatus"*)** %31, i64 1
  %33 = load void (%"class.mojo::MessageReceiverWithStatus"*)*, void (%"class.mojo::MessageReceiverWithStatus"*)** %32, align 8
  call void %33(%"class.mojo::MessageReceiverWithStatus"* nonnull %27) #11
  br label %34

34:                                               ; preds = %1, %29
  call void @_ZN4mojo7MessageD1Ev(%"class.mojo::Message"* nonnull %2) #11
  call void @llvm.lifetime.end.p0i8(i64 120, i8* nonnull %7) #11
  ret void
}

; Function Attrs: nounwind ssp uwtable
define hidden zeroext i1 @_ZN7network5mojom5blink77NetworkServiceTest_MockCertVerifierAddResultForCertAndHost_HandleSyncResponse6AcceptEPN4mojo7MessageE(%"class.network::mojom::blink::NetworkServiceTest_MockCertVerifierAddResultForCertAndHost_HandleSyncResponse"* nocapture readonly, %"class.mojo::Message"*) unnamed_addr #0 align 2 {
  %3 = tail call i8* @_ZNK4mojo7Message7payloadEv(%"class.mojo::Message"* %1) #11
  %4 = getelementptr inbounds %"class.network::mojom::blink::NetworkServiceTest_MockCertVerifierAddResultForCertAndHost_HandleSyncResponse", %"class.network::mojom::blink::NetworkServiceTest_MockCertVerifierAddResultForCertAndHost_HandleSyncResponse"* %0, i64 0, i32 1
  %5 = load i8*, i8** %4, align 8
  store i8 1, i8* %5, align 1
  ret i1 true
}

; Function Attrs: nounwind ssp uwtable
define hidden zeroext i1 @_ZN7network5mojom5blink49NetworkServiceTest_SetRequireCT_ForwardToCallback6AcceptEPN4mojo7MessageE(%"class.network::mojom::blink::NetworkServiceTest_SetRequireCT_ForwardToCallback"* nocapture, %"class.mojo::Message"*) unnamed_addr #0 align 2 {
  %3 = alloca %"class.base::OnceCallback", align 8
  %4 = tail call i8* @_ZNK4mojo7Message7payloadEv(%"class.mojo::Message"* %1) #11
  %5 = getelementptr inbounds %"class.network::mojom::blink::NetworkServiceTest_SetRequireCT_ForwardToCallback", %"class.network::mojom::blink::NetworkServiceTest_SetRequireCT_ForwardToCallback"* %0, i64 0, i32 1, i32 0, i32 0, i32 0
  %6 = load %"class.base::internal::BindStateBase"*, %"class.base::internal::BindStateBase"** %5, align 8
  %7 = icmp eq %"class.base::internal::BindStateBase"* %6, null
  br i1 %7, label %16, label %8

8:                                                ; preds = %2
  %9 = ptrtoint %"class.base::internal::BindStateBase"* %6 to i64
  %10 = bitcast %"class.base::OnceCallback"* %3 to i8*
  call void @llvm.lifetime.start.p0i8(i64 8, i8* nonnull %10) #11
  %11 = bitcast %"class.base::OnceCallback"* %3 to i64*
  store i64 %9, i64* %11, align 8
  store %"class.base::internal::BindStateBase"* null, %"class.base::internal::BindStateBase"** %5, align 8
  %12 = getelementptr inbounds %"class.base::OnceCallback", %"class.base::OnceCallback"* %3, i64 0, i32 0
  %13 = getelementptr inbounds %"class.base::internal::BindStateBase", %"class.base::internal::BindStateBase"* %6, i64 0, i32 1
  %14 = bitcast void ()** %13 to void (%"class.base::internal::BindStateBase"*)**
  %15 = load void (%"class.base::internal::BindStateBase"*)*, void (%"class.base::internal::BindStateBase"*)** %14, align 8
  tail call void %15(%"class.base::internal::BindStateBase"* nonnull %6) #11
  call void @_ZN4base8internal12CallbackBaseD2Ev(%"class.base::internal::CallbackBase"* nonnull %12) #11
  call void @llvm.lifetime.end.p0i8(i64 8, i8* nonnull %10) #11
  br label %16

16:                                               ; preds = %2, %8
  ret i1 true
}

; Function Attrs: nounwind ssp uwtable
define hidden void @_ZN7network5mojom5blink48NetworkServiceTest_SetRequireCT_ProxyToResponder3RunEv(%"class.network::mojom::blink::NetworkServiceTest_SetRequireCT_ProxyToResponder"* nocapture) #0 align 2 {
  %2 = alloca %"class.mojo::Message", align 8
  %3 = getelementptr inbounds %"class.network::mojom::blink::NetworkServiceTest_SetRequireCT_ProxyToResponder", %"class.network::mojom::blink::NetworkServiceTest_SetRequireCT_ProxyToResponder"* %0, i64 0, i32 1
  %4 = load i8, i8* %3, align 8, !range !4
  %5 = icmp eq i8 %4, 0
  %6 = select i1 %5, i32 2, i32 6
  %7 = bitcast %"class.mojo::Message"* %2 to i8*
  call void @llvm.lifetime.start.p0i8(i64 120, i8* nonnull %7) #11
  call void @llvm.memset.p0i8.i64(i8* nonnull align 8 %7, i8 -86, i64 120, i1 false)
  call void @_ZN4mojo7MessageC1EjjmmPNSt3__16vectorINS_16ScopedHandleBaseINS_6HandleEEENS1_9allocatorIS5_EEEE(%"class.mojo::Message"* nonnull %2, i32 401814863, i32 %6, i64 0, i64 0, %"class.std::__1::vector"* null) #11
  %8 = getelementptr inbounds %"class.mojo::Message", %"class.mojo::Message"* %2, i64 0, i32 1
  %9 = call i64 @_ZN4mojo8internal6Buffer8AllocateEm(%"class.mojo::internal::Buffer"* %8, i64 8) #11
  %10 = getelementptr inbounds %"class.mojo::Message", %"class.mojo::Message"* %2, i64 0, i32 1, i32 2
  %11 = load i8*, i8** %10, align 8
  %12 = getelementptr inbounds i8, i8* %11, i64 %9
  %13 = bitcast i8* %12 to %"class.network::mojom::internal::NetworkServiceTest_SetRequireCT_ResponseParams_Data"*
  call void @_ZN7network5mojom8internal51NetworkServiceTest_SetRequireCT_ResponseParams_DataC1Ev(%"class.network::mojom::internal::NetworkServiceTest_SetRequireCT_ResponseParams_Data"* %13) #11
  %14 = getelementptr inbounds %"class.network::mojom::blink::NetworkServiceTest_SetRequireCT_ProxyToResponder", %"class.network::mojom::blink::NetworkServiceTest_SetRequireCT_ProxyToResponder"* %0, i64 0, i32 0
  %15 = load i64, i64* %14, align 8
  %16 = bitcast i8** %10 to %"struct.mojo::internal::MessageHeaderV1"**
  %17 = load %"struct.mojo::internal::MessageHeaderV1"*, %"struct.mojo::internal::MessageHeaderV1"** %16, align 8
  %18 = getelementptr inbounds %"struct.mojo::internal::MessageHeaderV1", %"struct.mojo::internal::MessageHeaderV1"* %17, i64 0, i32 1
  store i64 %15, i64* %18, align 1
  %19 = getelementptr inbounds %"class.network::mojom::blink::NetworkServiceTest_SetRequireCT_ProxyToResponder", %"class.network::mojom::blink::NetworkServiceTest_SetRequireCT_ProxyToResponder"* %0, i64 0, i32 2, i32 0, i32 0, i32 0
  %20 = load %"class.mojo::MessageReceiverWithStatus"*, %"class.mojo::MessageReceiverWithStatus"** %19, align 8
  %21 = getelementptr inbounds %"class.mojo::MessageReceiverWithStatus", %"class.mojo::MessageReceiverWithStatus"* %20, i64 0, i32 0
  %22 = bitcast %"class.mojo::MessageReceiverWithStatus"* %20 to i1 (%"class.mojo::MessageReceiver"*, %"class.mojo::Message"*)***
  %23 = load i1 (%"class.mojo::MessageReceiver"*, %"class.mojo::Message"*)**, i1 (%"class.mojo::MessageReceiver"*, %"class.mojo::Message"*)*** %22, align 8
  %24 = getelementptr inbounds i1 (%"class.mojo::MessageReceiver"*, %"class.mojo::Message"*)*, i1 (%"class.mojo::MessageReceiver"*, %"class.mojo::Message"*)** %23, i64 3
  %25 = load i1 (%"class.mojo::MessageReceiver"*, %"class.mojo::Message"*)*, i1 (%"class.mojo::MessageReceiver"*, %"class.mojo::Message"*)** %24, align 8
  %26 = call zeroext i1 %25(%"class.mojo::MessageReceiver"* %21, %"class.mojo::Message"* nonnull %2) #11
  %27 = load %"class.mojo::MessageReceiverWithStatus"*, %"class.mojo::MessageReceiverWithStatus"** %19, align 8
  store %"class.mojo::MessageReceiverWithStatus"* null, %"class.mojo::MessageReceiverWithStatus"** %19, align 8
  %28 = icmp eq %"class.mojo::MessageReceiverWithStatus"* %27, null
  br i1 %28, label %34, label %29

29:                                               ; preds = %1
  %30 = bitcast %"class.mojo::MessageReceiverWithStatus"* %27 to void (%"class.mojo::MessageReceiverWithStatus"*)***
  %31 = load void (%"class.mojo::MessageReceiverWithStatus"*)**, void (%"class.mojo::MessageReceiverWithStatus"*)*** %30, align 8
  %32 = getelementptr inbounds void (%"class.mojo::MessageReceiverWithStatus"*)*, void (%"class.mojo::MessageReceiverWithStatus"*)** %31, i64 1
  %33 = load void (%"class.mojo::MessageReceiverWithStatus"*)*, void (%"class.mojo::MessageReceiverWithStatus"*)** %32, align 8
  call void %33(%"class.mojo::MessageReceiverWithStatus"* nonnull %27) #11
  br label %34

34:                                               ; preds = %1, %29
  call void @_ZN4mojo7MessageD1Ev(%"class.mojo::Message"* nonnull %2) #11
  call void @llvm.lifetime.end.p0i8(i64 120, i8* nonnull %7) #11
  ret void
}

; Function Attrs: nounwind ssp uwtable
define hidden zeroext i1 @_ZN7network5mojom5blink50NetworkServiceTest_SetRequireCT_HandleSyncResponse6AcceptEPN4mojo7MessageE(%"class.network::mojom::blink::NetworkServiceTest_SetRequireCT_HandleSyncResponse"* nocapture readonly, %"class.mojo::Message"*) unnamed_addr #0 align 2 {
  %3 = tail call i8* @_ZNK4mojo7Message7payloadEv(%"class.mojo::Message"* %1) #11
  %4 = getelementptr inbounds %"class.network::mojom::blink::NetworkServiceTest_SetRequireCT_HandleSyncResponse", %"class.network::mojom::blink::NetworkServiceTest_SetRequireCT_HandleSyncResponse"* %0, i64 0, i32 1
  %5 = load i8*, i8** %4, align 8
  store i8 1, i8* %5, align 1
  ret i1 true
}

; Function Attrs: nounwind ssp uwtable
define hidden zeroext i1 @_ZN7network5mojom5blink68NetworkServiceTest_SetTransportSecurityStateSource_ForwardToCallback6AcceptEPN4mojo7MessageE(%"class.network::mojom::blink::NetworkServiceTest_SetTransportSecurityStateSource_ForwardToCallback"* nocapture, %"class.mojo::Message"*) unnamed_addr #0 align 2 {
  %3 = alloca %"class.base::OnceCallback", align 8
  %4 = tail call i8* @_ZNK4mojo7Message7payloadEv(%"class.mojo::Message"* %1) #11
  %5 = getelementptr inbounds %"class.network::mojom::blink::NetworkServiceTest_SetTransportSecurityStateSource_ForwardToCallback", %"class.network::mojom::blink::NetworkServiceTest_SetTransportSecurityStateSource_ForwardToCallback"* %0, i64 0, i32 1, i32 0, i32 0, i32 0
  %6 = load %"class.base::internal::BindStateBase"*, %"class.base::internal::BindStateBase"** %5, align 8
  %7 = icmp eq %"class.base::internal::BindStateBase"* %6, null
  br i1 %7, label %16, label %8

8:                                                ; preds = %2
  %9 = ptrtoint %"class.base::internal::BindStateBase"* %6 to i64
  %10 = bitcast %"class.base::OnceCallback"* %3 to i8*
  call void @llvm.lifetime.start.p0i8(i64 8, i8* nonnull %10) #11
  %11 = bitcast %"class.base::OnceCallback"* %3 to i64*
  store i64 %9, i64* %11, align 8
  store %"class.base::internal::BindStateBase"* null, %"class.base::internal::BindStateBase"** %5, align 8
  %12 = getelementptr inbounds %"class.base::OnceCallback", %"class.base::OnceCallback"* %3, i64 0, i32 0
  %13 = getelementptr inbounds %"class.base::internal::BindStateBase", %"class.base::internal::BindStateBase"* %6, i64 0, i32 1
  %14 = bitcast void ()** %13 to void (%"class.base::internal::BindStateBase"*)**
  %15 = load void (%"class.base::internal::BindStateBase"*)*, void (%"class.base::internal::BindStateBase"*)** %14, align 8
  tail call void %15(%"class.base::internal::BindStateBase"* nonnull %6) #11
  call void @_ZN4base8internal12CallbackBaseD2Ev(%"class.base::internal::CallbackBase"* nonnull %12) #11
  call void @llvm.lifetime.end.p0i8(i64 8, i8* nonnull %10) #11
  br label %16

16:                                               ; preds = %2, %8
  ret i1 true
}

; Function Attrs: nounwind ssp uwtable
define hidden void @_ZN7network5mojom5blink67NetworkServiceTest_SetTransportSecurityStateSource_ProxyToResponder3RunEv(%"class.network::mojom::blink::NetworkServiceTest_SetTransportSecurityStateSource_ProxyToResponder"* nocapture) #0 align 2 {
  %2 = alloca %"class.mojo::Message", align 8
  %3 = getelementptr inbounds %"class.network::mojom::blink::NetworkServiceTest_SetTransportSecurityStateSource_ProxyToResponder", %"class.network::mojom::blink::NetworkServiceTest_SetTransportSecurityStateSource_ProxyToResponder"* %0, i64 0, i32 1
  %4 = load i8, i8* %3, align 8, !range !4
  %5 = icmp eq i8 %4, 0
  %6 = select i1 %5, i32 2, i32 6
  %7 = bitcast %"class.mojo::Message"* %2 to i8*
  call void @llvm.lifetime.start.p0i8(i64 120, i8* nonnull %7) #11
  call void @llvm.memset.p0i8.i64(i8* nonnull align 8 %7, i8 -86, i64 120, i1 false)
  call void @_ZN4mojo7MessageC1EjjmmPNSt3__16vectorINS_16ScopedHandleBaseINS_6HandleEEENS1_9allocatorIS5_EEEE(%"class.mojo::Message"* nonnull %2, i32 1633370188, i32 %6, i64 0, i64 0, %"class.std::__1::vector"* null) #11
  %8 = getelementptr inbounds %"class.mojo::Message", %"class.mojo::Message"* %2, i64 0, i32 1
  %9 = call i64 @_ZN4mojo8internal6Buffer8AllocateEm(%"class.mojo::internal::Buffer"* %8, i64 8) #11
  %10 = getelementptr inbounds %"class.mojo::Message", %"class.mojo::Message"* %2, i64 0, i32 1, i32 2
  %11 = load i8*, i8** %10, align 8
  %12 = getelementptr inbounds i8, i8* %11, i64 %9
  %13 = bitcast i8* %12 to %"class.network::mojom::internal::NetworkServiceTest_SetTransportSecurityStateSource_ResponseParams_Data"*
  call void @_ZN7network5mojom8internal70NetworkServiceTest_SetTransportSecurityStateSource_ResponseParams_DataC1Ev(%"class.network::mojom::internal::NetworkServiceTest_SetTransportSecurityStateSource_ResponseParams_Data"* %13) #11
  %14 = getelementptr inbounds %"class.network::mojom::blink::NetworkServiceTest_SetTransportSecurityStateSource_ProxyToResponder", %"class.network::mojom::blink::NetworkServiceTest_SetTransportSecurityStateSource_ProxyToResponder"* %0, i64 0, i32 0
  %15 = load i64, i64* %14, align 8
  %16 = bitcast i8** %10 to %"struct.mojo::internal::MessageHeaderV1"**
  %17 = load %"struct.mojo::internal::MessageHeaderV1"*, %"struct.mojo::internal::MessageHeaderV1"** %16, align 8
  %18 = getelementptr inbounds %"struct.mojo::internal::MessageHeaderV1", %"struct.mojo::internal::MessageHeaderV1"* %17, i64 0, i32 1
  store i64 %15, i64* %18, align 1
  %19 = getelementptr inbounds %"class.network::mojom::blink::NetworkServiceTest_SetTransportSecurityStateSource_ProxyToResponder", %"class.network::mojom::blink::NetworkServiceTest_SetTransportSecurityStateSource_ProxyToResponder"* %0, i64 0, i32 2, i32 0, i32 0, i32 0
  %20 = load %"class.mojo::MessageReceiverWithStatus"*, %"class.mojo::MessageReceiverWithStatus"** %19, align 8
  %21 = getelementptr inbounds %"class.mojo::MessageReceiverWithStatus", %"class.mojo::MessageReceiverWithStatus"* %20, i64 0, i32 0
  %22 = bitcast %"class.mojo::MessageReceiverWithStatus"* %20 to i1 (%"class.mojo::MessageReceiver"*, %"class.mojo::Message"*)***
  %23 = load i1 (%"class.mojo::MessageReceiver"*, %"class.mojo::Message"*)**, i1 (%"class.mojo::MessageReceiver"*, %"class.mojo::Message"*)*** %22, align 8
  %24 = getelementptr inbounds i1 (%"class.mojo::MessageReceiver"*, %"class.mojo::Message"*)*, i1 (%"class.mojo::MessageReceiver"*, %"class.mojo::Message"*)** %23, i64 3
  %25 = load i1 (%"class.mojo::MessageReceiver"*, %"class.mojo::Message"*)*, i1 (%"class.mojo::MessageReceiver"*, %"class.mojo::Message"*)** %24, align 8
  %26 = call zeroext i1 %25(%"class.mojo::MessageReceiver"* %21, %"class.mojo::Message"* nonnull %2) #11
  %27 = load %"class.mojo::MessageReceiverWithStatus"*, %"class.mojo::MessageReceiverWithStatus"** %19, align 8
  store %"class.mojo::MessageReceiverWithStatus"* null, %"class.mojo::MessageReceiverWithStatus"** %19, align 8
  %28 = icmp eq %"class.mojo::MessageReceiverWithStatus"* %27, null
  br i1 %28, label %34, label %29

29:                                               ; preds = %1
  %30 = bitcast %"class.mojo::MessageReceiverWithStatus"* %27 to void (%"class.mojo::MessageReceiverWithStatus"*)***
  %31 = load void (%"class.mojo::MessageReceiverWithStatus"*)**, void (%"class.mojo::MessageReceiverWithStatus"*)*** %30, align 8
  %32 = getelementptr inbounds void (%"class.mojo::MessageReceiverWithStatus"*)*, void (%"class.mojo::MessageReceiverWithStatus"*)** %31, i64 1
  %33 = load void (%"class.mojo::MessageReceiverWithStatus"*)*, void (%"class.mojo::MessageReceiverWithStatus"*)** %32, align 8
  call void %33(%"class.mojo::MessageReceiverWithStatus"* nonnull %27) #11
  br label %34

34:                                               ; preds = %1, %29
  call void @_ZN4mojo7MessageD1Ev(%"class.mojo::Message"* nonnull %2) #11
  call void @llvm.lifetime.end.p0i8(i64 120, i8* nonnull %7) #11
  ret void
}

; Function Attrs: nounwind ssp uwtable
define hidden zeroext i1 @_ZN7network5mojom5blink69NetworkServiceTest_SetTransportSecurityStateSource_HandleSyncResponse6AcceptEPN4mojo7MessageE(%"class.network::mojom::blink::NetworkServiceTest_SetTransportSecurityStateSource_HandleSyncResponse"* nocapture readonly, %"class.mojo::Message"*) unnamed_addr #0 align 2 {
  %3 = tail call i8* @_ZNK4mojo7Message7payloadEv(%"class.mojo::Message"* %1) #11
  %4 = getelementptr inbounds %"class.network::mojom::blink::NetworkServiceTest_SetTransportSecurityStateSource_HandleSyncResponse", %"class.network::mojom::blink::NetworkServiceTest_SetTransportSecurityStateSource_HandleSyncResponse"* %0, i64 0, i32 1
  %5 = load i8*, i8** %4, align 8
  store i8 1, i8* %5, align 1
  ret i1 true
}

; Function Attrs: nounwind ssp uwtable
define hidden zeroext i1 @_ZN7network5mojom5blink75NetworkServiceTest_SetAllowNetworkAccessToHostResolutions_ForwardToCallback6AcceptEPN4mojo7MessageE(%"class.network::mojom::blink::NetworkServiceTest_SetAllowNetworkAccessToHostResolutions_ForwardToCallback"* nocapture, %"class.mojo::Message"*) unnamed_addr #0 align 2 {
  %3 = alloca %"class.base::OnceCallback", align 8
  %4 = tail call i8* @_ZNK4mojo7Message7payloadEv(%"class.mojo::Message"* %1) #11
  %5 = getelementptr inbounds %"class.network::mojom::blink::NetworkServiceTest_SetAllowNetworkAccessToHostResolutions_ForwardToCallback", %"class.network::mojom::blink::NetworkServiceTest_SetAllowNetworkAccessToHostResolutions_ForwardToCallback"* %0, i64 0, i32 1, i32 0, i32 0, i32 0
  %6 = load %"class.base::internal::BindStateBase"*, %"class.base::internal::BindStateBase"** %5, align 8
  %7 = icmp eq %"class.base::internal::BindStateBase"* %6, null
  br i1 %7, label %16, label %8

8:                                                ; preds = %2
  %9 = ptrtoint %"class.base::internal::BindStateBase"* %6 to i64
  %10 = bitcast %"class.base::OnceCallback"* %3 to i8*
  call void @llvm.lifetime.start.p0i8(i64 8, i8* nonnull %10) #11
  %11 = bitcast %"class.base::OnceCallback"* %3 to i64*
  store i64 %9, i64* %11, align 8
  store %"class.base::internal::BindStateBase"* null, %"class.base::internal::BindStateBase"** %5, align 8
  %12 = getelementptr inbounds %"class.base::OnceCallback", %"class.base::OnceCallback"* %3, i64 0, i32 0
  %13 = getelementptr inbounds %"class.base::internal::BindStateBase", %"class.base::internal::BindStateBase"* %6, i64 0, i32 1
  %14 = bitcast void ()** %13 to void (%"class.base::internal::BindStateBase"*)**
  %15 = load void (%"class.base::internal::BindStateBase"*)*, void (%"class.base::internal::BindStateBase"*)** %14, align 8
  tail call void %15(%"class.base::internal::BindStateBase"* nonnull %6) #11
  call void @_ZN4base8internal12CallbackBaseD2Ev(%"class.base::internal::CallbackBase"* nonnull %12) #11
  call void @llvm.lifetime.end.p0i8(i64 8, i8* nonnull %10) #11
  br label %16

16:                                               ; preds = %2, %8
  ret i1 true
}

; Function Attrs: nounwind ssp uwtable
define hidden void @_ZN7network5mojom5blink74NetworkServiceTest_SetAllowNetworkAccessToHostResolutions_ProxyToResponder3RunEv(%"class.network::mojom::blink::NetworkServiceTest_SetAllowNetworkAccessToHostResolutions_ProxyToResponder"* nocapture) #0 align 2 {
  %2 = alloca %"class.mojo::Message", align 8
  %3 = getelementptr inbounds %"class.network::mojom::blink::NetworkServiceTest_SetAllowNetworkAccessToHostResolutions_ProxyToResponder", %"class.network::mojom::blink::NetworkServiceTest_SetAllowNetworkAccessToHostResolutions_ProxyToResponder"* %0, i64 0, i32 1
  %4 = load i8, i8* %3, align 8, !range !4
  %5 = icmp eq i8 %4, 0
  %6 = select i1 %5, i32 2, i32 6
  %7 = bitcast %"class.mojo::Message"* %2 to i8*
  call void @llvm.lifetime.start.p0i8(i64 120, i8* nonnull %7) #11
  call void @llvm.memset.p0i8.i64(i8* nonnull align 8 %7, i8 -86, i64 120, i1 false)
  call void @_ZN4mojo7MessageC1EjjmmPNSt3__16vectorINS_16ScopedHandleBaseINS_6HandleEEENS1_9allocatorIS5_EEEE(%"class.mojo::Message"* nonnull %2, i32 348381728, i32 %6, i64 0, i64 0, %"class.std::__1::vector"* null) #11
  %8 = getelementptr inbounds %"class.mojo::Message", %"class.mojo::Message"* %2, i64 0, i32 1
  %9 = call i64 @_ZN4mojo8internal6Buffer8AllocateEm(%"class.mojo::internal::Buffer"* %8, i64 8) #11
  %10 = getelementptr inbounds %"class.mojo::Message", %"class.mojo::Message"* %2, i64 0, i32 1, i32 2
  %11 = load i8*, i8** %10, align 8
  %12 = getelementptr inbounds i8, i8* %11, i64 %9
  %13 = bitcast i8* %12 to %"class.network::mojom::internal::NetworkServiceTest_SetAllowNetworkAccessToHostResolutions_ResponseParams_Data"*
  call void @_ZN7network5mojom8internal77NetworkServiceTest_SetAllowNetworkAccessToHostResolutions_ResponseParams_DataC1Ev(%"class.network::mojom::internal::NetworkServiceTest_SetAllowNetworkAccessToHostResolutions_ResponseParams_Data"* %13) #11
  %14 = getelementptr inbounds %"class.network::mojom::blink::NetworkServiceTest_SetAllowNetworkAccessToHostResolutions_ProxyToResponder", %"class.network::mojom::blink::NetworkServiceTest_SetAllowNetworkAccessToHostResolutions_ProxyToResponder"* %0, i64 0, i32 0
  %15 = load i64, i64* %14, align 8
  %16 = bitcast i8** %10 to %"struct.mojo::internal::MessageHeaderV1"**
  %17 = load %"struct.mojo::internal::MessageHeaderV1"*, %"struct.mojo::internal::MessageHeaderV1"** %16, align 8
  %18 = getelementptr inbounds %"struct.mojo::internal::MessageHeaderV1", %"struct.mojo::internal::MessageHeaderV1"* %17, i64 0, i32 1
  store i64 %15, i64* %18, align 1
  %19 = getelementptr inbounds %"class.network::mojom::blink::NetworkServiceTest_SetAllowNetworkAccessToHostResolutions_ProxyToResponder", %"class.network::mojom::blink::NetworkServiceTest_SetAllowNetworkAccessToHostResolutions_ProxyToResponder"* %0, i64 0, i32 2, i32 0, i32 0, i32 0
  %20 = load %"class.mojo::MessageReceiverWithStatus"*, %"class.mojo::MessageReceiverWithStatus"** %19, align 8
  %21 = getelementptr inbounds %"class.mojo::MessageReceiverWithStatus", %"class.mojo::MessageReceiverWithStatus"* %20, i64 0, i32 0
  %22 = bitcast %"class.mojo::MessageReceiverWithStatus"* %20 to i1 (%"class.mojo::MessageReceiver"*, %"class.mojo::Message"*)***
  %23 = load i1 (%"class.mojo::MessageReceiver"*, %"class.mojo::Message"*)**, i1 (%"class.mojo::MessageReceiver"*, %"class.mojo::Message"*)*** %22, align 8
  %24 = getelementptr inbounds i1 (%"class.mojo::MessageReceiver"*, %"class.mojo::Message"*)*, i1 (%"class.mojo::MessageReceiver"*, %"class.mojo::Message"*)** %23, i64 3
  %25 = load i1 (%"class.mojo::MessageReceiver"*, %"class.mojo::Message"*)*, i1 (%"class.mojo::MessageReceiver"*, %"class.mojo::Message"*)** %24, align 8
  %26 = call zeroext i1 %25(%"class.mojo::MessageReceiver"* %21, %"class.mojo::Message"* nonnull %2) #11
  %27 = load %"class.mojo::MessageReceiverWithStatus"*, %"class.mojo::MessageReceiverWithStatus"** %19, align 8
  store %"class.mojo::MessageReceiverWithStatus"* null, %"class.mojo::MessageReceiverWithStatus"** %19, align 8
  %28 = icmp eq %"class.mojo::MessageReceiverWithStatus"* %27, null
  br i1 %28, label %34, label %29

29:                                               ; preds = %1
  %30 = bitcast %"class.mojo::MessageReceiverWithStatus"* %27 to void (%"class.mojo::MessageReceiverWithStatus"*)***
  %31 = load void (%"class.mojo::MessageReceiverWithStatus"*)**, void (%"class.mojo::MessageReceiverWithStatus"*)*** %30, align 8
  %32 = getelementptr inbounds void (%"class.mojo::MessageReceiverWithStatus"*)*, void (%"class.mojo::MessageReceiverWithStatus"*)** %31, i64 1
  %33 = load void (%"class.mojo::MessageReceiverWithStatus"*)*, void (%"class.mojo::MessageReceiverWithStatus"*)** %32, align 8
  call void %33(%"class.mojo::MessageReceiverWithStatus"* nonnull %27) #11
  br label %34

34:                                               ; preds = %1, %29
  call void @_ZN4mojo7MessageD1Ev(%"class.mojo::Message"* nonnull %2) #11
  call void @llvm.lifetime.end.p0i8(i64 120, i8* nonnull %7) #11
  ret void
}

; Function Attrs: nounwind ssp uwtable
define hidden zeroext i1 @_ZN7network5mojom5blink76NetworkServiceTest_SetAllowNetworkAccessToHostResolutions_HandleSyncResponse6AcceptEPN4mojo7MessageE(%"class.network::mojom::blink::NetworkServiceTest_SetAllowNetworkAccessToHostResolutions_HandleSyncResponse"* nocapture readonly, %"class.mojo::Message"*) unnamed_addr #0 align 2 {
  %3 = tail call i8* @_ZNK4mojo7Message7payloadEv(%"class.mojo::Message"* %1) #11
  %4 = getelementptr inbounds %"class.network::mojom::blink::NetworkServiceTest_SetAllowNetworkAccessToHostResolutions_HandleSyncResponse", %"class.network::mojom::blink::NetworkServiceTest_SetAllowNetworkAccessToHostResolutions_HandleSyncResponse"* %0, i64 0, i32 1
  %5 = load i8*, i8** %4, align 8
  store i8 1, i8* %5, align 1
  ret i1 true
}

; Function Attrs: nounwind ssp uwtable
define hidden zeroext i1 @_ZN7network5mojom5blink65NetworkServiceTest_GetLatestMemoryPressureLevel_ForwardToCallback6AcceptEPN4mojo7MessageE(%"class.network::mojom::blink::NetworkServiceTest_GetLatestMemoryPressureLevel_ForwardToCallback"* nocapture, %"class.mojo::Message"*) unnamed_addr #0 align 2 {
  %3 = alloca %"class.base::OnceCallback.103", align 8
  %4 = tail call i8* @_ZNK4mojo7Message7payloadEv(%"class.mojo::Message"* %1) #11
  %5 = getelementptr inbounds %"class.network::mojom::blink::NetworkServiceTest_GetLatestMemoryPressureLevel_ForwardToCallback", %"class.network::mojom::blink::NetworkServiceTest_GetLatestMemoryPressureLevel_ForwardToCallback"* %0, i64 0, i32 1, i32 0, i32 0, i32 0
  %6 = load %"class.base::internal::BindStateBase"*, %"class.base::internal::BindStateBase"** %5, align 8
  %7 = icmp eq %"class.base::internal::BindStateBase"* %6, null
  br i1 %7, label %19, label %8

8:                                                ; preds = %2
  %9 = ptrtoint %"class.base::internal::BindStateBase"* %6 to i64
  %10 = getelementptr inbounds i8, i8* %4, i64 8
  %11 = bitcast i8* %10 to i32*
  %12 = load i32, i32* %11, align 4
  %13 = bitcast %"class.base::OnceCallback.103"* %3 to i8*
  call void @llvm.lifetime.start.p0i8(i64 8, i8* nonnull %13) #11
  %14 = bitcast %"class.base::OnceCallback.103"* %3 to i64*
  store i64 %9, i64* %14, align 8
  store %"class.base::internal::BindStateBase"* null, %"class.base::internal::BindStateBase"** %5, align 8
  %15 = getelementptr inbounds %"class.base::OnceCallback.103", %"class.base::OnceCallback.103"* %3, i64 0, i32 0
  %16 = getelementptr inbounds %"class.base::internal::BindStateBase", %"class.base::internal::BindStateBase"* %6, i64 0, i32 1
  %17 = bitcast void ()** %16 to void (%"class.base::internal::BindStateBase"*, i32)**
  %18 = load void (%"class.base::internal::BindStateBase"*, i32)*, void (%"class.base::internal::BindStateBase"*, i32)** %17, align 8
  tail call void %18(%"class.base::internal::BindStateBase"* nonnull %6, i32 %12) #11
  call void @_ZN4base8internal12CallbackBaseD2Ev(%"class.base::internal::CallbackBase"* nonnull %15) #11
  call void @llvm.lifetime.end.p0i8(i64 8, i8* nonnull %13) #11
  br label %19

19:                                               ; preds = %2, %8
  ret i1 true
}

; Function Attrs: nounwind ssp uwtable
define hidden void @_ZN7network5mojom5blink64NetworkServiceTest_GetLatestMemoryPressureLevel_ProxyToResponder3RunEN9mojo_base5mojom19MemoryPressureLevelE(%"class.network::mojom::blink::NetworkServiceTest_GetLatestMemoryPressureLevel_ProxyToResponder"* nocapture, i32) #0 align 2 {
  %3 = alloca %"class.mojo::Message", align 8
  %4 = getelementptr inbounds %"class.network::mojom::blink::NetworkServiceTest_GetLatestMemoryPressureLevel_ProxyToResponder", %"class.network::mojom::blink::NetworkServiceTest_GetLatestMemoryPressureLevel_ProxyToResponder"* %0, i64 0, i32 1
  %5 = load i8, i8* %4, align 8, !range !4
  %6 = icmp eq i8 %5, 0
  %7 = select i1 %6, i32 2, i32 6
  %8 = bitcast %"class.mojo::Message"* %3 to i8*
  call void @llvm.lifetime.start.p0i8(i64 120, i8* nonnull %8) #11
  call void @llvm.memset.p0i8.i64(i8* nonnull align 8 %8, i8 -86, i64 120, i1 false)
  call void @_ZN4mojo7MessageC1EjjmmPNSt3__16vectorINS_16ScopedHandleBaseINS_6HandleEEENS1_9allocatorIS5_EEEE(%"class.mojo::Message"* nonnull %3, i32 1911011900, i32 %7, i64 0, i64 0, %"class.std::__1::vector"* null) #11
  %9 = getelementptr inbounds %"class.mojo::Message", %"class.mojo::Message"* %3, i64 0, i32 1
  %10 = call i64 @_ZN4mojo8internal6Buffer8AllocateEm(%"class.mojo::internal::Buffer"* %9, i64 16) #11
  %11 = getelementptr inbounds %"class.mojo::Message", %"class.mojo::Message"* %3, i64 0, i32 1, i32 2
  %12 = load i8*, i8** %11, align 8
  %13 = getelementptr inbounds i8, i8* %12, i64 %10
  %14 = bitcast i8* %13 to %"class.network::mojom::internal::NetworkServiceTest_GetLatestMemoryPressureLevel_ResponseParams_Data"*
  call void @_ZN7network5mojom8internal67NetworkServiceTest_GetLatestMemoryPressureLevel_ResponseParams_DataC1Ev(%"class.network::mojom::internal::NetworkServiceTest_GetLatestMemoryPressureLevel_ResponseParams_Data"* %14) #11
  %15 = load i8*, i8** %11, align 8
  %16 = getelementptr inbounds i8, i8* %15, i64 %10
  %17 = getelementptr inbounds i8, i8* %16, i64 8
  %18 = bitcast i8* %17 to i32*
  store i32 %1, i32* %18, align 4
  %19 = getelementptr inbounds %"class.network::mojom::blink::NetworkServiceTest_GetLatestMemoryPressureLevel_ProxyToResponder", %"class.network::mojom::blink::NetworkServiceTest_GetLatestMemoryPressureLevel_ProxyToResponder"* %0, i64 0, i32 0
  %20 = load i64, i64* %19, align 8
  %21 = bitcast i8** %11 to %"struct.mojo::internal::MessageHeaderV1"**
  %22 = load %"struct.mojo::internal::MessageHeaderV1"*, %"struct.mojo::internal::MessageHeaderV1"** %21, align 8
  %23 = getelementptr inbounds %"struct.mojo::internal::MessageHeaderV1", %"struct.mojo::internal::MessageHeaderV1"* %22, i64 0, i32 1
  store i64 %20, i64* %23, align 1
  %24 = getelementptr inbounds %"class.network::mojom::blink::NetworkServiceTest_GetLatestMemoryPressureLevel_ProxyToResponder", %"class.network::mojom::blink::NetworkServiceTest_GetLatestMemoryPressureLevel_ProxyToResponder"* %0, i64 0, i32 2, i32 0, i32 0, i32 0
  %25 = load %"class.mojo::MessageReceiverWithStatus"*, %"class.mojo::MessageReceiverWithStatus"** %24, align 8
  %26 = getelementptr inbounds %"class.mojo::MessageReceiverWithStatus", %"class.mojo::MessageReceiverWithStatus"* %25, i64 0, i32 0
  %27 = bitcast %"class.mojo::MessageReceiverWithStatus"* %25 to i1 (%"class.mojo::MessageReceiver"*, %"class.mojo::Message"*)***
  %28 = load i1 (%"class.mojo::MessageReceiver"*, %"class.mojo::Message"*)**, i1 (%"class.mojo::MessageReceiver"*, %"class.mojo::Message"*)*** %27, align 8
  %29 = getelementptr inbounds i1 (%"class.mojo::MessageReceiver"*, %"class.mojo::Message"*)*, i1 (%"class.mojo::MessageReceiver"*, %"class.mojo::Message"*)** %28, i64 3
  %30 = load i1 (%"class.mojo::MessageReceiver"*, %"class.mojo::Message"*)*, i1 (%"class.mojo::MessageReceiver"*, %"class.mojo::Message"*)** %29, align 8
  %31 = call zeroext i1 %30(%"class.mojo::MessageReceiver"* %26, %"class.mojo::Message"* nonnull %3) #11
  %32 = load %"class.mojo::MessageReceiverWithStatus"*, %"class.mojo::MessageReceiverWithStatus"** %24, align 8
  store %"class.mojo::MessageReceiverWithStatus"* null, %"class.mojo::MessageReceiverWithStatus"** %24, align 8
  %33 = icmp eq %"class.mojo::MessageReceiverWithStatus"* %32, null
  br i1 %33, label %39, label %34

34:                                               ; preds = %2
  %35 = bitcast %"class.mojo::MessageReceiverWithStatus"* %32 to void (%"class.mojo::MessageReceiverWithStatus"*)***
  %36 = load void (%"class.mojo::MessageReceiverWithStatus"*)**, void (%"class.mojo::MessageReceiverWithStatus"*)*** %35, align 8
  %37 = getelementptr inbounds void (%"class.mojo::MessageReceiverWithStatus"*)*, void (%"class.mojo::MessageReceiverWithStatus"*)** %36, i64 1
  %38 = load void (%"class.mojo::MessageReceiverWithStatus"*)*, void (%"class.mojo::MessageReceiverWithStatus"*)** %37, align 8
  call void %38(%"class.mojo::MessageReceiverWithStatus"* nonnull %32) #11
  br label %39

39:                                               ; preds = %2, %34
  call void @_ZN4mojo7MessageD1Ev(%"class.mojo::Message"* nonnull %3) #11
  call void @llvm.lifetime.end.p0i8(i64 120, i8* nonnull %8) #11
  ret void
}

; Function Attrs: nounwind ssp uwtable
define hidden zeroext i1 @_ZN7network5mojom5blink66NetworkServiceTest_GetLatestMemoryPressureLevel_HandleSyncResponse6AcceptEPN4mojo7MessageE(%"class.network::mojom::blink::NetworkServiceTest_GetLatestMemoryPressureLevel_HandleSyncResponse"* nocapture readonly, %"class.mojo::Message"*) unnamed_addr #0 align 2 {
  %3 = tail call i8* @_ZNK4mojo7Message7payloadEv(%"class.mojo::Message"* %1) #11
  %4 = getelementptr inbounds i8, i8* %3, i64 8
  %5 = bitcast i8* %4 to i32*
  %6 = load i32, i32* %5, align 4
  %7 = getelementptr inbounds %"class.network::mojom::blink::NetworkServiceTest_GetLatestMemoryPressureLevel_HandleSyncResponse", %"class.network::mojom::blink::NetworkServiceTest_GetLatestMemoryPressureLevel_HandleSyncResponse"* %0, i64 0, i32 2
  %8 = load i32*, i32** %7, align 8
  store i32 %6, i32* %8, align 4
  %9 = getelementptr inbounds %"class.network::mojom::blink::NetworkServiceTest_GetLatestMemoryPressureLevel_HandleSyncResponse", %"class.network::mojom::blink::NetworkServiceTest_GetLatestMemoryPressureLevel_HandleSyncResponse"* %0, i64 0, i32 1
  %10 = load i8*, i8** %9, align 8
  store i8 1, i8* %10, align 1
  ret i1 true
}

; Function Attrs: nounwind ssp uwtable
define hidden zeroext i1 @_ZN7network5mojom5blink72NetworkServiceTest_GetPeerToPeerConnectionsCountChange_ForwardToCallback6AcceptEPN4mojo7MessageE(%"class.network::mojom::blink::NetworkServiceTest_GetPeerToPeerConnectionsCountChange_ForwardToCallback"* nocapture, %"class.mojo::Message"*) unnamed_addr #0 align 2 {
  %3 = alloca %"class.base::OnceCallback.105", align 8
  %4 = tail call i8* @_ZNK4mojo7Message7payloadEv(%"class.mojo::Message"* %1) #11
  %5 = getelementptr inbounds %"class.network::mojom::blink::NetworkServiceTest_GetPeerToPeerConnectionsCountChange_ForwardToCallback", %"class.network::mojom::blink::NetworkServiceTest_GetPeerToPeerConnectionsCountChange_ForwardToCallback"* %0, i64 0, i32 1, i32 0, i32 0, i32 0
  %6 = load %"class.base::internal::BindStateBase"*, %"class.base::internal::BindStateBase"** %5, align 8
  %7 = icmp eq %"class.base::internal::BindStateBase"* %6, null
  br i1 %7, label %19, label %8

8:                                                ; preds = %2
  %9 = ptrtoint %"class.base::internal::BindStateBase"* %6 to i64
  %10 = getelementptr inbounds i8, i8* %4, i64 8
  %11 = bitcast i8* %10 to i32*
  %12 = load i32, i32* %11, align 4
  %13 = bitcast %"class.base::OnceCallback.105"* %3 to i8*
  call void @llvm.lifetime.start.p0i8(i64 8, i8* nonnull %13) #11
  %14 = bitcast %"class.base::OnceCallback.105"* %3 to i64*
  store i64 %9, i64* %14, align 8
  store %"class.base::internal::BindStateBase"* null, %"class.base::internal::BindStateBase"** %5, align 8
  %15 = getelementptr inbounds %"class.base::OnceCallback.105", %"class.base::OnceCallback.105"* %3, i64 0, i32 0
  %16 = getelementptr inbounds %"class.base::internal::BindStateBase", %"class.base::internal::BindStateBase"* %6, i64 0, i32 1
  %17 = bitcast void ()** %16 to void (%"class.base::internal::BindStateBase"*, i32)**
  %18 = load void (%"class.base::internal::BindStateBase"*, i32)*, void (%"class.base::internal::BindStateBase"*, i32)** %17, align 8
  tail call void %18(%"class.base::internal::BindStateBase"* nonnull %6, i32 %12) #11
  call void @_ZN4base8internal12CallbackBaseD2Ev(%"class.base::internal::CallbackBase"* nonnull %15) #11
  call void @llvm.lifetime.end.p0i8(i64 8, i8* nonnull %13) #11
  br label %19

19:                                               ; preds = %2, %8
  ret i1 true
}

; Function Attrs: nounwind ssp uwtable
define hidden void @_ZN7network5mojom5blink71NetworkServiceTest_GetPeerToPeerConnectionsCountChange_ProxyToResponder3RunEj(%"class.network::mojom::blink::NetworkServiceTest_GetPeerToPeerConnectionsCountChange_ProxyToResponder"* nocapture, i32) #0 align 2 {
  %3 = alloca %"class.mojo::Message", align 8
  %4 = getelementptr inbounds %"class.network::mojom::blink::NetworkServiceTest_GetPeerToPeerConnectionsCountChange_ProxyToResponder", %"class.network::mojom::blink::NetworkServiceTest_GetPeerToPeerConnectionsCountChange_ProxyToResponder"* %0, i64 0, i32 1
  %5 = load i8, i8* %4, align 8, !range !4
  %6 = icmp eq i8 %5, 0
  %7 = select i1 %6, i32 2, i32 6
  %8 = bitcast %"class.mojo::Message"* %3 to i8*
  call void @llvm.lifetime.start.p0i8(i64 120, i8* nonnull %8) #11
  call void @llvm.memset.p0i8.i64(i8* nonnull align 8 %8, i8 -86, i64 120, i1 false)
  call void @_ZN4mojo7MessageC1EjjmmPNSt3__16vectorINS_16ScopedHandleBaseINS_6HandleEEENS1_9allocatorIS5_EEEE(%"class.mojo::Message"* nonnull %3, i32 2111883237, i32 %7, i64 0, i64 0, %"class.std::__1::vector"* null) #11
  %9 = getelementptr inbounds %"class.mojo::Message", %"class.mojo::Message"* %3, i64 0, i32 1
  %10 = call i64 @_ZN4mojo8internal6Buffer8AllocateEm(%"class.mojo::internal::Buffer"* %9, i64 16) #11
  %11 = getelementptr inbounds %"class.mojo::Message", %"class.mojo::Message"* %3, i64 0, i32 1, i32 2
  %12 = load i8*, i8** %11, align 8
  %13 = getelementptr inbounds i8, i8* %12, i64 %10
  %14 = bitcast i8* %13 to %"class.network::mojom::internal::NetworkServiceTest_GetPeerToPeerConnectionsCountChange_ResponseParams_Data"*
  call void @_ZN7network5mojom8internal74NetworkServiceTest_GetPeerToPeerConnectionsCountChange_ResponseParams_DataC1Ev(%"class.network::mojom::internal::NetworkServiceTest_GetPeerToPeerConnectionsCountChange_ResponseParams_Data"* %14) #11
  %15 = load i8*, i8** %11, align 8
  %16 = getelementptr inbounds i8, i8* %15, i64 %10
  %17 = getelementptr inbounds i8, i8* %16, i64 8
  %18 = bitcast i8* %17 to i32*
  store i32 %1, i32* %18, align 4
  %19 = getelementptr inbounds %"class.network::mojom::blink::NetworkServiceTest_GetPeerToPeerConnectionsCountChange_ProxyToResponder", %"class.network::mojom::blink::NetworkServiceTest_GetPeerToPeerConnectionsCountChange_ProxyToResponder"* %0, i64 0, i32 0
  %20 = load i64, i64* %19, align 8
  %21 = bitcast i8** %11 to %"struct.mojo::internal::MessageHeaderV1"**
  %22 = load %"struct.mojo::internal::MessageHeaderV1"*, %"struct.mojo::internal::MessageHeaderV1"** %21, align 8
  %23 = getelementptr inbounds %"struct.mojo::internal::MessageHeaderV1", %"struct.mojo::internal::MessageHeaderV1"* %22, i64 0, i32 1
  store i64 %20, i64* %23, align 1
  %24 = getelementptr inbounds %"class.network::mojom::blink::NetworkServiceTest_GetPeerToPeerConnectionsCountChange_ProxyToResponder", %"class.network::mojom::blink::NetworkServiceTest_GetPeerToPeerConnectionsCountChange_ProxyToResponder"* %0, i64 0, i32 2, i32 0, i32 0, i32 0
  %25 = load %"class.mojo::MessageReceiverWithStatus"*, %"class.mojo::MessageReceiverWithStatus"** %24, align 8
  %26 = getelementptr inbounds %"class.mojo::MessageReceiverWithStatus", %"class.mojo::MessageReceiverWithStatus"* %25, i64 0, i32 0
  %27 = bitcast %"class.mojo::MessageReceiverWithStatus"* %25 to i1 (%"class.mojo::MessageReceiver"*, %"class.mojo::Message"*)***
  %28 = load i1 (%"class.mojo::MessageReceiver"*, %"class.mojo::Message"*)**, i1 (%"class.mojo::MessageReceiver"*, %"class.mojo::Message"*)*** %27, align 8
  %29 = getelementptr inbounds i1 (%"class.mojo::MessageReceiver"*, %"class.mojo::Message"*)*, i1 (%"class.mojo::MessageReceiver"*, %"class.mojo::Message"*)** %28, i64 3
  %30 = load i1 (%"class.mojo::MessageReceiver"*, %"class.mojo::Message"*)*, i1 (%"class.mojo::MessageReceiver"*, %"class.mojo::Message"*)** %29, align 8
  %31 = call zeroext i1 %30(%"class.mojo::MessageReceiver"* %26, %"class.mojo::Message"* nonnull %3) #11
  %32 = load %"class.mojo::MessageReceiverWithStatus"*, %"class.mojo::MessageReceiverWithStatus"** %24, align 8
  store %"class.mojo::MessageReceiverWithStatus"* null, %"class.mojo::MessageReceiverWithStatus"** %24, align 8
  %33 = icmp eq %"class.mojo::MessageReceiverWithStatus"* %32, null
  br i1 %33, label %39, label %34

34:                                               ; preds = %2
  %35 = bitcast %"class.mojo::MessageReceiverWithStatus"* %32 to void (%"class.mojo::MessageReceiverWithStatus"*)***
  %36 = load void (%"class.mojo::MessageReceiverWithStatus"*)**, void (%"class.mojo::MessageReceiverWithStatus"*)*** %35, align 8
  %37 = getelementptr inbounds void (%"class.mojo::MessageReceiverWithStatus"*)*, void (%"class.mojo::MessageReceiverWithStatus"*)** %36, i64 1
  %38 = load void (%"class.mojo::MessageReceiverWithStatus"*)*, void (%"class.mojo::MessageReceiverWithStatus"*)** %37, align 8
  call void %38(%"class.mojo::MessageReceiverWithStatus"* nonnull %32) #11
  br label %39

39:                                               ; preds = %2, %34
  call void @_ZN4mojo7MessageD1Ev(%"class.mojo::Message"* nonnull %3) #11
  call void @llvm.lifetime.end.p0i8(i64 120, i8* nonnull %8) #11
  ret void
}

; Function Attrs: nounwind ssp uwtable
define hidden zeroext i1 @_ZN7network5mojom5blink73NetworkServiceTest_GetPeerToPeerConnectionsCountChange_HandleSyncResponse6AcceptEPN4mojo7MessageE(%"class.network::mojom::blink::NetworkServiceTest_GetPeerToPeerConnectionsCountChange_HandleSyncResponse"* nocapture readonly, %"class.mojo::Message"*) unnamed_addr #0 align 2 {
  %3 = tail call i8* @_ZNK4mojo7Message7payloadEv(%"class.mojo::Message"* %1) #11
  %4 = getelementptr inbounds i8, i8* %3, i64 8
  %5 = bitcast i8* %4 to i32*
  %6 = load i32, i32* %5, align 4
  %7 = getelementptr inbounds %"class.network::mojom::blink::NetworkServiceTest_GetPeerToPeerConnectionsCountChange_HandleSyncResponse", %"class.network::mojom::blink::NetworkServiceTest_GetPeerToPeerConnectionsCountChange_HandleSyncResponse"* %0, i64 0, i32 2
  %8 = load i32*, i32** %7, align 8
  store i32 %6, i32* %8, align 4
  %9 = getelementptr inbounds %"class.network::mojom::blink::NetworkServiceTest_GetPeerToPeerConnectionsCountChange_HandleSyncResponse", %"class.network::mojom::blink::NetworkServiceTest_GetPeerToPeerConnectionsCountChange_HandleSyncResponse"* %0, i64 0, i32 1
  %10 = load i8*, i8** %9, align 8
  store i8 1, i8* %10, align 1
  ret i1 true
}

; Function Attrs: nounwind ssp uwtable
define hidden zeroext i1 @_ZN7network5mojom5blink64NetworkServiceTest_GetEnvironmentVariableValue_ForwardToCallback6AcceptEPN4mojo7MessageE(%"class.network::mojom::blink::NetworkServiceTest_GetEnvironmentVariableValue_ForwardToCallback"* nocapture, %"class.mojo::Message"*) unnamed_addr #0 align 2 {
  %3 = alloca %"class.base::OnceCallback.107", align 8
  %4 = alloca %"class.WTF::String", align 8
  %5 = tail call i8* @_ZNK4mojo7Message7payloadEv(%"class.mojo::Message"* %1) #11
  %6 = bitcast %"class.WTF::String"* %4 to i8*
  call void @llvm.lifetime.start.p0i8(i64 8, i8* nonnull %6) #11
  %7 = getelementptr inbounds %"class.WTF::String", %"class.WTF::String"* %4, i64 0, i32 0, i32 0
  store %"class.WTF::StringImpl"* null, %"class.WTF::StringImpl"** %7, align 8
  %8 = getelementptr inbounds i8, i8* %5, i64 8
  %9 = bitcast i8* %8 to i64*
  %10 = load i64, i64* %9, align 8
  %11 = icmp eq i64 %10, 0
  br i1 %11, label %12, label %13

12:                                               ; preds = %2
  call void @_ZN4mojo12StringTraitsIN3WTF6StringEE9SetToNullEPS2_(%"class.WTF::String"* nonnull %4) #11
  br label %21

13:                                               ; preds = %2
  %14 = getelementptr inbounds i8, i8* %8, i64 %10
  %15 = bitcast i8* %14 to %"class.mojo::internal::Array_Data.96"*
  %16 = call zeroext i1 @_ZN4mojo12StringTraitsIN3WTF6StringEE4ReadENS_14StringDataViewEPS2_(%"class.mojo::internal::Array_Data.96"* nonnull %15, %"class.WTF::String"* nonnull %4) #11
  br i1 %16, label %17, label %20

17:                                               ; preds = %13
  %18 = call zeroext i1 @_ZN4mojo12StringTraitsIN3WTF6StringEE11IsValidUTF8ERKS2_(%"class.WTF::String"* nonnull dereferenceable(8) %4) #11
  br i1 %18, label %21, label %19

19:                                               ; preds = %17
  call void @_ZN4mojo8internal34RecordInvalidStringDeserializationEv() #11
  br label %21

20:                                               ; preds = %13
  call void @_ZN4mojo8internal31ReportValidationErrorForMessageEPNS_7MessageENS0_15ValidationErrorEPKcjb(%"class.mojo::Message"* %1, i32 17, i8* getelementptr inbounds ([33 x i8], [33 x i8]* @_ZN7network5mojom5blink18NetworkServiceTest5Name_E, i64 0, i64 0), i32 13, i1 zeroext true) #11
  br label %33

21:                                               ; preds = %12, %19, %17
  %22 = getelementptr inbounds %"class.network::mojom::blink::NetworkServiceTest_GetEnvironmentVariableValue_ForwardToCallback", %"class.network::mojom::blink::NetworkServiceTest_GetEnvironmentVariableValue_ForwardToCallback"* %0, i64 0, i32 1, i32 0, i32 0, i32 0
  %23 = load %"class.base::internal::BindStateBase"*, %"class.base::internal::BindStateBase"** %22, align 8
  %24 = icmp eq %"class.base::internal::BindStateBase"* %23, null
  br i1 %24, label %33, label %25

25:                                               ; preds = %21
  %26 = ptrtoint %"class.base::internal::BindStateBase"* %23 to i64
  %27 = bitcast %"class.base::OnceCallback.107"* %3 to i8*
  call void @llvm.lifetime.start.p0i8(i64 8, i8* nonnull %27) #11
  %28 = bitcast %"class.base::OnceCallback.107"* %3 to i64*
  store i64 %26, i64* %28, align 8
  store %"class.base::internal::BindStateBase"* null, %"class.base::internal::BindStateBase"** %22, align 8
  %29 = getelementptr inbounds %"class.base::OnceCallback.107", %"class.base::OnceCallback.107"* %3, i64 0, i32 0
  %30 = getelementptr inbounds %"class.base::internal::BindStateBase", %"class.base::internal::BindStateBase"* %23, i64 0, i32 1
  %31 = bitcast void ()** %30 to void (%"class.base::internal::BindStateBase"*, %"class.WTF::String"*)**
  %32 = load void (%"class.base::internal::BindStateBase"*, %"class.WTF::String"*)*, void (%"class.base::internal::BindStateBase"*, %"class.WTF::String"*)** %31, align 8
  call void %32(%"class.base::internal::BindStateBase"* nonnull %23, %"class.WTF::String"* nonnull dereferenceable(8) %4) #11
  call void @_ZN4base8internal12CallbackBaseD2Ev(%"class.base::internal::CallbackBase"* nonnull %29) #11
  call void @llvm.lifetime.end.p0i8(i64 8, i8* nonnull %27) #11
  br label %33

33:                                               ; preds = %21, %25, %20
  %34 = phi i1 [ false, %20 ], [ true, %25 ], [ true, %21 ]
  %35 = load %"class.WTF::StringImpl"*, %"class.WTF::StringImpl"** %7, align 8
  %36 = icmp eq %"class.WTF::StringImpl"* %35, null
  br i1 %36, label %50, label %37

37:                                               ; preds = %33
  %38 = getelementptr inbounds %"class.WTF::StringImpl", %"class.WTF::StringImpl"* %35, i64 0, i32 2, i32 0, i32 0, i32 0, i32 0, i32 0
  %39 = load atomic i32, i32* %38 monotonic, align 4
  %40 = and i32 %39, 2
  %41 = icmp eq i32 %40, 0
  %42 = getelementptr inbounds %"class.WTF::StringImpl", %"class.WTF::StringImpl"* %35, i64 0, i32 0
  %43 = load i32, i32* %42, align 4
  br i1 %41, label %44, label %46

44:                                               ; preds = %37
  %45 = add i32 %43, -1
  store i32 %45, i32* %42, align 4
  br label %46

46:                                               ; preds = %44, %37
  %47 = phi i32 [ %45, %44 ], [ %43, %37 ]
  %48 = icmp eq i32 %47, 0
  br i1 %48, label %49, label %50

49:                                               ; preds = %46
  call void @_ZNK3WTF10StringImpl18DestroyIfNotStaticEv(%"class.WTF::StringImpl"* nonnull %35) #11
  br label %50

50:                                               ; preds = %33, %46, %49
  call void @llvm.lifetime.end.p0i8(i64 8, i8* nonnull %6) #11
  ret i1 %34
}

; Function Attrs: nounwind ssp uwtable
define hidden void @_ZN7network5mojom5blink63NetworkServiceTest_GetEnvironmentVariableValue_ProxyToResponder3RunERKN3WTF6StringE(%"class.network::mojom::blink::NetworkServiceTest_GetEnvironmentVariableValue_ProxyToResponder"* nocapture, %"class.WTF::String"* dereferenceable(8)) #0 align 2 {
  %3 = alloca %"class.WTF::StringUTF8Adaptor", align 8
  %4 = alloca %"class.mojo::Message", align 8
  %5 = getelementptr inbounds %"class.network::mojom::blink::NetworkServiceTest_GetEnvironmentVariableValue_ProxyToResponder", %"class.network::mojom::blink::NetworkServiceTest_GetEnvironmentVariableValue_ProxyToResponder"* %0, i64 0, i32 1
  %6 = load i8, i8* %5, align 8, !range !4
  %7 = icmp eq i8 %6, 0
  %8 = select i1 %7, i32 2, i32 6
  %9 = bitcast %"class.mojo::Message"* %4 to i8*
  call void @llvm.lifetime.start.p0i8(i64 120, i8* nonnull %9) #11
  call void @llvm.memset.p0i8.i64(i8* nonnull align 8 %9, i8 -86, i64 120, i1 false)
  call void @_ZN4mojo7MessageC1EjjmmPNSt3__16vectorINS_16ScopedHandleBaseINS_6HandleEEENS1_9allocatorIS5_EEEE(%"class.mojo::Message"* nonnull %4, i32 1072134097, i32 %8, i64 0, i64 0, %"class.std::__1::vector"* null) #11
  %10 = getelementptr inbounds %"class.mojo::Message", %"class.mojo::Message"* %4, i64 0, i32 1
  %11 = call i64 @_ZN4mojo8internal6Buffer8AllocateEm(%"class.mojo::internal::Buffer"* %10, i64 16) #11
  %12 = getelementptr inbounds %"class.mojo::Message", %"class.mojo::Message"* %4, i64 0, i32 1, i32 2
  %13 = load i8*, i8** %12, align 8
  %14 = getelementptr inbounds i8, i8* %13, i64 %11
  %15 = bitcast i8* %14 to %"class.network::mojom::internal::NetworkServiceTest_GetEnvironmentVariableValue_ResponseParams_Data"*
  call void @_ZN7network5mojom8internal66NetworkServiceTest_GetEnvironmentVariableValue_ResponseParams_DataC1Ev(%"class.network::mojom::internal::NetworkServiceTest_GetEnvironmentVariableValue_ResponseParams_Data"* %15) #11
  %16 = getelementptr inbounds %"class.WTF::String", %"class.WTF::String"* %1, i64 0, i32 0, i32 0
  %17 = load %"class.WTF::StringImpl"*, %"class.WTF::StringImpl"** %16, align 8
  %18 = icmp eq %"class.WTF::StringImpl"* %17, null
  br i1 %18, label %19, label %24

19:                                               ; preds = %2
  %20 = load i8*, i8** %12, align 8
  %21 = getelementptr inbounds i8, i8* %20, i64 %11
  %22 = getelementptr inbounds i8, i8* %21, i64 8
  %23 = bitcast i8* %22 to %"struct.mojo::internal::Pointer.92"*
  br label %56

24:                                               ; preds = %2
  %25 = bitcast %"class.WTF::StringUTF8Adaptor"* %3 to i8*
  call void @llvm.lifetime.start.p0i8(i64 40, i8* nonnull %25) #11
  call void @llvm.memset.p0i8.i64(i8* nonnull align 8 %25, i8 -86, i64 40, i1 false) #11
  call void @_ZN4mojo12StringTraitsIN3WTF6StringEE7GetUTF8ERKS2_(%"class.WTF::StringUTF8Adaptor"* nonnull sret %3, %"class.WTF::String"* dereferenceable(8) %1) #11
  %26 = getelementptr inbounds %"class.WTF::StringUTF8Adaptor", %"class.WTF::StringUTF8Adaptor"* %3, i64 0, i32 2
  %27 = load i32, i32* %26, align 8
  %28 = icmp ugt i32 %27, -9
  br i1 %28, label %39, label %29

29:                                               ; preds = %24
  %30 = add nuw i32 %27, 8
  %31 = zext i32 %30 to i64
  %32 = call i64 @_ZN4mojo8internal6Buffer8AllocateEm(%"class.mojo::internal::Buffer"* %10, i64 %31) #11
  %33 = load i8*, i8** %12, align 8
  %34 = getelementptr inbounds i8, i8* %33, i64 %32
  %35 = bitcast i8* %34 to i32*
  store i32 %30, i32* %35, align 1
  %36 = getelementptr inbounds i8, i8* %34, i64 4
  %37 = bitcast i8* %36 to i32*
  store i32 %27, i32* %37, align 1
  %38 = load i32, i32* %26, align 8
  br label %39

39:                                               ; preds = %24, %29
  %40 = phi i64 [ -1, %24 ], [ %32, %29 ]
  %41 = phi i32 [ %27, %24 ], [ %38, %29 ]
  %42 = load i8*, i8** %12, align 8
  %43 = getelementptr inbounds i8, i8* %42, i64 %40
  %44 = getelementptr inbounds i8, i8* %43, i64 8
  %45 = getelementptr inbounds %"class.WTF::StringUTF8Adaptor", %"class.WTF::StringUTF8Adaptor"* %3, i64 0, i32 1
  %46 = load i8*, i8** %45, align 8
  %47 = zext i32 %41 to i64
  call void @llvm.memcpy.p0i8.p0i8.i64(i8* align 1 %44, i8* align 1 %46, i64 %47, i1 false) #11
  call void @_ZN3WTF17StringUTF8AdaptorD1Ev(%"class.WTF::StringUTF8Adaptor"* nonnull %3) #11
  call void @llvm.lifetime.end.p0i8(i64 40, i8* nonnull %25) #11
  %48 = load i8*, i8** %12, align 8
  %49 = getelementptr inbounds i8, i8* %48, i64 %11
  %50 = getelementptr inbounds i8, i8* %49, i64 8
  %51 = bitcast i8* %50 to %"struct.mojo::internal::Pointer.92"*
  %52 = icmp eq i64 %40, -1
  br i1 %52, label %56, label %53

53:                                               ; preds = %39
  %54 = getelementptr inbounds i8, i8* %48, i64 %40
  %55 = bitcast i8* %54 to %"class.mojo::internal::Array_Data.96"*
  br label %56

56:                                               ; preds = %19, %39, %53
  %57 = phi %"struct.mojo::internal::Pointer.92"* [ %51, %53 ], [ %51, %39 ], [ %23, %19 ]
  %58 = phi %"class.mojo::internal::Array_Data.96"* [ %55, %53 ], [ null, %39 ], [ null, %19 ]
  %59 = getelementptr inbounds %"struct.mojo::internal::Pointer.92", %"struct.mojo::internal::Pointer.92"* %57, i64 0, i32 0
  %60 = icmp eq %"class.mojo::internal::Array_Data.96"* %58, null
  %61 = ptrtoint %"class.mojo::internal::Array_Data.96"* %58 to i64
  %62 = ptrtoint %"struct.mojo::internal::Pointer.92"* %57 to i64
  %63 = sub i64 %61, %62
  %64 = select i1 %60, i64 0, i64 %63
  store i64 %64, i64* %59, align 8
  %65 = getelementptr inbounds %"class.network::mojom::blink::NetworkServiceTest_GetEnvironmentVariableValue_ProxyToResponder", %"class.network::mojom::blink::NetworkServiceTest_GetEnvironmentVariableValue_ProxyToResponder"* %0, i64 0, i32 0
  %66 = load i64, i64* %65, align 8
  %67 = bitcast i8** %12 to %"struct.mojo::internal::MessageHeaderV1"**
  %68 = load %"struct.mojo::internal::MessageHeaderV1"*, %"struct.mojo::internal::MessageHeaderV1"** %67, align 8
  %69 = getelementptr inbounds %"struct.mojo::internal::MessageHeaderV1", %"struct.mojo::internal::MessageHeaderV1"* %68, i64 0, i32 1
  store i64 %66, i64* %69, align 1
  %70 = getelementptr inbounds %"class.network::mojom::blink::NetworkServiceTest_GetEnvironmentVariableValue_ProxyToResponder", %"class.network::mojom::blink::NetworkServiceTest_GetEnvironmentVariableValue_ProxyToResponder"* %0, i64 0, i32 2, i32 0, i32 0, i32 0
  %71 = load %"class.mojo::MessageReceiverWithStatus"*, %"class.mojo::MessageReceiverWithStatus"** %70, align 8
  %72 = getelementptr inbounds %"class.mojo::MessageReceiverWithStatus", %"class.mojo::MessageReceiverWithStatus"* %71, i64 0, i32 0
  %73 = bitcast %"class.mojo::MessageReceiverWithStatus"* %71 to i1 (%"class.mojo::MessageReceiver"*, %"class.mojo::Message"*)***
  %74 = load i1 (%"class.mojo::MessageReceiver"*, %"class.mojo::Message"*)**, i1 (%"class.mojo::MessageReceiver"*, %"class.mojo::Message"*)*** %73, align 8
  %75 = getelementptr inbounds i1 (%"class.mojo::MessageReceiver"*, %"class.mojo::Message"*)*, i1 (%"class.mojo::MessageReceiver"*, %"class.mojo::Message"*)** %74, i64 3
  %76 = load i1 (%"class.mojo::MessageReceiver"*, %"class.mojo::Message"*)*, i1 (%"class.mojo::MessageReceiver"*, %"class.mojo::Message"*)** %75, align 8
  %77 = call zeroext i1 %76(%"class.mojo::MessageReceiver"* %72, %"class.mojo::Message"* nonnull %4) #11
  %78 = load %"class.mojo::MessageReceiverWithStatus"*, %"class.mojo::MessageReceiverWithStatus"** %70, align 8
  store %"class.mojo::MessageReceiverWithStatus"* null, %"class.mojo::MessageReceiverWithStatus"** %70, align 8
  %79 = icmp eq %"class.mojo::MessageReceiverWithStatus"* %78, null
  br i1 %79, label %85, label %80

80:                                               ; preds = %56
  %81 = bitcast %"class.mojo::MessageReceiverWithStatus"* %78 to void (%"class.mojo::MessageReceiverWithStatus"*)***
  %82 = load void (%"class.mojo::MessageReceiverWithStatus"*)**, void (%"class.mojo::MessageReceiverWithStatus"*)*** %81, align 8
  %83 = getelementptr inbounds void (%"class.mojo::MessageReceiverWithStatus"*)*, void (%"class.mojo::MessageReceiverWithStatus"*)** %82, i64 1
  %84 = load void (%"class.mojo::MessageReceiverWithStatus"*)*, void (%"class.mojo::MessageReceiverWithStatus"*)** %83, align 8
  call void %84(%"class.mojo::MessageReceiverWithStatus"* nonnull %78) #11
  br label %85

85:                                               ; preds = %56, %80
  call void @_ZN4mojo7MessageD1Ev(%"class.mojo::Message"* nonnull %4) #11
  call void @llvm.lifetime.end.p0i8(i64 120, i8* nonnull %9) #11
  ret void
}

; Function Attrs: nounwind ssp uwtable
define hidden zeroext i1 @_ZN7network5mojom5blink65NetworkServiceTest_GetEnvironmentVariableValue_HandleSyncResponse6AcceptEPN4mojo7MessageE(%"class.network::mojom::blink::NetworkServiceTest_GetEnvironmentVariableValue_HandleSyncResponse"* nocapture readonly, %"class.mojo::Message"*) unnamed_addr #0 align 2 {
  %3 = alloca %"class.WTF::String", align 8
  %4 = tail call i8* @_ZNK4mojo7Message7payloadEv(%"class.mojo::Message"* %1) #11
  %5 = bitcast %"class.WTF::String"* %3 to i8*
  call void @llvm.lifetime.start.p0i8(i64 8, i8* nonnull %5) #11
  %6 = getelementptr inbounds %"class.WTF::String", %"class.WTF::String"* %3, i64 0, i32 0, i32 0
  %7 = bitcast %"class.WTF::String"* %3 to i64*
  store %"class.WTF::StringImpl"* null, %"class.WTF::StringImpl"** %6, align 8
  %8 = getelementptr inbounds i8, i8* %4, i64 8
  %9 = bitcast i8* %8 to i64*
  %10 = load i64, i64* %9, align 8
  %11 = icmp eq i64 %10, 0
  br i1 %11, label %12, label %13

12:                                               ; preds = %2
  call void @_ZN4mojo12StringTraitsIN3WTF6StringEE9SetToNullEPS2_(%"class.WTF::String"* nonnull %3) #11
  br label %21

13:                                               ; preds = %2
  %14 = getelementptr inbounds i8, i8* %8, i64 %10
  %15 = bitcast i8* %14 to %"class.mojo::internal::Array_Data.96"*
  %16 = call zeroext i1 @_ZN4mojo12StringTraitsIN3WTF6StringEE4ReadENS_14StringDataViewEPS2_(%"class.mojo::internal::Array_Data.96"* nonnull %15, %"class.WTF::String"* nonnull %3) #11
  br i1 %16, label %17, label %20

17:                                               ; preds = %13
  %18 = call zeroext i1 @_ZN4mojo12StringTraitsIN3WTF6StringEE11IsValidUTF8ERKS2_(%"class.WTF::String"* nonnull dereferenceable(8) %3) #11
  br i1 %18, label %21, label %19

19:                                               ; preds = %17
  call void @_ZN4mojo8internal34RecordInvalidStringDeserializationEv() #11
  br label %21

20:                                               ; preds = %13
  call void @_ZN4mojo8internal31ReportValidationErrorForMessageEPNS_7MessageENS0_15ValidationErrorEPKcjb(%"class.mojo::Message"* %1, i32 17, i8* getelementptr inbounds ([33 x i8], [33 x i8]* @_ZN7network5mojom5blink18NetworkServiceTest5Name_E, i64 0, i64 0), i32 13, i1 zeroext true) #11
  br label %45

21:                                               ; preds = %12, %19, %17
  %22 = getelementptr inbounds %"class.network::mojom::blink::NetworkServiceTest_GetEnvironmentVariableValue_HandleSyncResponse", %"class.network::mojom::blink::NetworkServiceTest_GetEnvironmentVariableValue_HandleSyncResponse"* %0, i64 0, i32 2
  %23 = load %"class.WTF::String"*, %"class.WTF::String"** %22, align 8
  %24 = load i64, i64* %7, align 8
  store %"class.WTF::StringImpl"* null, %"class.WTF::StringImpl"** %6, align 8
  %25 = bitcast %"class.WTF::String"* %23 to i64*
  %26 = getelementptr inbounds %"class.WTF::String", %"class.WTF::String"* %23, i64 0, i32 0, i32 0
  %27 = load %"class.WTF::StringImpl"*, %"class.WTF::StringImpl"** %26, align 8
  store i64 %24, i64* %25, align 8
  %28 = icmp eq %"class.WTF::StringImpl"* %27, null
  br i1 %28, label %42, label %29

29:                                               ; preds = %21
  %30 = getelementptr inbounds %"class.WTF::StringImpl", %"class.WTF::StringImpl"* %27, i64 0, i32 2, i32 0, i32 0, i32 0, i32 0, i32 0
  %31 = load atomic i32, i32* %30 monotonic, align 4
  %32 = and i32 %31, 2
  %33 = icmp eq i32 %32, 0
  %34 = getelementptr inbounds %"class.WTF::StringImpl", %"class.WTF::StringImpl"* %27, i64 0, i32 0
  %35 = load i32, i32* %34, align 4
  br i1 %33, label %36, label %38

36:                                               ; preds = %29
  %37 = add i32 %35, -1
  store i32 %37, i32* %34, align 4
  br label %38

38:                                               ; preds = %36, %29
  %39 = phi i32 [ %37, %36 ], [ %35, %29 ]
  %40 = icmp eq i32 %39, 0
  br i1 %40, label %41, label %42

41:                                               ; preds = %38
  call void @_ZNK3WTF10StringImpl18DestroyIfNotStaticEv(%"class.WTF::StringImpl"* nonnull %27) #11
  br label %42

42:                                               ; preds = %21, %38, %41
  %43 = getelementptr inbounds %"class.network::mojom::blink::NetworkServiceTest_GetEnvironmentVariableValue_HandleSyncResponse", %"class.network::mojom::blink::NetworkServiceTest_GetEnvironmentVariableValue_HandleSyncResponse"* %0, i64 0, i32 1
  %44 = load i8*, i8** %43, align 8
  store i8 1, i8* %44, align 1
  br label %45

45:                                               ; preds = %42, %20
  %46 = phi i1 [ true, %42 ], [ false, %20 ]
  %47 = load %"class.WTF::StringImpl"*, %"class.WTF::StringImpl"** %6, align 8
  %48 = icmp eq %"class.WTF::StringImpl"* %47, null
  br i1 %48, label %62, label %49

49:                                               ; preds = %45
  %50 = getelementptr inbounds %"class.WTF::StringImpl", %"class.WTF::StringImpl"* %47, i64 0, i32 2, i32 0, i32 0, i32 0, i32 0, i32 0
  %51 = load atomic i32, i32* %50 monotonic, align 4
  %52 = and i32 %51, 2
  %53 = icmp eq i32 %52, 0
  %54 = getelementptr inbounds %"class.WTF::StringImpl", %"class.WTF::StringImpl"* %47, i64 0, i32 0
  %55 = load i32, i32* %54, align 4
  br i1 %53, label %56, label %58

56:                                               ; preds = %49
  %57 = add i32 %55, -1
  store i32 %57, i32* %54, align 4
  br label %58

58:                                               ; preds = %56, %49
  %59 = phi i32 [ %57, %56 ], [ %55, %49 ]
  %60 = icmp eq i32 %59, 0
  br i1 %60, label %61, label %62

61:                                               ; preds = %58
  call void @_ZNK3WTF10StringImpl18DestroyIfNotStaticEv(%"class.WTF::StringImpl"* nonnull %47) #11
  br label %62

62:                                               ; preds = %45, %58, %61
  call void @llvm.lifetime.end.p0i8(i64 8, i8* nonnull %5) #11
  ret i1 %46
}

; Function Attrs: nounwind ssp uwtable
define hidden zeroext i1 @_ZN7network5mojom5blink40NetworkServiceTest_Log_ForwardToCallback6AcceptEPN4mojo7MessageE(%"class.network::mojom::blink::NetworkServiceTest_Log_ForwardToCallback"* nocapture, %"class.mojo::Message"*) unnamed_addr #0 align 2 {
  %3 = alloca %"class.base::OnceCallback", align 8
  %4 = tail call i8* @_ZNK4mojo7Message7payloadEv(%"class.mojo::Message"* %1) #11
  %5 = getelementptr inbounds %"class.network::mojom::blink::NetworkServiceTest_Log_ForwardToCallback", %"class.network::mojom::blink::NetworkServiceTest_Log_ForwardToCallback"* %0, i64 0, i32 1, i32 0, i32 0, i32 0
  %6 = load %"class.base::internal::BindStateBase"*, %"class.base::internal::BindStateBase"** %5, align 8
  %7 = icmp eq %"class.base::internal::BindStateBase"* %6, null
  br i1 %7, label %16, label %8

8:                                                ; preds = %2
  %9 = ptrtoint %"class.base::internal::BindStateBase"* %6 to i64
  %10 = bitcast %"class.base::OnceCallback"* %3 to i8*
  call void @llvm.lifetime.start.p0i8(i64 8, i8* nonnull %10) #11
  %11 = bitcast %"class.base::OnceCallback"* %3 to i64*
  store i64 %9, i64* %11, align 8
  store %"class.base::internal::BindStateBase"* null, %"class.base::internal::BindStateBase"** %5, align 8
  %12 = getelementptr inbounds %"class.base::OnceCallback", %"class.base::OnceCallback"* %3, i64 0, i32 0
  %13 = getelementptr inbounds %"class.base::internal::BindStateBase", %"class.base::internal::BindStateBase"* %6, i64 0, i32 1
  %14 = bitcast void ()** %13 to void (%"class.base::internal::BindStateBase"*)**
  %15 = load void (%"class.base::internal::BindStateBase"*)*, void (%"class.base::internal::BindStateBase"*)** %14, align 8
  tail call void %15(%"class.base::internal::BindStateBase"* nonnull %6) #11
  call void @_ZN4base8internal12CallbackBaseD2Ev(%"class.base::internal::CallbackBase"* nonnull %12) #11
  call void @llvm.lifetime.end.p0i8(i64 8, i8* nonnull %10) #11
  br label %16

16:                                               ; preds = %2, %8
  ret i1 true
}

; Function Attrs: nounwind ssp uwtable
define hidden void @_ZN7network5mojom5blink39NetworkServiceTest_Log_ProxyToResponder3RunEv(%"class.network::mojom::blink::NetworkServiceTest_Log_ProxyToResponder"* nocapture) #0 align 2 {
  %2 = alloca %"class.mojo::Message", align 8
  %3 = getelementptr inbounds %"class.network::mojom::blink::NetworkServiceTest_Log_ProxyToResponder", %"class.network::mojom::blink::NetworkServiceTest_Log_ProxyToResponder"* %0, i64 0, i32 1
  %4 = load i8, i8* %3, align 8, !range !4
  %5 = icmp eq i8 %4, 0
  %6 = select i1 %5, i32 2, i32 6
  %7 = bitcast %"class.mojo::Message"* %2 to i8*
  call void @llvm.lifetime.start.p0i8(i64 120, i8* nonnull %7) #11
  call void @llvm.memset.p0i8.i64(i8* nonnull align 8 %7, i8 -86, i64 120, i1 false)
  call void @_ZN4mojo7MessageC1EjjmmPNSt3__16vectorINS_16ScopedHandleBaseINS_6HandleEEENS1_9allocatorIS5_EEEE(%"class.mojo::Message"* nonnull %2, i32 74253995, i32 %6, i64 0, i64 0, %"class.std::__1::vector"* null) #11
  %8 = getelementptr inbounds %"class.mojo::Message", %"class.mojo::Message"* %2, i64 0, i32 1
  %9 = call i64 @_ZN4mojo8internal6Buffer8AllocateEm(%"class.mojo::internal::Buffer"* %8, i64 8) #11
  %10 = getelementptr inbounds %"class.mojo::Message", %"class.mojo::Message"* %2, i64 0, i32 1, i32 2
  %11 = load i8*, i8** %10, align 8
  %12 = getelementptr inbounds i8, i8* %11, i64 %9
  %13 = bitcast i8* %12 to %"class.network::mojom::internal::NetworkServiceTest_Log_ResponseParams_Data"*
  call void @_ZN7network5mojom8internal42NetworkServiceTest_Log_ResponseParams_DataC1Ev(%"class.network::mojom::internal::NetworkServiceTest_Log_ResponseParams_Data"* %13) #11
  %14 = getelementptr inbounds %"class.network::mojom::blink::NetworkServiceTest_Log_ProxyToResponder", %"class.network::mojom::blink::NetworkServiceTest_Log_ProxyToResponder"* %0, i64 0, i32 0
  %15 = load i64, i64* %14, align 8
  %16 = bitcast i8** %10 to %"struct.mojo::internal::MessageHeaderV1"**
  %17 = load %"struct.mojo::internal::MessageHeaderV1"*, %"struct.mojo::internal::MessageHeaderV1"** %16, align 8
  %18 = getelementptr inbounds %"struct.mojo::internal::MessageHeaderV1", %"struct.mojo::internal::MessageHeaderV1"* %17, i64 0, i32 1
  store i64 %15, i64* %18, align 1
  %19 = getelementptr inbounds %"class.network::mojom::blink::NetworkServiceTest_Log_ProxyToResponder", %"class.network::mojom::blink::NetworkServiceTest_Log_ProxyToResponder"* %0, i64 0, i32 2, i32 0, i32 0, i32 0
  %20 = load %"class.mojo::MessageReceiverWithStatus"*, %"class.mojo::MessageReceiverWithStatus"** %19, align 8
  %21 = getelementptr inbounds %"class.mojo::MessageReceiverWithStatus", %"class.mojo::MessageReceiverWithStatus"* %20, i64 0, i32 0
  %22 = bitcast %"class.mojo::MessageReceiverWithStatus"* %20 to i1 (%"class.mojo::MessageReceiver"*, %"class.mojo::Message"*)***
  %23 = load i1 (%"class.mojo::MessageReceiver"*, %"class.mojo::Message"*)**, i1 (%"class.mojo::MessageReceiver"*, %"class.mojo::Message"*)*** %22, align 8
  %24 = getelementptr inbounds i1 (%"class.mojo::MessageReceiver"*, %"class.mojo::Message"*)*, i1 (%"class.mojo::MessageReceiver"*, %"class.mojo::Message"*)** %23, i64 3
  %25 = load i1 (%"class.mojo::MessageReceiver"*, %"class.mojo::Message"*)*, i1 (%"class.mojo::MessageReceiver"*, %"class.mojo::Message"*)** %24, align 8
  %26 = call zeroext i1 %25(%"class.mojo::MessageReceiver"* %21, %"class.mojo::Message"* nonnull %2) #11
  %27 = load %"class.mojo::MessageReceiverWithStatus"*, %"class.mojo::MessageReceiverWithStatus"** %19, align 8
  store %"class.mojo::MessageReceiverWithStatus"* null, %"class.mojo::MessageReceiverWithStatus"** %19, align 8
  %28 = icmp eq %"class.mojo::MessageReceiverWithStatus"* %27, null
  br i1 %28, label %34, label %29

29:                                               ; preds = %1
  %30 = bitcast %"class.mojo::MessageReceiverWithStatus"* %27 to void (%"class.mojo::MessageReceiverWithStatus"*)***
  %31 = load void (%"class.mojo::MessageReceiverWithStatus"*)**, void (%"class.mojo::MessageReceiverWithStatus"*)*** %30, align 8
  %32 = getelementptr inbounds void (%"class.mojo::MessageReceiverWithStatus"*)*, void (%"class.mojo::MessageReceiverWithStatus"*)** %31, i64 1
  %33 = load void (%"class.mojo::MessageReceiverWithStatus"*)*, void (%"class.mojo::MessageReceiverWithStatus"*)** %32, align 8
  call void %33(%"class.mojo::MessageReceiverWithStatus"* nonnull %27) #11
  br label %34

34:                                               ; preds = %1, %29
  call void @_ZN4mojo7MessageD1Ev(%"class.mojo::Message"* nonnull %2) #11
  call void @llvm.lifetime.end.p0i8(i64 120, i8* nonnull %7) #11
  ret void
}

; Function Attrs: nounwind ssp uwtable
define hidden zeroext i1 @_ZN7network5mojom5blink41NetworkServiceTest_Log_HandleSyncResponse6AcceptEPN4mojo7MessageE(%"class.network::mojom::blink::NetworkServiceTest_Log_HandleSyncResponse"* nocapture readonly, %"class.mojo::Message"*) unnamed_addr #0 align 2 {
  %3 = tail call i8* @_ZNK4mojo7Message7payloadEv(%"class.mojo::Message"* %1) #11
  %4 = getelementptr inbounds %"class.network::mojom::blink::NetworkServiceTest_Log_HandleSyncResponse", %"class.network::mojom::blink::NetworkServiceTest_Log_HandleSyncResponse"* %0, i64 0, i32 1
  %5 = load i8*, i8** %4, align 8
  store i8 1, i8* %5, align 1
  ret i1 true
}

; Function Attrs: nounwind ssp uwtable
define hidden zeroext i1 @_ZN7network5mojom5blink48NetworkServiceTest_SetEVPolicy_ForwardToCallback6AcceptEPN4mojo7MessageE(%"class.network::mojom::blink::NetworkServiceTest_SetEVPolicy_ForwardToCallback"* nocapture, %"class.mojo::Message"*) unnamed_addr #0 align 2 {
  %3 = alloca %"class.base::OnceCallback", align 8
  %4 = tail call i8* @_ZNK4mojo7Message7payloadEv(%"class.mojo::Message"* %1) #11
  %5 = getelementptr inbounds %"class.network::mojom::blink::NetworkServiceTest_SetEVPolicy_ForwardToCallback", %"class.network::mojom::blink::NetworkServiceTest_SetEVPolicy_ForwardToCallback"* %0, i64 0, i32 1, i32 0, i32 0, i32 0
  %6 = load %"class.base::internal::BindStateBase"*, %"class.base::internal::BindStateBase"** %5, align 8
  %7 = icmp eq %"class.base::internal::BindStateBase"* %6, null
  br i1 %7, label %16, label %8

8:                                                ; preds = %2
  %9 = ptrtoint %"class.base::internal::BindStateBase"* %6 to i64
  %10 = bitcast %"class.base::OnceCallback"* %3 to i8*
  call void @llvm.lifetime.start.p0i8(i64 8, i8* nonnull %10) #11
  %11 = bitcast %"class.base::OnceCallback"* %3 to i64*
  store i64 %9, i64* %11, align 8
  store %"class.base::internal::BindStateBase"* null, %"class.base::internal::BindStateBase"** %5, align 8
  %12 = getelementptr inbounds %"class.base::OnceCallback", %"class.base::OnceCallback"* %3, i64 0, i32 0
  %13 = getelementptr inbounds %"class.base::internal::BindStateBase", %"class.base::internal::BindStateBase"* %6, i64 0, i32 1
  %14 = bitcast void ()** %13 to void (%"class.base::internal::BindStateBase"*)**
  %15 = load void (%"class.base::internal::BindStateBase"*)*, void (%"class.base::internal::BindStateBase"*)** %14, align 8
  tail call void %15(%"class.base::internal::BindStateBase"* nonnull %6) #11
  call void @_ZN4base8internal12CallbackBaseD2Ev(%"class.base::internal::CallbackBase"* nonnull %12) #11
  call void @llvm.lifetime.end.p0i8(i64 8, i8* nonnull %10) #11
  br label %16

16:                                               ; preds = %2, %8
  ret i1 true
}

; Function Attrs: nounwind ssp uwtable
define hidden void @_ZN7network5mojom5blink47NetworkServiceTest_SetEVPolicy_ProxyToResponder3RunEv(%"class.network::mojom::blink::NetworkServiceTest_SetEVPolicy_ProxyToResponder"* nocapture) #0 align 2 {
  %2 = alloca %"class.mojo::Message", align 8
  %3 = getelementptr inbounds %"class.network::mojom::blink::NetworkServiceTest_SetEVPolicy_ProxyToResponder", %"class.network::mojom::blink::NetworkServiceTest_SetEVPolicy_ProxyToResponder"* %0, i64 0, i32 1
  %4 = load i8, i8* %3, align 8, !range !4
  %5 = icmp eq i8 %4, 0
  %6 = select i1 %5, i32 2, i32 6
  %7 = bitcast %"class.mojo::Message"* %2 to i8*
  call void @llvm.lifetime.start.p0i8(i64 120, i8* nonnull %7) #11
  call void @llvm.memset.p0i8.i64(i8* nonnull align 8 %7, i8 -86, i64 120, i1 false)
  call void @_ZN4mojo7MessageC1EjjmmPNSt3__16vectorINS_16ScopedHandleBaseINS_6HandleEEENS1_9allocatorIS5_EEEE(%"class.mojo::Message"* nonnull %2, i32 1188838258, i32 %6, i64 0, i64 0, %"class.std::__1::vector"* null) #11
  %8 = getelementptr inbounds %"class.mojo::Message", %"class.mojo::Message"* %2, i64 0, i32 1
  %9 = call i64 @_ZN4mojo8internal6Buffer8AllocateEm(%"class.mojo::internal::Buffer"* %8, i64 8) #11
  %10 = getelementptr inbounds %"class.mojo::Message", %"class.mojo::Message"* %2, i64 0, i32 1, i32 2
  %11 = load i8*, i8** %10, align 8
  %12 = getelementptr inbounds i8, i8* %11, i64 %9
  %13 = bitcast i8* %12 to %"class.network::mojom::internal::NetworkServiceTest_SetEVPolicy_ResponseParams_Data"*
  call void @_ZN7network5mojom8internal50NetworkServiceTest_SetEVPolicy_ResponseParams_DataC1Ev(%"class.network::mojom::internal::NetworkServiceTest_SetEVPolicy_ResponseParams_Data"* %13) #11
  %14 = getelementptr inbounds %"class.network::mojom::blink::NetworkServiceTest_SetEVPolicy_ProxyToResponder", %"class.network::mojom::blink::NetworkServiceTest_SetEVPolicy_ProxyToResponder"* %0, i64 0, i32 0
  %15 = load i64, i64* %14, align 8
  %16 = bitcast i8** %10 to %"struct.mojo::internal::MessageHeaderV1"**
  %17 = load %"struct.mojo::internal::MessageHeaderV1"*, %"struct.mojo::internal::MessageHeaderV1"** %16, align 8
  %18 = getelementptr inbounds %"struct.mojo::internal::MessageHeaderV1", %"struct.mojo::internal::MessageHeaderV1"* %17, i64 0, i32 1
  store i64 %15, i64* %18, align 1
  %19 = getelementptr inbounds %"class.network::mojom::blink::NetworkServiceTest_SetEVPolicy_ProxyToResponder", %"class.network::mojom::blink::NetworkServiceTest_SetEVPolicy_ProxyToResponder"* %0, i64 0, i32 2, i32 0, i32 0, i32 0
  %20 = load %"class.mojo::MessageReceiverWithStatus"*, %"class.mojo::MessageReceiverWithStatus"** %19, align 8
  %21 = getelementptr inbounds %"class.mojo::MessageReceiverWithStatus", %"class.mojo::MessageReceiverWithStatus"* %20, i64 0, i32 0
  %22 = bitcast %"class.mojo::MessageReceiverWithStatus"* %20 to i1 (%"class.mojo::MessageReceiver"*, %"class.mojo::Message"*)***
  %23 = load i1 (%"class.mojo::MessageReceiver"*, %"class.mojo::Message"*)**, i1 (%"class.mojo::MessageReceiver"*, %"class.mojo::Message"*)*** %22, align 8
  %24 = getelementptr inbounds i1 (%"class.mojo::MessageReceiver"*, %"class.mojo::Message"*)*, i1 (%"class.mojo::MessageReceiver"*, %"class.mojo::Message"*)** %23, i64 3
  %25 = load i1 (%"class.mojo::MessageReceiver"*, %"class.mojo::Message"*)*, i1 (%"class.mojo::MessageReceiver"*, %"class.mojo::Message"*)** %24, align 8
  %26 = call zeroext i1 %25(%"class.mojo::MessageReceiver"* %21, %"class.mojo::Message"* nonnull %2) #11
  %27 = load %"class.mojo::MessageReceiverWithStatus"*, %"class.mojo::MessageReceiverWithStatus"** %19, align 8
  store %"class.mojo::MessageReceiverWithStatus"* null, %"class.mojo::MessageReceiverWithStatus"** %19, align 8
  %28 = icmp eq %"class.mojo::MessageReceiverWithStatus"* %27, null
  br i1 %28, label %34, label %29

29:                                               ; preds = %1
  %30 = bitcast %"class.mojo::MessageReceiverWithStatus"* %27 to void (%"class.mojo::MessageReceiverWithStatus"*)***
  %31 = load void (%"class.mojo::MessageReceiverWithStatus"*)**, void (%"class.mojo::MessageReceiverWithStatus"*)*** %30, align 8
  %32 = getelementptr inbounds void (%"class.mojo::MessageReceiverWithStatus"*)*, void (%"class.mojo::MessageReceiverWithStatus"*)** %31, i64 1
  %33 = load void (%"class.mojo::MessageReceiverWithStatus"*)*, void (%"class.mojo::MessageReceiverWithStatus"*)** %32, align 8
  call void %33(%"class.mojo::MessageReceiverWithStatus"* nonnull %27) #11
  br label %34

34:                                               ; preds = %1, %29
  call void @_ZN4mojo7MessageD1Ev(%"class.mojo::Message"* nonnull %2) #11
  call void @llvm.lifetime.end.p0i8(i64 120, i8* nonnull %7) #11
  ret void
}

; Function Attrs: nounwind ssp uwtable
define hidden zeroext i1 @_ZN7network5mojom5blink49NetworkServiceTest_SetEVPolicy_HandleSyncResponse6AcceptEPN4mojo7MessageE(%"class.network::mojom::blink::NetworkServiceTest_SetEVPolicy_HandleSyncResponse"* nocapture readonly, %"class.mojo::Message"*) unnamed_addr #0 align 2 {
  %3 = tail call i8* @_ZNK4mojo7Message7payloadEv(%"class.mojo::Message"* %1) #11
  %4 = getelementptr inbounds %"class.network::mojom::blink::NetworkServiceTest_SetEVPolicy_HandleSyncResponse", %"class.network::mojom::blink::NetworkServiceTest_SetEVPolicy_HandleSyncResponse"* %0, i64 0, i32 1
  %5 = load i8*, i8** %4, align 8
  store i8 1, i8* %5, align 1
  ret i1 true
}

; Function Attrs: nounwind ssp uwtable
define hidden zeroext i1 @_ZN7network5mojom5blink65NetworkServiceTest_GetFirstPartySetEntriesCount_ForwardToCallback6AcceptEPN4mojo7MessageE(%"class.network::mojom::blink::NetworkServiceTest_GetFirstPartySetEntriesCount_ForwardToCallback"* nocapture, %"class.mojo::Message"*) unnamed_addr #0 align 2 {
  %3 = alloca %"class.base::OnceCallback.114", align 8
  %4 = tail call i8* @_ZNK4mojo7Message7payloadEv(%"class.mojo::Message"* %1) #11
  %5 = getelementptr inbounds %"class.network::mojom::blink::NetworkServiceTest_GetFirstPartySetEntriesCount_ForwardToCallback", %"class.network::mojom::blink::NetworkServiceTest_GetFirstPartySetEntriesCount_ForwardToCallback"* %0, i64 0, i32 1, i32 0, i32 0, i32 0
  %6 = load %"class.base::internal::BindStateBase"*, %"class.base::internal::BindStateBase"** %5, align 8
  %7 = icmp eq %"class.base::internal::BindStateBase"* %6, null
  br i1 %7, label %19, label %8

8:                                                ; preds = %2
  %9 = ptrtoint %"class.base::internal::BindStateBase"* %6 to i64
  %10 = getelementptr inbounds i8, i8* %4, i64 8
  %11 = bitcast i8* %10 to i64*
  %12 = load i64, i64* %11, align 8
  %13 = bitcast %"class.base::OnceCallback.114"* %3 to i8*
  call void @llvm.lifetime.start.p0i8(i64 8, i8* nonnull %13) #11
  %14 = bitcast %"class.base::OnceCallback.114"* %3 to i64*
  store i64 %9, i64* %14, align 8
  store %"class.base::internal::BindStateBase"* null, %"class.base::internal::BindStateBase"** %5, align 8
  %15 = getelementptr inbounds %"class.base::OnceCallback.114", %"class.base::OnceCallback.114"* %3, i64 0, i32 0
  %16 = getelementptr inbounds %"class.base::internal::BindStateBase", %"class.base::internal::BindStateBase"* %6, i64 0, i32 1
  %17 = bitcast void ()** %16 to void (%"class.base::internal::BindStateBase"*, i64)**
  %18 = load void (%"class.base::internal::BindStateBase"*, i64)*, void (%"class.base::internal::BindStateBase"*, i64)** %17, align 8
  tail call void %18(%"class.base::internal::BindStateBase"* nonnull %6, i64 %12) #11
  call void @_ZN4base8internal12CallbackBaseD2Ev(%"class.base::internal::CallbackBase"* nonnull %15) #11
  call void @llvm.lifetime.end.p0i8(i64 8, i8* nonnull %13) #11
  br label %19

19:                                               ; preds = %2, %8
  ret i1 true
}

; Function Attrs: nounwind ssp uwtable
define hidden void @_ZN7network5mojom5blink64NetworkServiceTest_GetFirstPartySetEntriesCount_ProxyToResponder3RunEl(%"class.network::mojom::blink::NetworkServiceTest_GetFirstPartySetEntriesCount_ProxyToResponder"* nocapture, i64) #0 align 2 {
  %3 = alloca %"class.mojo::Message", align 8
  %4 = getelementptr inbounds %"class.network::mojom::blink::NetworkServiceTest_GetFirstPartySetEntriesCount_ProxyToResponder", %"class.network::mojom::blink::NetworkServiceTest_GetFirstPartySetEntriesCount_ProxyToResponder"* %0, i64 0, i32 1
  %5 = load i8, i8* %4, align 8, !range !4
  %6 = icmp eq i8 %5, 0
  %7 = select i1 %6, i32 2, i32 6
  %8 = bitcast %"class.mojo::Message"* %3 to i8*
  call void @llvm.lifetime.start.p0i8(i64 120, i8* nonnull %8) #11
  call void @llvm.memset.p0i8.i64(i8* nonnull align 8 %8, i8 -86, i64 120, i1 false)
  call void @_ZN4mojo7MessageC1EjjmmPNSt3__16vectorINS_16ScopedHandleBaseINS_6HandleEEENS1_9allocatorIS5_EEEE(%"class.mojo::Message"* nonnull %3, i32 832733096, i32 %7, i64 0, i64 0, %"class.std::__1::vector"* null) #11
  %9 = getelementptr inbounds %"class.mojo::Message", %"class.mojo::Message"* %3, i64 0, i32 1
  %10 = call i64 @_ZN4mojo8internal6Buffer8AllocateEm(%"class.mojo::internal::Buffer"* %9, i64 16) #11
  %11 = getelementptr inbounds %"class.mojo::Message", %"class.mojo::Message"* %3, i64 0, i32 1, i32 2
  %12 = load i8*, i8** %11, align 8
  %13 = getelementptr inbounds i8, i8* %12, i64 %10
  %14 = bitcast i8* %13 to %"class.network::mojom::internal::NetworkServiceTest_GetFirstPartySetEntriesCount_ResponseParams_Data"*
  call void @_ZN7network5mojom8internal67NetworkServiceTest_GetFirstPartySetEntriesCount_ResponseParams_DataC1Ev(%"class.network::mojom::internal::NetworkServiceTest_GetFirstPartySetEntriesCount_ResponseParams_Data"* %14) #11
  %15 = load i8*, i8** %11, align 8
  %16 = getelementptr inbounds i8, i8* %15, i64 %10
  %17 = getelementptr inbounds i8, i8* %16, i64 8
  %18 = bitcast i8* %17 to i64*
  store i64 %1, i64* %18, align 8
  %19 = getelementptr inbounds %"class.network::mojom::blink::NetworkServiceTest_GetFirstPartySetEntriesCount_ProxyToResponder", %"class.network::mojom::blink::NetworkServiceTest_GetFirstPartySetEntriesCount_ProxyToResponder"* %0, i64 0, i32 0
  %20 = load i64, i64* %19, align 8
  %21 = bitcast i8** %11 to %"struct.mojo::internal::MessageHeaderV1"**
  %22 = load %"struct.mojo::internal::MessageHeaderV1"*, %"struct.mojo::internal::MessageHeaderV1"** %21, align 8
  %23 = getelementptr inbounds %"struct.mojo::internal::MessageHeaderV1", %"struct.mojo::internal::MessageHeaderV1"* %22, i64 0, i32 1
  store i64 %20, i64* %23, align 1
  %24 = getelementptr inbounds %"class.network::mojom::blink::NetworkServiceTest_GetFirstPartySetEntriesCount_ProxyToResponder", %"class.network::mojom::blink::NetworkServiceTest_GetFirstPartySetEntriesCount_ProxyToResponder"* %0, i64 0, i32 2, i32 0, i32 0, i32 0
  %25 = load %"class.mojo::MessageReceiverWithStatus"*, %"class.mojo::MessageReceiverWithStatus"** %24, align 8
  %26 = getelementptr inbounds %"class.mojo::MessageReceiverWithStatus", %"class.mojo::MessageReceiverWithStatus"* %25, i64 0, i32 0
  %27 = bitcast %"class.mojo::MessageReceiverWithStatus"* %25 to i1 (%"class.mojo::MessageReceiver"*, %"class.mojo::Message"*)***
  %28 = load i1 (%"class.mojo::MessageReceiver"*, %"class.mojo::Message"*)**, i1 (%"class.mojo::MessageReceiver"*, %"class.mojo::Message"*)*** %27, align 8
  %29 = getelementptr inbounds i1 (%"class.mojo::MessageReceiver"*, %"class.mojo::Message"*)*, i1 (%"class.mojo::MessageReceiver"*, %"class.mojo::Message"*)** %28, i64 3
  %30 = load i1 (%"class.mojo::MessageReceiver"*, %"class.mojo::Message"*)*, i1 (%"class.mojo::MessageReceiver"*, %"class.mojo::Message"*)** %29, align 8
  %31 = call zeroext i1 %30(%"class.mojo::MessageReceiver"* %26, %"class.mojo::Message"* nonnull %3) #11
  %32 = load %"class.mojo::MessageReceiverWithStatus"*, %"class.mojo::MessageReceiverWithStatus"** %24, align 8
  store %"class.mojo::MessageReceiverWithStatus"* null, %"class.mojo::MessageReceiverWithStatus"** %24, align 8
  %33 = icmp eq %"class.mojo::MessageReceiverWithStatus"* %32, null
  br i1 %33, label %39, label %34

34:                                               ; preds = %2
  %35 = bitcast %"class.mojo::MessageReceiverWithStatus"* %32 to void (%"class.mojo::MessageReceiverWithStatus"*)***
  %36 = load void (%"class.mojo::MessageReceiverWithStatus"*)**, void (%"class.mojo::MessageReceiverWithStatus"*)*** %35, align 8
  %37 = getelementptr inbounds void (%"class.mojo::MessageReceiverWithStatus"*)*, void (%"class.mojo::MessageReceiverWithStatus"*)** %36, i64 1
  %38 = load void (%"class.mojo::MessageReceiverWithStatus"*)*, void (%"class.mojo::MessageReceiverWithStatus"*)** %37, align 8
  call void %38(%"class.mojo::MessageReceiverWithStatus"* nonnull %32) #11
  br label %39

39:                                               ; preds = %2, %34
  call void @_ZN4mojo7MessageD1Ev(%"class.mojo::Message"* nonnull %3) #11
  call void @llvm.lifetime.end.p0i8(i64 120, i8* nonnull %8) #11
  ret void
}

; Function Attrs: nounwind ssp uwtable
define hidden zeroext i1 @_ZN7network5mojom5blink66NetworkServiceTest_GetFirstPartySetEntriesCount_HandleSyncResponse6AcceptEPN4mojo7MessageE(%"class.network::mojom::blink::NetworkServiceTest_GetFirstPartySetEntriesCount_HandleSyncResponse"* nocapture readonly, %"class.mojo::Message"*) unnamed_addr #0 align 2 {
  %3 = tail call i8* @_ZNK4mojo7Message7payloadEv(%"class.mojo::Message"* %1) #11
  %4 = getelementptr inbounds i8, i8* %3, i64 8
  %5 = bitcast i8* %4 to i64*
  %6 = load i64, i64* %5, align 8
  %7 = getelementptr inbounds %"class.network::mojom::blink::NetworkServiceTest_GetFirstPartySetEntriesCount_HandleSyncResponse", %"class.network::mojom::blink::NetworkServiceTest_GetFirstPartySetEntriesCount_HandleSyncResponse"* %0, i64 0, i32 2
  %8 = load i64*, i64** %7, align 8
  store i64 %6, i64* %8, align 8
  %9 = getelementptr inbounds %"class.network::mojom::blink::NetworkServiceTest_GetFirstPartySetEntriesCount_HandleSyncResponse", %"class.network::mojom::blink::NetworkServiceTest_GetFirstPartySetEntriesCount_HandleSyncResponse"* %0, i64 0, i32 1
  %10 = load i8*, i8** %9, align 8
  store i8 1, i8* %10, align 1
  ret i1 true
}

; Function Attrs: nounwind ssp uwtable
define hidden zeroext i1 @_ZN7network5mojom5blink61NetworkServiceTest_SetSCTAuditingRetryDelay_ForwardToCallback6AcceptEPN4mojo7MessageE(%"class.network::mojom::blink::NetworkServiceTest_SetSCTAuditingRetryDelay_ForwardToCallback"* nocapture, %"class.mojo::Message"*) unnamed_addr #0 align 2 {
  %3 = alloca %"class.base::OnceCallback", align 8
  %4 = tail call i8* @_ZNK4mojo7Message7payloadEv(%"class.mojo::Message"* %1) #11
  %5 = getelementptr inbounds %"class.network::mojom::blink::NetworkServiceTest_SetSCTAuditingRetryDelay_ForwardToCallback", %"class.network::mojom::blink::NetworkServiceTest_SetSCTAuditingRetryDelay_ForwardToCallback"* %0, i64 0, i32 1, i32 0, i32 0, i32 0
  %6 = load %"class.base::internal::BindStateBase"*, %"class.base::internal::BindStateBase"** %5, align 8
  %7 = icmp eq %"class.base::internal::BindStateBase"* %6, null
  br i1 %7, label %16, label %8

8:                                                ; preds = %2
  %9 = ptrtoint %"class.base::internal::BindStateBase"* %6 to i64
  %10 = bitcast %"class.base::OnceCallback"* %3 to i8*
  call void @llvm.lifetime.start.p0i8(i64 8, i8* nonnull %10) #11
  %11 = bitcast %"class.base::OnceCallback"* %3 to i64*
  store i64 %9, i64* %11, align 8
  store %"class.base::internal::BindStateBase"* null, %"class.base::internal::BindStateBase"** %5, align 8
  %12 = getelementptr inbounds %"class.base::OnceCallback", %"class.base::OnceCallback"* %3, i64 0, i32 0
  %13 = getelementptr inbounds %"class.base::internal::BindStateBase", %"class.base::internal::BindStateBase"* %6, i64 0, i32 1
  %14 = bitcast void ()** %13 to void (%"class.base::internal::BindStateBase"*)**
  %15 = load void (%"class.base::internal::BindStateBase"*)*, void (%"class.base::internal::BindStateBase"*)** %14, align 8
  tail call void %15(%"class.base::internal::BindStateBase"* nonnull %6) #11
  call void @_ZN4base8internal12CallbackBaseD2Ev(%"class.base::internal::CallbackBase"* nonnull %12) #11
  call void @llvm.lifetime.end.p0i8(i64 8, i8* nonnull %10) #11
  br label %16

16:                                               ; preds = %2, %8
  ret i1 true
}

; Function Attrs: nounwind ssp uwtable
define hidden void @_ZN7network5mojom5blink60NetworkServiceTest_SetSCTAuditingRetryDelay_ProxyToResponder3RunEv(%"class.network::mojom::blink::NetworkServiceTest_SetSCTAuditingRetryDelay_ProxyToResponder"* nocapture) #0 align 2 {
  %2 = alloca %"class.mojo::Message", align 8
  %3 = getelementptr inbounds %"class.network::mojom::blink::NetworkServiceTest_SetSCTAuditingRetryDelay_ProxyToResponder", %"class.network::mojom::blink::NetworkServiceTest_SetSCTAuditingRetryDelay_ProxyToResponder"* %0, i64 0, i32 1
  %4 = load i8, i8* %3, align 8, !range !4
  %5 = icmp eq i8 %4, 0
  %6 = select i1 %5, i32 2, i32 6
  %7 = bitcast %"class.mojo::Message"* %2 to i8*
  call void @llvm.lifetime.start.p0i8(i64 120, i8* nonnull %7) #11
  call void @llvm.memset.p0i8.i64(i8* nonnull align 8 %7, i8 -86, i64 120, i1 false)
  call void @_ZN4mojo7MessageC1EjjmmPNSt3__16vectorINS_16ScopedHandleBaseINS_6HandleEEENS1_9allocatorIS5_EEEE(%"class.mojo::Message"* nonnull %2, i32 177127893, i32 %6, i64 0, i64 0, %"class.std::__1::vector"* null) #11
  %8 = getelementptr inbounds %"class.mojo::Message", %"class.mojo::Message"* %2, i64 0, i32 1
  %9 = call i64 @_ZN4mojo8internal6Buffer8AllocateEm(%"class.mojo::internal::Buffer"* %8, i64 8) #11
  %10 = getelementptr inbounds %"class.mojo::Message", %"class.mojo::Message"* %2, i64 0, i32 1, i32 2
  %11 = load i8*, i8** %10, align 8
  %12 = getelementptr inbounds i8, i8* %11, i64 %9
  %13 = bitcast i8* %12 to %"class.network::mojom::internal::NetworkServiceTest_SetSCTAuditingRetryDelay_ResponseParams_Data"*
  call void @_ZN7network5mojom8internal63NetworkServiceTest_SetSCTAuditingRetryDelay_ResponseParams_DataC1Ev(%"class.network::mojom::internal::NetworkServiceTest_SetSCTAuditingRetryDelay_ResponseParams_Data"* %13) #11
  %14 = getelementptr inbounds %"class.network::mojom::blink::NetworkServiceTest_SetSCTAuditingRetryDelay_ProxyToResponder", %"class.network::mojom::blink::NetworkServiceTest_SetSCTAuditingRetryDelay_ProxyToResponder"* %0, i64 0, i32 0
  %15 = load i64, i64* %14, align 8
  %16 = bitcast i8** %10 to %"struct.mojo::internal::MessageHeaderV1"**
  %17 = load %"struct.mojo::internal::MessageHeaderV1"*, %"struct.mojo::internal::MessageHeaderV1"** %16, align 8
  %18 = getelementptr inbounds %"struct.mojo::internal::MessageHeaderV1", %"struct.mojo::internal::MessageHeaderV1"* %17, i64 0, i32 1
  store i64 %15, i64* %18, align 1
  %19 = getelementptr inbounds %"class.network::mojom::blink::NetworkServiceTest_SetSCTAuditingRetryDelay_ProxyToResponder", %"class.network::mojom::blink::NetworkServiceTest_SetSCTAuditingRetryDelay_ProxyToResponder"* %0, i64 0, i32 2, i32 0, i32 0, i32 0
  %20 = load %"class.mojo::MessageReceiverWithStatus"*, %"class.mojo::MessageReceiverWithStatus"** %19, align 8
  %21 = getelementptr inbounds %"class.mojo::MessageReceiverWithStatus", %"class.mojo::MessageReceiverWithStatus"* %20, i64 0, i32 0
  %22 = bitcast %"class.mojo::MessageReceiverWithStatus"* %20 to i1 (%"class.mojo::MessageReceiver"*, %"class.mojo::Message"*)***
  %23 = load i1 (%"class.mojo::MessageReceiver"*, %"class.mojo::Message"*)**, i1 (%"class.mojo::MessageReceiver"*, %"class.mojo::Message"*)*** %22, align 8
  %24 = getelementptr inbounds i1 (%"class.mojo::MessageReceiver"*, %"class.mojo::Message"*)*, i1 (%"class.mojo::MessageReceiver"*, %"class.mojo::Message"*)** %23, i64 3
  %25 = load i1 (%"class.mojo::MessageReceiver"*, %"class.mojo::Message"*)*, i1 (%"class.mojo::MessageReceiver"*, %"class.mojo::Message"*)** %24, align 8
  %26 = call zeroext i1 %25(%"class.mojo::MessageReceiver"* %21, %"class.mojo::Message"* nonnull %2) #11
  %27 = load %"class.mojo::MessageReceiverWithStatus"*, %"class.mojo::MessageReceiverWithStatus"** %19, align 8
  store %"class.mojo::MessageReceiverWithStatus"* null, %"class.mojo::MessageReceiverWithStatus"** %19, align 8
  %28 = icmp eq %"class.mojo::MessageReceiverWithStatus"* %27, null
  br i1 %28, label %34, label %29

29:                                               ; preds = %1
  %30 = bitcast %"class.mojo::MessageReceiverWithStatus"* %27 to void (%"class.mojo::MessageReceiverWithStatus"*)***
  %31 = load void (%"class.mojo::MessageReceiverWithStatus"*)**, void (%"class.mojo::MessageReceiverWithStatus"*)*** %30, align 8
  %32 = getelementptr inbounds void (%"class.mojo::MessageReceiverWithStatus"*)*, void (%"class.mojo::MessageReceiverWithStatus"*)** %31, i64 1
  %33 = load void (%"class.mojo::MessageReceiverWithStatus"*)*, void (%"class.mojo::MessageReceiverWithStatus"*)** %32, align 8
  call void %33(%"class.mojo::MessageReceiverWithStatus"* nonnull %27) #11
  br label %34

34:                                               ; preds = %1, %29
  call void @_ZN4mojo7MessageD1Ev(%"class.mojo::Message"* nonnull %2) #11
  call void @llvm.lifetime.end.p0i8(i64 120, i8* nonnull %7) #11
  ret void
}

; Function Attrs: nounwind ssp uwtable
define hidden zeroext i1 @_ZN7network5mojom5blink62NetworkServiceTest_SetSCTAuditingRetryDelay_HandleSyncResponse6AcceptEPN4mojo7MessageE(%"class.network::mojom::blink::NetworkServiceTest_SetSCTAuditingRetryDelay_HandleSyncResponse"* nocapture readonly, %"class.mojo::Message"*) unnamed_addr #0 align 2 {
  %3 = tail call i8* @_ZNK4mojo7Message7payloadEv(%"class.mojo::Message"* %1) #11
  %4 = getelementptr inbounds %"class.network::mojom::blink::NetworkServiceTest_SetSCTAuditingRetryDelay_HandleSyncResponse", %"class.network::mojom::blink::NetworkServiceTest_SetSCTAuditingRetryDelay_HandleSyncResponse"* %0, i64 0, i32 1
  %5 = load i8*, i8** %4, align 8
  store i8 1, i8* %5, align 1
  ret i1 true
}

; Function Attrs: nounwind ssp uwtable
define hidden zeroext i1 @_ZN7network5mojom5blink70NetworkServiceTest_GetSCTAuditingPendingReportsCount_ForwardToCallback6AcceptEPN4mojo7MessageE(%"class.network::mojom::blink::NetworkServiceTest_GetSCTAuditingPendingReportsCount_ForwardToCallback"* nocapture, %"class.mojo::Message"*) unnamed_addr #0 align 2 {
  %3 = alloca %"class.base::OnceCallback.119", align 8
  %4 = tail call i8* @_ZNK4mojo7Message7payloadEv(%"class.mojo::Message"* %1) #11
  %5 = getelementptr inbounds %"class.network::mojom::blink::NetworkServiceTest_GetSCTAuditingPendingReportsCount_ForwardToCallback", %"class.network::mojom::blink::NetworkServiceTest_GetSCTAuditingPendingReportsCount_ForwardToCallback"* %0, i64 0, i32 1, i32 0, i32 0, i32 0
  %6 = load %"class.base::internal::BindStateBase"*, %"class.base::internal::BindStateBase"** %5, align 8
  %7 = icmp eq %"class.base::internal::BindStateBase"* %6, null
  br i1 %7, label %19, label %8

8:                                                ; preds = %2
  %9 = ptrtoint %"class.base::internal::BindStateBase"* %6 to i64
  %10 = getelementptr inbounds i8, i8* %4, i64 8
  %11 = bitcast i8* %10 to i64*
  %12 = load i64, i64* %11, align 8
  %13 = bitcast %"class.base::OnceCallback.119"* %3 to i8*
  call void @llvm.lifetime.start.p0i8(i64 8, i8* nonnull %13) #11
  %14 = bitcast %"class.base::OnceCallback.119"* %3 to i64*
  store i64 %9, i64* %14, align 8
  store %"class.base::internal::BindStateBase"* null, %"class.base::internal::BindStateBase"** %5, align 8
  %15 = getelementptr inbounds %"class.base::OnceCallback.119", %"class.base::OnceCallback.119"* %3, i64 0, i32 0
  %16 = getelementptr inbounds %"class.base::internal::BindStateBase", %"class.base::internal::BindStateBase"* %6, i64 0, i32 1
  %17 = bitcast void ()** %16 to void (%"class.base::internal::BindStateBase"*, i64)**
  %18 = load void (%"class.base::internal::BindStateBase"*, i64)*, void (%"class.base::internal::BindStateBase"*, i64)** %17, align 8
  tail call void %18(%"class.base::internal::BindStateBase"* nonnull %6, i64 %12) #11
  call void @_ZN4base8internal12CallbackBaseD2Ev(%"class.base::internal::CallbackBase"* nonnull %15) #11
  call void @llvm.lifetime.end.p0i8(i64 8, i8* nonnull %13) #11
  br label %19

19:                                               ; preds = %2, %8
  ret i1 true
}

; Function Attrs: nounwind ssp uwtable
define hidden void @_ZN7network5mojom5blink69NetworkServiceTest_GetSCTAuditingPendingReportsCount_ProxyToResponder3RunEm(%"class.network::mojom::blink::NetworkServiceTest_GetSCTAuditingPendingReportsCount_ProxyToResponder"* nocapture, i64) #0 align 2 {
  %3 = alloca %"class.mojo::Message", align 8
  %4 = getelementptr inbounds %"class.network::mojom::blink::NetworkServiceTest_GetSCTAuditingPendingReportsCount_ProxyToResponder", %"class.network::mojom::blink::NetworkServiceTest_GetSCTAuditingPendingReportsCount_ProxyToResponder"* %0, i64 0, i32 1
  %5 = load i8, i8* %4, align 8, !range !4
  %6 = icmp eq i8 %5, 0
  %7 = select i1 %6, i32 2, i32 6
  %8 = bitcast %"class.mojo::Message"* %3 to i8*
  call void @llvm.lifetime.start.p0i8(i64 120, i8* nonnull %8) #11
  call void @llvm.memset.p0i8.i64(i8* nonnull align 8 %8, i8 -86, i64 120, i1 false)
  call void @_ZN4mojo7MessageC1EjjmmPNSt3__16vectorINS_16ScopedHandleBaseINS_6HandleEEENS1_9allocatorIS5_EEEE(%"class.mojo::Message"* nonnull %3, i32 1623448593, i32 %7, i64 0, i64 0, %"class.std::__1::vector"* null) #11
  %9 = getelementptr inbounds %"class.mojo::Message", %"class.mojo::Message"* %3, i64 0, i32 1
  %10 = call i64 @_ZN4mojo8internal6Buffer8AllocateEm(%"class.mojo::internal::Buffer"* %9, i64 16) #11
  %11 = getelementptr inbounds %"class.mojo::Message", %"class.mojo::Message"* %3, i64 0, i32 1, i32 2
  %12 = load i8*, i8** %11, align 8
  %13 = getelementptr inbounds i8, i8* %12, i64 %10
  %14 = bitcast i8* %13 to %"class.network::mojom::internal::NetworkServiceTest_GetSCTAuditingPendingReportsCount_ResponseParams_Data"*
  call void @_ZN7network5mojom8internal72NetworkServiceTest_GetSCTAuditingPendingReportsCount_ResponseParams_DataC1Ev(%"class.network::mojom::internal::NetworkServiceTest_GetSCTAuditingPendingReportsCount_ResponseParams_Data"* %14) #11
  %15 = load i8*, i8** %11, align 8
  %16 = getelementptr inbounds i8, i8* %15, i64 %10
  %17 = getelementptr inbounds i8, i8* %16, i64 8
  %18 = bitcast i8* %17 to i64*
  store i64 %1, i64* %18, align 8
  %19 = getelementptr inbounds %"class.network::mojom::blink::NetworkServiceTest_GetSCTAuditingPendingReportsCount_ProxyToResponder", %"class.network::mojom::blink::NetworkServiceTest_GetSCTAuditingPendingReportsCount_ProxyToResponder"* %0, i64 0, i32 0
  %20 = load i64, i64* %19, align 8
  %21 = bitcast i8** %11 to %"struct.mojo::internal::MessageHeaderV1"**
  %22 = load %"struct.mojo::internal::MessageHeaderV1"*, %"struct.mojo::internal::MessageHeaderV1"** %21, align 8
  %23 = getelementptr inbounds %"struct.mojo::internal::MessageHeaderV1", %"struct.mojo::internal::MessageHeaderV1"* %22, i64 0, i32 1
  store i64 %20, i64* %23, align 1
  %24 = getelementptr inbounds %"class.network::mojom::blink::NetworkServiceTest_GetSCTAuditingPendingReportsCount_ProxyToResponder", %"class.network::mojom::blink::NetworkServiceTest_GetSCTAuditingPendingReportsCount_ProxyToResponder"* %0, i64 0, i32 2, i32 0, i32 0, i32 0
  %25 = load %"class.mojo::MessageReceiverWithStatus"*, %"class.mojo::MessageReceiverWithStatus"** %24, align 8
  %26 = getelementptr inbounds %"class.mojo::MessageReceiverWithStatus", %"class.mojo::MessageReceiverWithStatus"* %25, i64 0, i32 0
  %27 = bitcast %"class.mojo::MessageReceiverWithStatus"* %25 to i1 (%"class.mojo::MessageReceiver"*, %"class.mojo::Message"*)***
  %28 = load i1 (%"class.mojo::MessageReceiver"*, %"class.mojo::Message"*)**, i1 (%"class.mojo::MessageReceiver"*, %"class.mojo::Message"*)*** %27, align 8
  %29 = getelementptr inbounds i1 (%"class.mojo::MessageReceiver"*, %"class.mojo::Message"*)*, i1 (%"class.mojo::MessageReceiver"*, %"class.mojo::Message"*)** %28, i64 3
  %30 = load i1 (%"class.mojo::MessageReceiver"*, %"class.mojo::Message"*)*, i1 (%"class.mojo::MessageReceiver"*, %"class.mojo::Message"*)** %29, align 8
  %31 = call zeroext i1 %30(%"class.mojo::MessageReceiver"* %26, %"class.mojo::Message"* nonnull %3) #11
  %32 = load %"class.mojo::MessageReceiverWithStatus"*, %"class.mojo::MessageReceiverWithStatus"** %24, align 8
  store %"class.mojo::MessageReceiverWithStatus"* null, %"class.mojo::MessageReceiverWithStatus"** %24, align 8
  %33 = icmp eq %"class.mojo::MessageReceiverWithStatus"* %32, null
  br i1 %33, label %39, label %34

34:                                               ; preds = %2
  %35 = bitcast %"class.mojo::MessageReceiverWithStatus"* %32 to void (%"class.mojo::MessageReceiverWithStatus"*)***
  %36 = load void (%"class.mojo::MessageReceiverWithStatus"*)**, void (%"class.mojo::MessageReceiverWithStatus"*)*** %35, align 8
  %37 = getelementptr inbounds void (%"class.mojo::MessageReceiverWithStatus"*)*, void (%"class.mojo::MessageReceiverWithStatus"*)** %36, i64 1
  %38 = load void (%"class.mojo::MessageReceiverWithStatus"*)*, void (%"class.mojo::MessageReceiverWithStatus"*)** %37, align 8
  call void %38(%"class.mojo::MessageReceiverWithStatus"* nonnull %32) #11
  br label %39

39:                                               ; preds = %2, %34
  call void @_ZN4mojo7MessageD1Ev(%"class.mojo::Message"* nonnull %3) #11
  call void @llvm.lifetime.end.p0i8(i64 120, i8* nonnull %8) #11
  ret void
}

; Function Attrs: nounwind ssp uwtable
define hidden zeroext i1 @_ZN7network5mojom5blink71NetworkServiceTest_GetSCTAuditingPendingReportsCount_HandleSyncResponse6AcceptEPN4mojo7MessageE(%"class.network::mojom::blink::NetworkServiceTest_GetSCTAuditingPendingReportsCount_HandleSyncResponse"* nocapture readonly, %"class.mojo::Message"*) unnamed_addr #0 align 2 {
  %3 = tail call i8* @_ZNK4mojo7Message7payloadEv(%"class.mojo::Message"* %1) #11
  %4 = getelementptr inbounds i8, i8* %3, i64 8
  %5 = bitcast i8* %4 to i64*
  %6 = load i64, i64* %5, align 8
  %7 = getelementptr inbounds %"class.network::mojom::blink::NetworkServiceTest_GetSCTAuditingPendingReportsCount_HandleSyncResponse", %"class.network::mojom::blink::NetworkServiceTest_GetSCTAuditingPendingReportsCount_HandleSyncResponse"* %0, i64 0, i32 2
  %8 = load i64*, i64** %7, align 8
  store i64 %6, i64* %8, align 8
  %9 = getelementptr inbounds %"class.network::mojom::blink::NetworkServiceTest_GetSCTAuditingPendingReportsCount_HandleSyncResponse", %"class.network::mojom::blink::NetworkServiceTest_GetSCTAuditingPendingReportsCount_HandleSyncResponse"* %0, i64 0, i32 1
  %10 = load i8*, i8** %9, align 8
  store i8 1, i8* %10, align 1
  ret i1 true
}

; Function Attrs: nounwind ssp uwtable
define hidden zeroext i1 @_ZN7network5mojom5blink75NetworkServiceTest_SetSCTAuditingReportCompletionCallback_ForwardToCallback6AcceptEPN4mojo7MessageE(%"class.network::mojom::blink::NetworkServiceTest_SetSCTAuditingReportCompletionCallback_ForwardToCallback"* nocapture, %"class.mojo::Message"*) unnamed_addr #0 align 2 {
  %3 = alloca %"class.base::OnceCallback", align 8
  %4 = tail call i8* @_ZNK4mojo7Message7payloadEv(%"class.mojo::Message"* %1) #11
  %5 = getelementptr inbounds %"class.network::mojom::blink::NetworkServiceTest_SetSCTAuditingReportCompletionCallback_ForwardToCallback", %"class.network::mojom::blink::NetworkServiceTest_SetSCTAuditingReportCompletionCallback_ForwardToCallback"* %0, i64 0, i32 1, i32 0, i32 0, i32 0
  %6 = load %"class.base::internal::BindStateBase"*, %"class.base::internal::BindStateBase"** %5, align 8
  %7 = icmp eq %"class.base::internal::BindStateBase"* %6, null
  br i1 %7, label %16, label %8

8:                                                ; preds = %2
  %9 = ptrtoint %"class.base::internal::BindStateBase"* %6 to i64
  %10 = bitcast %"class.base::OnceCallback"* %3 to i8*
  call void @llvm.lifetime.start.p0i8(i64 8, i8* nonnull %10) #11
  %11 = bitcast %"class.base::OnceCallback"* %3 to i64*
  store i64 %9, i64* %11, align 8
  store %"class.base::internal::BindStateBase"* null, %"class.base::internal::BindStateBase"** %5, align 8
  %12 = getelementptr inbounds %"class.base::OnceCallback", %"class.base::OnceCallback"* %3, i64 0, i32 0
  %13 = getelementptr inbounds %"class.base::internal::BindStateBase", %"class.base::internal::BindStateBase"* %6, i64 0, i32 1
  %14 = bitcast void ()** %13 to void (%"class.base::internal::BindStateBase"*)**
  %15 = load void (%"class.base::internal::BindStateBase"*)*, void (%"class.base::internal::BindStateBase"*)** %14, align 8
  tail call void %15(%"class.base::internal::BindStateBase"* nonnull %6) #11
  call void @_ZN4base8internal12CallbackBaseD2Ev(%"class.base::internal::CallbackBase"* nonnull %12) #11
  call void @llvm.lifetime.end.p0i8(i64 8, i8* nonnull %10) #11
  br label %16

16:                                               ; preds = %2, %8
  ret i1 true
}

; Function Attrs: nounwind ssp uwtable
define hidden void @_ZN7network5mojom5blink74NetworkServiceTest_SetSCTAuditingReportCompletionCallback_ProxyToResponder3RunEv(%"class.network::mojom::blink::NetworkServiceTest_SetSCTAuditingReportCompletionCallback_ProxyToResponder"* nocapture) #0 align 2 {
  %2 = alloca %"class.mojo::Message", align 8
  %3 = getelementptr inbounds %"class.network::mojom::blink::NetworkServiceTest_SetSCTAuditingReportCompletionCallback_ProxyToResponder", %"class.network::mojom::blink::NetworkServiceTest_SetSCTAuditingReportCompletionCallback_ProxyToResponder"* %0, i64 0, i32 1
  %4 = load i8, i8* %3, align 8, !range !4
  %5 = icmp eq i8 %4, 0
  %6 = select i1 %5, i32 2, i32 6
  %7 = bitcast %"class.mojo::Message"* %2 to i8*
  call void @llvm.lifetime.start.p0i8(i64 120, i8* nonnull %7) #11
  call void @llvm.memset.p0i8.i64(i8* nonnull align 8 %7, i8 -86, i64 120, i1 false)
  call void @_ZN4mojo7MessageC1EjjmmPNSt3__16vectorINS_16ScopedHandleBaseINS_6HandleEEENS1_9allocatorIS5_EEEE(%"class.mojo::Message"* nonnull %2, i32 1816001466, i32 %6, i64 0, i64 0, %"class.std::__1::vector"* null) #11
  %8 = getelementptr inbounds %"class.mojo::Message", %"class.mojo::Message"* %2, i64 0, i32 1
  %9 = call i64 @_ZN4mojo8internal6Buffer8AllocateEm(%"class.mojo::internal::Buffer"* %8, i64 8) #11
  %10 = getelementptr inbounds %"class.mojo::Message", %"class.mojo::Message"* %2, i64 0, i32 1, i32 2
  %11 = load i8*, i8** %10, align 8
  %12 = getelementptr inbounds i8, i8* %11, i64 %9
  %13 = bitcast i8* %12 to %"class.network::mojom::internal::NetworkServiceTest_SetSCTAuditingReportCompletionCallback_ResponseParams_Data"*
  call void @_ZN7network5mojom8internal77NetworkServiceTest_SetSCTAuditingReportCompletionCallback_ResponseParams_DataC1Ev(%"class.network::mojom::internal::NetworkServiceTest_SetSCTAuditingReportCompletionCallback_ResponseParams_Data"* %13) #11
  %14 = getelementptr inbounds %"class.network::mojom::blink::NetworkServiceTest_SetSCTAuditingReportCompletionCallback_ProxyToResponder", %"class.network::mojom::blink::NetworkServiceTest_SetSCTAuditingReportCompletionCallback_ProxyToResponder"* %0, i64 0, i32 0
  %15 = load i64, i64* %14, align 8
  %16 = bitcast i8** %10 to %"struct.mojo::internal::MessageHeaderV1"**
  %17 = load %"struct.mojo::internal::MessageHeaderV1"*, %"struct.mojo::internal::MessageHeaderV1"** %16, align 8
  %18 = getelementptr inbounds %"struct.mojo::internal::MessageHeaderV1", %"struct.mojo::internal::MessageHeaderV1"* %17, i64 0, i32 1
  store i64 %15, i64* %18, align 1
  %19 = getelementptr inbounds %"class.network::mojom::blink::NetworkServiceTest_SetSCTAuditingReportCompletionCallback_ProxyToResponder", %"class.network::mojom::blink::NetworkServiceTest_SetSCTAuditingReportCompletionCallback_ProxyToResponder"* %0, i64 0, i32 2, i32 0, i32 0, i32 0
  %20 = load %"class.mojo::MessageReceiverWithStatus"*, %"class.mojo::MessageReceiverWithStatus"** %19, align 8
  %21 = getelementptr inbounds %"class.mojo::MessageReceiverWithStatus", %"class.mojo::MessageReceiverWithStatus"* %20, i64 0, i32 0
  %22 = bitcast %"class.mojo::MessageReceiverWithStatus"* %20 to i1 (%"class.mojo::MessageReceiver"*, %"class.mojo::Message"*)***
  %23 = load i1 (%"class.mojo::MessageReceiver"*, %"class.mojo::Message"*)**, i1 (%"class.mojo::MessageReceiver"*, %"class.mojo::Message"*)*** %22, align 8
  %24 = getelementptr inbounds i1 (%"class.mojo::MessageReceiver"*, %"class.mojo::Message"*)*, i1 (%"class.mojo::MessageReceiver"*, %"class.mojo::Message"*)** %23, i64 3
  %25 = load i1 (%"class.mojo::MessageReceiver"*, %"class.mojo::Message"*)*, i1 (%"class.mojo::MessageReceiver"*, %"class.mojo::Message"*)** %24, align 8
  %26 = call zeroext i1 %25(%"class.mojo::MessageReceiver"* %21, %"class.mojo::Message"* nonnull %2) #11
  %27 = load %"class.mojo::MessageReceiverWithStatus"*, %"class.mojo::MessageReceiverWithStatus"** %19, align 8
  store %"class.mojo::MessageReceiverWithStatus"* null, %"class.mojo::MessageReceiverWithStatus"** %19, align 8
  %28 = icmp eq %"class.mojo::MessageReceiverWithStatus"* %27, null
  br i1 %28, label %34, label %29

29:                                               ; preds = %1
  %30 = bitcast %"class.mojo::MessageReceiverWithStatus"* %27 to void (%"class.mojo::MessageReceiverWithStatus"*)***
  %31 = load void (%"class.mojo::MessageReceiverWithStatus"*)**, void (%"class.mojo::MessageReceiverWithStatus"*)*** %30, align 8
  %32 = getelementptr inbounds void (%"class.mojo::MessageReceiverWithStatus"*)*, void (%"class.mojo::MessageReceiverWithStatus"*)** %31, i64 1
  %33 = load void (%"class.mojo::MessageReceiverWithStatus"*)*, void (%"class.mojo::MessageReceiverWithStatus"*)** %32, align 8
  call void %33(%"class.mojo::MessageReceiverWithStatus"* nonnull %27) #11
  br label %34

34:                                               ; preds = %1, %29
  call void @_ZN4mojo7MessageD1Ev(%"class.mojo::Message"* nonnull %2) #11
  call void @llvm.lifetime.end.p0i8(i64 120, i8* nonnull %7) #11
  ret void
}

; Function Attrs: nounwind ssp uwtable
define hidden zeroext i1 @_ZN7network5mojom5blink30NetworkServiceTestStubDispatch6AcceptEPNS1_18NetworkServiceTestEPN4mojo7MessageE(%"class.network::mojom::blink::NetworkServiceTest"*, %"class.mojo::Message"*) local_unnamed_addr #0 align 2 {
  %3 = alloca %"class.base::TaskAnnotator::ScopedSetIpcHash", align 8
  %4 = alloca %"class.base::TaskAnnotator::ScopedSetIpcHash", align 8
  %5 = alloca %"class.WTF::String", align 8
  %6 = alloca %"class.base::TaskAnnotator::ScopedSetIpcHash", align 8
  %7 = alloca %"class.base::TaskAnnotator::ScopedSetIpcHash", align 8
  %8 = alloca %"class.WTF::String", align 8
  %9 = getelementptr inbounds %"class.mojo::Message", %"class.mojo::Message"* %1, i64 0, i32 1, i32 2
  %10 = bitcast i8** %9 to %"struct.mojo::internal::MessageHeader"**
  %11 = load %"struct.mojo::internal::MessageHeader"*, %"struct.mojo::internal::MessageHeader"** %10, align 8
  %12 = getelementptr inbounds %"struct.mojo::internal::MessageHeader", %"struct.mojo::internal::MessageHeader"* %11, i64 0, i32 2
  %13 = load i32, i32* %12, align 1
  switch i32 %13, label %114 [
    i32 12603606, label %69
    i32 1923533677, label %62
    i32 1259990622, label %21
    i32 1355754339, label %14
  ]

14:                                               ; preds = %2
  %15 = bitcast %"class.base::TaskAnnotator::ScopedSetIpcHash"* %3 to i8*
  call void @llvm.lifetime.start.p0i8(i64 24, i8* nonnull %15) #11
  call void @llvm.memset.p0i8.i64(i8* nonnull align 8 %15, i8 -86, i64 24, i1 false)
  call void @_ZN4base13TaskAnnotator16ScopedSetIpcHashC1Ej(%"class.base::TaskAnnotator::ScopedSetIpcHash"* nonnull %3, i32 1270529292) #11
  %16 = call i8* @_ZNK4mojo7Message7payloadEv(%"class.mojo::Message"* %1) #11
  %17 = bitcast %"class.network::mojom::blink::NetworkServiceTest"* %0 to void (%"class.network::mojom::blink::NetworkServiceTest"*)***
  %18 = load void (%"class.network::mojom::blink::NetworkServiceTest"*)**, void (%"class.network::mojom::blink::NetworkServiceTest"*)*** %17, align 8
  %19 = getelementptr inbounds void (%"class.network::mojom::blink::NetworkServiceTest"*)*, void (%"class.network::mojom::blink::NetworkServiceTest"*)** %18, i64 6
  %20 = load void (%"class.network::mojom::blink::NetworkServiceTest"*)*, void (%"class.network::mojom::blink::NetworkServiceTest"*)** %19, align 8
  call void %20(%"class.network::mojom::blink::NetworkServiceTest"* %0) #11
  br label %110

21:                                               ; preds = %2
  %22 = bitcast %"class.base::TaskAnnotator::ScopedSetIpcHash"* %4 to i8*
  call void @llvm.lifetime.start.p0i8(i64 24, i8* nonnull %22) #11
  call void @llvm.memset.p0i8.i64(i8* nonnull align 8 %22, i8 -86, i64 24, i1 false)
  call void @_ZN4base13TaskAnnotator16ScopedSetIpcHashC1Ej(%"class.base::TaskAnnotator::ScopedSetIpcHash"* nonnull %4, i32 -326734629) #11
  %23 = call i8* @_ZNK4mojo7Message7payloadEv(%"class.mojo::Message"* %1) #11
  %24 = bitcast %"class.WTF::String"* %5 to i8*
  call void @llvm.lifetime.start.p0i8(i64 8, i8* nonnull %24) #11
  %25 = getelementptr inbounds %"class.WTF::String", %"class.WTF::String"* %5, i64 0, i32 0, i32 0
  store %"class.WTF::StringImpl"* null, %"class.WTF::StringImpl"** %25, align 8
  %26 = getelementptr inbounds i8, i8* %23, i64 8
  %27 = bitcast i8* %26 to i64*
  %28 = load i64, i64* %27, align 8
  %29 = icmp eq i64 %28, 0
  br i1 %29, label %30, label %31

30:                                               ; preds = %21
  call void @_ZN4mojo12StringTraitsIN3WTF6StringEE9SetToNullEPS2_(%"class.WTF::String"* nonnull %5) #11
  br label %39

31:                                               ; preds = %21
  %32 = getelementptr inbounds i8, i8* %26, i64 %28
  %33 = bitcast i8* %32 to %"class.mojo::internal::Array_Data.96"*
  %34 = call zeroext i1 @_ZN4mojo12StringTraitsIN3WTF6StringEE4ReadENS_14StringDataViewEPS2_(%"class.mojo::internal::Array_Data.96"* nonnull %33, %"class.WTF::String"* nonnull %5) #11
  br i1 %34, label %35, label %38

35:                                               ; preds = %31
  %36 = call zeroext i1 @_ZN4mojo12StringTraitsIN3WTF6StringEE11IsValidUTF8ERKS2_(%"class.WTF::String"* nonnull dereferenceable(8) %5) #11
  br i1 %36, label %39, label %37

37:                                               ; preds = %35
  call void @_ZN4mojo8internal34RecordInvalidStringDeserializationEv() #11
  br label %39

38:                                               ; preds = %31
  call void @_ZN4mojo8internal31ReportValidationErrorForMessageEPNS_7MessageENS0_15ValidationErrorEPKcjb(%"class.mojo::Message"* %1, i32 17, i8* getelementptr inbounds ([33 x i8], [33 x i8]* @_ZN7network5mojom5blink18NetworkServiceTest5Name_E, i64 0, i64 0), i32 9, i1 zeroext false) #11
  br label %44

39:                                               ; preds = %30, %37, %35
  %40 = bitcast %"class.network::mojom::blink::NetworkServiceTest"* %0 to void (%"class.network::mojom::blink::NetworkServiceTest"*, %"class.WTF::String"*)***
  %41 = load void (%"class.network::mojom::blink::NetworkServiceTest"*, %"class.WTF::String"*)**, void (%"class.network::mojom::blink::NetworkServiceTest"*, %"class.WTF::String"*)*** %40, align 8
  %42 = getelementptr inbounds void (%"class.network::mojom::blink::NetworkServiceTest"*, %"class.WTF::String"*)*, void (%"class.network::mojom::blink::NetworkServiceTest"*, %"class.WTF::String"*)** %41, i64 17
  %43 = load void (%"class.network::mojom::blink::NetworkServiceTest"*, %"class.WTF::String"*)*, void (%"class.network::mojom::blink::NetworkServiceTest"*, %"class.WTF::String"*)** %42, align 8
  call void %43(%"class.network::mojom::blink::NetworkServiceTest"* %0, %"class.WTF::String"* nonnull dereferenceable(8) %5) #11
  br label %44

44:                                               ; preds = %39, %38
  %45 = phi i1 [ true, %39 ], [ false, %38 ]
  %46 = load %"class.WTF::StringImpl"*, %"class.WTF::StringImpl"** %25, align 8
  %47 = icmp eq %"class.WTF::StringImpl"* %46, null
  br i1 %47, label %61, label %48

48:                                               ; preds = %44
  %49 = getelementptr inbounds %"class.WTF::StringImpl", %"class.WTF::StringImpl"* %46, i64 0, i32 2, i32 0, i32 0, i32 0, i32 0, i32 0
  %50 = load atomic i32, i32* %49 monotonic, align 4
  %51 = and i32 %50, 2
  %52 = icmp eq i32 %51, 0
  %53 = getelementptr inbounds %"class.WTF::StringImpl", %"class.WTF::StringImpl"* %46, i64 0, i32 0
  %54 = load i32, i32* %53, align 4
  br i1 %52, label %55, label %57

55:                                               ; preds = %48
  %56 = add i32 %54, -1
  store i32 %56, i32* %53, align 4
  br label %57

57:                                               ; preds = %55, %48
  %58 = phi i32 [ %56, %55 ], [ %54, %48 ]
  %59 = icmp eq i32 %58, 0
  br i1 %59, label %60, label %61

60:                                               ; preds = %57
  call void @_ZNK3WTF10StringImpl18DestroyIfNotStaticEv(%"class.WTF::StringImpl"* nonnull %46) #11
  br label %61

61:                                               ; preds = %44, %57, %60
  call void @llvm.lifetime.end.p0i8(i64 8, i8* nonnull %24) #11
  br label %110

62:                                               ; preds = %2
  %63 = bitcast %"class.base::TaskAnnotator::ScopedSetIpcHash"* %6 to i8*
  call void @llvm.lifetime.start.p0i8(i64 24, i8* nonnull %63) #11
  call void @llvm.memset.p0i8.i64(i8* nonnull align 8 %63, i8 -86, i64 24, i1 false)
  call void @_ZN4base13TaskAnnotator16ScopedSetIpcHashC1Ej(%"class.base::TaskAnnotator::ScopedSetIpcHash"* nonnull %6, i32 -1276690738) #11
  %64 = call i8* @_ZNK4mojo7Message7payloadEv(%"class.mojo::Message"* %1) #11
  %65 = bitcast %"class.network::mojom::blink::NetworkServiceTest"* %0 to void (%"class.network::mojom::blink::NetworkServiceTest"*)***
  %66 = load void (%"class.network::mojom::blink::NetworkServiceTest"*)**, void (%"class.network::mojom::blink::NetworkServiceTest"*)*** %65, align 8
  %67 = getelementptr inbounds void (%"class.network::mojom::blink::NetworkServiceTest"*)*, void (%"class.network::mojom::blink::NetworkServiceTest"*)** %66, i64 18
  %68 = load void (%"class.network::mojom::blink::NetworkServiceTest"*)*, void (%"class.network::mojom::blink::NetworkServiceTest"*)** %67, align 8
  call void %68(%"class.network::mojom::blink::NetworkServiceTest"* %0) #11
  br label %110

69:                                               ; preds = %2
  %70 = bitcast %"class.base::TaskAnnotator::ScopedSetIpcHash"* %7 to i8*
  call void @llvm.lifetime.start.p0i8(i64 24, i8* nonnull %70) #11
  call void @llvm.memset.p0i8.i64(i8* nonnull align 8 %70, i8 -86, i64 24, i1 false)
  call void @_ZN4base13TaskAnnotator16ScopedSetIpcHashC1Ej(%"class.base::TaskAnnotator::ScopedSetIpcHash"* nonnull %7, i32 -88253815) #11
  %71 = call i8* @_ZNK4mojo7Message7payloadEv(%"class.mojo::Message"* %1) #11
  %72 = bitcast %"class.WTF::String"* %8 to i8*
  call void @llvm.lifetime.start.p0i8(i64 8, i8* nonnull %72) #11
  %73 = getelementptr inbounds %"class.WTF::String", %"class.WTF::String"* %8, i64 0, i32 0, i32 0
  store %"class.WTF::StringImpl"* null, %"class.WTF::StringImpl"** %73, align 8
  %74 = getelementptr inbounds i8, i8* %71, i64 8
  %75 = bitcast i8* %74 to i64*
  %76 = load i64, i64* %75, align 8
  %77 = icmp eq i64 %76, 0
  br i1 %77, label %78, label %79

78:                                               ; preds = %69
  call void @_ZN4mojo12StringTraitsIN3WTF6StringEE9SetToNullEPS2_(%"class.WTF::String"* nonnull %8) #11
  br label %87

79:                                               ; preds = %69
  %80 = getelementptr inbounds i8, i8* %74, i64 %76
  %81 = bitcast i8* %80 to %"class.mojo::internal::Array_Data.96"*
  %82 = call zeroext i1 @_ZN4mojo12StringTraitsIN3WTF6StringEE4ReadENS_14StringDataViewEPS2_(%"class.mojo::internal::Array_Data.96"* nonnull %81, %"class.WTF::String"* nonnull %8) #11
  br i1 %82, label %83, label %86

83:                                               ; preds = %79
  %84 = call zeroext i1 @_ZN4mojo12StringTraitsIN3WTF6StringEE11IsValidUTF8ERKS2_(%"class.WTF::String"* nonnull dereferenceable(8) %8) #11
  br i1 %84, label %87, label %85

85:                                               ; preds = %83
