; ModuleID = 'gen/services/network/public/mojom/network_service_test.mojom.cc'
source_filename = "gen/services/network/public/mojom/network_service_test.mojom.cc"
target datalayout = "e-m:e-i64:64-f80:128-n8:16:32:64-S128"
target triple = "x86_64-unknown-linux-gnu"

module asm ".symver exp, exp@GLIBC_2.2.5"
module asm ".symver exp2, exp2@GLIBC_2.2.5"
module asm ".symver exp2f, exp2f@GLIBC_2.2.5"
module asm ".symver expf, expf@GLIBC_2.2.5"
module asm ".symver lgamma, lgamma@GLIBC_2.2.5"
module asm ".symver lgammaf, lgammaf@GLIBC_2.2.5"
module asm ".symver lgammal, lgammal@GLIBC_2.2.5"
module asm ".symver log, log@GLIBC_2.2.5"
module asm ".symver log2, log2@GLIBC_2.2.5"
module asm ".symver log2f, log2f@GLIBC_2.2.5"
module asm ".symver logf, logf@GLIBC_2.2.5"
module asm ".symver pow, pow@GLIBC_2.2.5"
module asm ".symver powf, powf@GLIBC_2.2.5"

%"struct.std::__1::pair" = type { i32, %"struct.mojo::internal::GenericValidationInfo" }
%"struct.mojo::internal::GenericValidationInfo" = type { i1 (i8*, %"class.mojo::internal::ValidationContext"*)*, i1 (i8*, %"class.mojo::internal::ValidationContext"*)* }
%"class.mojo::internal::ValidationContext" = type <{ %"class.mojo::Message"*, i8*, i32, [4 x i8], i64, i64, i32, i32, i32, i32, i32, [4 x i8] }>
%"class.mojo::Message" = type { %"class.mojo::ScopedHandleBase", %"class.mojo::internal::Buffer", %"class.std::__1::vector.11", %"class.std::__1::vector.19", %"class.mojo::ConnectionGroup::Ref"*, i8, i8, i8* }
%"class.mojo::ScopedHandleBase" = type { %"class.mojo::MessageHandle" }
%"class.mojo::MessageHandle" = type { i64 }
%"class.mojo::internal::Buffer" = type { %"class.mojo::MessageHandle", i64, i8*, i64, i64 }
%"class.std::__1::vector.11" = type { %"class.std::__1::__vector_base.12" }
%"class.std::__1::__vector_base.12" = type { %"class.mojo::ScopedHandleBase.13"*, %"class.mojo::ScopedHandleBase.13"*, %"class.std::__1::__compressed_pair.14" }
%"class.mojo::ScopedHandleBase.13" = type { %"class.mojo::Handle" }
%"class.mojo::Handle" = type { i32 }
%"class.std::__1::__compressed_pair.14" = type { %"struct.std::__1::__compressed_pair_elem.15" }
%"struct.std::__1::__compressed_pair_elem.15" = type { %"class.mojo::ScopedHandleBase.13"* }
%"class.std::__1::vector.19" = type { %"class.std::__1::__vector_base.20" }
%"class.std::__1::__vector_base.20" = type { %"class.mojo::ScopedInterfaceEndpointHandle"*, %"class.mojo::ScopedInterfaceEndpointHandle"*, %"class.std::__1::__compressed_pair.21" }
%"class.mojo::ScopedInterfaceEndpointHandle" = type { %class.scoped_refptr }
%class.scoped_refptr = type { %"class.mojo::ScopedInterfaceEndpointHandle::State"* }
%"class.mojo::ScopedInterfaceEndpointHandle::State" = type opaque
%"class.std::__1::__compressed_pair.21" = type { %"struct.std::__1::__compressed_pair_elem.22" }
%"struct.std::__1::__compressed_pair_elem.22" = type { %"class.mojo::ScopedInterfaceEndpointHandle"* }
%"class.mojo::ConnectionGroup::Ref" = type { i32, %class.scoped_refptr.26 }
%class.scoped_refptr.26 = type { %"class.mojo::ConnectionGroup"* }
%"class.mojo::ConnectionGroup" = type <{ i32 (...)**, %"class.base::RefCountedThreadSafe", [4 x i8], %"class.base::RepeatingCallback", %class.scoped_refptr.30, %"class.mojo::ConnectionGroup::Ref", %"struct.std::__1::atomic.32", [4 x i8] }>
%"class.base::RefCountedThreadSafe" = type { %"class.base::subtle::RefCountedThreadSafeBase" }
%"class.base::subtle::RefCountedThreadSafeBase" = type { %"class.base::AtomicRefCount" }
%"class.base::AtomicRefCount" = type { %"struct.std::__1::atomic" }
%"struct.std::__1::atomic" = type { %"struct.std::__1::__atomic_base" }
%"struct.std::__1::__atomic_base" = type { %"struct.std::__1::__atomic_base.27" }
%"struct.std::__1::__atomic_base.27" = type { %"struct.std::__1::__cxx_atomic_impl" }
%"struct.std::__1::__cxx_atomic_impl" = type { %"struct.std::__1::__cxx_atomic_base_impl" }
%"struct.std::__1::__cxx_atomic_base_impl" = type { i32 }
%"class.base::RepeatingCallback" = type { %"class.base::internal::CallbackBaseCopyable" }
%"class.base::internal::CallbackBaseCopyable" = type { %"class.base::internal::CallbackBase" }
%"class.base::internal::CallbackBase" = type { %class.scoped_refptr.28 }
%class.scoped_refptr.28 = type { %"class.base::internal::BindStateBase"* }
%"class.base::internal::BindStateBase" = type { %"class.base::RefCountedThreadSafe.29", void ()*, void (%"class.base::internal::BindStateBase"*)*, i1 (%"class.base::internal::BindStateBase"*, i32)* }
%"class.base::RefCountedThreadSafe.29" = type { %"class.base::subtle::RefCountedThreadSafeBase" }
%class.scoped_refptr.30 = type { %"class.base::SequencedTaskRunner"* }
%"class.base::SequencedTaskRunner" = type { %"class.base::TaskRunner.base", [4 x i8] }
%"class.base::TaskRunner.base" = type <{ i32 (...)**, %"class.base::RefCountedThreadSafe.31" }>
%"class.base::RefCountedThreadSafe.31" = type { %"class.base::subtle::RefCountedThreadSafeBase" }
%"struct.std::__1::atomic.32" = type { %"struct.std::__1::__atomic_base.33" }
%"struct.std::__1::__atomic_base.33" = type { %"struct.std::__1::__atomic_base.34" }
%"struct.std::__1::__atomic_base.34" = type { %"struct.std::__1::__cxx_atomic_impl.35" }
%"struct.std::__1::__cxx_atomic_impl.35" = type { %"struct.std::__1::__cxx_atomic_base_impl.36" }
%"struct.std::__1::__cxx_atomic_base_impl.36" = type { i32 }
%"class.network::mojom::Rule" = type { i32, %"class.std::__1::basic_string", %"class.std::__1::basic_string", i32, %"class.std::__1::vector" }
%"class.std::__1::basic_string" = type { %"class.std::__1::__compressed_pair" }
%"class.std::__1::__compressed_pair" = type { %"struct.std::__1::__compressed_pair_elem" }
%"struct.std::__1::__compressed_pair_elem" = type { %"struct.std::__1::basic_string<char, std::__1::char_traits<char>, std::__1::allocator<char> >::__rep" }
%"struct.std::__1::basic_string<char, std::__1::char_traits<char>, std::__1::allocator<char> >::__rep" = type { %union.anon }
%union.anon = type { %"struct.std::__1::basic_string<char, std::__1::char_traits<char>, std::__1::allocator<char> >::__long" }
%"struct.std::__1::basic_string<char, std::__1::char_traits<char>, std::__1::allocator<char> >::__long" = type { i8*, i64, i64 }
%"class.std::__1::vector" = type { %"class.std::__1::__vector_base" }
%"class.std::__1::__vector_base" = type { %"class.std::__1::basic_string"*, %"class.std::__1::basic_string"*, %"class.std::__1::__compressed_pair.1" }
%"class.std::__1::__compressed_pair.1" = type { %"struct.std::__1::__compressed_pair_elem.2" }
%"struct.std::__1::__compressed_pair_elem.2" = type { %"class.std::__1::basic_string"* }
%"class.network::mojom::NetworkServiceTestProxy" = type { %"class.network::mojom::NetworkServiceTest", %"class.mojo::MessageReceiverWithResponder"* }
%"class.network::mojom::NetworkServiceTest" = type { i32 (...)** }
%"class.mojo::MessageReceiverWithResponder" = type { %"class.mojo::MessageReceiver" }
%"class.mojo::MessageReceiver" = type { i32 (...)** }
%"struct.std::__1::basic_string<char, std::__1::char_traits<char>, std::__1::allocator<char> >::__short" = type { [23 x i8], %struct.anon }
%struct.anon = type { i8 }
%"class.perfetto::TracedValue" = type <{ %"class.perfetto::protos::pbzero::DebugAnnotation"*, %"class.perfetto::internal::CheckedScope", [7 x i8] }>
%"class.perfetto::protos::pbzero::DebugAnnotation" = type { %"class.protozero::Message.base", [7 x i8] }
%"class.protozero::Message.base" = type <{ %"class.protozero::ScatteredStreamWriter"*, %"class.protozero::MessageArena"*, %"class.protozero::Message"*, i8*, i32, i32, i8 }>
%"class.protozero::ScatteredStreamWriter" = type { %"class.protozero::ScatteredStreamWriter::Delegate"*, %"struct.protozero::ContiguousMemoryRange", i8*, i64 }
%"class.protozero::ScatteredStreamWriter::Delegate" = type { i32 (...)** }
%"struct.protozero::ContiguousMemoryRange" = type { i8*, i8* }
%"class.protozero::MessageArena" = type { %"class.std::__1::list" }
%"class.std::__1::list" = type { %"class.std::__1::__list_imp" }
%"class.std::__1::__list_imp" = type { %"struct.std::__1::__list_node_base", %"class.std::__1::__compressed_pair.6" }
%"struct.std::__1::__list_node_base" = type { %"struct.std::__1::__list_node_base"*, %"struct.std::__1::__list_node_base"* }
%"class.std::__1::__compressed_pair.6" = type { %"struct.std::__1::__compressed_pair_elem.7" }
%"struct.std::__1::__compressed_pair_elem.7" = type { i64 }
%"class.protozero::Message" = type <{ %"class.protozero::ScatteredStreamWriter"*, %"class.protozero::MessageArena"*, %"class.protozero::Message"*, i8*, i32, i32, i8, [7 x i8] }>
%"class.perfetto::internal::CheckedScope" = type { i8 }
%"class.perfetto::TracedArray" = type <{ %"class.perfetto::protos::pbzero::DebugAnnotation"*, %"class.perfetto::internal::CheckedScope", [7 x i8] }>
%"class.perfetto::TracedDictionary" = type <{ %"class.protozero::Message"*, i32, %"class.perfetto::internal::CheckedScope", [3 x i8] }>
%"class.std::__1::vector.37" = type { %"class.std::__1::__vector_base.38" }
%"class.std::__1::__vector_base.38" = type { %"class.mojo::StructPtr"*, %"class.mojo::StructPtr"*, %"class.std::__1::__compressed_pair.42" }
%"class.mojo::StructPtr" = type { %"class.std::__1::unique_ptr" }
%"class.std::__1::unique_ptr" = type { %"class.std::__1::__compressed_pair.39" }
%"class.std::__1::__compressed_pair.39" = type { %"struct.std::__1::__compressed_pair_elem.40" }
%"struct.std::__1::__compressed_pair_elem.40" = type { %"class.network::mojom::Rule"* }
%"class.std::__1::__compressed_pair.42" = type { %"struct.std::__1::__compressed_pair_elem.43" }
%"struct.std::__1::__compressed_pair_elem.43" = type { %"class.mojo::StructPtr"* }
%class.scoped_refptr.47 = type { %"class.net::X509Certificate"* }
%"class.net::X509Certificate" = type { %"class.base::RefCountedThreadSafe.48", %"struct.net::CertPrincipal", %"struct.net::CertPrincipal", %"class.base::Time", %"class.base::Time", %"class.std::__1::basic_string", %"class.std::__1::unique_ptr.49", %"class.std::__1::vector.53" }
%"class.base::RefCountedThreadSafe.48" = type { %"class.base::subtle::RefCountedThreadSafeBase" }
%"struct.net::CertPrincipal" = type { %"class.std::__1::basic_string", %"class.std::__1::basic_string", %"class.std::__1::basic_string", %"class.std::__1::basic_string", %"class.std::__1::vector", %"class.std::__1::vector", %"class.std::__1::vector", %"class.std::__1::vector" }
%"class.base::Time" = type { %"class.base::time_internal::TimeBase" }
%"class.base::time_internal::TimeBase" = type { i64 }
%"class.std::__1::unique_ptr.49" = type { %"class.std::__1::__compressed_pair.50" }
%"class.std::__1::__compressed_pair.50" = type { %"struct.std::__1::__compressed_pair_elem.51" }
%"struct.std::__1::__compressed_pair_elem.51" = type { %struct.crypto_buffer_st* }
%struct.crypto_buffer_st = type opaque
%"class.std::__1::vector.53" = type { %"class.std::__1::__vector_base.54" }
%"class.std::__1::__vector_base.54" = type { %"class.std::__1::unique_ptr.49"*, %"class.std::__1::unique_ptr.49"*, %"class.std::__1::__compressed_pair.55" }
%"class.std::__1::__compressed_pair.55" = type { %"struct.std::__1::__compressed_pair_elem.56" }
%"struct.std::__1::__compressed_pair_elem.56" = type { %"class.std::__1::unique_ptr.49"* }
%"class.net::CertVerifyResult" = type <{ %"class.base::SupportsUserData.base", [7 x i8], %class.scoped_refptr.47, i32, i8, i8, i8, i8, i8, [7 x i8], %"class.std::__1::vector.67", i8, i8, [2 x i8], %"struct.net::OCSPVerifyResult", [4 x i8], %"class.std::__1::vector.75", i32, [4 x i8] }>
%"class.base::SupportsUserData.base" = type <{ i32 (...)**, %"class.std::__1::map", %"class.base::SequenceCheckerDoNothing" }>
%"class.std::__1::map" = type { %"class.std::__1::__tree" }
%"class.std::__1::__tree" = type { %"class.std::__1::__tree_end_node"*, %"class.std::__1::__compressed_pair.60", %"class.std::__1::__compressed_pair.65" }
%"class.std::__1::__tree_end_node" = type { %"class.std::__1::__tree_node_base"* }
%"class.std::__1::__tree_node_base" = type opaque
%"class.std::__1::__compressed_pair.60" = type { %"struct.std::__1::__compressed_pair_elem.61" }
%"struct.std::__1::__compressed_pair_elem.61" = type { %"class.std::__1::__tree_end_node" }
%"class.std::__1::__compressed_pair.65" = type { %"struct.std::__1::__compressed_pair_elem.7" }
%"class.base::SequenceCheckerDoNothing" = type { i8 }
%"class.std::__1::vector.67" = type { %"class.std::__1::__vector_base.68" }
%"class.std::__1::__vector_base.68" = type { %"class.net::HashValue"*, %"class.net::HashValue"*, %"class.std::__1::__compressed_pair.70" }
%"class.net::HashValue" = type { i32, %union.anon.69 }
%union.anon.69 = type { %"struct.net::SHA256HashValue" }
%"struct.net::SHA256HashValue" = type { [32 x i8] }
%"class.std::__1::__compressed_pair.70" = type { %"struct.std::__1::__compressed_pair_elem.71" }
%"struct.std::__1::__compressed_pair_elem.71" = type { %"class.net::HashValue"* }
%"struct.net::OCSPVerifyResult" = type { i32, i32 }
%"class.std::__1::vector.75" = type { %"class.std::__1::__vector_base.76" }
%"class.std::__1::__vector_base.76" = type { %"struct.net::SignedCertificateTimestampAndStatus"*, %"struct.net::SignedCertificateTimestampAndStatus"*, %"class.std::__1::__compressed_pair.79" }
%"struct.net::SignedCertificateTimestampAndStatus" = type <{ %class.scoped_refptr.77, i32, [4 x i8] }>
%class.scoped_refptr.77 = type { %"struct.net::ct::SignedCertificateTimestamp"* }
%"struct.net::ct::SignedCertificateTimestamp" = type { %"class.base::RefCountedThreadSafe.78", i32, %"class.std::__1::basic_string", %"class.base::Time", %"class.std::__1::basic_string", %"struct.net::ct::DigitallySigned", i32, %"class.std::__1::basic_string" }
%"class.base::RefCountedThreadSafe.78" = type { %"class.base::subtle::RefCountedThreadSafeBase" }
%"struct.net::ct::DigitallySigned" = type { i32, i32, %"class.std::__1::basic_string" }
%"class.std::__1::__compressed_pair.79" = type { %"struct.std::__1::__compressed_pair_elem.80" }
%"struct.std::__1::__compressed_pair_elem.80" = type { %"struct.net::SignedCertificateTimestampAndStatus"* }
%"class.std::__1::vector.84" = type { %"class.std::__1::__vector_base.85" }
%"class.std::__1::__vector_base.85" = type { i8*, i8*, %"class.std::__1::__compressed_pair.86" }
%"class.std::__1::__compressed_pair.86" = type { %"struct.std::__1::__compressed_pair_elem.87" }
%"struct.std::__1::__compressed_pair_elem.87" = type { i8* }
%"class.mojo::internal::MessageFragment.348" = type { %"class.mojo::Message"*, i64 }
%"class.mojo::internal::ContainerValidateParams" = type { i32, i8, %"class.mojo::internal::ContainerValidateParams"*, %"class.mojo::internal::ContainerValidateParams"*, i1 (i32, %"class.mojo::internal::ValidationContext"*)* }
%"class.network::mojom::internal::NetworkServiceTest_AddRules_Params_Data" = type { %"struct.mojo::internal::StructHeader", %"struct.mojo::internal::Pointer" }
%"struct.mojo::internal::StructHeader" = type { i32, i32 }
%"struct.mojo::internal::Pointer" = type { i64 }
%"class.mojo::internal::Array_Data" = type { %"struct.mojo::internal::ArrayHeader" }
%"struct.mojo::internal::ArrayHeader" = type { i32, i32 }
%"class.network::mojom::internal::Rule_Data" = type { %"struct.mojo::internal::StructHeader", i32, i32, %"struct.mojo::internal::Pointer.106", %"struct.mojo::internal::Pointer.106", %"struct.mojo::internal::Pointer.158" }
%"struct.mojo::internal::Pointer.106" = type { i64 }
%"struct.mojo::internal::Pointer.158" = type { i64 }
%"class.base::OnceCallback" = type { %"class.base::internal::CallbackBase" }
%"class.network::mojom::internal::NetworkServiceTest_SimulateNetworkChange_Params_Data" = type { %"struct.mojo::internal::StructHeader", i32, [4 x i8] }
%"class.network::mojom::internal::NetworkServiceTest_SimulateNetworkQualityChange_Params_Data" = type { %"struct.mojo::internal::StructHeader", i32, [4 x i8] }
%"class.network::mojom::internal::NetworkServiceTest_SimulateCrash_Params_Data" = type { %"struct.mojo::internal::StructHeader" }
%"class.network::mojom::internal::NetworkServiceTest_MockCertVerifierSetDefaultResult_Params_Data" = type { %"struct.mojo::internal::StructHeader", i32, [4 x i8] }
%"class.IPC::Message" = type { %"class.base::Pickle", i8, %class.scoped_refptr.353 }
%"class.base::Pickle" = type { i32 (...)**, %"struct.base::Pickle::Header"*, i64, i64, i64 }
%"struct.base::Pickle::Header" = type { i32 }
%class.scoped_refptr.353 = type { %"class.IPC::MessageAttachmentSet"* }
%"class.IPC::MessageAttachmentSet" = type opaque
%"class.mojo::internal::MessageFragment.104" = type { %"class.mojo::Message"*, i64 }
%"class.mojo::internal::MessageFragment.109" = type { %"class.mojo::Message"*, i64 }
%"class.network::mojom::internal::NetworkServiceTest_MockCertVerifierAddResultForCertAndHost_Params_Data" = type { %"struct.mojo::internal::StructHeader", %"struct.mojo::internal::Pointer.105", %"struct.mojo::internal::Pointer.106", %"struct.mojo::internal::Pointer.105", i32, [4 x i8] }
%"struct.mojo::internal::Pointer.105" = type { i64 }
%"class.mojo::native::internal::NativeStruct_Data" = type { %"struct.mojo::internal::StructHeader", %"struct.mojo::internal::Pointer.107", %"struct.mojo::internal::Pointer.108" }
%"struct.mojo::internal::Pointer.107" = type { i64 }
%"struct.mojo::internal::Pointer.108" = type { i64 }
%"class.mojo::internal::Array_Data.110" = type { %"struct.mojo::internal::ArrayHeader" }
%"class.network::mojom::internal::NetworkServiceTest_SetRequireCT_Params_Data" = type { %"struct.mojo::internal::StructHeader", i32, [4 x i8] }
%"class.network::mojom::internal::NetworkServiceTest_SetTransportSecurityStateSource_Params_Data" = type { %"struct.mojo::internal::StructHeader", i16, [6 x i8] }
%"class.network::mojom::internal::NetworkServiceTest_SetAllowNetworkAccessToHostResolutions_Params_Data" = type { %"struct.mojo::internal::StructHeader" }
%"class.network::mojom::internal::NetworkServiceTest_CrashOnResolveHost_Params_Data" = type { %"struct.mojo::internal::StructHeader", %"struct.mojo::internal::Pointer.106" }
%"class.network::mojom::internal::NetworkServiceTest_CrashOnGetCookieList_Params_Data" = type { %"struct.mojo::internal::StructHeader" }
%"class.network::mojom::internal::NetworkServiceTest_GetLatestMemoryPressureLevel_Params_Data" = type { %"struct.mojo::internal::StructHeader" }
%"class.base::OnceCallback.117" = type { %"class.base::internal::CallbackBase" }
%"class.network::mojom::internal::NetworkServiceTest_GetPeerToPeerConnectionsCountChange_Params_Data" = type { %"struct.mojo::internal::StructHeader" }
%"class.base::OnceCallback.119" = type { %"class.base::internal::CallbackBase" }
%"class.network::mojom::internal::NetworkServiceTest_GetEnvironmentVariableValue_Params_Data" = type { %"struct.mojo::internal::StructHeader", %"struct.mojo::internal::Pointer.106" }
%"class.base::OnceCallback.121" = type { %"class.base::internal::CallbackBase" }
%"class.network::mojom::internal::NetworkServiceTest_Log_Params_Data" = type { %"struct.mojo::internal::StructHeader", %"struct.mojo::internal::Pointer.106" }
%"class.network::mojom::internal::NetworkServiceTest_ActivateFieldTrial_Params_Data" = type { %"struct.mojo::internal::StructHeader", %"struct.mojo::internal::Pointer.106" }
%"class.network::mojom::internal::NetworkServiceTest_SetEVPolicy_Params_Data" = type { %"struct.mojo::internal::StructHeader", %"struct.mojo::internal::Pointer.107", %"struct.mojo::internal::Pointer.106" }
%"class.mojo::internal::Array_Data.126" = type { %"struct.mojo::internal::ArrayHeader" }
%"class.network::mojom::internal::NetworkServiceTest_GetFirstPartySetEntriesCount_Params_Data" = type { %"struct.mojo::internal::StructHeader" }
%"class.base::OnceCallback.128" = type { %"class.base::internal::CallbackBase" }
%"class.absl::optional" = type { %"class.absl::optional_internal::optional_data" }
%"class.absl::optional_internal::optional_data" = type { %"class.absl::optional_internal::optional_data_base" }
%"class.absl::optional_internal::optional_data_base" = type { %"class.absl::optional_internal::optional_data_dtor_base" }
%"class.absl::optional_internal::optional_data_dtor_base" = type { i8, %union.anon.91 }
%union.anon.91 = type { %"class.base::TimeDelta" }
%"class.base::TimeDelta" = type { i64 }
%"class.network::mojom::internal::NetworkServiceTest_SetSCTAuditingRetryDelay_Params_Data" = type { %"struct.mojo::internal::StructHeader", %"struct.mojo::internal::Pointer.131" }
%"struct.mojo::internal::Pointer.131" = type { i64 }
%"class.mojo_base::mojom::internal::TimeDelta_Data" = type { %"struct.mojo::internal::StructHeader", i64 }
%"class.network::mojom::internal::NetworkServiceTest_GetSCTAuditingPendingReportsCount_Params_Data" = type { %"struct.mojo::internal::StructHeader" }
%"class.base::OnceCallback.133" = type { %"class.base::internal::CallbackBase" }
%"class.network::mojom::internal::NetworkServiceTest_SetSCTAuditingReportCompletionCallback_Params_Data" = type { %"struct.mojo::internal::StructHeader" }
%"class.network::mojom::NetworkServiceTest_AddRules_ForwardToCallback" = type { %"class.mojo::MessageReceiver", %"class.base::OnceCallback" }
%"class.network::mojom::NetworkServiceTest_AddRules_ProxyToResponder" = type { i64, i8, %"class.std::__1::unique_ptr.135" }
%"class.std::__1::unique_ptr.135" = type { %"class.std::__1::__compressed_pair.136" }
%"class.std::__1::__compressed_pair.136" = type { %"struct.std::__1::__compressed_pair_elem.137" }
%"struct.std::__1::__compressed_pair_elem.137" = type { %"class.mojo::MessageReceiverWithStatus"* }
%"class.mojo::MessageReceiverWithStatus" = type { %"class.mojo::MessageReceiver" }
%"class.network::mojom::internal::NetworkServiceTest_AddRules_ResponseParams_Data" = type { %"struct.mojo::internal::StructHeader" }
%"struct.mojo::internal::MessageHeaderV1" = type { %"struct.mojo::internal::MessageHeader", i64 }
%"struct.mojo::internal::MessageHeader" = type { %"struct.mojo::internal::StructHeader", i32, i32, i32, i32 }
%"class.network::mojom::NetworkServiceTest_AddRules_HandleSyncResponse" = type { %"class.mojo::MessageReceiver", i8* }
%"class.network::mojom::NetworkServiceTest_SimulateNetworkChange_ForwardToCallback" = type { %"class.mojo::MessageReceiver", %"class.base::OnceCallback" }
%"class.network::mojom::NetworkServiceTest_SimulateNetworkChange_ProxyToResponder" = type { i64, i8, %"class.std::__1::unique_ptr.135" }
%"class.network::mojom::internal::NetworkServiceTest_SimulateNetworkChange_ResponseParams_Data" = type { %"struct.mojo::internal::StructHeader" }
%"class.network::mojom::NetworkServiceTest_SimulateNetworkQualityChange_ForwardToCallback" = type { %"class.mojo::MessageReceiver", %"class.base::OnceCallback" }
%"class.network::mojom::NetworkServiceTest_SimulateNetworkQualityChange_ProxyToResponder" = type { i64, i8, %"class.std::__1::unique_ptr.135" }
%"class.network::mojom::internal::NetworkServiceTest_SimulateNetworkQualityChange_ResponseParams_Data" = type { %"struct.mojo::internal::StructHeader" }
%"class.network::mojom::NetworkServiceTest_MockCertVerifierSetDefaultResult_ForwardToCallback" = type { %"class.mojo::MessageReceiver", %"class.base::OnceCallback" }
%"class.network::mojom::NetworkServiceTest_MockCertVerifierSetDefaultResult_ProxyToResponder" = type { i64, i8, %"class.std::__1::unique_ptr.135" }
%"class.network::mojom::internal::NetworkServiceTest_MockCertVerifierSetDefaultResult_ResponseParams_Data" = type { %"struct.mojo::internal::StructHeader" }
%"class.network::mojom::NetworkServiceTest_MockCertVerifierSetDefaultResult_HandleSyncResponse" = type { %"class.mojo::MessageReceiver", i8* }
%"class.network::mojom::NetworkServiceTest_MockCertVerifierAddResultForCertAndHost_ForwardToCallback" = type { %"class.mojo::MessageReceiver", %"class.base::OnceCallback" }
%"class.network::mojom::NetworkServiceTest_MockCertVerifierAddResultForCertAndHost_ProxyToResponder" = type { i64, i8, %"class.std::__1::unique_ptr.135" }
%"class.network::mojom::internal::NetworkServiceTest_MockCertVerifierAddResultForCertAndHost_ResponseParams_Data" = type { %"struct.mojo::internal::StructHeader" }
%"class.network::mojom::NetworkServiceTest_MockCertVerifierAddResultForCertAndHost_HandleSyncResponse" = type { %"class.mojo::MessageReceiver", i8* }
%"class.network::mojom::NetworkServiceTest_SetRequireCT_ForwardToCallback" = type { %"class.mojo::MessageReceiver", %"class.base::OnceCallback" }
%"class.network::mojom::NetworkServiceTest_SetRequireCT_ProxyToResponder" = type { i64, i8, %"class.std::__1::unique_ptr.135" }
%"class.network::mojom::internal::NetworkServiceTest_SetRequireCT_ResponseParams_Data" = type { %"struct.mojo::internal::StructHeader" }
%"class.network::mojom::NetworkServiceTest_SetRequireCT_HandleSyncResponse" = type { %"class.mojo::MessageReceiver", i8* }
%"class.network::mojom::NetworkServiceTest_SetTransportSecurityStateSource_ForwardToCallback" = type { %"class.mojo::MessageReceiver", %"class.base::OnceCallback" }
%"class.network::mojom::NetworkServiceTest_SetTransportSecurityStateSource_ProxyToResponder" = type { i64, i8, %"class.std::__1::unique_ptr.135" }
%"class.network::mojom::internal::NetworkServiceTest_SetTransportSecurityStateSource_ResponseParams_Data" = type { %"struct.mojo::internal::StructHeader" }
%"class.network::mojom::NetworkServiceTest_SetTransportSecurityStateSource_HandleSyncResponse" = type { %"class.mojo::MessageReceiver", i8* }
%"class.network::mojom::NetworkServiceTest_SetAllowNetworkAccessToHostResolutions_ForwardToCallback" = type { %"class.mojo::MessageReceiver", %"class.base::OnceCallback" }
%"class.network::mojom::NetworkServiceTest_SetAllowNetworkAccessToHostResolutions_ProxyToResponder" = type { i64, i8, %"class.std::__1::unique_ptr.135" }
%"class.network::mojom::internal::NetworkServiceTest_SetAllowNetworkAccessToHostResolutions_ResponseParams_Data" = type { %"struct.mojo::internal::StructHeader" }
%"class.network::mojom::NetworkServiceTest_SetAllowNetworkAccessToHostResolutions_HandleSyncResponse" = type { %"class.mojo::MessageReceiver", i8* }
%"class.network::mojom::NetworkServiceTest_GetLatestMemoryPressureLevel_ForwardToCallback" = type { %"class.mojo::MessageReceiver", %"class.base::OnceCallback.117" }
%"class.network::mojom::NetworkServiceTest_GetLatestMemoryPressureLevel_ProxyToResponder" = type { i64, i8, %"class.std::__1::unique_ptr.135" }
%"class.network::mojom::internal::NetworkServiceTest_GetLatestMemoryPressureLevel_ResponseParams_Data" = type { %"struct.mojo::internal::StructHeader", i32, [4 x i8] }
%"class.network::mojom::NetworkServiceTest_GetLatestMemoryPressureLevel_HandleSyncResponse" = type { %"class.mojo::MessageReceiver", i8*, i32* }
%"class.network::mojom::NetworkServiceTest_GetPeerToPeerConnectionsCountChange_ForwardToCallback" = type { %"class.mojo::MessageReceiver", %"class.base::OnceCallback.119" }
%"class.network::mojom::NetworkServiceTest_GetPeerToPeerConnectionsCountChange_ProxyToResponder" = type { i64, i8, %"class.std::__1::unique_ptr.135" }
%"class.network::mojom::internal::NetworkServiceTest_GetPeerToPeerConnectionsCountChange_ResponseParams_Data" = type { %"struct.mojo::internal::StructHeader", i32, [4 x i8] }
%"class.network::mojom::NetworkServiceTest_GetPeerToPeerConnectionsCountChange_HandleSyncResponse" = type { %"class.mojo::MessageReceiver", i8*, i32* }
%"class.network::mojom::NetworkServiceTest_GetEnvironmentVariableValue_ForwardToCallback" = type { %"class.mojo::MessageReceiver", %"class.base::OnceCallback.121" }
%"class.network::mojom::NetworkServiceTest_GetEnvironmentVariableValue_ProxyToResponder" = type { i64, i8, %"class.std::__1::unique_ptr.135" }
%"class.network::mojom::internal::NetworkServiceTest_GetEnvironmentVariableValue_ResponseParams_Data" = type { %"struct.mojo::internal::StructHeader", %"struct.mojo::internal::Pointer.106" }
%"class.network::mojom::NetworkServiceTest_GetEnvironmentVariableValue_HandleSyncResponse" = type { %"class.mojo::MessageReceiver", i8*, %"class.std::__1::basic_string"* }
%"class.network::mojom::NetworkServiceTest_Log_ForwardToCallback" = type { %"class.mojo::MessageReceiver", %"class.base::OnceCallback" }
%"class.network::mojom::NetworkServiceTest_Log_ProxyToResponder" = type { i64, i8, %"class.std::__1::unique_ptr.135" }
%"class.network::mojom::internal::NetworkServiceTest_Log_ResponseParams_Data" = type { %"struct.mojo::internal::StructHeader" }
%"class.network::mojom::NetworkServiceTest_Log_HandleSyncResponse" = type { %"class.mojo::MessageReceiver", i8* }
%"class.network::mojom::NetworkServiceTest_SetEVPolicy_ForwardToCallback" = type { %"class.mojo::MessageReceiver", %"class.base::OnceCallback" }
%"class.network::mojom::NetworkServiceTest_SetEVPolicy_ProxyToResponder" = type { i64, i8, %"class.std::__1::unique_ptr.135" }
%"class.network::mojom::internal::NetworkServiceTest_SetEVPolicy_ResponseParams_Data" = type { %"struct.mojo::internal::StructHeader" }
%"class.network::mojom::NetworkServiceTest_SetEVPolicy_HandleSyncResponse" = type { %"class.mojo::MessageReceiver", i8* }
%"class.network::mojom::NetworkServiceTest_GetFirstPartySetEntriesCount_ForwardToCallback" = type { %"class.mojo::MessageReceiver", %"class.base::OnceCallback.128" }
%"class.network::mojom::NetworkServiceTest_GetFirstPartySetEntriesCount_ProxyToResponder" = type { i64, i8, %"class.std::__1::unique_ptr.135" }
%"class.network::mojom::internal::NetworkServiceTest_GetFirstPartySetEntriesCount_ResponseParams_Data" = type { %"struct.mojo::internal::StructHeader", i64 }
%"class.network::mojom::NetworkServiceTest_GetFirstPartySetEntriesCount_HandleSyncResponse" = type { %"class.mojo::MessageReceiver", i8*, i64* }
%"class.network::mojom::NetworkServiceTest_SetSCTAuditingRetryDelay_ForwardToCallback" = type { %"class.mojo::MessageReceiver", %"class.base::OnceCallback" }
%"class.network::mojom::NetworkServiceTest_SetSCTAuditingRetryDelay_ProxyToResponder" = type { i64, i8, %"class.std::__1::unique_ptr.135" }
%"class.network::mojom::internal::NetworkServiceTest_SetSCTAuditingRetryDelay_ResponseParams_Data" = type { %"struct.mojo::internal::StructHeader" }
%"class.network::mojom::NetworkServiceTest_SetSCTAuditingRetryDelay_HandleSyncResponse" = type { %"class.mojo::MessageReceiver", i8* }
%"class.network::mojom::NetworkServiceTest_GetSCTAuditingPendingReportsCount_ForwardToCallback" = type { %"class.mojo::MessageReceiver", %"class.base::OnceCallback.133" }
%"class.network::mojom::NetworkServiceTest_GetSCTAuditingPendingReportsCount_ProxyToResponder" = type { i64, i8, %"class.std::__1::unique_ptr.135" }
%"class.network::mojom::internal::NetworkServiceTest_GetSCTAuditingPendingReportsCount_ResponseParams_Data" = type { %"struct.mojo::internal::StructHeader", i64 }
%"class.network::mojom::NetworkServiceTest_GetSCTAuditingPendingReportsCount_HandleSyncResponse" = type { %"class.mojo::MessageReceiver", i8*, i64* }
%"class.network::mojom::NetworkServiceTest_SetSCTAuditingReportCompletionCallback_ForwardToCallback" = type { %"class.mojo::MessageReceiver", %"class.base::OnceCallback" }
%"class.network::mojom::NetworkServiceTest_SetSCTAuditingReportCompletionCallback_ProxyToResponder" = type { i64, i8, %"class.std::__1::unique_ptr.135" }
%"class.network::mojom::internal::NetworkServiceTest_SetSCTAuditingReportCompletionCallback_ResponseParams_Data" = type { %"struct.mojo::internal::StructHeader" }
%"class.base::TaskAnnotator::ScopedSetIpcHash" = type { %"class.base::TaskAnnotator::ScopedSetIpcHash"*, i32, i8* }
%"struct.mojo::internal::NativeEnumSerializerImpl<net::EffectiveConnectionType>::PickleData" = type { i32, i32 }
%"class.base::PickleIterator" = type { i8*, i64, i64 }
%"struct.std::__1::default_delete" = type { i8 }
%"class.network::mojom::NetworkServiceTestRequestValidator" = type { %"class.mojo::MessageReceiver" }
%"class.network::mojom::NetworkServiceTestResponseValidator" = type { %"class.mojo::MessageReceiver" }
%"class.mojo::internal::Array_Data.351" = type { %"struct.mojo::internal::ArrayHeader" }
%"class.logging::CheckOpResult" = type { i8* }
%"class.logging::CheckError" = type { %"class.logging::LogMessage"* }
%"class.logging::LogMessage" = type { i32 (...)**, i32, %"class.std::__1::basic_ostringstream", i64, i8*, i32, %"class.base::ScopedClearLastErrorBase" }
%"class.std::__1::basic_ostringstream" = type { %"class.std::__1::basic_ostream.base", %"class.std::__1::basic_stringbuf", %"class.std::__1::basic_ios.base" }
%"class.std::__1::basic_ostream.base" = type { i32 (...)** }
%"class.std::__1::basic_stringbuf" = type <{ %"class.std::__1::basic_streambuf", %"class.std::__1::basic_string", i8*, i32, [4 x i8] }>
%"class.std::__1::basic_streambuf" = type { i32 (...)**, %"class.std::__1::locale", i8*, i8*, i8*, i8*, i8*, i8* }
%"class.std::__1::locale" = type { %"class.std::__1::locale::__imp"* }
%"class.std::__1::locale::__imp" = type opaque
%"class.std::__1::basic_ios.base" = type <{ %"class.std::__1::ios_base", %"class.std::__1::basic_ostream"*, i32 }>
%"class.std::__1::ios_base" = type { i32 (...)**, i32, i64, i64, i32, i32, i8*, i8*, void (i32, %"class.std::__1::ios_base"*, i32)**, i32*, i64, i64, i64*, i64, i64, i8**, i64, i64 }
%"class.std::__1::basic_ostream" = type { i32 (...)**, %"class.std::__1::basic_ios.base" }
%"class.base::ScopedClearLastErrorBase" = type { i32 }

$_ZN4mojo8internal23ContainerValidateParamsD2Ev = comdat any

$_ZN7network5mojom18NetworkServiceTestD0Ev = comdat any

$_ZN7network5mojom46NetworkServiceTest_AddRules_HandleSyncResponseD0Ev = comdat any

$_ZN7network5mojom45NetworkServiceTest_AddRules_ForwardToCallbackD2Ev = comdat any

$_ZN7network5mojom45NetworkServiceTest_AddRules_ForwardToCallbackD0Ev = comdat any

$_ZN7network5mojom58NetworkServiceTest_SimulateNetworkChange_ForwardToCallbackD2Ev = comdat any

$_ZN7network5mojom58NetworkServiceTest_SimulateNetworkChange_ForwardToCallbackD0Ev = comdat any

$_ZN7network5mojom65NetworkServiceTest_SimulateNetworkQualityChange_ForwardToCallbackD2Ev = comdat any

$_ZN7network5mojom65NetworkServiceTest_SimulateNetworkQualityChange_ForwardToCallbackD0Ev = comdat any

$_ZN7network5mojom70NetworkServiceTest_MockCertVerifierSetDefaultResult_HandleSyncResponseD0Ev = comdat any

$_ZN7network5mojom69NetworkServiceTest_MockCertVerifierSetDefaultResult_ForwardToCallbackD2Ev = comdat any

$_ZN7network5mojom69NetworkServiceTest_MockCertVerifierSetDefaultResult_ForwardToCallbackD0Ev = comdat any

$_ZN7network5mojom77NetworkServiceTest_MockCertVerifierAddResultForCertAndHost_HandleSyncResponseD0Ev = comdat any

$_ZN7network5mojom76NetworkServiceTest_MockCertVerifierAddResultForCertAndHost_ForwardToCallbackD2Ev = comdat any

$_ZN7network5mojom76NetworkServiceTest_MockCertVerifierAddResultForCertAndHost_ForwardToCallbackD0Ev = comdat any

$_ZN7network5mojom50NetworkServiceTest_SetRequireCT_HandleSyncResponseD0Ev = comdat any

$_ZN7network5mojom49NetworkServiceTest_SetRequireCT_ForwardToCallbackD2Ev = comdat any

$_ZN7network5mojom49NetworkServiceTest_SetRequireCT_ForwardToCallbackD0Ev = comdat any

$_ZN4mojo15MessageReceiverD2Ev = comdat any

$_ZN7network5mojom69NetworkServiceTest_SetTransportSecurityStateSource_HandleSyncResponseD0Ev = comdat any

$_ZN7network5mojom68NetworkServiceTest_SetTransportSecurityStateSource_ForwardToCallbackD2Ev = comdat any

$_ZN7network5mojom68NetworkServiceTest_SetTransportSecurityStateSource_ForwardToCallbackD0Ev = comdat any

$_ZN7network5mojom76NetworkServiceTest_SetAllowNetworkAccessToHostResolutions_HandleSyncResponseD0Ev = comdat any

$_ZN7network5mojom75NetworkServiceTest_SetAllowNetworkAccessToHostResolutions_ForwardToCallbackD2Ev = comdat any

$_ZN7network5mojom75NetworkServiceTest_SetAllowNetworkAccessToHostResolutions_ForwardToCallbackD0Ev = comdat any

$_ZN7network5mojom66NetworkServiceTest_GetLatestMemoryPressureLevel_HandleSyncResponseD0Ev = comdat any

$_ZN7network5mojom65NetworkServiceTest_GetLatestMemoryPressureLevel_ForwardToCallbackD2Ev = comdat any

$_ZN7network5mojom65NetworkServiceTest_GetLatestMemoryPressureLevel_ForwardToCallbackD0Ev = comdat any

$_ZN7network5mojom73NetworkServiceTest_GetPeerToPeerConnectionsCountChange_HandleSyncResponseD0Ev = comdat any

$_ZN7network5mojom72NetworkServiceTest_GetPeerToPeerConnectionsCountChange_ForwardToCallbackD2Ev = comdat any

$_ZN7network5mojom72NetworkServiceTest_GetPeerToPeerConnectionsCountChange_ForwardToCallbackD0Ev = comdat any

$_ZN7network5mojom65NetworkServiceTest_GetEnvironmentVariableValue_HandleSyncResponseD0Ev = comdat any

$_ZN7network5mojom64NetworkServiceTest_GetEnvironmentVariableValue_ForwardToCallbackD2Ev = comdat any

$_ZN7network5mojom64NetworkServiceTest_GetEnvironmentVariableValue_ForwardToCallbackD0Ev = comdat any

$_ZN7network5mojom41NetworkServiceTest_Log_HandleSyncResponseD0Ev = comdat any

$_ZN7network5mojom40NetworkServiceTest_Log_ForwardToCallbackD2Ev = comdat any

$_ZN7network5mojom40NetworkServiceTest_Log_ForwardToCallbackD0Ev = comdat any

$_ZN7network5mojom49NetworkServiceTest_SetEVPolicy_HandleSyncResponseD0Ev = comdat any

$_ZN7network5mojom48NetworkServiceTest_SetEVPolicy_ForwardToCallbackD2Ev = comdat any

$_ZN7network5mojom48NetworkServiceTest_SetEVPolicy_ForwardToCallbackD0Ev = comdat any

$_ZN7network5mojom66NetworkServiceTest_GetFirstPartySetEntriesCount_HandleSyncResponseD0Ev = comdat any

$_ZN7network5mojom65NetworkServiceTest_GetFirstPartySetEntriesCount_ForwardToCallbackD2Ev = comdat any

$_ZN7network5mojom65NetworkServiceTest_GetFirstPartySetEntriesCount_ForwardToCallbackD0Ev = comdat any

$_ZN7network5mojom62NetworkServiceTest_SetSCTAuditingRetryDelay_HandleSyncResponseD0Ev = comdat any

$_ZN7network5mojom61NetworkServiceTest_SetSCTAuditingRetryDelay_ForwardToCallbackD2Ev = comdat any

$_ZN7network5mojom61NetworkServiceTest_SetSCTAuditingRetryDelay_ForwardToCallbackD0Ev = comdat any

$_ZN7network5mojom71NetworkServiceTest_GetSCTAuditingPendingReportsCount_HandleSyncResponseD0Ev = comdat any

$_ZN7network5mojom70NetworkServiceTest_GetSCTAuditingPendingReportsCount_ForwardToCallbackD2Ev = comdat any

$_ZN7network5mojom70NetworkServiceTest_GetSCTAuditingPendingReportsCount_ForwardToCallbackD0Ev = comdat any

$_ZN7network5mojom75NetworkServiceTest_SetSCTAuditingReportCompletionCallback_ForwardToCallbackD2Ev = comdat any

$_ZN7network5mojom75NetworkServiceTest_SetSCTAuditingReportCompletionCallback_ForwardToCallbackD0Ev = comdat any

$_ZN7network5mojom18NetworkServiceTestD2Ev = comdat any

$_ZN7network5mojom23NetworkServiceTestProxyD0Ev = comdat any

$_ZN7network5mojom34NetworkServiceTestRequestValidatorD0Ev = comdat any

$_ZN7network5mojom35NetworkServiceTestResponseValidatorD0Ev = comdat any

$_ZN4base8internal7InvokerINS0_9BindStateIMN7network5mojom44NetworkServiceTest_AddRules_ProxyToResponderEFvvEJNSt3__110unique_ptrIS5_NS8_14default_deleteIS5_EEEEEEEFvvEE7RunOnceEPNS0_13BindStateBaseE = comdat any

$_ZN4base8internal9BindStateIMN7network5mojom44NetworkServiceTest_AddRules_ProxyToResponderEFvvEJNSt3__110unique_ptrIS4_NS7_14default_deleteIS4_EEEEEE7DestroyEPKNS0_13BindStateBaseE = comdat any

$_ZN4base8internal7InvokerINS0_9BindStateIMN7network5mojom57NetworkServiceTest_SimulateNetworkChange_ProxyToResponderEFvvEJNSt3__110unique_ptrIS5_NS8_14default_deleteIS5_EEEEEEEFvvEE7RunOnceEPNS0_13BindStateBaseE = comdat any

$_ZN4base8internal9BindStateIMN7network5mojom57NetworkServiceTest_SimulateNetworkChange_ProxyToResponderEFvvEJNSt3__110unique_ptrIS4_NS7_14default_deleteIS4_EEEEEE7DestroyEPKNS0_13BindStateBaseE = comdat any

$_ZN4base8internal7InvokerINS0_9BindStateIMN7network5mojom64NetworkServiceTest_SimulateNetworkQualityChange_ProxyToResponderEFvvEJNSt3__110unique_ptrIS5_NS8_14default_deleteIS5_EEEEEEEFvvEE7RunOnceEPNS0_13BindStateBaseE = comdat any

$_ZN4base8internal9BindStateIMN7network5mojom64NetworkServiceTest_SimulateNetworkQualityChange_ProxyToResponderEFvvEJNSt3__110unique_ptrIS4_NS7_14default_deleteIS4_EEEEEE7DestroyEPKNS0_13BindStateBaseE = comdat any

$_ZN4base8internal7InvokerINS0_9BindStateIMN7network5mojom68NetworkServiceTest_MockCertVerifierSetDefaultResult_ProxyToResponderEFvvEJNSt3__110unique_ptrIS5_NS8_14default_deleteIS5_EEEEEEEFvvEE7RunOnceEPNS0_13BindStateBaseE = comdat any

$_ZN4base8internal9BindStateIMN7network5mojom68NetworkServiceTest_MockCertVerifierSetDefaultResult_ProxyToResponderEFvvEJNSt3__110unique_ptrIS4_NS7_14default_deleteIS4_EEEEEE7DestroyEPKNS0_13BindStateBaseE = comdat any

$_ZN4base8internal7InvokerINS0_9BindStateIMN7network5mojom75NetworkServiceTest_MockCertVerifierAddResultForCertAndHost_ProxyToResponderEFvvEJNSt3__110unique_ptrIS5_NS8_14default_deleteIS5_EEEEEEEFvvEE7RunOnceEPNS0_13BindStateBaseE = comdat any

$_ZN4base8internal9BindStateIMN7network5mojom75NetworkServiceTest_MockCertVerifierAddResultForCertAndHost_ProxyToResponderEFvvEJNSt3__110unique_ptrIS4_NS7_14default_deleteIS4_EEEEEE7DestroyEPKNS0_13BindStateBaseE = comdat any

$_ZN4base8internal7InvokerINS0_9BindStateIMN7network5mojom48NetworkServiceTest_SetRequireCT_ProxyToResponderEFvvEJNSt3__110unique_ptrIS5_NS8_14default_deleteIS5_EEEEEEEFvvEE7RunOnceEPNS0_13BindStateBaseE = comdat any

$_ZN4base8internal9BindStateIMN7network5mojom48NetworkServiceTest_SetRequireCT_ProxyToResponderEFvvEJNSt3__110unique_ptrIS4_NS7_14default_deleteIS4_EEEEEE7DestroyEPKNS0_13BindStateBaseE = comdat any

$_ZN4base8internal7InvokerINS0_9BindStateIMN7network5mojom67NetworkServiceTest_SetTransportSecurityStateSource_ProxyToResponderEFvvEJNSt3__110unique_ptrIS5_NS8_14default_deleteIS5_EEEEEEEFvvEE7RunOnceEPNS0_13BindStateBaseE = comdat any

$_ZN4base8internal9BindStateIMN7network5mojom67NetworkServiceTest_SetTransportSecurityStateSource_ProxyToResponderEFvvEJNSt3__110unique_ptrIS4_NS7_14default_deleteIS4_EEEEEE7DestroyEPKNS0_13BindStateBaseE = comdat any

$_ZN4base8internal7InvokerINS0_9BindStateIMN7network5mojom74NetworkServiceTest_SetAllowNetworkAccessToHostResolutions_ProxyToResponderEFvvEJNSt3__110unique_ptrIS5_NS8_14default_deleteIS5_EEEEEEEFvvEE7RunOnceEPNS0_13BindStateBaseE = comdat any

$_ZN4base8internal9BindStateIMN7network5mojom74NetworkServiceTest_SetAllowNetworkAccessToHostResolutions_ProxyToResponderEFvvEJNSt3__110unique_ptrIS4_NS7_14default_deleteIS4_EEEEEE7DestroyEPKNS0_13BindStateBaseE = comdat any

$_ZN4base8internal7InvokerINS0_9BindStateIMN7network5mojom64NetworkServiceTest_GetLatestMemoryPressureLevel_ProxyToResponderEFvNS_22MemoryPressureListener19MemoryPressureLevelEEJNSt3__110unique_ptrIS5_NSA_14default_deleteIS5_EEEEEEEFvS7_EE7RunOnceEPNS0_13BindStateBaseES7_ = comdat any

$_ZN4base8internal9BindStateIMN7network5mojom64NetworkServiceTest_GetLatestMemoryPressureLevel_ProxyToResponderEFvNS_22MemoryPressureListener19MemoryPressureLevelEEJNSt3__110unique_ptrIS4_NS9_14default_deleteIS4_EEEEEE7DestroyEPKNS0_13BindStateBaseE = comdat any

$_ZN4base8internal7InvokerINS0_9BindStateIMN7network5mojom71NetworkServiceTest_GetPeerToPeerConnectionsCountChange_ProxyToResponderEFvjEJNSt3__110unique_ptrIS5_NS8_14default_deleteIS5_EEEEEEEFvjEE7RunOnceEPNS0_13BindStateBaseEj = comdat any

$_ZN4base8internal9BindStateIMN7network5mojom71NetworkServiceTest_GetPeerToPeerConnectionsCountChange_ProxyToResponderEFvjEJNSt3__110unique_ptrIS4_NS7_14default_deleteIS4_EEEEEE7DestroyEPKNS0_13BindStateBaseE = comdat any

$_ZN4base8internal7InvokerINS0_9BindStateIMN7network5mojom63NetworkServiceTest_GetEnvironmentVariableValue_ProxyToResponderEFvRKNSt3__112basic_stringIcNS6_11char_traitsIcEENS6_9allocatorIcEEEEEJNS6_10unique_ptrIS5_NS6_14default_deleteIS5_EEEEEEEFvSE_EE7RunOnceEPNS0_13BindStateBaseESE_ = comdat any

$_ZN4base8internal9BindStateIMN7network5mojom63NetworkServiceTest_GetEnvironmentVariableValue_ProxyToResponderEFvRKNSt3__112basic_stringIcNS5_11char_traitsIcEENS5_9allocatorIcEEEEEJNS5_10unique_ptrIS4_NS5_14default_deleteIS4_EEEEEE7DestroyEPKNS0_13BindStateBaseE = comdat any

$_ZN4base8internal7InvokerINS0_9BindStateIMN7network5mojom39NetworkServiceTest_Log_ProxyToResponderEFvvEJNSt3__110unique_ptrIS5_NS8_14default_deleteIS5_EEEEEEEFvvEE7RunOnceEPNS0_13BindStateBaseE = comdat any

$_ZN4base8internal9BindStateIMN7network5mojom39NetworkServiceTest_Log_ProxyToResponderEFvvEJNSt3__110unique_ptrIS4_NS7_14default_deleteIS4_EEEEEE7DestroyEPKNS0_13BindStateBaseE = comdat any

$_ZN4base8internal7InvokerINS0_9BindStateIMN7network5mojom47NetworkServiceTest_SetEVPolicy_ProxyToResponderEFvvEJNSt3__110unique_ptrIS5_NS8_14default_deleteIS5_EEEEEEEFvvEE7RunOnceEPNS0_13BindStateBaseE = comdat any

$_ZN4base8internal9BindStateIMN7network5mojom47NetworkServiceTest_SetEVPolicy_ProxyToResponderEFvvEJNSt3__110unique_ptrIS4_NS7_14default_deleteIS4_EEEEEE7DestroyEPKNS0_13BindStateBaseE = comdat any

$_ZN4base8internal7InvokerINS0_9BindStateIMN7network5mojom64NetworkServiceTest_GetFirstPartySetEntriesCount_ProxyToResponderEFvlEJNSt3__110unique_ptrIS5_NS8_14default_deleteIS5_EEEEEEEFvlEE7RunOnceEPNS0_13BindStateBaseEl = comdat any

$_ZN4base8internal9BindStateIMN7network5mojom64NetworkServiceTest_GetFirstPartySetEntriesCount_ProxyToResponderEFvlEJNSt3__110unique_ptrIS4_NS7_14default_deleteIS4_EEEEEE7DestroyEPKNS0_13BindStateBaseE = comdat any

$_ZN4base8internal7InvokerINS0_9BindStateIMN7network5mojom60NetworkServiceTest_SetSCTAuditingRetryDelay_ProxyToResponderEFvvEJNSt3__110unique_ptrIS5_NS8_14default_deleteIS5_EEEEEEEFvvEE7RunOnceEPNS0_13BindStateBaseE = comdat any

$_ZN4base8internal9BindStateIMN7network5mojom60NetworkServiceTest_SetSCTAuditingRetryDelay_ProxyToResponderEFvvEJNSt3__110unique_ptrIS4_NS7_14default_deleteIS4_EEEEEE7DestroyEPKNS0_13BindStateBaseE = comdat any

$_ZN4base8internal7InvokerINS0_9BindStateIMN7network5mojom69NetworkServiceTest_GetSCTAuditingPendingReportsCount_ProxyToResponderEFvmEJNSt3__110unique_ptrIS5_NS8_14default_deleteIS5_EEEEEEEFvmEE7RunOnceEPNS0_13BindStateBaseEm = comdat any

$_ZN4base8internal9BindStateIMN7network5mojom69NetworkServiceTest_GetSCTAuditingPendingReportsCount_ProxyToResponderEFvmEJNSt3__110unique_ptrIS4_NS7_14default_deleteIS4_EEEEEE7DestroyEPKNS0_13BindStateBaseE = comdat any

$_ZN4base8internal7InvokerINS0_9BindStateIMN7network5mojom74NetworkServiceTest_SetSCTAuditingReportCompletionCallback_ProxyToResponderEFvvEJNSt3__110unique_ptrIS5_NS8_14default_deleteIS5_EEEEEEEFvvEE7RunOnceEPNS0_13BindStateBaseE = comdat any

$_ZN4base8internal9BindStateIMN7network5mojom74NetworkServiceTest_SetSCTAuditingReportCompletionCallback_ProxyToResponderEFvvEJNSt3__110unique_ptrIS4_NS7_14default_deleteIS4_EEEEEE7DestroyEPKNS0_13BindStateBaseE = comdat any

$_ZNKSt3__114default_deleteIN7network5mojom4RuleEEclEPS3_ = comdat any

$_ZN4mojo8internal10SerializerIN7network5mojom12RuleDataViewENS_9StructPtrINS3_4RuleEEEE9SerializeERS7_RNS0_15MessageFragmentINS3_8internal9Rule_DataEEE = comdat any

$_ZN4mojo8internal24NativeEnumSerializerImplIN3net23EffectiveConnectionTypeEE9SerializeES3_Pi = comdat any

$_ZN4mojo8internal10SerializerINS_14StringDataViewEKNSt3__112basic_stringIcNS3_11char_traitsIcEENS3_9allocatorIcEEEEE9SerializeERSA_RNS0_15MessageFragmentINS0_10Array_DataIcEEEE = comdat any

$_ZN4mojo8internal15ArraySerializerINS_13ArrayDataViewIN7network5mojom12RuleDataViewEEENSt3__16vectorINS_9StructPtrINS4_4RuleEEENS7_9allocatorISB_EEEENS0_13ArrayIteratorINS_11ArrayTraitsISE_EESE_Lb0EEEvE19DeserializeElementsEPNS0_10Array_DataINS0_7PointerINS4_8internal9Rule_DataEEEEEPSE_PNS_7MessageE = comdat any

$_ZN4mojo8internal26NativeStructSerializerImplI13scoped_refptrIN3net15X509CertificateEEE11DeserializeEPNS_6native8internal17NativeStruct_DataEPS5_PNS_7MessageE = comdat any

$_ZN4mojo8internal26NativeStructSerializerImplIN3net16CertVerifyResultEE11DeserializeEPNS_6native8internal17NativeStruct_DataEPS3_PNS_7MessageE = comdat any

$_ZN4mojo8internal15ArraySerializerINS_13ArrayDataViewINS_14StringDataViewEEENSt3__16vectorINS5_12basic_stringIcNS5_11char_traitsIcEENS5_9allocatorIcEEEENSA_ISC_EEEENS0_13ArrayIteratorINS_11ArrayTraitsISE_EESE_Lb0EEEvE19DeserializeElementsEPNS0_10Array_DataINS0_7PointerINSK_IcEEEEEEPSE_PNS_7MessageE = comdat any

@.str = private unnamed_addr constant [14 x i8] c"resolver_type\00", align 1
@.str.2 = private unnamed_addr constant [13 x i8] c"host_pattern\00", align 1
@.str.3 = private unnamed_addr constant [12 x i8] c"replacement\00", align 1
@.str.4 = private unnamed_addr constant [20 x i8] c"host_resolver_flags\00", align 1
@.str.5 = private unnamed_addr constant [12 x i8] c"dns_aliases\00", align 1
@_ZN7network5mojom18NetworkServiceTest5Name_E = hidden constant [33 x i8] c"network.mojom.NetworkServiceTest\00", align 16
@_ZTVN7network5mojom23NetworkServiceTestProxyE = hidden unnamed_addr constant { [39 x i8*] } { [39 x i8*] [i8* null, i8* null, i8* bitcast (void (%"class.network::mojom::NetworkServiceTest"*)* @_ZN7network5mojom18NetworkServiceTestD2Ev to i8*), i8* bitcast (void (%"class.network::mojom::NetworkServiceTestProxy"*)* @_ZN7network5mojom23NetworkServiceTestProxyD0Ev to i8*), i8* bitcast (i1 (%"class.network::mojom::NetworkServiceTestProxy"*, %"class.std::__1::vector.37"*)* @_ZN7network5mojom23NetworkServiceTestProxy8AddRulesENSt3__16vectorIN4mojo9StructPtrINS0_4RuleEEENS2_9allocatorIS7_EEEE to i8*), i8* bitcast (void (%"class.network::mojom::NetworkServiceTestProxy"*, %"class.std::__1::vector.37"*, %"class.base::OnceCallback"*)* @_ZN7network5mojom23NetworkServiceTestProxy8AddRulesENSt3__16vectorIN4mojo9StructPtrINS0_4RuleEEENS2_9allocatorIS7_EEEEN4base12OnceCallbackIFvvEEE to i8*), i8* bitcast (void (%"class.network::mojom::NetworkServiceTestProxy"*, i32, %"class.base::OnceCallback"*)* @_ZN7network5mojom23NetworkServiceTestProxy21SimulateNetworkChangeENS0_14ConnectionTypeEN4base12OnceCallbackIFvvEEE to i8*), i8* bitcast (void (%"class.network::mojom::NetworkServiceTestProxy"*, i32, %"class.base::OnceCallback"*)* @_ZN7network5mojom23NetworkServiceTestProxy28SimulateNetworkQualityChangeEN3net23EffectiveConnectionTypeEN4base12OnceCallbackIFvvEEE to i8*), i8* bitcast (void (%"class.network::mojom::NetworkServiceTestProxy"*)* @_ZN7network5mojom23NetworkServiceTestProxy13SimulateCrashEv to i8*), i8* bitcast (i1 (%"class.network::mojom::NetworkServiceTestProxy"*, i32)* @_ZN7network5mojom23NetworkServiceTestProxy32MockCertVerifierSetDefaultResultEi to i8*), i8* bitcast (void (%"class.network::mojom::NetworkServiceTestProxy"*, i32, %"class.base::OnceCallback"*)* @_ZN7network5mojom23NetworkServiceTestProxy32MockCertVerifierSetDefaultResultEiN4base12OnceCallbackIFvvEEE to i8*), i8* bitcast (i1 (%"class.network::mojom::NetworkServiceTestProxy"*, %class.scoped_refptr.47*, %"class.std::__1::basic_string"*, %"class.net::CertVerifyResult"*, i32)* @_ZN7network5mojom23NetworkServiceTestProxy39MockCertVerifierAddResultForCertAndHostERK13scoped_refptrIN3net15X509CertificateEERKNSt3__112basic_stringIcNS8_11char_traitsIcEENS8_9allocatorIcEEEERKNS3_16CertVerifyResultEi to i8*), i8* bitcast (void (%"class.network::mojom::NetworkServiceTestProxy"*, %class.scoped_refptr.47*, %"class.std::__1::basic_string"*, %"class.net::CertVerifyResult"*, i32, %"class.base::OnceCallback"*)* @_ZN7network5mojom23NetworkServiceTestProxy39MockCertVerifierAddResultForCertAndHostERK13scoped_refptrIN3net15X509CertificateEERKNSt3__112basic_stringIcNS8_11char_traitsIcEENS8_9allocatorIcEEEERKNS3_16CertVerifyResultEiN4base12OnceCallbackIFvvEEE to i8*), i8* bitcast (i1 (%"class.network::mojom::NetworkServiceTestProxy"*, i32)* @_ZN7network5mojom23NetworkServiceTestProxy12SetRequireCTENS0_28NetworkServiceTest_RequireCTE to i8*), i8* bitcast (void (%"class.network::mojom::NetworkServiceTestProxy"*, i32, %"class.base::OnceCallback"*)* @_ZN7network5mojom23NetworkServiceTestProxy12SetRequireCTENS0_28NetworkServiceTest_RequireCTEN4base12OnceCallbackIFvvEEE to i8*), i8* bitcast (i1 (%"class.network::mojom::NetworkServiceTestProxy"*, i16)* @_ZN7network5mojom23NetworkServiceTestProxy31SetTransportSecurityStateSourceEt to i8*), i8* bitcast (void (%"class.network::mojom::NetworkServiceTestProxy"*, i16, %"class.base::OnceCallback"*)* @_ZN7network5mojom23NetworkServiceTestProxy31SetTransportSecurityStateSourceEtN4base12OnceCallbackIFvvEEE to i8*), i8* bitcast (i1 (%"class.network::mojom::NetworkServiceTestProxy"*)* @_ZN7network5mojom23NetworkServiceTestProxy38SetAllowNetworkAccessToHostResolutionsEv to i8*), i8* bitcast (void (%"class.network::mojom::NetworkServiceTestProxy"*, %"class.base::OnceCallback"*)* @_ZN7network5mojom23NetworkServiceTestProxy38SetAllowNetworkAccessToHostResolutionsEN4base12OnceCallbackIFvvEEE to i8*), i8* bitcast (void (%"class.network::mojom::NetworkServiceTestProxy"*, %"class.std::__1::basic_string"*)* @_ZN7network5mojom23NetworkServiceTestProxy18CrashOnResolveHostERKNSt3__112basic_stringIcNS2_11char_traitsIcEENS2_9allocatorIcEEEE to i8*), i8* bitcast (void (%"class.network::mojom::NetworkServiceTestProxy"*)* @_ZN7network5mojom23NetworkServiceTestProxy20CrashOnGetCookieListEv to i8*), i8* bitcast (i1 (%"class.network::mojom::NetworkServiceTestProxy"*, i32*)* @_ZN7network5mojom23NetworkServiceTestProxy28GetLatestMemoryPressureLevelEPN4base22MemoryPressureListener19MemoryPressureLevelE to i8*), i8* bitcast (void (%"class.network::mojom::NetworkServiceTestProxy"*, %"class.base::OnceCallback.117"*)* @_ZN7network5mojom23NetworkServiceTestProxy28GetLatestMemoryPressureLevelEN4base12OnceCallbackIFvNS2_22MemoryPressureListener19MemoryPressureLevelEEEE to i8*), i8* bitcast (i1 (%"class.network::mojom::NetworkServiceTestProxy"*, i32*)* @_ZN7network5mojom23NetworkServiceTestProxy35GetPeerToPeerConnectionsCountChangeEPj to i8*), i8* bitcast (void (%"class.network::mojom::NetworkServiceTestProxy"*, %"class.base::OnceCallback.119"*)* @_ZN7network5mojom23NetworkServiceTestProxy35GetPeerToPeerConnectionsCountChangeEN4base12OnceCallbackIFvjEEE to i8*), i8* bitcast (i1 (%"class.network::mojom::NetworkServiceTestProxy"*, %"class.std::__1::basic_string"*, %"class.std::__1::basic_string"*)* @_ZN7network5mojom23NetworkServiceTestProxy27GetEnvironmentVariableValueERKNSt3__112basic_stringIcNS2_11char_traitsIcEENS2_9allocatorIcEEEEPS8_ to i8*), i8* bitcast (void (%"class.network::mojom::NetworkServiceTestProxy"*, %"class.std::__1::basic_string"*, %"class.base::OnceCallback.121"*)* @_ZN7network5mojom23NetworkServiceTestProxy27GetEnvironmentVariableValueERKNSt3__112basic_stringIcNS2_11char_traitsIcEENS2_9allocatorIcEEEEN4base12OnceCallbackIFvSA_EEE to i8*), i8* bitcast (i1 (%"class.network::mojom::NetworkServiceTestProxy"*, %"class.std::__1::basic_string"*)* @_ZN7network5mojom23NetworkServiceTestProxy3LogERKNSt3__112basic_stringIcNS2_11char_traitsIcEENS2_9allocatorIcEEEE to i8*), i8* bitcast (void (%"class.network::mojom::NetworkServiceTestProxy"*, %"class.std::__1::basic_string"*, %"class.base::OnceCallback"*)* @_ZN7network5mojom23NetworkServiceTestProxy3LogERKNSt3__112basic_stringIcNS2_11char_traitsIcEENS2_9allocatorIcEEEEN4base12OnceCallbackIFvvEEE to i8*), i8* bitcast (void (%"class.network::mojom::NetworkServiceTestProxy"*, %"class.std::__1::basic_string"*)* @_ZN7network5mojom23NetworkServiceTestProxy18ActivateFieldTrialERKNSt3__112basic_stringIcNS2_11char_traitsIcEENS2_9allocatorIcEEEE to i8*), i8* bitcast (i1 (%"class.network::mojom::NetworkServiceTestProxy"*, %"class.std::__1::vector.84"*, %"class.std::__1::basic_string"*)* @_ZN7network5mojom23NetworkServiceTestProxy11SetEVPolicyERKNSt3__16vectorIhNS2_9allocatorIhEEEERKNS2_12basic_stringIcNS2_11char_traitsIcEENS4_IcEEEE to i8*), i8* bitcast (void (%"class.network::mojom::NetworkServiceTestProxy"*, %"class.std::__1::vector.84"*, %"class.std::__1::basic_string"*, %"class.base::OnceCallback"*)* @_ZN7network5mojom23NetworkServiceTestProxy11SetEVPolicyERKNSt3__16vectorIhNS2_9allocatorIhEEEERKNS2_12basic_stringIcNS2_11char_traitsIcEENS4_IcEEEEN4base12OnceCallbackIFvvEEE to i8*), i8* bitcast (i1 (%"class.network::mojom::NetworkServiceTestProxy"*, i64*)* @_ZN7network5mojom23NetworkServiceTestProxy28GetFirstPartySetEntriesCountEPl to i8*), i8* bitcast (void (%"class.network::mojom::NetworkServiceTestProxy"*, %"class.base::OnceCallback.128"*)* @_ZN7network5mojom23NetworkServiceTestProxy28GetFirstPartySetEntriesCountEN4base12OnceCallbackIFvlEEE to i8*), i8* bitcast (i1 (%"class.network::mojom::NetworkServiceTestProxy"*, i8, i64)* @_ZN7network5mojom23NetworkServiceTestProxy24SetSCTAuditingRetryDelayEN4absl8optionalIN4base9TimeDeltaEEE to i8*), i8* bitcast (void (%"class.network::mojom::NetworkServiceTestProxy"*, i8, i64, %"class.base::OnceCallback"*)* @_ZN7network5mojom23NetworkServiceTestProxy24SetSCTAuditingRetryDelayEN4absl8optionalIN4base9TimeDeltaEEENS4_12OnceCallbackIFvvEEE to i8*), i8* bitcast (i1 (%"class.network::mojom::NetworkServiceTestProxy"*, i64*)* @_ZN7network5mojom23NetworkServiceTestProxy33GetSCTAuditingPendingReportsCountEPm to i8*), i8* bitcast (void (%"class.network::mojom::NetworkServiceTestProxy"*, %"class.base::OnceCallback.133"*)* @_ZN7network5mojom23NetworkServiceTestProxy33GetSCTAuditingPendingReportsCountEN4base12OnceCallbackIFvmEEE to i8*), i8* bitcast (void (%"class.network::mojom::NetworkServiceTestProxy"*, %"class.base::OnceCallback"*)* @_ZN7network5mojom23NetworkServiceTestProxy38SetSCTAuditingReportCompletionCallbackEN4base12OnceCallbackIFvvEEE to i8*)] }, align 8
@_ZN7network5mojomL33kNetworkServiceTestValidationInfoE = internal constant [21 x %"struct.std::__1::pair"] [%"struct.std::__1::pair" { i32 1842504132, %"struct.mojo::internal::GenericValidationInfo" { i1 (i8*, %"class.mojo::internal::ValidationContext"*)* @_ZN7network5mojom8internal39NetworkServiceTest_AddRules_Params_Data8ValidateEPKvPN4mojo8internal17ValidationContextE, i1 (i8*, %"class.mojo::internal::ValidationContext"*)* @_ZN7network5mojom8internal47NetworkServiceTest_AddRules_ResponseParams_Data8ValidateEPKvPN4mojo8internal17ValidationContextE } }, %"struct.std::__1::pair" { i32 770970789, %"struct.mojo::internal::GenericValidationInfo" { i1 (i8*, %"class.mojo::internal::ValidationContext"*)* @_ZN7network5mojom8internal52NetworkServiceTest_SimulateNetworkChange_Params_Data8ValidateEPKvPN4mojo8internal17ValidationContextE, i1 (i8*, %"class.mojo::internal::ValidationContext"*)* @_ZN7network5mojom8internal60NetworkServiceTest_SimulateNetworkChange_ResponseParams_Data8ValidateEPKvPN4mojo8internal17ValidationContextE } }, %"struct.std::__1::pair" { i32 529548984, %"struct.mojo::internal::GenericValidationInfo" { i1 (i8*, %"class.mojo::internal::ValidationContext"*)* @_ZN7network5mojom8internal59NetworkServiceTest_SimulateNetworkQualityChange_Params_Data8ValidateEPKvPN4mojo8internal17ValidationContextE, i1 (i8*, %"class.mojo::internal::ValidationContext"*)* @_ZN7network5mojom8internal67NetworkServiceTest_SimulateNetworkQualityChange_ResponseParams_Data8ValidateEPKvPN4mojo8internal17ValidationContextE } }, %"struct.std::__1::pair" { i32 1355754339, %"struct.mojo::internal::GenericValidationInfo" { i1 (i8*, %"class.mojo::internal::ValidationContext"*)* @_ZN7network5mojom8internal44NetworkServiceTest_SimulateCrash_Params_Data8ValidateEPKvPN4mojo8internal17ValidationContextE, i1 (i8*, %"class.mojo::internal::ValidationContext"*)* null } }, %"struct.std::__1::pair" { i32 343609816, %"struct.mojo::internal::GenericValidationInfo" { i1 (i8*, %"class.mojo::internal::ValidationContext"*)* @_ZN7network5mojom8internal63NetworkServiceTest_MockCertVerifierSetDefaultResult_Params_Data8ValidateEPKvPN4mojo8internal17ValidationContextE, i1 (i8*, %"class.mojo::internal::ValidationContext"*)* @_ZN7network5mojom8internal71NetworkServiceTest_MockCertVerifierSetDefaultResult_ResponseParams_Data8ValidateEPKvPN4mojo8internal17ValidationContextE } }, %"struct.std::__1::pair" { i32 278364737, %"struct.mojo::internal::GenericValidationInfo" { i1 (i8*, %"class.mojo::internal::ValidationContext"*)* @_ZN7network5mojom8internal70NetworkServiceTest_MockCertVerifierAddResultForCertAndHost_Params_Data8ValidateEPKvPN4mojo8internal17ValidationContextE, i1 (i8*, %"class.mojo::internal::ValidationContext"*)* @_ZN7network5mojom8internal78NetworkServiceTest_MockCertVerifierAddResultForCertAndHost_ResponseParams_Data8ValidateEPKvPN4mojo8internal17ValidationContextE } }, %"struct.std::__1::pair" { i32 401814863, %"struct.mojo::internal::GenericValidationInfo" { i1 (i8*, %"class.mojo::internal::ValidationContext"*)* @_ZN7network5mojom8internal43NetworkServiceTest_SetRequireCT_Params_Data8ValidateEPKvPN4mojo8internal17ValidationContextE, i1 (i8*, %"class.mojo::internal::ValidationContext"*)* @_ZN7network5mojom8internal51NetworkServiceTest_SetRequireCT_ResponseParams_Data8ValidateEPKvPN4mojo8internal17ValidationContextE } }, %"struct.std::__1::pair" { i32 1633370188, %"struct.mojo::internal::GenericValidationInfo" { i1 (i8*, %"class.mojo::internal::ValidationContext"*)* @_ZN7network5mojom8internal62NetworkServiceTest_SetTransportSecurityStateSource_Params_Data8ValidateEPKvPN4mojo8internal17ValidationContextE, i1 (i8*, %"class.mojo::internal::ValidationContext"*)* @_ZN7network5mojom8internal70NetworkServiceTest_SetTransportSecurityStateSource_ResponseParams_Data8ValidateEPKvPN4mojo8internal17ValidationContextE } }, %"struct.std::__1::pair" { i32 348381728, %"struct.mojo::internal::GenericValidationInfo" { i1 (i8*, %"class.mojo::internal::ValidationContext"*)* @_ZN7network5mojom8internal69NetworkServiceTest_SetAllowNetworkAccessToHostResolutions_Params_Data8ValidateEPKvPN4mojo8internal17ValidationContextE, i1 (i8*, %"class.mojo::internal::ValidationContext"*)* @_ZN7network5mojom8internal77NetworkServiceTest_SetAllowNetworkAccessToHostResolutions_ResponseParams_Data8ValidateEPKvPN4mojo8internal17ValidationContextE } }, %"struct.std::__1::pair" { i32 1259990622, %"struct.mojo::internal::GenericValidationInfo" { i1 (i8*, %"class.mojo::internal::ValidationContext"*)* @_ZN7network5mojom8internal49NetworkServiceTest_CrashOnResolveHost_Params_Data8ValidateEPKvPN4mojo8internal17ValidationContextE, i1 (i8*, %"class.mojo::internal::ValidationContext"*)* null } }, %"struct.std::__1::pair" { i32 1923533677, %"struct.mojo::internal::GenericValidationInfo" { i1 (i8*, %"class.mojo::internal::ValidationContext"*)* @_ZN7network5mojom8internal51NetworkServiceTest_CrashOnGetCookieList_Params_Data8ValidateEPKvPN4mojo8internal17ValidationContextE, i1 (i8*, %"class.mojo::internal::ValidationContext"*)* null } }, %"struct.std::__1::pair" { i32 1911011900, %"struct.mojo::internal::GenericValidationInfo" { i1 (i8*, %"class.mojo::internal::ValidationContext"*)* @_ZN7network5mojom8internal59NetworkServiceTest_GetLatestMemoryPressureLevel_Params_Data8ValidateEPKvPN4mojo8internal17ValidationContextE, i1 (i8*, %"class.mojo::internal::ValidationContext"*)* @_ZN7network5mojom8internal67NetworkServiceTest_GetLatestMemoryPressureLevel_ResponseParams_Data8ValidateEPKvPN4mojo8internal17ValidationContextE } }, %"struct.std::__1::pair" { i32 2111883237, %"struct.mojo::internal::GenericValidationInfo" { i1 (i8*, %"class.mojo::internal::ValidationContext"*)* @_ZN7network5mojom8internal66NetworkServiceTest_GetPeerToPeerConnectionsCountChange_Params_Data8ValidateEPKvPN4mojo8internal17ValidationContextE, i1 (i8*, %"class.mojo::internal::ValidationContext"*)* @_ZN7network5mojom8internal74NetworkServiceTest_GetPeerToPeerConnectionsCountChange_ResponseParams_Data8ValidateEPKvPN4mojo8internal17ValidationContextE } }, %"struct.std::__1::pair" { i32 1072134097, %"struct.mojo::internal::GenericValidationInfo" { i1 (i8*, %"class.mojo::internal::ValidationContext"*)* @_ZN7network5mojom8internal58NetworkServiceTest_GetEnvironmentVariableValue_Params_Data8ValidateEPKvPN4mojo8internal17ValidationContextE, i1 (i8*, %"class.mojo::internal::ValidationContext"*)* @_ZN7network5mojom8internal66NetworkServiceTest_GetEnvironmentVariableValue_ResponseParams_Data8ValidateEPKvPN4mojo8internal17ValidationContextE } }, %"struct.std::__1::pair" { i32 74253995, %"struct.mojo::internal::GenericValidationInfo" { i1 (i8*, %"class.mojo::internal::ValidationContext"*)* @_ZN7network5mojom8internal34NetworkServiceTest_Log_Params_Data8ValidateEPKvPN4mojo8internal17ValidationContextE, i1 (i8*, %"class.mojo::internal::ValidationContext"*)* @_ZN7network5mojom8internal42NetworkServiceTest_Log_ResponseParams_Data8ValidateEPKvPN4mojo8internal17ValidationContextE } }, %"struct.std::__1::pair" { i32 12603606, %"struct.mojo::internal::GenericValidationInfo" { i1 (i8*, %"class.mojo::internal::ValidationContext"*)* @_ZN7network5mojom8internal49NetworkServiceTest_ActivateFieldTrial_Params_Data8ValidateEPKvPN4mojo8internal17ValidationContextE, i1 (i8*, %"class.mojo::internal::ValidationContext"*)* null } }, %"struct.std::__1::pair" { i32 1188838258, %"struct.mojo::internal::GenericValidationInfo" { i1 (i8*, %"class.mojo::internal::ValidationContext"*)* @_ZN7network5mojom8internal42NetworkServiceTest_SetEVPolicy_Params_Data8ValidateEPKvPN4mojo8internal17ValidationContextE, i1 (i8*, %"class.mojo::internal::ValidationContext"*)* @_ZN7network5mojom8internal50NetworkServiceTest_SetEVPolicy_ResponseParams_Data8ValidateEPKvPN4mojo8internal17ValidationContextE } }, %"struct.std::__1::pair" { i32 832733096, %"struct.mojo::internal::GenericValidationInfo" { i1 (i8*, %"class.mojo::internal::ValidationContext"*)* @_ZN7network5mojom8internal59NetworkServiceTest_GetFirstPartySetEntriesCount_Params_Data8ValidateEPKvPN4mojo8internal17ValidationContextE, i1 (i8*, %"class.mojo::internal::ValidationContext"*)* @_ZN7network5mojom8internal67NetworkServiceTest_GetFirstPartySetEntriesCount_ResponseParams_Data8ValidateEPKvPN4mojo8internal17ValidationContextE } }, %"struct.std::__1::pair" { i32 177127893, %"struct.mojo::internal::GenericValidationInfo" { i1 (i8*, %"class.mojo::internal::ValidationContext"*)* @_ZN7network5mojom8internal55NetworkServiceTest_SetSCTAuditingRetryDelay_Params_Data8ValidateEPKvPN4mojo8internal17ValidationContextE, i1 (i8*, %"class.mojo::internal::ValidationContext"*)* @_ZN7network5mojom8internal63NetworkServiceTest_SetSCTAuditingRetryDelay_ResponseParams_Data8ValidateEPKvPN4mojo8internal17ValidationContextE } }, %"struct.std::__1::pair" { i32 1623448593, %"struct.mojo::internal::GenericValidationInfo" { i1 (i8*, %"class.mojo::internal::ValidationContext"*)* @_ZN7network5mojom8internal64NetworkServiceTest_GetSCTAuditingPendingReportsCount_Params_Data8ValidateEPKvPN4mojo8internal17ValidationContextE, i1 (i8*, %"class.mojo::internal::ValidationContext"*)* @_ZN7network5mojom8internal72NetworkServiceTest_GetSCTAuditingPendingReportsCount_ResponseParams_Data8ValidateEPKvPN4mojo8internal17ValidationContextE } }, %"struct.std::__1::pair" { i32 1816001466, %"struct.mojo::internal::GenericValidationInfo" { i1 (i8*, %"class.mojo::internal::ValidationContext"*)* @_ZN7network5mojom8internal69NetworkServiceTest_SetSCTAuditingReportCompletionCallback_Params_Data8ValidateEPKvPN4mojo8internal17ValidationContextE, i1 (i8*, %"class.mojo::internal::ValidationContext"*)* @_ZN7network5mojom8internal77NetworkServiceTest_SetSCTAuditingReportCompletionCallback_ResponseParams_Data8ValidateEPKvPN4mojo8internal17ValidationContextE } }], align 16
@_ZTVN7network5mojom18NetworkServiceTestE = hidden unnamed_addr constant { [39 x i8*] } { [39 x i8*] [i8* null, i8* null, i8* bitcast (void (%"class.network::mojom::NetworkServiceTest"*)* @_ZN7network5mojom18NetworkServiceTestD2Ev to i8*), i8* bitcast (void (%"class.network::mojom::NetworkServiceTest"*)* @_ZN7network5mojom18NetworkServiceTestD0Ev to i8*), i8* bitcast (i1 (%"class.network::mojom::NetworkServiceTest"*, %"class.std::__1::vector.37"*)* @_ZN7network5mojom18NetworkServiceTest8AddRulesENSt3__16vectorIN4mojo9StructPtrINS0_4RuleEEENS2_9allocatorIS7_EEEE to i8*), i8* bitcast (void ()* @__cxa_pure_virtual to i8*), i8* bitcast (void ()* @__cxa_pure_virtual to i8*), i8* bitcast (void ()* @__cxa_pure_virtual to i8*), i8* bitcast (void ()* @__cxa_pure_virtual to i8*), i8* bitcast (i1 (%"class.network::mojom::NetworkServiceTest"*, i32)* @_ZN7network5mojom18NetworkServiceTest32MockCertVerifierSetDefaultResultEi to i8*), i8* bitcast (void ()* @__cxa_pure_virtual to i8*), i8* bitcast (i1 (%"class.network::mojom::NetworkServiceTest"*, %class.scoped_refptr.47*, %"class.std::__1::basic_string"*, %"class.net::CertVerifyResult"*, i32)* @_ZN7network5mojom18NetworkServiceTest39MockCertVerifierAddResultForCertAndHostERK13scoped_refptrIN3net15X509CertificateEERKNSt3__112basic_stringIcNS8_11char_traitsIcEENS8_9allocatorIcEEEERKNS3_16CertVerifyResultEi to i8*), i8* bitcast (void ()* @__cxa_pure_virtual to i8*), i8* bitcast (i1 (%"class.network::mojom::NetworkServiceTest"*, i32)* @_ZN7network5mojom18NetworkServiceTest12SetRequireCTENS0_28NetworkServiceTest_RequireCTE to i8*), i8* bitcast (void ()* @__cxa_pure_virtual to i8*), i8* bitcast (i1 (%"class.network::mojom::NetworkServiceTest"*, i16)* @_ZN7network5mojom18NetworkServiceTest31SetTransportSecurityStateSourceEt to i8*), i8* bitcast (void ()* @__cxa_pure_virtual to i8*), i8* bitcast (i1 (%"class.network::mojom::NetworkServiceTest"*)* @_ZN7network5mojom18NetworkServiceTest38SetAllowNetworkAccessToHostResolutionsEv to i8*), i8* bitcast (void ()* @__cxa_pure_virtual to i8*), i8* bitcast (void ()* @__cxa_pure_virtual to i8*), i8* bitcast (void ()* @__cxa_pure_virtual to i8*), i8* bitcast (i1 (%"class.network::mojom::NetworkServiceTest"*, i32*)* @_ZN7network5mojom18NetworkServiceTest28GetLatestMemoryPressureLevelEPN4base22MemoryPressureListener19MemoryPressureLevelE to i8*), i8* bitcast (void ()* @__cxa_pure_virtual to i8*), i8* bitcast (i1 (%"class.network::mojom::NetworkServiceTest"*, i32*)* @_ZN7network5mojom18NetworkServiceTest35GetPeerToPeerConnectionsCountChangeEPj to i8*), i8* bitcast (void ()* @__cxa_pure_virtual to i8*), i8* bitcast (i1 (%"class.network::mojom::NetworkServiceTest"*, %"class.std::__1::basic_string"*, %"class.std::__1::basic_string"*)* @_ZN7network5mojom18NetworkServiceTest27GetEnvironmentVariableValueERKNSt3__112basic_stringIcNS2_11char_traitsIcEENS2_9allocatorIcEEEEPS8_ to i8*), i8* bitcast (void ()* @__cxa_pure_virtual to i8*), i8* bitcast (i1 (%"class.network::mojom::NetworkServiceTest"*, %"class.std::__1::basic_string"*)* @_ZN7network5mojom18NetworkServiceTest3LogERKNSt3__112basic_stringIcNS2_11char_traitsIcEENS2_9allocatorIcEEEE to i8*), i8* bitcast (void ()* @__cxa_pure_virtual to i8*), i8* bitcast (void ()* @__cxa_pure_virtual to i8*), i8* bitcast (i1 (%"class.network::mojom::NetworkServiceTest"*, %"class.std::__1::vector.84"*, %"class.std::__1::basic_string"*)* @_ZN7network5mojom18NetworkServiceTest11SetEVPolicyERKNSt3__16vectorIhNS2_9allocatorIhEEEERKNS2_12basic_stringIcNS2_11char_traitsIcEENS4_IcEEEE to i8*), i8* bitcast (void ()* @__cxa_pure_virtual to i8*), i8* bitcast (i1 (%"class.network::mojom::NetworkServiceTest"*, i64*)* @_ZN7network5mojom18NetworkServiceTest28GetFirstPartySetEntriesCountEPl to i8*), i8* bitcast (void ()* @__cxa_pure_virtual to i8*), i8* bitcast (i1 (%"class.network::mojom::NetworkServiceTest"*, i8, i64)* @_ZN7network5mojom18NetworkServiceTest24SetSCTAuditingRetryDelayEN4absl8optionalIN4base9TimeDeltaEEE to i8*), i8* bitcast (void ()* @__cxa_pure_virtual to i8*), i8* bitcast (i1 (%"class.network::mojom::NetworkServiceTest"*, i64*)* @_ZN7network5mojom18NetworkServiceTest33GetSCTAuditingPendingReportsCountEPm to i8*), i8* bitcast (void ()* @__cxa_pure_virtual to i8*), i8* bitcast (void ()* @__cxa_pure_virtual to i8*)] }, align 8
@_ZTVN7network5mojom46NetworkServiceTest_AddRules_HandleSyncResponseE = hidden unnamed_addr constant { [6 x i8*] } { [6 x i8*] [i8* null, i8* null, i8* bitcast (void (%"class.mojo::MessageReceiver"*)* @_ZN4mojo15MessageReceiverD2Ev to i8*), i8* bitcast (void (%"class.network::mojom::NetworkServiceTest_AddRules_HandleSyncResponse"*)* @_ZN7network5mojom46NetworkServiceTest_AddRules_HandleSyncResponseD0Ev to i8*), i8* bitcast (i1 (%"class.mojo::MessageReceiver"*)* @_ZN4mojo15MessageReceiver25PrefersSerializedMessagesEv to i8*), i8* bitcast (i1 (%"class.network::mojom::NetworkServiceTest_AddRules_HandleSyncResponse"*, %"class.mojo::Message"*)* @_ZN7network5mojom46NetworkServiceTest_AddRules_HandleSyncResponse6AcceptEPN4mojo7MessageE to i8*)] }, align 8
@_ZTVN7network5mojom45NetworkServiceTest_AddRules_ForwardToCallbackE = hidden unnamed_addr constant { [6 x i8*] } { [6 x i8*] [i8* null, i8* null, i8* bitcast (void (%"class.network::mojom::NetworkServiceTest_AddRules_ForwardToCallback"*)* @_ZN7network5mojom45NetworkServiceTest_AddRules_ForwardToCallbackD2Ev to i8*), i8* bitcast (void (%"class.network::mojom::NetworkServiceTest_AddRules_ForwardToCallback"*)* @_ZN7network5mojom45NetworkServiceTest_AddRules_ForwardToCallbackD0Ev to i8*), i8* bitcast (i1 (%"class.mojo::MessageReceiver"*)* @_ZN4mojo15MessageReceiver25PrefersSerializedMessagesEv to i8*), i8* bitcast (i1 (%"class.network::mojom::NetworkServiceTest_AddRules_ForwardToCallback"*, %"class.mojo::Message"*)* @_ZN7network5mojom45NetworkServiceTest_AddRules_ForwardToCallback6AcceptEPN4mojo7MessageE to i8*)] }, align 8
@_ZTVN7network5mojom58NetworkServiceTest_SimulateNetworkChange_ForwardToCallbackE = hidden unnamed_addr constant { [6 x i8*] } { [6 x i8*] [i8* null, i8* null, i8* bitcast (void (%"class.network::mojom::NetworkServiceTest_SimulateNetworkChange_ForwardToCallback"*)* @_ZN7network5mojom58NetworkServiceTest_SimulateNetworkChange_ForwardToCallbackD2Ev to i8*), i8* bitcast (void (%"class.network::mojom::NetworkServiceTest_SimulateNetworkChange_ForwardToCallback"*)* @_ZN7network5mojom58NetworkServiceTest_SimulateNetworkChange_ForwardToCallbackD0Ev to i8*), i8* bitcast (i1 (%"class.mojo::MessageReceiver"*)* @_ZN4mojo15MessageReceiver25PrefersSerializedMessagesEv to i8*), i8* bitcast (i1 (%"class.network::mojom::NetworkServiceTest_SimulateNetworkChange_ForwardToCallback"*, %"class.mojo::Message"*)* @_ZN7network5mojom58NetworkServiceTest_SimulateNetworkChange_ForwardToCallback6AcceptEPN4mojo7MessageE to i8*)] }, align 8
@_ZTVN7network5mojom65NetworkServiceTest_SimulateNetworkQualityChange_ForwardToCallbackE = hidden unnamed_addr constant { [6 x i8*] } { [6 x i8*] [i8* null, i8* null, i8* bitcast (void (%"class.network::mojom::NetworkServiceTest_SimulateNetworkQualityChange_ForwardToCallback"*)* @_ZN7network5mojom65NetworkServiceTest_SimulateNetworkQualityChange_ForwardToCallbackD2Ev to i8*), i8* bitcast (void (%"class.network::mojom::NetworkServiceTest_SimulateNetworkQualityChange_ForwardToCallback"*)* @_ZN7network5mojom65NetworkServiceTest_SimulateNetworkQualityChange_ForwardToCallbackD0Ev to i8*), i8* bitcast (i1 (%"class.mojo::MessageReceiver"*)* @_ZN4mojo15MessageReceiver25PrefersSerializedMessagesEv to i8*), i8* bitcast (i1 (%"class.network::mojom::NetworkServiceTest_SimulateNetworkQualityChange_ForwardToCallback"*, %"class.mojo::Message"*)* @_ZN7network5mojom65NetworkServiceTest_SimulateNetworkQualityChange_ForwardToCallback6AcceptEPN4mojo7MessageE to i8*)] }, align 8
@_ZTVN7network5mojom70NetworkServiceTest_MockCertVerifierSetDefaultResult_HandleSyncResponseE = hidden unnamed_addr constant { [6 x i8*] } { [6 x i8*] [i8* null, i8* null, i8* bitcast (void (%"class.mojo::MessageReceiver"*)* @_ZN4mojo15MessageReceiverD2Ev to i8*), i8* bitcast (void (%"class.network::mojom::NetworkServiceTest_MockCertVerifierSetDefaultResult_HandleSyncResponse"*)* @_ZN7network5mojom70NetworkServiceTest_MockCertVerifierSetDefaultResult_HandleSyncResponseD0Ev to i8*), i8* bitcast (i1 (%"class.mojo::MessageReceiver"*)* @_ZN4mojo15MessageReceiver25PrefersSerializedMessagesEv to i8*), i8* bitcast (i1 (%"class.network::mojom::NetworkServiceTest_MockCertVerifierSetDefaultResult_HandleSyncResponse"*, %"class.mojo::Message"*)* @_ZN7network5mojom70NetworkServiceTest_MockCertVerifierSetDefaultResult_HandleSyncResponse6AcceptEPN4mojo7MessageE to i8*)] }, align 8
@_ZTVN7network5mojom69NetworkServiceTest_MockCertVerifierSetDefaultResult_ForwardToCallbackE = hidden unnamed_addr constant { [6 x i8*] } { [6 x i8*] [i8* null, i8* null, i8* bitcast (void (%"class.network::mojom::NetworkServiceTest_MockCertVerifierSetDefaultResult_ForwardToCallback"*)* @_ZN7network5mojom69NetworkServiceTest_MockCertVerifierSetDefaultResult_ForwardToCallbackD2Ev to i8*), i8* bitcast (void (%"class.network::mojom::NetworkServiceTest_MockCertVerifierSetDefaultResult_ForwardToCallback"*)* @_ZN7network5mojom69NetworkServiceTest_MockCertVerifierSetDefaultResult_ForwardToCallbackD0Ev to i8*), i8* bitcast (i1 (%"class.mojo::MessageReceiver"*)* @_ZN4mojo15MessageReceiver25PrefersSerializedMessagesEv to i8*), i8* bitcast (i1 (%"class.network::mojom::NetworkServiceTest_MockCertVerifierSetDefaultResult_ForwardToCallback"*, %"class.mojo::Message"*)* @_ZN7network5mojom69NetworkServiceTest_MockCertVerifierSetDefaultResult_ForwardToCallback6AcceptEPN4mojo7MessageE to i8*)] }, align 8
@_ZTVN7network5mojom77NetworkServiceTest_MockCertVerifierAddResultForCertAndHost_HandleSyncResponseE = hidden unnamed_addr constant { [6 x i8*] } { [6 x i8*] [i8* null, i8* null, i8* bitcast (void (%"class.mojo::MessageReceiver"*)* @_ZN4mojo15MessageReceiverD2Ev to i8*), i8* bitcast (void (%"class.network::mojom::NetworkServiceTest_MockCertVerifierAddResultForCertAndHost_HandleSyncResponse"*)* @_ZN7network5mojom77NetworkServiceTest_MockCertVerifierAddResultForCertAndHost_HandleSyncResponseD0Ev to i8*), i8* bitcast (i1 (%"class.mojo::MessageReceiver"*)* @_ZN4mojo15MessageReceiver25PrefersSerializedMessagesEv to i8*), i8* bitcast (i1 (%"class.network::mojom::NetworkServiceTest_MockCertVerifierAddResultForCertAndHost_HandleSyncResponse"*, %"class.mojo::Message"*)* @_ZN7network5mojom77NetworkServiceTest_MockCertVerifierAddResultForCertAndHost_HandleSyncResponse6AcceptEPN4mojo7MessageE to i8*)] }, align 8
@_ZTVN7network5mojom76NetworkServiceTest_MockCertVerifierAddResultForCertAndHost_ForwardToCallbackE = hidden unnamed_addr constant { [6 x i8*] } { [6 x i8*] [i8* null, i8* null, i8* bitcast (void (%"class.network::mojom::NetworkServiceTest_MockCertVerifierAddResultForCertAndHost_ForwardToCallback"*)* @_ZN7network5mojom76NetworkServiceTest_MockCertVerifierAddResultForCertAndHost_ForwardToCallbackD2Ev to i8*), i8* bitcast (void (%"class.network::mojom::NetworkServiceTest_MockCertVerifierAddResultForCertAndHost_ForwardToCallback"*)* @_ZN7network5mojom76NetworkServiceTest_MockCertVerifierAddResultForCertAndHost_ForwardToCallbackD0Ev to i8*), i8* bitcast (i1 (%"class.mojo::MessageReceiver"*)* @_ZN4mojo15MessageReceiver25PrefersSerializedMessagesEv to i8*), i8* bitcast (i1 (%"class.network::mojom::NetworkServiceTest_MockCertVerifierAddResultForCertAndHost_ForwardToCallback"*, %"class.mojo::Message"*)* @_ZN7network5mojom76NetworkServiceTest_MockCertVerifierAddResultForCertAndHost_ForwardToCallback6AcceptEPN4mojo7MessageE to i8*)] }, align 8
@_ZTVN7network5mojom50NetworkServiceTest_SetRequireCT_HandleSyncResponseE = hidden unnamed_addr constant { [6 x i8*] } { [6 x i8*] [i8* null, i8* null, i8* bitcast (void (%"class.mojo::MessageReceiver"*)* @_ZN4mojo15MessageReceiverD2Ev to i8*), i8* bitcast (void (%"class.network::mojom::NetworkServiceTest_SetRequireCT_HandleSyncResponse"*)* @_ZN7network5mojom50NetworkServiceTest_SetRequireCT_HandleSyncResponseD0Ev to i8*), i8* bitcast (i1 (%"class.mojo::MessageReceiver"*)* @_ZN4mojo15MessageReceiver25PrefersSerializedMessagesEv to i8*), i8* bitcast (i1 (%"class.network::mojom::NetworkServiceTest_SetRequireCT_HandleSyncResponse"*, %"class.mojo::Message"*)* @_ZN7network5mojom50NetworkServiceTest_SetRequireCT_HandleSyncResponse6AcceptEPN4mojo7MessageE to i8*)] }, align 8
@_ZTVN7network5mojom49NetworkServiceTest_SetRequireCT_ForwardToCallbackE = hidden unnamed_addr constant { [6 x i8*] } { [6 x i8*] [i8* null, i8* null, i8* bitcast (void (%"class.network::mojom::NetworkServiceTest_SetRequireCT_ForwardToCallback"*)* @_ZN7network5mojom49NetworkServiceTest_SetRequireCT_ForwardToCallbackD2Ev to i8*), i8* bitcast (void (%"class.network::mojom::NetworkServiceTest_SetRequireCT_ForwardToCallback"*)* @_ZN7network5mojom49NetworkServiceTest_SetRequireCT_ForwardToCallbackD0Ev to i8*), i8* bitcast (i1 (%"class.mojo::MessageReceiver"*)* @_ZN4mojo15MessageReceiver25PrefersSerializedMessagesEv to i8*), i8* bitcast (i1 (%"class.network::mojom::NetworkServiceTest_SetRequireCT_ForwardToCallback"*, %"class.mojo::Message"*)* @_ZN7network5mojom49NetworkServiceTest_SetRequireCT_ForwardToCallback6AcceptEPN4mojo7MessageE to i8*)] }, align 8
@_ZTVN7network5mojom69NetworkServiceTest_SetTransportSecurityStateSource_HandleSyncResponseE = hidden unnamed_addr constant { [6 x i8*] } { [6 x i8*] [i8* null, i8* null, i8* bitcast (void (%"class.mojo::MessageReceiver"*)* @_ZN4mojo15MessageReceiverD2Ev to i8*), i8* bitcast (void (%"class.network::mojom::NetworkServiceTest_SetTransportSecurityStateSource_HandleSyncResponse"*)* @_ZN7network5mojom69NetworkServiceTest_SetTransportSecurityStateSource_HandleSyncResponseD0Ev to i8*), i8* bitcast (i1 (%"class.mojo::MessageReceiver"*)* @_ZN4mojo15MessageReceiver25PrefersSerializedMessagesEv to i8*), i8* bitcast (i1 (%"class.network::mojom::NetworkServiceTest_SetTransportSecurityStateSource_HandleSyncResponse"*, %"class.mojo::Message"*)* @_ZN7network5mojom69NetworkServiceTest_SetTransportSecurityStateSource_HandleSyncResponse6AcceptEPN4mojo7MessageE to i8*)] }, align 8
@_ZTVN7network5mojom68NetworkServiceTest_SetTransportSecurityStateSource_ForwardToCallbackE = hidden unnamed_addr constant { [6 x i8*] } { [6 x i8*] [i8* null, i8* null, i8* bitcast (void (%"class.network::mojom::NetworkServiceTest_SetTransportSecurityStateSource_ForwardToCallback"*)* @_ZN7network5mojom68NetworkServiceTest_SetTransportSecurityStateSource_ForwardToCallbackD2Ev to i8*), i8* bitcast (void (%"class.network::mojom::NetworkServiceTest_SetTransportSecurityStateSource_ForwardToCallback"*)* @_ZN7network5mojom68NetworkServiceTest_SetTransportSecurityStateSource_ForwardToCallbackD0Ev to i8*), i8* bitcast (i1 (%"class.mojo::MessageReceiver"*)* @_ZN4mojo15MessageReceiver25PrefersSerializedMessagesEv to i8*), i8* bitcast (i1 (%"class.network::mojom::NetworkServiceTest_SetTransportSecurityStateSource_ForwardToCallback"*, %"class.mojo::Message"*)* @_ZN7network5mojom68NetworkServiceTest_SetTransportSecurityStateSource_ForwardToCallback6AcceptEPN4mojo7MessageE to i8*)] }, align 8
@_ZTVN7network5mojom76NetworkServiceTest_SetAllowNetworkAccessToHostResolutions_HandleSyncResponseE = hidden unnamed_addr constant { [6 x i8*] } { [6 x i8*] [i8* null, i8* null, i8* bitcast (void (%"class.mojo::MessageReceiver"*)* @_ZN4mojo15MessageReceiverD2Ev to i8*), i8* bitcast (void (%"class.network::mojom::NetworkServiceTest_SetAllowNetworkAccessToHostResolutions_HandleSyncResponse"*)* @_ZN7network5mojom76NetworkServiceTest_SetAllowNetworkAccessToHostResolutions_HandleSyncResponseD0Ev to i8*), i8* bitcast (i1 (%"class.mojo::MessageReceiver"*)* @_ZN4mojo15MessageReceiver25PrefersSerializedMessagesEv to i8*), i8* bitcast (i1 (%"class.network::mojom::NetworkServiceTest_SetAllowNetworkAccessToHostResolutions_HandleSyncResponse"*, %"class.mojo::Message"*)* @_ZN7network5mojom76NetworkServiceTest_SetAllowNetworkAccessToHostResolutions_HandleSyncResponse6AcceptEPN4mojo7MessageE to i8*)] }, align 8
@_ZTVN7network5mojom75NetworkServiceTest_SetAllowNetworkAccessToHostResolutions_ForwardToCallbackE = hidden unnamed_addr constant { [6 x i8*] } { [6 x i8*] [i8* null, i8* null, i8* bitcast (void (%"class.network::mojom::NetworkServiceTest_SetAllowNetworkAccessToHostResolutions_ForwardToCallback"*)* @_ZN7network5mojom75NetworkServiceTest_SetAllowNetworkAccessToHostResolutions_ForwardToCallbackD2Ev to i8*), i8* bitcast (void (%"class.network::mojom::NetworkServiceTest_SetAllowNetworkAccessToHostResolutions_ForwardToCallback"*)* @_ZN7network5mojom75NetworkServiceTest_SetAllowNetworkAccessToHostResolutions_ForwardToCallbackD0Ev to i8*), i8* bitcast (i1 (%"class.mojo::MessageReceiver"*)* @_ZN4mojo15MessageReceiver25PrefersSerializedMessagesEv to i8*), i8* bitcast (i1 (%"class.network::mojom::NetworkServiceTest_SetAllowNetworkAccessToHostResolutions_ForwardToCallback"*, %"class.mojo::Message"*)* @_ZN7network5mojom75NetworkServiceTest_SetAllowNetworkAccessToHostResolutions_ForwardToCallback6AcceptEPN4mojo7MessageE to i8*)] }, align 8
@_ZTVN7network5mojom66NetworkServiceTest_GetLatestMemoryPressureLevel_HandleSyncResponseE = hidden unnamed_addr constant { [6 x i8*] } { [6 x i8*] [i8* null, i8* null, i8* bitcast (void (%"class.mojo::MessageReceiver"*)* @_ZN4mojo15MessageReceiverD2Ev to i8*), i8* bitcast (void (%"class.network::mojom::NetworkServiceTest_GetLatestMemoryPressureLevel_HandleSyncResponse"*)* @_ZN7network5mojom66NetworkServiceTest_GetLatestMemoryPressureLevel_HandleSyncResponseD0Ev to i8*), i8* bitcast (i1 (%"class.mojo::MessageReceiver"*)* @_ZN4mojo15MessageReceiver25PrefersSerializedMessagesEv to i8*), i8* bitcast (i1 (%"class.network::mojom::NetworkServiceTest_GetLatestMemoryPressureLevel_HandleSyncResponse"*, %"class.mojo::Message"*)* @_ZN7network5mojom66NetworkServiceTest_GetLatestMemoryPressureLevel_HandleSyncResponse6AcceptEPN4mojo7MessageE to i8*)] }, align 8
@_ZTVN7network5mojom65NetworkServiceTest_GetLatestMemoryPressureLevel_ForwardToCallbackE = hidden unnamed_addr constant { [6 x i8*] } { [6 x i8*] [i8* null, i8* null, i8* bitcast (void (%"class.network::mojom::NetworkServiceTest_GetLatestMemoryPressureLevel_ForwardToCallback"*)* @_ZN7network5mojom65NetworkServiceTest_GetLatestMemoryPressureLevel_ForwardToCallbackD2Ev to i8*), i8* bitcast (void (%"class.network::mojom::NetworkServiceTest_GetLatestMemoryPressureLevel_ForwardToCallback"*)* @_ZN7network5mojom65NetworkServiceTest_GetLatestMemoryPressureLevel_ForwardToCallbackD0Ev to i8*), i8* bitcast (i1 (%"class.mojo::MessageReceiver"*)* @_ZN4mojo15MessageReceiver25PrefersSerializedMessagesEv to i8*), i8* bitcast (i1 (%"class.network::mojom::NetworkServiceTest_GetLatestMemoryPressureLevel_ForwardToCallback"*, %"class.mojo::Message"*)* @_ZN7network5mojom65NetworkServiceTest_GetLatestMemoryPressureLevel_ForwardToCallback6AcceptEPN4mojo7MessageE to i8*)] }, align 8
@_ZTVN7network5mojom73NetworkServiceTest_GetPeerToPeerConnectionsCountChange_HandleSyncResponseE = hidden unnamed_addr constant { [6 x i8*] } { [6 x i8*] [i8* null, i8* null, i8* bitcast (void (%"class.mojo::MessageReceiver"*)* @_ZN4mojo15MessageReceiverD2Ev to i8*), i8* bitcast (void (%"class.network::mojom::NetworkServiceTest_GetPeerToPeerConnectionsCountChange_HandleSyncResponse"*)* @_ZN7network5mojom73NetworkServiceTest_GetPeerToPeerConnectionsCountChange_HandleSyncResponseD0Ev to i8*), i8* bitcast (i1 (%"class.mojo::MessageReceiver"*)* @_ZN4mojo15MessageReceiver25PrefersSerializedMessagesEv to i8*), i8* bitcast (i1 (%"class.network::mojom::NetworkServiceTest_GetPeerToPeerConnectionsCountChange_HandleSyncResponse"*, %"class.mojo::Message"*)* @_ZN7network5mojom73NetworkServiceTest_GetPeerToPeerConnectionsCountChange_HandleSyncResponse6AcceptEPN4mojo7MessageE to i8*)] }, align 8
@_ZTVN7network5mojom72NetworkServiceTest_GetPeerToPeerConnectionsCountChange_ForwardToCallbackE = hidden unnamed_addr constant { [6 x i8*] } { [6 x i8*] [i8* null, i8* null, i8* bitcast (void (%"class.network::mojom::NetworkServiceTest_GetPeerToPeerConnectionsCountChange_ForwardToCallback"*)* @_ZN7network5mojom72NetworkServiceTest_GetPeerToPeerConnectionsCountChange_ForwardToCallbackD2Ev to i8*), i8* bitcast (void (%"class.network::mojom::NetworkServiceTest_GetPeerToPeerConnectionsCountChange_ForwardToCallback"*)* @_ZN7network5mojom72NetworkServiceTest_GetPeerToPeerConnectionsCountChange_ForwardToCallbackD0Ev to i8*), i8* bitcast (i1 (%"class.mojo::MessageReceiver"*)* @_ZN4mojo15MessageReceiver25PrefersSerializedMessagesEv to i8*), i8* bitcast (i1 (%"class.network::mojom::NetworkServiceTest_GetPeerToPeerConnectionsCountChange_ForwardToCallback"*, %"class.mojo::Message"*)* @_ZN7network5mojom72NetworkServiceTest_GetPeerToPeerConnectionsCountChange_ForwardToCallback6AcceptEPN4mojo7MessageE to i8*)] }, align 8
@_ZTVN7network5mojom65NetworkServiceTest_GetEnvironmentVariableValue_HandleSyncResponseE = hidden unnamed_addr constant { [6 x i8*] } { [6 x i8*] [i8* null, i8* null, i8* bitcast (void (%"class.mojo::MessageReceiver"*)* @_ZN4mojo15MessageReceiverD2Ev to i8*), i8* bitcast (void (%"class.network::mojom::NetworkServiceTest_GetEnvironmentVariableValue_HandleSyncResponse"*)* @_ZN7network5mojom65NetworkServiceTest_GetEnvironmentVariableValue_HandleSyncResponseD0Ev to i8*), i8* bitcast (i1 (%"class.mojo::MessageReceiver"*)* @_ZN4mojo15MessageReceiver25PrefersSerializedMessagesEv to i8*), i8* bitcast (i1 (%"class.network::mojom::NetworkServiceTest_GetEnvironmentVariableValue_HandleSyncResponse"*, %"class.mojo::Message"*)* @_ZN7network5mojom65NetworkServiceTest_GetEnvironmentVariableValue_HandleSyncResponse6AcceptEPN4mojo7MessageE to i8*)] }, align 8
@_ZTVN7network5mojom64NetworkServiceTest_GetEnvironmentVariableValue_ForwardToCallbackE = hidden unnamed_addr constant { [6 x i8*] } { [6 x i8*] [i8* null, i8* null, i8* bitcast (void (%"class.network::mojom::NetworkServiceTest_GetEnvironmentVariableValue_ForwardToCallback"*)* @_ZN7network5mojom64NetworkServiceTest_GetEnvironmentVariableValue_ForwardToCallbackD2Ev to i8*), i8* bitcast (void (%"class.network::mojom::NetworkServiceTest_GetEnvironmentVariableValue_ForwardToCallback"*)* @_ZN7network5mojom64NetworkServiceTest_GetEnvironmentVariableValue_ForwardToCallbackD0Ev to i8*), i8* bitcast (i1 (%"class.mojo::MessageReceiver"*)* @_ZN4mojo15MessageReceiver25PrefersSerializedMessagesEv to i8*), i8* bitcast (i1 (%"class.network::mojom::NetworkServiceTest_GetEnvironmentVariableValue_ForwardToCallback"*, %"class.mojo::Message"*)* @_ZN7network5mojom64NetworkServiceTest_GetEnvironmentVariableValue_ForwardToCallback6AcceptEPN4mojo7MessageE to i8*)] }, align 8
@_ZTVN7network5mojom41NetworkServiceTest_Log_HandleSyncResponseE = hidden unnamed_addr constant { [6 x i8*] } { [6 x i8*] [i8* null, i8* null, i8* bitcast (void (%"class.mojo::MessageReceiver"*)* @_ZN4mojo15MessageReceiverD2Ev to i8*), i8* bitcast (void (%"class.network::mojom::NetworkServiceTest_Log_HandleSyncResponse"*)* @_ZN7network5mojom41NetworkServiceTest_Log_HandleSyncResponseD0Ev to i8*), i8* bitcast (i1 (%"class.mojo::MessageReceiver"*)* @_ZN4mojo15MessageReceiver25PrefersSerializedMessagesEv to i8*), i8* bitcast (i1 (%"class.network::mojom::NetworkServiceTest_Log_HandleSyncResponse"*, %"class.mojo::Message"*)* @_ZN7network5mojom41NetworkServiceTest_Log_HandleSyncResponse6AcceptEPN4mojo7MessageE to i8*)] }, align 8
@_ZTVN7network5mojom40NetworkServiceTest_Log_ForwardToCallbackE = hidden unnamed_addr constant { [6 x i8*] } { [6 x i8*] [i8* null, i8* null, i8* bitcast (void (%"class.network::mojom::NetworkServiceTest_Log_ForwardToCallback"*)* @_ZN7network5mojom40NetworkServiceTest_Log_ForwardToCallbackD2Ev to i8*), i8* bitcast (void (%"class.network::mojom::NetworkServiceTest_Log_ForwardToCallback"*)* @_ZN7network5mojom40NetworkServiceTest_Log_ForwardToCallbackD0Ev to i8*), i8* bitcast (i1 (%"class.mojo::MessageReceiver"*)* @_ZN4mojo15MessageReceiver25PrefersSerializedMessagesEv to i8*), i8* bitcast (i1 (%"class.network::mojom::NetworkServiceTest_Log_ForwardToCallback"*, %"class.mojo::Message"*)* @_ZN7network5mojom40NetworkServiceTest_Log_ForwardToCallback6AcceptEPN4mojo7MessageE to i8*)] }, align 8
@_ZTVN7network5mojom49NetworkServiceTest_SetEVPolicy_HandleSyncResponseE = hidden unnamed_addr constant { [6 x i8*] } { [6 x i8*] [i8* null, i8* null, i8* bitcast (void (%"class.mojo::MessageReceiver"*)* @_ZN4mojo15MessageReceiverD2Ev to i8*), i8* bitcast (void (%"class.network::mojom::NetworkServiceTest_SetEVPolicy_HandleSyncResponse"*)* @_ZN7network5mojom49NetworkServiceTest_SetEVPolicy_HandleSyncResponseD0Ev to i8*), i8* bitcast (i1 (%"class.mojo::MessageReceiver"*)* @_ZN4mojo15MessageReceiver25PrefersSerializedMessagesEv to i8*), i8* bitcast (i1 (%"class.network::mojom::NetworkServiceTest_SetEVPolicy_HandleSyncResponse"*, %"class.mojo::Message"*)* @_ZN7network5mojom49NetworkServiceTest_SetEVPolicy_HandleSyncResponse6AcceptEPN4mojo7MessageE to i8*)] }, align 8
@_ZTVN7network5mojom48NetworkServiceTest_SetEVPolicy_ForwardToCallbackE = hidden unnamed_addr constant { [6 x i8*] } { [6 x i8*] [i8* null, i8* null, i8* bitcast (void (%"class.network::mojom::NetworkServiceTest_SetEVPolicy_ForwardToCallback"*)* @_ZN7network5mojom48NetworkServiceTest_SetEVPolicy_ForwardToCallbackD2Ev to i8*), i8* bitcast (void (%"class.network::mojom::NetworkServiceTest_SetEVPolicy_ForwardToCallback"*)* @_ZN7network5mojom48NetworkServiceTest_SetEVPolicy_ForwardToCallbackD0Ev to i8*), i8* bitcast (i1 (%"class.mojo::MessageReceiver"*)* @_ZN4mojo15MessageReceiver25PrefersSerializedMessagesEv to i8*), i8* bitcast (i1 (%"class.network::mojom::NetworkServiceTest_SetEVPolicy_ForwardToCallback"*, %"class.mojo::Message"*)* @_ZN7network5mojom48NetworkServiceTest_SetEVPolicy_ForwardToCallback6AcceptEPN4mojo7MessageE to i8*)] }, align 8
@_ZTVN7network5mojom66NetworkServiceTest_GetFirstPartySetEntriesCount_HandleSyncResponseE = hidden unnamed_addr constant { [6 x i8*] } { [6 x i8*] [i8* null, i8* null, i8* bitcast (void (%"class.mojo::MessageReceiver"*)* @_ZN4mojo15MessageReceiverD2Ev to i8*), i8* bitcast (void (%"class.network::mojom::NetworkServiceTest_GetFirstPartySetEntriesCount_HandleSyncResponse"*)* @_ZN7network5mojom66NetworkServiceTest_GetFirstPartySetEntriesCount_HandleSyncResponseD0Ev to i8*), i8* bitcast (i1 (%"class.mojo::MessageReceiver"*)* @_ZN4mojo15MessageReceiver25PrefersSerializedMessagesEv to i8*), i8* bitcast (i1 (%"class.network::mojom::NetworkServiceTest_GetFirstPartySetEntriesCount_HandleSyncResponse"*, %"class.mojo::Message"*)* @_ZN7network5mojom66NetworkServiceTest_GetFirstPartySetEntriesCount_HandleSyncResponse6AcceptEPN4mojo7MessageE to i8*)] }, align 8
@_ZTVN7network5mojom65NetworkServiceTest_GetFirstPartySetEntriesCount_ForwardToCallbackE = hidden unnamed_addr constant { [6 x i8*] } { [6 x i8*] [i8* null, i8* null, i8* bitcast (void (%"class.network::mojom::NetworkServiceTest_GetFirstPartySetEntriesCount_ForwardToCallback"*)* @_ZN7network5mojom65NetworkServiceTest_GetFirstPartySetEntriesCount_ForwardToCallbackD2Ev to i8*), i8* bitcast (void (%"class.network::mojom::NetworkServiceTest_GetFirstPartySetEntriesCount_ForwardToCallback"*)* @_ZN7network5mojom65NetworkServiceTest_GetFirstPartySetEntriesCount_ForwardToCallbackD0Ev to i8*), i8* bitcast (i1 (%"class.mojo::MessageReceiver"*)* @_ZN4mojo15MessageReceiver25PrefersSerializedMessagesEv to i8*), i8* bitcast (i1 (%"class.network::mojom::NetworkServiceTest_GetFirstPartySetEntriesCount_ForwardToCallback"*, %"class.mojo::Message"*)* @_ZN7network5mojom65NetworkServiceTest_GetFirstPartySetEntriesCount_ForwardToCallback6AcceptEPN4mojo7MessageE to i8*)] }, align 8
@_ZTVN7network5mojom62NetworkServiceTest_SetSCTAuditingRetryDelay_HandleSyncResponseE = hidden unnamed_addr constant { [6 x i8*] } { [6 x i8*] [i8* null, i8* null, i8* bitcast (void (%"class.mojo::MessageReceiver"*)* @_ZN4mojo15MessageReceiverD2Ev to i8*), i8* bitcast (void (%"class.network::mojom::NetworkServiceTest_SetSCTAuditingRetryDelay_HandleSyncResponse"*)* @_ZN7network5mojom62NetworkServiceTest_SetSCTAuditingRetryDelay_HandleSyncResponseD0Ev to i8*), i8* bitcast (i1 (%"class.mojo::MessageReceiver"*)* @_ZN4mojo15MessageReceiver25PrefersSerializedMessagesEv to i8*), i8* bitcast (i1 (%"class.network::mojom::NetworkServiceTest_SetSCTAuditingRetryDelay_HandleSyncResponse"*, %"class.mojo::Message"*)* @_ZN7network5mojom62NetworkServiceTest_SetSCTAuditingRetryDelay_HandleSyncResponse6AcceptEPN4mojo7MessageE to i8*)] }, align 8
@_ZTVN7network5mojom61NetworkServiceTest_SetSCTAuditingRetryDelay_ForwardToCallbackE = hidden unnamed_addr constant { [6 x i8*] } { [6 x i8*] [i8* null, i8* null, i8* bitcast (void (%"class.network::mojom::NetworkServiceTest_SetSCTAuditingRetryDelay_ForwardToCallback"*)* @_ZN7network5mojom61NetworkServiceTest_SetSCTAuditingRetryDelay_ForwardToCallbackD2Ev to i8*), i8* bitcast (void (%"class.network::mojom::NetworkServiceTest_SetSCTAuditingRetryDelay_ForwardToCallback"*)* @_ZN7network5mojom61NetworkServiceTest_SetSCTAuditingRetryDelay_ForwardToCallbackD0Ev to i8*), i8* bitcast (i1 (%"class.mojo::MessageReceiver"*)* @_ZN4mojo15MessageReceiver25PrefersSerializedMessagesEv to i8*), i8* bitcast (i1 (%"class.network::mojom::NetworkServiceTest_SetSCTAuditingRetryDelay_ForwardToCallback"*, %"class.mojo::Message"*)* @_ZN7network5mojom61NetworkServiceTest_SetSCTAuditingRetryDelay_ForwardToCallback6AcceptEPN4mojo7MessageE to i8*)] }, align 8
@_ZTVN7network5mojom71NetworkServiceTest_GetSCTAuditingPendingReportsCount_HandleSyncResponseE = hidden unnamed_addr constant { [6 x i8*] } { [6 x i8*] [i8* null, i8* null, i8* bitcast (void (%"class.mojo::MessageReceiver"*)* @_ZN4mojo15MessageReceiverD2Ev to i8*), i8* bitcast (void (%"class.network::mojom::NetworkServiceTest_GetSCTAuditingPendingReportsCount_HandleSyncResponse"*)* @_ZN7network5mojom71NetworkServiceTest_GetSCTAuditingPendingReportsCount_HandleSyncResponseD0Ev to i8*), i8* bitcast (i1 (%"class.mojo::MessageReceiver"*)* @_ZN4mojo15MessageReceiver25PrefersSerializedMessagesEv to i8*), i8* bitcast (i1 (%"class.network::mojom::NetworkServiceTest_GetSCTAuditingPendingReportsCount_HandleSyncResponse"*, %"class.mojo::Message"*)* @_ZN7network5mojom71NetworkServiceTest_GetSCTAuditingPendingReportsCount_HandleSyncResponse6AcceptEPN4mojo7MessageE to i8*)] }, align 8
@_ZTVN7network5mojom70NetworkServiceTest_GetSCTAuditingPendingReportsCount_ForwardToCallbackE = hidden unnamed_addr constant { [6 x i8*] } { [6 x i8*] [i8* null, i8* null, i8* bitcast (void (%"class.network::mojom::NetworkServiceTest_GetSCTAuditingPendingReportsCount_ForwardToCallback"*)* @_ZN7network5mojom70NetworkServiceTest_GetSCTAuditingPendingReportsCount_ForwardToCallbackD2Ev to i8*), i8* bitcast (void (%"class.network::mojom::NetworkServiceTest_GetSCTAuditingPendingReportsCount_ForwardToCallback"*)* @_ZN7network5mojom70NetworkServiceTest_GetSCTAuditingPendingReportsCount_ForwardToCallbackD0Ev to i8*), i8* bitcast (i1 (%"class.mojo::MessageReceiver"*)* @_ZN4mojo15MessageReceiver25PrefersSerializedMessagesEv to i8*), i8* bitcast (i1 (%"class.network::mojom::NetworkServiceTest_GetSCTAuditingPendingReportsCount_ForwardToCallback"*, %"class.mojo::Message"*)* @_ZN7network5mojom70NetworkServiceTest_GetSCTAuditingPendingReportsCount_ForwardToCallback6AcceptEPN4mojo7MessageE to i8*)] }, align 8
@_ZTVN7network5mojom75NetworkServiceTest_SetSCTAuditingReportCompletionCallback_ForwardToCallbackE = hidden unnamed_addr constant { [6 x i8*] } { [6 x i8*] [i8* null, i8* null, i8* bitcast (void (%"class.network::mojom::NetworkServiceTest_SetSCTAuditingReportCompletionCallback_ForwardToCallback"*)* @_ZN7network5mojom75NetworkServiceTest_SetSCTAuditingReportCompletionCallback_ForwardToCallbackD2Ev to i8*), i8* bitcast (void (%"class.network::mojom::NetworkServiceTest_SetSCTAuditingReportCompletionCallback_ForwardToCallback"*)* @_ZN7network5mojom75NetworkServiceTest_SetSCTAuditingReportCompletionCallback_ForwardToCallbackD0Ev to i8*), i8* bitcast (i1 (%"class.mojo::MessageReceiver"*)* @_ZN4mojo15MessageReceiver25PrefersSerializedMessagesEv to i8*), i8* bitcast (i1 (%"class.network::mojom::NetworkServiceTest_SetSCTAuditingReportCompletionCallback_ForwardToCallback"*, %"class.mojo::Message"*)* @_ZN7network5mojom75NetworkServiceTest_SetSCTAuditingReportCompletionCallback_ForwardToCallback6AcceptEPN4mojo7MessageE to i8*)] }, align 8
@_ZTVN7network5mojom34NetworkServiceTestRequestValidatorE = hidden unnamed_addr constant { [6 x i8*] } { [6 x i8*] [i8* null, i8* null, i8* bitcast (void (%"class.mojo::MessageReceiver"*)* @_ZN4mojo15MessageReceiverD2Ev to i8*), i8* bitcast (void (%"class.network::mojom::NetworkServiceTestRequestValidator"*)* @_ZN7network5mojom34NetworkServiceTestRequestValidatorD0Ev to i8*), i8* bitcast (i1 (%"class.mojo::MessageReceiver"*)* @_ZN4mojo15MessageReceiver25PrefersSerializedMessagesEv to i8*), i8* bitcast (i1 (%"class.network::mojom::NetworkServiceTestRequestValidator"*, %"class.mojo::Message"*)* @_ZN7network5mojom34NetworkServiceTestRequestValidator6AcceptEPN4mojo7MessageE to i8*)] }, align 8
@_ZTVN7network5mojom35NetworkServiceTestResponseValidatorE = hidden unnamed_addr constant { [6 x i8*] } { [6 x i8*] [i8* null, i8* null, i8* bitcast (void (%"class.mojo::MessageReceiver"*)* @_ZN4mojo15MessageReceiverD2Ev to i8*), i8* bitcast (void (%"class.network::mojom::NetworkServiceTestResponseValidator"*)* @_ZN7network5mojom35NetworkServiceTestResponseValidatorD0Ev to i8*), i8* bitcast (i1 (%"class.mojo::MessageReceiver"*)* @_ZN4mojo15MessageReceiver25PrefersSerializedMessagesEv to i8*), i8* bitcast (i1 (%"class.network::mojom::NetworkServiceTestResponseValidator"*, %"class.mojo::Message"*)* @_ZN7network5mojom35NetworkServiceTestResponseValidator6AcceptEPN4mojo7MessageE to i8*)] }, align 8
@.str.26 = private unnamed_addr constant [41 x i8] c"sizeof(int32_t) >= pickle.payload_size()\00", align 1
@.str.27 = private unnamed_addr constant [63 x i8] c"../../mojo/public/cpp/bindings/lib/native_enum_serialization.h\00", align 1

@_ZN7network5mojom4RuleC1Ev = hidden unnamed_addr alias void (%"class.network::mojom::Rule"*), void (%"class.network::mojom::Rule"*)* @_ZN7network5mojom4RuleC2Ev
@_ZN7network5mojom4RuleC1ENS0_12ResolverTypeERKNSt3__112basic_stringIcNS3_11char_traitsIcEENS3_9allocatorIcEEEESB_iNS3_6vectorIS9_NS7_IS9_EEEE = hidden unnamed_addr alias void (%"class.network::mojom::Rule"*, i32, %"class.std::__1::basic_string"*, %"class.std::__1::basic_string"*, i32, %"class.std::__1::vector"*), void (%"class.network::mojom::Rule"*, i32, %"class.std::__1::basic_string"*, %"class.std::__1::basic_string"*, i32, %"class.std::__1::vector"*)* @_ZN7network5mojom4RuleC2ENS0_12ResolverTypeERKNSt3__112basic_stringIcNS3_11char_traitsIcEENS3_9allocatorIcEEEESB_iNS3_6vectorIS9_NS7_IS9_EEEE
@_ZN7network5mojom4RuleD1Ev = hidden unnamed_addr alias void (%"class.network::mojom::Rule"*), void (%"class.network::mojom::Rule"*)* @_ZN7network5mojom4RuleD2Ev
@_ZN7network5mojom23NetworkServiceTestProxyC1EPN4mojo28MessageReceiverWithResponderE = hidden unnamed_addr alias void (%"class.network::mojom::NetworkServiceTestProxy"*, %"class.mojo::MessageReceiverWithResponder"*), void (%"class.network::mojom::NetworkServiceTestProxy"*, %"class.mojo::MessageReceiverWithResponder"*)* @_ZN7network5mojom23NetworkServiceTestProxyC2EPN4mojo28MessageReceiverWithResponderE

; Function Attrs: nounwind ssp uwtable
define hidden void @_ZN7network5mojom4RuleC2Ev(%"class.network::mojom::Rule"* nocapture) unnamed_addr #0 align 2 {
  %2 = getelementptr inbounds %"class.network::mojom::Rule", %"class.network::mojom::Rule"* %0, i64 0, i32 0
  store i32 0, i32* %2, align 8
  %3 = getelementptr inbounds %"class.network::mojom::Rule", %"class.network::mojom::Rule"* %0, i64 0, i32 1
  %4 = getelementptr inbounds %"class.network::mojom::Rule", %"class.network::mojom::Rule"* %0, i64 0, i32 4
  %5 = bitcast %"class.std::__1::vector"* %4 to i8*
  tail call void @llvm.memset.p0i8.i64(i8* align 8 %5, i8 0, i64 24, i1 false) #11
  %6 = bitcast %"class.std::__1::basic_string"* %3 to i8*
  call void @llvm.memset.p0i8.i64(i8* align 8 %6, i8 0, i64 52, i1 false)
  ret void
}

; Function Attrs: nounwind ssp uwtable
define hidden void @_ZN7network5mojom4RuleC2ENS0_12ResolverTypeERKNSt3__112basic_stringIcNS3_11char_traitsIcEENS3_9allocatorIcEEEESB_iNS3_6vectorIS9_NS7_IS9_EEEE(%"class.network::mojom::Rule"*, i32, %"class.std::__1::basic_string"* nocapture readonly dereferenceable(24), %"class.std::__1::basic_string"* nocapture readonly dereferenceable(24), i32, %"class.std::__1::vector"* nocapture) unnamed_addr #0 align 2 {
  %7 = getelementptr inbounds %"class.network::mojom::Rule", %"class.network::mojom::Rule"* %0, i64 0, i32 0
  store i32 %1, i32* %7, align 8
  %8 = getelementptr inbounds %"class.network::mojom::Rule", %"class.network::mojom::Rule"* %0, i64 0, i32 1
  %9 = bitcast %"class.std::__1::basic_string"* %2 to %"struct.std::__1::basic_string<char, std::__1::char_traits<char>, std::__1::allocator<char> >::__short"*
  %10 = getelementptr inbounds %"struct.std::__1::basic_string<char, std::__1::char_traits<char>, std::__1::allocator<char> >::__short", %"struct.std::__1::basic_string<char, std::__1::char_traits<char>, std::__1::allocator<char> >::__short"* %9, i64 0, i32 1, i32 0
  %11 = load i8, i8* %10, align 1
  %12 = icmp slt i8 %11, 0
  br i1 %12, label %16, label %13

13:                                               ; preds = %6
  %14 = bitcast %"class.std::__1::basic_string"* %8 to i8*
  %15 = bitcast %"class.std::__1::basic_string"* %2 to i8*
  tail call void @llvm.memcpy.p0i8.p0i8.i64(i8* align 8 %14, i8* align 8 %15, i64 24, i1 false) #11
  br label %21

16:                                               ; preds = %6
  %17 = getelementptr inbounds %"class.std::__1::basic_string", %"class.std::__1::basic_string"* %2, i64 0, i32 0, i32 0, i32 0, i32 0, i32 0, i32 0
  %18 = load i8*, i8** %17, align 8
  %19 = getelementptr inbounds %"class.std::__1::basic_string", %"class.std::__1::basic_string"* %2, i64 0, i32 0, i32 0, i32 0, i32 0, i32 0, i32 1
  %20 = load i64, i64* %19, align 8
  tail call void @_ZNSt3__112basic_stringIcNS_11char_traitsIcEENS_9allocatorIcEEE25__init_copy_ctor_externalEPKcm(%"class.std::__1::basic_string"* %8, i8* %18, i64 %20) #11
  br label %21

21:                                               ; preds = %13, %16
  %22 = getelementptr inbounds %"class.network::mojom::Rule", %"class.network::mojom::Rule"* %0, i64 0, i32 2
  %23 = bitcast %"class.std::__1::basic_string"* %3 to %"struct.std::__1::basic_string<char, std::__1::char_traits<char>, std::__1::allocator<char> >::__short"*
  %24 = getelementptr inbounds %"struct.std::__1::basic_string<char, std::__1::char_traits<char>, std::__1::allocator<char> >::__short", %"struct.std::__1::basic_string<char, std::__1::char_traits<char>, std::__1::allocator<char> >::__short"* %23, i64 0, i32 1, i32 0
  %25 = load i8, i8* %24, align 1
  %26 = icmp slt i8 %25, 0
  br i1 %26, label %30, label %27

27:                                               ; preds = %21
  %28 = bitcast %"class.std::__1::basic_string"* %22 to i8*
  %29 = bitcast %"class.std::__1::basic_string"* %3 to i8*
  tail call void @llvm.memcpy.p0i8.p0i8.i64(i8* align 8 %28, i8* align 8 %29, i64 24, i1 false) #11
  br label %35

30:                                               ; preds = %21
  %31 = getelementptr inbounds %"class.std::__1::basic_string", %"class.std::__1::basic_string"* %3, i64 0, i32 0, i32 0, i32 0, i32 0, i32 0, i32 0
  %32 = load i8*, i8** %31, align 8
  %33 = getelementptr inbounds %"class.std::__1::basic_string", %"class.std::__1::basic_string"* %3, i64 0, i32 0, i32 0, i32 0, i32 0, i32 0, i32 1
  %34 = load i64, i64* %33, align 8
  tail call void @_ZNSt3__112basic_stringIcNS_11char_traitsIcEENS_9allocatorIcEEE25__init_copy_ctor_externalEPKcm(%"class.std::__1::basic_string"* %22, i8* %32, i64 %34) #11
  br label %35

35:                                               ; preds = %27, %30
  %36 = getelementptr inbounds %"class.network::mojom::Rule", %"class.network::mojom::Rule"* %0, i64 0, i32 3
  store i32 %4, i32* %36, align 8
  %37 = getelementptr inbounds %"class.network::mojom::Rule", %"class.network::mojom::Rule"* %0, i64 0, i32 4
  %38 = bitcast %"class.std::__1::vector"* %37 to i8*
  tail call void @llvm.memset.p0i8.i64(i8* align 8 %38, i8 0, i64 24, i1 false) #11
  %39 = bitcast %"class.std::__1::vector"* %5 to i64*
  %40 = load i64, i64* %39, align 8
  %41 = bitcast %"class.std::__1::vector"* %37 to i64*
  store i64 %40, i64* %41, align 8
  %42 = getelementptr inbounds %"class.std::__1::vector", %"class.std::__1::vector"* %5, i64 0, i32 0, i32 1
  %43 = bitcast %"class.std::__1::basic_string"** %42 to i64*
  %44 = load i64, i64* %43, align 8
  %45 = getelementptr inbounds %"class.network::mojom::Rule", %"class.network::mojom::Rule"* %0, i64 0, i32 4, i32 0, i32 1
  %46 = bitcast %"class.std::__1::basic_string"** %45 to i64*
  store i64 %44, i64* %46, align 8
  %47 = getelementptr inbounds %"class.std::__1::vector", %"class.std::__1::vector"* %5, i64 0, i32 0, i32 2, i32 0, i32 0
  %48 = bitcast %"class.std::__1::basic_string"** %47 to i64*
  %49 = load i64, i64* %48, align 8
  %50 = getelementptr inbounds %"class.network::mojom::Rule", %"class.network::mojom::Rule"* %0, i64 0, i32 4, i32 0, i32 2, i32 0, i32 0
  %51 = bitcast %"class.std::__1::basic_string"** %50 to i64*
  store i64 %49, i64* %51, align 8
  %52 = bitcast %"class.std::__1::vector"* %5 to i8*
  tail call void @llvm.memset.p0i8.i64(i8* align 8 %52, i8 0, i64 24, i1 false) #11
  ret void
}

; Function Attrs: nounwind ssp uwtable
define hidden void @_ZN7network5mojom4RuleD2Ev(%"class.network::mojom::Rule"* nocapture) unnamed_addr #0 align 2 {
  %2 = getelementptr inbounds %"class.network::mojom::Rule", %"class.network::mojom::Rule"* %0, i64 0, i32 4
  %3 = getelementptr inbounds %"class.std::__1::vector", %"class.std::__1::vector"* %2, i64 0, i32 0, i32 0
  %4 = load %"class.std::__1::basic_string"*, %"class.std::__1::basic_string"** %3, align 8
  %5 = icmp eq %"class.std::__1::basic_string"* %4, null
  br i1 %5, label %28, label %6

6:                                                ; preds = %1
  %7 = bitcast %"class.std::__1::basic_string"* %4 to i8*
  %8 = getelementptr inbounds %"class.network::mojom::Rule", %"class.network::mojom::Rule"* %0, i64 0, i32 4, i32 0, i32 1
  %9 = load %"class.std::__1::basic_string"*, %"class.std::__1::basic_string"** %8, align 8
  %10 = icmp eq %"class.std::__1::basic_string"* %9, %4
  br i1 %10, label %26, label %11

11:                                               ; preds = %6, %21
  %12 = phi %"class.std::__1::basic_string"* [ %13, %21 ], [ %9, %6 ]
  %13 = getelementptr inbounds %"class.std::__1::basic_string", %"class.std::__1::basic_string"* %12, i64 -1
  %14 = bitcast %"class.std::__1::basic_string"* %13 to %"struct.std::__1::basic_string<char, std::__1::char_traits<char>, std::__1::allocator<char> >::__short"*
  %15 = getelementptr inbounds %"struct.std::__1::basic_string<char, std::__1::char_traits<char>, std::__1::allocator<char> >::__short", %"struct.std::__1::basic_string<char, std::__1::char_traits<char>, std::__1::allocator<char> >::__short"* %14, i64 0, i32 1, i32 0
  %16 = load i8, i8* %15, align 1
  %17 = icmp slt i8 %16, 0
  br i1 %17, label %18, label %21

18:                                               ; preds = %11
  %19 = getelementptr inbounds %"class.std::__1::basic_string", %"class.std::__1::basic_string"* %13, i64 0, i32 0, i32 0, i32 0, i32 0, i32 0, i32 0
  %20 = load i8*, i8** %19, align 8
  tail call void @_ZdlPv(i8* %20) #12
  br label %21

21:                                               ; preds = %18, %11
  %22 = icmp eq %"class.std::__1::basic_string"* %13, %4
  br i1 %22, label %23, label %11

23:                                               ; preds = %21
  %24 = bitcast %"class.std::__1::vector"* %2 to i8**
  %25 = load i8*, i8** %24, align 8
  br label %26

26:                                               ; preds = %23, %6
  %27 = phi i8* [ %25, %23 ], [ %7, %6 ]
  store %"class.std::__1::basic_string"* %4, %"class.std::__1::basic_string"** %8, align 8
  tail call void @_ZdlPv(i8* %27) #12
  br label %28

28:                                               ; preds = %1, %26
  %29 = getelementptr inbounds %"class.network::mojom::Rule", %"class.network::mojom::Rule"* %0, i64 0, i32 2
  %30 = bitcast %"class.std::__1::basic_string"* %29 to %"struct.std::__1::basic_string<char, std::__1::char_traits<char>, std::__1::allocator<char> >::__short"*
  %31 = getelementptr inbounds %"struct.std::__1::basic_string<char, std::__1::char_traits<char>, std::__1::allocator<char> >::__short", %"struct.std::__1::basic_string<char, std::__1::char_traits<char>, std::__1::allocator<char> >::__short"* %30, i64 0, i32 1, i32 0
  %32 = load i8, i8* %31, align 1
  %33 = icmp slt i8 %32, 0
  br i1 %33, label %34, label %37

34:                                               ; preds = %28
  %35 = getelementptr inbounds %"class.std::__1::basic_string", %"class.std::__1::basic_string"* %29, i64 0, i32 0, i32 0, i32 0, i32 0, i32 0, i32 0
  %36 = load i8*, i8** %35, align 8
  tail call void @_ZdlPv(i8* %36) #12
  br label %37

37:                                               ; preds = %28, %34
  %38 = getelementptr inbounds %"class.network::mojom::Rule", %"class.network::mojom::Rule"* %0, i64 0, i32 1
  %39 = bitcast %"class.std::__1::basic_string"* %38 to %"struct.std::__1::basic_string<char, std::__1::char_traits<char>, std::__1::allocator<char> >::__short"*
  %40 = getelementptr inbounds %"struct.std::__1::basic_string<char, std::__1::char_traits<char>, std::__1::allocator<char> >::__short", %"struct.std::__1::basic_string<char, std::__1::char_traits<char>, std::__1::allocator<char> >::__short"* %39, i64 0, i32 1, i32 0
  %41 = load i8, i8* %40, align 1
  %42 = icmp slt i8 %41, 0
  br i1 %42, label %43, label %46

43:                                               ; preds = %37
  %44 = getelementptr inbounds %"class.std::__1::basic_string", %"class.std::__1::basic_string"* %38, i64 0, i32 0, i32 0, i32 0, i32 0, i32 0, i32 0
  %45 = load i8*, i8** %44, align 8
  tail call void @_ZdlPv(i8* %45) #12
  br label %46

46:                                               ; preds = %37, %43
  ret void
}

; Function Attrs: nounwind ssp uwtable
define hidden void @_ZNK7network5mojom4Rule14WriteIntoTraceEN8perfetto11TracedValueE(%"class.network::mojom::Rule"*, %"class.perfetto::TracedValue"*) local_unnamed_addr #0 align 2 {
  %3 = alloca %"class.perfetto::TracedValue", align 8
  %4 = alloca %"class.perfetto::TracedValue", align 8
  %5 = alloca %"class.perfetto::TracedValue", align 8
  %6 = alloca %"class.perfetto::TracedValue", align 8
  %7 = alloca %"class.perfetto::TracedValue", align 8
  %8 = alloca %"class.perfetto::TracedValue", align 8
  %9 = alloca %"class.perfetto::TracedArray", align 8
  %10 = alloca %"class.perfetto::TracedValue", align 8
  %11 = alloca %"class.perfetto::TracedDictionary", align 8
  %12 = alloca %"class.perfetto::TracedValue", align 8
  %13 = alloca %"class.perfetto::TracedValue", align 8
  %14 = alloca %"class.perfetto::TracedValue", align 8
  %15 = alloca %"class.perfetto::TracedValue", align 8
  %16 = alloca %"class.perfetto::TracedValue", align 8
  %17 = bitcast %"class.perfetto::TracedDictionary"* %11 to i8*
  call void @llvm.lifetime.start.p0i8(i64 16, i8* nonnull %17) #11
  %18 = bitcast %"class.perfetto::TracedDictionary"* %11 to i8*
  call void @llvm.memset.p0i8.i64(i8* nonnull align 8 %18, i8 -86, i64 16, i1 false)
  call void @_ZNO8perfetto11TracedValue15WriteDictionaryEv(%"class.perfetto::TracedDictionary"* nonnull sret %11, %"class.perfetto::TracedValue"* %1) #11
  call void @_ZN8perfetto16TracedDictionary7AddItemENS_12StaticStringE(%"class.perfetto::TracedValue"* nonnull sret %12, %"class.perfetto::TracedDictionary"* nonnull %11, i8* getelementptr inbounds ([14 x i8], [14 x i8]* @.str, i64 0, i64 0)) #11
  %19 = getelementptr inbounds %"class.network::mojom::Rule", %"class.network::mojom::Rule"* %0, i64 0, i32 0
  %20 = bitcast %"class.perfetto::TracedValue"* %12 to i8*
  %21 = bitcast %"class.perfetto::TracedValue"* %6 to i8*
  call void @llvm.lifetime.start.p0i8(i64 16, i8* nonnull %21) #11
  call void @llvm.memcpy.p0i8.p0i8.i64(i8* nonnull align 8 %21, i8* nonnull align 8 %20, i64 16, i1 false) #11
  %22 = load i32, i32* %19, align 4
  call void @_ZN8perfetto17TraceFormatTraitsIN7network5mojom12ResolverTypeEvE14WriteIntoTraceENS_11TracedValueES3_(%"class.perfetto::TracedValue"* nonnull %6, i32 %22) #11
  call void @llvm.lifetime.end.p0i8(i64 16, i8* nonnull %21) #11
  call void @_ZN8perfetto16TracedDictionary7AddItemENS_12StaticStringE(%"class.perfetto::TracedValue"* nonnull sret %13, %"class.perfetto::TracedDictionary"* nonnull %11, i8* getelementptr inbounds ([13 x i8], [13 x i8]* @.str.2, i64 0, i64 0)) #11
  %23 = getelementptr inbounds %"class.network::mojom::Rule", %"class.network::mojom::Rule"* %0, i64 0, i32 1
  %24 = bitcast %"class.perfetto::TracedValue"* %13 to i8*
  %25 = bitcast %"class.perfetto::TracedValue"* %5 to i8*
  call void @llvm.lifetime.start.p0i8(i64 16, i8* nonnull %25) #11
  call void @llvm.memcpy.p0i8.p0i8.i64(i8* nonnull align 8 %25, i8* nonnull align 8 %24, i64 16, i1 false) #11
  call void @_ZNO8perfetto11TracedValue11WriteStringERKNSt3__112basic_stringIcNS1_11char_traitsIcEENS1_9allocatorIcEEEE(%"class.perfetto::TracedValue"* nonnull %5, %"class.std::__1::basic_string"* dereferenceable(24) %23) #11
  call void @llvm.lifetime.end.p0i8(i64 16, i8* nonnull %25) #11
  call void @_ZN8perfetto16TracedDictionary7AddItemENS_12StaticStringE(%"class.perfetto::TracedValue"* nonnull sret %14, %"class.perfetto::TracedDictionary"* nonnull %11, i8* getelementptr inbounds ([12 x i8], [12 x i8]* @.str.3, i64 0, i64 0)) #11
  %26 = getelementptr inbounds %"class.network::mojom::Rule", %"class.network::mojom::Rule"* %0, i64 0, i32 2
  %27 = bitcast %"class.perfetto::TracedValue"* %14 to i8*
  %28 = bitcast %"class.perfetto::TracedValue"* %4 to i8*
  call void @llvm.lifetime.start.p0i8(i64 16, i8* nonnull %28) #11
  call void @llvm.memcpy.p0i8.p0i8.i64(i8* nonnull align 8 %28, i8* nonnull align 8 %27, i64 16, i1 false) #11
  call void @_ZNO8perfetto11TracedValue11WriteStringERKNSt3__112basic_stringIcNS1_11char_traitsIcEENS1_9allocatorIcEEEE(%"class.perfetto::TracedValue"* nonnull %4, %"class.std::__1::basic_string"* dereferenceable(24) %26) #11
  call void @llvm.lifetime.end.p0i8(i64 16, i8* nonnull %28) #11
  call void @_ZN8perfetto16TracedDictionary7AddItemENS_12StaticStringE(%"class.perfetto::TracedValue"* nonnull sret %15, %"class.perfetto::TracedDictionary"* nonnull %11, i8* getelementptr inbounds ([20 x i8], [20 x i8]* @.str.4, i64 0, i64 0)) #11
  %29 = getelementptr inbounds %"class.network::mojom::Rule", %"class.network::mojom::Rule"* %0, i64 0, i32 3
  %30 = bitcast %"class.perfetto::TracedValue"* %15 to i8*
  %31 = bitcast %"class.perfetto::TracedValue"* %3 to i8*
  call void @llvm.lifetime.start.p0i8(i64 16, i8* nonnull %31) #11
  call void @llvm.memcpy.p0i8.p0i8.i64(i8* nonnull align 8 %31, i8* nonnull align 8 %30, i64 16, i1 false) #11
  %32 = load i32, i32* %29, align 4
  %33 = sext i32 %32 to i64
  call void @_ZNO8perfetto11TracedValue10WriteInt64El(%"class.perfetto::TracedValue"* nonnull %3, i64 %33) #11
  call void @llvm.lifetime.end.p0i8(i64 16, i8* nonnull %31) #11
  call void @_ZN8perfetto16TracedDictionary7AddItemENS_12StaticStringE(%"class.perfetto::TracedValue"* nonnull sret %16, %"class.perfetto::TracedDictionary"* nonnull %11, i8* getelementptr inbounds ([12 x i8], [12 x i8]* @.str.5, i64 0, i64 0)) #11
  %34 = bitcast %"class.perfetto::TracedValue"* %16 to i8*
  %35 = bitcast %"class.perfetto::TracedValue"* %10 to i8*
  call void @llvm.lifetime.start.p0i8(i64 16, i8* nonnull %35) #11
  call void @llvm.memcpy.p0i8.p0i8.i64(i8* nonnull align 8 %35, i8* nonnull align 8 %34, i64 16, i1 false) #11
  %36 = bitcast %"class.perfetto::TracedArray"* %9 to i8*
  call void @llvm.lifetime.start.p0i8(i64 16, i8* nonnull %36) #11
  call void @llvm.memset.p0i8.i64(i8* nonnull align 8 %36, i8 -86, i64 16, i1 false) #11
  call void @_ZNO8perfetto11TracedValue10WriteArrayEv(%"class.perfetto::TracedArray"* nonnull sret %9, %"class.perfetto::TracedValue"* nonnull %10) #11
  %37 = getelementptr inbounds %"class.network::mojom::Rule", %"class.network::mojom::Rule"* %0, i64 0, i32 4, i32 0, i32 0
  %38 = load %"class.std::__1::basic_string"*, %"class.std::__1::basic_string"** %37, align 8
  %39 = getelementptr inbounds %"class.network::mojom::Rule", %"class.network::mojom::Rule"* %0, i64 0, i32 4, i32 0, i32 1
  %40 = load %"class.std::__1::basic_string"*, %"class.std::__1::basic_string"** %39, align 8
  %41 = icmp eq %"class.std::__1::basic_string"* %38, %40
  br i1 %41, label %49, label %42

42:                                               ; preds = %2
  %43 = bitcast %"class.perfetto::TracedValue"* %8 to i8*
  %44 = bitcast %"class.perfetto::TracedValue"* %7 to i8*
  br label %45

45:                                               ; preds = %45, %42
  %46 = phi %"class.std::__1::basic_string"* [ %38, %42 ], [ %47, %45 ]
  call void @llvm.lifetime.start.p0i8(i64 16, i8* nonnull %43) #11
  call void @_ZN8perfetto11TracedArray10AppendItemEv(%"class.perfetto::TracedValue"* nonnull sret %8, %"class.perfetto::TracedArray"* nonnull %9) #11
  call void @llvm.lifetime.start.p0i8(i64 16, i8* nonnull %44) #11
  call void @llvm.memcpy.p0i8.p0i8.i64(i8* nonnull align 8 %44, i8* nonnull align 8 %43, i64 16, i1 false) #11
  call void @_ZNO8perfetto11TracedValue11WriteStringERKNSt3__112basic_stringIcNS1_11char_traitsIcEENS1_9allocatorIcEEEE(%"class.perfetto::TracedValue"* nonnull %7, %"class.std::__1::basic_string"* dereferenceable(24) %46) #11
  call void @llvm.lifetime.end.p0i8(i64 16, i8* nonnull %44) #11
  call void @llvm.lifetime.end.p0i8(i64 16, i8* nonnull %43) #11
  %47 = getelementptr inbounds %"class.std::__1::basic_string", %"class.std::__1::basic_string"* %46, i64 1
  %48 = icmp eq %"class.std::__1::basic_string"* %47, %40
  br i1 %48, label %49, label %45

49:                                               ; preds = %45, %2
  call void @llvm.lifetime.end.p0i8(i64 16, i8* nonnull %36) #11
  call void @llvm.lifetime.end.p0i8(i64 16, i8* nonnull %35) #11
  call void @llvm.lifetime.end.p0i8(i64 16, i8* nonnull %17) #11
  ret void
}

; Function Attrs: argmemonly nounwind
declare void @llvm.lifetime.start.p0i8(i64 immarg, i8* nocapture) #1

declare void @_ZNO8perfetto11TracedValue15WriteDictionaryEv(%"class.perfetto::TracedDictionary"* sret, %"class.perfetto::TracedValue"*) local_unnamed_addr #2

declare void @_ZN8perfetto16TracedDictionary7AddItemENS_12StaticStringE(%"class.perfetto::TracedValue"* sret, %"class.perfetto::TracedDictionary"*, i8*) local_unnamed_addr #2

; Function Attrs: argmemonly nounwind
declare void @llvm.lifetime.end.p0i8(i64 immarg, i8* nocapture) #1

; Function Attrs: nounwind ssp uwtable
define hidden zeroext i1 @_ZN7network5mojom4Rule8ValidateEPKvPN4mojo8internal17ValidationContextE(i8*, %"class.mojo::internal::ValidationContext"*) local_unnamed_addr #0 align 2 {
  %3 = tail call zeroext i1 @_ZN7network5mojom8internal9Rule_Data8ValidateEPKvPN4mojo8internal17ValidationContextE(i8* %0, %"class.mojo::internal::ValidationContext"* %1) #11
  ret i1 %3
}

declare zeroext i1 @_ZN7network5mojom8internal9Rule_Data8ValidateEPKvPN4mojo8internal17ValidationContextE(i8*, %"class.mojo::internal::ValidationContext"*) local_unnamed_addr #2

; Function Attrs: norecurse nounwind readnone ssp uwtable
define hidden zeroext i1 @_ZN7network5mojom18NetworkServiceTest8AddRulesENSt3__16vectorIN4mojo9StructPtrINS0_4RuleEEENS2_9allocatorIS7_EEEE(%"class.network::mojom::NetworkServiceTest"* nocapture readnone, %"class.std::__1::vector.37"* nocapture readnone) unnamed_addr #3 align 2 {
  ret i1 false
}

; Function Attrs: norecurse nounwind readnone ssp uwtable
define hidden zeroext i1 @_ZN7network5mojom18NetworkServiceTest32MockCertVerifierSetDefaultResultEi(%"class.network::mojom::NetworkServiceTest"* nocapture readnone, i32) unnamed_addr #3 align 2 {
  ret i1 false
}

; Function Attrs: norecurse nounwind readnone ssp uwtable
define hidden zeroext i1 @_ZN7network5mojom18NetworkServiceTest39MockCertVerifierAddResultForCertAndHostERK13scoped_refptrIN3net15X509CertificateEERKNSt3__112basic_stringIcNS8_11char_traitsIcEENS8_9allocatorIcEEEERKNS3_16CertVerifyResultEi(%"class.network::mojom::NetworkServiceTest"* nocapture readnone, %class.scoped_refptr.47* nocapture readnone dereferenceable(8), %"class.std::__1::basic_string"* nocapture readnone dereferenceable(24), %"class.net::CertVerifyResult"* nocapture readnone dereferenceable(136), i32) unnamed_addr #3 align 2 {
  ret i1 false
}

; Function Attrs: norecurse nounwind readnone ssp uwtable
define hidden zeroext i1 @_ZN7network5mojom18NetworkServiceTest12SetRequireCTENS0_28NetworkServiceTest_RequireCTE(%"class.network::mojom::NetworkServiceTest"* nocapture readnone, i32) unnamed_addr #3 align 2 {
  ret i1 false
}

; Function Attrs: norecurse nounwind readnone ssp uwtable
define hidden zeroext i1 @_ZN7network5mojom18NetworkServiceTest31SetTransportSecurityStateSourceEt(%"class.network::mojom::NetworkServiceTest"* nocapture readnone, i16 zeroext) unnamed_addr #3 align 2 {
  ret i1 false
}

; Function Attrs: norecurse nounwind readnone ssp uwtable
define hidden zeroext i1 @_ZN7network5mojom18NetworkServiceTest38SetAllowNetworkAccessToHostResolutionsEv(%"class.network::mojom::NetworkServiceTest"* nocapture readnone) unnamed_addr #3 align 2 {
  ret i1 false
}

; Function Attrs: norecurse nounwind readnone ssp uwtable
define hidden zeroext i1 @_ZN7network5mojom18NetworkServiceTest28GetLatestMemoryPressureLevelEPN4base22MemoryPressureListener19MemoryPressureLevelE(%"class.network::mojom::NetworkServiceTest"* nocapture readnone, i32* nocapture readnone) unnamed_addr #3 align 2 {
  ret i1 false
}

; Function Attrs: norecurse nounwind readnone ssp uwtable
define hidden zeroext i1 @_ZN7network5mojom18NetworkServiceTest35GetPeerToPeerConnectionsCountChangeEPj(%"class.network::mojom::NetworkServiceTest"* nocapture readnone, i32* nocapture readnone) unnamed_addr #3 align 2 {
  ret i1 false
}

; Function Attrs: norecurse nounwind readnone ssp uwtable
define hidden zeroext i1 @_ZN7network5mojom18NetworkServiceTest27GetEnvironmentVariableValueERKNSt3__112basic_stringIcNS2_11char_traitsIcEENS2_9allocatorIcEEEEPS8_(%"class.network::mojom::NetworkServiceTest"* nocapture readnone, %"class.std::__1::basic_string"* nocapture readnone dereferenceable(24), %"class.std::__1::basic_string"* nocapture readnone) unnamed_addr #3 align 2 {
  ret i1 false
}

; Function Attrs: norecurse nounwind readnone ssp uwtable
define hidden zeroext i1 @_ZN7network5mojom18NetworkServiceTest3LogERKNSt3__112basic_stringIcNS2_11char_traitsIcEENS2_9allocatorIcEEEE(%"class.network::mojom::NetworkServiceTest"* nocapture readnone, %"class.std::__1::basic_string"* nocapture readnone dereferenceable(24)) unnamed_addr #3 align 2 {
  ret i1 false
}

; Function Attrs: norecurse nounwind readnone ssp uwtable
define hidden zeroext i1 @_ZN7network5mojom18NetworkServiceTest11SetEVPolicyERKNSt3__16vectorIhNS2_9allocatorIhEEEERKNS2_12basic_stringIcNS2_11char_traitsIcEENS4_IcEEEE(%"class.network::mojom::NetworkServiceTest"* nocapture readnone, %"class.std::__1::vector.84"* nocapture readnone dereferenceable(24), %"class.std::__1::basic_string"* nocapture readnone dereferenceable(24)) unnamed_addr #3 align 2 {
  ret i1 false
}

; Function Attrs: norecurse nounwind readnone ssp uwtable
define hidden zeroext i1 @_ZN7network5mojom18NetworkServiceTest28GetFirstPartySetEntriesCountEPl(%"class.network::mojom::NetworkServiceTest"* nocapture readnone, i64* nocapture readnone) unnamed_addr #3 align 2 {
  ret i1 false
}

; Function Attrs: norecurse nounwind readnone ssp uwtable
define hidden zeroext i1 @_ZN7network5mojom18NetworkServiceTest24SetSCTAuditingRetryDelayEN4absl8optionalIN4base9TimeDeltaEEE(%"class.network::mojom::NetworkServiceTest"* nocapture readnone, i8, i64) unnamed_addr #3 align 2 {
  ret i1 false
}

; Function Attrs: norecurse nounwind readnone ssp uwtable
define hidden zeroext i1 @_ZN7network5mojom18NetworkServiceTest33GetSCTAuditingPendingReportsCountEPm(%"class.network::mojom::NetworkServiceTest"* nocapture readnone, i64* nocapture readnone) unnamed_addr #3 align 2 {
  ret i1 false
}

; Function Attrs: nofree norecurse nounwind ssp uwtable writeonly
define hidden void @_ZN7network5mojom23NetworkServiceTestProxyC2EPN4mojo28MessageReceiverWithResponderE(%"class.network::mojom::NetworkServiceTestProxy"* nocapture, %"class.mojo::MessageReceiverWithResponder"*) unnamed_addr #4 align 2 {
  %3 = getelementptr inbounds %"class.network::mojom::NetworkServiceTestProxy", %"class.network::mojom::NetworkServiceTestProxy"* %0, i64 0, i32 0, i32 0
  store i32 (...)** bitcast (i8** getelementptr inbounds ({ [39 x i8*] }, { [39 x i8*] }* @_ZTVN7network5mojom23NetworkServiceTestProxyE, i64 0, inrange i32 0, i64 2) to i32 (...)**), i32 (...)*** %3, align 8
  %4 = getelementptr inbounds %"class.network::mojom::NetworkServiceTestProxy", %"class.network::mojom::NetworkServiceTestProxy"* %0, i64 0, i32 1
  store %"class.mojo::MessageReceiverWithResponder"* %1, %"class.mojo::MessageReceiverWithResponder"** %4, align 8
  ret void
}

; Function Attrs: nounwind ssp uwtable
define hidden zeroext i1 @_ZN7network5mojom23NetworkServiceTestProxy8AddRulesENSt3__16vectorIN4mojo9StructPtrINS0_4RuleEEENS2_9allocatorIS7_EEEE(%"class.network::mojom::NetworkServiceTestProxy"* nocapture readonly, %"class.std::__1::vector.37"* nocapture readonly) unnamed_addr #0 align 2 {
  %3 = alloca %"class.mojo::internal::MessageFragment.348", align 8
  %4 = alloca %"class.mojo::Message", align 8
  %5 = alloca %"class.mojo::internal::ContainerValidateParams", align 8
  %6 = alloca i8, align 1
  %7 = bitcast %"class.mojo::Message"* %4 to i8*
  call void @llvm.lifetime.start.p0i8(i64 120, i8* nonnull %7) #11
  call void @llvm.memset.p0i8.i64(i8* nonnull align 8 %7, i8 -86, i64 120, i1 false)
  call void @_ZN4mojo7MessageC1EjjmmPNSt3__16vectorINS_16ScopedHandleBaseINS_6HandleEEENS1_9allocatorIS5_EEEE(%"class.mojo::Message"* nonnull %4, i32 1842504132, i32 5, i64 0, i64 0, %"class.std::__1::vector.11"* null) #11
  %8 = getelementptr inbounds %"class.mojo::Message", %"class.mojo::Message"* %4, i64 0, i32 1
  %9 = call i64 @_ZN4mojo8internal6Buffer8AllocateEm(%"class.mojo::internal::Buffer"* %8, i64 16) #11
  %10 = getelementptr inbounds %"class.mojo::Message", %"class.mojo::Message"* %4, i64 0, i32 1, i32 2
  %11 = load i8*, i8** %10, align 8
  %12 = getelementptr inbounds i8, i8* %11, i64 %9
  %13 = bitcast i8* %12 to %"class.network::mojom::internal::NetworkServiceTest_AddRules_Params_Data"*
  call void @_ZN7network5mojom8internal39NetworkServiceTest_AddRules_Params_DataC1Ev(%"class.network::mojom::internal::NetworkServiceTest_AddRules_Params_Data"* %13) #11
  %14 = ptrtoint %"class.mojo::Message"* %4 to i64
  %15 = bitcast %"class.mojo::internal::ContainerValidateParams"* %5 to i8*
  call void @llvm.lifetime.start.p0i8(i64 32, i8* nonnull %15) #11
  %16 = bitcast %"class.mojo::internal::ContainerValidateParams"* %5 to i64*
  store i64 -6148914691236517206, i64* %16, align 8
  %17 = getelementptr inbounds %"class.mojo::internal::ContainerValidateParams", %"class.mojo::internal::ContainerValidateParams"* %5, i64 0, i32 0
  store i32 0, i32* %17, align 8
  %18 = getelementptr inbounds %"class.mojo::internal::ContainerValidateParams", %"class.mojo::internal::ContainerValidateParams"* %5, i64 0, i32 1
  store i8 0, i8* %18, align 4
  %19 = getelementptr inbounds %"class.mojo::internal::ContainerValidateParams", %"class.mojo::internal::ContainerValidateParams"* %5, i64 0, i32 2
  %20 = getelementptr inbounds %"class.std::__1::vector.37", %"class.std::__1::vector.37"* %1, i64 0, i32 0, i32 1
  %21 = bitcast %"class.mojo::StructPtr"** %20 to i64*
  %22 = bitcast %"class.mojo::internal::ContainerValidateParams"** %19 to i8*
  call void @llvm.memset.p0i8.i64(i8* align 8 %22, i8 0, i64 24, i1 false)
  %23 = load i64, i64* %21, align 8
  %24 = bitcast %"class.std::__1::vector.37"* %1 to i64*
  %25 = load i64, i64* %24, align 8
  %26 = sub i64 %23, %25
  %27 = ashr exact i64 %26, 3
  %28 = icmp ugt i64 %27, 536870910
  br i1 %28, label %45, label %29

29:                                               ; preds = %2
  %30 = trunc i64 %27 to i32
  %31 = trunc i64 %26 to i32
  %32 = add i32 %31, 8
  %33 = and i32 %32, -8
  %34 = zext i32 %33 to i64
  %35 = call i64 @_ZN4mojo8internal6Buffer8AllocateEm(%"class.mojo::internal::Buffer"* %8, i64 %34) #11
  %36 = load i8*, i8** %10, align 8
  %37 = getelementptr inbounds i8, i8* %36, i64 %35
  %38 = bitcast i8* %37 to i32*
  store i32 %33, i32* %38, align 1
  %39 = getelementptr inbounds i8, i8* %37, i64 4
  %40 = bitcast i8* %39 to i32*
  store i32 %30, i32* %40, align 1
  %41 = load i64, i64* %21, align 8
  %42 = load i64, i64* %24, align 8
  %43 = sub i64 %41, %42
  %44 = ashr exact i64 %43, 3
  br label %45

45:                                               ; preds = %29, %2
  %46 = phi i64 [ -1, %2 ], [ %35, %29 ]
  %47 = phi i64 [ %27, %2 ], [ %44, %29 ]
  %48 = phi i64 [ %26, %2 ], [ %43, %29 ]
  %49 = phi i64 [ %25, %2 ], [ %42, %29 ]
  %50 = icmp eq i64 %48, 0
  br i1 %50, label %87, label %51

51:                                               ; preds = %45
  %52 = inttoptr i64 %49 to %"class.mojo::StructPtr"*
  %53 = bitcast %"class.mojo::internal::MessageFragment.348"* %3 to i8*
  %54 = getelementptr inbounds %"class.mojo::internal::MessageFragment.348", %"class.mojo::internal::MessageFragment.348"* %3, i64 0, i32 0
  %55 = getelementptr inbounds %"class.mojo::internal::MessageFragment.348", %"class.mojo::internal::MessageFragment.348"* %3, i64 0, i32 1
  %56 = bitcast %"class.mojo::internal::MessageFragment.348"* %3 to i64*
  %57 = getelementptr inbounds %"class.std::__1::vector.37", %"class.std::__1::vector.37"* %1, i64 0, i32 0, i32 0
  br label %58

58:                                               ; preds = %85, %51
  %59 = phi %"class.mojo::StructPtr"* [ %52, %51 ], [ %86, %85 ]
  %60 = phi i64 [ 0, %51 ], [ %61, %85 ]
  call void @llvm.lifetime.start.p0i8(i64 16, i8* nonnull %53) #11
  store i64 %14, i64* %56, align 8
  store i64 -1, i64* %55, align 8
  %61 = add nuw i64 %60, 1
  %62 = getelementptr inbounds %"class.mojo::StructPtr", %"class.mojo::StructPtr"* %59, i64 %60
  call void @_ZN4mojo8internal10SerializerIN7network5mojom12RuleDataViewENS_9StructPtrINS3_4RuleEEEE9SerializeERS7_RNS0_15MessageFragmentINS3_8internal9Rule_DataEEE(%"class.mojo::StructPtr"* dereferenceable(8) %62, %"class.mojo::internal::MessageFragment.348"* nonnull dereferenceable(16) %3) #11
  %63 = load i8*, i8** %10, align 8
  %64 = getelementptr inbounds i8, i8* %63, i64 8
  %65 = getelementptr inbounds i8, i8* %64, i64 %46
  %66 = bitcast i8* %65 to %"class.mojo::internal::Array_Data"*
  %67 = getelementptr inbounds %"class.mojo::internal::Array_Data", %"class.mojo::internal::Array_Data"* %66, i64 %60
  %68 = load i64, i64* %55, align 8
  %69 = icmp eq i64 %68, -1
  br i1 %69, label %76, label %70

70:                                               ; preds = %58
  %71 = load %"class.mojo::Message"*, %"class.mojo::Message"** %54, align 8
  %72 = getelementptr inbounds %"class.mojo::Message", %"class.mojo::Message"* %71, i64 0, i32 1, i32 2
  %73 = load i8*, i8** %72, align 8
  %74 = getelementptr inbounds i8, i8* %73, i64 %68
  %75 = bitcast i8* %74 to %"class.network::mojom::internal::Rule_Data"*
  br label %76

76:                                               ; preds = %70, %58
  %77 = phi %"class.network::mojom::internal::Rule_Data"* [ %75, %70 ], [ null, %58 ]
  %78 = bitcast %"class.mojo::internal::Array_Data"* %67 to i64*
  %79 = icmp eq %"class.network::mojom::internal::Rule_Data"* %77, null
  %80 = ptrtoint %"class.network::mojom::internal::Rule_Data"* %77 to i64
  %81 = ptrtoint %"class.mojo::internal::Array_Data"* %67 to i64
  %82 = sub i64 %80, %81
  %83 = select i1 %79, i64 0, i64 %82
  store i64 %83, i64* %78, align 8
  call void @llvm.lifetime.end.p0i8(i64 16, i8* nonnull %53) #11
  %84 = icmp ult i64 %61, %47
  br i1 %84, label %85, label %87

85:                                               ; preds = %76
  %86 = load %"class.mojo::StructPtr"*, %"class.mojo::StructPtr"** %57, align 8
  br label %58

87:                                               ; preds = %76, %45
  %88 = load i8*, i8** %10, align 8
  %89 = getelementptr inbounds i8, i8* %88, i64 %9
  %90 = getelementptr inbounds i8, i8* %89, i64 8
  %91 = icmp eq i64 %46, -1
  %92 = getelementptr inbounds i8, i8* %88, i64 %46
  %93 = bitcast i8* %92 to %"class.mojo::internal::Array_Data"*
  %94 = select i1 %91, %"class.mojo::internal::Array_Data"* null, %"class.mojo::internal::Array_Data"* %93
  %95 = bitcast i8* %90 to i64*
  %96 = icmp eq %"class.mojo::internal::Array_Data"* %94, null
  %97 = ptrtoint %"class.mojo::internal::Array_Data"* %94 to i64
  %98 = ptrtoint i8* %90 to i64
  %99 = sub i64 %97, %98
  %100 = select i1 %96, i64 0, i64 %99
  store i64 %100, i64* %95, align 8
  call void @llvm.lifetime.start.p0i8(i64 1, i8* nonnull %6) #11
  store i8 0, i8* %6, align 1
  %101 = call i8* @_Znwm(i64 16) #12
  %102 = bitcast i8* %101 to i32 (...)***
  store i32 (...)** bitcast (i8** getelementptr inbounds ({ [6 x i8*] }, { [6 x i8*] }* @_ZTVN7network5mojom46NetworkServiceTest_AddRules_HandleSyncResponseE, i64 0, inrange i32 0, i64 2) to i32 (...)**), i32 (...)*** %102, align 8
  %103 = getelementptr inbounds i8, i8* %101, i64 8
  %104 = bitcast i8* %103 to i8**
  store i8* %6, i8** %104, align 8
  %105 = bitcast i8* %101 to %"class.mojo::MessageReceiver"*
  %106 = getelementptr inbounds %"class.network::mojom::NetworkServiceTestProxy", %"class.network::mojom::NetworkServiceTestProxy"* %0, i64 0, i32 1
  %107 = load %"class.mojo::MessageReceiverWithResponder"*, %"class.mojo::MessageReceiverWithResponder"** %106, align 8
  %108 = bitcast %"class.mojo::MessageReceiverWithResponder"* %107 to i1 (%"class.mojo::MessageReceiverWithResponder"*, %"class.mojo::Message"*, %"class.mojo::MessageReceiver"*)***
  %109 = load i1 (%"class.mojo::MessageReceiverWithResponder"*, %"class.mojo::Message"*, %"class.mojo::MessageReceiver"*)**, i1 (%"class.mojo::MessageReceiverWithResponder"*, %"class.mojo::Message"*, %"class.mojo::MessageReceiver"*)*** %108, align 8
  %110 = getelementptr inbounds i1 (%"class.mojo::MessageReceiverWithResponder"*, %"class.mojo::Message"*, %"class.mojo::MessageReceiver"*)*, i1 (%"class.mojo::MessageReceiverWithResponder"*, %"class.mojo::Message"*, %"class.mojo::MessageReceiver"*)** %109, i64 4
  %111 = load i1 (%"class.mojo::MessageReceiverWithResponder"*, %"class.mojo::Message"*, %"class.mojo::MessageReceiver"*)*, i1 (%"class.mojo::MessageReceiverWithResponder"*, %"class.mojo::Message"*, %"class.mojo::MessageReceiver"*)** %110, align 8
  %112 = call zeroext i1 %111(%"class.mojo::MessageReceiverWithResponder"* %107, %"class.mojo::Message"* nonnull %4, %"class.mojo::MessageReceiver"* nonnull %105) #11
  %113 = load i8, i8* %6, align 1, !range !2
  %114 = icmp ne i8 %113, 0
  call void @llvm.lifetime.end.p0i8(i64 1, i8* nonnull %6) #11
  call void @_ZN4mojo8internal23ContainerValidateParamsD2Ev(%"class.mojo::internal::ContainerValidateParams"* nonnull %5) #11
  call void @llvm.lifetime.end.p0i8(i64 32, i8* nonnull %15) #11
  call void @_ZN4mojo7MessageD1Ev(%"class.mojo::Message"* nonnull %4) #11
  call void @llvm.lifetime.end.p0i8(i64 120, i8* nonnull %7) #11
  ret i1 %114
}

; Function Attrs: argmemonly nounwind
declare void @llvm.memset.p0i8.i64(i8* nocapture writeonly, i8, i64, i1 immarg) #1

declare void @_ZN4mojo7MessageC1EjjmmPNSt3__16vectorINS_16ScopedHandleBaseINS_6HandleEEENS1_9allocatorIS5_EEEE(%"class.mojo::Message"*, i32, i32, i64, i64, %"class.std::__1::vector.11"*) unnamed_addr #2

; Function Attrs: argmemonly nounwind
declare void @llvm.memcpy.p0i8.p0i8.i64(i8* nocapture writeonly, i8* nocapture readonly, i64, i1 immarg) #1

; Function Attrs: nobuiltin nofree
declare noalias nonnull i8* @_Znwm(i64) local_unnamed_addr #5

; Function Attrs: nounwind ssp uwtable
define linkonce_odr hidden void @_ZN4mojo8internal23ContainerValidateParamsD2Ev(%"class.mojo::internal::ContainerValidateParams"*) unnamed_addr #0 comdat align 2 {
  %2 = getelementptr inbounds %"class.mojo::internal::ContainerValidateParams", %"class.mojo::internal::ContainerValidateParams"* %0, i64 0, i32 3
  %3 = load %"class.mojo::internal::ContainerValidateParams"*, %"class.mojo::internal::ContainerValidateParams"** %2, align 8
  %4 = icmp eq %"class.mojo::internal::ContainerValidateParams"* %3, null
  br i1 %4, label %7, label %5

5:                                                ; preds = %1
  tail call void @_ZN4mojo8internal23ContainerValidateParamsD2Ev(%"class.mojo::internal::ContainerValidateParams"* nonnull %3) #11
  %6 = bitcast %"class.mojo::internal::ContainerValidateParams"* %3 to i8*
  tail call void @_ZdlPv(i8* %6) #12
  br label %7

7:                                                ; preds = %1, %5
  %8 = getelementptr inbounds %"class.mojo::internal::ContainerValidateParams", %"class.mojo::internal::ContainerValidateParams"* %0, i64 0, i32 2
  %9 = load %"class.mojo::internal::ContainerValidateParams"*, %"class.mojo::internal::ContainerValidateParams"** %8, align 8
  %10 = icmp eq %"class.mojo::internal::ContainerValidateParams"* %9, null
  br i1 %10, label %13, label %11

11:                                               ; preds = %7
  tail call void @_ZN4mojo8internal23ContainerValidateParamsD2Ev(%"class.mojo::internal::ContainerValidateParams"* nonnull %9) #11
  %12 = bitcast %"class.mojo::internal::ContainerValidateParams"* %9 to i8*
  tail call void @_ZdlPv(i8* %12) #12
  ret void

13:                                               ; preds = %7
  ret void
}

; Function Attrs: nounwind
declare void @_ZN4mojo7MessageD1Ev(%"class.mojo::Message"*) unnamed_addr #6

; Function Attrs: nounwind ssp uwtable
define hidden void @_ZN7network5mojom23NetworkServiceTestProxy8AddRulesENSt3__16vectorIN4mojo9StructPtrINS0_4RuleEEENS2_9allocatorIS7_EEEEN4base12OnceCallbackIFvvEEE(%"class.network::mojom::NetworkServiceTestProxy"* nocapture readonly, %"class.std::__1::vector.37"* nocapture readonly, %"class.base::OnceCallback"* nocapture) unnamed_addr #0 align 2 {
  %4 = alloca %"class.mojo::internal::MessageFragment.348", align 8
  %5 = alloca %"class.mojo::Message", align 8
  %6 = alloca %"class.mojo::internal::ContainerValidateParams", align 8
  %7 = alloca %"class.base::OnceCallback", align 8
  %8 = bitcast %"class.mojo::Message"* %5 to i8*
  call void @llvm.lifetime.start.p0i8(i64 120, i8* nonnull %8) #11
  call void @llvm.memset.p0i8.i64(i8* nonnull align 8 %8, i8 -86, i64 120, i1 false)
  call void @_ZN4mojo7MessageC1EjjmmPNSt3__16vectorINS_16ScopedHandleBaseINS_6HandleEEENS1_9allocatorIS5_EEEE(%"class.mojo::Message"* nonnull %5, i32 1842504132, i32 1, i64 0, i64 0, %"class.std::__1::vector.11"* null) #11
  %9 = getelementptr inbounds %"class.mojo::Message", %"class.mojo::Message"* %5, i64 0, i32 1
  %10 = call i64 @_ZN4mojo8internal6Buffer8AllocateEm(%"class.mojo::internal::Buffer"* %9, i64 16) #11
  %11 = getelementptr inbounds %"class.mojo::Message", %"class.mojo::Message"* %5, i64 0, i32 1, i32 2
  %12 = load i8*, i8** %11, align 8
  %13 = getelementptr inbounds i8, i8* %12, i64 %10
  %14 = bitcast i8* %13 to %"class.network::mojom::internal::NetworkServiceTest_AddRules_Params_Data"*
  call void @_ZN7network5mojom8internal39NetworkServiceTest_AddRules_Params_DataC1Ev(%"class.network::mojom::internal::NetworkServiceTest_AddRules_Params_Data"* %14) #11
  %15 = ptrtoint %"class.mojo::Message"* %5 to i64
  %16 = bitcast %"class.mojo::internal::ContainerValidateParams"* %6 to i8*
  call void @llvm.lifetime.start.p0i8(i64 32, i8* nonnull %16) #11
  %17 = bitcast %"class.mojo::internal::ContainerValidateParams"* %6 to i64*
  store i64 -6148914691236517206, i64* %17, align 8
  %18 = getelementptr inbounds %"class.mojo::internal::ContainerValidateParams", %"class.mojo::internal::ContainerValidateParams"* %6, i64 0, i32 0
  store i32 0, i32* %18, align 8
  %19 = getelementptr inbounds %"class.mojo::internal::ContainerValidateParams", %"class.mojo::internal::ContainerValidateParams"* %6, i64 0, i32 1
  store i8 0, i8* %19, align 4
  %20 = getelementptr inbounds %"class.mojo::internal::ContainerValidateParams", %"class.mojo::internal::ContainerValidateParams"* %6, i64 0, i32 2
  %21 = getelementptr inbounds %"class.std::__1::vector.37", %"class.std::__1::vector.37"* %1, i64 0, i32 0, i32 1
  %22 = bitcast %"class.mojo::StructPtr"** %21 to i64*
  %23 = bitcast %"class.mojo::internal::ContainerValidateParams"** %20 to i8*
  call void @llvm.memset.p0i8.i64(i8* align 8 %23, i8 0, i64 24, i1 false)
  %24 = load i64, i64* %22, align 8
  %25 = bitcast %"class.std::__1::vector.37"* %1 to i64*
  %26 = load i64, i64* %25, align 8
  %27 = sub i64 %24, %26
  %28 = ashr exact i64 %27, 3
  %29 = icmp ugt i64 %28, 536870910
  br i1 %29, label %46, label %30

30:                                               ; preds = %3
  %31 = trunc i64 %28 to i32
  %32 = trunc i64 %27 to i32
  %33 = add i32 %32, 8
  %34 = and i32 %33, -8
  %35 = zext i32 %34 to i64
  %36 = call i64 @_ZN4mojo8internal6Buffer8AllocateEm(%"class.mojo::internal::Buffer"* %9, i64 %35) #11
  %37 = load i8*, i8** %11, align 8
  %38 = getelementptr inbounds i8, i8* %37, i64 %36
  %39 = bitcast i8* %38 to i32*
  store i32 %34, i32* %39, align 1
  %40 = getelementptr inbounds i8, i8* %38, i64 4
  %41 = bitcast i8* %40 to i32*
  store i32 %31, i32* %41, align 1
  %42 = load i64, i64* %22, align 8
  %43 = load i64, i64* %25, align 8
  %44 = sub i64 %42, %43
  %45 = ashr exact i64 %44, 3
  br label %46

46:                                               ; preds = %30, %3
  %47 = phi i64 [ -1, %3 ], [ %36, %30 ]
  %48 = phi i64 [ %28, %3 ], [ %45, %30 ]
  %49 = phi i64 [ %27, %3 ], [ %44, %30 ]
  %50 = phi i64 [ %26, %3 ], [ %43, %30 ]
  %51 = icmp eq i64 %49, 0
  br i1 %51, label %88, label %52

52:                                               ; preds = %46
  %53 = inttoptr i64 %50 to %"class.mojo::StructPtr"*
  %54 = bitcast %"class.mojo::internal::MessageFragment.348"* %4 to i8*
  %55 = getelementptr inbounds %"class.mojo::internal::MessageFragment.348", %"class.mojo::internal::MessageFragment.348"* %4, i64 0, i32 0
  %56 = getelementptr inbounds %"class.mojo::internal::MessageFragment.348", %"class.mojo::internal::MessageFragment.348"* %4, i64 0, i32 1
  %57 = bitcast %"class.mojo::internal::MessageFragment.348"* %4 to i64*
  %58 = getelementptr inbounds %"class.std::__1::vector.37", %"class.std::__1::vector.37"* %1, i64 0, i32 0, i32 0
  br label %59

59:                                               ; preds = %86, %52
  %60 = phi %"class.mojo::StructPtr"* [ %53, %52 ], [ %87, %86 ]
  %61 = phi i64 [ 0, %52 ], [ %62, %86 ]
  call void @llvm.lifetime.start.p0i8(i64 16, i8* nonnull %54) #11
  store i64 %15, i64* %57, align 8
  store i64 -1, i64* %56, align 8
  %62 = add nuw i64 %61, 1
  %63 = getelementptr inbounds %"class.mojo::StructPtr", %"class.mojo::StructPtr"* %60, i64 %61
  call void @_ZN4mojo8internal10SerializerIN7network5mojom12RuleDataViewENS_9StructPtrINS3_4RuleEEEE9SerializeERS7_RNS0_15MessageFragmentINS3_8internal9Rule_DataEEE(%"class.mojo::StructPtr"* dereferenceable(8) %63, %"class.mojo::internal::MessageFragment.348"* nonnull dereferenceable(16) %4) #11
  %64 = load i8*, i8** %11, align 8
  %65 = getelementptr inbounds i8, i8* %64, i64 8
  %66 = getelementptr inbounds i8, i8* %65, i64 %47
  %67 = bitcast i8* %66 to %"class.mojo::internal::Array_Data"*
  %68 = getelementptr inbounds %"class.mojo::internal::Array_Data", %"class.mojo::internal::Array_Data"* %67, i64 %61
  %69 = load i64, i64* %56, align 8
  %70 = icmp eq i64 %69, -1
  br i1 %70, label %77, label %71

71:                                               ; preds = %59
  %72 = load %"class.mojo::Message"*, %"class.mojo::Message"** %55, align 8
  %73 = getelementptr inbounds %"class.mojo::Message", %"class.mojo::Message"* %72, i64 0, i32 1, i32 2
  %74 = load i8*, i8** %73, align 8
  %75 = getelementptr inbounds i8, i8* %74, i64 %69
  %76 = bitcast i8* %75 to %"class.network::mojom::internal::Rule_Data"*
  br label %77

77:                                               ; preds = %71, %59
  %78 = phi %"class.network::mojom::internal::Rule_Data"* [ %76, %71 ], [ null, %59 ]
  %79 = bitcast %"class.mojo::internal::Array_Data"* %68 to i64*
  %80 = icmp eq %"class.network::mojom::internal::Rule_Data"* %78, null
  %81 = ptrtoint %"class.network::mojom::internal::Rule_Data"* %78 to i64
  %82 = ptrtoint %"class.mojo::internal::Array_Data"* %68 to i64
  %83 = sub i64 %81, %82
  %84 = select i1 %80, i64 0, i64 %83
  store i64 %84, i64* %79, align 8
  call void @llvm.lifetime.end.p0i8(i64 16, i8* nonnull %54) #11
  %85 = icmp ult i64 %62, %48
  br i1 %85, label %86, label %88

86:                                               ; preds = %77
  %87 = load %"class.mojo::StructPtr"*, %"class.mojo::StructPtr"** %58, align 8
  br label %59

88:                                               ; preds = %77, %46
  %89 = load i8*, i8** %11, align 8
  %90 = getelementptr inbounds i8, i8* %89, i64 %10
  %91 = getelementptr inbounds i8, i8* %90, i64 8
  %92 = icmp eq i64 %47, -1
  %93 = getelementptr inbounds i8, i8* %89, i64 %47
  %94 = bitcast i8* %93 to %"class.mojo::internal::Array_Data"*
  %95 = select i1 %92, %"class.mojo::internal::Array_Data"* null, %"class.mojo::internal::Array_Data"* %94
  %96 = bitcast i8* %91 to i64*
  %97 = icmp eq %"class.mojo::internal::Array_Data"* %95, null
  %98 = ptrtoint %"class.mojo::internal::Array_Data"* %95 to i64
  %99 = ptrtoint i8* %91 to i64
  %100 = sub i64 %98, %99
  %101 = select i1 %97, i64 0, i64 %100
  store i64 %101, i64* %96, align 8
  %102 = call i8* @_Znwm(i64 16) #12
  %103 = getelementptr inbounds %"class.base::OnceCallback", %"class.base::OnceCallback"* %2, i64 0, i32 0, i32 0, i32 0
  %104 = bitcast %"class.base::OnceCallback"* %2 to i64*
  %105 = load i64, i64* %104, align 8
  store %"class.base::internal::BindStateBase"* null, %"class.base::internal::BindStateBase"** %103, align 8
  %106 = bitcast i8* %102 to i32 (...)***
  store i32 (...)** bitcast (i8** getelementptr inbounds ({ [6 x i8*] }, { [6 x i8*] }* @_ZTVN7network5mojom45NetworkServiceTest_AddRules_ForwardToCallbackE, i64 0, inrange i32 0, i64 2) to i32 (...)**), i32 (...)*** %106, align 8
  %107 = getelementptr inbounds i8, i8* %102, i64 8
  %108 = getelementptr inbounds %"class.base::OnceCallback", %"class.base::OnceCallback"* %7, i64 0, i32 0, i32 0, i32 0
  %109 = bitcast i8* %107 to i64*
  store i64 %105, i64* %109, align 8
  store %"class.base::internal::BindStateBase"* null, %"class.base::internal::BindStateBase"** %108, align 8
  %110 = bitcast i8* %102 to %"class.mojo::MessageReceiver"*
  %111 = getelementptr inbounds %"class.base::OnceCallback", %"class.base::OnceCallback"* %7, i64 0, i32 0
  call void @_ZN4base8internal12CallbackBaseD2Ev(%"class.base::internal::CallbackBase"* nonnull %111) #11
  %112 = getelementptr inbounds %"class.network::mojom::NetworkServiceTestProxy", %"class.network::mojom::NetworkServiceTestProxy"* %0, i64 0, i32 1
  %113 = load %"class.mojo::MessageReceiverWithResponder"*, %"class.mojo::MessageReceiverWithResponder"** %112, align 8
  %114 = bitcast %"class.mojo::MessageReceiverWithResponder"* %113 to i1 (%"class.mojo::MessageReceiverWithResponder"*, %"class.mojo::Message"*, %"class.mojo::MessageReceiver"*)***
  %115 = load i1 (%"class.mojo::MessageReceiverWithResponder"*, %"class.mojo::Message"*, %"class.mojo::MessageReceiver"*)**, i1 (%"class.mojo::MessageReceiverWithResponder"*, %"class.mojo::Message"*, %"class.mojo::MessageReceiver"*)*** %114, align 8
  %116 = getelementptr inbounds i1 (%"class.mojo::MessageReceiverWithResponder"*, %"class.mojo::Message"*, %"class.mojo::MessageReceiver"*)*, i1 (%"class.mojo::MessageReceiverWithResponder"*, %"class.mojo::Message"*, %"class.mojo::MessageReceiver"*)** %115, i64 4
  %117 = load i1 (%"class.mojo::MessageReceiverWithResponder"*, %"class.mojo::Message"*, %"class.mojo::MessageReceiver"*)*, i1 (%"class.mojo::MessageReceiverWithResponder"*, %"class.mojo::Message"*, %"class.mojo::MessageReceiver"*)** %116, align 8
  %118 = call zeroext i1 %117(%"class.mojo::MessageReceiverWithResponder"* %113, %"class.mojo::Message"* nonnull %5, %"class.mojo::MessageReceiver"* nonnull %110) #11
  call void @_ZN4mojo8internal23ContainerValidateParamsD2Ev(%"class.mojo::internal::ContainerValidateParams"* nonnull %6) #11
  call void @llvm.lifetime.end.p0i8(i64 32, i8* nonnull %16) #11
  call void @_ZN4mojo7MessageD1Ev(%"class.mojo::Message"* nonnull %5) #11
  call void @llvm.lifetime.end.p0i8(i64 120, i8* nonnull %8) #11
  ret void
}

; Function Attrs: nounwind ssp uwtable
define hidden void @_ZN7network5mojom23NetworkServiceTestProxy21SimulateNetworkChangeENS0_14ConnectionTypeEN4base12OnceCallbackIFvvEEE(%"class.network::mojom::NetworkServiceTestProxy"* nocapture readonly, i32, %"class.base::OnceCallback"* nocapture) unnamed_addr #0 align 2 {
  %4 = alloca %"class.mojo::Message", align 8
  %5 = alloca %"class.base::OnceCallback", align 8
  %6 = bitcast %"class.mojo::Message"* %4 to i8*
  call void @llvm.lifetime.start.p0i8(i64 120, i8* nonnull %6) #11
  call void @llvm.memset.p0i8.i64(i8* nonnull align 8 %6, i8 -86, i64 120, i1 false)
  call void @_ZN4mojo7MessageC1EjjmmPNSt3__16vectorINS_16ScopedHandleBaseINS_6HandleEEENS1_9allocatorIS5_EEEE(%"class.mojo::Message"* nonnull %4, i32 770970789, i32 1, i64 0, i64 0, %"class.std::__1::vector.11"* null) #11
  %7 = getelementptr inbounds %"class.mojo::Message", %"class.mojo::Message"* %4, i64 0, i32 1
  %8 = call i64 @_ZN4mojo8internal6Buffer8AllocateEm(%"class.mojo::internal::Buffer"* %7, i64 16) #11
  %9 = getelementptr inbounds %"class.mojo::Message", %"class.mojo::Message"* %4, i64 0, i32 1, i32 2
  %10 = load i8*, i8** %9, align 8
  %11 = getelementptr inbounds i8, i8* %10, i64 %8
  %12 = bitcast i8* %11 to %"class.network::mojom::internal::NetworkServiceTest_SimulateNetworkChange_Params_Data"*
  call void @_ZN7network5mojom8internal52NetworkServiceTest_SimulateNetworkChange_Params_DataC1Ev(%"class.network::mojom::internal::NetworkServiceTest_SimulateNetworkChange_Params_Data"* %12) #11
  %13 = load i8*, i8** %9, align 8
  %14 = getelementptr inbounds i8, i8* %13, i64 %8
  %15 = getelementptr inbounds i8, i8* %14, i64 8
  %16 = bitcast i8* %15 to i32*
  store i32 %1, i32* %16, align 4
  %17 = call i8* @_Znwm(i64 16) #12
  %18 = getelementptr inbounds %"class.base::OnceCallback", %"class.base::OnceCallback"* %2, i64 0, i32 0, i32 0, i32 0
  %19 = bitcast %"class.base::OnceCallback"* %2 to i64*
  %20 = load i64, i64* %19, align 8
  store %"class.base::internal::BindStateBase"* null, %"class.base::internal::BindStateBase"** %18, align 8
  %21 = bitcast i8* %17 to i32 (...)***
  store i32 (...)** bitcast (i8** getelementptr inbounds ({ [6 x i8*] }, { [6 x i8*] }* @_ZTVN7network5mojom58NetworkServiceTest_SimulateNetworkChange_ForwardToCallbackE, i64 0, inrange i32 0, i64 2) to i32 (...)**), i32 (...)*** %21, align 8
  %22 = getelementptr inbounds i8, i8* %17, i64 8
  %23 = getelementptr inbounds %"class.base::OnceCallback", %"class.base::OnceCallback"* %5, i64 0, i32 0, i32 0, i32 0
  %24 = bitcast i8* %22 to i64*
  store i64 %20, i64* %24, align 8
  store %"class.base::internal::BindStateBase"* null, %"class.base::internal::BindStateBase"** %23, align 8
  %25 = bitcast i8* %17 to %"class.mojo::MessageReceiver"*
  %26 = getelementptr inbounds %"class.base::OnceCallback", %"class.base::OnceCallback"* %5, i64 0, i32 0
  call void @_ZN4base8internal12CallbackBaseD2Ev(%"class.base::internal::CallbackBase"* nonnull %26) #11
  %27 = getelementptr inbounds %"class.network::mojom::NetworkServiceTestProxy", %"class.network::mojom::NetworkServiceTestProxy"* %0, i64 0, i32 1
  %28 = load %"class.mojo::MessageReceiverWithResponder"*, %"class.mojo::MessageReceiverWithResponder"** %27, align 8
  %29 = bitcast %"class.mojo::MessageReceiverWithResponder"* %28 to i1 (%"class.mojo::MessageReceiverWithResponder"*, %"class.mojo::Message"*, %"class.mojo::MessageReceiver"*)***
  %30 = load i1 (%"class.mojo::MessageReceiverWithResponder"*, %"class.mojo::Message"*, %"class.mojo::MessageReceiver"*)**, i1 (%"class.mojo::MessageReceiverWithResponder"*, %"class.mojo::Message"*, %"class.mojo::MessageReceiver"*)*** %29, align 8
  %31 = getelementptr inbounds i1 (%"class.mojo::MessageReceiverWithResponder"*, %"class.mojo::Message"*, %"class.mojo::MessageReceiver"*)*, i1 (%"class.mojo::MessageReceiverWithResponder"*, %"class.mojo::Message"*, %"class.mojo::MessageReceiver"*)** %30, i64 4
  %32 = load i1 (%"class.mojo::MessageReceiverWithResponder"*, %"class.mojo::Message"*, %"class.mojo::MessageReceiver"*)*, i1 (%"class.mojo::MessageReceiverWithResponder"*, %"class.mojo::Message"*, %"class.mojo::MessageReceiver"*)** %31, align 8
  %33 = call zeroext i1 %32(%"class.mojo::MessageReceiverWithResponder"* %28, %"class.mojo::Message"* nonnull %4, %"class.mojo::MessageReceiver"* nonnull %25) #11
  call void @_ZN4mojo7MessageD1Ev(%"class.mojo::Message"* nonnull %4) #11
  call void @llvm.lifetime.end.p0i8(i64 120, i8* nonnull %6) #11
  ret void
}

; Function Attrs: nounwind ssp uwtable
define hidden void @_ZN7network5mojom23NetworkServiceTestProxy28SimulateNetworkQualityChangeEN3net23EffectiveConnectionTypeEN4base12OnceCallbackIFvvEEE(%"class.network::mojom::NetworkServiceTestProxy"* nocapture readonly, i32, %"class.base::OnceCallback"* nocapture) unnamed_addr #0 align 2 {
  %4 = alloca %"class.mojo::Message", align 8
  %5 = alloca %"class.base::OnceCallback", align 8
  %6 = bitcast %"class.mojo::Message"* %4 to i8*
  call void @llvm.lifetime.start.p0i8(i64 120, i8* nonnull %6) #11
  call void @llvm.memset.p0i8.i64(i8* nonnull align 8 %6, i8 -86, i64 120, i1 false)
  call void @_ZN4mojo7MessageC1EjjmmPNSt3__16vectorINS_16ScopedHandleBaseINS_6HandleEEENS1_9allocatorIS5_EEEE(%"class.mojo::Message"* nonnull %4, i32 529548984, i32 1, i64 0, i64 0, %"class.std::__1::vector.11"* null) #11
  %7 = getelementptr inbounds %"class.mojo::Message", %"class.mojo::Message"* %4, i64 0, i32 1
  %8 = call i64 @_ZN4mojo8internal6Buffer8AllocateEm(%"class.mojo::internal::Buffer"* %7, i64 16) #11
  %9 = getelementptr inbounds %"class.mojo::Message", %"class.mojo::Message"* %4, i64 0, i32 1, i32 2
  %10 = load i8*, i8** %9, align 8
  %11 = getelementptr inbounds i8, i8* %10, i64 %8
  %12 = bitcast i8* %11 to %"class.network::mojom::internal::NetworkServiceTest_SimulateNetworkQualityChange_Params_Data"*
  call void @_ZN7network5mojom8internal59NetworkServiceTest_SimulateNetworkQualityChange_Params_DataC1Ev(%"class.network::mojom::internal::NetworkServiceTest_SimulateNetworkQualityChange_Params_Data"* %12) #11
  %13 = load i8*, i8** %9, align 8
  %14 = getelementptr inbounds i8, i8* %13, i64 %8
  %15 = getelementptr inbounds i8, i8* %14, i64 8
  %16 = bitcast i8* %15 to i32*
  call void @_ZN4mojo8internal24NativeEnumSerializerImplIN3net23EffectiveConnectionTypeEE9SerializeES3_Pi(i32 %1, i32* %16) #11
  %17 = call i8* @_Znwm(i64 16) #12
  %18 = getelementptr inbounds %"class.base::OnceCallback", %"class.base::OnceCallback"* %2, i64 0, i32 0, i32 0, i32 0
  %19 = bitcast %"class.base::OnceCallback"* %2 to i64*
  %20 = load i64, i64* %19, align 8
  store %"class.base::internal::BindStateBase"* null, %"class.base::internal::BindStateBase"** %18, align 8
  %21 = bitcast i8* %17 to i32 (...)***
  store i32 (...)** bitcast (i8** getelementptr inbounds ({ [6 x i8*] }, { [6 x i8*] }* @_ZTVN7network5mojom65NetworkServiceTest_SimulateNetworkQualityChange_ForwardToCallbackE, i64 0, inrange i32 0, i64 2) to i32 (...)**), i32 (...)*** %21, align 8
  %22 = getelementptr inbounds i8, i8* %17, i64 8
  %23 = getelementptr inbounds %"class.base::OnceCallback", %"class.base::OnceCallback"* %5, i64 0, i32 0, i32 0, i32 0
  %24 = bitcast i8* %22 to i64*
  store i64 %20, i64* %24, align 8
  store %"class.base::internal::BindStateBase"* null, %"class.base::internal::BindStateBase"** %23, align 8
  %25 = bitcast i8* %17 to %"class.mojo::MessageReceiver"*
  %26 = getelementptr inbounds %"class.base::OnceCallback", %"class.base::OnceCallback"* %5, i64 0, i32 0
  call void @_ZN4base8internal12CallbackBaseD2Ev(%"class.base::internal::CallbackBase"* nonnull %26) #11
  %27 = getelementptr inbounds %"class.network::mojom::NetworkServiceTestProxy", %"class.network::mojom::NetworkServiceTestProxy"* %0, i64 0, i32 1
  %28 = load %"class.mojo::MessageReceiverWithResponder"*, %"class.mojo::MessageReceiverWithResponder"** %27, align 8
  %29 = bitcast %"class.mojo::MessageReceiverWithResponder"* %28 to i1 (%"class.mojo::MessageReceiverWithResponder"*, %"class.mojo::Message"*, %"class.mojo::MessageReceiver"*)***
  %30 = load i1 (%"class.mojo::MessageReceiverWithResponder"*, %"class.mojo::Message"*, %"class.mojo::MessageReceiver"*)**, i1 (%"class.mojo::MessageReceiverWithResponder"*, %"class.mojo::Message"*, %"class.mojo::MessageReceiver"*)*** %29, align 8
  %31 = getelementptr inbounds i1 (%"class.mojo::MessageReceiverWithResponder"*, %"class.mojo::Message"*, %"class.mojo::MessageReceiver"*)*, i1 (%"class.mojo::MessageReceiverWithResponder"*, %"class.mojo::Message"*, %"class.mojo::MessageReceiver"*)** %30, i64 4
  %32 = load i1 (%"class.mojo::MessageReceiverWithResponder"*, %"class.mojo::Message"*, %"class.mojo::MessageReceiver"*)*, i1 (%"class.mojo::MessageReceiverWithResponder"*, %"class.mojo::Message"*, %"class.mojo::MessageReceiver"*)** %31, align 8
  %33 = call zeroext i1 %32(%"class.mojo::MessageReceiverWithResponder"* %28, %"class.mojo::Message"* nonnull %4, %"class.mojo::MessageReceiver"* nonnull %25) #11
  call void @_ZN4mojo7MessageD1Ev(%"class.mojo::Message"* nonnull %4) #11
  call void @llvm.lifetime.end.p0i8(i64 120, i8* nonnull %6) #11
  ret void
}

; Function Attrs: nounwind ssp uwtable
define hidden void @_ZN7network5mojom23NetworkServiceTestProxy13SimulateCrashEv(%"class.network::mojom::NetworkServiceTestProxy"* nocapture readonly) unnamed_addr #0 align 2 {
  %2 = alloca %"class.mojo::Message", align 8
  %3 = bitcast %"class.mojo::Message"* %2 to i8*
  call void @llvm.lifetime.start.p0i8(i64 120, i8* nonnull %3) #11
  call void @llvm.memset.p0i8.i64(i8* nonnull align 8 %3, i8 -86, i64 120, i1 false)
  call void @_ZN4mojo7MessageC1EjjmmPNSt3__16vectorINS_16ScopedHandleBaseINS_6HandleEEENS1_9allocatorIS5_EEEE(%"class.mojo::Message"* nonnull %2, i32 1355754339, i32 0, i64 0, i64 0, %"class.std::__1::vector.11"* null) #11
  %4 = getelementptr inbounds %"class.mojo::Message", %"class.mojo::Message"* %2, i64 0, i32 1
  %5 = call i64 @_ZN4mojo8internal6Buffer8AllocateEm(%"class.mojo::internal::Buffer"* %4, i64 8) #11
  %6 = getelementptr inbounds %"class.mojo::Message", %"class.mojo::Message"* %2, i64 0, i32 1, i32 2
  %7 = load i8*, i8** %6, align 8
  %8 = getelementptr inbounds i8, i8* %7, i64 %5
  %9 = bitcast i8* %8 to %"class.network::mojom::internal::NetworkServiceTest_SimulateCrash_Params_Data"*
  call void @_ZN7network5mojom8internal44NetworkServiceTest_SimulateCrash_Params_DataC1Ev(%"class.network::mojom::internal::NetworkServiceTest_SimulateCrash_Params_Data"* %9) #11
  %10 = getelementptr inbounds %"class.network::mojom::NetworkServiceTestProxy", %"class.network::mojom::NetworkServiceTestProxy"* %0, i64 0, i32 1
  %11 = bitcast %"class.mojo::MessageReceiverWithResponder"** %10 to %"class.mojo::MessageReceiver"**
  %12 = load %"class.mojo::MessageReceiver"*, %"class.mojo::MessageReceiver"** %11, align 8
  %13 = bitcast %"class.mojo::MessageReceiver"* %12 to i1 (%"class.mojo::MessageReceiver"*, %"class.mojo::Message"*)***
  %14 = load i1 (%"class.mojo::MessageReceiver"*, %"class.mojo::Message"*)**, i1 (%"class.mojo::MessageReceiver"*, %"class.mojo::Message"*)*** %13, align 8
  %15 = getelementptr inbounds i1 (%"class.mojo::MessageReceiver"*, %"class.mojo::Message"*)*, i1 (%"class.mojo::MessageReceiver"*, %"class.mojo::Message"*)** %14, i64 3
  %16 = load i1 (%"class.mojo::MessageReceiver"*, %"class.mojo::Message"*)*, i1 (%"class.mojo::MessageReceiver"*, %"class.mojo::Message"*)** %15, align 8
  %17 = call zeroext i1 %16(%"class.mojo::MessageReceiver"* %12, %"class.mojo::Message"* nonnull %2) #11
  call void @_ZN4mojo7MessageD1Ev(%"class.mojo::Message"* nonnull %2) #11
  call void @llvm.lifetime.end.p0i8(i64 120, i8* nonnull %3) #11
  ret void
}

; Function Attrs: nounwind ssp uwtable
define hidden zeroext i1 @_ZN7network5mojom23NetworkServiceTestProxy32MockCertVerifierSetDefaultResultEi(%"class.network::mojom::NetworkServiceTestProxy"* nocapture readonly, i32) unnamed_addr #0 align 2 {
  %3 = alloca %"class.mojo::Message", align 8
  %4 = alloca i8, align 1
  %5 = bitcast %"class.mojo::Message"* %3 to i8*
  call void @llvm.lifetime.start.p0i8(i64 120, i8* nonnull %5) #11
  call void @llvm.memset.p0i8.i64(i8* nonnull align 8 %5, i8 -86, i64 120, i1 false)
  call void @_ZN4mojo7MessageC1EjjmmPNSt3__16vectorINS_16ScopedHandleBaseINS_6HandleEEENS1_9allocatorIS5_EEEE(%"class.mojo::Message"* nonnull %3, i32 343609816, i32 5, i64 0, i64 0, %"class.std::__1::vector.11"* null) #11
  %6 = getelementptr inbounds %"class.mojo::Message", %"class.mojo::Message"* %3, i64 0, i32 1
  %7 = call i64 @_ZN4mojo8internal6Buffer8AllocateEm(%"class.mojo::internal::Buffer"* %6, i64 16) #11
  %8 = getelementptr inbounds %"class.mojo::Message", %"class.mojo::Message"* %3, i64 0, i32 1, i32 2
  %9 = load i8*, i8** %8, align 8
  %10 = getelementptr inbounds i8, i8* %9, i64 %7
  %11 = bitcast i8* %10 to %"class.network::mojom::internal::NetworkServiceTest_MockCertVerifierSetDefaultResult_Params_Data"*
  call void @_ZN7network5mojom8internal63NetworkServiceTest_MockCertVerifierSetDefaultResult_Params_DataC1Ev(%"class.network::mojom::internal::NetworkServiceTest_MockCertVerifierSetDefaultResult_Params_Data"* %11) #11
  %12 = load i8*, i8** %8, align 8
  %13 = getelementptr inbounds i8, i8* %12, i64 %7
  %14 = getelementptr inbounds i8, i8* %13, i64 8
  %15 = bitcast i8* %14 to i32*
  store i32 %1, i32* %15, align 4
  call void @llvm.lifetime.start.p0i8(i64 1, i8* nonnull %4) #11
  store i8 0, i8* %4, align 1
  %16 = call i8* @_Znwm(i64 16) #12
  %17 = bitcast i8* %16 to i32 (...)***
  store i32 (...)** bitcast (i8** getelementptr inbounds ({ [6 x i8*] }, { [6 x i8*] }* @_ZTVN7network5mojom70NetworkServiceTest_MockCertVerifierSetDefaultResult_HandleSyncResponseE, i64 0, inrange i32 0, i64 2) to i32 (...)**), i32 (...)*** %17, align 8
  %18 = getelementptr inbounds i8, i8* %16, i64 8
  %19 = bitcast i8* %18 to i8**
  store i8* %4, i8** %19, align 8
  %20 = bitcast i8* %16 to %"class.mojo::MessageReceiver"*
  %21 = getelementptr inbounds %"class.network::mojom::NetworkServiceTestProxy", %"class.network::mojom::NetworkServiceTestProxy"* %0, i64 0, i32 1
  %22 = load %"class.mojo::MessageReceiverWithResponder"*, %"class.mojo::MessageReceiverWithResponder"** %21, align 8
  %23 = bitcast %"class.mojo::MessageReceiverWithResponder"* %22 to i1 (%"class.mojo::MessageReceiverWithResponder"*, %"class.mojo::Message"*, %"class.mojo::MessageReceiver"*)***
  %24 = load i1 (%"class.mojo::MessageReceiverWithResponder"*, %"class.mojo::Message"*, %"class.mojo::MessageReceiver"*)**, i1 (%"class.mojo::MessageReceiverWithResponder"*, %"class.mojo::Message"*, %"class.mojo::MessageReceiver"*)*** %23, align 8
  %25 = getelementptr inbounds i1 (%"class.mojo::MessageReceiverWithResponder"*, %"class.mojo::Message"*, %"class.mojo::MessageReceiver"*)*, i1 (%"class.mojo::MessageReceiverWithResponder"*, %"class.mojo::Message"*, %"class.mojo::MessageReceiver"*)** %24, i64 4
  %26 = load i1 (%"class.mojo::MessageReceiverWithResponder"*, %"class.mojo::Message"*, %"class.mojo::MessageReceiver"*)*, i1 (%"class.mojo::MessageReceiverWithResponder"*, %"class.mojo::Message"*, %"class.mojo::MessageReceiver"*)** %25, align 8
  %27 = call zeroext i1 %26(%"class.mojo::MessageReceiverWithResponder"* %22, %"class.mojo::Message"* nonnull %3, %"class.mojo::MessageReceiver"* nonnull %20) #11
  %28 = load i8, i8* %4, align 1, !range !2
  %29 = icmp ne i8 %28, 0
  call void @llvm.lifetime.end.p0i8(i64 1, i8* nonnull %4) #11
  call void @_ZN4mojo7MessageD1Ev(%"class.mojo::Message"* nonnull %3) #11
  call void @llvm.lifetime.end.p0i8(i64 120, i8* nonnull %5) #11
  ret i1 %29
}

; Function Attrs: nounwind ssp uwtable
define hidden void @_ZN7network5mojom23NetworkServiceTestProxy32MockCertVerifierSetDefaultResultEiN4base12OnceCallbackIFvvEEE(%"class.network::mojom::NetworkServiceTestProxy"* nocapture readonly, i32, %"class.base::OnceCallback"* nocapture) unnamed_addr #0 align 2 {
  %4 = alloca %"class.mojo::Message", align 8
  %5 = alloca %"class.base::OnceCallback", align 8
  %6 = bitcast %"class.mojo::Message"* %4 to i8*
  call void @llvm.lifetime.start.p0i8(i64 120, i8* nonnull %6) #11
  call void @llvm.memset.p0i8.i64(i8* nonnull align 8 %6, i8 -86, i64 120, i1 false)
  call void @_ZN4mojo7MessageC1EjjmmPNSt3__16vectorINS_16ScopedHandleBaseINS_6HandleEEENS1_9allocatorIS5_EEEE(%"class.mojo::Message"* nonnull %4, i32 343609816, i32 1, i64 0, i64 0, %"class.std::__1::vector.11"* null) #11
  %7 = getelementptr inbounds %"class.mojo::Message", %"class.mojo::Message"* %4, i64 0, i32 1
  %8 = call i64 @_ZN4mojo8internal6Buffer8AllocateEm(%"class.mojo::internal::Buffer"* %7, i64 16) #11
  %9 = getelementptr inbounds %"class.mojo::Message", %"class.mojo::Message"* %4, i64 0, i32 1, i32 2
  %10 = load i8*, i8** %9, align 8
  %11 = getelementptr inbounds i8, i8* %10, i64 %8
  %12 = bitcast i8* %11 to %"class.network::mojom::internal::NetworkServiceTest_MockCertVerifierSetDefaultResult_Params_Data"*
  call void @_ZN7network5mojom8internal63NetworkServiceTest_MockCertVerifierSetDefaultResult_Params_DataC1Ev(%"class.network::mojom::internal::NetworkServiceTest_MockCertVerifierSetDefaultResult_Params_Data"* %12) #11
  %13 = load i8*, i8** %9, align 8
  %14 = getelementptr inbounds i8, i8* %13, i64 %8
  %15 = getelementptr inbounds i8, i8* %14, i64 8
  %16 = bitcast i8* %15 to i32*
  store i32 %1, i32* %16, align 4
  %17 = call i8* @_Znwm(i64 16) #12
  %18 = getelementptr inbounds %"class.base::OnceCallback", %"class.base::OnceCallback"* %2, i64 0, i32 0, i32 0, i32 0
  %19 = bitcast %"class.base::OnceCallback"* %2 to i64*
  %20 = load i64, i64* %19, align 8
  store %"class.base::internal::BindStateBase"* null, %"class.base::internal::BindStateBase"** %18, align 8
  %21 = bitcast i8* %17 to i32 (...)***
  store i32 (...)** bitcast (i8** getelementptr inbounds ({ [6 x i8*] }, { [6 x i8*] }* @_ZTVN7network5mojom69NetworkServiceTest_MockCertVerifierSetDefaultResult_ForwardToCallbackE, i64 0, inrange i32 0, i64 2) to i32 (...)**), i32 (...)*** %21, align 8
  %22 = getelementptr inbounds i8, i8* %17, i64 8
  %23 = getelementptr inbounds %"class.base::OnceCallback", %"class.base::OnceCallback"* %5, i64 0, i32 0, i32 0, i32 0
  %24 = bitcast i8* %22 to i64*
  store i64 %20, i64* %24, align 8
  store %"class.base::internal::BindStateBase"* null, %"class.base::internal::BindStateBase"** %23, align 8
  %25 = bitcast i8* %17 to %"class.mojo::MessageReceiver"*
  %26 = getelementptr inbounds %"class.base::OnceCallback", %"class.base::OnceCallback"* %5, i64 0, i32 0
  call void @_ZN4base8internal12CallbackBaseD2Ev(%"class.base::internal::CallbackBase"* nonnull %26) #11
  %27 = getelementptr inbounds %"class.network::mojom::NetworkServiceTestProxy", %"class.network::mojom::NetworkServiceTestProxy"* %0, i64 0, i32 1
  %28 = load %"class.mojo::MessageReceiverWithResponder"*, %"class.mojo::MessageReceiverWithResponder"** %27, align 8
  %29 = bitcast %"class.mojo::MessageReceiverWithResponder"* %28 to i1 (%"class.mojo::MessageReceiverWithResponder"*, %"class.mojo::Message"*, %"class.mojo::MessageReceiver"*)***
  %30 = load i1 (%"class.mojo::MessageReceiverWithResponder"*, %"class.mojo::Message"*, %"class.mojo::MessageReceiver"*)**, i1 (%"class.mojo::MessageReceiverWithResponder"*, %"class.mojo::Message"*, %"class.mojo::MessageReceiver"*)*** %29, align 8
  %31 = getelementptr inbounds i1 (%"class.mojo::MessageReceiverWithResponder"*, %"class.mojo::Message"*, %"class.mojo::MessageReceiver"*)*, i1 (%"class.mojo::MessageReceiverWithResponder"*, %"class.mojo::Message"*, %"class.mojo::MessageReceiver"*)** %30, i64 4
  %32 = load i1 (%"class.mojo::MessageReceiverWithResponder"*, %"class.mojo::Message"*, %"class.mojo::MessageReceiver"*)*, i1 (%"class.mojo::MessageReceiverWithResponder"*, %"class.mojo::Message"*, %"class.mojo::MessageReceiver"*)** %31, align 8
  %33 = call zeroext i1 %32(%"class.mojo::MessageReceiverWithResponder"* %28, %"class.mojo::Message"* nonnull %4, %"class.mojo::MessageReceiver"* nonnull %25) #11
  call void @_ZN4mojo7MessageD1Ev(%"class.mojo::Message"* nonnull %4) #11
  call void @llvm.lifetime.end.p0i8(i64 120, i8* nonnull %6) #11
  ret void
}

; Function Attrs: nounwind ssp uwtable
define hidden zeroext i1 @_ZN7network5mojom23NetworkServiceTestProxy39MockCertVerifierAddResultForCertAndHostERK13scoped_refptrIN3net15X509CertificateEERKNSt3__112basic_stringIcNS8_11char_traitsIcEENS8_9allocatorIcEEEERKNS3_16CertVerifyResultEi(%"class.network::mojom::NetworkServiceTestProxy"* nocapture readonly, %class.scoped_refptr.47* dereferenceable(8), %"class.std::__1::basic_string"* dereferenceable(24), %"class.net::CertVerifyResult"* dereferenceable(136), i32) unnamed_addr #0 align 2 {
  %6 = alloca %"class.IPC::Message", align 8
  %7 = alloca %"class.IPC::Message", align 8
  %8 = alloca %"class.mojo::Message", align 8
  %9 = alloca %"class.mojo::internal::MessageFragment.104", align 8
  %10 = alloca %"class.mojo::internal::MessageFragment.109", align 8
  %11 = alloca %"class.mojo::internal::MessageFragment.104", align 8
  %12 = alloca i8, align 1
  %13 = bitcast %"class.mojo::Message"* %8 to i8*
  call void @llvm.lifetime.start.p0i8(i64 120, i8* nonnull %13) #11
  call void @llvm.memset.p0i8.i64(i8* nonnull align 8 %13, i8 -86, i64 120, i1 false)
  call void @_ZN4mojo7MessageC1EjjmmPNSt3__16vectorINS_16ScopedHandleBaseINS_6HandleEEENS1_9allocatorIS5_EEEE(%"class.mojo::Message"* nonnull %8, i32 278364737, i32 5, i64 0, i64 0, %"class.std::__1::vector.11"* null) #11
  %14 = getelementptr inbounds %"class.mojo::Message", %"class.mojo::Message"* %8, i64 0, i32 1
  %15 = call i64 @_ZN4mojo8internal6Buffer8AllocateEm(%"class.mojo::internal::Buffer"* %14, i64 40) #11
  %16 = getelementptr inbounds %"class.mojo::Message", %"class.mojo::Message"* %8, i64 0, i32 1, i32 2
  %17 = load i8*, i8** %16, align 8
  %18 = getelementptr inbounds i8, i8* %17, i64 %15
  %19 = bitcast i8* %18 to %"class.network::mojom::internal::NetworkServiceTest_MockCertVerifierAddResultForCertAndHost_Params_Data"*
  call void @_ZN7network5mojom8internal70NetworkServiceTest_MockCertVerifierAddResultForCertAndHost_Params_DataC1Ev(%"class.network::mojom::internal::NetworkServiceTest_MockCertVerifierAddResultForCertAndHost_Params_Data"* %19) #11
  %20 = bitcast %"class.mojo::internal::MessageFragment.104"* %9 to i8*
  call void @llvm.lifetime.start.p0i8(i64 16, i8* nonnull %20) #11
  %21 = getelementptr inbounds %"class.mojo::internal::MessageFragment.104", %"class.mojo::internal::MessageFragment.104"* %9, i64 0, i32 0
  %22 = getelementptr inbounds %"class.mojo::internal::MessageFragment.104", %"class.mojo::internal::MessageFragment.104"* %9, i64 0, i32 1
  store %"class.mojo::Message"* %8, %"class.mojo::Message"** %21, align 8
  store i64 -1, i64* %22, align 8
  %23 = bitcast %"class.IPC::Message"* %7 to i8*
  call void @llvm.lifetime.start.p0i8(i64 56, i8* nonnull %23) #11
  call void @llvm.memset.p0i8.i64(i8* nonnull align 8 %23, i8 -86, i64 56, i1 false) #11
  call void @_ZN3IPC7MessageC1Ev(%"class.IPC::Message"* nonnull %7) #11
  %24 = getelementptr inbounds %"class.IPC::Message", %"class.IPC::Message"* %7, i64 0, i32 0
  call void @_ZN3IPC11ParamTraitsI13scoped_refptrIN3net15X509CertificateEEE5WriteEPN4base6PickleERKS4_(%"class.base::Pickle"* nonnull %24, %class.scoped_refptr.47* dereferenceable(8) %1) #11
  call void @_ZN4mojo8internal34UnmappedNativeStructSerializerImpl24SerializeMessageContentsEPN3IPC7MessageERNS0_15MessageFragmentINS_6native8internal17NativeStruct_DataEEE(%"class.IPC::Message"* nonnull %7, %"class.mojo::internal::MessageFragment.104"* nonnull dereferenceable(16) %9) #11
  call void @_ZN3IPC7MessageD1Ev(%"class.IPC::Message"* nonnull %7) #11
  call void @llvm.lifetime.end.p0i8(i64 56, i8* nonnull %23) #11
  %25 = load i8*, i8** %16, align 8
  %26 = getelementptr inbounds i8, i8* %25, i64 %15
  %27 = getelementptr inbounds i8, i8* %26, i64 8
  %28 = load i64, i64* %22, align 8
  %29 = icmp eq i64 %28, -1
  br i1 %29, label %36, label %30

30:                                               ; preds = %5
  %31 = load %"class.mojo::Message"*, %"class.mojo::Message"** %21, align 8
  %32 = getelementptr inbounds %"class.mojo::Message", %"class.mojo::Message"* %31, i64 0, i32 1, i32 2
  %33 = load i8*, i8** %32, align 8
  %34 = getelementptr inbounds i8, i8* %33, i64 %28
  %35 = bitcast i8* %34 to %"class.mojo::native::internal::NativeStruct_Data"*
  br label %36

36:                                               ; preds = %5, %30
  %37 = phi %"class.mojo::native::internal::NativeStruct_Data"* [ %35, %30 ], [ null, %5 ]
  %38 = bitcast i8* %27 to i64*
  %39 = icmp eq %"class.mojo::native::internal::NativeStruct_Data"* %37, null
  %40 = ptrtoint %"class.mojo::native::internal::NativeStruct_Data"* %37 to i64
  %41 = ptrtoint i8* %27 to i64
  %42 = sub i64 %40, %41
  %43 = select i1 %39, i64 0, i64 %42
  store i64 %43, i64* %38, align 8
  %44 = bitcast %"class.mojo::internal::MessageFragment.109"* %10 to i8*
  call void @llvm.lifetime.start.p0i8(i64 16, i8* nonnull %44) #11
  %45 = getelementptr inbounds %"class.mojo::internal::MessageFragment.109", %"class.mojo::internal::MessageFragment.109"* %10, i64 0, i32 0
  %46 = getelementptr inbounds %"class.mojo::internal::MessageFragment.109", %"class.mojo::internal::MessageFragment.109"* %10, i64 0, i32 1
  store %"class.mojo::Message"* %8, %"class.mojo::Message"** %45, align 8
  store i64 -1, i64* %46, align 8
  call void @_ZN4mojo8internal10SerializerINS_14StringDataViewEKNSt3__112basic_stringIcNS3_11char_traitsIcEENS3_9allocatorIcEEEEE9SerializeERSA_RNS0_15MessageFragmentINS0_10Array_DataIcEEEE(%"class.std::__1::basic_string"* dereferenceable(24) %2, %"class.mojo::internal::MessageFragment.109"* nonnull dereferenceable(16) %10) #11
  %47 = load i8*, i8** %16, align 8
  %48 = getelementptr inbounds i8, i8* %47, i64 %15
  %49 = getelementptr inbounds i8, i8* %48, i64 16
  %50 = load i64, i64* %46, align 8
  %51 = icmp eq i64 %50, -1
  br i1 %51, label %58, label %52

52:                                               ; preds = %36
  %53 = load %"class.mojo::Message"*, %"class.mojo::Message"** %45, align 8
  %54 = getelementptr inbounds %"class.mojo::Message", %"class.mojo::Message"* %53, i64 0, i32 1, i32 2
  %55 = load i8*, i8** %54, align 8
  %56 = getelementptr inbounds i8, i8* %55, i64 %50
  %57 = bitcast i8* %56 to %"class.mojo::internal::Array_Data.110"*
  br label %58

58:                                               ; preds = %36, %52
  %59 = phi %"class.mojo::internal::Array_Data.110"* [ %57, %52 ], [ null, %36 ]
  %60 = bitcast i8* %49 to i64*
  %61 = icmp eq %"class.mojo::internal::Array_Data.110"* %59, null
  %62 = ptrtoint %"class.mojo::internal::Array_Data.110"* %59 to i64
  %63 = ptrtoint i8* %49 to i64
  %64 = sub i64 %62, %63
  %65 = select i1 %61, i64 0, i64 %64
  store i64 %65, i64* %60, align 8
  %66 = bitcast %"class.mojo::internal::MessageFragment.104"* %11 to i8*
  call void @llvm.lifetime.start.p0i8(i64 16, i8* nonnull %66) #11
  %67 = getelementptr inbounds %"class.mojo::internal::MessageFragment.104", %"class.mojo::internal::MessageFragment.104"* %11, i64 0, i32 0
  %68 = getelementptr inbounds %"class.mojo::internal::MessageFragment.104", %"class.mojo::internal::MessageFragment.104"* %11, i64 0, i32 1
  store %"class.mojo::Message"* %8, %"class.mojo::Message"** %67, align 8
  store i64 -1, i64* %68, align 8
  %69 = bitcast %"class.IPC::Message"* %6 to i8*
  call void @llvm.lifetime.start.p0i8(i64 56, i8* nonnull %69) #11
  call void @llvm.memset.p0i8.i64(i8* nonnull align 8 %69, i8 -86, i64 56, i1 false) #11
  call void @_ZN3IPC7MessageC1Ev(%"class.IPC::Message"* nonnull %6) #11
  %70 = getelementptr inbounds %"class.IPC::Message", %"class.IPC::Message"* %6, i64 0, i32 0
  call void @_ZN3IPC11ParamTraitsIN3net16CertVerifyResultEE5WriteEPN4base6PickleERKS2_(%"class.base::Pickle"* nonnull %70, %"class.net::CertVerifyResult"* dereferenceable(136) %3) #11
  call void @_ZN4mojo8internal34UnmappedNativeStructSerializerImpl24SerializeMessageContentsEPN3IPC7MessageERNS0_15MessageFragmentINS_6native8internal17NativeStruct_DataEEE(%"class.IPC::Message"* nonnull %6, %"class.mojo::internal::MessageFragment.104"* nonnull dereferenceable(16) %11) #11
  call void @_ZN3IPC7MessageD1Ev(%"class.IPC::Message"* nonnull %6) #11
  call void @llvm.lifetime.end.p0i8(i64 56, i8* nonnull %69) #11
  %71 = load i8*, i8** %16, align 8
  %72 = getelementptr inbounds i8, i8* %71, i64 %15
  %73 = getelementptr inbounds i8, i8* %72, i64 24
  %74 = load i64, i64* %68, align 8
  %75 = icmp eq i64 %74, -1
  br i1 %75, label %82, label %76

76:                                               ; preds = %58
  %77 = load %"class.mojo::Message"*, %"class.mojo::Message"** %67, align 8
  %78 = getelementptr inbounds %"class.mojo::Message", %"class.mojo::Message"* %77, i64 0, i32 1, i32 2
  %79 = load i8*, i8** %78, align 8
  %80 = getelementptr inbounds i8, i8* %79, i64 %74
  %81 = bitcast i8* %80 to %"class.mojo::native::internal::NativeStruct_Data"*
  br label %82

82:                                               ; preds = %76, %58
  %83 = phi %"class.mojo::native::internal::NativeStruct_Data"* [ %81, %76 ], [ null, %58 ]
  %84 = bitcast i8* %73 to i64*
  %85 = icmp eq %"class.mojo::native::internal::NativeStruct_Data"* %83, null
  %86 = ptrtoint %"class.mojo::native::internal::NativeStruct_Data"* %83 to i64
  %87 = ptrtoint i8* %73 to i64
  %88 = sub i64 %86, %87
  %89 = select i1 %85, i64 0, i64 %88
  store i64 %89, i64* %84, align 8
  %90 = load i8*, i8** %16, align 8
  %91 = getelementptr inbounds i8, i8* %90, i64 %15
  %92 = getelementptr inbounds i8, i8* %91, i64 32
  %93 = bitcast i8* %92 to i32*
  store i32 %4, i32* %93, align 4
  call void @llvm.lifetime.start.p0i8(i64 1, i8* nonnull %12) #11
  store i8 0, i8* %12, align 1
  %94 = call i8* @_Znwm(i64 16) #12
  %95 = bitcast i8* %94 to i32 (...)***
  store i32 (...)** bitcast (i8** getelementptr inbounds ({ [6 x i8*] }, { [6 x i8*] }* @_ZTVN7network5mojom77NetworkServiceTest_MockCertVerifierAddResultForCertAndHost_HandleSyncResponseE, i64 0, inrange i32 0, i64 2) to i32 (...)**), i32 (...)*** %95, align 8
  %96 = getelementptr inbounds i8, i8* %94, i64 8
  %97 = bitcast i8* %96 to i8**
  store i8* %12, i8** %97, align 8
  %98 = bitcast i8* %94 to %"class.mojo::MessageReceiver"*
  %99 = getelementptr inbounds %"class.network::mojom::NetworkServiceTestProxy", %"class.network::mojom::NetworkServiceTestProxy"* %0, i64 0, i32 1
  %100 = load %"class.mojo::MessageReceiverWithResponder"*, %"class.mojo::MessageReceiverWithResponder"** %99, align 8
  %101 = bitcast %"class.mojo::MessageReceiverWithResponder"* %100 to i1 (%"class.mojo::MessageReceiverWithResponder"*, %"class.mojo::Message"*, %"class.mojo::MessageReceiver"*)***
  %102 = load i1 (%"class.mojo::MessageReceiverWithResponder"*, %"class.mojo::Message"*, %"class.mojo::MessageReceiver"*)**, i1 (%"class.mojo::MessageReceiverWithResponder"*, %"class.mojo::Message"*, %"class.mojo::MessageReceiver"*)*** %101, align 8
  %103 = getelementptr inbounds i1 (%"class.mojo::MessageReceiverWithResponder"*, %"class.mojo::Message"*, %"class.mojo::MessageReceiver"*)*, i1 (%"class.mojo::MessageReceiverWithResponder"*, %"class.mojo::Message"*, %"class.mojo::MessageReceiver"*)** %102, i64 4
  %104 = load i1 (%"class.mojo::MessageReceiverWithResponder"*, %"class.mojo::Message"*, %"class.mojo::MessageReceiver"*)*, i1 (%"class.mojo::MessageReceiverWithResponder"*, %"class.mojo::Message"*, %"class.mojo::MessageReceiver"*)** %103, align 8
  %105 = call zeroext i1 %104(%"class.mojo::MessageReceiverWithResponder"* %100, %"class.mojo::Message"* nonnull %8, %"class.mojo::MessageReceiver"* nonnull %98) #11
  %106 = load i8, i8* %12, align 1, !range !2
  %107 = icmp ne i8 %106, 0
  call void @llvm.lifetime.end.p0i8(i64 1, i8* nonnull %12) #11
  call void @llvm.lifetime.end.p0i8(i64 16, i8* nonnull %66) #11
  call void @llvm.lifetime.end.p0i8(i64 16, i8* nonnull %44) #11
  call void @llvm.lifetime.end.p0i8(i64 16, i8* nonnull %20) #11
  call void @_ZN4mojo7MessageD1Ev(%"class.mojo::Message"* nonnull %8) #11
  call void @llvm.lifetime.end.p0i8(i64 120, i8* nonnull %13) #11
  ret i1 %107
}

; Function Attrs: nounwind ssp uwtable
define hidden void @_ZN7network5mojom23NetworkServiceTestProxy39MockCertVerifierAddResultForCertAndHostERK13scoped_refptrIN3net15X509CertificateEERKNSt3__112basic_stringIcNS8_11char_traitsIcEENS8_9allocatorIcEEEERKNS3_16CertVerifyResultEiN4base12OnceCallbackIFvvEEE(%"class.network::mojom::NetworkServiceTestProxy"* nocapture readonly, %class.scoped_refptr.47* dereferenceable(8), %"class.std::__1::basic_string"* dereferenceable(24), %"class.net::CertVerifyResult"* dereferenceable(136), i32, %"class.base::OnceCallback"* nocapture) unnamed_addr #0 align 2 {
  %7 = alloca %"class.IPC::Message", align 8
  %8 = alloca %"class.IPC::Message", align 8
  %9 = alloca %"class.mojo::Message", align 8
  %10 = alloca %"class.mojo::internal::MessageFragment.104", align 8
  %11 = alloca %"class.mojo::internal::MessageFragment.109", align 8
  %12 = alloca %"class.mojo::internal::MessageFragment.104", align 8
  %13 = alloca %"class.base::OnceCallback", align 8
  %14 = bitcast %"class.mojo::Message"* %9 to i8*
  call void @llvm.lifetime.start.p0i8(i64 120, i8* nonnull %14) #11
  call void @llvm.memset.p0i8.i64(i8* nonnull align 8 %14, i8 -86, i64 120, i1 false)
  call void @_ZN4mojo7MessageC1EjjmmPNSt3__16vectorINS_16ScopedHandleBaseINS_6HandleEEENS1_9allocatorIS5_EEEE(%"class.mojo::Message"* nonnull %9, i32 278364737, i32 1, i64 0, i64 0, %"class.std::__1::vector.11"* null) #11
  %15 = getelementptr inbounds %"class.mojo::Message", %"class.mojo::Message"* %9, i64 0, i32 1
  %16 = call i64 @_ZN4mojo8internal6Buffer8AllocateEm(%"class.mojo::internal::Buffer"* %15, i64 40) #11
  %17 = getelementptr inbounds %"class.mojo::Message", %"class.mojo::Message"* %9, i64 0, i32 1, i32 2
  %18 = load i8*, i8** %17, align 8
  %19 = getelementptr inbounds i8, i8* %18, i64 %16
  %20 = bitcast i8* %19 to %"class.network::mojom::internal::NetworkServiceTest_MockCertVerifierAddResultForCertAndHost_Params_Data"*
  call void @_ZN7network5mojom8internal70NetworkServiceTest_MockCertVerifierAddResultForCertAndHost_Params_DataC1Ev(%"class.network::mojom::internal::NetworkServiceTest_MockCertVerifierAddResultForCertAndHost_Params_Data"* %20) #11
  %21 = bitcast %"class.mojo::internal::MessageFragment.104"* %10 to i8*
  call void @llvm.lifetime.start.p0i8(i64 16, i8* nonnull %21) #11
  %22 = getelementptr inbounds %"class.mojo::internal::MessageFragment.104", %"class.mojo::internal::MessageFragment.104"* %10, i64 0, i32 0
  %23 = getelementptr inbounds %"class.mojo::internal::MessageFragment.104", %"class.mojo::internal::MessageFragment.104"* %10, i64 0, i32 1
  store %"class.mojo::Message"* %9, %"class.mojo::Message"** %22, align 8
  store i64 -1, i64* %23, align 8
  %24 = bitcast %"class.IPC::Message"* %8 to i8*
  call void @llvm.lifetime.start.p0i8(i64 56, i8* nonnull %24) #11
  call void @llvm.memset.p0i8.i64(i8* nonnull align 8 %24, i8 -86, i64 56, i1 false) #11
  call void @_ZN3IPC7MessageC1Ev(%"class.IPC::Message"* nonnull %8) #11
  %25 = getelementptr inbounds %"class.IPC::Message", %"class.IPC::Message"* %8, i64 0, i32 0
  call void @_ZN3IPC11ParamTraitsI13scoped_refptrIN3net15X509CertificateEEE5WriteEPN4base6PickleERKS4_(%"class.base::Pickle"* nonnull %25, %class.scoped_refptr.47* dereferenceable(8) %1) #11
  call void @_ZN4mojo8internal34UnmappedNativeStructSerializerImpl24SerializeMessageContentsEPN3IPC7MessageERNS0_15MessageFragmentINS_6native8internal17NativeStruct_DataEEE(%"class.IPC::Message"* nonnull %8, %"class.mojo::internal::MessageFragment.104"* nonnull dereferenceable(16) %10) #11
  call void @_ZN3IPC7MessageD1Ev(%"class.IPC::Message"* nonnull %8) #11
  call void @llvm.lifetime.end.p0i8(i64 56, i8* nonnull %24) #11
  %26 = load i8*, i8** %17, align 8
  %27 = getelementptr inbounds i8, i8* %26, i64 %16
  %28 = getelementptr inbounds i8, i8* %27, i64 8
  %29 = load i64, i64* %23, align 8
  %30 = icmp eq i64 %29, -1
  br i1 %30, label %37, label %31

31:                                               ; preds = %6
  %32 = load %"class.mojo::Message"*, %"class.mojo::Message"** %22, align 8
  %33 = getelementptr inbounds %"class.mojo::Message", %"class.mojo::Message"* %32, i64 0, i32 1, i32 2
  %34 = load i8*, i8** %33, align 8
  %35 = getelementptr inbounds i8, i8* %34, i64 %29
  %36 = bitcast i8* %35 to %"class.mojo::native::internal::NativeStruct_Data"*
  br label %37

37:                                               ; preds = %6, %31
  %38 = phi %"class.mojo::native::internal::NativeStruct_Data"* [ %36, %31 ], [ null, %6 ]
  %39 = bitcast i8* %28 to i64*
  %40 = icmp eq %"class.mojo::native::internal::NativeStruct_Data"* %38, null
  %41 = ptrtoint %"class.mojo::native::internal::NativeStruct_Data"* %38 to i64
  %42 = ptrtoint i8* %28 to i64
  %43 = sub i64 %41, %42
  %44 = select i1 %40, i64 0, i64 %43
  store i64 %44, i64* %39, align 8
  %45 = bitcast %"class.mojo::internal::MessageFragment.109"* %11 to i8*
  call void @llvm.lifetime.start.p0i8(i64 16, i8* nonnull %45) #11
  %46 = getelementptr inbounds %"class.mojo::internal::MessageFragment.109", %"class.mojo::internal::MessageFragment.109"* %11, i64 0, i32 0
  %47 = getelementptr inbounds %"class.mojo::internal::MessageFragment.109", %"class.mojo::internal::MessageFragment.109"* %11, i64 0, i32 1
  store %"class.mojo::Message"* %9, %"class.mojo::Message"** %46, align 8
  store i64 -1, i64* %47, align 8
  call void @_ZN4mojo8internal10SerializerINS_14StringDataViewEKNSt3__112basic_stringIcNS3_11char_traitsIcEENS3_9allocatorIcEEEEE9SerializeERSA_RNS0_15MessageFragmentINS0_10Array_DataIcEEEE(%"class.std::__1::basic_string"* dereferenceable(24) %2, %"class.mojo::internal::MessageFragment.109"* nonnull dereferenceable(16) %11) #11
  %48 = load i8*, i8** %17, align 8
  %49 = getelementptr inbounds i8, i8* %48, i64 %16
  %50 = getelementptr inbounds i8, i8* %49, i64 16
  %51 = load i64, i64* %47, align 8
  %52 = icmp eq i64 %51, -1
  br i1 %52, label %59, label %53

53:                                               ; preds = %37
  %54 = load %"class.mojo::Message"*, %"class.mojo::Message"** %46, align 8
  %55 = getelementptr inbounds %"class.mojo::Message", %"class.mojo::Message"* %54, i64 0, i32 1, i32 2
  %56 = load i8*, i8** %55, align 8
  %57 = getelementptr inbounds i8, i8* %56, i64 %51
  %58 = bitcast i8* %57 to %"class.mojo::internal::Array_Data.110"*
  br label %59

59:                                               ; preds = %37, %53
  %60 = phi %"class.mojo::internal::Array_Data.110"* [ %58, %53 ], [ null, %37 ]
  %61 = bitcast i8* %50 to i64*
  %62 = icmp eq %"class.mojo::internal::Array_Data.110"* %60, null
  %63 = ptrtoint %"class.mojo::internal::Array_Data.110"* %60 to i64
  %64 = ptrtoint i8* %50 to i64
  %65 = sub i64 %63, %64
  %66 = select i1 %62, i64 0, i64 %65
  store i64 %66, i64* %61, align 8
  %67 = bitcast %"class.mojo::internal::MessageFragment.104"* %12 to i8*
  call void @llvm.lifetime.start.p0i8(i64 16, i8* nonnull %67) #11
  %68 = getelementptr inbounds %"class.mojo::internal::MessageFragment.104", %"class.mojo::internal::MessageFragment.104"* %12, i64 0, i32 0
  %69 = getelementptr inbounds %"class.mojo::internal::MessageFragment.104", %"class.mojo::internal::MessageFragment.104"* %12, i64 0, i32 1
  store %"class.mojo::Message"* %9, %"class.mojo::Message"** %68, align 8
  store i64 -1, i64* %69, align 8
  %70 = bitcast %"class.IPC::Message"* %7 to i8*
  call void @llvm.lifetime.start.p0i8(i64 56, i8* nonnull %70) #11
  call void @llvm.memset.p0i8.i64(i8* nonnull align 8 %70, i8 -86, i64 56, i1 false) #11
  call void @_ZN3IPC7MessageC1Ev(%"class.IPC::Message"* nonnull %7) #11
  %71 = getelementptr inbounds %"class.IPC::Message", %"class.IPC::Message"* %7, i64 0, i32 0
  call void @_ZN3IPC11ParamTraitsIN3net16CertVerifyResultEE5WriteEPN4base6PickleERKS2_(%"class.base::Pickle"* nonnull %71, %"class.net::CertVerifyResult"* dereferenceable(136) %3) #11
  call void @_ZN4mojo8internal34UnmappedNativeStructSerializerImpl24SerializeMessageContentsEPN3IPC7MessageERNS0_15MessageFragmentINS_6native8internal17NativeStruct_DataEEE(%"class.IPC::Message"* nonnull %7, %"class.mojo::internal::MessageFragment.104"* nonnull dereferenceable(16) %12) #11
  call void @_ZN3IPC7MessageD1Ev(%"class.IPC::Message"* nonnull %7) #11
  call void @llvm.lifetime.end.p0i8(i64 56, i8* nonnull %70) #11
  %72 = load i8*, i8** %17, align 8
  %73 = getelementptr inbounds i8, i8* %72, i64 %16
  %74 = getelementptr inbounds i8, i8* %73, i64 24
  %75 = load i64, i64* %69, align 8
  %76 = icmp eq i64 %75, -1
  br i1 %76, label %83, label %77

77:                                               ; preds = %59
  %78 = load %"class.mojo::Message"*, %"class.mojo::Message"** %68, align 8
  %79 = getelementptr inbounds %"class.mojo::Message", %"class.mojo::Message"* %78, i64 0, i32 1, i32 2
  %80 = load i8*, i8** %79, align 8
  %81 = getelementptr inbounds i8, i8* %80, i64 %75
  %82 = bitcast i8* %81 to %"class.mojo::native::internal::NativeStruct_Data"*
  br label %83

83:                                               ; preds = %77, %59
  %84 = phi %"class.mojo::native::internal::NativeStruct_Data"* [ %82, %77 ], [ null, %59 ]
  %85 = bitcast i8* %74 to i64*
  %86 = icmp eq %"class.mojo::native::internal::NativeStruct_Data"* %84, null
  %87 = ptrtoint %"class.mojo::native::internal::NativeStruct_Data"* %84 to i64
  %88 = ptrtoint i8* %74 to i64
  %89 = sub i64 %87, %88
  %90 = select i1 %86, i64 0, i64 %89
  store i64 %90, i64* %85, align 8
  %91 = load i8*, i8** %17, align 8
  %92 = getelementptr inbounds i8, i8* %91, i64 %16
  %93 = getelementptr inbounds i8, i8* %92, i64 32
  %94 = bitcast i8* %93 to i32*
  store i32 %4, i32* %94, align 4
  %95 = call i8* @_Znwm(i64 16) #12
  %96 = getelementptr inbounds %"class.base::OnceCallback", %"class.base::OnceCallback"* %5, i64 0, i32 0, i32 0, i32 0
  %97 = bitcast %"class.base::OnceCallback"* %5 to i64*
  %98 = load i64, i64* %97, align 8
  store %"class.base::internal::BindStateBase"* null, %"class.base::internal::BindStateBase"** %96, align 8
  %99 = bitcast i8* %95 to i32 (...)***
  store i32 (...)** bitcast (i8** getelementptr inbounds ({ [6 x i8*] }, { [6 x i8*] }* @_ZTVN7network5mojom76NetworkServiceTest_MockCertVerifierAddResultForCertAndHost_ForwardToCallbackE, i64 0, inrange i32 0, i64 2) to i32 (...)**), i32 (...)*** %99, align 8
  %100 = getelementptr inbounds i8, i8* %95, i64 8
  %101 = getelementptr inbounds %"class.base::OnceCallback", %"class.base::OnceCallback"* %13, i64 0, i32 0, i32 0, i32 0
  %102 = bitcast i8* %100 to i64*
  store i64 %98, i64* %102, align 8
  store %"class.base::internal::BindStateBase"* null, %"class.base::internal::BindStateBase"** %101, align 8
  %103 = bitcast i8* %95 to %"class.mojo::MessageReceiver"*
  %104 = getelementptr inbounds %"class.base::OnceCallback", %"class.base::OnceCallback"* %13, i64 0, i32 0
  call void @_ZN4base8internal12CallbackBaseD2Ev(%"class.base::internal::CallbackBase"* nonnull %104) #11
  %105 = getelementptr inbounds %"class.network::mojom::NetworkServiceTestProxy", %"class.network::mojom::NetworkServiceTestProxy"* %0, i64 0, i32 1
  %106 = load %"class.mojo::MessageReceiverWithResponder"*, %"class.mojo::MessageReceiverWithResponder"** %105, align 8
  %107 = bitcast %"class.mojo::MessageReceiverWithResponder"* %106 to i1 (%"class.mojo::MessageReceiverWithResponder"*, %"class.mojo::Message"*, %"class.mojo::MessageReceiver"*)***
  %108 = load i1 (%"class.mojo::MessageReceiverWithResponder"*, %"class.mojo::Message"*, %"class.mojo::MessageReceiver"*)**, i1 (%"class.mojo::MessageReceiverWithResponder"*, %"class.mojo::Message"*, %"class.mojo::MessageReceiver"*)*** %107, align 8
  %109 = getelementptr inbounds i1 (%"class.mojo::MessageReceiverWithResponder"*, %"class.mojo::Message"*, %"class.mojo::MessageReceiver"*)*, i1 (%"class.mojo::MessageReceiverWithResponder"*, %"class.mojo::Message"*, %"class.mojo::MessageReceiver"*)** %108, i64 4
  %110 = load i1 (%"class.mojo::MessageReceiverWithResponder"*, %"class.mojo::Message"*, %"class.mojo::MessageReceiver"*)*, i1 (%"class.mojo::MessageReceiverWithResponder"*, %"class.mojo::Message"*, %"class.mojo::MessageReceiver"*)** %109, align 8
  %111 = call zeroext i1 %110(%"class.mojo::MessageReceiverWithResponder"* %106, %"class.mojo::Message"* nonnull %9, %"class.mojo::MessageReceiver"* nonnull %103) #11
  call void @llvm.lifetime.end.p0i8(i64 16, i8* nonnull %67) #11
  call void @llvm.lifetime.end.p0i8(i64 16, i8* nonnull %45) #11
  call void @llvm.lifetime.end.p0i8(i64 16, i8* nonnull %21) #11
  call void @_ZN4mojo7MessageD1Ev(%"class.mojo::Message"* nonnull %9) #11
  call void @llvm.lifetime.end.p0i8(i64 120, i8* nonnull %14) #11
  ret void
}

; Function Attrs: nounwind ssp uwtable
define hidden zeroext i1 @_ZN7network5mojom23NetworkServiceTestProxy12SetRequireCTENS0_28NetworkServiceTest_RequireCTE(%"class.network::mojom::NetworkServiceTestProxy"* nocapture readonly, i32) unnamed_addr #0 align 2 {
  %3 = alloca %"class.mojo::Message", align 8
  %4 = alloca i8, align 1
  %5 = bitcast %"class.mojo::Message"* %3 to i8*
  call void @llvm.lifetime.start.p0i8(i64 120, i8* nonnull %5) #11
  call void @llvm.memset.p0i8.i64(i8* nonnull align 8 %5, i8 -86, i64 120, i1 false)
  call void @_ZN4mojo7MessageC1EjjmmPNSt3__16vectorINS_16ScopedHandleBaseINS_6HandleEEENS1_9allocatorIS5_EEEE(%"class.mojo::Message"* nonnull %3, i32 401814863, i32 5, i64 0, i64 0, %"class.std::__1::vector.11"* null) #11
  %6 = getelementptr inbounds %"class.mojo::Message", %"class.mojo::Message"* %3, i64 0, i32 1
  %7 = call i64 @_ZN4mojo8internal6Buffer8AllocateEm(%"class.mojo::internal::Buffer"* %6, i64 16) #11
  %8 = getelementptr inbounds %"class.mojo::Message", %"class.mojo::Message"* %3, i64 0, i32 1, i32 2
  %9 = load i8*, i8** %8, align 8
  %10 = getelementptr inbounds i8, i8* %9, i64 %7
  %11 = bitcast i8* %10 to %"class.network::mojom::internal::NetworkServiceTest_SetRequireCT_Params_Data"*
  call void @_ZN7network5mojom8internal43NetworkServiceTest_SetRequireCT_Params_DataC1Ev(%"class.network::mojom::internal::NetworkServiceTest_SetRequireCT_Params_Data"* %11) #11
  %12 = load i8*, i8** %8, align 8
  %13 = getelementptr inbounds i8, i8* %12, i64 %7
  %14 = getelementptr inbounds i8, i8* %13, i64 8
  %15 = bitcast i8* %14 to i32*
  store i32 %1, i32* %15, align 4
  call void @llvm.lifetime.start.p0i8(i64 1, i8* nonnull %4) #11
  store i8 0, i8* %4, align 1
  %16 = call i8* @_Znwm(i64 16) #12
  %17 = bitcast i8* %16 to i32 (...)***
  store i32 (...)** bitcast (i8** getelementptr inbounds ({ [6 x i8*] }, { [6 x i8*] }* @_ZTVN7network5mojom50NetworkServiceTest_SetRequireCT_HandleSyncResponseE, i64 0, inrange i32 0, i64 2) to i32 (...)**), i32 (...)*** %17, align 8
  %18 = getelementptr inbounds i8, i8* %16, i64 8
  %19 = bitcast i8* %18 to i8**
  store i8* %4, i8** %19, align 8
  %20 = bitcast i8* %16 to %"class.mojo::MessageReceiver"*
  %21 = getelementptr inbounds %"class.network::mojom::NetworkServiceTestProxy", %"class.network::mojom::NetworkServiceTestProxy"* %0, i64 0, i32 1
  %22 = load %"class.mojo::MessageReceiverWithResponder"*, %"class.mojo::MessageReceiverWithResponder"** %21, align 8
  %23 = bitcast %"class.mojo::MessageReceiverWithResponder"* %22 to i1 (%"class.mojo::MessageReceiverWithResponder"*, %"class.mojo::Message"*, %"class.mojo::MessageReceiver"*)***
  %24 = load i1 (%"class.mojo::MessageReceiverWithResponder"*, %"class.mojo::Message"*, %"class.mojo::MessageReceiver"*)**, i1 (%"class.mojo::MessageReceiverWithResponder"*, %"class.mojo::Message"*, %"class.mojo::MessageReceiver"*)*** %23, align 8
  %25 = getelementptr inbounds i1 (%"class.mojo::MessageReceiverWithResponder"*, %"class.mojo::Message"*, %"class.mojo::MessageReceiver"*)*, i1 (%"class.mojo::MessageReceiverWithResponder"*, %"class.mojo::Message"*, %"class.mojo::MessageReceiver"*)** %24, i64 4
  %26 = load i1 (%"class.mojo::MessageReceiverWithResponder"*, %"class.mojo::Message"*, %"class.mojo::MessageReceiver"*)*, i1 (%"class.mojo::MessageReceiverWithResponder"*, %"class.mojo::Message"*, %"class.mojo::MessageReceiver"*)** %25, align 8
  %27 = call zeroext i1 %26(%"class.mojo::MessageReceiverWithResponder"* %22, %"class.mojo::Message"* nonnull %3, %"class.mojo::MessageReceiver"* nonnull %20) #11
  %28 = load i8, i8* %4, align 1, !range !2
  %29 = icmp ne i8 %28, 0
  call void @llvm.lifetime.end.p0i8(i64 1, i8* nonnull %4) #11
  call void @_ZN4mojo7MessageD1Ev(%"class.mojo::Message"* nonnull %3) #11
  call void @llvm.lifetime.end.p0i8(i64 120, i8* nonnull %5) #11
  ret i1 %29
}

; Function Attrs: nounwind ssp uwtable
define hidden void @_ZN7network5mojom23NetworkServiceTestProxy12SetRequireCTENS0_28NetworkServiceTest_RequireCTEN4base12OnceCallbackIFvvEEE(%"class.network::mojom::NetworkServiceTestProxy"* nocapture readonly, i32, %"class.base::OnceCallback"* nocapture) unnamed_addr #0 align 2 {
  %4 = alloca %"class.mojo::Message", align 8
  %5 = alloca %"class.base::OnceCallback", align 8
  %6 = bitcast %"class.mojo::Message"* %4 to i8*
  call void @llvm.lifetime.start.p0i8(i64 120, i8* nonnull %6) #11
  call void @llvm.memset.p0i8.i64(i8* nonnull align 8 %6, i8 -86, i64 120, i1 false)
  call void @_ZN4mojo7MessageC1EjjmmPNSt3__16vectorINS_16ScopedHandleBaseINS_6HandleEEENS1_9allocatorIS5_EEEE(%"class.mojo::Message"* nonnull %4, i32 401814863, i32 1, i64 0, i64 0, %"class.std::__1::vector.11"* null) #11
  %7 = getelementptr inbounds %"class.mojo::Message", %"class.mojo::Message"* %4, i64 0, i32 1
  %8 = call i64 @_ZN4mojo8internal6Buffer8AllocateEm(%"class.mojo::internal::Buffer"* %7, i64 16) #11
  %9 = getelementptr inbounds %"class.mojo::Message", %"class.mojo::Message"* %4, i64 0, i32 1, i32 2
  %10 = load i8*, i8** %9, align 8
  %11 = getelementptr inbounds i8, i8* %10, i64 %8
  %12 = bitcast i8* %11 to %"class.network::mojom::internal::NetworkServiceTest_SetRequireCT_Params_Data"*
  call void @_ZN7network5mojom8internal43NetworkServiceTest_SetRequireCT_Params_DataC1Ev(%"class.network::mojom::internal::NetworkServiceTest_SetRequireCT_Params_Data"* %12) #11
  %13 = load i8*, i8** %9, align 8
  %14 = getelementptr inbounds i8, i8* %13, i64 %8
  %15 = getelementptr inbounds i8, i8* %14, i64 8
  %16 = bitcast i8* %15 to i32*
  store i32 %1, i32* %16, align 4
  %17 = call i8* @_Znwm(i64 16) #12
  %18 = getelementptr inbounds %"class.base::OnceCallback", %"class.base::OnceCallback"* %2, i64 0, i32 0, i32 0, i32 0
  %19 = bitcast %"class.base::OnceCallback"* %2 to i64*
  %20 = load i64, i64* %19, align 8
  store %"class.base::internal::BindStateBase"* null, %"class.base::internal::BindStateBase"** %18, align 8
  %21 = bitcast i8* %17 to i32 (...)***
  store i32 (...)** bitcast (i8** getelementptr inbounds ({ [6 x i8*] }, { [6 x i8*] }* @_ZTVN7network5mojom49NetworkServiceTest_SetRequireCT_ForwardToCallbackE, i64 0, inrange i32 0, i64 2) to i32 (...)**), i32 (...)*** %21, align 8
  %22 = getelementptr inbounds i8, i8* %17, i64 8
  %23 = getelementptr inbounds %"class.base::OnceCallback", %"class.base::OnceCallback"* %5, i64 0, i32 0, i32 0, i32 0
  %24 = bitcast i8* %22 to i64*
  store i64 %20, i64* %24, align 8
  store %"class.base::internal::BindStateBase"* null, %"class.base::internal::BindStateBase"** %23, align 8
  %25 = bitcast i8* %17 to %"class.mojo::MessageReceiver"*
  %26 = getelementptr inbounds %"class.base::OnceCallback", %"class.base::OnceCallback"* %5, i64 0, i32 0
  call void @_ZN4base8internal12CallbackBaseD2Ev(%"class.base::internal::CallbackBase"* nonnull %26) #11
  %27 = getelementptr inbounds %"class.network::mojom::NetworkServiceTestProxy", %"class.network::mojom::NetworkServiceTestProxy"* %0, i64 0, i32 1
  %28 = load %"class.mojo::MessageReceiverWithResponder"*, %"class.mojo::MessageReceiverWithResponder"** %27, align 8
  %29 = bitcast %"class.mojo::MessageReceiverWithResponder"* %28 to i1 (%"class.mojo::MessageReceiverWithResponder"*, %"class.mojo::Message"*, %"class.mojo::MessageReceiver"*)***
  %30 = load i1 (%"class.mojo::MessageReceiverWithResponder"*, %"class.mojo::Message"*, %"class.mojo::MessageReceiver"*)**, i1 (%"class.mojo::MessageReceiverWithResponder"*, %"class.mojo::Message"*, %"class.mojo::MessageReceiver"*)*** %29, align 8
  %31 = getelementptr inbounds i1 (%"class.mojo::MessageReceiverWithResponder"*, %"class.mojo::Message"*, %"class.mojo::MessageReceiver"*)*, i1 (%"class.mojo::MessageReceiverWithResponder"*, %"class.mojo::Message"*, %"class.mojo::MessageReceiver"*)** %30, i64 4
  %32 = load i1 (%"class.mojo::MessageReceiverWithResponder"*, %"class.mojo::Message"*, %"class.mojo::MessageReceiver"*)*, i1 (%"class.mojo::MessageReceiverWithResponder"*, %"class.mojo::Message"*, %"class.mojo::MessageReceiver"*)** %31, align 8
  %33 = call zeroext i1 %32(%"class.mojo::MessageReceiverWithResponder"* %28, %"class.mojo::Message"* nonnull %4, %"class.mojo::MessageReceiver"* nonnull %25) #11
  call void @_ZN4mojo7MessageD1Ev(%"class.mojo::Message"* nonnull %4) #11
  call void @llvm.lifetime.end.p0i8(i64 120, i8* nonnull %6) #11
  ret void
}

; Function Attrs: nounwind ssp uwtable
define hidden zeroext i1 @_ZN7network5mojom23NetworkServiceTestProxy31SetTransportSecurityStateSourceEt(%"class.network::mojom::NetworkServiceTestProxy"* nocapture readonly, i16 zeroext) unnamed_addr #0 align 2 {
  %3 = alloca %"class.mojo::Message", align 8
  %4 = alloca i8, align 1
  %5 = bitcast %"class.mojo::Message"* %3 to i8*
  call void @llvm.lifetime.start.p0i8(i64 120, i8* nonnull %5) #11
  call void @llvm.memset.p0i8.i64(i8* nonnull align 8 %5, i8 -86, i64 120, i1 false)
  call void @_ZN4mojo7MessageC1EjjmmPNSt3__16vectorINS_16ScopedHandleBaseINS_6HandleEEENS1_9allocatorIS5_EEEE(%"class.mojo::Message"* nonnull %3, i32 1633370188, i32 5, i64 0, i64 0, %"class.std::__1::vector.11"* null) #11
  %6 = getelementptr inbounds %"class.mojo::Message", %"class.mojo::Message"* %3, i64 0, i32 1
  %7 = call i64 @_ZN4mojo8internal6Buffer8AllocateEm(%"class.mojo::internal::Buffer"* %6, i64 16) #11
  %8 = getelementptr inbounds %"class.mojo::Message", %"class.mojo::Message"* %3, i64 0, i32 1, i32 2
  %9 = load i8*, i8** %8, align 8
  %10 = getelementptr inbounds i8, i8* %9, i64 %7
  %11 = bitcast i8* %10 to %"class.network::mojom::internal::NetworkServiceTest_SetTransportSecurityStateSource_Params_Data"*
  call void @_ZN7network5mojom8internal62NetworkServiceTest_SetTransportSecurityStateSource_Params_DataC1Ev(%"class.network::mojom::internal::NetworkServiceTest_SetTransportSecurityStateSource_Params_Data"* %11) #11
  %12 = load i8*, i8** %8, align 8
  %13 = getelementptr inbounds i8, i8* %12, i64 %7
  %14 = getelementptr inbounds i8, i8* %13, i64 8
  %15 = bitcast i8* %14 to i16*
  store i16 %1, i16* %15, align 2
  call void @llvm.lifetime.start.p0i8(i64 1, i8* nonnull %4) #11
  store i8 0, i8* %4, align 1
  %16 = call i8* @_Znwm(i64 16) #12
  %17 = bitcast i8* %16 to i32 (...)***
  store i32 (...)** bitcast (i8** getelementptr inbounds ({ [6 x i8*] }, { [6 x i8*] }* @_ZTVN7network5mojom69NetworkServiceTest_SetTransportSecurityStateSource_HandleSyncResponseE, i64 0, inrange i32 0, i64 2) to i32 (...)**), i32 (...)*** %17, align 8
  %18 = getelementptr inbounds i8, i8* %16, i64 8
  %19 = bitcast i8* %18 to i8**
  store i8* %4, i8** %19, align 8
  %20 = bitcast i8* %16 to %"class.mojo::MessageReceiver"*
  %21 = getelementptr inbounds %"class.network::mojom::NetworkServiceTestProxy", %"class.network::mojom::NetworkServiceTestProxy"* %0, i64 0, i32 1
  %22 = load %"class.mojo::MessageReceiverWithResponder"*, %"class.mojo::MessageReceiverWithResponder"** %21, align 8
  %23 = bitcast %"class.mojo::MessageReceiverWithResponder"* %22 to i1 (%"class.mojo::MessageReceiverWithResponder"*, %"class.mojo::Message"*, %"class.mojo::MessageReceiver"*)***
  %24 = load i1 (%"class.mojo::MessageReceiverWithResponder"*, %"class.mojo::Message"*, %"class.mojo::MessageReceiver"*)**, i1 (%"class.mojo::MessageReceiverWithResponder"*, %"class.mojo::Message"*, %"class.mojo::MessageReceiver"*)*** %23, align 8
  %25 = getelementptr inbounds i1 (%"class.mojo::MessageReceiverWithResponder"*, %"class.mojo::Message"*, %"class.mojo::MessageReceiver"*)*, i1 (%"class.mojo::MessageReceiverWithResponder"*, %"class.mojo::Message"*, %"class.mojo::MessageReceiver"*)** %24, i64 4
  %26 = load i1 (%"class.mojo::MessageReceiverWithResponder"*, %"class.mojo::Message"*, %"class.mojo::MessageReceiver"*)*, i1 (%"class.mojo::MessageReceiverWithResponder"*, %"class.mojo::Message"*, %"class.mojo::MessageReceiver"*)** %25, align 8
  %27 = call zeroext i1 %26(%"class.mojo::MessageReceiverWithResponder"* %22, %"class.mojo::Message"* nonnull %3, %"class.mojo::MessageReceiver"* nonnull %20) #11
  %28 = load i8, i8* %4, align 1, !range !2
  %29 = icmp ne i8 %28, 0
  call void @llvm.lifetime.end.p0i8(i64 1, i8* nonnull %4) #11
  call void @_ZN4mojo7MessageD1Ev(%"class.mojo::Message"* nonnull %3) #11
  call void @llvm.lifetime.end.p0i8(i64 120, i8* nonnull %5) #11
  ret i1 %29
}

; Function Attrs: nounwind ssp uwtable
define hidden void @_ZN7network5mojom23NetworkServiceTestProxy31SetTransportSecurityStateSourceEtN4base12OnceCallbackIFvvEEE(%"class.network::mojom::NetworkServiceTestProxy"* nocapture readonly, i16 zeroext, %"class.base::OnceCallback"* nocapture) unnamed_addr #0 align 2 {
  %4 = alloca %"class.mojo::Message", align 8
  %5 = alloca %"class.base::OnceCallback", align 8
  %6 = bitcast %"class.mojo::Message"* %4 to i8*
  call void @llvm.lifetime.start.p0i8(i64 120, i8* nonnull %6) #11
  call void @llvm.memset.p0i8.i64(i8* nonnull align 8 %6, i8 -86, i64 120, i1 false)
  call void @_ZN4mojo7MessageC1EjjmmPNSt3__16vectorINS_16ScopedHandleBaseINS_6HandleEEENS1_9allocatorIS5_EEEE(%"class.mojo::Message"* nonnull %4, i32 1633370188, i32 1, i64 0, i64 0, %"class.std::__1::vector.11"* null) #11
  %7 = getelementptr inbounds %"class.mojo::Message", %"class.mojo::Message"* %4, i64 0, i32 1
  %8 = call i64 @_ZN4mojo8internal6Buffer8AllocateEm(%"class.mojo::internal::Buffer"* %7, i64 16) #11
  %9 = getelementptr inbounds %"class.mojo::Message", %"class.mojo::Message"* %4, i64 0, i32 1, i32 2
  %10 = load i8*, i8** %9, align 8
  %11 = getelementptr inbounds i8, i8* %10, i64 %8
  %12 = bitcast i8* %11 to %"class.network::mojom::internal::NetworkServiceTest_SetTransportSecurityStateSource_Params_Data"*
  call void @_ZN7network5mojom8internal62NetworkServiceTest_SetTransportSecurityStateSource_Params_DataC1Ev(%"class.network::mojom::internal::NetworkServiceTest_SetTransportSecurityStateSource_Params_Data"* %12) #11
  %13 = load i8*, i8** %9, align 8
  %14 = getelementptr inbounds i8, i8* %13, i64 %8
  %15 = getelementptr inbounds i8, i8* %14, i64 8
  %16 = bitcast i8* %15 to i16*
  store i16 %1, i16* %16, align 2
  %17 = call i8* @_Znwm(i64 16) #12
  %18 = getelementptr inbounds %"class.base::OnceCallback", %"class.base::OnceCallback"* %2, i64 0, i32 0, i32 0, i32 0
  %19 = bitcast %"class.base::OnceCallback"* %2 to i64*
  %20 = load i64, i64* %19, align 8
  store %"class.base::internal::BindStateBase"* null, %"class.base::internal::BindStateBase"** %18, align 8
  %21 = bitcast i8* %17 to i32 (...)***
  store i32 (...)** bitcast (i8** getelementptr inbounds ({ [6 x i8*] }, { [6 x i8*] }* @_ZTVN7network5mojom68NetworkServiceTest_SetTransportSecurityStateSource_ForwardToCallbackE, i64 0, inrange i32 0, i64 2) to i32 (...)**), i32 (...)*** %21, align 8
  %22 = getelementptr inbounds i8, i8* %17, i64 8
  %23 = getelementptr inbounds %"class.base::OnceCallback", %"class.base::OnceCallback"* %5, i64 0, i32 0, i32 0, i32 0
  %24 = bitcast i8* %22 to i64*
  store i64 %20, i64* %24, align 8
  store %"class.base::internal::BindStateBase"* null, %"class.base::internal::BindStateBase"** %23, align 8
  %25 = bitcast i8* %17 to %"class.mojo::MessageReceiver"*
  %26 = getelementptr inbounds %"class.base::OnceCallback", %"class.base::OnceCallback"* %5, i64 0, i32 0
  call void @_ZN4base8internal12CallbackBaseD2Ev(%"class.base::internal::CallbackBase"* nonnull %26) #11
  %27 = getelementptr inbounds %"class.network::mojom::NetworkServiceTestProxy", %"class.network::mojom::NetworkServiceTestProxy"* %0, i64 0, i32 1
  %28 = load %"class.mojo::MessageReceiverWithResponder"*, %"class.mojo::MessageReceiverWithResponder"** %27, align 8
  %29 = bitcast %"class.mojo::MessageReceiverWithResponder"* %28 to i1 (%"class.mojo::MessageReceiverWithResponder"*, %"class.mojo::Message"*, %"class.mojo::MessageReceiver"*)***
  %30 = load i1 (%"class.mojo::MessageReceiverWithResponder"*, %"class.mojo::Message"*, %"class.mojo::MessageReceiver"*)**, i1 (%"class.mojo::MessageReceiverWithResponder"*, %"class.mojo::Message"*, %"class.mojo::MessageReceiver"*)*** %29, align 8
  %31 = getelementptr inbounds i1 (%"class.mojo::MessageReceiverWithResponder"*, %"class.mojo::Message"*, %"class.mojo::MessageReceiver"*)*, i1 (%"class.mojo::MessageReceiverWithResponder"*, %"class.mojo::Message"*, %"class.mojo::MessageReceiver"*)** %30, i64 4
  %32 = load i1 (%"class.mojo::MessageReceiverWithResponder"*, %"class.mojo::Message"*, %"class.mojo::MessageReceiver"*)*, i1 (%"class.mojo::MessageReceiverWithResponder"*, %"class.mojo::Message"*, %"class.mojo::MessageReceiver"*)** %31, align 8
  %33 = call zeroext i1 %32(%"class.mojo::MessageReceiverWithResponder"* %28, %"class.mojo::Message"* nonnull %4, %"class.mojo::MessageReceiver"* nonnull %25) #11
  call void @_ZN4mojo7MessageD1Ev(%"class.mojo::Message"* nonnull %4) #11
  call void @llvm.lifetime.end.p0i8(i64 120, i8* nonnull %6) #11
  ret void
}

; Function Attrs: nounwind ssp uwtable
define hidden zeroext i1 @_ZN7network5mojom23NetworkServiceTestProxy38SetAllowNetworkAccessToHostResolutionsEv(%"class.network::mojom::NetworkServiceTestProxy"* nocapture readonly) unnamed_addr #0 align 2 {
  %2 = alloca %"class.mojo::Message", align 8
  %3 = alloca i8, align 1
  %4 = bitcast %"class.mojo::Message"* %2 to i8*
  call void @llvm.lifetime.start.p0i8(i64 120, i8* nonnull %4) #11
  call void @llvm.memset.p0i8.i64(i8* nonnull align 8 %4, i8 -86, i64 120, i1 false)
  call void @_ZN4mojo7MessageC1EjjmmPNSt3__16vectorINS_16ScopedHandleBaseINS_6HandleEEENS1_9allocatorIS5_EEEE(%"class.mojo::Message"* nonnull %2, i32 348381728, i32 5, i64 0, i64 0, %"class.std::__1::vector.11"* null) #11
  %5 = getelementptr inbounds %"class.mojo::Message", %"class.mojo::Message"* %2, i64 0, i32 1
  %6 = call i64 @_ZN4mojo8internal6Buffer8AllocateEm(%"class.mojo::internal::Buffer"* %5, i64 8) #11
  %7 = getelementptr inbounds %"class.mojo::Message", %"class.mojo::Message"* %2, i64 0, i32 1, i32 2
  %8 = load i8*, i8** %7, align 8
  %9 = getelementptr inbounds i8, i8* %8, i64 %6
  %10 = bitcast i8* %9 to %"class.network::mojom::internal::NetworkServiceTest_SetAllowNetworkAccessToHostResolutions_Params_Data"*
  call void @_ZN7network5mojom8internal69NetworkServiceTest_SetAllowNetworkAccessToHostResolutions_Params_DataC1Ev(%"class.network::mojom::internal::NetworkServiceTest_SetAllowNetworkAccessToHostResolutions_Params_Data"* %10) #11
  call void @llvm.lifetime.start.p0i8(i64 1, i8* nonnull %3) #11
  store i8 0, i8* %3, align 1
  %11 = call i8* @_Znwm(i64 16) #12
  %12 = bitcast i8* %11 to i32 (...)***
  store i32 (...)** bitcast (i8** getelementptr inbounds ({ [6 x i8*] }, { [6 x i8*] }* @_ZTVN7network5mojom76NetworkServiceTest_SetAllowNetworkAccessToHostResolutions_HandleSyncResponseE, i64 0, inrange i32 0, i64 2) to i32 (...)**), i32 (...)*** %12, align 8
  %13 = getelementptr inbounds i8, i8* %11, i64 8
  %14 = bitcast i8* %13 to i8**
  store i8* %3, i8** %14, align 8
  %15 = bitcast i8* %11 to %"class.mojo::MessageReceiver"*
  %16 = getelementptr inbounds %"class.network::mojom::NetworkServiceTestProxy", %"class.network::mojom::NetworkServiceTestProxy"* %0, i64 0, i32 1
  %17 = load %"class.mojo::MessageReceiverWithResponder"*, %"class.mojo::MessageReceiverWithResponder"** %16, align 8
  %18 = bitcast %"class.mojo::MessageReceiverWithResponder"* %17 to i1 (%"class.mojo::MessageReceiverWithResponder"*, %"class.mojo::Message"*, %"class.mojo::MessageReceiver"*)***
  %19 = load i1 (%"class.mojo::MessageReceiverWithResponder"*, %"class.mojo::Message"*, %"class.mojo::MessageReceiver"*)**, i1 (%"class.mojo::MessageReceiverWithResponder"*, %"class.mojo::Message"*, %"class.mojo::MessageReceiver"*)*** %18, align 8
  %20 = getelementptr inbounds i1 (%"class.mojo::MessageReceiverWithResponder"*, %"class.mojo::Message"*, %"class.mojo::MessageReceiver"*)*, i1 (%"class.mojo::MessageReceiverWithResponder"*, %"class.mojo::Message"*, %"class.mojo::MessageReceiver"*)** %19, i64 4
  %21 = load i1 (%"class.mojo::MessageReceiverWithResponder"*, %"class.mojo::Message"*, %"class.mojo::MessageReceiver"*)*, i1 (%"class.mojo::MessageReceiverWithResponder"*, %"class.mojo::Message"*, %"class.mojo::MessageReceiver"*)** %20, align 8
  %22 = call zeroext i1 %21(%"class.mojo::MessageReceiverWithResponder"* %17, %"class.mojo::Message"* nonnull %2, %"class.mojo::MessageReceiver"* nonnull %15) #11
  %23 = load i8, i8* %3, align 1, !range !2
  %24 = icmp ne i8 %23, 0
  call void @llvm.lifetime.end.p0i8(i64 1, i8* nonnull %3) #11
  call void @_ZN4mojo7MessageD1Ev(%"class.mojo::Message"* nonnull %2) #11
  call void @llvm.lifetime.end.p0i8(i64 120, i8* nonnull %4) #11
  ret i1 %24
}

; Function Attrs: nounwind ssp uwtable
define hidden void @_ZN7network5mojom23NetworkServiceTestProxy38SetAllowNetworkAccessToHostResolutionsEN4base12OnceCallbackIFvvEEE(%"class.network::mojom::NetworkServiceTestProxy"* nocapture readonly, %"class.base::OnceCallback"* nocapture) unnamed_addr #0 align 2 {
  %3 = alloca %"class.mojo::Message", align 8
  %4 = alloca %"class.base::OnceCallback", align 8
  %5 = bitcast %"class.mojo::Message"* %3 to i8*
  call void @llvm.lifetime.start.p0i8(i64 120, i8* nonnull %5) #11
  call void @llvm.memset.p0i8.i64(i8* nonnull align 8 %5, i8 -86, i64 120, i1 false)
  call void @_ZN4mojo7MessageC1EjjmmPNSt3__16vectorINS_16ScopedHandleBaseINS_6HandleEEENS1_9allocatorIS5_EEEE(%"class.mojo::Message"* nonnull %3, i32 348381728, i32 1, i64 0, i64 0, %"class.std::__1::vector.11"* null) #11
  %6 = getelementptr inbounds %"class.mojo::Message", %"class.mojo::Message"* %3, i64 0, i32 1
  %7 = call i64 @_ZN4mojo8internal6Buffer8AllocateEm(%"class.mojo::internal::Buffer"* %6, i64 8) #11
  %8 = getelementptr inbounds %"class.mojo::Message", %"class.mojo::Message"* %3, i64 0, i32 1, i32 2
  %9 = load i8*, i8** %8, align 8
  %10 = getelementptr inbounds i8, i8* %9, i64 %7
  %11 = bitcast i8* %10 to %"class.network::mojom::internal::NetworkServiceTest_SetAllowNetworkAccessToHostResolutions_Params_Data"*
  call void @_ZN7network5mojom8internal69NetworkServiceTest_SetAllowNetworkAccessToHostResolutions_Params_DataC1Ev(%"class.network::mojom::internal::NetworkServiceTest_SetAllowNetworkAccessToHostResolutions_Params_Data"* %11) #11
  %12 = call i8* @_Znwm(i64 16) #12
  %13 = getelementptr inbounds %"class.base::OnceCallback", %"class.base::OnceCallback"* %1, i64 0, i32 0, i32 0, i32 0
  %14 = bitcast %"class.base::OnceCallback"* %1 to i64*
  %15 = load i64, i64* %14, align 8
  store %"class.base::internal::BindStateBase"* null, %"class.base::internal::BindStateBase"** %13, align 8
  %16 = bitcast i8* %12 to i32 (...)***
  store i32 (...)** bitcast (i8** getelementptr inbounds ({ [6 x i8*] }, { [6 x i8*] }* @_ZTVN7network5mojom75NetworkServiceTest_SetAllowNetworkAccessToHostResolutions_ForwardToCallbackE, i64 0, inrange i32 0, i64 2) to i32 (...)**), i32 (...)*** %16, align 8
  %17 = getelementptr inbounds i8, i8* %12, i64 8
  %18 = getelementptr inbounds %"class.base::OnceCallback", %"class.base::OnceCallback"* %4, i64 0, i32 0, i32 0, i32 0
  %19 = bitcast i8* %17 to i64*
  store i64 %15, i64* %19, align 8
  store %"class.base::internal::BindStateBase"* null, %"class.base::internal::BindStateBase"** %18, align 8
  %20 = bitcast i8* %12 to %"class.mojo::MessageReceiver"*
  %21 = getelementptr inbounds %"class.base::OnceCallback", %"class.base::OnceCallback"* %4, i64 0, i32 0
  call void @_ZN4base8internal12CallbackBaseD2Ev(%"class.base::internal::CallbackBase"* nonnull %21) #11
  %22 = getelementptr inbounds %"class.network::mojom::NetworkServiceTestProxy", %"class.network::mojom::NetworkServiceTestProxy"* %0, i64 0, i32 1
  %23 = load %"class.mojo::MessageReceiverWithResponder"*, %"class.mojo::MessageReceiverWithResponder"** %22, align 8
  %24 = bitcast %"class.mojo::MessageReceiverWithResponder"* %23 to i1 (%"class.mojo::MessageReceiverWithResponder"*, %"class.mojo::Message"*, %"class.mojo::MessageReceiver"*)***
  %25 = load i1 (%"class.mojo::MessageReceiverWithResponder"*, %"class.mojo::Message"*, %"class.mojo::MessageReceiver"*)**, i1 (%"class.mojo::MessageReceiverWithResponder"*, %"class.mojo::Message"*, %"class.mojo::MessageReceiver"*)*** %24, align 8
  %26 = getelementptr inbounds i1 (%"class.mojo::MessageReceiverWithResponder"*, %"class.mojo::Message"*, %"class.mojo::MessageReceiver"*)*, i1 (%"class.mojo::MessageReceiverWithResponder"*, %"class.mojo::Message"*, %"class.mojo::MessageReceiver"*)** %25, i64 4
  %27 = load i1 (%"class.mojo::MessageReceiverWithResponder"*, %"class.mojo::Message"*, %"class.mojo::MessageReceiver"*)*, i1 (%"class.mojo::MessageReceiverWithResponder"*, %"class.mojo::Message"*, %"class.mojo::MessageReceiver"*)** %26, align 8
  %28 = call zeroext i1 %27(%"class.mojo::MessageReceiverWithResponder"* %23, %"class.mojo::Message"* nonnull %3, %"class.mojo::MessageReceiver"* nonnull %20) #11
  call void @_ZN4mojo7MessageD1Ev(%"class.mojo::Message"* nonnull %3) #11
  call void @llvm.lifetime.end.p0i8(i64 120, i8* nonnull %5) #11
  ret void
}

; Function Attrs: nounwind ssp uwtable
define hidden void @_ZN7network5mojom23NetworkServiceTestProxy18CrashOnResolveHostERKNSt3__112basic_stringIcNS2_11char_traitsIcEENS2_9allocatorIcEEEE(%"class.network::mojom::NetworkServiceTestProxy"* nocapture readonly, %"class.std::__1::basic_string"* dereferenceable(24)) unnamed_addr #0 align 2 {
  %3 = alloca %"class.mojo::Message", align 8
  %4 = alloca %"class.mojo::internal::MessageFragment.109", align 8
  %5 = bitcast %"class.mojo::Message"* %3 to i8*
  call void @llvm.lifetime.start.p0i8(i64 120, i8* nonnull %5) #11
  call void @llvm.memset.p0i8.i64(i8* nonnull align 8 %5, i8 -86, i64 120, i1 false)
  call void @_ZN4mojo7MessageC1EjjmmPNSt3__16vectorINS_16ScopedHandleBaseINS_6HandleEEENS1_9allocatorIS5_EEEE(%"class.mojo::Message"* nonnull %3, i32 1259990622, i32 0, i64 0, i64 0, %"class.std::__1::vector.11"* null) #11
  %6 = getelementptr inbounds %"class.mojo::Message", %"class.mojo::Message"* %3, i64 0, i32 1
  %7 = call i64 @_ZN4mojo8internal6Buffer8AllocateEm(%"class.mojo::internal::Buffer"* %6, i64 16) #11
  %8 = getelementptr inbounds %"class.mojo::Message", %"class.mojo::Message"* %3, i64 0, i32 1, i32 2
  %9 = load i8*, i8** %8, align 8
  %10 = getelementptr inbounds i8, i8* %9, i64 %7
  %11 = bitcast i8* %10 to %"class.network::mojom::internal::NetworkServiceTest_CrashOnResolveHost_Params_Data"*
  call void @_ZN7network5mojom8internal49NetworkServiceTest_CrashOnResolveHost_Params_DataC1Ev(%"class.network::mojom::internal::NetworkServiceTest_CrashOnResolveHost_Params_Data"* %11) #11
  %12 = bitcast %"class.mojo::internal::MessageFragment.109"* %4 to i8*
  call void @llvm.lifetime.start.p0i8(i64 16, i8* nonnull %12) #11
  %13 = getelementptr inbounds %"class.mojo::internal::MessageFragment.109", %"class.mojo::internal::MessageFragment.109"* %4, i64 0, i32 0
  %14 = getelementptr inbounds %"class.mojo::internal::MessageFragment.109", %"class.mojo::internal::MessageFragment.109"* %4, i64 0, i32 1
  store %"class.mojo::Message"* %3, %"class.mojo::Message"** %13, align 8
  store i64 -1, i64* %14, align 8
  call void @_ZN4mojo8internal10SerializerINS_14StringDataViewEKNSt3__112basic_stringIcNS3_11char_traitsIcEENS3_9allocatorIcEEEEE9SerializeERSA_RNS0_15MessageFragmentINS0_10Array_DataIcEEEE(%"class.std::__1::basic_string"* dereferenceable(24) %1, %"class.mojo::internal::MessageFragment.109"* nonnull dereferenceable(16) %4) #11
  %15 = load i8*, i8** %8, align 8
  %16 = getelementptr inbounds i8, i8* %15, i64 %7
  %17 = getelementptr inbounds i8, i8* %16, i64 8
  %18 = load i64, i64* %14, align 8
  %19 = icmp eq i64 %18, -1
  br i1 %19, label %26, label %20

20:                                               ; preds = %2
  %21 = load %"class.mojo::Message"*, %"class.mojo::Message"** %13, align 8
  %22 = getelementptr inbounds %"class.mojo::Message", %"class.mojo::Message"* %21, i64 0, i32 1, i32 2
  %23 = load i8*, i8** %22, align 8
  %24 = getelementptr inbounds i8, i8* %23, i64 %18
  %25 = bitcast i8* %24 to %"class.mojo::internal::Array_Data.110"*
  br label %26

26:                                               ; preds = %2, %20
  %27 = phi %"class.mojo::internal::Array_Data.110"* [ %25, %20 ], [ null, %2 ]
  %28 = bitcast i8* %17 to i64*
  %29 = icmp eq %"class.mojo::internal::Array_Data.110"* %27, null
  %30 = ptrtoint %"class.mojo::internal::Array_Data.110"* %27 to i64
  %31 = ptrtoint i8* %17 to i64
  %32 = sub i64 %30, %31
  %33 = select i1 %29, i64 0, i64 %32
  store i64 %33, i64* %28, align 8
  %34 = getelementptr inbounds %"class.network::mojom::NetworkServiceTestProxy", %"class.network::mojom::NetworkServiceTestProxy"* %0, i64 0, i32 1
  %35 = bitcast %"class.mojo::MessageReceiverWithResponder"** %34 to %"class.mojo::MessageReceiver"**
  %36 = load %"class.mojo::MessageReceiver"*, %"class.mojo::MessageReceiver"** %35, align 8
  %37 = bitcast %"class.mojo::MessageReceiver"* %36 to i1 (%"class.mojo::MessageReceiver"*, %"class.mojo::Message"*)***
  %38 = load i1 (%"class.mojo::MessageReceiver"*, %"class.mojo::Message"*)**, i1 (%"class.mojo::MessageReceiver"*, %"class.mojo::Message"*)*** %37, align 8
  %39 = getelementptr inbounds i1 (%"class.mojo::MessageReceiver"*, %"class.mojo::Message"*)*, i1 (%"class.mojo::MessageReceiver"*, %"class.mojo::Message"*)** %38, i64 3
  %40 = load i1 (%"class.mojo::MessageReceiver"*, %"class.mojo::Message"*)*, i1 (%"class.mojo::MessageReceiver"*, %"class.mojo::Message"*)** %39, align 8
  %41 = call zeroext i1 %40(%"class.mojo::MessageReceiver"* %36, %"class.mojo::Message"* nonnull %3) #11
  call void @llvm.lifetime.end.p0i8(i64 16, i8* nonnull %12) #11
  call void @_ZN4mojo7MessageD1Ev(%"class.mojo::Message"* nonnull %3) #11
  call void @llvm.lifetime.end.p0i8(i64 120, i8* nonnull %5) #11
  ret void
}

; Function Attrs: nounwind ssp uwtable
define hidden void @_ZN7network5mojom23NetworkServiceTestProxy20CrashOnGetCookieListEv(%"class.network::mojom::NetworkServiceTestProxy"* nocapture readonly) unnamed_addr #0 align 2 {
  %2 = alloca %"class.mojo::Message", align 8
  %3 = bitcast %"class.mojo::Message"* %2 to i8*
  call void @llvm.lifetime.start.p0i8(i64 120, i8* nonnull %3) #11
  call void @llvm.memset.p0i8.i64(i8* nonnull align 8 %3, i8 -86, i64 120, i1 false)
  call void @_ZN4mojo7MessageC1EjjmmPNSt3__16vectorINS_16ScopedHandleBaseINS_6HandleEEENS1_9allocatorIS5_EEEE(%"class.mojo::Message"* nonnull %2, i32 1923533677, i32 0, i64 0, i64 0, %"class.std::__1::vector.11"* null) #11
  %4 = getelementptr inbounds %"class.mojo::Message", %"class.mojo::Message"* %2, i64 0, i32 1
  %5 = call i64 @_ZN4mojo8internal6Buffer8AllocateEm(%"class.mojo::internal::Buffer"* %4, i64 8) #11
  %6 = getelementptr inbounds %"class.mojo::Message", %"class.mojo::Message"* %2, i64 0, i32 1, i32 2
  %7 = load i8*, i8** %6, align 8
  %8 = getelementptr inbounds i8, i8* %7, i64 %5
  %9 = bitcast i8* %8 to %"class.network::mojom::internal::NetworkServiceTest_CrashOnGetCookieList_Params_Data"*
  call void @_ZN7network5mojom8internal51NetworkServiceTest_CrashOnGetCookieList_Params_DataC1Ev(%"class.network::mojom::internal::NetworkServiceTest_CrashOnGetCookieList_Params_Data"* %9) #11
  %10 = getelementptr inbounds %"class.network::mojom::NetworkServiceTestProxy", %"class.network::mojom::NetworkServiceTestProxy"* %0, i64 0, i32 1
  %11 = bitcast %"class.mojo::MessageReceiverWithResponder"** %10 to %"class.mojo::MessageReceiver"**
  %12 = load %"class.mojo::MessageReceiver"*, %"class.mojo::MessageReceiver"** %11, align 8
  %13 = bitcast %"class.mojo::MessageReceiver"* %12 to i1 (%"class.mojo::MessageReceiver"*, %"class.mojo::Message"*)***
  %14 = load i1 (%"class.mojo::MessageReceiver"*, %"class.mojo::Message"*)**, i1 (%"class.mojo::MessageReceiver"*, %"class.mojo::Message"*)*** %13, align 8
  %15 = getelementptr inbounds i1 (%"class.mojo::MessageReceiver"*, %"class.mojo::Message"*)*, i1 (%"class.mojo::MessageReceiver"*, %"class.mojo::Message"*)** %14, i64 3
  %16 = load i1 (%"class.mojo::MessageReceiver"*, %"class.mojo::Message"*)*, i1 (%"class.mojo::MessageReceiver"*, %"class.mojo::Message"*)** %15, align 8
  %17 = call zeroext i1 %16(%"class.mojo::MessageReceiver"* %12, %"class.mojo::Message"* nonnull %2) #11
  call void @_ZN4mojo7MessageD1Ev(%"class.mojo::Message"* nonnull %2) #11
  call void @llvm.lifetime.end.p0i8(i64 120, i8* nonnull %3) #11
  ret void
}

; Function Attrs: nounwind ssp uwtable
define hidden zeroext i1 @_ZN7network5mojom23NetworkServiceTestProxy28GetLatestMemoryPressureLevelEPN4base22MemoryPressureListener19MemoryPressureLevelE(%"class.network::mojom::NetworkServiceTestProxy"* nocapture readonly, i32*) unnamed_addr #0 align 2 {
  %3 = alloca %"class.mojo::Message", align 8
  %4 = alloca i8, align 1
  %5 = bitcast %"class.mojo::Message"* %3 to i8*
  call void @llvm.lifetime.start.p0i8(i64 120, i8* nonnull %5) #11
  call void @llvm.memset.p0i8.i64(i8* nonnull align 8 %5, i8 -86, i64 120, i1 false)
  call void @_ZN4mojo7MessageC1EjjmmPNSt3__16vectorINS_16ScopedHandleBaseINS_6HandleEEENS1_9allocatorIS5_EEEE(%"class.mojo::Message"* nonnull %3, i32 1911011900, i32 5, i64 0, i64 0, %"class.std::__1::vector.11"* null) #11
  %6 = getelementptr inbounds %"class.mojo::Message", %"class.mojo::Message"* %3, i64 0, i32 1
  %7 = call i64 @_ZN4mojo8internal6Buffer8AllocateEm(%"class.mojo::internal::Buffer"* %6, i64 8) #11
  %8 = getelementptr inbounds %"class.mojo::Message", %"class.mojo::Message"* %3, i64 0, i32 1, i32 2
  %9 = load i8*, i8** %8, align 8
  %10 = getelementptr inbounds i8, i8* %9, i64 %7
  %11 = bitcast i8* %10 to %"class.network::mojom::internal::NetworkServiceTest_GetLatestMemoryPressureLevel_Params_Data"*
  call void @_ZN7network5mojom8internal59NetworkServiceTest_GetLatestMemoryPressureLevel_Params_DataC1Ev(%"class.network::mojom::internal::NetworkServiceTest_GetLatestMemoryPressureLevel_Params_Data"* %11) #11
  call void @llvm.lifetime.start.p0i8(i64 1, i8* nonnull %4) #11
  store i8 0, i8* %4, align 1
  %12 = call i8* @_Znwm(i64 24) #12
  %13 = bitcast i8* %12 to i32 (...)***
  store i32 (...)** bitcast (i8** getelementptr inbounds ({ [6 x i8*] }, { [6 x i8*] }* @_ZTVN7network5mojom66NetworkServiceTest_GetLatestMemoryPressureLevel_HandleSyncResponseE, i64 0, inrange i32 0, i64 2) to i32 (...)**), i32 (...)*** %13, align 8
  %14 = getelementptr inbounds i8, i8* %12, i64 8
  %15 = bitcast i8* %14 to i8**
  store i8* %4, i8** %15, align 8
  %16 = getelementptr inbounds i8, i8* %12, i64 16
  %17 = bitcast i8* %16 to i32**
  store i32* %1, i32** %17, align 8
  %18 = bitcast i8* %12 to %"class.mojo::MessageReceiver"*
  %19 = getelementptr inbounds %"class.network::mojom::NetworkServiceTestProxy", %"class.network::mojom::NetworkServiceTestProxy"* %0, i64 0, i32 1
  %20 = load %"class.mojo::MessageReceiverWithResponder"*, %"class.mojo::MessageReceiverWithResponder"** %19, align 8
  %21 = bitcast %"class.mojo::MessageReceiverWithResponder"* %20 to i1 (%"class.mojo::MessageReceiverWithResponder"*, %"class.mojo::Message"*, %"class.mojo::MessageReceiver"*)***
  %22 = load i1 (%"class.mojo::MessageReceiverWithResponder"*, %"class.mojo::Message"*, %"class.mojo::MessageReceiver"*)**, i1 (%"class.mojo::MessageReceiverWithResponder"*, %"class.mojo::Message"*, %"class.mojo::MessageReceiver"*)*** %21, align 8
  %23 = getelementptr inbounds i1 (%"class.mojo::MessageReceiverWithResponder"*, %"class.mojo::Message"*, %"class.mojo::MessageReceiver"*)*, i1 (%"class.mojo::MessageReceiverWithResponder"*, %"class.mojo::Message"*, %"class.mojo::MessageReceiver"*)** %22, i64 4
  %24 = load i1 (%"class.mojo::MessageReceiverWithResponder"*, %"class.mojo::Message"*, %"class.mojo::MessageReceiver"*)*, i1 (%"class.mojo::MessageReceiverWithResponder"*, %"class.mojo::Message"*, %"class.mojo::MessageReceiver"*)** %23, align 8
  %25 = call zeroext i1 %24(%"class.mojo::MessageReceiverWithResponder"* %20, %"class.mojo::Message"* nonnull %3, %"class.mojo::MessageReceiver"* nonnull %18) #11
  %26 = load i8, i8* %4, align 1, !range !2
  %27 = icmp ne i8 %26, 0
  call void @llvm.lifetime.end.p0i8(i64 1, i8* nonnull %4) #11
  call void @_ZN4mojo7MessageD1Ev(%"class.mojo::Message"* nonnull %3) #11
  call void @llvm.lifetime.end.p0i8(i64 120, i8* nonnull %5) #11
  ret i1 %27
}

; Function Attrs: nounwind ssp uwtable
define hidden void @_ZN7network5mojom23NetworkServiceTestProxy28GetLatestMemoryPressureLevelEN4base12OnceCallbackIFvNS2_22MemoryPressureListener19MemoryPressureLevelEEEE(%"class.network::mojom::NetworkServiceTestProxy"* nocapture readonly, %"class.base::OnceCallback.117"* nocapture) unnamed_addr #0 align 2 {
  %3 = alloca %"class.mojo::Message", align 8
  %4 = alloca %"class.base::OnceCallback.117", align 8
  %5 = bitcast %"class.mojo::Message"* %3 to i8*
  call void @llvm.lifetime.start.p0i8(i64 120, i8* nonnull %5) #11
  call void @llvm.memset.p0i8.i64(i8* nonnull align 8 %5, i8 -86, i64 120, i1 false)
  call void @_ZN4mojo7MessageC1EjjmmPNSt3__16vectorINS_16ScopedHandleBaseINS_6HandleEEENS1_9allocatorIS5_EEEE(%"class.mojo::Message"* nonnull %3, i32 1911011900, i32 1, i64 0, i64 0, %"class.std::__1::vector.11"* null) #11
  %6 = getelementptr inbounds %"class.mojo::Message", %"class.mojo::Message"* %3, i64 0, i32 1
  %7 = call i64 @_ZN4mojo8internal6Buffer8AllocateEm(%"class.mojo::internal::Buffer"* %6, i64 8) #11
  %8 = getelementptr inbounds %"class.mojo::Message", %"class.mojo::Message"* %3, i64 0, i32 1, i32 2
  %9 = load i8*, i8** %8, align 8
  %10 = getelementptr inbounds i8, i8* %9, i64 %7
  %11 = bitcast i8* %10 to %"class.network::mojom::internal::NetworkServiceTest_GetLatestMemoryPressureLevel_Params_Data"*
  call void @_ZN7network5mojom8internal59NetworkServiceTest_GetLatestMemoryPressureLevel_Params_DataC1Ev(%"class.network::mojom::internal::NetworkServiceTest_GetLatestMemoryPressureLevel_Params_Data"* %11) #11
  %12 = call i8* @_Znwm(i64 16) #12
  %13 = getelementptr inbounds %"class.base::OnceCallback.117", %"class.base::OnceCallback.117"* %1, i64 0, i32 0, i32 0, i32 0
  %14 = bitcast %"class.base::OnceCallback.117"* %1 to i64*
  %15 = load i64, i64* %14, align 8
  store %"class.base::internal::BindStateBase"* null, %"class.base::internal::BindStateBase"** %13, align 8
  %16 = bitcast i8* %12 to i32 (...)***
  store i32 (...)** bitcast (i8** getelementptr inbounds ({ [6 x i8*] }, { [6 x i8*] }* @_ZTVN7network5mojom65NetworkServiceTest_GetLatestMemoryPressureLevel_ForwardToCallbackE, i64 0, inrange i32 0, i64 2) to i32 (...)**), i32 (...)*** %16, align 8
  %17 = getelementptr inbounds i8, i8* %12, i64 8
  %18 = getelementptr inbounds %"class.base::OnceCallback.117", %"class.base::OnceCallback.117"* %4, i64 0, i32 0, i32 0, i32 0
  %19 = bitcast i8* %17 to i64*
  store i64 %15, i64* %19, align 8
  store %"class.base::internal::BindStateBase"* null, %"class.base::internal::BindStateBase"** %18, align 8
  %20 = bitcast i8* %12 to %"class.mojo::MessageReceiver"*
  %21 = getelementptr inbounds %"class.base::OnceCallback.117", %"class.base::OnceCallback.117"* %4, i64 0, i32 0
  call void @_ZN4base8internal12CallbackBaseD2Ev(%"class.base::internal::CallbackBase"* nonnull %21) #11
  %22 = getelementptr inbounds %"class.network::mojom::NetworkServiceTestProxy", %"class.network::mojom::NetworkServiceTestProxy"* %0, i64 0, i32 1
  %23 = load %"class.mojo::MessageReceiverWithResponder"*, %"class.mojo::MessageReceiverWithResponder"** %22, align 8
  %24 = bitcast %"class.mojo::MessageReceiverWithResponder"* %23 to i1 (%"class.mojo::MessageReceiverWithResponder"*, %"class.mojo::Message"*, %"class.mojo::MessageReceiver"*)***
  %25 = load i1 (%"class.mojo::MessageReceiverWithResponder"*, %"class.mojo::Message"*, %"class.mojo::MessageReceiver"*)**, i1 (%"class.mojo::MessageReceiverWithResponder"*, %"class.mojo::Message"*, %"class.mojo::MessageReceiver"*)*** %24, align 8
  %26 = getelementptr inbounds i1 (%"class.mojo::MessageReceiverWithResponder"*, %"class.mojo::Message"*, %"class.mojo::MessageReceiver"*)*, i1 (%"class.mojo::MessageReceiverWithResponder"*, %"class.mojo::Message"*, %"class.mojo::MessageReceiver"*)** %25, i64 4
  %27 = load i1 (%"class.mojo::MessageReceiverWithResponder"*, %"class.mojo::Message"*, %"class.mojo::MessageReceiver"*)*, i1 (%"class.mojo::MessageReceiverWithResponder"*, %"class.mojo::Message"*, %"class.mojo::MessageReceiver"*)** %26, align 8
  %28 = call zeroext i1 %27(%"class.mojo::MessageReceiverWithResponder"* %23, %"class.mojo::Message"* nonnull %3, %"class.mojo::MessageReceiver"* nonnull %20) #11
  call void @_ZN4mojo7MessageD1Ev(%"class.mojo::Message"* nonnull %3) #11
  call void @llvm.lifetime.end.p0i8(i64 120, i8* nonnull %5) #11
  ret void
}

; Function Attrs: nounwind ssp uwtable
define hidden zeroext i1 @_ZN7network5mojom23NetworkServiceTestProxy35GetPeerToPeerConnectionsCountChangeEPj(%"class.network::mojom::NetworkServiceTestProxy"* nocapture readonly, i32*) unnamed_addr #0 align 2 {
  %3 = alloca %"class.mojo::Message", align 8
  %4 = alloca i8, align 1
  %5 = bitcast %"class.mojo::Message"* %3 to i8*
  call void @llvm.lifetime.start.p0i8(i64 120, i8* nonnull %5) #11
  call void @llvm.memset.p0i8.i64(i8* nonnull align 8 %5, i8 -86, i64 120, i1 false)
  call void @_ZN4mojo7MessageC1EjjmmPNSt3__16vectorINS_16ScopedHandleBaseINS_6HandleEEENS1_9allocatorIS5_EEEE(%"class.mojo::Message"* nonnull %3, i32 2111883237, i32 5, i64 0, i64 0, %"class.std::__1::vector.11"* null) #11
  %6 = getelementptr inbounds %"class.mojo::Message", %"class.mojo::Message"* %3, i64 0, i32 1
  %7 = call i64 @_ZN4mojo8internal6Buffer8AllocateEm(%"class.mojo::internal::Buffer"* %6, i64 8) #11
  %8 = getelementptr inbounds %"class.mojo::Message", %"class.mojo::Message"* %3, i64 0, i32 1, i32 2
  %9 = load i8*, i8** %8, align 8
  %10 = getelementptr inbounds i8, i8* %9, i64 %7
  %11 = bitcast i8* %10 to %"class.network::mojom::internal::NetworkServiceTest_GetPeerToPeerConnectionsCountChange_Params_Data"*
  call void @_ZN7network5mojom8internal66NetworkServiceTest_GetPeerToPeerConnectionsCountChange_Params_DataC1Ev(%"class.network::mojom::internal::NetworkServiceTest_GetPeerToPeerConnectionsCountChange_Params_Data"* %11) #11
  call void @llvm.lifetime.start.p0i8(i64 1, i8* nonnull %4) #11
  store i8 0, i8* %4, align 1
  %12 = call i8* @_Znwm(i64 24) #12
  %13 = bitcast i8* %12 to i32 (...)***
  store i32 (...)** bitcast (i8** getelementptr inbounds ({ [6 x i8*] }, { [6 x i8*] }* @_ZTVN7network5mojom73NetworkServiceTest_GetPeerToPeerConnectionsCountChange_HandleSyncResponseE, i64 0, inrange i32 0, i64 2) to i32 (...)**), i32 (...)*** %13, align 8
  %14 = getelementptr inbounds i8, i8* %12, i64 8
  %15 = bitcast i8* %14 to i8**
  store i8* %4, i8** %15, align 8
  %16 = getelementptr inbounds i8, i8* %12, i64 16
  %17 = bitcast i8* %16 to i32**
  store i32* %1, i32** %17, align 8
  %18 = bitcast i8* %12 to %"class.mojo::MessageReceiver"*
  %19 = getelementptr inbounds %"class.network::mojom::NetworkServiceTestProxy", %"class.network::mojom::NetworkServiceTestProxy"* %0, i64 0, i32 1
  %20 = load %"class.mojo::MessageReceiverWithResponder"*, %"class.mojo::MessageReceiverWithResponder"** %19, align 8
  %21 = bitcast %"class.mojo::MessageReceiverWithResponder"* %20 to i1 (%"class.mojo::MessageReceiverWithResponder"*, %"class.mojo::Message"*, %"class.mojo::MessageReceiver"*)***
  %22 = load i1 (%"class.mojo::MessageReceiverWithResponder"*, %"class.mojo::Message"*, %"class.mojo::MessageReceiver"*)**, i1 (%"class.mojo::MessageReceiverWithResponder"*, %"class.mojo::Message"*, %"class.mojo::MessageReceiver"*)*** %21, align 8
  %23 = getelementptr inbounds i1 (%"class.mojo::MessageReceiverWithResponder"*, %"class.mojo::Message"*, %"class.mojo::MessageReceiver"*)*, i1 (%"class.mojo::MessageReceiverWithResponder"*, %"class.mojo::Message"*, %"class.mojo::MessageReceiver"*)** %22, i64 4
  %24 = load i1 (%"class.mojo::MessageReceiverWithResponder"*, %"class.mojo::Message"*, %"class.mojo::MessageReceiver"*)*, i1 (%"class.mojo::MessageReceiverWithResponder"*, %"class.mojo::Message"*, %"class.mojo::MessageReceiver"*)** %23, align 8
  %25 = call zeroext i1 %24(%"class.mojo::MessageReceiverWithResponder"* %20, %"class.mojo::Message"* nonnull %3, %"class.mojo::MessageReceiver"* nonnull %18) #11
  %26 = load i8, i8* %4, align 1, !range !2
  %27 = icmp ne i8 %26, 0
  call void @llvm.lifetime.end.p0i8(i64 1, i8* nonnull %4) #11
  call void @_ZN4mojo7MessageD1Ev(%"class.mojo::Message"* nonnull %3) #11
  call void @llvm.lifetime.end.p0i8(i64 120, i8* nonnull %5) #11
  ret i1 %27
}

; Function Attrs: nounwind ssp uwtable
define hidden void @_ZN7network5mojom23NetworkServiceTestProxy35GetPeerToPeerConnectionsCountChangeEN4base12OnceCallbackIFvjEEE(%"class.network::mojom::NetworkServiceTestProxy"* nocapture readonly, %"class.base::OnceCallback.119"* nocapture) unnamed_addr #0 align 2 {
  %3 = alloca %"class.mojo::Message", align 8
  %4 = alloca %"class.base::OnceCallback.119", align 8
  %5 = bitcast %"class.mojo::Message"* %3 to i8*
  call void @llvm.lifetime.start.p0i8(i64 120, i8* nonnull %5) #11
  call void @llvm.memset.p0i8.i64(i8* nonnull align 8 %5, i8 -86, i64 120, i1 false)
  call void @_ZN4mojo7MessageC1EjjmmPNSt3__16vectorINS_16ScopedHandleBaseINS_6HandleEEENS1_9allocatorIS5_EEEE(%"class.mojo::Message"* nonnull %3, i32 2111883237, i32 1, i64 0, i64 0, %"class.std::__1::vector.11"* null) #11
  %6 = getelementptr inbounds %"class.mojo::Message", %"class.mojo::Message"* %3, i64 0, i32 1
  %7 = call i64 @_ZN4mojo8internal6Buffer8AllocateEm(%"class.mojo::internal::Buffer"* %6, i64 8) #11
  %8 = getelementptr inbounds %"class.mojo::Message", %"class.mojo::Message"* %3, i64 0, i32 1, i32 2
  %9 = load i8*, i8** %8, align 8
  %10 = getelementptr inbounds i8, i8* %9, i64 %7
  %11 = bitcast i8* %10 to %"class.network::mojom::internal::NetworkServiceTest_GetPeerToPeerConnectionsCountChange_Params_Data"*
  call void @_ZN7network5mojom8internal66NetworkServiceTest_GetPeerToPeerConnectionsCountChange_Params_DataC1Ev(%"class.network::mojom::internal::NetworkServiceTest_GetPeerToPeerConnectionsCountChange_Params_Data"* %11) #11
  %12 = call i8* @_Znwm(i64 16) #12
  %13 = getelementptr inbounds %"class.base::OnceCallback.119", %"class.base::OnceCallback.119"* %1, i64 0, i32 0, i32 0, i32 0
  %14 = bitcast %"class.base::OnceCallback.119"* %1 to i64*
  %15 = load i64, i64* %14, align 8
  store %"class.base::internal::BindStateBase"* null, %"class.base::internal::BindStateBase"** %13, align 8
  %16 = bitcast i8* %12 to i32 (...)***
  store i32 (...)** bitcast (i8** getelementptr inbounds ({ [6 x i8*] }, { [6 x i8*] }* @_ZTVN7network5mojom72NetworkServiceTest_GetPeerToPeerConnectionsCountChange_ForwardToCallbackE, i64 0, inrange i32 0, i64 2) to i32 (...)**), i32 (...)*** %16, align 8
  %17 = getelementptr inbounds i8, i8* %12, i64 8
  %18 = getelementptr inbounds %"class.base::OnceCallback.119", %"class.base::OnceCallback.119"* %4, i64 0, i32 0, i32 0, i32 0
  %19 = bitcast i8* %17 to i64*
  store i64 %15, i64* %19, align 8
  store %"class.base::internal::BindStateBase"* null, %"class.base::internal::BindStateBase"** %18, align 8
  %20 = bitcast i8* %12 to %"class.mojo::MessageReceiver"*
  %21 = getelementptr inbounds %"class.base::OnceCallback.119", %"class.base::OnceCallback.119"* %4, i64 0, i32 0
  call void @_ZN4base8internal12CallbackBaseD2Ev(%"class.base::internal::CallbackBase"* nonnull %21) #11
  %22 = getelementptr inbounds %"class.network::mojom::NetworkServiceTestProxy", %"class.network::mojom::NetworkServiceTestProxy"* %0, i64 0, i32 1
  %23 = load %"class.mojo::MessageReceiverWithResponder"*, %"class.mojo::MessageReceiverWithResponder"** %22, align 8
  %24 = bitcast %"class.mojo::MessageReceiverWithResponder"* %23 to i1 (%"class.mojo::MessageReceiverWithResponder"*, %"class.mojo::Message"*, %"class.mojo::MessageReceiver"*)***
  %25 = load i1 (%"class.mojo::MessageReceiverWithResponder"*, %"class.mojo::Message"*, %"class.mojo::MessageReceiver"*)**, i1 (%"class.mojo::MessageReceiverWithResponder"*, %"class.mojo::Message"*, %"class.mojo::MessageReceiver"*)*** %24, align 8
  %26 = getelementptr inbounds i1 (%"class.mojo::MessageReceiverWithResponder"*, %"class.mojo::Message"*, %"class.mojo::MessageReceiver"*)*, i1 (%"class.mojo::MessageReceiverWithResponder"*, %"class.mojo::Message"*, %"class.mojo::MessageReceiver"*)** %25, i64 4
  %27 = load i1 (%"class.mojo::MessageReceiverWithResponder"*, %"class.mojo::Message"*, %"class.mojo::MessageReceiver"*)*, i1 (%"class.mojo::MessageReceiverWithResponder"*, %"class.mojo::Message"*, %"class.mojo::MessageReceiver"*)** %26, align 8
  %28 = call zeroext i1 %27(%"class.mojo::MessageReceiverWithResponder"* %23, %"class.mojo::Message"* nonnull %3, %"class.mojo::MessageReceiver"* nonnull %20) #11
  call void @_ZN4mojo7MessageD1Ev(%"class.mojo::Message"* nonnull %3) #11
  call void @llvm.lifetime.end.p0i8(i64 120, i8* nonnull %5) #11
  ret void
}

; Function Attrs: nounwind ssp uwtable
define hidden zeroext i1 @_ZN7network5mojom23NetworkServiceTestProxy27GetEnvironmentVariableValueERKNSt3__112basic_stringIcNS2_11char_traitsIcEENS2_9allocatorIcEEEEPS8_(%"class.network::mojom::NetworkServiceTestProxy"* nocapture readonly, %"class.std::__1::basic_string"* dereferenceable(24), %"class.std::__1::basic_string"*) unnamed_addr #0 align 2 {
  %4 = alloca %"class.mojo::Message", align 8
  %5 = alloca %"class.mojo::internal::MessageFragment.109", align 8
  %6 = alloca i8, align 1
  %7 = bitcast %"class.mojo::Message"* %4 to i8*
  call void @llvm.lifetime.start.p0i8(i64 120, i8* nonnull %7) #11
  call void @llvm.memset.p0i8.i64(i8* nonnull align 8 %7, i8 -86, i64 120, i1 false)
  call void @_ZN4mojo7MessageC1EjjmmPNSt3__16vectorINS_16ScopedHandleBaseINS_6HandleEEENS1_9allocatorIS5_EEEE(%"class.mojo::Message"* nonnull %4, i32 1072134097, i32 5, i64 0, i64 0, %"class.std::__1::vector.11"* null) #11
  %8 = getelementptr inbounds %"class.mojo::Message", %"class.mojo::Message"* %4, i64 0, i32 1
  %9 = call i64 @_ZN4mojo8internal6Buffer8AllocateEm(%"class.mojo::internal::Buffer"* %8, i64 16) #11
  %10 = getelementptr inbounds %"class.mojo::Message", %"class.mojo::Message"* %4, i64 0, i32 1, i32 2
  %11 = load i8*, i8** %10, align 8
  %12 = getelementptr inbounds i8, i8* %11, i64 %9
  %13 = bitcast i8* %12 to %"class.network::mojom::internal::NetworkServiceTest_GetEnvironmentVariableValue_Params_Data"*
  call void @_ZN7network5mojom8internal58NetworkServiceTest_GetEnvironmentVariableValue_Params_DataC1Ev(%"class.network::mojom::internal::NetworkServiceTest_GetEnvironmentVariableValue_Params_Data"* %13) #11
  %14 = bitcast %"class.mojo::internal::MessageFragment.109"* %5 to i8*
  call void @llvm.lifetime.start.p0i8(i64 16, i8* nonnull %14) #11
  %15 = getelementptr inbounds %"class.mojo::internal::MessageFragment.109", %"class.mojo::internal::MessageFragment.109"* %5, i64 0, i32 0
  %16 = getelementptr inbounds %"class.mojo::internal::MessageFragment.109", %"class.mojo::internal::MessageFragment.109"* %5, i64 0, i32 1
  store %"class.mojo::Message"* %4, %"class.mojo::Message"** %15, align 8
  store i64 -1, i64* %16, align 8
  call void @_ZN4mojo8internal10SerializerINS_14StringDataViewEKNSt3__112basic_stringIcNS3_11char_traitsIcEENS3_9allocatorIcEEEEE9SerializeERSA_RNS0_15MessageFragmentINS0_10Array_DataIcEEEE(%"class.std::__1::basic_string"* dereferenceable(24) %1, %"class.mojo::internal::MessageFragment.109"* nonnull dereferenceable(16) %5) #11
  %17 = load i8*, i8** %10, align 8
  %18 = getelementptr inbounds i8, i8* %17, i64 %9
  %19 = getelementptr inbounds i8, i8* %18, i64 8
  %20 = load i64, i64* %16, align 8
  %21 = icmp eq i64 %20, -1
  br i1 %21, label %28, label %22

22:                                               ; preds = %3
  %23 = load %"class.mojo::Message"*, %"class.mojo::Message"** %15, align 8
  %24 = getelementptr inbounds %"class.mojo::Message", %"class.mojo::Message"* %23, i64 0, i32 1, i32 2
  %25 = load i8*, i8** %24, align 8
  %26 = getelementptr inbounds i8, i8* %25, i64 %20
  %27 = bitcast i8* %26 to %"class.mojo::internal::Array_Data.110"*
  br label %28

28:                                               ; preds = %22, %3
  %29 = phi %"class.mojo::internal::Array_Data.110"* [ %27, %22 ], [ null, %3 ]
  %30 = bitcast i8* %19 to i64*
  %31 = icmp eq %"class.mojo::internal::Array_Data.110"* %29, null
  %32 = ptrtoint %"class.mojo::internal::Array_Data.110"* %29 to i64
  %33 = ptrtoint i8* %19 to i64
  %34 = sub i64 %32, %33
  %35 = select i1 %31, i64 0, i64 %34
  store i64 %35, i64* %30, align 8
  call void @llvm.lifetime.start.p0i8(i64 1, i8* nonnull %6) #11
  store i8 0, i8* %6, align 1
  %36 = call i8* @_Znwm(i64 24) #12
  %37 = bitcast i8* %36 to i32 (...)***
  store i32 (...)** bitcast (i8** getelementptr inbounds ({ [6 x i8*] }, { [6 x i8*] }* @_ZTVN7network5mojom65NetworkServiceTest_GetEnvironmentVariableValue_HandleSyncResponseE, i64 0, inrange i32 0, i64 2) to i32 (...)**), i32 (...)*** %37, align 8
  %38 = getelementptr inbounds i8, i8* %36, i64 8
  %39 = bitcast i8* %38 to i8**
  store i8* %6, i8** %39, align 8
  %40 = getelementptr inbounds i8, i8* %36, i64 16
  %41 = bitcast i8* %40 to %"class.std::__1::basic_string"**
  store %"class.std::__1::basic_string"* %2, %"class.std::__1::basic_string"** %41, align 8
  %42 = bitcast i8* %36 to %"class.mojo::MessageReceiver"*
  %43 = getelementptr inbounds %"class.network::mojom::NetworkServiceTestProxy", %"class.network::mojom::NetworkServiceTestProxy"* %0, i64 0, i32 1
  %44 = load %"class.mojo::MessageReceiverWithResponder"*, %"class.mojo::MessageReceiverWithResponder"** %43, align 8
  %45 = bitcast %"class.mojo::MessageReceiverWithResponder"* %44 to i1 (%"class.mojo::MessageReceiverWithResponder"*, %"class.mojo::Message"*, %"class.mojo::MessageReceiver"*)***
  %46 = load i1 (%"class.mojo::MessageReceiverWithResponder"*, %"class.mojo::Message"*, %"class.mojo::MessageReceiver"*)**, i1 (%"class.mojo::MessageReceiverWithResponder"*, %"class.mojo::Message"*, %"class.mojo::MessageReceiver"*)*** %45, align 8
  %47 = getelementptr inbounds i1 (%"class.mojo::MessageReceiverWithResponder"*, %"class.mojo::Message"*, %"class.mojo::MessageReceiver"*)*, i1 (%"class.mojo::MessageReceiverWithResponder"*, %"class.mojo::Message"*, %"class.mojo::MessageReceiver"*)** %46, i64 4
  %48 = load i1 (%"class.mojo::MessageReceiverWithResponder"*, %"class.mojo::Message"*, %"class.mojo::MessageReceiver"*)*, i1 (%"class.mojo::MessageReceiverWithResponder"*, %"class.mojo::Message"*, %"class.mojo::MessageReceiver"*)** %47, align 8
  %49 = call zeroext i1 %48(%"class.mojo::MessageReceiverWithResponder"* %44, %"class.mojo::Message"* nonnull %4, %"class.mojo::MessageReceiver"* nonnull %42) #11
  %50 = load i8, i8* %6, align 1, !range !2
  %51 = icmp ne i8 %50, 0
  call void @llvm.lifetime.end.p0i8(i64 1, i8* nonnull %6) #11
  call void @llvm.lifetime.end.p0i8(i64 16, i8* nonnull %14) #11
  call void @_ZN4mojo7MessageD1Ev(%"class.mojo::Message"* nonnull %4) #11
  call void @llvm.lifetime.end.p0i8(i64 120, i8* nonnull %7) #11
  ret i1 %51
}

; Function Attrs: nounwind ssp uwtable
define hidden void @_ZN7network5mojom23NetworkServiceTestProxy27GetEnvironmentVariableValueERKNSt3__112basic_stringIcNS2_11char_traitsIcEENS2_9allocatorIcEEEEN4base12OnceCallbackIFvSA_EEE(%"class.network::mojom::NetworkServiceTestProxy"* nocapture readonly, %"class.std::__1::basic_string"* dereferenceable(24), %"class.base::OnceCallback.121"* nocapture) unnamed_addr #0 align 2 {
  %4 = alloca %"class.mojo::Message", align 8
  %5 = alloca %"class.mojo::internal::MessageFragment.109", align 8
  %6 = alloca %"class.base::OnceCallback.121", align 8
  %7 = bitcast %"class.mojo::Message"* %4 to i8*
  call void @llvm.lifetime.start.p0i8(i64 120, i8* nonnull %7) #11
  call void @llvm.memset.p0i8.i64(i8* nonnull align 8 %7, i8 -86, i64 120, i1 false)
  call void @_ZN4mojo7MessageC1EjjmmPNSt3__16vectorINS_16ScopedHandleBaseINS_6HandleEEENS1_9allocatorIS5_EEEE(%"class.mojo::Message"* nonnull %4, i32 1072134097, i32 1, i64 0, i64 0, %"class.std::__1::vector.11"* null) #11
  %8 = getelementptr inbounds %"class.mojo::Message", %"class.mojo::Message"* %4, i64 0, i32 1
  %9 = call i64 @_ZN4mojo8internal6Buffer8AllocateEm(%"class.mojo::internal::Buffer"* %8, i64 16) #11
  %10 = getelementptr inbounds %"class.mojo::Message", %"class.mojo::Message"* %4, i64 0, i32 1, i32 2
  %11 = load i8*, i8** %10, align 8
  %12 = getelementptr inbounds i8, i8* %11, i64 %9
  %13 = bitcast i8* %12 to %"class.network::mojom::internal::NetworkServiceTest_GetEnvironmentVariableValue_Params_Data"*
  call void @_ZN7network5mojom8internal58NetworkServiceTest_GetEnvironmentVariableValue_Params_DataC1Ev(%"class.network::mojom::internal::NetworkServiceTest_GetEnvironmentVariableValue_Params_Data"* %13) #11
  %14 = bitcast %"class.mojo::internal::MessageFragment.109"* %5 to i8*
  call void @llvm.lifetime.start.p0i8(i64 16, i8* nonnull %14) #11
  %15 = getelementptr inbounds %"class.mojo::internal::MessageFragment.109", %"class.mojo::internal::MessageFragment.109"* %5, i64 0, i32 0
  %16 = getelementptr inbounds %"class.mojo::internal::MessageFragment.109", %"class.mojo::internal::MessageFragment.109"* %5, i64 0, i32 1
  store %"class.mojo::Message"* %4, %"class.mojo::Message"** %15, align 8
  store i64 -1, i64* %16, align 8
  call void @_ZN4mojo8internal10SerializerINS_14StringDataViewEKNSt3__112basic_stringIcNS3_11char_traitsIcEENS3_9allocatorIcEEEEE9SerializeERSA_RNS0_15MessageFragmentINS0_10Array_DataIcEEEE(%"class.std::__1::basic_string"* dereferenceable(24) %1, %"class.mojo::internal::MessageFragment.109"* nonnull dereferenceable(16) %5) #11
  %17 = load i8*, i8** %10, align 8
  %18 = getelementptr inbounds i8, i8* %17, i64 %9
  %19 = getelementptr inbounds i8, i8* %18, i64 8
  %20 = load i64, i64* %16, align 8
  %21 = icmp eq i64 %20, -1
  br i1 %21, label %28, label %22

22:                                               ; preds = %3
  %23 = load %"class.mojo::Message"*, %"class.mojo::Message"** %15, align 8
  %24 = getelementptr inbounds %"class.mojo::Message", %"class.mojo::Message"* %23, i64 0, i32 1, i32 2
  %25 = load i8*, i8** %24, align 8
  %26 = getelementptr inbounds i8, i8* %25, i64 %20
  %27 = bitcast i8* %26 to %"class.mojo::internal::Array_Data.110"*
  br label %28

28:                                               ; preds = %22, %3
  %29 = phi %"class.mojo::internal::Array_Data.110"* [ %27, %22 ], [ null, %3 ]
  %30 = bitcast i8* %19 to i64*
  %31 = icmp eq %"class.mojo::internal::Array_Data.110"* %29, null
  %32 = ptrtoint %"class.mojo::internal::Array_Data.110"* %29 to i64
  %33 = ptrtoint i8* %19 to i64
  %34 = sub i64 %32, %33
  %35 = select i1 %31, i64 0, i64 %34
  store i64 %35, i64* %30, align 8
  %36 = call i8* @_Znwm(i64 16) #12
  %37 = getelementptr inbounds %"class.base::OnceCallback.121", %"class.base::OnceCallback.121"* %2, i64 0, i32 0, i32 0, i32 0
  %38 = bitcast %"class.base::OnceCallback.121"* %2 to i64*
  %39 = load i64, i64* %38, align 8
  store %"class.base::internal::BindStateBase"* null, %"class.base::internal::BindStateBase"** %37, align 8
  %40 = bitcast i8* %36 to i32 (...)***
  store i32 (...)** bitcast (i8** getelementptr inbounds ({ [6 x i8*] }, { [6 x i8*] }* @_ZTVN7network5mojom64NetworkServiceTest_GetEnvironmentVariableValue_ForwardToCallbackE, i64 0, inrange i32 0, i64 2) to i32 (...)**), i32 (...)*** %40, align 8
  %41 = getelementptr inbounds i8, i8* %36, i64 8
  %42 = getelementptr inbounds %"class.base::OnceCallback.121", %"class.base::OnceCallback.121"* %6, i64 0, i32 0, i32 0, i32 0
  %43 = bitcast i8* %41 to i64*
  store i64 %39, i64* %43, align 8
  store %"class.base::internal::BindStateBase"* null, %"class.base::internal::BindStateBase"** %42, align 8
  %44 = bitcast i8* %36 to %"class.mojo::MessageReceiver"*
  %45 = getelementptr inbounds %"class.base::OnceCallback.121", %"class.base::OnceCallback.121"* %6, i64 0, i32 0
  call void @_ZN4base8internal12CallbackBaseD2Ev(%"class.base::internal::CallbackBase"* nonnull %45) #11
  %46 = getelementptr inbounds %"class.network::mojom::NetworkServiceTestProxy", %"class.network::mojom::NetworkServiceTestProxy"* %0, i64 0, i32 1
  %47 = load %"class.mojo::MessageReceiverWithResponder"*, %"class.mojo::MessageReceiverWithResponder"** %46, align 8
  %48 = bitcast %"class.mojo::MessageReceiverWithResponder"* %47 to i1 (%"class.mojo::MessageReceiverWithResponder"*, %"class.mojo::Message"*, %"class.mojo::MessageReceiver"*)***
  %49 = load i1 (%"class.mojo::MessageReceiverWithResponder"*, %"class.mojo::Message"*, %"class.mojo::MessageReceiver"*)**, i1 (%"class.mojo::MessageReceiverWithResponder"*, %"class.mojo::Message"*, %"class.mojo::MessageReceiver"*)*** %48, align 8
  %50 = getelementptr inbounds i1 (%"class.mojo::MessageReceiverWithResponder"*, %"class.mojo::Message"*, %"class.mojo::MessageReceiver"*)*, i1 (%"class.mojo::MessageReceiverWithResponder"*, %"class.mojo::Message"*, %"class.mojo::MessageReceiver"*)** %49, i64 4
  %51 = load i1 (%"class.mojo::MessageReceiverWithResponder"*, %"class.mojo::Message"*, %"class.mojo::MessageReceiver"*)*, i1 (%"class.mojo::MessageReceiverWithResponder"*, %"class.mojo::Message"*, %"class.mojo::MessageReceiver"*)** %50, align 8
  %52 = call zeroext i1 %51(%"class.mojo::MessageReceiverWithResponder"* %47, %"class.mojo::Message"* nonnull %4, %"class.mojo::MessageReceiver"* nonnull %44) #11
  call void @llvm.lifetime.end.p0i8(i64 16, i8* nonnull %14) #11
  call void @_ZN4mojo7MessageD1Ev(%"class.mojo::Message"* nonnull %4) #11
  call void @llvm.lifetime.end.p0i8(i64 120, i8* nonnull %7) #11
  ret void
}

; Function Attrs: nounwind ssp uwtable
define hidden zeroext i1 @_ZN7network5mojom23NetworkServiceTestProxy3LogERKNSt3__112basic_stringIcNS2_11char_traitsIcEENS2_9allocatorIcEEEE(%"class.network::mojom::NetworkServiceTestProxy"* nocapture readonly, %"class.std::__1::basic_string"* dereferenceable(24)) unnamed_addr #0 align 2 {
  %3 = alloca %"class.mojo::Message", align 8
  %4 = alloca %"class.mojo::internal::MessageFragment.109", align 8
  %5 = alloca i8, align 1
  %6 = bitcast %"class.mojo::Message"* %3 to i8*
  call void @llvm.lifetime.start.p0i8(i64 120, i8* nonnull %6) #11
  call void @llvm.memset.p0i8.i64(i8* nonnull align 8 %6, i8 -86, i64 120, i1 false)
  call void @_ZN4mojo7MessageC1EjjmmPNSt3__16vectorINS_16ScopedHandleBaseINS_6HandleEEENS1_9allocatorIS5_EEEE(%"class.mojo::Message"* nonnull %3, i32 74253995, i32 5, i64 0, i64 0, %"class.std::__1::vector.11"* null) #11
  %7 = getelementptr inbounds %"class.mojo::Message", %"class.mojo::Message"* %3, i64 0, i32 1
  %8 = call i64 @_ZN4mojo8internal6Buffer8AllocateEm(%"class.mojo::internal::Buffer"* %7, i64 16) #11
  %9 = getelementptr inbounds %"class.mojo::Message", %"class.mojo::Message"* %3, i64 0, i32 1, i32 2
  %10 = load i8*, i8** %9, align 8
  %11 = getelementptr inbounds i8, i8* %10, i64 %8
  %12 = bitcast i8* %11 to %"class.network::mojom::internal::NetworkServiceTest_Log_Params_Data"*
  call void @_ZN7network5mojom8internal34NetworkServiceTest_Log_Params_DataC1Ev(%"class.network::mojom::internal::NetworkServiceTest_Log_Params_Data"* %12) #11
  %13 = bitcast %"class.mojo::internal::MessageFragment.109"* %4 to i8*
  call void @llvm.lifetime.start.p0i8(i64 16, i8* nonnull %13) #11
  %14 = getelementptr inbounds %"class.mojo::internal::MessageFragment.109", %"class.mojo::internal::MessageFragment.109"* %4, i64 0, i32 0
  %15 = getelementptr inbounds %"class.mojo::internal::MessageFragment.109", %"class.mojo::internal::MessageFragment.109"* %4, i64 0, i32 1
  store %"class.mojo::Message"* %3, %"class.mojo::Message"** %14, align 8
  store i64 -1, i64* %15, align 8
  call void @_ZN4mojo8internal10SerializerINS_14StringDataViewEKNSt3__112basic_stringIcNS3_11char_traitsIcEENS3_9allocatorIcEEEEE9SerializeERSA_RNS0_15MessageFragmentINS0_10Array_DataIcEEEE(%"class.std::__1::basic_string"* dereferenceable(24) %1, %"class.mojo::internal::MessageFragment.109"* nonnull dereferenceable(16) %4) #11
  %16 = load i8*, i8** %9, align 8
  %17 = getelementptr inbounds i8, i8* %16, i64 %8
  %18 = getelementptr inbounds i8, i8* %17, i64 8
  %19 = load i64, i64* %15, align 8
  %20 = icmp eq i64 %19, -1
  br i1 %20, label %27, label %21

21:                                               ; preds = %2
  %22 = load %"class.mojo::Message"*, %"class.mojo::Message"** %14, align 8
  %23 = getelementptr inbounds %"class.mojo::Message", %"class.mojo::Message"* %22, i64 0, i32 1, i32 2
  %24 = load i8*, i8** %23, align 8
  %25 = getelementptr inbounds i8, i8* %24, i64 %19
  %26 = bitcast i8* %25 to %"class.mojo::internal::Array_Data.110"*
  br label %27

27:                                               ; preds = %21, %2
  %28 = phi %"class.mojo::internal::Array_Data.110"* [ %26, %21 ], [ null, %2 ]
  %29 = bitcast i8* %18 to i64*
  %30 = icmp eq %"class.mojo::internal::Array_Data.110"* %28, null
  %31 = ptrtoint %"class.mojo::internal::Array_Data.110"* %28 to i64
  %32 = ptrtoint i8* %18 to i64
  %33 = sub i64 %31, %32
  %34 = select i1 %30, i64 0, i64 %33
  store i64 %34, i64* %29, align 8
  call void @llvm.lifetime.start.p0i8(i64 1, i8* nonnull %5) #11
  store i8 0, i8* %5, align 1
  %35 = call i8* @_Znwm(i64 16) #12
  %36 = bitcast i8* %35 to i32 (...)***
  store i32 (...)** bitcast (i8** getelementptr inbounds ({ [6 x i8*] }, { [6 x i8*] }* @_ZTVN7network5mojom41NetworkServiceTest_Log_HandleSyncResponseE, i64 0, inrange i32 0, i64 2) to i32 (...)**), i32 (...)*** %36, align 8
  %37 = getelementptr inbounds i8, i8* %35, i64 8
  %38 = bitcast i8* %37 to i8**
  store i8* %5, i8** %38, align 8
  %39 = bitcast i8* %35 to %"class.mojo::MessageReceiver"*
  %40 = getelementptr inbounds %"class.network::mojom::NetworkServiceTestProxy", %"class.network::mojom::NetworkServiceTestProxy"* %0, i64 0, i32 1
  %41 = load %"class.mojo::MessageReceiverWithResponder"*, %"class.mojo::MessageReceiverWithResponder"** %40, align 8
  %42 = bitcast %"class.mojo::MessageReceiverWithResponder"* %41 to i1 (%"class.mojo::MessageReceiverWithResponder"*, %"class.mojo::Message"*, %"class.mojo::MessageReceiver"*)***
  %43 = load i1 (%"class.mojo::MessageReceiverWithResponder"*, %"class.mojo::Message"*, %"class.mojo::MessageReceiver"*)**, i1 (%"class.mojo::MessageReceiverWithResponder"*, %"class.mojo::Message"*, %"class.mojo::MessageReceiver"*)*** %42, align 8
  %44 = getelementptr inbounds i1 (%"class.mojo::MessageReceiverWithResponder"*, %"class.mojo::Message"*, %"class.mojo::MessageReceiver"*)*, i1 (%"class.mojo::MessageReceiverWithResponder"*, %"class.mojo::Message"*, %"class.mojo::MessageReceiver"*)** %43, i64 4
  %45 = load i1 (%"class.mojo::MessageReceiverWithResponder"*, %"class.mojo::Message"*, %"class.mojo::MessageReceiver"*)*, i1 (%"class.mojo::MessageReceiverWithResponder"*, %"class.mojo::Message"*, %"class.mojo::MessageReceiver"*)** %44, align 8
  %46 = call zeroext i1 %45(%"class.mojo::MessageReceiverWithResponder"* %41, %"class.mojo::Message"* nonnull %3, %"class.mojo::MessageReceiver"* nonnull %39) #11
  %47 = load i8, i8* %5, align 1, !range !2
  %48 = icmp ne i8 %47, 0
  call void @llvm.lifetime.end.p0i8(i64 1, i8* nonnull %5) #11
  call void @llvm.lifetime.end.p0i8(i64 16, i8* nonnull %13) #11
  call void @_ZN4mojo7MessageD1Ev(%"class.mojo::Message"* nonnull %3) #11
  call void @llvm.lifetime.end.p0i8(i64 120, i8* nonnull %6) #11
  ret i1 %48
}

; Function Attrs: nounwind ssp uwtable
define hidden void @_ZN7network5mojom23NetworkServiceTestProxy3LogERKNSt3__112basic_stringIcNS2_11char_traitsIcEENS2_9allocatorIcEEEEN4base12OnceCallbackIFvvEEE(%"class.network::mojom::NetworkServiceTestProxy"* nocapture readonly, %"class.std::__1::basic_string"* dereferenceable(24), %"class.base::OnceCallback"* nocapture) unnamed_addr #0 align 2 {
  %4 = alloca %"class.mojo::Message", align 8
  %5 = alloca %"class.mojo::internal::MessageFragment.109", align 8
  %6 = alloca %"class.base::OnceCallback", align 8
  %7 = bitcast %"class.mojo::Message"* %4 to i8*
  call void @llvm.lifetime.start.p0i8(i64 120, i8* nonnull %7) #11
  call void @llvm.memset.p0i8.i64(i8* nonnull align 8 %7, i8 -86, i64 120, i1 false)
  call void @_ZN4mojo7MessageC1EjjmmPNSt3__16vectorINS_16ScopedHandleBaseINS_6HandleEEENS1_9allocatorIS5_EEEE(%"class.mojo::Message"* nonnull %4, i32 74253995, i32 1, i64 0, i64 0, %"class.std::__1::vector.11"* null) #11
  %8 = getelementptr inbounds %"class.mojo::Message", %"class.mojo::Message"* %4, i64 0, i32 1
  %9 = call i64 @_ZN4mojo8internal6Buffer8AllocateEm(%"class.mojo::internal::Buffer"* %8, i64 16) #11
  %10 = getelementptr inbounds %"class.mojo::Message", %"class.mojo::Message"* %4, i64 0, i32 1, i32 2
  %11 = load i8*, i8** %10, align 8
  %12 = getelementptr inbounds i8, i8* %11, i64 %9
  %13 = bitcast i8* %12 to %"class.network::mojom::internal::NetworkServiceTest_Log_Params_Data"*
  call void @_ZN7network5mojom8internal34NetworkServiceTest_Log_Params_DataC1Ev(%"class.network::mojom::internal::NetworkServiceTest_Log_Params_Data"* %13) #11
  %14 = bitcast %"class.mojo::internal::MessageFragment.109"* %5 to i8*
  call void @llvm.lifetime.start.p0i8(i64 16, i8* nonnull %14) #11
  %15 = getelementptr inbounds %"class.mojo::internal::MessageFragment.109", %"class.mojo::internal::MessageFragment.109"* %5, i64 0, i32 0
  %16 = getelementptr inbounds %"class.mojo::internal::MessageFragment.109", %"class.mojo::internal::MessageFragment.109"* %5, i64 0, i32 1
  store %"class.mojo::Message"* %4, %"class.mojo::Message"** %15, align 8
  store i64 -1, i64* %16, align 8
  call void @_ZN4mojo8internal10SerializerINS_14StringDataViewEKNSt3__112basic_stringIcNS3_11char_traitsIcEENS3_9allocatorIcEEEEE9SerializeERSA_RNS0_15MessageFragmentINS0_10Array_DataIcEEEE(%"class.std::__1::basic_string"* dereferenceable(24) %1, %"class.mojo::internal::MessageFragment.109"* nonnull dereferenceable(16) %5) #11
  %17 = load i8*, i8** %10, align 8
  %18 = getelementptr inbounds i8, i8* %17, i64 %9
  %19 = getelementptr inbounds i8, i8* %18, i64 8
  %20 = load i64, i64* %16, align 8
  %21 = icmp eq i64 %20, -1
  br i1 %21, label %28, label %22

22:                                               ; preds = %3
  %23 = load %"class.mojo::Message"*, %"class.mojo::Message"** %15, align 8
  %24 = getelementptr inbounds %"class.mojo::Message", %"class.mojo::Message"* %23, i64 0, i32 1, i32 2
  %25 = load i8*, i8** %24, align 8
  %26 = getelementptr inbounds i8, i8* %25, i64 %20
  %27 = bitcast i8* %26 to %"class.mojo::internal::Array_Data.110"*
  br label %28

28:                                               ; preds = %22, %3
  %29 = phi %"class.mojo::internal::Array_Data.110"* [ %27, %22 ], [ null, %3 ]
  %30 = bitcast i8* %19 to i64*
  %31 = icmp eq %"class.mojo::internal::Array_Data.110"* %29, null
  %32 = ptrtoint %"class.mojo::internal::Array_Data.110"* %29 to i64
  %33 = ptrtoint i8* %19 to i64
  %34 = sub i64 %32, %33
  %35 = select i1 %31, i64 0, i64 %34
  store i64 %35, i64* %30, align 8
  %36 = call i8* @_Znwm(i64 16) #12
  %37 = getelementptr inbounds %"class.base::OnceCallback", %"class.base::OnceCallback"* %2, i64 0, i32 0, i32 0, i32 0
  %38 = bitcast %"class.base::OnceCallback"* %2 to i64*
  %39 = load i64, i64* %38, align 8
  store %"class.base::internal::BindStateBase"* null, %"class.base::internal::BindStateBase"** %37, align 8
  %40 = bitcast i8* %36 to i32 (...)***
  store i32 (...)** bitcast (i8** getelementptr inbounds ({ [6 x i8*] }, { [6 x i8*] }* @_ZTVN7network5mojom40NetworkServiceTest_Log_ForwardToCallbackE, i64 0, inrange i32 0, i64 2) to i32 (...)**), i32 (...)*** %40, align 8
  %41 = getelementptr inbounds i8, i8* %36, i64 8
  %42 = getelementptr inbounds %"class.base::OnceCallback", %"class.base::OnceCallback"* %6, i64 0, i32 0, i32 0, i32 0
  %43 = bitcast i8* %41 to i64*
  store i64 %39, i64* %43, align 8
  store %"class.base::internal::BindStateBase"* null, %"class.base::internal::BindStateBase"** %42, align 8
  %44 = bitcast i8* %36 to %"class.mojo::MessageReceiver"*
  %45 = getelementptr inbounds %"class.base::OnceCallback", %"class.base::OnceCallback"* %6, i64 0, i32 0
  call void @_ZN4base8internal12CallbackBaseD2Ev(%"class.base::internal::CallbackBase"* nonnull %45) #11
  %46 = getelementptr inbounds %"class.network::mojom::NetworkServiceTestProxy", %"class.network::mojom::NetworkServiceTestProxy"* %0, i64 0, i32 1
  %47 = load %"class.mojo::MessageReceiverWithResponder"*, %"class.mojo::MessageReceiverWithResponder"** %46, align 8
  %48 = bitcast %"class.mojo::MessageReceiverWithResponder"* %47 to i1 (%"class.mojo::MessageReceiverWithResponder"*, %"class.mojo::Message"*, %"class.mojo::MessageReceiver"*)***
  %49 = load i1 (%"class.mojo::MessageReceiverWithResponder"*, %"class.mojo::Message"*, %"class.mojo::MessageReceiver"*)**, i1 (%"class.mojo::MessageReceiverWithResponder"*, %"class.mojo::Message"*, %"class.mojo::MessageReceiver"*)*** %48, align 8
  %50 = getelementptr inbounds i1 (%"class.mojo::MessageReceiverWithResponder"*, %"class.mojo::Message"*, %"class.mojo::MessageReceiver"*)*, i1 (%"class.mojo::MessageReceiverWithResponder"*, %"class.mojo::Message"*, %"class.mojo::MessageReceiver"*)** %49, i64 4
  %51 = load i1 (%"class.mojo::MessageReceiverWithResponder"*, %"class.mojo::Message"*, %"class.mojo::MessageReceiver"*)*, i1 (%"class.mojo::MessageReceiverWithResponder"*, %"class.mojo::Message"*, %"class.mojo::MessageReceiver"*)** %50, align 8
  %52 = call zeroext i1 %51(%"class.mojo::MessageReceiverWithResponder"* %47, %"class.mojo::Message"* nonnull %4, %"class.mojo::MessageReceiver"* nonnull %44) #11
  call void @llvm.lifetime.end.p0i8(i64 16, i8* nonnull %14) #11
  call void @_ZN4mojo7MessageD1Ev(%"class.mojo::Message"* nonnull %4) #11
  call void @llvm.lifetime.end.p0i8(i64 120, i8* nonnull %7) #11
  ret void
}

; Function Attrs: nounwind ssp uwtable
define hidden void @_ZN7network5mojom23NetworkServiceTestProxy18ActivateFieldTrialERKNSt3__112basic_stringIcNS2_11char_traitsIcEENS2_9allocatorIcEEEE(%"class.network::mojom::NetworkServiceTestProxy"* nocapture readonly, %"class.std::__1::basic_string"* dereferenceable(24)) unnamed_addr #0 align 2 {
  %3 = alloca %"class.mojo::Message", align 8
  %4 = alloca %"class.mojo::internal::MessageFragment.109", align 8
  %5 = bitcast %"class.mojo::Message"* %3 to i8*
  call void @llvm.lifetime.start.p0i8(i64 120, i8* nonnull %5) #11
  call void @llvm.memset.p0i8.i64(i8* nonnull align 8 %5, i8 -86, i64 120, i1 false)
  call void @_ZN4mojo7MessageC1EjjmmPNSt3__16vectorINS_16ScopedHandleBaseINS_6HandleEEENS1_9allocatorIS5_EEEE(%"class.mojo::Message"* nonnull %3, i32 12603606, i32 0, i64 0, i64 0, %"class.std::__1::vector.11"* null) #11
  %6 = getelementptr inbounds %"class.mojo::Message", %"class.mojo::Message"* %3, i64 0, i32 1
  %7 = call i64 @_ZN4mojo8internal6Buffer8AllocateEm(%"class.mojo::internal::Buffer"* %6, i64 16) #11
  %8 = getelementptr inbounds %"class.mojo::Message", %"class.mojo::Message"* %3, i64 0, i32 1, i32 2
  %9 = load i8*, i8** %8, align 8
  %10 = getelementptr inbounds i8, i8* %9, i64 %7
  %11 = bitcast i8* %10 to %"class.network::mojom::internal::NetworkServiceTest_ActivateFieldTrial_Params_Data"*
  call void @_ZN7network5mojom8internal49NetworkServiceTest_ActivateFieldTrial_Params_DataC1Ev(%"class.network::mojom::internal::NetworkServiceTest_ActivateFieldTrial_Params_Data"* %11) #11
  %12 = bitcast %"class.mojo::internal::MessageFragment.109"* %4 to i8*
  call void @llvm.lifetime.start.p0i8(i64 16, i8* nonnull %12) #11
  %13 = getelementptr inbounds %"class.mojo::internal::MessageFragment.109", %"class.mojo::internal::MessageFragment.109"* %4, i64 0, i32 0
  %14 = getelementptr inbounds %"class.mojo::internal::MessageFragment.109", %"class.mojo::internal::MessageFragment.109"* %4, i64 0, i32 1
  store %"class.mojo::Message"* %3, %"class.mojo::Message"** %13, align 8
  store i64 -1, i64* %14, align 8
  call void @_ZN4mojo8internal10SerializerINS_14StringDataViewEKNSt3__112basic_stringIcNS3_11char_traitsIcEENS3_9allocatorIcEEEEE9SerializeERSA_RNS0_15MessageFragmentINS0_10Array_DataIcEEEE(%"class.std::__1::basic_string"* dereferenceable(24) %1, %"class.mojo::internal::MessageFragment.109"* nonnull dereferenceable(16) %4) #11
  %15 = load i8*, i8** %8, align 8
  %16 = getelementptr inbounds i8, i8* %15, i64 %7
  %17 = getelementptr inbounds i8, i8* %16, i64 8
  %18 = load i64, i64* %14, align 8
  %19 = icmp eq i64 %18, -1
  br i1 %19, label %26, label %20

20:                                               ; preds = %2
  %21 = load %"class.mojo::Message"*, %"class.mojo::Message"** %13, align 8
  %22 = getelementptr inbounds %"class.mojo::Message", %"class.mojo::Message"* %21, i64 0, i32 1, i32 2
  %23 = load i8*, i8** %22, align 8
  %24 = getelementptr inbounds i8, i8* %23, i64 %18
  %25 = bitcast i8* %24 to %"class.mojo::internal::Array_Data.110"*
  br label %26

26:                                               ; preds = %2, %20
  %27 = phi %"class.mojo::internal::Array_Data.110"* [ %25, %20 ], [ null, %2 ]
  %28 = bitcast i8* %17 to i64*
  %29 = icmp eq %"class.mojo::internal::Array_Data.110"* %27, null
  %30 = ptrtoint %"class.mojo::internal::Array_Data.110"* %27 to i64
  %31 = ptrtoint i8* %17 to i64
  %32 = sub i64 %30, %31
  %33 = select i1 %29, i64 0, i64 %32
  store i64 %33, i64* %28, align 8
  %34 = getelementptr inbounds %"class.network::mojom::NetworkServiceTestProxy", %"class.network::mojom::NetworkServiceTestProxy"* %0, i64 0, i32 1
  %35 = bitcast %"class.mojo::MessageReceiverWithResponder"** %34 to %"class.mojo::MessageReceiver"**
  %36 = load %"class.mojo::MessageReceiver"*, %"class.mojo::MessageReceiver"** %35, align 8
  %37 = bitcast %"class.mojo::MessageReceiver"* %36 to i1 (%"class.mojo::MessageReceiver"*, %"class.mojo::Message"*)***
  %38 = load i1 (%"class.mojo::MessageReceiver"*, %"class.mojo::Message"*)**, i1 (%"class.mojo::MessageReceiver"*, %"class.mojo::Message"*)*** %37, align 8
  %39 = getelementptr inbounds i1 (%"class.mojo::MessageReceiver"*, %"class.mojo::Message"*)*, i1 (%"class.mojo::MessageReceiver"*, %"class.mojo::Message"*)** %38, i64 3
  %40 = load i1 (%"class.mojo::MessageReceiver"*, %"class.mojo::Message"*)*, i1 (%"class.mojo::MessageReceiver"*, %"class.mojo::Message"*)** %39, align 8
  %41 = call zeroext i1 %40(%"class.mojo::MessageReceiver"* %36, %"class.mojo::Message"* nonnull %3) #11
  call void @llvm.lifetime.end.p0i8(i64 16, i8* nonnull %12) #11
  call void @_ZN4mojo7MessageD1Ev(%"class.mojo::Message"* nonnull %3) #11
  call void @llvm.lifetime.end.p0i8(i64 120, i8* nonnull %5) #11
  ret void
}

; Function Attrs: nounwind ssp uwtable
define hidden zeroext i1 @_ZN7network5mojom23NetworkServiceTestProxy11SetEVPolicyERKNSt3__16vectorIhNS2_9allocatorIhEEEERKNS2_12basic_stringIcNS2_11char_traitsIcEENS4_IcEEEE(%"class.network::mojom::NetworkServiceTestProxy"* nocapture readonly, %"class.std::__1::vector.84"* nocapture readonly dereferenceable(24), %"class.std::__1::basic_string"* dereferenceable(24)) unnamed_addr #0 align 2 {
  %4 = alloca %"class.mojo::Message", align 8
  %5 = alloca %"class.mojo::internal::ContainerValidateParams", align 8
  %6 = alloca %"class.mojo::internal::MessageFragment.109", align 8
  %7 = alloca i8, align 1
  %8 = bitcast %"class.mojo::Message"* %4 to i8*
  call void @llvm.lifetime.start.p0i8(i64 120, i8* nonnull %8) #11
  call void @llvm.memset.p0i8.i64(i8* nonnull align 8 %8, i8 -86, i64 120, i1 false)
  call void @_ZN4mojo7MessageC1EjjmmPNSt3__16vectorINS_16ScopedHandleBaseINS_6HandleEEENS1_9allocatorIS5_EEEE(%"class.mojo::Message"* nonnull %4, i32 1188838258, i32 5, i64 0, i64 0, %"class.std::__1::vector.11"* null) #11
  %9 = getelementptr inbounds %"class.mojo::Message", %"class.mojo::Message"* %4, i64 0, i32 1
  %10 = call i64 @_ZN4mojo8internal6Buffer8AllocateEm(%"class.mojo::internal::Buffer"* %9, i64 24) #11
  %11 = getelementptr inbounds %"class.mojo::Message", %"class.mojo::Message"* %4, i64 0, i32 1, i32 2
  %12 = load i8*, i8** %11, align 8
  %13 = getelementptr inbounds i8, i8* %12, i64 %10
  %14 = bitcast i8* %13 to %"class.network::mojom::internal::NetworkServiceTest_SetEVPolicy_Params_Data"*
  call void @_ZN7network5mojom8internal42NetworkServiceTest_SetEVPolicy_Params_DataC1Ev(%"class.network::mojom::internal::NetworkServiceTest_SetEVPolicy_Params_Data"* %14) #11
  %15 = bitcast %"class.mojo::internal::ContainerValidateParams"* %5 to i8*
  call void @llvm.lifetime.start.p0i8(i64 32, i8* nonnull %15) #11
  %16 = bitcast %"class.mojo::internal::ContainerValidateParams"* %5 to i64*
  store i64 -6148914691236517206, i64* %16, align 8
  %17 = getelementptr inbounds %"class.mojo::internal::ContainerValidateParams", %"class.mojo::internal::ContainerValidateParams"* %5, i64 0, i32 0
  store i32 32, i32* %17, align 8
  %18 = getelementptr inbounds %"class.mojo::internal::ContainerValidateParams", %"class.mojo::internal::ContainerValidateParams"* %5, i64 0, i32 1
  store i8 0, i8* %18, align 4
  %19 = getelementptr inbounds %"class.mojo::internal::ContainerValidateParams", %"class.mojo::internal::ContainerValidateParams"* %5, i64 0, i32 2
  %20 = getelementptr inbounds %"class.std::__1::vector.84", %"class.std::__1::vector.84"* %1, i64 0, i32 0, i32 1
  %21 = bitcast i8** %20 to i64*
  %22 = bitcast %"class.mojo::internal::ContainerValidateParams"** %19 to i8*
  call void @llvm.memset.p0i8.i64(i8* align 8 %22, i8 0, i64 24, i1 false)
  %23 = load i64, i64* %21, align 8
  %24 = bitcast %"class.std::__1::vector.84"* %1 to i64*
  %25 = load i64, i64* %24, align 8
  %26 = sub i64 %23, %25
  %27 = icmp ugt i64 %26, 4294967287
  br i1 %27, label %42, label %28

28:                                               ; preds = %3
  %29 = trunc i64 %26 to i32
  %30 = add nuw i32 %29, 8
  %31 = zext i32 %30 to i64
  %32 = call i64 @_ZN4mojo8internal6Buffer8AllocateEm(%"class.mojo::internal::Buffer"* %9, i64 %31) #11
  %33 = load i8*, i8** %11, align 8
  %34 = getelementptr inbounds i8, i8* %33, i64 %32
  %35 = bitcast i8* %34 to i32*
  store i32 %30, i32* %35, align 1
  %36 = getelementptr inbounds i8, i8* %34, i64 4
  %37 = bitcast i8* %36 to i32*
  store i32 %29, i32* %37, align 1
  %38 = load i64, i64* %24, align 8
  %39 = load i64, i64* %21, align 8
  %40 = sub i64 %39, %38
  %41 = icmp eq i64 %40, 0
  br i1 %41, label %101, label %42

42:                                               ; preds = %28, %3
  %43 = phi i64 [ -1, %3 ], [ %32, %28 ]
  %44 = phi i64 [ %25, %3 ], [ %38, %28 ]
  %45 = phi i64 [ %26, %3 ], [ %40, %28 ]
  %46 = inttoptr i64 %44 to i8*
  %47 = load i8*, i8** %11, align 8
  %48 = getelementptr inbounds i8, i8* %47, i64 %43
  %49 = icmp eq i64 %44, 0
  %50 = getelementptr inbounds i8, i8* %48, i64 8
  br i1 %49, label %51, label %62

51:                                               ; preds = %42
  %52 = getelementptr inbounds %"class.std::__1::vector.84", %"class.std::__1::vector.84"* %1, i64 0, i32 0, i32 0
  %53 = load i8, i8* %46, align 1
  store i8 %53, i8* %50, align 1
  %54 = icmp eq i64 %45, 1
  br i1 %54, label %101, label %55

55:                                               ; preds = %51
  %56 = add i64 %45, -1
  %57 = add i64 %45, -2
  %58 = and i64 %56, 3
  %59 = icmp ult i64 %57, 3
  br i1 %59, label %88, label %60

60:                                               ; preds = %55
  %61 = sub i64 %56, %58
  br label %63

62:                                               ; preds = %42
  call void @llvm.memcpy.p0i8.p0i8.i64(i8* align 1 %50, i8* nonnull align 1 %46, i64 %45, i1 false) #11
  br label %101

63:                                               ; preds = %63, %60
  %64 = phi i64 [ 1, %60 ], [ %82, %63 ]
  %65 = phi i64 [ %61, %60 ], [ %86, %63 ]
  %66 = load i8*, i8** %52, align 8
  %67 = add nuw nsw i64 %64, 1
  %68 = getelementptr inbounds i8, i8* %66, i64 %64
  %69 = load i8, i8* %68, align 1
  %70 = getelementptr inbounds i8, i8* %50, i64 %64
  store i8 %69, i8* %70, align 1
  %71 = load i8*, i8** %52, align 8
  %72 = add nuw nsw i64 %64, 2
  %73 = getelementptr inbounds i8, i8* %71, i64 %67
  %74 = load i8, i8* %73, align 1
  %75 = getelementptr inbounds i8, i8* %50, i64 %67
  store i8 %74, i8* %75, align 1
  %76 = load i8*, i8** %52, align 8
  %77 = add nuw i64 %64, 3
  %78 = getelementptr inbounds i8, i8* %76, i64 %72
  %79 = load i8, i8* %78, align 1
  %80 = getelementptr inbounds i8, i8* %50, i64 %72
  store i8 %79, i8* %80, align 1
  %81 = load i8*, i8** %52, align 8
  %82 = add nuw i64 %64, 4
  %83 = getelementptr inbounds i8, i8* %81, i64 %77
  %84 = load i8, i8* %83, align 1
  %85 = getelementptr inbounds i8, i8* %50, i64 %77
  store i8 %84, i8* %85, align 1
  %86 = add i64 %65, -4
  %87 = icmp eq i64 %86, 0
  br i1 %87, label %88, label %63

88:                                               ; preds = %63, %55
  %89 = phi i64 [ 1, %55 ], [ %82, %63 ]
  %90 = icmp eq i64 %58, 0
  br i1 %90, label %101, label %91

91:                                               ; preds = %88, %91
  %92 = phi i64 [ %95, %91 ], [ %89, %88 ]
  %93 = phi i64 [ %99, %91 ], [ %58, %88 ]
  %94 = load i8*, i8** %52, align 8
  %95 = add nuw i64 %92, 1
  %96 = getelementptr inbounds i8, i8* %94, i64 %92
  %97 = load i8, i8* %96, align 1
  %98 = getelementptr inbounds i8, i8* %50, i64 %92
  store i8 %97, i8* %98, align 1
  %99 = add i64 %93, -1
  %100 = icmp eq i64 %99, 0
  br i1 %100, label %101, label %91, !llvm.loop !3

101:                                              ; preds = %88, %91, %28, %51, %62
  %102 = phi i64 [ %43, %51 ], [ %43, %62 ], [ %32, %28 ], [ %43, %91 ], [ %43, %88 ]
  %103 = load i8*, i8** %11, align 8
  %104 = getelementptr inbounds i8, i8* %103, i64 %10
  %105 = getelementptr inbounds i8, i8* %104, i64 8
  %106 = icmp eq i64 %102, -1
  %107 = getelementptr inbounds i8, i8* %103, i64 %102
  %108 = bitcast i8* %107 to %"class.mojo::internal::Array_Data.126"*
  %109 = select i1 %106, %"class.mojo::internal::Array_Data.126"* null, %"class.mojo::internal::Array_Data.126"* %108
  %110 = bitcast i8* %105 to i64*
  %111 = icmp eq %"class.mojo::internal::Array_Data.126"* %109, null
  %112 = ptrtoint %"class.mojo::internal::Array_Data.126"* %109 to i64
  %113 = ptrtoint i8* %105 to i64
  %114 = sub i64 %112, %113
  %115 = select i1 %111, i64 0, i64 %114
  store i64 %115, i64* %110, align 8
  %116 = bitcast %"class.mojo::internal::MessageFragment.109"* %6 to i8*
  call void @llvm.lifetime.start.p0i8(i64 16, i8* nonnull %116) #11
  %117 = getelementptr inbounds %"class.mojo::internal::MessageFragment.109", %"class.mojo::internal::MessageFragment.109"* %6, i64 0, i32 0
  %118 = getelementptr inbounds %"class.mojo::internal::MessageFragment.109", %"class.mojo::internal::MessageFragment.109"* %6, i64 0, i32 1
  store %"class.mojo::Message"* %4, %"class.mojo::Message"** %117, align 8
  store i64 -1, i64* %118, align 8
  call void @_ZN4mojo8internal10SerializerINS_14StringDataViewEKNSt3__112basic_stringIcNS3_11char_traitsIcEENS3_9allocatorIcEEEEE9SerializeERSA_RNS0_15MessageFragmentINS0_10Array_DataIcEEEE(%"class.std::__1::basic_string"* dereferenceable(24) %2, %"class.mojo::internal::MessageFragment.109"* nonnull dereferenceable(16) %6) #11
  %119 = load i8*, i8** %11, align 8
  %120 = getelementptr inbounds i8, i8* %119, i64 %10
  %121 = getelementptr inbounds i8, i8* %120, i64 16
  %122 = load i64, i64* %118, align 8
  %123 = icmp eq i64 %122, -1
  br i1 %123, label %130, label %124

124:                                              ; preds = %101
  %125 = load %"class.mojo::Message"*, %"class.mojo::Message"** %117, align 8
  %126 = getelementptr inbounds %"class.mojo::Message", %"class.mojo::Message"* %125, i64 0, i32 1, i32 2
  %127 = load i8*, i8** %126, align 8
  %128 = getelementptr inbounds i8, i8* %127, i64 %122
  %129 = bitcast i8* %128 to %"class.mojo::internal::Array_Data.110"*
  br label %130

130:                                              ; preds = %124, %101
  %131 = phi %"class.mojo::internal::Array_Data.110"* [ %129, %124 ], [ null, %101 ]
  %132 = bitcast i8* %121 to i64*
  %133 = icmp eq %"class.mojo::internal::Array_Data.110"* %131, null
  %134 = ptrtoint %"class.mojo::internal::Array_Data.110"* %131 to i64
  %135 = ptrtoint i8* %121 to i64
  %136 = sub i64 %134, %135
  %137 = select i1 %133, i64 0, i64 %136
  store i64 %137, i64* %132, align 8
  call void @llvm.lifetime.start.p0i8(i64 1, i8* nonnull %7) #11
  store i8 0, i8* %7, align 1
  %138 = call i8* @_Znwm(i64 16) #12
  %139 = bitcast i8* %138 to i32 (...)***
  store i32 (...)** bitcast (i8** getelementptr inbounds ({ [6 x i8*] }, { [6 x i8*] }* @_ZTVN7network5mojom49NetworkServiceTest_SetEVPolicy_HandleSyncResponseE, i64 0, inrange i32 0, i64 2) to i32 (...)**), i32 (...)*** %139, align 8
  %140 = getelementptr inbounds i8, i8* %138, i64 8
  %141 = bitcast i8* %140 to i8**
  store i8* %7, i8** %141, align 8
  %142 = bitcast i8* %138 to %"class.mojo::MessageReceiver"*
  %143 = getelementptr inbounds %"class.network::mojom::NetworkServiceTestProxy", %"class.network::mojom::NetworkServiceTestProxy"* %0, i64 0, i32 1
  %144 = load %"class.mojo::MessageReceiverWithResponder"*, %"class.mojo::MessageReceiverWithResponder"** %143, align 8
  %145 = bitcast %"class.mojo::MessageReceiverWithResponder"* %144 to i1 (%"class.mojo::MessageReceiverWithResponder"*, %"class.mojo::Message"*, %"class.mojo::MessageReceiver"*)***
  %146 = load i1 (%"class.mojo::MessageReceiverWithResponder"*, %"class.mojo::Message"*, %"class.mojo::MessageReceiver"*)**, i1 (%"class.mojo::MessageReceiverWithResponder"*, %"class.mojo::Message"*, %"class.mojo::MessageReceiver"*)*** %145, align 8
  %147 = getelementptr inbounds i1 (%"class.mojo::MessageReceiverWithResponder"*, %"class.mojo::Message"*, %"class.mojo::MessageReceiver"*)*, i1 (%"class.mojo::MessageReceiverWithResponder"*, %"class.mojo::Message"*, %"class.mojo::MessageReceiver"*)** %146, i64 4
  %148 = load i1 (%"class.mojo::MessageReceiverWithResponder"*, %"class.mojo::Message"*, %"class.mojo::MessageReceiver"*)*, i1 (%"class.mojo::MessageReceiverWithResponder"*, %"class.mojo::Message"*, %"class.mojo::MessageReceiver"*)** %147, align 8
  %149 = call zeroext i1 %148(%"class.mojo::MessageReceiverWithResponder"* %144, %"class.mojo::Message"* nonnull %4, %"class.mojo::MessageReceiver"* nonnull %142) #11
  %150 = load i8, i8* %7, align 1, !range !2
  %151 = icmp ne i8 %150, 0
  call void @llvm.lifetime.end.p0i8(i64 1, i8* nonnull %7) #11
  call void @llvm.lifetime.end.p0i8(i64 16, i8* nonnull %116) #11
  call void @_ZN4mojo8internal23ContainerValidateParamsD2Ev(%"class.mojo::internal::ContainerValidateParams"* nonnull %5) #11
  call void @llvm.lifetime.end.p0i8(i64 32, i8* nonnull %15) #11
  call void @_ZN4mojo7MessageD1Ev(%"class.mojo::Message"* nonnull %4) #11
  call void @llvm.lifetime.end.p0i8(i64 120, i8* nonnull %8) #11
  ret i1 %151
}

; Function Attrs: nounwind ssp uwtable
define hidden void @_ZN7network5mojom23NetworkServiceTestProxy11SetEVPolicyERKNSt3__16vectorIhNS2_9allocatorIhEEEERKNS2_12basic_stringIcNS2_11char_traitsIcEENS4_IcEEEEN4base12OnceCallbackIFvvEEE(%"class.network::mojom::NetworkServiceTestProxy"* nocapture readonly, %"class.std::__1::vector.84"* nocapture readonly dereferenceable(24), %"class.std::__1::basic_string"* dereferenceable(24), %"class.base::OnceCallback"* nocapture) unnamed_addr #0 align 2 {
  %5 = alloca %"class.mojo::Message", align 8
  %6 = alloca %"class.mojo::internal::ContainerValidateParams", align 8
  %7 = alloca %"class.mojo::internal::MessageFragment.109", align 8
  %8 = alloca %"class.base::OnceCallback", align 8
  %9 = bitcast %"class.mojo::Message"* %5 to i8*
  call void @llvm.lifetime.start.p0i8(i64 120, i8* nonnull %9) #11
  call void @llvm.memset.p0i8.i64(i8* nonnull align 8 %9, i8 -86, i64 120, i1 false)
  call void @_ZN4mojo7MessageC1EjjmmPNSt3__16vectorINS_16ScopedHandleBaseINS_6HandleEEENS1_9allocatorIS5_EEEE(%"class.mojo::Message"* nonnull %5, i32 1188838258, i32 1, i64 0, i64 0, %"class.std::__1::vector.11"* null) #11
  %10 = getelementptr inbounds %"class.mojo::Message", %"class.mojo::Message"* %5, i64 0, i32 1
  %11 = call i64 @_ZN4mojo8internal6Buffer8AllocateEm(%"class.mojo::internal::Buffer"* %10, i64 24) #11
  %12 = getelementptr inbounds %"class.mojo::Message", %"class.mojo::Message"* %5, i64 0, i32 1, i32 2
  %13 = load i8*, i8** %12, align 8
  %14 = getelementptr inbounds i8, i8* %13, i64 %11
  %15 = bitcast i8* %14 to %"class.network::mojom::internal::NetworkServiceTest_SetEVPolicy_Params_Data"*
  call void @_ZN7network5mojom8internal42NetworkServiceTest_SetEVPolicy_Params_DataC1Ev(%"class.network::mojom::internal::NetworkServiceTest_SetEVPolicy_Params_Data"* %15) #11
  %16 = bitcast %"class.mojo::internal::ContainerValidateParams"* %6 to i8*
  call void @llvm.lifetime.start.p0i8(i64 32, i8* nonnull %16) #11
  %17 = bitcast %"class.mojo::internal::ContainerValidateParams"* %6 to i64*
  store i64 -6148914691236517206, i64* %17, align 8
  %18 = getelementptr inbounds %"class.mojo::internal::ContainerValidateParams", %"class.mojo::internal::ContainerValidateParams"* %6, i64 0, i32 0
  store i32 32, i32* %18, align 8
  %19 = getelementptr inbounds %"class.mojo::internal::ContainerValidateParams", %"class.mojo::internal::ContainerValidateParams"* %6, i64 0, i32 1
  store i8 0, i8* %19, align 4
  %20 = getelementptr inbounds %"class.mojo::internal::ContainerValidateParams", %"class.mojo::internal::ContainerValidateParams"* %6, i64 0, i32 2
  %21 = getelementptr inbounds %"class.std::__1::vector.84", %"class.std::__1::vector.84"* %1, i64 0, i32 0, i32 1
  %22 = bitcast i8** %21 to i64*
  %23 = bitcast %"class.mojo::internal::ContainerValidateParams"** %20 to i8*
  call void @llvm.memset.p0i8.i64(i8* align 8 %23, i8 0, i64 24, i1 false)
  %24 = load i64, i64* %22, align 8
  %25 = bitcast %"class.std::__1::vector.84"* %1 to i64*
  %26 = load i64, i64* %25, align 8
  %27 = sub i64 %24, %26
  %28 = icmp ugt i64 %27, 4294967287
  br i1 %28, label %43, label %29

29:                                               ; preds = %4
  %30 = trunc i64 %27 to i32
  %31 = add nuw i32 %30, 8
  %32 = zext i32 %31 to i64
  %33 = call i64 @_ZN4mojo8internal6Buffer8AllocateEm(%"class.mojo::internal::Buffer"* %10, i64 %32) #11
  %34 = load i8*, i8** %12, align 8
  %35 = getelementptr inbounds i8, i8* %34, i64 %33
  %36 = bitcast i8* %35 to i32*
  store i32 %31, i32* %36, align 1
  %37 = getelementptr inbounds i8, i8* %35, i64 4
  %38 = bitcast i8* %37 to i32*
  store i32 %30, i32* %38, align 1
  %39 = load i64, i64* %25, align 8
  %40 = load i64, i64* %22, align 8
  %41 = sub i64 %40, %39
  %42 = icmp eq i64 %41, 0
  br i1 %42, label %102, label %43

43:                                               ; preds = %29, %4
  %44 = phi i64 [ -1, %4 ], [ %33, %29 ]
  %45 = phi i64 [ %26, %4 ], [ %39, %29 ]
  %46 = phi i64 [ %27, %4 ], [ %41, %29 ]
  %47 = inttoptr i64 %45 to i8*
  %48 = load i8*, i8** %12, align 8
  %49 = getelementptr inbounds i8, i8* %48, i64 %44
  %50 = icmp eq i64 %45, 0
  %51 = getelementptr inbounds i8, i8* %49, i64 8
  br i1 %50, label %52, label %63

52:                                               ; preds = %43
  %53 = getelementptr inbounds %"class.std::__1::vector.84", %"class.std::__1::vector.84"* %1, i64 0, i32 0, i32 0
  %54 = load i8, i8* %47, align 1
  store i8 %54, i8* %51, align 1
  %55 = icmp eq i64 %46, 1
  br i1 %55, label %102, label %56

56:                                               ; preds = %52
  %57 = add i64 %46, -1
  %58 = add i64 %46, -2
  %59 = and i64 %57, 3
  %60 = icmp ult i64 %58, 3
  br i1 %60, label %89, label %61

61:                                               ; preds = %56
  %62 = sub i64 %57, %59
  br label %64

63:                                               ; preds = %43
  call void @llvm.memcpy.p0i8.p0i8.i64(i8* align 1 %51, i8* nonnull align 1 %47, i64 %46, i1 false) #11
  br label %102

64:                                               ; preds = %64, %61
  %65 = phi i64 [ 1, %61 ], [ %83, %64 ]
  %66 = phi i64 [ %62, %61 ], [ %87, %64 ]
  %67 = load i8*, i8** %53, align 8
  %68 = add nuw nsw i64 %65, 1
  %69 = getelementptr inbounds i8, i8* %67, i64 %65
  %70 = load i8, i8* %69, align 1
  %71 = getelementptr inbounds i8, i8* %51, i64 %65
  store i8 %70, i8* %71, align 1
  %72 = load i8*, i8** %53, align 8
  %73 = add nuw nsw i64 %65, 2
  %74 = getelementptr inbounds i8, i8* %72, i64 %68
  %75 = load i8, i8* %74, align 1
  %76 = getelementptr inbounds i8, i8* %51, i64 %68
  store i8 %75, i8* %76, align 1
  %77 = load i8*, i8** %53, align 8
  %78 = add nuw i64 %65, 3
  %79 = getelementptr inbounds i8, i8* %77, i64 %73
  %80 = load i8, i8* %79, align 1
  %81 = getelementptr inbounds i8, i8* %51, i64 %73
  store i8 %80, i8* %81, align 1
  %82 = load i8*, i8** %53, align 8
  %83 = add nuw i64 %65, 4
  %84 = getelementptr inbounds i8, i8* %82, i64 %78
  %85 = load i8, i8* %84, align 1
  %86 = getelementptr inbounds i8, i8* %51, i64 %78
  store i8 %85, i8* %86, align 1
  %87 = add i64 %66, -4
  %88 = icmp eq i64 %87, 0
  br i1 %88, label %89, label %64

89:                                               ; preds = %64, %56
  %90 = phi i64 [ 1, %56 ], [ %83, %64 ]
  %91 = icmp eq i64 %59, 0
  br i1 %91, label %102, label %92

92:                                               ; preds = %89, %92
  %93 = phi i64 [ %96, %92 ], [ %90, %89 ]
  %94 = phi i64 [ %100, %92 ], [ %59, %89 ]
  %95 = load i8*, i8** %53, align 8
  %96 = add nuw i64 %93, 1
  %97 = getelementptr inbounds i8, i8* %95, i64 %93
  %98 = load i8, i8* %97, align 1
  %99 = getelementptr inbounds i8, i8* %51, i64 %93
  store i8 %98, i8* %99, align 1
  %100 = add i64 %94, -1
  %101 = icmp eq i64 %100, 0
  br i1 %101, label %102, label %92, !llvm.loop !5

102:                                              ; preds = %89, %92, %29, %52, %63
  %103 = phi i64 [ %44, %52 ], [ %44, %63 ], [ %33, %29 ], [ %44, %92 ], [ %44, %89 ]
  %104 = load i8*, i8** %12, align 8
  %105 = getelementptr inbounds i8, i8* %104, i64 %11
  %106 = getelementptr inbounds i8, i8* %105, i64 8
  %107 = icmp eq i64 %103, -1
  %108 = getelementptr inbounds i8, i8* %104, i64 %103
  %109 = bitcast i8* %108 to %"class.mojo::internal::Array_Data.126"*
  %110 = select i1 %107, %"class.mojo::internal::Array_Data.126"* null, %"class.mojo::internal::Array_Data.126"* %109
  %111 = bitcast i8* %106 to i64*
  %112 = icmp eq %"class.mojo::internal::Array_Data.126"* %110, null
  %113 = ptrtoint %"class.mojo::internal::Array_Data.126"* %110 to i64
  %114 = ptrtoint i8* %106 to i64
  %115 = sub i64 %113, %114
  %116 = select i1 %112, i64 0, i64 %115
  store i64 %116, i64* %111, align 8
  %117 = bitcast %"class.mojo::internal::MessageFragment.109"* %7 to i8*
  call void @llvm.lifetime.start.p0i8(i64 16, i8* nonnull %117) #11
  %118 = getelementptr inbounds %"class.mojo::internal::MessageFragment.109", %"class.mojo::internal::MessageFragment.109"* %7, i64 0, i32 0
  %119 = getelementptr inbounds %"class.mojo::internal::MessageFragment.109", %"class.mojo::internal::MessageFragment.109"* %7, i64 0, i32 1
  store %"class.mojo::Message"* %5, %"class.mojo::Message"** %118, align 8
  store i64 -1, i64* %119, align 8
  call void @_ZN4mojo8internal10SerializerINS_14StringDataViewEKNSt3__112basic_stringIcNS3_11char_traitsIcEENS3_9allocatorIcEEEEE9SerializeERSA_RNS0_15MessageFragmentINS0_10Array_DataIcEEEE(%"class.std::__1::basic_string"* dereferenceable(24) %2, %"class.mojo::internal::MessageFragment.109"* nonnull dereferenceable(16) %7) #11
  %120 = load i8*, i8** %12, align 8
  %121 = getelementptr inbounds i8, i8* %120, i64 %11
  %122 = getelementptr inbounds i8, i8* %121, i64 16
  %123 = load i64, i64* %119, align 8
  %124 = icmp eq i64 %123, -1
  br i1 %124, label %131, label %125

125:                                              ; preds = %102
  %126 = load %"class.mojo::Message"*, %"class.mojo::Message"** %118, align 8
  %127 = getelementptr inbounds %"class.mojo::Message", %"class.mojo::Message"* %126, i64 0, i32 1, i32 2
  %128 = load i8*, i8** %127, align 8
  %129 = getelementptr inbounds i8, i8* %128, i64 %123
  %130 = bitcast i8* %129 to %"class.mojo::internal::Array_Data.110"*
  br label %131

131:                                              ; preds = %125, %102
  %132 = phi %"class.mojo::internal::Array_Data.110"* [ %130, %125 ], [ null, %102 ]
  %133 = bitcast i8* %122 to i64*
  %134 = icmp eq %"class.mojo::internal::Array_Data.110"* %132, null
  %135 = ptrtoint %"class.mojo::internal::Array_Data.110"* %132 to i64
  %136 = ptrtoint i8* %122 to i64
  %137 = sub i64 %135, %136
  %138 = select i1 %134, i64 0, i64 %137
  store i64 %138, i64* %133, align 8
  %139 = call i8* @_Znwm(i64 16) #12
  %140 = getelementptr inbounds %"class.base::OnceCallback", %"class.base::OnceCallback"* %3, i64 0, i32 0, i32 0, i32 0
  %141 = bitcast %"class.base::OnceCallback"* %3 to i64*
  %142 = load i64, i64* %141, align 8
  store %"class.base::internal::BindStateBase"* null, %"class.base::internal::BindStateBase"** %140, align 8
  %143 = bitcast i8* %139 to i32 (...)***
  store i32 (...)** bitcast (i8** getelementptr inbounds ({ [6 x i8*] }, { [6 x i8*] }* @_ZTVN7network5mojom48NetworkServiceTest_SetEVPolicy_ForwardToCallbackE, i64 0, inrange i32 0, i64 2) to i32 (...)**), i32 (...)*** %143, align 8
  %144 = getelementptr inbounds i8, i8* %139, i64 8
  %145 = getelementptr inbounds %"class.base::OnceCallback", %"class.base::OnceCallback"* %8, i64 0, i32 0, i32 0, i32 0
  %146 = bitcast i8* %144 to i64*
  store i64 %142, i64* %146, align 8
  store %"class.base::internal::BindStateBase"* null, %"class.base::internal::BindStateBase"** %145, align 8
  %147 = bitcast i8* %139 to %"class.mojo::MessageReceiver"*
  %148 = getelementptr inbounds %"class.base::OnceCallback", %"class.base::OnceCallback"* %8, i64 0, i32 0
  call void @_ZN4base8internal12CallbackBaseD2Ev(%"class.base::internal::CallbackBase"* nonnull %148) #11
  %149 = getelementptr inbounds %"class.network::mojom::NetworkServiceTestProxy", %"class.network::mojom::NetworkServiceTestProxy"* %0, i64 0, i32 1
  %150 = load %"class.mojo::MessageReceiverWithResponder"*, %"class.mojo::MessageReceiverWithResponder"** %149, align 8
  %151 = bitcast %"class.mojo::MessageReceiverWithResponder"* %150 to i1 (%"class.mojo::MessageReceiverWithResponder"*, %"class.mojo::Message"*, %"class.mojo::MessageReceiver"*)***
  %152 = load i1 (%"class.mojo::MessageReceiverWithResponder"*, %"class.mojo::Message"*, %"class.mojo::MessageReceiver"*)**, i1 (%"class.mojo::MessageReceiverWithResponder"*, %"class.mojo::Message"*, %"class.mojo::MessageReceiver"*)*** %151, align 8
  %153 = getelementptr inbounds i1 (%"class.mojo::MessageReceiverWithResponder"*, %"class.mojo::Message"*, %"class.mojo::MessageReceiver"*)*, i1 (%"class.mojo::MessageReceiverWithResponder"*, %"class.mojo::Message"*, %"class.mojo::MessageReceiver"*)** %152, i64 4
  %154 = load i1 (%"class.mojo::MessageReceiverWithResponder"*, %"class.mojo::Message"*, %"class.mojo::MessageReceiver"*)*, i1 (%"class.mojo::MessageReceiverWithResponder"*, %"class.mojo::Message"*, %"class.mojo::MessageReceiver"*)** %153, align 8
  %155 = call zeroext i1 %154(%"class.mojo::MessageReceiverWithResponder"* %150, %"class.mojo::Message"* nonnull %5, %"class.mojo::MessageReceiver"* nonnull %147) #11
  call void @llvm.lifetime.end.p0i8(i64 16, i8* nonnull %117) #11
  call void @_ZN4mojo8internal23ContainerValidateParamsD2Ev(%"class.mojo::internal::ContainerValidateParams"* nonnull %6) #11
  call void @llvm.lifetime.end.p0i8(i64 32, i8* nonnull %16) #11
  call void @_ZN4mojo7MessageD1Ev(%"class.mojo::Message"* nonnull %5) #11
  call void @llvm.lifetime.end.p0i8(i64 120, i8* nonnull %9) #11
  ret void
}

; Function Attrs: nounwind ssp uwtable
define hidden zeroext i1 @_ZN7network5mojom23NetworkServiceTestProxy28GetFirstPartySetEntriesCountEPl(%"class.network::mojom::NetworkServiceTestProxy"* nocapture readonly, i64*) unnamed_addr #0 align 2 {
  %3 = alloca %"class.mojo::Message", align 8
  %4 = alloca i8, align 1
  %5 = bitcast %"class.mojo::Message"* %3 to i8*
  call void @llvm.lifetime.start.p0i8(i64 120, i8* nonnull %5) #11
  call void @llvm.memset.p0i8.i64(i8* nonnull align 8 %5, i8 -86, i64 120, i1 false)
  call void @_ZN4mojo7MessageC1EjjmmPNSt3__16vectorINS_16ScopedHandleBaseINS_6HandleEEENS1_9allocatorIS5_EEEE(%"class.mojo::Message"* nonnull %3, i32 832733096, i32 5, i64 0, i64 0, %"class.std::__1::vector.11"* null) #11
  %6 = getelementptr inbounds %"class.mojo::Message", %"class.mojo::Message"* %3, i64 0, i32 1
  %7 = call i64 @_ZN4mojo8internal6Buffer8AllocateEm(%"class.mojo::internal::Buffer"* %6, i64 8) #11
  %8 = getelementptr inbounds %"class.mojo::Message", %"class.mojo::Message"* %3, i64 0, i32 1, i32 2
  %9 = load i8*, i8** %8, align 8
  %10 = getelementptr inbounds i8, i8* %9, i64 %7
  %11 = bitcast i8* %10 to %"class.network::mojom::internal::NetworkServiceTest_GetFirstPartySetEntriesCount_Params_Data"*
  call void @_ZN7network5mojom8internal59NetworkServiceTest_GetFirstPartySetEntriesCount_Params_DataC1Ev(%"class.network::mojom::internal::NetworkServiceTest_GetFirstPartySetEntriesCount_Params_Data"* %11) #11
  call void @llvm.lifetime.start.p0i8(i64 1, i8* nonnull %4) #11
  store i8 0, i8* %4, align 1
  %12 = call i8* @_Znwm(i64 24) #12
  %13 = bitcast i8* %12 to i32 (...)***
  store i32 (...)** bitcast (i8** getelementptr inbounds ({ [6 x i8*] }, { [6 x i8*] }* @_ZTVN7network5mojom66NetworkServiceTest_GetFirstPartySetEntriesCount_HandleSyncResponseE, i64 0, inrange i32 0, i64 2) to i32 (...)**), i32 (...)*** %13, align 8
  %14 = getelementptr inbounds i8, i8* %12, i64 8
  %15 = bitcast i8* %14 to i8**
  store i8* %4, i8** %15, align 8
  %16 = getelementptr inbounds i8, i8* %12, i64 16
  %17 = bitcast i8* %16 to i64**
  store i64* %1, i64** %17, align 8
  %18 = bitcast i8* %12 to %"class.mojo::MessageReceiver"*
  %19 = getelementptr inbounds %"class.network::mojom::NetworkServiceTestProxy", %"class.network::mojom::NetworkServiceTestProxy"* %0, i64 0, i32 1
  %20 = load %"class.mojo::MessageReceiverWithResponder"*, %"class.mojo::MessageReceiverWithResponder"** %19, align 8
  %21 = bitcast %"class.mojo::MessageReceiverWithResponder"* %20 to i1 (%"class.mojo::MessageReceiverWithResponder"*, %"class.mojo::Message"*, %"class.mojo::MessageReceiver"*)***
  %22 = load i1 (%"class.mojo::MessageReceiverWithResponder"*, %"class.mojo::Message"*, %"class.mojo::MessageReceiver"*)**, i1 (%"class.mojo::MessageReceiverWithResponder"*, %"class.mojo::Message"*, %"class.mojo::MessageReceiver"*)*** %21, align 8
  %23 = getelementptr inbounds i1 (%"class.mojo::MessageReceiverWithResponder"*, %"class.mojo::Message"*, %"class.mojo::MessageReceiver"*)*, i1 (%"class.mojo::MessageReceiverWithResponder"*, %"class.mojo::Message"*, %"class.mojo::MessageReceiver"*)** %22, i64 4
  %24 = load i1 (%"class.mojo::MessageReceiverWithResponder"*, %"class.mojo::Message"*, %"class.mojo::MessageReceiver"*)*, i1 (%"class.mojo::MessageReceiverWithResponder"*, %"class.mojo::Message"*, %"class.mojo::MessageReceiver"*)** %23, align 8
  %25 = call zeroext i1 %24(%"class.mojo::MessageReceiverWithResponder"* %20, %"class.mojo::Message"* nonnull %3, %"class.mojo::MessageReceiver"* nonnull %18) #11
  %26 = load i8, i8* %4, align 1, !range !2
  %27 = icmp ne i8 %26, 0
  call void @llvm.lifetime.end.p0i8(i64 1, i8* nonnull %4) #11
  call void @_ZN4mojo7MessageD1Ev(%"class.mojo::Message"* nonnull %3) #11
  call void @llvm.lifetime.end.p0i8(i64 120, i8* nonnull %5) #11
  ret i1 %27
}

; Function Attrs: nounwind ssp uwtable
define hidden void @_ZN7network5mojom23NetworkServiceTestProxy28GetFirstPartySetEntriesCountEN4base12OnceCallbackIFvlEEE(%"class.network::mojom::NetworkServiceTestProxy"* nocapture readonly, %"class.base::OnceCallback.128"* nocapture) unnamed_addr #0 align 2 {
  %3 = alloca %"class.mojo::Message", align 8
  %4 = alloca %"class.base::OnceCallback.128", align 8
  %5 = bitcast %"class.mojo::Message"* %3 to i8*
  call void @llvm.lifetime.start.p0i8(i64 120, i8* nonnull %5) #11
  call void @llvm.memset.p0i8.i64(i8* nonnull align 8 %5, i8 -86, i64 120, i1 false)
  call void @_ZN4mojo7MessageC1EjjmmPNSt3__16vectorINS_16ScopedHandleBaseINS_6HandleEEENS1_9allocatorIS5_EEEE(%"class.mojo::Message"* nonnull %3, i32 832733096, i32 1, i64 0, i64 0, %"class.std::__1::vector.11"* null) #11
  %6 = getelementptr inbounds %"class.mojo::Message", %"class.mojo::Message"* %3, i64 0, i32 1
  %7 = call i64 @_ZN4mojo8internal6Buffer8AllocateEm(%"class.mojo::internal::Buffer"* %6, i64 8) #11
  %8 = getelementptr inbounds %"class.mojo::Message", %"class.mojo::Message"* %3, i64 0, i32 1, i32 2
  %9 = load i8*, i8** %8, align 8
  %10 = getelementptr inbounds i8, i8* %9, i64 %7
  %11 = bitcast i8* %10 to %"class.network::mojom::internal::NetworkServiceTest_GetFirstPartySetEntriesCount_Params_Data"*
  call void @_ZN7network5mojom8internal59NetworkServiceTest_GetFirstPartySetEntriesCount_Params_DataC1Ev(%"class.network::mojom::internal::NetworkServiceTest_GetFirstPartySetEntriesCount_Params_Data"* %11) #11
  %12 = call i8* @_Znwm(i64 16) #12
  %13 = getelementptr inbounds %"class.base::OnceCallback.128", %"class.base::OnceCallback.128"* %1, i64 0, i32 0, i32 0, i32 0
  %14 = bitcast %"class.base::OnceCallback.128"* %1 to i64*
  %15 = load i64, i64* %14, align 8
  store %"class.base::internal::BindStateBase"* null, %"class.base::internal::BindStateBase"** %13, align 8
  %16 = bitcast i8* %12 to i32 (...)***
  store i32 (...)** bitcast (i8** getelementptr inbounds ({ [6 x i8*] }, { [6 x i8*] }* @_ZTVN7network5mojom65NetworkServiceTest_GetFirstPartySetEntriesCount_ForwardToCallbackE, i64 0, inrange i32 0, i64 2) to i32 (...)**), i32 (...)*** %16, align 8
  %17 = getelementptr inbounds i8, i8* %12, i64 8
  %18 = getelementptr inbounds %"class.base::OnceCallback.128", %"class.base::OnceCallback.128"* %4, i64 0, i32 0, i32 0, i32 0
  %19 = bitcast i8* %17 to i64*
  store i64 %15, i64* %19, align 8
  store %"class.base::internal::BindStateBase"* null, %"class.base::internal::BindStateBase"** %18, align 8
  %20 = bitcast i8* %12 to %"class.mojo::MessageReceiver"*
  %21 = getelementptr inbounds %"class.base::OnceCallback.128", %"class.base::OnceCallback.128"* %4, i64 0, i32 0
  call void @_ZN4base8internal12CallbackBaseD2Ev(%"class.base::internal::CallbackBase"* nonnull %21) #11
  %22 = getelementptr inbounds %"class.network::mojom::NetworkServiceTestProxy", %"class.network::mojom::NetworkServiceTestProxy"* %0, i64 0, i32 1
  %23 = load %"class.mojo::MessageReceiverWithResponder"*, %"class.mojo::MessageReceiverWithResponder"** %22, align 8
  %24 = bitcast %"class.mojo::MessageReceiverWithResponder"* %23 to i1 (%"class.mojo::MessageReceiverWithResponder"*, %"class.mojo::Message"*, %"class.mojo::MessageReceiver"*)***
  %25 = load i1 (%"class.mojo::MessageReceiverWithResponder"*, %"class.mojo::Message"*, %"class.mojo::MessageReceiver"*)**, i1 (%"class.mojo::MessageReceiverWithResponder"*, %"class.mojo::Message"*, %"class.mojo::MessageReceiver"*)*** %24, align 8
  %26 = getelementptr inbounds i1 (%"class.mojo::MessageReceiverWithResponder"*, %"class.mojo::Message"*, %"class.mojo::MessageReceiver"*)*, i1 (%"class.mojo::MessageReceiverWithResponder"*, %"class.mojo::Message"*, %"class.mojo::MessageReceiver"*)** %25, i64 4
  %27 = load i1 (%"class.mojo::MessageReceiverWithResponder"*, %"class.mojo::Message"*, %"class.mojo::MessageReceiver"*)*, i1 (%"class.mojo::MessageReceiverWithResponder"*, %"class.mojo::Message"*, %"class.mojo::MessageReceiver"*)** %26, align 8
  %28 = call zeroext i1 %27(%"class.mojo::MessageReceiverWithResponder"* %23, %"class.mojo::Message"* nonnull %3, %"class.mojo::MessageReceiver"* nonnull %20) #11
  call void @_ZN4mojo7MessageD1Ev(%"class.mojo::Message"* nonnull %3) #11
  call void @llvm.lifetime.end.p0i8(i64 120, i8* nonnull %5) #11
  ret void
}

; Function Attrs: nounwind
declare void @_ZN4base8internal12CallbackBaseD2Ev(%"class.base::internal::CallbackBase"*) unnamed_addr #6

; Function Attrs: nounwind ssp uwtable
define hidden zeroext i1 @_ZN7network5mojom23NetworkServiceTestProxy24SetSCTAuditingRetryDelayEN4absl8optionalIN4base9TimeDeltaEEE(%"class.network::mojom::NetworkServiceTestProxy"* nocapture readonly, i8, i64) unnamed_addr #0 align 2 {
  %4 = alloca %"class.absl::optional", align 8
  %5 = alloca %"class.mojo::Message", align 8
  %6 = alloca i8, align 1
  %7 = getelementptr inbounds %"class.absl::optional", %"class.absl::optional"* %4, i64 0, i32 0, i32 0, i32 0, i32 0
  store i8 %1, i8* %7, align 8
  %8 = getelementptr inbounds %"class.absl::optional", %"class.absl::optional"* %4, i64 0, i32 0, i32 0, i32 0, i32 1, i32 0, i32 0
  store i64 %2, i64* %8, align 8
  %9 = bitcast %"class.mojo::Message"* %5 to i8*
  call void @llvm.lifetime.start.p0i8(i64 120, i8* nonnull %9) #11
  call void @llvm.memset.p0i8.i64(i8* nonnull align 8 %9, i8 -86, i64 120, i1 false)
  call void @_ZN4mojo7MessageC1EjjmmPNSt3__16vectorINS_16ScopedHandleBaseINS_6HandleEEENS1_9allocatorIS5_EEEE(%"class.mojo::Message"* nonnull %5, i32 177127893, i32 5, i64 0, i64 0, %"class.std::__1::vector.11"* null) #11
  %10 = getelementptr inbounds %"class.mojo::Message", %"class.mojo::Message"* %5, i64 0, i32 1
  %11 = call i64 @_ZN4mojo8internal6Buffer8AllocateEm(%"class.mojo::internal::Buffer"* %10, i64 16) #11
  %12 = getelementptr inbounds %"class.mojo::Message", %"class.mojo::Message"* %5, i64 0, i32 1, i32 2
  %13 = load i8*, i8** %12, align 8
  %14 = getelementptr inbounds i8, i8* %13, i64 %11
  %15 = bitcast i8* %14 to %"class.network::mojom::internal::NetworkServiceTest_SetSCTAuditingRetryDelay_Params_Data"*
  call void @_ZN7network5mojom8internal55NetworkServiceTest_SetSCTAuditingRetryDelay_Params_DataC1Ev(%"class.network::mojom::internal::NetworkServiceTest_SetSCTAuditingRetryDelay_Params_Data"* %15) #11
  %16 = icmp eq i8 %1, 0
  br i1 %16, label %17, label %22

17:                                               ; preds = %3
  %18 = load i8*, i8** %12, align 8
  %19 = getelementptr inbounds i8, i8* %18, i64 %11
  %20 = getelementptr inbounds i8, i8* %19, i64 8
  %21 = bitcast i8* %20 to %"struct.mojo::internal::Pointer.131"*
  br label %41

22:                                               ; preds = %3
  %23 = getelementptr inbounds %"class.absl::optional", %"class.absl::optional"* %4, i64 0, i32 0, i32 0, i32 0, i32 1, i32 0
  %24 = call i64 @_ZN4mojo8internal6Buffer8AllocateEm(%"class.mojo::internal::Buffer"* %10, i64 16) #11
  %25 = load i8*, i8** %12, align 8
  %26 = getelementptr inbounds i8, i8* %25, i64 %24
  %27 = bitcast i8* %26 to %"class.mojo_base::mojom::internal::TimeDelta_Data"*
  call void @_ZN9mojo_base5mojom8internal14TimeDelta_DataC1Ev(%"class.mojo_base::mojom::internal::TimeDelta_Data"* %27) #11
  %28 = call i64 @_ZN4mojo12StructTraitsIN9mojo_base5mojom17TimeDeltaDataViewEN4base9TimeDeltaEE12microsecondsERKS5_(%"class.base::TimeDelta"* dereferenceable(8) %23) #11
  %29 = load i8*, i8** %12, align 8
  %30 = getelementptr inbounds i8, i8* %29, i64 %24
  %31 = getelementptr inbounds i8, i8* %30, i64 8
  %32 = bitcast i8* %31 to i64*
  store i64 %28, i64* %32, align 1
  %33 = load i8*, i8** %12, align 8
  %34 = getelementptr inbounds i8, i8* %33, i64 %11
  %35 = getelementptr inbounds i8, i8* %34, i64 8
  %36 = bitcast i8* %35 to %"struct.mojo::internal::Pointer.131"*
  %37 = icmp eq i64 %24, -1
  br i1 %37, label %41, label %38

38:                                               ; preds = %22
  %39 = getelementptr inbounds i8, i8* %33, i64 %24
  %40 = bitcast i8* %39 to %"class.mojo_base::mojom::internal::TimeDelta_Data"*
  br label %41

41:                                               ; preds = %38, %22, %17
  %42 = phi %"struct.mojo::internal::Pointer.131"* [ %36, %38 ], [ %36, %22 ], [ %21, %17 ]
  %43 = phi %"class.mojo_base::mojom::internal::TimeDelta_Data"* [ %40, %38 ], [ null, %22 ], [ null, %17 ]
  %44 = getelementptr inbounds %"struct.mojo::internal::Pointer.131", %"struct.mojo::internal::Pointer.131"* %42, i64 0, i32 0
  %45 = icmp eq %"class.mojo_base::mojom::internal::TimeDelta_Data"* %43, null
  %46 = ptrtoint %"class.mojo_base::mojom::internal::TimeDelta_Data"* %43 to i64
  %47 = ptrtoint %"struct.mojo::internal::Pointer.131"* %42 to i64
  %48 = sub i64 %46, %47
  %49 = select i1 %45, i64 0, i64 %48
  store i64 %49, i64* %44, align 8
  call void @llvm.lifetime.start.p0i8(i64 1, i8* nonnull %6) #11
  store i8 0, i8* %6, align 1
  %50 = call i8* @_Znwm(i64 16) #12
  %51 = bitcast i8* %50 to i32 (...)***
  store i32 (...)** bitcast (i8** getelementptr inbounds ({ [6 x i8*] }, { [6 x i8*] }* @_ZTVN7network5mojom62NetworkServiceTest_SetSCTAuditingRetryDelay_HandleSyncResponseE, i64 0, inrange i32 0, i64 2) to i32 (...)**), i32 (...)*** %51, align 8
  %52 = getelementptr inbounds i8, i8* %50, i64 8
  %53 = bitcast i8* %52 to i8**
  store i8* %6, i8** %53, align 8
  %54 = bitcast i8* %50 to %"class.mojo::MessageReceiver"*
  %55 = getelementptr inbounds %"class.network::mojom::NetworkServiceTestProxy", %"class.network::mojom::NetworkServiceTestProxy"* %0, i64 0, i32 1
  %56 = load %"class.mojo::MessageReceiverWithResponder"*, %"class.mojo::MessageReceiverWithResponder"** %55, align 8
  %57 = bitcast %"class.mojo::MessageReceiverWithResponder"* %56 to i1 (%"class.mojo::MessageReceiverWithResponder"*, %"class.mojo::Message"*, %"class.mojo::MessageReceiver"*)***
  %58 = load i1 (%"class.mojo::MessageReceiverWithResponder"*, %"class.mojo::Message"*, %"class.mojo::MessageReceiver"*)**, i1 (%"class.mojo::MessageReceiverWithResponder"*, %"class.mojo::Message"*, %"class.mojo::MessageReceiver"*)*** %57, align 8
  %59 = getelementptr inbounds i1 (%"class.mojo::MessageReceiverWithResponder"*, %"class.mojo::Message"*, %"class.mojo::MessageReceiver"*)*, i1 (%"class.mojo::MessageReceiverWithResponder"*, %"class.mojo::Message"*, %"class.mojo::MessageReceiver"*)** %58, i64 4
  %60 = load i1 (%"class.mojo::MessageReceiverWithResponder"*, %"class.mojo::Message"*, %"class.mojo::MessageReceiver"*)*, i1 (%"class.mojo::MessageReceiverWithResponder"*, %"class.mojo::Message"*, %"class.mojo::MessageReceiver"*)** %59, align 8
  %61 = call zeroext i1 %60(%"class.mojo::MessageReceiverWithResponder"* %56, %"class.mojo::Message"* nonnull %5, %"class.mojo::MessageReceiver"* nonnull %54) #11
  %62 = load i8, i8* %6, align 1, !range !2
  %63 = icmp ne i8 %62, 0
  call void @llvm.lifetime.end.p0i8(i64 1, i8* nonnull %6) #11
  call void @_ZN4mojo7MessageD1Ev(%"class.mojo::Message"* nonnull %5) #11
  call void @llvm.lifetime.end.p0i8(i64 120, i8* nonnull %9) #11
  ret i1 %63
}

; Function Attrs: nounwind ssp uwtable
define hidden void @_ZN7network5mojom23NetworkServiceTestProxy24SetSCTAuditingRetryDelayEN4absl8optionalIN4base9TimeDeltaEEENS4_12OnceCallbackIFvvEEE(%"class.network::mojom::NetworkServiceTestProxy"* nocapture readonly, i8, i64, %"class.base::OnceCallback"* nocapture) unnamed_addr #0 align 2 {
  %5 = alloca %"class.absl::optional", align 8
  %6 = alloca %"class.mojo::Message", align 8
  %7 = alloca %"class.base::OnceCallback", align 8
  %8 = getelementptr inbounds %"class.absl::optional", %"class.absl::optional"* %5, i64 0, i32 0, i32 0, i32 0, i32 0
  store i8 %1, i8* %8, align 8
  %9 = getelementptr inbounds %"class.absl::optional", %"class.absl::optional"* %5, i64 0, i32 0, i32 0, i32 0, i32 1, i32 0, i32 0
  store i64 %2, i64* %9, align 8
  %10 = bitcast %"class.mojo::Message"* %6 to i8*
  call void @llvm.lifetime.start.p0i8(i64 120, i8* nonnull %10) #11
  call void @llvm.memset.p0i8.i64(i8* nonnull align 8 %10, i8 -86, i64 120, i1 false)
  call void @_ZN4mojo7MessageC1EjjmmPNSt3__16vectorINS_16ScopedHandleBaseINS_6HandleEEENS1_9allocatorIS5_EEEE(%"class.mojo::Message"* nonnull %6, i32 177127893, i32 1, i64 0, i64 0, %"class.std::__1::vector.11"* null) #11
  %11 = getelementptr inbounds %"class.mojo::Message", %"class.mojo::Message"* %6, i64 0, i32 1
  %12 = call i64 @_ZN4mojo8internal6Buffer8AllocateEm(%"class.mojo::internal::Buffer"* %11, i64 16) #11
  %13 = getelementptr inbounds %"class.mojo::Message", %"class.mojo::Message"* %6, i64 0, i32 1, i32 2
  %14 = load i8*, i8** %13, align 8
  %15 = getelementptr inbounds i8, i8* %14, i64 %12
  %16 = bitcast i8* %15 to %"class.network::mojom::internal::NetworkServiceTest_SetSCTAuditingRetryDelay_Params_Data"*
  call void @_ZN7network5mojom8internal55NetworkServiceTest_SetSCTAuditingRetryDelay_Params_DataC1Ev(%"class.network::mojom::internal::NetworkServiceTest_SetSCTAuditingRetryDelay_Params_Data"* %16) #11
  %17 = icmp eq i8 %1, 0
  br i1 %17, label %18, label %23

18:                                               ; preds = %4
  %19 = load i8*, i8** %13, align 8
  %20 = getelementptr inbounds i8, i8* %19, i64 %12
  %21 = getelementptr inbounds i8, i8* %20, i64 8
  %22 = bitcast i8* %21 to %"struct.mojo::internal::Pointer.131"*
  br label %42

23:                                               ; preds = %4
  %24 = getelementptr inbounds %"class.absl::optional", %"class.absl::optional"* %5, i64 0, i32 0, i32 0, i32 0, i32 1, i32 0
  %25 = call i64 @_ZN4mojo8internal6Buffer8AllocateEm(%"class.mojo::internal::Buffer"* %11, i64 16) #11
  %26 = load i8*, i8** %13, align 8
  %27 = getelementptr inbounds i8, i8* %26, i64 %25
  %28 = bitcast i8* %27 to %"class.mojo_base::mojom::internal::TimeDelta_Data"*
  call void @_ZN9mojo_base5mojom8internal14TimeDelta_DataC1Ev(%"class.mojo_base::mojom::internal::TimeDelta_Data"* %28) #11
  %29 = call i64 @_ZN4mojo12StructTraitsIN9mojo_base5mojom17TimeDeltaDataViewEN4base9TimeDeltaEE12microsecondsERKS5_(%"class.base::TimeDelta"* dereferenceable(8) %24) #11
  %30 = load i8*, i8** %13, align 8
  %31 = getelementptr inbounds i8, i8* %30, i64 %25
  %32 = getelementptr inbounds i8, i8* %31, i64 8
  %33 = bitcast i8* %32 to i64*
  store i64 %29, i64* %33, align 1
  %34 = load i8*, i8** %13, align 8
  %35 = getelementptr inbounds i8, i8* %34, i64 %12
  %36 = getelementptr inbounds i8, i8* %35, i64 8
  %37 = bitcast i8* %36 to %"struct.mojo::internal::Pointer.131"*
  %38 = icmp eq i64 %25, -1
  br i1 %38, label %42, label %39

39:                                               ; preds = %23
  %40 = getelementptr inbounds i8, i8* %34, i64 %25
  %41 = bitcast i8* %40 to %"class.mojo_base::mojom::internal::TimeDelta_Data"*
  br label %42

42:                                               ; preds = %39, %23, %18
  %43 = phi %"struct.mojo::internal::Pointer.131"* [ %37, %39 ], [ %37, %23 ], [ %22, %18 ]
  %44 = phi %"class.mojo_base::mojom::internal::TimeDelta_Data"* [ %41, %39 ], [ null, %23 ], [ null, %18 ]
  %45 = getelementptr inbounds %"struct.mojo::internal::Pointer.131", %"struct.mojo::internal::Pointer.131"* %43, i64 0, i32 0
  %46 = icmp eq %"class.mojo_base::mojom::internal::TimeDelta_Data"* %44, null
  %47 = ptrtoint %"class.mojo_base::mojom::internal::TimeDelta_Data"* %44 to i64
  %48 = ptrtoint %"struct.mojo::internal::Pointer.131"* %43 to i64
  %49 = sub i64 %47, %48
  %50 = select i1 %46, i64 0, i64 %49
  store i64 %50, i64* %45, align 8
  %51 = call i8* @_Znwm(i64 16) #12
  %52 = getelementptr inbounds %"class.base::OnceCallback", %"class.base::OnceCallback"* %3, i64 0, i32 0, i32 0, i32 0
  %53 = bitcast %"class.base::OnceCallback"* %3 to i64*
  %54 = load i64, i64* %53, align 8
  store %"class.base::internal::BindStateBase"* null, %"class.base::internal::BindStateBase"** %52, align 8
  %55 = bitcast i8* %51 to i32 (...)***
  store i32 (...)** bitcast (i8** getelementptr inbounds ({ [6 x i8*] }, { [6 x i8*] }* @_ZTVN7network5mojom61NetworkServiceTest_SetSCTAuditingRetryDelay_ForwardToCallbackE, i64 0, inrange i32 0, i64 2) to i32 (...)**), i32 (...)*** %55, align 8
  %56 = getelementptr inbounds i8, i8* %51, i64 8
  %57 = getelementptr inbounds %"class.base::OnceCallback", %"class.base::OnceCallback"* %7, i64 0, i32 0, i32 0, i32 0
  %58 = bitcast i8* %56 to i64*
  store i64 %54, i64* %58, align 8
  store %"class.base::internal::BindStateBase"* null, %"class.base::internal::BindStateBase"** %57, align 8
  %59 = bitcast i8* %51 to %"class.mojo::MessageReceiver"*
  %60 = getelementptr inbounds %"class.base::OnceCallback", %"class.base::OnceCallback"* %7, i64 0, i32 0
  call void @_ZN4base8internal12CallbackBaseD2Ev(%"class.base::internal::CallbackBase"* nonnull %60) #11
  %61 = getelementptr inbounds %"class.network::mojom::NetworkServiceTestProxy", %"class.network::mojom::NetworkServiceTestProxy"* %0, i64 0, i32 1
  %62 = load %"class.mojo::MessageReceiverWithResponder"*, %"class.mojo::MessageReceiverWithResponder"** %61, align 8
  %63 = bitcast %"class.mojo::MessageReceiverWithResponder"* %62 to i1 (%"class.mojo::MessageReceiverWithResponder"*, %"class.mojo::Message"*, %"class.mojo::MessageReceiver"*)***
  %64 = load i1 (%"class.mojo::MessageReceiverWithResponder"*, %"class.mojo::Message"*, %"class.mojo::MessageReceiver"*)**, i1 (%"class.mojo::MessageReceiverWithResponder"*, %"class.mojo::Message"*, %"class.mojo::MessageReceiver"*)*** %63, align 8
  %65 = getelementptr inbounds i1 (%"class.mojo::MessageReceiverWithResponder"*, %"class.mojo::Message"*, %"class.mojo::MessageReceiver"*)*, i1 (%"class.mojo::MessageReceiverWithResponder"*, %"class.mojo::Message"*, %"class.mojo::MessageReceiver"*)** %64, i64 4
  %66 = load i1 (%"class.mojo::MessageReceiverWithResponder"*, %"class.mojo::Message"*, %"class.mojo::MessageReceiver"*)*, i1 (%"class.mojo::MessageReceiverWithResponder"*, %"class.mojo::Message"*, %"class.mojo::MessageReceiver"*)** %65, align 8
  %67 = call zeroext i1 %66(%"class.mojo::MessageReceiverWithResponder"* %62, %"class.mojo::Message"* nonnull %6, %"class.mojo::MessageReceiver"* nonnull %59) #11
  call void @_ZN4mojo7MessageD1Ev(%"class.mojo::Message"* nonnull %6) #11
  call void @llvm.lifetime.end.p0i8(i64 120, i8* nonnull %10) #11
  ret void
}

; Function Attrs: nounwind ssp uwtable
define hidden zeroext i1 @_ZN7network5mojom23NetworkServiceTestProxy33GetSCTAuditingPendingReportsCountEPm(%"class.network::mojom::NetworkServiceTestProxy"* nocapture readonly, i64*) unnamed_addr #0 align 2 {
  %3 = alloca %"class.mojo::Message", align 8
  %4 = alloca i8, align 1
  %5 = bitcast %"class.mojo::Message"* %3 to i8*
  call void @llvm.lifetime.start.p0i8(i64 120, i8* nonnull %5) #11
  call void @llvm.memset.p0i8.i64(i8* nonnull align 8 %5, i8 -86, i64 120, i1 false)
  call void @_ZN4mojo7MessageC1EjjmmPNSt3__16vectorINS_16ScopedHandleBaseINS_6HandleEEENS1_9allocatorIS5_EEEE(%"class.mojo::Message"* nonnull %3, i32 1623448593, i32 5, i64 0, i64 0, %"class.std::__1::vector.11"* null) #11
  %6 = getelementptr inbounds %"class.mojo::Message", %"class.mojo::Message"* %3, i64 0, i32 1
  %7 = call i64 @_ZN4mojo8internal6Buffer8AllocateEm(%"class.mojo::internal::Buffer"* %6, i64 8) #11
  %8 = getelementptr inbounds %"class.mojo::Message", %"class.mojo::Message"* %3, i64 0, i32 1, i32 2
  %9 = load i8*, i8** %8, align 8
  %10 = getelementptr inbounds i8, i8* %9, i64 %7
  %11 = bitcast i8* %10 to %"class.network::mojom::internal::NetworkServiceTest_GetSCTAuditingPendingReportsCount_Params_Data"*
  call void @_ZN7network5mojom8internal64NetworkServiceTest_GetSCTAuditingPendingReportsCount_Params_DataC1Ev(%"class.network::mojom::internal::NetworkServiceTest_GetSCTAuditingPendingReportsCount_Params_Data"* %11) #11
  call void @llvm.lifetime.start.p0i8(i64 1, i8* nonnull %4) #11
  store i8 0, i8* %4, align 1
  %12 = call i8* @_Znwm(i64 24) #12
  %13 = bitcast i8* %12 to i32 (...)***
  store i32 (...)** bitcast (i8** getelementptr inbounds ({ [6 x i8*] }, { [6 x i8*] }* @_ZTVN7network5mojom71NetworkServiceTest_GetSCTAuditingPendingReportsCount_HandleSyncResponseE, i64 0, inrange i32 0, i64 2) to i32 (...)**), i32 (...)*** %13, align 8
  %14 = getelementptr inbounds i8, i8* %12, i64 8
  %15 = bitcast i8* %14 to i8**
  store i8* %4, i8** %15, align 8
  %16 = getelementptr inbounds i8, i8* %12, i64 16
  %17 = bitcast i8* %16 to i64**
  store i64* %1, i64** %17, align 8
  %18 = bitcast i8* %12 to %"class.mojo::MessageReceiver"*
  %19 = getelementptr inbounds %"class.network::mojom::NetworkServiceTestProxy", %"class.network::mojom::NetworkServiceTestProxy"* %0, i64 0, i32 1
  %20 = load %"class.mojo::MessageReceiverWithResponder"*, %"class.mojo::MessageReceiverWithResponder"** %19, align 8
  %21 = bitcast %"class.mojo::MessageReceiverWithResponder"* %20 to i1 (%"class.mojo::MessageReceiverWithResponder"*, %"class.mojo::Message"*, %"class.mojo::MessageReceiver"*)***
  %22 = load i1 (%"class.mojo::MessageReceiverWithResponder"*, %"class.mojo::Message"*, %"class.mojo::MessageReceiver"*)**, i1 (%"class.mojo::MessageReceiverWithResponder"*, %"class.mojo::Message"*, %"class.mojo::MessageReceiver"*)*** %21, align 8
  %23 = getelementptr inbounds i1 (%"class.mojo::MessageReceiverWithResponder"*, %"class.mojo::Message"*, %"class.mojo::MessageReceiver"*)*, i1 (%"class.mojo::MessageReceiverWithResponder"*, %"class.mojo::Message"*, %"class.mojo::MessageReceiver"*)** %22, i64 4
  %24 = load i1 (%"class.mojo::MessageReceiverWithResponder"*, %"class.mojo::Message"*, %"class.mojo::MessageReceiver"*)*, i1 (%"class.mojo::MessageReceiverWithResponder"*, %"class.mojo::Message"*, %"class.mojo::MessageReceiver"*)** %23, align 8
  %25 = call zeroext i1 %24(%"class.mojo::MessageReceiverWithResponder"* %20, %"class.mojo::Message"* nonnull %3, %"class.mojo::MessageReceiver"* nonnull %18) #11
  %26 = load i8, i8* %4, align 1, !range !2
  %27 = icmp ne i8 %26, 0
  call void @llvm.lifetime.end.p0i8(i64 1, i8* nonnull %4) #11
  call void @_ZN4mojo7MessageD1Ev(%"class.mojo::Message"* nonnull %3) #11
  call void @llvm.lifetime.end.p0i8(i64 120, i8* nonnull %5) #11
  ret i1 %27
}

; Function Attrs: nounwind ssp uwtable
define hidden void @_ZN7network5mojom23NetworkServiceTestProxy33GetSCTAuditingPendingReportsCountEN4base12OnceCallbackIFvmEEE(%"class.network::mojom::NetworkServiceTestProxy"* nocapture readonly, %"class.base::OnceCallback.133"* nocapture) unnamed_addr #0 align 2 {
  %3 = alloca %"class.mojo::Message", align 8
  %4 = alloca %"class.base::OnceCallback.133", align 8
  %5 = bitcast %"class.mojo::Message"* %3 to i8*
  call void @llvm.lifetime.start.p0i8(i64 120, i8* nonnull %5) #11
  call void @llvm.memset.p0i8.i64(i8* nonnull align 8 %5, i8 -86, i64 120, i1 false)
  call void @_ZN4mojo7MessageC1EjjmmPNSt3__16vectorINS_16ScopedHandleBaseINS_6HandleEEENS1_9allocatorIS5_EEEE(%"class.mojo::Message"* nonnull %3, i32 1623448593, i32 1, i64 0, i64 0, %"class.std::__1::vector.11"* null) #11
  %6 = getelementptr inbounds %"class.mojo::Message", %"class.mojo::Message"* %3, i64 0, i32 1
  %7 = call i64 @_ZN4mojo8internal6Buffer8AllocateEm(%"class.mojo::internal::Buffer"* %6, i64 8) #11
  %8 = getelementptr inbounds %"class.mojo::Message", %"class.mojo::Message"* %3, i64 0, i32 1, i32 2
  %9 = load i8*, i8** %8, align 8
  %10 = getelementptr inbounds i8, i8* %9, i64 %7
  %11 = bitcast i8* %10 to %"class.network::mojom::internal::NetworkServiceTest_GetSCTAuditingPendingReportsCount_Params_Data"*
  call void @_ZN7network5mojom8internal64NetworkServiceTest_GetSCTAuditingPendingReportsCount_Params_DataC1Ev(%"class.network::mojom::internal::NetworkServiceTest_GetSCTAuditingPendingReportsCount_Params_Data"* %11) #11
  %12 = call i8* @_Znwm(i64 16) #12
  %13 = getelementptr inbounds %"class.base::OnceCallback.133", %"class.base::OnceCallback.133"* %1, i64 0, i32 0, i32 0, i32 0
  %14 = bitcast %"class.base::OnceCallback.133"* %1 to i64*
  %15 = load i64, i64* %14, align 8
  store %"class.base::internal::BindStateBase"* null, %"class.base::internal::BindStateBase"** %13, align 8
  %16 = bitcast i8* %12 to i32 (...)***
  store i32 (...)** bitcast (i8** getelementptr inbounds ({ [6 x i8*] }, { [6 x i8*] }* @_ZTVN7network5mojom70NetworkServiceTest_GetSCTAuditingPendingReportsCount_ForwardToCallbackE, i64 0, inrange i32 0, i64 2) to i32 (...)**), i32 (...)*** %16, align 8
  %17 = getelementptr inbounds i8, i8* %12, i64 8
  %18 = getelementptr inbounds %"class.base::OnceCallback.133", %"class.base::OnceCallback.133"* %4, i64 0, i32 0, i32 0, i32 0
  %19 = bitcast i8* %17 to i64*
  store i64 %15, i64* %19, align 8
  store %"class.base::internal::BindStateBase"* null, %"class.base::internal::BindStateBase"** %18, align 8
  %20 = bitcast i8* %12 to %"class.mojo::MessageReceiver"*
  %21 = getelementptr inbounds %"class.base::OnceCallback.133", %"class.base::OnceCallback.133"* %4, i64 0, i32 0
  call void @_ZN4base8internal12CallbackBaseD2Ev(%"class.base::internal::CallbackBase"* nonnull %21) #11
  %22 = getelementptr inbounds %"class.network::mojom::NetworkServiceTestProxy", %"class.network::mojom::NetworkServiceTestProxy"* %0, i64 0, i32 1
  %23 = load %"class.mojo::MessageReceiverWithResponder"*, %"class.mojo::MessageReceiverWithResponder"** %22, align 8
  %24 = bitcast %"class.mojo::MessageReceiverWithResponder"* %23 to i1 (%"class.mojo::MessageReceiverWithResponder"*, %"class.mojo::Message"*, %"class.mojo::MessageReceiver"*)***
  %25 = load i1 (%"class.mojo::MessageReceiverWithResponder"*, %"class.mojo::Message"*, %"class.mojo::MessageReceiver"*)**, i1 (%"class.mojo::MessageReceiverWithResponder"*, %"class.mojo::Message"*, %"class.mojo::MessageReceiver"*)*** %24, align 8
  %26 = getelementptr inbounds i1 (%"class.mojo::MessageReceiverWithResponder"*, %"class.mojo::Message"*, %"class.mojo::MessageReceiver"*)*, i1 (%"class.mojo::MessageReceiverWithResponder"*, %"class.mojo::Message"*, %"class.mojo::MessageReceiver"*)** %25, i64 4
  %27 = load i1 (%"class.mojo::MessageReceiverWithResponder"*, %"class.mojo::Message"*, %"class.mojo::MessageReceiver"*)*, i1 (%"class.mojo::MessageReceiverWithResponder"*, %"class.mojo::Message"*, %"class.mojo::MessageReceiver"*)** %26, align 8
  %28 = call zeroext i1 %27(%"class.mojo::MessageReceiverWithResponder"* %23, %"class.mojo::Message"* nonnull %3, %"class.mojo::MessageReceiver"* nonnull %20) #11
  call void @_ZN4mojo7MessageD1Ev(%"class.mojo::Message"* nonnull %3) #11
  call void @llvm.lifetime.end.p0i8(i64 120, i8* nonnull %5) #11
  ret void
}

; Function Attrs: nounwind ssp uwtable
define hidden void @_ZN7network5mojom23NetworkServiceTestProxy38SetSCTAuditingReportCompletionCallbackEN4base12OnceCallbackIFvvEEE(%"class.network::mojom::NetworkServiceTestProxy"* nocapture readonly, %"class.base::OnceCallback"* nocapture) unnamed_addr #0 align 2 {
  %3 = alloca %"class.mojo::Message", align 8
  %4 = alloca %"class.base::OnceCallback", align 8
  %5 = bitcast %"class.mojo::Message"* %3 to i8*
  call void @llvm.lifetime.start.p0i8(i64 120, i8* nonnull %5) #11
  call void @llvm.memset.p0i8.i64(i8* nonnull align 8 %5, i8 -86, i64 120, i1 false)
  call void @_ZN4mojo7MessageC1EjjmmPNSt3__16vectorINS_16ScopedHandleBaseINS_6HandleEEENS1_9allocatorIS5_EEEE(%"class.mojo::Message"* nonnull %3, i32 1816001466, i32 1, i64 0, i64 0, %"class.std::__1::vector.11"* null) #11
  %6 = getelementptr inbounds %"class.mojo::Message", %"class.mojo::Message"* %3, i64 0, i32 1
  %7 = call i64 @_ZN4mojo8internal6Buffer8AllocateEm(%"class.mojo::internal::Buffer"* %6, i64 8) #11
  %8 = getelementptr inbounds %"class.mojo::Message", %"class.mojo::Message"* %3, i64 0, i32 1, i32 2
  %9 = load i8*, i8** %8, align 8
  %10 = getelementptr inbounds i8, i8* %9, i64 %7
  %11 = bitcast i8* %10 to %"class.network::mojom::internal::NetworkServiceTest_SetSCTAuditingReportCompletionCallback_Params_Data"*
  call void @_ZN7network5mojom8internal69NetworkServiceTest_SetSCTAuditingReportCompletionCallback_Params_DataC1Ev(%"class.network::mojom::internal::NetworkServiceTest_SetSCTAuditingReportCompletionCallback_Params_Data"* %11) #11
  %12 = call i8* @_Znwm(i64 16) #12
  %13 = getelementptr inbounds %"class.base::OnceCallback", %"class.base::OnceCallback"* %1, i64 0, i32 0, i32 0, i32 0
  %14 = bitcast %"class.base::OnceCallback"* %1 to i64*
  %15 = load i64, i64* %14, align 8
  store %"class.base::internal::BindStateBase"* null, %"class.base::internal::BindStateBase"** %13, align 8
  %16 = bitcast i8* %12 to i32 (...)***
  store i32 (...)** bitcast (i8** getelementptr inbounds ({ [6 x i8*] }, { [6 x i8*] }* @_ZTVN7network5mojom75NetworkServiceTest_SetSCTAuditingReportCompletionCallback_ForwardToCallbackE, i64 0, inrange i32 0, i64 2) to i32 (...)**), i32 (...)*** %16, align 8
  %17 = getelementptr inbounds i8, i8* %12, i64 8
  %18 = getelementptr inbounds %"class.base::OnceCallback", %"class.base::OnceCallback"* %4, i64 0, i32 0, i32 0, i32 0
  %19 = bitcast i8* %17 to i64*
  store i64 %15, i64* %19, align 8
  store %"class.base::internal::BindStateBase"* null, %"class.base::internal::BindStateBase"** %18, align 8
  %20 = bitcast i8* %12 to %"class.mojo::MessageReceiver"*
  %21 = getelementptr inbounds %"class.base::OnceCallback", %"class.base::OnceCallback"* %4, i64 0, i32 0
  call void @_ZN4base8internal12CallbackBaseD2Ev(%"class.base::internal::CallbackBase"* nonnull %21) #11
  %22 = getelementptr inbounds %"class.network::mojom::NetworkServiceTestProxy", %"class.network::mojom::NetworkServiceTestProxy"* %0, i64 0, i32 1
  %23 = load %"class.mojo::MessageReceiverWithResponder"*, %"class.mojo::MessageReceiverWithResponder"** %22, align 8
  %24 = bitcast %"class.mojo::MessageReceiverWithResponder"* %23 to i1 (%"class.mojo::MessageReceiverWithResponder"*, %"class.mojo::Message"*, %"class.mojo::MessageReceiver"*)***
  %25 = load i1 (%"class.mojo::MessageReceiverWithResponder"*, %"class.mojo::Message"*, %"class.mojo::MessageReceiver"*)**, i1 (%"class.mojo::MessageReceiverWithResponder"*, %"class.mojo::Message"*, %"class.mojo::MessageReceiver"*)*** %24, align 8
  %26 = getelementptr inbounds i1 (%"class.mojo::MessageReceiverWithResponder"*, %"class.mojo::Message"*, %"class.mojo::MessageReceiver"*)*, i1 (%"class.mojo::MessageReceiverWithResponder"*, %"class.mojo::Message"*, %"class.mojo::MessageReceiver"*)** %25, i64 4
  %27 = load i1 (%"class.mojo::MessageReceiverWithResponder"*, %"class.mojo::Message"*, %"class.mojo::MessageReceiver"*)*, i1 (%"class.mojo::MessageReceiverWithResponder"*, %"class.mojo::Message"*, %"class.mojo::MessageReceiver"*)** %26, align 8
  %28 = call zeroext i1 %27(%"class.mojo::MessageReceiverWithResponder"* %23, %"class.mojo::Message"* nonnull %3, %"class.mojo::MessageReceiver"* nonnull %20) #11
  call void @_ZN4mojo7MessageD1Ev(%"class.mojo::Message"* nonnull %3) #11
  call void @llvm.lifetime.end.p0i8(i64 120, i8* nonnull %5) #11
  ret void
}

; Function Attrs: nounwind ssp uwtable
define hidden zeroext i1 @_ZN7network5mojom45NetworkServiceTest_AddRules_ForwardToCallback6AcceptEPN4mojo7MessageE(%"class.network::mojom::NetworkServiceTest_AddRules_ForwardToCallback"* nocapture, %"class.mojo::Message"*) unnamed_addr #0 align 2 {
  %3 = alloca %"class.base::OnceCallback", align 8
  %4 = tail call i8* @_ZNK4mojo7Message7payloadEv(%"class.mojo::Message"* %1) #11
  %5 = getelementptr inbounds %"class.network::mojom::NetworkServiceTest_AddRules_ForwardToCallback", %"class.network::mojom::NetworkServiceTest_AddRules_ForwardToCallback"* %0, i64 0, i32 1, i32 0, i32 0, i32 0
  %6 = load %"class.base::internal::BindStateBase"*, %"class.base::internal::BindStateBase"** %5, align 8
  %7 = icmp eq %"class.base::internal::BindStateBase"* %6, null
  br i1 %7, label %16, label %8

8:                                                ; preds = %2
  %9 = ptrtoint %"class.base::internal::BindStateBase"* %6 to i64
  %10 = bitcast %"class.base::OnceCallback"* %3 to i8*
  call void @llvm.lifetime.start.p0i8(i64 8, i8* nonnull %10) #11
  %11 = bitcast %"class.base::OnceCallback"* %3 to i64*
  store i64 %9, i64* %11, align 8
  store %"class.base::internal::BindStateBase"* null, %"class.base::internal::BindStateBase"** %5, align 8
  %12 = getelementptr inbounds %"class.base::OnceCallback", %"class.base::OnceCallback"* %3, i64 0, i32 0
  %13 = getelementptr inbounds %"class.base::internal::BindStateBase", %"class.base::internal::BindStateBase"* %6, i64 0, i32 1
  %14 = bitcast void ()** %13 to void (%"class.base::internal::BindStateBase"*)**
  %15 = load void (%"class.base::internal::BindStateBase"*)*, void (%"class.base::internal::BindStateBase"*)** %14, align 8
  tail call void %15(%"class.base::internal::BindStateBase"* nonnull %6) #11
  call void @_ZN4base8internal12CallbackBaseD2Ev(%"class.base::internal::CallbackBase"* nonnull %12) #11
  call void @llvm.lifetime.end.p0i8(i64 8, i8* nonnull %10) #11
  br label %16

16:                                               ; preds = %2, %8
  ret i1 true
}

declare void @_ZN4mojo8internal31ReportValidationErrorForMessageEPNS_7MessageENS0_15ValidationErrorEPKcjb(%"class.mojo::Message"*, i32, i8*, i32, i1 zeroext) local_unnamed_addr #2

; Function Attrs: nounwind ssp uwtable
define hidden void @_ZN7network5mojom44NetworkServiceTest_AddRules_ProxyToResponder3RunEv(%"class.network::mojom::NetworkServiceTest_AddRules_ProxyToResponder"* nocapture) #0 align 2 {
  %2 = alloca %"class.mojo::Message", align 8
  %3 = getelementptr inbounds %"class.network::mojom::NetworkServiceTest_AddRules_ProxyToResponder", %"class.network::mojom::NetworkServiceTest_AddRules_ProxyToResponder"* %0, i64 0, i32 1
  %4 = load i8, i8* %3, align 8, !range !2
  %5 = icmp eq i8 %4, 0
  %6 = select i1 %5, i32 2, i32 6
  %7 = bitcast %"class.mojo::Message"* %2 to i8*
  call void @llvm.lifetime.start.p0i8(i64 120, i8* nonnull %7) #11
  call void @llvm.memset.p0i8.i64(i8* nonnull align 8 %7, i8 -86, i64 120, i1 false)
  call void @_ZN4mojo7MessageC1EjjmmPNSt3__16vectorINS_16ScopedHandleBaseINS_6HandleEEENS1_9allocatorIS5_EEEE(%"class.mojo::Message"* nonnull %2, i32 1842504132, i32 %6, i64 0, i64 0, %"class.std::__1::vector.11"* null) #11
  %8 = getelementptr inbounds %"class.mojo::Message", %"class.mojo::Message"* %2, i64 0, i32 1
  %9 = call i64 @_ZN4mojo8internal6Buffer8AllocateEm(%"class.mojo::internal::Buffer"* %8, i64 8) #11
  %10 = getelementptr inbounds %"class.mojo::Message", %"class.mojo::Message"* %2, i64 0, i32 1, i32 2
  %11 = load i8*, i8** %10, align 8
  %12 = getelementptr inbounds i8, i8* %11, i64 %9
  %13 = bitcast i8* %12 to %"class.network::mojom::internal::NetworkServiceTest_AddRules_ResponseParams_Data"*
  call void @_ZN7network5mojom8internal47NetworkServiceTest_AddRules_ResponseParams_DataC1Ev(%"class.network::mojom::internal::NetworkServiceTest_AddRules_ResponseParams_Data"* %13) #11
  %14 = getelementptr inbounds %"class.network::mojom::NetworkServiceTest_AddRules_ProxyToResponder", %"class.network::mojom::NetworkServiceTest_AddRules_ProxyToResponder"* %0, i64 0, i32 0
  %15 = load i64, i64* %14, align 8
  %16 = bitcast i8** %10 to %"struct.mojo::internal::MessageHeaderV1"**
  %17 = load %"struct.mojo::internal::MessageHeaderV1"*, %"struct.mojo::internal::MessageHeaderV1"** %16, align 8
  %18 = getelementptr inbounds %"struct.mojo::internal::MessageHeaderV1", %"struct.mojo::internal::MessageHeaderV1"* %17, i64 0, i32 1
  store i64 %15, i64* %18, align 1
  %19 = getelementptr inbounds %"class.network::mojom::NetworkServiceTest_AddRules_ProxyToResponder", %"class.network::mojom::NetworkServiceTest_AddRules_ProxyToResponder"* %0, i64 0, i32 2, i32 0, i32 0, i32 0
  %20 = load %"class.mojo::MessageReceiverWithStatus"*, %"class.mojo::MessageReceiverWithStatus"** %19, align 8
  %21 = getelementptr inbounds %"class.mojo::MessageReceiverWithStatus", %"class.mojo::MessageReceiverWithStatus"* %20, i64 0, i32 0
  %22 = bitcast %"class.mojo::MessageReceiverWithStatus"* %20 to i1 (%"class.mojo::MessageReceiver"*, %"class.mojo::Message"*)***
  %23 = load i1 (%"class.mojo::MessageReceiver"*, %"class.mojo::Message"*)**, i1 (%"class.mojo::MessageReceiver"*, %"class.mojo::Message"*)*** %22, align 8
  %24 = getelementptr inbounds i1 (%"class.mojo::MessageReceiver"*, %"class.mojo::Message"*)*, i1 (%"class.mojo::MessageReceiver"*, %"class.mojo::Message"*)** %23, i64 3
  %25 = load i1 (%"class.mojo::MessageReceiver"*, %"class.mojo::Message"*)*, i1 (%"class.mojo::MessageReceiver"*, %"class.mojo::Message"*)** %24, align 8
  %26 = call zeroext i1 %25(%"class.mojo::MessageReceiver"* %21, %"class.mojo::Message"* nonnull %2) #11
  %27 = load %"class.mojo::MessageReceiverWithStatus"*, %"class.mojo::MessageReceiverWithStatus"** %19, align 8
  store %"class.mojo::MessageReceiverWithStatus"* null, %"class.mojo::MessageReceiverWithStatus"** %19, align 8
  %28 = icmp eq %"class.mojo::MessageReceiverWithStatus"* %27, null
  br i1 %28, label %34, label %29

29:                                               ; preds = %1
  %30 = bitcast %"class.mojo::MessageReceiverWithStatus"* %27 to void (%"class.mojo::MessageReceiverWithStatus"*)***
  %31 = load void (%"class.mojo::MessageReceiverWithStatus"*)**, void (%"class.mojo::MessageReceiverWithStatus"*)*** %30, align 8
  %32 = getelementptr inbounds void (%"class.mojo::MessageReceiverWithStatus"*)*, void (%"class.mojo::MessageReceiverWithStatus"*)** %31, i64 1
  %33 = load void (%"class.mojo::MessageReceiverWithStatus"*)*, void (%"class.mojo::MessageReceiverWithStatus"*)** %32, align 8
  call void %33(%"class.mojo::MessageReceiverWithStatus"* nonnull %27) #11
  br label %34

34:                                               ; preds = %1, %29
  call void @_ZN4mojo7MessageD1Ev(%"class.mojo::Message"* nonnull %2) #11
  call void @llvm.lifetime.end.p0i8(i64 120, i8* nonnull %7) #11
  ret void
}

; Function Attrs: nounwind ssp uwtable
define hidden zeroext i1 @_ZN7network5mojom46NetworkServiceTest_AddRules_HandleSyncResponse6AcceptEPN4mojo7MessageE(%"class.network::mojom::NetworkServiceTest_AddRules_HandleSyncResponse"* nocapture readonly, %"class.mojo::Message"*) unnamed_addr #0 align 2 {
  %3 = tail call i8* @_ZNK4mojo7Message7payloadEv(%"class.mojo::Message"* %1) #11
  %4 = getelementptr inbounds %"class.network::mojom::NetworkServiceTest_AddRules_HandleSyncResponse", %"class.network::mojom::NetworkServiceTest_AddRules_HandleSyncResponse"* %0, i64 0, i32 1
  %5 = load i8*, i8** %4, align 8
  store i8 1, i8* %5, align 1
  ret i1 true
}

; Function Attrs: nounwind ssp uwtable
define hidden zeroext i1 @_ZN7network5mojom58NetworkServiceTest_SimulateNetworkChange_ForwardToCallback6AcceptEPN4mojo7MessageE(%"class.network::mojom::NetworkServiceTest_SimulateNetworkChange_ForwardToCallback"* nocapture, %"class.mojo::Message"*) unnamed_addr #0 align 2 {
  %3 = alloca %"class.base::OnceCallback", align 8
  %4 = tail call i8* @_ZNK4mojo7Message7payloadEv(%"class.mojo::Message"* %1) #11
  %5 = getelementptr inbounds %"class.network::mojom::NetworkServiceTest_SimulateNetworkChange_ForwardToCallback", %"class.network::mojom::NetworkServiceTest_SimulateNetworkChange_ForwardToCallback"* %0, i64 0, i32 1, i32 0, i32 0, i32 0
  %6 = load %"class.base::internal::BindStateBase"*, %"class.base::internal::BindStateBase"** %5, align 8
  %7 = icmp eq %"class.base::internal::BindStateBase"* %6, null
  br i1 %7, label %16, label %8

8:                                                ; preds = %2
  %9 = ptrtoint %"class.base::internal::BindStateBase"* %6 to i64
  %10 = bitcast %"class.base::OnceCallback"* %3 to i8*
  call void @llvm.lifetime.start.p0i8(i64 8, i8* nonnull %10) #11
  %11 = bitcast %"class.base::OnceCallback"* %3 to i64*
  store i64 %9, i64* %11, align 8
  store %"class.base::internal::BindStateBase"* null, %"class.base::internal::BindStateBase"** %5, align 8
  %12 = getelementptr inbounds %"class.base::OnceCallback", %"class.base::OnceCallback"* %3, i64 0, i32 0
  %13 = getelementptr inbounds %"class.base::internal::BindStateBase", %"class.base::internal::BindStateBase"* %6, i64 0, i32 1
  %14 = bitcast void ()** %13 to void (%"class.base::internal::BindStateBase"*)**
  %15 = load void (%"class.base::internal::BindStateBase"*)*, void (%"class.base::internal::BindStateBase"*)** %14, align 8
  tail call void %15(%"class.base::internal::BindStateBase"* nonnull %6) #11
  call void @_ZN4base8internal12CallbackBaseD2Ev(%"class.base::internal::CallbackBase"* nonnull %12) #11
  call void @llvm.lifetime.end.p0i8(i64 8, i8* nonnull %10) #11
  br label %16

16:                                               ; preds = %2, %8
  ret i1 true
}

; Function Attrs: nounwind ssp uwtable
define hidden void @_ZN7network5mojom57NetworkServiceTest_SimulateNetworkChange_ProxyToResponder3RunEv(%"class.network::mojom::NetworkServiceTest_SimulateNetworkChange_ProxyToResponder"* nocapture) #0 align 2 {
  %2 = alloca %"class.mojo::Message", align 8
  %3 = getelementptr inbounds %"class.network::mojom::NetworkServiceTest_SimulateNetworkChange_ProxyToResponder", %"class.network::mojom::NetworkServiceTest_SimulateNetworkChange_ProxyToResponder"* %0, i64 0, i32 1
  %4 = load i8, i8* %3, align 8, !range !2
  %5 = icmp eq i8 %4, 0
  %6 = select i1 %5, i32 2, i32 6
  %7 = bitcast %"class.mojo::Message"* %2 to i8*
  call void @llvm.lifetime.start.p0i8(i64 120, i8* nonnull %7) #11
  call void @llvm.memset.p0i8.i64(i8* nonnull align 8 %7, i8 -86, i64 120, i1 false)
  call void @_ZN4mojo7MessageC1EjjmmPNSt3__16vectorINS_16ScopedHandleBaseINS_6HandleEEENS1_9allocatorIS5_EEEE(%"class.mojo::Message"* nonnull %2, i32 770970789, i32 %6, i64 0, i64 0, %"class.std::__1::vector.11"* null) #11
  %8 = getelementptr inbounds %"class.mojo::Message", %"class.mojo::Message"* %2, i64 0, i32 1
  %9 = call i64 @_ZN4mojo8internal6Buffer8AllocateEm(%"class.mojo::internal::Buffer"* %8, i64 8) #11
  %10 = getelementptr inbounds %"class.mojo::Message", %"class.mojo::Message"* %2, i64 0, i32 1, i32 2
  %11 = load i8*, i8** %10, align 8
  %12 = getelementptr inbounds i8, i8* %11, i64 %9
  %13 = bitcast i8* %12 to %"class.network::mojom::internal::NetworkServiceTest_SimulateNetworkChange_ResponseParams_Data"*
  call void @_ZN7network5mojom8internal60NetworkServiceTest_SimulateNetworkChange_ResponseParams_DataC1Ev(%"class.network::mojom::internal::NetworkServiceTest_SimulateNetworkChange_ResponseParams_Data"* %13) #11
  %14 = getelementptr inbounds %"class.network::mojom::NetworkServiceTest_SimulateNetworkChange_ProxyToResponder", %"class.network::mojom::NetworkServiceTest_SimulateNetworkChange_ProxyToResponder"* %0, i64 0, i32 0
  %15 = load i64, i64* %14, align 8
  %16 = bitcast i8** %10 to %"struct.mojo::internal::MessageHeaderV1"**
  %17 = load %"struct.mojo::internal::MessageHeaderV1"*, %"struct.mojo::internal::MessageHeaderV1"** %16, align 8
  %18 = getelementptr inbounds %"struct.mojo::internal::MessageHeaderV1", %"struct.mojo::internal::MessageHeaderV1"* %17, i64 0, i32 1
  store i64 %15, i64* %18, align 1
  %19 = getelementptr inbounds %"class.network::mojom::NetworkServiceTest_SimulateNetworkChange_ProxyToResponder", %"class.network::mojom::NetworkServiceTest_SimulateNetworkChange_ProxyToResponder"* %0, i64 0, i32 2, i32 0, i32 0, i32 0
  %20 = load %"class.mojo::MessageReceiverWithStatus"*, %"class.mojo::MessageReceiverWithStatus"** %19, align 8
  %21 = getelementptr inbounds %"class.mojo::MessageReceiverWithStatus", %"class.mojo::MessageReceiverWithStatus"* %20, i64 0, i32 0
  %22 = bitcast %"class.mojo::MessageReceiverWithStatus"* %20 to i1 (%"class.mojo::MessageReceiver"*, %"class.mojo::Message"*)***
  %23 = load i1 (%"class.mojo::MessageReceiver"*, %"class.mojo::Message"*)**, i1 (%"class.mojo::MessageReceiver"*, %"class.mojo::Message"*)*** %22, align 8
  %24 = getelementptr inbounds i1 (%"class.mojo::MessageReceiver"*, %"class.mojo::Message"*)*, i1 (%"class.mojo::MessageReceiver"*, %"class.mojo::Message"*)** %23, i64 3
  %25 = load i1 (%"class.mojo::MessageReceiver"*, %"class.mojo::Message"*)*, i1 (%"class.mojo::MessageReceiver"*, %"class.mojo::Message"*)** %24, align 8
  %26 = call zeroext i1 %25(%"class.mojo::MessageReceiver"* %21, %"class.mojo::Message"* nonnull %2) #11
  %27 = load %"class.mojo::MessageReceiverWithStatus"*, %"class.mojo::MessageReceiverWithStatus"** %19, align 8
  store %"class.mojo::MessageReceiverWithStatus"* null, %"class.mojo::MessageReceiverWithStatus"** %19, align 8
  %28 = icmp eq %"class.mojo::MessageReceiverWithStatus"* %27, null
  br i1 %28, label %34, label %29

29:                                               ; preds = %1
  %30 = bitcast %"class.mojo::MessageReceiverWithStatus"* %27 to void (%"class.mojo::MessageReceiverWithStatus"*)***
  %31 = load void (%"class.mojo::MessageReceiverWithStatus"*)**, void (%"class.mojo::MessageReceiverWithStatus"*)*** %30, align 8
  %32 = getelementptr inbounds void (%"class.mojo::MessageReceiverWithStatus"*)*, void (%"class.mojo::MessageReceiverWithStatus"*)** %31, i64 1
  %33 = load void (%"class.mojo::MessageReceiverWithStatus"*)*, void (%"class.mojo::MessageReceiverWithStatus"*)** %32, align 8
  call void %33(%"class.mojo::MessageReceiverWithStatus"* nonnull %27) #11
  br label %34

34:                                               ; preds = %1, %29
  call void @_ZN4mojo7MessageD1Ev(%"class.mojo::Message"* nonnull %2) #11
  call void @llvm.lifetime.end.p0i8(i64 120, i8* nonnull %7) #11
  ret void
}

; Function Attrs: nounwind ssp uwtable
define hidden zeroext i1 @_ZN7network5mojom65NetworkServiceTest_SimulateNetworkQualityChange_ForwardToCallback6AcceptEPN4mojo7MessageE(%"class.network::mojom::NetworkServiceTest_SimulateNetworkQualityChange_ForwardToCallback"* nocapture, %"class.mojo::Message"*) unnamed_addr #0 align 2 {
  %3 = alloca %"class.base::OnceCallback", align 8
  %4 = tail call i8* @_ZNK4mojo7Message7payloadEv(%"class.mojo::Message"* %1) #11
  %5 = getelementptr inbounds %"class.network::mojom::NetworkServiceTest_SimulateNetworkQualityChange_ForwardToCallback", %"class.network::mojom::NetworkServiceTest_SimulateNetworkQualityChange_ForwardToCallback"* %0, i64 0, i32 1, i32 0, i32 0, i32 0
  %6 = load %"class.base::internal::BindStateBase"*, %"class.base::internal::BindStateBase"** %5, align 8
  %7 = icmp eq %"class.base::internal::BindStateBase"* %6, null
  br i1 %7, label %16, label %8

8:                                                ; preds = %2
  %9 = ptrtoint %"class.base::internal::BindStateBase"* %6 to i64
  %10 = bitcast %"class.base::OnceCallback"* %3 to i8*
  call void @llvm.lifetime.start.p0i8(i64 8, i8* nonnull %10) #11
  %11 = bitcast %"class.base::OnceCallback"* %3 to i64*
  store i64 %9, i64* %11, align 8
  store %"class.base::internal::BindStateBase"* null, %"class.base::internal::BindStateBase"** %5, align 8
  %12 = getelementptr inbounds %"class.base::OnceCallback", %"class.base::OnceCallback"* %3, i64 0, i32 0
  %13 = getelementptr inbounds %"class.base::internal::BindStateBase", %"class.base::internal::BindStateBase"* %6, i64 0, i32 1
  %14 = bitcast void ()** %13 to void (%"class.base::internal::BindStateBase"*)**
  %15 = load void (%"class.base::internal::BindStateBase"*)*, void (%"class.base::internal::BindStateBase"*)** %14, align 8
  tail call void %15(%"class.base::internal::BindStateBase"* nonnull %6) #11
  call void @_ZN4base8internal12CallbackBaseD2Ev(%"class.base::internal::CallbackBase"* nonnull %12) #11
  call void @llvm.lifetime.end.p0i8(i64 8, i8* nonnull %10) #11
  br label %16

16:                                               ; preds = %2, %8
  ret i1 true
}

; Function Attrs: nounwind ssp uwtable
define hidden void @_ZN7network5mojom64NetworkServiceTest_SimulateNetworkQualityChange_ProxyToResponder3RunEv(%"class.network::mojom::NetworkServiceTest_SimulateNetworkQualityChange_ProxyToResponder"* nocapture) #0 align 2 {
  %2 = alloca %"class.mojo::Message", align 8
  %3 = getelementptr inbounds %"class.network::mojom::NetworkServiceTest_SimulateNetworkQualityChange_ProxyToResponder", %"class.network::mojom::NetworkServiceTest_SimulateNetworkQualityChange_ProxyToResponder"* %0, i64 0, i32 1
  %4 = load i8, i8* %3, align 8, !range !2
  %5 = icmp eq i8 %4, 0
  %6 = select i1 %5, i32 2, i32 6
  %7 = bitcast %"class.mojo::Message"* %2 to i8*
  call void @llvm.lifetime.start.p0i8(i64 120, i8* nonnull %7) #11
  call void @llvm.memset.p0i8.i64(i8* nonnull align 8 %7, i8 -86, i64 120, i1 false)
  call void @_ZN4mojo7MessageC1EjjmmPNSt3__16vectorINS_16ScopedHandleBaseINS_6HandleEEENS1_9allocatorIS5_EEEE(%"class.mojo::Message"* nonnull %2, i32 529548984, i32 %6, i64 0, i64 0, %"class.std::__1::vector.11"* null) #11
  %8 = getelementptr inbounds %"class.mojo::Message", %"class.mojo::Message"* %2, i64 0, i32 1
  %9 = call i64 @_ZN4mojo8internal6Buffer8AllocateEm(%"class.mojo::internal::Buffer"* %8, i64 8) #11
  %10 = getelementptr inbounds %"class.mojo::Message", %"class.mojo::Message"* %2, i64 0, i32 1, i32 2
  %11 = load i8*, i8** %10, align 8
  %12 = getelementptr inbounds i8, i8* %11, i64 %9
  %13 = bitcast i8* %12 to %"class.network::mojom::internal::NetworkServiceTest_SimulateNetworkQualityChange_ResponseParams_Data"*
  call void @_ZN7network5mojom8internal67NetworkServiceTest_SimulateNetworkQualityChange_ResponseParams_DataC1Ev(%"class.network::mojom::internal::NetworkServiceTest_SimulateNetworkQualityChange_ResponseParams_Data"* %13) #11
  %14 = getelementptr inbounds %"class.network::mojom::NetworkServiceTest_SimulateNetworkQualityChange_ProxyToResponder", %"class.network::mojom::NetworkServiceTest_SimulateNetworkQualityChange_ProxyToResponder"* %0, i64 0, i32 0
  %15 = load i64, i64* %14, align 8
  %16 = bitcast i8** %10 to %"struct.mojo::internal::MessageHeaderV1"**
  %17 = load %"struct.mojo::internal::MessageHeaderV1"*, %"struct.mojo::internal::MessageHeaderV1"** %16, align 8
  %18 = getelementptr inbounds %"struct.mojo::internal::MessageHeaderV1", %"struct.mojo::internal::MessageHeaderV1"* %17, i64 0, i32 1
  store i64 %15, i64* %18, align 1
  %19 = getelementptr inbounds %"class.network::mojom::NetworkServiceTest_SimulateNetworkQualityChange_ProxyToResponder", %"class.network::mojom::NetworkServiceTest_SimulateNetworkQualityChange_ProxyToResponder"* %0, i64 0, i32 2, i32 0, i32 0, i32 0
  %20 = load %"class.mojo::MessageReceiverWithStatus"*, %"class.mojo::MessageReceiverWithStatus"** %19, align 8
  %21 = getelementptr inbounds %"class.mojo::MessageReceiverWithStatus", %"class.mojo::MessageReceiverWithStatus"* %20, i64 0, i32 0
  %22 = bitcast %"class.mojo::MessageReceiverWithStatus"* %20 to i1 (%"class.mojo::MessageReceiver"*, %"class.mojo::Message"*)***
  %23 = load i1 (%"class.mojo::MessageReceiver"*, %"class.mojo::Message"*)**, i1 (%"class.mojo::MessageReceiver"*, %"class.mojo::Message"*)*** %22, align 8
  %24 = getelementptr inbounds i1 (%"class.mojo::MessageReceiver"*, %"class.mojo::Message"*)*, i1 (%"class.mojo::MessageReceiver"*, %"class.mojo::Message"*)** %23, i64 3
  %25 = load i1 (%"class.mojo::MessageReceiver"*, %"class.mojo::Message"*)*, i1 (%"class.mojo::MessageReceiver"*, %"class.mojo::Message"*)** %24, align 8
  %26 = call zeroext i1 %25(%"class.mojo::MessageReceiver"* %21, %"class.mojo::Message"* nonnull %2) #11
  %27 = load %"class.mojo::MessageReceiverWithStatus"*, %"class.mojo::MessageReceiverWithStatus"** %19, align 8
  store %"class.mojo::MessageReceiverWithStatus"* null, %"class.mojo::MessageReceiverWithStatus"** %19, align 8
  %28 = icmp eq %"class.mojo::MessageReceiverWithStatus"* %27, null
  br i1 %28, label %34, label %29

29:                                               ; preds = %1
  %30 = bitcast %"class.mojo::MessageReceiverWithStatus"* %27 to void (%"class.mojo::MessageReceiverWithStatus"*)***
  %31 = load void (%"class.mojo::MessageReceiverWithStatus"*)**, void (%"class.mojo::MessageReceiverWithStatus"*)*** %30, align 8
  %32 = getelementptr inbounds void (%"class.mojo::MessageReceiverWithStatus"*)*, void (%"class.mojo::MessageReceiverWithStatus"*)** %31, i64 1
  %33 = load void (%"class.mojo::MessageReceiverWithStatus"*)*, void (%"class.mojo::MessageReceiverWithStatus"*)** %32, align 8
  call void %33(%"class.mojo::MessageReceiverWithStatus"* nonnull %27) #11
  br label %34

34:                                               ; preds = %1, %29
  call void @_ZN4mojo7MessageD1Ev(%"class.mojo::Message"* nonnull %2) #11
  call void @llvm.lifetime.end.p0i8(i64 120, i8* nonnull %7) #11
  ret void
}

; Function Attrs: nounwind ssp uwtable
define hidden zeroext i1 @_ZN7network5mojom69NetworkServiceTest_MockCertVerifierSetDefaultResult_ForwardToCallback6AcceptEPN4mojo7MessageE(%"class.network::mojom::NetworkServiceTest_MockCertVerifierSetDefaultResult_ForwardToCallback"* nocapture, %"class.mojo::Message"*) unnamed_addr #0 align 2 {
  %3 = alloca %"class.base::OnceCallback", align 8
  %4 = tail call i8* @_ZNK4mojo7Message7payloadEv(%"class.mojo::Message"* %1) #11
  %5 = getelementptr inbounds %"class.network::mojom::NetworkServiceTest_MockCertVerifierSetDefaultResult_ForwardToCallback", %"class.network::mojom::NetworkServiceTest_MockCertVerifierSetDefaultResult_ForwardToCallback"* %0, i64 0, i32 1, i32 0, i32 0, i32 0
  %6 = load %"class.base::internal::BindStateBase"*, %"class.base::internal::BindStateBase"** %5, align 8
  %7 = icmp eq %"class.base::internal::BindStateBase"* %6, null
  br i1 %7, label %16, label %8

8:                                                ; preds = %2
  %9 = ptrtoint %"class.base::internal::BindStateBase"* %6 to i64
  %10 = bitcast %"class.base::OnceCallback"* %3 to i8*
  call void @llvm.lifetime.start.p0i8(i64 8, i8* nonnull %10) #11
  %11 = bitcast %"class.base::OnceCallback"* %3 to i64*
  store i64 %9, i64* %11, align 8
  store %"class.base::internal::BindStateBase"* null, %"class.base::internal::BindStateBase"** %5, align 8
  %12 = getelementptr inbounds %"class.base::OnceCallback", %"class.base::OnceCallback"* %3, i64 0, i32 0
  %13 = getelementptr inbounds %"class.base::internal::BindStateBase", %"class.base::internal::BindStateBase"* %6, i64 0, i32 1
  %14 = bitcast void ()** %13 to void (%"class.base::internal::BindStateBase"*)**
  %15 = load void (%"class.base::internal::BindStateBase"*)*, void (%"class.base::internal::BindStateBase"*)** %14, align 8
  tail call void %15(%"class.base::internal::BindStateBase"* nonnull %6) #11
  call void @_ZN4base8internal12CallbackBaseD2Ev(%"class.base::internal::CallbackBase"* nonnull %12) #11
  call void @llvm.lifetime.end.p0i8(i64 8, i8* nonnull %10) #11
  br label %16

16:                                               ; preds = %2, %8
  ret i1 true
}

; Function Attrs: nounwind ssp uwtable
define hidden void @_ZN7network5mojom68NetworkServiceTest_MockCertVerifierSetDefaultResult_ProxyToResponder3RunEv(%"class.network::mojom::NetworkServiceTest_MockCertVerifierSetDefaultResult_ProxyToResponder"* nocapture) #0 align 2 {
  %2 = alloca %"class.mojo::Message", align 8
  %3 = getelementptr inbounds %"class.network::mojom::NetworkServiceTest_MockCertVerifierSetDefaultResult_ProxyToResponder", %"class.network::mojom::NetworkServiceTest_MockCertVerifierSetDefaultResult_ProxyToResponder"* %0, i64 0, i32 1
  %4 = load i8, i8* %3, align 8, !range !2
  %5 = icmp eq i8 %4, 0
  %6 = select i1 %5, i32 2, i32 6
  %7 = bitcast %"class.mojo::Message"* %2 to i8*
  call void @llvm.lifetime.start.p0i8(i64 120, i8* nonnull %7) #11
  call void @llvm.memset.p0i8.i64(i8* nonnull align 8 %7, i8 -86, i64 120, i1 false)
  call void @_ZN4mojo7MessageC1EjjmmPNSt3__16vectorINS_16ScopedHandleBaseINS_6HandleEEENS1_9allocatorIS5_EEEE(%"class.mojo::Message"* nonnull %2, i32 343609816, i32 %6, i64 0, i64 0, %"class.std::__1::vector.11"* null) #11
  %8 = getelementptr inbounds %"class.mojo::Message", %"class.mojo::Message"* %2, i64 0, i32 1
  %9 = call i64 @_ZN4mojo8internal6Buffer8AllocateEm(%"class.mojo::internal::Buffer"* %8, i64 8) #11
  %10 = getelementptr inbounds %"class.mojo::Message", %"class.mojo::Message"* %2, i64 0, i32 1, i32 2
  %11 = load i8*, i8** %10, align 8
  %12 = getelementptr inbounds i8, i8* %11, i64 %9
  %13 = bitcast i8* %12 to %"class.network::mojom::internal::NetworkServiceTest_MockCertVerifierSetDefaultResult_ResponseParams_Data"*
  call void @_ZN7network5mojom8internal71NetworkServiceTest_MockCertVerifierSetDefaultResult_ResponseParams_DataC1Ev(%"class.network::mojom::internal::NetworkServiceTest_MockCertVerifierSetDefaultResult_ResponseParams_Data"* %13) #11
  %14 = getelementptr inbounds %"class.network::mojom::NetworkServiceTest_MockCertVerifierSetDefaultResult_ProxyToResponder", %"class.network::mojom::NetworkServiceTest_MockCertVerifierSetDefaultResult_ProxyToResponder"* %0, i64 0, i32 0
  %15 = load i64, i64* %14, align 8
  %16 = bitcast i8** %10 to %"struct.mojo::internal::MessageHeaderV1"**
  %17 = load %"struct.mojo::internal::MessageHeaderV1"*, %"struct.mojo::internal::MessageHeaderV1"** %16, align 8
  %18 = getelementptr inbounds %"struct.mojo::internal::MessageHeaderV1", %"struct.mojo::internal::MessageHeaderV1"* %17, i64 0, i32 1
  store i64 %15, i64* %18, align 1
  %19 = getelementptr inbounds %"class.network::mojom::NetworkServiceTest_MockCertVerifierSetDefaultResult_ProxyToResponder", %"class.network::mojom::NetworkServiceTest_MockCertVerifierSetDefaultResult_ProxyToResponder"* %0, i64 0, i32 2, i32 0, i32 0, i32 0
  %20 = load %"class.mojo::MessageReceiverWithStatus"*, %"class.mojo::MessageReceiverWithStatus"** %19, align 8
  %21 = getelementptr inbounds %"class.mojo::MessageReceiverWithStatus", %"class.mojo::MessageReceiverWithStatus"* %20, i64 0, i32 0
  %22 = bitcast %"class.mojo::MessageReceiverWithStatus"* %20 to i1 (%"class.mojo::MessageReceiver"*, %"class.mojo::Message"*)***
  %23 = load i1 (%"class.mojo::MessageReceiver"*, %"class.mojo::Message"*)**, i1 (%"class.mojo::MessageReceiver"*, %"class.mojo::Message"*)*** %22, align 8
  %24 = getelementptr inbounds i1 (%"class.mojo::MessageReceiver"*, %"class.mojo::Message"*)*, i1 (%"class.mojo::MessageReceiver"*, %"class.mojo::Message"*)** %23, i64 3
  %25 = load i1 (%"class.mojo::MessageReceiver"*, %"class.mojo::Message"*)*, i1 (%"class.mojo::MessageReceiver"*, %"class.mojo::Message"*)** %24, align 8
  %26 = call zeroext i1 %25(%"class.mojo::MessageReceiver"* %21, %"class.mojo::Message"* nonnull %2) #11
  %27 = load %"class.mojo::MessageReceiverWithStatus"*, %"class.mojo::MessageReceiverWithStatus"** %19, align 8
  store %"class.mojo::MessageReceiverWithStatus"* null, %"class.mojo::MessageReceiverWithStatus"** %19, align 8
  %28 = icmp eq %"class.mojo::MessageReceiverWithStatus"* %27, null
  br i1 %28, label %34, label %29

29:                                               ; preds = %1
  %30 = bitcast %"class.mojo::MessageReceiverWithStatus"* %27 to void (%"class.mojo::MessageReceiverWithStatus"*)***
  %31 = load void (%"class.mojo::MessageReceiverWithStatus"*)**, void (%"class.mojo::MessageReceiverWithStatus"*)*** %30, align 8
  %32 = getelementptr inbounds void (%"class.mojo::MessageReceiverWithStatus"*)*, void (%"class.mojo::MessageReceiverWithStatus"*)** %31, i64 1
  %33 = load void (%"class.mojo::MessageReceiverWithStatus"*)*, void (%"class.mojo::MessageReceiverWithStatus"*)** %32, align 8
  call void %33(%"class.mojo::MessageReceiverWithStatus"* nonnull %27) #11
  br label %34

34:                                               ; preds = %1, %29
  call void @_ZN4mojo7MessageD1Ev(%"class.mojo::Message"* nonnull %2) #11
  call void @llvm.lifetime.end.p0i8(i64 120, i8* nonnull %7) #11
  ret void
}

; Function Attrs: nounwind ssp uwtable
define hidden zeroext i1 @_ZN7network5mojom70NetworkServiceTest_MockCertVerifierSetDefaultResult_HandleSyncResponse6AcceptEPN4mojo7MessageE(%"class.network::mojom::NetworkServiceTest_MockCertVerifierSetDefaultResult_HandleSyncResponse"* nocapture readonly, %"class.mojo::Message"*) unnamed_addr #0 align 2 {
  %3 = tail call i8* @_ZNK4mojo7Message7payloadEv(%"class.mojo::Message"* %1) #11
  %4 = getelementptr inbounds %"class.network::mojom::NetworkServiceTest_MockCertVerifierSetDefaultResult_HandleSyncResponse", %"class.network::mojom::NetworkServiceTest_MockCertVerifierSetDefaultResult_HandleSyncResponse"* %0, i64 0, i32 1
  %5 = load i8*, i8** %4, align 8
  store i8 1, i8* %5, align 1
  ret i1 true
}

; Function Attrs: nounwind ssp uwtable
define hidden zeroext i1 @_ZN7network5mojom76NetworkServiceTest_MockCertVerifierAddResultForCertAndHost_ForwardToCallback6AcceptEPN4mojo7MessageE(%"class.network::mojom::NetworkServiceTest_MockCertVerifierAddResultForCertAndHost_ForwardToCallback"* nocapture, %"class.mojo::Message"*) unnamed_addr #0 align 2 {
  %3 = alloca %"class.base::OnceCallback", align 8
  %4 = tail call i8* @_ZNK4mojo7Message7payloadEv(%"class.mojo::Message"* %1) #11
  %5 = getelementptr inbounds %"class.network::mojom::NetworkServiceTest_MockCertVerifierAddResultForCertAndHost_ForwardToCallback", %"class.network::mojom::NetworkServiceTest_MockCertVerifierAddResultForCertAndHost_ForwardToCallback"* %0, i64 0, i32 1, i32 0, i32 0, i32 0
  %6 = load %"class.base::internal::BindStateBase"*, %"class.base::internal::BindStateBase"** %5, align 8
  %7 = icmp eq %"class.base::internal::BindStateBase"* %6, null
  br i1 %7, label %16, label %8

8:                                                ; preds = %2
  %9 = ptrtoint %"class.base::internal::BindStateBase"* %6 to i64
  %10 = bitcast %"class.base::OnceCallback"* %3 to i8*
  call void @llvm.lifetime.start.p0i8(i64 8, i8* nonnull %10) #11
  %11 = bitcast %"class.base::OnceCallback"* %3 to i64*
  store i64 %9, i64* %11, align 8
  store %"class.base::internal::BindStateBase"* null, %"class.base::internal::BindStateBase"** %5, align 8
  %12 = getelementptr inbounds %"class.base::OnceCallback", %"class.base::OnceCallback"* %3, i64 0, i32 0
  %13 = getelementptr inbounds %"class.base::internal::BindStateBase", %"class.base::internal::BindStateBase"* %6, i64 0, i32 1
  %14 = bitcast void ()** %13 to void (%"class.base::internal::BindStateBase"*)**
  %15 = load void (%"class.base::internal::BindStateBase"*)*, void (%"class.base::internal::BindStateBase"*)** %14, align 8
  tail call void %15(%"class.base::internal::BindStateBase"* nonnull %6) #11
  call void @_ZN4base8internal12CallbackBaseD2Ev(%"class.base::internal::CallbackBase"* nonnull %12) #11
  call void @llvm.lifetime.end.p0i8(i64 8, i8* nonnull %10) #11
  br label %16

16:                                               ; preds = %2, %8
  ret i1 true
}

; Function Attrs: nounwind ssp uwtable
define hidden void @_ZN7network5mojom75NetworkServiceTest_MockCertVerifierAddResultForCertAndHost_ProxyToResponder3RunEv(%"class.network::mojom::NetworkServiceTest_MockCertVerifierAddResultForCertAndHost_ProxyToResponder"* nocapture) #0 align 2 {
  %2 = alloca %"class.mojo::Message", align 8
  %3 = getelementptr inbounds %"class.network::mojom::NetworkServiceTest_MockCertVerifierAddResultForCertAndHost_ProxyToResponder", %"class.network::mojom::NetworkServiceTest_MockCertVerifierAddResultForCertAndHost_ProxyToResponder"* %0, i64 0, i32 1
  %4 = load i8, i8* %3, align 8, !range !2
  %5 = icmp eq i8 %4, 0
  %6 = select i1 %5, i32 2, i32 6
  %7 = bitcast %"class.mojo::Message"* %2 to i8*
  call void @llvm.lifetime.start.p0i8(i64 120, i8* nonnull %7) #11
  call void @llvm.memset.p0i8.i64(i8* nonnull align 8 %7, i8 -86, i64 120, i1 false)
  call void @_ZN4mojo7MessageC1EjjmmPNSt3__16vectorINS_16ScopedHandleBaseINS_6HandleEEENS1_9allocatorIS5_EEEE(%"class.mojo::Message"* nonnull %2, i32 278364737, i32 %6, i64 0, i64 0, %"class.std::__1::vector.11"* null) #11
  %8 = getelementptr inbounds %"class.mojo::Message", %"class.mojo::Message"* %2, i64 0, i32 1
  %9 = call i64 @_ZN4mojo8internal6Buffer8AllocateEm(%"class.mojo::internal::Buffer"* %8, i64 8) #11
  %10 = getelementptr inbounds %"class.mojo::Message", %"class.mojo::Message"* %2, i64 0, i32 1, i32 2
  %11 = load i8*, i8** %10, align 8
  %12 = getelementptr inbounds i8, i8* %11, i64 %9
  %13 = bitcast i8* %12 to %"class.network::mojom::internal::NetworkServiceTest_MockCertVerifierAddResultForCertAndHost_ResponseParams_Data"*
  call void @_ZN7network5mojom8internal78NetworkServiceTest_MockCertVerifierAddResultForCertAndHost_ResponseParams_DataC1Ev(%"class.network::mojom::internal::NetworkServiceTest_MockCertVerifierAddResultForCertAndHost_ResponseParams_Data"* %13) #11
  %14 = getelementptr inbounds %"class.network::mojom::NetworkServiceTest_MockCertVerifierAddResultForCertAndHost_ProxyToResponder", %"class.network::mojom::NetworkServiceTest_MockCertVerifierAddResultForCertAndHost_ProxyToResponder"* %0, i64 0, i32 0
  %15 = load i64, i64* %14, align 8
  %16 = bitcast i8** %10 to %"struct.mojo::internal::MessageHeaderV1"**
  %17 = load %"struct.mojo::internal::MessageHeaderV1"*, %"struct.mojo::internal::MessageHeaderV1"** %16, align 8
  %18 = getelementptr inbounds %"struct.mojo::internal::MessageHeaderV1", %"struct.mojo::internal::MessageHeaderV1"* %17, i64 0, i32 1
  store i64 %15, i64* %18, align 1
  %19 = getelementptr inbounds %"class.network::mojom::NetworkServiceTest_MockCertVerifierAddResultForCertAndHost_ProxyToResponder", %"class.network::mojom::NetworkServiceTest_MockCertVerifierAddResultForCertAndHost_ProxyToResponder"* %0, i64 0, i32 2, i32 0, i32 0, i32 0
  %20 = load %"class.mojo::MessageReceiverWithStatus"*, %"class.mojo::MessageReceiverWithStatus"** %19, align 8
  %21 = getelementptr inbounds %"class.mojo::MessageReceiverWithStatus", %"class.mojo::MessageReceiverWithStatus"* %20, i64 0, i32 0
  %22 = bitcast %"class.mojo::MessageReceiverWithStatus"* %20 to i1 (%"class.mojo::MessageReceiver"*, %"class.mojo::Message"*)***
  %23 = load i1 (%"class.mojo::MessageReceiver"*, %"class.mojo::Message"*)**, i1 (%"class.mojo::MessageReceiver"*, %"class.mojo::Message"*)*** %22, align 8
  %24 = getelementptr inbounds i1 (%"class.mojo::MessageReceiver"*, %"class.mojo::Message"*)*, i1 (%"class.mojo::MessageReceiver"*, %"class.mojo::Message"*)** %23, i64 3
  %25 = load i1 (%"class.mojo::MessageReceiver"*, %"class.mojo::Message"*)*, i1 (%"class.mojo::MessageReceiver"*, %"class.mojo::Message"*)** %24, align 8
  %26 = call zeroext i1 %25(%"class.mojo::MessageReceiver"* %21, %"class.mojo::Message"* nonnull %2) #11
  %27 = load %"class.mojo::MessageReceiverWithStatus"*, %"class.mojo::MessageReceiverWithStatus"** %19, align 8
  store %"class.mojo::MessageReceiverWithStatus"* null, %"class.mojo::MessageReceiverWithStatus"** %19, align 8
  %28 = icmp eq %"class.mojo::MessageReceiverWithStatus"* %27, null
  br i1 %28, label %34, label %29

29:                                               ; preds = %1
  %30 = bitcast %"class.mojo::MessageReceiverWithStatus"* %27 to void (%"class.mojo::MessageReceiverWithStatus"*)***
  %31 = load void (%"class.mojo::MessageReceiverWithStatus"*)**, void (%"class.mojo::MessageReceiverWithStatus"*)*** %30, align 8
  %32 = getelementptr inbounds void (%"class.mojo::MessageReceiverWithStatus"*)*, void (%"class.mojo::MessageReceiverWithStatus"*)** %31, i64 1
  %33 = load void (%"class.mojo::MessageReceiverWithStatus"*)*, void (%"class.mojo::MessageReceiverWithStatus"*)** %32, align 8
  call void %33(%"class.mojo::MessageReceiverWithStatus"* nonnull %27) #11
  br label %34

34:                                               ; preds = %1, %29
  call void @_ZN4mojo7MessageD1Ev(%"class.mojo::Message"* nonnull %2) #11
  call void @llvm.lifetime.end.p0i8(i64 120, i8* nonnull %7) #11
  ret void
}

; Function Attrs: nounwind ssp uwtable
define hidden zeroext i1 @_ZN7network5mojom77NetworkServiceTest_MockCertVerifierAddResultForCertAndHost_HandleSyncResponse6AcceptEPN4mojo7MessageE(%"class.network::mojom::NetworkServiceTest_MockCertVerifierAddResultForCertAndHost_HandleSyncResponse"* nocapture readonly, %"class.mojo::Message"*) unnamed_addr #0 align 2 {
  %3 = tail call i8* @_ZNK4mojo7Message7payloadEv(%"class.mojo::Message"* %1) #11
  %4 = getelementptr inbounds %"class.network::mojom::NetworkServiceTest_MockCertVerifierAddResultForCertAndHost_HandleSyncResponse", %"class.network::mojom::NetworkServiceTest_MockCertVerifierAddResultForCertAndHost_HandleSyncResponse"* %0, i64 0, i32 1
  %5 = load i8*, i8** %4, align 8
  store i8 1, i8* %5, align 1
  ret i1 true
}

; Function Attrs: nounwind ssp uwtable
define hidden zeroext i1 @_ZN7network5mojom49NetworkServiceTest_SetRequireCT_ForwardToCallback6AcceptEPN4mojo7MessageE(%"class.network::mojom::NetworkServiceTest_SetRequireCT_ForwardToCallback"* nocapture, %"class.mojo::Message"*) unnamed_addr #0 align 2 {
  %3 = alloca %"class.base::OnceCallback", align 8
  %4 = tail call i8* @_ZNK4mojo7Message7payloadEv(%"class.mojo::Message"* %1) #11
  %5 = getelementptr inbounds %"class.network::mojom::NetworkServiceTest_SetRequireCT_ForwardToCallback", %"class.network::mojom::NetworkServiceTest_SetRequireCT_ForwardToCallback"* %0, i64 0, i32 1, i32 0, i32 0, i32 0
  %6 = load %"class.base::internal::BindStateBase"*, %"class.base::internal::BindStateBase"** %5, align 8
  %7 = icmp eq %"class.base::internal::BindStateBase"* %6, null
  br i1 %7, label %16, label %8

8:                                                ; preds = %2
  %9 = ptrtoint %"class.base::internal::BindStateBase"* %6 to i64
  %10 = bitcast %"class.base::OnceCallback"* %3 to i8*
  call void @llvm.lifetime.start.p0i8(i64 8, i8* nonnull %10) #11
  %11 = bitcast %"class.base::OnceCallback"* %3 to i64*
  store i64 %9, i64* %11, align 8
  store %"class.base::internal::BindStateBase"* null, %"class.base::internal::BindStateBase"** %5, align 8
  %12 = getelementptr inbounds %"class.base::OnceCallback", %"class.base::OnceCallback"* %3, i64 0, i32 0
  %13 = getelementptr inbounds %"class.base::internal::BindStateBase", %"class.base::internal::BindStateBase"* %6, i64 0, i32 1
  %14 = bitcast void ()** %13 to void (%"class.base::internal::BindStateBase"*)**
  %15 = load void (%"class.base::internal::BindStateBase"*)*, void (%"class.base::internal::BindStateBase"*)** %14, align 8
  tail call void %15(%"class.base::internal::BindStateBase"* nonnull %6) #11
  call void @_ZN4base8internal12CallbackBaseD2Ev(%"class.base::internal::CallbackBase"* nonnull %12) #11
  call void @llvm.lifetime.end.p0i8(i64 8, i8* nonnull %10) #11
  br label %16

16:                                               ; preds = %2, %8
  ret i1 true
}

; Function Attrs: nounwind ssp uwtable
define hidden void @_ZN7network5mojom48NetworkServiceTest_SetRequireCT_ProxyToResponder3RunEv(%"class.network::mojom::NetworkServiceTest_SetRequireCT_ProxyToResponder"* nocapture) #0 align 2 {
  %2 = alloca %"class.mojo::Message", align 8
  %3 = getelementptr inbounds %"class.network::mojom::NetworkServiceTest_SetRequireCT_ProxyToResponder", %"class.network::mojom::NetworkServiceTest_SetRequireCT_ProxyToResponder"* %0, i64 0, i32 1
  %4 = load i8, i8* %3, align 8, !range !2
  %5 = icmp eq i8 %4, 0
  %6 = select i1 %5, i32 2, i32 6
  %7 = bitcast %"class.mojo::Message"* %2 to i8*
  call void @llvm.lifetime.start.p0i8(i64 120, i8* nonnull %7) #11
  call void @llvm.memset.p0i8.i64(i8* nonnull align 8 %7, i8 -86, i64 120, i1 false)
  call void @_ZN4mojo7MessageC1EjjmmPNSt3__16vectorINS_16ScopedHandleBaseINS_6HandleEEENS1_9allocatorIS5_EEEE(%"class.mojo::Message"* nonnull %2, i32 401814863, i32 %6, i64 0, i64 0, %"class.std::__1::vector.11"* null) #11
  %8 = getelementptr inbounds %"class.mojo::Message", %"class.mojo::Message"* %2, i64 0, i32 1
  %9 = call i64 @_ZN4mojo8internal6Buffer8AllocateEm(%"class.mojo::internal::Buffer"* %8, i64 8) #11
  %10 = getelementptr inbounds %"class.mojo::Message", %"class.mojo::Message"* %2, i64 0, i32 1, i32 2
  %11 = load i8*, i8** %10, align 8
  %12 = getelementptr inbounds i8, i8* %11, i64 %9
  %13 = bitcast i8* %12 to %"class.network::mojom::internal::NetworkServiceTest_SetRequireCT_ResponseParams_Data"*
  call void @_ZN7network5mojom8internal51NetworkServiceTest_SetRequireCT_ResponseParams_DataC1Ev(%"class.network::mojom::internal::NetworkServiceTest_SetRequireCT_ResponseParams_Data"* %13) #11
  %14 = getelementptr inbounds %"class.network::mojom::NetworkServiceTest_SetRequireCT_ProxyToResponder", %"class.network::mojom::NetworkServiceTest_SetRequireCT_ProxyToResponder"* %0, i64 0, i32 0
  %15 = load i64, i64* %14, align 8
  %16 = bitcast i8** %10 to %"struct.mojo::internal::MessageHeaderV1"**
  %17 = load %"struct.mojo::internal::MessageHeaderV1"*, %"struct.mojo::internal::MessageHeaderV1"** %16, align 8
  %18 = getelementptr inbounds %"struct.mojo::internal::MessageHeaderV1", %"struct.mojo::internal::MessageHeaderV1"* %17, i64 0, i32 1
  store i64 %15, i64* %18, align 1
  %19 = getelementptr inbounds %"class.network::mojom::NetworkServiceTest_SetRequireCT_ProxyToResponder", %"class.network::mojom::NetworkServiceTest_SetRequireCT_ProxyToResponder"* %0, i64 0, i32 2, i32 0, i32 0, i32 0
  %20 = load %"class.mojo::MessageReceiverWithStatus"*, %"class.mojo::MessageReceiverWithStatus"** %19, align 8
  %21 = getelementptr inbounds %"class.mojo::MessageReceiverWithStatus", %"class.mojo::MessageReceiverWithStatus"* %20, i64 0, i32 0
  %22 = bitcast %"class.mojo::MessageReceiverWithStatus"* %20 to i1 (%"class.mojo::MessageReceiver"*, %"class.mojo::Message"*)***
  %23 = load i1 (%"class.mojo::MessageReceiver"*, %"class.mojo::Message"*)**, i1 (%"class.mojo::MessageReceiver"*, %"class.mojo::Message"*)*** %22, align 8
  %24 = getelementptr inbounds i1 (%"class.mojo::MessageReceiver"*, %"class.mojo::Message"*)*, i1 (%"class.mojo::MessageReceiver"*, %"class.mojo::Message"*)** %23, i64 3
  %25 = load i1 (%"class.mojo::MessageReceiver"*, %"class.mojo::Message"*)*, i1 (%"class.mojo::MessageReceiver"*, %"class.mojo::Message"*)** %24, align 8
  %26 = call zeroext i1 %25(%"class.mojo::MessageReceiver"* %21, %"class.mojo::Message"* nonnull %2) #11
  %27 = load %"class.mojo::MessageReceiverWithStatus"*, %"class.mojo::MessageReceiverWithStatus"** %19, align 8
  store %"class.mojo::MessageReceiverWithStatus"* null, %"class.mojo::MessageReceiverWithStatus"** %19, align 8
  %28 = icmp eq %"class.mojo::MessageReceiverWithStatus"* %27, null
  br i1 %28, label %34, label %29

29:                                               ; preds = %1
  %30 = bitcast %"class.mojo::MessageReceiverWithStatus"* %27 to void (%"class.mojo::MessageReceiverWithStatus"*)***
  %31 = load void (%"class.mojo::MessageReceiverWithStatus"*)**, void (%"class.mojo::MessageReceiverWithStatus"*)*** %30, align 8
  %32 = getelementptr inbounds void (%"class.mojo::MessageReceiverWithStatus"*)*, void (%"class.mojo::MessageReceiverWithStatus"*)** %31, i64 1
  %33 = load void (%"class.mojo::MessageReceiverWithStatus"*)*, void (%"class.mojo::MessageReceiverWithStatus"*)** %32, align 8
  call void %33(%"class.mojo::MessageReceiverWithStatus"* nonnull %27) #11
  br label %34

34:                                               ; preds = %1, %29
  call void @_ZN4mojo7MessageD1Ev(%"class.mojo::Message"* nonnull %2) #11
  call void @llvm.lifetime.end.p0i8(i64 120, i8* nonnull %7) #11
  ret void
}

; Function Attrs: nounwind ssp uwtable
define hidden zeroext i1 @_ZN7network5mojom50NetworkServiceTest_SetRequireCT_HandleSyncResponse6AcceptEPN4mojo7MessageE(%"class.network::mojom::NetworkServiceTest_SetRequireCT_HandleSyncResponse"* nocapture readonly, %"class.mojo::Message"*) unnamed_addr #0 align 2 {
  %3 = tail call i8* @_ZNK4mojo7Message7payloadEv(%"class.mojo::Message"* %1) #11
  %4 = getelementptr inbounds %"class.network::mojom::NetworkServiceTest_SetRequireCT_HandleSyncResponse", %"class.network::mojom::NetworkServiceTest_SetRequireCT_HandleSyncResponse"* %0, i64 0, i32 1
  %5 = load i8*, i8** %4, align 8
  store i8 1, i8* %5, align 1
  ret i1 true
}

; Function Attrs: nounwind ssp uwtable
define hidden zeroext i1 @_ZN7network5mojom68NetworkServiceTest_SetTransportSecurityStateSource_ForwardToCallback6AcceptEPN4mojo7MessageE(%"class.network::mojom::NetworkServiceTest_SetTransportSecurityStateSource_ForwardToCallback"* nocapture, %"class.mojo::Message"*) unnamed_addr #0 align 2 {
  %3 = alloca %"class.base::OnceCallback", align 8
  %4 = tail call i8* @_ZNK4mojo7Message7payloadEv(%"class.mojo::Message"* %1) #11
  %5 = getelementptr inbounds %"class.network::mojom::NetworkServiceTest_SetTransportSecurityStateSource_ForwardToCallback", %"class.network::mojom::NetworkServiceTest_SetTransportSecurityStateSource_ForwardToCallback"* %0, i64 0, i32 1, i32 0, i32 0, i32 0
  %6 = load %"class.base::internal::BindStateBase"*, %"class.base::internal::BindStateBase"** %5, align 8
  %7 = icmp eq %"class.base::internal::BindStateBase"* %6, null
  br i1 %7, label %16, label %8

8:                                                ; preds = %2
  %9 = ptrtoint %"class.base::internal::BindStateBase"* %6 to i64
  %10 = bitcast %"class.base::OnceCallback"* %3 to i8*
  call void @llvm.lifetime.start.p0i8(i64 8, i8* nonnull %10) #11
  %11 = bitcast %"class.base::OnceCallback"* %3 to i64*
  store i64 %9, i64* %11, align 8
  store %"class.base::internal::BindStateBase"* null, %"class.base::internal::BindStateBase"** %5, align 8
  %12 = getelementptr inbounds %"class.base::OnceCallback", %"class.base::OnceCallback"* %3, i64 0, i32 0
  %13 = getelementptr inbounds %"class.base::internal::BindStateBase", %"class.base::internal::BindStateBase"* %6, i64 0, i32 1
  %14 = bitcast void ()** %13 to void (%"class.base::internal::BindStateBase"*)**
  %15 = load void (%"class.base::internal::BindStateBase"*)*, void (%"class.base::internal::BindStateBase"*)** %14, align 8
  tail call void %15(%"class.base::internal::BindStateBase"* nonnull %6) #11
  call void @_ZN4base8internal12CallbackBaseD2Ev(%"class.base::internal::CallbackBase"* nonnull %12) #11
  call void @llvm.lifetime.end.p0i8(i64 8, i8* nonnull %10) #11
  br label %16

16:                                               ; preds = %2, %8
  ret i1 true
}

; Function Attrs: nounwind ssp uwtable
define hidden void @_ZN7network5mojom67NetworkServiceTest_SetTransportSecurityStateSource_ProxyToResponder3RunEv(%"class.network::mojom::NetworkServiceTest_SetTransportSecurityStateSource_ProxyToResponder"* nocapture) #0 align 2 {
  %2 = alloca %"class.mojo::Message", align 8
  %3 = getelementptr inbounds %"class.network::mojom::NetworkServiceTest_SetTransportSecurityStateSource_ProxyToResponder", %"class.network::mojom::NetworkServiceTest_SetTransportSecurityStateSource_ProxyToResponder"* %0, i64 0, i32 1
  %4 = load i8, i8* %3, align 8, !range !2
  %5 = icmp eq i8 %4, 0
  %6 = select i1 %5, i32 2, i32 6
  %7 = bitcast %"class.mojo::Message"* %2 to i8*
  call void @llvm.lifetime.start.p0i8(i64 120, i8* nonnull %7) #11
  call void @llvm.memset.p0i8.i64(i8* nonnull align 8 %7, i8 -86, i64 120, i1 false)
  call void @_ZN4mojo7MessageC1EjjmmPNSt3__16vectorINS_16ScopedHandleBaseINS_6HandleEEENS1_9allocatorIS5_EEEE(%"class.mojo::Message"* nonnull %2, i32 1633370188, i32 %6, i64 0, i64 0, %"class.std::__1::vector.11"* null) #11
  %8 = getelementptr inbounds %"class.mojo::Message", %"class.mojo::Message"* %2, i64 0, i32 1
  %9 = call i64 @_ZN4mojo8internal6Buffer8AllocateEm(%"class.mojo::internal::Buffer"* %8, i64 8) #11
  %10 = getelementptr inbounds %"class.mojo::Message", %"class.mojo::Message"* %2, i64 0, i32 1, i32 2
  %11 = load i8*, i8** %10, align 8
  %12 = getelementptr inbounds i8, i8* %11, i64 %9
  %13 = bitcast i8* %12 to %"class.network::mojom::internal::NetworkServiceTest_SetTransportSecurityStateSource_ResponseParams_Data"*
  call void @_ZN7network5mojom8internal70NetworkServiceTest_SetTransportSecurityStateSource_ResponseParams_DataC1Ev(%"class.network::mojom::internal::NetworkServiceTest_SetTransportSecurityStateSource_ResponseParams_Data"* %13) #11
  %14 = getelementptr inbounds %"class.network::mojom::NetworkServiceTest_SetTransportSecurityStateSource_ProxyToResponder", %"class.network::mojom::NetworkServiceTest_SetTransportSecurityStateSource_ProxyToResponder"* %0, i64 0, i32 0
  %15 = load i64, i64* %14, align 8
  %16 = bitcast i8** %10 to %"struct.mojo::internal::MessageHeaderV1"**
  %17 = load %"struct.mojo::internal::MessageHeaderV1"*, %"struct.mojo::internal::MessageHeaderV1"** %16, align 8
  %18 = getelementptr inbounds %"struct.mojo::internal::MessageHeaderV1", %"struct.mojo::internal::MessageHeaderV1"* %17, i64 0, i32 1
  store i64 %15, i64* %18, align 1
  %19 = getelementptr inbounds %"class.network::mojom::NetworkServiceTest_SetTransportSecurityStateSource_ProxyToResponder", %"class.network::mojom::NetworkServiceTest_SetTransportSecurityStateSource_ProxyToResponder"* %0, i64 0, i32 2, i32 0, i32 0, i32 0
  %20 = load %"class.mojo::MessageReceiverWithStatus"*, %"class.mojo::MessageReceiverWithStatus"** %19, align 8
  %21 = getelementptr inbounds %"class.mojo::MessageReceiverWithStatus", %"class.mojo::MessageReceiverWithStatus"* %20, i64 0, i32 0
  %22 = bitcast %"class.mojo::MessageReceiverWithStatus"* %20 to i1 (%"class.mojo::MessageReceiver"*, %"class.mojo::Message"*)***
  %23 = load i1 (%"class.mojo::MessageReceiver"*, %"class.mojo::Message"*)**, i1 (%"class.mojo::MessageReceiver"*, %"class.mojo::Message"*)*** %22, align 8
  %24 = getelementptr inbounds i1 (%"class.mojo::MessageReceiver"*, %"class.mojo::Message"*)*, i1 (%"class.mojo::MessageReceiver"*, %"class.mojo::Message"*)** %23, i64 3
  %25 = load i1 (%"class.mojo::MessageReceiver"*, %"class.mojo::Message"*)*, i1 (%"class.mojo::MessageReceiver"*, %"class.mojo::Message"*)** %24, align 8
  %26 = call zeroext i1 %25(%"class.mojo::MessageReceiver"* %21, %"class.mojo::Message"* nonnull %2) #11
  %27 = load %"class.mojo::MessageReceiverWithStatus"*, %"class.mojo::MessageReceiverWithStatus"** %19, align 8
  store %"class.mojo::MessageReceiverWithStatus"* null, %"class.mojo::MessageReceiverWithStatus"** %19, align 8
  %28 = icmp eq %"class.mojo::MessageReceiverWithStatus"* %27, null
  br i1 %28, label %34, label %29

29:                                               ; preds = %1
  %30 = bitcast %"class.mojo::MessageReceiverWithStatus"* %27 to void (%"class.mojo::MessageReceiverWithStatus"*)***
  %31 = load void (%"class.mojo::MessageReceiverWithStatus"*)**, void (%"class.mojo::MessageReceiverWithStatus"*)*** %30, align 8
  %32 = getelementptr inbounds void (%"class.mojo::MessageReceiverWithStatus"*)*, void (%"class.mojo::MessageReceiverWithStatus"*)** %31, i64 1
  %33 = load void (%"class.mojo::MessageReceiverWithStatus"*)*, void (%"class.mojo::MessageReceiverWithStatus"*)** %32, align 8
  call void %33(%"class.mojo::MessageReceiverWithStatus"* nonnull %27) #11
  br label %34

34:                                               ; preds = %1, %29
  call void @_ZN4mojo7MessageD1Ev(%"class.mojo::Message"* nonnull %2) #11
  call void @llvm.lifetime.end.p0i8(i64 120, i8* nonnull %7) #11
  ret void
}

; Function Attrs: nounwind ssp uwtable
define hidden zeroext i1 @_ZN7network5mojom69NetworkServiceTest_SetTransportSecurityStateSource_HandleSyncResponse6AcceptEPN4mojo7MessageE(%"class.network::mojom::NetworkServiceTest_SetTransportSecurityStateSource_HandleSyncResponse"* nocapture readonly, %"class.mojo::Message"*) unnamed_addr #0 align 2 {
  %3 = tail call i8* @_ZNK4mojo7Message7payloadEv(%"class.mojo::Message"* %1) #11
  %4 = getelementptr inbounds %"class.network::mojom::NetworkServiceTest_SetTransportSecurityStateSource_HandleSyncResponse", %"class.network::mojom::NetworkServiceTest_SetTransportSecurityStateSource_HandleSyncResponse"* %0, i64 0, i32 1
  %5 = load i8*, i8** %4, align 8
  store i8 1, i8* %5, align 1
  ret i1 true
}

; Function Attrs: nounwind ssp uwtable
define hidden zeroext i1 @_ZN7network5mojom75NetworkServiceTest_SetAllowNetworkAccessToHostResolutions_ForwardToCallback6AcceptEPN4mojo7MessageE(%"class.network::mojom::NetworkServiceTest_SetAllowNetworkAccessToHostResolutions_ForwardToCallback"* nocapture, %"class.mojo::Message"*) unnamed_addr #0 align 2 {
  %3 = alloca %"class.base::OnceCallback", align 8
  %4 = tail call i8* @_ZNK4mojo7Message7payloadEv(%"class.mojo::Message"* %1) #11
  %5 = getelementptr inbounds %"class.network::mojom::NetworkServiceTest_SetAllowNetworkAccessToHostResolutions_ForwardToCallback", %"class.network::mojom::NetworkServiceTest_SetAllowNetworkAccessToHostResolutions_ForwardToCallback"* %0, i64 0, i32 1, i32 0, i32 0, i32 0
  %6 = load %"class.base::internal::BindStateBase"*, %"class.base::internal::BindStateBase"** %5, align 8
  %7 = icmp eq %"class.base::internal::BindStateBase"* %6, null
  br i1 %7, label %16, label %8

8:                                                ; preds = %2
  %9 = ptrtoint %"class.base::internal::BindStateBase"* %6 to i64
  %10 = bitcast %"class.base::OnceCallback"* %3 to i8*
  call void @llvm.lifetime.start.p0i8(i64 8, i8* nonnull %10) #11
  %11 = bitcast %"class.base::OnceCallback"* %3 to i64*
  store i64 %9, i64* %11, align 8
  store %"class.base::internal::BindStateBase"* null, %"class.base::internal::BindStateBase"** %5, align 8
  %12 = getelementptr inbounds %"class.base::OnceCallback", %"class.base::OnceCallback"* %3, i64 0, i32 0
  %13 = getelementptr inbounds %"class.base::internal::BindStateBase", %"class.base::internal::BindStateBase"* %6, i64 0, i32 1
  %14 = bitcast void ()** %13 to void (%"class.base::internal::BindStateBase"*)**
  %15 = load void (%"class.base::internal::BindStateBase"*)*, void (%"class.base::internal::BindStateBase"*)** %14, align 8
  tail call void %15(%"class.base::internal::BindStateBase"* nonnull %6) #11
  call void @_ZN4base8internal12CallbackBaseD2Ev(%"class.base::internal::CallbackBase"* nonnull %12) #11
  call void @llvm.lifetime.end.p0i8(i64 8, i8* nonnull %10) #11
  br label %16

16:                                               ; preds = %2, %8
  ret i1 true
}

; Function Attrs: nounwind ssp uwtable
define hidden void @_ZN7network5mojom74NetworkServiceTest_SetAllowNetworkAccessToHostResolutions_ProxyToResponder3RunEv(%"class.network::mojom::NetworkServiceTest_SetAllowNetworkAccessToHostResolutions_ProxyToResponder"* nocapture) #0 align 2 {
  %2 = alloca %"class.mojo::Message", align 8
  %3 = getelementptr inbounds %"class.network::mojom::NetworkServiceTest_SetAllowNetworkAccessToHostResolutions_ProxyToResponder", %"class.network::mojom::NetworkServiceTest_SetAllowNetworkAccessToHostResolutions_ProxyToResponder"* %0, i64 0, i32 1
  %4 = load i8, i8* %3, align 8, !range !2
  %5 = icmp eq i8 %4, 0
  %6 = select i1 %5, i32 2, i32 6
  %7 = bitcast %"class.mojo::Message"* %2 to i8*
  call void @llvm.lifetime.start.p0i8(i64 120, i8* nonnull %7) #11
  call void @llvm.memset.p0i8.i64(i8* nonnull align 8 %7, i8 -86, i64 120, i1 false)
  call void @_ZN4mojo7MessageC1EjjmmPNSt3__16vectorINS_16ScopedHandleBaseINS_6HandleEEENS1_9allocatorIS5_EEEE(%"class.mojo::Message"* nonnull %2, i32 348381728, i32 %6, i64 0, i64 0, %"class.std::__1::vector.11"* null) #11
  %8 = getelementptr inbounds %"class.mojo::Message", %"class.mojo::Message"* %2, i64 0, i32 1
  %9 = call i64 @_ZN4mojo8internal6Buffer8AllocateEm(%"class.mojo::internal::Buffer"* %8, i64 8) #11
  %10 = getelementptr inbounds %"class.mojo::Message", %"class.mojo::Message"* %2, i64 0, i32 1, i32 2
  %11 = load i8*, i8** %10, align 8
  %12 = getelementptr inbounds i8, i8* %11, i64 %9
  %13 = bitcast i8* %12 to %"class.network::mojom::internal::NetworkServiceTest_SetAllowNetworkAccessToHostResolutions_ResponseParams_Data"*
  call void @_ZN7network5mojom8internal77NetworkServiceTest_SetAllowNetworkAccessToHostResolutions_ResponseParams_DataC1Ev(%"class.network::mojom::internal::NetworkServiceTest_SetAllowNetworkAccessToHostResolutions_ResponseParams_Data"* %13) #11
  %14 = getelementptr inbounds %"class.network::mojom::NetworkServiceTest_SetAllowNetworkAccessToHostResolutions_ProxyToResponder", %"class.network::mojom::NetworkServiceTest_SetAllowNetworkAccessToHostResolutions_ProxyToResponder"* %0, i64 0, i32 0
  %15 = load i64, i64* %14, align 8
  %16 = bitcast i8** %10 to %"struct.mojo::internal::MessageHeaderV1"**
  %17 = load %"struct.mojo::internal::MessageHeaderV1"*, %"struct.mojo::internal::MessageHeaderV1"** %16, align 8
  %18 = getelementptr inbounds %"struct.mojo::internal::MessageHeaderV1", %"struct.mojo::internal::MessageHeaderV1"* %17, i64 0, i32 1
  store i64 %15, i64* %18, align 1
  %19 = getelementptr inbounds %"class.network::mojom::NetworkServiceTest_SetAllowNetworkAccessToHostResolutions_ProxyToResponder", %"class.network::mojom::NetworkServiceTest_SetAllowNetworkAccessToHostResolutions_ProxyToResponder"* %0, i64 0, i32 2, i32 0, i32 0, i32 0
  %20 = load %"class.mojo::MessageReceiverWithStatus"*, %"class.mojo::MessageReceiverWithStatus"** %19, align 8
  %21 = getelementptr inbounds %"class.mojo::MessageReceiverWithStatus", %"class.mojo::MessageReceiverWithStatus"* %20, i64 0, i32 0
  %22 = bitcast %"class.mojo::MessageReceiverWithStatus"* %20 to i1 (%"class.mojo::MessageReceiver"*, %"class.mojo::Message"*)***
  %23 = load i1 (%"class.mojo::MessageReceiver"*, %"class.mojo::Message"*)**, i1 (%"class.mojo::MessageReceiver"*, %"class.mojo::Message"*)*** %22, align 8
  %24 = getelementptr inbounds i1 (%"class.mojo::MessageReceiver"*, %"class.mojo::Message"*)*, i1 (%"class.mojo::MessageReceiver"*, %"class.mojo::Message"*)** %23, i64 3
  %25 = load i1 (%"class.mojo::MessageReceiver"*, %"class.mojo::Message"*)*, i1 (%"class.mojo::MessageReceiver"*, %"class.mojo::Message"*)** %24, align 8
  %26 = call zeroext i1 %25(%"class.mojo::MessageReceiver"* %21, %"class.mojo::Message"* nonnull %2) #11
  %27 = load %"class.mojo::MessageReceiverWithStatus"*, %"class.mojo::MessageReceiverWithStatus"** %19, align 8
  store %"class.mojo::MessageReceiverWithStatus"* null, %"class.mojo::MessageReceiverWithStatus"** %19, align 8
  %28 = icmp eq %"class.mojo::MessageReceiverWithStatus"* %27, null
  br i1 %28, label %34, label %29

29:                                               ; preds = %1
  %30 = bitcast %"class.mojo::MessageReceiverWithStatus"* %27 to void (%"class.mojo::MessageReceiverWithStatus"*)***
  %31 = load void (%"class.mojo::MessageReceiverWithStatus"*)**, void (%"class.mojo::MessageReceiverWithStatus"*)*** %30, align 8
  %32 = getelementptr inbounds void (%"class.mojo::MessageReceiverWithStatus"*)*, void (%"class.mojo::MessageReceiverWithStatus"*)** %31, i64 1
  %33 = load void (%"class.mojo::MessageReceiverWithStatus"*)*, void (%"class.mojo::MessageReceiverWithStatus"*)** %32, align 8
  call void %33(%"class.mojo::MessageReceiverWithStatus"* nonnull %27) #11
  br label %34

34:                                               ; preds = %1, %29
  call void @_ZN4mojo7MessageD1Ev(%"class.mojo::Message"* nonnull %2) #11
  call void @llvm.lifetime.end.p0i8(i64 120, i8* nonnull %7) #11
  ret void
}

; Function Attrs: nounwind ssp uwtable
define hidden zeroext i1 @_ZN7network5mojom76NetworkServiceTest_SetAllowNetworkAccessToHostResolutions_HandleSyncResponse6AcceptEPN4mojo7MessageE(%"class.network::mojom::NetworkServiceTest_SetAllowNetworkAccessToHostResolutions_HandleSyncResponse"* nocapture readonly, %"class.mojo::Message"*) unnamed_addr #0 align 2 {
  %3 = tail call i8* @_ZNK4mojo7Message7payloadEv(%"class.mojo::Message"* %1) #11
  %4 = getelementptr inbounds %"class.network::mojom::NetworkServiceTest_SetAllowNetworkAccessToHostResolutions_HandleSyncResponse", %"class.network::mojom::NetworkServiceTest_SetAllowNetworkAccessToHostResolutions_HandleSyncResponse"* %0, i64 0, i32 1
  %5 = load i8*, i8** %4, align 8
  store i8 1, i8* %5, align 1
  ret i1 true
}

; Function Attrs: nounwind ssp uwtable
define hidden zeroext i1 @_ZN7network5mojom65NetworkServiceTest_GetLatestMemoryPressureLevel_ForwardToCallback6AcceptEPN4mojo7MessageE(%"class.network::mojom::NetworkServiceTest_GetLatestMemoryPressureLevel_ForwardToCallback"* nocapture, %"class.mojo::Message"*) unnamed_addr #0 align 2 {
  %3 = alloca %"class.base::OnceCallback.117", align 8
  %4 = alloca i32, align 4
  %5 = tail call i8* @_ZNK4mojo7Message7payloadEv(%"class.mojo::Message"* %1) #11
  %6 = bitcast i32* %4 to i8*
  call void @llvm.lifetime.start.p0i8(i64 4, i8* nonnull %6) #11
  store i32 0, i32* %4, align 4
  %7 = getelementptr inbounds i8, i8* %5, i64 8
  %8 = bitcast i8* %7 to i32*
  %9 = load i32, i32* %8, align 4
  %10 = call zeroext i1 @_ZN4mojo10EnumTraitsIN9mojo_base5mojom19MemoryPressureLevelEN4base22MemoryPressureListener19MemoryPressureLevelEE9FromMojomES3_PS6_(i32 %9, i32* nonnull %4) #11
  br i1 %10, label %12, label %11

11:                                               ; preds = %2
  call void @_ZN4mojo8internal31ReportValidationErrorForMessageEPNS_7MessageENS0_15ValidationErrorEPKcjb(%"class.mojo::Message"* %1, i32 17, i8* getelementptr inbounds ([33 x i8], [33 x i8]* @_ZN7network5mojom18NetworkServiceTest5Name_E, i64 0, i64 0), i32 11, i1 zeroext true) #11
  br label %25

12:                                               ; preds = %2
  %13 = getelementptr inbounds %"class.network::mojom::NetworkServiceTest_GetLatestMemoryPressureLevel_ForwardToCallback", %"class.network::mojom::NetworkServiceTest_GetLatestMemoryPressureLevel_ForwardToCallback"* %0, i64 0, i32 1, i32 0, i32 0, i32 0
  %14 = load %"class.base::internal::BindStateBase"*, %"class.base::internal::BindStateBase"** %13, align 8
  %15 = icmp eq %"class.base::internal::BindStateBase"* %14, null
  br i1 %15, label %25, label %16

16:                                               ; preds = %12
  %17 = ptrtoint %"class.base::internal::BindStateBase"* %14 to i64
  %18 = load i32, i32* %4, align 4
  %19 = bitcast %"class.base::OnceCallback.117"* %3 to i8*
  call void @llvm.lifetime.start.p0i8(i64 8, i8* nonnull %19) #11
  %20 = bitcast %"class.base::OnceCallback.117"* %3 to i64*
  store i64 %17, i64* %20, align 8
  store %"class.base::internal::BindStateBase"* null, %"class.base::internal::BindStateBase"** %13, align 8
  %21 = getelementptr inbounds %"class.base::OnceCallback.117", %"class.base::OnceCallback.117"* %3, i64 0, i32 0
  %22 = getelementptr inbounds %"class.base::internal::BindStateBase", %"class.base::internal::BindStateBase"* %14, i64 0, i32 1
  %23 = bitcast void ()** %22 to void (%"class.base::internal::BindStateBase"*, i32)**
  %24 = load void (%"class.base::internal::BindStateBase"*, i32)*, void (%"class.base::internal::BindStateBase"*, i32)** %23, align 8
  call void %24(%"class.base::internal::BindStateBase"* nonnull %14, i32 %18) #11
  call void @_ZN4base8internal12CallbackBaseD2Ev(%"class.base::internal::CallbackBase"* nonnull %21) #11
  call void @llvm.lifetime.end.p0i8(i64 8, i8* nonnull %19) #11
  br label %25

25:                                               ; preds = %12, %16, %11
  %26 = phi i1 [ false, %11 ], [ true, %16 ], [ true, %12 ]
  call void @llvm.lifetime.end.p0i8(i64 4, i8* nonnull %6) #11
  ret i1 %26
}

; Function Attrs: nounwind ssp uwtable
define hidden void @_ZN7network5mojom64NetworkServiceTest_GetLatestMemoryPressureLevel_ProxyToResponder3RunEN4base22MemoryPressureListener19MemoryPressureLevelE(%"class.network::mojom::NetworkServiceTest_GetLatestMemoryPressureLevel_ProxyToResponder"* nocapture, i32) #0 align 2 {
  %3 = alloca %"class.mojo::Message", align 8
  %4 = getelementptr inbounds %"class.network::mojom::NetworkServiceTest_GetLatestMemoryPressureLevel_ProxyToResponder", %"class.network::mojom::NetworkServiceTest_GetLatestMemoryPressureLevel_ProxyToResponder"* %0, i64 0, i32 1
  %5 = load i8, i8* %4, align 8, !range !2
  %6 = icmp eq i8 %5, 0
  %7 = select i1 %6, i32 2, i32 6
  %8 = bitcast %"class.mojo::Message"* %3 to i8*
  call void @llvm.lifetime.start.p0i8(i64 120, i8* nonnull %8) #11
  call void @llvm.memset.p0i8.i64(i8* nonnull align 8 %8, i8 -86, i64 120, i1 false)
  call void @_ZN4mojo7MessageC1EjjmmPNSt3__16vectorINS_16ScopedHandleBaseINS_6HandleEEENS1_9allocatorIS5_EEEE(%"class.mojo::Message"* nonnull %3, i32 1911011900, i32 %7, i64 0, i64 0, %"class.std::__1::vector.11"* null) #11
  %9 = getelementptr inbounds %"class.mojo::Message", %"class.mojo::Message"* %3, i64 0, i32 1
  %10 = call i64 @_ZN4mojo8internal6Buffer8AllocateEm(%"class.mojo::internal::Buffer"* %9, i64 16) #11
  %11 = getelementptr inbounds %"class.mojo::Message", %"class.mojo::Message"* %3, i64 0, i32 1, i32 2
  %12 = load i8*, i8** %11, align 8
  %13 = getelementptr inbounds i8, i8* %12, i64 %10
  %14 = bitcast i8* %13 to %"class.network::mojom::internal::NetworkServiceTest_GetLatestMemoryPressureLevel_ResponseParams_Data"*
  call void @_ZN7network5mojom8internal67NetworkServiceTest_GetLatestMemoryPressureLevel_ResponseParams_DataC1Ev(%"class.network::mojom::internal::NetworkServiceTest_GetLatestMemoryPressureLevel_ResponseParams_Data"* %14) #11
  %15 = load i8*, i8** %11, align 8
  %16 = getelementptr inbounds i8, i8* %15, i64 %10
  %17 = getelementptr inbounds i8, i8* %16, i64 8
  %18 = bitcast i8* %17 to i32*
  %19 = call i32 @_ZN4mojo10EnumTraitsIN9mojo_base5mojom19MemoryPressureLevelEN4base22MemoryPressureListener19MemoryPressureLevelEE7ToMojomES6_(i32 %1) #11
  store i32 %19, i32* %18, align 4
  %20 = getelementptr inbounds %"class.network::mojom::NetworkServiceTest_GetLatestMemoryPressureLevel_ProxyToResponder", %"class.network::mojom::NetworkServiceTest_GetLatestMemoryPressureLevel_ProxyToResponder"* %0, i64 0, i32 0
  %21 = load i64, i64* %20, align 8
  %22 = bitcast i8** %11 to %"struct.mojo::internal::MessageHeaderV1"**
  %23 = load %"struct.mojo::internal::MessageHeaderV1"*, %"struct.mojo::internal::MessageHeaderV1"** %22, align 8
  %24 = getelementptr inbounds %"struct.mojo::internal::MessageHeaderV1", %"struct.mojo::internal::MessageHeaderV1"* %23, i64 0, i32 1
  store i64 %21, i64* %24, align 1
  %25 = getelementptr inbounds %"class.network::mojom::NetworkServiceTest_GetLatestMemoryPressureLevel_ProxyToResponder", %"class.network::mojom::NetworkServiceTest_GetLatestMemoryPressureLevel_ProxyToResponder"* %0, i64 0, i32 2, i32 0, i32 0, i32 0
  %26 = load %"class.mojo::MessageReceiverWithStatus"*, %"class.mojo::MessageReceiverWithStatus"** %25, align 8
  %27 = getelementptr inbounds %"class.mojo::MessageReceiverWithStatus", %"class.mojo::MessageReceiverWithStatus"* %26, i64 0, i32 0
  %28 = bitcast %"class.mojo::MessageReceiverWithStatus"* %26 to i1 (%"class.mojo::MessageReceiver"*, %"class.mojo::Message"*)***
  %29 = load i1 (%"class.mojo::MessageReceiver"*, %"class.mojo::Message"*)**, i1 (%"class.mojo::MessageReceiver"*, %"class.mojo::Message"*)*** %28, align 8
  %30 = getelementptr inbounds i1 (%"class.mojo::MessageReceiver"*, %"class.mojo::Message"*)*, i1 (%"class.mojo::MessageReceiver"*, %"class.mojo::Message"*)** %29, i64 3
  %31 = load i1 (%"class.mojo::MessageReceiver"*, %"class.mojo::Message"*)*, i1 (%"class.mojo::MessageReceiver"*, %"class.mojo::Message"*)** %30, align 8
  %32 = call zeroext i1 %31(%"class.mojo::MessageReceiver"* %27, %"class.mojo::Message"* nonnull %3) #11
  %33 = load %"class.mojo::MessageReceiverWithStatus"*, %"class.mojo::MessageReceiverWithStatus"** %25, align 8
  store %"class.mojo::MessageReceiverWithStatus"* null, %"class.mojo::MessageReceiverWithStatus"** %25, align 8
  %34 = icmp eq %"class.mojo::MessageReceiverWithStatus"* %33, null
  br i1 %34, label %40, label %35

35:                                               ; preds = %2
  %36 = bitcast %"class.mojo::MessageReceiverWithStatus"* %33 to void (%"class.mojo::MessageReceiverWithStatus"*)***
  %37 = load void (%"class.mojo::MessageReceiverWithStatus"*)**, void (%"class.mojo::MessageReceiverWithStatus"*)*** %36, align 8
  %38 = getelementptr inbounds void (%"class.mojo::MessageReceiverWithStatus"*)*, void (%"class.mojo::MessageReceiverWithStatus"*)** %37, i64 1
  %39 = load void (%"class.mojo::MessageReceiverWithStatus"*)*, void (%"class.mojo::MessageReceiverWithStatus"*)** %38, align 8
  call void %39(%"class.mojo::MessageReceiverWithStatus"* nonnull %33) #11
  br label %40

40:                                               ; preds = %2, %35
  call void @_ZN4mojo7MessageD1Ev(%"class.mojo::Message"* nonnull %3) #11
  call void @llvm.lifetime.end.p0i8(i64 120, i8* nonnull %8) #11
  ret void
}

; Function Attrs: nounwind ssp uwtable
define hidden zeroext i1 @_ZN7network5mojom66NetworkServiceTest_GetLatestMemoryPressureLevel_HandleSyncResponse6AcceptEPN4mojo7MessageE(%"class.network::mojom::NetworkServiceTest_GetLatestMemoryPressureLevel_HandleSyncResponse"* nocapture readonly, %"class.mojo::Message"*) unnamed_addr #0 align 2 {
  %3 = alloca i32, align 4
  %4 = tail call i8* @_ZNK4mojo7Message7payloadEv(%"class.mojo::Message"* %1) #11
  %5 = bitcast i32* %3 to i8*
  call void @llvm.lifetime.start.p0i8(i64 4, i8* nonnull %5) #11
  store i32 0, i32* %3, align 4
  %6 = getelementptr inbounds i8, i8* %4, i64 8
  %7 = bitcast i8* %6 to i32*
  %8 = load i32, i32* %7, align 4
  %9 = call zeroext i1 @_ZN4mojo10EnumTraitsIN9mojo_base5mojom19MemoryPressureLevelEN4base22MemoryPressureListener19MemoryPressureLevelEE9FromMojomES3_PS6_(i32 %8, i32* nonnull %3) #11
  br i1 %9, label %11, label %10

10:                                               ; preds = %2
  call void @_ZN4mojo8internal31ReportValidationErrorForMessageEPNS_7MessageENS0_15ValidationErrorEPKcjb(%"class.mojo::Message"* %1, i32 17, i8* getelementptr inbounds ([33 x i8], [33 x i8]* @_ZN7network5mojom18NetworkServiceTest5Name_E, i64 0, i64 0), i32 11, i1 zeroext true) #11
  br label %17

11:                                               ; preds = %2
  %12 = load i32, i32* %3, align 4
  %13 = getelementptr inbounds %"class.network::mojom::NetworkServiceTest_GetLatestMemoryPressureLevel_HandleSyncResponse", %"class.network::mojom::NetworkServiceTest_GetLatestMemoryPressureLevel_HandleSyncResponse"* %0, i64 0, i32 2
  %14 = load i32*, i32** %13, align 8
  store i32 %12, i32* %14, align 4
  %15 = getelementptr inbounds %"class.network::mojom::NetworkServiceTest_GetLatestMemoryPressureLevel_HandleSyncResponse", %"class.network::mojom::NetworkServiceTest_GetLatestMemoryPressureLevel_HandleSyncResponse"* %0, i64 0, i32 1
  %16 = load i8*, i8** %15, align 8
  store i8 1, i8* %16, align 1
  br label %17

17:                                               ; preds = %11, %10
  %18 = phi i1 [ true, %11 ], [ false, %10 ]
  call void @llvm.lifetime.end.p0i8(i64 4, i8* nonnull %5) #11
  ret i1 %18
}

; Function Attrs: nounwind ssp uwtable
define hidden zeroext i1 @_ZN7network5mojom72NetworkServiceTest_GetPeerToPeerConnectionsCountChange_ForwardToCallback6AcceptEPN4mojo7MessageE(%"class.network::mojom::NetworkServiceTest_GetPeerToPeerConnectionsCountChange_ForwardToCallback"* nocapture, %"class.mojo::Message"*) unnamed_addr #0 align 2 {
  %3 = alloca %"class.base::OnceCallback.119", align 8
  %4 = tail call i8* @_ZNK4mojo7Message7payloadEv(%"class.mojo::Message"* %1) #11
  %5 = getelementptr inbounds %"class.network::mojom::NetworkServiceTest_GetPeerToPeerConnectionsCountChange_ForwardToCallback", %"class.network::mojom::NetworkServiceTest_GetPeerToPeerConnectionsCountChange_ForwardToCallback"* %0, i64 0, i32 1, i32 0, i32 0, i32 0
  %6 = load %"class.base::internal::BindStateBase"*, %"class.base::internal::BindStateBase"** %5, align 8
  %7 = icmp eq %"class.base::internal::BindStateBase"* %6, null
  br i1 %7, label %19, label %8

8:                                                ; preds = %2
  %9 = ptrtoint %"class.base::internal::BindStateBase"* %6 to i64
  %10 = getelementptr inbounds i8, i8* %4, i64 8
  %11 = bitcast i8* %10 to i32*
  %12 = load i32, i32* %11, align 4
  %13 = bitcast %"class.base::OnceCallback.119"* %3 to i8*
  call void @llvm.lifetime.start.p0i8(i64 8, i8* nonnull %13) #11
  %14 = bitcast %"class.base::OnceCallback.119"* %3 to i64*
  store i64 %9, i64* %14, align 8
  store %"class.base::internal::BindStateBase"* null, %"class.base::internal::BindStateBase"** %5, align 8
  %15 = getelementptr inbounds %"class.base::OnceCallback.119", %"class.base::OnceCallback.119"* %3, i64 0, i32 0
  %16 = getelementptr inbounds %"class.base::internal::BindStateBase", %"class.base::internal::BindStateBase"* %6, i64 0, i32 1
  %17 = bitcast void ()** %16 to void (%"class.base::internal::BindStateBase"*, i32)**
  %18 = load void (%"class.base::internal::BindStateBase"*, i32)*, void (%"class.base::internal::BindStateBase"*, i32)** %17, align 8
  tail call void %18(%"class.base::internal::BindStateBase"* nonnull %6, i32 %12) #11
  call void @_ZN4base8internal12CallbackBaseD2Ev(%"class.base::internal::CallbackBase"* nonnull %15) #11
  call void @llvm.lifetime.end.p0i8(i64 8, i8* nonnull %13) #11
  br label %19

19:                                               ; preds = %2, %8
  ret i1 true
}

; Function Attrs: nounwind ssp uwtable
define hidden void @_ZN7network5mojom71NetworkServiceTest_GetPeerToPeerConnectionsCountChange_ProxyToResponder3RunEj(%"class.network::mojom::NetworkServiceTest_GetPeerToPeerConnectionsCountChange_ProxyToResponder"* nocapture, i32) #0 align 2 {
  %3 = alloca %"class.mojo::Message", align 8
  %4 = getelementptr inbounds %"class.network::mojom::NetworkServiceTest_GetPeerToPeerConnectionsCountChange_ProxyToResponder", %"class.network::mojom::NetworkServiceTest_GetPeerToPeerConnectionsCountChange_ProxyToResponder"* %0, i64 0, i32 1
  %5 = load i8, i8* %4, align 8, !range !2
  %6 = icmp eq i8 %5, 0
  %7 = select i1 %6, i32 2, i32 6
  %8 = bitcast %"class.mojo::Message"* %3 to i8*
  call void @llvm.lifetime.start.p0i8(i64 120, i8* nonnull %8) #11
  call void @llvm.memset.p0i8.i64(i8* nonnull align 8 %8, i8 -86, i64 120, i1 false)
  call void @_ZN4mojo7MessageC1EjjmmPNSt3__16vectorINS_16ScopedHandleBaseINS_6HandleEEENS1_9allocatorIS5_EEEE(%"class.mojo::Message"* nonnull %3, i32 2111883237, i32 %7, i64 0, i64 0, %"class.std::__1::vector.11"* null) #11
  %9 = getelementptr inbounds %"class.mojo::Message", %"class.mojo::Message"* %3, i64 0, i32 1
  %10 = call i64 @_ZN4mojo8internal6Buffer8AllocateEm(%"class.mojo::internal::Buffer"* %9, i64 16) #11
  %11 = getelementptr inbounds %"class.mojo::Message", %"class.mojo::Message"* %3, i64 0, i32 1, i32 2
  %12 = load i8*, i8** %11, align 8
  %13 = getelementptr inbounds i8, i8* %12, i64 %10
  %14 = bitcast i8* %13 to %"class.network::mojom::internal::NetworkServiceTest_GetPeerToPeerConnectionsCountChange_ResponseParams_Data"*
  call void @_ZN7network5mojom8internal74NetworkServiceTest_GetPeerToPeerConnectionsCountChange_ResponseParams_DataC1Ev(%"class.network::mojom::internal::NetworkServiceTest_GetPeerToPeerConnectionsCountChange_ResponseParams_Data"* %14) #11
  %15 = load i8*, i8** %11, align 8
  %16 = getelementptr inbounds i8, i8* %15, i64 %10
  %17 = getelementptr inbounds i8, i8* %16, i64 8
  %18 = bitcast i8* %17 to i32*
  store i32 %1, i32* %18, align 4
  %19 = getelementptr inbounds %"class.network::mojom::NetworkServiceTest_GetPeerToPeerConnectionsCountChange_ProxyToResponder", %"class.network::mojom::NetworkServiceTest_GetPeerToPeerConnectionsCountChange_ProxyToResponder"* %0, i64 0, i32 0
  %20 = load i64, i64* %19, align 8
  %21 = bitcast i8** %11 to %"struct.mojo::internal::MessageHeaderV1"**
  %22 = load %"struct.mojo::internal::MessageHeaderV1"*, %"struct.mojo::internal::MessageHeaderV1"** %21, align 8
  %23 = getelementptr inbounds %"struct.mojo::internal::MessageHeaderV1", %"struct.mojo::internal::MessageHeaderV1"* %22, i64 0, i32 1
  store i64 %20, i64* %23, align 1
  %24 = getelementptr inbounds %"class.network::mojom::NetworkServiceTest_GetPeerToPeerConnectionsCountChange_ProxyToResponder", %"class.network::mojom::NetworkServiceTest_GetPeerToPeerConnectionsCountChange_ProxyToResponder"* %0, i64 0, i32 2, i32 0, i32 0, i32 0
  %25 = load %"class.mojo::MessageReceiverWithStatus"*, %"class.mojo::MessageReceiverWithStatus"** %24, align 8
  %26 = getelementptr inbounds %"class.mojo::MessageReceiverWithStatus", %"class.mojo::MessageReceiverWithStatus"* %25, i64 0, i32 0
  %27 = bitcast %"class.mojo::MessageReceiverWithStatus"* %25 to i1 (%"class.mojo::MessageReceiver"*, %"class.mojo::Message"*)***
  %28 = load i1 (%"class.mojo::MessageReceiver"*, %"class.mojo::Message"*)**, i1 (%"class.mojo::MessageReceiver"*, %"class.mojo::Message"*)*** %27, align 8
  %29 = getelementptr inbounds i1 (%"class.mojo::MessageReceiver"*, %"class.mojo::Message"*)*, i1 (%"class.mojo::MessageReceiver"*, %"class.mojo::Message"*)** %28, i64 3
  %30 = load i1 (%"class.mojo::MessageReceiver"*, %"class.mojo::Message"*)*, i1 (%"class.mojo::MessageReceiver"*, %"class.mojo::Message"*)** %29, align 8
  %31 = call zeroext i1 %30(%"class.mojo::MessageReceiver"* %26, %"class.mojo::Message"* nonnull %3) #11
  %32 = load %"class.mojo::MessageReceiverWithStatus"*, %"class.mojo::MessageReceiverWithStatus"** %24, align 8
  store %"class.mojo::MessageReceiverWithStatus"* null, %"class.mojo::MessageReceiverWithStatus"** %24, align 8
  %33 = icmp eq %"class.mojo::MessageReceiverWithStatus"* %32, null
  br i1 %33, label %39, label %34

34:                                               ; preds = %2
  %35 = bitcast %"class.mojo::MessageReceiverWithStatus"* %32 to void (%"class.mojo::MessageReceiverWithStatus"*)***
  %36 = load void (%"class.mojo::MessageReceiverWithStatus"*)**, void (%"class.mojo::MessageReceiverWithStatus"*)*** %35, align 8
  %37 = getelementptr inbounds void (%"class.mojo::MessageReceiverWithStatus"*)*, void (%"class.mojo::MessageReceiverWithStatus"*)** %36, i64 1
  %38 = load void (%"class.mojo::MessageReceiverWithStatus"*)*, void (%"class.mojo::MessageReceiverWithStatus"*)** %37, align 8
  call void %38(%"class.mojo::MessageReceiverWithStatus"* nonnull %32) #11
  br label %39

39:                                               ; preds = %2, %34
  call void @_ZN4mojo7MessageD1Ev(%"class.mojo::Message"* nonnull %3) #11
  call void @llvm.lifetime.end.p0i8(i64 120, i8* nonnull %8) #11
  ret void
}

; Function Attrs: nounwind ssp uwtable
define hidden zeroext i1 @_ZN7network5mojom73NetworkServiceTest_GetPeerToPeerConnectionsCountChange_HandleSyncResponse6AcceptEPN4mojo7MessageE(%"class.network::mojom::NetworkServiceTest_GetPeerToPeerConnectionsCountChange_HandleSyncResponse"* nocapture readonly, %"class.mojo::Message"*) unnamed_addr #0 align 2 {
  %3 = tail call i8* @_ZNK4mojo7Message7payloadEv(%"class.mojo::Message"* %1) #11
  %4 = getelementptr inbounds i8, i8* %3, i64 8
  %5 = bitcast i8* %4 to i32*
  %6 = load i32, i32* %5, align 4
  %7 = getelementptr inbounds %"class.network::mojom::NetworkServiceTest_GetPeerToPeerConnectionsCountChange_HandleSyncResponse", %"class.network::mojom::NetworkServiceTest_GetPeerToPeerConnectionsCountChange_HandleSyncResponse"* %0, i64 0, i32 2
  %8 = load i32*, i32** %7, align 8
  store i32 %6, i32* %8, align 4
  %9 = getelementptr inbounds %"class.network::mojom::NetworkServiceTest_GetPeerToPeerConnectionsCountChange_HandleSyncResponse", %"class.network::mojom::NetworkServiceTest_GetPeerToPeerConnectionsCountChange_HandleSyncResponse"* %0, i64 0, i32 1
  %10 = load i8*, i8** %9, align 8
  store i8 1, i8* %10, align 1
  ret i1 true
}

; Function Attrs: nounwind ssp uwtable
define hidden zeroext i1 @_ZN7network5mojom64NetworkServiceTest_GetEnvironmentVariableValue_ForwardToCallback6AcceptEPN4mojo7MessageE(%"class.network::mojom::NetworkServiceTest_GetEnvironmentVariableValue_ForwardToCallback"* nocapture, %"class.mojo::Message"*) unnamed_addr #0 align 2 {
  %3 = alloca %"class.base::OnceCallback.121", align 8
  %4 = alloca %"class.std::__1::basic_string", align 8
  %5 = tail call i8* @_ZNK4mojo7Message7payloadEv(%"class.mojo::Message"* %1) #11
  %6 = bitcast %"class.std::__1::basic_string"* %4 to i8*
  call void @llvm.lifetime.start.p0i8(i64 24, i8* nonnull %6) #11
  %7 = getelementptr inbounds %"class.std::__1::basic_string", %"class.std::__1::basic_string"* %4, i64 0, i32 0, i32 0, i32 0, i32 0, i32 0, i32 0
  %8 = getelementptr inbounds %"class.std::__1::basic_string", %"class.std::__1::basic_string"* %4, i64 0, i32 0, i32 0, i32 0, i32 0, i32 0, i32 1
  call void @llvm.memset.p0i8.i64(i8* nonnull align 8 %6, i8 0, i64 24, i1 false) #11
  %9 = getelementptr inbounds i8, i8* %5, i64 8
  %10 = bitcast i8* %9 to i64*
  %11 = load i64, i64* %10, align 8
  %12 = icmp eq i64 %11, 0
  %13 = getelementptr inbounds i8, i8* %9, i64 %11
  br i1 %12, label %46, label %14

14:                                               ; preds = %2
  %15 = getelementptr inbounds i8, i8* %13, i64 8
  %16 = getelementptr inbounds i8, i8* %13, i64 4
  %17 = bitcast i8* %16 to i32*
  %18 = load i32, i32* %17, align 1
  %19 = zext i32 %18 to i64
  %20 = tail call i1 @llvm.is.constant.i64(i64 %19) #11
  %21 = icmp ult i32 %18, 23
  %22 = and i1 %21, %20
  br i1 %22, label %23, label %31

23:                                               ; preds = %14
  %24 = bitcast %"class.std::__1::basic_string"* %4 to %"struct.std::__1::basic_string<char, std::__1::char_traits<char>, std::__1::allocator<char> >::__short"*
  %25 = getelementptr inbounds %"struct.std::__1::basic_string<char, std::__1::char_traits<char>, std::__1::allocator<char> >::__short", %"struct.std::__1::basic_string<char, std::__1::char_traits<char>, std::__1::allocator<char> >::__short"* %24, i64 0, i32 1, i32 0
  %26 = trunc i32 %18 to i8
  store i8 %26, i8* %25, align 1
  %27 = icmp eq i32 %18, 0
  br i1 %27, label %29, label %28

28:                                               ; preds = %23
  call void @llvm.memmove.p0i8.p0i8.i64(i8* nonnull align 8 %6, i8* align 1 %15, i64 %19, i1 false) #11
  br label %29

29:                                               ; preds = %28, %23
  %30 = getelementptr inbounds i8, i8* %6, i64 %19
  store i8 0, i8* %30, align 1
  br label %34

31:                                               ; preds = %14
  %32 = call dereferenceable(24) %"class.std::__1::basic_string"* @_ZNSt3__112basic_stringIcNS_11char_traitsIcEENS_9allocatorIcEEE17__assign_externalEPKcm(%"class.std::__1::basic_string"* nonnull %4, i8* %15, i64 %19) #11
  %33 = bitcast %"class.std::__1::basic_string"* %4 to %"struct.std::__1::basic_string<char, std::__1::char_traits<char>, std::__1::allocator<char> >::__short"*
  br label %34

34:                                               ; preds = %31, %29
  %35 = phi %"struct.std::__1::basic_string<char, std::__1::char_traits<char>, std::__1::allocator<char> >::__short"* [ %33, %31 ], [ %24, %29 ]
  %36 = getelementptr inbounds %"struct.std::__1::basic_string<char, std::__1::char_traits<char>, std::__1::allocator<char> >::__short", %"struct.std::__1::basic_string<char, std::__1::char_traits<char>, std::__1::allocator<char> >::__short"* %35, i64 0, i32 1, i32 0
  %37 = load i8, i8* %36, align 1
  %38 = icmp slt i8 %37, 0
  %39 = load i8*, i8** %7, align 8
  %40 = select i1 %38, i8* %39, i8* %6
  %41 = load i64, i64* %8, align 8
  %42 = zext i8 %37 to i64
  %43 = select i1 %38, i64 %41, i64 %42
  %44 = call zeroext i1 @_ZN4base12IsStringUTF8ENS_16BasicStringPieceIcNSt3__111char_traitsIcEEEE(i8* %40, i64 %43) #11
  br i1 %44, label %46, label %45

45:                                               ; preds = %34
  call void @_ZN4mojo8internal34RecordInvalidStringDeserializationEv() #11
  br label %46

46:                                               ; preds = %45, %34, %2
  %47 = getelementptr inbounds %"class.network::mojom::NetworkServiceTest_GetEnvironmentVariableValue_ForwardToCallback", %"class.network::mojom::NetworkServiceTest_GetEnvironmentVariableValue_ForwardToCallback"* %0, i64 0, i32 1, i32 0, i32 0, i32 0
  %48 = load %"class.base::internal::BindStateBase"*, %"class.base::internal::BindStateBase"** %47, align 8
  %49 = icmp eq %"class.base::internal::BindStateBase"* %48, null
  br i1 %49, label %58, label %50

50:                                               ; preds = %46
  %51 = ptrtoint %"class.base::internal::BindStateBase"* %48 to i64
  %52 = bitcast %"class.base::OnceCallback.121"* %3 to i8*
  call void @llvm.lifetime.start.p0i8(i64 8, i8* nonnull %52) #11
  %53 = bitcast %"class.base::OnceCallback.121"* %3 to i64*
  store i64 %51, i64* %53, align 8
  store %"class.base::internal::BindStateBase"* null, %"class.base::internal::BindStateBase"** %47, align 8
  %54 = getelementptr inbounds %"class.base::OnceCallback.121", %"class.base::OnceCallback.121"* %3, i64 0, i32 0
  %55 = getelementptr inbounds %"class.base::internal::BindStateBase", %"class.base::internal::BindStateBase"* %48, i64 0, i32 1
  %56 = bitcast void ()** %55 to void (%"class.base::internal::BindStateBase"*, %"class.std::__1::basic_string"*)**
  %57 = load void (%"class.base::internal::BindStateBase"*, %"class.std::__1::basic_string"*)*, void (%"class.base::internal::BindStateBase"*, %"class.std::__1::basic_string"*)** %56, align 8
  call void %57(%"class.base::internal::BindStateBase"* nonnull %48, %"class.std::__1::basic_string"* nonnull dereferenceable(24) %4) #11
  call void @_ZN4base8internal12CallbackBaseD2Ev(%"class.base::internal::CallbackBase"* nonnull %54) #11
  call void @llvm.lifetime.end.p0i8(i64 8, i8* nonnull %52) #11
  br label %58

58:                                               ; preds = %46, %50
  %59 = bitcast %"class.std::__1::basic_string"* %4 to %"struct.std::__1::basic_string<char, std::__1::char_traits<char>, std::__1::allocator<char> >::__short"*
  %60 = getelementptr inbounds %"struct.std::__1::basic_string<char, std::__1::char_traits<char>, std::__1::allocator<char> >::__short", %"struct.std::__1::basic_string<char, std::__1::char_traits<char>, std::__1::allocator<char> >::__short"* %59, i64 0, i32 1, i32 0
  %61 = load i8, i8* %60, align 1
  %62 = icmp slt i8 %61, 0
  br i1 %62, label %63, label %65

63:                                               ; preds = %58
  %64 = load i8*, i8** %7, align 8
  call void @_ZdlPv(i8* %64) #12
  br label %65

65:                                               ; preds = %58, %63
  call void @llvm.lifetime.end.p0i8(i64 24, i8* nonnull %6) #11
  ret i1 true
}

; Function Attrs: nounwind ssp uwtable
define hidden void @_ZN7network5mojom63NetworkServiceTest_GetEnvironmentVariableValue_ProxyToResponder3RunERKNSt3__112basic_stringIcNS2_11char_traitsIcEENS2_9allocatorIcEEEE(%"class.network::mojom::NetworkServiceTest_GetEnvironmentVariableValue_ProxyToResponder"* nocapture, %"class.std::__1::basic_string"* dereferenceable(24)) #0 align 2 {
  %3 = alloca %"class.mojo::Message", align 8
  %4 = alloca %"class.mojo::internal::MessageFragment.109", align 8
  %5 = getelementptr inbounds %"class.network::mojom::NetworkServiceTest_GetEnvironmentVariableValue_ProxyToResponder", %"class.network::mojom::NetworkServiceTest_GetEnvironmentVariableValue_ProxyToResponder"* %0, i64 0, i32 1
  %6 = load i8, i8* %5, align 8, !range !2
  %7 = icmp eq i8 %6, 0
  %8 = select i1 %7, i32 2, i32 6
  %9 = bitcast %"class.mojo::Message"* %3 to i8*
  call void @llvm.lifetime.start.p0i8(i64 120, i8* nonnull %9) #11
  call void @llvm.memset.p0i8.i64(i8* nonnull align 8 %9, i8 -86, i64 120, i1 false)
  call void @_ZN4mojo7MessageC1EjjmmPNSt3__16vectorINS_16ScopedHandleBaseINS_6HandleEEENS1_9allocatorIS5_EEEE(%"class.mojo::Message"* nonnull %3, i32 1072134097, i32 %8, i64 0, i64 0, %"class.std::__1::vector.11"* null) #11
  %10 = getelementptr inbounds %"class.mojo::Message", %"class.mojo::Message"* %3, i64 0, i32 1
  %11 = call i64 @_ZN4mojo8internal6Buffer8AllocateEm(%"class.mojo::internal::Buffer"* %10, i64 16) #11
  %12 = getelementptr inbounds %"class.mojo::Message", %"class.mojo::Message"* %3, i64 0, i32 1, i32 2
  %13 = load i8*, i8** %12, align 8
  %14 = getelementptr inbounds i8, i8* %13, i64 %11
  %15 = bitcast i8* %14 to %"class.network::mojom::internal::NetworkServiceTest_GetEnvironmentVariableValue_ResponseParams_Data"*
  call void @_ZN7network5mojom8internal66NetworkServiceTest_GetEnvironmentVariableValue_ResponseParams_DataC1Ev(%"class.network::mojom::internal::NetworkServiceTest_GetEnvironmentVariableValue_ResponseParams_Data"* %15) #11
  %16 = bitcast %"class.mojo::internal::MessageFragment.109"* %4 to i8*
  call void @llvm.lifetime.start.p0i8(i64 16, i8* nonnull %16) #11
  %17 = getelementptr inbounds %"class.mojo::internal::MessageFragment.109", %"class.mojo::internal::MessageFragment.109"* %4, i64 0, i32 0
  %18 = getelementptr inbounds %"class.mojo::internal::MessageFragment.109", %"class.mojo::internal::MessageFragment.109"* %4, i64 0, i32 1
  store %"class.mojo::Message"* %3, %"class.mojo::Message"** %17, align 8
  store i64 -1, i64* %18, align 8
  call void @_ZN4mojo8internal10SerializerINS_14StringDataViewEKNSt3__112basic_stringIcNS3_11char_traitsIcEENS3_9allocatorIcEEEEE9SerializeERSA_RNS0_15MessageFragmentINS0_10Array_DataIcEEEE(%"class.std::__1::basic_string"* dereferenceable(24) %1, %"class.mojo::internal::MessageFragment.109"* nonnull dereferenceable(16) %4) #11
  %19 = load i8*, i8** %12, align 8
  %20 = getelementptr inbounds i8, i8* %19, i64 %11
  %21 = getelementptr inbounds i8, i8* %20, i64 8
  %22 = load i64, i64* %18, align 8
  %23 = icmp eq i64 %22, -1
  br i1 %23, label %30, label %24

24:                                               ; preds = %2
  %25 = load %"class.mojo::Message"*, %"class.mojo::Message"** %17, align 8
  %26 = getelementptr inbounds %"class.mojo::Message", %"class.mojo::Message"* %25, i64 0, i32 1, i32 2
  %27 = load i8*, i8** %26, align 8
  %28 = getelementptr inbounds i8, i8* %27, i64 %22
  %29 = bitcast i8* %28 to %"class.mojo::internal::Array_Data.110"*
  br label %30

30:                                               ; preds = %2, %24
  %31 = phi %"class.mojo::internal::Array_Data.110"* [ %29, %24 ], [ null, %2 ]
  %32 = bitcast i8* %21 to i64*
  %33 = icmp eq %"class.mojo::internal::Array_Data.110"* %31, null
  %34 = ptrtoint %"class.mojo::internal::Array_Data.110"* %31 to i64
  %35 = ptrtoint i8* %21 to i64
  %36 = sub i64 %34, %35
  %37 = select i1 %33, i64 0, i64 %36
  store i64 %37, i64* %32, align 8
  %38 = getelementptr inbounds %"class.network::mojom::NetworkServiceTest_GetEnvironmentVariableValue_ProxyToResponder", %"class.network::mojom::NetworkServiceTest_GetEnvironmentVariableValue_ProxyToResponder"* %0, i64 0, i32 0
  %39 = load i64, i64* %38, align 8
  %40 = bitcast i8** %12 to %"struct.mojo::internal::MessageHeaderV1"**
  %41 = load %"struct.mojo::internal::MessageHeaderV1"*, %"struct.mojo::internal::MessageHeaderV1"** %40, align 8
  %42 = getelementptr inbounds %"struct.mojo::internal::MessageHeaderV1", %"struct.mojo::internal::MessageHeaderV1"* %41, i64 0, i32 1
  store i64 %39, i64* %42, align 1
  %43 = getelementptr inbounds %"class.network::mojom::NetworkServiceTest_GetEnvironmentVariableValue_ProxyToResponder", %"class.network::mojom::NetworkServiceTest_GetEnvironmentVariableValue_ProxyToResponder"* %0, i64 0, i32 2, i32 0, i32 0, i32 0
  %44 = load %"class.mojo::MessageReceiverWithStatus"*, %"class.mojo::MessageReceiverWithStatus"** %43, align 8
  %45 = getelementptr inbounds %"class.mojo::MessageReceiverWithStatus", %"class.mojo::MessageReceiverWithStatus"* %44, i64 0, i32 0
  %46 = bitcast %"class.mojo::MessageReceiverWithStatus"* %44 to i1 (%"class.mojo::MessageReceiver"*, %"class.mojo::Message"*)***
  %47 = load i1 (%"class.mojo::MessageReceiver"*, %"class.mojo::Message"*)**, i1 (%"class.mojo::MessageReceiver"*, %"class.mojo::Message"*)*** %46, align 8
  %48 = getelementptr inbounds i1 (%"class.mojo::MessageReceiver"*, %"class.mojo::Message"*)*, i1 (%"class.mojo::MessageReceiver"*, %"class.mojo::Message"*)** %47, i64 3
  %49 = load i1 (%"class.mojo::MessageReceiver"*, %"class.mojo::Message"*)*, i1 (%"class.mojo::MessageReceiver"*, %"class.mojo::Message"*)** %48, align 8
  %50 = call zeroext i1 %49(%"class.mojo::MessageReceiver"* %45, %"class.mojo::Message"* nonnull %3) #11
  %51 = load %"class.mojo::MessageReceiverWithStatus"*, %"class.mojo::MessageReceiverWithStatus"** %43, align 8
  store %"class.mojo::MessageReceiverWithStatus"* null, %"class.mojo::MessageReceiverWithStatus"** %43, align 8
  %52 = icmp eq %"class.mojo::MessageReceiverWithStatus"* %51, null
  br i1 %52, label %58, label %53

53:                                               ; preds = %30
  %54 = bitcast %"class.mojo::MessageReceiverWithStatus"* %51 to void (%"class.mojo::MessageReceiverWithStatus"*)***
  %55 = load void (%"class.mojo::MessageReceiverWithStatus"*)**, void (%"class.mojo::MessageReceiverWithStatus"*)*** %54, align 8
  %56 = getelementptr inbounds void (%"class.mojo::MessageReceiverWithStatus"*)*, void (%"class.mojo::MessageReceiverWithStatus"*)** %55, i64 1
  %57 = load void (%"class.mojo::MessageReceiverWithStatus"*)*, void (%"class.mojo::MessageReceiverWithStatus"*)** %56, align 8
  call void %57(%"class.mojo::MessageReceiverWithStatus"* nonnull %51) #11
  br label %58

58:                                               ; preds = %30, %53
  call void @llvm.lifetime.end.p0i8(i64 16, i8* nonnull %16) #11
  call void @_ZN4mojo7MessageD1Ev(%"class.mojo::Message"* nonnull %3) #11
  call void @llvm.lifetime.end.p0i8(i64 120, i8* nonnull %9) #11
  ret void
}

; Function Attrs: nounwind ssp uwtable
define hidden zeroext i1 @_ZN7network5mojom65NetworkServiceTest_GetEnvironmentVariableValue_HandleSyncResponse6AcceptEPN4mojo7MessageE(%"class.network::mojom::NetworkServiceTest_GetEnvironmentVariableValue_HandleSyncResponse"* nocapture readonly, %"class.mojo::Message"*) unnamed_addr #0 align 2 {
  %3 = alloca %"class.std::__1::basic_string", align 8
  %4 = tail call i8* @_ZNK4mojo7Message7payloadEv(%"class.mojo::Message"* %1) #11
  %5 = bitcast %"class.std::__1::basic_string"* %3 to i8*
  call void @llvm.lifetime.start.p0i8(i64 24, i8* nonnull %5) #11
  %6 = getelementptr inbounds %"class.std::__1::basic_string", %"class.std::__1::basic_string"* %3, i64 0, i32 0, i32 0, i32 0, i32 0, i32 0, i32 0
  %7 = getelementptr inbounds %"class.std::__1::basic_string", %"class.std::__1::basic_string"* %3, i64 0, i32 0, i32 0, i32 0, i32 0, i32 0, i32 1
  call void @llvm.memset.p0i8.i64(i8* nonnull align 8 %5, i8 0, i64 24, i1 false) #11
  %8 = getelementptr inbounds i8, i8* %4, i64 8
  %9 = bitcast i8* %8 to i64*
  %10 = load i64, i64* %9, align 8
  %11 = icmp eq i64 %10, 0
  %12 = getelementptr inbounds i8, i8* %8, i64 %10
  br i1 %11, label %45, label %13

13:                                               ; preds = %2
  %14 = getelementptr inbounds i8, i8* %12, i64 8
  %15 = getelementptr inbounds i8, i8* %12, i64 4
  %16 = bitcast i8* %15 to i32*
  %17 = load i32, i32* %16, align 1
  %18 = zext i32 %17 to i64
  %19 = tail call i1 @llvm.is.constant.i64(i64 %18) #11
  %20 = icmp ult i32 %17, 23
  %21 = and i1 %20, %19
  br i1 %21, label %22, label %30

22:                                               ; preds = %13
  %23 = bitcast %"class.std::__1::basic_string"* %3 to %"struct.std::__1::basic_string<char, std::__1::char_traits<char>, std::__1::allocator<char> >::__short"*
  %24 = getelementptr inbounds %"struct.std::__1::basic_string<char, std::__1::char_traits<char>, std::__1::allocator<char> >::__short", %"struct.std::__1::basic_string<char, std::__1::char_traits<char>, std::__1::allocator<char> >::__short"* %23, i64 0, i32 1, i32 0
  %25 = trunc i32 %17 to i8
  store i8 %25, i8* %24, align 1
  %26 = icmp eq i32 %17, 0
  br i1 %26, label %28, label %27

27:                                               ; preds = %22
  call void @llvm.memmove.p0i8.p0i8.i64(i8* nonnull align 8 %5, i8* align 1 %14, i64 %18, i1 false) #11
  br label %28

28:                                               ; preds = %27, %22
  %29 = getelementptr inbounds i8, i8* %5, i64 %18
  store i8 0, i8* %29, align 1
  br label %33

30:                                               ; preds = %13
  %31 = call dereferenceable(24) %"class.std::__1::basic_string"* @_ZNSt3__112basic_stringIcNS_11char_traitsIcEENS_9allocatorIcEEE17__assign_externalEPKcm(%"class.std::__1::basic_string"* nonnull %3, i8* %14, i64 %18) #11
  %32 = bitcast %"class.std::__1::basic_string"* %3 to %"struct.std::__1::basic_string<char, std::__1::char_traits<char>, std::__1::allocator<char> >::__short"*
  br label %33

33:                                               ; preds = %30, %28
  %34 = phi %"struct.std::__1::basic_string<char, std::__1::char_traits<char>, std::__1::allocator<char> >::__short"* [ %32, %30 ], [ %23, %28 ]
  %35 = getelementptr inbounds %"struct.std::__1::basic_string<char, std::__1::char_traits<char>, std::__1::allocator<char> >::__short", %"struct.std::__1::basic_string<char, std::__1::char_traits<char>, std::__1::allocator<char> >::__short"* %34, i64 0, i32 1, i32 0
  %36 = load i8, i8* %35, align 1
  %37 = icmp slt i8 %36, 0
  %38 = load i8*, i8** %6, align 8
  %39 = select i1 %37, i8* %38, i8* %5
  %40 = load i64, i64* %7, align 8
  %41 = zext i8 %36 to i64
  %42 = select i1 %37, i64 %40, i64 %41
  %43 = call zeroext i1 @_ZN4base12IsStringUTF8ENS_16BasicStringPieceIcNSt3__111char_traitsIcEEEE(i8* %39, i64 %42) #11
  br i1 %43, label %45, label %44

44:                                               ; preds = %33
  call void @_ZN4mojo8internal34RecordInvalidStringDeserializationEv() #11
  br label %45

45:                                               ; preds = %44, %33, %2
  %46 = getelementptr inbounds %"class.network::mojom::NetworkServiceTest_GetEnvironmentVariableValue_HandleSyncResponse", %"class.network::mojom::NetworkServiceTest_GetEnvironmentVariableValue_HandleSyncResponse"* %0, i64 0, i32 2
  %47 = load %"class.std::__1::basic_string"*, %"class.std::__1::basic_string"** %46, align 8
  %48 = bitcast %"class.std::__1::basic_string"* %47 to %"struct.std::__1::basic_string<char, std::__1::char_traits<char>, std::__1::allocator<char> >::__short"*
  %49 = getelementptr inbounds %"struct.std::__1::basic_string<char, std::__1::char_traits<char>, std::__1::allocator<char> >::__short", %"struct.std::__1::basic_string<char, std::__1::char_traits<char>, std::__1::allocator<char> >::__short"* %48, i64 0, i32 1, i32 0
  %50 = load i8, i8* %49, align 1
  %51 = icmp slt i8 %50, 0
  br i1 %51, label %52, label %55

52:                                               ; preds = %45
  %53 = getelementptr inbounds %"class.std::__1::basic_string", %"class.std::__1::basic_string"* %47, i64 0, i32 0, i32 0, i32 0, i32 0, i32 0, i32 0
  %54 = load i8*, i8** %53, align 8
  call void @_ZdlPv(i8* %54) #12
  br label %55

55:                                               ; preds = %52, %45
  %56 = bitcast %"class.std::__1::basic_string"* %47 to i8*
  call void @llvm.memcpy.p0i8.p0i8.i64(i8* align 8 %56, i8* nonnull align 8 %5, i64 24, i1 false) #11
  %57 = bitcast %"class.std::__1::basic_string"* %3 to %"struct.std::__1::basic_string<char, std::__1::char_traits<char>, std::__1::allocator<char> >::__short"*
  %58 = getelementptr inbounds %"struct.std::__1::basic_string<char, std::__1::char_traits<char>, std::__1::allocator<char> >::__short", %"struct.std::__1::basic_string<char, std::__1::char_traits<char>, std::__1::allocator<char> >::__short"* %57, i64 0, i32 1, i32 0
  store i8 0, i8* %58, align 1
  store i8 0, i8* %5, align 8
  %59 = getelementptr inbounds %"class.network::mojom::NetworkServiceTest_GetEnvironmentVariableValue_HandleSyncResponse", %"class.network::mojom::NetworkServiceTest_GetEnvironmentVariableValue_HandleSyncResponse"* %0, i64 0, i32 1
  %60 = load i8*, i8** %59, align 8
  store i8 1, i8* %60, align 1
  %61 = load i8, i8* %58, align 1
  %62 = icmp slt i8 %61, 0
  br i1 %62, label %63, label %65

63:                                               ; preds = %55
  %64 = load i8*, i8** %6, align 8
  call void @_ZdlPv(i8* %64) #12
  br label %65

65:                                               ; preds = %55, %63
  call void @llvm.lifetime.end.p0i8(i64 24, i8* nonnull %5) #11
  ret i1 true
}

; Function Attrs: nounwind ssp uwtable
define hidden zeroext i1 @_ZN7network5mojom40NetworkServiceTest_Log_ForwardToCallback6AcceptEPN4mojo7MessageE(%"class.network::mojom::NetworkServiceTest_Log_ForwardToCallback"* nocapture, %"class.mojo::Message"*) unnamed_addr #0 align 2 {
  %3 = alloca %"class.base::OnceCallback", align 8
  %4 = tail call i8* @_ZNK4mojo7Message7payloadEv(%"class.mojo::Message"* %1) #11
  %5 = getelementptr inbounds %"class.network::mojom::NetworkServiceTest_Log_ForwardToCallback", %"class.network::mojom::NetworkServiceTest_Log_ForwardToCallback"* %0, i64 0, i32 1, i32 0, i32 0, i32 0
  %6 = load %"class.base::internal::BindStateBase"*, %"class.base::internal::BindStateBase"** %5, align 8
  %7 = icmp eq %"class.base::internal::BindStateBase"* %6, null
  br i1 %7, label %16, label %8

8:                                                ; preds = %2
  %9 = ptrtoint %"class.base::internal::BindStateBase"* %6 to i64
  %10 = bitcast %"class.base::OnceCallback"* %3 to i8*
  call void @llvm.lifetime.start.p0i8(i64 8, i8* nonnull %10) #11
  %11 = bitcast %"class.base::OnceCallback"* %3 to i64*
  store i64 %9, i64* %11, align 8
  store %"class.base::internal::BindStateBase"* null, %"class.base::internal::BindStateBase"** %5, align 8
  %12 = getelementptr inbounds %"class.base::OnceCallback", %"class.base::OnceCallback"* %3, i64 0, i32 0
  %13 = getelementptr inbounds %"class.base::internal::BindStateBase", %"class.base::internal::BindStateBase"* %6, i64 0, i32 1
  %14 = bitcast void ()** %13 to void (%"class.base::internal::BindStateBase"*)**
  %15 = load void (%"class.base::internal::BindStateBase"*)*, void (%"class.base::internal::BindStateBase"*)** %14, align 8
  tail call void %15(%"class.base::internal::BindStateBase"* nonnull %6) #11
  call void @_ZN4base8internal12CallbackBaseD2Ev(%"class.base::internal::CallbackBase"* nonnull %12) #11
  call void @llvm.lifetime.end.p0i8(i64 8, i8* nonnull %10) #11
  br label %16

16:                                               ; preds = %2, %8
  ret i1 true
}

; Function Attrs: nounwind ssp uwtable
define hidden void @_ZN7network5mojom39NetworkServiceTest_Log_ProxyToResponder3RunEv(%"class.network::mojom::NetworkServiceTest_Log_ProxyToResponder"* nocapture) #0 align 2 {
  %2 = alloca %"class.mojo::Message", align 8
  %3 = getelementptr inbounds %"class.network::mojom::NetworkServiceTest_Log_ProxyToResponder", %"class.network::mojom::NetworkServiceTest_Log_ProxyToResponder"* %0, i64 0, i32 1
  %4 = load i8, i8* %3, align 8, !range !2
  %5 = icmp eq i8 %4, 0
  %6 = select i1 %5, i32 2, i32 6
  %7 = bitcast %"class.mojo::Message"* %2 to i8*
  call void @llvm.lifetime.start.p0i8(i64 120, i8* nonnull %7) #11
  call void @llvm.memset.p0i8.i64(i8* nonnull align 8 %7, i8 -86, i64 120, i1 false)
  call void @_ZN4mojo7MessageC1EjjmmPNSt3__16vectorINS_16ScopedHandleBaseINS_6HandleEEENS1_9allocatorIS5_EEEE(%"class.mojo::Message"* nonnull %2, i32 74253995, i32 %6, i64 0, i64 0, %"class.std::__1::vector.11"* null) #11
  %8 = getelementptr inbounds %"class.mojo::Message", %"class.mojo::Message"* %2, i64 0, i32 1
  %9 = call i64 @_ZN4mojo8internal6Buffer8AllocateEm(%"class.mojo::internal::Buffer"* %8, i64 8) #11
  %10 = getelementptr inbounds %"class.mojo::Message", %"class.mojo::Message"* %2, i64 0, i32 1, i32 2
  %11 = load i8*, i8** %10, align 8
  %12 = getelementptr inbounds i8, i8* %11, i64 %9
  %13 = bitcast i8* %12 to %"class.network::mojom::internal::NetworkServiceTest_Log_ResponseParams_Data"*
  call void @_ZN7network5mojom8internal42NetworkServiceTest_Log_ResponseParams_DataC1Ev(%"class.network::mojom::internal::NetworkServiceTest_Log_ResponseParams_Data"* %13) #11
  %14 = getelementptr inbounds %"class.network::mojom::NetworkServiceTest_Log_ProxyToResponder", %"class.network::mojom::NetworkServiceTest_Log_ProxyToResponder"* %0, i64 0, i32 0
  %15 = load i64, i64* %14, align 8
  %16 = bitcast i8** %10 to %"struct.mojo::internal::MessageHeaderV1"**
  %17 = load %"struct.mojo::internal::MessageHeaderV1"*, %"struct.mojo::internal::MessageHeaderV1"** %16, align 8
  %18 = getelementptr inbounds %"struct.mojo::internal::MessageHeaderV1", %"struct.mojo::internal::MessageHeaderV1"* %17, i64 0, i32 1
  store i64 %15, i64* %18, align 1
  %19 = getelementptr inbounds %"class.network::mojom::NetworkServiceTest_Log_ProxyToResponder", %"class.network::mojom::NetworkServiceTest_Log_ProxyToResponder"* %0, i64 0, i32 2, i32 0, i32 0, i32 0
  %20 = load %"class.mojo::MessageReceiverWithStatus"*, %"class.mojo::MessageReceiverWithStatus"** %19, align 8
  %21 = getelementptr inbounds %"class.mojo::MessageReceiverWithStatus", %"class.mojo::MessageReceiverWithStatus"* %20, i64 0, i32 0
  %22 = bitcast %"class.mojo::MessageReceiverWithStatus"* %20 to i1 (%"class.mojo::MessageReceiver"*, %"class.mojo::Message"*)***
  %23 = load i1 (%"class.mojo::MessageReceiver"*, %"class.mojo::Message"*)**, i1 (%"class.mojo::MessageReceiver"*, %"class.mojo::Message"*)*** %22, align 8
  %24 = getelementptr inbounds i1 (%"class.mojo::MessageReceiver"*, %"class.mojo::Message"*)*, i1 (%"class.mojo::MessageReceiver"*, %"class.mojo::Message"*)** %23, i64 3
  %25 = load i1 (%"class.mojo::MessageReceiver"*, %"class.mojo::Message"*)*, i1 (%"class.mojo::MessageReceiver"*, %"class.mojo::Message"*)** %24, align 8
  %26 = call zeroext i1 %25(%"class.mojo::MessageReceiver"* %21, %"class.mojo::Message"* nonnull %2) #11
  %27 = load %"class.mojo::MessageReceiverWithStatus"*, %"class.mojo::MessageReceiverWithStatus"** %19, align 8
  store %"class.mojo::MessageReceiverWithStatus"* null, %"class.mojo::MessageReceiverWithStatus"** %19, align 8
  %28 = icmp eq %"class.mojo::MessageReceiverWithStatus"* %27, null
  br i1 %28, label %34, label %29

29:                                               ; preds = %1
  %30 = bitcast %"class.mojo::MessageReceiverWithStatus"* %27 to void (%"class.mojo::MessageReceiverWithStatus"*)***
  %31 = load void (%"class.mojo::MessageReceiverWithStatus"*)**, void (%"class.mojo::MessageReceiverWithStatus"*)*** %30, align 8
  %32 = getelementptr inbounds void (%"class.mojo::MessageReceiverWithStatus"*)*, void (%"class.mojo::MessageReceiverWithStatus"*)** %31, i64 1
  %33 = load void (%"class.mojo::MessageReceiverWithStatus"*)*, void (%"class.mojo::MessageReceiverWithStatus"*)** %32, align 8
  call void %33(%"class.mojo::MessageReceiverWithStatus"* nonnull %27) #11
  br label %34

34:                                               ; preds = %1, %29
  call void @_ZN4mojo7MessageD1Ev(%"class.mojo::Message"* nonnull %2) #11
  call void @llvm.lifetime.end.p0i8(i64 120, i8* nonnull %7) #11
  ret void
}

; Function Attrs: nounwind ssp uwtable
define hidden zeroext i1 @_ZN7network5mojom41NetworkServiceTest_Log_HandleSyncResponse6AcceptEPN4mojo7MessageE(%"class.network::mojom::NetworkServiceTest_Log_HandleSyncResponse"* nocapture readonly, %"class.mojo::Message"*) unnamed_addr #0 align 2 {
  %3 = tail call i8* @_ZNK4mojo7Message7payloadEv(%"class.mojo::Message"* %1) #11
  %4 = getelementptr inbounds %"class.network::mojom::NetworkServiceTest_Log_HandleSyncResponse", %"class.network::mojom::NetworkServiceTest_Log_HandleSyncResponse"* %0, i64 0, i32 1
  %5 = load i8*, i8** %4, align 8
  store i8 1, i8* %5, align 1
  ret i1 true
}

; Function Attrs: nounwind ssp uwtable
define hidden zeroext i1 @_ZN7network5mojom48NetworkServiceTest_SetEVPolicy_ForwardToCallback6AcceptEPN4mojo7MessageE(%"class.network::mojom::NetworkServiceTest_SetEVPolicy_ForwardToCallback"* nocapture, %"class.mojo::Message"*) unnamed_addr #0 align 2 {
  %3 = alloca %"class.base::OnceCallback", align 8
  %4 = tail call i8* @_ZNK4mojo7Message7payloadEv(%"class.mojo::Message"* %1) #11
  %5 = getelementptr inbounds %"class.network::mojom::NetworkServiceTest_SetEVPolicy_ForwardToCallback", %"class.network::mojom::NetworkServiceTest_SetEVPolicy_ForwardToCallback"* %0, i64 0, i32 1, i32 0, i32 0, i32 0
  %6 = load %"class.base::internal::BindStateBase"*, %"class.base::internal::BindStateBase"** %5, align 8
  %7 = icmp eq %"class.base::internal::BindStateBase"* %6, null
  br i1 %7, label %16, label %8

8:                                                ; preds = %2
  %9 = ptrtoint %"class.base::internal::BindStateBase"* %6 to i64
  %10 = bitcast %"class.base::OnceCallback"* %3 to i8*
  call void @llvm.lifetime.start.p0i8(i64 8, i8* nonnull %10) #11
  %11 = bitcast %"class.base::OnceCallback"* %3 to i64*
  store i64 %9, i64* %11, align 8
  store %"class.base::internal::BindStateBase"* null, %"class.base::internal::BindStateBase"** %5, align 8
  %12 = getelementptr inbounds %"class.base::OnceCallback", %"class.base::OnceCallback"* %3, i64 0, i32 0
  %13 = getelementptr inbounds %"class.base::internal::BindStateBase", %"class.base::internal::BindStateBase"* %6, i64 0, i32 1
  %14 = bitcast void ()** %13 to void (%"class.base::internal::BindStateBase"*)**
  %15 = load void (%"class.base::internal::BindStateBase"*)*, void (%"class.base::internal::BindStateBase"*)** %14, align 8
  tail call void %15(%"class.base::internal::BindStateBase"* nonnull %6) #11
  call void @_ZN4base8internal12CallbackBaseD2Ev(%"class.base::internal::CallbackBase"* nonnull %12) #11
  call void @llvm.lifetime.end.p0i8(i64 8, i8* nonnull %10) #11
  br label %16

16:                                               ; preds = %2, %8
  ret i1 true
}

; Function Attrs: nounwind ssp uwtable
define hidden void @_ZN7network5mojom47NetworkServiceTest_SetEVPolicy_ProxyToResponder3RunEv(%"class.network::mojom::NetworkServiceTest_SetEVPolicy_ProxyToResponder"* nocapture) #0 align 2 {
  %2 = alloca %"class.mojo::Message", align 8
  %3 = getelementptr inbounds %"class.network::mojom::NetworkServiceTest_SetEVPolicy_ProxyToResponder", %"class.network::mojom::NetworkServiceTest_SetEVPolicy_ProxyToResponder"* %0, i64 0, i32 1
  %4 = load i8, i8* %3, align 8, !range !2
  %5 = icmp eq i8 %4, 0
  %6 = select i1 %5, i32 2, i32 6
  %7 = bitcast %"class.mojo::Message"* %2 to i8*
  call void @llvm.lifetime.start.p0i8(i64 120, i8* nonnull %7) #11
  call void @llvm.memset.p0i8.i64(i8* nonnull align 8 %7, i8 -86, i64 120, i1 false)
  call void @_ZN4mojo7MessageC1EjjmmPNSt3__16vectorINS_16ScopedHandleBaseINS_6HandleEEENS1_9allocatorIS5_EEEE(%"class.mojo::Message"* nonnull %2, i32 1188838258, i32 %6, i64 0, i64 0, %"class.std::__1::vector.11"* null) #11
  %8 = getelementptr inbounds %"class.mojo::Message", %"class.mojo::Message"* %2, i64 0, i32 1
  %9 = call i64 @_ZN4mojo8internal6Buffer8AllocateEm(%"class.mojo::internal::Buffer"* %8, i64 8) #11
  %10 = getelementptr inbounds %"class.mojo::Message", %"class.mojo::Message"* %2, i64 0, i32 1, i32 2
  %11 = load i8*, i8** %10, align 8
  %12 = getelementptr inbounds i8, i8* %11, i64 %9
  %13 = bitcast i8* %12 to %"class.network::mojom::internal::NetworkServiceTest_SetEVPolicy_ResponseParams_Data"*
  call void @_ZN7network5mojom8internal50NetworkServiceTest_SetEVPolicy_ResponseParams_DataC1Ev(%"class.network::mojom::internal::NetworkServiceTest_SetEVPolicy_ResponseParams_Data"* %13) #11
  %14 = getelementptr inbounds %"class.network::mojom::NetworkServiceTest_SetEVPolicy_ProxyToResponder", %"class.network::mojom::NetworkServiceTest_SetEVPolicy_ProxyToResponder"* %0, i64 0, i32 0
  %15 = load i64, i64* %14, align 8
  %16 = bitcast i8** %10 to %"struct.mojo::internal::MessageHeaderV1"**
  %17 = load %"struct.mojo::internal::MessageHeaderV1"*, %"struct.mojo::internal::MessageHeaderV1"** %16, align 8
  %18 = getelementptr inbounds %"struct.mojo::internal::MessageHeaderV1", %"struct.mojo::internal::MessageHeaderV1"* %17, i64 0, i32 1
  store i64 %15, i64* %18, align 1
  %19 = getelementptr inbounds %"class.network::mojom::NetworkServiceTest_SetEVPolicy_ProxyToResponder", %"class.network::mojom::NetworkServiceTest_SetEVPolicy_ProxyToResponder"* %0, i64 0, i32 2, i32 0, i32 0, i32 0
  %20 = load %"class.mojo::MessageReceiverWithStatus"*, %"class.mojo::MessageReceiverWithStatus"** %19, align 8
  %21 = getelementptr inbounds %"class.mojo::MessageReceiverWithStatus", %"class.mojo::MessageReceiverWithStatus"* %20, i64 0, i32 0
  %22 = bitcast %"class.mojo::MessageReceiverWithStatus"* %20 to i1 (%"class.mojo::MessageReceiver"*, %"class.mojo::Message"*)***
  %23 = load i1 (%"class.mojo::MessageReceiver"*, %"class.mojo::Message"*)**, i1 (%"class.mojo::MessageReceiver"*, %"class.mojo::Message"*)*** %22, align 8
  %24 = getelementptr inbounds i1 (%"class.mojo::MessageReceiver"*, %"class.mojo::Message"*)*, i1 (%"class.mojo::MessageReceiver"*, %"class.mojo::Message"*)** %23, i64 3
  %25 = load i1 (%"class.mojo::MessageReceiver"*, %"class.mojo::Message"*)*, i1 (%"class.mojo::MessageReceiver"*, %"class.mojo::Message"*)** %24, align 8
  %26 = call zeroext i1 %25(%"class.mojo::MessageReceiver"* %21, %"class.mojo::Message"* nonnull %2) #11
  %27 = load %"class.mojo::MessageReceiverWithStatus"*, %"class.mojo::MessageReceiverWithStatus"** %19, align 8
  store %"class.mojo::MessageReceiverWithStatus"* null, %"class.mojo::MessageReceiverWithStatus"** %19, align 8
  %28 = icmp eq %"class.mojo::MessageReceiverWithStatus"* %27, null
  br i1 %28, label %34, label %29

29:                                               ; preds = %1
  %30 = bitcast %"class.mojo::MessageReceiverWithStatus"* %27 to void (%"class.mojo::MessageReceiverWithStatus"*)***
  %31 = load void (%"class.mojo::MessageReceiverWithStatus"*)**, void (%"class.mojo::MessageReceiverWithStatus"*)*** %30, align 8
  %32 = getelementptr inbounds void (%"class.mojo::MessageReceiverWithStatus"*)*, void (%"class.mojo::MessageReceiverWithStatus"*)** %31, i64 1
  %33 = load void (%"class.mojo::MessageReceiverWithStatus"*)*, void (%"class.mojo::MessageReceiverWithStatus"*)** %32, align 8
  call void %33(%"class.mojo::MessageReceiverWithStatus"* nonnull %27) #11
  br label %34

34:                                               ; preds = %1, %29
  call void @_ZN4mojo7MessageD1Ev(%"class.mojo::Message"* nonnull %2) #11
  call void @llvm.lifetime.end.p0i8(i64 120, i8* nonnull %7) #11
  ret void
}

; Function Attrs: nounwind ssp uwtable
define hidden zeroext i1 @_ZN7network5mojom49NetworkServiceTest_SetEVPolicy_HandleSyncResponse6AcceptEPN4mojo7MessageE(%"class.network::mojom::NetworkServiceTest_SetEVPolicy_HandleSyncResponse"* nocapture readonly, %"class.mojo::Message"*) unnamed_addr #0 align 2 {
  %3 = tail call i8* @_ZNK4mojo7Message7payloadEv(%"class.mojo::Message"* %1) #11
  %4 = getelementptr inbounds %"class.network::mojom::NetworkServiceTest_SetEVPolicy_HandleSyncResponse", %"class.network::mojom::NetworkServiceTest_SetEVPolicy_HandleSyncResponse"* %0, i64 0, i32 1
  %5 = load i8*, i8** %4, align 8
  store i8 1, i8* %5, align 1
  ret i1 true
}

; Function Attrs: nounwind ssp uwtable
define hidden zeroext i1 @_ZN7network5mojom65NetworkServiceTest_GetFirstPartySetEntriesCount_ForwardToCallback6AcceptEPN4mojo7MessageE(%"class.network::mojom::NetworkServiceTest_GetFirstPartySetEntriesCount_ForwardToCallback"* nocapture, %"class.mojo::Message"*) unnamed_addr #0 align 2 {
  %3 = alloca %"class.base::OnceCallback.128", align 8
  %4 = tail call i8* @_ZNK4mojo7Message7payloadEv(%"class.mojo::Message"* %1) #11
  %5 = getelementptr inbounds %"class.network::mojom::NetworkServiceTest_GetFirstPartySetEntriesCount_ForwardToCallback", %"class.network::mojom::NetworkServiceTest_GetFirstPartySetEntriesCount_ForwardToCallback"* %0, i64 0, i32 1, i32 0, i32 0, i32 0
  %6 = load %"class.base::internal::BindStateBase"*, %"class.base::internal::BindStateBase"** %5, align 8
  %7 = icmp eq %"class.base::internal::BindStateBase"* %6, null
  br i1 %7, label %19, label %8

8:                                                ; preds = %2
  %9 = ptrtoint %"class.base::internal::BindStateBase"* %6 to i64
  %10 = getelementptr inbounds i8, i8* %4, i64 8
  %11 = bitcast i8* %10 to i64*
  %12 = load i64, i64* %11, align 8
  %13 = bitcast %"class.base::OnceCallback.128"* %3 to i8*
  call void @llvm.lifetime.start.p0i8(i64 8, i8* nonnull %13) #11
  %14 = bitcast %"class.base::OnceCallback.128"* %3 to i64*
  store i64 %9, i64* %14, align 8
  store %"class.base::internal::BindStateBase"* null, %"class.base::internal::BindStateBase"** %5, align 8
  %15 = getelementptr inbounds %"class.base::OnceCallback.128", %"class.base::OnceCallback.128"* %3, i64 0, i32 0
  %16 = getelementptr inbounds %"class.base::internal::BindStateBase", %"class.base::internal::BindStateBase"* %6, i64 0, i32 1
  %17 = bitcast void ()** %16 to void (%"class.base::internal::BindStateBase"*, i64)**
  %18 = load void (%"class.base::internal::BindStateBase"*, i64)*, void (%"class.base::internal::BindStateBase"*, i64)** %17, align 8
  tail call void %18(%"class.base::internal::BindStateBase"* nonnull %6, i64 %12) #11
  call void @_ZN4base8internal12CallbackBaseD2Ev(%"class.base::internal::CallbackBase"* nonnull %15) #11
  call void @llvm.lifetime.end.p0i8(i64 8, i8* nonnull %13) #11
  br label %19

19:                                               ; preds = %2, %8
  ret i1 true
}

; Function Attrs: nounwind ssp uwtable
define hidden void @_ZN7network5mojom64NetworkServiceTest_GetFirstPartySetEntriesCount_ProxyToResponder3RunEl(%"class.network::mojom::NetworkServiceTest_GetFirstPartySetEntriesCount_ProxyToResponder"* nocapture, i64) #0 align 2 {
  %3 = alloca %"class.mojo::Message", align 8
  %4 = getelementptr inbounds %"class.network::mojom::NetworkServiceTest_GetFirstPartySetEntriesCount_ProxyToResponder", %"class.network::mojom::NetworkServiceTest_GetFirstPartySetEntriesCount_ProxyToResponder"* %0, i64 0, i32 1
  %5 = load i8, i8* %4, align 8, !range !2
  %6 = icmp eq i8 %5, 0
  %7 = select i1 %6, i32 2, i32 6
  %8 = bitcast %"class.mojo::Message"* %3 to i8*
  call void @llvm.lifetime.start.p0i8(i64 120, i8* nonnull %8) #11
  call void @llvm.memset.p0i8.i64(i8* nonnull align 8 %8, i8 -86, i64 120, i1 false)
  call void @_ZN4mojo7MessageC1EjjmmPNSt3__16vectorINS_16ScopedHandleBaseINS_6HandleEEENS1_9allocatorIS5_EEEE(%"class.mojo::Message"* nonnull %3, i32 832733096, i32 %7, i64 0, i64 0, %"class.std::__1::vector.11"* null) #11
  %9 = getelementptr inbounds %"class.mojo::Message", %"class.mojo::Message"* %3, i64 0, i32 1
  %10 = call i64 @_ZN4mojo8internal6Buffer8AllocateEm(%"class.mojo::internal::Buffer"* %9, i64 16) #11
  %11 = getelementptr inbounds %"class.mojo::Message", %"class.mojo::Message"* %3, i64 0, i32 1, i32 2
  %12 = load i8*, i8** %11, align 8
  %13 = getelementptr inbounds i8, i8* %12, i64 %10
  %14 = bitcast i8* %13 to %"class.network::mojom::internal::NetworkServiceTest_GetFirstPartySetEntriesCount_ResponseParams_Data"*
  call void @_ZN7network5mojom8internal67NetworkServiceTest_GetFirstPartySetEntriesCount_ResponseParams_DataC1Ev(%"class.network::mojom::internal::NetworkServiceTest_GetFirstPartySetEntriesCount_ResponseParams_Data"* %14) #11
  %15 = load i8*, i8** %11, align 8
  %16 = getelementptr inbounds i8, i8* %15, i64 %10
  %17 = getelementptr inbounds i8, i8* %16, i64 8
  %18 = bitcast i8* %17 to i64*
  store i64 %1, i64* %18, align 8
  %19 = getelementptr inbounds %"class.network::mojom::NetworkServiceTest_GetFirstPartySetEntriesCount_ProxyToResponder", %"class.network::mojom::NetworkServiceTest_GetFirstPartySetEntriesCount_ProxyToResponder"* %0, i64 0, i32 0
  %20 = load i64, i64* %19, align 8
  %21 = bitcast i8** %11 to %"struct.mojo::internal::MessageHeaderV1"**
  %22 = load %"struct.mojo::internal::MessageHeaderV1"*, %"struct.mojo::internal::MessageHeaderV1"** %21, align 8
  %23 = getelementptr inbounds %"struct.mojo::internal::MessageHeaderV1", %"struct.mojo::internal::MessageHeaderV1"* %22, i64 0, i32 1
  store i64 %20, i64* %23, align 1
  %24 = getelementptr inbounds %"class.network::mojom::NetworkServiceTest_GetFirstPartySetEntriesCount_ProxyToResponder", %"class.network::mojom::NetworkServiceTest_GetFirstPartySetEntriesCount_ProxyToResponder"* %0, i64 0, i32 2, i32 0, i32 0, i32 0
  %25 = load %"class.mojo::MessageReceiverWithStatus"*, %"class.mojo::MessageReceiverWithStatus"** %24, align 8
  %26 = getelementptr inbounds %"class.mojo::MessageReceiverWithStatus", %"class.mojo::MessageReceiverWithStatus"* %25, i64 0, i32 0
  %27 = bitcast %"class.mojo::MessageReceiverWithStatus"* %25 to i1 (%"class.mojo::MessageReceiver"*, %"class.mojo::Message"*)***
  %28 = load i1 (%"class.mojo::MessageReceiver"*, %"class.mojo::Message"*)**, i1 (%"class.mojo::MessageReceiver"*, %"class.mojo::Message"*)*** %27, align 8
  %29 = getelementptr inbounds i1 (%"class.mojo::MessageReceiver"*, %"class.mojo::Message"*)*, i1 (%"class.mojo::MessageReceiver"*, %"class.mojo::Message"*)** %28, i64 3
  %30 = load i1 (%"class.mojo::MessageReceiver"*, %"class.mojo::Message"*)*, i1 (%"class.mojo::MessageReceiver"*, %"class.mojo::Message"*)** %29, align 8
  %31 = call zeroext i1 %30(%"class.mojo::MessageReceiver"* %26, %"class.mojo::Message"* nonnull %3) #11
  %32 = load %"class.mojo::MessageReceiverWithStatus"*, %"class.mojo::MessageReceiverWithStatus"** %24, align 8
  store %"class.mojo::MessageReceiverWithStatus"* null, %"class.mojo::MessageReceiverWithStatus"** %24, align 8
  %33 = icmp eq %"class.mojo::MessageReceiverWithStatus"* %32, null
  br i1 %33, label %39, label %34

34:                                               ; preds = %2
  %35 = bitcast %"class.mojo::MessageReceiverWithStatus"* %32 to void (%"class.mojo::MessageReceiverWithStatus"*)***
  %36 = load void (%"class.mojo::MessageReceiverWithStatus"*)**, void (%"class.mojo::MessageReceiverWithStatus"*)*** %35, align 8
  %37 = getelementptr inbounds void (%"class.mojo::MessageReceiverWithStatus"*)*, void (%"class.mojo::MessageReceiverWithStatus"*)** %36, i64 1
  %38 = load void (%"class.mojo::MessageReceiverWithStatus"*)*, void (%"class.mojo::MessageReceiverWithStatus"*)** %37, align 8
  call void %38(%"class.mojo::MessageReceiverWithStatus"* nonnull %32) #11
  br label %39

39:                                               ; preds = %2, %34
  call void @_ZN4mojo7MessageD1Ev(%"class.mojo::Message"* nonnull %3) #11
  call void @llvm.lifetime.end.p0i8(i64 120, i8* nonnull %8) #11
  ret void
}

; Function Attrs: nounwind ssp uwtable
define hidden zeroext i1 @_ZN7network5mojom66NetworkServiceTest_GetFirstPartySetEntriesCount_HandleSyncResponse6AcceptEPN4mojo7MessageE(%"class.network::mojom::NetworkServiceTest_GetFirstPartySetEntriesCount_HandleSyncResponse"* nocapture readonly, %"class.mojo::Message"*) unnamed_addr #0 align 2 {
  %3 = tail call i8* @_ZNK4mojo7Message7payloadEv(%"class.mojo::Message"* %1) #11
  %4 = getelementptr inbounds i8, i8* %3, i64 8
  %5 = bitcast i8* %4 to i64*
  %6 = load i64, i64* %5, align 8
  %7 = getelementptr inbounds %"class.network::mojom::NetworkServiceTest_GetFirstPartySetEntriesCount_HandleSyncResponse", %"class.network::mojom::NetworkServiceTest_GetFirstPartySetEntriesCount_HandleSyncResponse"* %0, i64 0, i32 2
  %8 = load i64*, i64** %7, align 8
  store i64 %6, i64* %8, align 8
  %9 = getelementptr inbounds %"class.network::mojom::NetworkServiceTest_GetFirstPartySetEntriesCount_HandleSyncResponse", %"class.network::mojom::NetworkServiceTest_GetFirstPartySetEntriesCount_HandleSyncResponse"* %0, i64 0, i32 1
  %10 = load i8*, i8** %9, align 8
  store i8 1, i8* %10, align 1
  ret i1 true
}

; Function Attrs: nounwind ssp uwtable
define hidden zeroext i1 @_ZN7network5mojom61NetworkServiceTest_SetSCTAuditingRetryDelay_ForwardToCallback6AcceptEPN4mojo7MessageE(%"class.network::mojom::NetworkServiceTest_SetSCTAuditingRetryDelay_ForwardToCallback"* nocapture, %"class.mojo::Message"*) unnamed_addr #0 align 2 {
  %3 = alloca %"class.base::OnceCallback", align 8
  %4 = tail call i8* @_ZNK4mojo7Message7payloadEv(%"class.mojo::Message"* %1) #11
  %5 = getelementptr inbounds %"class.network::mojom::NetworkServiceTest_SetSCTAuditingRetryDelay_ForwardToCallback", %"class.network::mojom::NetworkServiceTest_SetSCTAuditingRetryDelay_ForwardToCallback"* %0, i64 0, i32 1, i32 0, i32 0, i32 0
  %6 = load %"class.base::internal::BindStateBase"*, %"class.base::internal::BindStateBase"** %5, align 8
  %7 = icmp eq %"class.base::internal::BindStateBase"* %6, null
  br i1 %7, label %16, label %8

8:                                                ; preds = %2
  %9 = ptrtoint %"class.base::internal::BindStateBase"* %6 to i64
  %10 = bitcast %"class.base::OnceCallback"* %3 to i8*
  call void @llvm.lifetime.start.p0i8(i64 8, i8* nonnull %10) #11
  %11 = bitcast %"class.base::OnceCallback"* %3 to i64*
  store i64 %9, i64* %11, align 8
  store %"class.base::internal::BindStateBase"* null, %"class.base::internal::BindStateBase"** %5, align 8
  %12 = getelementptr inbounds %"class.base::OnceCallback", %"class.base::OnceCallback"* %3, i64 0, i32 0
  %13 = getelementptr inbounds %"class.base::internal::BindStateBase", %"class.base::internal::BindStateBase"* %6, i64 0, i32 1
  %14 = bitcast void ()** %13 to void (%"class.base::internal::BindStateBase"*)**
  %15 = load void (%"class.base::internal::BindStateBase"*)*, void (%"class.base::internal::BindStateBase"*)** %14, align 8
  tail call void %15(%"class.base::internal::BindStateBase"* nonnull %6) #11
  call void @_ZN4base8internal12CallbackBaseD2Ev(%"class.base::internal::CallbackBase"* nonnull %12) #11
  call void @llvm.lifetime.end.p0i8(i64 8, i8* nonnull %10) #11
  br label %16

16:                                               ; preds = %2, %8
  ret i1 true
}

; Function Attrs: nounwind ssp uwtable
define hidden void @_ZN7network5mojom60NetworkServiceTest_SetSCTAuditingRetryDelay_ProxyToResponder3RunEv(%"class.network::mojom::NetworkServiceTest_SetSCTAuditingRetryDelay_ProxyToResponder"* nocapture) #0 align 2 {
  %2 = alloca %"class.mojo::Message", align 8
  %3 = getelementptr inbounds %"class.network::mojom::NetworkServiceTest_SetSCTAuditingRetryDelay_ProxyToResponder", %"class.network::mojom::NetworkServiceTest_SetSCTAuditingRetryDelay_ProxyToResponder"* %0, i64 0, i32 1
  %4 = load i8, i8* %3, align 8, !range !2
  %5 = icmp eq i8 %4, 0
  %6 = select i1 %5, i32 2, i32 6
  %7 = bitcast %"class.mojo::Message"* %2 to i8*
  call void @llvm.lifetime.start.p0i8(i64 120, i8* nonnull %7) #11
  call void @llvm.memset.p0i8.i64(i8* nonnull align 8 %7, i8 -86, i64 120, i1 false)
  call void @_ZN4mojo7MessageC1EjjmmPNSt3__16vectorINS_16ScopedHandleBaseINS_6HandleEEENS1_9allocatorIS5_EEEE(%"class.mojo::Message"* nonnull %2, i32 177127893, i32 %6, i64 0, i64 0, %"class.std::__1::vector.11"* null) #11
  %8 = getelementptr inbounds %"class.mojo::Message", %"class.mojo::Message"* %2, i64 0, i32 1
  %9 = call i64 @_ZN4mojo8internal6Buffer8AllocateEm(%"class.mojo::internal::Buffer"* %8, i64 8) #11
  %10 = getelementptr inbounds %"class.mojo::Message", %"class.mojo::Message"* %2, i64 0, i32 1, i32 2
  %11 = load i8*, i8** %10, align 8
  %12 = getelementptr inbounds i8, i8* %11, i64 %9
  %13 = bitcast i8* %12 to %"class.network::mojom::internal::NetworkServiceTest_SetSCTAuditingRetryDelay_ResponseParams_Data"*
  call void @_ZN7network5mojom8internal63NetworkServiceTest_SetSCTAuditingRetryDelay_ResponseParams_DataC1Ev(%"class.network::mojom::internal::NetworkServiceTest_SetSCTAuditingRetryDelay_ResponseParams_Data"* %13) #11
  %14 = getelementptr inbounds %"class.network::mojom::NetworkServiceTest_SetSCTAuditingRetryDelay_ProxyToResponder", %"class.network::mojom::NetworkServiceTest_SetSCTAuditingRetryDelay_ProxyToResponder"* %0, i64 0, i32 0
  %15 = load i64, i64* %14, align 8
  %16 = bitcast i8** %10 to %"struct.mojo::internal::MessageHeaderV1"**
  %17 = load %"struct.mojo::internal::MessageHeaderV1"*, %"struct.mojo::internal::MessageHeaderV1"** %16, align 8
  %18 = getelementptr inbounds %"struct.mojo::internal::MessageHeaderV1", %"struct.mojo::internal::MessageHeaderV1"* %17, i64 0, i32 1
  store i64 %15, i64* %18, align 1
  %19 = getelementptr inbounds %"class.network::mojom::NetworkServiceTest_SetSCTAuditingRetryDelay_ProxyToResponder", %"class.network::mojom::NetworkServiceTest_SetSCTAuditingRetryDelay_ProxyToResponder"* %0, i64 0, i32 2, i32 0, i32 0, i32 0
  %20 = load %"class.mojo::MessageReceiverWithStatus"*, %"class.mojo::MessageReceiverWithStatus"** %19, align 8
  %21 = getelementptr inbounds %"class.mojo::MessageReceiverWithStatus", %"class.mojo::MessageReceiverWithStatus"* %20, i64 0, i32 0
  %22 = bitcast %"class.mojo::MessageReceiverWithStatus"* %20 to i1 (%"class.mojo::MessageReceiver"*, %"class.mojo::Message"*)***
  %23 = load i1 (%"class.mojo::MessageReceiver"*, %"class.mojo::Message"*)**, i1 (%"class.mojo::MessageReceiver"*, %"class.mojo::Message"*)*** %22, align 8
  %24 = getelementptr inbounds i1 (%"class.mojo::MessageReceiver"*, %"class.mojo::Message"*)*, i1 (%"class.mojo::MessageReceiver"*, %"class.mojo::Message"*)** %23, i64 3
  %25 = load i1 (%"class.mojo::MessageReceiver"*, %"class.mojo::Message"*)*, i1 (%"class.mojo::MessageReceiver"*, %"class.mojo::Message"*)** %24, align 8
  %26 = call zeroext i1 %25(%"class.mojo::MessageReceiver"* %21, %"class.mojo::Message"* nonnull %2) #11
  %27 = load %"class.mojo::MessageReceiverWithStatus"*, %"class.mojo::MessageReceiverWithStatus"** %19, align 8
  store %"class.mojo::MessageReceiverWithStatus"* null, %"class.mojo::MessageReceiverWithStatus"** %19, align 8
  %28 = icmp eq %"class.mojo::MessageReceiverWithStatus"* %27, null
  br i1 %28, label %34, label %29

29:                                               ; preds = %1
  %30 = bitcast %"class.mojo::MessageReceiverWithStatus"* %27 to void (%"class.mojo::MessageReceiverWithStatus"*)***
  %31 = load void (%"class.mojo::MessageReceiverWithStatus"*)**, void (%"class.mojo::MessageReceiverWithStatus"*)*** %30, align 8
  %32 = getelementptr inbounds void (%"class.mojo::MessageReceiverWithStatus"*)*, void (%"class.mojo::MessageReceiverWithStatus"*)** %31, i64 1
  %33 = load void (%"class.mojo::MessageReceiverWithStatus"*)*, void (%"class.mojo::MessageReceiverWithStatus"*)** %32, align 8
  call void %33(%"class.mojo::MessageReceiverWithStatus"* nonnull %27) #11
  br label %34

34:                                               ; preds = %1, %29
  call void @_ZN4mojo7MessageD1Ev(%"class.mojo::Message"* nonnull %2) #11
  call void @llvm.lifetime.end.p0i8(i64 120, i8* nonnull %7) #11
  ret void
}

; Function Attrs: nounwind ssp uwtable
define hidden zeroext i1 @_ZN7network5mojom62NetworkServiceTest_SetSCTAuditingRetryDelay_HandleSyncResponse6AcceptEPN4mojo7MessageE(%"class.network::mojom::NetworkServiceTest_SetSCTAuditingRetryDelay_HandleSyncResponse"* nocapture readonly, %"class.mojo::Message"*) unnamed_addr #0 align 2 {
  %3 = tail call i8* @_ZNK4mojo7Message7payloadEv(%"class.mojo::Message"* %1) #11
  %4 = getelementptr inbounds %"class.network::mojom::NetworkServiceTest_SetSCTAuditingRetryDelay_HandleSyncResponse", %"class.network::mojom::NetworkServiceTest_SetSCTAuditingRetryDelay_HandleSyncResponse"* %0, i64 0, i32 1
  %5 = load i8*, i8** %4, align 8
  store i8 1, i8* %5, align 1
  ret i1 true
}

; Function Attrs: nounwind ssp uwtable
define hidden zeroext i1 @_ZN7network5mojom70NetworkServiceTest_GetSCTAuditingPendingReportsCount_ForwardToCallback6AcceptEPN4mojo7MessageE(%"class.network::mojom::NetworkServiceTest_GetSCTAuditingPendingReportsCount_ForwardToCallback"* nocapture, %"class.mojo::Message"*) unnamed_addr #0 align 2 {
  %3 = alloca %"class.base::OnceCallback.133", align 8
  %4 = tail call i8* @_ZNK4mojo7Message7payloadEv(%"class.mojo::Message"* %1) #11
  %5 = getelementptr inbounds %"class.network::mojom::NetworkServiceTest_GetSCTAuditingPendingReportsCount_ForwardToCallback", %"class.network::mojom::NetworkServiceTest_GetSCTAuditingPendingReportsCount_ForwardToCallback"* %0, i64 0, i32 1, i32 0, i32 0, i32 0
  %6 = load %"class.base::internal::BindStateBase"*, %"class.base::internal::BindStateBase"** %5, align 8
  %7 = icmp eq %"class.base::internal::BindStateBase"* %6, null
  br i1 %7, label %19, label %8

8:                                                ; preds = %2
  %9 = ptrtoint %"class.base::internal::BindStateBase"* %6 to i64
  %10 = getelementptr inbounds i8, i8* %4, i64 8
  %11 = bitcast i8* %10 to i64*
  %12 = load i64, i64* %11, align 8
  %13 = bitcast %"class.base::OnceCallback.133"* %3 to i8*
  call void @llvm.lifetime.start.p0i8(i64 8, i8* nonnull %13) #11
  %14 = bitcast %"class.base::OnceCallback.133"* %3 to i64*
  store i64 %9, i64* %14, align 8
  store %"class.base::internal::BindStateBase"* null, %"class.base::internal::BindStateBase"** %5, align 8
  %15 = getelementptr inbounds %"class.base::OnceCallback.133", %"class.base::OnceCallback.133"* %3, i64 0, i32 0
  %16 = getelementptr inbounds %"class.base::internal::BindStateBase", %"class.base::internal::BindStateBase"* %6, i64 0, i32 1
  %17 = bitcast void ()** %16 to void (%"class.base::internal::BindStateBase"*, i64)**
  %18 = load void (%"class.base::internal::BindStateBase"*, i64)*, void (%"class.base::internal::BindStateBase"*, i64)** %17, align 8
  tail call void %18(%"class.base::internal::BindStateBase"* nonnull %6, i64 %12) #11
  call void @_ZN4base8internal12CallbackBaseD2Ev(%"class.base::internal::CallbackBase"* nonnull %15) #11
  call void @llvm.lifetime.end.p0i8(i64 8, i8* nonnull %13) #11
  br label %19

19:                                               ; preds = %2, %8
  ret i1 true
}

; Function Attrs: nounwind ssp uwtable
define hidden void @_ZN7network5mojom69NetworkServiceTest_GetSCTAuditingPendingReportsCount_ProxyToResponder3RunEm(%"class.network::mojom::NetworkServiceTest_GetSCTAuditingPendingReportsCount_ProxyToResponder"* nocapture, i64) #0 align 2 {
  %3 = alloca %"class.mojo::Message", align 8
  %4 = getelementptr inbounds %"class.network::mojom::NetworkServiceTest_GetSCTAuditingPendingReportsCount_ProxyToResponder", %"class.network::mojom::NetworkServiceTest_GetSCTAuditingPendingReportsCount_ProxyToResponder"* %0, i64 0, i32 1
  %5 = load i8, i8* %4, align 8, !range !2
  %6 = icmp eq i8 %5, 0
  %7 = select i1 %6, i32 2, i32 6
  %8 = bitcast %"class.mojo::Message"* %3 to i8*
  call void @llvm.lifetime.start.p0i8(i64 120, i8* nonnull %8) #11
  call void @llvm.memset.p0i8.i64(i8* nonnull align 8 %8, i8 -86, i64 120, i1 false)
  call void @_ZN4mojo7MessageC1EjjmmPNSt3__16vectorINS_16ScopedHandleBaseINS_6HandleEEENS1_9allocatorIS5_EEEE(%"class.mojo::Message"* nonnull %3, i32 1623448593, i32 %7, i64 0, i64 0, %"class.std::__1::vector.11"* null) #11
  %9 = getelementptr inbounds %"class.mojo::Message", %"class.mojo::Message"* %3, i64 0, i32 1
  %10 = call i64 @_ZN4mojo8internal6Buffer8AllocateEm(%"class.mojo::internal::Buffer"* %9, i64 16) #11
  %11 = getelementptr inbounds %"class.mojo::Message", %"class.mojo::Message"* %3, i64 0, i32 1, i32 2
  %12 = load i8*, i8** %11, align 8
  %13 = getelementptr inbounds i8, i8* %12, i64 %10
  %14 = bitcast i8* %13 to %"class.network::mojom::internal::NetworkServiceTest_GetSCTAuditingPendingReportsCount_ResponseParams_Data"*
  call void @_ZN7network5mojom8internal72NetworkServiceTest_GetSCTAuditingPendingReportsCount_ResponseParams_DataC1Ev(%"class.network::mojom::internal::NetworkServiceTest_GetSCTAuditingPendingReportsCount_ResponseParams_Data"* %14) #11
  %15 = load i8*, i8** %11, align 8
  %16 = getelementptr inbounds i8, i8* %15, i64 %10
  %17 = getelementptr inbounds i8, i8* %16, i64 8
  %18 = bitcast i8* %17 to i64*
  store i64 %1, i64* %18, align 8
  %19 = getelementptr inbounds %"class.network::mojom::NetworkServiceTest_GetSCTAuditingPendingReportsCount_ProxyToResponder", %"class.network::mojom::NetworkServiceTest_GetSCTAuditingPendingReportsCount_ProxyToResponder"* %0, i64 0, i32 0
  %20 = load i64, i64* %19, align 8
  %21 = bitcast i8** %11 to %"struct.mojo::internal::MessageHeaderV1"**
  %22 = load %"struct.mojo::internal::MessageHeaderV1"*, %"struct.mojo::internal::MessageHeaderV1"** %21, align 8
  %23 = getelementptr inbounds %"struct.mojo::internal::MessageHeaderV1", %"struct.mojo::internal::MessageHeaderV1"* %22, i64 0, i32 1
  store i64 %20, i64* %23, align 1
  %24 = getelementptr inbounds %"class.network::mojom::NetworkServiceTest_GetSCTAuditingPendingReportsCount_ProxyToResponder", %"class.network::mojom::NetworkServiceTest_GetSCTAuditingPendingReportsCount_ProxyToResponder"* %0, i64 0, i32 2, i32 0, i32 0, i32 0
  %25 = load %"class.mojo::MessageReceiverWithStatus"*, %"class.mojo::MessageReceiverWithStatus"** %24, align 8
  %26 = getelementptr inbounds %"class.mojo::MessageReceiverWithStatus", %"class.mojo::MessageReceiverWithStatus"* %25, i64 0, i32 0
  %27 = bitcast %"class.mojo::MessageReceiverWithStatus"* %25 to i1 (%"class.mojo::MessageReceiver"*, %"class.mojo::Message"*)***
  %28 = load i1 (%"class.mojo::MessageReceiver"*, %"class.mojo::Message"*)**, i1 (%"class.mojo::MessageReceiver"*, %"class.mojo::Message"*)*** %27, align 8
  %29 = getelementptr inbounds i1 (%"class.mojo::MessageReceiver"*, %"class.mojo::Message"*)*, i1 (%"class.mojo::MessageReceiver"*, %"class.mojo::Message"*)** %28, i64 3
  %30 = load i1 (%"class.mojo::MessageReceiver"*, %"class.mojo::Message"*)*, i1 (%"class.mojo::MessageReceiver"*, %"class.mojo::Message"*)** %29, align 8
  %31 = call zeroext i1 %30(%"class.mojo::MessageReceiver"* %26, %"class.mojo::Message"* nonnull %3) #11
  %32 = load %"class.mojo::MessageReceiverWithStatus"*, %"class.mojo::MessageReceiverWithStatus"** %24, align 8
  store %"class.mojo::MessageReceiverWithStatus"* null, %"class.mojo::MessageReceiverWithStatus"** %24, align 8
  %33 = icmp eq %"class.mojo::MessageReceiverWithStatus"* %32, null
  br i1 %33, label %39, label %34

34:                                               ; preds = %2
  %35 = bitcast %"class.mojo::MessageReceiverWithStatus"* %32 to void (%"class.mojo::MessageReceiverWithStatus"*)***
  %36 = load void (%"class.mojo::MessageReceiverWithStatus"*)**, void (%"class.mojo::MessageReceiverWithStatus"*)*** %35, align 8
  %37 = getelementptr inbounds void (%"class.mojo::MessageReceiverWithStatus"*)*, void (%"class.mojo::MessageReceiverWithStatus"*)** %36, i64 1
  %38 = load void (%"class.mojo::MessageReceiverWithStatus"*)*, void (%"class.mojo::MessageReceiverWithStatus"*)** %37, align 8
  call void %38(%"class.mojo::MessageReceiverWithStatus"* nonnull %32) #11
  br label %39

39:                                               ; preds = %2, %34
  call void @_ZN4mojo7MessageD1Ev(%"class.mojo::Message"* nonnull %3) #11
  call void @llvm.lifetime.end.p0i8(i64 120, i8* nonnull %8) #11
  ret void
}

; Function Attrs: nounwind ssp uwtable
define hidden zeroext i1 @_ZN7network5mojom71NetworkServiceTest_GetSCTAuditingPendingReportsCount_HandleSyncResponse6AcceptEPN4mojo7MessageE(%"class.network::mojom::NetworkServiceTest_GetSCTAuditingPendingReportsCount_HandleSyncResponse"* nocapture readonly, %"class.mojo::Message"*) unnamed_addr #0 align 2 {
  %3 = tail call i8* @_ZNK4mojo7Message7payloadEv(%"class.mojo::Message"* %1) #11
  %4 = getelementptr inbounds i8, i8* %3, i64 8
  %5 = bitcast i8* %4 to i64*
  %6 = load i64, i64* %5, align 8
  %7 = getelementptr inbounds %"class.network::mojom::NetworkServiceTest_GetSCTAuditingPendingReportsCount_HandleSyncResponse", %"class.network::mojom::NetworkServiceTest_GetSCTAuditingPendingReportsCount_HandleSyncResponse"* %0, i64 0, i32 2
  %8 = load i64*, i64** %7, align 8
  store i64 %6, i64* %8, align 8
  %9 = getelementptr inbounds %"class.network::mojom::NetworkServiceTest_GetSCTAuditingPendingReportsCount_HandleSyncResponse", %"class.network::mojom::NetworkServiceTest_GetSCTAuditingPendingReportsCount_HandleSyncResponse"* %0, i64 0, i32 1
  %10 = load i8*, i8** %9, align 8
  store i8 1, i8* %10, align 1
  ret i1 true
}

; Function Attrs: nounwind ssp uwtable
define hidden zeroext i1 @_ZN7network5mojom75NetworkServiceTest_SetSCTAuditingReportCompletionCallback_ForwardToCallback6AcceptEPN4mojo7MessageE(%"class.network::mojom::NetworkServiceTest_SetSCTAuditingReportCompletionCallback_ForwardToCallback"* nocapture, %"class.mojo::Message"*) unnamed_addr #0 align 2 {
  %3 = alloca %"class.base::OnceCallback", align 8
  %4 = tail call i8* @_ZNK4mojo7Message7payloadEv(%"class.mojo::Message"* %1) #11
  %5 = getelementptr inbounds %"class.network::mojom::NetworkServiceTest_SetSCTAuditingReportCompletionCallback_ForwardToCallback", %"class.network::mojom::NetworkServiceTest_SetSCTAuditingReportCompletionCallback_ForwardToCallback"* %0, i64 0, i32 1, i32 0, i32 0, i32 0
  %6 = load %"class.base::internal::BindStateBase"*, %"class.base::internal::BindStateBase"** %5, align 8
  %7 = icmp eq %"class.base::internal::BindStateBase"* %6, null
  br i1 %7, label %16, label %8

8:                                                ; preds = %2
  %9 = ptrtoint %"class.base::internal::BindStateBase"* %6 to i64
  %10 = bitcast %"class.base::OnceCallback"* %3 to i8*
  call void @llvm.lifetime.start.p0i8(i64 8, i8* nonnull %10) #11
  %11 = bitcast %"class.base::OnceCallback"* %3 to i64*
  store i64 %9, i64* %11, align 8
  store %"class.base::internal::BindStateBase"* null, %"class.base::internal::BindStateBase"** %5, align 8
  %12 = getelementptr inbounds %"class.base::OnceCallback", %"class.base::OnceCallback"* %3, i64 0, i32 0
  %13 = getelementptr inbounds %"class.base::internal::BindStateBase", %"class.base::internal::BindStateBase"* %6, i64 0, i32 1
  %14 = bitcast void ()** %13 to void (%"class.base::internal::BindStateBase"*)**
  %15 = load void (%"class.base::internal::BindStateBase"*)*, void (%"class.base::internal::BindStateBase"*)** %14, align 8
  tail call void %15(%"class.base::internal::BindStateBase"* nonnull %6) #11
  call void @_ZN4base8internal12CallbackBaseD2Ev(%"class.base::internal::CallbackBase"* nonnull %12) #11
  call void @llvm.lifetime.end.p0i8(i64 8, i8* nonnull %10) #11
  br label %16

16:                                               ; preds = %2, %8
  ret i1 true
}

; Function Attrs: nounwind ssp uwtable
define hidden void @_ZN7network5mojom74NetworkServiceTest_SetSCTAuditingReportCompletionCallback_ProxyToResponder3RunEv(%"class.network::mojom::NetworkServiceTest_SetSCTAuditingReportCompletionCallback_ProxyToResponder"* nocapture) #0 align 2 {
  %2 = alloca %"class.mojo::Message", align 8
  %3 = getelementptr inbounds %"class.network::mojom::NetworkServiceTest_SetSCTAuditingReportCompletionCallback_ProxyToResponder", %"class.network::mojom::NetworkServiceTest_SetSCTAuditingReportCompletionCallback_ProxyToResponder"* %0, i64 0, i32 1
  %4 = load i8, i8* %3, align 8, !range !2
  %5 = icmp eq i8 %4, 0
  %6 = select i1 %5, i32 2, i32 6
  %7 = bitcast %"class.mojo::Message"* %2 to i8*
  call void @llvm.lifetime.start.p0i8(i64 120, i8* nonnull %7) #11
  call void @llvm.memset.p0i8.i64(i8* nonnull align 8 %7, i8 -86, i64 120, i1 false)
  call void @_ZN4mojo7MessageC1EjjmmPNSt3__16vectorINS_16ScopedHandleBaseINS_6HandleEEENS1_9allocatorIS5_EEEE(%"class.mojo::Message"* nonnull %2, i32 1816001466, i32 %6, i64 0, i64 0, %"class.std::__1::vector.11"* null) #11
  %8 = getelementptr inbounds %"class.mojo::Message", %"class.mojo::Message"* %2, i64 0, i32 1
  %9 = call i64 @_ZN4mojo8internal6Buffer8AllocateEm(%"class.mojo::internal::Buffer"* %8, i64 8) #11
  %10 = getelementptr inbounds %"class.mojo::Message", %"class.mojo::Message"* %2, i64 0, i32 1, i32 2
  %11 = load i8*, i8** %10, align 8
  %12 = getelementptr inbounds i8, i8* %11, i64 %9
  %13 = bitcast i8* %12 to %"class.network::mojom::internal::NetworkServiceTest_SetSCTAuditingReportCompletionCallback_ResponseParams_Data"*
  call void @_ZN7network5mojom8internal77NetworkServiceTest_SetSCTAuditingReportCompletionCallback_ResponseParams_DataC1Ev(%"class.network::mojom::internal::NetworkServiceTest_SetSCTAuditingReportCompletionCallback_ResponseParams_Data"* %13) #11
  %14 = getelementptr inbounds %"class.network::mojom::NetworkServiceTest_SetSCTAuditingReportCompletionCallback_ProxyToResponder", %"class.network::mojom::NetworkServiceTest_SetSCTAuditingReportCompletionCallback_ProxyToResponder"* %0, i64 0, i32 0
  %15 = load i64, i64* %14, align 8
  %16 = bitcast i8** %10 to %"struct.mojo::internal::MessageHeaderV1"**
  %17 = load %"struct.mojo::internal::MessageHeaderV1"*, %"struct.mojo::internal::MessageHeaderV1"** %16, align 8
  %18 = getelementptr inbounds %"struct.mojo::internal::MessageHeaderV1", %"struct.mojo::internal::MessageHeaderV1"* %17, i64 0, i32 1
  store i64 %15, i64* %18, align 1
  %19 = getelementptr inbounds %"class.network::mojom::NetworkServiceTest_SetSCTAuditingReportCompletionCallback_ProxyToResponder", %"class.network::mojom::NetworkServiceTest_SetSCTAuditingReportCompletionCallback_ProxyToResponder"* %0, i64 0, i32 2, i32 0, i32 0, i32 0
  %20 = load %"class.mojo::MessageReceiverWithStatus"*, %"class.mojo::MessageReceiverWithStatus"** %19, align 8
  %21 = getelementptr inbounds %"class.mojo::MessageReceiverWithStatus", %"class.mojo::MessageReceiverWithStatus"* %20, i64 0, i32 0
  %22 = bitcast %"class.mojo::MessageReceiverWithStatus"* %20 to i1 (%"class.mojo::MessageReceiver"*, %"class.mojo::Message"*)***
  %23 = load i1 (%"class.mojo::MessageReceiver"*, %"class.mojo::Message"*)**, i1 (%"class.mojo::MessageReceiver"*, %"class.mojo::Message"*)*** %22, align 8
  %24 = getelementptr inbounds i1 (%"class.mojo::MessageReceiver"*, %"class.mojo::Message"*)*, i1 (%"class.mojo::MessageReceiver"*, %"class.mojo::Message"*)** %23, i64 3
  %25 = load i1 (%"class.mojo::MessageReceiver"*, %"class.mojo::Message"*)*, i1 (%"class.mojo::MessageReceiver"*, %"class.mojo::Message"*)** %24, align 8
  %26 = call zeroext i1 %25(%"class.mojo::MessageReceiver"* %21, %"class.mojo::Message"* nonnull %2) #11
  %27 = load %"class.mojo::MessageReceiverWithStatus"*, %"class.mojo::MessageReceiverWithStatus"** %19, align 8
  store %"class.mojo::MessageReceiverWithStatus"* null, %"class.mojo::MessageReceiverWithStatus"** %19, align 8
  %28 = icmp eq %"class.mojo::MessageReceiverWithStatus"* %27, null
  br i1 %28, label %34, label %29

29:                                               ; preds = %1
  %30 = bitcast %"class.mojo::MessageReceiverWithStatus"* %27 to void (%"class.mojo::MessageReceiverWithStatus"*)***
  %31 = load void (%"class.mojo::MessageReceiverWithStatus"*)**, void (%"class.mojo::MessageReceiverWithStatus"*)*** %30, align 8
  %32 = getelementptr inbounds void (%"class.mojo::MessageReceiverWithStatus"*)*, void (%"class.mojo::MessageReceiverWithStatus"*)** %31, i64 1
  %33 = load void (%"class.mojo::MessageReceiverWithStatus"*)*, void (%"class.mojo::MessageReceiverWithStatus"*)** %32, align 8
  call void %33(%"class.mojo::MessageReceiverWithStatus"* nonnull %27) #11
  br label %34

34:                                               ; preds = %1, %29
  call void @_ZN4mojo7MessageD1Ev(%"class.mojo::Message"* nonnull %2) #11
  call void @llvm.lifetime.end.p0i8(i64 120, i8* nonnull %7) #11
  ret void
}

; Function Attrs: nounwind ssp uwtable
define hidden zeroext i1 @_ZN7network5mojom30NetworkServiceTestStubDispatch6AcceptEPNS0_18NetworkServiceTestEPN4mojo7MessageE(%"class.network::mojom::NetworkServiceTest"*, %"class.mojo::Message"*) local_unnamed_addr #0 align 2 {
  %3 = alloca %"class.base::TaskAnnotator::ScopedSetIpcHash", align 8
  %4 = alloca %"class.base::TaskAnnotator::ScopedSetIpcHash", align 8
  %5 = alloca %"class.std::__1::basic_string", align 8
  %6 = alloca %"class.base::TaskAnnotator::ScopedSetIpcHash", align 8
  %7 = alloca %"class.base::TaskAnnotator::ScopedSetIpcHash", align 8
  %8 = alloca %"class.std::__1::basic_string", align 8
  %9 = getelementptr inbounds %"class.mojo::Message", %"class.mojo::Message"* %1, i64 0, i32 1, i32 2
  %10 = bitcast i8** %9 to %"struct.mojo::internal::MessageHeader"**
  %11 = load %"struct.mojo::internal::MessageHeader"*, %"struct.mojo::internal::MessageHeader"** %10, align 8
  %12 = getelementptr inbounds %"struct.mojo::internal::MessageHeader", %"struct.mojo::internal::MessageHeader"* %11, i64 0, i32 2
  %13 = load i32, i32* %12, align 1
  switch i32 %13, label %141 [
    i32 12603606, label %83
    i32 1923533677, label %76
    i32 1259990622, label %21
    i32 1355754339, label %14
  ]

14:                                               ; preds = %2
  %15 = bitcast %"class.base::TaskAnnotator::ScopedSetIpcHash"* %3 to i8*
  call void @llvm.lifetime.start.p0i8(i64 24, i8* nonnull %15) #11
  call void @llvm.memset.p0i8.i64(i8* nonnull align 8 %15, i8 -86, i64 24, i1 false)
  call void @_ZN4base13TaskAnnotator16ScopedSetIpcHashC1Ej(%"class.base::TaskAnnotator::ScopedSetIpcHash"* nonnull %3, i32 1270529292) #11
  %16 = call i8* @_ZNK4mojo7Message7payloadEv(%"class.mojo::Message"* %1) #11
  %17 = bitcast %"class.network::mojom::NetworkServiceTest"* %0 to void (%"class.network::mojom::NetworkServiceTest"*)***
  %18 = load void (%"class.network::mojom::NetworkServiceTest"*)**, void (%"class.network::mojom::NetworkServiceTest"*)*** %17, align 8
  %19 = getelementptr inbounds void (%"class.network::mojom::NetworkServiceTest"*)*, void (%"class.network::mojom::NetworkServiceTest"*)** %18, i64 6
  %20 = load void (%"class.network::mojom::NetworkServiceTest"*)*, void (%"class.network::mojom::NetworkServiceTest"*)** %19, align 8
  call void %20(%"class.network::mojom::NetworkServiceTest"* %0) #11
  br label %138

21:                                               ; preds = %2
  %22 = bitcast %"class.base::TaskAnnotator::ScopedSetIpcHash"* %4 to i8*
  call void @llvm.lifetime.start.p0i8(i64 24, i8* nonnull %22) #11
  call void @llvm.memset.p0i8.i64(i8* nonnull align 8 %22, i8 -86, i64 24, i1 false)
  call void @_ZN4base13TaskAnnotator16ScopedSetIpcHashC1Ej(%"class.base::TaskAnnotator::ScopedSetIpcHash"* nonnull %4, i32 -326734629) #11
  %23 = call i8* @_ZNK4mojo7Message7payloadEv(%"class.mojo::Message"* %1) #11
  %24 = bitcast %"class.std::__1::basic_string"* %5 to i8*
  call void @llvm.lifetime.start.p0i8(i64 24, i8* nonnull %24) #11
  %25 = getelementptr inbounds %"class.std::__1::basic_string", %"class.std::__1::basic_string"* %5, i64 0, i32 0, i32 0, i32 0, i32 0, i32 0, i32 0
  %26 = getelementptr inbounds %"class.std::__1::basic_string", %"class.std::__1::basic_string"* %5, i64 0, i32 0, i32 0, i32 0, i32 0, i32 0, i32 1
  call void @llvm.memset.p0i8.i64(i8* nonnull align 8 %24, i8 0, i64 24, i1 false) #11
  %27 = getelementptr inbounds i8, i8* %23, i64 8
  %28 = bitcast i8* %27 to i64*
  %29 = load i64, i64* %28, align 8
  %30 = icmp eq i64 %29, 0
  %31 = getelementptr inbounds i8, i8* %27, i64 %29
  br i1 %30, label %64, label %32

32:                                               ; preds = %21
  %33 = getelementptr inbounds i8, i8* %31, i64 8
  %34 = getelementptr inbounds i8, i8* %31, i64 4
  %35 = bitcast i8* %34 to i32*
  %36 = load i32, i32* %35, align 1
  %37 = zext i32 %36 to i64
  %38 = call i1 @llvm.is.constant.i64(i64 %37) #11
  %39 = icmp ult i32 %36, 23
  %40 = and i1 %39, %38
  br i1 %40, label %41, label %49

41:                                               ; preds = %32
  %42 = bitcast %"class.std::__1::basic_string"* %5 to %"struct.std::__1::basic_string<char, std::__1::char_traits<char>, std::__1::allocator<char> >::__short"*
  %43 = getelementptr inbounds %"struct.std::__1::basic_string<char, std::__1::char_traits<char>, std::__1::allocator<char> >::__short", %"struct.std::__1::basic_string<char, std::__1::char_traits<char>, std::__1::allocator<char> >::__short"* %42, i64 0, i32 1, i32 0
  %44 = trunc i32 %36 to i8
  store i8 %44, i8* %43, align 1
  %45 = icmp eq i32 %36, 0
  br i1 %45, label %47, label %46

46:                                               ; preds = %41
  call void @llvm.memmove.p0i8.p0i8.i64(i8* nonnull align 8 %24, i8* align 1 %33, i64 %37, i1 false) #11
  br label %47

47:                                               ; preds = %46, %41
  %48 = getelementptr inbounds i8, i8* %24, i64 %37
  store i8 0, i8* %48, align 1
  br label %52

49:                                               ; preds = %32
  %50 = call dereferenceable(24) %"class.std::__1::basic_string"* @_ZNSt3__112basic_stringIcNS_11char_traitsIcEENS_9allocatorIcEEE17__assign_externalEPKcm(%"class.std::__1::basic_string"* nonnull %5, i8* %33, i64 %37) #11
  %51 = bitcast %"class.std::__1::basic_string"* %5 to %"struct.std::__1::basic_string<char, std::__1::char_traits<char>, std::__1::allocator<char> >::__short"*
  br label %52

52:                                               ; preds = %49, %47
  %53 = phi %"struct.std::__1::basic_string<char, std::__1::char_traits<char>, std::__1::allocator<char> >::__short"* [ %51, %49 ], [ %42, %47 ]
  %54 = getelementptr inbounds %"struct.std::__1::basic_string<char, std::__1::char_traits<char>, std::__1::allocator<char> >::__short", %"struct.std::__1::basic_string<char, std::__1::char_traits<char>, std::__1::allocator<char> >::__short"* %53, i64 0, i32 1, i32 0
  %55 = load i8, i8* %54, align 1
  %56 = icmp slt i8 %55, 0
  %57 = load i8*, i8** %25, align 8
  %58 = select i1 %56, i8* %57, i8* %24
  %59 = load i64, i64* %26, align 8
  %60 = zext i8 %55 to i64
  %61 = select i1 %56, i64 %59, i64 %60
  %62 = call zeroext i1 @_ZN4base12IsStringUTF8ENS_16BasicStringPieceIcNSt3__111char_traitsIcEEEE(i8* %58, i64 %61) #11
  br i1 %62, label %64, label %63

63:                                               ; preds = %52
  call void @_ZN4mojo8internal34RecordInvalidStringDeserializationEv() #11
  br label %64

64:                                               ; preds = %21, %52, %63
  %65 = bitcast %"class.network::mojom::NetworkServiceTest"* %0 to void (%"class.network::mojom::NetworkServiceTest"*, %"class.std::__1::basic_string"*)***
  %66 = load void (%"class.network::mojom::NetworkServiceTest"*, %"class.std::__1::basic_string"*)**, void (%"class.network::mojom::NetworkServiceTest"*, %"class.std::__1::basic_string"*)*** %65, align 8
  %67 = getelementptr inbounds void (%"class.network::mojom::NetworkServiceTest"*, %"class.std::__1::basic_string"*)*, void (%"class.network::mojom::NetworkServiceTest"*, %"class.std::__1::basic_string"*)** %66, i64 17
  %68 = load void (%"class.network::mojom::NetworkServiceTest"*, %"class.std::__1::basic_string"*)*, void (%"class.network::mojom::NetworkServiceTest"*, %"class.std::__1::basic_string"*)** %67, align 8
  call void %68(%"class.network::mojom::NetworkServiceTest"* %0, %"class.std::__1::basic_string"* nonnull dereferenceable(24) %5) #11
  %69 = bitcast %"class.std::__1::basic_string"* %5 to %"struct.std::__1::basic_string<char, std::__1::char_traits<char>, std::__1::allocator<char> >::__short"*
  %70 = getelementptr inbounds %"struct.std::__1::basic_string<char, std::__1::char_traits<char>, std::__1::allocator<char> >::__short", %"struct.std::__1::basic_string<char, std::__1::char_traits<char>, std::__1::allocator<char> >::__short"* %69, i64 0, i32 1, i32 0
  %71 = load i8, i8* %70, align 1
  %72 = icmp slt i8 %71, 0
  br i1 %72, label %73, label %75

73:                                               ; preds = %64
  %74 = load i8*, i8** %25, align 8
  call void @_ZdlPv(i8* %74) #12
  br label %75

75:                                               ; preds = %64, %73
  call void @llvm.lifetime.end.p0i8(i64 24, i8* nonnull %24) #11
  br label %138

76:                                               ; preds = %2
  %77 = bitcast %"class.base::TaskAnnotator::ScopedSetIpcHash"* %6 to i8*
  call void @llvm.lifetime.start.p0i8(i64 24, i8* nonnull %77) #11
  call void @llvm.memset.p0i8.i64(i8* nonnull align 8 %77, i8 -86, i64 24, i1 false)
  call void @_ZN4base13TaskAnnotator16ScopedSetIpcHashC1Ej(%"class.base::TaskAnnotator::ScopedSetIpcHash"* nonnull %6, i32 -1276690738) #11
  %78 = call i8* @_ZNK4mojo7Message7payloadEv(%"class.mojo::Message"* %1) #11
  %79 = bitcast %"class.network::mojom::NetworkServiceTest"* %0 to void (%"class.network::mojom::NetworkServiceTest"*)***
  %80 = load void (%"class.network::mojom::NetworkServiceTest"*)**, void (%"class.network::mojom::NetworkServiceTest"*)*** %79, align 8
  %81 = getelementptr inbounds void (%"class.network::mojom::NetworkServiceTest"*)*, void (%"class.network::mojom::NetworkServiceTest"*)** %80, i64 18
  %82 = load void (%"class.network::mojom::NetworkServiceTest"*)*, void (%"class.network::mojom::NetworkServiceTest"*)** %81, align 8
  call void %82(%"class.network::mojom::NetworkServiceTest"* %0) #11
  br label %138

83:                                               ; preds = %2
  %84 = bitcast %"class.base::TaskAnnotator::ScopedSetIpcHash"* %7 to i8*
  call void @llvm.lifetime.start.p0i8(i64 24, i8* nonnull %84) #11
  call void @llvm.memset.p0i8.i64(i8* nonnull align 8 %84, i8 -86, i64 24, i1 false)
  call void @_ZN4base13TaskAnnotator16ScopedSetIpcHashC1Ej(%"class.base::TaskAnnotator::ScopedSetIpcHash"* nonnull %7, i32 -88253815) #11
  %85 = call i8* @_ZNK4mojo7Message7payloadEv(%"class.mojo::Message"* %1) #11
  %86 = bitcast %"class.std::__1::basic_string"* %8 to i8*
  call void @llvm.lifetime.start.p0i8(i64 24, i8* nonnull %86) #11
  %87 = getelementptr inbounds %"class.std::__1::basic_string", %"class.std::__1::basic_string"* %8, i64 0, i32 0, i32 0, i32 0, i32 0, i32 0, i32 0
  %88 = getelementptr inbounds %"class.std::__1::basic_string", %"class.std::__1::basic_string"* %8, i64 0, i32 0, i32 0, i32 0, i32 0, i32 0, i32 1
  call void @llvm.memset.p0i8.i64(i8* nonnull align 8 %86, i8 0, i64 24, i1 false) #11
  %89 = getelementptr inbounds i8, i8* %85, i64 8
  %90 = bitcast i8* %89 to i64*
  %91 = load i64, i64* %90, align 8
  %92 = icmp eq i64 %91, 0
  %93 = getelementptr inbounds i8, i8* %89, i64 %91
  br i1 %92, label %126, label %94

94:                                               ; preds = %83
  %95 = getelementptr inbounds i8, i8* %93, i64 8
  %96 = getelementptr inbounds i8, i8* %93, i64 4
  %97 = bitcast i8* %96 to i32*
  %98 = load i32, i32* %97, align 1
  %99 = zext i32 %98 to i64
  %100 = call i1 @llvm.is.constant.i64(i64 %99) #11
  %101 = icmp ult i32 %98, 23
  %102 = and i1 %101, %100
  br i1 %102, label %103, label %111

103:                                              ; preds = %94
  %104 = bitcast %"class.std::__1::basic_string"* %8 to %"struct.std::__1::basic_string<char, std::__1::char_traits<char>, std::__1::allocator<char> >::__short"*
  %105 = getelementptr inbounds %"struct.std::__1::basic_string<char, std::__1::char_traits<char>, std::__1::allocator<char> >::__short", %"struct.std::__1::basic_string<char, std::__1::char_traits<char>, std::__1::allocator<char> >::__short"* %104, i64 0, i32 1, i32 0
  %106 = trunc i32 %98 to i8
  store i8 %106, i8* %105, align 1
  %107 = icmp eq i32 %98, 0
  br i1 %107, label %109, label %108

108:                                              ; preds = %103
  call void @llvm.memmove.p0i8.p0i8.i64(i8* nonnull align 8 %86, i8* align 1 %95, i64 %99, i1 false) #11
  br label %109

109:                                              ; preds = %108, %103
  %110 = getelementptr inbounds i8, i8* %86, i64 %99
  store i8 0, i8* %110, align 1
  br label %114

111:                                              ; preds = %94
  %112 = call dereferenceable(24) %"class.std::__1::basic_string"* @_ZNSt3__112basic_stringIcNS_11char_traitsIcEENS_9allocatorIcEEE17__assign_externalEPKcm(%"class.std::__1::basic_string"* nonnull %8, i8* %95, i64 %99) #11
  %113 = bitcast %"class.std::__1::basic_string"* %8 to %"struct.std::__1::basic_string<char, std::__1::char_traits<char>, std::__1::allocator<char> >::__short"*
  br label %114

114:                                              ; preds = %111, %109
  %115 = phi %"struct.std::__1::basic_string<char, std::__1::char_traits<char>, std::__1::allocator<char> >::__short"* [ %113, %111 ], [ %104, %109 ]
  %116 = getelementptr inbounds %"struct.std::__1::basic_string<char, std::__1::char_traits<char>, std::__1::allocator<char> >::__short", %"struct.std::__1::basic_string<char, std::__1::char_traits<char>, std::__1::allocator<char> >::__short"* %115, i64 0, i32 1, i32 0
  %117 = load i8, i8* %116, align 1
  %118 = icmp slt i8 %117, 0
  %119 = load i8*, i8** %87, align 8
  %120 = select i1 %118, i8* %119, i8* %86
  %121 = load i64, i64* %88, align 8
  %122 = zext i8 %117 to i64
  %123 = select i1 %118, i64 %121, i64 %122
  %124 = call zeroext i1 @_ZN4base12IsStringUTF8ENS_16BasicStringPieceIcNSt3__111char_traitsIcEEEE(i8* %120, i64 %123) #11
  br i1 %124, label %126, label %125

125:                                              ; preds = %114
  call void @_ZN4mojo8internal34RecordInvalidStringDeserializationEv() #11
  br label %126

126:                                              ; preds = %83, %114, %125
  %127 = bitcast %"class.network::mojom::NetworkServiceTest"* %0 to void (%"class.network::mojom::NetworkServiceTest"*, %"class.std::__1::basic_string"*)***
  %128 = load void (%"class.network::mojom::NetworkServiceTest"*, %"class.std::__1::basic_string"*)**, void (%"class.network::mojom::NetworkServiceTest"*, %"class.std::__1::basic_string"*)*** %127, align 8
  %129 = getelementptr inbounds void (%"class.network::mojom::NetworkServiceTest"*, %"class.std::__1::basic_string"*)*, void (%"class.network::mojom::NetworkServiceTest"*, %"class.std::__1::basic_string"*)** %128, i64 27
  %130 = load void (%"class.network::mojom::NetworkServiceTest"*, %"class.std::__1::basic_string"*)*, void (%"class.network::mojom::NetworkServiceTest"*, %"class.std::__1::basic_string"*)** %129, align 8
  call void %130(%"class.network::mojom::NetworkServiceTest"* %0, %"class.std::__1::basic_string"* nonnull dereferenceable(24) %8) #11
  %131 = bitcast %"class.std::__1::basic_string"* %8 to %"struct.std::__1::basic_string<char, std::__1::char_traits<char>, std::__1::allocator<char> >::__short"*
  %132 = getelementptr inbounds %"struct.std::__1::basic_string<char, std::__1::char_traits<char>, std::__1::allocator<char> >::__short", %"struct.std::__1::basic_string<char, std::__1::char_traits<char>, std::__1::allocator<char> >::__short"* %131, i64 0, i32 1, i32 0
  %133 = load i8, i8* %132, align 1
  %134 = icmp slt i8 %133, 0
  br i1 %134, label %135, label %137

135:                                              ; preds = %126
  %136 = load i8*, i8** %87, align 8
  call void @_ZdlPv(i8* %136) #12
  br label %137

137:                                              ; preds = %126, %135
  call void @llvm.lifetime.end.p0i8(i64 24, i8* nonnull %86) #11
  br label %138

138:                                              ; preds = %14, %75, %76, %137
  %139 = phi %"class.base::TaskAnnotator::ScopedSetIpcHash"* [ %7, %137 ], [ %6, %76 ], [ %4, %75 ], [ %3, %14 ]
  %140 = phi i8* [ %84, %137 ], [ %77, %76 ], [ %22, %75 ], [ %15, %14 ]
  call void @_ZN4base13TaskAnnotator16ScopedSetIpcHashD1Ev(%"class.base::TaskAnnotator::ScopedSetIpcHash"* nonnull %139) #11
  call void @llvm.lifetime.end.p0i8(i64 24, i8* nonnull %140) #11
  br label %141

141:                                              ; preds = %138, %2
  %142 = phi i1 [ false, %2 ], [ true, %138 ]
  ret i1 %142
}

declare void @_ZN4base13TaskAnnotator16ScopedSetIpcHashC1Ej(%"class.base::TaskAnnotator::ScopedSetIpcHash"*, i32) unnamed_addr #2

; Function Attrs: nounwind
declare void @_ZN4base13TaskAnnotator16ScopedSetIpcHashD1Ev(%"class.base::TaskAnnotator::ScopedSetIpcHash"*) unnamed_addr #6

; Function Attrs: nounwind ssp uwtable
define hidden zeroext i1 @_ZN7network5mojom30NetworkServiceTestStubDispatch19AcceptWithResponderEPNS0_18NetworkServiceTestEPN4mojo7MessageENSt3__110unique_ptrINS4_25MessageReceiverWithStatusENS7_14default_deleteIS9_EEEE(%"class.network::mojom::NetworkServiceTest"*, %"class.mojo::Message"*, %"class.mojo::MessageReceiverWithStatus"*) local_unnamed_addr #0 align 2 {
  %4 = alloca %"struct.mojo::internal::NativeEnumSerializerImpl<net::EffectiveConnectionType>::PickleData", align 4
  %5 = alloca %"class.base::Pickle", align 8
  %6 = alloca %"class.base::PickleIterator", align 8
  %7 = alloca %"class.base::TaskAnnotator::ScopedSetIpcHash", align 8
  %8 = alloca %"class.std::__1::vector.37", align 16
  %9 = alloca %"class.base::OnceCallback", align 8
  %10 = alloca %"class.std::__1::vector.37", align 16
  %11 = alloca %"class.base::OnceCallback", align 8
  %12 = alloca %"class.base::TaskAnnotator::ScopedSetIpcHash", align 8
  %13 = alloca %"class.base::OnceCallback", align 8
  %14 = alloca %"class.base::OnceCallback", align 8
  %15 = alloca %"class.base::TaskAnnotator::ScopedSetIpcHash", align 8
  %16 = alloca i32, align 4
  %17 = alloca %"class.base::OnceCallback", align 8
  %18 = alloca %"class.base::OnceCallback", align 8
  %19 = alloca %"class.base::TaskAnnotator::ScopedSetIpcHash", align 8
  %20 = alloca %"class.base::OnceCallback", align 8
  %21 = alloca %"class.base::OnceCallback", align 8
  %22 = alloca %"class.base::TaskAnnotator::ScopedSetIpcHash", align 8
  %23 = alloca %class.scoped_refptr.47, align 8
