; ModuleID = '../../extensions/browser/api/networking_private/network_config_dbus_constants_linux.cc'
source_filename = "../../extensions/browser/api/networking_private/network_config_dbus_constants_linux.cc"
target datalayout = "e-m:e-i64:64-f80:128-n8:16:32:64-S128"
target triple = "x86_64-unknown-linux-gnu"

@_ZN10extensions18networking_private19kNetworkManagerPathE = hidden local_unnamed_addr constant [32 x i8] c"/org/freedesktop/NetworkManager\00", align 16
@_ZN10extensions18networking_private24kNetworkManagerNamespaceE = hidden local_unnamed_addr constant [31 x i8] c"org.freedesktop.NetworkManager\00", align 16
@_ZN10extensions18networking_private35kNetworkManagerAccessPointNamespaceE = hidden local_unnamed_addr constant [43 x i8] c"org.freedesktop.NetworkManager.AccessPoint\00", align 16
@_ZN10extensions18networking_private40kNetworkManagerActiveConnectionNamespaceE = hidden local_unnamed_addr constant [49 x i8] c"org.freedesktop.NetworkManager.Connection.Active\00", align 16
@_ZN10extensions18networking_private30kNetworkManagerDeviceNamespaceE = hidden local_unnamed_addr constant [38 x i8] c"org.freedesktop.NetworkManager.Device\00", align 16
@_ZN10extensions18networking_private38kNetworkManagerWirelessDeviceNamespaceE = hidden local_unnamed_addr constant [47 x i8] c"org.freedesktop.NetworkManager.Device.Wireless\00", align 16
@_ZN10extensions18networking_private32kNetworkManagerActiveConnectionsE = hidden local_unnamed_addr constant [18 x i8] c"ActiveConnections\00", align 16
@_ZN10extensions18networking_private29kNetworkManagerSpecificObjectE = hidden local_unnamed_addr constant [15 x i8] c"SpecificObject\00", align 1
@_ZN10extensions18networking_private25kNetworkManagerDeviceTypeE = hidden local_unnamed_addr constant [11 x i8] c"DeviceType\00", align 1
@_ZN10extensions18networking_private31kNetworkManagerGetDevicesMethodE = hidden local_unnamed_addr constant [11 x i8] c"GetDevices\00", align 1
@_ZN10extensions18networking_private36kNetworkManagerGetAccessPointsMethodE = hidden local_unnamed_addr constant [16 x i8] c"GetAccessPoints\00", align 16
@_ZN10extensions18networking_private31kNetworkManagerDisconnectMethodE = hidden local_unnamed_addr constant [11 x i8] c"Disconnect\00", align 1
@_ZN10extensions18networking_private45kNetworkManagerAddAndActivateConnectionMethodE = hidden local_unnamed_addr constant [25 x i8] c"AddAndActivateConnection\00", align 16
@_ZN10extensions18networking_private24kNetworkManagerGetMethodE = hidden local_unnamed_addr constant [4 x i8] c"Get\00", align 1
@_ZN10extensions18networking_private27kNetworkManagerSsidPropertyE = hidden local_unnamed_addr constant [5 x i8] c"Ssid\00", align 1
@_ZN10extensions18networking_private31kNetworkManagerStrengthPropertyE = hidden local_unnamed_addr constant [9 x i8] c"Strength\00", align 1
@_ZN10extensions18networking_private31kNetworkManagerRsnFlagsPropertyE = hidden local_unnamed_addr constant [9 x i8] c"RsnFlags\00", align 1
@_ZN10extensions18networking_private31kNetworkManagerWpaFlagsPropertyE = hidden local_unnamed_addr constant [9 x i8] c"WpaFlags\00", align 1
@_ZN10extensions18networking_private44kNetworkManagerConnectionConfig80211WirelessE = hidden local_unnamed_addr constant [16 x i8] c"802-11-wireless\00", align 16
@_ZN10extensions18networking_private35kNetworkManagerConnectionConfigSsidE = hidden local_unnamed_addr constant [5 x i8] c"ssid\00", align 1

!llvm.module.flags = !{!0, !1}

!0 = !{i32 1, !"wchar_size", i32 4}
!1 = !{i32 7, !"PIC Level", i32 2}
