; ModuleID = '../../services/network/public/cpp/network_connection_tracker.cc'
source_filename = "../../services/network/public/cpp/network_connection_tracker.cc"
target datalayout = "e-m:e-i64:64-f80:128-n8:16:32:64-S128"
target triple = "x86_64-unknown-linux-gnu"

module asm ".symver exp, exp@GLIBC_2.2.5"
module asm ".symver exp2, exp2@GLIBC_2.2.5"
module asm ".symver exp2f, exp2f@GLIBC_2.2.5"
module asm ".symver expf, expf@GLIBC_2.2.5"
module asm ".symver lgamma, lgamma@GLIBC_2.2.5"
module asm ".symver lgammaf, lgammaf@GLIBC_2.2.5"
module asm ".symver lgammal, lgammal@GLIBC_2.2.5"
module asm ".symver log, log@GLIBC_2.2.5"
module asm ".symver log2, log2@GLIBC_2.2.5"
module asm ".symver log2f, log2f@GLIBC_2.2.5"
module asm ".symver logf, logf@GLIBC_2.2.5"
module asm ".symver pow, pow@GLIBC_2.2.5"
module asm ".symver powf, powf@GLIBC_2.2.5"

%"class.base::LazyInstance" = type { i64, [8 x i8] }
%"struct.std::__1::piecewise_construct_t" = type { i8 }
%"class.network::NetworkConnectionTracker" = type { %"class.network::mojom::NetworkChangeManagerClient", %"class.base::RepeatingCallback", %class.scoped_refptr.1, %"class.base::Lock", %"class.std::__1::list", i32, %class.scoped_refptr.4, %class.scoped_refptr.4, %"class.mojo::Receiver" }
%"class.network::mojom::NetworkChangeManagerClient" = type { i32 (...)** }
%"class.base::RepeatingCallback" = type { %"class.base::internal::CallbackBaseCopyable" }
%"class.base::internal::CallbackBaseCopyable" = type { %"class.base::internal::CallbackBase" }
%"class.base::internal::CallbackBase" = type { %class.scoped_refptr }
%class.scoped_refptr = type { %"class.base::internal::BindStateBase"* }
%"class.base::internal::BindStateBase" = type { %"class.base::RefCountedThreadSafe", void ()*, void (%"class.base::internal::BindStateBase"*)*, i1 (%"class.base::internal::BindStateBase"*, i32)* }
%"class.base::RefCountedThreadSafe" = type { %"class.base::subtle::RefCountedThreadSafeBase" }
%"class.base::subtle::RefCountedThreadSafeBase" = type { %"class.base::AtomicRefCount" }
%"class.base::AtomicRefCount" = type { %"struct.std::__1::atomic" }
%"struct.std::__1::atomic" = type { %"struct.std::__1::__atomic_base" }
%"struct.std::__1::__atomic_base" = type { %"struct.std::__1::__atomic_base.0" }
%"struct.std::__1::__atomic_base.0" = type { %"struct.std::__1::__cxx_atomic_impl" }
%"struct.std::__1::__cxx_atomic_impl" = type { %"struct.std::__1::__cxx_atomic_base_impl" }
%"struct.std::__1::__cxx_atomic_base_impl" = type { i32 }
%class.scoped_refptr.1 = type { %"class.base::SequencedTaskRunner"* }
%"class.base::SequencedTaskRunner" = type { %"class.base::TaskRunner.base", [4 x i8] }
%"class.base::TaskRunner.base" = type <{ i32 (...)**, %"class.base::RefCountedThreadSafe.2" }>
%"class.base::RefCountedThreadSafe.2" = type { %"class.base::subtle::RefCountedThreadSafeBase" }
%"class.base::Lock" = type { %"class.base::internal::LockImpl" }
%"class.base::internal::LockImpl" = type { %union.pthread_mutex_t }
%union.pthread_mutex_t = type { %struct.__pthread_mutex_s }
%struct.__pthread_mutex_s = type { i32, i32, i32, i32, i32, i16, i16, %struct.__pthread_internal_list }
%struct.__pthread_internal_list = type { %struct.__pthread_internal_list*, %struct.__pthread_internal_list* }
%"class.std::__1::list" = type { %"class.std::__1::__list_imp" }
%"class.std::__1::__list_imp" = type { %"struct.std::__1::__list_node_base", %"class.std::__1::__compressed_pair" }
%"struct.std::__1::__list_node_base" = type { %"struct.std::__1::__list_node_base"*, %"struct.std::__1::__list_node_base"* }
%"class.std::__1::__compressed_pair" = type { %"struct.std::__1::__compressed_pair_elem" }
%"struct.std::__1::__compressed_pair_elem" = type { i64 }
%class.scoped_refptr.4 = type { %"class.base::ObserverListThreadSafe"* }
%"class.base::ObserverListThreadSafe" = type { %"class.base::internal::ObserverListThreadSafeBase.base", i32, %"class.base::Lock", i64, %"class.std::__1::unordered_map" }
%"class.base::internal::ObserverListThreadSafeBase.base" = type <{ i32 (...)**, %"class.base::RefCountedThreadSafe.5" }>
%"class.base::RefCountedThreadSafe.5" = type { %"class.base::subtle::RefCountedThreadSafeBase" }
%"class.std::__1::unordered_map" = type { %"class.std::__1::__hash_table" }
%"class.std::__1::__hash_table" = type <{ %"class.std::__1::unique_ptr", %"class.std::__1::__compressed_pair.13", %"class.std::__1::__compressed_pair.18", %"class.std::__1::__compressed_pair.20", [4 x i8] }>
%"class.std::__1::unique_ptr" = type { %"class.std::__1::__compressed_pair.6" }
%"class.std::__1::__compressed_pair.6" = type { %"struct.std::__1::__compressed_pair_elem.7", %"struct.std::__1::__compressed_pair_elem.8" }
%"struct.std::__1::__compressed_pair_elem.7" = type { %"struct.std::__1::__hash_node_base"** }
%"struct.std::__1::__hash_node_base" = type { %"struct.std::__1::__hash_node_base"* }
%"struct.std::__1::__compressed_pair_elem.8" = type { %"class.std::__1::__bucket_list_deallocator" }
%"class.std::__1::__bucket_list_deallocator" = type { %"class.std::__1::__compressed_pair.9" }
%"class.std::__1::__compressed_pair.9" = type { %"struct.std::__1::__compressed_pair_elem" }
%"class.std::__1::__compressed_pair.13" = type { %"struct.std::__1::__compressed_pair_elem.14" }
%"struct.std::__1::__compressed_pair_elem.14" = type { %"struct.std::__1::__hash_node_base" }
%"class.std::__1::__compressed_pair.18" = type { %"struct.std::__1::__compressed_pair_elem" }
%"class.std::__1::__compressed_pair.20" = type { %"struct.std::__1::__compressed_pair_elem.21" }
%"struct.std::__1::__compressed_pair_elem.21" = type { float }
%"class.mojo::Receiver" = type { %"class.mojo::internal::BindingState" }
%"class.mojo::internal::BindingState" = type { %"class.mojo::internal::BindingStateBase", %"class.network::mojom::NetworkChangeManagerClientStub" }
%"class.mojo::internal::BindingStateBase" = type { %class.scoped_refptr.23, %"class.std::__1::unique_ptr.138", %"class.base::WeakPtrFactory.188" }
%class.scoped_refptr.23 = type { %"class.mojo::internal::MultiplexRouter"* }
%"class.mojo::internal::MultiplexRouter" = type <{ %"class.mojo::MessageReceiver", %"class.mojo::AssociatedGroupController.base", [4 x i8], %"class.mojo::PipeControlMessageHandlerDelegate", i32, i8, [3 x i8], %class.scoped_refptr.1, %"class.mojo::MessageHeaderValidator"*, %"class.mojo::MessageDispatcher", %"class.mojo::Connector", %"class.mojo::ScopedHandleBase", [4 x i8], %"class.absl::optional.101", %"class.absl::optional.106", %"class.absl::optional.63", %"class.mojo::PipeControlMessageHandler", %"class.mojo::PipeControlMessageProxy", %"class.base::small_map", i32, [4 x i8], %"class.base::circular_deque", %"class.std::__1::map.129", i8, [7 x i8], %class.scoped_refptr.1, i8, i8, i8, i8, i8, [3 x i8] }>
%"class.mojo::MessageReceiver" = type { i32 (...)** }
%"class.mojo::AssociatedGroupController.base" = type <{ i32 (...)**, %"class.base::RefCountedThreadSafe.24" }>
%"class.base::RefCountedThreadSafe.24" = type { %"class.base::subtle::RefCountedThreadSafeBase" }
%"class.mojo::PipeControlMessageHandlerDelegate" = type { i32 (...)** }
%"class.mojo::MessageHeaderValidator" = type { %"class.mojo::MessageReceiver", %"class.std::__1::basic_string" }
%"class.std::__1::basic_string" = type { %"class.std::__1::__compressed_pair.25" }
%"class.std::__1::__compressed_pair.25" = type { %"struct.std::__1::__compressed_pair_elem.26" }
%"struct.std::__1::__compressed_pair_elem.26" = type { %"struct.std::__1::basic_string<char, std::__1::char_traits<char>, std::__1::allocator<char> >::__rep" }
%"struct.std::__1::basic_string<char, std::__1::char_traits<char>, std::__1::allocator<char> >::__rep" = type { %union.anon }
%union.anon = type { %"struct.std::__1::basic_string<char, std::__1::char_traits<char>, std::__1::allocator<char> >::__long" }
%"struct.std::__1::basic_string<char, std::__1::char_traits<char>, std::__1::allocator<char> >::__long" = type { i8*, i64, i64 }
%"class.mojo::MessageDispatcher" = type { %"class.mojo::MessageReceiver", %"class.std::__1::unique_ptr.30", %"class.std::__1::unique_ptr.34", %"class.mojo::MessageReceiver"*, %"class.base::WeakPtrFactory" }
%"class.std::__1::unique_ptr.30" = type { %"class.std::__1::__compressed_pair.31" }
%"class.std::__1::__compressed_pair.31" = type { %"struct.std::__1::__compressed_pair_elem.32" }
%"struct.std::__1::__compressed_pair_elem.32" = type { %"class.mojo::MessageReceiver"* }
%"class.std::__1::unique_ptr.34" = type { %"class.std::__1::__compressed_pair.35" }
%"class.std::__1::__compressed_pair.35" = type { %"struct.std::__1::__compressed_pair_elem.36" }
%"struct.std::__1::__compressed_pair_elem.36" = type { %"class.mojo::MessageFilter"* }
%"class.mojo::MessageFilter" = type { i32 (...)** }
%"class.base::WeakPtrFactory" = type { %"class.base::internal::WeakPtrFactoryBase" }
%"class.base::internal::WeakPtrFactoryBase" = type { %"class.base::internal::WeakReferenceOwner", i64 }
%"class.base::internal::WeakReferenceOwner" = type { %class.scoped_refptr.40 }
%class.scoped_refptr.40 = type { %"class.base::internal::WeakReference::Flag"* }
%"class.base::internal::WeakReference::Flag" = type <{ %"class.base::RefCountedThreadSafe.41", %"class.base::AtomicFlag", [3 x i8] }>
%"class.base::RefCountedThreadSafe.41" = type { %"class.base::subtle::RefCountedThreadSafeBase" }
%"class.base::AtomicFlag" = type { %"struct.std::__1::atomic.42" }
%"struct.std::__1::atomic.42" = type { %"struct.std::__1::__atomic_base.43" }
%"struct.std::__1::__atomic_base.43" = type { %"struct.std::__1::__atomic_base.44" }
%"struct.std::__1::__atomic_base.44" = type { %"struct.std::__1::__cxx_atomic_impl.45" }
%"struct.std::__1::__cxx_atomic_impl.45" = type { %"struct.std::__1::__cxx_atomic_base_impl.46" }
%"struct.std::__1::__cxx_atomic_base_impl.46" = type { i8 }
%"class.mojo::Connector" = type { %"class.mojo::MessageReceiver", %"class.base::OnceCallback", %"class.mojo::ScopedHandleBase", %"class.mojo::MessageReceiver"*, %class.scoped_refptr.1, %"class.std::__1::unique_ptr.47", %"class.absl::optional", %"struct.std::__1::atomic.59", i8, i8, i8, i8, i32, i32, %"class.absl::optional.63", %"class.std::__1::unique_ptr.68", i8, i64, %class.scoped_refptr.97, %"class.base::Lock", i8, i8*, %"class.mojo::Connector::RunLoopNestingObserver"*, i8, i64, %"class.mojo::ConnectionGroup::Ref", %"class.base::WeakPtr", %"class.base::WeakPtrFactory.100" }
%"class.base::OnceCallback" = type { %"class.base::internal::CallbackBase" }
%"class.std::__1::unique_ptr.47" = type { %"class.std::__1::__compressed_pair.48" }
%"class.std::__1::__compressed_pair.48" = type { %"struct.std::__1::__compressed_pair_elem.49" }
%"struct.std::__1::__compressed_pair_elem.49" = type { %"class.mojo::SimpleWatcher"* }
%"class.mojo::SimpleWatcher" = type { i32, %class.scoped_refptr.1, i8, %"class.mojo::ScopedHandleBase.50", %class.scoped_refptr.51, %"class.mojo::Handle", i32, %"class.base::RepeatingCallback.52", i8*, %"class.base::WeakPtrFactory.53" }
%"class.mojo::ScopedHandleBase.50" = type { %"class.mojo::TrapHandle" }
%"class.mojo::TrapHandle" = type { %"class.mojo::Handle" }
%class.scoped_refptr.51 = type { %"class.mojo::SimpleWatcher::Context"* }
%"class.mojo::SimpleWatcher::Context" = type opaque
%"class.mojo::Handle" = type { i32 }
%"class.base::RepeatingCallback.52" = type { %"class.base::internal::CallbackBaseCopyable" }
%"class.base::WeakPtrFactory.53" = type { %"class.base::internal::WeakPtrFactoryBase" }
%"class.absl::optional" = type { %"class.absl::optional_internal::optional_data" }
%"class.absl::optional_internal::optional_data" = type { %"class.absl::optional_internal::optional_data_base" }
%"class.absl::optional_internal::optional_data_base" = type { %"class.absl::optional_internal::optional_data_dtor_base" }
%"class.absl::optional_internal::optional_data_dtor_base" = type { i8, %union.anon.57 }
%union.anon.57 = type { %"class.mojo::HandleSignalTracker" }
%"class.mojo::HandleSignalTracker" = type { %"class.base::RepeatingCallback.58", %"struct.mojo::HandleSignalsState", %"class.mojo::SimpleWatcher", %"class.mojo::SimpleWatcher" }
%"class.base::RepeatingCallback.58" = type { %"class.base::internal::CallbackBaseCopyable" }
%"struct.mojo::HandleSignalsState" = type { %struct.MojoHandleSignalsState }
%struct.MojoHandleSignalsState = type { i32, i32 }
%"struct.std::__1::atomic.59" = type { %"struct.std::__1::__atomic_base.60" }
%"struct.std::__1::__atomic_base.60" = type { %"struct.std::__1::__cxx_atomic_impl.61" }
%"struct.std::__1::__cxx_atomic_impl.61" = type { %"struct.std::__1::__cxx_atomic_base_impl.62" }
%"struct.std::__1::__cxx_atomic_base_impl.62" = type { i8 }
%"class.std::__1::unique_ptr.68" = type { %"class.std::__1::__compressed_pair.69" }
%"class.std::__1::__compressed_pair.69" = type { %"struct.std::__1::__compressed_pair_elem.70" }
%"struct.std::__1::__compressed_pair_elem.70" = type { %"class.mojo::SyncHandleWatcher"* }
%"class.mojo::SyncHandleWatcher" = type { %"class.mojo::Handle", i32, %"class.base::RepeatingCallback.71", i8, i64, %class.scoped_refptr.72, %class.scoped_refptr.93 }
%"class.base::RepeatingCallback.71" = type { %"class.base::internal::CallbackBaseCopyable" }
%class.scoped_refptr.72 = type { %"class.mojo::SyncHandleRegistry"* }
%"class.mojo::SyncHandleRegistry" = type <{ %"class.base::RefCounted", [4 x i8], %"class.mojo::WaitSet", %"class.std::__1::map", %"class.std::__1::map.82", i8, [7 x i8] }>
%"class.base::RefCounted" = type { %"class.base::subtle::RefCountedBase" }
%"class.base::subtle::RefCountedBase" = type { i32 }
%"class.mojo::WaitSet" = type { %class.scoped_refptr.73 }
%class.scoped_refptr.73 = type { %"class.mojo::WaitSet::State"* }
%"class.mojo::WaitSet::State" = type opaque
%"class.std::__1::map" = type { %"class.std::__1::__tree" }
%"class.std::__1::__tree" = type { %"class.std::__1::__tree_end_node"*, %"class.std::__1::__compressed_pair.74", %"class.std::__1::__compressed_pair.79" }
%"class.std::__1::__tree_end_node" = type { %"class.std::__1::__tree_node_base"* }
%"class.std::__1::__tree_node_base" = type <{ %"class.std::__1::__tree_end_node", %"class.std::__1::__tree_node_base"*, %"class.std::__1::__tree_end_node"*, i8, [7 x i8] }>
%"class.std::__1::__compressed_pair.74" = type { %"struct.std::__1::__compressed_pair_elem.75" }
%"struct.std::__1::__compressed_pair_elem.75" = type { %"class.std::__1::__tree_end_node" }
%"class.std::__1::__compressed_pair.79" = type { %"struct.std::__1::__compressed_pair_elem" }
%"class.std::__1::map.82" = type { %"class.std::__1::__tree.83" }
%"class.std::__1::__tree.83" = type { %"class.std::__1::__tree_end_node"*, %"class.std::__1::__compressed_pair.84", %"class.std::__1::__compressed_pair.88" }
%"class.std::__1::__compressed_pair.84" = type { %"struct.std::__1::__compressed_pair_elem.75" }
%"class.std::__1::__compressed_pair.88" = type { %"struct.std::__1::__compressed_pair_elem" }
%class.scoped_refptr.93 = type { %"class.base::RefCountedData"* }
%"class.base::RefCountedData" = type opaque
%class.scoped_refptr.97 = type { %"class.mojo::internal::MessageQuotaChecker"* }
%"class.mojo::internal::MessageQuotaChecker" = type opaque
%"class.mojo::Connector::RunLoopNestingObserver" = type opaque
%"class.mojo::ConnectionGroup::Ref" = type { i32, %class.scoped_refptr.98 }
%class.scoped_refptr.98 = type { %"class.mojo::ConnectionGroup"* }
%"class.mojo::ConnectionGroup" = type <{ i32 (...)**, %"class.base::RefCountedThreadSafe.189", [4 x i8], %"class.base::RepeatingCallback.141", %class.scoped_refptr.1, %"class.mojo::ConnectionGroup::Ref", %"struct.std::__1::atomic.190", [4 x i8] }>
%"class.base::RefCountedThreadSafe.189" = type { %"class.base::subtle::RefCountedThreadSafeBase" }
%"class.base::RepeatingCallback.141" = type { %"class.base::internal::CallbackBaseCopyable" }
%"struct.std::__1::atomic.190" = type { %"struct.std::__1::__atomic_base.191" }
%"struct.std::__1::__atomic_base.191" = type { %"struct.std::__1::__atomic_base.192" }
%"struct.std::__1::__atomic_base.192" = type { %"struct.std::__1::__cxx_atomic_impl.193" }
%"struct.std::__1::__cxx_atomic_impl.193" = type { %"struct.std::__1::__cxx_atomic_base_impl.194" }
%"struct.std::__1::__cxx_atomic_base_impl.194" = type { i32 }
%"class.base::WeakPtr" = type { %"class.base::internal::WeakPtrBase" }
%"class.base::internal::WeakPtrBase" = type { %"class.base::internal::WeakReference", i64 }
%"class.base::internal::WeakReference" = type { %class.scoped_refptr.99 }
%class.scoped_refptr.99 = type { %"class.base::internal::WeakReference::Flag"* }
%"class.base::WeakPtrFactory.100" = type { %"class.base::internal::WeakPtrFactoryBase" }
%"class.mojo::ScopedHandleBase" = type { %"class.mojo::MessagePipeHandle" }
%"class.mojo::MessagePipeHandle" = type { %"class.mojo::Handle" }
%"class.absl::optional.101" = type { %"class.absl::optional_internal::optional_data.102" }
%"class.absl::optional_internal::optional_data.102" = type { %"class.absl::optional_internal::optional_data_base.103" }
%"class.absl::optional_internal::optional_data_base.103" = type { %"class.absl::optional_internal::optional_data_dtor_base.104" }
%"class.absl::optional_internal::optional_data_dtor_base.104" = type { i8, %union.anon.105 }
%union.anon.105 = type { %"class.mojo::SimpleWatcher" }
%"class.absl::optional.106" = type { %"class.absl::optional_internal::optional_data.107" }
%"class.absl::optional_internal::optional_data.107" = type { %"class.absl::optional_internal::optional_data_base.108" }
%"class.absl::optional_internal::optional_data_base.108" = type { %"class.absl::optional_internal::optional_data_dtor_base.109" }
%"class.absl::optional_internal::optional_data_dtor_base.109" = type { i8, [7 x i8], %union.anon.110 }
%union.anon.110 = type { %"struct.mojo::internal::MultiplexRouter::ExclusiveSyncWaitInfo" }
%"struct.mojo::internal::MultiplexRouter::ExclusiveSyncWaitInfo" = type <{ i32, [4 x i8], i64, i8, [7 x i8] }>
%"class.absl::optional.63" = type { %"class.absl::optional_internal::optional_data.64" }
%"class.absl::optional_internal::optional_data.64" = type { %"class.absl::optional_internal::optional_data_base.65" }
%"class.absl::optional_internal::optional_data_base.65" = type { %"class.absl::optional_internal::optional_data_dtor_base.66" }
%"class.absl::optional_internal::optional_data_dtor_base.66" = type { i8, %union.anon.67 }
%union.anon.67 = type { %"class.base::Lock" }
%"class.mojo::PipeControlMessageHandler" = type { %"class.mojo::MessageReceiver", %"class.std::__1::basic_string", %"class.mojo::PipeControlMessageHandlerDelegate"* }
%"class.mojo::PipeControlMessageProxy" = type { %"class.mojo::MessageReceiver"* }
%"class.base::small_map" = type { i64, %"class.base::internal::small_map_default_init", %union.anon.115 }
%"class.base::internal::small_map_default_init" = type { i8 }
%union.anon.115 = type { %"class.std::__1::map.117" }
%"class.std::__1::map.117" = type { %"class.std::__1::__tree.118" }
%"class.std::__1::__tree.118" = type { %"class.std::__1::__tree_end_node"*, %"class.std::__1::__compressed_pair.119", %"class.std::__1::__compressed_pair.123" }
%"class.std::__1::__compressed_pair.119" = type { %"struct.std::__1::__compressed_pair_elem.75" }
%"class.std::__1::__compressed_pair.123" = type { %"struct.std::__1::__compressed_pair_elem" }
%"class.base::circular_deque" = type { %"class.base::internal::VectorBuffer", i64, i64 }
%"class.base::internal::VectorBuffer" = type { %"class.std::__1::unique_ptr.128"*, i64 }
%"class.std::__1::unique_ptr.128" = type opaque
%"class.std::__1::map.129" = type { %"class.std::__1::__tree.130" }
%"class.std::__1::__tree.130" = type { %"class.std::__1::__tree_end_node"*, %"class.std::__1::__compressed_pair.131", %"class.std::__1::__compressed_pair.135" }
%"class.std::__1::__compressed_pair.131" = type { %"struct.std::__1::__compressed_pair_elem.75" }
%"class.std::__1::__compressed_pair.135" = type { %"struct.std::__1::__compressed_pair_elem" }
%"class.std::__1::unique_ptr.138" = type { %"class.std::__1::__compressed_pair.139" }
%"class.std::__1::__compressed_pair.139" = type { %"struct.std::__1::__compressed_pair_elem.140" }
%"struct.std::__1::__compressed_pair_elem.140" = type { %"class.mojo::InterfaceEndpointClient"* }
%"class.mojo::InterfaceEndpointClient" = type { %"class.mojo::MessageReceiverWithResponder", i8, %"class.base::RepeatingCallback.141", %"class.base::OnceCallback.142", %"class.absl::optional.143", %"class.absl::optional.148", %"class.mojo::ConnectionGroup::Ref", i32, %"class.mojo::ScopedInterfaceEndpointHandle", %"class.std::__1::unique_ptr.155", %"class.mojo::InterfaceEndpointController"*, %"class.mojo::MessageReceiverWithResponderStatus"*, %"class.mojo::InterfaceEndpointClient::HandleIncomingMessageThunk", %"class.mojo::MessageDispatcher", %"class.std::__1::map.163", %"class.std::__1::map.174", i64, %"class.base::OnceCallback", %"class.base::OnceCallback.183", i8, %class.scoped_refptr.1, %"class.mojo::internal::ControlMessageProxy", %"class.mojo::internal::ControlMessageHandler", i8*, %"class.base::WeakPtrFactory.184" }
%"class.mojo::MessageReceiverWithResponder" = type { %"class.mojo::MessageReceiver" }
%"class.base::OnceCallback.142" = type { %"class.base::internal::CallbackBase" }
%"class.absl::optional.143" = type { %"class.absl::optional_internal::optional_data.144" }
%"class.absl::optional_internal::optional_data.144" = type { %"class.absl::optional_internal::optional_data_base.145" }
%"class.absl::optional_internal::optional_data_base.145" = type { %"class.absl::optional_internal::optional_data_dtor_base.146" }
%"class.absl::optional_internal::optional_data_dtor_base.146" = type { i8, %union.anon.147 }
%union.anon.147 = type { %"class.base::TimeDelta" }
%"class.base::TimeDelta" = type { i64 }
%"class.absl::optional.148" = type { %"class.absl::optional_internal::optional_data.149" }
%"class.absl::optional_internal::optional_data.149" = type { %"class.absl::optional_internal::optional_data_base.150" }
%"class.absl::optional_internal::optional_data_base.150" = type { %"class.absl::optional_internal::optional_data_dtor_base.151" }
%"class.absl::optional_internal::optional_data_dtor_base.151" = type { i8, %union.anon.152 }
%union.anon.152 = type { %"class.base::OneShotTimer" }
%"class.base::OneShotTimer" = type { %"class.base::internal::TimerBase", %"class.base::OnceCallback" }
%"class.base::internal::TimerBase" = type { i32 (...)**, %class.scoped_refptr.1, %"class.base::SequenceCheckerDoNothing", %"class.base::internal::TaskDestructionDetector"*, %"class.base::Location", %"class.base::TimeDelta", %"class.base::TimeTicks", %"class.base::TimeTicks", %"class.base::TickClock"*, i8, %"class.base::WeakPtrFactory.153" }
%"class.base::SequenceCheckerDoNothing" = type { i8 }
%"class.base::internal::TaskDestructionDetector" = type opaque
%"class.base::Location" = type { i8*, i8*, i32, i8* }
%"class.base::TimeTicks" = type { %"class.base::time_internal::TimeBase" }
%"class.base::time_internal::TimeBase" = type { i64 }
%"class.base::TickClock" = type { i32 (...)** }
%"class.base::WeakPtrFactory.153" = type { %"class.base::internal::WeakPtrFactoryBase" }
%"class.mojo::ScopedInterfaceEndpointHandle" = type { %class.scoped_refptr.154 }
%class.scoped_refptr.154 = type { %"class.mojo::ScopedInterfaceEndpointHandle::State"* }
%"class.mojo::ScopedInterfaceEndpointHandle::State" = type opaque
%"class.std::__1::unique_ptr.155" = type { %"class.std::__1::__compressed_pair.156" }
%"class.std::__1::__compressed_pair.156" = type { %"struct.std::__1::__compressed_pair_elem.157" }
%"struct.std::__1::__compressed_pair_elem.157" = type { %"class.mojo::AssociatedGroup"* }
%"class.mojo::AssociatedGroup" = type { %"class.base::RepeatingCallback.158", %class.scoped_refptr.159 }
%"class.base::RepeatingCallback.158" = type { %"class.base::internal::CallbackBaseCopyable" }
%class.scoped_refptr.159 = type { %"class.mojo::AssociatedGroupController"* }
%"class.mojo::AssociatedGroupController" = type <{ i32 (...)**, %"class.base::RefCountedThreadSafe.24", [4 x i8] }>
%"class.mojo::InterfaceEndpointController" = type opaque
%"class.mojo::MessageReceiverWithResponderStatus" = type { %"class.mojo::MessageReceiver" }
%"class.mojo::InterfaceEndpointClient::HandleIncomingMessageThunk" = type { %"class.mojo::MessageReceiver", %"class.mojo::InterfaceEndpointClient"* }
%"class.std::__1::map.163" = type { %"class.std::__1::__tree.164" }
%"class.std::__1::__tree.164" = type { %"class.std::__1::__tree_end_node"*, %"class.std::__1::__compressed_pair.165", %"class.std::__1::__compressed_pair.169" }
%"class.std::__1::__compressed_pair.165" = type { %"struct.std::__1::__compressed_pair_elem.75" }
%"class.std::__1::__compressed_pair.169" = type { %"struct.std::__1::__compressed_pair_elem" }
%"class.std::__1::map.174" = type { %"class.std::__1::__tree.175" }
%"class.std::__1::__tree.175" = type { %"class.std::__1::__tree_end_node"*, %"class.std::__1::__compressed_pair.176", %"class.std::__1::__compressed_pair.180" }
%"class.std::__1::__compressed_pair.176" = type { %"struct.std::__1::__compressed_pair_elem.75" }
%"class.std::__1::__compressed_pair.180" = type { %"struct.std::__1::__compressed_pair_elem" }
%"class.base::OnceCallback.183" = type { %"class.base::internal::CallbackBase" }
%"class.mojo::internal::ControlMessageProxy" = type { %"class.mojo::InterfaceEndpointClient"*, i8, %"class.base::OnceCallback" }
%"class.mojo::internal::ControlMessageHandler" = type <{ %"class.mojo::MessageReceiverWithResponderStatus", %"class.mojo::InterfaceEndpointClient"*, i32, [4 x i8] }>
%"class.base::WeakPtrFactory.184" = type { %"class.base::internal::WeakPtrFactoryBase" }
%"class.base::WeakPtrFactory.188" = type { %"class.base::internal::WeakPtrFactoryBase" }
%"class.network::mojom::NetworkChangeManagerClientStub" = type { %"class.mojo::MessageReceiverWithResponderStatus", %"class.network::mojom::NetworkChangeManagerClient"* }
%class.scoped_refptr.195 = type { %"class.base::SingleThreadTaskRunner"* }
%"class.base::SingleThreadTaskRunner" = type { %"class.base::SequencedTaskRunner.base", [4 x i8] }
%"class.base::SequencedTaskRunner.base" = type { %"class.base::TaskRunner.base" }
%"class.mojo::Remote" = type { %"class.mojo::internal::InterfacePtrState" }
%"class.mojo::internal::InterfacePtrState" = type { %"class.mojo::internal::InterfacePtrStateBase.base", %"class.std::__1::unique_ptr.198" }
%"class.mojo::internal::InterfacePtrStateBase.base" = type <{ %class.scoped_refptr.23, %"class.std::__1::unique_ptr.138", %"class.mojo::ScopedHandleBase", [4 x i8], %class.scoped_refptr.1, i32 }>
%"class.std::__1::unique_ptr.198" = type { %"class.std::__1::__compressed_pair.199" }
%"class.std::__1::__compressed_pair.199" = type { %"struct.std::__1::__compressed_pair_elem.200" }
%"struct.std::__1::__compressed_pair_elem.200" = type { %"class.network::mojom::NetworkChangeManagerProxy"* }
%"class.network::mojom::NetworkChangeManagerProxy" = type { %"class.network::mojom::NetworkChangeManager", %"class.mojo::MessageReceiverWithResponder"* }
%"class.network::mojom::NetworkChangeManager" = type { i32 (...)** }
%"class.mojo::PendingReceiver" = type { %"struct.mojo::internal::PendingReceiverState" }
%"struct.mojo::internal::PendingReceiverState" = type { %"class.mojo::ScopedHandleBase", %"class.mojo::ConnectionGroup::Ref" }
%"class.mojo::PendingRemote" = type { %"struct.mojo::internal::PendingRemoteState" }
%"struct.mojo::internal::PendingRemoteState" = type { %"class.mojo::ScopedHandleBase", i32 }
%"class.mojo::internal::InterfacePtrStateBase" = type <{ %class.scoped_refptr.23, %"class.std::__1::unique_ptr.138", %"class.mojo::ScopedHandleBase", [4 x i8], %class.scoped_refptr.1, i32, [4 x i8] }>
%"class.base::internal::ObserverListThreadSafeBase" = type <{ i32 (...)**, %"class.base::RefCountedThreadSafe.5", [4 x i8] }>
%"class.base::TaskRunner" = type <{ i32 (...)**, %"class.base::RefCountedThreadSafe.2", [4 x i8] }>
%"class.base::OnceCallback.196" = type { %"class.base::internal::CallbackBase" }
%"class.network::NetworkConnectionTracker::NetworkConnectionObserver" = type { i32 (...)** }
%"class.std::__1::tuple.241" = type { %"struct.std::__1::__tuple_impl.242" }
%"struct.std::__1::__tuple_impl.242" = type { %"class.std::__1::__tuple_leaf.243" }
%"class.std::__1::__tuple_leaf.243" = type { %"class.network::NetworkConnectionTracker::NetworkConnectionObserver"** }
%"class.std::__1::tuple.244" = type { i8 }
%"struct.base::ObserverListThreadSafe<network::NetworkConnectionTracker::NetworkConnectionObserver>::NotificationData" = type { %"struct.base::internal::ObserverListThreadSafeBase::NotificationDataBase", %"class.base::RepeatingCallback.239", i64 }
%"struct.base::internal::ObserverListThreadSafeBase::NotificationDataBase" = type { i8*, %"class.base::Location" }
%"class.base::RepeatingCallback.239" = type { %"class.base::internal::CallbackBaseCopyable" }
%"class.base::ThreadLocalStorage::Slot" = type { i32, i32 }
%"class.base::ThreadLocalPointer" = type { %"class.base::ThreadLocalStorage::Slot" }
%"struct.std::__1::__list_node" = type { %"struct.std::__1::__list_node_base", %"class.base::OnceCallback.196" }
%"struct.std::__1::__hash_node" = type { %"struct.std::__1::__hash_node_base", i64, %"struct.std::__1::__hash_value_type" }
%"struct.std::__1::__hash_value_type" = type { %"struct.std::__1::pair.228" }
%"struct.std::__1::pair.228" = type { %"class.network::NetworkConnectionTracker::NetworkConnectionObserver"*, %"struct.base::ObserverListThreadSafe<network::NetworkConnectionTracker::NetworkConnectionObserver>::ObserverTaskRunnerInfo" }
%"struct.base::ObserverListThreadSafe<network::NetworkConnectionTracker::NetworkConnectionObserver>::ObserverTaskRunnerInfo" = type { %class.scoped_refptr.1, i64 }
%"class.mojo::Message" = type { %"class.mojo::ScopedHandleBase.208", %"class.mojo::internal::Buffer", %"class.std::__1::vector", %"class.std::__1::vector.215", %"class.mojo::ConnectionGroup::Ref"*, i8, i8, i8* }
%"class.mojo::ScopedHandleBase.208" = type { %"class.mojo::MessageHandle" }
%"class.mojo::MessageHandle" = type { i64 }
%"class.mojo::internal::Buffer" = type { %"class.mojo::MessageHandle", i64, i8*, i64, i64 }
%"class.std::__1::vector" = type { %"class.std::__1::__vector_base" }
%"class.std::__1::__vector_base" = type { %"class.mojo::ScopedHandleBase.209"*, %"class.mojo::ScopedHandleBase.209"*, %"class.std::__1::__compressed_pair.210" }
%"class.mojo::ScopedHandleBase.209" = type { %"class.mojo::Handle" }
%"class.std::__1::__compressed_pair.210" = type { %"struct.std::__1::__compressed_pair_elem.211" }
%"struct.std::__1::__compressed_pair_elem.211" = type { %"class.mojo::ScopedHandleBase.209"* }
%"class.std::__1::vector.215" = type { %"class.std::__1::__vector_base.216" }
%"class.std::__1::__vector_base.216" = type { %"class.mojo::ScopedInterfaceEndpointHandle"*, %"class.mojo::ScopedInterfaceEndpointHandle"*, %"class.std::__1::__compressed_pair.217" }
%"class.std::__1::__compressed_pair.217" = type { %"struct.std::__1::__compressed_pair_elem.218" }
%"struct.std::__1::__compressed_pair_elem.218" = type { %"class.mojo::ScopedInterfaceEndpointHandle"* }
%"class.mojo::MessageReceiverWithStatus" = type { %"class.mojo::MessageReceiver" }
%"class.std::__1::unique_ptr.245" = type { %"class.std::__1::__compressed_pair.246" }
%"class.std::__1::__compressed_pair.246" = type { %"struct.std::__1::__compressed_pair_elem.247", %"struct.std::__1::__compressed_pair_elem.248" }
%"struct.std::__1::__compressed_pair_elem.247" = type { %"struct.std::__1::__hash_node"* }
%"struct.std::__1::__compressed_pair_elem.248" = type { %"class.std::__1::__hash_node_destructor" }
%"class.std::__1::__hash_node_destructor" = type <{ %"class.std::__1::allocator.16"*, i8, [7 x i8] }>
%"class.std::__1::allocator.16" = type { i8 }
%"class.mojo::PendingRemote.273" = type { %"struct.mojo::internal::PendingRemoteState" }
%struct.MojoCreateMessagePipeOptions = type { i32, i32 }
%"class.mojo::PassThroughFilter" = type { %"class.mojo::MessageReceiver" }
%"class.mojo::PendingReceiver.280" = type { %"struct.mojo::internal::PendingReceiverState" }

$_ZN4base22ObserverListThreadSafeIN7network24NetworkConnectionTracker25NetworkConnectionObserverEE11AddObserverEPS3_ = comdat any

$_ZN4base22ObserverListThreadSafeIN7network24NetworkConnectionTracker25NetworkConnectionObserverEE6NotifyIMS3_FvNS1_5mojom14ConnectionTypeEEJRS7_EEEvRKNS_8LocationET_DpOT0_ = comdat any

$_ZN7network5mojom30NetworkChangeManagerClientStubIN4mojo19RawPtrImplRefTraitsINS0_26NetworkChangeManagerClientEEEED0Ev = comdat any

$_ZN7network5mojom30NetworkChangeManagerClientStubIN4mojo19RawPtrImplRefTraitsINS0_26NetworkChangeManagerClientEEEE6AcceptEPNS2_7MessageE = comdat any

$_ZN7network5mojom30NetworkChangeManagerClientStubIN4mojo19RawPtrImplRefTraitsINS0_26NetworkChangeManagerClientEEEE19AcceptWithResponderEPNS2_7MessageENSt3__110unique_ptrINS2_25MessageReceiverWithStatusENS9_14default_deleteISB_EEEE = comdat any

$_ZN4mojo15MessageReceiverD2Ev = comdat any

$_ZN4base22ObserverListThreadSafeIN7network24NetworkConnectionTracker25NetworkConnectionObserverEED2Ev = comdat any

$_ZN4base22ObserverListThreadSafeIN7network24NetworkConnectionTracker25NetworkConnectionObserverEED0Ev = comdat any

$_ZN4base8internal7InvokerINS0_9BindStateIPFv13scoped_refptrINS_10TaskRunnerEENS_12OnceCallbackIFvN7network5mojom14ConnectionTypeEEEES9_EJS3_INS_19SequencedTaskRunnerEESB_EEESA_E7RunOnceEPNS0_13BindStateBaseES9_ = comdat any

$_ZN4base8internal9BindStateIPFv13scoped_refptrINS_10TaskRunnerEENS_12OnceCallbackIFvN7network5mojom14ConnectionTypeEEEES8_EJS2_INS_19SequencedTaskRunnerEESA_EE7DestroyEPKNS0_13BindStateBaseE = comdat any

$_ZN4base22ObserverListThreadSafeIN7network24NetworkConnectionTracker25NetworkConnectionObserverEE13NotifyWrapperEPS3_RKNS4_16NotificationDataE = comdat any

$_ZNSt3__112__hash_tableINS_17__hash_value_typeIPN7network24NetworkConnectionTracker25NetworkConnectionObserverEN4base22ObserverListThreadSafeIS4_E22ObserverTaskRunnerInfoEEENS_22__unordered_map_hasherIS5_SA_NS_4hashIS5_EENS_8equal_toIS5_EELb1EEENS_21__unordered_map_equalIS5_SA_SF_SD_Lb1EEENS_9allocatorISA_EEE25__emplace_unique_key_argsIS5_JRKNS_21piecewise_construct_tENS_5tupleIJRKS5_EEENSQ_IJEEEEEENS_4pairINS_15__hash_iteratorIPNS_11__hash_nodeISA_PvEEEEbEERKT_DpOT0_ = comdat any

$_ZNSt3__112__hash_tableINS_17__hash_value_typeIPN7network24NetworkConnectionTracker25NetworkConnectionObserverEN4base22ObserverListThreadSafeIS4_E22ObserverTaskRunnerInfoEEENS_22__unordered_map_hasherIS5_SA_NS_4hashIS5_EENS_8equal_toIS5_EELb1EEENS_21__unordered_map_equalIS5_SA_SF_SD_Lb1EEENS_9allocatorISA_EEE6rehashEm = comdat any

$_ZNSt3__112__hash_tableINS_17__hash_value_typeIPN7network24NetworkConnectionTracker25NetworkConnectionObserverEN4base22ObserverListThreadSafeIS4_E22ObserverTaskRunnerInfoEEENS_22__unordered_map_hasherIS5_SA_NS_4hashIS5_EENS_8equal_toIS5_EELb1EEENS_21__unordered_map_equalIS5_SA_SF_SD_Lb1EEENS_9allocatorISA_EEE8__rehashEm = comdat any

$_ZN4base8internal7InvokerINS0_9BindStateIMNS_22ObserverListThreadSafeIN7network24NetworkConnectionTracker25NetworkConnectionObserverEEEFvPS6_RKNS7_16NotificationDataEEJ13scoped_refptrIS7_ES8_S9_EEEFvvEE7RunOnceEPNS0_13BindStateBaseE = comdat any

$_ZN4base8internal9BindStateIMNS_22ObserverListThreadSafeIN7network24NetworkConnectionTracker25NetworkConnectionObserverEEEFvPS5_RKNS6_16NotificationDataEEJ13scoped_refptrIS6_ES7_S8_EE7DestroyEPKNS0_13BindStateBaseE = comdat any

$_ZNSt3__112__hash_tableINS_17__hash_value_typeIPN7network24NetworkConnectionTracker25NetworkConnectionObserverEN4base22ObserverListThreadSafeIS4_E22ObserverTaskRunnerInfoEEENS_22__unordered_map_hasherIS5_SA_NS_4hashIS5_EENS_8equal_toIS5_EELb1EEENS_21__unordered_map_equalIS5_SA_SF_SD_Lb1EEENS_9allocatorISA_EEE14__erase_uniqueIS5_EEmRKT_ = comdat any

$_ZNSt3__112__hash_tableINS_17__hash_value_typeIPN7network24NetworkConnectionTracker25NetworkConnectionObserverEN4base22ObserverListThreadSafeIS4_E22ObserverTaskRunnerInfoEEENS_22__unordered_map_hasherIS5_SA_NS_4hashIS5_EENS_8equal_toIS5_EELb1EEENS_21__unordered_map_equalIS5_SA_SF_SD_Lb1EEENS_9allocatorISA_EEE6removeENS_21__hash_const_iteratorIPNS_11__hash_nodeISA_PvEEEE = comdat any

$_ZN4base8internal26ObserverListThreadSafeBase10DispatcherIN7network24NetworkConnectionTracker25NetworkConnectionObserverEMS5_FvNS3_5mojom14ConnectionTypeEEE3RunES9_S7_PS5_ = comdat any

$_ZN4base8internal7InvokerINS0_9BindStateIPFvMN7network24NetworkConnectionTracker25NetworkConnectionObserverEFvNS3_5mojom14ConnectionTypeEES7_PS5_EJS9_S7_EEEFvSA_EE3RunEPNS0_13BindStateBaseESA_ = comdat any

$_ZN4base8internal9BindStateIPFvMN7network24NetworkConnectionTracker25NetworkConnectionObserverEFvNS2_5mojom14ConnectionTypeEES6_PS4_EJS8_S6_EE7DestroyEPKNS0_13BindStateBaseE = comdat any

$_ZN4mojo6RemoteIN7network5mojom20NetworkChangeManagerEE26BindNewPipeAndPassReceiverE13scoped_refptrIN4base19SequencedTaskRunnerEE = comdat any

$_ZN4mojo6RemoteIN7network5mojom20NetworkChangeManagerEE4BindENS_13PendingRemoteIS3_EE13scoped_refptrIN4base19SequencedTaskRunnerEE = comdat any

$_ZN4mojo8internal17InterfacePtrStateIN7network5mojom20NetworkChangeManagerEE25ConfigureProxyIfNecessaryEv = comdat any

$_ZN4mojo8ReceiverIN7network5mojom26NetworkChangeManagerClientENS_19RawPtrImplRefTraitsIS3_EEE24BindNewPipeAndPassRemoteE13scoped_refptrIN4base19SequencedTaskRunnerEE = comdat any

$_ZN4mojo8internal12BindingStateIN7network5mojom26NetworkChangeManagerClientENS_19RawPtrImplRefTraitsIS4_EEE4BindEPNS0_20PendingReceiverStateE13scoped_refptrIN4base19SequencedTaskRunnerEE = comdat any

$_ZN4base8internal7InvokerINS0_9BindStateIMN7network24NetworkConnectionTrackerEFvvEJNS0_17UnretainedWrapperIS4_EEEEEFvvEE7RunOnceEPNS0_13BindStateBaseE = comdat any

$_ZN4base8internal9BindStateIMN7network24NetworkConnectionTrackerEFvvEJNS0_17UnretainedWrapperIS3_EEEE7DestroyEPKNS0_13BindStateBaseE = comdat any

$_ZTVN7network5mojom30NetworkChangeManagerClientStubIN4mojo19RawPtrImplRefTraitsINS0_26NetworkChangeManagerClientEEEEE = comdat any

$_ZTVN4base22ObserverListThreadSafeIN7network24NetworkConnectionTracker25NetworkConnectionObserverEEE = comdat any

@_ZTVN7network24NetworkConnectionTrackerE = hidden unnamed_addr constant { [7 x i8*] } { [7 x i8*] [i8* null, i8* null, i8* bitcast (void (%"class.network::NetworkConnectionTracker"*)* @_ZN7network24NetworkConnectionTrackerD2Ev to i8*), i8* bitcast (void (%"class.network::NetworkConnectionTracker"*)* @_ZN7network24NetworkConnectionTrackerD0Ev to i8*), i8* bitcast (void (%"class.network::NetworkConnectionTracker"*, i32)* @_ZN7network24NetworkConnectionTracker23OnInitialConnectionTypeENS_5mojom14ConnectionTypeE to i8*), i8* bitcast (void (%"class.network::NetworkConnectionTracker"*, i32)* @_ZN7network24NetworkConnectionTracker16OnNetworkChangedENS_5mojom14ConnectionTypeE to i8*), i8* bitcast (i1 (%"class.network::NetworkConnectionTracker"*, i32*, %"class.base::OnceCallback.196"*)* @_ZN7network24NetworkConnectionTracker17GetConnectionTypeEPNS_5mojom14ConnectionTypeEN4base12OnceCallbackIFvS2_EEE to i8*)] }, align 8
@.str = private unnamed_addr constant [17 x i8] c"OnNetworkChanged\00", align 1
@.str.1 = private unnamed_addr constant [64 x i8] c"../../services/network/public/cpp/network_connection_tracker.cc\00", align 1
@.str.2 = private unnamed_addr constant [20 x i8] c"OnGetConnectionType\00", align 1
@_ZTVN7network5mojom30NetworkChangeManagerClientStubIN4mojo19RawPtrImplRefTraitsINS0_26NetworkChangeManagerClientEEEEE = linkonce_odr hidden unnamed_addr constant { [7 x i8*] } { [7 x i8*] [i8* null, i8* null, i8* bitcast (void (%"class.mojo::MessageReceiver"*)* @_ZN4mojo15MessageReceiverD2Ev to i8*), i8* bitcast (void (%"class.network::mojom::NetworkChangeManagerClientStub"*)* @_ZN7network5mojom30NetworkChangeManagerClientStubIN4mojo19RawPtrImplRefTraitsINS0_26NetworkChangeManagerClientEEEED0Ev to i8*), i8* bitcast (i1 (%"class.mojo::MessageReceiver"*)* @_ZN4mojo15MessageReceiver25PrefersSerializedMessagesEv to i8*), i8* bitcast (i1 (%"class.network::mojom::NetworkChangeManagerClientStub"*, %"class.mojo::Message"*)* @_ZN7network5mojom30NetworkChangeManagerClientStubIN4mojo19RawPtrImplRefTraitsINS0_26NetworkChangeManagerClientEEEE6AcceptEPNS2_7MessageE to i8*), i8* bitcast (i1 (%"class.network::mojom::NetworkChangeManagerClientStub"*, %"class.mojo::Message"*, %"class.mojo::MessageReceiverWithStatus"*)* @_ZN7network5mojom30NetworkChangeManagerClientStubIN4mojo19RawPtrImplRefTraitsINS0_26NetworkChangeManagerClientEEEE19AcceptWithResponderEPNS2_7MessageENSt3__110unique_ptrINS2_25MessageReceiverWithStatusENS9_14default_deleteISB_EEEE to i8*)] }, comdat, align 8
@_ZTVN4base22ObserverListThreadSafeIN7network24NetworkConnectionTracker25NetworkConnectionObserverEEE = linkonce_odr hidden unnamed_addr constant { [4 x i8*] } { [4 x i8*] [i8* null, i8* null, i8* bitcast (void (%"class.base::ObserverListThreadSafe"*)* @_ZN4base22ObserverListThreadSafeIN7network24NetworkConnectionTracker25NetworkConnectionObserverEED2Ev to i8*), i8* bitcast (void (%"class.base::ObserverListThreadSafe"*)* @_ZN4base22ObserverListThreadSafeIN7network24NetworkConnectionTracker25NetworkConnectionObserverEED0Ev to i8*)] }, comdat, align 8
@_ZN4base8internal26ObserverListThreadSafeBase25tls_current_notification_E = external global %"class.base::LazyInstance", align 8
@_ZNSt3__1L19piecewise_constructE = internal constant %"struct.std::__1::piecewise_construct_t" undef, align 1
@_ZN7network5mojom20NetworkChangeManager5Name_E = external constant [0 x i8], align 1
@_ZN7network5mojom26NetworkChangeManagerClient5Name_E = external constant [0 x i8], align 1
@_ZTVN7network5mojom42NetworkChangeManagerClientRequestValidatorE = external unnamed_addr constant { [6 x i8*] }, align 8

@_ZN7network24NetworkConnectionTrackerC1EN4base17RepeatingCallbackIFvN4mojo15PendingReceiverINS_5mojom20NetworkChangeManagerEEEEEE = hidden unnamed_addr alias void (%"class.network::NetworkConnectionTracker"*, %"class.base::RepeatingCallback"*), void (%"class.network::NetworkConnectionTracker"*, %"class.base::RepeatingCallback"*)* @_ZN7network24NetworkConnectionTrackerC2EN4base17RepeatingCallbackIFvN4mojo15PendingReceiverINS_5mojom20NetworkChangeManagerEEEEEE
@_ZN7network24NetworkConnectionTrackerD1Ev = hidden unnamed_addr alias void (%"class.network::NetworkConnectionTracker"*), void (%"class.network::NetworkConnectionTracker"*)* @_ZN7network24NetworkConnectionTrackerD2Ev
@_ZN7network24NetworkConnectionTrackerC1Ev = hidden unnamed_addr alias void (%"class.network::NetworkConnectionTracker"*), void (%"class.network::NetworkConnectionTracker"*)* @_ZN7network24NetworkConnectionTrackerC2Ev

; Function Attrs: nounwind ssp uwtable
define hidden void @_ZN7network24NetworkConnectionTrackerC2EN4base17RepeatingCallbackIFvN4mojo15PendingReceiverINS_5mojom20NetworkChangeManagerEEEEEE(%"class.network::NetworkConnectionTracker"*, %"class.base::RepeatingCallback"*) unnamed_addr #0 align 2 {
  %3 = getelementptr inbounds %"class.network::NetworkConnectionTracker", %"class.network::NetworkConnectionTracker"* %0, i64 0, i32 0, i32 0
  store i32 (...)** bitcast (i8** getelementptr inbounds ({ [7 x i8*] }, { [7 x i8*] }* @_ZTVN7network24NetworkConnectionTrackerE, i64 0, inrange i32 0, i64 2) to i32 (...)**), i32 (...)*** %3, align 8
  %4 = getelementptr inbounds %"class.network::NetworkConnectionTracker", %"class.network::NetworkConnectionTracker"* %0, i64 0, i32 1, i32 0
  %5 = getelementptr inbounds %"class.base::RepeatingCallback", %"class.base::RepeatingCallback"* %1, i64 0, i32 0
  tail call void @_ZN4base8internal20CallbackBaseCopyableC2ERKS1_(%"class.base::internal::CallbackBaseCopyable"* %4, %"class.base::internal::CallbackBaseCopyable"* dereferenceable(8) %5) #10
  %6 = tail call dereferenceable(8) %class.scoped_refptr.195* @_ZN4base22ThreadTaskRunnerHandle3GetEv() #10
  %7 = bitcast %class.scoped_refptr.195* %6 to %"class.base::SequencedTaskRunner"**
  %8 = load %"class.base::SequencedTaskRunner"*, %"class.base::SequencedTaskRunner"** %7, align 8
  %9 = getelementptr inbounds %"class.network::NetworkConnectionTracker", %"class.network::NetworkConnectionTracker"* %0, i64 0, i32 2, i32 0
  store %"class.base::SequencedTaskRunner"* %8, %"class.base::SequencedTaskRunner"** %9, align 8
  %10 = icmp eq %"class.base::SequencedTaskRunner"* %8, null
  br i1 %10, label %14, label %11

11:                                               ; preds = %2
  %12 = getelementptr inbounds %"class.base::SequencedTaskRunner", %"class.base::SequencedTaskRunner"* %8, i64 0, i32 0, i32 1, i32 0, i32 0, i32 0, i32 0, i32 0, i32 0, i32 0, i32 0
  %13 = atomicrmw add i32* %12, i32 1 monotonic
  br label %14

14:                                               ; preds = %2, %11
  %15 = getelementptr inbounds %"class.network::NetworkConnectionTracker", %"class.network::NetworkConnectionTracker"* %0, i64 0, i32 3, i32 0
  tail call void @_ZN4base8internal8LockImplC1Ev(%"class.base::internal::LockImpl"* %15) #10
  %16 = getelementptr inbounds %"class.network::NetworkConnectionTracker", %"class.network::NetworkConnectionTracker"* %0, i64 0, i32 4
  %17 = getelementptr inbounds %"class.std::__1::list", %"class.std::__1::list"* %16, i64 0, i32 0, i32 0
  %18 = getelementptr inbounds %"class.std::__1::list", %"class.std::__1::list"* %16, i64 0, i32 0, i32 0, i32 0
  store %"struct.std::__1::__list_node_base"* %17, %"struct.std::__1::__list_node_base"** %18, align 8
  %19 = getelementptr inbounds %"class.network::NetworkConnectionTracker", %"class.network::NetworkConnectionTracker"* %0, i64 0, i32 4, i32 0, i32 0, i32 1
  store %"struct.std::__1::__list_node_base"* %17, %"struct.std::__1::__list_node_base"** %19, align 8
  %20 = getelementptr inbounds %"class.network::NetworkConnectionTracker", %"class.network::NetworkConnectionTracker"* %0, i64 0, i32 4, i32 0, i32 1, i32 0, i32 0
  store i64 0, i64* %20, align 8
  %21 = getelementptr inbounds %"class.network::NetworkConnectionTracker", %"class.network::NetworkConnectionTracker"* %0, i64 0, i32 5
  store i32 -1, i32* %21, align 8
  %22 = tail call i8* @_Znwm(i64 104) #11
  %23 = getelementptr inbounds i8, i8* %22, i64 8
  %24 = bitcast i8* %23 to i32*
  store i32 0, i32* %24, align 4
  %25 = bitcast i8* %22 to i32 (...)***
  store i32 (...)** bitcast (i8** getelementptr inbounds ({ [4 x i8*] }, { [4 x i8*] }* @_ZTVN4base22ObserverListThreadSafeIN7network24NetworkConnectionTracker25NetworkConnectionObserverEEE, i64 0, inrange i32 0, i64 2) to i32 (...)**), i32 (...)*** %25, align 8
  %26 = getelementptr inbounds i8, i8* %22, i64 12
  %27 = bitcast i8* %26 to i32*
  store i32 1, i32* %27, align 4
  %28 = getelementptr inbounds i8, i8* %22, i64 16
  %29 = bitcast i8* %28 to %"class.base::internal::LockImpl"*
  tail call void @_ZN4base8internal8LockImplC1Ev(%"class.base::internal::LockImpl"* %29) #10
  %30 = getelementptr inbounds i8, i8* %22, i64 56
  %31 = getelementptr inbounds i8, i8* %22, i64 96
  %32 = bitcast i8* %31 to i32*
  tail call void @llvm.memset.p0i8.i64(i8* align 8 %30, i8 0, i64 40, i1 false) #10
  store i32 1065353216, i32* %32, align 4
  %33 = getelementptr inbounds %"class.network::NetworkConnectionTracker", %"class.network::NetworkConnectionTracker"* %0, i64 0, i32 6, i32 0
  %34 = bitcast %"class.base::ObserverListThreadSafe"** %33 to i8**
  store i8* %22, i8** %34, align 8
  %35 = atomicrmw add i32* %24, i32 1 monotonic
  %36 = tail call i8* @_Znwm(i64 104) #11
  %37 = getelementptr inbounds i8, i8* %36, i64 8
  %38 = bitcast i8* %37 to i32*
  store i32 0, i32* %38, align 4
  %39 = bitcast i8* %36 to i32 (...)***
  store i32 (...)** bitcast (i8** getelementptr inbounds ({ [4 x i8*] }, { [4 x i8*] }* @_ZTVN4base22ObserverListThreadSafeIN7network24NetworkConnectionTracker25NetworkConnectionObserverEEE, i64 0, inrange i32 0, i64 2) to i32 (...)**), i32 (...)*** %39, align 8
  %40 = getelementptr inbounds i8, i8* %36, i64 12
  %41 = bitcast i8* %40 to i32*
  store i32 1, i32* %41, align 4
  %42 = getelementptr inbounds i8, i8* %36, i64 16
  %43 = bitcast i8* %42 to %"class.base::internal::LockImpl"*
  tail call void @_ZN4base8internal8LockImplC1Ev(%"class.base::internal::LockImpl"* %43) #10
  %44 = getelementptr inbounds i8, i8* %36, i64 56
  %45 = getelementptr inbounds i8, i8* %36, i64 96
  %46 = bitcast i8* %45 to i32*
  tail call void @llvm.memset.p0i8.i64(i8* align 8 %44, i8 0, i64 40, i1 false) #10
  store i32 1065353216, i32* %46, align 4
  %47 = getelementptr inbounds %"class.network::NetworkConnectionTracker", %"class.network::NetworkConnectionTracker"* %0, i64 0, i32 7, i32 0
  %48 = bitcast %"class.base::ObserverListThreadSafe"** %47 to i8**
  store i8* %36, i8** %48, align 8
  %49 = atomicrmw add i32* %38, i32 1 monotonic
  %50 = getelementptr inbounds %"class.network::NetworkConnectionTracker", %"class.network::NetworkConnectionTracker"* %0, i64 0, i32 8, i32 0, i32 0
  tail call void @_ZN4mojo8internal16BindingStateBaseC2Ev(%"class.mojo::internal::BindingStateBase"* %50) #10
  %51 = getelementptr inbounds %"class.network::NetworkConnectionTracker", %"class.network::NetworkConnectionTracker"* %0, i64 0, i32 8, i32 0, i32 1, i32 0, i32 0, i32 0
  store i32 (...)** bitcast (i8** getelementptr inbounds ({ [7 x i8*] }, { [7 x i8*] }* @_ZTVN7network5mojom30NetworkChangeManagerClientStubIN4mojo19RawPtrImplRefTraitsINS0_26NetworkChangeManagerClientEEEEE, i64 0, inrange i32 0, i64 2) to i32 (...)**), i32 (...)*** %51, align 8
  %52 = ptrtoint %"class.network::NetworkConnectionTracker"* %0 to i64
  %53 = getelementptr inbounds %"class.network::NetworkConnectionTracker", %"class.network::NetworkConnectionTracker"* %0, i64 0, i32 8, i32 0, i32 1, i32 1
  %54 = bitcast %"class.network::mojom::NetworkChangeManagerClient"** %53 to i64*
  store i64 %52, i64* %54, align 8
  tail call void @_ZN7network24NetworkConnectionTracker10InitializeEv(%"class.network::NetworkConnectionTracker"* %0)
  ret void
}

declare dereferenceable(8) %class.scoped_refptr.195* @_ZN4base22ThreadTaskRunnerHandle3GetEv() local_unnamed_addr #1

; Function Attrs: nobuiltin nofree
declare noalias nonnull i8* @_Znwm(i64) local_unnamed_addr #2

; Function Attrs: nounwind ssp uwtable
define hidden void @_ZN7network24NetworkConnectionTracker10InitializeEv(%"class.network::NetworkConnectionTracker"*) local_unnamed_addr #0 align 2 {
  %2 = alloca %"class.base::OnceCallback", align 8
  %3 = alloca %"class.base::OnceCallback", align 8
  %4 = alloca %"class.mojo::Remote", align 8
  %5 = alloca %"class.mojo::PendingReceiver", align 8
  %6 = alloca %"class.mojo::PendingRemote", align 4
  %7 = alloca %"class.base::OnceCallback", align 8
  %8 = bitcast %"class.mojo::Remote"* %4 to i8*
  call void @llvm.lifetime.start.p0i8(i64 48, i8* nonnull %8) #10
  call void @llvm.memset.p0i8.i64(i8* nonnull align 8 %8, i8 -86, i64 48, i1 false)
  %9 = bitcast %"class.mojo::Remote"* %4 to %"class.mojo::internal::InterfacePtrStateBase"*
  call void @_ZN4mojo8internal21InterfacePtrStateBaseC2Ev(%"class.mojo::internal::InterfacePtrStateBase"* nonnull %9) #10
  %10 = getelementptr inbounds %"class.mojo::Remote", %"class.mojo::Remote"* %4, i64 0, i32 0, i32 1
  %11 = bitcast %"class.std::__1::unique_ptr.198"* %10 to i64*
  store i64 0, i64* %11, align 8
  call void @_ZN4mojo6RemoteIN7network5mojom20NetworkChangeManagerEE26BindNewPipeAndPassReceiverE13scoped_refptrIN4base19SequencedTaskRunnerEE(%"class.mojo::PendingReceiver"* nonnull sret %5, %"class.mojo::Remote"* nonnull %4, %"class.base::SequencedTaskRunner"* null) #10
  %12 = getelementptr inbounds %"class.network::NetworkConnectionTracker", %"class.network::NetworkConnectionTracker"* %0, i64 0, i32 1, i32 0, i32 0, i32 0, i32 0
  %13 = load %"class.base::internal::BindStateBase"*, %"class.base::internal::BindStateBase"** %12, align 8
  %14 = getelementptr inbounds %"class.base::internal::BindStateBase", %"class.base::internal::BindStateBase"* %13, i64 0, i32 1
  %15 = bitcast void ()** %14 to void (%"class.base::internal::BindStateBase"*, %"class.mojo::PendingReceiver"*)**
  %16 = load void (%"class.base::internal::BindStateBase"*, %"class.mojo::PendingReceiver"*)*, void (%"class.base::internal::BindStateBase"*, %"class.mojo::PendingReceiver"*)** %15, align 8
  call void %16(%"class.base::internal::BindStateBase"* %13, %"class.mojo::PendingReceiver"* nonnull dereferenceable(24) %5) #10
  %17 = getelementptr inbounds %"class.mojo::PendingReceiver", %"class.mojo::PendingReceiver"* %5, i64 0, i32 0
  call void @_ZN4mojo8internal20PendingReceiverStateD1Ev(%"struct.mojo::internal::PendingReceiverState"* nonnull %17) #10
  %18 = getelementptr inbounds %"class.mojo::Remote", %"class.mojo::Remote"* %4, i64 0, i32 0
  call void @_ZN4mojo8internal17InterfacePtrStateIN7network5mojom20NetworkChangeManagerEE25ConfigureProxyIfNecessaryEv(%"class.mojo::internal::InterfacePtrState"* nonnull %18) #10
  %19 = getelementptr inbounds %"class.mojo::Remote", %"class.mojo::Remote"* %4, i64 0, i32 0, i32 1, i32 0, i32 0, i32 0
  %20 = load %"class.network::mojom::NetworkChangeManagerProxy"*, %"class.network::mojom::NetworkChangeManagerProxy"** %19, align 8
  %21 = getelementptr inbounds %"class.network::NetworkConnectionTracker", %"class.network::NetworkConnectionTracker"* %0, i64 0, i32 8
  call void @_ZN4mojo8ReceiverIN7network5mojom26NetworkChangeManagerClientENS_19RawPtrImplRefTraitsIS3_EEE24BindNewPipeAndPassRemoteE13scoped_refptrIN4base19SequencedTaskRunnerEE(%"class.mojo::PendingRemote"* nonnull sret %6, %"class.mojo::Receiver"* %21, %"class.base::SequencedTaskRunner"* null) #10
  call void @_ZN7network5mojom25NetworkChangeManagerProxy20RequestNotificationsEN4mojo13PendingRemoteINS0_26NetworkChangeManagerClientEEE(%"class.network::mojom::NetworkChangeManagerProxy"* %20, %"class.mojo::PendingRemote"* nonnull %6) #10
  %22 = getelementptr inbounds %"class.mojo::PendingRemote", %"class.mojo::PendingRemote"* %6, i64 0, i32 0
  call void @_ZN4mojo8internal18PendingRemoteStateD1Ev(%"struct.mojo::internal::PendingRemoteState"* nonnull %22) #10
  %23 = ptrtoint %"class.network::NetworkConnectionTracker"* %0 to i64
  %24 = call i8* @_Znwm(i64 56) #11, !noalias !2
  %25 = bitcast i8* %24 to %"class.base::internal::BindStateBase"*
  call void @_ZN4base8internal13BindStateBaseC2EPFvvEPFvPKS1_E(%"class.base::internal::BindStateBase"* nonnull %25, void ()* bitcast (void (%"class.base::internal::BindStateBase"*)* @_ZN4base8internal7InvokerINS0_9BindStateIMN7network24NetworkConnectionTrackerEFvvEJNS0_17UnretainedWrapperIS4_EEEEEFvvEE7RunOnceEPNS0_13BindStateBaseE to void ()*), void (%"class.base::internal::BindStateBase"*)* nonnull @_ZN4base8internal9BindStateIMN7network24NetworkConnectionTrackerEFvvEJNS0_17UnretainedWrapperIS3_EEEE7DestroyEPKNS0_13BindStateBaseE) #10, !noalias !2
  %26 = getelementptr inbounds i8, i8* %24, i64 32
  %27 = bitcast i8* %26 to <2 x i64>*
  store <2 x i64> <i64 ptrtoint (void (%"class.network::NetworkConnectionTracker"*)* @_ZN7network24NetworkConnectionTracker30HandleNetworkServicePipeBrokenEv to i64), i64 0>, <2 x i64>* %27, align 8, !noalias !2
  %28 = getelementptr inbounds i8, i8* %24, i64 48
  %29 = bitcast i8* %28 to i64*
  store i64 %23, i64* %29, align 8, !noalias !2
  %30 = bitcast %"class.base::OnceCallback"* %3 to i8*
  call void @llvm.lifetime.start.p0i8(i64 8, i8* nonnull %30)
  %31 = getelementptr inbounds %"class.base::OnceCallback", %"class.base::OnceCallback"* %7, i64 0, i32 0, i32 0, i32 0
  %32 = ptrtoint i8* %24 to i64
  store %"class.base::internal::BindStateBase"* null, %"class.base::internal::BindStateBase"** %31, align 8
  %33 = bitcast %"class.base::OnceCallback"* %2 to i8*
  call void @llvm.lifetime.start.p0i8(i64 8, i8* nonnull %33) #10
  %34 = getelementptr inbounds %"class.network::NetworkConnectionTracker", %"class.network::NetworkConnectionTracker"* %0, i64 0, i32 8, i32 0, i32 0, i32 1, i32 0, i32 0, i32 0
  %35 = load %"class.mojo::InterfaceEndpointClient"*, %"class.mojo::InterfaceEndpointClient"** %34, align 8
  %36 = getelementptr inbounds %"class.base::OnceCallback", %"class.base::OnceCallback"* %3, i64 0, i32 0, i32 0, i32 0
  %37 = bitcast %"class.base::OnceCallback"* %2 to i64*
  store i64 %32, i64* %37, align 8
  store %"class.base::internal::BindStateBase"* null, %"class.base::internal::BindStateBase"** %36, align 8
  %38 = getelementptr inbounds %"class.mojo::InterfaceEndpointClient", %"class.mojo::InterfaceEndpointClient"* %35, i64 0, i32 17, i32 0
  %39 = getelementptr inbounds %"class.base::OnceCallback", %"class.base::OnceCallback"* %2, i64 0, i32 0
  %40 = call dereferenceable(8) %"class.base::internal::CallbackBase"* @_ZN4base8internal12CallbackBaseaSEOS1_(%"class.base::internal::CallbackBase"* %38, %"class.base::internal::CallbackBase"* nonnull dereferenceable(8) %39) #10
  %41 = getelementptr inbounds %"class.mojo::InterfaceEndpointClient", %"class.mojo::InterfaceEndpointClient"* %35, i64 0, i32 18, i32 0
  call void @_ZN4base8internal12CallbackBase5ResetEv(%"class.base::internal::CallbackBase"* %41) #10
  call void @_ZN4base8internal12CallbackBaseD2Ev(%"class.base::internal::CallbackBase"* nonnull %39) #10
  call void @llvm.lifetime.end.p0i8(i64 8, i8* nonnull %33) #10
  %42 = getelementptr inbounds %"class.base::OnceCallback", %"class.base::OnceCallback"* %3, i64 0, i32 0
  call void @_ZN4base8internal12CallbackBaseD2Ev(%"class.base::internal::CallbackBase"* nonnull %42) #10
  call void @llvm.lifetime.end.p0i8(i64 8, i8* nonnull %30)
  %43 = getelementptr inbounds %"class.base::OnceCallback", %"class.base::OnceCallback"* %7, i64 0, i32 0
  call void @_ZN4base8internal12CallbackBaseD2Ev(%"class.base::internal::CallbackBase"* nonnull %43) #10
  %44 = load %"class.network::mojom::NetworkChangeManagerProxy"*, %"class.network::mojom::NetworkChangeManagerProxy"** %19, align 8
  store %"class.network::mojom::NetworkChangeManagerProxy"* null, %"class.network::mojom::NetworkChangeManagerProxy"** %19, align 8
  %45 = icmp eq %"class.network::mojom::NetworkChangeManagerProxy"* %44, null
  br i1 %45, label %51, label %46

46:                                               ; preds = %1
  %47 = bitcast %"class.network::mojom::NetworkChangeManagerProxy"* %44 to void (%"class.network::mojom::NetworkChangeManagerProxy"*)***
  %48 = load void (%"class.network::mojom::NetworkChangeManagerProxy"*)**, void (%"class.network::mojom::NetworkChangeManagerProxy"*)*** %47, align 8
  %49 = getelementptr inbounds void (%"class.network::mojom::NetworkChangeManagerProxy"*)*, void (%"class.network::mojom::NetworkChangeManagerProxy"*)** %48, i64 1
  %50 = load void (%"class.network::mojom::NetworkChangeManagerProxy"*)*, void (%"class.network::mojom::NetworkChangeManagerProxy"*)** %49, align 8
  call void %50(%"class.network::mojom::NetworkChangeManagerProxy"* nonnull %44) #10
  br label %51

51:                                               ; preds = %1, %46
  call void @_ZN4mojo8internal21InterfacePtrStateBaseD2Ev(%"class.mojo::internal::InterfacePtrStateBase"* nonnull %9) #10
  call void @llvm.lifetime.end.p0i8(i64 48, i8* nonnull %8) #10
  ret void
}

; Function Attrs: nounwind ssp uwtable
define hidden void @_ZN7network24NetworkConnectionTrackerD2Ev(%"class.network::NetworkConnectionTracker"*) unnamed_addr #0 align 2 {
  %2 = getelementptr inbounds %"class.network::NetworkConnectionTracker", %"class.network::NetworkConnectionTracker"* %0, i64 0, i32 0, i32 0
  store i32 (...)** bitcast (i8** getelementptr inbounds ({ [7 x i8*] }, { [7 x i8*] }* @_ZTVN7network24NetworkConnectionTrackerE, i64 0, inrange i32 0, i64 2) to i32 (...)**), i32 (...)*** %2, align 8
  %3 = getelementptr inbounds %"class.network::NetworkConnectionTracker", %"class.network::NetworkConnectionTracker"* %0, i64 0, i32 6, i32 0
  %4 = getelementptr inbounds %"class.network::NetworkConnectionTracker", %"class.network::NetworkConnectionTracker"* %0, i64 0, i32 8, i32 0, i32 0
  tail call void @_ZN4mojo8internal16BindingStateBase5CloseEv(%"class.mojo::internal::BindingStateBase"* %4) #10
  tail call void @_ZN4mojo8internal16BindingStateBaseD2Ev(%"class.mojo::internal::BindingStateBase"* %4) #10
  %5 = getelementptr inbounds %"class.network::NetworkConnectionTracker", %"class.network::NetworkConnectionTracker"* %0, i64 0, i32 7, i32 0
  %6 = load %"class.base::ObserverListThreadSafe"*, %"class.base::ObserverListThreadSafe"** %5, align 8
  %7 = icmp eq %"class.base::ObserverListThreadSafe"* %6, null
  br i1 %7, label %20, label %8

8:                                                ; preds = %1
  %9 = getelementptr inbounds %"class.base::ObserverListThreadSafe", %"class.base::ObserverListThreadSafe"* %6, i64 0, i32 0, i32 1
  %10 = getelementptr inbounds %"class.base::RefCountedThreadSafe.5", %"class.base::RefCountedThreadSafe.5"* %9, i64 0, i32 0, i32 0, i32 0, i32 0, i32 0, i32 0, i32 0, i32 0
  %11 = atomicrmw sub i32* %10, i32 1 acq_rel
  %12 = icmp eq i32 %11, 1
  br i1 %12, label %13, label %20

13:                                               ; preds = %8
  %14 = getelementptr inbounds %"class.base::RefCountedThreadSafe.5", %"class.base::RefCountedThreadSafe.5"* %9, i64 -2
  %15 = bitcast %"class.base::RefCountedThreadSafe.5"* %14 to %"class.base::internal::ObserverListThreadSafeBase"*
  %16 = bitcast %"class.base::RefCountedThreadSafe.5"* %14 to void (%"class.base::internal::ObserverListThreadSafeBase"*)***
  %17 = load void (%"class.base::internal::ObserverListThreadSafeBase"*)**, void (%"class.base::internal::ObserverListThreadSafeBase"*)*** %16, align 8
  %18 = getelementptr inbounds void (%"class.base::internal::ObserverListThreadSafeBase"*)*, void (%"class.base::internal::ObserverListThreadSafeBase"*)** %17, i64 1
  %19 = load void (%"class.base::internal::ObserverListThreadSafeBase"*)*, void (%"class.base::internal::ObserverListThreadSafeBase"*)** %18, align 8
  tail call void %19(%"class.base::internal::ObserverListThreadSafeBase"* nonnull %15) #10
  br label %20

20:                                               ; preds = %1, %8, %13
  %21 = load %"class.base::ObserverListThreadSafe"*, %"class.base::ObserverListThreadSafe"** %3, align 8
  %22 = icmp eq %"class.base::ObserverListThreadSafe"* %21, null
  br i1 %22, label %35, label %23

23:                                               ; preds = %20
  %24 = getelementptr inbounds %"class.base::ObserverListThreadSafe", %"class.base::ObserverListThreadSafe"* %21, i64 0, i32 0, i32 1
  %25 = getelementptr inbounds %"class.base::RefCountedThreadSafe.5", %"class.base::RefCountedThreadSafe.5"* %24, i64 0, i32 0, i32 0, i32 0, i32 0, i32 0, i32 0, i32 0, i32 0
  %26 = atomicrmw sub i32* %25, i32 1 acq_rel
  %27 = icmp eq i32 %26, 1
  br i1 %27, label %28, label %35

28:                                               ; preds = %23
  %29 = getelementptr inbounds %"class.base::RefCountedThreadSafe.5", %"class.base::RefCountedThreadSafe.5"* %24, i64 -2
  %30 = bitcast %"class.base::RefCountedThreadSafe.5"* %29 to %"class.base::internal::ObserverListThreadSafeBase"*
  %31 = bitcast %"class.base::RefCountedThreadSafe.5"* %29 to void (%"class.base::internal::ObserverListThreadSafeBase"*)***
  %32 = load void (%"class.base::internal::ObserverListThreadSafeBase"*)**, void (%"class.base::internal::ObserverListThreadSafeBase"*)*** %31, align 8
  %33 = getelementptr inbounds void (%"class.base::internal::ObserverListThreadSafeBase"*)*, void (%"class.base::internal::ObserverListThreadSafeBase"*)** %32, i64 1
  %34 = load void (%"class.base::internal::ObserverListThreadSafeBase"*)*, void (%"class.base::internal::ObserverListThreadSafeBase"*)** %33, align 8
  tail call void %34(%"class.base::internal::ObserverListThreadSafeBase"* nonnull %30) #10
  br label %35

35:                                               ; preds = %20, %23, %28
  %36 = getelementptr inbounds %"class.network::NetworkConnectionTracker", %"class.network::NetworkConnectionTracker"* %0, i64 0, i32 4, i32 0
  %37 = getelementptr inbounds %"class.network::NetworkConnectionTracker", %"class.network::NetworkConnectionTracker"* %0, i64 0, i32 4, i32 0, i32 1, i32 0, i32 0
  %38 = load i64, i64* %37, align 8
  %39 = icmp eq i64 %38, 0
  br i1 %39, label %66, label %40

40:                                               ; preds = %35
  %41 = getelementptr inbounds %"class.network::NetworkConnectionTracker", %"class.network::NetworkConnectionTracker"* %0, i64 0, i32 4, i32 0, i32 0, i32 1
  %42 = load %"struct.std::__1::__list_node_base"*, %"struct.std::__1::__list_node_base"** %41, align 8
  %43 = getelementptr inbounds %"class.std::__1::__list_imp", %"class.std::__1::__list_imp"* %36, i64 0, i32 0
  %44 = getelementptr inbounds %"class.std::__1::__list_imp", %"class.std::__1::__list_imp"* %36, i64 0, i32 0, i32 0
  %45 = load %"struct.std::__1::__list_node_base"*, %"struct.std::__1::__list_node_base"** %44, align 8
  %46 = getelementptr inbounds %"struct.std::__1::__list_node_base", %"struct.std::__1::__list_node_base"* %45, i64 0, i32 1
  %47 = bitcast %"struct.std::__1::__list_node_base"** %46 to i64*
  %48 = load i64, i64* %47, align 8
  %49 = getelementptr inbounds %"struct.std::__1::__list_node_base", %"struct.std::__1::__list_node_base"* %42, i64 0, i32 0
  %50 = load %"struct.std::__1::__list_node_base"*, %"struct.std::__1::__list_node_base"** %49, align 8
  %51 = getelementptr inbounds %"struct.std::__1::__list_node_base", %"struct.std::__1::__list_node_base"* %50, i64 0, i32 1
  %52 = bitcast %"struct.std::__1::__list_node_base"** %51 to i64*
  store i64 %48, i64* %52, align 8
  %53 = bitcast %"struct.std::__1::__list_node_base"* %42 to i64*
  %54 = load i64, i64* %53, align 8
  %55 = bitcast %"struct.std::__1::__list_node_base"** %46 to i64**
  %56 = load i64*, i64** %55, align 8
  store i64 %54, i64* %56, align 8
  store i64 0, i64* %37, align 8
  %57 = icmp eq %"struct.std::__1::__list_node_base"* %42, %43
  br i1 %57, label %66, label %58

58:                                               ; preds = %40, %58
  %59 = phi %"struct.std::__1::__list_node_base"* [ %61, %58 ], [ %42, %40 ]
  %60 = getelementptr inbounds %"struct.std::__1::__list_node_base", %"struct.std::__1::__list_node_base"* %59, i64 0, i32 1
  %61 = load %"struct.std::__1::__list_node_base"*, %"struct.std::__1::__list_node_base"** %60, align 8
  %62 = getelementptr inbounds %"struct.std::__1::__list_node_base", %"struct.std::__1::__list_node_base"* %59, i64 1
  %63 = bitcast %"struct.std::__1::__list_node_base"* %62 to %"class.base::internal::CallbackBase"*
  tail call void @_ZN4base8internal12CallbackBaseD2Ev(%"class.base::internal::CallbackBase"* %63) #10
  %64 = bitcast %"struct.std::__1::__list_node_base"* %59 to i8*
  tail call void @_ZdlPv(i8* %64) #11
  %65 = icmp eq %"struct.std::__1::__list_node_base"* %61, %43
  br i1 %65, label %66, label %58

66:                                               ; preds = %58, %35, %40
  %67 = getelementptr inbounds %"class.network::NetworkConnectionTracker", %"class.network::NetworkConnectionTracker"* %0, i64 0, i32 3, i32 0
  tail call void @_ZN4base8internal8LockImplD1Ev(%"class.base::internal::LockImpl"* %67) #10
  %68 = getelementptr inbounds %"class.network::NetworkConnectionTracker", %"class.network::NetworkConnectionTracker"* %0, i64 0, i32 2, i32 0
  %69 = load %"class.base::SequencedTaskRunner"*, %"class.base::SequencedTaskRunner"** %68, align 8
  %70 = icmp eq %"class.base::SequencedTaskRunner"* %69, null
  br i1 %70, label %79, label %71

71:                                               ; preds = %66
  %72 = getelementptr inbounds %"class.base::SequencedTaskRunner", %"class.base::SequencedTaskRunner"* %69, i64 0, i32 0, i32 1
  %73 = getelementptr inbounds %"class.base::RefCountedThreadSafe.2", %"class.base::RefCountedThreadSafe.2"* %72, i64 0, i32 0, i32 0, i32 0, i32 0, i32 0, i32 0, i32 0, i32 0
  %74 = atomicrmw sub i32* %73, i32 1 acq_rel
  %75 = icmp eq i32 %74, 1
  br i1 %75, label %76, label %79

76:                                               ; preds = %71
  %77 = getelementptr inbounds %"class.base::RefCountedThreadSafe.2", %"class.base::RefCountedThreadSafe.2"* %72, i64 -2
  %78 = bitcast %"class.base::RefCountedThreadSafe.2"* %77 to %"class.base::TaskRunner"*
  tail call void @_ZN4base16TaskRunnerTraits8DestructEPKNS_10TaskRunnerE(%"class.base::TaskRunner"* %78) #10
  br label %79

79:                                               ; preds = %66, %71, %76
  %80 = getelementptr inbounds %"class.network::NetworkConnectionTracker", %"class.network::NetworkConnectionTracker"* %0, i64 0, i32 1, i32 0, i32 0
  tail call void @_ZN4base8internal12CallbackBaseD2Ev(%"class.base::internal::CallbackBase"* %80) #10
  ret void
}

; Function Attrs: nounwind ssp uwtable
define hidden void @_ZN7network24NetworkConnectionTrackerD0Ev(%"class.network::NetworkConnectionTracker"*) unnamed_addr #0 align 2 {
  tail call void @_ZN7network24NetworkConnectionTrackerD2Ev(%"class.network::NetworkConnectionTracker"* %0) #10
  %2 = bitcast %"class.network::NetworkConnectionTracker"* %0 to i8*
  tail call void @_ZdlPv(i8* %2) #11
  ret void
}

; Function Attrs: nobuiltin nounwind
declare void @_ZdlPv(i8*) local_unnamed_addr #3

; Function Attrs: nounwind ssp uwtable
define hidden zeroext i1 @_ZN7network24NetworkConnectionTracker17GetConnectionTypeEPNS_5mojom14ConnectionTypeEN4base12OnceCallbackIFvS2_EEE(%"class.network::NetworkConnectionTracker"*, i32* nocapture, %"class.base::OnceCallback.196"* nocapture) unnamed_addr #0 align 2 {
  %4 = alloca %"class.base::OnceCallback.196", align 8
  %5 = getelementptr inbounds %"class.network::NetworkConnectionTracker", %"class.network::NetworkConnectionTracker"* %0, i64 0, i32 5
  %6 = load atomic i32, i32* %5 monotonic, align 4
  %7 = icmp eq i32 %6, -1
  br i1 %7, label %9, label %8

8:                                                ; preds = %3
  store i32 %6, i32* %1, align 4
  br label %90

9:                                                ; preds = %3
  %10 = getelementptr inbounds %"class.network::NetworkConnectionTracker", %"class.network::NetworkConnectionTracker"* %0, i64 0, i32 3
  %11 = getelementptr inbounds %"class.base::Lock", %"class.base::Lock"* %10, i64 0, i32 0, i32 0
  %12 = tail call i32 @pthread_mutex_trylock(%union.pthread_mutex_t* %11) #10
  %13 = icmp eq i32 %12, 0
  br i1 %13, label %16, label %14, !prof !7

14:                                               ; preds = %9
  %15 = getelementptr inbounds %"class.base::Lock", %"class.base::Lock"* %10, i64 0, i32 0
  tail call void @_ZN4base8internal8LockImpl24LockInternalWithTrackingEv(%"class.base::internal::LockImpl"* %15) #10
  br label %16

16:                                               ; preds = %9, %14
  %17 = load atomic i32, i32* %5 monotonic, align 4
  %18 = icmp eq i32 %17, -1
  br i1 %18, label %20, label %19

19:                                               ; preds = %16
  store i32 %17, i32* %1, align 4
  br label %87

20:                                               ; preds = %16
  %21 = getelementptr inbounds %"class.network::NetworkConnectionTracker", %"class.network::NetworkConnectionTracker"* %0, i64 0, i32 2, i32 0
  %22 = load %"class.base::SequencedTaskRunner"*, %"class.base::SequencedTaskRunner"** %21, align 8
  %23 = bitcast %"class.base::SequencedTaskRunner"* %22 to i1 (%"class.base::SequencedTaskRunner"*)***
  %24 = load i1 (%"class.base::SequencedTaskRunner"*)**, i1 (%"class.base::SequencedTaskRunner"*)*** %23, align 8
  %25 = getelementptr inbounds i1 (%"class.base::SequencedTaskRunner"*)*, i1 (%"class.base::SequencedTaskRunner"*)** %24, i64 5
  %26 = load i1 (%"class.base::SequencedTaskRunner"*)*, i1 (%"class.base::SequencedTaskRunner"*)** %25, align 8
  %27 = tail call zeroext i1 %26(%"class.base::SequencedTaskRunner"* %22) #10
  %28 = getelementptr inbounds %"class.network::NetworkConnectionTracker", %"class.network::NetworkConnectionTracker"* %0, i64 0, i32 4
  br i1 %27, label %68, label %29

29:                                               ; preds = %20
  %30 = bitcast %"class.base::OnceCallback.196"* %4 to i8*
  call void @llvm.lifetime.start.p0i8(i64 8, i8* nonnull %30) #10
  %31 = tail call dereferenceable(8) %class.scoped_refptr.1* @_ZN4base25SequencedTaskRunnerHandle3GetEv() #10
  %32 = tail call i8* @_Znwm(i64 56) #11, !noalias !8
  %33 = bitcast i8* %32 to %"class.base::internal::BindStateBase"*
  tail call void @_ZN4base8internal13BindStateBaseC2EPFvvEPFvPKS1_E(%"class.base::internal::BindStateBase"* nonnull %33, void ()* bitcast (void (%"class.base::internal::BindStateBase"*, i32)* @_ZN4base8internal7InvokerINS0_9BindStateIPFv13scoped_refptrINS_10TaskRunnerEENS_12OnceCallbackIFvN7network5mojom14ConnectionTypeEEEES9_EJS3_INS_19SequencedTaskRunnerEESB_EEESA_E7RunOnceEPNS0_13BindStateBaseES9_ to void ()*), void (%"class.base::internal::BindStateBase"*)* nonnull @_ZN4base8internal9BindStateIPFv13scoped_refptrINS_10TaskRunnerEENS_12OnceCallbackIFvN7network5mojom14ConnectionTypeEEEES8_EJS2_INS_19SequencedTaskRunnerEESA_EE7DestroyEPKNS0_13BindStateBaseE) #10, !noalias !8
  %34 = getelementptr inbounds i8, i8* %32, i64 32
  %35 = bitcast i8* %34 to i64*
  store i64 ptrtoint (void (%"class.base::TaskRunner"*, %"class.base::OnceCallback.196"*, i32)* @_ZN7network12_GLOBAL__N_119OnGetConnectionTypeE13scoped_refptrIN4base10TaskRunnerEENS2_12OnceCallbackIFvNS_5mojom14ConnectionTypeEEEES7_ to i64), i64* %35, align 8, !noalias !8
  %36 = getelementptr inbounds %class.scoped_refptr.1, %class.scoped_refptr.1* %31, i64 0, i32 0
  %37 = load %"class.base::SequencedTaskRunner"*, %"class.base::SequencedTaskRunner"** %36, align 8, !noalias !8
  %38 = getelementptr inbounds i8, i8* %32, i64 40
  %39 = bitcast i8* %38 to %"class.base::SequencedTaskRunner"**
  store %"class.base::SequencedTaskRunner"* %37, %"class.base::SequencedTaskRunner"** %39, align 8, !noalias !8
  %40 = icmp eq %"class.base::SequencedTaskRunner"* %37, null
  br i1 %40, label %44, label %41

41:                                               ; preds = %29
  %42 = getelementptr inbounds %"class.base::SequencedTaskRunner", %"class.base::SequencedTaskRunner"* %37, i64 0, i32 0, i32 1, i32 0, i32 0, i32 0, i32 0, i32 0, i32 0, i32 0, i32 0
  %43 = atomicrmw add i32* %42, i32 1 monotonic, !noalias !8
  br label %44

44:                                               ; preds = %29, %41
  %45 = getelementptr inbounds i8, i8* %32, i64 48
  %46 = getelementptr inbounds %"class.base::OnceCallback.196", %"class.base::OnceCallback.196"* %2, i64 0, i32 0, i32 0, i32 0
  %47 = bitcast %"class.base::OnceCallback.196"* %2 to i64*
  %48 = load i64, i64* %47, align 8, !noalias !8
  %49 = bitcast i8* %45 to i64*
  store i64 %48, i64* %49, align 8, !noalias !8
  store %"class.base::internal::BindStateBase"* null, %"class.base::internal::BindStateBase"** %46, align 8, !noalias !8
  %50 = tail call i8* @_Znwm(i64 24) #11, !noalias !13
  %51 = bitcast i8* %50 to %"struct.std::__1::__list_node_base"**
  %52 = getelementptr inbounds i8, i8* %50, i64 16
  %53 = getelementptr inbounds %"class.base::OnceCallback.196", %"class.base::OnceCallback.196"* %4, i64 0, i32 0, i32 0, i32 0
  %54 = ptrtoint i8* %32 to i64
  %55 = bitcast i8* %52 to i64*
  store i64 %54, i64* %55, align 8
  store %"class.base::internal::BindStateBase"* null, %"class.base::internal::BindStateBase"** %53, align 8
  %56 = getelementptr inbounds %"class.std::__1::list", %"class.std::__1::list"* %28, i64 0, i32 0, i32 0
  %57 = getelementptr inbounds i8, i8* %50, i64 8
  %58 = bitcast i8* %57 to %"struct.std::__1::__list_node_base"**
  store %"struct.std::__1::__list_node_base"* %56, %"struct.std::__1::__list_node_base"** %58, align 8
  %59 = getelementptr inbounds %"class.std::__1::list", %"class.std::__1::list"* %28, i64 0, i32 0, i32 0, i32 0
  %60 = load %"struct.std::__1::__list_node_base"*, %"struct.std::__1::__list_node_base"** %59, align 8
  store %"struct.std::__1::__list_node_base"* %60, %"struct.std::__1::__list_node_base"** %51, align 8
  %61 = getelementptr inbounds %"struct.std::__1::__list_node_base", %"struct.std::__1::__list_node_base"* %60, i64 0, i32 1
  %62 = bitcast %"struct.std::__1::__list_node_base"** %61 to i8**
  store i8* %50, i8** %62, align 8
  %63 = bitcast %"class.std::__1::list"* %28 to i8**
  store i8* %50, i8** %63, align 8
  %64 = getelementptr inbounds %"class.network::NetworkConnectionTracker", %"class.network::NetworkConnectionTracker"* %0, i64 0, i32 4, i32 0, i32 1, i32 0, i32 0
  %65 = load i64, i64* %64, align 8
  %66 = add i64 %65, 1
  store i64 %66, i64* %64, align 8
  %67 = getelementptr inbounds %"class.base::OnceCallback.196", %"class.base::OnceCallback.196"* %4, i64 0, i32 0
  call void @_ZN4base8internal12CallbackBaseD2Ev(%"class.base::internal::CallbackBase"* nonnull %67) #10
  call void @llvm.lifetime.end.p0i8(i64 8, i8* nonnull %30) #10
  br label %87

68:                                               ; preds = %20
  %69 = tail call i8* @_Znwm(i64 24) #11, !noalias !16
  %70 = bitcast i8* %69 to %"struct.std::__1::__list_node_base"**
  %71 = getelementptr inbounds i8, i8* %69, i64 16
  %72 = getelementptr inbounds %"class.base::OnceCallback.196", %"class.base::OnceCallback.196"* %2, i64 0, i32 0, i32 0, i32 0
  %73 = bitcast %"class.base::OnceCallback.196"* %2 to i64*
  %74 = load i64, i64* %73, align 8
  %75 = bitcast i8* %71 to i64*
  store i64 %74, i64* %75, align 8
  store %"class.base::internal::BindStateBase"* null, %"class.base::internal::BindStateBase"** %72, align 8
  %76 = getelementptr inbounds %"class.std::__1::list", %"class.std::__1::list"* %28, i64 0, i32 0, i32 0
  %77 = getelementptr inbounds i8, i8* %69, i64 8
  %78 = bitcast i8* %77 to %"struct.std::__1::__list_node_base"**
  store %"struct.std::__1::__list_node_base"* %76, %"struct.std::__1::__list_node_base"** %78, align 8
  %79 = getelementptr inbounds %"class.std::__1::list", %"class.std::__1::list"* %28, i64 0, i32 0, i32 0, i32 0
  %80 = load %"struct.std::__1::__list_node_base"*, %"struct.std::__1::__list_node_base"** %79, align 8
  store %"struct.std::__1::__list_node_base"* %80, %"struct.std::__1::__list_node_base"** %70, align 8
  %81 = getelementptr inbounds %"struct.std::__1::__list_node_base", %"struct.std::__1::__list_node_base"* %80, i64 0, i32 1
  %82 = bitcast %"struct.std::__1::__list_node_base"** %81 to i8**
  store i8* %69, i8** %82, align 8
  %83 = bitcast %"class.std::__1::list"* %28 to i8**
  store i8* %69, i8** %83, align 8
  %84 = getelementptr inbounds %"class.network::NetworkConnectionTracker", %"class.network::NetworkConnectionTracker"* %0, i64 0, i32 4, i32 0, i32 1, i32 0, i32 0
  %85 = load i64, i64* %84, align 8
  %86 = add i64 %85, 1
  store i64 %86, i64* %84, align 8
  br label %87

87:                                               ; preds = %44, %68, %19
  %88 = phi i1 [ true, %19 ], [ false, %68 ], [ false, %44 ]
  %89 = call i32 @pthread_mutex_unlock(%union.pthread_mutex_t* %11) #10
  br label %90

90:                                               ; preds = %87, %8
  %91 = phi i1 [ true, %8 ], [ %88, %87 ]
  ret i1 %91
}

; Function Attrs: argmemonly nounwind
declare void @llvm.lifetime.start.p0i8(i64 immarg, i8* nocapture) #4

; Function Attrs: nounwind ssp uwtable
define internal void @_ZN7network12_GLOBAL__N_119OnGetConnectionTypeE13scoped_refptrIN4base10TaskRunnerEENS2_12OnceCallbackIFvNS_5mojom14ConnectionTypeEEEES7_(%"class.base::TaskRunner"*, %"class.base::OnceCallback.196"* nocapture, i32) #0 {
  %4 = alloca %"class.base::Location", align 8
  %5 = alloca %"class.base::OnceCallback", align 8
  %6 = bitcast %"class.base::Location"* %4 to i8*
  call void @llvm.lifetime.start.p0i8(i64 32, i8* nonnull %6) #10
  call void @_ZN4base8Location7CurrentEPKcS2_i(%"class.base::Location"* nonnull sret %4, i8* getelementptr inbounds ([20 x i8], [20 x i8]* @.str.2, i64 0, i64 0), i8* getelementptr inbounds ([64 x i8], [64 x i8]* @.str.1, i64 0, i64 0), i32 27) #10
  %7 = call i8* @_Znwm(i64 56) #11, !noalias !19
  %8 = bitcast i8* %7 to %"class.base::internal::BindStateBase"*
  call void @_ZN4base8internal13BindStateBaseC2EPFvvEPFvPKS1_E(%"class.base::internal::BindStateBase"* nonnull %8, void ()* bitcast (void (%"class.base::internal::BindStateBase"*)* @"_ZN4base8internal7InvokerINS0_9BindStateIZN7network12_GLOBAL__N_119OnGetConnectionTypeE13scoped_refptrINS_10TaskRunnerEENS_12OnceCallbackIFvNS3_5mojom14ConnectionTypeEEEESA_E3$_0JSC_SA_EEEFvvEE7RunOnceEPNS0_13BindStateBaseE" to void ()*), void (%"class.base::internal::BindStateBase"*)* nonnull @"_ZN4base8internal9BindStateIZN7network12_GLOBAL__N_119OnGetConnectionTypeE13scoped_refptrINS_10TaskRunnerEENS_12OnceCallbackIFvNS2_5mojom14ConnectionTypeEEEES9_E3$_0JSB_S9_EE7DestroyEPKNS0_13BindStateBaseE") #10, !noalias !19
  %9 = getelementptr inbounds i8, i8* %7, i64 40
  %10 = getelementptr inbounds %"class.base::OnceCallback.196", %"class.base::OnceCallback.196"* %1, i64 0, i32 0, i32 0, i32 0
  %11 = bitcast %"class.base::OnceCallback.196"* %1 to i64*
  %12 = load i64, i64* %11, align 8, !noalias !19
  %13 = bitcast i8* %9 to i64*
  store i64 %12, i64* %13, align 8, !noalias !19
  store %"class.base::internal::BindStateBase"* null, %"class.base::internal::BindStateBase"** %10, align 8, !noalias !19
  %14 = getelementptr inbounds i8, i8* %7, i64 48
  %15 = bitcast i8* %14 to i32*
  store i32 %2, i32* %15, align 4, !noalias !19
  %16 = bitcast %"class.base::OnceCallback"* %5 to i8**
  store i8* %7, i8** %16, align 8, !alias.scope !19
  %17 = call zeroext i1 @_ZN4base10TaskRunner8PostTaskERKNS_8LocationENS_12OnceCallbackIFvvEEE(%"class.base::TaskRunner"* %0, %"class.base::Location"* nonnull dereferenceable(32) %4, %"class.base::OnceCallback"* nonnull %5) #10
  %18 = getelementptr inbounds %"class.base::OnceCallback", %"class.base::OnceCallback"* %5, i64 0, i32 0
  call void @_ZN4base8internal12CallbackBaseD2Ev(%"class.base::internal::CallbackBase"* nonnull %18) #10
  call void @llvm.lifetime.end.p0i8(i64 32, i8* nonnull %6) #10
  %19 = icmp eq %"class.base::TaskRunner"* %0, null
  br i1 %19, label %28, label %20

20:                                               ; preds = %3
  %21 = getelementptr inbounds %"class.base::TaskRunner", %"class.base::TaskRunner"* %0, i64 0, i32 1
  %22 = getelementptr inbounds %"class.base::RefCountedThreadSafe.2", %"class.base::RefCountedThreadSafe.2"* %21, i64 0, i32 0, i32 0, i32 0, i32 0, i32 0, i32 0, i32 0, i32 0
  %23 = atomicrmw sub i32* %22, i32 1 acq_rel
  %24 = icmp eq i32 %23, 1
  br i1 %24, label %25, label %28

25:                                               ; preds = %20
  %26 = getelementptr inbounds %"class.base::RefCountedThreadSafe.2", %"class.base::RefCountedThreadSafe.2"* %21, i64 -2
  %27 = bitcast %"class.base::RefCountedThreadSafe.2"* %26 to %"class.base::TaskRunner"*
  call void @_ZN4base16TaskRunnerTraits8DestructEPKNS_10TaskRunnerE(%"class.base::TaskRunner"* %27) #10
  br label %28

28:                                               ; preds = %3, %20, %25
  ret void
}

declare dereferenceable(8) %class.scoped_refptr.1* @_ZN4base25SequencedTaskRunnerHandle3GetEv() local_unnamed_addr #1

; Function Attrs: argmemonly nounwind
declare void @llvm.lifetime.end.p0i8(i64 immarg, i8* nocapture) #4

; Function Attrs: nofree norecurse nounwind ssp uwtable
define hidden zeroext i1 @_ZN7network24NetworkConnectionTracker9IsOfflineEv(%"class.network::NetworkConnectionTracker"* nocapture readonly) local_unnamed_addr #5 align 2 {
  %2 = getelementptr inbounds %"class.network::NetworkConnectionTracker", %"class.network::NetworkConnectionTracker"* %0, i64 0, i32 5
  %3 = load atomic i32, i32* %2 monotonic, align 4
  %4 = icmp eq i32 %3, -1
  %5 = icmp eq i32 %3, 6
  %6 = or i1 %4, %5
  ret i1 %6
}

; Function Attrs: norecurse nounwind readnone ssp uwtable
define hidden zeroext i1 @_ZN7network24NetworkConnectionTracker20IsConnectionCellularENS_5mojom14ConnectionTypeE(i32) local_unnamed_addr #6 align 2 {
  %2 = add i32 %0, -3
  %3 = icmp ult i32 %2, 6
  br i1 %3, label %4, label %9

4:                                                ; preds = %1
  %5 = trunc i32 %2 to i6
  %6 = lshr i6 -25, %5
  %7 = and i6 %6, 1
  %8 = icmp ne i6 %7, 0
  ret i1 %8

9:                                                ; preds = %1
  ret i1 false
}

; Function Attrs: nounwind ssp uwtable
define hidden void @_ZN7network24NetworkConnectionTracker28AddNetworkConnectionObserverEPNS0_25NetworkConnectionObserverE(%"class.network::NetworkConnectionTracker"* nocapture readonly, %"class.network::NetworkConnectionTracker::NetworkConnectionObserver"*) local_unnamed_addr #0 align 2 {
  %3 = getelementptr inbounds %"class.network::NetworkConnectionTracker", %"class.network::NetworkConnectionTracker"* %0, i64 0, i32 6, i32 0
  %4 = load %"class.base::ObserverListThreadSafe"*, %"class.base::ObserverListThreadSafe"** %3, align 8
  %5 = tail call i32 @_ZN4base22ObserverListThreadSafeIN7network24NetworkConnectionTracker25NetworkConnectionObserverEE11AddObserverEPS3_(%"class.base::ObserverListThreadSafe"* %4, %"class.network::NetworkConnectionTracker::NetworkConnectionObserver"* %1)
  ret void
}

; Function Attrs: nounwind ssp uwtable
define linkonce_odr hidden i32 @_ZN4base22ObserverListThreadSafeIN7network24NetworkConnectionTracker25NetworkConnectionObserverEE11AddObserverEPS3_(%"class.base::ObserverListThreadSafe"*, %"class.network::NetworkConnectionTracker::NetworkConnectionObserver"*) local_unnamed_addr #0 comdat align 2 {
  %3 = alloca %"class.std::__1::tuple.241", align 8
  %4 = alloca %"class.std::__1::tuple.244", align 1
  %5 = alloca %"class.network::NetworkConnectionTracker::NetworkConnectionObserver"*, align 8
  %6 = alloca %"class.base::OnceCallback", align 8
  %7 = alloca %"struct.base::ObserverListThreadSafe<network::NetworkConnectionTracker::NetworkConnectionObserver>::NotificationData", align 8
  store %"class.network::NetworkConnectionTracker::NetworkConnectionObserver"* %1, %"class.network::NetworkConnectionTracker::NetworkConnectionObserver"** %5, align 8
  %8 = getelementptr inbounds %"class.base::ObserverListThreadSafe", %"class.base::ObserverListThreadSafe"* %0, i64 0, i32 2
  %9 = getelementptr inbounds %"class.base::Lock", %"class.base::Lock"* %8, i64 0, i32 0, i32 0
  %10 = tail call i32 @pthread_mutex_trylock(%union.pthread_mutex_t* %9) #10
  %11 = icmp eq i32 %10, 0
  br i1 %11, label %14, label %12, !prof !7

12:                                               ; preds = %2
  %13 = getelementptr inbounds %"class.base::Lock", %"class.base::Lock"* %8, i64 0, i32 0
  tail call void @_ZN4base8internal8LockImpl24LockInternalWithTrackingEv(%"class.base::internal::LockImpl"* %13) #10
  br label %14

14:                                               ; preds = %2, %12
  %15 = getelementptr inbounds %"class.base::ObserverListThreadSafe", %"class.base::ObserverListThreadSafe"* %0, i64 0, i32 4, i32 0, i32 2, i32 0, i32 0
  %16 = load i64, i64* %15, align 8
  %17 = icmp ne i64 %16, 0
  %18 = tail call dereferenceable(8) %class.scoped_refptr.1* @_ZN4base25SequencedTaskRunnerHandle3GetEv() #10
  %19 = getelementptr inbounds %class.scoped_refptr.1, %class.scoped_refptr.1* %18, i64 0, i32 0
  %20 = load %"class.base::SequencedTaskRunner"*, %"class.base::SequencedTaskRunner"** %19, align 8
  %21 = icmp eq %"class.base::SequencedTaskRunner"* %20, null
  br i1 %21, label %22, label %26

22:                                               ; preds = %14
  %23 = getelementptr inbounds %"class.base::ObserverListThreadSafe", %"class.base::ObserverListThreadSafe"* %0, i64 0, i32 3
  %24 = load i64, i64* %23, align 8
  %25 = add i64 %24, 1
  store i64 %25, i64* %23, align 8
  br label %33

26:                                               ; preds = %14
  %27 = getelementptr inbounds %"class.base::SequencedTaskRunner", %"class.base::SequencedTaskRunner"* %20, i64 0, i32 0, i32 1, i32 0, i32 0, i32 0, i32 0, i32 0, i32 0, i32 0, i32 0
  %28 = atomicrmw add i32* %27, i32 1 monotonic
  %29 = getelementptr inbounds %"class.base::ObserverListThreadSafe", %"class.base::ObserverListThreadSafe"* %0, i64 0, i32 3
  %30 = load i64, i64* %29, align 8
  %31 = add i64 %30, 1
  store i64 %31, i64* %29, align 8
  %32 = atomicrmw add i32* %27, i32 1 monotonic
  br label %33

33:                                               ; preds = %22, %26
  %34 = phi i64 [ %25, %22 ], [ %31, %26 ]
  %35 = ptrtoint %"class.base::SequencedTaskRunner"* %20 to i64
  %36 = getelementptr inbounds %"class.base::ObserverListThreadSafe", %"class.base::ObserverListThreadSafe"* %0, i64 0, i32 4, i32 0
  %37 = bitcast %"class.std::__1::tuple.241"* %3 to i8*
  call void @llvm.lifetime.start.p0i8(i64 8, i8* nonnull %37) #10
  %38 = getelementptr inbounds %"class.std::__1::tuple.241", %"class.std::__1::tuple.241"* %3, i64 0, i32 0, i32 0, i32 0
  store %"class.network::NetworkConnectionTracker::NetworkConnectionObserver"** %5, %"class.network::NetworkConnectionTracker::NetworkConnectionObserver"*** %38, align 8
  %39 = getelementptr inbounds %"class.std::__1::tuple.244", %"class.std::__1::tuple.244"* %4, i64 0, i32 0
  call void @llvm.lifetime.start.p0i8(i64 1, i8* nonnull %39) #10
  %40 = call { %"struct.std::__1::__hash_node_base"*, i8 } @_ZNSt3__112__hash_tableINS_17__hash_value_typeIPN7network24NetworkConnectionTracker25NetworkConnectionObserverEN4base22ObserverListThreadSafeIS4_E22ObserverTaskRunnerInfoEEENS_22__unordered_map_hasherIS5_SA_NS_4hashIS5_EENS_8equal_toIS5_EELb1EEENS_21__unordered_map_equalIS5_SA_SF_SD_Lb1EEENS_9allocatorISA_EEE25__emplace_unique_key_argsIS5_JRKNS_21piecewise_construct_tENS_5tupleIJRKS5_EEENSQ_IJEEEEEENS_4pairINS_15__hash_iteratorIPNS_11__hash_nodeISA_PvEEEEbEERKT_DpOT0_(%"class.std::__1::__hash_table"* %36, %"class.network::NetworkConnectionTracker::NetworkConnectionObserver"** nonnull dereferenceable(8) %5, %"struct.std::__1::piecewise_construct_t"* nonnull dereferenceable(1) @_ZNSt3__1L19piecewise_constructE, %"class.std::__1::tuple.241"* nonnull dereferenceable(8) %3, %"class.std::__1::tuple.244"* nonnull dereferenceable(1) %4) #10
  %41 = extractvalue { %"struct.std::__1::__hash_node_base"*, i8 } %40, 0
  %42 = getelementptr inbounds %"struct.std::__1::__hash_node_base", %"struct.std::__1::__hash_node_base"* %41, i64 3
  call void @llvm.lifetime.end.p0i8(i64 1, i8* nonnull %39) #10
  call void @llvm.lifetime.end.p0i8(i64 8, i8* nonnull %37) #10
  %43 = bitcast %"struct.std::__1::__hash_node_base"* %42 to i64*
  %44 = bitcast %"struct.std::__1::__hash_node_base"* %42 to %"class.base::SequencedTaskRunner"**
  %45 = load %"class.base::SequencedTaskRunner"*, %"class.base::SequencedTaskRunner"** %44, align 8
  store i64 %35, i64* %43, align 8
  %46 = icmp eq %"class.base::SequencedTaskRunner"* %45, null
  br i1 %46, label %55, label %47

47:                                               ; preds = %33
  %48 = getelementptr inbounds %"class.base::SequencedTaskRunner", %"class.base::SequencedTaskRunner"* %45, i64 0, i32 0, i32 1
  %49 = getelementptr inbounds %"class.base::RefCountedThreadSafe.2", %"class.base::RefCountedThreadSafe.2"* %48, i64 0, i32 0, i32 0, i32 0, i32 0, i32 0, i32 0, i32 0, i32 0
  %50 = atomicrmw sub i32* %49, i32 1 acq_rel
  %51 = icmp eq i32 %50, 1
  br i1 %51, label %52, label %55

52:                                               ; preds = %47
  %53 = getelementptr inbounds %"class.base::RefCountedThreadSafe.2", %"class.base::RefCountedThreadSafe.2"* %48, i64 -2
  %54 = bitcast %"class.base::RefCountedThreadSafe.2"* %53 to %"class.base::TaskRunner"*
  call void @_ZN4base16TaskRunnerTraits8DestructEPKNS_10TaskRunnerE(%"class.base::TaskRunner"* %54) #10
  br label %55

55:                                               ; preds = %33, %47, %52
  %56 = getelementptr inbounds %"struct.std::__1::__hash_node_base", %"struct.std::__1::__hash_node_base"* %41, i64 4
  %57 = bitcast %"struct.std::__1::__hash_node_base"* %56 to i64*
  store i64 %34, i64* %57, align 8
  %58 = getelementptr inbounds %"class.base::ObserverListThreadSafe", %"class.base::ObserverListThreadSafe"* %0, i64 0, i32 1
  %59 = load i32, i32* %58, align 4
  %60 = icmp eq i32 %59, 0
  br i1 %60, label %61, label %122

61:                                               ; preds = %55
  %62 = load atomic i64, i64* getelementptr inbounds (%"class.base::LazyInstance", %"class.base::LazyInstance"* @_ZN4base8internal26ObserverListThreadSafeBase25tls_current_notification_E, i64 0, i32 0) acquire, align 8
  %63 = icmp ugt i64 %62, 1
  br i1 %63, label %69, label %64

64:                                               ; preds = %61
  %65 = call zeroext i1 @_ZN4base8internal17NeedsLazyInstanceEPl(i64* getelementptr inbounds (%"class.base::LazyInstance", %"class.base::LazyInstance"* @_ZN4base8internal26ObserverListThreadSafeBase25tls_current_notification_E, i64 0, i32 0)) #10
  br i1 %65, label %66, label %67

66:                                               ; preds = %64
  store i64 0, i64* bitcast (i8* getelementptr inbounds (%"class.base::LazyInstance", %"class.base::LazyInstance"* @_ZN4base8internal26ObserverListThreadSafeBase25tls_current_notification_E, i64 0, i32 1, i64 0) to i64*), align 8
  call void @_ZN4base18ThreadLocalStorage4SlotC1EPFvPvE(%"class.base::ThreadLocalStorage::Slot"* bitcast (i8* getelementptr inbounds (%"class.base::LazyInstance", %"class.base::LazyInstance"* @_ZN4base8internal26ObserverListThreadSafeBase25tls_current_notification_E, i64 0, i32 1, i64 0) to %"class.base::ThreadLocalStorage::Slot"*), void (i8*)* null) #10
  call void @_ZN4base8internal20CompleteLazyInstanceEPllPFvPvES2_(i64* getelementptr inbounds (%"class.base::LazyInstance", %"class.base::LazyInstance"* @_ZN4base8internal26ObserverListThreadSafeBase25tls_current_notification_E, i64 0, i32 0), i64 ptrtoint (i8* getelementptr inbounds (%"class.base::LazyInstance", %"class.base::LazyInstance"* @_ZN4base8internal26ObserverListThreadSafeBase25tls_current_notification_E, i64 0, i32 1, i64 0) to i64), void (i8*)* null, i8* bitcast (%"class.base::LazyInstance"* @_ZN4base8internal26ObserverListThreadSafeBase25tls_current_notification_E to i8*)) #10
  br label %69

67:                                               ; preds = %64
  %68 = load atomic i64, i64* getelementptr inbounds (%"class.base::LazyInstance", %"class.base::LazyInstance"* @_ZN4base8internal26ObserverListThreadSafeBase25tls_current_notification_E, i64 0, i32 0) acquire, align 8
  br label %69

69:                                               ; preds = %61, %66, %67
  %70 = phi i64 [ %62, %61 ], [ ptrtoint (i8* getelementptr inbounds (%"class.base::LazyInstance", %"class.base::LazyInstance"* @_ZN4base8internal26ObserverListThreadSafeBase25tls_current_notification_E, i64 0, i32 1, i64 0) to i64), %66 ], [ %68, %67 ]
  %71 = inttoptr i64 %70 to %"class.base::ThreadLocalPointer"*
  %72 = getelementptr inbounds %"class.base::ThreadLocalPointer", %"class.base::ThreadLocalPointer"* %71, i64 0, i32 0
  %73 = call i8* @_ZNK4base18ThreadLocalStorage4Slot3GetEv(%"class.base::ThreadLocalStorage::Slot"* %72) #10
  %74 = icmp eq i8* %73, null
  br i1 %74, label %122, label %75

75:                                               ; preds = %69
  %76 = bitcast i8* %73 to i8**
  %77 = load i8*, i8** %76, align 8
  %78 = bitcast %"class.base::ObserverListThreadSafe"* %0 to i8*
  %79 = icmp eq i8* %77, %78
  br i1 %79, label %80, label %122

80:                                               ; preds = %75
  %81 = bitcast %"class.base::SequencedTaskRunner"* %20 to %"class.base::TaskRunner"*
  %82 = getelementptr inbounds i8, i8* %73, i64 8
  %83 = bitcast i8* %82 to %"class.base::Location"*
  %84 = bitcast %"struct.base::ObserverListThreadSafe<network::NetworkConnectionTracker::NetworkConnectionObserver>::NotificationData"* %7 to i8*
  call void @llvm.lifetime.start.p0i8(i64 56, i8* nonnull %84) #10
  %85 = getelementptr inbounds i8, i8* %73, i64 40
  %86 = bitcast %"struct.base::ObserverListThreadSafe<network::NetworkConnectionTracker::NetworkConnectionObserver>::NotificationData"* %7 to %"class.base::ObserverListThreadSafe"**
  store %"class.base::ObserverListThreadSafe"* %0, %"class.base::ObserverListThreadSafe"** %86, align 8
  %87 = getelementptr inbounds %"struct.base::ObserverListThreadSafe<network::NetworkConnectionTracker::NetworkConnectionObserver>::NotificationData", %"struct.base::ObserverListThreadSafe<network::NetworkConnectionTracker::NetworkConnectionObserver>::NotificationData"* %7, i64 0, i32 0, i32 1
  call void @_ZN4base8LocationC1ERKS0_(%"class.base::Location"* %87, %"class.base::Location"* dereferenceable(32) %83) #10
  %88 = getelementptr inbounds %"struct.base::ObserverListThreadSafe<network::NetworkConnectionTracker::NetworkConnectionObserver>::NotificationData", %"struct.base::ObserverListThreadSafe<network::NetworkConnectionTracker::NetworkConnectionObserver>::NotificationData"* %7, i64 0, i32 1, i32 0
  %89 = bitcast i8* %85 to %"class.base::internal::CallbackBaseCopyable"*
  call void @_ZN4base8internal20CallbackBaseCopyableC2ERKS1_(%"class.base::internal::CallbackBaseCopyable"* %88, %"class.base::internal::CallbackBaseCopyable"* dereferenceable(8) %89) #10
  %90 = getelementptr inbounds %"struct.base::ObserverListThreadSafe<network::NetworkConnectionTracker::NetworkConnectionObserver>::NotificationData", %"struct.base::ObserverListThreadSafe<network::NetworkConnectionTracker::NetworkConnectionObserver>::NotificationData"* %7, i64 0, i32 2
  store i64 %34, i64* %90, align 8
  %91 = call i8* @_Znwm(i64 120) #11, !noalias !24
  %92 = bitcast i8* %91 to %"class.base::internal::BindStateBase"*
  call void @_ZN4base8internal13BindStateBaseC2EPFvvEPFvPKS1_E(%"class.base::internal::BindStateBase"* nonnull %92, void ()* bitcast (void (%"class.base::internal::BindStateBase"*)* @_ZN4base8internal7InvokerINS0_9BindStateIMNS_22ObserverListThreadSafeIN7network24NetworkConnectionTracker25NetworkConnectionObserverEEEFvPS6_RKNS7_16NotificationDataEEJ13scoped_refptrIS7_ES8_S9_EEEFvvEE7RunOnceEPNS0_13BindStateBaseE to void ()*), void (%"class.base::internal::BindStateBase"*)* nonnull @_ZN4base8internal9BindStateIMNS_22ObserverListThreadSafeIN7network24NetworkConnectionTracker25NetworkConnectionObserverEEEFvPS5_RKNS6_16NotificationDataEEJ13scoped_refptrIS6_ES7_S8_EE7DestroyEPKNS0_13BindStateBaseE) #10, !noalias !24
  %93 = getelementptr inbounds i8, i8* %91, i64 32
  %94 = bitcast i8* %93 to <2 x i64>*
  store <2 x i64> <i64 ptrtoint (void (%"class.base::ObserverListThreadSafe"*, %"class.network::NetworkConnectionTracker::NetworkConnectionObserver"*, %"struct.base::ObserverListThreadSafe<network::NetworkConnectionTracker::NetworkConnectionObserver>::NotificationData"*)* @_ZN4base22ObserverListThreadSafeIN7network24NetworkConnectionTracker25NetworkConnectionObserverEE13NotifyWrapperEPS3_RKNS4_16NotificationDataE to i64), i64 0>, <2 x i64>* %94, align 8, !noalias !24
  %95 = getelementptr inbounds i8, i8* %91, i64 48
  %96 = bitcast i8* %95 to %"class.base::ObserverListThreadSafe"**
  store %"class.base::ObserverListThreadSafe"* %0, %"class.base::ObserverListThreadSafe"** %96, align 8, !noalias !24
  %97 = icmp eq %"class.base::ObserverListThreadSafe"* %0, null
  br i1 %97, label %101, label %98

98:                                               ; preds = %80
  %99 = getelementptr inbounds %"class.base::ObserverListThreadSafe", %"class.base::ObserverListThreadSafe"* %0, i64 0, i32 0, i32 1, i32 0, i32 0, i32 0, i32 0, i32 0, i32 0, i32 0, i32 0
  %100 = atomicrmw add i32* %99, i32 1 monotonic, !noalias !24
  br label %101

101:                                              ; preds = %80, %98
  %102 = getelementptr inbounds i8, i8* %91, i64 56
  %103 = bitcast %"class.network::NetworkConnectionTracker::NetworkConnectionObserver"** %5 to i64*
  %104 = load i64, i64* %103, align 8, !noalias !24
  %105 = bitcast i8* %102 to i64*
  store i64 %104, i64* %105, align 8, !noalias !24
  %106 = getelementptr inbounds i8, i8* %91, i64 64
  %107 = bitcast %"struct.base::ObserverListThreadSafe<network::NetworkConnectionTracker::NetworkConnectionObserver>::NotificationData"* %7 to i64*
  %108 = load i64, i64* %107, align 8, !noalias !24
  %109 = bitcast i8* %106 to i64*
  store i64 %108, i64* %109, align 8, !noalias !24
  %110 = getelementptr inbounds i8, i8* %91, i64 72
  %111 = bitcast i8* %110 to %"class.base::Location"*
  call void @_ZN4base8LocationC1ERKS0_(%"class.base::Location"* %111, %"class.base::Location"* dereferenceable(32) %87) #10, !noalias !24
  %112 = getelementptr inbounds i8, i8* %91, i64 104
  %113 = getelementptr inbounds %"struct.base::ObserverListThreadSafe<network::NetworkConnectionTracker::NetworkConnectionObserver>::NotificationData", %"struct.base::ObserverListThreadSafe<network::NetworkConnectionTracker::NetworkConnectionObserver>::NotificationData"* %7, i64 0, i32 1
  %114 = getelementptr inbounds %"class.base::RepeatingCallback.239", %"class.base::RepeatingCallback.239"* %113, i64 0, i32 0, i32 0, i32 0, i32 0
  %115 = bitcast %"class.base::RepeatingCallback.239"* %113 to <2 x i64>*
  %116 = load <2 x i64>, <2 x i64>* %115, align 8, !noalias !24
  store %"class.base::internal::BindStateBase"* null, %"class.base::internal::BindStateBase"** %114, align 8, !noalias !24
  %117 = bitcast i8* %112 to <2 x i64>*
  store <2 x i64> %116, <2 x i64>* %117, align 8, !noalias !24
  %118 = bitcast %"class.base::OnceCallback"* %6 to i8**
  store i8* %91, i8** %118, align 8, !alias.scope !24
  %119 = call zeroext i1 @_ZN4base10TaskRunner8PostTaskERKNS_8LocationENS_12OnceCallbackIFvvEEE(%"class.base::TaskRunner"* %81, %"class.base::Location"* dereferenceable(32) %83, %"class.base::OnceCallback"* nonnull %6) #10
  %120 = getelementptr inbounds %"class.base::OnceCallback", %"class.base::OnceCallback"* %6, i64 0, i32 0
  call void @_ZN4base8internal12CallbackBaseD2Ev(%"class.base::internal::CallbackBase"* nonnull %120) #10
  %121 = getelementptr inbounds %"struct.base::ObserverListThreadSafe<network::NetworkConnectionTracker::NetworkConnectionObserver>::NotificationData", %"struct.base::ObserverListThreadSafe<network::NetworkConnectionTracker::NetworkConnectionObserver>::NotificationData"* %7, i64 0, i32 1, i32 0, i32 0
  call void @_ZN4base8internal12CallbackBaseD2Ev(%"class.base::internal::CallbackBase"* %121) #10
  call void @llvm.lifetime.end.p0i8(i64 56, i8* nonnull %84) #10
  br label %122

122:                                              ; preds = %55, %69, %101, %75
  %123 = zext i1 %17 to i32
  br i1 %21, label %132, label %124

124:                                              ; preds = %122
  %125 = getelementptr inbounds %"class.base::SequencedTaskRunner", %"class.base::SequencedTaskRunner"* %20, i64 0, i32 0, i32 1
  %126 = getelementptr inbounds %"class.base::RefCountedThreadSafe.2", %"class.base::RefCountedThreadSafe.2"* %125, i64 0, i32 0, i32 0, i32 0, i32 0, i32 0, i32 0, i32 0, i32 0
  %127 = atomicrmw sub i32* %126, i32 1 acq_rel
  %128 = icmp eq i32 %127, 1
  br i1 %128, label %129, label %132

129:                                              ; preds = %124
  %130 = getelementptr inbounds %"class.base::RefCountedThreadSafe.2", %"class.base::RefCountedThreadSafe.2"* %125, i64 -2
  %131 = bitcast %"class.base::RefCountedThreadSafe.2"* %130 to %"class.base::TaskRunner"*
  call void @_ZN4base16TaskRunnerTraits8DestructEPKNS_10TaskRunnerE(%"class.base::TaskRunner"* %131) #10
  br label %132

132:                                              ; preds = %122, %124, %129
  %133 = call i32 @pthread_mutex_unlock(%union.pthread_mutex_t* %9) #10
  ret i32 %123
}

; Function Attrs: nounwind ssp uwtable
define hidden void @_ZN7network24NetworkConnectionTracker33AddLeakyNetworkConnectionObserverEPNS0_25NetworkConnectionObserverE(%"class.network::NetworkConnectionTracker"* nocapture readonly, %"class.network::NetworkConnectionTracker::NetworkConnectionObserver"*) local_unnamed_addr #0 align 2 {
  %3 = getelementptr inbounds %"class.network::NetworkConnectionTracker", %"class.network::NetworkConnectionTracker"* %0, i64 0, i32 7, i32 0
  %4 = load %"class.base::ObserverListThreadSafe"*, %"class.base::ObserverListThreadSafe"** %3, align 8
  %5 = tail call i32 @_ZN4base22ObserverListThreadSafeIN7network24NetworkConnectionTracker25NetworkConnectionObserverEE11AddObserverEPS3_(%"class.base::ObserverListThreadSafe"* %4, %"class.network::NetworkConnectionTracker::NetworkConnectionObserver"* %1)
  ret void
}

; Function Attrs: nounwind ssp uwtable
define hidden void @_ZN7network24NetworkConnectionTracker31RemoveNetworkConnectionObserverEPNS0_25NetworkConnectionObserverE(%"class.network::NetworkConnectionTracker"* nocapture readonly, %"class.network::NetworkConnectionTracker::NetworkConnectionObserver"*) local_unnamed_addr #0 align 2 {
  %3 = alloca %"class.network::NetworkConnectionTracker::NetworkConnectionObserver"*, align 8
  %4 = getelementptr inbounds %"class.network::NetworkConnectionTracker", %"class.network::NetworkConnectionTracker"* %0, i64 0, i32 6, i32 0
  %5 = load %"class.base::ObserverListThreadSafe"*, %"class.base::ObserverListThreadSafe"** %4, align 8
  %6 = bitcast %"class.network::NetworkConnectionTracker::NetworkConnectionObserver"** %3 to i8*
  call void @llvm.lifetime.start.p0i8(i64 8, i8* nonnull %6)
  store %"class.network::NetworkConnectionTracker::NetworkConnectionObserver"* %1, %"class.network::NetworkConnectionTracker::NetworkConnectionObserver"** %3, align 8
  %7 = getelementptr inbounds %"class.base::ObserverListThreadSafe", %"class.base::ObserverListThreadSafe"* %5, i64 0, i32 2
  %8 = getelementptr inbounds %"class.base::Lock", %"class.base::Lock"* %7, i64 0, i32 0, i32 0
  %9 = tail call i32 @pthread_mutex_trylock(%union.pthread_mutex_t* %8) #10
  %10 = icmp eq i32 %9, 0
  br i1 %10, label %13, label %11, !prof !7

11:                                               ; preds = %2
  %12 = getelementptr inbounds %"class.base::Lock", %"class.base::Lock"* %7, i64 0, i32 0
  tail call void @_ZN4base8internal8LockImpl24LockInternalWithTrackingEv(%"class.base::internal::LockImpl"* %12) #10
  br label %13

13:                                               ; preds = %2, %11
  %14 = getelementptr inbounds %"class.base::ObserverListThreadSafe", %"class.base::ObserverListThreadSafe"* %5, i64 0, i32 4, i32 0
  %15 = call i64 @_ZNSt3__112__hash_tableINS_17__hash_value_typeIPN7network24NetworkConnectionTracker25NetworkConnectionObserverEN4base22ObserverListThreadSafeIS4_E22ObserverTaskRunnerInfoEEENS_22__unordered_map_hasherIS5_SA_NS_4hashIS5_EENS_8equal_toIS5_EELb1EEENS_21__unordered_map_equalIS5_SA_SF_SD_Lb1EEENS_9allocatorISA_EEE14__erase_uniqueIS5_EEmRKT_(%"class.std::__1::__hash_table"* %14, %"class.network::NetworkConnectionTracker::NetworkConnectionObserver"** nonnull dereferenceable(8) %3) #10
  %16 = call i32 @pthread_mutex_unlock(%union.pthread_mutex_t* %8) #10
  call void @llvm.lifetime.end.p0i8(i64 8, i8* nonnull %6)
  ret void
}

; Function Attrs: nounwind ssp uwtable
define hidden void @_ZN7network24NetworkConnectionTrackerC2Ev(%"class.network::NetworkConnectionTracker"*) unnamed_addr #0 align 2 {
  %2 = getelementptr inbounds %"class.network::NetworkConnectionTracker", %"class.network::NetworkConnectionTracker"* %0, i64 0, i32 0, i32 0
  store i32 (...)** bitcast (i8** getelementptr inbounds ({ [7 x i8*] }, { [7 x i8*] }* @_ZTVN7network24NetworkConnectionTrackerE, i64 0, inrange i32 0, i64 2) to i32 (...)**), i32 (...)*** %2, align 8
  %3 = getelementptr inbounds %"class.network::NetworkConnectionTracker", %"class.network::NetworkConnectionTracker"* %0, i64 0, i32 1, i32 0, i32 0, i32 0, i32 0
  %4 = getelementptr inbounds %"class.network::NetworkConnectionTracker", %"class.network::NetworkConnectionTracker"* %0, i64 0, i32 3, i32 0
  %5 = bitcast %"class.base::internal::BindStateBase"** %3 to i8*
  call void @llvm.memset.p0i8.i64(i8* align 8 %5, i8 0, i64 16, i1 false)
  tail call void @_ZN4base8internal8LockImplC1Ev(%"class.base::internal::LockImpl"* %4) #10
  %6 = getelementptr inbounds %"class.network::NetworkConnectionTracker", %"class.network::NetworkConnectionTracker"* %0, i64 0, i32 4
  %7 = getelementptr inbounds %"class.std::__1::list", %"class.std::__1::list"* %6, i64 0, i32 0, i32 0
  %8 = getelementptr inbounds %"class.std::__1::list", %"class.std::__1::list"* %6, i64 0, i32 0, i32 0, i32 0
  store %"struct.std::__1::__list_node_base"* %7, %"struct.std::__1::__list_node_base"** %8, align 8
  %9 = getelementptr inbounds %"class.network::NetworkConnectionTracker", %"class.network::NetworkConnectionTracker"* %0, i64 0, i32 4, i32 0, i32 0, i32 1
  store %"struct.std::__1::__list_node_base"* %7, %"struct.std::__1::__list_node_base"** %9, align 8
  %10 = getelementptr inbounds %"class.network::NetworkConnectionTracker", %"class.network::NetworkConnectionTracker"* %0, i64 0, i32 4, i32 0, i32 1, i32 0, i32 0
  store i64 0, i64* %10, align 8
  %11 = getelementptr inbounds %"class.network::NetworkConnectionTracker", %"class.network::NetworkConnectionTracker"* %0, i64 0, i32 5
  store i32 -1, i32* %11, align 8
  %12 = tail call i8* @_Znwm(i64 104) #11
  %13 = getelementptr inbounds i8, i8* %12, i64 8
  %14 = bitcast i8* %13 to i32*
  store i32 0, i32* %14, align 4
  %15 = bitcast i8* %12 to i32 (...)***
  store i32 (...)** bitcast (i8** getelementptr inbounds ({ [4 x i8*] }, { [4 x i8*] }* @_ZTVN4base22ObserverListThreadSafeIN7network24NetworkConnectionTracker25NetworkConnectionObserverEEE, i64 0, inrange i32 0, i64 2) to i32 (...)**), i32 (...)*** %15, align 8
  %16 = getelementptr inbounds i8, i8* %12, i64 12
  %17 = bitcast i8* %16 to i32*
  store i32 1, i32* %17, align 4
  %18 = getelementptr inbounds i8, i8* %12, i64 16
  %19 = bitcast i8* %18 to %"class.base::internal::LockImpl"*
  tail call void @_ZN4base8internal8LockImplC1Ev(%"class.base::internal::LockImpl"* %19) #10
  %20 = getelementptr inbounds i8, i8* %12, i64 56
  %21 = getelementptr inbounds i8, i8* %12, i64 96
  %22 = bitcast i8* %21 to i32*
  tail call void @llvm.memset.p0i8.i64(i8* align 8 %20, i8 0, i64 40, i1 false) #10
  store i32 1065353216, i32* %22, align 4
  %23 = getelementptr inbounds %"class.network::NetworkConnectionTracker", %"class.network::NetworkConnectionTracker"* %0, i64 0, i32 6, i32 0
  %24 = bitcast %"class.base::ObserverListThreadSafe"** %23 to i8**
  store i8* %12, i8** %24, align 8
  %25 = atomicrmw add i32* %14, i32 1 monotonic
  %26 = tail call i8* @_Znwm(i64 104) #11
  %27 = getelementptr inbounds i8, i8* %26, i64 8
  %28 = bitcast i8* %27 to i32*
  store i32 0, i32* %28, align 4
  %29 = bitcast i8* %26 to i32 (...)***
  store i32 (...)** bitcast (i8** getelementptr inbounds ({ [4 x i8*] }, { [4 x i8*] }* @_ZTVN4base22ObserverListThreadSafeIN7network24NetworkConnectionTracker25NetworkConnectionObserverEEE, i64 0, inrange i32 0, i64 2) to i32 (...)**), i32 (...)*** %29, align 8
  %30 = getelementptr inbounds i8, i8* %26, i64 12
  %31 = bitcast i8* %30 to i32*
  store i32 1, i32* %31, align 4
  %32 = getelementptr inbounds i8, i8* %26, i64 16
  %33 = bitcast i8* %32 to %"class.base::internal::LockImpl"*
  tail call void @_ZN4base8internal8LockImplC1Ev(%"class.base::internal::LockImpl"* %33) #10
  %34 = getelementptr inbounds i8, i8* %26, i64 56
  %35 = getelementptr inbounds i8, i8* %26, i64 96
  %36 = bitcast i8* %35 to i32*
  tail call void @llvm.memset.p0i8.i64(i8* align 8 %34, i8 0, i64 40, i1 false) #10
  store i32 1065353216, i32* %36, align 4
  %37 = getelementptr inbounds %"class.network::NetworkConnectionTracker", %"class.network::NetworkConnectionTracker"* %0, i64 0, i32 7, i32 0
  %38 = bitcast %"class.base::ObserverListThreadSafe"** %37 to i8**
  store i8* %26, i8** %38, align 8
  %39 = atomicrmw add i32* %28, i32 1 monotonic
  %40 = getelementptr inbounds %"class.network::NetworkConnectionTracker", %"class.network::NetworkConnectionTracker"* %0, i64 0, i32 8, i32 0, i32 0
  tail call void @_ZN4mojo8internal16BindingStateBaseC2Ev(%"class.mojo::internal::BindingStateBase"* %40) #10
  %41 = getelementptr inbounds %"class.network::NetworkConnectionTracker", %"class.network::NetworkConnectionTracker"* %0, i64 0, i32 8, i32 0, i32 1, i32 0, i32 0, i32 0
  store i32 (...)** bitcast (i8** getelementptr inbounds ({ [7 x i8*] }, { [7 x i8*] }* @_ZTVN7network5mojom30NetworkChangeManagerClientStubIN4mojo19RawPtrImplRefTraitsINS0_26NetworkChangeManagerClientEEEEE, i64 0, inrange i32 0, i64 2) to i32 (...)**), i32 (...)*** %41, align 8
  %42 = ptrtoint %"class.network::NetworkConnectionTracker"* %0 to i64
  %43 = getelementptr inbounds %"class.network::NetworkConnectionTracker", %"class.network::NetworkConnectionTracker"* %0, i64 0, i32 8, i32 0, i32 1, i32 1
  %44 = bitcast %"class.network::mojom::NetworkChangeManagerClient"** %43 to i64*
  store i64 %42, i64* %44, align 8
  ret void
}

; Function Attrs: nounwind ssp uwtable
define hidden void @_ZN7network24NetworkConnectionTracker23OnInitialConnectionTypeENS_5mojom14ConnectionTypeE(%"class.network::NetworkConnectionTracker"*, i32) unnamed_addr #0 align 2 {
  %3 = alloca %"class.base::OnceCallback.196", align 8
  %4 = getelementptr inbounds %"class.network::NetworkConnectionTracker", %"class.network::NetworkConnectionTracker"* %0, i64 0, i32 3
  %5 = getelementptr inbounds %"class.base::Lock", %"class.base::Lock"* %4, i64 0, i32 0, i32 0
  %6 = tail call i32 @pthread_mutex_trylock(%union.pthread_mutex_t* %5) #10
  %7 = icmp eq i32 %6, 0
  br i1 %7, label %10, label %8, !prof !7

8:                                                ; preds = %2
  %9 = getelementptr inbounds %"class.base::Lock", %"class.base::Lock"* %4, i64 0, i32 0
  tail call void @_ZN4base8internal8LockImpl24LockInternalWithTrackingEv(%"class.base::internal::LockImpl"* %9) #10
  br label %10

10:                                               ; preds = %2, %8
  %11 = getelementptr inbounds %"class.network::NetworkConnectionTracker", %"class.network::NetworkConnectionTracker"* %0, i64 0, i32 5
  store atomic volatile i32 %1, i32* %11 monotonic, align 4
  %12 = getelementptr inbounds %"class.network::NetworkConnectionTracker", %"class.network::NetworkConnectionTracker"* %0, i64 0, i32 4, i32 0, i32 1, i32 0, i32 0
  %13 = load i64, i64* %12, align 8
  %14 = icmp eq i64 %13, 0
  br i1 %14, label %50, label %15

15:                                               ; preds = %10
  %16 = getelementptr inbounds %"class.network::NetworkConnectionTracker", %"class.network::NetworkConnectionTracker"* %0, i64 0, i32 4, i32 0, i32 0, i32 1
  %17 = bitcast %"struct.std::__1::__list_node_base"** %16 to %"struct.std::__1::__list_node"**
  %18 = bitcast %"class.base::OnceCallback.196"* %3 to i8*
  %19 = bitcast %"class.base::OnceCallback.196"* %3 to i64*
  %20 = getelementptr inbounds %"class.base::OnceCallback.196", %"class.base::OnceCallback.196"* %3, i64 0, i32 0
  br label %21

21:                                               ; preds = %15, %21
  %22 = load %"struct.std::__1::__list_node"*, %"struct.std::__1::__list_node"** %17, align 8
  %23 = getelementptr inbounds %"struct.std::__1::__list_node", %"struct.std::__1::__list_node"* %22, i64 0, i32 1
  call void @llvm.lifetime.start.p0i8(i64 8, i8* nonnull %18) #10
  %24 = getelementptr inbounds %"class.base::OnceCallback.196", %"class.base::OnceCallback.196"* %23, i64 0, i32 0, i32 0, i32 0
  %25 = bitcast %"class.base::OnceCallback.196"* %23 to i64*
  %26 = load i64, i64* %25, align 8
  store i64 %26, i64* %19, align 8
  store %"class.base::internal::BindStateBase"* null, %"class.base::internal::BindStateBase"** %24, align 8
  %27 = inttoptr i64 %26 to %"class.base::internal::BindStateBase"*
  %28 = getelementptr inbounds %"class.base::internal::BindStateBase", %"class.base::internal::BindStateBase"* %27, i64 0, i32 1
  %29 = bitcast void ()** %28 to void (%"class.base::internal::BindStateBase"*, i32)**
  %30 = load void (%"class.base::internal::BindStateBase"*, i32)*, void (%"class.base::internal::BindStateBase"*, i32)** %29, align 8
  call void %30(%"class.base::internal::BindStateBase"* %27, i32 %1) #10
  call void @_ZN4base8internal12CallbackBaseD2Ev(%"class.base::internal::CallbackBase"* nonnull %20) #10
  call void @llvm.lifetime.end.p0i8(i64 8, i8* nonnull %18) #10
  %31 = load %"struct.std::__1::__list_node_base"*, %"struct.std::__1::__list_node_base"** %16, align 8
  %32 = getelementptr inbounds %"struct.std::__1::__list_node_base", %"struct.std::__1::__list_node_base"* %31, i64 0, i32 1
  %33 = bitcast %"struct.std::__1::__list_node_base"** %32 to i64*
  %34 = load i64, i64* %33, align 8
  %35 = getelementptr inbounds %"struct.std::__1::__list_node_base", %"struct.std::__1::__list_node_base"* %31, i64 0, i32 0
  %36 = load %"struct.std::__1::__list_node_base"*, %"struct.std::__1::__list_node_base"** %35, align 8
  %37 = getelementptr inbounds %"struct.std::__1::__list_node_base", %"struct.std::__1::__list_node_base"* %36, i64 0, i32 1
  %38 = bitcast %"struct.std::__1::__list_node_base"** %37 to i64*
  store i64 %34, i64* %38, align 8
  %39 = bitcast %"struct.std::__1::__list_node_base"* %31 to i64*
  %40 = load i64, i64* %39, align 8
  %41 = bitcast %"struct.std::__1::__list_node_base"** %32 to i64**
  %42 = load i64*, i64** %41, align 8
  store i64 %40, i64* %42, align 8
  %43 = load i64, i64* %12, align 8
  %44 = add i64 %43, -1
  store i64 %44, i64* %12, align 8
  %45 = getelementptr inbounds %"struct.std::__1::__list_node_base", %"struct.std::__1::__list_node_base"* %31, i64 1
  %46 = bitcast %"struct.std::__1::__list_node_base"* %45 to %"class.base::internal::CallbackBase"*
  call void @_ZN4base8internal12CallbackBaseD2Ev(%"class.base::internal::CallbackBase"* %46) #10
  %47 = bitcast %"struct.std::__1::__list_node_base"* %31 to i8*
  call void @_ZdlPv(i8* %47) #11
  %48 = load i64, i64* %12, align 8
  %49 = icmp eq i64 %48, 0
  br i1 %49, label %50, label %21

50:                                               ; preds = %21, %10
  %51 = call i32 @pthread_mutex_unlock(%union.pthread_mutex_t* %5) #10
  ret void
}

; Function Attrs: nounwind ssp uwtable
define hidden void @_ZN7network24NetworkConnectionTracker16OnNetworkChangedENS_5mojom14ConnectionTypeE(%"class.network::NetworkConnectionTracker"*, i32) unnamed_addr #0 align 2 {
  %3 = alloca i32, align 4
  %4 = alloca %"class.base::Location", align 8
  %5 = alloca %"class.base::Location", align 8
  store i32 %1, i32* %3, align 4
  %6 = getelementptr inbounds %"class.network::NetworkConnectionTracker", %"class.network::NetworkConnectionTracker"* %0, i64 0, i32 5
  store atomic volatile i32 %1, i32* %6 monotonic, align 4
  %7 = getelementptr inbounds %"class.network::NetworkConnectionTracker", %"class.network::NetworkConnectionTracker"* %0, i64 0, i32 6, i32 0
  %8 = load %"class.base::ObserverListThreadSafe"*, %"class.base::ObserverListThreadSafe"** %7, align 8
  %9 = bitcast %"class.base::Location"* %4 to i8*
  call void @llvm.lifetime.start.p0i8(i64 32, i8* nonnull %9) #10
  call void @_ZN4base8Location7CurrentEPKcS2_i(%"class.base::Location"* nonnull sret %4, i8* getelementptr inbounds ([17 x i8], [17 x i8]* @.str, i64 0, i64 0), i8* getelementptr inbounds ([64 x i8], [64 x i8]* @.str.1, i64 0, i64 0), i32 160) #10
  call void @_ZN4base22ObserverListThreadSafeIN7network24NetworkConnectionTracker25NetworkConnectionObserverEE6NotifyIMS3_FvNS1_5mojom14ConnectionTypeEEJRS7_EEEvRKNS_8LocationET_DpOT0_(%"class.base::ObserverListThreadSafe"* %8, %"class.base::Location"* nonnull dereferenceable(32) %4, i64 1, i64 0, i32* nonnull dereferenceable(4) %3)
  call void @llvm.lifetime.end.p0i8(i64 32, i8* nonnull %9) #10
  %10 = getelementptr inbounds %"class.network::NetworkConnectionTracker", %"class.network::NetworkConnectionTracker"* %0, i64 0, i32 7, i32 0
  %11 = load %"class.base::ObserverListThreadSafe"*, %"class.base::ObserverListThreadSafe"** %10, align 8
  %12 = bitcast %"class.base::Location"* %5 to i8*
  call void @llvm.lifetime.start.p0i8(i64 32, i8* nonnull %12) #10
  call void @_ZN4base8Location7CurrentEPKcS2_i(%"class.base::Location"* nonnull sret %5, i8* getelementptr inbounds ([17 x i8], [17 x i8]* @.str, i64 0, i64 0), i8* getelementptr inbounds ([64 x i8], [64 x i8]* @.str.1, i64 0, i64 0), i32 162) #10
  call void @_ZN4base22ObserverListThreadSafeIN7network24NetworkConnectionTracker25NetworkConnectionObserverEE6NotifyIMS3_FvNS1_5mojom14ConnectionTypeEEJRS7_EEEvRKNS_8LocationET_DpOT0_(%"class.base::ObserverListThreadSafe"* %11, %"class.base::Location"* nonnull dereferenceable(32) %5, i64 1, i64 0, i32* nonnull dereferenceable(4) %3)
  call void @llvm.lifetime.end.p0i8(i64 32, i8* nonnull %12) #10
  ret void
}

; Function Attrs: nounwind ssp uwtable
define linkonce_odr hidden void @_ZN4base22ObserverListThreadSafeIN7network24NetworkConnectionTracker25NetworkConnectionObserverEE6NotifyIMS3_FvNS1_5mojom14ConnectionTypeEEJRS7_EEEvRKNS_8LocationET_DpOT0_(%"class.base::ObserverListThreadSafe"*, %"class.base::Location"* dereferenceable(32), i64, i64, i32* dereferenceable(4)) local_unnamed_addr #0 comdat align 2 {
  %6 = alloca %"class.base::RepeatingCallback.239", align 8
  %7 = alloca %"class.base::OnceCallback", align 8
  %8 = alloca %"struct.base::ObserverListThreadSafe<network::NetworkConnectionTracker::NetworkConnectionObserver>::NotificationData", align 8
  %9 = bitcast %"class.base::RepeatingCallback.239"* %6 to i8*
  call void @llvm.lifetime.start.p0i8(i64 8, i8* nonnull %9) #10
  %10 = tail call i8* @_Znwm(i64 64) #11, !noalias !29
  %11 = bitcast i8* %10 to %"class.base::internal::BindStateBase"*
  tail call void @_ZN4base8internal13BindStateBaseC2EPFvvEPFvPKS1_E(%"class.base::internal::BindStateBase"* nonnull %11, void ()* bitcast (void (%"class.base::internal::BindStateBase"*, %"class.network::NetworkConnectionTracker::NetworkConnectionObserver"*)* @_ZN4base8internal7InvokerINS0_9BindStateIPFvMN7network24NetworkConnectionTracker25NetworkConnectionObserverEFvNS3_5mojom14ConnectionTypeEES7_PS5_EJS9_S7_EEEFvSA_EE3RunEPNS0_13BindStateBaseESA_ to void ()*), void (%"class.base::internal::BindStateBase"*)* nonnull @_ZN4base8internal9BindStateIPFvMN7network24NetworkConnectionTracker25NetworkConnectionObserverEFvNS2_5mojom14ConnectionTypeEES6_PS4_EJS8_S6_EE7DestroyEPKNS0_13BindStateBaseE) #10, !noalias !29
  %12 = getelementptr inbounds i8, i8* %10, i64 32
  %13 = bitcast i8* %12 to i64*
  store i64 ptrtoint (void (i64, i64, i32, %"class.network::NetworkConnectionTracker::NetworkConnectionObserver"*)* @_ZN4base8internal26ObserverListThreadSafeBase10DispatcherIN7network24NetworkConnectionTracker25NetworkConnectionObserverEMS5_FvNS3_5mojom14ConnectionTypeEEE3RunES9_S7_PS5_ to i64), i64* %13, align 8, !noalias !29
  %14 = getelementptr inbounds i8, i8* %10, i64 40
  %15 = bitcast i8* %14 to i64*
  store i64 %2, i64* %15, align 8, !noalias !29
  %16 = getelementptr inbounds i8, i8* %10, i64 48
  %17 = bitcast i8* %16 to i64*
  store i64 %3, i64* %17, align 8, !noalias !29
  %18 = getelementptr inbounds i8, i8* %10, i64 56
  %19 = bitcast i8* %18 to i32*
  %20 = load i32, i32* %4, align 4, !noalias !29
  store i32 %20, i32* %19, align 4, !noalias !29
  %21 = bitcast %"class.base::RepeatingCallback.239"* %6 to i8**
  store i8* %10, i8** %21, align 8, !alias.scope !29
  %22 = getelementptr inbounds %"class.base::ObserverListThreadSafe", %"class.base::ObserverListThreadSafe"* %0, i64 0, i32 2
  %23 = getelementptr inbounds %"class.base::Lock", %"class.base::Lock"* %22, i64 0, i32 0, i32 0
  %24 = tail call i32 @pthread_mutex_trylock(%union.pthread_mutex_t* %23) #10
  %25 = icmp eq i32 %24, 0
  br i1 %25, label %28, label %26, !prof !7

26:                                               ; preds = %5
  %27 = getelementptr inbounds %"class.base::Lock", %"class.base::Lock"* %22, i64 0, i32 0
  tail call void @_ZN4base8internal8LockImpl24LockInternalWithTrackingEv(%"class.base::internal::LockImpl"* %27) #10
  br label %28

28:                                               ; preds = %5, %26
  %29 = getelementptr inbounds %"class.base::ObserverListThreadSafe", %"class.base::ObserverListThreadSafe"* %0, i64 0, i32 4, i32 0, i32 1, i32 0, i32 0, i32 0
  %30 = bitcast %"struct.std::__1::__hash_node_base"** %29 to i64*
  %31 = load i64, i64* %30, align 8
  %32 = icmp eq i64 %31, 0
  br i1 %32, label %49, label %33

33:                                               ; preds = %28
  %34 = bitcast %"struct.base::ObserverListThreadSafe<network::NetworkConnectionTracker::NetworkConnectionObserver>::NotificationData"* %8 to i8*
  %35 = bitcast %"struct.base::ObserverListThreadSafe<network::NetworkConnectionTracker::NetworkConnectionObserver>::NotificationData"* %8 to %"class.base::ObserverListThreadSafe"**
  %36 = getelementptr inbounds %"struct.base::ObserverListThreadSafe<network::NetworkConnectionTracker::NetworkConnectionObserver>::NotificationData", %"struct.base::ObserverListThreadSafe<network::NetworkConnectionTracker::NetworkConnectionObserver>::NotificationData"* %8, i64 0, i32 0, i32 1
  %37 = getelementptr inbounds %"struct.base::ObserverListThreadSafe<network::NetworkConnectionTracker::NetworkConnectionObserver>::NotificationData", %"struct.base::ObserverListThreadSafe<network::NetworkConnectionTracker::NetworkConnectionObserver>::NotificationData"* %8, i64 0, i32 1, i32 0
  %38 = getelementptr inbounds %"class.base::RepeatingCallback.239", %"class.base::RepeatingCallback.239"* %6, i64 0, i32 0
  %39 = getelementptr inbounds %"struct.base::ObserverListThreadSafe<network::NetworkConnectionTracker::NetworkConnectionObserver>::NotificationData", %"struct.base::ObserverListThreadSafe<network::NetworkConnectionTracker::NetworkConnectionObserver>::NotificationData"* %8, i64 0, i32 2
  %40 = icmp eq %"class.base::ObserverListThreadSafe"* %0, null
  %41 = getelementptr inbounds %"class.base::ObserverListThreadSafe", %"class.base::ObserverListThreadSafe"* %0, i64 0, i32 0, i32 1, i32 0, i32 0, i32 0, i32 0, i32 0, i32 0, i32 0, i32 0
  %42 = bitcast %"struct.base::ObserverListThreadSafe<network::NetworkConnectionTracker::NetworkConnectionObserver>::NotificationData"* %8 to i64*
  %43 = getelementptr inbounds %"struct.base::ObserverListThreadSafe<network::NetworkConnectionTracker::NetworkConnectionObserver>::NotificationData", %"struct.base::ObserverListThreadSafe<network::NetworkConnectionTracker::NetworkConnectionObserver>::NotificationData"* %8, i64 0, i32 1
  %44 = getelementptr inbounds %"class.base::RepeatingCallback.239", %"class.base::RepeatingCallback.239"* %43, i64 0, i32 0, i32 0, i32 0, i32 0
  %45 = bitcast %"class.base::OnceCallback"* %7 to i8**
  %46 = getelementptr inbounds %"class.base::OnceCallback", %"class.base::OnceCallback"* %7, i64 0, i32 0
  %47 = getelementptr inbounds %"struct.base::ObserverListThreadSafe<network::NetworkConnectionTracker::NetworkConnectionObserver>::NotificationData", %"struct.base::ObserverListThreadSafe<network::NetworkConnectionTracker::NetworkConnectionObserver>::NotificationData"* %8, i64 0, i32 1, i32 0, i32 0
  %48 = bitcast %"class.base::RepeatingCallback.239"* %43 to <2 x i64>*
  br label %52

49:                                               ; preds = %69, %28
  %50 = call i32 @pthread_mutex_unlock(%union.pthread_mutex_t* %23) #10
  %51 = getelementptr inbounds %"class.base::RepeatingCallback.239", %"class.base::RepeatingCallback.239"* %6, i64 0, i32 0, i32 0
  call void @_ZN4base8internal12CallbackBaseD2Ev(%"class.base::internal::CallbackBase"* nonnull %51) #10
  call void @llvm.lifetime.end.p0i8(i64 8, i8* nonnull %9) #10
  ret void

52:                                               ; preds = %33, %69
  %53 = phi i64 [ %31, %33 ], [ %84, %69 ]
  %54 = inttoptr i64 %53 to %"struct.std::__1::__hash_node"*
  %55 = getelementptr inbounds %"struct.std::__1::__hash_node", %"struct.std::__1::__hash_node"* %54, i64 0, i32 2, i32 0
  %56 = getelementptr inbounds %"struct.std::__1::__hash_node", %"struct.std::__1::__hash_node"* %54, i64 0, i32 2, i32 0, i32 1, i32 0, i32 0
  %57 = bitcast %"class.base::SequencedTaskRunner"** %56 to %"class.base::TaskRunner"**
  %58 = load %"class.base::TaskRunner"*, %"class.base::TaskRunner"** %57, align 8
  call void @llvm.lifetime.start.p0i8(i64 56, i8* nonnull %34) #10
  %59 = getelementptr inbounds %"struct.std::__1::__hash_node", %"struct.std::__1::__hash_node"* %54, i64 0, i32 2, i32 0, i32 1, i32 1
  %60 = load i64, i64* %59, align 8
  store %"class.base::ObserverListThreadSafe"* %0, %"class.base::ObserverListThreadSafe"** %35, align 8
  call void @_ZN4base8LocationC1ERKS0_(%"class.base::Location"* %36, %"class.base::Location"* dereferenceable(32) %1) #10
  call void @_ZN4base8internal20CallbackBaseCopyableC2ERKS1_(%"class.base::internal::CallbackBaseCopyable"* %37, %"class.base::internal::CallbackBaseCopyable"* nonnull dereferenceable(8) %38) #10
  store i64 %60, i64* %39, align 8
  %61 = call i8* @_Znwm(i64 120) #11, !noalias !34
  %62 = bitcast i8* %61 to %"class.base::internal::BindStateBase"*
  call void @_ZN4base8internal13BindStateBaseC2EPFvvEPFvPKS1_E(%"class.base::internal::BindStateBase"* nonnull %62, void ()* bitcast (void (%"class.base::internal::BindStateBase"*)* @_ZN4base8internal7InvokerINS0_9BindStateIMNS_22ObserverListThreadSafeIN7network24NetworkConnectionTracker25NetworkConnectionObserverEEEFvPS6_RKNS7_16NotificationDataEEJ13scoped_refptrIS7_ES8_S9_EEEFvvEE7RunOnceEPNS0_13BindStateBaseE to void ()*), void (%"class.base::internal::BindStateBase"*)* nonnull @_ZN4base8internal9BindStateIMNS_22ObserverListThreadSafeIN7network24NetworkConnectionTracker25NetworkConnectionObserverEEEFvPS5_RKNS6_16NotificationDataEEJ13scoped_refptrIS6_ES7_S8_EE7DestroyEPKNS0_13BindStateBaseE) #10, !noalias !34
  %63 = getelementptr inbounds i8, i8* %61, i64 32
  %64 = bitcast i8* %63 to <2 x i64>*
  store <2 x i64> <i64 ptrtoint (void (%"class.base::ObserverListThreadSafe"*, %"class.network::NetworkConnectionTracker::NetworkConnectionObserver"*, %"struct.base::ObserverListThreadSafe<network::NetworkConnectionTracker::NetworkConnectionObserver>::NotificationData"*)* @_ZN4base22ObserverListThreadSafeIN7network24NetworkConnectionTracker25NetworkConnectionObserverEE13NotifyWrapperEPS3_RKNS4_16NotificationDataE to i64), i64 0>, <2 x i64>* %64, align 8, !noalias !34
  %65 = getelementptr inbounds i8, i8* %61, i64 48
  %66 = bitcast i8* %65 to %"class.base::ObserverListThreadSafe"**
  store %"class.base::ObserverListThreadSafe"* %0, %"class.base::ObserverListThreadSafe"** %66, align 8, !noalias !34
  br i1 %40, label %69, label %67

67:                                               ; preds = %52
  %68 = atomicrmw add i32* %41, i32 1 monotonic, !noalias !34
  br label %69

69:                                               ; preds = %52, %67
  %70 = getelementptr inbounds i8, i8* %61, i64 56
  %71 = bitcast %"struct.std::__1::pair.228"* %55 to i64*
  %72 = load i64, i64* %71, align 8, !noalias !34
  %73 = bitcast i8* %70 to i64*
  store i64 %72, i64* %73, align 8, !noalias !34
  %74 = getelementptr inbounds i8, i8* %61, i64 64
  %75 = load i64, i64* %42, align 8, !noalias !34
  %76 = bitcast i8* %74 to i64*
  store i64 %75, i64* %76, align 8, !noalias !34
  %77 = getelementptr inbounds i8, i8* %61, i64 72
  %78 = bitcast i8* %77 to %"class.base::Location"*
  call void @_ZN4base8LocationC1ERKS0_(%"class.base::Location"* %78, %"class.base::Location"* dereferenceable(32) %36) #10, !noalias !34
  %79 = getelementptr inbounds i8, i8* %61, i64 104
  %80 = load <2 x i64>, <2 x i64>* %48, align 8, !noalias !34
  store %"class.base::internal::BindStateBase"* null, %"class.base::internal::BindStateBase"** %44, align 8, !noalias !34
  %81 = bitcast i8* %79 to <2 x i64>*
  store <2 x i64> %80, <2 x i64>* %81, align 8, !noalias !34
  store i8* %61, i8** %45, align 8, !alias.scope !34
  %82 = call zeroext i1 @_ZN4base10TaskRunner8PostTaskERKNS_8LocationENS_12OnceCallbackIFvvEEE(%"class.base::TaskRunner"* %58, %"class.base::Location"* dereferenceable(32) %1, %"class.base::OnceCallback"* nonnull %7) #10
  call void @_ZN4base8internal12CallbackBaseD2Ev(%"class.base::internal::CallbackBase"* nonnull %46) #10
  call void @_ZN4base8internal12CallbackBaseD2Ev(%"class.base::internal::CallbackBase"* %47) #10
  call void @llvm.lifetime.end.p0i8(i64 56, i8* nonnull %34) #10
  %83 = inttoptr i64 %53 to i64*
  %84 = load i64, i64* %83, align 8
  %85 = icmp eq i64 %84, 0
  br i1 %85, label %49, label %52
}

declare void @_ZN4base8Location7CurrentEPKcS2_i(%"class.base::Location"* sret, i8*, i8*, i32) local_unnamed_addr #1

; Function Attrs: argmemonly nounwind
declare void @llvm.memset.p0i8.i64(i8* nocapture writeonly, i8, i64, i1 immarg) #4

declare void @_ZN7network5mojom25NetworkChangeManagerProxy20RequestNotificationsEN4mojo13PendingRemoteINS0_26NetworkChangeManagerClientEEE(%"class.network::mojom::NetworkChangeManagerProxy"*, %"class.mojo::PendingRemote"*) unnamed_addr #1

; Function Attrs: nounwind ssp uwtable
define hidden void @_ZN7network24NetworkConnectionTracker30HandleNetworkServicePipeBrokenEv(%"class.network::NetworkConnectionTracker"*) #0 align 2 {
  %2 = getelementptr inbounds %"class.network::NetworkConnectionTracker", %"class.network::NetworkConnectionTracker"* %0, i64 0, i32 8, i32 0, i32 0
  tail call void @_ZN4mojo8internal16BindingStateBase5CloseEv(%"class.mojo::internal::BindingStateBase"* %2) #10
  %3 = getelementptr inbounds %"class.network::NetworkConnectionTracker", %"class.network::NetworkConnectionTracker"* %0, i64 0, i32 5
  store atomic volatile i32 -1, i32* %3 monotonic, align 4
  tail call void @_ZN7network24NetworkConnectionTracker10InitializeEv(%"class.network::NetworkConnectionTracker"* %0)
  ret void
}

declare void @_ZN4base8internal20CallbackBaseCopyableC2ERKS1_(%"class.base::internal::CallbackBaseCopyable"*, %"class.base::internal::CallbackBaseCopyable"* dereferenceable(8)) unnamed_addr #1

declare void @_ZN4base8internal8LockImplC1Ev(%"class.base::internal::LockImpl"*) unnamed_addr #1

declare void @_ZN4mojo8internal16BindingStateBase5CloseEv(%"class.mojo::internal::BindingStateBase"*) local_unnamed_addr #1

; Function Attrs: nounwind
declare void @_ZN4mojo8internal16BindingStateBaseD2Ev(%"class.mojo::internal::BindingStateBase"*) unnamed_addr #7

; Function Attrs: nounwind
declare void @_ZN4base8internal8LockImplD1Ev(%"class.base::internal::LockImpl"*) unnamed_addr #7

declare zeroext i1 @_ZN4base10TaskRunner8PostTaskERKNS_8LocationENS_12OnceCallbackIFvvEEE(%"class.base::TaskRunner"*, %"class.base::Location"* dereferenceable(32), %"class.base::OnceCallback"*) local_unnamed_addr #1

; Function Attrs: nounwind ssp uwtable
define internal void @"_ZN4base8internal7InvokerINS0_9BindStateIZN7network12_GLOBAL__N_119OnGetConnectionTypeE13scoped_refptrINS_10TaskRunnerEENS_12OnceCallbackIFvNS3_5mojom14ConnectionTypeEEEESA_E3$_0JSC_SA_EEEFvvEE7RunOnceEPNS0_13BindStateBaseE"(%"class.base::internal::BindStateBase"* nocapture) #0 align 2 {
  %2 = alloca %"class.base::OnceCallback.196", align 8
  %3 = alloca %"class.base::OnceCallback.196", align 8
  %4 = getelementptr inbounds %"class.base::internal::BindStateBase", %"class.base::internal::BindStateBase"* %0, i64 1, i32 1
  %5 = getelementptr inbounds void ()*, void ()** %4, i64 1
  %6 = bitcast void ()** %5 to i32*
  %7 = bitcast %"class.base::OnceCallback.196"* %3 to i8*
  call void @llvm.lifetime.start.p0i8(i64 8, i8* nonnull %7) #10
  %8 = bitcast void ()** %4 to %"class.base::internal::BindStateBase"**
  %9 = bitcast void ()** %4 to i64*
  %10 = load i64, i64* %9, align 8
  store %"class.base::internal::BindStateBase"* null, %"class.base::internal::BindStateBase"** %8, align 8
  %11 = load i32, i32* %6, align 4
  %12 = bitcast %"class.base::OnceCallback.196"* %2 to i8*
  call void @llvm.lifetime.start.p0i8(i64 8, i8* nonnull %12) #10
  %13 = getelementptr inbounds %"class.base::OnceCallback.196", %"class.base::OnceCallback.196"* %3, i64 0, i32 0, i32 0, i32 0
  %14 = bitcast %"class.base::OnceCallback.196"* %2 to i64*
  store i64 %10, i64* %14, align 8
  store %"class.base::internal::BindStateBase"* null, %"class.base::internal::BindStateBase"** %13, align 8
  %15 = getelementptr inbounds %"class.base::OnceCallback.196", %"class.base::OnceCallback.196"* %2, i64 0, i32 0
  %16 = inttoptr i64 %10 to %"class.base::internal::BindStateBase"*
  %17 = getelementptr inbounds %"class.base::internal::BindStateBase", %"class.base::internal::BindStateBase"* %16, i64 0, i32 1
  %18 = bitcast void ()** %17 to void (%"class.base::internal::BindStateBase"*, i32)**
  %19 = load void (%"class.base::internal::BindStateBase"*, i32)*, void (%"class.base::internal::BindStateBase"*, i32)** %18, align 8
  tail call void %19(%"class.base::internal::BindStateBase"* %16, i32 %11) #10
  call void @_ZN4base8internal12CallbackBaseD2Ev(%"class.base::internal::CallbackBase"* nonnull %15) #10
  call void @llvm.lifetime.end.p0i8(i64 8, i8* nonnull %12) #10
  %20 = getelementptr inbounds %"class.base::OnceCallback.196", %"class.base::OnceCallback.196"* %3, i64 0, i32 0
  call void @_ZN4base8internal12CallbackBaseD2Ev(%"class.base::internal::CallbackBase"* nonnull %20) #10
  call void @llvm.lifetime.end.p0i8(i64 8, i8* nonnull %7) #10
  ret void
}

; Function Attrs: nounwind ssp uwtable
define internal void @"_ZN4base8internal9BindStateIZN7network12_GLOBAL__N_119OnGetConnectionTypeE13scoped_refptrINS_10TaskRunnerEENS_12OnceCallbackIFvNS2_5mojom14ConnectionTypeEEEES9_E3$_0JSB_S9_EE7DestroyEPKNS0_13BindStateBaseE"(%"class.base::internal::BindStateBase"*) #0 align 2 {
  %2 = icmp eq %"class.base::internal::BindStateBase"* %0, null
  br i1 %2, label %7, label %3

3:                                                ; preds = %1
  %4 = getelementptr inbounds %"class.base::internal::BindStateBase", %"class.base::internal::BindStateBase"* %0, i64 1, i32 1
  %5 = bitcast void ()** %4 to %"class.base::internal::CallbackBase"*
  tail call void @_ZN4base8internal12CallbackBaseD2Ev(%"class.base::internal::CallbackBase"* %5) #10
  %6 = bitcast %"class.base::internal::BindStateBase"* %0 to i8*
  tail call void @_ZdlPv(i8* %6) #11
  br label %7

7:                                                ; preds = %3, %1
  ret void
}

declare void @_ZN4base8internal13BindStateBaseC2EPFvvEPFvPKS1_E(%"class.base::internal::BindStateBase"*, void ()*, void (%"class.base::internal::BindStateBase"*)*) unnamed_addr #1

declare void @_ZN4base16TaskRunnerTraits8DestructEPKNS_10TaskRunnerE(%"class.base::TaskRunner"*) local_unnamed_addr #1

declare void @_ZN4mojo8internal21InterfacePtrStateBaseC2Ev(%"class.mojo::internal::InterfacePtrStateBase"*) unnamed_addr #1

; Function Attrs: nounwind
declare void @_ZN4mojo8internal20PendingReceiverStateD1Ev(%"struct.mojo::internal::PendingReceiverState"*) unnamed_addr #7

; Function Attrs: nounwind
declare void @_ZN4mojo8internal18PendingRemoteStateD1Ev(%"struct.mojo::internal::PendingRemoteState"*) unnamed_addr #7

; Function Attrs: nounwind
declare void @_ZN4mojo8internal21InterfacePtrStateBaseD2Ev(%"class.mojo::internal::InterfacePtrStateBase"*) unnamed_addr #7

declare void @_ZN4mojo8internal16BindingStateBaseC2Ev(%"class.mojo::internal::BindingStateBase"*) unnamed_addr #1

; Function Attrs: nounwind ssp uwtable
define linkonce_odr hidden void @_ZN7network5mojom30NetworkChangeManagerClientStubIN4mojo19RawPtrImplRefTraitsINS0_26NetworkChangeManagerClientEEEED0Ev(%"class.network::mojom::NetworkChangeManagerClientStub"*) unnamed_addr #0 comdat align 2 {
  %2 = bitcast %"class.network::mojom::NetworkChangeManagerClientStub"* %0 to i8*
  tail call void @_ZdlPv(i8* %2) #11
  ret void
}

declare zeroext i1 @_ZN4mojo15MessageReceiver25PrefersSerializedMessagesEv(%"class.mojo::MessageReceiver"*) unnamed_addr #1

; Function Attrs: nounwind ssp uwtable
define linkonce_odr hidden zeroext i1 @_ZN7network5mojom30NetworkChangeManagerClientStubIN4mojo19RawPtrImplRefTraitsINS0_26NetworkChangeManagerClientEEEE6AcceptEPNS2_7MessageE(%"class.network::mojom::NetworkChangeManagerClientStub"*, %"class.mojo::Message"*) unnamed_addr #0 comdat align 2 {
  %3 = getelementptr inbounds %"class.network::mojom::NetworkChangeManagerClientStub", %"class.network::mojom::NetworkChangeManagerClientStub"* %0, i64 0, i32 1
  %4 = load %"class.network::mojom::NetworkChangeManagerClient"*, %"class.network::mojom::NetworkChangeManagerClient"** %3, align 8
  %5 = icmp eq %"class.network::mojom::NetworkChangeManagerClient"* %4, null
  br i1 %5, label %8, label %6

6:                                                ; preds = %2
  %7 = tail call zeroext i1 @_ZN7network5mojom38NetworkChangeManagerClientStubDispatch6AcceptEPNS0_26NetworkChangeManagerClientEPN4mojo7MessageE(%"class.network::mojom::NetworkChangeManagerClient"* nonnull %4, %"class.mojo::Message"* %1) #10
  br label %8

8:                                                ; preds = %2, %6
  %9 = phi i1 [ %7, %6 ], [ false, %2 ]
  ret i1 %9
}

; Function Attrs: nounwind ssp uwtable
define linkonce_odr hidden zeroext i1 @_ZN7network5mojom30NetworkChangeManagerClientStubIN4mojo19RawPtrImplRefTraitsINS0_26NetworkChangeManagerClientEEEE19AcceptWithResponderEPNS2_7MessageENSt3__110unique_ptrINS2_25MessageReceiverWithStatusENS9_14default_deleteISB_EEEE(%"class.network::mojom::NetworkChangeManagerClientStub"*, %"class.mojo::Message"*, %"class.mojo::MessageReceiverWithStatus"*) unnamed_addr #0 comdat align 2 {
  %4 = getelementptr inbounds %"class.network::mojom::NetworkChangeManagerClientStub", %"class.network::mojom::NetworkChangeManagerClientStub"* %0, i64 0, i32 1
  %5 = load %"class.network::mojom::NetworkChangeManagerClient"*, %"class.network::mojom::NetworkChangeManagerClient"** %4, align 8
  %6 = icmp eq %"class.network::mojom::NetworkChangeManagerClient"* %5, null
  br i1 %6, label %9, label %7

7:                                                ; preds = %3
  %8 = tail call zeroext i1 @_ZN7network5mojom38NetworkChangeManagerClientStubDispatch19AcceptWithResponderEPNS0_26NetworkChangeManagerClientEPN4mojo7MessageENSt3__110unique_ptrINS4_25MessageReceiverWithStatusENS7_14default_deleteIS9_EEEE(%"class.network::mojom::NetworkChangeManagerClient"* nonnull %5, %"class.mojo::Message"* %1, %"class.mojo::MessageReceiverWithStatus"* %2) #10
  br label %16

9:                                                ; preds = %3
  %10 = icmp eq %"class.mojo::MessageReceiverWithStatus"* %2, null
  br i1 %10, label %16, label %11

11:                                               ; preds = %9
  %12 = bitcast %"class.mojo::MessageReceiverWithStatus"* %2 to void (%"class.mojo::MessageReceiverWithStatus"*)***
  %13 = load void (%"class.mojo::MessageReceiverWithStatus"*)**, void (%"class.mojo::MessageReceiverWithStatus"*)*** %12, align 8
  %14 = getelementptr inbounds void (%"class.mojo::MessageReceiverWithStatus"*)*, void (%"class.mojo::MessageReceiverWithStatus"*)** %13, i64 1
  %15 = load void (%"class.mojo::MessageReceiverWithStatus"*)*, void (%"class.mojo::MessageReceiverWithStatus"*)** %14, align 8
  tail call void %15(%"class.mojo::MessageReceiverWithStatus"* nonnull %2) #10
  br label %16

16:                                               ; preds = %7, %9, %11
  %17 = phi i1 [ %8, %7 ], [ false, %9 ], [ false, %11 ]
  ret i1 %17
}

; Function Attrs: nounwind ssp uwtable
define linkonce_odr hidden void @_ZN4mojo15MessageReceiverD2Ev(%"class.mojo::MessageReceiver"*) unnamed_addr #0 comdat align 2 {
  ret void
}

declare zeroext i1 @_ZN7network5mojom38NetworkChangeManagerClientStubDispatch6AcceptEPNS0_26NetworkChangeManagerClientEPN4mojo7MessageE(%"class.network::mojom::NetworkChangeManagerClient"*, %"class.mojo::Message"*) local_unnamed_addr #1

declare zeroext i1 @_ZN7network5mojom38NetworkChangeManagerClientStubDispatch19AcceptWithResponderEPNS0_26NetworkChangeManagerClientEPN4mojo7MessageENSt3__110unique_ptrINS4_25MessageReceiverWithStatusENS7_14default_deleteIS9_EEEE(%"class.network::mojom::NetworkChangeManagerClient"*, %"class.mojo::Message"*, %"class.mojo::MessageReceiverWithStatus"*) local_unnamed_addr #1

; Function Attrs: nounwind ssp uwtable
define linkonce_odr hidden void @_ZN4base22ObserverListThreadSafeIN7network24NetworkConnectionTracker25NetworkConnectionObserverEED2Ev(%"class.base::ObserverListThreadSafe"*) unnamed_addr #0 comdat align 2 {
  %2 = getelementptr inbounds %"class.base::ObserverListThreadSafe", %"class.base::ObserverListThreadSafe"* %0, i64 0, i32 0, i32 0
  store i32 (...)** bitcast (i8** getelementptr inbounds ({ [4 x i8*] }, { [4 x i8*] }* @_ZTVN4base22ObserverListThreadSafeIN7network24NetworkConnectionTracker25NetworkConnectionObserverEEE, i64 0, inrange i32 0, i64 2) to i32 (...)**), i32 (...)*** %2, align 8
  %3 = getelementptr inbounds %"class.base::ObserverListThreadSafe", %"class.base::ObserverListThreadSafe"* %0, i64 0, i32 4, i32 0, i32 1, i32 0, i32 0, i32 0
  %4 = load %"struct.std::__1::__hash_node_base"*, %"struct.std::__1::__hash_node_base"** %3, align 8
  %5 = icmp eq %"struct.std::__1::__hash_node_base"* %4, null
  br i1 %5, label %25, label %6

6:                                                ; preds = %1, %22
  %7 = phi %"struct.std::__1::__hash_node_base"* [ %9, %22 ], [ %4, %1 ]
  %8 = getelementptr inbounds %"struct.std::__1::__hash_node_base", %"struct.std::__1::__hash_node_base"* %7, i64 0, i32 0
  %9 = load %"struct.std::__1::__hash_node_base"*, %"struct.std::__1::__hash_node_base"** %8, align 8
  %10 = getelementptr inbounds %"struct.std::__1::__hash_node_base", %"struct.std::__1::__hash_node_base"* %7, i64 3
  %11 = bitcast %"struct.std::__1::__hash_node_base"* %10 to %"class.base::SequencedTaskRunner"**
  %12 = load %"class.base::SequencedTaskRunner"*, %"class.base::SequencedTaskRunner"** %11, align 8
  %13 = icmp eq %"class.base::SequencedTaskRunner"* %12, null
  br i1 %13, label %22, label %14

14:                                               ; preds = %6
  %15 = getelementptr inbounds %"class.base::SequencedTaskRunner", %"class.base::SequencedTaskRunner"* %12, i64 0, i32 0, i32 1
  %16 = getelementptr inbounds %"class.base::RefCountedThreadSafe.2", %"class.base::RefCountedThreadSafe.2"* %15, i64 0, i32 0, i32 0, i32 0, i32 0, i32 0, i32 0, i32 0, i32 0
  %17 = atomicrmw sub i32* %16, i32 1 acq_rel
  %18 = icmp eq i32 %17, 1
  br i1 %18, label %19, label %22

19:                                               ; preds = %14
  %20 = getelementptr inbounds %"class.base::RefCountedThreadSafe.2", %"class.base::RefCountedThreadSafe.2"* %15, i64 -2
  %21 = bitcast %"class.base::RefCountedThreadSafe.2"* %20 to %"class.base::TaskRunner"*
  tail call void @_ZN4base16TaskRunnerTraits8DestructEPKNS_10TaskRunnerE(%"class.base::TaskRunner"* %21) #10
  br label %22

22:                                               ; preds = %19, %14, %6
  %23 = bitcast %"struct.std::__1::__hash_node_base"* %7 to i8*
  tail call void @_ZdlPv(i8* %23) #11
  %24 = icmp eq %"struct.std::__1::__hash_node_base"* %9, null
  br i1 %24, label %25, label %6

25:                                               ; preds = %22, %1
  %26 = getelementptr inbounds %"class.base::ObserverListThreadSafe", %"class.base::ObserverListThreadSafe"* %0, i64 0, i32 4, i32 0, i32 0, i32 0, i32 0, i32 0
  %27 = load %"struct.std::__1::__hash_node_base"**, %"struct.std::__1::__hash_node_base"*** %26, align 8
  store %"struct.std::__1::__hash_node_base"** null, %"struct.std::__1::__hash_node_base"*** %26, align 8
  %28 = icmp eq %"struct.std::__1::__hash_node_base"** %27, null
  br i1 %28, label %31, label %29

29:                                               ; preds = %25
  %30 = bitcast %"struct.std::__1::__hash_node_base"** %27 to i8*
  tail call void @_ZdlPv(i8* %30) #11
  br label %31

31:                                               ; preds = %25, %29
  %32 = getelementptr inbounds %"class.base::ObserverListThreadSafe", %"class.base::ObserverListThreadSafe"* %0, i64 0, i32 2, i32 0
  tail call void @_ZN4base8internal8LockImplD1Ev(%"class.base::internal::LockImpl"* %32) #10
  ret void
}

; Function Attrs: nounwind ssp uwtable
define linkonce_odr hidden void @_ZN4base22ObserverListThreadSafeIN7network24NetworkConnectionTracker25NetworkConnectionObserverEED0Ev(%"class.base::ObserverListThreadSafe"*) unnamed_addr #0 comdat align 2 {
  %2 = getelementptr inbounds %"class.base::ObserverListThreadSafe", %"class.base::ObserverListThreadSafe"* %0, i64 0, i32 0, i32 0
  store i32 (...)** bitcast (i8** getelementptr inbounds ({ [4 x i8*] }, { [4 x i8*] }* @_ZTVN4base22ObserverListThreadSafeIN7network24NetworkConnectionTracker25NetworkConnectionObserverEEE, i64 0, inrange i32 0, i64 2) to i32 (...)**), i32 (...)*** %2, align 8
  %3 = getelementptr inbounds %"class.base::ObserverListThreadSafe", %"class.base::ObserverListThreadSafe"* %0, i64 0, i32 4, i32 0, i32 1, i32 0, i32 0, i32 0
  %4 = load %"struct.std::__1::__hash_node_base"*, %"struct.std::__1::__hash_node_base"** %3, align 8
  %5 = icmp eq %"struct.std::__1::__hash_node_base"* %4, null
  br i1 %5, label %25, label %6

6:                                                ; preds = %1, %22
  %7 = phi %"struct.std::__1::__hash_node_base"* [ %9, %22 ], [ %4, %1 ]
  %8 = getelementptr inbounds %"struct.std::__1::__hash_node_base", %"struct.std::__1::__hash_node_base"* %7, i64 0, i32 0
  %9 = load %"struct.std::__1::__hash_node_base"*, %"struct.std::__1::__hash_node_base"** %8, align 8
  %10 = getelementptr inbounds %"struct.std::__1::__hash_node_base", %"struct.std::__1::__hash_node_base"* %7, i64 3
  %11 = bitcast %"struct.std::__1::__hash_node_base"* %10 to %"class.base::SequencedTaskRunner"**
  %12 = load %"class.base::SequencedTaskRunner"*, %"class.base::SequencedTaskRunner"** %11, align 8
  %13 = icmp eq %"class.base::SequencedTaskRunner"* %12, null
  br i1 %13, label %22, label %14

14:                                               ; preds = %6
  %15 = getelementptr inbounds %"class.base::SequencedTaskRunner", %"class.base::SequencedTaskRunner"* %12, i64 0, i32 0, i32 1
  %16 = getelementptr inbounds %"class.base::RefCountedThreadSafe.2", %"class.base::RefCountedThreadSafe.2"* %15, i64 0, i32 0, i32 0, i32 0, i32 0, i32 0, i32 0, i32 0, i32 0
  %17 = atomicrmw sub i32* %16, i32 1 acq_rel
  %18 = icmp eq i32 %17, 1
  br i1 %18, label %19, label %22

19:                                               ; preds = %14
  %20 = getelementptr inbounds %"class.base::RefCountedThreadSafe.2", %"class.base::RefCountedThreadSafe.2"* %15, i64 -2
  %21 = bitcast %"class.base::RefCountedThreadSafe.2"* %20 to %"class.base::TaskRunner"*
  tail call void @_ZN4base16TaskRunnerTraits8DestructEPKNS_10TaskRunnerE(%"class.base::TaskRunner"* %21) #10
  br label %22

22:                                               ; preds = %19, %14, %6
  %23 = bitcast %"struct.std::__1::__hash_node_base"* %7 to i8*
  tail call void @_ZdlPv(i8* %23) #11
  %24 = icmp eq %"struct.std::__1::__hash_node_base"* %9, null
  br i1 %24, label %25, label %6

25:                                               ; preds = %22, %1
  %26 = getelementptr inbounds %"class.base::ObserverListThreadSafe", %"class.base::ObserverListThreadSafe"* %0, i64 0, i32 4, i32 0, i32 0, i32 0, i32 0, i32 0
  %27 = load %"struct.std::__1::__hash_node_base"**, %"struct.std::__1::__hash_node_base"*** %26, align 8
  store %"struct.std::__1::__hash_node_base"** null, %"struct.std::__1::__hash_node_base"*** %26, align 8
  %28 = icmp eq %"struct.std::__1::__hash_node_base"** %27, null
  br i1 %28, label %31, label %29

29:                                               ; preds = %25
  %30 = bitcast %"struct.std::__1::__hash_node_base"** %27 to i8*
  tail call void @_ZdlPv(i8* %30) #11
  br label %31

31:                                               ; preds = %25, %29
  %32 = getelementptr inbounds %"class.base::ObserverListThreadSafe", %"class.base::ObserverListThreadSafe"* %0, i64 0, i32 2, i32 0
  tail call void @_ZN4base8internal8LockImplD1Ev(%"class.base::internal::LockImpl"* %32) #10
  %33 = bitcast %"class.base::ObserverListThreadSafe"* %0 to i8*
  tail call void @_ZdlPv(i8* %33) #11
  ret void
}

declare void @_ZN4base8internal8LockImpl24LockInternalWithTrackingEv(%"class.base::internal::LockImpl"*) local_unnamed_addr #1

; Function Attrs: nounwind
declare i32 @pthread_mutex_trylock(%union.pthread_mutex_t*) local_unnamed_addr #7

; Function Attrs: nounwind
declare i32 @pthread_mutex_unlock(%union.pthread_mutex_t*) local_unnamed_addr #7

; Function Attrs: nounwind ssp uwtable
define linkonce_odr hidden void @_ZN4base8internal7InvokerINS0_9BindStateIPFv13scoped_refptrINS_10TaskRunnerEENS_12OnceCallbackIFvN7network5mojom14ConnectionTypeEEEES9_EJS3_INS_19SequencedTaskRunnerEESB_EEESA_E7RunOnceEPNS0_13BindStateBaseES9_(%"class.base::internal::BindStateBase"*, i32) #0 comdat align 2 {
  %3 = alloca %"class.base::OnceCallback.196", align 8
  %4 = getelementptr inbounds %"class.base::internal::BindStateBase", %"class.base::internal::BindStateBase"* %0, i64 1
  %5 = bitcast %"class.base::internal::BindStateBase"* %4 to void (%"class.base::TaskRunner"*, %"class.base::OnceCallback.196"*, i32)**
  %6 = getelementptr inbounds %"class.base::internal::BindStateBase", %"class.base::internal::BindStateBase"* %0, i64 1, i32 1
  %7 = getelementptr inbounds void ()*, void ()** %6, i64 1
  %8 = bitcast %"class.base::OnceCallback.196"* %3 to i8*
  call void @llvm.lifetime.start.p0i8(i64 8, i8* nonnull %8) #10
  %9 = load void (%"class.base::TaskRunner"*, %"class.base::OnceCallback.196"*, i32)*, void (%"class.base::TaskRunner"*, %"class.base::OnceCallback.196"*, i32)** %5, align 8
  %10 = bitcast void ()** %6 to %"class.base::SequencedTaskRunner"**
  %11 = bitcast void ()** %6 to %"class.base::TaskRunner"**
  %12 = load %"class.base::TaskRunner"*, %"class.base::TaskRunner"** %11, align 8
  store %"class.base::SequencedTaskRunner"* null, %"class.base::SequencedTaskRunner"** %10, align 8
  %13 = bitcast void ()** %7 to %"class.base::internal::BindStateBase"**
  %14 = bitcast void ()** %7 to i64*
  %15 = load i64, i64* %14, align 8
  %16 = bitcast %"class.base::OnceCallback.196"* %3 to i64*
  store i64 %15, i64* %16, align 8
  store %"class.base::internal::BindStateBase"* null, %"class.base::internal::BindStateBase"** %13, align 8
  call void %9(%"class.base::TaskRunner"* %12, %"class.base::OnceCallback.196"* nonnull %3, i32 %1) #10
  %17 = getelementptr inbounds %"class.base::OnceCallback.196", %"class.base::OnceCallback.196"* %3, i64 0, i32 0
  call void @_ZN4base8internal12CallbackBaseD2Ev(%"class.base::internal::CallbackBase"* nonnull %17) #10
  call void @llvm.lifetime.end.p0i8(i64 8, i8* nonnull %8) #10
  ret void
}

; Function Attrs: nounwind ssp uwtable
define linkonce_odr hidden void @_ZN4base8internal9BindStateIPFv13scoped_refptrINS_10TaskRunnerEENS_12OnceCallbackIFvN7network5mojom14ConnectionTypeEEEES8_EJS2_INS_19SequencedTaskRunnerEESA_EE7DestroyEPKNS0_13BindStateBaseE(%"class.base::internal::BindStateBase"*) #0 comdat align 2 {
  %2 = icmp eq %"class.base::internal::BindStateBase"* %0, null
  br i1 %2, label %20, label %3

3:                                                ; preds = %1
  %4 = getelementptr inbounds %"class.base::internal::BindStateBase", %"class.base::internal::BindStateBase"* %0, i64 1, i32 2
  %5 = bitcast void (%"class.base::internal::BindStateBase"*)** %4 to %"class.base::internal::CallbackBase"*
  tail call void @_ZN4base8internal12CallbackBaseD2Ev(%"class.base::internal::CallbackBase"* %5) #10
  %6 = getelementptr inbounds %"class.base::internal::BindStateBase", %"class.base::internal::BindStateBase"* %0, i64 1, i32 1
  %7 = bitcast void ()** %6 to %"class.base::SequencedTaskRunner"**
  %8 = load %"class.base::SequencedTaskRunner"*, %"class.base::SequencedTaskRunner"** %7, align 8
  %9 = icmp eq %"class.base::SequencedTaskRunner"* %8, null
  br i1 %9, label %18, label %10

10:                                               ; preds = %3
  %11 = getelementptr inbounds %"class.base::SequencedTaskRunner", %"class.base::SequencedTaskRunner"* %8, i64 0, i32 0, i32 1
  %12 = getelementptr inbounds %"class.base::RefCountedThreadSafe.2", %"class.base::RefCountedThreadSafe.2"* %11, i64 0, i32 0, i32 0, i32 0, i32 0, i32 0, i32 0, i32 0, i32 0
  %13 = atomicrmw sub i32* %12, i32 1 acq_rel
  %14 = icmp eq i32 %13, 1
  br i1 %14, label %15, label %18

15:                                               ; preds = %10
  %16 = getelementptr inbounds %"class.base::RefCountedThreadSafe.2", %"class.base::RefCountedThreadSafe.2"* %11, i64 -2
  %17 = bitcast %"class.base::RefCountedThreadSafe.2"* %16 to %"class.base::TaskRunner"*
  tail call void @_ZN4base16TaskRunnerTraits8DestructEPKNS_10TaskRunnerE(%"class.base::TaskRunner"* %17) #10
  br label %18

18:                                               ; preds = %3, %10, %15
  %19 = bitcast %"class.base::internal::BindStateBase"* %0 to i8*
  tail call void @_ZdlPv(i8* %19) #11
  br label %20

20:                                               ; preds = %18, %1
  ret void
}

; Function Attrs: noreturn nounwind
declare void @abort() local_unnamed_addr #8

; Function Attrs: nounwind ssp uwtable
define linkonce_odr hidden void @_ZN4base22ObserverListThreadSafeIN7network24NetworkConnectionTracker25NetworkConnectionObserverEE13NotifyWrapperEPS3_RKNS4_16NotificationDataE(%"class.base::ObserverListThreadSafe"*, %"class.network::NetworkConnectionTracker::NetworkConnectionObserver"*, %"struct.base::ObserverListThreadSafe<network::NetworkConnectionTracker::NetworkConnectionObserver>::NotificationData"* dereferenceable(56)) #0 comdat align 2 {
  %4 = ptrtoint %"class.network::NetworkConnectionTracker::NetworkConnectionObserver"* %1 to i64
  %5 = getelementptr inbounds %"class.base::ObserverListThreadSafe", %"class.base::ObserverListThreadSafe"* %0, i64 0, i32 2
  %6 = getelementptr inbounds %"class.base::Lock", %"class.base::Lock"* %5, i64 0, i32 0, i32 0
  %7 = tail call i32 @pthread_mutex_trylock(%union.pthread_mutex_t* %6) #10
  %8 = icmp eq i32 %7, 0
  br i1 %8, label %11, label %9, !prof !7

9:                                                ; preds = %3
  %10 = getelementptr inbounds %"class.base::Lock", %"class.base::Lock"* %5, i64 0, i32 0
  tail call void @_ZN4base8internal8LockImpl24LockInternalWithTrackingEv(%"class.base::internal::LockImpl"* %10) #10
  br label %11

11:                                               ; preds = %3, %9
  %12 = lshr i64 %4, 32
  %13 = shl i64 %4, 3
  %14 = and i64 %13, 4294967288
  %15 = add nuw nsw i64 %14, 8
  %16 = xor i64 %15, %12
  %17 = mul i64 %16, -7070675565921424023
  %18 = lshr i64 %17, 47
  %19 = xor i64 %17, %12
  %20 = xor i64 %19, %18
  %21 = mul i64 %20, -7070675565921424023
  %22 = lshr i64 %21, 47
  %23 = xor i64 %22, %21
  %24 = mul i64 %23, -7070675565921424023
  %25 = getelementptr inbounds %"class.base::ObserverListThreadSafe", %"class.base::ObserverListThreadSafe"* %0, i64 0, i32 4, i32 0, i32 0, i32 0, i32 1, i32 0, i32 0, i32 0, i32 0
  %26 = load i64, i64* %25, align 8
  %27 = icmp eq i64 %26, 0
  br i1 %27, label %83, label %28

28:                                               ; preds = %11
  %29 = tail call i64 @llvm.ctpop.i64(i64 %26) #10, !range !39
  %30 = icmp ugt i64 %29, 1
  br i1 %30, label %34, label %31

31:                                               ; preds = %28
  %32 = add i64 %26, -1
  %33 = and i64 %32, %24
  br label %38

34:                                               ; preds = %28
  %35 = icmp ult i64 %24, %26
  br i1 %35, label %38, label %36

36:                                               ; preds = %34
  %37 = urem i64 %24, %26
  br label %38

38:                                               ; preds = %36, %34, %31
  %39 = phi i64 [ %33, %31 ], [ %37, %36 ], [ %24, %34 ]
  %40 = getelementptr inbounds %"class.base::ObserverListThreadSafe", %"class.base::ObserverListThreadSafe"* %0, i64 0, i32 4, i32 0, i32 0, i32 0, i32 0, i32 0
  %41 = load %"struct.std::__1::__hash_node_base"**, %"struct.std::__1::__hash_node_base"*** %40, align 8
  %42 = getelementptr inbounds %"struct.std::__1::__hash_node_base"*, %"struct.std::__1::__hash_node_base"** %41, i64 %39
  %43 = load %"struct.std::__1::__hash_node_base"*, %"struct.std::__1::__hash_node_base"** %42, align 8
  %44 = icmp eq %"struct.std::__1::__hash_node_base"* %43, null
  br i1 %44, label %83, label %45

45:                                               ; preds = %38
  %46 = getelementptr inbounds %"struct.std::__1::__hash_node_base", %"struct.std::__1::__hash_node_base"* %43, i64 0, i32 0
  %47 = load %"struct.std::__1::__hash_node_base"*, %"struct.std::__1::__hash_node_base"** %46, align 8
  %48 = icmp eq %"struct.std::__1::__hash_node_base"* %47, null
  br i1 %48, label %83, label %49

49:                                               ; preds = %45
  %50 = add i64 %26, -1
  br label %51

51:                                               ; preds = %72, %49
  %52 = phi %"struct.std::__1::__hash_node_base"* [ %47, %49 ], [ %74, %72 ]
  %53 = getelementptr inbounds %"struct.std::__1::__hash_node_base", %"struct.std::__1::__hash_node_base"* %52, i64 1
  %54 = bitcast %"struct.std::__1::__hash_node_base"* %53 to i64*
  %55 = load i64, i64* %54, align 8
  %56 = icmp eq i64 %55, %24
  br i1 %56, label %67, label %57

57:                                               ; preds = %51
  br i1 %30, label %60, label %58

58:                                               ; preds = %57
  %59 = and i64 %55, %50
  br label %64

60:                                               ; preds = %57
  %61 = icmp ult i64 %55, %26
  br i1 %61, label %64, label %62

62:                                               ; preds = %60
  %63 = urem i64 %55, %26
  br label %64

64:                                               ; preds = %62, %60, %58
  %65 = phi i64 [ %59, %58 ], [ %63, %62 ], [ %55, %60 ]
  %66 = icmp eq i64 %65, %39
  br i1 %66, label %72, label %83

67:                                               ; preds = %51
  %68 = getelementptr inbounds %"struct.std::__1::__hash_node_base", %"struct.std::__1::__hash_node_base"* %52, i64 2
  %69 = bitcast %"struct.std::__1::__hash_node_base"* %68 to %"class.network::NetworkConnectionTracker::NetworkConnectionObserver"**
  %70 = load %"class.network::NetworkConnectionTracker::NetworkConnectionObserver"*, %"class.network::NetworkConnectionTracker::NetworkConnectionObserver"** %69, align 8
  %71 = icmp eq %"class.network::NetworkConnectionTracker::NetworkConnectionObserver"* %70, %1
  br i1 %71, label %76, label %72

72:                                               ; preds = %67, %64
  %73 = getelementptr inbounds %"struct.std::__1::__hash_node_base", %"struct.std::__1::__hash_node_base"* %52, i64 0, i32 0
  %74 = load %"struct.std::__1::__hash_node_base"*, %"struct.std::__1::__hash_node_base"** %73, align 8
  %75 = icmp eq %"struct.std::__1::__hash_node_base"* %74, null
  br i1 %75, label %83, label %51

76:                                               ; preds = %67
  %77 = getelementptr inbounds %"struct.std::__1::__hash_node_base", %"struct.std::__1::__hash_node_base"* %52, i64 4
  %78 = bitcast %"struct.std::__1::__hash_node_base"* %77 to i64*
  %79 = load i64, i64* %78, align 8
  %80 = getelementptr inbounds %"struct.base::ObserverListThreadSafe<network::NetworkConnectionTracker::NetworkConnectionObserver>::NotificationData", %"struct.base::ObserverListThreadSafe<network::NetworkConnectionTracker::NetworkConnectionObserver>::NotificationData"* %2, i64 0, i32 2
  %81 = load i64, i64* %80, align 8
  %82 = icmp eq i64 %79, %81
  br i1 %82, label %85, label %83

83:                                               ; preds = %72, %64, %45, %11, %38, %76
  %84 = tail call i32 @pthread_mutex_unlock(%union.pthread_mutex_t* %6) #10
  br label %105

85:                                               ; preds = %76
  %86 = tail call i32 @pthread_mutex_unlock(%union.pthread_mutex_t* %6) #10
  %87 = load atomic i64, i64* getelementptr inbounds (%"class.base::LazyInstance", %"class.base::LazyInstance"* @_ZN4base8internal26ObserverListThreadSafeBase25tls_current_notification_E, i64 0, i32 0) acquire, align 8
  %88 = icmp ugt i64 %87, 1
  br i1 %88, label %94, label %89

89:                                               ; preds = %85
  %90 = tail call zeroext i1 @_ZN4base8internal17NeedsLazyInstanceEPl(i64* getelementptr inbounds (%"class.base::LazyInstance", %"class.base::LazyInstance"* @_ZN4base8internal26ObserverListThreadSafeBase25tls_current_notification_E, i64 0, i32 0)) #10
  br i1 %90, label %91, label %92

91:                                               ; preds = %89
  store i64 0, i64* bitcast (i8* getelementptr inbounds (%"class.base::LazyInstance", %"class.base::LazyInstance"* @_ZN4base8internal26ObserverListThreadSafeBase25tls_current_notification_E, i64 0, i32 1, i64 0) to i64*), align 8
  tail call void @_ZN4base18ThreadLocalStorage4SlotC1EPFvPvE(%"class.base::ThreadLocalStorage::Slot"* bitcast (i8* getelementptr inbounds (%"class.base::LazyInstance", %"class.base::LazyInstance"* @_ZN4base8internal26ObserverListThreadSafeBase25tls_current_notification_E, i64 0, i32 1, i64 0) to %"class.base::ThreadLocalStorage::Slot"*), void (i8*)* null) #10
  tail call void @_ZN4base8internal20CompleteLazyInstanceEPllPFvPvES2_(i64* getelementptr inbounds (%"class.base::LazyInstance", %"class.base::LazyInstance"* @_ZN4base8internal26ObserverListThreadSafeBase25tls_current_notification_E, i64 0, i32 0), i64 ptrtoint (i8* getelementptr inbounds (%"class.base::LazyInstance", %"class.base::LazyInstance"* @_ZN4base8internal26ObserverListThreadSafeBase25tls_current_notification_E, i64 0, i32 1, i64 0) to i64), void (i8*)* null, i8* bitcast (%"class.base::LazyInstance"* @_ZN4base8internal26ObserverListThreadSafeBase25tls_current_notification_E to i8*)) #10
  br label %94

92:                                               ; preds = %89
  %93 = load atomic i64, i64* getelementptr inbounds (%"class.base::LazyInstance", %"class.base::LazyInstance"* @_ZN4base8internal26ObserverListThreadSafeBase25tls_current_notification_E, i64 0, i32 0) acquire, align 8
  br label %94

94:                                               ; preds = %85, %91, %92
  %95 = phi i64 [ %87, %85 ], [ ptrtoint (i8* getelementptr inbounds (%"class.base::LazyInstance", %"class.base::LazyInstance"* @_ZN4base8internal26ObserverListThreadSafeBase25tls_current_notification_E, i64 0, i32 1, i64 0) to i64), %91 ], [ %93, %92 ]
  %96 = inttoptr i64 %95 to %"class.base::ThreadLocalPointer"*
  %97 = getelementptr inbounds %"class.base::ThreadLocalPointer", %"class.base::ThreadLocalPointer"* %96, i64 0, i32 0
  %98 = tail call i8* @_ZNK4base18ThreadLocalStorage4Slot3GetEv(%"class.base::ThreadLocalStorage::Slot"* %97) #10
  %99 = bitcast %"struct.base::ObserverListThreadSafe<network::NetworkConnectionTracker::NetworkConnectionObserver>::NotificationData"* %2 to i8*
  tail call void @_ZN4base18ThreadLocalStorage4Slot3SetEPv(%"class.base::ThreadLocalStorage::Slot"* %97, i8* %99) #10
  %100 = getelementptr inbounds %"struct.base::ObserverListThreadSafe<network::NetworkConnectionTracker::NetworkConnectionObserver>::NotificationData", %"struct.base::ObserverListThreadSafe<network::NetworkConnectionTracker::NetworkConnectionObserver>::NotificationData"* %2, i64 0, i32 1, i32 0, i32 0, i32 0, i32 0
  %101 = load %"class.base::internal::BindStateBase"*, %"class.base::internal::BindStateBase"** %100, align 8
  %102 = getelementptr inbounds %"class.base::internal::BindStateBase", %"class.base::internal::BindStateBase"* %101, i64 0, i32 1
  %103 = bitcast void ()** %102 to void (%"class.base::internal::BindStateBase"*, %"class.network::NetworkConnectionTracker::NetworkConnectionObserver"*)**
  %104 = load void (%"class.base::internal::BindStateBase"*, %"class.network::NetworkConnectionTracker::NetworkConnectionObserver"*)*, void (%"class.base::internal::BindStateBase"*, %"class.network::NetworkConnectionTracker::NetworkConnectionObserver"*)** %103, align 8
  tail call void %104(%"class.base::internal::BindStateBase"* %101, %"class.network::NetworkConnectionTracker::NetworkConnectionObserver"* %1) #10
  tail call void @_ZN4base18ThreadLocalStorage4Slot3SetEPv(%"class.base::ThreadLocalStorage::Slot"* %97, i8* %98) #10
  br label %105

105:                                              ; preds = %83, %94
  ret void
}

; Function Attrs: nounwind ssp uwtable
define linkonce_odr hidden { %"struct.std::__1::__hash_node_base"*, i8 } @_ZNSt3__112__hash_tableINS_17__hash_value_typeIPN7network24NetworkConnectionTracker25NetworkConnectionObserverEN4base22ObserverListThreadSafeIS4_E22ObserverTaskRunnerInfoEEENS_22__unordered_map_hasherIS5_SA_NS_4hashIS5_EENS_8equal_toIS5_EELb1EEENS_21__unordered_map_equalIS5_SA_SF_SD_Lb1EEENS_9allocatorISA_EEE25__emplace_unique_key_argsIS5_JRKNS_21piecewise_construct_tENS_5tupleIJRKS5_EEENSQ_IJEEEEEENS_4pairINS_15__hash_iteratorIPNS_11__hash_nodeISA_PvEEEEbEERKT_DpOT0_(%"class.std::__1::__hash_table"*, %"class.network::NetworkConnectionTracker::NetworkConnectionObserver"** dereferenceable(8), %"struct.std::__1::piecewise_construct_t"* dereferenceable(1), %"class.std::__1::tuple.241"* dereferenceable(8), %"class.std::__1::tuple.244"* dereferenceable(1)) local_unnamed_addr #0 comdat align 2 {
  %6 = bitcast %"class.network::NetworkConnectionTracker::NetworkConnectionObserver"** %1 to i64*
  %7 = load i64, i64* %6, align 8
  %8 = lshr i64 %7, 32
  %9 = shl i64 %7, 3
  %10 = and i64 %9, 4294967288
  %11 = add nuw nsw i64 %10, 8
  %12 = xor i64 %11, %8
  %13 = mul i64 %12, -7070675565921424023
  %14 = lshr i64 %13, 47
  %15 = xor i64 %13, %8
  %16 = xor i64 %15, %14
  %17 = mul i64 %16, -7070675565921424023
  %18 = lshr i64 %17, 47
  %19 = xor i64 %18, %17
  %20 = mul i64 %19, -7070675565921424023
  %21 = getelementptr inbounds %"class.std::__1::__hash_table", %"class.std::__1::__hash_table"* %0, i64 0, i32 0, i32 0, i32 1, i32 0, i32 0, i32 0, i32 0
  %22 = load i64, i64* %21, align 8
  %23 = icmp eq i64 %22, 0
  %24 = inttoptr i64 %7 to %"class.network::NetworkConnectionTracker::NetworkConnectionObserver"*
  br i1 %23, label %69, label %25

25:                                               ; preds = %5
  %26 = tail call i64 @llvm.ctpop.i64(i64 %22) #10, !range !39
  %27 = icmp ugt i64 %26, 1
  br i1 %27, label %31, label %28

28:                                               ; preds = %25
  %29 = add i64 %22, -1
  %30 = and i64 %20, %29
  br label %35

31:                                               ; preds = %25
  %32 = icmp ult i64 %20, %22
  br i1 %32, label %35, label %33

33:                                               ; preds = %31
  %34 = urem i64 %20, %22
  br label %35

35:                                               ; preds = %28, %31, %33
  %36 = phi i64 [ %30, %28 ], [ %34, %33 ], [ %20, %31 ]
  %37 = getelementptr inbounds %"class.std::__1::__hash_table", %"class.std::__1::__hash_table"* %0, i64 0, i32 0, i32 0, i32 0, i32 0
  %38 = load %"struct.std::__1::__hash_node_base"**, %"struct.std::__1::__hash_node_base"*** %37, align 8
  %39 = getelementptr inbounds %"struct.std::__1::__hash_node_base"*, %"struct.std::__1::__hash_node_base"** %38, i64 %36
  %40 = load %"struct.std::__1::__hash_node_base"*, %"struct.std::__1::__hash_node_base"** %39, align 8
  %41 = icmp eq %"struct.std::__1::__hash_node_base"* %40, null
  br i1 %41, label %69, label %42

42:                                               ; preds = %35
  %43 = add i64 %22, -1
  br label %44

44:                                               ; preds = %42, %64
  %45 = phi %"struct.std::__1::__hash_node_base"* [ %47, %64 ], [ %40, %42 ]
  %46 = getelementptr inbounds %"struct.std::__1::__hash_node_base", %"struct.std::__1::__hash_node_base"* %45, i64 0, i32 0
  %47 = load %"struct.std::__1::__hash_node_base"*, %"struct.std::__1::__hash_node_base"** %46, align 8
  %48 = icmp eq %"struct.std::__1::__hash_node_base"* %47, null
  br i1 %48, label %69, label %49

49:                                               ; preds = %44
  %50 = getelementptr inbounds %"struct.std::__1::__hash_node_base", %"struct.std::__1::__hash_node_base"* %47, i64 1
  %51 = bitcast %"struct.std::__1::__hash_node_base"* %50 to i64*
  %52 = load i64, i64* %51, align 8
  %53 = icmp eq i64 %52, %20
  br i1 %53, label %64, label %54

54:                                               ; preds = %49
  br i1 %27, label %57, label %55

55:                                               ; preds = %54
  %56 = and i64 %52, %43
  br label %61

57:                                               ; preds = %54
  %58 = icmp ult i64 %52, %22
  br i1 %58, label %61, label %59

59:                                               ; preds = %57
  %60 = urem i64 %52, %22
  br label %61

61:                                               ; preds = %55, %57, %59
  %62 = phi i64 [ %56, %55 ], [ %60, %59 ], [ %52, %57 ]
  %63 = icmp eq i64 %62, %36
  br i1 %63, label %64, label %69

64:                                               ; preds = %49, %61
  %65 = getelementptr inbounds %"struct.std::__1::__hash_node_base", %"struct.std::__1::__hash_node_base"* %47, i64 2
  %66 = bitcast %"struct.std::__1::__hash_node_base"* %65 to %"class.network::NetworkConnectionTracker::NetworkConnectionObserver"**
  %67 = load %"class.network::NetworkConnectionTracker::NetworkConnectionObserver"*, %"class.network::NetworkConnectionTracker::NetworkConnectionObserver"** %66, align 8
  %68 = icmp eq %"class.network::NetworkConnectionTracker::NetworkConnectionObserver"* %67, %24
  br i1 %68, label %159, label %44

69:                                               ; preds = %44, %61, %35, %5
  %70 = phi i64 [ %36, %35 ], [ -6148914691236517206, %5 ], [ %36, %61 ], [ %36, %44 ]
  %71 = tail call i8* @_Znwm(i64 40) #11, !noalias !40
  %72 = getelementptr inbounds i8, i8* %71, i64 16
  %73 = bitcast %"class.std::__1::tuple.241"* %3 to i64**
  %74 = load i64*, i64** %73, align 8, !noalias !40
  %75 = load i64, i64* %74, align 8, !noalias !40
  %76 = bitcast i8* %72 to i64*
  store i64 %75, i64* %76, align 8, !noalias !40
  %77 = getelementptr inbounds i8, i8* %71, i64 24
  tail call void @llvm.memset.p0i8.i64(i8* align 8 %77, i8 0, i64 16, i1 false) #10, !noalias !40
  %78 = getelementptr inbounds i8, i8* %71, i64 8
  %79 = bitcast i8* %78 to i64*
  store i64 %20, i64* %79, align 8, !noalias !40
  %80 = bitcast i8* %71 to %"struct.std::__1::__hash_node_base"**
  store %"struct.std::__1::__hash_node_base"* null, %"struct.std::__1::__hash_node_base"** %80, align 8, !noalias !40
  %81 = getelementptr inbounds %"class.std::__1::__hash_table", %"class.std::__1::__hash_table"* %0, i64 0, i32 2, i32 0, i32 0
  %82 = load i64, i64* %81, align 8
  %83 = add i64 %82, 1
  %84 = uitofp i64 %83 to float
  %85 = uitofp i64 %22 to float
  %86 = getelementptr inbounds %"class.std::__1::__hash_table", %"class.std::__1::__hash_table"* %0, i64 0, i32 3, i32 0, i32 0
  %87 = load float, float* %86, align 4
  %88 = fmul float %87, %85
  %89 = fcmp olt float %88, %84
  %90 = or i1 %23, %89
  br i1 %90, label %91, label %114

91:                                               ; preds = %69
  %92 = shl i64 %22, 1
  %93 = icmp ult i64 %22, 3
  %94 = tail call i64 @llvm.ctpop.i64(i64 %22) #10, !range !39
  %95 = icmp ugt i64 %94, 1
  %96 = or i1 %93, %95
  %97 = zext i1 %96 to i64
  %98 = or i64 %92, %97
  %99 = fdiv float %84, %87
  %100 = tail call float @llvm.ceil.f32(float %99) #10
  %101 = fptoui float %100 to i64
  %102 = icmp ult i64 %98, %101
  %103 = select i1 %102, i64 %101, i64 %98
  tail call void @_ZNSt3__112__hash_tableINS_17__hash_value_typeIPN7network24NetworkConnectionTracker25NetworkConnectionObserverEN4base22ObserverListThreadSafeIS4_E22ObserverTaskRunnerInfoEEENS_22__unordered_map_hasherIS5_SA_NS_4hashIS5_EENS_8equal_toIS5_EELb1EEENS_21__unordered_map_equalIS5_SA_SF_SD_Lb1EEENS_9allocatorISA_EEE6rehashEm(%"class.std::__1::__hash_table"* %0, i64 %103)
  %104 = load i64, i64* %21, align 8
  %105 = tail call i64 @llvm.ctpop.i64(i64 %104) #10, !range !39
  %106 = icmp ugt i64 %105, 1
  br i1 %106, label %110, label %107

107:                                              ; preds = %91
  %108 = add i64 %104, -1
  %109 = and i64 %108, %20
  br label %114

110:                                              ; preds = %91
  %111 = icmp ult i64 %20, %104
  br i1 %111, label %114, label %112

112:                                              ; preds = %110
  %113 = urem i64 %20, %104
  br label %114

114:                                              ; preds = %112, %110, %107, %69
  %115 = phi i64 [ %22, %69 ], [ %104, %107 ], [ %104, %110 ], [ %104, %112 ]
  %116 = phi i64 [ %70, %69 ], [ %109, %107 ], [ %20, %110 ], [ %113, %112 ]
  %117 = getelementptr inbounds %"class.std::__1::__hash_table", %"class.std::__1::__hash_table"* %0, i64 0, i32 0, i32 0, i32 0, i32 0
  %118 = load %"struct.std::__1::__hash_node_base"**, %"struct.std::__1::__hash_node_base"*** %117, align 8
  %119 = getelementptr inbounds %"struct.std::__1::__hash_node_base"*, %"struct.std::__1::__hash_node_base"** %118, i64 %116
  %120 = load %"struct.std::__1::__hash_node_base"*, %"struct.std::__1::__hash_node_base"** %119, align 8
  %121 = icmp eq %"struct.std::__1::__hash_node_base"* %120, null
  br i1 %121, label %122, label %148

122:                                              ; preds = %114
  %123 = getelementptr inbounds %"class.std::__1::__hash_table", %"class.std::__1::__hash_table"* %0, i64 0, i32 1, i32 0, i32 0
  %124 = bitcast %"struct.std::__1::__hash_node_base"* %123 to i64*
  %125 = load i64, i64* %124, align 8
  %126 = bitcast i8* %71 to i64*
  store i64 %125, i64* %126, align 8
  %127 = bitcast %"struct.std::__1::__hash_node_base"* %123 to i8**
  store i8* %71, i8** %127, align 8
  store %"struct.std::__1::__hash_node_base"* %123, %"struct.std::__1::__hash_node_base"** %119, align 8
  %128 = load %"struct.std::__1::__hash_node_base"*, %"struct.std::__1::__hash_node_base"** %80, align 8
  %129 = icmp eq %"struct.std::__1::__hash_node_base"* %128, null
  br i1 %129, label %155, label %130

130:                                              ; preds = %122
  %131 = getelementptr inbounds %"struct.std::__1::__hash_node_base", %"struct.std::__1::__hash_node_base"* %128, i64 1
  %132 = bitcast %"struct.std::__1::__hash_node_base"* %131 to i64*
  %133 = load i64, i64* %132, align 8
  %134 = tail call i64 @llvm.ctpop.i64(i64 %115) #10, !range !39
  %135 = icmp ugt i64 %134, 1
  br i1 %135, label %139, label %136

136:                                              ; preds = %130
  %137 = add i64 %115, -1
  %138 = and i64 %133, %137
  br label %143

139:                                              ; preds = %130
  %140 = icmp ult i64 %133, %115
  br i1 %140, label %143, label %141

141:                                              ; preds = %139
  %142 = urem i64 %133, %115
  br label %143

143:                                              ; preds = %136, %139, %141
  %144 = phi i64 [ %138, %136 ], [ %142, %141 ], [ %133, %139 ]
  %145 = load %"struct.std::__1::__hash_node_base"**, %"struct.std::__1::__hash_node_base"*** %117, align 8
  %146 = getelementptr inbounds %"struct.std::__1::__hash_node_base"*, %"struct.std::__1::__hash_node_base"** %145, i64 %144
  %147 = bitcast %"struct.std::__1::__hash_node_base"** %146 to i8**
  br label %153

148:                                              ; preds = %114
  %149 = bitcast %"struct.std::__1::__hash_node_base"* %120 to i64*
  %150 = load i64, i64* %149, align 8
  %151 = bitcast i8* %71 to i64*
  store i64 %150, i64* %151, align 8
  %152 = bitcast %"struct.std::__1::__hash_node_base"* %120 to i8**
  br label %153

153:                                              ; preds = %143, %148
  %154 = phi i8** [ %152, %148 ], [ %147, %143 ]
  store i8* %71, i8** %154, align 8
  br label %155

155:                                              ; preds = %153, %122
  %156 = bitcast i8* %71 to %"struct.std::__1::__hash_node_base"*
  %157 = load i64, i64* %81, align 8
  %158 = add i64 %157, 1
  store i64 %158, i64* %81, align 8
  br label %159

159:                                              ; preds = %64, %155
  %160 = phi i8 [ 1, %155 ], [ 0, %64 ]
  %161 = phi %"struct.std::__1::__hash_node_base"* [ %156, %155 ], [ %47, %64 ]
  %162 = insertvalue { %"struct.std::__1::__hash_node_base"*, i8 } undef, %"struct.std::__1::__hash_node_base"* %161, 0
  %163 = insertvalue { %"struct.std::__1::__hash_node_base"*, i8 } %162, i8 %160, 1
  ret { %"struct.std::__1::__hash_node_base"*, i8 } %163
}

; Function Attrs: nounwind ssp uwtable
define linkonce_odr hidden void @_ZNSt3__112__hash_tableINS_17__hash_value_typeIPN7network24NetworkConnectionTracker25NetworkConnectionObserverEN4base22ObserverListThreadSafeIS4_E22ObserverTaskRunnerInfoEEENS_22__unordered_map_hasherIS5_SA_NS_4hashIS5_EENS_8equal_toIS5_EELb1EEENS_21__unordered_map_equalIS5_SA_SF_SD_Lb1EEENS_9allocatorISA_EEE6rehashEm(%"class.std::__1::__hash_table"*, i64) local_unnamed_addr #0 comdat align 2 {
  %3 = icmp eq i64 %1, 1
  br i1 %3, label %9, label %4

4:                                                ; preds = %2
  %5 = tail call i64 @llvm.ctpop.i64(i64 %1), !range !39
  %6 = icmp ugt i64 %5, 1
  br i1 %6, label %7, label %9

7:                                                ; preds = %4
  %8 = tail call i64 @_ZNSt3__112__next_primeEm(i64 %1) #10
  br label %9

9:                                                ; preds = %2, %4, %7
  %10 = phi i64 [ %8, %7 ], [ %1, %4 ], [ 2, %2 ]
  %11 = getelementptr inbounds %"class.std::__1::__hash_table", %"class.std::__1::__hash_table"* %0, i64 0, i32 0, i32 0, i32 1, i32 0, i32 0, i32 0, i32 0
  %12 = load i64, i64* %11, align 8
  %13 = icmp ugt i64 %10, %12
  br i1 %13, label %14, label %15

14:                                               ; preds = %9
  tail call void @_ZNSt3__112__hash_tableINS_17__hash_value_typeIPN7network24NetworkConnectionTracker25NetworkConnectionObserverEN4base22ObserverListThreadSafeIS4_E22ObserverTaskRunnerInfoEEENS_22__unordered_map_hasherIS5_SA_NS_4hashIS5_EENS_8equal_toIS5_EELb1EEENS_21__unordered_map_equalIS5_SA_SF_SD_Lb1EEENS_9allocatorISA_EEE8__rehashEm(%"class.std::__1::__hash_table"* %0, i64 %10)
  br label %45

15:                                               ; preds = %9
  %16 = icmp ult i64 %10, %12
  br i1 %16, label %17, label %45

17:                                               ; preds = %15
  %18 = icmp ugt i64 %12, 2
  %19 = tail call i64 @llvm.ctpop.i64(i64 %12) #10, !range !39
  %20 = icmp ult i64 %19, 2
  %21 = and i1 %18, %20
  %22 = getelementptr inbounds %"class.std::__1::__hash_table", %"class.std::__1::__hash_table"* %0, i64 0, i32 2, i32 0, i32 0
  %23 = load i64, i64* %22, align 8
  %24 = uitofp i64 %23 to float
  %25 = getelementptr inbounds %"class.std::__1::__hash_table", %"class.std::__1::__hash_table"* %0, i64 0, i32 3, i32 0, i32 0
  %26 = load float, float* %25, align 4
  %27 = fdiv float %24, %26
  %28 = tail call float @llvm.ceil.f32(float %27) #10
  %29 = fptoui float %28 to i64
  br i1 %21, label %30, label %37

30:                                               ; preds = %17
  %31 = icmp ult i64 %29, 2
  br i1 %31, label %39, label %32

32:                                               ; preds = %30
  %33 = add i64 %29, -1
  %34 = tail call i64 @llvm.ctlz.i64(i64 %33, i1 true) #10, !range !39
  %35 = sub nuw nsw i64 64, %34
  %36 = shl i64 1, %35
  br label %39

37:                                               ; preds = %17
  %38 = tail call i64 @_ZNSt3__112__next_primeEm(i64 %29) #10
  br label %39

39:                                               ; preds = %32, %30, %37
  %40 = phi i64 [ %38, %37 ], [ %36, %32 ], [ %29, %30 ]
  %41 = icmp ult i64 %10, %40
  %42 = select i1 %41, i64 %40, i64 %10
  %43 = icmp ult i64 %42, %12
  br i1 %43, label %44, label %45

44:                                               ; preds = %39
  tail call void @_ZNSt3__112__hash_tableINS_17__hash_value_typeIPN7network24NetworkConnectionTracker25NetworkConnectionObserverEN4base22ObserverListThreadSafeIS4_E22ObserverTaskRunnerInfoEEENS_22__unordered_map_hasherIS5_SA_NS_4hashIS5_EENS_8equal_toIS5_EELb1EEENS_21__unordered_map_equalIS5_SA_SF_SD_Lb1EEENS_9allocatorISA_EEE8__rehashEm(%"class.std::__1::__hash_table"* %0, i64 %42)
  br label %45

45:                                               ; preds = %15, %44, %39, %14
  ret void
}

declare i64 @_ZNSt3__112__next_primeEm(i64) local_unnamed_addr #1

; Function Attrs: nounwind ssp uwtable
define linkonce_odr hidden void @_ZNSt3__112__hash_tableINS_17__hash_value_typeIPN7network24NetworkConnectionTracker25NetworkConnectionObserverEN4base22ObserverListThreadSafeIS4_E22ObserverTaskRunnerInfoEEENS_22__unordered_map_hasherIS5_SA_NS_4hashIS5_EENS_8equal_toIS5_EELb1EEENS_21__unordered_map_equalIS5_SA_SF_SD_Lb1EEENS_9allocatorISA_EEE8__rehashEm(%"class.std::__1::__hash_table"*, i64) local_unnamed_addr #0 comdat align 2 {
  %3 = getelementptr inbounds %"class.std::__1::__hash_table", %"class.std::__1::__hash_table"* %0, i64 0, i32 0, i32 0, i32 1, i32 0
  %4 = icmp eq i64 %1, 0
  br i1 %4, label %134, label %5

5:                                                ; preds = %2
  %6 = icmp ugt i64 %1, 2305843009213693951
  br i1 %6, label %7, label %8

7:                                                ; preds = %5
  tail call void @abort() #12
  unreachable

8:                                                ; preds = %5
  %9 = shl i64 %1, 3
  %10 = tail call i8* @_Znwm(i64 %9) #11
  %11 = getelementptr inbounds %"class.std::__1::__hash_table", %"class.std::__1::__hash_table"* %0, i64 0, i32 0, i32 0, i32 0, i32 0
  %12 = load %"struct.std::__1::__hash_node_base"**, %"struct.std::__1::__hash_node_base"*** %11, align 8
  %13 = bitcast %"class.std::__1::__hash_table"* %0 to i8**
  store i8* %10, i8** %13, align 8
  %14 = icmp eq %"struct.std::__1::__hash_node_base"** %12, null
  br i1 %14, label %17, label %15

15:                                               ; preds = %8
  %16 = bitcast %"struct.std::__1::__hash_node_base"** %12 to i8*
  tail call void @_ZdlPv(i8* %16) #11
  br label %17

17:                                               ; preds = %15, %8
  %18 = getelementptr inbounds %"class.std::__1::__bucket_list_deallocator", %"class.std::__1::__bucket_list_deallocator"* %3, i64 0, i32 0, i32 0, i32 0
  store i64 %1, i64* %18, align 8
  %19 = add i64 %1, -1
  %20 = and i64 %1, 3
  %21 = icmp ult i64 %19, 3
  br i1 %21, label %24, label %22

22:                                               ; preds = %17
  %23 = sub i64 %1, %20
  br label %40

24:                                               ; preds = %40, %17
  %25 = phi i64 [ 0, %17 ], [ %54, %40 ]
  %26 = icmp eq i64 %20, 0
  br i1 %26, label %35, label %27

27:                                               ; preds = %24, %27
  %28 = phi i64 [ %32, %27 ], [ %25, %24 ]
  %29 = phi i64 [ %33, %27 ], [ %20, %24 ]
  %30 = load %"struct.std::__1::__hash_node_base"**, %"struct.std::__1::__hash_node_base"*** %11, align 8
  %31 = getelementptr inbounds %"struct.std::__1::__hash_node_base"*, %"struct.std::__1::__hash_node_base"** %30, i64 %28
  store %"struct.std::__1::__hash_node_base"* null, %"struct.std::__1::__hash_node_base"** %31, align 8
  %32 = add nuw i64 %28, 1
  %33 = add i64 %29, -1
  %34 = icmp eq i64 %33, 0
  br i1 %34, label %35, label %27, !llvm.loop !43

35:                                               ; preds = %27, %24
  %36 = getelementptr inbounds %"class.std::__1::__hash_table", %"class.std::__1::__hash_table"* %0, i64 0, i32 1, i32 0, i32 0
  %37 = getelementptr inbounds %"struct.std::__1::__hash_node_base", %"struct.std::__1::__hash_node_base"* %36, i64 0, i32 0
  %38 = load %"struct.std::__1::__hash_node_base"*, %"struct.std::__1::__hash_node_base"** %37, align 8
  %39 = icmp eq %"struct.std::__1::__hash_node_base"* %38, null
  br i1 %39, label %142, label %57

40:                                               ; preds = %40, %22
  %41 = phi i64 [ 0, %22 ], [ %54, %40 ]
  %42 = phi i64 [ %23, %22 ], [ %55, %40 ]
  %43 = load %"struct.std::__1::__hash_node_base"**, %"struct.std::__1::__hash_node_base"*** %11, align 8
  %44 = getelementptr inbounds %"struct.std::__1::__hash_node_base"*, %"struct.std::__1::__hash_node_base"** %43, i64 %41
  store %"struct.std::__1::__hash_node_base"* null, %"struct.std::__1::__hash_node_base"** %44, align 8
  %45 = or i64 %41, 1
  %46 = load %"struct.std::__1::__hash_node_base"**, %"struct.std::__1::__hash_node_base"*** %11, align 8
  %47 = getelementptr inbounds %"struct.std::__1::__hash_node_base"*, %"struct.std::__1::__hash_node_base"** %46, i64 %45
  store %"struct.std::__1::__hash_node_base"* null, %"struct.std::__1::__hash_node_base"** %47, align 8
  %48 = or i64 %41, 2
  %49 = load %"struct.std::__1::__hash_node_base"**, %"struct.std::__1::__hash_node_base"*** %11, align 8
  %50 = getelementptr inbounds %"struct.std::__1::__hash_node_base"*, %"struct.std::__1::__hash_node_base"** %49, i64 %48
  store %"struct.std::__1::__hash_node_base"* null, %"struct.std::__1::__hash_node_base"** %50, align 8
  %51 = or i64 %41, 3
  %52 = load %"struct.std::__1::__hash_node_base"**, %"struct.std::__1::__hash_node_base"*** %11, align 8
  %53 = getelementptr inbounds %"struct.std::__1::__hash_node_base"*, %"struct.std::__1::__hash_node_base"** %52, i64 %51
  store %"struct.std::__1::__hash_node_base"* null, %"struct.std::__1::__hash_node_base"** %53, align 8
  %54 = add nuw i64 %41, 4
  %55 = add i64 %42, -4
  %56 = icmp eq i64 %55, 0
  br i1 %56, label %24, label %40

57:                                               ; preds = %35
  %58 = getelementptr inbounds %"struct.std::__1::__hash_node_base", %"struct.std::__1::__hash_node_base"* %38, i64 1
  %59 = bitcast %"struct.std::__1::__hash_node_base"* %58 to i64*
  %60 = load i64, i64* %59, align 8
  %61 = tail call i64 @llvm.ctpop.i64(i64 %1) #10, !range !39
  %62 = icmp ugt i64 %61, 1
  br i1 %62, label %66, label %63

63:                                               ; preds = %57
  %64 = add i64 %1, -1
  %65 = and i64 %60, %64
  br label %70

66:                                               ; preds = %57
  %67 = icmp ult i64 %60, %1
  br i1 %67, label %70, label %68

68:                                               ; preds = %66
  %69 = urem i64 %60, %1
  br label %70

70:                                               ; preds = %63, %66, %68
  %71 = phi i64 [ %65, %63 ], [ %69, %68 ], [ %60, %66 ]
  %72 = load %"struct.std::__1::__hash_node_base"**, %"struct.std::__1::__hash_node_base"*** %11, align 8
  %73 = getelementptr inbounds %"struct.std::__1::__hash_node_base"*, %"struct.std::__1::__hash_node_base"** %72, i64 %71
  store %"struct.std::__1::__hash_node_base"* %36, %"struct.std::__1::__hash_node_base"** %73, align 8
  %74 = getelementptr inbounds %"struct.std::__1::__hash_node_base", %"struct.std::__1::__hash_node_base"* %38, i64 0, i32 0
  %75 = load %"struct.std::__1::__hash_node_base"*, %"struct.std::__1::__hash_node_base"** %74, align 8
  %76 = icmp eq %"struct.std::__1::__hash_node_base"* %75, null
  br i1 %76, label %142, label %77

77:                                               ; preds = %70
  %78 = add i64 %1, -1
  br label %79

79:                                               ; preds = %77, %128
  %80 = phi %"struct.std::__1::__hash_node_base"* [ %75, %77 ], [ %132, %128 ]
  %81 = phi i64 [ %71, %77 ], [ %130, %128 ]
  %82 = phi %"struct.std::__1::__hash_node_base"* [ %38, %77 ], [ %129, %128 ]
  %83 = getelementptr inbounds %"struct.std::__1::__hash_node_base", %"struct.std::__1::__hash_node_base"* %80, i64 1
  %84 = bitcast %"struct.std::__1::__hash_node_base"* %83 to i64*
  %85 = load i64, i64* %84, align 8
  br i1 %62, label %88, label %86

86:                                               ; preds = %79
  %87 = and i64 %85, %78
  br label %92

88:                                               ; preds = %79
  %89 = icmp ult i64 %85, %1
  br i1 %89, label %92, label %90

90:                                               ; preds = %88
  %91 = urem i64 %85, %1
  br label %92

92:                                               ; preds = %86, %88, %90
  %93 = phi i64 [ %87, %86 ], [ %91, %90 ], [ %85, %88 ]
  %94 = icmp eq i64 %93, %81
  br i1 %94, label %128, label %95

95:                                               ; preds = %92
  %96 = load %"struct.std::__1::__hash_node_base"**, %"struct.std::__1::__hash_node_base"*** %11, align 8
  %97 = getelementptr inbounds %"struct.std::__1::__hash_node_base"*, %"struct.std::__1::__hash_node_base"** %96, i64 %93
  %98 = load %"struct.std::__1::__hash_node_base"*, %"struct.std::__1::__hash_node_base"** %97, align 8
  %99 = icmp eq %"struct.std::__1::__hash_node_base"* %98, null
  br i1 %99, label %103, label %100

100:                                              ; preds = %95
  %101 = getelementptr inbounds %"struct.std::__1::__hash_node_base", %"struct.std::__1::__hash_node_base"* %80, i64 2
  %102 = bitcast %"struct.std::__1::__hash_node_base"* %101 to %"class.network::NetworkConnectionTracker::NetworkConnectionObserver"**
  br label %104

103:                                              ; preds = %95
  store %"struct.std::__1::__hash_node_base"* %82, %"struct.std::__1::__hash_node_base"** %97, align 8
  br label %128

104:                                              ; preds = %100, %109
  %105 = phi %"struct.std::__1::__hash_node_base"* [ %107, %109 ], [ %80, %100 ]
  %106 = getelementptr inbounds %"struct.std::__1::__hash_node_base", %"struct.std::__1::__hash_node_base"* %105, i64 0, i32 0
  %107 = load %"struct.std::__1::__hash_node_base"*, %"struct.std::__1::__hash_node_base"** %106, align 8
  %108 = icmp eq %"struct.std::__1::__hash_node_base"* %107, null
  br i1 %108, label %115, label %109

109:                                              ; preds = %104
  %110 = getelementptr inbounds %"struct.std::__1::__hash_node_base", %"struct.std::__1::__hash_node_base"* %107, i64 2
  %111 = bitcast %"struct.std::__1::__hash_node_base"* %110 to %"class.network::NetworkConnectionTracker::NetworkConnectionObserver"**
  %112 = load %"class.network::NetworkConnectionTracker::NetworkConnectionObserver"*, %"class.network::NetworkConnectionTracker::NetworkConnectionObserver"** %102, align 8
  %113 = load %"class.network::NetworkConnectionTracker::NetworkConnectionObserver"*, %"class.network::NetworkConnectionTracker::NetworkConnectionObserver"** %111, align 8
  %114 = icmp eq %"class.network::NetworkConnectionTracker::NetworkConnectionObserver"* %112, %113
  br i1 %114, label %104, label %115

115:                                              ; preds = %104, %109
  %116 = ptrtoint %"struct.std::__1::__hash_node_base"* %107 to i64
  %117 = bitcast %"struct.std::__1::__hash_node_base"* %105 to i64*
  %118 = bitcast %"struct.std::__1::__hash_node_base"* %82 to i64*
  store i64 %116, i64* %118, align 8
  %119 = load %"struct.std::__1::__hash_node_base"**, %"struct.std::__1::__hash_node_base"*** %11, align 8
  %120 = getelementptr inbounds %"struct.std::__1::__hash_node_base"*, %"struct.std::__1::__hash_node_base"** %119, i64 %93
  %121 = bitcast %"struct.std::__1::__hash_node_base"** %120 to i64**
  %122 = load i64*, i64** %121, align 8
  %123 = load i64, i64* %122, align 8
  store i64 %123, i64* %117, align 8
  %124 = load %"struct.std::__1::__hash_node_base"**, %"struct.std::__1::__hash_node_base"*** %11, align 8
  %125 = getelementptr inbounds %"struct.std::__1::__hash_node_base"*, %"struct.std::__1::__hash_node_base"** %124, i64 %93
  %126 = load %"struct.std::__1::__hash_node_base"*, %"struct.std::__1::__hash_node_base"** %125, align 8
  %127 = getelementptr inbounds %"struct.std::__1::__hash_node_base", %"struct.std::__1::__hash_node_base"* %126, i64 0, i32 0
  store %"struct.std::__1::__hash_node_base"* %80, %"struct.std::__1::__hash_node_base"** %127, align 8
  br label %128

128:                                              ; preds = %92, %115, %103
  %129 = phi %"struct.std::__1::__hash_node_base"* [ %80, %103 ], [ %82, %115 ], [ %80, %92 ]
  %130 = phi i64 [ %93, %103 ], [ %81, %115 ], [ %81, %92 ]
  %131 = getelementptr inbounds %"struct.std::__1::__hash_node_base", %"struct.std::__1::__hash_node_base"* %129, i64 0, i32 0
  %132 = load %"struct.std::__1::__hash_node_base"*, %"struct.std::__1::__hash_node_base"** %131, align 8
  %133 = icmp eq %"struct.std::__1::__hash_node_base"* %132, null
  br i1 %133, label %142, label %79

134:                                              ; preds = %2
  %135 = getelementptr inbounds %"class.std::__1::__hash_table", %"class.std::__1::__hash_table"* %0, i64 0, i32 0, i32 0, i32 0, i32 0
  %136 = load %"struct.std::__1::__hash_node_base"**, %"struct.std::__1::__hash_node_base"*** %135, align 8
  store %"struct.std::__1::__hash_node_base"** null, %"struct.std::__1::__hash_node_base"*** %135, align 8
  %137 = icmp eq %"struct.std::__1::__hash_node_base"** %136, null
  br i1 %137, label %140, label %138

138:                                              ; preds = %134
  %139 = bitcast %"struct.std::__1::__hash_node_base"** %136 to i8*
  tail call void @_ZdlPv(i8* %139) #11
  br label %140

140:                                              ; preds = %134, %138
  %141 = getelementptr inbounds %"class.std::__1::__bucket_list_deallocator", %"class.std::__1::__bucket_list_deallocator"* %3, i64 0, i32 0, i32 0, i32 0
  store i64 0, i64* %141, align 8
  br label %142

142:                                              ; preds = %128, %70, %35, %140
  ret void
}

; Function Attrs: nounwind readnone speculatable
declare i64 @llvm.ctlz.i64(i64, i1 immarg) #9

; Function Attrs: nounwind readnone speculatable
declare float @llvm.ceil.f32(float) #9

declare zeroext i1 @_ZN4base8internal17NeedsLazyInstanceEPl(i64*) local_unnamed_addr #1

declare void @_ZN4base8internal20CompleteLazyInstanceEPllPFvPvES2_(i64*, i64, void (i8*)*, i8*) local_unnamed_addr #1

declare void @_ZN4base18ThreadLocalStorage4SlotC1EPFvPvE(%"class.base::ThreadLocalStorage::Slot"*, void (i8*)*) unnamed_addr #1

declare i8* @_ZNK4base18ThreadLocalStorage4Slot3GetEv(%"class.base::ThreadLocalStorage::Slot"*) local_unnamed_addr #1

; Function Attrs: nounwind ssp uwtable
define linkonce_odr hidden void @_ZN4base8internal7InvokerINS0_9BindStateIMNS_22ObserverListThreadSafeIN7network24NetworkConnectionTracker25NetworkConnectionObserverEEEFvPS6_RKNS7_16NotificationDataEEJ13scoped_refptrIS7_ES8_S9_EEEFvvEE7RunOnceEPNS0_13BindStateBaseE(%"class.base::internal::BindStateBase"*) #0 comdat align 2 {
  %2 = getelementptr inbounds %"class.base::internal::BindStateBase", %"class.base::internal::BindStateBase"* %0, i64 1
  %3 = getelementptr inbounds %"class.base::internal::BindStateBase", %"class.base::internal::BindStateBase"* %0, i64 1, i32 2
  %4 = getelementptr inbounds void (%"class.base::internal::BindStateBase"*)*, void (%"class.base::internal::BindStateBase"*)** %3, i64 1
  %5 = bitcast void (%"class.base::internal::BindStateBase"*)** %4 to %"class.network::NetworkConnectionTracker::NetworkConnectionObserver"**
  %6 = getelementptr inbounds void (%"class.base::internal::BindStateBase"*)*, void (%"class.base::internal::BindStateBase"*)** %3, i64 2
  %7 = bitcast void (%"class.base::internal::BindStateBase"*)** %6 to %"struct.base::ObserverListThreadSafe<network::NetworkConnectionTracker::NetworkConnectionObserver>::NotificationData"*
  %8 = bitcast %"class.base::internal::BindStateBase"* %2 to i64*
  %9 = load i64, i64* %8, align 8
  %10 = getelementptr inbounds %"class.base::internal::BindStateBase", %"class.base::internal::BindStateBase"* %0, i64 1, i32 1
  %11 = bitcast void ()** %10 to i64*
  %12 = load i64, i64* %11, align 8
  %13 = bitcast void (%"class.base::internal::BindStateBase"*)** %3 to i8**
  %14 = load i8*, i8** %13, align 8
  %15 = getelementptr inbounds i8, i8* %14, i64 %12
  %16 = bitcast i8* %15 to %"class.base::ObserverListThreadSafe"*
  %17 = and i64 %9, 1
  %18 = icmp eq i64 %17, 0
  br i1 %18, label %26, label %19

19:                                               ; preds = %1
  %20 = bitcast i8* %15 to i8**
  %21 = load i8*, i8** %20, align 8
  %22 = add i64 %9, -1
  %23 = getelementptr i8, i8* %21, i64 %22
  %24 = bitcast i8* %23 to void (%"class.base::ObserverListThreadSafe"*, %"class.network::NetworkConnectionTracker::NetworkConnectionObserver"*, %"struct.base::ObserverListThreadSafe<network::NetworkConnectionTracker::NetworkConnectionObserver>::NotificationData"*)**
  %25 = load void (%"class.base::ObserverListThreadSafe"*, %"class.network::NetworkConnectionTracker::NetworkConnectionObserver"*, %"struct.base::ObserverListThreadSafe<network::NetworkConnectionTracker::NetworkConnectionObserver>::NotificationData"*)*, void (%"class.base::ObserverListThreadSafe"*, %"class.network::NetworkConnectionTracker::NetworkConnectionObserver"*, %"struct.base::ObserverListThreadSafe<network::NetworkConnectionTracker::NetworkConnectionObserver>::NotificationData"*)** %24, align 8
  br label %28

26:                                               ; preds = %1
  %27 = inttoptr i64 %9 to void (%"class.base::ObserverListThreadSafe"*, %"class.network::NetworkConnectionTracker::NetworkConnectionObserver"*, %"struct.base::ObserverListThreadSafe<network::NetworkConnectionTracker::NetworkConnectionObserver>::NotificationData"*)*
  br label %28

28:                                               ; preds = %19, %26
  %29 = phi void (%"class.base::ObserverListThreadSafe"*, %"class.network::NetworkConnectionTracker::NetworkConnectionObserver"*, %"struct.base::ObserverListThreadSafe<network::NetworkConnectionTracker::NetworkConnectionObserver>::NotificationData"*)* [ %25, %19 ], [ %27, %26 ]
  %30 = load %"class.network::NetworkConnectionTracker::NetworkConnectionObserver"*, %"class.network::NetworkConnectionTracker::NetworkConnectionObserver"** %5, align 8
  tail call void %29(%"class.base::ObserverListThreadSafe"* %16, %"class.network::NetworkConnectionTracker::NetworkConnectionObserver"* %30, %"struct.base::ObserverListThreadSafe<network::NetworkConnectionTracker::NetworkConnectionObserver>::NotificationData"* dereferenceable(56) %7) #10
  ret void
}

; Function Attrs: nounwind ssp uwtable
define linkonce_odr hidden void @_ZN4base8internal9BindStateIMNS_22ObserverListThreadSafeIN7network24NetworkConnectionTracker25NetworkConnectionObserverEEEFvPS5_RKNS6_16NotificationDataEEJ13scoped_refptrIS6_ES7_S8_EE7DestroyEPKNS0_13BindStateBaseE(%"class.base::internal::BindStateBase"*) #0 comdat align 2 {
  %2 = icmp eq %"class.base::internal::BindStateBase"* %0, null
  br i1 %2, label %24, label %3

3:                                                ; preds = %1
  %4 = getelementptr inbounds %"class.base::internal::BindStateBase", %"class.base::internal::BindStateBase"* %0, i64 3, i32 1
  %5 = bitcast void ()** %4 to %"class.base::internal::CallbackBase"*
  tail call void @_ZN4base8internal12CallbackBaseD2Ev(%"class.base::internal::CallbackBase"* %5) #10
  %6 = getelementptr inbounds %"class.base::internal::BindStateBase", %"class.base::internal::BindStateBase"* %0, i64 1, i32 2
  %7 = bitcast void (%"class.base::internal::BindStateBase"*)** %6 to %"class.base::ObserverListThreadSafe"**
  %8 = load %"class.base::ObserverListThreadSafe"*, %"class.base::ObserverListThreadSafe"** %7, align 8
  %9 = icmp eq %"class.base::ObserverListThreadSafe"* %8, null
  br i1 %9, label %22, label %10

10:                                               ; preds = %3
  %11 = getelementptr inbounds %"class.base::ObserverListThreadSafe", %"class.base::ObserverListThreadSafe"* %8, i64 0, i32 0, i32 1
  %12 = getelementptr inbounds %"class.base::RefCountedThreadSafe.5", %"class.base::RefCountedThreadSafe.5"* %11, i64 0, i32 0, i32 0, i32 0, i32 0, i32 0, i32 0, i32 0, i32 0
  %13 = atomicrmw sub i32* %12, i32 1 acq_rel
  %14 = icmp eq i32 %13, 1
  br i1 %14, label %15, label %22

15:                                               ; preds = %10
  %16 = getelementptr inbounds %"class.base::RefCountedThreadSafe.5", %"class.base::RefCountedThreadSafe.5"* %11, i64 -2
  %17 = bitcast %"class.base::RefCountedThreadSafe.5"* %16 to %"class.base::internal::ObserverListThreadSafeBase"*
  %18 = bitcast %"class.base::RefCountedThreadSafe.5"* %16 to void (%"class.base::internal::ObserverListThreadSafeBase"*)***
  %19 = load void (%"class.base::internal::ObserverListThreadSafeBase"*)**, void (%"class.base::internal::ObserverListThreadSafeBase"*)*** %18, align 8
  %20 = getelementptr inbounds void (%"class.base::internal::ObserverListThreadSafeBase"*)*, void (%"class.base::internal::ObserverListThreadSafeBase"*)** %19, i64 1
  %21 = load void (%"class.base::internal::ObserverListThreadSafeBase"*)*, void (%"class.base::internal::ObserverListThreadSafeBase"*)** %20, align 8
  tail call void %21(%"class.base::internal::ObserverListThreadSafeBase"* nonnull %17) #10
  br label %22

22:                                               ; preds = %3, %10, %15
  %23 = bitcast %"class.base::internal::BindStateBase"* %0 to i8*
  tail call void @_ZdlPv(i8* %23) #11
  br label %24

24:                                               ; preds = %22, %1
  ret void
}

declare void @_ZN4base8LocationC1ERKS0_(%"class.base::Location"*, %"class.base::Location"* dereferenceable(32)) unnamed_addr #1

declare void @_ZN4base18ThreadLocalStorage4Slot3SetEPv(%"class.base::ThreadLocalStorage::Slot"*, i8*) local_unnamed_addr #1

; Function Attrs: nounwind
declare void @_ZN4base8internal12CallbackBaseD2Ev(%"class.base::internal::CallbackBase"*) unnamed_addr #7

; Function Attrs: nounwind ssp uwtable
define linkonce_odr hidden i64 @_ZNSt3__112__hash_tableINS_17__hash_value_typeIPN7network24NetworkConnectionTracker25NetworkConnectionObserverEN4base22ObserverListThreadSafeIS4_E22ObserverTaskRunnerInfoEEENS_22__unordered_map_hasherIS5_SA_NS_4hashIS5_EENS_8equal_toIS5_EELb1EEENS_21__unordered_map_equalIS5_SA_SF_SD_Lb1EEENS_9allocatorISA_EEE14__erase_uniqueIS5_EEmRKT_(%"class.std::__1::__hash_table"*, %"class.network::NetworkConnectionTracker::NetworkConnectionObserver"** dereferenceable(8)) local_unnamed_addr #0 comdat align 2 {
  %3 = alloca %"class.std::__1::unique_ptr.245", align 8
  %4 = bitcast %"class.network::NetworkConnectionTracker::NetworkConnectionObserver"** %1 to i64*
  %5 = load i64, i64* %4, align 8
  %6 = lshr i64 %5, 32
  %7 = shl i64 %5, 3
  %8 = and i64 %7, 4294967288
  %9 = add nuw nsw i64 %8, 8
  %10 = xor i64 %9, %6
  %11 = mul i64 %10, -7070675565921424023
  %12 = lshr i64 %11, 47
  %13 = xor i64 %11, %6
  %14 = xor i64 %13, %12
  %15 = mul i64 %14, -7070675565921424023
  %16 = lshr i64 %15, 47
  %17 = xor i64 %16, %15
  %18 = mul i64 %17, -7070675565921424023
  %19 = getelementptr inbounds %"class.std::__1::__hash_table", %"class.std::__1::__hash_table"* %0, i64 0, i32 0, i32 0, i32 1, i32 0, i32 0, i32 0, i32 0
  %20 = load i64, i64* %19, align 8
  %21 = icmp eq i64 %20, 0
  %22 = inttoptr i64 %5 to %"class.network::NetworkConnectionTracker::NetworkConnectionObserver"*
  br i1 %21, label %95, label %23

23:                                               ; preds = %2
  %24 = tail call i64 @llvm.ctpop.i64(i64 %20) #10, !range !39
  %25 = icmp ugt i64 %24, 1
  br i1 %25, label %29, label %26

26:                                               ; preds = %23
  %27 = add i64 %20, -1
  %28 = and i64 %18, %27
  br label %33

29:                                               ; preds = %23
  %30 = icmp ult i64 %18, %20
  br i1 %30, label %33, label %31

31:                                               ; preds = %29
  %32 = urem i64 %18, %20
  br label %33

33:                                               ; preds = %31, %29, %26
  %34 = phi i64 [ %28, %26 ], [ %32, %31 ], [ %18, %29 ]
  %35 = getelementptr inbounds %"class.std::__1::__hash_table", %"class.std::__1::__hash_table"* %0, i64 0, i32 0, i32 0, i32 0, i32 0
  %36 = load %"struct.std::__1::__hash_node_base"**, %"struct.std::__1::__hash_node_base"*** %35, align 8
  %37 = getelementptr inbounds %"struct.std::__1::__hash_node_base"*, %"struct.std::__1::__hash_node_base"** %36, i64 %34
  %38 = load %"struct.std::__1::__hash_node_base"*, %"struct.std::__1::__hash_node_base"** %37, align 8
  %39 = icmp eq %"struct.std::__1::__hash_node_base"* %38, null
  br i1 %39, label %95, label %40

40:                                               ; preds = %33
  %41 = getelementptr inbounds %"struct.std::__1::__hash_node_base", %"struct.std::__1::__hash_node_base"* %38, i64 0, i32 0
  %42 = load %"struct.std::__1::__hash_node_base"*, %"struct.std::__1::__hash_node_base"** %41, align 8
  %43 = icmp eq %"struct.std::__1::__hash_node_base"* %42, null
  br i1 %43, label %95, label %44

44:                                               ; preds = %40
  %45 = add i64 %20, -1
  br label %46

46:                                               ; preds = %67, %44
  %47 = phi %"struct.std::__1::__hash_node_base"* [ %42, %44 ], [ %69, %67 ]
  %48 = getelementptr inbounds %"struct.std::__1::__hash_node_base", %"struct.std::__1::__hash_node_base"* %47, i64 1
  %49 = bitcast %"struct.std::__1::__hash_node_base"* %48 to i64*
  %50 = load i64, i64* %49, align 8
  %51 = icmp eq i64 %50, %18
  br i1 %51, label %62, label %52

52:                                               ; preds = %46
  br i1 %25, label %55, label %53

53:                                               ; preds = %52
  %54 = and i64 %50, %45
  br label %59

55:                                               ; preds = %52
  %56 = icmp ult i64 %50, %20
  br i1 %56, label %59, label %57

57:                                               ; preds = %55
  %58 = urem i64 %50, %20
  br label %59

59:                                               ; preds = %57, %55, %53
  %60 = phi i64 [ %54, %53 ], [ %58, %57 ], [ %50, %55 ]
  %61 = icmp eq i64 %60, %34
  br i1 %61, label %67, label %95

62:                                               ; preds = %46
  %63 = getelementptr inbounds %"struct.std::__1::__hash_node_base", %"struct.std::__1::__hash_node_base"* %47, i64 2
  %64 = bitcast %"struct.std::__1::__hash_node_base"* %63 to %"class.network::NetworkConnectionTracker::NetworkConnectionObserver"**
  %65 = load %"class.network::NetworkConnectionTracker::NetworkConnectionObserver"*, %"class.network::NetworkConnectionTracker::NetworkConnectionObserver"** %64, align 8
  %66 = icmp eq %"class.network::NetworkConnectionTracker::NetworkConnectionObserver"* %65, %22
  br i1 %66, label %71, label %67

67:                                               ; preds = %62, %59
  %68 = getelementptr inbounds %"struct.std::__1::__hash_node_base", %"struct.std::__1::__hash_node_base"* %47, i64 0, i32 0
  %69 = load %"struct.std::__1::__hash_node_base"*, %"struct.std::__1::__hash_node_base"** %68, align 8
  %70 = icmp eq %"struct.std::__1::__hash_node_base"* %69, null
  br i1 %70, label %95, label %46

71:                                               ; preds = %62
  %72 = bitcast %"class.std::__1::unique_ptr.245"* %3 to i8*
  call void @llvm.lifetime.start.p0i8(i64 24, i8* nonnull %72)
  call void @_ZNSt3__112__hash_tableINS_17__hash_value_typeIPN7network24NetworkConnectionTracker25NetworkConnectionObserverEN4base22ObserverListThreadSafeIS4_E22ObserverTaskRunnerInfoEEENS_22__unordered_map_hasherIS5_SA_NS_4hashIS5_EENS_8equal_toIS5_EELb1EEENS_21__unordered_map_equalIS5_SA_SF_SD_Lb1EEENS_9allocatorISA_EEE6removeENS_21__hash_const_iteratorIPNS_11__hash_nodeISA_PvEEEE(%"class.std::__1::unique_ptr.245"* nonnull sret %3, %"class.std::__1::__hash_table"* %0, %"struct.std::__1::__hash_node_base"* nonnull %47) #10
  %73 = getelementptr inbounds %"class.std::__1::unique_ptr.245", %"class.std::__1::unique_ptr.245"* %3, i64 0, i32 0, i32 0, i32 0
  %74 = load %"struct.std::__1::__hash_node"*, %"struct.std::__1::__hash_node"** %73, align 8
  store %"struct.std::__1::__hash_node"* null, %"struct.std::__1::__hash_node"** %73, align 8
  %75 = icmp eq %"struct.std::__1::__hash_node"* %74, null
  br i1 %75, label %94, label %76

76:                                               ; preds = %71
  %77 = getelementptr inbounds %"class.std::__1::unique_ptr.245", %"class.std::__1::unique_ptr.245"* %3, i64 0, i32 0, i32 1, i32 0, i32 1
  %78 = load i8, i8* %77, align 8, !range !45
  %79 = icmp eq i8 %78, 0
  br i1 %79, label %92, label %80

80:                                               ; preds = %76
  %81 = getelementptr inbounds %"struct.std::__1::__hash_node", %"struct.std::__1::__hash_node"* %74, i64 0, i32 2, i32 0, i32 1, i32 0, i32 0
  %82 = load %"class.base::SequencedTaskRunner"*, %"class.base::SequencedTaskRunner"** %81, align 8
  %83 = icmp eq %"class.base::SequencedTaskRunner"* %82, null
  br i1 %83, label %92, label %84

84:                                               ; preds = %80
  %85 = getelementptr inbounds %"class.base::SequencedTaskRunner", %"class.base::SequencedTaskRunner"* %82, i64 0, i32 0, i32 1
  %86 = getelementptr inbounds %"class.base::RefCountedThreadSafe.2", %"class.base::RefCountedThreadSafe.2"* %85, i64 0, i32 0, i32 0, i32 0, i32 0, i32 0, i32 0, i32 0, i32 0
  %87 = atomicrmw sub i32* %86, i32 1 acq_rel
  %88 = icmp eq i32 %87, 1
  br i1 %88, label %89, label %92

89:                                               ; preds = %84
  %90 = getelementptr inbounds %"class.base::RefCountedThreadSafe.2", %"class.base::RefCountedThreadSafe.2"* %85, i64 -2
  %91 = bitcast %"class.base::RefCountedThreadSafe.2"* %90 to %"class.base::TaskRunner"*
  call void @_ZN4base16TaskRunnerTraits8DestructEPKNS_10TaskRunnerE(%"class.base::TaskRunner"* %91) #10
  br label %92

92:                                               ; preds = %89, %84, %80, %76
  %93 = bitcast %"struct.std::__1::__hash_node"* %74 to i8*
  call void @_ZdlPv(i8* %93) #11
  br label %94

94:                                               ; preds = %71, %92
  call void @llvm.lifetime.end.p0i8(i64 24, i8* nonnull %72)
  br label %95

95:                                               ; preds = %59, %67, %40, %2, %33, %94
  %96 = phi i64 [ 1, %94 ], [ 0, %33 ], [ 0, %2 ], [ 0, %40 ], [ 0, %67 ], [ 0, %59 ]
  ret i64 %96
}

; Function Attrs: nounwind ssp uwtable
define linkonce_odr hidden void @_ZNSt3__112__hash_tableINS_17__hash_value_typeIPN7network24NetworkConnectionTracker25NetworkConnectionObserverEN4base22ObserverListThreadSafeIS4_E22ObserverTaskRunnerInfoEEENS_22__unordered_map_hasherIS5_SA_NS_4hashIS5_EENS_8equal_toIS5_EELb1EEENS_21__unordered_map_equalIS5_SA_SF_SD_Lb1EEENS_9allocatorISA_EEE6removeENS_21__hash_const_iteratorIPNS_11__hash_nodeISA_PvEEEE(%"class.std::__1::unique_ptr.245"* noalias sret, %"class.std::__1::__hash_table"*, %"struct.std::__1::__hash_node_base"*) local_unnamed_addr #0 comdat align 2 {
  %4 = getelementptr inbounds %"class.std::__1::__hash_table", %"class.std::__1::__hash_table"* %1, i64 0, i32 0, i32 0, i32 1, i32 0, i32 0, i32 0, i32 0
  %5 = load i64, i64* %4, align 8
  %6 = getelementptr inbounds %"struct.std::__1::__hash_node_base", %"struct.std::__1::__hash_node_base"* %2, i64 1
  %7 = bitcast %"struct.std::__1::__hash_node_base"* %6 to i64*
  %8 = load i64, i64* %7, align 8
  %9 = tail call i64 @llvm.ctpop.i64(i64 %5) #10, !range !39
  %10 = icmp ugt i64 %9, 1
  br i1 %10, label %14, label %11

11:                                               ; preds = %3
  %12 = add i64 %5, -1
  %13 = and i64 %12, %8
  br label %18

14:                                               ; preds = %3
  %15 = icmp ult i64 %8, %5
  br i1 %15, label %18, label %16

16:                                               ; preds = %14
  %17 = urem i64 %8, %5
  br label %18

18:                                               ; preds = %11, %14, %16
  %19 = phi i64 [ %13, %11 ], [ %17, %16 ], [ %8, %14 ]
  %20 = getelementptr inbounds %"class.std::__1::__hash_table", %"class.std::__1::__hash_table"* %1, i64 0, i32 0, i32 0, i32 0, i32 0
  %21 = load %"struct.std::__1::__hash_node_base"**, %"struct.std::__1::__hash_node_base"*** %20, align 8
  %22 = getelementptr inbounds %"struct.std::__1::__hash_node_base"*, %"struct.std::__1::__hash_node_base"** %21, i64 %19
  %23 = load %"struct.std::__1::__hash_node_base"*, %"struct.std::__1::__hash_node_base"** %22, align 8
  br label %24

24:                                               ; preds = %24, %18
  %25 = phi %"struct.std::__1::__hash_node_base"* [ %23, %18 ], [ %27, %24 ]
  %26 = getelementptr inbounds %"struct.std::__1::__hash_node_base", %"struct.std::__1::__hash_node_base"* %25, i64 0, i32 0
  %27 = load %"struct.std::__1::__hash_node_base"*, %"struct.std::__1::__hash_node_base"** %26, align 8
  %28 = icmp eq %"struct.std::__1::__hash_node_base"* %27, %2
  br i1 %28, label %29, label %24

29:                                               ; preds = %24
  %30 = getelementptr inbounds %"class.std::__1::__hash_table", %"class.std::__1::__hash_table"* %1, i64 0, i32 1
  %31 = getelementptr inbounds %"class.std::__1::__compressed_pair.13", %"class.std::__1::__compressed_pair.13"* %30, i64 0, i32 0, i32 0
  %32 = icmp eq %"struct.std::__1::__hash_node_base"* %25, %31
  br i1 %32, label %47, label %33

33:                                               ; preds = %29
  %34 = getelementptr inbounds %"struct.std::__1::__hash_node_base", %"struct.std::__1::__hash_node_base"* %25, i64 1
  %35 = bitcast %"struct.std::__1::__hash_node_base"* %34 to i64*
  %36 = load i64, i64* %35, align 8
  br i1 %10, label %40, label %37

37:                                               ; preds = %33
  %38 = add i64 %5, -1
  %39 = and i64 %36, %38
  br label %44

40:                                               ; preds = %33
  %41 = icmp ult i64 %36, %5
  br i1 %41, label %44, label %42

42:                                               ; preds = %40
  %43 = urem i64 %36, %5
  br label %44

44:                                               ; preds = %37, %40, %42
  %45 = phi i64 [ %39, %37 ], [ %43, %42 ], [ %36, %40 ]
  %46 = icmp eq i64 %45, %19
  br i1 %46, label %66, label %47

47:                                               ; preds = %44, %29
  %48 = getelementptr inbounds %"struct.std::__1::__hash_node_base", %"struct.std::__1::__hash_node_base"* %2, i64 0, i32 0
  %49 = load %"struct.std::__1::__hash_node_base"*, %"struct.std::__1::__hash_node_base"** %48, align 8
  %50 = icmp eq %"struct.std::__1::__hash_node_base"* %49, null
  br i1 %50, label %65, label %51

51:                                               ; preds = %47
  %52 = getelementptr inbounds %"struct.std::__1::__hash_node_base", %"struct.std::__1::__hash_node_base"* %49, i64 1
  %53 = bitcast %"struct.std::__1::__hash_node_base"* %52 to i64*
  %54 = load i64, i64* %53, align 8
  br i1 %10, label %58, label %55

55:                                               ; preds = %51
  %56 = add i64 %5, -1
  %57 = and i64 %54, %56
  br label %62

58:                                               ; preds = %51
  %59 = icmp ult i64 %54, %5
  br i1 %59, label %62, label %60

60:                                               ; preds = %58
  %61 = urem i64 %54, %5
  br label %62

62:                                               ; preds = %55, %58, %60
  %63 = phi i64 [ %57, %55 ], [ %61, %60 ], [ %54, %58 ]
  %64 = icmp eq i64 %63, %19
  br i1 %64, label %66, label %65

65:                                               ; preds = %62, %47
  store %"struct.std::__1::__hash_node_base"* null, %"struct.std::__1::__hash_node_base"** %22, align 8
  br label %66

66:                                               ; preds = %62, %44, %65
  %67 = getelementptr inbounds %"struct.std::__1::__hash_node_base", %"struct.std::__1::__hash_node_base"* %2, i64 0, i32 0
  %68 = load %"struct.std::__1::__hash_node_base"*, %"struct.std::__1::__hash_node_base"** %67, align 8
  %69 = icmp eq %"struct.std::__1::__hash_node_base"* %68, null
  %70 = ptrtoint %"struct.std::__1::__hash_node_base"* %68 to i64
  br i1 %69, label %90, label %71

71:                                               ; preds = %66
  %72 = getelementptr inbounds %"struct.std::__1::__hash_node_base", %"struct.std::__1::__hash_node_base"* %68, i64 1
  %73 = bitcast %"struct.std::__1::__hash_node_base"* %72 to i64*
  %74 = load i64, i64* %73, align 8
  br i1 %10, label %78, label %75

75:                                               ; preds = %71
  %76 = add i64 %5, -1
  %77 = and i64 %74, %76
  br label %82

78:                                               ; preds = %71
  %79 = icmp ult i64 %74, %5
  br i1 %79, label %82, label %80

80:                                               ; preds = %78
  %81 = urem i64 %74, %5
  br label %82

82:                                               ; preds = %75, %78, %80
  %83 = phi i64 [ %77, %75 ], [ %81, %80 ], [ %74, %78 ]
  %84 = icmp eq i64 %83, %19
  br i1 %84, label %90, label %85

85:                                               ; preds = %82
  %86 = load %"struct.std::__1::__hash_node_base"**, %"struct.std::__1::__hash_node_base"*** %20, align 8
  %87 = getelementptr inbounds %"struct.std::__1::__hash_node_base"*, %"struct.std::__1::__hash_node_base"** %86, i64 %83
  store %"struct.std::__1::__hash_node_base"* %25, %"struct.std::__1::__hash_node_base"** %87, align 8
  %88 = bitcast %"struct.std::__1::__hash_node_base"* %2 to i64*
  %89 = load i64, i64* %88, align 8
  br label %90

90:                                               ; preds = %85, %82, %66
  %91 = phi i64 [ %89, %85 ], [ %70, %82 ], [ %70, %66 ]
  %92 = bitcast %"struct.std::__1::__hash_node_base"* %25 to i64*
  store i64 %91, i64* %92, align 8
  store %"struct.std::__1::__hash_node_base"* null, %"struct.std::__1::__hash_node_base"** %67, align 8
  %93 = getelementptr inbounds %"class.std::__1::__hash_table", %"class.std::__1::__hash_table"* %1, i64 0, i32 2, i32 0, i32 0
  %94 = load i64, i64* %93, align 8
  %95 = add i64 %94, -1
  store i64 %95, i64* %93, align 8
  %96 = ptrtoint %"struct.std::__1::__hash_node_base"* %2 to i64
  %97 = bitcast %"class.std::__1::unique_ptr.245"* %0 to i64*
  store i64 %96, i64* %97, align 8
  %98 = getelementptr inbounds %"class.std::__1::unique_ptr.245", %"class.std::__1::unique_ptr.245"* %0, i64 0, i32 0, i32 1, i32 0, i32 0
  %99 = bitcast %"class.std::__1::allocator.16"** %98 to %"class.std::__1::__compressed_pair.13"**
  store %"class.std::__1::__compressed_pair.13"* %30, %"class.std::__1::__compressed_pair.13"** %99, align 8
  %100 = getelementptr inbounds %"class.std::__1::unique_ptr.245", %"class.std::__1::unique_ptr.245"* %0, i64 0, i32 0, i32 1, i32 0, i32 1
  store i8 1, i8* %100, align 8
  ret void
}

; Function Attrs: nounwind ssp uwtable
define linkonce_odr hidden void @_ZN4base8internal26ObserverListThreadSafeBase10DispatcherIN7network24NetworkConnectionTracker25NetworkConnectionObserverEMS5_FvNS3_5mojom14ConnectionTypeEEE3RunES9_S7_PS5_(i64, i64, i32, %"class.network::NetworkConnectionTracker::NetworkConnectionObserver"*) #0 comdat align 2 {
  %5 = bitcast %"class.network::NetworkConnectionTracker::NetworkConnectionObserver"* %3 to i8*
  %6 = getelementptr inbounds i8, i8* %5, i64 %1
  %7 = bitcast i8* %6 to %"class.network::NetworkConnectionTracker::NetworkConnectionObserver"*
  %8 = and i64 %0, 1
  %9 = icmp eq i64 %8, 0
  br i1 %9, label %17, label %10

10:                                               ; preds = %4
  %11 = bitcast i8* %6 to i8**
  %12 = load i8*, i8** %11, align 8
  %13 = add i64 %0, -1
  %14 = getelementptr i8, i8* %12, i64 %13
  %15 = bitcast i8* %14 to void (%"class.network::NetworkConnectionTracker::NetworkConnectionObserver"*, i32)**
  %16 = load void (%"class.network::NetworkConnectionTracker::NetworkConnectionObserver"*, i32)*, void (%"class.network::NetworkConnectionTracker::NetworkConnectionObserver"*, i32)** %15, align 8
  br label %19

17:                                               ; preds = %4
  %18 = inttoptr i64 %0 to void (%"class.network::NetworkConnectionTracker::NetworkConnectionObserver"*, i32)*
  br label %19

19:                                               ; preds = %17, %10
  %20 = phi void (%"class.network::NetworkConnectionTracker::NetworkConnectionObserver"*, i32)* [ %16, %10 ], [ %18, %17 ]
  tail call void %20(%"class.network::NetworkConnectionTracker::NetworkConnectionObserver"* %7, i32 %2) #10
  ret void
}

; Function Attrs: nounwind ssp uwtable
define linkonce_odr hidden void @_ZN4base8internal7InvokerINS0_9BindStateIPFvMN7network24NetworkConnectionTracker25NetworkConnectionObserverEFvNS3_5mojom14ConnectionTypeEES7_PS5_EJS9_S7_EEEFvSA_EE3RunEPNS0_13BindStateBaseESA_(%"class.base::internal::BindStateBase"*, %"class.network::NetworkConnectionTracker::NetworkConnectionObserver"*) #0 comdat align 2 {
  %3 = getelementptr inbounds %"class.base::internal::BindStateBase", %"class.base::internal::BindStateBase"* %0, i64 1
  %4 = bitcast %"class.base::internal::BindStateBase"* %3 to void (i64, i64, i32, %"class.network::NetworkConnectionTracker::NetworkConnectionObserver"*)**
  %5 = getelementptr inbounds %"class.base::internal::BindStateBase", %"class.base::internal::BindStateBase"* %0, i64 1, i32 1
  %6 = getelementptr inbounds void ()*, void ()** %5, i64 2
  %7 = bitcast void ()** %6 to i32*
  %8 = load void (i64, i64, i32, %"class.network::NetworkConnectionTracker::NetworkConnectionObserver"*)*, void (i64, i64, i32, %"class.network::NetworkConnectionTracker::NetworkConnectionObserver"*)** %4, align 8
  %9 = bitcast void ()** %5 to i64*
  %10 = load i64, i64* %9, align 8
  %11 = getelementptr inbounds void ()*, void ()** %5, i64 1
  %12 = bitcast void ()** %11 to i64*
  %13 = load i64, i64* %12, align 8
  %14 = load i32, i32* %7, align 4
  tail call void %8(i64 %10, i64 %13, i32 %14, %"class.network::NetworkConnectionTracker::NetworkConnectionObserver"* %1) #10
  ret void
}

; Function Attrs: nounwind ssp uwtable
define linkonce_odr hidden void @_ZN4base8internal9BindStateIPFvMN7network24NetworkConnectionTracker25NetworkConnectionObserverEFvNS2_5mojom14ConnectionTypeEES6_PS4_EJS8_S6_EE7DestroyEPKNS0_13BindStateBaseE(%"class.base::internal::BindStateBase"*) #0 comdat align 2 {
  %2 = icmp eq %"class.base::internal::BindStateBase"* %0, null
  br i1 %2, label %5, label %3

3:                                                ; preds = %1
  %4 = bitcast %"class.base::internal::BindStateBase"* %0 to i8*
  tail call void @_ZdlPv(i8* %4) #11
  br label %5

5:                                                ; preds = %3, %1
  ret void
}

; Function Attrs: nounwind ssp uwtable
define linkonce_odr hidden void @_ZN4mojo6RemoteIN7network5mojom20NetworkChangeManagerEE26BindNewPipeAndPassReceiverE13scoped_refptrIN4base19SequencedTaskRunnerEE(%"class.mojo::PendingReceiver"* noalias sret, %"class.mojo::Remote"*, %"class.base::SequencedTaskRunner"*) local_unnamed_addr #0 comdat align 2 {
  %4 = alloca %"class.mojo::ScopedHandleBase", align 4
  %5 = alloca %"class.mojo::ScopedHandleBase", align 4
  %6 = alloca %"class.mojo::MessagePipeHandle", align 4
  %7 = alloca %"class.mojo::MessagePipeHandle", align 4
  %8 = alloca %"class.mojo::PendingRemote.273", align 4
  %9 = bitcast %"class.mojo::MessagePipeHandle"* %6 to i8*
  call void @llvm.lifetime.start.p0i8(i64 4, i8* nonnull %9) #10
  %10 = getelementptr inbounds %"class.mojo::MessagePipeHandle", %"class.mojo::MessagePipeHandle"* %6, i64 0, i32 0, i32 0
  store i32 0, i32* %10, align 4
  %11 = bitcast %"class.mojo::MessagePipeHandle"* %7 to i8*
  call void @llvm.lifetime.start.p0i8(i64 4, i8* nonnull %11) #10
  %12 = getelementptr inbounds %"class.mojo::MessagePipeHandle", %"class.mojo::MessagePipeHandle"* %7, i64 0, i32 0, i32 0
  store i32 0, i32* %12, align 4
  %13 = call i32 @MojoCreateMessagePipe(%struct.MojoCreateMessagePipeOptions* null, i32* nonnull %10, i32* nonnull %12) #10
  %14 = load i32, i32* %10, align 4
  %15 = load i32, i32* %12, align 4
  call void @llvm.lifetime.end.p0i8(i64 4, i8* nonnull %11) #10
  call void @llvm.lifetime.end.p0i8(i64 4, i8* nonnull %9) #10
  %16 = bitcast %"class.mojo::ScopedHandleBase"* %5 to i8*
  call void @llvm.lifetime.start.p0i8(i64 4, i8* nonnull %16)
  %17 = getelementptr inbounds %"class.mojo::PendingRemote.273", %"class.mojo::PendingRemote.273"* %8, i64 0, i32 0
  %18 = getelementptr inbounds %"class.mojo::ScopedHandleBase", %"class.mojo::ScopedHandleBase"* %5, i64 0, i32 0, i32 0, i32 0
  store i32 %14, i32* %18, align 4, !alias.scope !46
  call void @_ZN4mojo8internal18PendingRemoteStateC1ENS_16ScopedHandleBaseINS_17MessagePipeHandleEEEj(%"struct.mojo::internal::PendingRemoteState"* nonnull %17, %"class.mojo::ScopedHandleBase"* nonnull %5, i32 0) #10
  %19 = load i32, i32* %18, align 4
  %20 = icmp eq i32 %19, 0
  br i1 %20, label %23, label %21

21:                                               ; preds = %3
  %22 = call i32 @MojoClose(i32 %19) #10
  br label %23

23:                                               ; preds = %21, %3
  call void @llvm.lifetime.end.p0i8(i64 4, i8* nonnull %16)
  call void @_ZN4mojo6RemoteIN7network5mojom20NetworkChangeManagerEE4BindENS_13PendingRemoteIS3_EE13scoped_refptrIN4base19SequencedTaskRunnerEE(%"class.mojo::Remote"* %1, %"class.mojo::PendingRemote.273"* nonnull %8, %"class.base::SequencedTaskRunner"* %2)
  call void @_ZN4mojo8internal18PendingRemoteStateD1Ev(%"struct.mojo::internal::PendingRemoteState"* nonnull %17) #10
  %24 = bitcast %"class.mojo::ScopedHandleBase"* %4 to i8*
  call void @llvm.lifetime.start.p0i8(i64 4, i8* nonnull %24)
  %25 = getelementptr inbounds %"class.mojo::PendingReceiver", %"class.mojo::PendingReceiver"* %0, i64 0, i32 0
  %26 = getelementptr inbounds %"class.mojo::ScopedHandleBase", %"class.mojo::ScopedHandleBase"* %4, i64 0, i32 0, i32 0, i32 0
  store i32 %15, i32* %26, align 4, !alias.scope !49
  call void @_ZN4mojo8internal20PendingReceiverStateC1ENS_16ScopedHandleBaseINS_17MessagePipeHandleEEE(%"struct.mojo::internal::PendingReceiverState"* %25, %"class.mojo::ScopedHandleBase"* nonnull %4) #10
  %27 = load i32, i32* %26, align 4
  %28 = icmp eq i32 %27, 0
  br i1 %28, label %31, label %29

29:                                               ; preds = %23
  %30 = call i32 @MojoClose(i32 %27) #10
  br label %31

31:                                               ; preds = %23, %29
  call void @llvm.lifetime.end.p0i8(i64 4, i8* nonnull %24)
  ret void
}

; Function Attrs: nounwind ssp uwtable
define linkonce_odr hidden void @_ZN4mojo6RemoteIN7network5mojom20NetworkChangeManagerEE4BindENS_13PendingRemoteIS3_EE13scoped_refptrIN4base19SequencedTaskRunnerEE(%"class.mojo::Remote"*, %"class.mojo::PendingRemote.273"*, %"class.base::SequencedTaskRunner"*) local_unnamed_addr #0 comdat align 2 {
  %4 = alloca %"class.mojo::internal::InterfacePtrState", align 8
  %5 = getelementptr inbounds %"class.mojo::PendingRemote.273", %"class.mojo::PendingRemote.273"* %1, i64 0, i32 0, i32 0, i32 0, i32 0, i32 0
  %6 = load i32, i32* %5, align 4
  %7 = icmp eq i32 %6, 0
  br i1 %7, label %8, label %25

8:                                                ; preds = %3
  %9 = bitcast %"class.mojo::internal::InterfacePtrState"* %4 to i8*
  call void @llvm.lifetime.start.p0i8(i64 48, i8* nonnull %9) #10
  call void @llvm.memset.p0i8.i64(i8* nonnull align 8 %9, i8 -86, i64 48, i1 false) #10
  %10 = bitcast %"class.mojo::internal::InterfacePtrState"* %4 to %"class.mojo::internal::InterfacePtrStateBase"*
  call void @_ZN4mojo8internal21InterfacePtrStateBaseC2Ev(%"class.mojo::internal::InterfacePtrStateBase"* nonnull %10) #10
  %11 = getelementptr inbounds %"class.mojo::internal::InterfacePtrState", %"class.mojo::internal::InterfacePtrState"* %4, i64 0, i32 1
  %12 = bitcast %"class.std::__1::unique_ptr.198"* %11 to i64*
  %13 = getelementptr inbounds %"class.mojo::Remote", %"class.mojo::Remote"* %0, i64 0, i32 0, i32 1
  %14 = bitcast %"class.std::__1::unique_ptr.198"* %13 to i64*
  %15 = load i64, i64* %14, align 8
  store i64 %15, i64* %12, align 8
  store i64 0, i64* %14, align 8
  %16 = bitcast %"class.mojo::Remote"* %0 to %"class.mojo::internal::InterfacePtrStateBase"*
  call void @_ZN4mojo8internal21InterfacePtrStateBase4SwapEPS1_(%"class.mojo::internal::InterfacePtrStateBase"* %16, %"class.mojo::internal::InterfacePtrStateBase"* nonnull %10) #10
  %17 = getelementptr inbounds %"class.mojo::internal::InterfacePtrState", %"class.mojo::internal::InterfacePtrState"* %4, i64 0, i32 1, i32 0, i32 0, i32 0
  %18 = load %"class.network::mojom::NetworkChangeManagerProxy"*, %"class.network::mojom::NetworkChangeManagerProxy"** %17, align 8
  store %"class.network::mojom::NetworkChangeManagerProxy"* null, %"class.network::mojom::NetworkChangeManagerProxy"** %17, align 8
  %19 = icmp eq %"class.network::mojom::NetworkChangeManagerProxy"* %18, null
  br i1 %19, label %29, label %20

20:                                               ; preds = %8
  %21 = bitcast %"class.network::mojom::NetworkChangeManagerProxy"* %18 to void (%"class.network::mojom::NetworkChangeManagerProxy"*)***
  %22 = load void (%"class.network::mojom::NetworkChangeManagerProxy"*)**, void (%"class.network::mojom::NetworkChangeManagerProxy"*)*** %21, align 8
  %23 = getelementptr inbounds void (%"class.network::mojom::NetworkChangeManagerProxy"*)*, void (%"class.network::mojom::NetworkChangeManagerProxy"*)** %22, i64 1
  %24 = load void (%"class.network::mojom::NetworkChangeManagerProxy"*)*, void (%"class.network::mojom::NetworkChangeManagerProxy"*)** %23, align 8
  call void %24(%"class.network::mojom::NetworkChangeManagerProxy"* nonnull %18) #10
  br label %29

25:                                               ; preds = %3
  %26 = getelementptr inbounds %"class.mojo::Remote", %"class.mojo::Remote"* %0, i64 0, i32 0
  %27 = getelementptr inbounds %"class.mojo::PendingRemote.273", %"class.mojo::PendingRemote.273"* %1, i64 0, i32 0
  %28 = bitcast %"class.mojo::Remote"* %0 to %"class.mojo::internal::InterfacePtrStateBase"*
  tail call void @_ZN4mojo8internal21InterfacePtrStateBase4BindEPNS0_18PendingRemoteStateE13scoped_refptrIN4base19SequencedTaskRunnerEE(%"class.mojo::internal::InterfacePtrStateBase"* %28, %"struct.mojo::internal::PendingRemoteState"* %27, %"class.base::SequencedTaskRunner"* %2) #10
  tail call void @_ZN4mojo8internal17InterfacePtrStateIN7network5mojom20NetworkChangeManagerEE25ConfigureProxyIfNecessaryEv(%"class.mojo::internal::InterfacePtrState"* %26) #10
  br label %39

29:                                               ; preds = %20, %8
  call void @_ZN4mojo8internal21InterfacePtrStateBaseD2Ev(%"class.mojo::internal::InterfacePtrStateBase"* nonnull %10) #10
  call void @llvm.lifetime.end.p0i8(i64 48, i8* nonnull %9) #10
  %30 = icmp eq %"class.base::SequencedTaskRunner"* %2, null
  br i1 %30, label %39, label %31

31:                                               ; preds = %29
  %32 = getelementptr inbounds %"class.base::SequencedTaskRunner", %"class.base::SequencedTaskRunner"* %2, i64 0, i32 0, i32 1
  %33 = getelementptr inbounds %"class.base::RefCountedThreadSafe.2", %"class.base::RefCountedThreadSafe.2"* %32, i64 0, i32 0, i32 0, i32 0, i32 0, i32 0, i32 0, i32 0, i32 0
  %34 = atomicrmw sub i32* %33, i32 1 acq_rel
  %35 = icmp eq i32 %34, 1
  br i1 %35, label %36, label %39

36:                                               ; preds = %31
  %37 = getelementptr inbounds %"class.base::RefCountedThreadSafe.2", %"class.base::RefCountedThreadSafe.2"* %32, i64 -2
  %38 = bitcast %"class.base::RefCountedThreadSafe.2"* %37 to %"class.base::TaskRunner"*
  call void @_ZN4base16TaskRunnerTraits8DestructEPKNS_10TaskRunnerE(%"class.base::TaskRunner"* %38) #10
  br label %39

39:                                               ; preds = %25, %29, %31, %36
  ret void
}

declare i32 @MojoCreateMessagePipe(%struct.MojoCreateMessagePipeOptions*, i32*, i32*) local_unnamed_addr #1

declare i32 @MojoClose(i32) local_unnamed_addr #1

declare void @_ZN4mojo8internal21InterfacePtrStateBase4SwapEPS1_(%"class.mojo::internal::InterfacePtrStateBase"*, %"class.mojo::internal::InterfacePtrStateBase"*) local_unnamed_addr #1

declare void @_ZN4mojo8internal21InterfacePtrStateBase4BindEPNS0_18PendingRemoteStateE13scoped_refptrIN4base19SequencedTaskRunnerEE(%"class.mojo::internal::InterfacePtrStateBase"*, %"struct.mojo::internal::PendingRemoteState"*, %"class.base::SequencedTaskRunner"*) local_unnamed_addr #1

; Function Attrs: nounwind ssp uwtable
define linkonce_odr hidden void @_ZN4mojo8internal17InterfacePtrStateIN7network5mojom20NetworkChangeManagerEE25ConfigureProxyIfNecessaryEv(%"class.mojo::internal::InterfacePtrState"*) local_unnamed_addr #0 comdat align 2 {
  %2 = getelementptr inbounds %"class.mojo::internal::InterfacePtrState", %"class.mojo::internal::InterfacePtrState"* %0, i64 0, i32 1
  %3 = getelementptr inbounds %"class.std::__1::unique_ptr.198", %"class.std::__1::unique_ptr.198"* %2, i64 0, i32 0, i32 0, i32 0
  %4 = load %"class.network::mojom::NetworkChangeManagerProxy"*, %"class.network::mojom::NetworkChangeManagerProxy"** %3, align 8
  %5 = icmp eq %"class.network::mojom::NetworkChangeManagerProxy"* %4, null
  br i1 %5, label %6, label %27

6:                                                ; preds = %1
  %7 = bitcast %"class.mojo::internal::InterfacePtrState"* %0 to %"class.mojo::internal::InterfacePtrStateBase"*
  %8 = tail call i8* @_Znwm(i64 8) #11
  %9 = bitcast i8* %8 to %"class.mojo::PassThroughFilter"*
  tail call void @_ZN4mojo17PassThroughFilterC1Ev(%"class.mojo::PassThroughFilter"* nonnull %9) #10
  %10 = bitcast i8* %8 to %"class.mojo::MessageReceiver"*
  %11 = tail call zeroext i1 @_ZN4mojo8internal21InterfacePtrStateBase24InitializeEndpointClientEbbbNSt3__110unique_ptrINS_15MessageReceiverENS2_14default_deleteIS4_EEEEPKc(%"class.mojo::internal::InterfacePtrStateBase"* %7, i1 zeroext false, i1 zeroext false, i1 zeroext false, %"class.mojo::MessageReceiver"* nonnull %10, i8* getelementptr inbounds ([0 x i8], [0 x i8]* @_ZN7network5mojom20NetworkChangeManager5Name_E, i64 0, i64 0)) #10
  br i1 %11, label %12, label %27

12:                                               ; preds = %6
  %13 = getelementptr inbounds %"class.mojo::internal::InterfacePtrState", %"class.mojo::internal::InterfacePtrState"* %0, i64 0, i32 0, i32 1, i32 0, i32 0, i32 0
  %14 = bitcast %"class.mojo::InterfaceEndpointClient"** %13 to %"class.mojo::MessageReceiverWithResponder"**
  %15 = load %"class.mojo::MessageReceiverWithResponder"*, %"class.mojo::MessageReceiverWithResponder"** %14, align 8
  %16 = tail call i8* @_Znwm(i64 16) #11
  %17 = bitcast i8* %16 to %"class.network::mojom::NetworkChangeManagerProxy"*
  tail call void @_ZN7network5mojom25NetworkChangeManagerProxyC1EPN4mojo28MessageReceiverWithResponderE(%"class.network::mojom::NetworkChangeManagerProxy"* nonnull %17, %"class.mojo::MessageReceiverWithResponder"* %15) #10
  %18 = ptrtoint i8* %16 to i64
  %19 = load %"class.network::mojom::NetworkChangeManagerProxy"*, %"class.network::mojom::NetworkChangeManagerProxy"** %3, align 8
  %20 = bitcast %"class.std::__1::unique_ptr.198"* %2 to i64*
  store i64 %18, i64* %20, align 8
  %21 = icmp eq %"class.network::mojom::NetworkChangeManagerProxy"* %19, null
  br i1 %21, label %27, label %22

22:                                               ; preds = %12
  %23 = bitcast %"class.network::mojom::NetworkChangeManagerProxy"* %19 to void (%"class.network::mojom::NetworkChangeManagerProxy"*)***
  %24 = load void (%"class.network::mojom::NetworkChangeManagerProxy"*)**, void (%"class.network::mojom::NetworkChangeManagerProxy"*)*** %23, align 8
  %25 = getelementptr inbounds void (%"class.network::mojom::NetworkChangeManagerProxy"*)*, void (%"class.network::mojom::NetworkChangeManagerProxy"*)** %24, i64 1
  %26 = load void (%"class.network::mojom::NetworkChangeManagerProxy"*)*, void (%"class.network::mojom::NetworkChangeManagerProxy"*)** %25, align 8
  tail call void %26(%"class.network::mojom::NetworkChangeManagerProxy"* nonnull %19) #10
  br label %27

27:                                               ; preds = %1, %12, %22, %6
  ret void
}

declare zeroext i1 @_ZN4mojo8internal21InterfacePtrStateBase24InitializeEndpointClientEbbbNSt3__110unique_ptrINS_15MessageReceiverENS2_14default_deleteIS4_EEEEPKc(%"class.mojo::internal::InterfacePtrStateBase"*, i1 zeroext, i1 zeroext, i1 zeroext, %"class.mojo::MessageReceiver"*, i8*) local_unnamed_addr #1

declare void @_ZN4mojo17PassThroughFilterC1Ev(%"class.mojo::PassThroughFilter"*) unnamed_addr #1

declare void @_ZN7network5mojom25NetworkChangeManagerProxyC1EPN4mojo28MessageReceiverWithResponderE(%"class.network::mojom::NetworkChangeManagerProxy"*, %"class.mojo::MessageReceiverWithResponder"*) unnamed_addr #1

declare void @_ZN4mojo8internal18PendingRemoteStateC1ENS_16ScopedHandleBaseINS_17MessagePipeHandleEEEj(%"struct.mojo::internal::PendingRemoteState"*, %"class.mojo::ScopedHandleBase"*, i32) unnamed_addr #1

declare void @_ZN4mojo8internal20PendingReceiverStateC1ENS_16ScopedHandleBaseINS_17MessagePipeHandleEEE(%"struct.mojo::internal::PendingReceiverState"*, %"class.mojo::ScopedHandleBase"*) unnamed_addr #1

; Function Attrs: nounwind ssp uwtable
define linkonce_odr hidden void @_ZN4mojo8ReceiverIN7network5mojom26NetworkChangeManagerClientENS_19RawPtrImplRefTraitsIS3_EEE24BindNewPipeAndPassRemoteE13scoped_refptrIN4base19SequencedTaskRunnerEE(%"class.mojo::PendingRemote"* noalias sret, %"class.mojo::Receiver"*, %"class.base::SequencedTaskRunner"*) local_unnamed_addr #0 comdat align 2 {
  %4 = alloca %"class.mojo::ScopedHandleBase", align 4
  %5 = alloca %"class.mojo::MessagePipeHandle", align 4
  %6 = alloca %"class.mojo::MessagePipeHandle", align 4
  %7 = alloca %"class.mojo::PendingReceiver.280", align 8
  %8 = getelementptr inbounds %"class.mojo::PendingRemote", %"class.mojo::PendingRemote"* %0, i64 0, i32 0, i32 0, i32 0, i32 0, i32 0
  store i32 -1431655766, i32* %8, align 4
  %9 = getelementptr inbounds %"class.mojo::PendingRemote", %"class.mojo::PendingRemote"* %0, i64 0, i32 0, i32 1
  store i32 -1431655766, i32* %9, align 4
  %10 = getelementptr inbounds %"class.mojo::PendingRemote", %"class.mojo::PendingRemote"* %0, i64 0, i32 0
  tail call void @_ZN4mojo8internal18PendingRemoteStateC1Ev(%"struct.mojo::internal::PendingRemoteState"* %10) #10
  %11 = bitcast %"class.mojo::MessagePipeHandle"* %5 to i8*
  call void @llvm.lifetime.start.p0i8(i64 4, i8* nonnull %11) #10, !noalias !52
  %12 = getelementptr inbounds %"class.mojo::MessagePipeHandle", %"class.mojo::MessagePipeHandle"* %5, i64 0, i32 0, i32 0
  store i32 0, i32* %12, align 4, !noalias !52
  %13 = bitcast %"class.mojo::MessagePipeHandle"* %6 to i8*
  call void @llvm.lifetime.start.p0i8(i64 4, i8* nonnull %13) #10, !noalias !52
  %14 = getelementptr inbounds %"class.mojo::MessagePipeHandle", %"class.mojo::MessagePipeHandle"* %6, i64 0, i32 0, i32 0
  store i32 0, i32* %14, align 4, !noalias !52
  %15 = call i32 @MojoCreateMessagePipe(%struct.MojoCreateMessagePipeOptions* null, i32* nonnull %12, i32* nonnull %14) #10, !noalias !52
  %16 = load i32, i32* %12, align 4, !noalias !52
  %17 = load i32, i32* %14, align 4, !noalias !52
  %18 = load i32, i32* %8, align 4, !noalias !52
  call void @llvm.lifetime.end.p0i8(i64 4, i8* nonnull %13) #10, !noalias !52
  call void @llvm.lifetime.end.p0i8(i64 4, i8* nonnull %11) #10, !noalias !52
  %19 = icmp eq i32 %18, 0
  br i1 %19, label %22, label %20

20:                                               ; preds = %3
  %21 = call i32 @MojoClose(i32 %18) #10
  br label %22

22:                                               ; preds = %20, %3
  store i32 %16, i32* %8, align 4, !noalias !52
  %23 = bitcast %"class.mojo::ScopedHandleBase"* %4 to i8*
  call void @llvm.lifetime.start.p0i8(i64 4, i8* nonnull %23) #10, !noalias !52
  %24 = getelementptr inbounds %"class.mojo::PendingReceiver.280", %"class.mojo::PendingReceiver.280"* %7, i64 0, i32 0
  %25 = getelementptr inbounds %"class.mojo::ScopedHandleBase", %"class.mojo::ScopedHandleBase"* %4, i64 0, i32 0, i32 0, i32 0
  store i32 %17, i32* %25, align 4, !alias.scope !55, !noalias !52
  call void @_ZN4mojo8internal20PendingReceiverStateC1ENS_16ScopedHandleBaseINS_17MessagePipeHandleEEE(%"struct.mojo::internal::PendingReceiverState"* nonnull %24, %"class.mojo::ScopedHandleBase"* nonnull %4) #10
  %26 = load i32, i32* %25, align 4, !noalias !52
  %27 = icmp eq i32 %26, 0
  br i1 %27, label %30, label %28

28:                                               ; preds = %22
  %29 = call i32 @MojoClose(i32 %26) #10
  br label %30

30:                                               ; preds = %22, %28
  call void @llvm.lifetime.end.p0i8(i64 4, i8* nonnull %23) #10, !noalias !52
  %31 = getelementptr inbounds %"class.mojo::PendingReceiver.280", %"class.mojo::PendingReceiver.280"* %7, i64 0, i32 0, i32 0, i32 0, i32 0, i32 0
  %32 = load i32, i32* %31, align 8
  %33 = icmp eq i32 %32, 0
  br i1 %33, label %36, label %34

34:                                               ; preds = %30
  %35 = getelementptr inbounds %"class.mojo::Receiver", %"class.mojo::Receiver"* %1, i64 0, i32 0
  call void @_ZN4mojo8internal12BindingStateIN7network5mojom26NetworkChangeManagerClientENS_19RawPtrImplRefTraitsIS4_EEE4BindEPNS0_20PendingReceiverStateE13scoped_refptrIN4base19SequencedTaskRunnerEE(%"class.mojo::internal::BindingState"* %35, %"struct.mojo::internal::PendingReceiverState"* nonnull %24, %"class.base::SequencedTaskRunner"* %2) #10
  br label %47

36:                                               ; preds = %30
  %37 = getelementptr inbounds %"class.mojo::Receiver", %"class.mojo::Receiver"* %1, i64 0, i32 0, i32 0
  call void @_ZN4mojo8internal16BindingStateBase5CloseEv(%"class.mojo::internal::BindingStateBase"* %37) #10
  %38 = icmp eq %"class.base::SequencedTaskRunner"* %2, null
  br i1 %38, label %47, label %39

39:                                               ; preds = %36
  %40 = getelementptr inbounds %"class.base::SequencedTaskRunner", %"class.base::SequencedTaskRunner"* %2, i64 0, i32 0, i32 1
  %41 = getelementptr inbounds %"class.base::RefCountedThreadSafe.2", %"class.base::RefCountedThreadSafe.2"* %40, i64 0, i32 0, i32 0, i32 0, i32 0, i32 0, i32 0, i32 0, i32 0
  %42 = atomicrmw sub i32* %41, i32 1 acq_rel
  %43 = icmp eq i32 %42, 1
  br i1 %43, label %44, label %47

44:                                               ; preds = %39
  %45 = getelementptr inbounds %"class.base::RefCountedThreadSafe.2", %"class.base::RefCountedThreadSafe.2"* %40, i64 -2
  %46 = bitcast %"class.base::RefCountedThreadSafe.2"* %45 to %"class.base::TaskRunner"*
  call void @_ZN4base16TaskRunnerTraits8DestructEPKNS_10TaskRunnerE(%"class.base::TaskRunner"* %46) #10
  br label %47

47:                                               ; preds = %44, %39, %36, %34
  call void @_ZN4mojo8internal20PendingReceiverStateD1Ev(%"struct.mojo::internal::PendingReceiverState"* nonnull %24) #10
  ret void
}

declare void @_ZN4mojo8internal18PendingRemoteStateC1Ev(%"struct.mojo::internal::PendingRemoteState"*) unnamed_addr #1

; Function Attrs: nounwind ssp uwtable
define linkonce_odr hidden void @_ZN4mojo8internal12BindingStateIN7network5mojom26NetworkChangeManagerClientENS_19RawPtrImplRefTraitsIS4_EEE4BindEPNS0_20PendingReceiverStateE13scoped_refptrIN4base19SequencedTaskRunnerEE(%"class.mojo::internal::BindingState"*, %"struct.mojo::internal::PendingReceiverState"*, %"class.base::SequencedTaskRunner"*) local_unnamed_addr #0 comdat align 2 {
  %4 = getelementptr inbounds %"class.mojo::internal::BindingState", %"class.mojo::internal::BindingState"* %0, i64 0, i32 0
  %5 = icmp eq %"class.base::SequencedTaskRunner"* %2, null
  br i1 %5, label %20, label %6

6:                                                ; preds = %3
  %7 = getelementptr inbounds %"class.base::SequencedTaskRunner", %"class.base::SequencedTaskRunner"* %2, i64 0, i32 0, i32 1, i32 0, i32 0, i32 0, i32 0, i32 0, i32 0, i32 0, i32 0
  %8 = atomicrmw add i32* %7, i32 1 monotonic
  %9 = tail call i8* @_Znwm(i64 8) #11
  %10 = bitcast i8* %9 to i32 (...)***
  store i32 (...)** bitcast (i8** getelementptr inbounds ({ [6 x i8*] }, { [6 x i8*] }* @_ZTVN7network5mojom42NetworkChangeManagerClientRequestValidatorE, i64 0, inrange i32 0, i64 2) to i32 (...)**), i32 (...)*** %10, align 8
  %11 = getelementptr inbounds %"class.mojo::internal::BindingState", %"class.mojo::internal::BindingState"* %0, i64 0, i32 1, i32 0
  %12 = bitcast i8* %9 to %"class.mojo::MessageReceiver"*
  tail call void @_ZN4mojo8internal16BindingStateBase12BindInternalEPNS0_20PendingReceiverStateE13scoped_refptrIN4base19SequencedTaskRunnerEEPKcNSt3__110unique_ptrINS_15MessageReceiverENSA_14default_deleteISC_EEEEbbPNS_34MessageReceiverWithResponderStatusEj(%"class.mojo::internal::BindingStateBase"* %4, %"struct.mojo::internal::PendingReceiverState"* %1, %"class.base::SequencedTaskRunner"* nonnull %2, i8* getelementptr inbounds ([0 x i8], [0 x i8]* @_ZN7network5mojom26NetworkChangeManagerClient5Name_E, i64 0, i64 0), %"class.mojo::MessageReceiver"* nonnull %12, i1 zeroext false, i1 zeroext false, %"class.mojo::MessageReceiverWithResponderStatus"* %11, i32 0) #10
  %13 = getelementptr inbounds %"class.base::SequencedTaskRunner", %"class.base::SequencedTaskRunner"* %2, i64 0, i32 0, i32 1
  %14 = getelementptr inbounds %"class.base::RefCountedThreadSafe.2", %"class.base::RefCountedThreadSafe.2"* %13, i64 0, i32 0, i32 0, i32 0, i32 0, i32 0, i32 0, i32 0, i32 0
  %15 = atomicrmw sub i32* %14, i32 1 acq_rel
  %16 = icmp eq i32 %15, 1
  br i1 %16, label %17, label %25

17:                                               ; preds = %6
  %18 = getelementptr inbounds %"class.base::RefCountedThreadSafe.2", %"class.base::RefCountedThreadSafe.2"* %13, i64 -2
  %19 = bitcast %"class.base::RefCountedThreadSafe.2"* %18 to %"class.base::TaskRunner"*
  tail call void @_ZN4base16TaskRunnerTraits8DestructEPKNS_10TaskRunnerE(%"class.base::TaskRunner"* %19) #10
  br label %25

20:                                               ; preds = %3
  %21 = tail call i8* @_Znwm(i64 8) #11
  %22 = bitcast i8* %21 to i32 (...)***
  store i32 (...)** bitcast (i8** getelementptr inbounds ({ [6 x i8*] }, { [6 x i8*] }* @_ZTVN7network5mojom42NetworkChangeManagerClientRequestValidatorE, i64 0, inrange i32 0, i64 2) to i32 (...)**), i32 (...)*** %22, align 8
  %23 = getelementptr inbounds %"class.mojo::internal::BindingState", %"class.mojo::internal::BindingState"* %0, i64 0, i32 1, i32 0
  %24 = bitcast i8* %21 to %"class.mojo::MessageReceiver"*
