; ModuleID = 'gen/components/feed/core/proto/v2/wire/next_page_token.pb.cc'
source_filename = "gen/components/feed/core/proto/v2/wire/next_page_token.pb.cc"
target datalayout = "e-m:e-i64:64-f80:128-n8:16:32:64-S128"
target triple = "x86_64-unknown-linux-gnu"

module asm ".symver exp, exp@GLIBC_2.2.5"
module asm ".symver exp2, exp2@GLIBC_2.2.5"
module asm ".symver exp2f, exp2f@GLIBC_2.2.5"
module asm ".symver expf, expf@GLIBC_2.2.5"
module asm ".symver lgamma, lgamma@GLIBC_2.2.5"
module asm ".symver lgammaf, lgammaf@GLIBC_2.2.5"
module asm ".symver lgammal, lgammal@GLIBC_2.2.5"
module asm ".symver log, log@GLIBC_2.2.5"
module asm ".symver log2, log2@GLIBC_2.2.5"
module asm ".symver log2f, log2f@GLIBC_2.2.5"
module asm ".symver logf, logf@GLIBC_2.2.5"
module asm ".symver pow, pow@GLIBC_2.2.5"
module asm ".symver powf, powf@GLIBC_2.2.5"

%"class.feedwire::NextPageTokenDefaultTypeInternal" = type { %"class.google::protobuf::internal::ExplicitlyConstructed" }
%"class.google::protobuf::internal::ExplicitlyConstructed" = type { %"union.google::protobuf::internal::ExplicitlyConstructed<feedwire::NextPageToken>::AlignedUnion" }
%"union.google::protobuf::internal::ExplicitlyConstructed<feedwire::NextPageToken>::AlignedUnion" = type { i64, [40 x i8] }
%"class.feedwire::TokenHandlingDefaultTypeInternal" = type { %"class.google::protobuf::internal::ExplicitlyConstructed.0" }
%"class.google::protobuf::internal::ExplicitlyConstructed.0" = type { %"union.google::protobuf::internal::ExplicitlyConstructed<feedwire::TokenHandling>::AlignedUnion" }
%"union.google::protobuf::internal::ExplicitlyConstructed<feedwire::TokenHandling>::AlignedUnion" = type { i64, [24 x i8] }
%"struct.google::protobuf::internal::EnumEntry" = type <{ %"class.google::protobuf::StringPiece", i32, [4 x i8] }>
%"class.google::protobuf::StringPiece" = type { i8*, i64 }
%"class.google::protobuf::internal::ExplicitlyConstructed.4" = type { %"union.google::protobuf::internal::ExplicitlyConstructed<std::__1::basic_string<char, std::__1::char_traits<char>, std::__1::allocator<char> > >::AlignedUnion" }
%"union.google::protobuf::internal::ExplicitlyConstructed<std::__1::basic_string<char, std::__1::char_traits<char>, std::__1::allocator<char> > >::AlignedUnion" = type { i64, [16 x i8] }
%"class.feedwire::NextPageToken" = type { %"class.google::protobuf::MessageLite", %"class.google::protobuf::internal::HasBits", %"class.google::protobuf::internal::CachedSize", %"struct.google::protobuf::internal::ArenaStringPtr", %"struct.google::protobuf::internal::ArenaStringPtr", %"class.feedwire::TokenHandling"* }
%"class.google::protobuf::MessageLite" = type { i32 (...)**, %"class.google::protobuf::internal::InternalMetadata" }
%"class.google::protobuf::internal::InternalMetadata" = type { i8* }
%"class.google::protobuf::internal::HasBits" = type { [1 x i32] }
%"class.google::protobuf::internal::CachedSize" = type { %"struct.std::__1::atomic" }
%"struct.std::__1::atomic" = type { %"struct.std::__1::__atomic_base" }
%"struct.std::__1::__atomic_base" = type { %"struct.std::__1::__atomic_base.1" }
%"struct.std::__1::__atomic_base.1" = type { %"struct.std::__1::__cxx_atomic_impl" }
%"struct.std::__1::__cxx_atomic_impl" = type { %"struct.std::__1::__cxx_atomic_base_impl" }
%"struct.std::__1::__cxx_atomic_base_impl" = type { i32 }
%"struct.google::protobuf::internal::ArenaStringPtr" = type { %"class.std::__1::basic_string"* }
%"class.std::__1::basic_string" = type { %"class.std::__1::__compressed_pair" }
%"class.std::__1::__compressed_pair" = type { %"struct.std::__1::__compressed_pair_elem" }
%"struct.std::__1::__compressed_pair_elem" = type { %"struct.std::__1::basic_string<char, std::__1::char_traits<char>, std::__1::allocator<char> >::__rep" }
%"struct.std::__1::basic_string<char, std::__1::char_traits<char>, std::__1::allocator<char> >::__rep" = type { %union.anon }
%union.anon = type { %"struct.std::__1::basic_string<char, std::__1::char_traits<char>, std::__1::allocator<char> >::__long" }
%"struct.std::__1::basic_string<char, std::__1::char_traits<char>, std::__1::allocator<char> >::__long" = type { i8*, i64, i64 }
%"class.feedwire::TokenHandling" = type <{ %"class.google::protobuf::MessageLite", %"class.google::protobuf::internal::HasBits", %"class.google::protobuf::internal::CachedSize", i32, [4 x i8] }>
%"class.google::protobuf::Arena" = type { %"class.google::protobuf::internal::ArenaImpl", void (%"class.std::type_info"*, i64, i8*)*, void (%"class.google::protobuf::Arena"*, i8*, i64)*, void (%"class.google::protobuf::Arena"*, i8*, i64)*, i8* }
%"class.google::protobuf::internal::ArenaImpl" = type { %"struct.std::__1::atomic.5", %"struct.std::__1::atomic.5", %"struct.std::__1::atomic.9", %"class.google::protobuf::internal::ArenaImpl::Block"*, i64, %"struct.google::protobuf::internal::ArenaImpl::Options" }
%"struct.std::__1::atomic.5" = type { %"struct.std::__1::__atomic_base.6" }
%"struct.std::__1::__atomic_base.6" = type { %"struct.std::__1::__cxx_atomic_impl.7" }
%"struct.std::__1::__cxx_atomic_impl.7" = type { %"struct.std::__1::__cxx_atomic_base_impl.8" }
%"struct.std::__1::__cxx_atomic_base_impl.8" = type { %"class.google::protobuf::internal::ArenaImpl::SerialArena"* }
%"class.google::protobuf::internal::ArenaImpl::SerialArena" = type { %"class.google::protobuf::internal::ArenaImpl"*, i8*, %"class.google::protobuf::internal::ArenaImpl::Block"*, %"struct.google::protobuf::internal::ArenaImpl::CleanupChunk"*, %"class.google::protobuf::internal::ArenaImpl::SerialArena"*, i8*, i8*, %"struct.google::protobuf::internal::ArenaImpl::CleanupNode"*, %"struct.google::protobuf::internal::ArenaImpl::CleanupNode"* }
%"struct.google::protobuf::internal::ArenaImpl::CleanupChunk" = type { i64, %"struct.google::protobuf::internal::ArenaImpl::CleanupChunk"*, [1 x %"struct.google::protobuf::internal::ArenaImpl::CleanupNode"] }
%"struct.google::protobuf::internal::ArenaImpl::CleanupNode" = type { i8*, void (i8*)* }
%"struct.std::__1::atomic.9" = type { %"struct.std::__1::__atomic_base.10" }
%"struct.std::__1::__atomic_base.10" = type { %"struct.std::__1::__atomic_base.11" }
%"struct.std::__1::__atomic_base.11" = type { %"struct.std::__1::__cxx_atomic_impl.12" }
%"struct.std::__1::__cxx_atomic_impl.12" = type { %"struct.std::__1::__cxx_atomic_base_impl.13" }
%"struct.std::__1::__cxx_atomic_base_impl.13" = type { i64 }
%"class.google::protobuf::internal::ArenaImpl::Block" = type { %"class.google::protobuf::internal::ArenaImpl::Block"*, i64, i64 }
%"struct.google::protobuf::internal::ArenaImpl::Options" = type { i64, i64, i8*, i64, i8* (i64)*, void (i8*, i64)* }
%"class.std::type_info" = type { i32 (...)**, i8* }
%"struct.google::protobuf::internal::SCCInfoBase" = type { %"struct.std::__1::atomic", i32, i32, void ()* }
%"struct.std::__1::basic_string<char, std::__1::char_traits<char>, std::__1::allocator<char> >::__short" = type { [23 x i8], %struct.anon }
%struct.anon = type { i8 }
%"struct.google::protobuf::internal::InternalMetadata::Container" = type { %"struct.google::protobuf::internal::InternalMetadata::ContainerBase", %"class.std::__1::basic_string" }
%"struct.google::protobuf::internal::InternalMetadata::ContainerBase" = type { %"class.google::protobuf::Arena"* }
%"class.google::protobuf::internal::ParseContext" = type { %"class.google::protobuf::internal::EpsCopyInputStream", i32, i32, %"struct.google::protobuf::internal::ParseContext::Data" }
%"class.google::protobuf::internal::EpsCopyInputStream" = type { i8*, i8*, i8*, i32, i32, %"class.google::protobuf::io::ZeroCopyInputStream"*, [32 x i8], i64, i32, i32 }
%"class.google::protobuf::io::ZeroCopyInputStream" = type { i32 (...)** }
%"struct.google::protobuf::internal::ParseContext::Data" = type { %"class.google::protobuf::DescriptorPool"*, %"class.google::protobuf::MessageFactory"* }
%"class.google::protobuf::DescriptorPool" = type opaque
%"class.google::protobuf::MessageFactory" = type opaque
%"class.google::protobuf::io::EpsCopyOutputStream" = type <{ i8*, i8*, [32 x i8], %"class.google::protobuf::io::ZeroCopyOutputStream"*, i8, i8, i8, [5 x i8] }>
%"class.google::protobuf::io::ZeroCopyOutputStream" = type { i32 (...)** }

$_ZN6google8protobuf8internal12ParseContext12ParseMessageIN8feedwire13TokenHandlingEEEPKcPT_S7_ = comdat any

$_ZNK8feedwire13NextPageToken3NewEv = comdat any

$_ZNK8feedwire13NextPageToken3NewEPN6google8protobuf5ArenaE = comdat any

$_ZNK8feedwire13NextPageToken13GetCachedSizeEv = comdat any

$_ZNK6google8protobuf11MessageLite16InternalGetTableEv = comdat any

$_ZNK8feedwire13TokenHandling3NewEv = comdat any

$_ZNK8feedwire13TokenHandling3NewEPN6google8protobuf5ArenaE = comdat any

$_ZNK8feedwire13TokenHandling13GetCachedSizeEv = comdat any

$_ZN6google8protobuf8internal14ArenaStringPtr14CreateInstanceEPNS0_5ArenaEPKNSt3__112basic_stringIcNS5_11char_traitsIcEENS5_9allocatorIcEEEE = comdat any

$_ZN6google8protobuf8internal21arena_destruct_objectINSt3__112basic_stringIcNS3_11char_traitsIcEENS3_9allocatorIcEEEEEEvPv = comdat any

$_ZN6google8protobuf8internal16InternalMetadata27mutable_unknown_fields_slowINSt3__112basic_stringIcNS4_11char_traitsIcEENS4_9allocatorIcEEEEEEPT_v = comdat any

$_ZN6google8protobuf8internal21arena_destruct_objectINS1_16InternalMetadata9ContainerINSt3__112basic_stringIcNS5_11char_traitsIcEENS5_9allocatorIcEEEEEEEEvPv = comdat any

@_ZN8feedwire32_NextPageToken_default_instance_E = hidden global %"class.feedwire::NextPageTokenDefaultTypeInternal" zeroinitializer, align 8
@_ZN8feedwire32_TokenHandling_default_instance_E = hidden global %"class.feedwire::TokenHandlingDefaultTypeInternal" zeroinitializer, align 8
@scc_info_NextPageToken_components_2ffeed_2fcore_2fproto_2fv2_2fwire_2fnext_5fpage_5ftoken_2eproto = hidden global { { { { i32 } }, i32, i32, void ()* }, [1 x i8*] } { { { { i32 } }, i32, i32, void ()* } { { { i32 } } { { i32 } { i32 -1 } }, i32 1, i32 0, void ()* @_ZL109InitDefaultsscc_info_NextPageToken_components_2ffeed_2fcore_2fproto_2fv2_2fwire_2fnext_5fpage_5ftoken_2eprotov }, [1 x i8*] [i8* bitcast ({ { { { i32 } }, i32, i32, void ()* }, [0 x i8*] }* @scc_info_TokenHandling_components_2ffeed_2fcore_2fproto_2fv2_2fwire_2fnext_5fpage_5ftoken_2eproto to i8*)] }, align 8
@scc_info_TokenHandling_components_2ffeed_2fcore_2fproto_2fv2_2fwire_2fnext_5fpage_5ftoken_2eproto = hidden global { { { { i32 } }, i32, i32, void ()* }, [0 x i8*] } { { { { i32 } }, i32, i32, void ()* } { { { i32 } } { { i32 } { i32 -1 } }, i32 0, i32 0, void ()* @_ZL109InitDefaultsscc_info_TokenHandling_components_2ffeed_2fcore_2fproto_2fv2_2fwire_2fnext_5fpage_5ftoken_2eprotov }, [0 x i8*] zeroinitializer }, align 8
@_ZN8feedwireL34TokenHandling_LoadStrategy_entriesE = internal constant [3 x %"struct.google::protobuf::internal::EnumEntry"] [%"struct.google::protobuf::internal::EnumEntry" <{ %"class.google::protobuf::StringPiece" { i8* getelementptr inbounds ([31 x i8], [31 x i8]* @_ZN8feedwireL32TokenHandling_LoadStrategy_namesE, i64 0, i64 0), i64 5 }, i32 1, [4 x i8] zeroinitializer }>, %"struct.google::protobuf::internal::EnumEntry" <{ %"class.google::protobuf::StringPiece" { i8* getelementptr inbounds ([31 x i8], [31 x i8]* @_ZN8feedwireL32TokenHandling_LoadStrategy_namesE, i64 0, i64 5), i64 4 }, i32 2, [4 x i8] zeroinitializer }>, %"struct.google::protobuf::internal::EnumEntry" <{ %"class.google::protobuf::StringPiece" { i8* getelementptr inbounds ([31 x i8], [31 x i8]* @_ZN8feedwireL32TokenHandling_LoadStrategy_namesE, i64 0, i64 9), i64 21 }, i32 0, [4 x i8] zeroinitializer }>], align 16
@_ZN8feedwireL32TokenHandling_LoadStrategy_namesE = internal constant [31 x i8] c"EAGERLAZYLOAD_STRATEGY_UNKNOWN\00", align 16
@_ZZN8feedwire31TokenHandling_LoadStrategy_NameENS_26TokenHandling_LoadStrategyEE5dummy = internal global i8 0, align 1
@_ZGVZN8feedwire31TokenHandling_LoadStrategy_NameENS_26TokenHandling_LoadStrategyEE5dummy = internal global i64 0, align 8
@_ZN8feedwireL44TokenHandling_LoadStrategy_entries_by_numberE = internal constant [3 x i32] [i32 2, i32 0, i32 1], align 4
@_ZN8feedwireL34TokenHandling_LoadStrategy_stringsE = internal global [3 x %"class.google::protobuf::internal::ExplicitlyConstructed.4"] zeroinitializer, align 16
@_ZN8feedwire13TokenHandling21LOAD_STRATEGY_UNKNOWNE = hidden local_unnamed_addr constant i32 0, align 4
@_ZN8feedwire13TokenHandling5EAGERE = hidden local_unnamed_addr constant i32 1, align 4
@_ZN8feedwire13TokenHandling4LAZYE = hidden local_unnamed_addr constant i32 2, align 4
@_ZN8feedwire13TokenHandling16LoadStrategy_MINE = hidden local_unnamed_addr constant i32 0, align 4
@_ZN8feedwire13TokenHandling16LoadStrategy_MAXE = hidden local_unnamed_addr constant i32 2, align 4
@_ZN8feedwire13TokenHandling22LoadStrategy_ARRAYSIZEE = hidden local_unnamed_addr constant i32 3, align 4
@_ZTVN8feedwire13NextPageTokenE = hidden unnamed_addr constant { [16 x i8*] } { [16 x i8*] [i8* null, i8* null, i8* bitcast (void (%"class.feedwire::NextPageToken"*)* @_ZN8feedwire13NextPageTokenD2Ev to i8*), i8* bitcast (void (%"class.feedwire::NextPageToken"*)* @_ZN8feedwire13NextPageTokenD0Ev to i8*), i8* bitcast (void (%"class.std::__1::basic_string"*, %"class.feedwire::NextPageToken"*)* @_ZNK8feedwire13NextPageToken11GetTypeNameEv to i8*), i8* bitcast (%"class.feedwire::NextPageToken"* (%"class.feedwire::NextPageToken"*)* @_ZNK8feedwire13NextPageToken3NewEv to i8*), i8* bitcast (%"class.feedwire::NextPageToken"* (%"class.feedwire::NextPageToken"*, %"class.google::protobuf::Arena"*)* @_ZNK8feedwire13NextPageToken3NewEPN6google8protobuf5ArenaE to i8*), i8* bitcast (void (%"class.feedwire::NextPageToken"*)* @_ZN8feedwire13NextPageToken5ClearEv to i8*), i8* bitcast (i1 (%"class.feedwire::NextPageToken"*)* @_ZNK8feedwire13NextPageToken13IsInitializedEv to i8*), i8* bitcast (void (%"class.std::__1::basic_string"*, %"class.google::protobuf::MessageLite"*)* @_ZNK6google8protobuf11MessageLite25InitializationErrorStringEv to i8*), i8* bitcast (void (%"class.feedwire::NextPageToken"*, %"class.google::protobuf::MessageLite"*)* @_ZN8feedwire13NextPageToken21CheckTypeAndMergeFromERKN6google8protobuf11MessageLiteE to i8*), i8* bitcast (i64 (%"class.feedwire::NextPageToken"*)* @_ZNK8feedwire13NextPageToken12ByteSizeLongEv to i8*), i8* bitcast (i32 (%"class.feedwire::NextPageToken"*)* @_ZNK8feedwire13NextPageToken13GetCachedSizeEv to i8*), i8* bitcast (i8* (%"class.feedwire::NextPageToken"*, i8*, %"class.google::protobuf::internal::ParseContext"*)* @_ZN8feedwire13NextPageToken14_InternalParseEPKcPN6google8protobuf8internal12ParseContextE to i8*), i8* bitcast (i8* (%"class.feedwire::NextPageToken"*, i8*, %"class.google::protobuf::io::EpsCopyOutputStream"*)* @_ZNK8feedwire13NextPageToken18_InternalSerializeEPhPN6google8protobuf2io19EpsCopyOutputStreamE to i8*), i8* bitcast (i8* (%"class.google::protobuf::MessageLite"*)* @_ZNK6google8protobuf11MessageLite16InternalGetTableEv to i8*)] }, align 8
@.str = private unnamed_addr constant [61 x i8] c"gen/components/feed/core/proto/v2/wire/next_page_token.pb.cc\00", align 1
@.str.4 = private unnamed_addr constant [23 x i8] c"feedwire.NextPageToken\00", align 1
@_ZTVN8feedwire13TokenHandlingE = hidden unnamed_addr constant { [16 x i8*] } { [16 x i8*] [i8* null, i8* null, i8* bitcast (void (%"class.feedwire::TokenHandling"*)* @_ZN8feedwire13TokenHandlingD2Ev to i8*), i8* bitcast (void (%"class.feedwire::TokenHandling"*)* @_ZN8feedwire13TokenHandlingD0Ev to i8*), i8* bitcast (void (%"class.std::__1::basic_string"*, %"class.feedwire::TokenHandling"*)* @_ZNK8feedwire13TokenHandling11GetTypeNameEv to i8*), i8* bitcast (%"class.feedwire::TokenHandling"* (%"class.feedwire::TokenHandling"*)* @_ZNK8feedwire13TokenHandling3NewEv to i8*), i8* bitcast (%"class.feedwire::TokenHandling"* (%"class.feedwire::TokenHandling"*, %"class.google::protobuf::Arena"*)* @_ZNK8feedwire13TokenHandling3NewEPN6google8protobuf5ArenaE to i8*), i8* bitcast (void (%"class.feedwire::TokenHandling"*)* @_ZN8feedwire13TokenHandling5ClearEv to i8*), i8* bitcast (i1 (%"class.feedwire::TokenHandling"*)* @_ZNK8feedwire13TokenHandling13IsInitializedEv to i8*), i8* bitcast (void (%"class.std::__1::basic_string"*, %"class.google::protobuf::MessageLite"*)* @_ZNK6google8protobuf11MessageLite25InitializationErrorStringEv to i8*), i8* bitcast (void (%"class.feedwire::TokenHandling"*, %"class.google::protobuf::MessageLite"*)* @_ZN8feedwire13TokenHandling21CheckTypeAndMergeFromERKN6google8protobuf11MessageLiteE to i8*), i8* bitcast (i64 (%"class.feedwire::TokenHandling"*)* @_ZNK8feedwire13TokenHandling12ByteSizeLongEv to i8*), i8* bitcast (i32 (%"class.feedwire::TokenHandling"*)* @_ZNK8feedwire13TokenHandling13GetCachedSizeEv to i8*), i8* bitcast (i8* (%"class.feedwire::TokenHandling"*, i8*, %"class.google::protobuf::internal::ParseContext"*)* @_ZN8feedwire13TokenHandling14_InternalParseEPKcPN6google8protobuf8internal12ParseContextE to i8*), i8* bitcast (i8* (%"class.feedwire::TokenHandling"*, i8*, %"class.google::protobuf::io::EpsCopyOutputStream"*)* @_ZNK8feedwire13TokenHandling18_InternalSerializeEPhPN6google8protobuf2io19EpsCopyOutputStreamE to i8*), i8* bitcast (i8* (%"class.google::protobuf::MessageLite"*)* @_ZNK6google8protobuf11MessageLite16InternalGetTableEv to i8*)] }, align 8
@.str.5 = private unnamed_addr constant [23 x i8] c"feedwire.TokenHandling\00", align 1
@_ZN6google8protobuf8internal26fixed_address_empty_stringE = external global %"class.google::protobuf::internal::ExplicitlyConstructed.4", align 8
@.str.14 = private unnamed_addr constant [25 x i8] c"size_t to int conversion\00", align 1
@llvm.global_ctors = appending global [0 x { i32, void ()*, i8* }] zeroinitializer

@_ZN8feedwire13NextPageTokenC1EPN6google8protobuf5ArenaE = hidden unnamed_addr alias void (%"class.feedwire::NextPageToken"*, %"class.google::protobuf::Arena"*), void (%"class.feedwire::NextPageToken"*, %"class.google::protobuf::Arena"*)* @_ZN8feedwire13NextPageTokenC2EPN6google8protobuf5ArenaE
@_ZN8feedwire13NextPageTokenC1ERKS0_ = hidden unnamed_addr alias void (%"class.feedwire::NextPageToken"*, %"class.feedwire::NextPageToken"*), void (%"class.feedwire::NextPageToken"*, %"class.feedwire::NextPageToken"*)* @_ZN8feedwire13NextPageTokenC2ERKS0_
@_ZN8feedwire13NextPageTokenD1Ev = hidden unnamed_addr alias void (%"class.feedwire::NextPageToken"*), void (%"class.feedwire::NextPageToken"*)* @_ZN8feedwire13NextPageTokenD2Ev
@_ZN8feedwire13TokenHandlingC1EPN6google8protobuf5ArenaE = hidden unnamed_addr alias void (%"class.feedwire::TokenHandling"*, %"class.google::protobuf::Arena"*), void (%"class.feedwire::TokenHandling"*, %"class.google::protobuf::Arena"*)* @_ZN8feedwire13TokenHandlingC2EPN6google8protobuf5ArenaE
@_ZN8feedwire13TokenHandlingC1ERKS0_ = hidden unnamed_addr alias void (%"class.feedwire::TokenHandling"*, %"class.feedwire::TokenHandling"*), void (%"class.feedwire::TokenHandling"*, %"class.feedwire::TokenHandling"*)* @_ZN8feedwire13TokenHandlingC2ERKS0_
@_ZN8feedwire13TokenHandlingD1Ev = hidden unnamed_addr alias void (%"class.feedwire::TokenHandling"*), void (%"class.feedwire::TokenHandling"*)* @_ZN8feedwire13TokenHandlingD2Ev

; Function Attrs: nounwind ssp uwtable
define internal void @_ZL109InitDefaultsscc_info_NextPageToken_components_2ffeed_2fcore_2fproto_2fv2_2fwire_2fnext_5fpage_5ftoken_2eprotov() #0 {
  tail call void @_ZN6google8protobuf8internal13VerifyVersionEiiPKc(i32 3013000, i32 3013000, i8* getelementptr inbounds ([61 x i8], [61 x i8]* @.str, i64 0, i64 0)) #13
  store %"class.google::protobuf::Arena"* null, %"class.google::protobuf::Arena"** bitcast (i8* getelementptr inbounds (%"class.feedwire::NextPageTokenDefaultTypeInternal", %"class.feedwire::NextPageTokenDefaultTypeInternal"* @_ZN8feedwire32_NextPageToken_default_instance_E, i64 0, i32 0, i32 0, i32 1, i64 0) to %"class.google::protobuf::Arena"**), align 8
  store i32 (...)** bitcast (i8** getelementptr inbounds ({ [16 x i8*] }, { [16 x i8*] }* @_ZTVN8feedwire13NextPageTokenE, i64 0, inrange i32 0, i64 2) to i32 (...)**), i32 (...)*** bitcast (%"class.feedwire::NextPageTokenDefaultTypeInternal"* @_ZN8feedwire32_NextPageToken_default_instance_E to i32 (...)***), align 8
  store i32 0, i32* bitcast (i8* getelementptr inbounds (%"class.feedwire::NextPageTokenDefaultTypeInternal", %"class.feedwire::NextPageTokenDefaultTypeInternal"* @_ZN8feedwire32_NextPageToken_default_instance_E, i64 0, i32 0, i32 0, i32 1, i64 8) to i32*), align 8
  store i32 0, i32* bitcast (i8* getelementptr inbounds (%"class.feedwire::NextPageTokenDefaultTypeInternal", %"class.feedwire::NextPageTokenDefaultTypeInternal"* @_ZN8feedwire32_NextPageToken_default_instance_E, i64 0, i32 0, i32 0, i32 1, i64 12) to i32*), align 4
  %1 = load atomic i32, i32* getelementptr inbounds ({ { { { i32 } }, i32, i32, void ()* }, [1 x i8*] }, { { { { i32 } }, i32, i32, void ()* }, [1 x i8*] }* @scc_info_NextPageToken_components_2ffeed_2fcore_2fproto_2fv2_2fwire_2fnext_5fpage_5ftoken_2eproto, i64 0, i32 0, i32 0, i32 0, i32 0) acquire, align 8
  %2 = icmp eq i32 %1, 0
  br i1 %2, label %4, label %3, !prof !2

3:                                                ; preds = %0
  tail call void @_ZN6google8protobuf8internal11InitSCCImplEPNS1_11SCCInfoBaseE(%"struct.google::protobuf::internal::SCCInfoBase"* bitcast ({ { { { i32 } }, i32, i32, void ()* }, [1 x i8*] }* @scc_info_NextPageToken_components_2ffeed_2fcore_2fproto_2fv2_2fwire_2fnext_5fpage_5ftoken_2eproto to %"struct.google::protobuf::internal::SCCInfoBase"*)) #13
  br label %4

4:                                                ; preds = %0, %3
  store <2 x %"class.std::__1::basic_string"*> <%"class.std::__1::basic_string"* bitcast (%"class.google::protobuf::internal::ExplicitlyConstructed.4"* @_ZN6google8protobuf8internal26fixed_address_empty_stringE to %"class.std::__1::basic_string"*), %"class.std::__1::basic_string"* bitcast (%"class.google::protobuf::internal::ExplicitlyConstructed.4"* @_ZN6google8protobuf8internal26fixed_address_empty_stringE to %"class.std::__1::basic_string"*)>, <2 x %"class.std::__1::basic_string"*>* bitcast (i8* getelementptr inbounds (%"class.feedwire::NextPageTokenDefaultTypeInternal", %"class.feedwire::NextPageTokenDefaultTypeInternal"* @_ZN8feedwire32_NextPageToken_default_instance_E, i64 0, i32 0, i32 0, i32 1, i64 16) to <2 x %"class.std::__1::basic_string"*>*), align 8
  store %"class.feedwire::TokenHandling"* null, %"class.feedwire::TokenHandling"** bitcast (i8* getelementptr inbounds (%"class.feedwire::NextPageTokenDefaultTypeInternal", %"class.feedwire::NextPageTokenDefaultTypeInternal"* @_ZN8feedwire32_NextPageToken_default_instance_E, i64 0, i32 0, i32 0, i32 1, i64 32) to %"class.feedwire::TokenHandling"**), align 8
  tail call void @_ZN6google8protobuf8internal13OnShutdownRunEPFvPKvES3_(void (i8*)* nonnull @_ZN6google8protobuf8internal14DestroyMessageEPKv, i8* bitcast (%"class.feedwire::NextPageTokenDefaultTypeInternal"* @_ZN8feedwire32_NextPageToken_default_instance_E to i8*)) #13
  ret void
}

; Function Attrs: nounwind ssp uwtable
define internal void @_ZL109InitDefaultsscc_info_TokenHandling_components_2ffeed_2fcore_2fproto_2fv2_2fwire_2fnext_5fpage_5ftoken_2eprotov() #0 {
  tail call void @_ZN6google8protobuf8internal13VerifyVersionEiiPKc(i32 3013000, i32 3013000, i8* getelementptr inbounds ([61 x i8], [61 x i8]* @.str, i64 0, i64 0)) #13
  store %"class.google::protobuf::Arena"* null, %"class.google::protobuf::Arena"** bitcast (i8* getelementptr inbounds (%"class.feedwire::TokenHandlingDefaultTypeInternal", %"class.feedwire::TokenHandlingDefaultTypeInternal"* @_ZN8feedwire32_TokenHandling_default_instance_E, i64 0, i32 0, i32 0, i32 1, i64 0) to %"class.google::protobuf::Arena"**), align 8
  store i32 (...)** bitcast (i8** getelementptr inbounds ({ [16 x i8*] }, { [16 x i8*] }* @_ZTVN8feedwire13TokenHandlingE, i64 0, inrange i32 0, i64 2) to i32 (...)**), i32 (...)*** bitcast (%"class.feedwire::TokenHandlingDefaultTypeInternal"* @_ZN8feedwire32_TokenHandling_default_instance_E to i32 (...)***), align 8
  store i32 0, i32* bitcast (i8* getelementptr inbounds (%"class.feedwire::TokenHandlingDefaultTypeInternal", %"class.feedwire::TokenHandlingDefaultTypeInternal"* @_ZN8feedwire32_TokenHandling_default_instance_E, i64 0, i32 0, i32 0, i32 1, i64 8) to i32*), align 8
  store i32 0, i32* bitcast (i8* getelementptr inbounds (%"class.feedwire::TokenHandlingDefaultTypeInternal", %"class.feedwire::TokenHandlingDefaultTypeInternal"* @_ZN8feedwire32_TokenHandling_default_instance_E, i64 0, i32 0, i32 0, i32 1, i64 12) to i32*), align 4
  store i32 0, i32* bitcast (i8* getelementptr inbounds (%"class.feedwire::TokenHandlingDefaultTypeInternal", %"class.feedwire::TokenHandlingDefaultTypeInternal"* @_ZN8feedwire32_TokenHandling_default_instance_E, i64 0, i32 0, i32 0, i32 1, i64 16) to i32*), align 8
  tail call void @_ZN6google8protobuf8internal13OnShutdownRunEPFvPKvES3_(void (i8*)* nonnull @_ZN6google8protobuf8internal14DestroyMessageEPKv, i8* bitcast (%"class.feedwire::TokenHandlingDefaultTypeInternal"* @_ZN8feedwire32_TokenHandling_default_instance_E to i8*)) #13
  ret void
}

; Function Attrs: norecurse nounwind readnone ssp uwtable
define hidden zeroext i1 @_ZN8feedwire34TokenHandling_LoadStrategy_IsValidEi(i32) local_unnamed_addr #1 {
  %2 = icmp ult i32 %0, 3
  ret i1 %2
}

; Function Attrs: argmemonly nounwind
declare {}* @llvm.invariant.start.p0i8(i64 immarg, i8* nocapture) #2

; Function Attrs: nounwind ssp uwtable
define hidden dereferenceable(24) %"class.std::__1::basic_string"* @_ZN8feedwire31TokenHandling_LoadStrategy_NameENS_26TokenHandling_LoadStrategyE(i32) local_unnamed_addr #0 {
  %2 = load atomic i8, i8* bitcast (i64* @_ZGVZN8feedwire31TokenHandling_LoadStrategy_NameENS_26TokenHandling_LoadStrategyEE5dummy to i8*) acquire, align 8
  %3 = icmp eq i8 %2, 0
  br i1 %3, label %4, label %11, !prof !3

4:                                                ; preds = %1
  %5 = tail call i32 @__cxa_guard_acquire(i64* nonnull @_ZGVZN8feedwire31TokenHandling_LoadStrategy_NameENS_26TokenHandling_LoadStrategyEE5dummy) #13
  %6 = icmp eq i32 %5, 0
  br i1 %6, label %11, label %7

7:                                                ; preds = %4
  %8 = tail call zeroext i1 @_ZN6google8protobuf8internal21InitializeEnumStringsEPKNS1_9EnumEntryEPKimPNS1_21ExplicitlyConstructedINSt3__112basic_stringIcNS8_11char_traitsIcEENS8_9allocatorIcEEEEEE(%"struct.google::protobuf::internal::EnumEntry"* getelementptr inbounds ([3 x %"struct.google::protobuf::internal::EnumEntry"], [3 x %"struct.google::protobuf::internal::EnumEntry"]* @_ZN8feedwireL34TokenHandling_LoadStrategy_entriesE, i64 0, i64 0), i32* getelementptr inbounds ([3 x i32], [3 x i32]* @_ZN8feedwireL44TokenHandling_LoadStrategy_entries_by_numberE, i64 0, i64 0), i64 3, %"class.google::protobuf::internal::ExplicitlyConstructed.4"* getelementptr inbounds ([3 x %"class.google::protobuf::internal::ExplicitlyConstructed.4"], [3 x %"class.google::protobuf::internal::ExplicitlyConstructed.4"]* @_ZN8feedwireL34TokenHandling_LoadStrategy_stringsE, i64 0, i64 0)) #13
  %9 = zext i1 %8 to i8
  store i8 %9, i8* @_ZZN8feedwire31TokenHandling_LoadStrategy_NameENS_26TokenHandling_LoadStrategyEE5dummy, align 1
  %10 = tail call {}* @llvm.invariant.start.p0i8(i64 1, i8* nonnull @_ZZN8feedwire31TokenHandling_LoadStrategy_NameENS_26TokenHandling_LoadStrategyEE5dummy)
  tail call void @__cxa_guard_release(i64* nonnull @_ZGVZN8feedwire31TokenHandling_LoadStrategy_NameENS_26TokenHandling_LoadStrategyEE5dummy) #13
  br label %11

11:                                               ; preds = %4, %7, %1
  %12 = tail call i32 @_ZN6google8protobuf8internal14LookUpEnumNameEPKNS1_9EnumEntryEPKimi(%"struct.google::protobuf::internal::EnumEntry"* getelementptr inbounds ([3 x %"struct.google::protobuf::internal::EnumEntry"], [3 x %"struct.google::protobuf::internal::EnumEntry"]* @_ZN8feedwireL34TokenHandling_LoadStrategy_entriesE, i64 0, i64 0), i32* getelementptr inbounds ([3 x i32], [3 x i32]* @_ZN8feedwireL44TokenHandling_LoadStrategy_entries_by_numberE, i64 0, i64 0), i64 3, i32 %0) #13
  %13 = icmp eq i32 %12, -1
  br i1 %13, label %14, label %16

14:                                               ; preds = %11
  %15 = tail call dereferenceable(24) %"class.std::__1::basic_string"* @_ZN6google8protobuf8internal14GetEmptyStringEv() #13
  br label %20

16:                                               ; preds = %11
  %17 = sext i32 %12 to i64
  %18 = getelementptr inbounds [3 x %"class.google::protobuf::internal::ExplicitlyConstructed.4"], [3 x %"class.google::protobuf::internal::ExplicitlyConstructed.4"]* @_ZN8feedwireL34TokenHandling_LoadStrategy_stringsE, i64 0, i64 %17
  %19 = bitcast %"class.google::protobuf::internal::ExplicitlyConstructed.4"* %18 to %"class.std::__1::basic_string"*
  br label %20

20:                                               ; preds = %16, %14
  %21 = phi %"class.std::__1::basic_string"* [ %15, %14 ], [ %19, %16 ]
  ret %"class.std::__1::basic_string"* %21
}

; Function Attrs: nofree nounwind
declare i32 @__cxa_guard_acquire(i64*) local_unnamed_addr #3

declare zeroext i1 @_ZN6google8protobuf8internal21InitializeEnumStringsEPKNS1_9EnumEntryEPKimPNS1_21ExplicitlyConstructedINSt3__112basic_stringIcNS8_11char_traitsIcEENS8_9allocatorIcEEEEEE(%"struct.google::protobuf::internal::EnumEntry"*, i32*, i64, %"class.google::protobuf::internal::ExplicitlyConstructed.4"*) local_unnamed_addr #4

; Function Attrs: nofree nounwind
declare void @__cxa_guard_release(i64*) local_unnamed_addr #3

; Function Attrs: argmemonly nounwind
declare void @llvm.lifetime.start.p0i8(i64 immarg, i8* nocapture) #2

declare i32 @_ZN6google8protobuf8internal14LookUpEnumNameEPKNS1_9EnumEntryEPKimi(%"struct.google::protobuf::internal::EnumEntry"*, i32*, i64, i32) local_unnamed_addr #4

declare dereferenceable(24) %"class.std::__1::basic_string"* @_ZN6google8protobuf8internal14GetEmptyStringEv() local_unnamed_addr #4

; Function Attrs: argmemonly nounwind
declare void @llvm.lifetime.end.p0i8(i64 immarg, i8* nocapture) #2

; Function Attrs: nounwind ssp uwtable
define hidden zeroext i1 @_ZN8feedwire32TokenHandling_LoadStrategy_ParseERKNSt3__112basic_stringIcNS0_11char_traitsIcEENS0_9allocatorIcEEEEPNS_26TokenHandling_LoadStrategyE(%"class.std::__1::basic_string"* dereferenceable(24), i32* nocapture) local_unnamed_addr #0 {
  %3 = alloca i32, align 4
  %4 = bitcast i32* %3 to i8*
  call void @llvm.lifetime.start.p0i8(i64 4, i8* nonnull %4) #13
  store i32 -1431655766, i32* %3, align 4
  %5 = bitcast %"class.std::__1::basic_string"* %0 to %"struct.std::__1::basic_string<char, std::__1::char_traits<char>, std::__1::allocator<char> >::__short"*
  %6 = getelementptr inbounds %"struct.std::__1::basic_string<char, std::__1::char_traits<char>, std::__1::allocator<char> >::__short", %"struct.std::__1::basic_string<char, std::__1::char_traits<char>, std::__1::allocator<char> >::__short"* %5, i64 0, i32 1, i32 0
  %7 = load i8, i8* %6, align 1
  %8 = icmp slt i8 %7, 0
  %9 = getelementptr inbounds %"class.std::__1::basic_string", %"class.std::__1::basic_string"* %0, i64 0, i32 0, i32 0, i32 0, i32 0, i32 0, i32 0
  %10 = load i8*, i8** %9, align 8
  %11 = bitcast %"class.std::__1::basic_string"* %0 to i8*
  %12 = select i1 %8, i8* %10, i8* %11
  br i1 %8, label %15, label %13

13:                                               ; preds = %2
  %14 = zext i8 %7 to i64
  br label %20

15:                                               ; preds = %2
  %16 = getelementptr inbounds %"class.std::__1::basic_string", %"class.std::__1::basic_string"* %0, i64 0, i32 0, i32 0, i32 0, i32 0, i32 0, i32 1
  %17 = load i64, i64* %16, align 8
  %18 = icmp slt i64 %17, 0
  br i1 %18, label %19, label %20

19:                                               ; preds = %15
  tail call void @_ZN6google8protobuf11StringPiece18LogFatalSizeTooBigEmPKc(i64 %17, i8* getelementptr inbounds ([25 x i8], [25 x i8]* @.str.14, i64 0, i64 0)) #13
  br label %20

20:                                               ; preds = %13, %15, %19
  %21 = phi i64 [ %14, %13 ], [ %17, %15 ], [ %17, %19 ]
  %22 = call zeroext i1 @_ZN6google8protobuf8internal15LookUpEnumValueEPKNS1_9EnumEntryEmNS0_11StringPieceEPi(%"struct.google::protobuf::internal::EnumEntry"* getelementptr inbounds ([3 x %"struct.google::protobuf::internal::EnumEntry"], [3 x %"struct.google::protobuf::internal::EnumEntry"]* @_ZN8feedwireL34TokenHandling_LoadStrategy_entriesE, i64 0, i64 0), i64 3, i8* %12, i64 %21, i32* nonnull %3) #13
  br i1 %22, label %23, label %25

23:                                               ; preds = %20
  %24 = load i32, i32* %3, align 4
  store i32 %24, i32* %1, align 4
  br label %25

25:                                               ; preds = %23, %20
  call void @llvm.lifetime.end.p0i8(i64 4, i8* nonnull %4) #13
  ret i1 %22
}

declare zeroext i1 @_ZN6google8protobuf8internal15LookUpEnumValueEPKNS1_9EnumEntryEmNS0_11StringPieceEPi(%"struct.google::protobuf::internal::EnumEntry"*, i64, i8*, i64, i32*) local_unnamed_addr #4

; Function Attrs: norecurse nounwind readonly ssp uwtable
define hidden dereferenceable(32) %"class.feedwire::TokenHandling"* @_ZN8feedwire13NextPageToken9_Internal14token_handlingEPKS0_(%"class.feedwire::NextPageToken"* nocapture readonly) local_unnamed_addr #5 align 2 {
  %2 = getelementptr inbounds %"class.feedwire::NextPageToken", %"class.feedwire::NextPageToken"* %0, i64 0, i32 5
  %3 = load %"class.feedwire::TokenHandling"*, %"class.feedwire::TokenHandling"** %2, align 8
  ret %"class.feedwire::TokenHandling"* %3
}

; Function Attrs: nounwind ssp uwtable
define hidden void @_ZN8feedwire13NextPageTokenC2EPN6google8protobuf5ArenaE(%"class.feedwire::NextPageToken"* nocapture, %"class.google::protobuf::Arena"*) unnamed_addr #0 align 2 {
  %3 = getelementptr inbounds %"class.feedwire::NextPageToken", %"class.feedwire::NextPageToken"* %0, i64 0, i32 0, i32 0
  %4 = getelementptr inbounds %"class.feedwire::NextPageToken", %"class.feedwire::NextPageToken"* %0, i64 0, i32 0, i32 1
  %5 = bitcast %"class.google::protobuf::internal::InternalMetadata"* %4 to %"class.google::protobuf::Arena"**
  store %"class.google::protobuf::Arena"* %1, %"class.google::protobuf::Arena"** %5, align 8
  store i32 (...)** bitcast (i8** getelementptr inbounds ({ [16 x i8*] }, { [16 x i8*] }* @_ZTVN8feedwire13NextPageTokenE, i64 0, inrange i32 0, i64 2) to i32 (...)**), i32 (...)*** %3, align 8
  %6 = getelementptr inbounds %"class.feedwire::NextPageToken", %"class.feedwire::NextPageToken"* %0, i64 0, i32 1, i32 0, i64 0
  store i32 0, i32* %6, align 4
  %7 = getelementptr inbounds %"class.feedwire::NextPageToken", %"class.feedwire::NextPageToken"* %0, i64 0, i32 2, i32 0, i32 0, i32 0, i32 0, i32 0, i32 0
  store i32 0, i32* %7, align 4
  %8 = load atomic i32, i32* getelementptr inbounds ({ { { { i32 } }, i32, i32, void ()* }, [1 x i8*] }, { { { { i32 } }, i32, i32, void ()* }, [1 x i8*] }* @scc_info_NextPageToken_components_2ffeed_2fcore_2fproto_2fv2_2fwire_2fnext_5fpage_5ftoken_2eproto, i64 0, i32 0, i32 0, i32 0, i32 0) acquire, align 8
  %9 = icmp eq i32 %8, 0
  br i1 %9, label %11, label %10, !prof !2

10:                                               ; preds = %2
  tail call void @_ZN6google8protobuf8internal11InitSCCImplEPNS1_11SCCInfoBaseE(%"struct.google::protobuf::internal::SCCInfoBase"* bitcast ({ { { { i32 } }, i32, i32, void ()* }, [1 x i8*] }* @scc_info_NextPageToken_components_2ffeed_2fcore_2fproto_2fv2_2fwire_2fnext_5fpage_5ftoken_2eproto to %"struct.google::protobuf::internal::SCCInfoBase"*)) #13
  br label %11

11:                                               ; preds = %2, %10
  %12 = getelementptr inbounds %"class.feedwire::NextPageToken", %"class.feedwire::NextPageToken"* %0, i64 0, i32 3, i32 0
  %13 = bitcast %"class.std::__1::basic_string"** %12 to <2 x %"class.std::__1::basic_string"*>*
  store <2 x %"class.std::__1::basic_string"*> <%"class.std::__1::basic_string"* bitcast (%"class.google::protobuf::internal::ExplicitlyConstructed.4"* @_ZN6google8protobuf8internal26fixed_address_empty_stringE to %"class.std::__1::basic_string"*), %"class.std::__1::basic_string"* bitcast (%"class.google::protobuf::internal::ExplicitlyConstructed.4"* @_ZN6google8protobuf8internal26fixed_address_empty_stringE to %"class.std::__1::basic_string"*)>, <2 x %"class.std::__1::basic_string"*>* %13, align 8
  %14 = getelementptr inbounds %"class.feedwire::NextPageToken", %"class.feedwire::NextPageToken"* %0, i64 0, i32 5
  store %"class.feedwire::TokenHandling"* null, %"class.feedwire::TokenHandling"** %14, align 8
  ret void
}

; Function Attrs: nounwind ssp uwtable
define hidden void @_ZN8feedwire13NextPageTokenC2ERKS0_(%"class.feedwire::NextPageToken"*, %"class.feedwire::NextPageToken"* nocapture readonly dereferenceable(48)) unnamed_addr #0 align 2 {
  %3 = getelementptr inbounds %"class.feedwire::NextPageToken", %"class.feedwire::NextPageToken"* %0, i64 0, i32 0, i32 0
  %4 = getelementptr inbounds %"class.feedwire::NextPageToken", %"class.feedwire::NextPageToken"* %0, i64 0, i32 0, i32 1, i32 0
  store i8* null, i8** %4, align 8
  store i32 (...)** bitcast (i8** getelementptr inbounds ({ [16 x i8*] }, { [16 x i8*] }* @_ZTVN8feedwire13NextPageTokenE, i64 0, inrange i32 0, i64 2) to i32 (...)**), i32 (...)*** %3, align 8
  %5 = getelementptr inbounds %"class.feedwire::NextPageToken", %"class.feedwire::NextPageToken"* %1, i64 0, i32 1, i32 0, i64 0
  %6 = getelementptr inbounds %"class.feedwire::NextPageToken", %"class.feedwire::NextPageToken"* %0, i64 0, i32 1, i32 0, i64 0
  %7 = load i32, i32* %5, align 8
  store i32 %7, i32* %6, align 8
  %8 = getelementptr inbounds %"class.feedwire::NextPageToken", %"class.feedwire::NextPageToken"* %0, i64 0, i32 2, i32 0, i32 0, i32 0, i32 0, i32 0, i32 0
  store i32 0, i32* %8, align 4
  %9 = getelementptr inbounds %"class.feedwire::NextPageToken", %"class.feedwire::NextPageToken"* %0, i64 0, i32 0, i32 1
  %10 = getelementptr inbounds %"class.feedwire::NextPageToken", %"class.feedwire::NextPageToken"* %1, i64 0, i32 0, i32 1
  %11 = bitcast %"class.google::protobuf::internal::InternalMetadata"* %10 to i64*
  %12 = load i64, i64* %11, align 8
  %13 = and i64 %12, 1
  %14 = icmp eq i64 %13, 0
  br i1 %14, label %33, label %15

15:                                               ; preds = %2
  %16 = and i64 %12, -2
  %17 = inttoptr i64 %16 to %"struct.google::protobuf::internal::InternalMetadata::Container"*
  %18 = getelementptr inbounds %"struct.google::protobuf::internal::InternalMetadata::Container", %"struct.google::protobuf::internal::InternalMetadata::Container"* %17, i64 0, i32 1
  %19 = tail call %"class.std::__1::basic_string"* @_ZN6google8protobuf8internal16InternalMetadata27mutable_unknown_fields_slowINSt3__112basic_stringIcNS4_11char_traitsIcEENS4_9allocatorIcEEEEEEPT_v(%"class.google::protobuf::internal::InternalMetadata"* %9) #13
  %20 = bitcast %"class.std::__1::basic_string"* %18 to %"struct.std::__1::basic_string<char, std::__1::char_traits<char>, std::__1::allocator<char> >::__short"*
  %21 = getelementptr inbounds %"struct.std::__1::basic_string<char, std::__1::char_traits<char>, std::__1::allocator<char> >::__short", %"struct.std::__1::basic_string<char, std::__1::char_traits<char>, std::__1::allocator<char> >::__short"* %20, i64 0, i32 1, i32 0
  %22 = load i8, i8* %21, align 1
  %23 = icmp slt i8 %22, 0
  %24 = getelementptr inbounds %"class.std::__1::basic_string", %"class.std::__1::basic_string"* %18, i64 0, i32 0, i32 0, i32 0, i32 0, i32 0, i32 0
  %25 = load i8*, i8** %24, align 8
  %26 = getelementptr inbounds %"struct.google::protobuf::internal::InternalMetadata::Container", %"struct.google::protobuf::internal::InternalMetadata::Container"* %17, i64 0, i32 1, i32 0, i32 0, i32 0, i32 0, i32 0, i32 1
  %27 = load i64, i64* %26, align 8
  %28 = bitcast %"class.std::__1::basic_string"* %18 to i8*
  %29 = zext i8 %22 to i64
  %30 = select i1 %23, i8* %25, i8* %28
  %31 = select i1 %23, i64 %27, i64 %29
  %32 = tail call dereferenceable(24) %"class.std::__1::basic_string"* @_ZNSt3__112basic_stringIcNS_11char_traitsIcEENS_9allocatorIcEEE6appendEPKcm(%"class.std::__1::basic_string"* %19, i8* %30, i64 %31) #13
  br label %33

33:                                               ; preds = %2, %15
  %34 = getelementptr inbounds %"class.feedwire::NextPageToken", %"class.feedwire::NextPageToken"* %0, i64 0, i32 3
  %35 = getelementptr inbounds %"struct.google::protobuf::internal::ArenaStringPtr", %"struct.google::protobuf::internal::ArenaStringPtr"* %34, i64 0, i32 0
  store %"class.std::__1::basic_string"* bitcast (%"class.google::protobuf::internal::ExplicitlyConstructed.4"* @_ZN6google8protobuf8internal26fixed_address_empty_stringE to %"class.std::__1::basic_string"*), %"class.std::__1::basic_string"** %35, align 8
  %36 = load i32, i32* %5, align 4
  %37 = and i32 %36, 1
  %38 = icmp eq i32 %37, 0
  br i1 %38, label %55, label %39

39:                                               ; preds = %33
  %40 = getelementptr inbounds %"class.feedwire::NextPageToken", %"class.feedwire::NextPageToken"* %1, i64 0, i32 3, i32 0
  %41 = load %"class.std::__1::basic_string"*, %"class.std::__1::basic_string"** %40, align 8
  %42 = bitcast %"class.google::protobuf::internal::InternalMetadata"* %9 to i64*
  %43 = load i64, i64* %42, align 8
  %44 = and i64 %43, 1
  %45 = icmp eq i64 %44, 0
  %46 = and i64 %43, -2
  br i1 %45, label %51, label %47, !prof !2

47:                                               ; preds = %39
  %48 = inttoptr i64 %46 to %"struct.google::protobuf::internal::InternalMetadata::ContainerBase"*
  %49 = getelementptr inbounds %"struct.google::protobuf::internal::InternalMetadata::ContainerBase", %"struct.google::protobuf::internal::InternalMetadata::ContainerBase"* %48, i64 0, i32 0
  %50 = load %"class.google::protobuf::Arena"*, %"class.google::protobuf::Arena"** %49, align 8
  br label %53

51:                                               ; preds = %39
  %52 = inttoptr i64 %46 to %"class.google::protobuf::Arena"*
  br label %53

53:                                               ; preds = %47, %51
  %54 = phi %"class.google::protobuf::Arena"* [ %50, %47 ], [ %52, %51 ]
  tail call void @_ZN6google8protobuf8internal14ArenaStringPtr14CreateInstanceEPNS0_5ArenaEPKNSt3__112basic_stringIcNS5_11char_traitsIcEENS5_9allocatorIcEEEE(%"struct.google::protobuf::internal::ArenaStringPtr"* %34, %"class.google::protobuf::Arena"* %54, %"class.std::__1::basic_string"* %41) #13
  br label %55

55:                                               ; preds = %33, %53
  %56 = getelementptr inbounds %"class.feedwire::NextPageToken", %"class.feedwire::NextPageToken"* %0, i64 0, i32 4
  %57 = getelementptr inbounds %"struct.google::protobuf::internal::ArenaStringPtr", %"struct.google::protobuf::internal::ArenaStringPtr"* %56, i64 0, i32 0
  store %"class.std::__1::basic_string"* bitcast (%"class.google::protobuf::internal::ExplicitlyConstructed.4"* @_ZN6google8protobuf8internal26fixed_address_empty_stringE to %"class.std::__1::basic_string"*), %"class.std::__1::basic_string"** %57, align 8
  %58 = load i32, i32* %5, align 4
  %59 = and i32 %58, 2
  %60 = icmp eq i32 %59, 0
  br i1 %60, label %78, label %61

61:                                               ; preds = %55
  %62 = getelementptr inbounds %"class.feedwire::NextPageToken", %"class.feedwire::NextPageToken"* %1, i64 0, i32 4, i32 0
  %63 = load %"class.std::__1::basic_string"*, %"class.std::__1::basic_string"** %62, align 8
  %64 = bitcast %"class.google::protobuf::internal::InternalMetadata"* %9 to i64*
  %65 = load i64, i64* %64, align 8
  %66 = and i64 %65, 1
  %67 = icmp eq i64 %66, 0
  %68 = and i64 %65, -2
  br i1 %67, label %73, label %69, !prof !2

69:                                               ; preds = %61
  %70 = inttoptr i64 %68 to %"struct.google::protobuf::internal::InternalMetadata::ContainerBase"*
  %71 = getelementptr inbounds %"struct.google::protobuf::internal::InternalMetadata::ContainerBase", %"struct.google::protobuf::internal::InternalMetadata::ContainerBase"* %70, i64 0, i32 0
  %72 = load %"class.google::protobuf::Arena"*, %"class.google::protobuf::Arena"** %71, align 8
  br label %75

73:                                               ; preds = %61
  %74 = inttoptr i64 %68 to %"class.google::protobuf::Arena"*
  br label %75

75:                                               ; preds = %69, %73
  %76 = phi %"class.google::protobuf::Arena"* [ %72, %69 ], [ %74, %73 ]
  tail call void @_ZN6google8protobuf8internal14ArenaStringPtr14CreateInstanceEPNS0_5ArenaEPKNSt3__112basic_stringIcNS5_11char_traitsIcEENS5_9allocatorIcEEEE(%"struct.google::protobuf::internal::ArenaStringPtr"* %56, %"class.google::protobuf::Arena"* %76, %"class.std::__1::basic_string"* %63) #13
  %77 = load i32, i32* %5, align 4
  br label %78

78:                                               ; preds = %55, %75
  %79 = phi i32 [ %58, %55 ], [ %77, %75 ]
  %80 = and i32 %79, 4
  %81 = icmp eq i32 %80, 0
  br i1 %81, label %126, label %82

82:                                               ; preds = %78
  %83 = getelementptr inbounds %"class.feedwire::NextPageToken", %"class.feedwire::NextPageToken"* %1, i64 0, i32 5
  %84 = load %"class.feedwire::TokenHandling"*, %"class.feedwire::TokenHandling"** %83, align 8, !nonnull !4
  %85 = tail call i8* @_Znwm(i64 32) #14
  %86 = bitcast i8* %85 to i32 (...)***
  %87 = getelementptr inbounds i8, i8* %85, i64 8
  %88 = bitcast i8* %87 to i8**
  store i8* null, i8** %88, align 8
  store i32 (...)** bitcast (i8** getelementptr inbounds ({ [16 x i8*] }, { [16 x i8*] }* @_ZTVN8feedwire13TokenHandlingE, i64 0, inrange i32 0, i64 2) to i32 (...)**), i32 (...)*** %86, align 8
  %89 = getelementptr inbounds %"class.feedwire::TokenHandling", %"class.feedwire::TokenHandling"* %84, i64 0, i32 1, i32 0, i64 0
  %90 = getelementptr inbounds i8, i8* %85, i64 16
  %91 = bitcast i8* %90 to i32*
  %92 = load i32, i32* %89, align 8
  store i32 %92, i32* %91, align 8
  %93 = getelementptr inbounds i8, i8* %85, i64 20
  %94 = bitcast i8* %93 to i32*
  store i32 0, i32* %94, align 4
  %95 = getelementptr inbounds %"class.feedwire::TokenHandling", %"class.feedwire::TokenHandling"* %84, i64 0, i32 0, i32 1
  %96 = bitcast %"class.google::protobuf::internal::InternalMetadata"* %95 to i64*
  %97 = load i64, i64* %96, align 8
  %98 = and i64 %97, 1
  %99 = icmp eq i64 %98, 0
  br i1 %99, label %119, label %100

100:                                              ; preds = %82
  %101 = bitcast i8* %87 to %"class.google::protobuf::internal::InternalMetadata"*
  %102 = and i64 %97, -2
  %103 = inttoptr i64 %102 to %"struct.google::protobuf::internal::InternalMetadata::Container"*
  %104 = getelementptr inbounds %"struct.google::protobuf::internal::InternalMetadata::Container", %"struct.google::protobuf::internal::InternalMetadata::Container"* %103, i64 0, i32 1
  %105 = tail call %"class.std::__1::basic_string"* @_ZN6google8protobuf8internal16InternalMetadata27mutable_unknown_fields_slowINSt3__112basic_stringIcNS4_11char_traitsIcEENS4_9allocatorIcEEEEEEPT_v(%"class.google::protobuf::internal::InternalMetadata"* %101) #13
  %106 = bitcast %"class.std::__1::basic_string"* %104 to %"struct.std::__1::basic_string<char, std::__1::char_traits<char>, std::__1::allocator<char> >::__short"*
  %107 = getelementptr inbounds %"struct.std::__1::basic_string<char, std::__1::char_traits<char>, std::__1::allocator<char> >::__short", %"struct.std::__1::basic_string<char, std::__1::char_traits<char>, std::__1::allocator<char> >::__short"* %106, i64 0, i32 1, i32 0
  %108 = load i8, i8* %107, align 1
  %109 = icmp slt i8 %108, 0
  %110 = getelementptr inbounds %"class.std::__1::basic_string", %"class.std::__1::basic_string"* %104, i64 0, i32 0, i32 0, i32 0, i32 0, i32 0, i32 0
  %111 = load i8*, i8** %110, align 8
  %112 = getelementptr inbounds %"struct.google::protobuf::internal::InternalMetadata::Container", %"struct.google::protobuf::internal::InternalMetadata::Container"* %103, i64 0, i32 1, i32 0, i32 0, i32 0, i32 0, i32 0, i32 1
  %113 = load i64, i64* %112, align 8
  %114 = bitcast %"class.std::__1::basic_string"* %104 to i8*
  %115 = zext i8 %108 to i64
  %116 = select i1 %109, i8* %111, i8* %114
  %117 = select i1 %109, i64 %113, i64 %115
  %118 = tail call dereferenceable(24) %"class.std::__1::basic_string"* @_ZNSt3__112basic_stringIcNS_11char_traitsIcEENS_9allocatorIcEEE6appendEPKcm(%"class.std::__1::basic_string"* %105, i8* %116, i64 %117) #13
  br label %119

119:                                              ; preds = %82, %100
  %120 = getelementptr inbounds %"class.feedwire::TokenHandling", %"class.feedwire::TokenHandling"* %84, i64 0, i32 3
  %121 = load i32, i32* %120, align 8
  %122 = getelementptr inbounds i8, i8* %85, i64 24
  %123 = bitcast i8* %122 to i32*
  store i32 %121, i32* %123, align 8
  %124 = getelementptr inbounds %"class.feedwire::NextPageToken", %"class.feedwire::NextPageToken"* %0, i64 0, i32 5
  %125 = bitcast %"class.feedwire::TokenHandling"** %124 to i8**
  store i8* %85, i8** %125, align 8
  br label %128

126:                                              ; preds = %78
  %127 = getelementptr inbounds %"class.feedwire::NextPageToken", %"class.feedwire::NextPageToken"* %0, i64 0, i32 5
  store %"class.feedwire::TokenHandling"* null, %"class.feedwire::TokenHandling"** %127, align 8
  br label %128

128:                                              ; preds = %126, %119
  ret void
}

; Function Attrs: argmemonly nounwind
declare void @llvm.memcpy.p0i8.p0i8.i64(i8* nocapture writeonly, i8* nocapture readonly, i64, i1 immarg) #2

; Function Attrs: nobuiltin nofree
declare noalias nonnull i8* @_Znwm(i64) local_unnamed_addr #6

; Function Attrs: nounwind ssp uwtable
define hidden void @_ZN8feedwire13NextPageTokenD2Ev(%"class.feedwire::NextPageToken"*) unnamed_addr #0 align 2 {
  %2 = getelementptr inbounds %"class.feedwire::NextPageToken", %"class.feedwire::NextPageToken"* %0, i64 0, i32 0, i32 0
  store i32 (...)** bitcast (i8** getelementptr inbounds ({ [16 x i8*] }, { [16 x i8*] }* @_ZTVN8feedwire13NextPageTokenE, i64 0, inrange i32 0, i64 2) to i32 (...)**), i32 (...)*** %2, align 8
  %3 = getelementptr inbounds %"class.feedwire::NextPageToken", %"class.feedwire::NextPageToken"* %0, i64 0, i32 3
  tail call void @_ZN6google8protobuf8internal14ArenaStringPtr14DestroyNoArenaEPKNSt3__112basic_stringIcNS3_11char_traitsIcEENS3_9allocatorIcEEEE(%"struct.google::protobuf::internal::ArenaStringPtr"* %3, %"class.std::__1::basic_string"* bitcast (%"class.google::protobuf::internal::ExplicitlyConstructed.4"* @_ZN6google8protobuf8internal26fixed_address_empty_stringE to %"class.std::__1::basic_string"*)) #13
  %4 = getelementptr inbounds %"class.feedwire::NextPageToken", %"class.feedwire::NextPageToken"* %0, i64 0, i32 4
  tail call void @_ZN6google8protobuf8internal14ArenaStringPtr14DestroyNoArenaEPKNSt3__112basic_stringIcNS3_11char_traitsIcEENS3_9allocatorIcEEEE(%"struct.google::protobuf::internal::ArenaStringPtr"* %4, %"class.std::__1::basic_string"* bitcast (%"class.google::protobuf::internal::ExplicitlyConstructed.4"* @_ZN6google8protobuf8internal26fixed_address_empty_stringE to %"class.std::__1::basic_string"*)) #13
  %5 = icmp eq %"class.feedwire::NextPageToken"* %0, bitcast (%"class.feedwire::NextPageTokenDefaultTypeInternal"* @_ZN8feedwire32_NextPageToken_default_instance_E to %"class.feedwire::NextPageToken"*)
  br i1 %5, label %15, label %6

6:                                                ; preds = %1
  %7 = getelementptr inbounds %"class.feedwire::NextPageToken", %"class.feedwire::NextPageToken"* %0, i64 0, i32 5
  %8 = load %"class.feedwire::TokenHandling"*, %"class.feedwire::TokenHandling"** %7, align 8
  %9 = icmp eq %"class.feedwire::TokenHandling"* %8, null
  br i1 %9, label %15, label %10

10:                                               ; preds = %6
  %11 = bitcast %"class.feedwire::TokenHandling"* %8 to void (%"class.feedwire::TokenHandling"*)***
  %12 = load void (%"class.feedwire::TokenHandling"*)**, void (%"class.feedwire::TokenHandling"*)*** %11, align 8
  %13 = getelementptr inbounds void (%"class.feedwire::TokenHandling"*)*, void (%"class.feedwire::TokenHandling"*)** %12, i64 1
  %14 = load void (%"class.feedwire::TokenHandling"*)*, void (%"class.feedwire::TokenHandling"*)** %13, align 8
  tail call void %14(%"class.feedwire::TokenHandling"* nonnull %8) #13
  br label %15

15:                                               ; preds = %1, %6, %10
  %16 = getelementptr inbounds %"class.feedwire::NextPageToken", %"class.feedwire::NextPageToken"* %0, i64 0, i32 0, i32 1
  %17 = bitcast %"class.google::protobuf::internal::InternalMetadata"* %16 to i64*
  %18 = load i64, i64* %17, align 8
  %19 = and i64 %18, 1
  %20 = icmp eq i64 %19, 0
  br i1 %20, label %41, label %21

21:                                               ; preds = %15
  %22 = and i64 %18, -2
  %23 = inttoptr i64 %22 to %"struct.google::protobuf::internal::InternalMetadata::ContainerBase"*
  %24 = getelementptr inbounds %"struct.google::protobuf::internal::InternalMetadata::ContainerBase", %"struct.google::protobuf::internal::InternalMetadata::ContainerBase"* %23, i64 0, i32 0
  %25 = load %"class.google::protobuf::Arena"*, %"class.google::protobuf::Arena"** %24, align 8
  %26 = icmp ne %"class.google::protobuf::Arena"* %25, null
  %27 = icmp eq i64 %22, 0
  %28 = or i1 %27, %26
  br i1 %28, label %41, label %29

29:                                               ; preds = %21
  %30 = inttoptr i64 %22 to %"struct.google::protobuf::internal::InternalMetadata::Container"*
  %31 = getelementptr inbounds %"struct.google::protobuf::internal::InternalMetadata::Container", %"struct.google::protobuf::internal::InternalMetadata::Container"* %30, i64 0, i32 1
  %32 = bitcast %"class.std::__1::basic_string"* %31 to %"struct.std::__1::basic_string<char, std::__1::char_traits<char>, std::__1::allocator<char> >::__short"*
  %33 = getelementptr inbounds %"struct.std::__1::basic_string<char, std::__1::char_traits<char>, std::__1::allocator<char> >::__short", %"struct.std::__1::basic_string<char, std::__1::char_traits<char>, std::__1::allocator<char> >::__short"* %32, i64 0, i32 1, i32 0
  %34 = load i8, i8* %33, align 1
  %35 = icmp slt i8 %34, 0
  br i1 %35, label %36, label %39

36:                                               ; preds = %29
  %37 = getelementptr inbounds %"class.std::__1::basic_string", %"class.std::__1::basic_string"* %31, i64 0, i32 0, i32 0, i32 0, i32 0, i32 0, i32 0
  %38 = load i8*, i8** %37, align 8
  tail call void @_ZdlPv(i8* %38) #14
  br label %39

39:                                               ; preds = %36, %29
  %40 = inttoptr i64 %22 to i8*
  tail call void @_ZdlPv(i8* %40) #14
  br label %41

41:                                               ; preds = %15, %21, %39
  ret void
}

; Function Attrs: nounwind ssp uwtable
define hidden void @_ZN8feedwire13NextPageTokenD0Ev(%"class.feedwire::NextPageToken"*) unnamed_addr #0 align 2 {
  tail call void @_ZN8feedwire13NextPageTokenD2Ev(%"class.feedwire::NextPageToken"* %0) #13
  %2 = bitcast %"class.feedwire::NextPageToken"* %0 to i8*
  tail call void @_ZdlPv(i8* %2) #14
  ret void
}

; Function Attrs: nobuiltin nounwind
declare void @_ZdlPv(i8*) local_unnamed_addr #7

; Function Attrs: norecurse nounwind readnone ssp uwtable
define hidden void @_ZN8feedwire13NextPageToken9ArenaDtorEPv(i8* nocapture) local_unnamed_addr #1 align 2 {
  ret void
}

; Function Attrs: nofree norecurse nounwind ssp uwtable
define hidden void @_ZNK8feedwire13NextPageToken13SetCachedSizeEi(%"class.feedwire::NextPageToken"* nocapture, i32) local_unnamed_addr #8 align 2 {
  %3 = getelementptr inbounds %"class.feedwire::NextPageToken", %"class.feedwire::NextPageToken"* %0, i64 0, i32 2, i32 0, i32 0, i32 0, i32 0, i32 0, i32 0
  store atomic i32 %1, i32* %3 monotonic, align 4
  ret void
}

; Function Attrs: nounwind ssp uwtable
define hidden dereferenceable(48) %"class.feedwire::NextPageToken"* @_ZN8feedwire13NextPageToken16default_instanceEv() local_unnamed_addr #0 align 2 {
  %1 = load atomic i32, i32* getelementptr inbounds ({ { { { i32 } }, i32, i32, void ()* }, [1 x i8*] }, { { { { i32 } }, i32, i32, void ()* }, [1 x i8*] }* @scc_info_NextPageToken_components_2ffeed_2fcore_2fproto_2fv2_2fwire_2fnext_5fpage_5ftoken_2eproto, i64 0, i32 0, i32 0, i32 0, i32 0) acquire, align 8
  %2 = icmp eq i32 %1, 0
  br i1 %2, label %4, label %3, !prof !2

3:                                                ; preds = %0
  tail call void @_ZN6google8protobuf8internal11InitSCCImplEPNS1_11SCCInfoBaseE(%"struct.google::protobuf::internal::SCCInfoBase"* bitcast ({ { { { i32 } }, i32, i32, void ()* }, [1 x i8*] }* @scc_info_NextPageToken_components_2ffeed_2fcore_2fproto_2fv2_2fwire_2fnext_5fpage_5ftoken_2eproto to %"struct.google::protobuf::internal::SCCInfoBase"*)) #13
  br label %4

4:                                                ; preds = %0, %3
  ret %"class.feedwire::NextPageToken"* bitcast (%"class.feedwire::NextPageTokenDefaultTypeInternal"* @_ZN8feedwire32_NextPageToken_default_instance_E to %"class.feedwire::NextPageToken"*)
}

; Function Attrs: nofree norecurse nounwind ssp uwtable
define hidden void @_ZN8feedwire13NextPageToken5ClearEv(%"class.feedwire::NextPageToken"* nocapture) unnamed_addr #8 align 2 {
  %2 = getelementptr inbounds %"class.feedwire::NextPageToken", %"class.feedwire::NextPageToken"* %0, i64 0, i32 1, i32 0, i64 0
  %3 = load i32, i32* %2, align 4
  %4 = and i32 %3, 7
  %5 = icmp eq i32 %4, 0
  br i1 %5, label %65, label %6

6:                                                ; preds = %1
  %7 = and i32 %3, 1
  %8 = icmp eq i32 %7, 0
  br i1 %8, label %22, label %9

9:                                                ; preds = %6
  %10 = getelementptr inbounds %"class.feedwire::NextPageToken", %"class.feedwire::NextPageToken"* %0, i64 0, i32 3, i32 0
  %11 = load %"class.std::__1::basic_string"*, %"class.std::__1::basic_string"** %10, align 8
  %12 = bitcast %"class.std::__1::basic_string"* %11 to %"struct.std::__1::basic_string<char, std::__1::char_traits<char>, std::__1::allocator<char> >::__short"*
  %13 = getelementptr inbounds %"struct.std::__1::basic_string<char, std::__1::char_traits<char>, std::__1::allocator<char> >::__short", %"struct.std::__1::basic_string<char, std::__1::char_traits<char>, std::__1::allocator<char> >::__short"* %12, i64 0, i32 1, i32 0
  %14 = load i8, i8* %13, align 1
  %15 = icmp slt i8 %14, 0
  br i1 %15, label %16, label %20

16:                                               ; preds = %9
  %17 = getelementptr inbounds %"class.std::__1::basic_string", %"class.std::__1::basic_string"* %11, i64 0, i32 0, i32 0, i32 0, i32 0, i32 0, i32 0
  %18 = load i8*, i8** %17, align 8
  store i8 0, i8* %18, align 1
  %19 = getelementptr inbounds %"class.std::__1::basic_string", %"class.std::__1::basic_string"* %11, i64 0, i32 0, i32 0, i32 0, i32 0, i32 0, i32 1
  store i64 0, i64* %19, align 8
  br label %22

20:                                               ; preds = %9
  %21 = bitcast %"class.std::__1::basic_string"* %11 to i8*
  store i8 0, i8* %21, align 1
  store i8 0, i8* %13, align 1
  br label %22

22:                                               ; preds = %20, %16, %6
  %23 = and i32 %3, 2
  %24 = icmp eq i32 %23, 0
  br i1 %24, label %38, label %25

25:                                               ; preds = %22
  %26 = getelementptr inbounds %"class.feedwire::NextPageToken", %"class.feedwire::NextPageToken"* %0, i64 0, i32 4, i32 0
  %27 = load %"class.std::__1::basic_string"*, %"class.std::__1::basic_string"** %26, align 8
  %28 = bitcast %"class.std::__1::basic_string"* %27 to %"struct.std::__1::basic_string<char, std::__1::char_traits<char>, std::__1::allocator<char> >::__short"*
  %29 = getelementptr inbounds %"struct.std::__1::basic_string<char, std::__1::char_traits<char>, std::__1::allocator<char> >::__short", %"struct.std::__1::basic_string<char, std::__1::char_traits<char>, std::__1::allocator<char> >::__short"* %28, i64 0, i32 1, i32 0
  %30 = load i8, i8* %29, align 1
  %31 = icmp slt i8 %30, 0
  br i1 %31, label %32, label %36

32:                                               ; preds = %25
  %33 = getelementptr inbounds %"class.std::__1::basic_string", %"class.std::__1::basic_string"* %27, i64 0, i32 0, i32 0, i32 0, i32 0, i32 0, i32 0
  %34 = load i8*, i8** %33, align 8
  store i8 0, i8* %34, align 1
  %35 = getelementptr inbounds %"class.std::__1::basic_string", %"class.std::__1::basic_string"* %27, i64 0, i32 0, i32 0, i32 0, i32 0, i32 0, i32 1
  store i64 0, i64* %35, align 8
  br label %38

36:                                               ; preds = %25
  %37 = bitcast %"class.std::__1::basic_string"* %27 to i8*
  store i8 0, i8* %37, align 1
  store i8 0, i8* %29, align 1
  br label %38

38:                                               ; preds = %36, %32, %22
  %39 = and i32 %3, 4
  %40 = icmp eq i32 %39, 0
  br i1 %40, label %65, label %41

41:                                               ; preds = %38
  %42 = getelementptr inbounds %"class.feedwire::NextPageToken", %"class.feedwire::NextPageToken"* %0, i64 0, i32 5
  %43 = load %"class.feedwire::TokenHandling"*, %"class.feedwire::TokenHandling"** %42, align 8
  %44 = getelementptr inbounds %"class.feedwire::TokenHandling", %"class.feedwire::TokenHandling"* %43, i64 0, i32 3
  store i32 0, i32* %44, align 8
  %45 = getelementptr inbounds %"class.feedwire::TokenHandling", %"class.feedwire::TokenHandling"* %43, i64 0, i32 1, i32 0, i64 0
  store i32 0, i32* %45, align 4
  %46 = getelementptr inbounds %"class.feedwire::TokenHandling", %"class.feedwire::TokenHandling"* %43, i64 0, i32 0, i32 1
  %47 = bitcast %"class.google::protobuf::internal::InternalMetadata"* %46 to i64*
  %48 = load i64, i64* %47, align 8
  %49 = and i64 %48, 1
  %50 = icmp eq i64 %49, 0
  br i1 %50, label %65, label %51

51:                                               ; preds = %41
  %52 = and i64 %48, -2
  %53 = inttoptr i64 %52 to %"struct.google::protobuf::internal::InternalMetadata::Container"*
  %54 = getelementptr inbounds %"struct.google::protobuf::internal::InternalMetadata::Container", %"struct.google::protobuf::internal::InternalMetadata::Container"* %53, i64 0, i32 1
  %55 = bitcast %"class.std::__1::basic_string"* %54 to %"struct.std::__1::basic_string<char, std::__1::char_traits<char>, std::__1::allocator<char> >::__short"*
  %56 = getelementptr inbounds %"struct.std::__1::basic_string<char, std::__1::char_traits<char>, std::__1::allocator<char> >::__short", %"struct.std::__1::basic_string<char, std::__1::char_traits<char>, std::__1::allocator<char> >::__short"* %55, i64 0, i32 1, i32 0
  %57 = load i8, i8* %56, align 1
  %58 = icmp slt i8 %57, 0
  br i1 %58, label %59, label %63

59:                                               ; preds = %51
  %60 = getelementptr inbounds %"class.std::__1::basic_string", %"class.std::__1::basic_string"* %54, i64 0, i32 0, i32 0, i32 0, i32 0, i32 0, i32 0
  %61 = load i8*, i8** %60, align 8
  store i8 0, i8* %61, align 1
  %62 = getelementptr inbounds %"struct.google::protobuf::internal::InternalMetadata::Container", %"struct.google::protobuf::internal::InternalMetadata::Container"* %53, i64 0, i32 1, i32 0, i32 0, i32 0, i32 0, i32 0, i32 1
  store i64 0, i64* %62, align 8
  br label %65

63:                                               ; preds = %51
  %64 = bitcast %"class.std::__1::basic_string"* %54 to i8*
  store i8 0, i8* %64, align 2
  store i8 0, i8* %56, align 1
  br label %65

65:                                               ; preds = %63, %59, %41, %38, %1
  store i32 0, i32* %2, align 4
  %66 = getelementptr inbounds %"class.feedwire::NextPageToken", %"class.feedwire::NextPageToken"* %0, i64 0, i32 0, i32 1
  %67 = bitcast %"class.google::protobuf::internal::InternalMetadata"* %66 to i64*
  %68 = load i64, i64* %67, align 8
  %69 = and i64 %68, 1
  %70 = icmp eq i64 %69, 0
  br i1 %70, label %85, label %71

71:                                               ; preds = %65
  %72 = and i64 %68, -2
  %73 = inttoptr i64 %72 to %"struct.google::protobuf::internal::InternalMetadata::Container"*
  %74 = getelementptr inbounds %"struct.google::protobuf::internal::InternalMetadata::Container", %"struct.google::protobuf::internal::InternalMetadata::Container"* %73, i64 0, i32 1
  %75 = bitcast %"class.std::__1::basic_string"* %74 to %"struct.std::__1::basic_string<char, std::__1::char_traits<char>, std::__1::allocator<char> >::__short"*
  %76 = getelementptr inbounds %"struct.std::__1::basic_string<char, std::__1::char_traits<char>, std::__1::allocator<char> >::__short", %"struct.std::__1::basic_string<char, std::__1::char_traits<char>, std::__1::allocator<char> >::__short"* %75, i64 0, i32 1, i32 0
  %77 = load i8, i8* %76, align 1
  %78 = icmp slt i8 %77, 0
  br i1 %78, label %79, label %83

79:                                               ; preds = %71
  %80 = getelementptr inbounds %"class.std::__1::basic_string", %"class.std::__1::basic_string"* %74, i64 0, i32 0, i32 0, i32 0, i32 0, i32 0, i32 0
  %81 = load i8*, i8** %80, align 8
  store i8 0, i8* %81, align 1
  %82 = getelementptr inbounds %"struct.google::protobuf::internal::InternalMetadata::Container", %"struct.google::protobuf::internal::InternalMetadata::Container"* %73, i64 0, i32 1, i32 0, i32 0, i32 0, i32 0, i32 0, i32 1
  store i64 0, i64* %82, align 8
  br label %85

83:                                               ; preds = %71
  %84 = bitcast %"class.std::__1::basic_string"* %74 to i8*
  store i8 0, i8* %84, align 2
  store i8 0, i8* %76, align 1
  br label %85

85:                                               ; preds = %65, %79, %83
  ret void
}

; Function Attrs: nofree norecurse nounwind ssp uwtable
define hidden void @_ZN8feedwire13TokenHandling5ClearEv(%"class.feedwire::TokenHandling"* nocapture) unnamed_addr #8 align 2 {
  %2 = getelementptr inbounds %"class.feedwire::TokenHandling", %"class.feedwire::TokenHandling"* %0, i64 0, i32 3
  store i32 0, i32* %2, align 8
  %3 = getelementptr inbounds %"class.feedwire::TokenHandling", %"class.feedwire::TokenHandling"* %0, i64 0, i32 1, i32 0, i64 0
  store i32 0, i32* %3, align 4
  %4 = getelementptr inbounds %"class.feedwire::TokenHandling", %"class.feedwire::TokenHandling"* %0, i64 0, i32 0, i32 1
  %5 = bitcast %"class.google::protobuf::internal::InternalMetadata"* %4 to i64*
  %6 = load i64, i64* %5, align 8
  %7 = and i64 %6, 1
  %8 = icmp eq i64 %7, 0
  br i1 %8, label %23, label %9

9:                                                ; preds = %1
  %10 = and i64 %6, -2
  %11 = inttoptr i64 %10 to %"struct.google::protobuf::internal::InternalMetadata::Container"*
  %12 = getelementptr inbounds %"struct.google::protobuf::internal::InternalMetadata::Container", %"struct.google::protobuf::internal::InternalMetadata::Container"* %11, i64 0, i32 1
  %13 = bitcast %"class.std::__1::basic_string"* %12 to %"struct.std::__1::basic_string<char, std::__1::char_traits<char>, std::__1::allocator<char> >::__short"*
  %14 = getelementptr inbounds %"struct.std::__1::basic_string<char, std::__1::char_traits<char>, std::__1::allocator<char> >::__short", %"struct.std::__1::basic_string<char, std::__1::char_traits<char>, std::__1::allocator<char> >::__short"* %13, i64 0, i32 1, i32 0
  %15 = load i8, i8* %14, align 1
  %16 = icmp slt i8 %15, 0
  br i1 %16, label %17, label %21

17:                                               ; preds = %9
  %18 = getelementptr inbounds %"class.std::__1::basic_string", %"class.std::__1::basic_string"* %12, i64 0, i32 0, i32 0, i32 0, i32 0, i32 0, i32 0
  %19 = load i8*, i8** %18, align 8
  store i8 0, i8* %19, align 1
  %20 = getelementptr inbounds %"struct.google::protobuf::internal::InternalMetadata::Container", %"struct.google::protobuf::internal::InternalMetadata::Container"* %11, i64 0, i32 1, i32 0, i32 0, i32 0, i32 0, i32 0, i32 1
  store i64 0, i64* %20, align 8
  br label %23

21:                                               ; preds = %9
  %22 = bitcast %"class.std::__1::basic_string"* %12 to i8*
  store i8 0, i8* %22, align 2
  store i8 0, i8* %14, align 1
  br label %23

23:                                               ; preds = %1, %17, %21
  ret void
}

; Function Attrs: nounwind ssp uwtable
define hidden i8* @_ZN8feedwire13NextPageToken14_InternalParseEPKcPN6google8protobuf8internal12ParseContextE(%"class.feedwire::NextPageToken"*, i8*, %"class.google::protobuf::internal::ParseContext"*) unnamed_addr #0 align 2 {
  %4 = getelementptr inbounds %"class.google::protobuf::internal::ParseContext", %"class.google::protobuf::internal::ParseContext"* %2, i64 0, i32 0
  %5 = getelementptr inbounds %"class.google::protobuf::internal::ParseContext", %"class.google::protobuf::internal::ParseContext"* %2, i64 0, i32 2
  %6 = getelementptr inbounds %"class.google::protobuf::internal::ParseContext", %"class.google::protobuf::internal::ParseContext"* %2, i64 0, i32 0, i32 0
  %7 = getelementptr inbounds %"class.google::protobuf::internal::ParseContext", %"class.google::protobuf::internal::ParseContext"* %2, i64 0, i32 0, i32 1
  %8 = bitcast i8** %7 to i64*
  %9 = getelementptr inbounds %"class.google::protobuf::internal::ParseContext", %"class.google::protobuf::internal::ParseContext"* %2, i64 0, i32 0, i32 4
  %10 = getelementptr inbounds %"class.feedwire::NextPageToken", %"class.feedwire::NextPageToken"* %0, i64 0, i32 1, i32 0, i64 0
  %11 = getelementptr inbounds %"class.feedwire::NextPageToken", %"class.feedwire::NextPageToken"* %0, i64 0, i32 4
  %12 = getelementptr inbounds %"class.feedwire::NextPageToken", %"class.feedwire::NextPageToken"* %0, i64 0, i32 0, i32 1
  %13 = bitcast %"class.google::protobuf::internal::InternalMetadata"* %12 to i64*
  %14 = getelementptr inbounds %"struct.google::protobuf::internal::ArenaStringPtr", %"struct.google::protobuf::internal::ArenaStringPtr"* %11, i64 0, i32 0
  %15 = getelementptr inbounds %"class.feedwire::NextPageToken", %"class.feedwire::NextPageToken"* %0, i64 0, i32 5
  %16 = getelementptr inbounds %"class.feedwire::NextPageToken", %"class.feedwire::NextPageToken"* %0, i64 0, i32 3
  %17 = getelementptr inbounds %"struct.google::protobuf::internal::ArenaStringPtr", %"struct.google::protobuf::internal::ArenaStringPtr"* %16, i64 0, i32 0
  br label %18

18:                                               ; preds = %139, %3
  %19 = phi i8* [ %1, %3 ], [ %140, %139 ]
  %20 = load i32, i32* %5, align 4
  %21 = load i8*, i8** %6, align 8
  %22 = icmp ult i8* %19, %21
  br i1 %22, label %36, label %23, !prof !2

23:                                               ; preds = %18
  %24 = load i64, i64* %8, align 8
  %25 = ptrtoint i8* %19 to i64
  %26 = sub i64 %25, %24
  %27 = load i32, i32* %9, align 4
  %28 = sext i32 %27 to i64
  %29 = icmp eq i64 %26, %28
  br i1 %29, label %163, label %30

30:                                               ; preds = %23
  %31 = tail call { i8*, i8 } @_ZN6google8protobuf8internal18EpsCopyInputStream12DoneFallbackEPKci(%"class.google::protobuf::internal::EpsCopyInputStream"* %4, i8* %19, i32 %20) #13
  %32 = extractvalue { i8*, i8 } %31, 0
  %33 = extractvalue { i8*, i8 } %31, 1
  %34 = and i8 %33, 1
  %35 = icmp eq i8 %34, 0
  br i1 %35, label %36, label %163

36:                                               ; preds = %30, %18
  %37 = phi i8* [ %32, %30 ], [ %19, %18 ]
  %38 = load i8, i8* %37, align 1
  %39 = zext i8 %38 to i32
  %40 = icmp sgt i8 %38, -1
  %41 = getelementptr inbounds i8, i8* %37, i64 1
  br i1 %40, label %55, label %42

42:                                               ; preds = %36
  %43 = load i8, i8* %41, align 1
  %44 = zext i8 %43 to i32
  %45 = shl nuw nsw i32 %44, 7
  %46 = add nsw i32 %39, -128
  %47 = add nsw i32 %46, %45
  %48 = icmp sgt i8 %43, -1
  br i1 %48, label %49, label %51

49:                                               ; preds = %42
  %50 = getelementptr inbounds i8, i8* %37, i64 2
  br label %55

51:                                               ; preds = %42
  %52 = tail call { i8*, i32 } @_ZN6google8protobuf8internal15ReadTagFallbackEPKcj(i8* %37, i32 %47) #13
  %53 = extractvalue { i8*, i32 } %52, 0
  %54 = extractvalue { i8*, i32 } %52, 1
  br label %55

55:                                               ; preds = %36, %49, %51
  %56 = phi i32 [ %47, %49 ], [ %54, %51 ], [ %39, %36 ]
  %57 = phi i8* [ %50, %49 ], [ %53, %51 ], [ %41, %36 ]
  %58 = icmp eq i8* %57, null
  br i1 %58, label %163, label %59, !prof !5

59:                                               ; preds = %55
  %60 = lshr i32 %56, 3
  switch i32 %60, label %141 [
    i32 1, label %61
    i32 2, label %87
    i32 3, label %113
  ]

61:                                               ; preds = %59
  %62 = and i32 %56, 255
  %63 = icmp eq i32 %62, 10
  br i1 %63, label %64, label %141, !prof !2

64:                                               ; preds = %61
  %65 = load i32, i32* %10, align 4
  %66 = or i32 %65, 1
  store i32 %66, i32* %10, align 4
  %67 = load i64, i64* %13, align 8
  %68 = and i64 %67, 1
  %69 = icmp eq i64 %68, 0
  %70 = and i64 %67, -2
  br i1 %69, label %75, label %71, !prof !2

71:                                               ; preds = %64
  %72 = inttoptr i64 %70 to %"struct.google::protobuf::internal::InternalMetadata::ContainerBase"*
  %73 = getelementptr inbounds %"struct.google::protobuf::internal::InternalMetadata::ContainerBase", %"struct.google::protobuf::internal::InternalMetadata::ContainerBase"* %72, i64 0, i32 0
  %74 = load %"class.google::protobuf::Arena"*, %"class.google::protobuf::Arena"** %73, align 8
  br label %77

75:                                               ; preds = %64
  %76 = inttoptr i64 %70 to %"class.google::protobuf::Arena"*
  br label %77

77:                                               ; preds = %75, %71
  %78 = phi %"class.google::protobuf::Arena"* [ %74, %71 ], [ %76, %75 ]
  %79 = load %"class.std::__1::basic_string"*, %"class.std::__1::basic_string"** %17, align 8
  %80 = icmp eq %"class.std::__1::basic_string"* %79, bitcast (%"class.google::protobuf::internal::ExplicitlyConstructed.4"* @_ZN6google8protobuf8internal26fixed_address_empty_stringE to %"class.std::__1::basic_string"*)
  br i1 %80, label %81, label %83

81:                                               ; preds = %77
  tail call void @_ZN6google8protobuf8internal14ArenaStringPtr14CreateInstanceEPNS0_5ArenaEPKNSt3__112basic_stringIcNS5_11char_traitsIcEENS5_9allocatorIcEEEE(%"struct.google::protobuf::internal::ArenaStringPtr"* %16, %"class.google::protobuf::Arena"* %78, %"class.std::__1::basic_string"* bitcast (%"class.google::protobuf::internal::ExplicitlyConstructed.4"* @_ZN6google8protobuf8internal26fixed_address_empty_stringE to %"class.std::__1::basic_string"*)) #13
  %82 = load %"class.std::__1::basic_string"*, %"class.std::__1::basic_string"** %17, align 8
  br label %83

83:                                               ; preds = %77, %81
  %84 = phi %"class.std::__1::basic_string"* [ %82, %81 ], [ %79, %77 ]
  %85 = tail call i8* @_ZN6google8protobuf8internal24InlineGreedyStringParserEPNSt3__112basic_stringIcNS2_11char_traitsIcEENS2_9allocatorIcEEEEPKcPNS1_12ParseContextE(%"class.std::__1::basic_string"* %84, i8* nonnull %57, %"class.google::protobuf::internal::ParseContext"* %2) #13
  %86 = icmp eq i8* %85, null
  br i1 %86, label %163, label %139

87:                                               ; preds = %59
  %88 = and i32 %56, 255
  %89 = icmp eq i32 %88, 18
  br i1 %89, label %90, label %141, !prof !2

90:                                               ; preds = %87
  %91 = load i32, i32* %10, align 4
  %92 = or i32 %91, 4
  store i32 %92, i32* %10, align 4
  %93 = load %"class.feedwire::TokenHandling"*, %"class.feedwire::TokenHandling"** %15, align 8
  %94 = icmp eq %"class.feedwire::TokenHandling"* %93, null
  br i1 %94, label %95, label %109

95:                                               ; preds = %90
  %96 = load i64, i64* %13, align 8
  %97 = and i64 %96, 1
  %98 = icmp eq i64 %97, 0
  %99 = and i64 %96, -2
  br i1 %98, label %104, label %100, !prof !2

100:                                              ; preds = %95
  %101 = inttoptr i64 %99 to %"struct.google::protobuf::internal::InternalMetadata::ContainerBase"*
  %102 = getelementptr inbounds %"struct.google::protobuf::internal::InternalMetadata::ContainerBase", %"struct.google::protobuf::internal::InternalMetadata::ContainerBase"* %101, i64 0, i32 0
  %103 = load %"class.google::protobuf::Arena"*, %"class.google::protobuf::Arena"** %102, align 8
  br label %106

104:                                              ; preds = %95
  %105 = inttoptr i64 %99 to %"class.google::protobuf::Arena"*
  br label %106

106:                                              ; preds = %104, %100
  %107 = phi %"class.google::protobuf::Arena"* [ %103, %100 ], [ %105, %104 ]
  %108 = tail call %"class.feedwire::TokenHandling"* @_ZN6google8protobuf5Arena18CreateMaybeMessageIN8feedwire13TokenHandlingEJEEEPT_PS1_DpOT0_(%"class.google::protobuf::Arena"* %107) #13
  store %"class.feedwire::TokenHandling"* %108, %"class.feedwire::TokenHandling"** %15, align 8
  br label %109

109:                                              ; preds = %90, %106
  %110 = phi %"class.feedwire::TokenHandling"* [ %108, %106 ], [ %93, %90 ]
  %111 = tail call i8* @_ZN6google8protobuf8internal12ParseContext12ParseMessageIN8feedwire13TokenHandlingEEEPKcPT_S7_(%"class.google::protobuf::internal::ParseContext"* %2, %"class.feedwire::TokenHandling"* %110, i8* nonnull %57)
  %112 = icmp eq i8* %111, null
  br i1 %112, label %163, label %139

113:                                              ; preds = %59
  %114 = and i32 %56, 255
  %115 = icmp eq i32 %114, 26
  br i1 %115, label %116, label %141, !prof !2

116:                                              ; preds = %113
  %117 = load i32, i32* %10, align 4
  %118 = or i32 %117, 2
  store i32 %118, i32* %10, align 4
  %119 = load i64, i64* %13, align 8
  %120 = and i64 %119, 1
  %121 = icmp eq i64 %120, 0
  %122 = and i64 %119, -2
  br i1 %121, label %127, label %123, !prof !2

123:                                              ; preds = %116
  %124 = inttoptr i64 %122 to %"struct.google::protobuf::internal::InternalMetadata::ContainerBase"*
  %125 = getelementptr inbounds %"struct.google::protobuf::internal::InternalMetadata::ContainerBase", %"struct.google::protobuf::internal::InternalMetadata::ContainerBase"* %124, i64 0, i32 0
  %126 = load %"class.google::protobuf::Arena"*, %"class.google::protobuf::Arena"** %125, align 8
  br label %129

127:                                              ; preds = %116
  %128 = inttoptr i64 %122 to %"class.google::protobuf::Arena"*
  br label %129

129:                                              ; preds = %127, %123
  %130 = phi %"class.google::protobuf::Arena"* [ %126, %123 ], [ %128, %127 ]
  %131 = load %"class.std::__1::basic_string"*, %"class.std::__1::basic_string"** %14, align 8
  %132 = icmp eq %"class.std::__1::basic_string"* %131, bitcast (%"class.google::protobuf::internal::ExplicitlyConstructed.4"* @_ZN6google8protobuf8internal26fixed_address_empty_stringE to %"class.std::__1::basic_string"*)
  br i1 %132, label %133, label %135

133:                                              ; preds = %129
  tail call void @_ZN6google8protobuf8internal14ArenaStringPtr14CreateInstanceEPNS0_5ArenaEPKNSt3__112basic_stringIcNS5_11char_traitsIcEENS5_9allocatorIcEEEE(%"struct.google::protobuf::internal::ArenaStringPtr"* %11, %"class.google::protobuf::Arena"* %130, %"class.std::__1::basic_string"* bitcast (%"class.google::protobuf::internal::ExplicitlyConstructed.4"* @_ZN6google8protobuf8internal26fixed_address_empty_stringE to %"class.std::__1::basic_string"*)) #13
  %134 = load %"class.std::__1::basic_string"*, %"class.std::__1::basic_string"** %14, align 8
  br label %135

135:                                              ; preds = %129, %133
  %136 = phi %"class.std::__1::basic_string"* [ %134, %133 ], [ %131, %129 ]
  %137 = tail call i8* @_ZN6google8protobuf8internal24InlineGreedyStringParserEPNSt3__112basic_stringIcNS2_11char_traitsIcEENS2_9allocatorIcEEEEPKcPNS1_12ParseContextE(%"class.std::__1::basic_string"* %136, i8* nonnull %57, %"class.google::protobuf::internal::ParseContext"* %2) #13
  %138 = icmp eq i8* %137, null
  br i1 %138, label %163, label %139

139:                                              ; preds = %135, %83, %159, %109
  %140 = phi i8* [ %161, %159 ], [ %111, %109 ], [ %85, %83 ], [ %137, %135 ]
  br label %18

141:                                              ; preds = %59, %113, %87, %61
  %142 = and i32 %56, 7
  %143 = icmp eq i32 %142, 4
  %144 = icmp eq i32 %56, 0
  %145 = or i1 %144, %143
  br i1 %145, label %146, label %149

146:                                              ; preds = %141
  %147 = add i32 %56, -1
  %148 = getelementptr inbounds %"class.google::protobuf::internal::ParseContext", %"class.google::protobuf::internal::ParseContext"* %2, i64 0, i32 0, i32 8
  store i32 %147, i32* %148, align 8
  br label %163

149:                                              ; preds = %141
  %150 = load i64, i64* %13, align 8
  %151 = and i64 %150, 1
  %152 = icmp eq i64 %151, 0
  br i1 %152, label %157, label %153, !prof !5

153:                                              ; preds = %149
  %154 = and i64 %150, -2
  %155 = inttoptr i64 %154 to %"struct.google::protobuf::internal::InternalMetadata::Container"*
  %156 = getelementptr inbounds %"struct.google::protobuf::internal::InternalMetadata::Container", %"struct.google::protobuf::internal::InternalMetadata::Container"* %155, i64 0, i32 1
  br label %159

157:                                              ; preds = %149
  %158 = tail call %"class.std::__1::basic_string"* @_ZN6google8protobuf8internal16InternalMetadata27mutable_unknown_fields_slowINSt3__112basic_stringIcNS4_11char_traitsIcEENS4_9allocatorIcEEEEEEPT_v(%"class.google::protobuf::internal::InternalMetadata"* %12) #13
  br label %159

159:                                              ; preds = %153, %157
  %160 = phi %"class.std::__1::basic_string"* [ %156, %153 ], [ %158, %157 ]
  %161 = tail call i8* @_ZN6google8protobuf8internal17UnknownFieldParseEjPNSt3__112basic_stringIcNS2_11char_traitsIcEENS2_9allocatorIcEEEEPKcPNS1_12ParseContextE(i32 %56, %"class.std::__1::basic_string"* %160, i8* nonnull %57, %"class.google::protobuf::internal::ParseContext"* %2) #13
  %162 = icmp eq i8* %161, null
  br i1 %162, label %163, label %139

163:                                              ; preds = %135, %83, %23, %159, %109, %55, %30, %146
  %164 = phi i8* [ %57, %146 ], [ null, %135 ], [ null, %83 ], [ null, %55 ], [ null, %109 ], [ null, %159 ], [ %19, %23 ], [ %32, %30 ]
  ret i8* %164
}

declare i8* @_ZN6google8protobuf8internal24InlineGreedyStringParserEPNSt3__112basic_stringIcNS2_11char_traitsIcEENS2_9allocatorIcEEEEPKcPNS1_12ParseContextE(%"class.std::__1::basic_string"*, i8*, %"class.google::protobuf::internal::ParseContext"*) local_unnamed_addr #4

; Function Attrs: nounwind ssp uwtable
define linkonce_odr hidden i8* @_ZN6google8protobuf8internal12ParseContext12ParseMessageIN8feedwire13TokenHandlingEEEPKcPT_S7_(%"class.google::protobuf::internal::ParseContext"*, %"class.feedwire::TokenHandling"*, i8*) local_unnamed_addr #0 comdat align 2 {
  %4 = load i8, i8* %2, align 1
  %5 = zext i8 %4 to i32
  %6 = icmp sgt i8 %4, -1
  br i1 %6, label %7, label %9

7:                                                ; preds = %3
  %8 = getelementptr inbounds i8, i8* %2, i64 1
  br label %13

9:                                                ; preds = %3
  %10 = tail call { i8*, i32 } @_ZN6google8protobuf8internal16ReadSizeFallbackEPKcj(i8* %2, i32 %5) #13
  %11 = extractvalue { i8*, i32 } %10, 0
  %12 = extractvalue { i8*, i32 } %10, 1
  br label %13

13:                                               ; preds = %7, %9
  %14 = phi i8* [ %11, %9 ], [ %8, %7 ]
  %15 = phi i32 [ %12, %9 ], [ %5, %7 ]
  %16 = icmp eq i8* %14, null
  br i1 %16, label %55, label %17

17:                                               ; preds = %13
  %18 = getelementptr inbounds %"class.google::protobuf::internal::ParseContext", %"class.google::protobuf::internal::ParseContext"* %0, i64 0, i32 0, i32 1
  %19 = bitcast i8** %18 to i64*
  %20 = load i64, i64* %19, align 8
  %21 = ptrtoint i8* %14 to i64
  %22 = sub i64 %21, %20
  %23 = trunc i64 %22 to i32
  %24 = add nsw i32 %15, %23
  %25 = inttoptr i64 %20 to i8*
  %26 = icmp slt i32 %24, 0
  %27 = select i1 %26, i32 %24, i32 0
  %28 = sext i32 %27 to i64
  %29 = getelementptr inbounds i8, i8* %25, i64 %28
  %30 = getelementptr inbounds %"class.google::protobuf::internal::ParseContext", %"class.google::protobuf::internal::ParseContext"* %0, i64 0, i32 0, i32 0
  store i8* %29, i8** %30, align 8
  %31 = getelementptr inbounds %"class.google::protobuf::internal::ParseContext", %"class.google::protobuf::internal::ParseContext"* %0, i64 0, i32 0, i32 4
  %32 = load i32, i32* %31, align 4
  store i32 %24, i32* %31, align 4
  %33 = sub nsw i32 %32, %24
  %34 = getelementptr inbounds %"class.google::protobuf::internal::ParseContext", %"class.google::protobuf::internal::ParseContext"* %0, i64 0, i32 1
  %35 = load i32, i32* %34, align 8
  %36 = add nsw i32 %35, -1
  store i32 %36, i32* %34, align 8
  %37 = icmp slt i32 %35, 1
  br i1 %37, label %55, label %38

38:                                               ; preds = %17
  %39 = tail call i8* @_ZN8feedwire13TokenHandling14_InternalParseEPKcPN6google8protobuf8internal12ParseContextE(%"class.feedwire::TokenHandling"* %1, i8* nonnull %14, %"class.google::protobuf::internal::ParseContext"* %0)
  %40 = icmp eq i8* %39, null
  br i1 %40, label %55, label %41, !prof !5

41:                                               ; preds = %38
  %42 = load i32, i32* %34, align 8
  %43 = add nsw i32 %42, 1
  store i32 %43, i32* %34, align 8
  %44 = getelementptr inbounds %"class.google::protobuf::internal::ParseContext", %"class.google::protobuf::internal::ParseContext"* %0, i64 0, i32 0, i32 8
  %45 = load i32, i32* %44, align 8
  %46 = icmp eq i32 %45, 0
  br i1 %46, label %47, label %55, !prof !2

47:                                               ; preds = %41
  %48 = load i32, i32* %31, align 4
  %49 = add nsw i32 %48, %33
  store i32 %49, i32* %31, align 4
  %50 = load i8*, i8** %18, align 8
  %51 = icmp slt i32 %49, 0
  %52 = select i1 %51, i32 %49, i32 0
  %53 = sext i32 %52 to i64
  %54 = getelementptr inbounds i8, i8* %50, i64 %53
  store i8* %54, i8** %30, align 8
  br label %55

55:                                               ; preds = %13, %38, %17, %41, %47
  %56 = phi i8* [ %39, %47 ], [ null, %41 ], [ null, %17 ], [ null, %38 ], [ null, %13 ]
  ret i8* %56
}

declare i8* @_ZN6google8protobuf8internal17UnknownFieldParseEjPNSt3__112basic_stringIcNS2_11char_traitsIcEENS2_9allocatorIcEEEEPKcPNS1_12ParseContextE(i32, %"class.std::__1::basic_string"*, i8*, %"class.google::protobuf::internal::ParseContext"*) local_unnamed_addr #4

; Function Attrs: nounwind ssp uwtable
define hidden i8* @_ZNK8feedwire13NextPageToken18_InternalSerializeEPhPN6google8protobuf2io19EpsCopyOutputStreamE(%"class.feedwire::NextPageToken"* nocapture readonly, i8*, %"class.google::protobuf::io::EpsCopyOutputStream"*) unnamed_addr #0 align 2 {
  %4 = getelementptr inbounds %"class.feedwire::NextPageToken", %"class.feedwire::NextPageToken"* %0, i64 0, i32 1, i32 0, i64 0
  %5 = load i32, i32* %4, align 4
  %6 = and i32 %5, 1
  %7 = icmp eq i32 %6, 0
  br i1 %7, label %42, label %8

8:                                                ; preds = %3
  %9 = getelementptr inbounds %"class.feedwire::NextPageToken", %"class.feedwire::NextPageToken"* %0, i64 0, i32 3, i32 0
  %10 = load %"class.std::__1::basic_string"*, %"class.std::__1::basic_string"** %9, align 8
  %11 = bitcast %"class.std::__1::basic_string"* %10 to %"struct.std::__1::basic_string<char, std::__1::char_traits<char>, std::__1::allocator<char> >::__short"*
  %12 = getelementptr inbounds %"struct.std::__1::basic_string<char, std::__1::char_traits<char>, std::__1::allocator<char> >::__short", %"struct.std::__1::basic_string<char, std::__1::char_traits<char>, std::__1::allocator<char> >::__short"* %11, i64 0, i32 1, i32 0
  %13 = load i8, i8* %12, align 1
  %14 = icmp slt i8 %13, 0
  br i1 %14, label %17, label %15

15:                                               ; preds = %8
  %16 = zext i8 %13 to i64
  br label %21

17:                                               ; preds = %8
  %18 = getelementptr inbounds %"class.std::__1::basic_string", %"class.std::__1::basic_string"* %10, i64 0, i32 0, i32 0, i32 0, i32 0, i32 0, i32 1
  %19 = load i64, i64* %18, align 8
  %20 = icmp sgt i64 %19, 127
  br i1 %20, label %29, label %21, !prof !5

21:                                               ; preds = %17, %15
  %22 = phi i64 [ %16, %15 ], [ %19, %17 ]
  %23 = bitcast %"class.google::protobuf::io::EpsCopyOutputStream"* %2 to i64*
  %24 = load i64, i64* %23, align 8
  %25 = ptrtoint i8* %1 to i64
  %26 = sub i64 14, %25
  %27 = add i64 %26, %24
  %28 = icmp slt i64 %27, %22
  br i1 %28, label %29, label %31, !prof !5

29:                                               ; preds = %21, %17
  %30 = tail call i8* @_ZN6google8protobuf2io19EpsCopyOutputStream30WriteStringMaybeAliasedOutlineEjRKNSt3__112basic_stringIcNS3_11char_traitsIcEENS3_9allocatorIcEEEEPh(%"class.google::protobuf::io::EpsCopyOutputStream"* %2, i32 1, %"class.std::__1::basic_string"* dereferenceable(24) %10, i8* %1) #13
  br label %42

31:                                               ; preds = %21
  store i8 10, i8* %1, align 1
  %32 = getelementptr inbounds i8, i8* %1, i64 1
  %33 = trunc i64 %22 to i8
  %34 = getelementptr inbounds i8, i8* %1, i64 2
  store i8 %33, i8* %32, align 1
  %35 = load i8, i8* %12, align 1
  %36 = icmp slt i8 %35, 0
  %37 = getelementptr inbounds %"class.std::__1::basic_string", %"class.std::__1::basic_string"* %10, i64 0, i32 0, i32 0, i32 0, i32 0, i32 0, i32 0
  %38 = load i8*, i8** %37, align 8
  %39 = bitcast %"class.std::__1::basic_string"* %10 to i8*
  %40 = select i1 %36, i8* %38, i8* %39
  tail call void @llvm.memcpy.p0i8.p0i8.i64(i8* align 1 %34, i8* align 1 %40, i64 %22, i1 false) #13
  %41 = getelementptr inbounds i8, i8* %34, i64 %22
  br label %42

42:                                               ; preds = %31, %29, %3
  %43 = phi i8* [ %1, %3 ], [ %30, %29 ], [ %41, %31 ]
  %44 = and i32 %5, 4
  %45 = icmp eq i32 %44, 0
  br i1 %45, label %87, label %46

46:                                               ; preds = %42
  %47 = getelementptr inbounds %"class.google::protobuf::io::EpsCopyOutputStream", %"class.google::protobuf::io::EpsCopyOutputStream"* %2, i64 0, i32 0
  %48 = load i8*, i8** %47, align 8
  %49 = icmp ugt i8* %48, %43
  br i1 %49, label %52, label %50, !prof !2

50:                                               ; preds = %46
  %51 = tail call i8* @_ZN6google8protobuf2io19EpsCopyOutputStream19EnsureSpaceFallbackEPh(%"class.google::protobuf::io::EpsCopyOutputStream"* %2, i8* %43) #13
  br label %52

52:                                               ; preds = %46, %50
  %53 = phi i8* [ %51, %50 ], [ %43, %46 ]
  %54 = getelementptr inbounds %"class.feedwire::NextPageToken", %"class.feedwire::NextPageToken"* %0, i64 0, i32 5
  %55 = load %"class.feedwire::TokenHandling"*, %"class.feedwire::TokenHandling"** %54, align 8
  store i8 18, i8* %53, align 1
  %56 = getelementptr inbounds i8, i8* %53, i64 1
  %57 = getelementptr inbounds %"class.feedwire::TokenHandling", %"class.feedwire::TokenHandling"* %55, i64 0, i32 2, i32 0, i32 0, i32 0, i32 0, i32 0, i32 0
  %58 = load atomic i32, i32* %57 monotonic, align 4
  %59 = icmp ult i32 %58, 128
  %60 = trunc i32 %58 to i8
  br i1 %59, label %61, label %63

61:                                               ; preds = %52
  store i8 %60, i8* %56, align 1
  %62 = getelementptr inbounds i8, i8* %53, i64 2
  br label %84

63:                                               ; preds = %52
  %64 = or i8 %60, -128
  store i8 %64, i8* %56, align 1
  %65 = lshr i32 %58, 7
  %66 = icmp ult i32 %58, 16384
  br i1 %66, label %67, label %71

67:                                               ; preds = %63
  %68 = trunc i32 %65 to i8
  %69 = getelementptr inbounds i8, i8* %53, i64 2
  store i8 %68, i8* %69, align 1
  %70 = getelementptr inbounds i8, i8* %53, i64 3
  br label %84

71:                                               ; preds = %63
  %72 = getelementptr inbounds i8, i8* %53, i64 2
  br label %73

73:                                               ; preds = %73, %71
  %74 = phi i32 [ %65, %71 ], [ %78, %73 ]
  %75 = phi i8* [ %72, %71 ], [ %79, %73 ]
  %76 = trunc i32 %74 to i8
  %77 = or i8 %76, -128
  store i8 %77, i8* %75, align 1
  %78 = lshr i32 %74, 7
  %79 = getelementptr inbounds i8, i8* %75, i64 1
  %80 = icmp ugt i32 %74, 16383
  br i1 %80, label %73, label %81, !prof !5

81:                                               ; preds = %73
  %82 = trunc i32 %78 to i8
  %83 = getelementptr inbounds i8, i8* %75, i64 2
  store i8 %82, i8* %79, align 1
  br label %84

84:                                               ; preds = %61, %67, %81
  %85 = phi i8* [ %62, %61 ], [ %70, %67 ], [ %83, %81 ]
  %86 = tail call i8* @_ZNK8feedwire13TokenHandling18_InternalSerializeEPhPN6google8protobuf2io19EpsCopyOutputStreamE(%"class.feedwire::TokenHandling"* %55, i8* %85, %"class.google::protobuf::io::EpsCopyOutputStream"* %2) #13
  br label %87

87:                                               ; preds = %42, %84
  %88 = phi i8* [ %86, %84 ], [ %43, %42 ]
  %89 = and i32 %5, 2
  %90 = icmp eq i32 %89, 0
  br i1 %90, label %125, label %91

91:                                               ; preds = %87
  %92 = getelementptr inbounds %"class.feedwire::NextPageToken", %"class.feedwire::NextPageToken"* %0, i64 0, i32 4, i32 0
  %93 = load %"class.std::__1::basic_string"*, %"class.std::__1::basic_string"** %92, align 8
  %94 = bitcast %"class.std::__1::basic_string"* %93 to %"struct.std::__1::basic_string<char, std::__1::char_traits<char>, std::__1::allocator<char> >::__short"*
  %95 = getelementptr inbounds %"struct.std::__1::basic_string<char, std::__1::char_traits<char>, std::__1::allocator<char> >::__short", %"struct.std::__1::basic_string<char, std::__1::char_traits<char>, std::__1::allocator<char> >::__short"* %94, i64 0, i32 1, i32 0
  %96 = load i8, i8* %95, align 1
  %97 = icmp slt i8 %96, 0
  br i1 %97, label %100, label %98

98:                                               ; preds = %91
  %99 = zext i8 %96 to i64
  br label %104

100:                                              ; preds = %91
  %101 = getelementptr inbounds %"class.std::__1::basic_string", %"class.std::__1::basic_string"* %93, i64 0, i32 0, i32 0, i32 0, i32 0, i32 0, i32 1
  %102 = load i64, i64* %101, align 8
  %103 = icmp sgt i64 %102, 127
  br i1 %103, label %112, label %104, !prof !5

104:                                              ; preds = %100, %98
  %105 = phi i64 [ %99, %98 ], [ %102, %100 ]
  %106 = bitcast %"class.google::protobuf::io::EpsCopyOutputStream"* %2 to i64*
  %107 = load i64, i64* %106, align 8
  %108 = ptrtoint i8* %88 to i64
  %109 = sub i64 14, %108
  %110 = add i64 %109, %107
  %111 = icmp slt i64 %110, %105
  br i1 %111, label %112, label %114, !prof !5

112:                                              ; preds = %104, %100
  %113 = tail call i8* @_ZN6google8protobuf2io19EpsCopyOutputStream30WriteStringMaybeAliasedOutlineEjRKNSt3__112basic_stringIcNS3_11char_traitsIcEENS3_9allocatorIcEEEEPh(%"class.google::protobuf::io::EpsCopyOutputStream"* %2, i32 3, %"class.std::__1::basic_string"* dereferenceable(24) %93, i8* %88) #13
  br label %125

114:                                              ; preds = %104
  store i8 26, i8* %88, align 1
  %115 = getelementptr inbounds i8, i8* %88, i64 1
  %116 = trunc i64 %105 to i8
  %117 = getelementptr inbounds i8, i8* %88, i64 2
  store i8 %116, i8* %115, align 1
  %118 = load i8, i8* %95, align 1
  %119 = icmp slt i8 %118, 0
  %120 = getelementptr inbounds %"class.std::__1::basic_string", %"class.std::__1::basic_string"* %93, i64 0, i32 0, i32 0, i32 0, i32 0, i32 0, i32 0
  %121 = load i8*, i8** %120, align 8
  %122 = bitcast %"class.std::__1::basic_string"* %93 to i8*
  %123 = select i1 %119, i8* %121, i8* %122
  tail call void @llvm.memcpy.p0i8.p0i8.i64(i8* align 1 %117, i8* align 1 %123, i64 %105, i1 false) #13
  %124 = getelementptr inbounds i8, i8* %117, i64 %105
  br label %125

125:                                              ; preds = %114, %112, %87
  %126 = phi i8* [ %88, %87 ], [ %113, %112 ], [ %124, %114 ]
  %127 = getelementptr inbounds %"class.feedwire::NextPageToken", %"class.feedwire::NextPageToken"* %0, i64 0, i32 0, i32 1
  %128 = bitcast %"class.google::protobuf::internal::InternalMetadata"* %127 to i64*
  %129 = load i64, i64* %128, align 8
  %130 = and i64 %129, 1
  %131 = icmp eq i64 %130, 0
  br i1 %131, label %163, label %132, !prof !2

132:                                              ; preds = %125
  %133 = and i64 %129, -2
  %134 = inttoptr i64 %133 to %"struct.google::protobuf::internal::InternalMetadata::Container"*
  %135 = getelementptr inbounds %"struct.google::protobuf::internal::InternalMetadata::Container", %"struct.google::protobuf::internal::InternalMetadata::Container"* %134, i64 0, i32 1
  %136 = bitcast %"class.std::__1::basic_string"* %135 to %"struct.std::__1::basic_string<char, std::__1::char_traits<char>, std::__1::allocator<char> >::__short"*
  %137 = getelementptr inbounds %"struct.std::__1::basic_string<char, std::__1::char_traits<char>, std::__1::allocator<char> >::__short", %"struct.std::__1::basic_string<char, std::__1::char_traits<char>, std::__1::allocator<char> >::__short"* %136, i64 0, i32 1, i32 0
  %138 = load i8, i8* %137, align 1
  %139 = icmp slt i8 %138, 0
  br i1 %139, label %140, label %145

140:                                              ; preds = %132
  %141 = getelementptr inbounds %"class.std::__1::basic_string", %"class.std::__1::basic_string"* %135, i64 0, i32 0, i32 0, i32 0, i32 0, i32 0, i32 0
  %142 = load i8*, i8** %141, align 8
  %143 = getelementptr inbounds %"struct.google::protobuf::internal::InternalMetadata::Container", %"struct.google::protobuf::internal::InternalMetadata::Container"* %134, i64 0, i32 1, i32 0, i32 0, i32 0, i32 0, i32 0, i32 1
  %144 = load i64, i64* %143, align 8
  br label %148

145:                                              ; preds = %132
  %146 = bitcast %"class.std::__1::basic_string"* %135 to i8*
  %147 = zext i8 %138 to i64
  br label %148

148:                                              ; preds = %140, %145
  %149 = phi i8* [ %142, %140 ], [ %146, %145 ]
  %150 = phi i64 [ %144, %140 ], [ %147, %145 ]
  %151 = bitcast %"class.google::protobuf::io::EpsCopyOutputStream"* %2 to i64*
  %152 = load i64, i64* %151, align 8
  %153 = ptrtoint i8* %126 to i64
  %154 = sub i64 %152, %153
  %155 = shl i64 %150, 32
  %156 = ashr exact i64 %155, 32
  %157 = icmp slt i64 %154, %156
  br i1 %157, label %158, label %161, !prof !5

158:                                              ; preds = %148
  %159 = trunc i64 %150 to i32
  %160 = tail call i8* @_ZN6google8protobuf2io19EpsCopyOutputStream16WriteRawFallbackEPKviPh(%"class.google::protobuf::io::EpsCopyOutputStream"* %2, i8* %149, i32 %159, i8* %126) #13
  br label %163

161:                                              ; preds = %148
  tail call void @llvm.memcpy.p0i8.p0i8.i64(i8* align 1 %126, i8* align 1 %149, i64 %156, i1 false) #13
  %162 = getelementptr inbounds i8, i8* %126, i64 %156
  br label %163

163:                                              ; preds = %125, %161, %158
  %164 = phi i8* [ %126, %125 ], [ %160, %158 ], [ %162, %161 ]
  ret i8* %164
}

; Function Attrs: nounwind ssp uwtable
define hidden i64 @_ZNK8feedwire13NextPageToken12ByteSizeLongEv(%"class.feedwire::NextPageToken"* nocapture) unnamed_addr #0 align 2 {
  %2 = getelementptr inbounds %"class.feedwire::NextPageToken", %"class.feedwire::NextPageToken"* %0, i64 0, i32 1, i32 0, i64 0
  %3 = load i32, i32* %2, align 4
  %4 = and i32 %3, 7
  %5 = icmp eq i32 %4, 0
  br i1 %5, label %117, label %6

6:                                                ; preds = %1
  %7 = and i32 %3, 1
  %8 = icmp eq i32 %7, 0
  br i1 %8, label %30, label %9

9:                                                ; preds = %6
  %10 = getelementptr inbounds %"class.feedwire::NextPageToken", %"class.feedwire::NextPageToken"* %0, i64 0, i32 3, i32 0
  %11 = load %"class.std::__1::basic_string"*, %"class.std::__1::basic_string"** %10, align 8
  %12 = bitcast %"class.std::__1::basic_string"* %11 to %"struct.std::__1::basic_string<char, std::__1::char_traits<char>, std::__1::allocator<char> >::__short"*
  %13 = getelementptr inbounds %"struct.std::__1::basic_string<char, std::__1::char_traits<char>, std::__1::allocator<char> >::__short", %"struct.std::__1::basic_string<char, std::__1::char_traits<char>, std::__1::allocator<char> >::__short"* %12, i64 0, i32 1, i32 0
  %14 = load i8, i8* %13, align 1
  %15 = icmp slt i8 %14, 0
  %16 = getelementptr inbounds %"class.std::__1::basic_string", %"class.std::__1::basic_string"* %11, i64 0, i32 0, i32 0, i32 0, i32 0, i32 0, i32 1
  %17 = load i64, i64* %16, align 8
  %18 = zext i8 %14 to i64
  %19 = select i1 %15, i64 %17, i64 %18
  %20 = trunc i64 %19 to i32
  %21 = or i32 %20, 1
  %22 = tail call i32 @llvm.ctlz.i32(i32 %21, i1 true) #13, !range !6
  %23 = xor i32 %22, 31
  %24 = mul nuw nsw i32 %23, 9
  %25 = add nuw nsw i32 %24, 73
  %26 = lshr i32 %25, 6
  %27 = zext i32 %26 to i64
  %28 = add i64 %19, 1
  %29 = add i64 %28, %27
  br label %30

30:                                               ; preds = %6, %9
  %31 = phi i64 [ %29, %9 ], [ 0, %6 ]
  %32 = and i32 %3, 2
  %33 = icmp eq i32 %32, 0
  br i1 %33, label %56, label %34

34:                                               ; preds = %30
  %35 = getelementptr inbounds %"class.feedwire::NextPageToken", %"class.feedwire::NextPageToken"* %0, i64 0, i32 4, i32 0
  %36 = load %"class.std::__1::basic_string"*, %"class.std::__1::basic_string"** %35, align 8
  %37 = bitcast %"class.std::__1::basic_string"* %36 to %"struct.std::__1::basic_string<char, std::__1::char_traits<char>, std::__1::allocator<char> >::__short"*
  %38 = getelementptr inbounds %"struct.std::__1::basic_string<char, std::__1::char_traits<char>, std::__1::allocator<char> >::__short", %"struct.std::__1::basic_string<char, std::__1::char_traits<char>, std::__1::allocator<char> >::__short"* %37, i64 0, i32 1, i32 0
  %39 = load i8, i8* %38, align 1
  %40 = icmp slt i8 %39, 0
  %41 = getelementptr inbounds %"class.std::__1::basic_string", %"class.std::__1::basic_string"* %36, i64 0, i32 0, i32 0, i32 0, i32 0, i32 0, i32 1
  %42 = load i64, i64* %41, align 8
  %43 = zext i8 %39 to i64
  %44 = select i1 %40, i64 %42, i64 %43
  %45 = trunc i64 %44 to i32
  %46 = or i32 %45, 1
  %47 = tail call i32 @llvm.ctlz.i32(i32 %46, i1 true) #13, !range !6
  %48 = xor i32 %47, 31
  %49 = mul nuw nsw i32 %48, 9
  %50 = add nuw nsw i32 %49, 73
  %51 = lshr i32 %50, 6
  %52 = zext i32 %51 to i64
  %53 = add i64 %31, 1
  %54 = add i64 %53, %44
  %55 = add i64 %54, %52
  br label %56

56:                                               ; preds = %30, %34
  %57 = phi i64 [ %55, %34 ], [ %31, %30 ]
  %58 = and i32 %3, 4
  %59 = icmp eq i32 %58, 0
  br i1 %59, label %117, label %60

60:                                               ; preds = %56
  %61 = getelementptr inbounds %"class.feedwire::NextPageToken", %"class.feedwire::NextPageToken"* %0, i64 0, i32 5
  %62 = load %"class.feedwire::TokenHandling"*, %"class.feedwire::TokenHandling"** %61, align 8
  %63 = getelementptr inbounds %"class.feedwire::TokenHandling", %"class.feedwire::TokenHandling"* %62, i64 0, i32 1, i32 0, i64 0
  %64 = load i32, i32* %63, align 4
  %65 = and i32 %64, 1
  %66 = icmp eq i32 %65, 0
  br i1 %66, label %80, label %67

67:                                               ; preds = %60
  %68 = getelementptr inbounds %"class.feedwire::TokenHandling", %"class.feedwire::TokenHandling"* %62, i64 0, i32 3
  %69 = load i32, i32* %68, align 8
  %70 = icmp slt i32 %69, 0
  br i1 %70, label %80, label %71

71:                                               ; preds = %67
  %72 = or i32 %69, 1
  %73 = tail call i32 @llvm.ctlz.i32(i32 %72, i1 true) #13, !range !6
  %74 = xor i32 %73, 31
  %75 = mul nuw nsw i32 %74, 9
  %76 = add nuw nsw i32 %75, 73
  %77 = lshr i32 %76, 6
  %78 = add nuw nsw i32 %77, 1
  %79 = zext i32 %78 to i64
  br label %80

80:                                               ; preds = %71, %67, %60
  %81 = phi i64 [ 0, %60 ], [ %79, %71 ], [ 11, %67 ]
  %82 = getelementptr inbounds %"class.feedwire::TokenHandling", %"class.feedwire::TokenHandling"* %62, i64 0, i32 0, i32 1
  %83 = bitcast %"class.google::protobuf::internal::InternalMetadata"* %82 to i64*
  %84 = load i64, i64* %83, align 8
  %85 = and i64 %84, 1
  %86 = icmp eq i64 %85, 0
  br i1 %86, label %103, label %87, !prof !2

87:                                               ; preds = %80
  %88 = and i64 %84, -2
  %89 = inttoptr i64 %88 to %"struct.google::protobuf::internal::InternalMetadata::Container"*
  %90 = getelementptr inbounds %"struct.google::protobuf::internal::InternalMetadata::Container", %"struct.google::protobuf::internal::InternalMetadata::Container"* %89, i64 0, i32 1
  %91 = bitcast %"class.std::__1::basic_string"* %90 to %"struct.std::__1::basic_string<char, std::__1::char_traits<char>, std::__1::allocator<char> >::__short"*
  %92 = getelementptr inbounds %"struct.std::__1::basic_string<char, std::__1::char_traits<char>, std::__1::allocator<char> >::__short", %"struct.std::__1::basic_string<char, std::__1::char_traits<char>, std::__1::allocator<char> >::__short"* %91, i64 0, i32 1, i32 0
  %93 = load i8, i8* %92, align 1
  %94 = icmp slt i8 %93, 0
  br i1 %94, label %95, label %98

95:                                               ; preds = %87
  %96 = getelementptr inbounds %"struct.google::protobuf::internal::InternalMetadata::Container", %"struct.google::protobuf::internal::InternalMetadata::Container"* %89, i64 0, i32 1, i32 0, i32 0, i32 0, i32 0, i32 0, i32 1
  %97 = load i64, i64* %96, align 8
  br label %100

98:                                               ; preds = %87
  %99 = zext i8 %93 to i64
  br label %100

100:                                              ; preds = %98, %95
  %101 = phi i64 [ %97, %95 ], [ %99, %98 ]
  %102 = add i64 %101, %81
  br label %103

103:                                              ; preds = %80, %100
  %104 = phi i64 [ %102, %100 ], [ %81, %80 ]
  %105 = trunc i64 %104 to i32
  %106 = getelementptr inbounds %"class.feedwire::TokenHandling", %"class.feedwire::TokenHandling"* %62, i64 0, i32 2, i32 0, i32 0, i32 0, i32 0, i32 0, i32 0
  store atomic i32 %105, i32* %106 monotonic, align 4
  %107 = or i32 %105, 1
  %108 = tail call i32 @llvm.ctlz.i32(i32 %107, i1 true) #13, !range !6
  %109 = xor i32 %108, 31
  %110 = mul nuw nsw i32 %109, 9
  %111 = add nuw nsw i32 %110, 73
  %112 = lshr i32 %111, 6
  %113 = zext i32 %112 to i64
  %114 = add i64 %57, 1
  %115 = add i64 %114, %104
  %116 = add i64 %115, %113
  br label %117

117:                                              ; preds = %56, %1, %103
  %118 = phi i64 [ %116, %103 ], [ %57, %56 ], [ 0, %1 ]
  %119 = getelementptr inbounds %"class.feedwire::NextPageToken", %"class.feedwire::NextPageToken"* %0, i64 0, i32 0, i32 1
  %120 = bitcast %"class.google::protobuf::internal::InternalMetadata"* %119 to i64*
  %121 = load i64, i64* %120, align 8
  %122 = and i64 %121, 1
  %123 = icmp eq i64 %122, 0
  br i1 %123, label %140, label %124, !prof !2

124:                                              ; preds = %117
  %125 = and i64 %121, -2
  %126 = inttoptr i64 %125 to %"struct.google::protobuf::internal::InternalMetadata::Container"*
  %127 = getelementptr inbounds %"struct.google::protobuf::internal::InternalMetadata::Container", %"struct.google::protobuf::internal::InternalMetadata::Container"* %126, i64 0, i32 1
  %128 = bitcast %"class.std::__1::basic_string"* %127 to %"struct.std::__1::basic_string<char, std::__1::char_traits<char>, std::__1::allocator<char> >::__short"*
  %129 = getelementptr inbounds %"struct.std::__1::basic_string<char, std::__1::char_traits<char>, std::__1::allocator<char> >::__short", %"struct.std::__1::basic_string<char, std::__1::char_traits<char>, std::__1::allocator<char> >::__short"* %128, i64 0, i32 1, i32 0
  %130 = load i8, i8* %129, align 1
  %131 = icmp slt i8 %130, 0
  br i1 %131, label %132, label %135

132:                                              ; preds = %124
  %133 = getelementptr inbounds %"struct.google::protobuf::internal::InternalMetadata::Container", %"struct.google::protobuf::internal::InternalMetadata::Container"* %126, i64 0, i32 1, i32 0, i32 0, i32 0, i32 0, i32 0, i32 1
  %134 = load i64, i64* %133, align 8
  br label %137

135:                                              ; preds = %124
  %136 = zext i8 %130 to i64
  br label %137

137:                                              ; preds = %132, %135
  %138 = phi i64 [ %134, %132 ], [ %136, %135 ]
  %139 = add i64 %138, %118
  br label %140

140:                                              ; preds = %117, %137
  %141 = phi i64 [ %139, %137 ], [ %118, %117 ]
  %142 = trunc i64 %141 to i32
  %143 = getelementptr inbounds %"class.feedwire::NextPageToken", %"class.feedwire::NextPageToken"* %0, i64 0, i32 2, i32 0, i32 0, i32 0, i32 0, i32 0, i32 0
  store atomic i32 %142, i32* %143 monotonic, align 4
  ret i64 %141
}

; Function Attrs: nounwind ssp uwtable
define hidden void @_ZN8feedwire13NextPageToken21CheckTypeAndMergeFromERKN6google8protobuf11MessageLiteE(%"class.feedwire::NextPageToken"*, %"class.google::protobuf::MessageLite"* nocapture readonly dereferenceable(16)) unnamed_addr #0 align 2 {
  %3 = bitcast %"class.google::protobuf::MessageLite"* %1 to %"class.feedwire::NextPageToken"*
  tail call void @_ZN8feedwire13NextPageToken9MergeFromERKS0_(%"class.feedwire::NextPageToken"* %0, %"class.feedwire::NextPageToken"* dereferenceable(48) %3)
  ret void
}

; Function Attrs: nounwind ssp uwtable
define hidden void @_ZN8feedwire13NextPageToken9MergeFromERKS0_(%"class.feedwire::NextPageToken"*, %"class.feedwire::NextPageToken"* nocapture readonly dereferenceable(48)) local_unnamed_addr #0 align 2 {
  %3 = getelementptr inbounds %"class.feedwire::NextPageToken", %"class.feedwire::NextPageToken"* %0, i64 0, i32 0, i32 1
  %4 = getelementptr inbounds %"class.feedwire::NextPageToken", %"class.feedwire::NextPageToken"* %1, i64 0, i32 0, i32 1
  %5 = bitcast %"class.google::protobuf::internal::InternalMetadata"* %4 to i64*
  %6 = load i64, i64* %5, align 8
  %7 = and i64 %6, 1
  %8 = icmp eq i64 %7, 0
  br i1 %8, label %38, label %9

9:                                                ; preds = %2
  %10 = and i64 %6, -2
  %11 = inttoptr i64 %10 to %"struct.google::protobuf::internal::InternalMetadata::Container"*
  %12 = getelementptr inbounds %"struct.google::protobuf::internal::InternalMetadata::Container", %"struct.google::protobuf::internal::InternalMetadata::Container"* %11, i64 0, i32 1
  %13 = bitcast %"class.google::protobuf::internal::InternalMetadata"* %3 to i64*
  %14 = load i64, i64* %13, align 8
  %15 = and i64 %14, 1
  %16 = icmp eq i64 %15, 0
  br i1 %16, label %21, label %17, !prof !5

17:                                               ; preds = %9
  %18 = and i64 %14, -2
  %19 = inttoptr i64 %18 to %"struct.google::protobuf::internal::InternalMetadata::Container"*
  %20 = getelementptr inbounds %"struct.google::protobuf::internal::InternalMetadata::Container", %"struct.google::protobuf::internal::InternalMetadata::Container"* %19, i64 0, i32 1
  br label %23

21:                                               ; preds = %9
  %22 = tail call %"class.std::__1::basic_string"* @_ZN6google8protobuf8internal16InternalMetadata27mutable_unknown_fields_slowINSt3__112basic_stringIcNS4_11char_traitsIcEENS4_9allocatorIcEEEEEEPT_v(%"class.google::protobuf::internal::InternalMetadata"* %3) #13
  br label %23

23:                                               ; preds = %21, %17
  %24 = phi %"class.std::__1::basic_string"* [ %20, %17 ], [ %22, %21 ]
  %25 = bitcast %"class.std::__1::basic_string"* %12 to %"struct.std::__1::basic_string<char, std::__1::char_traits<char>, std::__1::allocator<char> >::__short"*
  %26 = getelementptr inbounds %"struct.std::__1::basic_string<char, std::__1::char_traits<char>, std::__1::allocator<char> >::__short", %"struct.std::__1::basic_string<char, std::__1::char_traits<char>, std::__1::allocator<char> >::__short"* %25, i64 0, i32 1, i32 0
  %27 = load i8, i8* %26, align 1
  %28 = icmp slt i8 %27, 0
  %29 = getelementptr inbounds %"class.std::__1::basic_string", %"class.std::__1::basic_string"* %12, i64 0, i32 0, i32 0, i32 0, i32 0, i32 0, i32 0
  %30 = load i8*, i8** %29, align 8
  %31 = getelementptr inbounds %"struct.google::protobuf::internal::InternalMetadata::Container", %"struct.google::protobuf::internal::InternalMetadata::Container"* %11, i64 0, i32 1, i32 0, i32 0, i32 0, i32 0, i32 0, i32 1
  %32 = load i64, i64* %31, align 8
  %33 = bitcast %"class.std::__1::basic_string"* %12 to i8*
  %34 = zext i8 %27 to i64
  %35 = select i1 %28, i8* %30, i8* %33
  %36 = select i1 %28, i64 %32, i64 %34
  %37 = tail call dereferenceable(24) %"class.std::__1::basic_string"* @_ZNSt3__112basic_stringIcNS_11char_traitsIcEENS_9allocatorIcEEE6appendEPKcm(%"class.std::__1::basic_string"* %24, i8* %35, i64 %36) #13
  br label %38

38:                                               ; preds = %2, %23
  %39 = getelementptr inbounds %"class.feedwire::NextPageToken", %"class.feedwire::NextPageToken"* %1, i64 0, i32 1, i32 0, i64 0
  %40 = load i32, i32* %39, align 4
  %41 = and i32 %40, 7
  %42 = icmp eq i32 %41, 0
  br i1 %42, label %237, label %43

43:                                               ; preds = %38
  %44 = and i32 %40, 1
  %45 = icmp eq i32 %44, 0
  br i1 %45, label %101, label %46

46:                                               ; preds = %43
  %47 = getelementptr inbounds %"class.feedwire::NextPageToken", %"class.feedwire::NextPageToken"* %1, i64 0, i32 3, i32 0
  %48 = load %"class.std::__1::basic_string"*, %"class.std::__1::basic_string"** %47, align 8
  %49 = getelementptr inbounds %"class.feedwire::NextPageToken", %"class.feedwire::NextPageToken"* %0, i64 0, i32 1, i32 0, i64 0
  %50 = load i32, i32* %49, align 4
  %51 = or i32 %50, 1
  store i32 %51, i32* %49, align 4
  %52 = getelementptr inbounds %"class.feedwire::NextPageToken", %"class.feedwire::NextPageToken"* %0, i64 0, i32 3
  %53 = bitcast %"class.google::protobuf::internal::InternalMetadata"* %3 to i64*
  %54 = load i64, i64* %53, align 8
  %55 = and i64 %54, 1
  %56 = icmp eq i64 %55, 0
  %57 = and i64 %54, -2
  br i1 %56, label %62, label %58, !prof !2

58:                                               ; preds = %46
  %59 = inttoptr i64 %57 to %"struct.google::protobuf::internal::InternalMetadata::ContainerBase"*
  %60 = getelementptr inbounds %"struct.google::protobuf::internal::InternalMetadata::ContainerBase", %"struct.google::protobuf::internal::InternalMetadata::ContainerBase"* %59, i64 0, i32 0
  %61 = load %"class.google::protobuf::Arena"*, %"class.google::protobuf::Arena"** %60, align 8
  br label %64

62:                                               ; preds = %46
  %63 = inttoptr i64 %57 to %"class.google::protobuf::Arena"*
  br label %64

64:                                               ; preds = %62, %58
  %65 = phi %"class.google::protobuf::Arena"* [ %61, %58 ], [ %63, %62 ]
  %66 = getelementptr inbounds %"struct.google::protobuf::internal::ArenaStringPtr", %"struct.google::protobuf::internal::ArenaStringPtr"* %52, i64 0, i32 0
  %67 = load %"class.std::__1::basic_string"*, %"class.std::__1::basic_string"** %66, align 8
  %68 = icmp eq %"class.std::__1::basic_string"* %67, bitcast (%"class.google::protobuf::internal::ExplicitlyConstructed.4"* @_ZN6google8protobuf8internal26fixed_address_empty_stringE to %"class.std::__1::basic_string"*)
  br i1 %68, label %69, label %70

69:                                               ; preds = %64
  tail call void @_ZN6google8protobuf8internal14ArenaStringPtr14CreateInstanceEPNS0_5ArenaEPKNSt3__112basic_stringIcNS5_11char_traitsIcEENS5_9allocatorIcEEEE(%"struct.google::protobuf::internal::ArenaStringPtr"* %52, %"class.google::protobuf::Arena"* %65, %"class.std::__1::basic_string"* %48) #13
  br label %101

70:                                               ; preds = %64
  %71 = icmp eq %"class.std::__1::basic_string"* %67, %48
  br i1 %71, label %101, label %72

72:                                               ; preds = %70
  %73 = bitcast %"class.std::__1::basic_string"* %67 to %"struct.std::__1::basic_string<char, std::__1::char_traits<char>, std::__1::allocator<char> >::__short"*
  %74 = getelementptr inbounds %"struct.std::__1::basic_string<char, std::__1::char_traits<char>, std::__1::allocator<char> >::__short", %"struct.std::__1::basic_string<char, std::__1::char_traits<char>, std::__1::allocator<char> >::__short"* %73, i64 0, i32 1, i32 0
  %75 = load i8, i8* %74, align 1
  %76 = icmp slt i8 %75, 0
  %77 = bitcast %"class.std::__1::basic_string"* %48 to %"struct.std::__1::basic_string<char, std::__1::char_traits<char>, std::__1::allocator<char> >::__short"*
  %78 = getelementptr inbounds %"struct.std::__1::basic_string<char, std::__1::char_traits<char>, std::__1::allocator<char> >::__short", %"struct.std::__1::basic_string<char, std::__1::char_traits<char>, std::__1::allocator<char> >::__short"* %77, i64 0, i32 1, i32 0
  %79 = load i8, i8* %78, align 1
  %80 = icmp slt i8 %79, 0
  br i1 %76, label %91, label %81

81:                                               ; preds = %72
  br i1 %80, label %85, label %82

82:                                               ; preds = %81
  %83 = bitcast %"class.std::__1::basic_string"* %67 to i8*
  %84 = bitcast %"class.std::__1::basic_string"* %48 to i8*
  tail call void @llvm.memcpy.p0i8.p0i8.i64(i8* align 8 %83, i8* align 8 %84, i64 24, i1 false) #13
  br label %101

85:                                               ; preds = %81
  %86 = getelementptr inbounds %"class.std::__1::basic_string", %"class.std::__1::basic_string"* %48, i64 0, i32 0, i32 0, i32 0, i32 0, i32 0, i32 0
  %87 = load i8*, i8** %86, align 8
  %88 = getelementptr inbounds %"class.std::__1::basic_string", %"class.std::__1::basic_string"* %48, i64 0, i32 0, i32 0, i32 0, i32 0, i32 0, i32 1
  %89 = load i64, i64* %88, align 8
  %90 = tail call dereferenceable(24) %"class.std::__1::basic_string"* @_ZNSt3__112basic_stringIcNS_11char_traitsIcEENS_9allocatorIcEEE17__assign_no_aliasILb1EEERS5_PKcm(%"class.std::__1::basic_string"* %67, i8* %87, i64 %89) #13
  br label %101

91:                                               ; preds = %72
  %92 = getelementptr inbounds %"class.std::__1::basic_string", %"class.std::__1::basic_string"* %48, i64 0, i32 0, i32 0, i32 0, i32 0, i32 0, i32 0
  %93 = load i8*, i8** %92, align 8
  %94 = getelementptr inbounds %"class.std::__1::basic_string", %"class.std::__1::basic_string"* %48, i64 0, i32 0, i32 0, i32 0, i32 0, i32 0, i32 1
  %95 = load i64, i64* %94, align 8
  %96 = bitcast %"class.std::__1::basic_string"* %48 to i8*
  %97 = zext i8 %79 to i64
  %98 = select i1 %80, i8* %93, i8* %96
  %99 = select i1 %80, i64 %95, i64 %97
  %100 = tail call dereferenceable(24) %"class.std::__1::basic_string"* @_ZNSt3__112basic_stringIcNS_11char_traitsIcEENS_9allocatorIcEEE17__assign_no_aliasILb0EEERS5_PKcm(%"class.std::__1::basic_string"* %67, i8* %98, i64 %99) #13
  br label %101

101:                                              ; preds = %91, %85, %82, %70, %69, %43
  %102 = and i32 %40, 2
  %103 = icmp eq i32 %102, 0
  br i1 %103, label %159, label %104

104:                                              ; preds = %101
  %105 = getelementptr inbounds %"class.feedwire::NextPageToken", %"class.feedwire::NextPageToken"* %1, i64 0, i32 4, i32 0
  %106 = load %"class.std::__1::basic_string"*, %"class.std::__1::basic_string"** %105, align 8
  %107 = getelementptr inbounds %"class.feedwire::NextPageToken", %"class.feedwire::NextPageToken"* %0, i64 0, i32 1, i32 0, i64 0
  %108 = load i32, i32* %107, align 4
  %109 = or i32 %108, 2
  store i32 %109, i32* %107, align 4
  %110 = getelementptr inbounds %"class.feedwire::NextPageToken", %"class.feedwire::NextPageToken"* %0, i64 0, i32 4
  %111 = bitcast %"class.google::protobuf::internal::InternalMetadata"* %3 to i64*
  %112 = load i64, i64* %111, align 8
  %113 = and i64 %112, 1
  %114 = icmp eq i64 %113, 0
  %115 = and i64 %112, -2
  br i1 %114, label %120, label %116, !prof !2

116:                                              ; preds = %104
  %117 = inttoptr i64 %115 to %"struct.google::protobuf::internal::InternalMetadata::ContainerBase"*
  %118 = getelementptr inbounds %"struct.google::protobuf::internal::InternalMetadata::ContainerBase", %"struct.google::protobuf::internal::InternalMetadata::ContainerBase"* %117, i64 0, i32 0
  %119 = load %"class.google::protobuf::Arena"*, %"class.google::protobuf::Arena"** %118, align 8
  br label %122

120:                                              ; preds = %104
  %121 = inttoptr i64 %115 to %"class.google::protobuf::Arena"*
  br label %122

122:                                              ; preds = %120, %116
  %123 = phi %"class.google::protobuf::Arena"* [ %119, %116 ], [ %121, %120 ]
  %124 = getelementptr inbounds %"struct.google::protobuf::internal::ArenaStringPtr", %"struct.google::protobuf::internal::ArenaStringPtr"* %110, i64 0, i32 0
  %125 = load %"class.std::__1::basic_string"*, %"class.std::__1::basic_string"** %124, align 8
  %126 = icmp eq %"class.std::__1::basic_string"* %125, bitcast (%"class.google::protobuf::internal::ExplicitlyConstructed.4"* @_ZN6google8protobuf8internal26fixed_address_empty_stringE to %"class.std::__1::basic_string"*)
  br i1 %126, label %127, label %128

127:                                              ; preds = %122
  tail call void @_ZN6google8protobuf8internal14ArenaStringPtr14CreateInstanceEPNS0_5ArenaEPKNSt3__112basic_stringIcNS5_11char_traitsIcEENS5_9allocatorIcEEEE(%"struct.google::protobuf::internal::ArenaStringPtr"* %110, %"class.google::protobuf::Arena"* %123, %"class.std::__1::basic_string"* %106) #13
  br label %159

128:                                              ; preds = %122
  %129 = icmp eq %"class.std::__1::basic_string"* %125, %106
  br i1 %129, label %159, label %130

130:                                              ; preds = %128
  %131 = bitcast %"class.std::__1::basic_string"* %125 to %"struct.std::__1::basic_string<char, std::__1::char_traits<char>, std::__1::allocator<char> >::__short"*
  %132 = getelementptr inbounds %"struct.std::__1::basic_string<char, std::__1::char_traits<char>, std::__1::allocator<char> >::__short", %"struct.std::__1::basic_string<char, std::__1::char_traits<char>, std::__1::allocator<char> >::__short"* %131, i64 0, i32 1, i32 0
  %133 = load i8, i8* %132, align 1
  %134 = icmp slt i8 %133, 0
  %135 = bitcast %"class.std::__1::basic_string"* %106 to %"struct.std::__1::basic_string<char, std::__1::char_traits<char>, std::__1::allocator<char> >::__short"*
  %136 = getelementptr inbounds %"struct.std::__1::basic_string<char, std::__1::char_traits<char>, std::__1::allocator<char> >::__short", %"struct.std::__1::basic_string<char, std::__1::char_traits<char>, std::__1::allocator<char> >::__short"* %135, i64 0, i32 1, i32 0
  %137 = load i8, i8* %136, align 1
  %138 = icmp slt i8 %137, 0
  br i1 %134, label %149, label %139

139:                                              ; preds = %130
  br i1 %138, label %143, label %140

140:                                              ; preds = %139
  %141 = bitcast %"class.std::__1::basic_string"* %125 to i8*
  %142 = bitcast %"class.std::__1::basic_string"* %106 to i8*
  tail call void @llvm.memcpy.p0i8.p0i8.i64(i8* align 8 %141, i8* align 8 %142, i64 24, i1 false) #13
  br label %159

143:                                              ; preds = %139
  %144 = getelementptr inbounds %"class.std::__1::basic_string", %"class.std::__1::basic_string"* %106, i64 0, i32 0, i32 0, i32 0, i32 0, i32 0, i32 0
  %145 = load i8*, i8** %144, align 8
  %146 = getelementptr inbounds %"class.std::__1::basic_string", %"class.std::__1::basic_string"* %106, i64 0, i32 0, i32 0, i32 0, i32 0, i32 0, i32 1
  %147 = load i64, i64* %146, align 8
  %148 = tail call dereferenceable(24) %"class.std::__1::basic_string"* @_ZNSt3__112basic_stringIcNS_11char_traitsIcEENS_9allocatorIcEEE17__assign_no_aliasILb1EEERS5_PKcm(%"class.std::__1::basic_string"* %125, i8* %145, i64 %147) #13
  br label %159

149:                                              ; preds = %130
  %150 = getelementptr inbounds %"class.std::__1::basic_string", %"class.std::__1::basic_string"* %106, i64 0, i32 0, i32 0, i32 0, i32 0, i32 0, i32 0
  %151 = load i8*, i8** %150, align 8
  %152 = getelementptr inbounds %"class.std::__1::basic_string", %"class.std::__1::basic_string"* %106, i64 0, i32 0, i32 0, i32 0, i32 0, i32 0, i32 1
  %153 = load i64, i64* %152, align 8
  %154 = bitcast %"class.std::__1::basic_string"* %106 to i8*
  %155 = zext i8 %137 to i64
  %156 = select i1 %138, i8* %151, i8* %154
  %157 = select i1 %138, i64 %153, i64 %155
  %158 = tail call dereferenceable(24) %"class.std::__1::basic_string"* @_ZNSt3__112basic_stringIcNS_11char_traitsIcEENS_9allocatorIcEEE17__assign_no_aliasILb0EEERS5_PKcm(%"class.std::__1::basic_string"* %125, i8* %156, i64 %157) #13
  br label %159

159:                                              ; preds = %149, %143, %140, %128, %127, %101
  %160 = and i32 %40, 4
  %161 = icmp eq i32 %160, 0
  br i1 %161, label %237, label %162

162:                                              ; preds = %159
  %163 = getelementptr inbounds %"class.feedwire::NextPageToken", %"class.feedwire::NextPageToken"* %0, i64 0, i32 1, i32 0, i64 0
  %164 = load i32, i32* %163, align 4
  %165 = or i32 %164, 4
  store i32 %165, i32* %163, align 4
  %166 = getelementptr inbounds %"class.feedwire::NextPageToken", %"class.feedwire::NextPageToken"* %0, i64 0, i32 5
  %167 = load %"class.feedwire::TokenHandling"*, %"class.feedwire::TokenHandling"** %166, align 8
  %168 = icmp eq %"class.feedwire::TokenHandling"* %167, null
  br i1 %168, label %169, label %184

169:                                              ; preds = %162
  %170 = bitcast %"class.google::protobuf::internal::InternalMetadata"* %3 to i64*
  %171 = load i64, i64* %170, align 8
  %172 = and i64 %171, 1
  %173 = icmp eq i64 %172, 0
  %174 = and i64 %171, -2
  br i1 %173, label %179, label %175, !prof !2

175:                                              ; preds = %169
  %176 = inttoptr i64 %174 to %"struct.google::protobuf::internal::InternalMetadata::ContainerBase"*
  %177 = getelementptr inbounds %"struct.google::protobuf::internal::InternalMetadata::ContainerBase", %"struct.google::protobuf::internal::InternalMetadata::ContainerBase"* %176, i64 0, i32 0
  %178 = load %"class.google::protobuf::Arena"*, %"class.google::protobuf::Arena"** %177, align 8
  br label %181

179:                                              ; preds = %169
  %180 = inttoptr i64 %174 to %"class.google::protobuf::Arena"*
  br label %181

181:                                              ; preds = %179, %175
  %182 = phi %"class.google::protobuf::Arena"* [ %178, %175 ], [ %180, %179 ]
  %183 = tail call %"class.feedwire::TokenHandling"* @_ZN6google8protobuf5Arena18CreateMaybeMessageIN8feedwire13TokenHandlingEJEEEPT_PS1_DpOT0_(%"class.google::protobuf::Arena"* %182) #13
  store %"class.feedwire::TokenHandling"* %183, %"class.feedwire::TokenHandling"** %166, align 8
  br label %184

184:                                              ; preds = %162, %181
  %185 = phi %"class.feedwire::TokenHandling"* [ %183, %181 ], [ %167, %162 ]
  %186 = getelementptr inbounds %"class.feedwire::NextPageToken", %"class.feedwire::NextPageToken"* %1, i64 0, i32 5
  %187 = load %"class.feedwire::TokenHandling"*, %"class.feedwire::TokenHandling"** %186, align 8
  %188 = icmp eq %"class.feedwire::TokenHandling"* %187, null
  %189 = select i1 %188, %"class.feedwire::TokenHandling"* bitcast (%"class.feedwire::TokenHandlingDefaultTypeInternal"* @_ZN8feedwire32_TokenHandling_default_instance_E to %"class.feedwire::TokenHandling"*), %"class.feedwire::TokenHandling"* %187
  %190 = getelementptr inbounds %"class.feedwire::TokenHandling", %"class.feedwire::TokenHandling"* %185, i64 0, i32 0, i32 1
  %191 = getelementptr inbounds %"class.feedwire::TokenHandling", %"class.feedwire::TokenHandling"* %189, i64 0, i32 0, i32 1
  %192 = bitcast %"class.google::protobuf::internal::InternalMetadata"* %191 to i64*
  %193 = load i64, i64* %192, align 8
  %194 = and i64 %193, 1
  %195 = icmp eq i64 %194, 0
  br i1 %195, label %225, label %196

196:                                              ; preds = %184
  %197 = and i64 %193, -2
  %198 = inttoptr i64 %197 to %"struct.google::protobuf::internal::InternalMetadata::Container"*
  %199 = getelementptr inbounds %"struct.google::protobuf::internal::InternalMetadata::Container", %"struct.google::protobuf::internal::InternalMetadata::Container"* %198, i64 0, i32 1
  %200 = bitcast %"class.google::protobuf::internal::InternalMetadata"* %190 to i64*
  %201 = load i64, i64* %200, align 8
  %202 = and i64 %201, 1
  %203 = icmp eq i64 %202, 0
  br i1 %203, label %208, label %204, !prof !5

204:                                              ; preds = %196
  %205 = and i64 %201, -2
  %206 = inttoptr i64 %205 to %"struct.google::protobuf::internal::InternalMetadata::Container"*
  %207 = getelementptr inbounds %"struct.google::protobuf::internal::InternalMetadata::Container", %"struct.google::protobuf::internal::InternalMetadata::Container"* %206, i64 0, i32 1
  br label %210

208:                                              ; preds = %196
  %209 = tail call %"class.std::__1::basic_string"* @_ZN6google8protobuf8internal16InternalMetadata27mutable_unknown_fields_slowINSt3__112basic_stringIcNS4_11char_traitsIcEENS4_9allocatorIcEEEEEEPT_v(%"class.google::protobuf::internal::InternalMetadata"* %190) #13
  br label %210

210:                                              ; preds = %208, %204
  %211 = phi %"class.std::__1::basic_string"* [ %207, %204 ], [ %209, %208 ]
  %212 = bitcast %"class.std::__1::basic_string"* %199 to %"struct.std::__1::basic_string<char, std::__1::char_traits<char>, std::__1::allocator<char> >::__short"*
  %213 = getelementptr inbounds %"struct.std::__1::basic_string<char, std::__1::char_traits<char>, std::__1::allocator<char> >::__short", %"struct.std::__1::basic_string<char, std::__1::char_traits<char>, std::__1::allocator<char> >::__short"* %212, i64 0, i32 1, i32 0
  %214 = load i8, i8* %213, align 1
  %215 = icmp slt i8 %214, 0
  %216 = getelementptr inbounds %"class.std::__1::basic_string", %"class.std::__1::basic_string"* %199, i64 0, i32 0, i32 0, i32 0, i32 0, i32 0, i32 0
  %217 = load i8*, i8** %216, align 8
  %218 = getelementptr inbounds %"struct.google::protobuf::internal::InternalMetadata::Container", %"struct.google::protobuf::internal::InternalMetadata::Container"* %198, i64 0, i32 1, i32 0, i32 0, i32 0, i32 0, i32 0, i32 1
  %219 = load i64, i64* %218, align 8
  %220 = bitcast %"class.std::__1::basic_string"* %199 to i8*
  %221 = zext i8 %214 to i64
  %222 = select i1 %215, i8* %217, i8* %220
  %223 = select i1 %215, i64 %219, i64 %221
  %224 = tail call dereferenceable(24) %"class.std::__1::basic_string"* @_ZNSt3__112basic_stringIcNS_11char_traitsIcEENS_9allocatorIcEEE6appendEPKcm(%"class.std::__1::basic_string"* %211, i8* %222, i64 %223) #13
  br label %225

225:                                              ; preds = %210, %184
  %226 = getelementptr inbounds %"class.feedwire::TokenHandling", %"class.feedwire::TokenHandling"* %189, i64 0, i32 1, i32 0, i64 0
  %227 = load i32, i32* %226, align 4
  %228 = and i32 %227, 1
  %229 = icmp eq i32 %228, 0
  br i1 %229, label %237, label %230

230:                                              ; preds = %225
  %231 = getelementptr inbounds %"class.feedwire::TokenHandling", %"class.feedwire::TokenHandling"* %189, i64 0, i32 3
  %232 = load i32, i32* %231, align 8
  %233 = getelementptr inbounds %"class.feedwire::TokenHandling", %"class.feedwire::TokenHandling"* %185, i64 0, i32 1, i32 0, i64 0
  %234 = load i32, i32* %233, align 4
  %235 = or i32 %234, 1
  store i32 %235, i32* %233, align 4
  %236 = getelementptr inbounds %"class.feedwire::TokenHandling", %"class.feedwire::TokenHandling"* %185, i64 0, i32 3
  store i32 %232, i32* %236, align 8
  br label %237

237:                                              ; preds = %230, %225, %159, %38
  ret void
}

; Function Attrs: nounwind ssp uwtable
define hidden void @_ZN8feedwire13TokenHandling9MergeFromERKS0_(%"class.feedwire::TokenHandling"*, %"class.feedwire::TokenHandling"* nocapture readonly dereferenceable(32)) local_unnamed_addr #0 align 2 {
  %3 = getelementptr inbounds %"class.feedwire::TokenHandling", %"class.feedwire::TokenHandling"* %0, i64 0, i32 0, i32 1
  %4 = getelementptr inbounds %"class.feedwire::TokenHandling", %"class.feedwire::TokenHandling"* %1, i64 0, i32 0, i32 1
  %5 = bitcast %"class.google::protobuf::internal::InternalMetadata"* %4 to i64*
  %6 = load i64, i64* %5, align 8
  %7 = and i64 %6, 1
  %8 = icmp eq i64 %7, 0
  br i1 %8, label %38, label %9

9:                                                ; preds = %2
  %10 = and i64 %6, -2
  %11 = inttoptr i64 %10 to %"struct.google::protobuf::internal::InternalMetadata::Container"*
  %12 = getelementptr inbounds %"struct.google::protobuf::internal::InternalMetadata::Container", %"struct.google::protobuf::internal::InternalMetadata::Container"* %11, i64 0, i32 1
  %13 = bitcast %"class.google::protobuf::internal::InternalMetadata"* %3 to i64*
  %14 = load i64, i64* %13, align 8
  %15 = and i64 %14, 1
  %16 = icmp eq i64 %15, 0
  br i1 %16, label %21, label %17, !prof !5

17:                                               ; preds = %9
  %18 = and i64 %14, -2
  %19 = inttoptr i64 %18 to %"struct.google::protobuf::internal::InternalMetadata::Container"*
  %20 = getelementptr inbounds %"struct.google::protobuf::internal::InternalMetadata::Container", %"struct.google::protobuf::internal::InternalMetadata::Container"* %19, i64 0, i32 1
  br label %23

21:                                               ; preds = %9
  %22 = tail call %"class.std::__1::basic_string"* @_ZN6google8protobuf8internal16InternalMetadata27mutable_unknown_fields_slowINSt3__112basic_stringIcNS4_11char_traitsIcEENS4_9allocatorIcEEEEEEPT_v(%"class.google::protobuf::internal::InternalMetadata"* %3) #13
  br label %23

23:                                               ; preds = %21, %17
  %24 = phi %"class.std::__1::basic_string"* [ %20, %17 ], [ %22, %21 ]
  %25 = bitcast %"class.std::__1::basic_string"* %12 to %"struct.std::__1::basic_string<char, std::__1::char_traits<char>, std::__1::allocator<char> >::__short"*
  %26 = getelementptr inbounds %"struct.std::__1::basic_string<char, std::__1::char_traits<char>, std::__1::allocator<char> >::__short", %"struct.std::__1::basic_string<char, std::__1::char_traits<char>, std::__1::allocator<char> >::__short"* %25, i64 0, i32 1, i32 0
  %27 = load i8, i8* %26, align 1
  %28 = icmp slt i8 %27, 0
  %29 = getelementptr inbounds %"class.std::__1::basic_string", %"class.std::__1::basic_string"* %12, i64 0, i32 0, i32 0, i32 0, i32 0, i32 0, i32 0
  %30 = load i8*, i8** %29, align 8
  %31 = getelementptr inbounds %"struct.google::protobuf::internal::InternalMetadata::Container", %"struct.google::protobuf::internal::InternalMetadata::Container"* %11, i64 0, i32 1, i32 0, i32 0, i32 0, i32 0, i32 0, i32 1
  %32 = load i64, i64* %31, align 8
  %33 = bitcast %"class.std::__1::basic_string"* %12 to i8*
  %34 = zext i8 %27 to i64
  %35 = select i1 %28, i8* %30, i8* %33
  %36 = select i1 %28, i64 %32, i64 %34
  %37 = tail call dereferenceable(24) %"class.std::__1::basic_string"* @_ZNSt3__112basic_stringIcNS_11char_traitsIcEENS_9allocatorIcEEE6appendEPKcm(%"class.std::__1::basic_string"* %24, i8* %35, i64 %36) #13
  br label %38

38:                                               ; preds = %2, %23
  %39 = getelementptr inbounds %"class.feedwire::TokenHandling", %"class.feedwire::TokenHandling"* %1, i64 0, i32 1, i32 0, i64 0
  %40 = load i32, i32* %39, align 4
  %41 = and i32 %40, 1
  %42 = icmp eq i32 %41, 0
  br i1 %42, label %50, label %43

43:                                               ; preds = %38
  %44 = getelementptr inbounds %"class.feedwire::TokenHandling", %"class.feedwire::TokenHandling"* %1, i64 0, i32 3
  %45 = load i32, i32* %44, align 8
  %46 = getelementptr inbounds %"class.feedwire::TokenHandling", %"class.feedwire::TokenHandling"* %0, i64 0, i32 1, i32 0, i64 0
  %47 = load i32, i32* %46, align 4
  %48 = or i32 %47, 1
  store i32 %48, i32* %46, align 4
  %49 = getelementptr inbounds %"class.feedwire::TokenHandling", %"class.feedwire::TokenHandling"* %0, i64 0, i32 3
  store i32 %45, i32* %49, align 8
  br label %50

50:                                               ; preds = %38, %43
  ret void
}

; Function Attrs: nounwind ssp uwtable
define hidden void @_ZN8feedwire13NextPageToken8CopyFromERKS0_(%"class.feedwire::NextPageToken"*, %"class.feedwire::NextPageToken"* readonly dereferenceable(48)) local_unnamed_addr #0 align 2 {
  %3 = icmp eq %"class.feedwire::NextPageToken"* %1, %0
  br i1 %3, label %5, label %4

4:                                                ; preds = %2
  tail call void @_ZN8feedwire13NextPageToken5ClearEv(%"class.feedwire::NextPageToken"* %0)
  tail call void @_ZN8feedwire13NextPageToken9MergeFromERKS0_(%"class.feedwire::NextPageToken"* %0, %"class.feedwire::NextPageToken"* dereferenceable(48) %1)
  br label %5

5:                                                ; preds = %2, %4
  ret void
}

; Function Attrs: norecurse nounwind readnone ssp uwtable
define hidden zeroext i1 @_ZNK8feedwire13NextPageToken13IsInitializedEv(%"class.feedwire::NextPageToken"* nocapture readnone) unnamed_addr #1 align 2 {
  ret i1 true
}

; Function Attrs: nounwind ssp uwtable
define hidden void @_ZN8feedwire13NextPageToken12InternalSwapEPS0_(%"class.feedwire::NextPageToken"*, %"class.feedwire::NextPageToken"*) local_unnamed_addr #0 align 2 {
  %3 = getelementptr inbounds %"class.feedwire::NextPageToken", %"class.feedwire::NextPageToken"* %0, i64 0, i32 0, i32 1
  %4 = getelementptr inbounds %"class.feedwire::NextPageToken", %"class.feedwire::NextPageToken"* %1, i64 0, i32 0, i32 1
  %5 = bitcast %"class.google::protobuf::internal::InternalMetadata"* %3 to i64*
  %6 = load i64, i64* %5, align 8
  %7 = bitcast %"class.google::protobuf::internal::InternalMetadata"* %4 to i64*
  %8 = load i64, i64* %7, align 8
  %9 = or i64 %8, %6
  %10 = and i64 %9, 1
  %11 = icmp eq i64 %10, 0
  br i1 %11, label %43, label %12

12:                                               ; preds = %2
  %13 = and i64 %8, 1
  %14 = icmp eq i64 %13, 0
  br i1 %14, label %19, label %15, !prof !5

15:                                               ; preds = %12
  %16 = and i64 %8, -2
  %17 = inttoptr i64 %16 to %"struct.google::protobuf::internal::InternalMetadata::Container"*
  %18 = getelementptr inbounds %"struct.google::protobuf::internal::InternalMetadata::Container", %"struct.google::protobuf::internal::InternalMetadata::Container"* %17, i64 0, i32 1
  br label %22

19:                                               ; preds = %12
  %20 = tail call %"class.std::__1::basic_string"* @_ZN6google8protobuf8internal16InternalMetadata27mutable_unknown_fields_slowINSt3__112basic_stringIcNS4_11char_traitsIcEENS4_9allocatorIcEEEEEEPT_v(%"class.google::protobuf::internal::InternalMetadata"* %4) #13
  %21 = load i64, i64* %5, align 8
  br label %22

22:                                               ; preds = %19, %15
  %23 = phi i64 [ %6, %15 ], [ %21, %19 ]
  %24 = phi %"class.std::__1::basic_string"* [ %18, %15 ], [ %20, %19 ]
  %25 = and i64 %23, 1
  %26 = icmp eq i64 %25, 0
  br i1 %26, label %31, label %27, !prof !5

27:                                               ; preds = %22
  %28 = and i64 %23, -2
  %29 = inttoptr i64 %28 to %"struct.google::protobuf::internal::InternalMetadata::Container"*
  %30 = getelementptr inbounds %"struct.google::protobuf::internal::InternalMetadata::Container", %"struct.google::protobuf::internal::InternalMetadata::Container"* %29, i64 0, i32 1
  br label %33

31:                                               ; preds = %22
  %32 = tail call %"class.std::__1::basic_string"* @_ZN6google8protobuf8internal16InternalMetadata27mutable_unknown_fields_slowINSt3__112basic_stringIcNS4_11char_traitsIcEENS4_9allocatorIcEEEEEEPT_v(%"class.google::protobuf::internal::InternalMetadata"* %3) #13
  br label %33

33:                                               ; preds = %31, %27
  %34 = phi %"class.std::__1::basic_string"* [ %30, %27 ], [ %32, %31 ]
  %35 = bitcast %"class.std::__1::basic_string"* %34 to <2 x i64>*
  %36 = load <2 x i64>, <2 x i64>* %35, align 8
  %37 = getelementptr inbounds %"class.std::__1::basic_string", %"class.std::__1::basic_string"* %34, i64 0, i32 0, i32 0, i32 0, i32 0, i32 0, i32 2
  %38 = load i64, i64* %37, align 8
  %39 = bitcast %"class.std::__1::basic_string"* %34 to i8*
  %40 = bitcast %"class.std::__1::basic_string"* %24 to i8*
  tail call void @llvm.memcpy.p0i8.p0i8.i64(i8* align 8 %39, i8* align 8 %40, i64 24, i1 false) #13
  %41 = bitcast %"class.std::__1::basic_string"* %24 to <2 x i64>*
  store <2 x i64> %36, <2 x i64>* %41, align 8
  %42 = getelementptr inbounds %"class.std::__1::basic_string", %"class.std::__1::basic_string"* %24, i64 0, i32 0, i32 0, i32 0, i32 0, i32 0, i32 2
  store i64 %38, i64* %42, align 8
  br label %43

43:                                               ; preds = %2, %33
  %44 = getelementptr inbounds %"class.feedwire::NextPageToken", %"class.feedwire::NextPageToken"* %0, i64 0, i32 1, i32 0, i64 0
  %45 = getelementptr inbounds %"class.feedwire::NextPageToken", %"class.feedwire::NextPageToken"* %1, i64 0, i32 1, i32 0, i64 0
  %46 = load i32, i32* %44, align 4
  %47 = load i32, i32* %45, align 4
  store i32 %47, i32* %44, align 4
  store i32 %46, i32* %45, align 4
  %48 = getelementptr inbounds %"class.feedwire::NextPageToken", %"class.feedwire::NextPageToken"* %0, i64 0, i32 3
  %49 = getelementptr inbounds %"class.feedwire::NextPageToken", %"class.feedwire::NextPageToken"* %1, i64 0, i32 3
  %50 = bitcast %"struct.google::protobuf::internal::ArenaStringPtr"* %48 to i64*
  %51 = load i64, i64* %50, align 8
  %52 = bitcast %"struct.google::protobuf::internal::ArenaStringPtr"* %49 to i64*
  %53 = load i64, i64* %52, align 8
  store i64 %53, i64* %50, align 8
  store i64 %51, i64* %52, align 8
  %54 = getelementptr inbounds %"class.feedwire::NextPageToken", %"class.feedwire::NextPageToken"* %0, i64 0, i32 4
  %55 = getelementptr inbounds %"class.feedwire::NextPageToken", %"class.feedwire::NextPageToken"* %1, i64 0, i32 4
  %56 = bitcast %"struct.google::protobuf::internal::ArenaStringPtr"* %54 to i64*
  %57 = load i64, i64* %56, align 8
  %58 = bitcast %"struct.google::protobuf::internal::ArenaStringPtr"* %55 to i64*
  %59 = load i64, i64* %58, align 8
  store i64 %59, i64* %56, align 8
  store i64 %57, i64* %58, align 8
  %60 = getelementptr inbounds %"class.feedwire::NextPageToken", %"class.feedwire::NextPageToken"* %0, i64 0, i32 5
  %61 = getelementptr inbounds %"class.feedwire::NextPageToken", %"class.feedwire::NextPageToken"* %1, i64 0, i32 5
  %62 = bitcast %"class.feedwire::TokenHandling"** %60 to i64*
  %63 = load i64, i64* %62, align 8
  %64 = bitcast %"class.feedwire::TokenHandling"** %61 to i64*
  %65 = load i64, i64* %64, align 8
  store i64 %65, i64* %62, align 8
  store i64 %63, i64* %64, align 8
  ret void
}

; Function Attrs: nounwind ssp uwtable
define hidden void @_ZNK8feedwire13NextPageToken11GetTypeNameEv(%"class.std::__1::basic_string"* noalias sret, %"class.feedwire::NextPageToken"* nocapture readnone) unnamed_addr #0 align 2 {
  %3 = bitcast %"class.std::__1::basic_string"* %0 to %"struct.std::__1::basic_string<char, std::__1::char_traits<char>, std::__1::allocator<char> >::__short"*
  %4 = getelementptr inbounds %"struct.std::__1::basic_string<char, std::__1::char_traits<char>, std::__1::allocator<char> >::__short", %"struct.std::__1::basic_string<char, std::__1::char_traits<char>, std::__1::allocator<char> >::__short"* %3, i64 0, i32 1, i32 0
  store i8 22, i8* %4, align 1
  %5 = bitcast %"class.std::__1::basic_string"* %0 to i8*
  tail call void @llvm.memcpy.p0i8.p0i8.i64(i8* align 8 %5, i8* align 1 getelementptr inbounds ([23 x i8], [23 x i8]* @.str.4, i64 0, i64 0), i64 22, i1 false) #13
  %6 = getelementptr inbounds i8, i8* %5, i64 22
  store i8 0, i8* %6, align 2
  ret void
}

; Function Attrs: nofree norecurse nounwind ssp uwtable writeonly
define hidden void @_ZN8feedwire13TokenHandlingC2EPN6google8protobuf5ArenaE(%"class.feedwire::TokenHandling"* nocapture, %"class.google::protobuf::Arena"*) unnamed_addr #9 align 2 {
  %3 = getelementptr inbounds %"class.feedwire::TokenHandling", %"class.feedwire::TokenHandling"* %0, i64 0, i32 0, i32 0
  %4 = getelementptr inbounds %"class.feedwire::TokenHandling", %"class.feedwire::TokenHandling"* %0, i64 0, i32 0, i32 1
  %5 = bitcast %"class.google::protobuf::internal::InternalMetadata"* %4 to %"class.google::protobuf::Arena"**
  store %"class.google::protobuf::Arena"* %1, %"class.google::protobuf::Arena"** %5, align 8
  store i32 (...)** bitcast (i8** getelementptr inbounds ({ [16 x i8*] }, { [16 x i8*] }* @_ZTVN8feedwire13TokenHandlingE, i64 0, inrange i32 0, i64 2) to i32 (...)**), i32 (...)*** %3, align 8
  %6 = getelementptr inbounds %"class.feedwire::TokenHandling", %"class.feedwire::TokenHandling"* %0, i64 0, i32 1, i32 0, i64 0
  store i32 0, i32* %6, align 4
  %7 = getelementptr inbounds %"class.feedwire::TokenHandling", %"class.feedwire::TokenHandling"* %0, i64 0, i32 2, i32 0, i32 0, i32 0, i32 0, i32 0, i32 0
  store i32 0, i32* %7, align 4
  %8 = getelementptr inbounds %"class.feedwire::TokenHandling", %"class.feedwire::TokenHandling"* %0, i64 0, i32 3
  store i32 0, i32* %8, align 8
  ret void
}

; Function Attrs: nounwind ssp uwtable
define hidden void @_ZN8feedwire13TokenHandlingC2ERKS0_(%"class.feedwire::TokenHandling"*, %"class.feedwire::TokenHandling"* nocapture readonly dereferenceable(32)) unnamed_addr #0 align 2 {
  %3 = getelementptr inbounds %"class.feedwire::TokenHandling", %"class.feedwire::TokenHandling"* %0, i64 0, i32 0, i32 0
  %4 = getelementptr inbounds %"class.feedwire::TokenHandling", %"class.feedwire::TokenHandling"* %0, i64 0, i32 0, i32 1, i32 0
  store i8* null, i8** %4, align 8
  store i32 (...)** bitcast (i8** getelementptr inbounds ({ [16 x i8*] }, { [16 x i8*] }* @_ZTVN8feedwire13TokenHandlingE, i64 0, inrange i32 0, i64 2) to i32 (...)**), i32 (...)*** %3, align 8
  %5 = getelementptr inbounds %"class.feedwire::TokenHandling", %"class.feedwire::TokenHandling"* %1, i64 0, i32 1, i32 0, i64 0
  %6 = getelementptr inbounds %"class.feedwire::TokenHandling", %"class.feedwire::TokenHandling"* %0, i64 0, i32 1, i32 0, i64 0
  %7 = load i32, i32* %5, align 8
  store i32 %7, i32* %6, align 8
  %8 = getelementptr inbounds %"class.feedwire::TokenHandling", %"class.feedwire::TokenHandling"* %0, i64 0, i32 2, i32 0, i32 0, i32 0, i32 0, i32 0, i32 0
  store i32 0, i32* %8, align 4
  %9 = getelementptr inbounds %"class.feedwire::TokenHandling", %"class.feedwire::TokenHandling"* %1, i64 0, i32 0, i32 1
  %10 = bitcast %"class.google::protobuf::internal::InternalMetadata"* %9 to i64*
  %11 = load i64, i64* %10, align 8
  %12 = and i64 %11, 1
  %13 = icmp eq i64 %12, 0
  br i1 %13, label %33, label %14

14:                                               ; preds = %2
  %15 = getelementptr inbounds %"class.feedwire::TokenHandling", %"class.feedwire::TokenHandling"* %0, i64 0, i32 0, i32 1
  %16 = and i64 %11, -2
  %17 = inttoptr i64 %16 to %"struct.google::protobuf::internal::InternalMetadata::Container"*
  %18 = getelementptr inbounds %"struct.google::protobuf::internal::InternalMetadata::Container", %"struct.google::protobuf::internal::InternalMetadata::Container"* %17, i64 0, i32 1
  %19 = tail call %"class.std::__1::basic_string"* @_ZN6google8protobuf8internal16InternalMetadata27mutable_unknown_fields_slowINSt3__112basic_stringIcNS4_11char_traitsIcEENS4_9allocatorIcEEEEEEPT_v(%"class.google::protobuf::internal::InternalMetadata"* %15) #13
  %20 = bitcast %"class.std::__1::basic_string"* %18 to %"struct.std::__1::basic_string<char, std::__1::char_traits<char>, std::__1::allocator<char> >::__short"*
  %21 = getelementptr inbounds %"struct.std::__1::basic_string<char, std::__1::char_traits<char>, std::__1::allocator<char> >::__short", %"struct.std::__1::basic_string<char, std::__1::char_traits<char>, std::__1::allocator<char> >::__short"* %20, i64 0, i32 1, i32 0
  %22 = load i8, i8* %21, align 1
  %23 = icmp slt i8 %22, 0
  %24 = getelementptr inbounds %"class.std::__1::basic_string", %"class.std::__1::basic_string"* %18, i64 0, i32 0, i32 0, i32 0, i32 0, i32 0, i32 0
  %25 = load i8*, i8** %24, align 8
  %26 = getelementptr inbounds %"struct.google::protobuf::internal::InternalMetadata::Container", %"struct.google::protobuf::internal::InternalMetadata::Container"* %17, i64 0, i32 1, i32 0, i32 0, i32 0, i32 0, i32 0, i32 1
  %27 = load i64, i64* %26, align 8
  %28 = bitcast %"class.std::__1::basic_string"* %18 to i8*
  %29 = zext i8 %22 to i64
  %30 = select i1 %23, i8* %25, i8* %28
  %31 = select i1 %23, i64 %27, i64 %29
  %32 = tail call dereferenceable(24) %"class.std::__1::basic_string"* @_ZNSt3__112basic_stringIcNS_11char_traitsIcEENS_9allocatorIcEEE6appendEPKcm(%"class.std::__1::basic_string"* %19, i8* %30, i64 %31) #13
  br label %33

33:                                               ; preds = %2, %14
  %34 = getelementptr inbounds %"class.feedwire::TokenHandling", %"class.feedwire::TokenHandling"* %1, i64 0, i32 3
  %35 = load i32, i32* %34, align 8
  %36 = getelementptr inbounds %"class.feedwire::TokenHandling", %"class.feedwire::TokenHandling"* %0, i64 0, i32 3
  store i32 %35, i32* %36, align 8
  ret void
}

; Function Attrs: nounwind ssp uwtable
define hidden void @_ZN8feedwire13TokenHandlingD2Ev(%"class.feedwire::TokenHandling"* nocapture) unnamed_addr #0 align 2 {
  %2 = getelementptr inbounds %"class.feedwire::TokenHandling", %"class.feedwire::TokenHandling"* %0, i64 0, i32 0, i32 0
  store i32 (...)** bitcast (i8** getelementptr inbounds ({ [16 x i8*] }, { [16 x i8*] }* @_ZTVN8feedwire13TokenHandlingE, i64 0, inrange i32 0, i64 2) to i32 (...)**), i32 (...)*** %2, align 8
  %3 = getelementptr inbounds %"class.feedwire::TokenHandling", %"class.feedwire::TokenHandling"* %0, i64 0, i32 0, i32 1
  %4 = bitcast %"class.google::protobuf::internal::InternalMetadata"* %3 to i64*
  %5 = load i64, i64* %4, align 8
  %6 = and i64 %5, 1
  %7 = icmp eq i64 %6, 0
  br i1 %7, label %28, label %8

8:                                                ; preds = %1
  %9 = and i64 %5, -2
  %10 = inttoptr i64 %9 to %"struct.google::protobuf::internal::InternalMetadata::ContainerBase"*
  %11 = getelementptr inbounds %"struct.google::protobuf::internal::InternalMetadata::ContainerBase", %"struct.google::protobuf::internal::InternalMetadata::ContainerBase"* %10, i64 0, i32 0
  %12 = load %"class.google::protobuf::Arena"*, %"class.google::protobuf::Arena"** %11, align 8
  %13 = icmp ne %"class.google::protobuf::Arena"* %12, null
  %14 = icmp eq i64 %9, 0
  %15 = or i1 %14, %13
  br i1 %15, label %28, label %16

16:                                               ; preds = %8
  %17 = inttoptr i64 %9 to %"struct.google::protobuf::internal::InternalMetadata::Container"*
  %18 = getelementptr inbounds %"struct.google::protobuf::internal::InternalMetadata::Container", %"struct.google::protobuf::internal::InternalMetadata::Container"* %17, i64 0, i32 1
  %19 = bitcast %"class.std::__1::basic_string"* %18 to %"struct.std::__1::basic_string<char, std::__1::char_traits<char>, std::__1::allocator<char> >::__short"*
  %20 = getelementptr inbounds %"struct.std::__1::basic_string<char, std::__1::char_traits<char>, std::__1::allocator<char> >::__short", %"struct.std::__1::basic_string<char, std::__1::char_traits<char>, std::__1::allocator<char> >::__short"* %19, i64 0, i32 1, i32 0
  %21 = load i8, i8* %20, align 1
  %22 = icmp slt i8 %21, 0
  br i1 %22, label %23, label %26

23:                                               ; preds = %16
  %24 = getelementptr inbounds %"class.std::__1::basic_string", %"class.std::__1::basic_string"* %18, i64 0, i32 0, i32 0, i32 0, i32 0, i32 0, i32 0
  %25 = load i8*, i8** %24, align 8
  tail call void @_ZdlPv(i8* %25) #14
  br label %26

26:                                               ; preds = %23, %16
  %27 = inttoptr i64 %9 to i8*
  tail call void @_ZdlPv(i8* %27) #14
  br label %28

28:                                               ; preds = %1, %8, %26
  ret void
}

; Function Attrs: nounwind ssp uwtable
define hidden void @_ZN8feedwire13TokenHandlingD0Ev(%"class.feedwire::TokenHandling"*) unnamed_addr #0 align 2 {
  %2 = getelementptr inbounds %"class.feedwire::TokenHandling", %"class.feedwire::TokenHandling"* %0, i64 0, i32 0, i32 0
  store i32 (...)** bitcast (i8** getelementptr inbounds ({ [16 x i8*] }, { [16 x i8*] }* @_ZTVN8feedwire13TokenHandlingE, i64 0, inrange i32 0, i64 2) to i32 (...)**), i32 (...)*** %2, align 8
  %3 = getelementptr inbounds %"class.feedwire::TokenHandling", %"class.feedwire::TokenHandling"* %0, i64 0, i32 0, i32 1
  %4 = bitcast %"class.google::protobuf::internal::InternalMetadata"* %3 to i64*
  %5 = load i64, i64* %4, align 8
  %6 = and i64 %5, 1
  %7 = icmp eq i64 %6, 0
  br i1 %7, label %28, label %8

8:                                                ; preds = %1
  %9 = and i64 %5, -2
  %10 = inttoptr i64 %9 to %"struct.google::protobuf::internal::InternalMetadata::ContainerBase"*
  %11 = getelementptr inbounds %"struct.google::protobuf::internal::InternalMetadata::ContainerBase", %"struct.google::protobuf::internal::InternalMetadata::ContainerBase"* %10, i64 0, i32 0
  %12 = load %"class.google::protobuf::Arena"*, %"class.google::protobuf::Arena"** %11, align 8
  %13 = icmp ne %"class.google::protobuf::Arena"* %12, null
  %14 = icmp eq i64 %9, 0
  %15 = or i1 %14, %13
  br i1 %15, label %28, label %16

16:                                               ; preds = %8
  %17 = inttoptr i64 %9 to %"struct.google::protobuf::internal::InternalMetadata::Container"*
  %18 = getelementptr inbounds %"struct.google::protobuf::internal::InternalMetadata::Container", %"struct.google::protobuf::internal::InternalMetadata::Container"* %17, i64 0, i32 1
  %19 = bitcast %"class.std::__1::basic_string"* %18 to %"struct.std::__1::basic_string<char, std::__1::char_traits<char>, std::__1::allocator<char> >::__short"*
  %20 = getelementptr inbounds %"struct.std::__1::basic_string<char, std::__1::char_traits<char>, std::__1::allocator<char> >::__short", %"struct.std::__1::basic_string<char, std::__1::char_traits<char>, std::__1::allocator<char> >::__short"* %19, i64 0, i32 1, i32 0
  %21 = load i8, i8* %20, align 1
  %22 = icmp slt i8 %21, 0
  br i1 %22, label %23, label %26

23:                                               ; preds = %16
  %24 = getelementptr inbounds %"class.std::__1::basic_string", %"class.std::__1::basic_string"* %18, i64 0, i32 0, i32 0, i32 0, i32 0, i32 0, i32 0
  %25 = load i8*, i8** %24, align 8
  tail call void @_ZdlPv(i8* %25) #14
  br label %26

26:                                               ; preds = %23, %16
  %27 = inttoptr i64 %9 to i8*
  tail call void @_ZdlPv(i8* %27) #14
  br label %28

28:                                               ; preds = %1, %8, %26
  %29 = bitcast %"class.feedwire::TokenHandling"* %0 to i8*
  tail call void @_ZdlPv(i8* %29) #14
  ret void
}

; Function Attrs: norecurse nounwind readnone ssp uwtable
define hidden void @_ZN8feedwire13TokenHandling9ArenaDtorEPv(i8* nocapture) local_unnamed_addr #1 align 2 {
  ret void
}

; Function Attrs: nofree norecurse nounwind ssp uwtable
define hidden void @_ZNK8feedwire13TokenHandling13SetCachedSizeEi(%"class.feedwire::TokenHandling"* nocapture, i32) local_unnamed_addr #8 align 2 {
  %3 = getelementptr inbounds %"class.feedwire::TokenHandling", %"class.feedwire::TokenHandling"* %0, i64 0, i32 2, i32 0, i32 0, i32 0, i32 0, i32 0, i32 0
  store atomic i32 %1, i32* %3 monotonic, align 4
  ret void
}

; Function Attrs: nounwind ssp uwtable
define hidden dereferenceable(32) %"class.feedwire::TokenHandling"* @_ZN8feedwire13TokenHandling16default_instanceEv() local_unnamed_addr #0 align 2 {
  %1 = load atomic i32, i32* getelementptr inbounds ({ { { { i32 } }, i32, i32, void ()* }, [0 x i8*] }, { { { { i32 } }, i32, i32, void ()* }, [0 x i8*] }* @scc_info_TokenHandling_components_2ffeed_2fcore_2fproto_2fv2_2fwire_2fnext_5fpage_5ftoken_2eproto, i64 0, i32 0, i32 0, i32 0, i32 0) acquire, align 8
  %2 = icmp eq i32 %1, 0
  br i1 %2, label %4, label %3, !prof !2

3:                                                ; preds = %0
  tail call void @_ZN6google8protobuf8internal11InitSCCImplEPNS1_11SCCInfoBaseE(%"struct.google::protobuf::internal::SCCInfoBase"* bitcast ({ { { { i32 } }, i32, i32, void ()* }, [0 x i8*] }* @scc_info_TokenHandling_components_2ffeed_2fcore_2fproto_2fv2_2fwire_2fnext_5fpage_5ftoken_2eproto to %"struct.google::protobuf::internal::SCCInfoBase"*)) #13
  br label %4

4:                                                ; preds = %0, %3
  ret %"class.feedwire::TokenHandling"* bitcast (%"class.feedwire::TokenHandlingDefaultTypeInternal"* @_ZN8feedwire32_TokenHandling_default_instance_E to %"class.feedwire::TokenHandling"*)
}

; Function Attrs: nounwind ssp uwtable
define hidden i8* @_ZN8feedwire13TokenHandling14_InternalParseEPKcPN6google8protobuf8internal12ParseContextE(%"class.feedwire::TokenHandling"*, i8*, %"class.google::protobuf::internal::ParseContext"*) unnamed_addr #0 align 2 {
  %4 = getelementptr inbounds %"class.google::protobuf::internal::ParseContext", %"class.google::protobuf::internal::ParseContext"* %2, i64 0, i32 0
  %5 = getelementptr inbounds %"class.google::protobuf::internal::ParseContext", %"class.google::protobuf::internal::ParseContext"* %2, i64 0, i32 2
  %6 = getelementptr inbounds %"class.google::protobuf::internal::ParseContext", %"class.google::protobuf::internal::ParseContext"* %2, i64 0, i32 0, i32 0
  %7 = getelementptr inbounds %"class.google::protobuf::internal::ParseContext", %"class.google::protobuf::internal::ParseContext"* %2, i64 0, i32 0, i32 1
  %8 = bitcast i8** %7 to i64*
  %9 = getelementptr inbounds %"class.google::protobuf::internal::ParseContext", %"class.google::protobuf::internal::ParseContext"* %2, i64 0, i32 0, i32 4
  %10 = getelementptr inbounds %"class.feedwire::TokenHandling", %"class.feedwire::TokenHandling"* %0, i64 0, i32 0, i32 1
  %11 = bitcast %"class.google::protobuf::internal::InternalMetadata"* %10 to i64*
  %12 = getelementptr inbounds %"class.feedwire::TokenHandling", %"class.feedwire::TokenHandling"* %0, i64 0, i32 1, i32 0, i64 0
  %13 = getelementptr inbounds %"class.feedwire::TokenHandling", %"class.feedwire::TokenHandling"* %0, i64 0, i32 3
  br label %14

14:                                               ; preds = %123, %3
  %15 = phi i8* [ %1, %3 ], [ %124, %123 ]
  %16 = load i32, i32* %5, align 4
  %17 = load i8*, i8** %6, align 8
  %18 = icmp ult i8* %15, %17
  br i1 %18, label %32, label %19, !prof !2

19:                                               ; preds = %14
  %20 = load i64, i64* %8, align 8
  %21 = ptrtoint i8* %15 to i64
  %22 = sub i64 %21, %20
  %23 = load i32, i32* %9, align 4
  %24 = sext i32 %23 to i64
  %25 = icmp eq i64 %22, %24
  br i1 %25, label %125, label %26

26:                                               ; preds = %19
  %27 = tail call { i8*, i8 } @_ZN6google8protobuf8internal18EpsCopyInputStream12DoneFallbackEPKci(%"class.google::protobuf::internal::EpsCopyInputStream"* %4, i8* %15, i32 %16) #13
  %28 = extractvalue { i8*, i8 } %27, 0
  %29 = extractvalue { i8*, i8 } %27, 1
  %30 = and i8 %29, 1
  %31 = icmp eq i8 %30, 0
  br i1 %31, label %32, label %125

32:                                               ; preds = %26, %14
  %33 = phi i8* [ %28, %26 ], [ %15, %14 ]
  %34 = load i8, i8* %33, align 1
  %35 = zext i8 %34 to i32
  %36 = icmp sgt i8 %34, -1
  %37 = getelementptr inbounds i8, i8* %33, i64 1
  br i1 %36, label %51, label %38

38:                                               ; preds = %32
  %39 = load i8, i8* %37, align 1
  %40 = zext i8 %39 to i32
  %41 = shl nuw nsw i32 %40, 7
  %42 = add nsw i32 %35, -128
  %43 = add nsw i32 %42, %41
  %44 = icmp sgt i8 %39, -1
  br i1 %44, label %45, label %47

45:                                               ; preds = %38
  %46 = getelementptr inbounds i8, i8* %33, i64 2
  br label %51

47:                                               ; preds = %38
  %48 = tail call { i8*, i32 } @_ZN6google8protobuf8internal15ReadTagFallbackEPKcj(i8* %33, i32 %43) #13
  %49 = extractvalue { i8*, i32 } %48, 0
  %50 = extractvalue { i8*, i32 } %48, 1
  br label %51

51:                                               ; preds = %32, %45, %47
  %52 = phi i32 [ %43, %45 ], [ %50, %47 ], [ %35, %32 ]
  %53 = phi i8* [ %46, %45 ], [ %49, %47 ], [ %37, %32 ]
  %54 = icmp eq i8* %53, null
  br i1 %54, label %125, label %55, !prof !5

55:                                               ; preds = %51
  %56 = icmp eq i32 %52, 8
  br i1 %56, label %57, label %101, !prof !7

57:                                               ; preds = %55
  %58 = load i8, i8* %53, align 1
  %59 = icmp slt i8 %58, 0
  br i1 %59, label %63, label %60

60:                                               ; preds = %57
  %61 = zext i8 %58 to i64
  %62 = getelementptr inbounds i8, i8* %53, i64 1
  br label %79

63:                                               ; preds = %57
  %64 = zext i8 %58 to i32
  %65 = getelementptr inbounds i8, i8* %53, i64 1
  %66 = load i8, i8* %65, align 1
  %67 = zext i8 %66 to i32
  %68 = shl nuw nsw i32 %67, 7
  %69 = add nsw i32 %64, -128
  %70 = add nuw nsw i32 %69, %68
  %71 = icmp slt i8 %66, 0
  br i1 %71, label %75, label %72

72:                                               ; preds = %63
  %73 = zext i32 %70 to i64
  %74 = getelementptr inbounds i8, i8* %53, i64 2
  br label %79

75:                                               ; preds = %63
  %76 = tail call { i8*, i64 } @_ZN6google8protobuf8internal17VarintParseSlow64EPKcj(i8* nonnull %53, i32 %70) #13
  %77 = extractvalue { i8*, i64 } %76, 0
  %78 = extractvalue { i8*, i64 } %76, 1
  br label %79

79:                                               ; preds = %60, %72, %75
  %80 = phi i64 [ %78, %75 ], [ %73, %72 ], [ %61, %60 ]
  %81 = phi i8* [ %77, %75 ], [ %74, %72 ], [ %62, %60 ]
  %82 = icmp eq i8* %81, null
  br i1 %82, label %125, label %83, !prof !5

83:                                               ; preds = %79
  %84 = trunc i64 %80 to i32
  %85 = icmp ult i32 %84, 3
  br i1 %85, label %86, label %89, !prof !2

86:                                               ; preds = %83
  %87 = load i32, i32* %12, align 4
  %88 = or i32 %87, 1
  store i32 %88, i32* %12, align 4
  store i32 %84, i32* %13, align 8
  br label %123

89:                                               ; preds = %83
  %90 = load i64, i64* %11, align 8
  %91 = and i64 %90, 1
  %92 = icmp eq i64 %91, 0
  br i1 %92, label %97, label %93, !prof !5

93:                                               ; preds = %89
  %94 = and i64 %90, -2
  %95 = inttoptr i64 %94 to %"struct.google::protobuf::internal::InternalMetadata::Container"*
  %96 = getelementptr inbounds %"struct.google::protobuf::internal::InternalMetadata::Container", %"struct.google::protobuf::internal::InternalMetadata::Container"* %95, i64 0, i32 1
  br label %99

97:                                               ; preds = %89
  %98 = tail call %"class.std::__1::basic_string"* @_ZN6google8protobuf8internal16InternalMetadata27mutable_unknown_fields_slowINSt3__112basic_stringIcNS4_11char_traitsIcEENS4_9allocatorIcEEEEEEPT_v(%"class.google::protobuf::internal::InternalMetadata"* %10) #13
  br label %99

99:                                               ; preds = %93, %97
  %100 = phi %"class.std::__1::basic_string"* [ %96, %93 ], [ %98, %97 ]
  tail call void @_ZN6google8protobuf8internal11WriteVarintEjmPNSt3__112basic_stringIcNS2_11char_traitsIcEENS2_9allocatorIcEEEE(i32 1, i64 %80, %"class.std::__1::basic_string"* %100) #13
  br label %123

101:                                              ; preds = %55
  %102 = and i32 %52, 7
  %103 = icmp eq i32 %102, 4
  %104 = icmp eq i32 %52, 0
  %105 = or i1 %104, %103
  br i1 %105, label %106, label %109

106:                                              ; preds = %101
  %107 = add i32 %52, -1
  %108 = getelementptr inbounds %"class.google::protobuf::internal::ParseContext", %"class.google::protobuf::internal::ParseContext"* %2, i64 0, i32 0, i32 8
  store i32 %107, i32* %108, align 8
  br label %125

109:                                              ; preds = %101
  %110 = load i64, i64* %11, align 8
  %111 = and i64 %110, 1
  %112 = icmp eq i64 %111, 0
  br i1 %112, label %117, label %113, !prof !5

113:                                              ; preds = %109
  %114 = and i64 %110, -2
  %115 = inttoptr i64 %114 to %"struct.google::protobuf::internal::InternalMetadata::Container"*
  %116 = getelementptr inbounds %"struct.google::protobuf::internal::InternalMetadata::Container", %"struct.google::protobuf::internal::InternalMetadata::Container"* %115, i64 0, i32 1
  br label %119

117:                                              ; preds = %109
  %118 = tail call %"class.std::__1::basic_string"* @_ZN6google8protobuf8internal16InternalMetadata27mutable_unknown_fields_slowINSt3__112basic_stringIcNS4_11char_traitsIcEENS4_9allocatorIcEEEEEEPT_v(%"class.google::protobuf::internal::InternalMetadata"* %10) #13
  br label %119

119:                                              ; preds = %113, %117
  %120 = phi %"class.std::__1::basic_string"* [ %116, %113 ], [ %118, %117 ]
  %121 = tail call i8* @_ZN6google8protobuf8internal17UnknownFieldParseEjPNSt3__112basic_stringIcNS2_11char_traitsIcEENS2_9allocatorIcEEEEPKcPNS1_12ParseContextE(i32 %52, %"class.std::__1::basic_string"* %120, i8* nonnull %53, %"class.google::protobuf::internal::ParseContext"* %2) #13
  %122 = icmp eq i8* %121, null
  br i1 %122, label %125, label %123

123:                                              ; preds = %119, %99, %86
  %124 = phi i8* [ %121, %119 ], [ %81, %86 ], [ %81, %99 ]
  br label %14

125:                                              ; preds = %26, %119, %19, %51, %79, %106
  %126 = phi i8* [ %53, %106 ], [ null, %119 ], [ %15, %19 ], [ null, %79 ], [ null, %51 ], [ %28, %26 ]
  ret i8* %126
}

declare void @_ZN6google8protobuf8internal11WriteVarintEjmPNSt3__112basic_stringIcNS2_11char_traitsIcEENS2_9allocatorIcEEEE(i32, i64, %"class.std::__1::basic_string"*) local_unnamed_addr #4

; Function Attrs: nounwind ssp uwtable
define hidden i8* @_ZNK8feedwire13TokenHandling18_InternalSerializeEPhPN6google8protobuf2io19EpsCopyOutputStreamE(%"class.feedwire::TokenHandling"* nocapture readonly, i8*, %"class.google::protobuf::io::EpsCopyOutputStream"*) unnamed_addr #0 align 2 {
  %4 = getelementptr inbounds %"class.feedwire::TokenHandling", %"class.feedwire::TokenHandling"* %0, i64 0, i32 1, i32 0, i64 0
  %5 = load i32, i32* %4, align 4
  %6 = and i32 %5, 1
  %7 = icmp eq i32 %6, 0
  br i1 %7, label %45, label %8

8:                                                ; preds = %3
  %9 = getelementptr inbounds %"class.google::protobuf::io::EpsCopyOutputStream", %"class.google::protobuf::io::EpsCopyOutputStream"* %2, i64 0, i32 0
  %10 = load i8*, i8** %9, align 8
  %11 = icmp ugt i8* %10, %1
  br i1 %11, label %14, label %12, !prof !2

12:                                               ; preds = %8
  %13 = tail call i8* @_ZN6google8protobuf2io19EpsCopyOutputStream19EnsureSpaceFallbackEPh(%"class.google::protobuf::io::EpsCopyOutputStream"* %2, i8* %1) #13
  br label %14

14:                                               ; preds = %8, %12
  %15 = phi i8* [ %13, %12 ], [ %1, %8 ]
  %16 = getelementptr inbounds %"class.feedwire::TokenHandling", %"class.feedwire::TokenHandling"* %0, i64 0, i32 3
  %17 = load i32, i32* %16, align 8
  store i8 8, i8* %15, align 1
  %18 = getelementptr inbounds i8, i8* %15, i64 1
  %19 = icmp ult i32 %17, 128
  %20 = trunc i32 %17 to i8
  br i1 %19, label %21, label %23

21:                                               ; preds = %14
  store i8 %20, i8* %18, align 1
  %22 = getelementptr inbounds i8, i8* %15, i64 2
  br label %45

23:                                               ; preds = %14
  %24 = sext i32 %17 to i64
  %25 = or i8 %20, -128
  store i8 %25, i8* %18, align 1
  %26 = lshr i64 %24, 7
  %27 = icmp ult i32 %17, 16384
  br i1 %27, label %28, label %32

28:                                               ; preds = %23
  %29 = trunc i64 %26 to i8
  %30 = getelementptr inbounds i8, i8* %15, i64 2
  store i8 %29, i8* %30, align 1
  %31 = getelementptr inbounds i8, i8* %15, i64 3
  br label %45

32:                                               ; preds = %23
  %33 = getelementptr inbounds i8, i8* %15, i64 2
  br label %34

34:                                               ; preds = %34, %32
  %35 = phi i64 [ %26, %32 ], [ %39, %34 ]
  %36 = phi i8* [ %33, %32 ], [ %40, %34 ]
  %37 = trunc i64 %35 to i8
  %38 = or i8 %37, -128
  store i8 %38, i8* %36, align 1
  %39 = lshr i64 %35, 7
  %40 = getelementptr inbounds i8, i8* %36, i64 1
  %41 = icmp ugt i64 %35, 16383
  br i1 %41, label %34, label %42, !prof !5

42:                                               ; preds = %34
  %43 = trunc i64 %39 to i8
  %44 = getelementptr inbounds i8, i8* %36, i64 2
  store i8 %43, i8* %40, align 1
  br label %45

45:                                               ; preds = %42, %28, %21, %3
  %46 = phi i8* [ %1, %3 ], [ %22, %21 ], [ %31, %28 ], [ %44, %42 ]
  %47 = getelementptr inbounds %"class.feedwire::TokenHandling", %"class.feedwire::TokenHandling"* %0, i64 0, i32 0, i32 1
  %48 = bitcast %"class.google::protobuf::internal::InternalMetadata"* %47 to i64*
  %49 = load i64, i64* %48, align 8
  %50 = and i64 %49, 1
  %51 = icmp eq i64 %50, 0
  br i1 %51, label %83, label %52, !prof !2

52:                                               ; preds = %45
  %53 = and i64 %49, -2
  %54 = inttoptr i64 %53 to %"struct.google::protobuf::internal::InternalMetadata::Container"*
  %55 = getelementptr inbounds %"struct.google::protobuf::internal::InternalMetadata::Container", %"struct.google::protobuf::internal::InternalMetadata::Container"* %54, i64 0, i32 1
  %56 = bitcast %"class.std::__1::basic_string"* %55 to %"struct.std::__1::basic_string<char, std::__1::char_traits<char>, std::__1::allocator<char> >::__short"*
  %57 = getelementptr inbounds %"struct.std::__1::basic_string<char, std::__1::char_traits<char>, std::__1::allocator<char> >::__short", %"struct.std::__1::basic_string<char, std::__1::char_traits<char>, std::__1::allocator<char> >::__short"* %56, i64 0, i32 1, i32 0
  %58 = load i8, i8* %57, align 1
  %59 = icmp slt i8 %58, 0
  br i1 %59, label %60, label %65

60:                                               ; preds = %52
  %61 = getelementptr inbounds %"class.std::__1::basic_string", %"class.std::__1::basic_string"* %55, i64 0, i32 0, i32 0, i32 0, i32 0, i32 0, i32 0
  %62 = load i8*, i8** %61, align 8
  %63 = getelementptr inbounds %"struct.google::protobuf::internal::InternalMetadata::Container", %"struct.google::protobuf::internal::InternalMetadata::Container"* %54, i64 0, i32 1, i32 0, i32 0, i32 0, i32 0, i32 0, i32 1
  %64 = load i64, i64* %63, align 8
  br label %68

65:                                               ; preds = %52
  %66 = bitcast %"class.std::__1::basic_string"* %55 to i8*
  %67 = zext i8 %58 to i64
  br label %68

68:                                               ; preds = %60, %65
  %69 = phi i8* [ %62, %60 ], [ %66, %65 ]
  %70 = phi i64 [ %64, %60 ], [ %67, %65 ]
  %71 = bitcast %"class.google::protobuf::io::EpsCopyOutputStream"* %2 to i64*
  %72 = load i64, i64* %71, align 8
  %73 = ptrtoint i8* %46 to i64
  %74 = sub i64 %72, %73
  %75 = shl i64 %70, 32
  %76 = ashr exact i64 %75, 32
  %77 = icmp slt i64 %74, %76
  br i1 %77, label %78, label %81, !prof !5

78:                                               ; preds = %68
  %79 = trunc i64 %70 to i32
  %80 = tail call i8* @_ZN6google8protobuf2io19EpsCopyOutputStream16WriteRawFallbackEPKviPh(%"class.google::protobuf::io::EpsCopyOutputStream"* %2, i8* %69, i32 %79, i8* %46) #13
  br label %83

81:                                               ; preds = %68
  tail call void @llvm.memcpy.p0i8.p0i8.i64(i8* align 1 %46, i8* align 1 %69, i64 %76, i1 false) #13
  %82 = getelementptr inbounds i8, i8* %46, i64 %76
  br label %83

83:                                               ; preds = %45, %81, %78
  %84 = phi i8* [ %46, %45 ], [ %80, %78 ], [ %82, %81 ]
  ret i8* %84
}

; Function Attrs: nounwind ssp uwtable
define hidden i64 @_ZNK8feedwire13TokenHandling12ByteSizeLongEv(%"class.feedwire::TokenHandling"* nocapture) unnamed_addr #0 align 2 {
  %2 = getelementptr inbounds %"class.feedwire::TokenHandling", %"class.feedwire::TokenHandling"* %0, i64 0, i32 1, i32 0, i64 0
  %3 = load i32, i32* %2, align 4
  %4 = and i32 %3, 1
  %5 = icmp eq i32 %4, 0
  br i1 %5, label %19, label %6

6:                                                ; preds = %1
  %7 = getelementptr inbounds %"class.feedwire::TokenHandling", %"class.feedwire::TokenHandling"* %0, i64 0, i32 3
  %8 = load i32, i32* %7, align 8
  %9 = icmp slt i32 %8, 0
  br i1 %9, label %19, label %10

10:                                               ; preds = %6
  %11 = or i32 %8, 1
  %12 = tail call i32 @llvm.ctlz.i32(i32 %11, i1 true) #13, !range !6
  %13 = xor i32 %12, 31
  %14 = mul nuw nsw i32 %13, 9
  %15 = add nuw nsw i32 %14, 73
  %16 = lshr i32 %15, 6
  %17 = add nuw nsw i32 %16, 1
  %18 = zext i32 %17 to i64
  br label %19

19:                                               ; preds = %10, %6, %1
  %20 = phi i64 [ 0, %1 ], [ %18, %10 ], [ 11, %6 ]
  %21 = getelementptr inbounds %"class.feedwire::TokenHandling", %"class.feedwire::TokenHandling"* %0, i64 0, i32 0, i32 1
  %22 = bitcast %"class.google::protobuf::internal::InternalMetadata"* %21 to i64*
  %23 = load i64, i64* %22, align 8
  %24 = and i64 %23, 1
  %25 = icmp eq i64 %24, 0
  br i1 %25, label %42, label %26, !prof !2

26:                                               ; preds = %19
  %27 = and i64 %23, -2
  %28 = inttoptr i64 %27 to %"struct.google::protobuf::internal::InternalMetadata::Container"*
  %29 = getelementptr inbounds %"struct.google::protobuf::internal::InternalMetadata::Container", %"struct.google::protobuf::internal::InternalMetadata::Container"* %28, i64 0, i32 1
  %30 = bitcast %"class.std::__1::basic_string"* %29 to %"struct.std::__1::basic_string<char, std::__1::char_traits<char>, std::__1::allocator<char> >::__short"*
  %31 = getelementptr inbounds %"struct.std::__1::basic_string<char, std::__1::char_traits<char>, std::__1::allocator<char> >::__short", %"struct.std::__1::basic_string<char, std::__1::char_traits<char>, std::__1::allocator<char> >::__short"* %30, i64 0, i32 1, i32 0
  %32 = load i8, i8* %31, align 1
  %33 = icmp slt i8 %32, 0
  br i1 %33, label %34, label %37

34:                                               ; preds = %26
  %35 = getelementptr inbounds %"struct.google::protobuf::internal::InternalMetadata::Container", %"struct.google::protobuf::internal::InternalMetadata::Container"* %28, i64 0, i32 1, i32 0, i32 0, i32 0, i32 0, i32 0, i32 1
  %36 = load i64, i64* %35, align 8
  br label %39

37:                                               ; preds = %26
  %38 = zext i8 %32 to i64
  br label %39

39:                                               ; preds = %34, %37
  %40 = phi i64 [ %36, %34 ], [ %38, %37 ]
  %41 = add i64 %40, %20
  br label %42

42:                                               ; preds = %19, %39
  %43 = phi i64 [ %41, %39 ], [ %20, %19 ]
  %44 = trunc i64 %43 to i32
  %45 = getelementptr inbounds %"class.feedwire::TokenHandling", %"class.feedwire::TokenHandling"* %0, i64 0, i32 2, i32 0, i32 0, i32 0, i32 0, i32 0, i32 0
  store atomic i32 %44, i32* %45 monotonic, align 4
  ret i64 %43
}

; Function Attrs: nounwind ssp uwtable
define hidden void @_ZN8feedwire13TokenHandling21CheckTypeAndMergeFromERKN6google8protobuf11MessageLiteE(%"class.feedwire::TokenHandling"*, %"class.google::protobuf::MessageLite"* nocapture readonly dereferenceable(16)) unnamed_addr #0 align 2 {
  %3 = getelementptr inbounds %"class.feedwire::TokenHandling", %"class.feedwire::TokenHandling"* %0, i64 0, i32 0, i32 1
  %4 = getelementptr inbounds %"class.google::protobuf::MessageLite", %"class.google::protobuf::MessageLite"* %1, i64 0, i32 1
  %5 = bitcast %"class.google::protobuf::internal::InternalMetadata"* %4 to i64*
  %6 = load i64, i64* %5, align 8
  %7 = and i64 %6, 1
  %8 = icmp eq i64 %7, 0
  br i1 %8, label %38, label %9

9:                                                ; preds = %2
  %10 = and i64 %6, -2
  %11 = inttoptr i64 %10 to %"struct.google::protobuf::internal::InternalMetadata::Container"*
  %12 = getelementptr inbounds %"struct.google::protobuf::internal::InternalMetadata::Container", %"struct.google::protobuf::internal::InternalMetadata::Container"* %11, i64 0, i32 1
  %13 = bitcast %"class.google::protobuf::internal::InternalMetadata"* %3 to i64*
  %14 = load i64, i64* %13, align 8
  %15 = and i64 %14, 1
  %16 = icmp eq i64 %15, 0
  br i1 %16, label %21, label %17, !prof !5

17:                                               ; preds = %9
  %18 = and i64 %14, -2
  %19 = inttoptr i64 %18 to %"struct.google::protobuf::internal::InternalMetadata::Container"*
  %20 = getelementptr inbounds %"struct.google::protobuf::internal::InternalMetadata::Container", %"struct.google::protobuf::internal::InternalMetadata::Container"* %19, i64 0, i32 1
  br label %23

21:                                               ; preds = %9
  %22 = tail call %"class.std::__1::basic_string"* @_ZN6google8protobuf8internal16InternalMetadata27mutable_unknown_fields_slowINSt3__112basic_stringIcNS4_11char_traitsIcEENS4_9allocatorIcEEEEEEPT_v(%"class.google::protobuf::internal::InternalMetadata"* %3) #13
  br label %23

23:                                               ; preds = %21, %17
  %24 = phi %"class.std::__1::basic_string"* [ %20, %17 ], [ %22, %21 ]
  %25 = bitcast %"class.std::__1::basic_string"* %12 to %"struct.std::__1::basic_string<char, std::__1::char_traits<char>, std::__1::allocator<char> >::__short"*
  %26 = getelementptr inbounds %"struct.std::__1::basic_string<char, std::__1::char_traits<char>, std::__1::allocator<char> >::__short", %"struct.std::__1::basic_string<char, std::__1::char_traits<char>, std::__1::allocator<char> >::__short"* %25, i64 0, i32 1, i32 0
  %27 = load i8, i8* %26, align 1
  %28 = icmp slt i8 %27, 0
  %29 = getelementptr inbounds %"class.std::__1::basic_string", %"class.std::__1::basic_string"* %12, i64 0, i32 0, i32 0, i32 0, i32 0, i32 0, i32 0
  %30 = load i8*, i8** %29, align 8
  %31 = getelementptr inbounds %"struct.google::protobuf::internal::InternalMetadata::Container", %"struct.google::protobuf::internal::InternalMetadata::Container"* %11, i64 0, i32 1, i32 0, i32 0, i32 0, i32 0, i32 0, i32 1
  %32 = load i64, i64* %31, align 8
  %33 = bitcast %"class.std::__1::basic_string"* %12 to i8*
  %34 = zext i8 %27 to i64
  %35 = select i1 %28, i8* %30, i8* %33
  %36 = select i1 %28, i64 %32, i64 %34
  %37 = tail call dereferenceable(24) %"class.std::__1::basic_string"* @_ZNSt3__112basic_stringIcNS_11char_traitsIcEENS_9allocatorIcEEE6appendEPKcm(%"class.std::__1::basic_string"* %24, i8* %35, i64 %36) #13
  br label %38

38:                                               ; preds = %23, %2
  %39 = getelementptr inbounds %"class.google::protobuf::MessageLite", %"class.google::protobuf::MessageLite"* %1, i64 1
  %40 = bitcast %"class.google::protobuf::MessageLite"* %39 to i32*
  %41 = load i32, i32* %40, align 4
  %42 = and i32 %41, 1
  %43 = icmp eq i32 %42, 0
  br i1 %43, label %52, label %44

44:                                               ; preds = %38
  %45 = getelementptr inbounds %"class.google::protobuf::MessageLite", %"class.google::protobuf::MessageLite"* %1, i64 1, i32 1
  %46 = bitcast %"class.google::protobuf::internal::InternalMetadata"* %45 to i32*
  %47 = load i32, i32* %46, align 8
  %48 = getelementptr inbounds %"class.feedwire::TokenHandling", %"class.feedwire::TokenHandling"* %0, i64 0, i32 1, i32 0, i64 0
  %49 = load i32, i32* %48, align 4
  %50 = or i32 %49, 1
  store i32 %50, i32* %48, align 4
  %51 = getelementptr inbounds %"class.feedwire::TokenHandling", %"class.feedwire::TokenHandling"* %0, i64 0, i32 3
  store i32 %47, i32* %51, align 8
  br label %52

52:                                               ; preds = %38, %44
  ret void
}

; Function Attrs: nounwind ssp uwtable
define hidden void @_ZN8feedwire13TokenHandling8CopyFromERKS0_(%"class.feedwire::TokenHandling"*, %"class.feedwire::TokenHandling"* readonly dereferenceable(32)) local_unnamed_addr #0 align 2 {
  %3 = icmp eq %"class.feedwire::TokenHandling"* %1, %0
  br i1 %3, label %70, label %4

4:                                                ; preds = %2
  %5 = getelementptr inbounds %"class.feedwire::TokenHandling", %"class.feedwire::TokenHandling"* %0, i64 0, i32 3
  store i32 0, i32* %5, align 8
  %6 = getelementptr inbounds %"class.feedwire::TokenHandling", %"class.feedwire::TokenHandling"* %0, i64 0, i32 1, i32 0, i64 0
  store i32 0, i32* %6, align 4
  %7 = getelementptr inbounds %"class.feedwire::TokenHandling", %"class.feedwire::TokenHandling"* %0, i64 0, i32 0, i32 1
  %8 = bitcast %"class.google::protobuf::internal::InternalMetadata"* %7 to i64*
  %9 = load i64, i64* %8, align 8
  %10 = and i64 %9, 1
  %11 = icmp eq i64 %10, 0
  br i1 %11, label %26, label %12

12:                                               ; preds = %4
  %13 = and i64 %9, -2
  %14 = inttoptr i64 %13 to %"struct.google::protobuf::internal::InternalMetadata::Container"*
  %15 = getelementptr inbounds %"struct.google::protobuf::internal::InternalMetadata::Container", %"struct.google::protobuf::internal::InternalMetadata::Container"* %14, i64 0, i32 1
  %16 = bitcast %"class.std::__1::basic_string"* %15 to %"struct.std::__1::basic_string<char, std::__1::char_traits<char>, std::__1::allocator<char> >::__short"*
  %17 = getelementptr inbounds %"struct.std::__1::basic_string<char, std::__1::char_traits<char>, std::__1::allocator<char> >::__short", %"struct.std::__1::basic_string<char, std::__1::char_traits<char>, std::__1::allocator<char> >::__short"* %16, i64 0, i32 1, i32 0
  %18 = load i8, i8* %17, align 1
  %19 = icmp slt i8 %18, 0
  br i1 %19, label %20, label %24

20:                                               ; preds = %12
  %21 = getelementptr inbounds %"class.std::__1::basic_string", %"class.std::__1::basic_string"* %15, i64 0, i32 0, i32 0, i32 0, i32 0, i32 0, i32 0
  %22 = load i8*, i8** %21, align 8
  store i8 0, i8* %22, align 1
  %23 = getelementptr inbounds %"struct.google::protobuf::internal::InternalMetadata::Container", %"struct.google::protobuf::internal::InternalMetadata::Container"* %14, i64 0, i32 1, i32 0, i32 0, i32 0, i32 0, i32 0, i32 1
  store i64 0, i64* %23, align 8
  br label %26

24:                                               ; preds = %12
  %25 = bitcast %"class.std::__1::basic_string"* %15 to i8*
  store i8 0, i8* %25, align 2
  store i8 0, i8* %17, align 1
  br label %26

26:                                               ; preds = %4, %20, %24
  %27 = getelementptr inbounds %"class.feedwire::TokenHandling", %"class.feedwire::TokenHandling"* %1, i64 0, i32 0, i32 1
  %28 = bitcast %"class.google::protobuf::internal::InternalMetadata"* %27 to i64*
  %29 = load i64, i64* %28, align 8
  %30 = and i64 %29, 1
  %31 = icmp eq i64 %30, 0
  br i1 %31, label %60, label %32

32:                                               ; preds = %26
  %33 = and i64 %29, -2
  %34 = inttoptr i64 %33 to %"struct.google::protobuf::internal::InternalMetadata::Container"*
  %35 = getelementptr inbounds %"struct.google::protobuf::internal::InternalMetadata::Container", %"struct.google::protobuf::internal::InternalMetadata::Container"* %34, i64 0, i32 1
  %36 = load i64, i64* %8, align 8
  %37 = and i64 %36, 1
  %38 = icmp eq i64 %37, 0
  br i1 %38, label %43, label %39, !prof !5

39:                                               ; preds = %32
  %40 = and i64 %36, -2
  %41 = inttoptr i64 %40 to %"struct.google::protobuf::internal::InternalMetadata::Container"*
  %42 = getelementptr inbounds %"struct.google::protobuf::internal::InternalMetadata::Container", %"struct.google::protobuf::internal::InternalMetadata::Container"* %41, i64 0, i32 1
  br label %45

43:                                               ; preds = %32
  %44 = tail call %"class.std::__1::basic_string"* @_ZN6google8protobuf8internal16InternalMetadata27mutable_unknown_fields_slowINSt3__112basic_stringIcNS4_11char_traitsIcEENS4_9allocatorIcEEEEEEPT_v(%"class.google::protobuf::internal::InternalMetadata"* %7) #13
  br label %45

45:                                               ; preds = %43, %39
  %46 = phi %"class.std::__1::basic_string"* [ %42, %39 ], [ %44, %43 ]
  %47 = bitcast %"class.std::__1::basic_string"* %35 to %"struct.std::__1::basic_string<char, std::__1::char_traits<char>, std::__1::allocator<char> >::__short"*
  %48 = getelementptr inbounds %"struct.std::__1::basic_string<char, std::__1::char_traits<char>, std::__1::allocator<char> >::__short", %"struct.std::__1::basic_string<char, std::__1::char_traits<char>, std::__1::allocator<char> >::__short"* %47, i64 0, i32 1, i32 0
  %49 = load i8, i8* %48, align 1
  %50 = icmp slt i8 %49, 0
  %51 = getelementptr inbounds %"class.std::__1::basic_string", %"class.std::__1::basic_string"* %35, i64 0, i32 0, i32 0, i32 0, i32 0, i32 0, i32 0
  %52 = load i8*, i8** %51, align 8
  %53 = getelementptr inbounds %"struct.google::protobuf::internal::InternalMetadata::Container", %"struct.google::protobuf::internal::InternalMetadata::Container"* %34, i64 0, i32 1, i32 0, i32 0, i32 0, i32 0, i32 0, i32 1
  %54 = load i64, i64* %53, align 8
  %55 = bitcast %"class.std::__1::basic_string"* %35 to i8*
  %56 = zext i8 %49 to i64
  %57 = select i1 %50, i8* %52, i8* %55
  %58 = select i1 %50, i64 %54, i64 %56
  %59 = tail call dereferenceable(24) %"class.std::__1::basic_string"* @_ZNSt3__112basic_stringIcNS_11char_traitsIcEENS_9allocatorIcEEE6appendEPKcm(%"class.std::__1::basic_string"* %46, i8* %57, i64 %58) #13
  br label %60

60:                                               ; preds = %45, %26
  %61 = getelementptr inbounds %"class.feedwire::TokenHandling", %"class.feedwire::TokenHandling"* %1, i64 0, i32 1, i32 0, i64 0
  %62 = load i32, i32* %61, align 4
  %63 = and i32 %62, 1
  %64 = icmp eq i32 %63, 0
  br i1 %64, label %70, label %65

65:                                               ; preds = %60
  %66 = getelementptr inbounds %"class.feedwire::TokenHandling", %"class.feedwire::TokenHandling"* %1, i64 0, i32 3
  %67 = load i32, i32* %66, align 8
  %68 = load i32, i32* %6, align 4
  %69 = or i32 %68, 1
  store i32 %69, i32* %6, align 4
  store i32 %67, i32* %5, align 8
  br label %70

70:                                               ; preds = %65, %60, %2
  ret void
}

; Function Attrs: norecurse nounwind readnone ssp uwtable
define hidden zeroext i1 @_ZNK8feedwire13TokenHandling13IsInitializedEv(%"class.feedwire::TokenHandling"* nocapture readnone) unnamed_addr #1 align 2 {
  ret i1 true
}

; Function Attrs: nounwind ssp uwtable
define hidden void @_ZN8feedwire13TokenHandling12InternalSwapEPS0_(%"class.feedwire::TokenHandling"*, %"class.feedwire::TokenHandling"*) local_unnamed_addr #0 align 2 {
  %3 = getelementptr inbounds %"class.feedwire::TokenHandling", %"class.feedwire::TokenHandling"* %0, i64 0, i32 0, i32 1
  %4 = getelementptr inbounds %"class.feedwire::TokenHandling", %"class.feedwire::TokenHandling"* %1, i64 0, i32 0, i32 1
  %5 = bitcast %"class.google::protobuf::internal::InternalMetadata"* %3 to i64*
  %6 = load i64, i64* %5, align 8
  %7 = bitcast %"class.google::protobuf::internal::InternalMetadata"* %4 to i64*
  %8 = load i64, i64* %7, align 8
  %9 = or i64 %8, %6
  %10 = and i64 %9, 1
  %11 = icmp eq i64 %10, 0
  br i1 %11, label %43, label %12

12:                                               ; preds = %2
  %13 = and i64 %8, 1
  %14 = icmp eq i64 %13, 0
  br i1 %14, label %19, label %15, !prof !5

15:                                               ; preds = %12
  %16 = and i64 %8, -2
  %17 = inttoptr i64 %16 to %"struct.google::protobuf::internal::InternalMetadata::Container"*
  %18 = getelementptr inbounds %"struct.google::protobuf::internal::InternalMetadata::Container", %"struct.google::protobuf::internal::InternalMetadata::Container"* %17, i64 0, i32 1
  br label %22

19:                                               ; preds = %12
  %20 = tail call %"class.std::__1::basic_string"* @_ZN6google8protobuf8internal16InternalMetadata27mutable_unknown_fields_slowINSt3__112basic_stringIcNS4_11char_traitsIcEENS4_9allocatorIcEEEEEEPT_v(%"class.google::protobuf::internal::InternalMetadata"* %4) #13
  %21 = load i64, i64* %5, align 8
  br label %22

22:                                               ; preds = %19, %15
  %23 = phi i64 [ %6, %15 ], [ %21, %19 ]
  %24 = phi %"class.std::__1::basic_string"* [ %18, %15 ], [ %20, %19 ]
  %25 = and i64 %23, 1
  %26 = icmp eq i64 %25, 0
  br i1 %26, label %31, label %27, !prof !5

27:                                               ; preds = %22
  %28 = and i64 %23, -2
  %29 = inttoptr i64 %28 to %"struct.google::protobuf::internal::InternalMetadata::Container"*
  %30 = getelementptr inbounds %"struct.google::protobuf::internal::InternalMetadata::Container", %"struct.google::protobuf::internal::InternalMetadata::Container"* %29, i64 0, i32 1
  br label %33

31:                                               ; preds = %22
  %32 = tail call %"class.std::__1::basic_string"* @_ZN6google8protobuf8internal16InternalMetadata27mutable_unknown_fields_slowINSt3__112basic_stringIcNS4_11char_traitsIcEENS4_9allocatorIcEEEEEEPT_v(%"class.google::protobuf::internal::InternalMetadata"* %3) #13
  br label %33

33:                                               ; preds = %31, %27
  %34 = phi %"class.std::__1::basic_string"* [ %30, %27 ], [ %32, %31 ]
  %35 = bitcast %"class.std::__1::basic_string"* %34 to <2 x i64>*
  %36 = load <2 x i64>, <2 x i64>* %35, align 8
  %37 = getelementptr inbounds %"class.std::__1::basic_string", %"class.std::__1::basic_string"* %34, i64 0, i32 0, i32 0, i32 0, i32 0, i32 0, i32 2
  %38 = load i64, i64* %37, align 8
  %39 = bitcast %"class.std::__1::basic_string"* %34 to i8*
  %40 = bitcast %"class.std::__1::basic_string"* %24 to i8*
  tail call void @llvm.memcpy.p0i8.p0i8.i64(i8* align 8 %39, i8* align 8 %40, i64 24, i1 false) #13
  %41 = bitcast %"class.std::__1::basic_string"* %24 to <2 x i64>*
  store <2 x i64> %36, <2 x i64>* %41, align 8
  %42 = getelementptr inbounds %"class.std::__1::basic_string", %"class.std::__1::basic_string"* %24, i64 0, i32 0, i32 0, i32 0, i32 0, i32 0, i32 2
  store i64 %38, i64* %42, align 8
  br label %43

43:                                               ; preds = %2, %33
  %44 = getelementptr inbounds %"class.feedwire::TokenHandling", %"class.feedwire::TokenHandling"* %0, i64 0, i32 1, i32 0, i64 0
  %45 = getelementptr inbounds %"class.feedwire::TokenHandling", %"class.feedwire::TokenHandling"* %1, i64 0, i32 1, i32 0, i64 0
  %46 = load i32, i32* %44, align 4
  %47 = load i32, i32* %45, align 4
  store i32 %47, i32* %44, align 4
  store i32 %46, i32* %45, align 4
  %48 = getelementptr inbounds %"class.feedwire::TokenHandling", %"class.feedwire::TokenHandling"* %0, i64 0, i32 3
  %49 = getelementptr inbounds %"class.feedwire::TokenHandling", %"class.feedwire::TokenHandling"* %1, i64 0, i32 3
  %50 = load i32, i32* %48, align 4
  %51 = load i32, i32* %49, align 4
  store i32 %51, i32* %48, align 4
  store i32 %50, i32* %49, align 4
  ret void
}

; Function Attrs: nounwind ssp uwtable
define hidden void @_ZNK8feedwire13TokenHandling11GetTypeNameEv(%"class.std::__1::basic_string"* noalias sret, %"class.feedwire::TokenHandling"* nocapture readnone) unnamed_addr #0 align 2 {
  %3 = bitcast %"class.std::__1::basic_string"* %0 to %"struct.std::__1::basic_string<char, std::__1::char_traits<char>, std::__1::allocator<char> >::__short"*
  %4 = getelementptr inbounds %"struct.std::__1::basic_string<char, std::__1::char_traits<char>, std::__1::allocator<char> >::__short", %"struct.std::__1::basic_string<char, std::__1::char_traits<char>, std::__1::allocator<char> >::__short"* %3, i64 0, i32 1, i32 0
  store i8 22, i8* %4, align 1
  %5 = bitcast %"class.std::__1::basic_string"* %0 to i8*
  tail call void @llvm.memcpy.p0i8.p0i8.i64(i8* align 8 %5, i8* align 1 getelementptr inbounds ([23 x i8], [23 x i8]* @.str.5, i64 0, i64 0), i64 22, i1 false) #13
  %6 = getelementptr inbounds i8, i8* %5, i64 22
  store i8 0, i8* %6, align 2
  ret void
}

; Function Attrs: noinline nounwind ssp uwtable
define hidden %"class.feedwire::NextPageToken"* @_ZN6google8protobuf5Arena18CreateMaybeMessageIN8feedwire13NextPageTokenEJEEEPT_PS1_DpOT0_(%"class.google::protobuf::Arena"*) local_unnamed_addr #10 align 2 {
  %2 = icmp eq %"class.google::protobuf::Arena"* %0, null
  br i1 %2, label %3, label %15

3:                                                ; preds = %1
  %4 = tail call i8* @_Znwm(i64 48) #14
  %5 = bitcast i8* %4 to i32 (...)***
  %6 = getelementptr inbounds i8, i8* %4, i64 8
  %7 = bitcast i8* %6 to %"class.google::protobuf::Arena"**
  store %"class.google::protobuf::Arena"* null, %"class.google::protobuf::Arena"** %7, align 8
  store i32 (...)** bitcast (i8** getelementptr inbounds ({ [16 x i8*] }, { [16 x i8*] }* @_ZTVN8feedwire13NextPageTokenE, i64 0, inrange i32 0, i64 2) to i32 (...)**), i32 (...)*** %5, align 8
  %8 = getelementptr inbounds i8, i8* %4, i64 16
  %9 = bitcast i8* %8 to i32*
  store i32 0, i32* %9, align 4
  %10 = getelementptr inbounds i8, i8* %4, i64 20
  %11 = bitcast i8* %10 to i32*
  store i32 0, i32* %11, align 4
  %12 = load atomic i32, i32* getelementptr inbounds ({ { { { i32 } }, i32, i32, void ()* }, [1 x i8*] }, { { { { i32 } }, i32, i32, void ()* }, [1 x i8*] }* @scc_info_NextPageToken_components_2ffeed_2fcore_2fproto_2fv2_2fwire_2fnext_5fpage_5ftoken_2eproto, i64 0, i32 0, i32 0, i32 0, i32 0) acquire, align 8
  %13 = icmp eq i32 %12, 0
  br i1 %13, label %33, label %14, !prof !2

14:                                               ; preds = %3
  tail call void @_ZN6google8protobuf8internal11InitSCCImplEPNS1_11SCCInfoBaseE(%"struct.google::protobuf::internal::SCCInfoBase"* bitcast ({ { { { i32 } }, i32, i32, void ()* }, [1 x i8*] }* @scc_info_NextPageToken_components_2ffeed_2fcore_2fproto_2fv2_2fwire_2fnext_5fpage_5ftoken_2eproto to %"struct.google::protobuf::internal::SCCInfoBase"*)) #13
  br label %33

15:                                               ; preds = %1
  %16 = getelementptr inbounds %"class.google::protobuf::Arena", %"class.google::protobuf::Arena"* %0, i64 0, i32 4
  %17 = load i8*, i8** %16, align 8
  %18 = icmp eq i8* %17, null
  br i1 %18, label %20, label %19, !prof !2

19:                                               ; preds = %15
  tail call void @_ZNK6google8protobuf5Arena17OnArenaAllocationEPKSt9type_infom(%"class.google::protobuf::Arena"* nonnull %0, %"class.std::type_info"* null, i64 48) #13
  br label %20

20:                                               ; preds = %19, %15
  %21 = tail call i8* @_ZN6google8protobuf5Arena21AllocateAlignedNoHookEm(%"class.google::protobuf::Arena"* nonnull %0, i64 48) #13
  %22 = ptrtoint %"class.google::protobuf::Arena"* %0 to i64
  %23 = bitcast i8* %21 to i32 (...)***
  %24 = getelementptr inbounds i8, i8* %21, i64 8
  %25 = bitcast i8* %24 to i64*
  store i64 %22, i64* %25, align 8
  store i32 (...)** bitcast (i8** getelementptr inbounds ({ [16 x i8*] }, { [16 x i8*] }* @_ZTVN8feedwire13NextPageTokenE, i64 0, inrange i32 0, i64 2) to i32 (...)**), i32 (...)*** %23, align 8
  %26 = getelementptr inbounds i8, i8* %21, i64 16
  %27 = bitcast i8* %26 to i32*
  store i32 0, i32* %27, align 4
  %28 = getelementptr inbounds i8, i8* %21, i64 20
  %29 = bitcast i8* %28 to i32*
  store i32 0, i32* %29, align 4
  %30 = load atomic i32, i32* getelementptr inbounds ({ { { { i32 } }, i32, i32, void ()* }, [1 x i8*] }, { { { { i32 } }, i32, i32, void ()* }, [1 x i8*] }* @scc_info_NextPageToken_components_2ffeed_2fcore_2fproto_2fv2_2fwire_2fnext_5fpage_5ftoken_2eproto, i64 0, i32 0, i32 0, i32 0, i32 0) acquire, align 8
  %31 = icmp eq i32 %30, 0
  br i1 %31, label %33, label %32, !prof !2

32:                                               ; preds = %20
  tail call void @_ZN6google8protobuf8internal11InitSCCImplEPNS1_11SCCInfoBaseE(%"struct.google::protobuf::internal::SCCInfoBase"* bitcast ({ { { { i32 } }, i32, i32, void ()* }, [1 x i8*] }* @scc_info_NextPageToken_components_2ffeed_2fcore_2fproto_2fv2_2fwire_2fnext_5fpage_5ftoken_2eproto to %"struct.google::protobuf::internal::SCCInfoBase"*)) #13
  br label %33

33:                                               ; preds = %20, %32, %3, %14
  %34 = phi i8* [ %4, %14 ], [ %4, %3 ], [ %21, %32 ], [ %21, %20 ]
  %35 = getelementptr inbounds i8, i8* %34, i64 24
  %36 = bitcast i8* %35 to <2 x %"class.std::__1::basic_string"*>*
  store <2 x %"class.std::__1::basic_string"*> <%"class.std::__1::basic_string"* bitcast (%"class.google::protobuf::internal::ExplicitlyConstructed.4"* @_ZN6google8protobuf8internal26fixed_address_empty_stringE to %"class.std::__1::basic_string"*), %"class.std::__1::basic_string"* bitcast (%"class.google::protobuf::internal::ExplicitlyConstructed.4"* @_ZN6google8protobuf8internal26fixed_address_empty_stringE to %"class.std::__1::basic_string"*)>, <2 x %"class.std::__1::basic_string"*>* %36, align 8
  %37 = getelementptr inbounds i8, i8* %34, i64 40
  %38 = bitcast i8* %37 to %"class.feedwire::TokenHandling"**
  store %"class.feedwire::TokenHandling"* null, %"class.feedwire::TokenHandling"** %38, align 8
  %39 = bitcast i8* %34 to %"class.feedwire::NextPageToken"*
  ret %"class.feedwire::NextPageToken"* %39
}

; Function Attrs: noinline nounwind ssp uwtable
define hidden %"class.feedwire::TokenHandling"* @_ZN6google8protobuf5Arena18CreateMaybeMessageIN8feedwire13TokenHandlingEJEEEPT_PS1_DpOT0_(%"class.google::protobuf::Arena"*) local_unnamed_addr #10 align 2 {
  %2 = icmp eq %"class.google::protobuf::Arena"* %0, null
  br i1 %2, label %3, label %7

3:                                                ; preds = %1
  %4 = tail call i8* @_Znwm(i64 32) #14
  %5 = getelementptr inbounds i8, i8* %4, i64 8
  %6 = bitcast i8* %5 to %"class.google::protobuf::Arena"**
  store %"class.google::protobuf::Arena"* null, %"class.google::protobuf::Arena"** %6, align 8
  br label %17

7:                                                ; preds = %1
  %8 = getelementptr inbounds %"class.google::protobuf::Arena", %"class.google::protobuf::Arena"* %0, i64 0, i32 4
  %9 = load i8*, i8** %8, align 8
  %10 = icmp eq i8* %9, null
  br i1 %10, label %12, label %11, !prof !2

11:                                               ; preds = %7
  tail call void @_ZNK6google8protobuf5Arena17OnArenaAllocationEPKSt9type_infom(%"class.google::protobuf::Arena"* nonnull %0, %"class.std::type_info"* null, i64 32) #13
  br label %12

12:                                               ; preds = %11, %7
  %13 = tail call i8* @_ZN6google8protobuf5Arena21AllocateAlignedNoHookEm(%"class.google::protobuf::Arena"* nonnull %0, i64 32) #13
  %14 = ptrtoint %"class.google::protobuf::Arena"* %0 to i64
  %15 = getelementptr inbounds i8, i8* %13, i64 8
  %16 = bitcast i8* %15 to i64*
  store i64 %14, i64* %16, align 8
  br label %17

17:                                               ; preds = %3, %12
  %18 = phi i8* [ %4, %3 ], [ %13, %12 ]
  %19 = bitcast i8* %18 to i32 (...)***
  store i32 (...)** bitcast (i8** getelementptr inbounds ({ [16 x i8*] }, { [16 x i8*] }* @_ZTVN8feedwire13TokenHandlingE, i64 0, inrange i32 0, i64 2) to i32 (...)**), i32 (...)*** %19, align 8
  %20 = getelementptr inbounds i8, i8* %18, i64 16
  %21 = bitcast i8* %20 to i32*
  store i32 0, i32* %21, align 4
  %22 = getelementptr inbounds i8, i8* %18, i64 20
  %23 = bitcast i8* %22 to i32*
  store i32 0, i32* %23, align 4
  %24 = getelementptr inbounds i8, i8* %18, i64 24
  %25 = bitcast i8* %24 to i32*
  store i32 0, i32* %25, align 8
  %26 = bitcast i8* %18 to %"class.feedwire::TokenHandling"*
  ret %"class.feedwire::TokenHandling"* %26
}

; Function Attrs: inlinehint nounwind ssp uwtable
define linkonce_odr hidden %"class.feedwire::NextPageToken"* @_ZNK8feedwire13NextPageToken3NewEv(%"class.feedwire::NextPageToken"*) unnamed_addr #11 comdat align 2 {
  %2 = tail call %"class.feedwire::NextPageToken"* @_ZN6google8protobuf5Arena18CreateMaybeMessageIN8feedwire13NextPageTokenEJEEEPT_PS1_DpOT0_(%"class.google::protobuf::Arena"* null) #13
  ret %"class.feedwire::NextPageToken"* %2
}

; Function Attrs: nounwind ssp uwtable
define linkonce_odr hidden %"class.feedwire::NextPageToken"* @_ZNK8feedwire13NextPageToken3NewEPN6google8protobuf5ArenaE(%"class.feedwire::NextPageToken"*, %"class.google::protobuf::Arena"*) unnamed_addr #0 comdat align 2 {
  %3 = tail call %"class.feedwire::NextPageToken"* @_ZN6google8protobuf5Arena18CreateMaybeMessageIN8feedwire13NextPageTokenEJEEEPT_PS1_DpOT0_(%"class.google::protobuf::Arena"* %1) #13
  ret %"class.feedwire::NextPageToken"* %3
}

declare void @_ZNK6google8protobuf11MessageLite25InitializationErrorStringEv(%"class.std::__1::basic_string"* sret, %"class.google::protobuf::MessageLite"*) unnamed_addr #4

; Function Attrs: nounwind ssp uwtable
define linkonce_odr hidden i32 @_ZNK8feedwire13NextPageToken13GetCachedSizeEv(%"class.feedwire::NextPageToken"*) unnamed_addr #0 comdat align 2 {
  %2 = getelementptr inbounds %"class.feedwire::NextPageToken", %"class.feedwire::NextPageToken"* %0, i64 0, i32 2, i32 0, i32 0, i32 0, i32 0, i32 0, i32 0
  %3 = load atomic i32, i32* %2 monotonic, align 4
  ret i32 %3
}

; Function Attrs: nounwind ssp uwtable
define linkonce_odr hidden i8* @_ZNK6google8protobuf11MessageLite16InternalGetTableEv(%"class.google::protobuf::MessageLite"*) unnamed_addr #0 comdat align 2 {
  ret i8* null
}

; Function Attrs: inlinehint nounwind ssp uwtable
define linkonce_odr hidden %"class.feedwire::TokenHandling"* @_ZNK8feedwire13TokenHandling3NewEv(%"class.feedwire::TokenHandling"*) unnamed_addr #11 comdat align 2 {
  %2 = tail call %"class.feedwire::TokenHandling"* @_ZN6google8protobuf5Arena18CreateMaybeMessageIN8feedwire13TokenHandlingEJEEEPT_PS1_DpOT0_(%"class.google::protobuf::Arena"* null) #13
  ret %"class.feedwire::TokenHandling"* %2
}

; Function Attrs: nounwind ssp uwtable
define linkonce_odr hidden %"class.feedwire::TokenHandling"* @_ZNK8feedwire13TokenHandling3NewEPN6google8protobuf5ArenaE(%"class.feedwire::TokenHandling"*, %"class.google::protobuf::Arena"*) unnamed_addr #0 comdat align 2 {
  %3 = tail call %"class.feedwire::TokenHandling"* @_ZN6google8protobuf5Arena18CreateMaybeMessageIN8feedwire13TokenHandlingEJEEEPT_PS1_DpOT0_(%"class.google::protobuf::Arena"* %1) #13
  ret %"class.feedwire::TokenHandling"* %3
}

; Function Attrs: nounwind ssp uwtable
define linkonce_odr hidden i32 @_ZNK8feedwire13TokenHandling13GetCachedSizeEv(%"class.feedwire::TokenHandling"*) unnamed_addr #0 comdat align 2 {
  %2 = getelementptr inbounds %"class.feedwire::TokenHandling", %"class.feedwire::TokenHandling"* %0, i64 0, i32 2, i32 0, i32 0, i32 0, i32 0, i32 0, i32 0
  %3 = load atomic i32, i32* %2 monotonic, align 4
  ret i32 %3
}

declare void @_ZN6google8protobuf8internal13VerifyVersionEiiPKc(i32, i32, i8*) local_unnamed_addr #4

declare void @_ZN6google8protobuf8internal13OnShutdownRunEPFvPKvES3_(void (i8*)*, i8*) local_unnamed_addr #4

declare void @_ZN6google8protobuf8internal14DestroyMessageEPKv(i8*) #4

; Function Attrs: noinline nounwind ssp uwtable
define linkonce_odr hidden void @_ZN6google8protobuf8internal14ArenaStringPtr14CreateInstanceEPNS0_5ArenaEPKNSt3__112basic_stringIcNS5_11char_traitsIcEENS5_9allocatorIcEEEE(%"struct.google::protobuf::internal::ArenaStringPtr"*, %"class.google::protobuf::Arena"*, %"class.std::__1::basic_string"*) local_unnamed_addr #10 comdat align 2 {
  %4 = icmp eq %"class.google::protobuf::Arena"* %1, null
  br i1 %4, label %5, label %19

5:                                                ; preds = %3
  %6 = tail call i8* @_Znwm(i64 24) #14
  %7 = bitcast i8* %6 to %"class.std::__1::basic_string"*
  %8 = bitcast %"class.std::__1::basic_string"* %2 to %"struct.std::__1::basic_string<char, std::__1::char_traits<char>, std::__1::allocator<char> >::__short"*
  %9 = getelementptr inbounds %"struct.std::__1::basic_string<char, std::__1::char_traits<char>, std::__1::allocator<char> >::__short", %"struct.std::__1::basic_string<char, std::__1::char_traits<char>, std::__1::allocator<char> >::__short"* %8, i64 0, i32 1, i32 0
  %10 = load i8, i8* %9, align 1
  %11 = icmp slt i8 %10, 0
  br i1 %11, label %14, label %12

12:                                               ; preds = %5
  %13 = bitcast %"class.std::__1::basic_string"* %2 to i8*
  tail call void @llvm.memcpy.p0i8.p0i8.i64(i8* nonnull align 8 %6, i8* align 8 %13, i64 24, i1 false) #13
  br label %39

14:                                               ; preds = %5
  %15 = getelementptr inbounds %"class.std::__1::basic_string", %"class.std::__1::basic_string"* %2, i64 0, i32 0, i32 0, i32 0, i32 0, i32 0, i32 0
  %16 = load i8*, i8** %15, align 8
  %17 = getelementptr inbounds %"class.std::__1::basic_string", %"class.std::__1::basic_string"* %2, i64 0, i32 0, i32 0, i32 0, i32 0, i32 0, i32 1
  %18 = load i64, i64* %17, align 8
  tail call void @_ZNSt3__112basic_stringIcNS_11char_traitsIcEENS_9allocatorIcEEE25__init_copy_ctor_externalEPKcm(%"class.std::__1::basic_string"* nonnull %7, i8* %16, i64 %18) #13
  br label %39

19:                                               ; preds = %3
  %20 = getelementptr inbounds %"class.google::protobuf::Arena", %"class.google::protobuf::Arena"* %1, i64 0, i32 4
  %21 = load i8*, i8** %20, align 8
  %22 = icmp eq i8* %21, null
  br i1 %22, label %24, label %23, !prof !2

23:                                               ; preds = %19
  tail call void @_ZNK6google8protobuf5Arena17OnArenaAllocationEPKSt9type_infom(%"class.google::protobuf::Arena"* nonnull %1, %"class.std::type_info"* null, i64 24) #13
  br label %24

24:                                               ; preds = %23, %19
  %25 = getelementptr inbounds %"class.google::protobuf::Arena", %"class.google::protobuf::Arena"* %1, i64 0, i32 0
  %26 = tail call i8* @_ZN6google8protobuf8internal9ArenaImpl28AllocateAlignedAndAddCleanupEmPFvPvE(%"class.google::protobuf::internal::ArenaImpl"* %25, i64 24, void (i8*)* nonnull @_ZN6google8protobuf8internal21arena_destruct_objectINSt3__112basic_stringIcNS3_11char_traitsIcEENS3_9allocatorIcEEEEEEvPv) #13
  %27 = bitcast i8* %26 to %"class.std::__1::basic_string"*
  %28 = bitcast %"class.std::__1::basic_string"* %2 to %"struct.std::__1::basic_string<char, std::__1::char_traits<char>, std::__1::allocator<char> >::__short"*
  %29 = getelementptr inbounds %"struct.std::__1::basic_string<char, std::__1::char_traits<char>, std::__1::allocator<char> >::__short", %"struct.std::__1::basic_string<char, std::__1::char_traits<char>, std::__1::allocator<char> >::__short"* %28, i64 0, i32 1, i32 0
  %30 = load i8, i8* %29, align 1
  %31 = icmp slt i8 %30, 0
  br i1 %31, label %34, label %32

32:                                               ; preds = %24
  %33 = bitcast %"class.std::__1::basic_string"* %2 to i8*
  tail call void @llvm.memcpy.p0i8.p0i8.i64(i8* align 8 %26, i8* align 8 %33, i64 24, i1 false) #13
  br label %39

34:                                               ; preds = %24
  %35 = getelementptr inbounds %"class.std::__1::basic_string", %"class.std::__1::basic_string"* %2, i64 0, i32 0, i32 0, i32 0, i32 0, i32 0, i32 0
  %36 = load i8*, i8** %35, align 8
  %37 = getelementptr inbounds %"class.std::__1::basic_string", %"class.std::__1::basic_string"* %2, i64 0, i32 0, i32 0, i32 0, i32 0, i32 0, i32 1
  %38 = load i64, i64* %37, align 8
  tail call void @_ZNSt3__112basic_stringIcNS_11char_traitsIcEENS_9allocatorIcEEE25__init_copy_ctor_externalEPKcm(%"class.std::__1::basic_string"* %27, i8* %36, i64 %38) #13
  br label %39

39:                                               ; preds = %12, %14, %32, %34
  %40 = phi %"class.std::__1::basic_string"* [ %7, %12 ], [ %7, %14 ], [ %27, %32 ], [ %27, %34 ]
  %41 = getelementptr inbounds %"struct.google::protobuf::internal::ArenaStringPtr", %"struct.google::protobuf::internal::ArenaStringPtr"* %0, i64 0, i32 0
  store %"class.std::__1::basic_string"* %40, %"class.std::__1::basic_string"** %41, align 8
  ret void
}

declare void @_ZNSt3__112basic_stringIcNS_11char_traitsIcEENS_9allocatorIcEEE25__init_copy_ctor_externalEPKcm(%"class.std::__1::basic_string"*, i8*, i64) local_unnamed_addr #4

declare i8* @_ZN6google8protobuf5Arena21AllocateAlignedNoHookEm(%"class.google::protobuf::Arena"*, i64) local_unnamed_addr #4

declare i8* @_ZN6google8protobuf8internal9ArenaImpl28AllocateAlignedAndAddCleanupEmPFvPvE(%"class.google::protobuf::internal::ArenaImpl"*, i64, void (i8*)*) local_unnamed_addr #4

; Function Attrs: nounwind ssp uwtable
define linkonce_odr hidden void @_ZN6google8protobuf8internal21arena_destruct_objectINSt3__112basic_stringIcNS3_11char_traitsIcEENS3_9allocatorIcEEEEEEvPv(i8*) #0 comdat {
  %2 = getelementptr inbounds i8, i8* %0, i64 23
  %3 = load i8, i8* %2, align 1
  %4 = icmp slt i8 %3, 0
  br i1 %4, label %5, label %8

5:                                                ; preds = %1
  %6 = bitcast i8* %0 to i8**
  %7 = load i8*, i8** %6, align 8
  tail call void @_ZdlPv(i8* %7) #14
  br label %8

8:                                                ; preds = %1, %5
  ret void
}

declare void @_ZNK6google8protobuf5Arena17OnArenaAllocationEPKSt9type_infom(%"class.google::protobuf::Arena"*, %"class.std::type_info"*, i64) local_unnamed_addr #4

declare dereferenceable(24) %"class.std::__1::basic_string"* @_ZNSt3__112basic_stringIcNS_11char_traitsIcEENS_9allocatorIcEEE17__assign_no_aliasILb1EEERS5_PKcm(%"class.std::__1::basic_string"*, i8*, i64) local_unnamed_addr #4

declare dereferenceable(24) %"class.std::__1::basic_string"* @_ZNSt3__112basic_stringIcNS_11char_traitsIcEENS_9allocatorIcEEE17__assign_no_aliasILb0EEERS5_PKcm(%"class.std::__1::basic_string"*, i8*, i64) local_unnamed_addr #4

declare void @_ZN6google8protobuf8internal14ArenaStringPtr14DestroyNoArenaEPKNSt3__112basic_stringIcNS3_11char_traitsIcEENS3_9allocatorIcEEEE(%"struct.google::protobuf::internal::ArenaStringPtr"*, %"class.std::__1::basic_string"*) local_unnamed_addr #4

declare void @_ZN6google8protobuf8internal11InitSCCImplEPNS1_11SCCInfoBaseE(%"struct.google::protobuf::internal::SCCInfoBase"*) local_unnamed_addr #4

declare { i8*, i8 } @_ZN6google8protobuf8internal18EpsCopyInputStream12DoneFallbackEPKci(%"class.google::protobuf::internal::EpsCopyInputStream"*, i8*, i32) local_unnamed_addr #4

declare { i8*, i32 } @_ZN6google8protobuf8internal15ReadTagFallbackEPKcj(i8*, i32) local_unnamed_addr #4

declare i8* @_ZN6google8protobuf2io19EpsCopyOutputStream30WriteStringMaybeAliasedOutlineEjRKNSt3__112basic_stringIcNS3_11char_traitsIcEENS3_9allocatorIcEEEEPh(%"class.google::protobuf::io::EpsCopyOutputStream"*, i32, %"class.std::__1::basic_string"* dereferenceable(24), i8*) local_unnamed_addr #4

declare i8* @_ZN6google8protobuf2io19EpsCopyOutputStream19EnsureSpaceFallbackEPh(%"class.google::protobuf::io::EpsCopyOutputStream"*, i8*) local_unnamed_addr #4

declare i8* @_ZN6google8protobuf2io19EpsCopyOutputStream16WriteRawFallbackEPKviPh(%"class.google::protobuf::io::EpsCopyOutputStream"*, i8*, i32, i8*) local_unnamed_addr #4

; Function Attrs: nounwind readnone speculatable
declare i32 @llvm.ctlz.i32(i32, i1 immarg) #12

declare { i8*, i64 } @_ZN6google8protobuf8internal17VarintParseSlow64EPKcj(i8*, i32) local_unnamed_addr #4

declare void @_ZN6google8protobuf11StringPiece18LogFatalSizeTooBigEmPKc(i64, i8*) local_unnamed_addr #4

; Function Attrs: noinline nounwind ssp uwtable
define linkonce_odr hidden %"class.std::__1::basic_string"* @_ZN6google8protobuf8internal16InternalMetadata27mutable_unknown_fields_slowINSt3__112basic_stringIcNS4_11char_traitsIcEENS4_9allocatorIcEEEEEEPT_v(%"class.google::protobuf::internal::InternalMetadata"*) local_unnamed_addr #10 comdat align 2 {
  %2 = bitcast %"class.google::protobuf::internal::InternalMetadata"* %0 to i64*
  %3 = load i64, i64* %2, align 8
  %4 = and i64 %3, 1
  %5 = icmp eq i64 %4, 0
  %6 = and i64 %3, -2
  br i1 %5, label %11, label %7, !prof !2

7:                                                ; preds = %1
  %8 = inttoptr i64 %6 to %"struct.google::protobuf::internal::InternalMetadata::ContainerBase"*
  %9 = getelementptr inbounds %"struct.google::protobuf::internal::InternalMetadata::ContainerBase", %"struct.google::protobuf::internal::InternalMetadata::ContainerBase"* %8, i64 0, i32 0
  %10 = load %"class.google::protobuf::Arena"*, %"class.google::protobuf::Arena"** %9, align 8
  br label %13

11:                                               ; preds = %1
  %12 = inttoptr i64 %6 to %"class.google::protobuf::Arena"*
  br label %13

13:                                               ; preds = %7, %11
  %14 = phi %"class.google::protobuf::Arena"* [ %10, %7 ], [ %12, %11 ]
  %15 = icmp eq %"class.google::protobuf::Arena"* %14, null
  br i1 %15, label %16, label %18

16:                                               ; preds = %13
  %17 = tail call i8* @_Znwm(i64 32) #14
  tail call void @llvm.memset.p0i8.i64(i8* nonnull align 16 %17, i8 0, i64 32, i1 false) #13
  br label %26

18:                                               ; preds = %13
  %19 = getelementptr inbounds %"class.google::protobuf::Arena", %"class.google::protobuf::Arena"* %14, i64 0, i32 4
  %20 = load i8*, i8** %19, align 8
  %21 = icmp eq i8* %20, null
  br i1 %21, label %23, label %22, !prof !2

22:                                               ; preds = %18
  tail call void @_ZNK6google8protobuf5Arena17OnArenaAllocationEPKSt9type_infom(%"class.google::protobuf::Arena"* nonnull %14, %"class.std::type_info"* null, i64 32) #13
  br label %23

23:                                               ; preds = %22, %18
  %24 = getelementptr inbounds %"class.google::protobuf::Arena", %"class.google::protobuf::Arena"* %14, i64 0, i32 0
  %25 = tail call i8* @_ZN6google8protobuf8internal9ArenaImpl28AllocateAlignedAndAddCleanupEmPFvPvE(%"class.google::protobuf::internal::ArenaImpl"* %24, i64 32, void (i8*)* nonnull @_ZN6google8protobuf8internal21arena_destruct_objectINS1_16InternalMetadata9ContainerINSt3__112basic_stringIcNS5_11char_traitsIcEENS5_9allocatorIcEEEEEEEEvPv) #13
  tail call void @llvm.memset.p0i8.i64(i8* align 8 %25, i8 0, i64 32, i1 false) #13
  br label %26

26:                                               ; preds = %16, %23
  %27 = phi i8* [ %17, %16 ], [ %25, %23 ]
  %28 = getelementptr inbounds %"class.google::protobuf::internal::InternalMetadata", %"class.google::protobuf::internal::InternalMetadata"* %0, i64 0, i32 0
  %29 = ptrtoint i8* %27 to i64
  %30 = or i64 %29, 1
  %31 = inttoptr i64 %30 to i8*
  store i8* %31, i8** %28, align 8
  %32 = bitcast i8* %27 to %"class.google::protobuf::Arena"**
  store %"class.google::protobuf::Arena"* %14, %"class.google::protobuf::Arena"** %32, align 8
  %33 = getelementptr inbounds i8, i8* %27, i64 8
  %34 = bitcast i8* %33 to %"class.std::__1::basic_string"*
  ret %"class.std::__1::basic_string"* %34
}

; Function Attrs: argmemonly nounwind
declare void @llvm.memset.p0i8.i64(i8* nocapture writeonly, i8, i64, i1 immarg) #2

; Function Attrs: nounwind ssp uwtable
define linkonce_odr hidden void @_ZN6google8protobuf8internal21arena_destruct_objectINS1_16InternalMetadata9ContainerINSt3__112basic_stringIcNS5_11char_traitsIcEENS5_9allocatorIcEEEEEEEEvPv(i8*) #0 comdat {
  %2 = getelementptr inbounds i8, i8* %0, i64 31
  %3 = load i8, i8* %2, align 1
  %4 = icmp slt i8 %3, 0
  br i1 %4, label %5, label %9

5:                                                ; preds = %1
  %6 = getelementptr inbounds i8, i8* %0, i64 8
  %7 = bitcast i8* %6 to i8**
  %8 = load i8*, i8** %7, align 8
  tail call void @_ZdlPv(i8* %8) #14
  br label %9

9:                                                ; preds = %1, %5
  ret void
}

declare dereferenceable(24) %"class.std::__1::basic_string"* @_ZNSt3__112basic_stringIcNS_11char_traitsIcEENS_9allocatorIcEEE6appendEPKcm(%"class.std::__1::basic_string"*, i8*, i64) local_unnamed_addr #4

declare { i8*, i32 } @_ZN6google8protobuf8internal16ReadSizeFallbackEPKcj(i8*, i32) local_unnamed_addr #4

attributes #0 = { nounwind ssp uwtable "correctly-rounded-divide-sqrt-fp-math"="false" "disable-tail-calls"="false" "less-precise-fpmad"="false" "min-legal-vector-width"="0" "no-frame-pointer-elim"="false" "no-frame-pointer-elim-non-leaf" "no-infs-fp-math"="false" "no-jump-tables"="false" "no-nans-fp-math"="false" "no-signed-zeros-fp-math"="false" "no-trapping-math"="false" "null-pointer-is-valid"="true" "stack-protector-buffer-size"="4" "target-cpu"="x86-64" "target-features"="+cx8,+fxsr,+mmx,+sse,+sse2,+sse3,+x87" "unsafe-fp-math"="false" "use-soft-float"="false" }
attributes #1 = { norecurse nounwind readnone ssp uwtable "correctly-rounded-divide-sqrt-fp-math"="false" "disable-tail-calls"="false" "less-precise-fpmad"="false" "min-legal-vector-width"="0" "no-frame-pointer-elim"="false" "no-frame-pointer-elim-non-leaf" "no-infs-fp-math"="false" "no-jump-tables"="false" "no-nans-fp-math"="false" "no-signed-zeros-fp-math"="false" "no-trapping-math"="false" "null-pointer-is-valid"="true" "stack-protector-buffer-size"="4" "target-cpu"="x86-64" "target-features"="+cx8,+fxsr,+mmx,+sse,+sse2,+sse3,+x87" "unsafe-fp-math"="false" "use-soft-float"="false" }
attributes #2 = { argmemonly nounwind }
attributes #3 = { nofree nounwind }
attributes #4 = { "correctly-rounded-divide-sqrt-fp-math"="false" "disable-tail-calls"="false" "less-precise-fpmad"="false" "no-frame-pointer-elim"="false" "no-frame-pointer-elim-non-leaf" "no-infs-fp-math"="false" "no-nans-fp-math"="false" "no-signed-zeros-fp-math"="false" "no-trapping-math"="false" "null-pointer-is-valid"="true" "stack-protector-buffer-size"="4" "target-cpu"="x86-64" "target-features"="+cx8,+fxsr,+mmx,+sse,+sse2,+sse3,+x87" "unsafe-fp-math"="false" "use-soft-float"="false" }
attributes #5 = { norecurse nounwind readonly ssp uwtable "correctly-rounded-divide-sqrt-fp-math"="false" "disable-tail-calls"="false" "less-precise-fpmad"="false" "min-legal-vector-width"="0" "no-frame-pointer-elim"="false" "no-frame-pointer-elim-non-leaf" "no-infs-fp-math"="false" "no-jump-tables"="false" "no-nans-fp-math"="false" "no-signed-zeros-fp-math"="false" "no-trapping-math"="false" "null-pointer-is-valid"="true" "stack-protector-buffer-size"="4" "target-cpu"="x86-64" "target-features"="+cx8,+fxsr,+mmx,+sse,+sse2,+sse3,+x87" "unsafe-fp-math"="false" "use-soft-float"="false" }
attributes #6 = { nobuiltin nofree "correctly-rounded-divide-sqrt-fp-math"="false" "disable-tail-calls"="false" "less-precise-fpmad"="false" "no-frame-pointer-elim"="false" "no-frame-pointer-elim-non-leaf" "no-infs-fp-math"="false" "no-nans-fp-math"="false" "no-signed-zeros-fp-math"="false" "no-trapping-math"="false" "null-pointer-is-valid"="true" "stack-protector-buffer-size"="4" "target-cpu"="x86-64" "target-features"="+cx8,+fxsr,+mmx,+sse,+sse2,+sse3,+x87" "unsafe-fp-math"="false" "use-soft-float"="false" }
attributes #7 = { nobuiltin nounwind "correctly-rounded-divide-sqrt-fp-math"="false" "disable-tail-calls"="false" "less-precise-fpmad"="false" "no-frame-pointer-elim"="false" "no-frame-pointer-elim-non-leaf" "no-infs-fp-math"="false" "no-nans-fp-math"="false" "no-signed-zeros-fp-math"="false" "no-trapping-math"="false" "null-pointer-is-valid"="true" "stack-protector-buffer-size"="4" "target-cpu"="x86-64" "target-features"="+cx8,+fxsr,+mmx,+sse,+sse2,+sse3,+x87" "unsafe-fp-math"="false" "use-soft-float"="false" }
attributes #8 = { nofree norecurse nounwind ssp uwtable "correctly-rounded-divide-sqrt-fp-math"="false" "disable-tail-calls"="false" "less-precise-fpmad"="false" "min-legal-vector-width"="0" "no-frame-pointer-elim"="false" "no-frame-pointer-elim-non-leaf" "no-infs-fp-math"="false" "no-jump-tables"="false" "no-nans-fp-math"="false" "no-signed-zeros-fp-math"="false" "no-trapping-math"="false" "null-pointer-is-valid"="true" "stack-protector-buffer-size"="4" "target-cpu"="x86-64" "target-features"="+cx8,+fxsr,+mmx,+sse,+sse2,+sse3,+x87" "unsafe-fp-math"="false" "use-soft-float"="false" }
attributes #9 = { nofree norecurse nounwind ssp uwtable writeonly "correctly-rounded-divide-sqrt-fp-math"="false" "disable-tail-calls"="false" "less-precise-fpmad"="false" "min-legal-vector-width"="0" "no-frame-pointer-elim"="false" "no-frame-pointer-elim-non-leaf" "no-infs-fp-math"="false" "no-jump-tables"="false" "no-nans-fp-math"="false" "no-signed-zeros-fp-math"="false" "no-trapping-math"="false" "null-pointer-is-valid"="true" "stack-protector-buffer-size"="4" "target-cpu"="x86-64" "target-features"="+cx8,+fxsr,+mmx,+sse,+sse2,+sse3,+x87" "unsafe-fp-math"="false" "use-soft-float"="false" }
attributes #10 = { noinline nounwind ssp uwtable "correctly-rounded-divide-sqrt-fp-math"="false" "disable-tail-calls"="false" "less-precise-fpmad"="false" "min-legal-vector-width"="0" "no-frame-pointer-elim"="false" "no-frame-pointer-elim-non-leaf" "no-infs-fp-math"="false" "no-jump-tables"="false" "no-nans-fp-math"="false" "no-signed-zeros-fp-math"="false" "no-trapping-math"="false" "null-pointer-is-valid"="true" "stack-protector-buffer-size"="4" "target-cpu"="x86-64" "target-features"="+cx8,+fxsr,+mmx,+sse,+sse2,+sse3,+x87" "unsafe-fp-math"="false" "use-soft-float"="false" }
attributes #11 = { inlinehint nounwind ssp uwtable "correctly-rounded-divide-sqrt-fp-math"="false" "disable-tail-calls"="false" "less-precise-fpmad"="false" "min-legal-vector-width"="0" "no-frame-pointer-elim"="false" "no-frame-pointer-elim-non-leaf" "no-infs-fp-math"="false" "no-jump-tables"="false" "no-nans-fp-math"="false" "no-signed-zeros-fp-math"="false" "no-trapping-math"="false" "null-pointer-is-valid"="true" "stack-protector-buffer-size"="4" "target-cpu"="x86-64" "target-features"="+cx8,+fxsr,+mmx,+sse,+sse2,+sse3,+x87" "unsafe-fp-math"="false" "use-soft-float"="false" }
attributes #12 = { nounwind readnone speculatable }
attributes #13 = { nounwind }
attributes #14 = { builtin nounwind }

!llvm.module.flags = !{!0, !1}

!0 = !{i32 1, !"wchar_size", i32 4}
!1 = !{i32 7, !"PIC Level", i32 2}
!2 = !{!"branch_weights", i32 2000, i32 1}
!3 = !{!"branch_weights", i32 1, i32 1048575}
!4 = !{}
!5 = !{!"branch_weights", i32 1, i32 2000}
!6 = !{i32 0, i32 33}
!7 = !{!"branch_weights", i32 2000, i32 2002}
