; ModuleID = '../../ui/base/nine_image_painter_factory.cc'
source_filename = "../../ui/base/nine_image_painter_factory.cc"
target datalayout = "e-m:e-i64:64-f80:128-n8:16:32:64-S128"
target triple = "x86_64-unknown-linux-gnu"

module asm ".symver exp, exp@GLIBC_2.2.5"
module asm ".symver exp2, exp2@GLIBC_2.2.5"
module asm ".symver exp2f, exp2f@GLIBC_2.2.5"
module asm ".symver expf, expf@GLIBC_2.2.5"
module asm ".symver lgamma, lgamma@GLIBC_2.2.5"
module asm ".symver lgammaf, lgammaf@GLIBC_2.2.5"
module asm ".symver lgammal, lgammal@GLIBC_2.2.5"
module asm ".symver log, log@GLIBC_2.2.5"
module asm ".symver log2, log2@GLIBC_2.2.5"
module asm ".symver log2f, log2f@GLIBC_2.2.5"
module asm ".symver logf, logf@GLIBC_2.2.5"
module asm ".symver pow, pow@GLIBC_2.2.5"
module asm ".symver powf, powf@GLIBC_2.2.5"

%"class.gfx::NineImagePainter" = type { [9 x %"class.gfx::ImageSkia"] }
%"class.gfx::ImageSkia" = type { %class.scoped_refptr }
%class.scoped_refptr = type { %"class.gfx::internal::ImageSkiaStorage"* }
%"class.gfx::internal::ImageSkiaStorage" = type opaque
%"class.std::__1::vector" = type { %"class.std::__1::__vector_base" }
%"class.std::__1::__vector_base" = type { %"class.gfx::ImageSkia"*, %"class.gfx::ImageSkia"*, %"class.std::__1::__compressed_pair.1" }
%"class.std::__1::__compressed_pair.1" = type { %"struct.std::__1::__compressed_pair_elem.2" }
%"struct.std::__1::__compressed_pair_elem.2" = type { %"class.gfx::ImageSkia"* }
%"class.ui::ResourceBundle" = type { %"class.ui::ResourceBundle::Delegate"*, %"class.std::__1::unique_ptr.4", %"class.std::__1::unique_ptr.10", %"class.std::__1::unique_ptr.10", %"class.std::__1::vector.16", i32, %"class.std::__1::map", %"class.gfx::Image", %"class.std::__1::map.32", %"class.base::FilePath", %"class.std::__1::unordered_map", i8, i8, %"class.std::__1::basic_string" }
%"class.ui::ResourceBundle::Delegate" = type { i32 (...)** }
%"class.std::__1::unique_ptr.4" = type { %"class.std::__1::__compressed_pair.5" }
%"class.std::__1::__compressed_pair.5" = type { %"struct.std::__1::__compressed_pair_elem.6" }
%"struct.std::__1::__compressed_pair_elem.6" = type { %"class.base::Lock"* }
%"class.base::Lock" = type { %"class.base::internal::LockImpl" }
%"class.base::internal::LockImpl" = type { %union.pthread_mutex_t }
%union.pthread_mutex_t = type { %struct.__pthread_mutex_s }
%struct.__pthread_mutex_s = type { i32, i32, i32, i32, i32, i16, i16, %struct.__pthread_internal_list }
%struct.__pthread_internal_list = type { %struct.__pthread_internal_list*, %struct.__pthread_internal_list* }
%"class.std::__1::unique_ptr.10" = type { %"class.std::__1::__compressed_pair.11" }
%"class.std::__1::__compressed_pair.11" = type { %"struct.std::__1::__compressed_pair_elem.12" }
%"struct.std::__1::__compressed_pair_elem.12" = type { %"class.ui::ResourceHandle"* }
%"class.ui::ResourceHandle" = type opaque
%"class.std::__1::vector.16" = type { %"class.std::__1::__vector_base.17" }
%"class.std::__1::__vector_base.17" = type { %"class.std::__1::unique_ptr.10"*, %"class.std::__1::unique_ptr.10"*, %"class.std::__1::__compressed_pair.18" }
%"class.std::__1::__compressed_pair.18" = type { %"struct.std::__1::__compressed_pair_elem.19" }
%"struct.std::__1::__compressed_pair_elem.19" = type { %"class.std::__1::unique_ptr.10"* }
%"class.std::__1::map" = type { %"class.std::__1::__tree" }
%"class.std::__1::__tree" = type { %"class.std::__1::__tree_end_node"*, %"class.std::__1::__compressed_pair.23", %"class.std::__1::__compressed_pair.28" }
%"class.std::__1::__tree_end_node" = type { %"class.std::__1::__tree_node_base"* }
%"class.std::__1::__tree_node_base" = type opaque
%"class.std::__1::__compressed_pair.23" = type { %"struct.std::__1::__compressed_pair_elem.24" }
%"struct.std::__1::__compressed_pair_elem.24" = type { %"class.std::__1::__tree_end_node" }
%"class.std::__1::__compressed_pair.28" = type { %"struct.std::__1::__compressed_pair_elem.29" }
%"struct.std::__1::__compressed_pair_elem.29" = type { i64 }
%"class.gfx::Image" = type { %class.scoped_refptr.31 }
%class.scoped_refptr.31 = type { %"class.gfx::internal::ImageStorage"* }
%"class.gfx::internal::ImageStorage" = type opaque
%"class.std::__1::map.32" = type { %"class.std::__1::__tree.33" }
%"class.std::__1::__tree.33" = type { %"class.std::__1::__tree_end_node"*, %"class.std::__1::__compressed_pair.34", %"class.std::__1::__compressed_pair.38" }
%"class.std::__1::__compressed_pair.34" = type { %"struct.std::__1::__compressed_pair_elem.24" }
%"class.std::__1::__compressed_pair.38" = type { %"struct.std::__1::__compressed_pair_elem.29" }
%"class.base::FilePath" = type { %"class.std::__1::basic_string" }
%"class.std::__1::unordered_map" = type { %"class.std::__1::__hash_table" }
%"class.std::__1::__hash_table" = type <{ %"class.std::__1::unique_ptr.48", %"class.std::__1::__compressed_pair.56", %"class.std::__1::__compressed_pair.61", %"class.std::__1::__compressed_pair.63", [4 x i8] }>
%"class.std::__1::unique_ptr.48" = type { %"class.std::__1::__compressed_pair.49" }
%"class.std::__1::__compressed_pair.49" = type { %"struct.std::__1::__compressed_pair_elem.50", %"struct.std::__1::__compressed_pair_elem.51" }
%"struct.std::__1::__compressed_pair_elem.50" = type { %"struct.std::__1::__hash_node_base"** }
%"struct.std::__1::__hash_node_base" = type { %"struct.std::__1::__hash_node_base"* }
%"struct.std::__1::__compressed_pair_elem.51" = type { %"class.std::__1::__bucket_list_deallocator" }
%"class.std::__1::__bucket_list_deallocator" = type { %"class.std::__1::__compressed_pair.52" }
%"class.std::__1::__compressed_pair.52" = type { %"struct.std::__1::__compressed_pair_elem.29" }
%"class.std::__1::__compressed_pair.56" = type { %"struct.std::__1::__compressed_pair_elem.57" }
%"struct.std::__1::__compressed_pair_elem.57" = type { %"struct.std::__1::__hash_node_base" }
%"class.std::__1::__compressed_pair.61" = type { %"struct.std::__1::__compressed_pair_elem.29" }
%"class.std::__1::__compressed_pair.63" = type { %"struct.std::__1::__compressed_pair_elem.64" }
%"struct.std::__1::__compressed_pair_elem.64" = type { float }
%"class.std::__1::basic_string" = type { %"class.std::__1::__compressed_pair.43" }
%"class.std::__1::__compressed_pair.43" = type { %"struct.std::__1::__compressed_pair_elem.44" }
%"struct.std::__1::__compressed_pair_elem.44" = type { %"struct.std::__1::basic_string<char, std::__1::char_traits<char>, std::__1::allocator<char> >::__rep" }
%"struct.std::__1::basic_string<char, std::__1::char_traits<char>, std::__1::allocator<char> >::__rep" = type { %union.anon }
%union.anon = type { %"struct.std::__1::basic_string<char, std::__1::char_traits<char>, std::__1::allocator<char> >::__long" }
%"struct.std::__1::basic_string<char, std::__1::char_traits<char>, std::__1::allocator<char> >::__long" = type { i8*, i64, i64 }

; Function Attrs: nounwind ssp uwtable
define hidden nonnull %"class.gfx::NineImagePainter"* @_ZN2ui22CreateNineImagePainterEPKi(i32* nocapture readonly) local_unnamed_addr #0 {
  %2 = alloca %"class.std::__1::vector", align 8
  %3 = bitcast %"class.std::__1::vector"* %2 to i8*
  call void @llvm.lifetime.start.p0i8(i64 24, i8* nonnull %3) #6
  %4 = tail call dereferenceable(216) %"class.ui::ResourceBundle"* @_ZN2ui14ResourceBundle17GetSharedInstanceEv() #6, !noalias !2
  %5 = getelementptr inbounds %"class.std::__1::vector", %"class.std::__1::vector"* %2, i64 0, i32 0, i32 1
  %6 = getelementptr inbounds %"class.std::__1::vector", %"class.std::__1::vector"* %2, i64 0, i32 0, i32 2, i32 0, i32 0
  %7 = tail call i8* @_Znwm(i64 72) #7, !noalias !2
  %8 = bitcast i8* %7 to %"class.gfx::ImageSkia"*
  %9 = bitcast %"class.std::__1::vector"* %2 to i8**
  store i8* %7, i8** %9, align 8, !alias.scope !2
  %10 = getelementptr inbounds i8, i8* %7, i64 72
  %11 = bitcast %"class.gfx::ImageSkia"** %6 to i8**
  store i8* %10, i8** %11, align 8, !alias.scope !2
  tail call void @_ZN3gfx9ImageSkiaC1Ev(%"class.gfx::ImageSkia"* nonnull %8) #6, !noalias !2
  %12 = getelementptr inbounds i8, i8* %7, i64 8
  %13 = bitcast i8* %12 to %"class.gfx::ImageSkia"*
  tail call void @_ZN3gfx9ImageSkiaC1Ev(%"class.gfx::ImageSkia"* %13) #6, !noalias !2
  %14 = getelementptr inbounds i8, i8* %7, i64 16
  %15 = bitcast i8* %14 to %"class.gfx::ImageSkia"*
  tail call void @_ZN3gfx9ImageSkiaC1Ev(%"class.gfx::ImageSkia"* %15) #6, !noalias !2
  %16 = getelementptr inbounds i8, i8* %7, i64 24
  %17 = bitcast i8* %16 to %"class.gfx::ImageSkia"*
  tail call void @_ZN3gfx9ImageSkiaC1Ev(%"class.gfx::ImageSkia"* %17) #6, !noalias !2
  %18 = getelementptr inbounds i8, i8* %7, i64 32
  %19 = bitcast i8* %18 to %"class.gfx::ImageSkia"*
  tail call void @_ZN3gfx9ImageSkiaC1Ev(%"class.gfx::ImageSkia"* %19) #6, !noalias !2
  %20 = getelementptr inbounds i8, i8* %7, i64 40
  %21 = bitcast i8* %20 to %"class.gfx::ImageSkia"*
  tail call void @_ZN3gfx9ImageSkiaC1Ev(%"class.gfx::ImageSkia"* %21) #6, !noalias !2
  %22 = getelementptr inbounds i8, i8* %7, i64 48
  %23 = bitcast i8* %22 to %"class.gfx::ImageSkia"*
  tail call void @_ZN3gfx9ImageSkiaC1Ev(%"class.gfx::ImageSkia"* %23) #6, !noalias !2
  %24 = getelementptr inbounds i8, i8* %7, i64 56
  %25 = bitcast i8* %24 to %"class.gfx::ImageSkia"*
  tail call void @_ZN3gfx9ImageSkiaC1Ev(%"class.gfx::ImageSkia"* %25) #6, !noalias !2
  %26 = getelementptr inbounds i8, i8* %7, i64 64
  %27 = bitcast i8* %26 to %"class.gfx::ImageSkia"*
  tail call void @_ZN3gfx9ImageSkiaC1Ev(%"class.gfx::ImageSkia"* %27) #6, !noalias !2
  %28 = bitcast %"class.gfx::ImageSkia"** %5 to i64*
  %29 = ptrtoint i8* %10 to i64
  store i64 %29, i64* %28, align 8, !alias.scope !2
  %30 = load i32, i32* %0, align 4, !noalias !2
  %31 = icmp eq i32 %30, 0
  br i1 %31, label %35, label %32

32:                                               ; preds = %1
  %33 = tail call %"class.gfx::ImageSkia"* @_ZN2ui14ResourceBundle17GetImageSkiaNamedEi(%"class.ui::ResourceBundle"* %4, i32 %30) #6, !noalias !2
  %34 = tail call dereferenceable(8) %"class.gfx::ImageSkia"* @_ZN3gfx9ImageSkiaaSERKS0_(%"class.gfx::ImageSkia"* nonnull %8, %"class.gfx::ImageSkia"* dereferenceable(8) %33) #6, !noalias !2
  br label %35

35:                                               ; preds = %32, %1
  %36 = getelementptr inbounds i32, i32* %0, i64 1
  %37 = load i32, i32* %36, align 4, !noalias !2
  %38 = icmp eq i32 %37, 0
  br i1 %38, label %42, label %39

39:                                               ; preds = %35
  %40 = tail call %"class.gfx::ImageSkia"* @_ZN2ui14ResourceBundle17GetImageSkiaNamedEi(%"class.ui::ResourceBundle"* %4, i32 %37) #6, !noalias !2
  %41 = tail call dereferenceable(8) %"class.gfx::ImageSkia"* @_ZN3gfx9ImageSkiaaSERKS0_(%"class.gfx::ImageSkia"* %13, %"class.gfx::ImageSkia"* dereferenceable(8) %40) #6, !noalias !2
  br label %42

42:                                               ; preds = %39, %35
  %43 = getelementptr inbounds i32, i32* %0, i64 2
  %44 = load i32, i32* %43, align 4, !noalias !2
  %45 = icmp eq i32 %44, 0
  br i1 %45, label %49, label %46

46:                                               ; preds = %42
  %47 = tail call %"class.gfx::ImageSkia"* @_ZN2ui14ResourceBundle17GetImageSkiaNamedEi(%"class.ui::ResourceBundle"* %4, i32 %44) #6, !noalias !2
  %48 = tail call dereferenceable(8) %"class.gfx::ImageSkia"* @_ZN3gfx9ImageSkiaaSERKS0_(%"class.gfx::ImageSkia"* %15, %"class.gfx::ImageSkia"* dereferenceable(8) %47) #6, !noalias !2
  br label %49

49:                                               ; preds = %46, %42
  %50 = getelementptr inbounds i32, i32* %0, i64 3
  %51 = load i32, i32* %50, align 4, !noalias !2
  %52 = icmp eq i32 %51, 0
  br i1 %52, label %56, label %53

53:                                               ; preds = %49
  %54 = tail call %"class.gfx::ImageSkia"* @_ZN2ui14ResourceBundle17GetImageSkiaNamedEi(%"class.ui::ResourceBundle"* %4, i32 %51) #6, !noalias !2
  %55 = tail call dereferenceable(8) %"class.gfx::ImageSkia"* @_ZN3gfx9ImageSkiaaSERKS0_(%"class.gfx::ImageSkia"* %17, %"class.gfx::ImageSkia"* dereferenceable(8) %54) #6, !noalias !2
  br label %56

56:                                               ; preds = %53, %49
  %57 = getelementptr inbounds i32, i32* %0, i64 4
  %58 = load i32, i32* %57, align 4, !noalias !2
  %59 = icmp eq i32 %58, 0
  br i1 %59, label %63, label %60

60:                                               ; preds = %56
  %61 = tail call %"class.gfx::ImageSkia"* @_ZN2ui14ResourceBundle17GetImageSkiaNamedEi(%"class.ui::ResourceBundle"* %4, i32 %58) #6, !noalias !2
  %62 = tail call dereferenceable(8) %"class.gfx::ImageSkia"* @_ZN3gfx9ImageSkiaaSERKS0_(%"class.gfx::ImageSkia"* %19, %"class.gfx::ImageSkia"* dereferenceable(8) %61) #6, !noalias !2
  br label %63

63:                                               ; preds = %60, %56
  %64 = getelementptr inbounds i32, i32* %0, i64 5
  %65 = load i32, i32* %64, align 4, !noalias !2
  %66 = icmp eq i32 %65, 0
  br i1 %66, label %70, label %67

67:                                               ; preds = %63
  %68 = tail call %"class.gfx::ImageSkia"* @_ZN2ui14ResourceBundle17GetImageSkiaNamedEi(%"class.ui::ResourceBundle"* %4, i32 %65) #6, !noalias !2
  %69 = tail call dereferenceable(8) %"class.gfx::ImageSkia"* @_ZN3gfx9ImageSkiaaSERKS0_(%"class.gfx::ImageSkia"* %21, %"class.gfx::ImageSkia"* dereferenceable(8) %68) #6, !noalias !2
  br label %70

70:                                               ; preds = %67, %63
  %71 = getelementptr inbounds i32, i32* %0, i64 6
  %72 = load i32, i32* %71, align 4, !noalias !2
  %73 = icmp eq i32 %72, 0
  br i1 %73, label %77, label %74

74:                                               ; preds = %70
  %75 = tail call %"class.gfx::ImageSkia"* @_ZN2ui14ResourceBundle17GetImageSkiaNamedEi(%"class.ui::ResourceBundle"* %4, i32 %72) #6, !noalias !2
  %76 = tail call dereferenceable(8) %"class.gfx::ImageSkia"* @_ZN3gfx9ImageSkiaaSERKS0_(%"class.gfx::ImageSkia"* %23, %"class.gfx::ImageSkia"* dereferenceable(8) %75) #6, !noalias !2
  br label %77

77:                                               ; preds = %74, %70
  %78 = getelementptr inbounds i32, i32* %0, i64 7
  %79 = load i32, i32* %78, align 4, !noalias !2
  %80 = icmp eq i32 %79, 0
  br i1 %80, label %84, label %81

81:                                               ; preds = %77
  %82 = tail call %"class.gfx::ImageSkia"* @_ZN2ui14ResourceBundle17GetImageSkiaNamedEi(%"class.ui::ResourceBundle"* %4, i32 %79) #6, !noalias !2
  %83 = tail call dereferenceable(8) %"class.gfx::ImageSkia"* @_ZN3gfx9ImageSkiaaSERKS0_(%"class.gfx::ImageSkia"* %25, %"class.gfx::ImageSkia"* dereferenceable(8) %82) #6, !noalias !2
  br label %84

84:                                               ; preds = %81, %77
  %85 = getelementptr inbounds i32, i32* %0, i64 8
  %86 = load i32, i32* %85, align 4, !noalias !2
  %87 = icmp eq i32 %86, 0
  br i1 %87, label %91, label %88

88:                                               ; preds = %84
  %89 = tail call %"class.gfx::ImageSkia"* @_ZN2ui14ResourceBundle17GetImageSkiaNamedEi(%"class.ui::ResourceBundle"* %4, i32 %86) #6, !noalias !2
  %90 = tail call dereferenceable(8) %"class.gfx::ImageSkia"* @_ZN3gfx9ImageSkiaaSERKS0_(%"class.gfx::ImageSkia"* %27, %"class.gfx::ImageSkia"* dereferenceable(8) %89) #6, !noalias !2
  br label %91

91:                                               ; preds = %84, %88
  %92 = tail call i8* @_Znwm(i64 72) #7
  %93 = bitcast i8* %92 to %"class.gfx::NineImagePainter"*
  call void @_ZN3gfx16NineImagePainterC1ERKNSt3__16vectorINS_9ImageSkiaENS1_9allocatorIS3_EEEE(%"class.gfx::NineImagePainter"* nonnull %93, %"class.std::__1::vector"* nonnull dereferenceable(24) %2) #6
  %94 = getelementptr inbounds %"class.std::__1::vector", %"class.std::__1::vector"* %2, i64 0, i32 0, i32 0
  %95 = load %"class.gfx::ImageSkia"*, %"class.gfx::ImageSkia"** %94, align 8
  %96 = icmp eq %"class.gfx::ImageSkia"* %95, null
  br i1 %96, label %109, label %97

97:                                               ; preds = %91
  %98 = bitcast %"class.gfx::ImageSkia"* %95 to i8*
  %99 = load %"class.gfx::ImageSkia"*, %"class.gfx::ImageSkia"** %5, align 8
  %100 = icmp eq %"class.gfx::ImageSkia"* %99, %95
  br i1 %100, label %107, label %101

101:                                              ; preds = %97, %101
  %102 = phi %"class.gfx::ImageSkia"* [ %103, %101 ], [ %99, %97 ]
  %103 = getelementptr inbounds %"class.gfx::ImageSkia", %"class.gfx::ImageSkia"* %102, i64 -1
  call void @_ZN3gfx9ImageSkiaD1Ev(%"class.gfx::ImageSkia"* %103) #6
  %104 = icmp eq %"class.gfx::ImageSkia"* %103, %95
  br i1 %104, label %105, label %101

105:                                              ; preds = %101
  %106 = load i8*, i8** %9, align 8
  br label %107

107:                                              ; preds = %105, %97
  %108 = phi i8* [ %106, %105 ], [ %98, %97 ]
  store %"class.gfx::ImageSkia"* %95, %"class.gfx::ImageSkia"** %5, align 8
  call void @_ZdlPv(i8* %108) #7
  br label %109

109:                                              ; preds = %91, %107
  call void @llvm.lifetime.end.p0i8(i64 24, i8* nonnull %3) #6
  ret %"class.gfx::NineImagePainter"* %93
}

; Function Attrs: argmemonly nounwind
declare void @llvm.lifetime.start.p0i8(i64 immarg, i8* nocapture) #1

; Function Attrs: argmemonly nounwind
declare void @llvm.lifetime.end.p0i8(i64 immarg, i8* nocapture) #1

declare dereferenceable(216) %"class.ui::ResourceBundle"* @_ZN2ui14ResourceBundle17GetSharedInstanceEv() local_unnamed_addr #2

declare %"class.gfx::ImageSkia"* @_ZN2ui14ResourceBundle17GetImageSkiaNamedEi(%"class.ui::ResourceBundle"*, i32) local_unnamed_addr #2

declare dereferenceable(8) %"class.gfx::ImageSkia"* @_ZN3gfx9ImageSkiaaSERKS0_(%"class.gfx::ImageSkia"*, %"class.gfx::ImageSkia"* dereferenceable(8)) local_unnamed_addr #2

; Function Attrs: nobuiltin nofree
declare noalias nonnull i8* @_Znwm(i64) local_unnamed_addr #3

declare void @_ZN3gfx9ImageSkiaC1Ev(%"class.gfx::ImageSkia"*) unnamed_addr #2

; Function Attrs: nounwind
declare void @_ZN3gfx9ImageSkiaD1Ev(%"class.gfx::ImageSkia"*) unnamed_addr #4

; Function Attrs: nobuiltin nounwind
declare void @_ZdlPv(i8*) local_unnamed_addr #5

declare void @_ZN3gfx16NineImagePainterC1ERKNSt3__16vectorINS_9ImageSkiaENS1_9allocatorIS3_EEEE(%"class.gfx::NineImagePainter"*, %"class.std::__1::vector"* dereferenceable(24)) unnamed_addr #2

attributes #0 = { nounwind ssp uwtable "correctly-rounded-divide-sqrt-fp-math"="false" "disable-tail-calls"="false" "less-precise-fpmad"="false" "min-legal-vector-width"="0" "no-frame-pointer-elim"="false" "no-frame-pointer-elim-non-leaf" "no-infs-fp-math"="false" "no-jump-tables"="false" "no-nans-fp-math"="false" "no-signed-zeros-fp-math"="false" "no-trapping-math"="false" "null-pointer-is-valid"="true" "stack-protector-buffer-size"="4" "target-cpu"="x86-64" "target-features"="+cx8,+fxsr,+mmx,+sse,+sse2,+sse3,+x87" "unsafe-fp-math"="false" "use-soft-float"="false" }
attributes #1 = { argmemonly nounwind }
attributes #2 = { "correctly-rounded-divide-sqrt-fp-math"="false" "disable-tail-calls"="false" "less-precise-fpmad"="false" "no-frame-pointer-elim"="false" "no-frame-pointer-elim-non-leaf" "no-infs-fp-math"="false" "no-nans-fp-math"="false" "no-signed-zeros-fp-math"="false" "no-trapping-math"="false" "null-pointer-is-valid"="true" "stack-protector-buffer-size"="4" "target-cpu"="x86-64" "target-features"="+cx8,+fxsr,+mmx,+sse,+sse2,+sse3,+x87" "unsafe-fp-math"="false" "use-soft-float"="false" }
attributes #3 = { nobuiltin nofree "correctly-rounded-divide-sqrt-fp-math"="false" "disable-tail-calls"="false" "less-precise-fpmad"="false" "no-frame-pointer-elim"="false" "no-frame-pointer-elim-non-leaf" "no-infs-fp-math"="false" "no-nans-fp-math"="false" "no-signed-zeros-fp-math"="false" "no-trapping-math"="false" "null-pointer-is-valid"="true" "stack-protector-buffer-size"="4" "target-cpu"="x86-64" "target-features"="+cx8,+fxsr,+mmx,+sse,+sse2,+sse3,+x87" "unsafe-fp-math"="false" "use-soft-float"="false" }
attributes #4 = { nounwind "correctly-rounded-divide-sqrt-fp-math"="false" "disable-tail-calls"="false" "less-precise-fpmad"="false" "no-frame-pointer-elim"="false" "no-frame-pointer-elim-non-leaf" "no-infs-fp-math"="false" "no-nans-fp-math"="false" "no-signed-zeros-fp-math"="false" "no-trapping-math"="false" "null-pointer-is-valid"="true" "stack-protector-buffer-size"="4" "target-cpu"="x86-64" "target-features"="+cx8,+fxsr,+mmx,+sse,+sse2,+sse3,+x87" "unsafe-fp-math"="false" "use-soft-float"="false" }
attributes #5 = { nobuiltin nounwind "correctly-rounded-divide-sqrt-fp-math"="false" "disable-tail-calls"="false" "less-precise-fpmad"="false" "no-frame-pointer-elim"="false" "no-frame-pointer-elim-non-leaf" "no-infs-fp-math"="false" "no-nans-fp-math"="false" "no-signed-zeros-fp-math"="false" "no-trapping-math"="false" "null-pointer-is-valid"="true" "stack-protector-buffer-size"="4" "target-cpu"="x86-64" "target-features"="+cx8,+fxsr,+mmx,+sse,+sse2,+sse3,+x87" "unsafe-fp-math"="false" "use-soft-float"="false" }
attributes #6 = { nounwind }
attributes #7 = { builtin nounwind }

!llvm.module.flags = !{!0, !1}

!0 = !{i32 1, !"wchar_size", i32 4}
!1 = !{i32 7, !"PIC Level", i32 2}
!2 = !{!3}
!3 = distinct !{!3, !4, !"_ZN2ui12_GLOBAL__N_116ImageIdsToImagesEPKi: argument 0"}
!4 = distinct !{!4, !"_ZN2ui12_GLOBAL__N_116ImageIdsToImagesEPKi"}
