; ModuleID = '../../chrome/browser/notifications/scheduler/public/notification_params.cc'
source_filename = "../../chrome/browser/notifications/scheduler/public/notification_params.cc"
target datalayout = "e-m:e-i64:64-f80:128-n8:16:32:64-S128"
target triple = "x86_64-unknown-linux-gnu"

module asm ".symver exp, exp@GLIBC_2.2.5"
module asm ".symver exp2, exp2@GLIBC_2.2.5"
module asm ".symver exp2f, exp2f@GLIBC_2.2.5"
module asm ".symver expf, expf@GLIBC_2.2.5"
module asm ".symver lgamma, lgamma@GLIBC_2.2.5"
module asm ".symver lgammaf, lgammaf@GLIBC_2.2.5"
module asm ".symver lgammal, lgammal@GLIBC_2.2.5"
module asm ".symver log, log@GLIBC_2.2.5"
module asm ".symver log2, log2@GLIBC_2.2.5"
module asm ".symver log2f, log2f@GLIBC_2.2.5"
module asm ".symver logf, logf@GLIBC_2.2.5"
module asm ".symver pow, pow@GLIBC_2.2.5"
module asm ".symver powf, powf@GLIBC_2.2.5"

%"struct.notifications::NotificationParams" = type { i32, %"class.std::__1::basic_string", i8, %"struct.notifications::NotificationData", %"struct.notifications::ScheduleParams" }
%"class.std::__1::basic_string" = type { %"class.std::__1::__compressed_pair" }
%"class.std::__1::__compressed_pair" = type { %"struct.std::__1::__compressed_pair_elem" }
%"struct.std::__1::__compressed_pair_elem" = type { %"struct.std::__1::basic_string<char, std::__1::char_traits<char>, std::__1::allocator<char> >::__rep" }
%"struct.std::__1::basic_string<char, std::__1::char_traits<char>, std::__1::allocator<char> >::__rep" = type { %union.anon }
%union.anon = type { %"struct.std::__1::basic_string<char, std::__1::char_traits<char>, std::__1::allocator<char> >::__long" }
%"struct.std::__1::basic_string<char, std::__1::char_traits<char>, std::__1::allocator<char> >::__long" = type { i8*, i64, i64 }
%"struct.notifications::NotificationData" = type { %"class.std::__1::basic_string.1", %"class.std::__1::basic_string.1", %"class.std::__1::map", %"class.std::__1::map.18", %"class.std::__1::vector" }
%"class.std::__1::basic_string.1" = type { %"class.std::__1::__compressed_pair.2" }
%"class.std::__1::__compressed_pair.2" = type { %"struct.std::__1::__compressed_pair_elem.3" }
%"struct.std::__1::__compressed_pair_elem.3" = type { %"struct.std::__1::basic_string<char16_t, std::__1::char_traits<char16_t>, std::__1::allocator<char16_t> >::__rep" }
%"struct.std::__1::basic_string<char16_t, std::__1::char_traits<char16_t>, std::__1::allocator<char16_t> >::__rep" = type { %union.anon.4 }
%union.anon.4 = type { %"struct.std::__1::basic_string<char16_t, std::__1::char_traits<char16_t>, std::__1::allocator<char16_t> >::__long" }
%"struct.std::__1::basic_string<char16_t, std::__1::char_traits<char16_t>, std::__1::allocator<char16_t> >::__long" = type { i16*, i64, i64 }
%"class.std::__1::map" = type { %"class.std::__1::__tree" }
%"class.std::__1::__tree" = type { %"class.std::__1::__tree_end_node"*, %"class.std::__1::__compressed_pair.10", %"class.std::__1::__compressed_pair.15" }
%"class.std::__1::__tree_end_node" = type { %"class.std::__1::__tree_node_base"* }
%"class.std::__1::__tree_node_base" = type opaque
%"class.std::__1::__compressed_pair.10" = type { %"struct.std::__1::__compressed_pair_elem.11" }
%"struct.std::__1::__compressed_pair_elem.11" = type { %"class.std::__1::__tree_end_node" }
%"class.std::__1::__compressed_pair.15" = type { %"struct.std::__1::__compressed_pair_elem.16" }
%"struct.std::__1::__compressed_pair_elem.16" = type { i64 }
%"class.std::__1::map.18" = type { %"class.std::__1::__tree.19" }
%"class.std::__1::__tree.19" = type { %"class.std::__1::__tree_end_node"*, %"class.std::__1::__compressed_pair.20", %"class.std::__1::__compressed_pair.24" }
%"class.std::__1::__compressed_pair.20" = type { %"struct.std::__1::__compressed_pair_elem.11" }
%"class.std::__1::__compressed_pair.24" = type { %"struct.std::__1::__compressed_pair_elem.16" }
%"class.std::__1::vector" = type { %"class.std::__1::__vector_base" }
%"class.std::__1::__vector_base" = type { %"struct.notifications::NotificationData::Button"*, %"struct.notifications::NotificationData::Button"*, %"class.std::__1::__compressed_pair.29" }
%"struct.notifications::NotificationData::Button" = type { %"class.std::__1::basic_string.1", i32, %"class.std::__1::basic_string" }
%"class.std::__1::__compressed_pair.29" = type { %"struct.std::__1::__compressed_pair_elem.30" }
%"struct.std::__1::__compressed_pair_elem.30" = type { %"struct.notifications::NotificationData::Button"* }
%"struct.notifications::ScheduleParams" = type { i32, %"class.std::__1::map.34", %"class.absl::optional", %"class.absl::optional", %"class.absl::optional.46" }
%"class.std::__1::map.34" = type { %"class.std::__1::__tree.35" }
%"class.std::__1::__tree.35" = type { %"class.std::__1::__tree_end_node"*, %"class.std::__1::__compressed_pair.36", %"class.std::__1::__compressed_pair.40" }
%"class.std::__1::__compressed_pair.36" = type { %"struct.std::__1::__compressed_pair_elem.11" }
%"class.std::__1::__compressed_pair.40" = type { %"struct.std::__1::__compressed_pair_elem.16" }
%"class.absl::optional" = type { %"class.absl::optional_internal::optional_data" }
%"class.absl::optional_internal::optional_data" = type { %"class.absl::optional_internal::optional_data_base" }
%"class.absl::optional_internal::optional_data_base" = type { %"class.absl::optional_internal::optional_data_dtor_base" }
%"class.absl::optional_internal::optional_data_dtor_base" = type { i8, %union.anon.45 }
%union.anon.45 = type { %"class.base::Time" }
%"class.base::Time" = type { %"class.base::time_internal::TimeBase" }
%"class.base::time_internal::TimeBase" = type { i64 }
%"class.absl::optional.46" = type { %"class.absl::optional_internal::optional_data.47" }
%"class.absl::optional_internal::optional_data.47" = type { %"class.absl::optional_internal::optional_data_base.48" }
%"class.absl::optional_internal::optional_data_base.48" = type { %"class.absl::optional_internal::optional_data_dtor_base.49" }
%"class.absl::optional_internal::optional_data_dtor_base.49" = type { i8, %union.anon.50 }
%union.anon.50 = type { %"class.base::TimeDelta" }
%"class.base::TimeDelta" = type { i64 }
%"struct.std::__1::basic_string<char, std::__1::char_traits<char>, std::__1::allocator<char> >::__short" = type { [23 x i8], %struct.anon }
%struct.anon = type { i8 }

@_ZN13notifications18NotificationParamsC1ENS_19SchedulerClientTypeENS_16NotificationDataENS_14ScheduleParamsE = hidden unnamed_addr alias void (%"struct.notifications::NotificationParams"*, i32, %"struct.notifications::NotificationData"*, %"struct.notifications::ScheduleParams"*), void (%"struct.notifications::NotificationParams"*, i32, %"struct.notifications::NotificationData"*, %"struct.notifications::ScheduleParams"*)* @_ZN13notifications18NotificationParamsC2ENS_19SchedulerClientTypeENS_16NotificationDataENS_14ScheduleParamsE
@_ZN13notifications18NotificationParamsD1Ev = hidden unnamed_addr alias void (%"struct.notifications::NotificationParams"*), void (%"struct.notifications::NotificationParams"*)* @_ZN13notifications18NotificationParamsD2Ev

; Function Attrs: nounwind ssp uwtable
define hidden void @_ZN13notifications18NotificationParamsC2ENS_19SchedulerClientTypeENS_16NotificationDataENS_14ScheduleParamsE(%"struct.notifications::NotificationParams"*, i32, %"struct.notifications::NotificationData"*, %"struct.notifications::ScheduleParams"*) unnamed_addr #0 align 2 {
  %5 = getelementptr inbounds %"struct.notifications::NotificationParams", %"struct.notifications::NotificationParams"* %0, i64 0, i32 0
  store i32 %1, i32* %5, align 8
  %6 = getelementptr inbounds %"struct.notifications::NotificationParams", %"struct.notifications::NotificationParams"* %0, i64 0, i32 1
  tail call void @_ZN4base12GenerateGUIDEv(%"class.std::__1::basic_string"* sret %6) #4
  %7 = getelementptr inbounds %"struct.notifications::NotificationParams", %"struct.notifications::NotificationParams"* %0, i64 0, i32 2
  store i8 0, i8* %7, align 8
  %8 = getelementptr inbounds %"struct.notifications::NotificationParams", %"struct.notifications::NotificationParams"* %0, i64 0, i32 3
  tail call void @_ZN13notifications16NotificationDataC1ERKS0_(%"struct.notifications::NotificationData"* %8, %"struct.notifications::NotificationData"* dereferenceable(120) %2) #4
  %9 = getelementptr inbounds %"struct.notifications::NotificationParams", %"struct.notifications::NotificationParams"* %0, i64 0, i32 4
  tail call void @_ZN13notifications14ScheduleParamsC1ERKS0_(%"struct.notifications::ScheduleParams"* %9, %"struct.notifications::ScheduleParams"* dereferenceable(80) %3) #4
  ret void
}

declare void @_ZN4base12GenerateGUIDEv(%"class.std::__1::basic_string"* sret) local_unnamed_addr #1

declare void @_ZN13notifications16NotificationDataC1ERKS0_(%"struct.notifications::NotificationData"*, %"struct.notifications::NotificationData"* dereferenceable(120)) unnamed_addr #1

declare void @_ZN13notifications14ScheduleParamsC1ERKS0_(%"struct.notifications::ScheduleParams"*, %"struct.notifications::ScheduleParams"* dereferenceable(80)) unnamed_addr #1

; Function Attrs: nounwind ssp uwtable
define hidden void @_ZN13notifications18NotificationParamsD2Ev(%"struct.notifications::NotificationParams"*) unnamed_addr #0 align 2 {
  %2 = getelementptr inbounds %"struct.notifications::NotificationParams", %"struct.notifications::NotificationParams"* %0, i64 0, i32 4
  tail call void @_ZN13notifications14ScheduleParamsD1Ev(%"struct.notifications::ScheduleParams"* %2) #4
  %3 = getelementptr inbounds %"struct.notifications::NotificationParams", %"struct.notifications::NotificationParams"* %0, i64 0, i32 3
  tail call void @_ZN13notifications16NotificationDataD1Ev(%"struct.notifications::NotificationData"* %3) #4
  %4 = getelementptr inbounds %"struct.notifications::NotificationParams", %"struct.notifications::NotificationParams"* %0, i64 0, i32 1
  %5 = bitcast %"class.std::__1::basic_string"* %4 to %"struct.std::__1::basic_string<char, std::__1::char_traits<char>, std::__1::allocator<char> >::__short"*
  %6 = getelementptr inbounds %"struct.std::__1::basic_string<char, std::__1::char_traits<char>, std::__1::allocator<char> >::__short", %"struct.std::__1::basic_string<char, std::__1::char_traits<char>, std::__1::allocator<char> >::__short"* %5, i64 0, i32 1, i32 0
  %7 = load i8, i8* %6, align 1
  %8 = icmp slt i8 %7, 0
  br i1 %8, label %9, label %12

9:                                                ; preds = %1
  %10 = getelementptr inbounds %"class.std::__1::basic_string", %"class.std::__1::basic_string"* %4, i64 0, i32 0, i32 0, i32 0, i32 0, i32 0, i32 0
  %11 = load i8*, i8** %10, align 8
  tail call void @_ZdlPv(i8* %11) #5
  br label %12

12:                                               ; preds = %1, %9
  ret void
}

; Function Attrs: nounwind
declare void @_ZN13notifications14ScheduleParamsD1Ev(%"struct.notifications::ScheduleParams"*) unnamed_addr #2

; Function Attrs: nounwind
declare void @_ZN13notifications16NotificationDataD1Ev(%"struct.notifications::NotificationData"*) unnamed_addr #2

; Function Attrs: nobuiltin nounwind
declare void @_ZdlPv(i8*) local_unnamed_addr #3

attributes #0 = { nounwind ssp uwtable "correctly-rounded-divide-sqrt-fp-math"="false" "disable-tail-calls"="false" "less-precise-fpmad"="false" "min-legal-vector-width"="0" "no-frame-pointer-elim"="false" "no-frame-pointer-elim-non-leaf" "no-infs-fp-math"="false" "no-jump-tables"="false" "no-nans-fp-math"="false" "no-signed-zeros-fp-math"="false" "no-trapping-math"="false" "null-pointer-is-valid"="true" "stack-protector-buffer-size"="4" "target-cpu"="x86-64" "target-features"="+cx8,+fxsr,+mmx,+sse,+sse2,+sse3,+x87" "unsafe-fp-math"="false" "use-soft-float"="false" }
attributes #1 = { "correctly-rounded-divide-sqrt-fp-math"="false" "disable-tail-calls"="false" "less-precise-fpmad"="false" "no-frame-pointer-elim"="false" "no-frame-pointer-elim-non-leaf" "no-infs-fp-math"="false" "no-nans-fp-math"="false" "no-signed-zeros-fp-math"="false" "no-trapping-math"="false" "null-pointer-is-valid"="true" "stack-protector-buffer-size"="4" "target-cpu"="x86-64" "target-features"="+cx8,+fxsr,+mmx,+sse,+sse2,+sse3,+x87" "unsafe-fp-math"="false" "use-soft-float"="false" }
attributes #2 = { nounwind "correctly-rounded-divide-sqrt-fp-math"="false" "disable-tail-calls"="false" "less-precise-fpmad"="false" "no-frame-pointer-elim"="false" "no-frame-pointer-elim-non-leaf" "no-infs-fp-math"="false" "no-nans-fp-math"="false" "no-signed-zeros-fp-math"="false" "no-trapping-math"="false" "null-pointer-is-valid"="true" "stack-protector-buffer-size"="4" "target-cpu"="x86-64" "target-features"="+cx8,+fxsr,+mmx,+sse,+sse2,+sse3,+x87" "unsafe-fp-math"="false" "use-soft-float"="false" }
attributes #3 = { nobuiltin nounwind "correctly-rounded-divide-sqrt-fp-math"="false" "disable-tail-calls"="false" "less-precise-fpmad"="false" "no-frame-pointer-elim"="false" "no-frame-pointer-elim-non-leaf" "no-infs-fp-math"="false" "no-nans-fp-math"="false" "no-signed-zeros-fp-math"="false" "no-trapping-math"="false" "null-pointer-is-valid"="true" "stack-protector-buffer-size"="4" "target-cpu"="x86-64" "target-features"="+cx8,+fxsr,+mmx,+sse,+sse2,+sse3,+x87" "unsafe-fp-math"="false" "use-soft-float"="false" }
attributes #4 = { nounwind }
attributes #5 = { builtin nounwind }

!llvm.module.flags = !{!0, !1}

!0 = !{i32 1, !"wchar_size", i32 4}
!1 = !{i32 7, !"PIC Level", i32 2}
