; ModuleID = '../../chrome/browser/net/nss_context.cc'
source_filename = "../../chrome/browser/net/nss_context.cc"
target datalayout = "e-m:e-i64:64-f80:128-n8:16:32:64-S128"
target triple = "x86_64-unknown-linux-gnu"

module asm ".symver exp, exp@GLIBC_2.2.5"
module asm ".symver exp2, exp2@GLIBC_2.2.5"
module asm ".symver exp2f, exp2f@GLIBC_2.2.5"
module asm ".symver expf, expf@GLIBC_2.2.5"
module asm ".symver lgamma, lgamma@GLIBC_2.2.5"
module asm ".symver lgammaf, lgammaf@GLIBC_2.2.5"
module asm ".symver lgammal, lgammal@GLIBC_2.2.5"
module asm ".symver log, log@GLIBC_2.2.5"
module asm ".symver log2, log2@GLIBC_2.2.5"
module asm ".symver log2f, log2f@GLIBC_2.2.5"
module asm ".symver logf, logf@GLIBC_2.2.5"
module asm ".symver pow, pow@GLIBC_2.2.5"
module asm ".symver powf, powf@GLIBC_2.2.5"

%"struct.base::TaskTraitsExtensionStorage" = type { i8, %"struct.std::__1::array" }
%"struct.std::__1::array" = type { [8 x i8] }
%"class.std::__1::locale::id" = type <{ %"struct.std::__1::once_flag", i32, [4 x i8] }>
%"struct.std::__1::once_flag" = type { i64 }
%class.Profile = type { %"class.content::BrowserContext", %"class.std::__1::unique_ptr.7", i8, i8, i32, %"class.base::ObserverList", %"class.std::__1::unique_ptr.24" }
%"class.content::BrowserContext" = type { %"class.base::SupportsUserData.base", %"class.std::__1::unique_ptr" }
%"class.base::SupportsUserData.base" = type <{ i32 (...)**, %"class.std::__1::map", %"class.base::SequenceCheckerDoNothing" }>
%"class.std::__1::map" = type { %"class.std::__1::__tree" }
%"class.std::__1::__tree" = type { %"class.std::__1::__tree_end_node"*, %"class.std::__1::__compressed_pair", %"class.std::__1::__compressed_pair.1" }
%"class.std::__1::__tree_end_node" = type { %"class.std::__1::__tree_node_base"* }
%"class.std::__1::__tree_node_base" = type opaque
%"class.std::__1::__compressed_pair" = type { %"struct.std::__1::__compressed_pair_elem" }
%"struct.std::__1::__compressed_pair_elem" = type { %"class.std::__1::__tree_end_node" }
%"class.std::__1::__compressed_pair.1" = type { %"struct.std::__1::__compressed_pair_elem.2" }
%"struct.std::__1::__compressed_pair_elem.2" = type { i64 }
%"class.base::SequenceCheckerDoNothing" = type { i8 }
%"class.std::__1::unique_ptr" = type { %"class.std::__1::__compressed_pair.4" }
%"class.std::__1::__compressed_pair.4" = type { %"struct.std::__1::__compressed_pair_elem.5" }
%"struct.std::__1::__compressed_pair_elem.5" = type { %"class.content::BrowserContext::Impl"* }
%"class.content::BrowserContext::Impl" = type opaque
%"class.std::__1::unique_ptr.7" = type { %"class.std::__1::__compressed_pair.8" }
%"class.std::__1::__compressed_pair.8" = type { %"struct.std::__1::__compressed_pair_elem.9" }
%"struct.std::__1::__compressed_pair_elem.9" = type { %"class.content::ResourceContext"* }
%"class.content::ResourceContext" = type opaque
%"class.base::ObserverList" = type <{ %"class.std::__1::vector", %"class.base::LinkedList", i64, i32, [4 x i8] }>
%"class.std::__1::vector" = type { %"class.std::__1::__vector_base" }
%"class.std::__1::__vector_base" = type { %"class.base::internal::CheckedObserverAdapter"*, %"class.base::internal::CheckedObserverAdapter"*, %"class.std::__1::__compressed_pair.19" }
%"class.base::internal::CheckedObserverAdapter" = type { %"class.base::WeakPtr" }
%"class.base::WeakPtr" = type { %"class.base::internal::WeakPtrBase" }
%"class.base::internal::WeakPtrBase" = type { %"class.base::internal::WeakReference", i64 }
%"class.base::internal::WeakReference" = type { %class.scoped_refptr }
%class.scoped_refptr = type { %"class.base::internal::WeakReference::Flag"* }
%"class.base::internal::WeakReference::Flag" = type <{ %"class.base::RefCountedThreadSafe", %"class.base::AtomicFlag", [3 x i8] }>
%"class.base::RefCountedThreadSafe" = type { %"class.base::subtle::RefCountedThreadSafeBase" }
%"class.base::subtle::RefCountedThreadSafeBase" = type { %"class.base::AtomicRefCount" }
%"class.base::AtomicRefCount" = type { %"struct.std::__1::atomic" }
%"struct.std::__1::atomic" = type { %"struct.std::__1::__atomic_base" }
%"struct.std::__1::__atomic_base" = type { %"struct.std::__1::__atomic_base.13" }
%"struct.std::__1::__atomic_base.13" = type { %"struct.std::__1::__cxx_atomic_impl" }
%"struct.std::__1::__cxx_atomic_impl" = type { %"struct.std::__1::__cxx_atomic_base_impl" }
%"struct.std::__1::__cxx_atomic_base_impl" = type { i32 }
%"class.base::AtomicFlag" = type { %"struct.std::__1::atomic.14" }
%"struct.std::__1::atomic.14" = type { %"struct.std::__1::__atomic_base.15" }
%"struct.std::__1::__atomic_base.15" = type { %"struct.std::__1::__atomic_base.16" }
%"struct.std::__1::__atomic_base.16" = type { %"struct.std::__1::__cxx_atomic_impl.17" }
%"struct.std::__1::__cxx_atomic_impl.17" = type { %"struct.std::__1::__cxx_atomic_base_impl.18" }
%"struct.std::__1::__cxx_atomic_base_impl.18" = type { i8 }
%"class.std::__1::__compressed_pair.19" = type { %"struct.std::__1::__compressed_pair_elem.20" }
%"struct.std::__1::__compressed_pair_elem.20" = type { %"class.base::internal::CheckedObserverAdapter"* }
%"class.base::LinkedList" = type { %"class.base::LinkNode" }
%"class.base::LinkNode" = type { %"class.base::internal::LinkNodeBase" }
%"class.base::internal::LinkNodeBase" = type { %"class.base::internal::LinkNodeBase"*, %"class.base::internal::LinkNodeBase"* }
%"class.std::__1::unique_ptr.24" = type { %"class.std::__1::__compressed_pair.25" }
%"class.std::__1::__compressed_pair.25" = type { %"struct.std::__1::__compressed_pair_elem.26" }
%"struct.std::__1::__compressed_pair_elem.26" = type { %"class.variations::VariationsClient"* }
%"class.variations::VariationsClient" = type opaque
%"class.base::OnceCallback" = type { %"class.base::internal::CallbackBase" }
%"class.base::internal::CallbackBase" = type { %class.scoped_refptr.30 }
%class.scoped_refptr.30 = type { %"class.base::internal::BindStateBase"* }
%"class.base::internal::BindStateBase" = type { %"class.base::RefCountedThreadSafe.31", void ()*, void (%"class.base::internal::BindStateBase"*)*, i1 (%"class.base::internal::BindStateBase"*, i32)* }
%"class.base::RefCountedThreadSafe.31" = type { %"class.base::subtle::RefCountedThreadSafeBase" }
%"class.base::Location" = type { i8*, i8*, i32, i8* }
%"class.base::OnceCallback.34" = type { %"class.base::internal::CallbackBase" }
%"class.base::OnceCallback.36" = type { %"class.base::internal::CallbackBase" }
%"class.base::SingleThreadTaskRunner" = type { %"class.base::SequencedTaskRunner.base", [4 x i8] }
%"class.base::SequencedTaskRunner.base" = type { %"class.base::TaskRunner.base" }
%"class.base::TaskRunner.base" = type <{ i32 (...)**, %"class.base::RefCountedThreadSafe.33" }>
%"class.base::RefCountedThreadSafe.33" = type { %"class.base::subtle::RefCountedThreadSafeBase" }
%"class.content::BrowserTaskTraits" = type { %"class.base::TaskTraits" }
%"class.base::TaskTraits" = type { %"struct.base::TaskTraitsExtensionStorage", i8, i8, i8, i8, i8, i8 }
%"class.base::TaskRunner" = type <{ i32 (...)**, %"class.base::RefCountedThreadSafe.33", [4 x i8] }>
%class.scoped_refptr.32 = type { %"class.base::SingleThreadTaskRunner"* }
%"class.base::SequencedTaskRunner" = type { %"class.base::TaskRunner.base", [4 x i8] }
%"struct.std::__1::pair" = type { %"class.base::OnceCallback", %"class.base::OnceCallback" }
%"class.net::NSSCertDatabase" = type opaque
%"class.base::RepeatingCallback" = type { %"class.base::internal::CallbackBaseCopyable" }
%"class.base::internal::CallbackBaseCopyable" = type { %"class.base::internal::CallbackBase" }
%"struct.std::__1::pair.43" = type { %"class.base::RepeatingCallback", %"class.base::RepeatingCallback" }
%class.scoped_refptr.35 = type { %"class.base::SequencedTaskRunner"* }
%"class.logging::CheckError" = type { %"class.logging::LogMessage"* }
%"class.logging::LogMessage" = type { i32 (...)**, i32, %"class.std::__1::basic_ostringstream", i64, i8*, i32, %"class.base::ScopedClearLastErrorBase" }
%"class.std::__1::basic_ostringstream" = type { %"class.std::__1::basic_ostream.base", %"class.std::__1::basic_stringbuf", %"class.std::__1::basic_ios.base" }
%"class.std::__1::basic_ostream.base" = type { i32 (...)** }
%"class.std::__1::basic_stringbuf" = type <{ %"class.std::__1::basic_streambuf", %"class.std::__1::basic_string", i8*, i32, [4 x i8] }>
%"class.std::__1::basic_streambuf" = type { i32 (...)**, %"class.std::__1::locale", i8*, i8*, i8*, i8*, i8*, i8* }
%"class.std::__1::locale" = type { %"class.std::__1::locale::__imp"* }
%"class.std::__1::locale::__imp" = type opaque
%"class.std::__1::basic_string" = type { %"class.std::__1::__compressed_pair.46" }
%"class.std::__1::__compressed_pair.46" = type { %"struct.std::__1::__compressed_pair_elem.47" }
%"struct.std::__1::__compressed_pair_elem.47" = type { %"struct.std::__1::basic_string<char, std::__1::char_traits<char>, std::__1::allocator<char> >::__rep" }
%"struct.std::__1::basic_string<char, std::__1::char_traits<char>, std::__1::allocator<char> >::__rep" = type { %union.anon }
%union.anon = type { %"struct.std::__1::basic_string<char, std::__1::char_traits<char>, std::__1::allocator<char> >::__long" }
%"struct.std::__1::basic_string<char, std::__1::char_traits<char>, std::__1::allocator<char> >::__long" = type { i8*, i64, i64 }
%"class.std::__1::basic_ios.base" = type <{ %"class.std::__1::ios_base", %"class.std::__1::basic_ostream"*, i32 }>
%"class.std::__1::ios_base" = type { i32 (...)**, i32, i64, i64, i32, i32, i8*, i8*, void (i32, %"class.std::__1::ios_base"*, i32)**, i32*, i64, i64, i64*, i64, i64, i8**, i64, i64 }
%"class.std::__1::basic_ostream" = type { i32 (...)**, %"class.std::__1::basic_ios.base" }
%"class.base::ScopedClearLastErrorBase" = type { i32 }
%"class.base::internal::OnceCallbackHolder" = type <{ i32, [4 x i8], %"class.base::OnceCallback", i8, [7 x i8] }>
%"class.std::__1::basic_ostream<char, std::__1::char_traits<char> >::sentry" = type { i8, %"class.std::__1::basic_ostream"* }
%"class.std::__1::locale::facet" = type { %"class.std::__1::__shared_count" }
%"class.std::__1::__shared_count" = type { i32 (...)**, i64 }
%"class.std::__1::ctype" = type <{ %"class.std::__1::locale::facet", i16*, i8, [7 x i8] }>
%"struct.std::__1::basic_string<char, std::__1::char_traits<char>, std::__1::allocator<char> >::__short" = type { [23 x i8], %struct.anon }
%struct.anon = type { i8 }

$_ZN4base17SplitOnceCallbackIJPN3net15NSSCertDatabaseEEEENSt3__14pairINS_12OnceCallbackIFvDpT_EEESA_EESA_ = comdat any

$_ZN4base8internal18OnceCallbackHolderIJPN3net15NSSCertDatabaseEEE3RunES4_ = comdat any

$_ZN4base8internal7InvokerINS0_9BindStateIMNS0_18OnceCallbackHolderIJPN3net15NSSCertDatabaseEEEEFvS6_EJNSt3__110unique_ptrIS7_NSA_14default_deleteIS7_EEEEEEEFvS6_EE3RunEPNS0_13BindStateBaseES6_ = comdat any

$_ZN4base8internal9BindStateIMNS0_18OnceCallbackHolderIJPN3net15NSSCertDatabaseEEEEFvS5_EJNSt3__110unique_ptrIS6_NS9_14default_deleteIS6_EEEEEE7DestroyEPKNS0_13BindStateBaseE = comdat any

$_ZNSt3__124__put_character_sequenceIcNS_11char_traitsIcEEEERNS_13basic_ostreamIT_T0_EES7_PKS4_m = comdat any

$_ZNSt3__116__pad_and_outputIcNS_11char_traitsIcEEEENS_19ostreambuf_iteratorIT_T0_EES6_PKS4_S8_S8_RNS_8ios_baseES4_ = comdat any

$_ZN4base8internal7InvokerINS0_9BindStateIPFvRK13scoped_refptrINS_19SequencedTaskRunnerEENS_12OnceCallbackIFvPN3net15NSSCertDatabaseEEEESB_EJS5_SD_EEESC_E7RunOnceEPNS0_13BindStateBaseESB_ = comdat any

$_ZN4base8internal9BindStateIPFvRK13scoped_refptrINS_19SequencedTaskRunnerEENS_12OnceCallbackIFvPN3net15NSSCertDatabaseEEEESA_EJS4_SC_EE7DestroyEPKNS0_13BindStateBaseE = comdat any

$_ZN4base8internal7InvokerINS0_9BindStateINS_12OnceCallbackIFvPN3net15NSSCertDatabaseEEEEJS6_EEEFvvEE7RunOnceEPNS0_13BindStateBaseE = comdat any

$_ZN4base8internal9BindStateINS_12OnceCallbackIFvPN3net15NSSCertDatabaseEEEEJS5_EE7DestroyEPKNS0_13BindStateBaseE = comdat any

$_ZN4base8internal23QueryCancellationTraitsINS0_9BindStateINS_12OnceCallbackIFvPN3net15NSSCertDatabaseEEEEJS6_EEEEEbPKNS0_13BindStateBaseENSA_21CancellationQueryModeE = comdat any

$_ZN4base8internal7InvokerINS0_9BindStateIPFvNS_12OnceCallbackIFPN3net15NSSCertDatabaseENS3_IFvS6_EEEEEE13scoped_refptrINS_19SequencedTaskRunnerEES8_EJSA_SB_INS_22SingleThreadTaskRunnerEES8_EEEFvvEE7RunOnceEPNS0_13BindStateBaseE = comdat any

$_ZN4base8internal9BindStateIPFvNS_12OnceCallbackIFPN3net15NSSCertDatabaseENS2_IFvS5_EEEEEE13scoped_refptrINS_19SequencedTaskRunnerEES7_EJS9_SA_INS_22SingleThreadTaskRunnerEES7_EE7DestroyEPKNS0_13BindStateBaseE = comdat any

@.ref.tmp = private constant { %"struct.base::TaskTraitsExtensionStorage", i8, i8, i8, i8, i8, i8 } { %"struct.base::TaskTraitsExtensionStorage" zeroinitializer, i8 2, i8 1, i8 0, i8 0, i8 0, i8 0 }, align 1
@.str = private unnamed_addr constant [29 x i8] c"GetNSSCertDatabaseForProfile\00", align 1
@.str.1 = private unnamed_addr constant [40 x i8] c"../../chrome/browser/net/nss_context.cc\00", align 1
@.str.2 = private unnamed_addr constant [30 x i8] c"../../base/callback_helpers.h\00", align 1
@.str.3 = private unnamed_addr constant [19 x i8] c"ignore_extra_runs_\00", align 1
@.str.4 = private unnamed_addr constant [106 x i8] c"Both OnceCallbacks returned by base::SplitOnceCallback() were run. At most one of the pair should be run.\00", align 1
@_ZNSt3__15ctypeIcE2idE = external global %"class.std::__1::locale::id", align 8
@.str.6 = private unnamed_addr constant [23 x i8] c"DidGetCertDBOnIOThread\00", align 1
@.str.7 = private unnamed_addr constant [27 x i8] c"../../base/bind_internal.h\00", align 1
@.str.8 = private unnamed_addr constant [18 x i8] c"!IsNull(functor_)\00", align 1

; Function Attrs: nounwind ssp uwtable
define hidden void @_Z28GetNSSCertDatabaseForProfileP7ProfileN4base12OnceCallbackIFvPN3net15NSSCertDatabaseEEEE(%class.Profile*, %"class.base::OnceCallback"* nocapture) local_unnamed_addr #0 {
  %3 = alloca %"class.base::Location", align 8
  %4 = alloca %"class.base::OnceCallback.34", align 8
  %5 = alloca %"class.base::OnceCallback.36", align 8
  %6 = tail call %"class.base::SingleThreadTaskRunner"* @_ZN7content21GetIOThreadTaskRunnerERKNS_17BrowserTaskTraitsE(%"class.content::BrowserTaskTraits"* dereferenceable(15) bitcast ({ %"struct.base::TaskTraitsExtensionStorage", i8, i8, i8, i8, i8, i8 }* @.ref.tmp to %"class.content::BrowserTaskTraits"*)) #6
  %7 = bitcast %"class.base::SingleThreadTaskRunner"* %6 to %"class.base::TaskRunner"*
  %8 = bitcast %"class.base::Location"* %3 to i8*
  call void @llvm.lifetime.start.p0i8(i64 32, i8* nonnull %8) #6
  call void @_ZN4base8Location7CurrentEPKcS2_i(%"class.base::Location"* nonnull sret %3, i8* getelementptr inbounds ([29 x i8], [29 x i8]* @.str, i64 0, i64 0), i8* getelementptr inbounds ([40 x i8], [40 x i8]* @.str.1, i64 0, i64 0), i32 55) #6
  %9 = bitcast %"class.base::OnceCallback.36"* %5 to i8*
  call void @llvm.lifetime.start.p0i8(i64 8, i8* nonnull %9) #6
  %10 = getelementptr inbounds %class.Profile, %class.Profile* %0, i64 0, i32 0
  call void @_Z27CreateNSSCertDatabaseGetterPN7content14BrowserContextE(%"class.base::OnceCallback.36"* nonnull sret %5, %"class.content::BrowserContext"* %10) #6
  %11 = call dereferenceable(8) %class.scoped_refptr.32* @_ZN4base22ThreadTaskRunnerHandle3GetEv() #6
  %12 = call i8* @_Znwm(i64 64) #7, !noalias !2
  %13 = bitcast i8* %12 to %"class.base::internal::BindStateBase"*
  call void @_ZN4base8internal13BindStateBaseC2EPFvvEPFvPKS1_E(%"class.base::internal::BindStateBase"* nonnull %13, void ()* bitcast (void (%"class.base::internal::BindStateBase"*)* @_ZN4base8internal7InvokerINS0_9BindStateIPFvNS_12OnceCallbackIFPN3net15NSSCertDatabaseENS3_IFvS6_EEEEEE13scoped_refptrINS_19SequencedTaskRunnerEES8_EJSA_SB_INS_22SingleThreadTaskRunnerEES8_EEEFvvEE7RunOnceEPNS0_13BindStateBaseE to void ()*), void (%"class.base::internal::BindStateBase"*)* nonnull @_ZN4base8internal9BindStateIPFvNS_12OnceCallbackIFPN3net15NSSCertDatabaseENS2_IFvS5_EEEEEE13scoped_refptrINS_19SequencedTaskRunnerEES7_EJS9_SA_INS_22SingleThreadTaskRunnerEES7_EE7DestroyEPKNS0_13BindStateBaseE) #6, !noalias !2
  %14 = getelementptr inbounds i8, i8* %12, i64 32
  %15 = bitcast i8* %14 to i64*
  store i64 ptrtoint (void (%"class.base::OnceCallback.36"*, %"class.base::SequencedTaskRunner"*, %"class.base::OnceCallback"*)* @_ZN12_GLOBAL__N_119GetCertDBOnIOThreadEN4base12OnceCallbackIFPN3net15NSSCertDatabaseENS1_IFvS4_EEEEEE13scoped_refptrINS0_19SequencedTaskRunnerEES6_ to i64), i64* %15, align 8, !noalias !2
  %16 = getelementptr inbounds i8, i8* %12, i64 40
  %17 = getelementptr inbounds %"class.base::OnceCallback.36", %"class.base::OnceCallback.36"* %5, i64 0, i32 0, i32 0, i32 0
  %18 = bitcast %"class.base::OnceCallback.36"* %5 to i64*
  %19 = load i64, i64* %18, align 8, !noalias !2
  %20 = bitcast i8* %16 to i64*
  store i64 %19, i64* %20, align 8, !noalias !2
  store %"class.base::internal::BindStateBase"* null, %"class.base::internal::BindStateBase"** %17, align 8, !noalias !2
  %21 = getelementptr inbounds %class.scoped_refptr.32, %class.scoped_refptr.32* %11, i64 0, i32 0
  %22 = load %"class.base::SingleThreadTaskRunner"*, %"class.base::SingleThreadTaskRunner"** %21, align 8, !noalias !2
  %23 = getelementptr inbounds i8, i8* %12, i64 48
  %24 = bitcast i8* %23 to %"class.base::SingleThreadTaskRunner"**
  store %"class.base::SingleThreadTaskRunner"* %22, %"class.base::SingleThreadTaskRunner"** %24, align 8, !noalias !2
  %25 = icmp eq %"class.base::SingleThreadTaskRunner"* %22, null
  br i1 %25, label %29, label %26

26:                                               ; preds = %2
  %27 = getelementptr inbounds %"class.base::SingleThreadTaskRunner", %"class.base::SingleThreadTaskRunner"* %22, i64 0, i32 0, i32 0, i32 1, i32 0, i32 0, i32 0, i32 0, i32 0, i32 0, i32 0, i32 0
  %28 = atomicrmw add i32* %27, i32 1 monotonic, !noalias !2
  br label %29

29:                                               ; preds = %2, %26
  %30 = getelementptr inbounds i8, i8* %12, i64 56
  %31 = getelementptr inbounds %"class.base::OnceCallback", %"class.base::OnceCallback"* %1, i64 0, i32 0, i32 0, i32 0
  %32 = bitcast %"class.base::OnceCallback"* %1 to i64*
  %33 = load i64, i64* %32, align 8, !noalias !2
  %34 = bitcast i8* %30 to i64*
  store i64 %33, i64* %34, align 8, !noalias !2
  store %"class.base::internal::BindStateBase"* null, %"class.base::internal::BindStateBase"** %31, align 8, !noalias !2
  %35 = bitcast %"class.base::OnceCallback.34"* %4 to i8**
  store i8* %12, i8** %35, align 8, !alias.scope !2
  %36 = call zeroext i1 @_ZN4base10TaskRunner8PostTaskERKNS_8LocationENS_12OnceCallbackIFvvEEE(%"class.base::TaskRunner"* %7, %"class.base::Location"* nonnull dereferenceable(32) %3, %"class.base::OnceCallback.34"* nonnull %4) #6
  %37 = getelementptr inbounds %"class.base::OnceCallback.34", %"class.base::OnceCallback.34"* %4, i64 0, i32 0
  call void @_ZN4base8internal12CallbackBaseD2Ev(%"class.base::internal::CallbackBase"* nonnull %37) #6
  %38 = getelementptr inbounds %"class.base::OnceCallback.36", %"class.base::OnceCallback.36"* %5, i64 0, i32 0
  call void @_ZN4base8internal12CallbackBaseD2Ev(%"class.base::internal::CallbackBase"* nonnull %38) #6
  call void @llvm.lifetime.end.p0i8(i64 8, i8* nonnull %9) #6
  call void @llvm.lifetime.end.p0i8(i64 32, i8* nonnull %8) #6
  %39 = icmp eq %"class.base::SingleThreadTaskRunner"* %6, null
  br i1 %39, label %48, label %40

40:                                               ; preds = %29
  %41 = getelementptr inbounds %"class.base::SingleThreadTaskRunner", %"class.base::SingleThreadTaskRunner"* %6, i64 0, i32 0, i32 0, i32 1
  %42 = getelementptr inbounds %"class.base::RefCountedThreadSafe.33", %"class.base::RefCountedThreadSafe.33"* %41, i64 0, i32 0, i32 0, i32 0, i32 0, i32 0, i32 0, i32 0, i32 0
  %43 = atomicrmw sub i32* %42, i32 1 acq_rel
  %44 = icmp eq i32 %43, 1
  br i1 %44, label %45, label %48

45:                                               ; preds = %40
  %46 = getelementptr inbounds %"class.base::RefCountedThreadSafe.33", %"class.base::RefCountedThreadSafe.33"* %41, i64 -2
  %47 = bitcast %"class.base::RefCountedThreadSafe.33"* %46 to %"class.base::TaskRunner"*
  call void @_ZN4base16TaskRunnerTraits8DestructEPKNS_10TaskRunnerE(%"class.base::TaskRunner"* %47) #6
  br label %48

48:                                               ; preds = %29, %40, %45
  ret void
}

; Function Attrs: argmemonly nounwind
declare void @llvm.lifetime.start.p0i8(i64 immarg, i8* nocapture) #1

declare %"class.base::SingleThreadTaskRunner"* @_ZN7content21GetIOThreadTaskRunnerERKNS_17BrowserTaskTraitsE(%"class.content::BrowserTaskTraits"* dereferenceable(15)) local_unnamed_addr #2

declare zeroext i1 @_ZN4base10TaskRunner8PostTaskERKNS_8LocationENS_12OnceCallbackIFvvEEE(%"class.base::TaskRunner"*, %"class.base::Location"* dereferenceable(32), %"class.base::OnceCallback.34"*) local_unnamed_addr #2

declare void @_ZN4base8Location7CurrentEPKcS2_i(%"class.base::Location"* sret, i8*, i8*, i32) local_unnamed_addr #2

; Function Attrs: nounwind ssp uwtable
define internal void @_ZN12_GLOBAL__N_119GetCertDBOnIOThreadEN4base12OnceCallbackIFPN3net15NSSCertDatabaseENS1_IFvS4_EEEEEE13scoped_refptrINS0_19SequencedTaskRunnerEES6_(%"class.base::OnceCallback.36"* nocapture, %"class.base::SequencedTaskRunner"*, %"class.base::OnceCallback"* nocapture) #0 {
  %4 = alloca %"class.base::OnceCallback", align 8
  %5 = alloca %"class.base::OnceCallback.36", align 8
  %6 = alloca %"struct.std::__1::pair", align 8
  %7 = alloca %"class.base::OnceCallback", align 8
  %8 = alloca %"class.base::OnceCallback", align 8
  %9 = bitcast %"struct.std::__1::pair"* %6 to i8*
  call void @llvm.lifetime.start.p0i8(i64 16, i8* nonnull %9) #6
  %10 = getelementptr inbounds %"struct.std::__1::pair", %"struct.std::__1::pair"* %6, i64 0, i32 0, i32 0, i32 0, i32 0
  %11 = getelementptr inbounds %"struct.std::__1::pair", %"struct.std::__1::pair"* %6, i64 0, i32 1
  %12 = getelementptr inbounds %"class.base::OnceCallback", %"class.base::OnceCallback"* %11, i64 0, i32 0, i32 0, i32 0
  %13 = bitcast %"struct.std::__1::pair"* %6 to i8*
  call void @llvm.memset.p0i8.i64(i8* nonnull align 8 %13, i8 -86, i64 16, i1 false)
  %14 = tail call i8* @_Znwm(i64 56) #7, !noalias !7
  %15 = bitcast i8* %14 to %"class.base::internal::BindStateBase"*
  tail call void @_ZN4base8internal13BindStateBaseC2EPFvvEPFvPKS1_E(%"class.base::internal::BindStateBase"* nonnull %15, void ()* bitcast (void (%"class.base::internal::BindStateBase"*, %"class.net::NSSCertDatabase"*)* @_ZN4base8internal7InvokerINS0_9BindStateIPFvRK13scoped_refptrINS_19SequencedTaskRunnerEENS_12OnceCallbackIFvPN3net15NSSCertDatabaseEEEESB_EJS5_SD_EEESC_E7RunOnceEPNS0_13BindStateBaseESB_ to void ()*), void (%"class.base::internal::BindStateBase"*)* nonnull @_ZN4base8internal9BindStateIPFvRK13scoped_refptrINS_19SequencedTaskRunnerEENS_12OnceCallbackIFvPN3net15NSSCertDatabaseEEEESA_EJS4_SC_EE7DestroyEPKNS0_13BindStateBaseE) #6, !noalias !7
  %16 = getelementptr inbounds i8, i8* %14, i64 32
  %17 = bitcast i8* %16 to i64*
  store i64 ptrtoint (void (%class.scoped_refptr.35*, %"class.base::OnceCallback"*, %"class.net::NSSCertDatabase"*)* @_ZN12_GLOBAL__N_122DidGetCertDBOnIOThreadERK13scoped_refptrIN4base19SequencedTaskRunnerEENS1_12OnceCallbackIFvPN3net15NSSCertDatabaseEEEES9_ to i64), i64* %17, align 8, !noalias !7
  %18 = getelementptr inbounds i8, i8* %14, i64 40
  %19 = bitcast i8* %18 to %"class.base::SequencedTaskRunner"**
  store %"class.base::SequencedTaskRunner"* %1, %"class.base::SequencedTaskRunner"** %19, align 8, !noalias !7
  %20 = icmp eq %"class.base::SequencedTaskRunner"* %1, null
  br i1 %20, label %24, label %21

21:                                               ; preds = %3
  %22 = getelementptr inbounds %"class.base::SequencedTaskRunner", %"class.base::SequencedTaskRunner"* %1, i64 0, i32 0, i32 1, i32 0, i32 0, i32 0, i32 0, i32 0, i32 0, i32 0, i32 0
  %23 = atomicrmw add i32* %22, i32 1 monotonic, !noalias !7
  br label %24

24:                                               ; preds = %3, %21
  %25 = getelementptr inbounds i8, i8* %14, i64 48
  %26 = getelementptr inbounds %"class.base::OnceCallback", %"class.base::OnceCallback"* %2, i64 0, i32 0, i32 0, i32 0
  %27 = bitcast %"class.base::OnceCallback"* %2 to i64*
  %28 = load i64, i64* %27, align 8, !noalias !7
  %29 = bitcast i8* %25 to i64*
  store i64 %28, i64* %29, align 8, !noalias !7
  store %"class.base::internal::BindStateBase"* null, %"class.base::internal::BindStateBase"** %26, align 8, !noalias !7
  %30 = bitcast %"class.base::OnceCallback"* %7 to i8**
  store i8* %14, i8** %30, align 8, !alias.scope !7
  call void @_ZN4base17SplitOnceCallbackIJPN3net15NSSCertDatabaseEEEENSt3__14pairINS_12OnceCallbackIFvDpT_EEESA_EESA_(%"struct.std::__1::pair"* nonnull sret %6, %"class.base::OnceCallback"* nonnull %7)
  %31 = getelementptr inbounds %"class.base::OnceCallback", %"class.base::OnceCallback"* %7, i64 0, i32 0
  call void @_ZN4base8internal12CallbackBaseD2Ev(%"class.base::internal::CallbackBase"* nonnull %31) #6
  %32 = bitcast %"struct.std::__1::pair"* %6 to i64*
  %33 = load i64, i64* %32, align 8
  %34 = bitcast %"class.base::OnceCallback"* %8 to i64*
  store i64 %33, i64* %34, align 8
  store %"class.base::internal::BindStateBase"* null, %"class.base::internal::BindStateBase"** %10, align 8
  %35 = bitcast %"class.base::OnceCallback.36"* %5 to i8*
  call void @llvm.lifetime.start.p0i8(i64 8, i8* nonnull %35) #6
  %36 = getelementptr inbounds %"class.base::OnceCallback.36", %"class.base::OnceCallback.36"* %0, i64 0, i32 0, i32 0, i32 0
  %37 = bitcast %"class.base::OnceCallback.36"* %0 to i64*
  %38 = load i64, i64* %37, align 8
  %39 = bitcast %"class.base::OnceCallback.36"* %5 to i64*
  store i64 %38, i64* %39, align 8
  store %"class.base::internal::BindStateBase"* null, %"class.base::internal::BindStateBase"** %36, align 8
  %40 = getelementptr inbounds %"class.base::OnceCallback.36", %"class.base::OnceCallback.36"* %5, i64 0, i32 0
  %41 = inttoptr i64 %38 to %"class.base::internal::BindStateBase"*
  %42 = getelementptr inbounds %"class.base::internal::BindStateBase", %"class.base::internal::BindStateBase"* %41, i64 0, i32 1
  %43 = bitcast void ()** %42 to %"class.net::NSSCertDatabase"* (%"class.base::internal::BindStateBase"*, %"class.base::OnceCallback"*)**
  %44 = load %"class.net::NSSCertDatabase"* (%"class.base::internal::BindStateBase"*, %"class.base::OnceCallback"*)*, %"class.net::NSSCertDatabase"* (%"class.base::internal::BindStateBase"*, %"class.base::OnceCallback"*)** %43, align 8
  %45 = call %"class.net::NSSCertDatabase"* %44(%"class.base::internal::BindStateBase"* %41, %"class.base::OnceCallback"* nonnull dereferenceable(8) %8) #6
  call void @_ZN4base8internal12CallbackBaseD2Ev(%"class.base::internal::CallbackBase"* nonnull %40) #6
  call void @llvm.lifetime.end.p0i8(i64 8, i8* nonnull %35) #6
  %46 = getelementptr inbounds %"class.base::OnceCallback", %"class.base::OnceCallback"* %8, i64 0, i32 0
  call void @_ZN4base8internal12CallbackBaseD2Ev(%"class.base::internal::CallbackBase"* nonnull %46) #6
  %47 = icmp eq %"class.net::NSSCertDatabase"* %45, null
  br i1 %47, label %58, label %48

48:                                               ; preds = %24
  %49 = bitcast %"class.base::OnceCallback"* %4 to i8*
  call void @llvm.lifetime.start.p0i8(i64 8, i8* nonnull %49) #6
  %50 = bitcast %"class.base::OnceCallback"* %11 to i64*
  %51 = load i64, i64* %50, align 8
  %52 = bitcast %"class.base::OnceCallback"* %4 to i64*
  store i64 %51, i64* %52, align 8
  store %"class.base::internal::BindStateBase"* null, %"class.base::internal::BindStateBase"** %12, align 8
  %53 = getelementptr inbounds %"class.base::OnceCallback", %"class.base::OnceCallback"* %4, i64 0, i32 0
  %54 = inttoptr i64 %51 to %"class.base::internal::BindStateBase"*
  %55 = getelementptr inbounds %"class.base::internal::BindStateBase", %"class.base::internal::BindStateBase"* %54, i64 0, i32 1
  %56 = bitcast void ()** %55 to void (%"class.base::internal::BindStateBase"*, %"class.net::NSSCertDatabase"*)**
  %57 = load void (%"class.base::internal::BindStateBase"*, %"class.net::NSSCertDatabase"*)*, void (%"class.base::internal::BindStateBase"*, %"class.net::NSSCertDatabase"*)** %56, align 8
  call void %57(%"class.base::internal::BindStateBase"* %54, %"class.net::NSSCertDatabase"* nonnull %45) #6
  call void @_ZN4base8internal12CallbackBaseD2Ev(%"class.base::internal::CallbackBase"* nonnull %53) #6
  call void @llvm.lifetime.end.p0i8(i64 8, i8* nonnull %49) #6
  br label %58

58:                                               ; preds = %24, %48
  %59 = getelementptr inbounds %"struct.std::__1::pair", %"struct.std::__1::pair"* %6, i64 0, i32 1, i32 0
  call void @_ZN4base8internal12CallbackBaseD2Ev(%"class.base::internal::CallbackBase"* %59) #6
  %60 = getelementptr inbounds %"struct.std::__1::pair", %"struct.std::__1::pair"* %6, i64 0, i32 0, i32 0
  call void @_ZN4base8internal12CallbackBaseD2Ev(%"class.base::internal::CallbackBase"* nonnull %60) #6
  call void @llvm.lifetime.end.p0i8(i64 16, i8* nonnull %9) #6
  br i1 %20, label %69, label %61

61:                                               ; preds = %58
  %62 = getelementptr inbounds %"class.base::SequencedTaskRunner", %"class.base::SequencedTaskRunner"* %1, i64 0, i32 0, i32 1
  %63 = getelementptr inbounds %"class.base::RefCountedThreadSafe.33", %"class.base::RefCountedThreadSafe.33"* %62, i64 0, i32 0, i32 0, i32 0, i32 0, i32 0, i32 0, i32 0, i32 0
  %64 = atomicrmw sub i32* %63, i32 1 acq_rel
  %65 = icmp eq i32 %64, 1
  br i1 %65, label %66, label %69

66:                                               ; preds = %61
  %67 = getelementptr inbounds %"class.base::RefCountedThreadSafe.33", %"class.base::RefCountedThreadSafe.33"* %62, i64 -2
  %68 = bitcast %"class.base::RefCountedThreadSafe.33"* %67 to %"class.base::TaskRunner"*
  call void @_ZN4base16TaskRunnerTraits8DestructEPKNS_10TaskRunnerE(%"class.base::TaskRunner"* %68) #6
  br label %69

69:                                               ; preds = %58, %61, %66
  ret void
}

declare void @_Z27CreateNSSCertDatabaseGetterPN7content14BrowserContextE(%"class.base::OnceCallback.36"* sret, %"class.content::BrowserContext"*) local_unnamed_addr #2

declare dereferenceable(8) %class.scoped_refptr.32* @_ZN4base22ThreadTaskRunnerHandle3GetEv() local_unnamed_addr #2

; Function Attrs: argmemonly nounwind
declare void @llvm.lifetime.end.p0i8(i64 immarg, i8* nocapture) #1

; Function Attrs: nounwind ssp uwtable
define linkonce_odr hidden void @_ZN4base17SplitOnceCallbackIJPN3net15NSSCertDatabaseEEEENSt3__14pairINS_12OnceCallbackIFvDpT_EEESA_EESA_(%"struct.std::__1::pair"* noalias sret, %"class.base::OnceCallback"*) local_unnamed_addr #0 comdat {
  %3 = alloca %"class.base::OnceCallback", align 8
  %4 = alloca %"class.base::RepeatingCallback", align 8
  %5 = alloca %"class.base::RepeatingCallback", align 8
  %6 = alloca %"class.base::OnceCallback", align 8
  %7 = alloca %"class.base::OnceCallback", align 8
  %8 = alloca %"class.base::RepeatingCallback", align 8
  %9 = alloca %"struct.std::__1::pair.43", align 8
  %10 = getelementptr inbounds %"class.base::OnceCallback", %"class.base::OnceCallback"* %1, i64 0, i32 0, i32 0, i32 0
  %11 = load %"class.base::internal::BindStateBase"*, %"class.base::internal::BindStateBase"** %10, align 8
  %12 = icmp eq %"class.base::internal::BindStateBase"* %11, null
  br i1 %12, label %13, label %21

13:                                               ; preds = %2
  %14 = bitcast %"class.base::OnceCallback"* %6 to i8*
  call void @llvm.lifetime.start.p0i8(i64 8, i8* nonnull %14) #6
  %15 = getelementptr inbounds %"class.base::OnceCallback", %"class.base::OnceCallback"* %6, i64 0, i32 0, i32 0, i32 0
  %16 = bitcast %"class.base::OnceCallback"* %7 to i8*
  call void @llvm.lifetime.start.p0i8(i64 8, i8* nonnull %16) #6
  %17 = getelementptr inbounds %"class.base::OnceCallback", %"class.base::OnceCallback"* %7, i64 0, i32 0, i32 0, i32 0
  store %"class.base::internal::BindStateBase"* null, %"class.base::internal::BindStateBase"** %15, align 8, !noalias !12
  %18 = bitcast %"struct.std::__1::pair"* %0 to <2 x i64>*
  store <2 x i64> zeroinitializer, <2 x i64>* %18, align 8, !alias.scope !12
  store %"class.base::internal::BindStateBase"* null, %"class.base::internal::BindStateBase"** %17, align 8, !noalias !12
  %19 = getelementptr inbounds %"class.base::OnceCallback", %"class.base::OnceCallback"* %7, i64 0, i32 0
  call void @_ZN4base8internal12CallbackBaseD2Ev(%"class.base::internal::CallbackBase"* nonnull %19) #6
  call void @llvm.lifetime.end.p0i8(i64 8, i8* nonnull %16) #6
  %20 = getelementptr inbounds %"class.base::OnceCallback", %"class.base::OnceCallback"* %6, i64 0, i32 0
  br label %64

21:                                               ; preds = %2
  %22 = ptrtoint %"class.base::internal::BindStateBase"* %11 to i64
  %23 = bitcast %"class.base::RepeatingCallback"* %8 to i8*
  call void @llvm.lifetime.start.p0i8(i64 8, i8* nonnull %23) #6
  %24 = bitcast %"class.base::OnceCallback"* %3 to i8*
  call void @llvm.lifetime.start.p0i8(i64 8, i8* nonnull %24)
  %25 = tail call i8* @_Znwm(i64 24) #7
  store %"class.base::internal::BindStateBase"* null, %"class.base::internal::BindStateBase"** %10, align 8
  %26 = bitcast i8* %25 to i32*
  store volatile i32 0, i32* %26, align 8
  %27 = getelementptr inbounds i8, i8* %25, i64 8
  %28 = getelementptr inbounds %"class.base::OnceCallback", %"class.base::OnceCallback"* %3, i64 0, i32 0, i32 0, i32 0
  %29 = bitcast i8* %27 to i64*
  store i64 %22, i64* %29, align 8
  store %"class.base::internal::BindStateBase"* null, %"class.base::internal::BindStateBase"** %28, align 8
  %30 = getelementptr inbounds i8, i8* %25, i64 16
  store i8 0, i8* %30, align 8
  %31 = getelementptr inbounds %"class.base::OnceCallback", %"class.base::OnceCallback"* %3, i64 0, i32 0
  call void @_ZN4base8internal12CallbackBaseD2Ev(%"class.base::internal::CallbackBase"* nonnull %31) #6
  call void @llvm.lifetime.end.p0i8(i64 8, i8* nonnull %24)
  %32 = ptrtoint i8* %25 to i64
  %33 = call i8* @_Znwm(i64 56) #7, !noalias !15
  %34 = bitcast i8* %33 to %"class.base::internal::BindStateBase"*
  call void @_ZN4base8internal13BindStateBaseC2EPFvvEPFvPKS1_E(%"class.base::internal::BindStateBase"* nonnull %34, void ()* bitcast (void (%"class.base::internal::BindStateBase"*, %"class.net::NSSCertDatabase"*)* @_ZN4base8internal7InvokerINS0_9BindStateIMNS0_18OnceCallbackHolderIJPN3net15NSSCertDatabaseEEEEFvS6_EJNSt3__110unique_ptrIS7_NSA_14default_deleteIS7_EEEEEEEFvS6_EE3RunEPNS0_13BindStateBaseES6_ to void ()*), void (%"class.base::internal::BindStateBase"*)* nonnull @_ZN4base8internal9BindStateIMNS0_18OnceCallbackHolderIJPN3net15NSSCertDatabaseEEEEFvS5_EJNSt3__110unique_ptrIS6_NS9_14default_deleteIS6_EEEEEE7DestroyEPKNS0_13BindStateBaseE) #6, !noalias !15
  %35 = getelementptr inbounds i8, i8* %33, i64 32
  %36 = bitcast i8* %35 to <2 x i64>*
  store <2 x i64> <i64 ptrtoint (void (%"class.base::internal::OnceCallbackHolder"*, %"class.net::NSSCertDatabase"*)* @_ZN4base8internal18OnceCallbackHolderIJPN3net15NSSCertDatabaseEEE3RunES4_ to i64), i64 0>, <2 x i64>* %36, align 8, !noalias !15
  %37 = getelementptr inbounds i8, i8* %33, i64 48
  %38 = bitcast i8* %37 to i64*
  store i64 %32, i64* %38, align 8, !noalias !15
  %39 = bitcast %"class.base::RepeatingCallback"* %8 to i8**
  store i8* %33, i8** %39, align 8, !alias.scope !15
  %40 = bitcast %"struct.std::__1::pair.43"* %9 to i8*
  call void @llvm.lifetime.start.p0i8(i64 16, i8* nonnull %40) #6
  %41 = getelementptr inbounds %"struct.std::__1::pair.43", %"struct.std::__1::pair.43"* %9, i64 0, i32 0, i32 0
  %42 = getelementptr inbounds %"class.base::RepeatingCallback", %"class.base::RepeatingCallback"* %8, i64 0, i32 0
  call void @_ZN4base8internal20CallbackBaseCopyableC2ERKS1_(%"class.base::internal::CallbackBaseCopyable"* nonnull %41, %"class.base::internal::CallbackBaseCopyable"* nonnull dereferenceable(8) %42) #6
  %43 = getelementptr inbounds %"struct.std::__1::pair.43", %"struct.std::__1::pair.43"* %9, i64 0, i32 1, i32 0
  call void @_ZN4base8internal20CallbackBaseCopyableC2ERKS1_(%"class.base::internal::CallbackBaseCopyable"* %43, %"class.base::internal::CallbackBaseCopyable"* nonnull dereferenceable(8) %42) #6
  %44 = bitcast %"class.base::RepeatingCallback"* %4 to i8*
  call void @llvm.lifetime.start.p0i8(i64 8, i8* nonnull %44)
  %45 = bitcast %"class.base::RepeatingCallback"* %5 to i8*
  call void @llvm.lifetime.start.p0i8(i64 8, i8* nonnull %45)
  %46 = getelementptr inbounds %"struct.std::__1::pair.43", %"struct.std::__1::pair.43"* %9, i64 0, i32 0, i32 0, i32 0, i32 0, i32 0
  %47 = bitcast %"struct.std::__1::pair.43"* %9 to i64*
  %48 = load i64, i64* %47, align 8
  %49 = bitcast %"class.base::RepeatingCallback"* %4 to i64*
  store i64 %48, i64* %49, align 8
  store %"class.base::internal::BindStateBase"* null, %"class.base::internal::BindStateBase"** %46, align 8
  %50 = getelementptr inbounds %"struct.std::__1::pair", %"struct.std::__1::pair"* %0, i64 0, i32 0, i32 0
  %51 = getelementptr inbounds %"class.base::RepeatingCallback", %"class.base::RepeatingCallback"* %4, i64 0, i32 0
  call void @_ZN4base8internal12CallbackBaseC2EONS0_20CallbackBaseCopyableE(%"class.base::internal::CallbackBase"* %50, %"class.base::internal::CallbackBaseCopyable"* nonnull dereferenceable(8) %51) #6
  %52 = getelementptr inbounds %"class.base::RepeatingCallback", %"class.base::RepeatingCallback"* %4, i64 0, i32 0, i32 0
  call void @_ZN4base8internal12CallbackBaseD2Ev(%"class.base::internal::CallbackBase"* nonnull %52) #6
  %53 = getelementptr inbounds %"struct.std::__1::pair.43", %"struct.std::__1::pair.43"* %9, i64 0, i32 1
  %54 = getelementptr inbounds %"class.base::RepeatingCallback", %"class.base::RepeatingCallback"* %53, i64 0, i32 0, i32 0, i32 0, i32 0
  %55 = bitcast %"class.base::RepeatingCallback"* %53 to i64*
  %56 = load i64, i64* %55, align 8
  %57 = bitcast %"class.base::RepeatingCallback"* %5 to i64*
  store i64 %56, i64* %57, align 8
  store %"class.base::internal::BindStateBase"* null, %"class.base::internal::BindStateBase"** %54, align 8
  %58 = getelementptr inbounds %"struct.std::__1::pair", %"struct.std::__1::pair"* %0, i64 0, i32 1, i32 0
  %59 = getelementptr inbounds %"class.base::RepeatingCallback", %"class.base::RepeatingCallback"* %5, i64 0, i32 0
  call void @_ZN4base8internal12CallbackBaseC2EONS0_20CallbackBaseCopyableE(%"class.base::internal::CallbackBase"* %58, %"class.base::internal::CallbackBaseCopyable"* nonnull dereferenceable(8) %59) #6
  %60 = getelementptr inbounds %"class.base::RepeatingCallback", %"class.base::RepeatingCallback"* %5, i64 0, i32 0, i32 0
  call void @_ZN4base8internal12CallbackBaseD2Ev(%"class.base::internal::CallbackBase"* nonnull %60) #6
  call void @llvm.lifetime.end.p0i8(i64 8, i8* nonnull %44)
  call void @llvm.lifetime.end.p0i8(i64 8, i8* nonnull %45)
  %61 = getelementptr inbounds %"struct.std::__1::pair.43", %"struct.std::__1::pair.43"* %9, i64 0, i32 1, i32 0, i32 0
  call void @_ZN4base8internal12CallbackBaseD2Ev(%"class.base::internal::CallbackBase"* %61) #6
  %62 = getelementptr inbounds %"struct.std::__1::pair.43", %"struct.std::__1::pair.43"* %9, i64 0, i32 0, i32 0, i32 0
  call void @_ZN4base8internal12CallbackBaseD2Ev(%"class.base::internal::CallbackBase"* nonnull %62) #6
  call void @llvm.lifetime.end.p0i8(i64 16, i8* nonnull %40) #6
  %63 = getelementptr inbounds %"class.base::RepeatingCallback", %"class.base::RepeatingCallback"* %8, i64 0, i32 0, i32 0
  br label %64

64:                                               ; preds = %21, %13
  %65 = phi %"class.base::internal::CallbackBase"* [ %63, %21 ], [ %20, %13 ]
  %66 = phi i8* [ %23, %21 ], [ %14, %13 ]
  call void @_ZN4base8internal12CallbackBaseD2Ev(%"class.base::internal::CallbackBase"* nonnull %65) #6
  call void @llvm.lifetime.end.p0i8(i64 8, i8* nonnull %66) #6
  ret void
}

; Function Attrs: nounwind ssp uwtable
define internal void @_ZN12_GLOBAL__N_122DidGetCertDBOnIOThreadERK13scoped_refptrIN4base19SequencedTaskRunnerEENS1_12OnceCallbackIFvPN3net15NSSCertDatabaseEEEES9_(%class.scoped_refptr.35* nocapture readonly dereferenceable(8), %"class.base::OnceCallback"* nocapture, %"class.net::NSSCertDatabase"*) #0 {
  %4 = alloca %"class.logging::CheckError", align 8
  %5 = alloca %"class.base::Location", align 8
  %6 = alloca %"class.base::OnceCallback.34", align 8
  %7 = ptrtoint %"class.net::NSSCertDatabase"* %2 to i64
  %8 = bitcast %class.scoped_refptr.35* %0 to %"class.base::TaskRunner"**
  %9 = load %"class.base::TaskRunner"*, %"class.base::TaskRunner"** %8, align 8
  %10 = bitcast %"class.base::Location"* %5 to i8*
  call void @llvm.lifetime.start.p0i8(i64 32, i8* nonnull %10) #6
  call void @_ZN4base8Location7CurrentEPKcS2_i(%"class.base::Location"* nonnull sret %5, i8* getelementptr inbounds ([23 x i8], [23 x i8]* @.str.6, i64 0, i64 0), i8* getelementptr inbounds ([40 x i8], [40 x i8]* @.str.1, i64 0, i64 0), i32 26) #6
  %11 = call i8* @_Znwm(i64 48) #7, !noalias !20
  %12 = bitcast i8* %11 to %"class.base::internal::BindStateBase"*
  call void @_ZN4base8internal13BindStateBaseC2EPFvvEPFvPKS1_EPFbS5_NS1_21CancellationQueryModeEE(%"class.base::internal::BindStateBase"* nonnull %12, void ()* bitcast (void (%"class.base::internal::BindStateBase"*)* @_ZN4base8internal7InvokerINS0_9BindStateINS_12OnceCallbackIFvPN3net15NSSCertDatabaseEEEEJS6_EEEFvvEE7RunOnceEPNS0_13BindStateBaseE to void ()*), void (%"class.base::internal::BindStateBase"*)* nonnull @_ZN4base8internal9BindStateINS_12OnceCallbackIFvPN3net15NSSCertDatabaseEEEEJS5_EE7DestroyEPKNS0_13BindStateBaseE, i1 (%"class.base::internal::BindStateBase"*, i32)* nonnull @_ZN4base8internal23QueryCancellationTraitsINS0_9BindStateINS_12OnceCallbackIFvPN3net15NSSCertDatabaseEEEEJS6_EEEEEbPKNS0_13BindStateBaseENSA_21CancellationQueryModeE) #6, !noalias !20
  %13 = getelementptr inbounds i8, i8* %11, i64 32
  %14 = getelementptr inbounds %"class.base::OnceCallback", %"class.base::OnceCallback"* %1, i64 0, i32 0, i32 0, i32 0
  %15 = bitcast %"class.base::OnceCallback"* %1 to i64*
  %16 = load i64, i64* %15, align 8, !noalias !20
  %17 = bitcast i8* %13 to i64*
  store i64 %16, i64* %17, align 8, !noalias !20
  store %"class.base::internal::BindStateBase"* null, %"class.base::internal::BindStateBase"** %14, align 8, !noalias !20
  %18 = getelementptr inbounds i8, i8* %11, i64 40
  %19 = bitcast i8* %18 to i64*
  store i64 %7, i64* %19, align 8, !noalias !20
  %20 = icmp eq i64 %16, 0
  br i1 %20, label %21, label %24

21:                                               ; preds = %3
  %22 = bitcast %"class.logging::CheckError"* %4 to i8*
  call void @llvm.lifetime.start.p0i8(i64 8, i8* nonnull %22) #6, !noalias !20
  call void @_ZN7logging10CheckError5CheckEPKciS2_(%"class.logging::CheckError"* nonnull sret %4, i8* getelementptr inbounds ([27 x i8], [27 x i8]* @.str.7, i64 0, i64 0), i32 896, i8* getelementptr inbounds ([18 x i8], [18 x i8]* @.str.8, i64 0, i64 0)) #6, !noalias !20
  %23 = call dereferenceable(160) %"class.std::__1::basic_ostream"* @_ZN7logging10CheckError6streamEv(%"class.logging::CheckError"* nonnull %4) #6, !noalias !20
  call void @_ZN7logging10CheckErrorD1Ev(%"class.logging::CheckError"* nonnull %4) #6, !noalias !20
  call void @llvm.lifetime.end.p0i8(i64 8, i8* nonnull %22) #6, !noalias !20
  br label %24

24:                                               ; preds = %3, %21
  %25 = bitcast %"class.base::OnceCallback.34"* %6 to i8**
  store i8* %11, i8** %25, align 8, !alias.scope !20
  %26 = call zeroext i1 @_ZN4base10TaskRunner8PostTaskERKNS_8LocationENS_12OnceCallbackIFvvEEE(%"class.base::TaskRunner"* %9, %"class.base::Location"* nonnull dereferenceable(32) %5, %"class.base::OnceCallback.34"* nonnull %6) #6
  %27 = getelementptr inbounds %"class.base::OnceCallback.34", %"class.base::OnceCallback.34"* %6, i64 0, i32 0
  call void @_ZN4base8internal12CallbackBaseD2Ev(%"class.base::internal::CallbackBase"* nonnull %27) #6
  call void @llvm.lifetime.end.p0i8(i64 32, i8* nonnull %10) #6
  ret void
}

; Function Attrs: argmemonly nounwind
declare void @llvm.memset.p0i8.i64(i8* nocapture writeonly, i8, i64, i1 immarg) #1

; Function Attrs: nounwind ssp uwtable
define linkonce_odr hidden void @_ZN4base8internal18OnceCallbackHolderIJPN3net15NSSCertDatabaseEEE3RunES4_(%"class.base::internal::OnceCallbackHolder"*, %"class.net::NSSCertDatabase"*) #0 comdat align 2 {
  %3 = alloca %"class.base::OnceCallback", align 8
  %4 = alloca %"class.logging::CheckError", align 8
  %5 = getelementptr inbounds %"class.base::internal::OnceCallbackHolder", %"class.base::internal::OnceCallbackHolder"* %0, i64 0, i32 0
  %6 = atomicrmw volatile xchg i32* %5, i32 1 monotonic
  %7 = icmp eq i32 %6, 0
  br i1 %7, label %16, label %8

8:                                                ; preds = %2
  %9 = getelementptr inbounds %"class.base::internal::OnceCallbackHolder", %"class.base::internal::OnceCallbackHolder"* %0, i64 0, i32 3
  %10 = load i8, i8* %9, align 8, !range !25
  %11 = icmp eq i8 %10, 0
  br i1 %11, label %12, label %30

12:                                               ; preds = %8
  %13 = bitcast %"class.logging::CheckError"* %4 to i8*
  call void @llvm.lifetime.start.p0i8(i64 8, i8* nonnull %13) #6
  call void @_ZN7logging10CheckError5CheckEPKciS2_(%"class.logging::CheckError"* nonnull sret %4, i8* getelementptr inbounds ([30 x i8], [30 x i8]* @.str.2, i64 0, i64 0), i32 80, i8* getelementptr inbounds ([19 x i8], [19 x i8]* @.str.3, i64 0, i64 0)) #6
  %14 = call dereferenceable(160) %"class.std::__1::basic_ostream"* @_ZN7logging10CheckError6streamEv(%"class.logging::CheckError"* nonnull %4) #6
  %15 = call dereferenceable(160) %"class.std::__1::basic_ostream"* @_ZNSt3__124__put_character_sequenceIcNS_11char_traitsIcEEEERNS_13basic_ostreamIT_T0_EES7_PKS4_m(%"class.std::__1::basic_ostream"* dereferenceable(160) %14, i8* getelementptr inbounds ([106 x i8], [106 x i8]* @.str.4, i64 0, i64 0), i64 105) #6
  call void @_ZN7logging10CheckErrorD1Ev(%"class.logging::CheckError"* nonnull %4) #6
  br label %28

16:                                               ; preds = %2
  %17 = getelementptr inbounds %"class.base::internal::OnceCallbackHolder", %"class.base::internal::OnceCallbackHolder"* %0, i64 0, i32 2
  %18 = bitcast %"class.base::OnceCallback"* %3 to i8*
  call void @llvm.lifetime.start.p0i8(i64 8, i8* nonnull %18) #6
  %19 = getelementptr inbounds %"class.base::OnceCallback", %"class.base::OnceCallback"* %17, i64 0, i32 0, i32 0, i32 0
  %20 = bitcast %"class.base::OnceCallback"* %17 to i64*
  %21 = load i64, i64* %20, align 8
  %22 = bitcast %"class.base::OnceCallback"* %3 to i64*
  store i64 %21, i64* %22, align 8
  store %"class.base::internal::BindStateBase"* null, %"class.base::internal::BindStateBase"** %19, align 8
  %23 = getelementptr inbounds %"class.base::OnceCallback", %"class.base::OnceCallback"* %3, i64 0, i32 0
  %24 = inttoptr i64 %21 to %"class.base::internal::BindStateBase"*
  %25 = getelementptr inbounds %"class.base::internal::BindStateBase", %"class.base::internal::BindStateBase"* %24, i64 0, i32 1
  %26 = bitcast void ()** %25 to void (%"class.base::internal::BindStateBase"*, %"class.net::NSSCertDatabase"*)**
  %27 = load void (%"class.base::internal::BindStateBase"*, %"class.net::NSSCertDatabase"*)*, void (%"class.base::internal::BindStateBase"*, %"class.net::NSSCertDatabase"*)** %26, align 8
  tail call void %27(%"class.base::internal::BindStateBase"* %24, %"class.net::NSSCertDatabase"* %1) #6
  call void @_ZN4base8internal12CallbackBaseD2Ev(%"class.base::internal::CallbackBase"* nonnull %23) #6
  br label %28

28:                                               ; preds = %16, %12
  %29 = phi i8* [ %13, %12 ], [ %18, %16 ]
  call void @llvm.lifetime.end.p0i8(i64 8, i8* nonnull %29) #6
  br label %30

30:                                               ; preds = %28, %8
  ret void
}

; Function Attrs: nounwind
declare void @_ZN4base8internal12CallbackBaseD2Ev(%"class.base::internal::CallbackBase"*) unnamed_addr #3

; Function Attrs: nounwind ssp uwtable
define linkonce_odr hidden void @_ZN4base8internal7InvokerINS0_9BindStateIMNS0_18OnceCallbackHolderIJPN3net15NSSCertDatabaseEEEEFvS6_EJNSt3__110unique_ptrIS7_NSA_14default_deleteIS7_EEEEEEEFvS6_EE3RunEPNS0_13BindStateBaseES6_(%"class.base::internal::BindStateBase"*, %"class.net::NSSCertDatabase"*) #0 comdat align 2 {
  %3 = getelementptr inbounds %"class.base::internal::BindStateBase", %"class.base::internal::BindStateBase"* %0, i64 1
  %4 = getelementptr inbounds %"class.base::internal::BindStateBase", %"class.base::internal::BindStateBase"* %0, i64 1, i32 2
  %5 = bitcast %"class.base::internal::BindStateBase"* %3 to i64*
  %6 = load i64, i64* %5, align 8
  %7 = getelementptr inbounds %"class.base::internal::BindStateBase", %"class.base::internal::BindStateBase"* %0, i64 1, i32 1
  %8 = bitcast void ()** %7 to i64*
  %9 = load i64, i64* %8, align 8
  %10 = bitcast void (%"class.base::internal::BindStateBase"*)** %4 to i8**
  %11 = load i8*, i8** %10, align 8
  %12 = getelementptr inbounds i8, i8* %11, i64 %9
  %13 = bitcast i8* %12 to %"class.base::internal::OnceCallbackHolder"*
  %14 = and i64 %6, 1
  %15 = icmp eq i64 %14, 0
  br i1 %15, label %23, label %16

16:                                               ; preds = %2
  %17 = bitcast i8* %12 to i8**
  %18 = load i8*, i8** %17, align 8
  %19 = add i64 %6, -1
  %20 = getelementptr i8, i8* %18, i64 %19
  %21 = bitcast i8* %20 to void (%"class.base::internal::OnceCallbackHolder"*, %"class.net::NSSCertDatabase"*)**
  %22 = load void (%"class.base::internal::OnceCallbackHolder"*, %"class.net::NSSCertDatabase"*)*, void (%"class.base::internal::OnceCallbackHolder"*, %"class.net::NSSCertDatabase"*)** %21, align 8
  br label %25

23:                                               ; preds = %2
  %24 = inttoptr i64 %6 to void (%"class.base::internal::OnceCallbackHolder"*, %"class.net::NSSCertDatabase"*)*
  br label %25

25:                                               ; preds = %16, %23
  %26 = phi void (%"class.base::internal::OnceCallbackHolder"*, %"class.net::NSSCertDatabase"*)* [ %22, %16 ], [ %24, %23 ]
  tail call void %26(%"class.base::internal::OnceCallbackHolder"* %13, %"class.net::NSSCertDatabase"* %1) #6
  ret void
}

; Function Attrs: nobuiltin nofree
declare noalias nonnull i8* @_Znwm(i64) local_unnamed_addr #4

; Function Attrs: nounwind ssp uwtable
define linkonce_odr hidden void @_ZN4base8internal9BindStateIMNS0_18OnceCallbackHolderIJPN3net15NSSCertDatabaseEEEEFvS5_EJNSt3__110unique_ptrIS6_NS9_14default_deleteIS6_EEEEEE7DestroyEPKNS0_13BindStateBaseE(%"class.base::internal::BindStateBase"*) #0 comdat align 2 {
  %2 = icmp eq %"class.base::internal::BindStateBase"* %0, null
  br i1 %2, label %13, label %3

3:                                                ; preds = %1
  %4 = getelementptr inbounds %"class.base::internal::BindStateBase", %"class.base::internal::BindStateBase"* %0, i64 1, i32 2
  %5 = bitcast void (%"class.base::internal::BindStateBase"*)** %4 to %"class.base::internal::OnceCallbackHolder"**
  %6 = load %"class.base::internal::OnceCallbackHolder"*, %"class.base::internal::OnceCallbackHolder"** %5, align 8
  store %"class.base::internal::OnceCallbackHolder"* null, %"class.base::internal::OnceCallbackHolder"** %5, align 8
  %7 = icmp eq %"class.base::internal::OnceCallbackHolder"* %6, null
  br i1 %7, label %11, label %8

8:                                                ; preds = %3
  %9 = getelementptr inbounds %"class.base::internal::OnceCallbackHolder", %"class.base::internal::OnceCallbackHolder"* %6, i64 0, i32 2, i32 0
  tail call void @_ZN4base8internal12CallbackBaseD2Ev(%"class.base::internal::CallbackBase"* %9) #6
  %10 = bitcast %"class.base::internal::OnceCallbackHolder"* %6 to i8*
  tail call void @_ZdlPv(i8* %10) #7
  br label %11

11:                                               ; preds = %3, %8
  %12 = bitcast %"class.base::internal::BindStateBase"* %0 to i8*
  tail call void @_ZdlPv(i8* %12) #7
  br label %13

13:                                               ; preds = %11, %1
  ret void
}

declare void @_ZN4base8internal13BindStateBaseC2EPFvvEPFvPKS1_E(%"class.base::internal::BindStateBase"*, void ()*, void (%"class.base::internal::BindStateBase"*)*) unnamed_addr #2

; Function Attrs: nobuiltin nounwind
declare void @_ZdlPv(i8*) local_unnamed_addr #5

declare void @_ZN7logging10CheckError5CheckEPKciS2_(%"class.logging::CheckError"* sret, i8*, i32, i8*) local_unnamed_addr #2

declare dereferenceable(160) %"class.std::__1::basic_ostream"* @_ZN7logging10CheckError6streamEv(%"class.logging::CheckError"*) local_unnamed_addr #2

; Function Attrs: nounwind
declare void @_ZN7logging10CheckErrorD1Ev(%"class.logging::CheckError"*) unnamed_addr #3

; Function Attrs: nounwind ssp uwtable
define linkonce_odr hidden dereferenceable(160) %"class.std::__1::basic_ostream"* @_ZNSt3__124__put_character_sequenceIcNS_11char_traitsIcEEEERNS_13basic_ostreamIT_T0_EES7_PKS4_m(%"class.std::__1::basic_ostream"* dereferenceable(160), i8*, i64) local_unnamed_addr #0 comdat {
  %4 = alloca %"class.std::__1::locale", align 8
  %5 = alloca %"class.std::__1::basic_ostream<char, std::__1::char_traits<char> >::sentry", align 8
  %6 = getelementptr inbounds %"class.std::__1::basic_ostream<char, std::__1::char_traits<char> >::sentry", %"class.std::__1::basic_ostream<char, std::__1::char_traits<char> >::sentry"* %5, i64 0, i32 0
  call void @llvm.lifetime.start.p0i8(i64 16, i8* nonnull %6) #6
  call void @llvm.memset.p0i8.i64(i8* nonnull align 8 %6, i8 -86, i64 16, i1 false)
  call void @_ZNSt3__113basic_ostreamIcNS_11char_traitsIcEEE6sentryC1ERS3_(%"class.std::__1::basic_ostream<char, std::__1::char_traits<char> >::sentry"* nonnull %5, %"class.std::__1::basic_ostream"* dereferenceable(160) %0) #6
  %7 = load i8, i8* %6, align 8, !range !25
  %8 = icmp eq i8 %7, 0
  br i1 %8, label %58, label %9

9:                                                ; preds = %3
  %10 = bitcast %"class.std::__1::basic_ostream"* %0 to i8**
  %11 = load i8*, i8** %10, align 8
  %12 = getelementptr i8, i8* %11, i64 -24
  %13 = bitcast i8* %12 to i64*
  %14 = load i64, i64* %13, align 8
  %15 = bitcast %"class.std::__1::basic_ostream"* %0 to i8*
  %16 = getelementptr inbounds i8, i8* %15, i64 %14
  %17 = getelementptr inbounds i8, i8* %16, i64 40
  %18 = bitcast i8* %17 to %"class.std::__1::basic_streambuf"**
  %19 = load %"class.std::__1::basic_streambuf"*, %"class.std::__1::basic_streambuf"** %18, align 8
  %20 = bitcast i8* %16 to %"class.std::__1::ios_base"*
  %21 = getelementptr inbounds i8, i8* %16, i64 8
  %22 = bitcast i8* %21 to i32*
  %23 = load i32, i32* %22, align 8
  %24 = and i32 %23, 176
  %25 = icmp eq i32 %24, 32
  %26 = getelementptr inbounds i8, i8* %1, i64 %2
  %27 = select i1 %25, i8* %26, i8* %1
  %28 = getelementptr inbounds i8, i8* %16, i64 144
  %29 = bitcast i8* %28 to i32*
  %30 = load i32, i32* %29, align 8
  %31 = icmp eq i32 %30, -1
  br i1 %31, label %32, label %42

32:                                               ; preds = %9
  %33 = bitcast %"class.std::__1::locale"* %4 to i8*
  call void @llvm.lifetime.start.p0i8(i64 8, i8* nonnull %33) #6
  call void @_ZNKSt3__18ios_base6getlocEv(%"class.std::__1::locale"* nonnull sret %4, %"class.std::__1::ios_base"* %20) #6
  %34 = call %"class.std::__1::locale::facet"* @_ZNKSt3__16locale9use_facetERNS0_2idE(%"class.std::__1::locale"* nonnull %4, %"class.std::__1::locale::id"* nonnull dereferenceable(16) @_ZNSt3__15ctypeIcE2idE) #6
  %35 = bitcast %"class.std::__1::locale::facet"* %34 to %"class.std::__1::ctype"*
  %36 = bitcast %"class.std::__1::locale::facet"* %34 to i8 (%"class.std::__1::ctype"*, i8)***
  %37 = load i8 (%"class.std::__1::ctype"*, i8)**, i8 (%"class.std::__1::ctype"*, i8)*** %36, align 8
  %38 = getelementptr inbounds i8 (%"class.std::__1::ctype"*, i8)*, i8 (%"class.std::__1::ctype"*, i8)** %37, i64 7
  %39 = load i8 (%"class.std::__1::ctype"*, i8)*, i8 (%"class.std::__1::ctype"*, i8)** %38, align 8
  %40 = call signext i8 %39(%"class.std::__1::ctype"* %35, i8 signext 32) #6
  call void @_ZNSt3__16localeD1Ev(%"class.std::__1::locale"* nonnull %4) #6
  call void @llvm.lifetime.end.p0i8(i64 8, i8* nonnull %33) #6
  %41 = sext i8 %40 to i32
  store i32 %41, i32* %29, align 8
  br label %42

42:                                               ; preds = %9, %32
  %43 = phi i32 [ %41, %32 ], [ %30, %9 ]
  %44 = trunc i32 %43 to i8
  %45 = call %"class.std::__1::basic_streambuf"* @_ZNSt3__116__pad_and_outputIcNS_11char_traitsIcEEEENS_19ostreambuf_iteratorIT_T0_EES6_PKS4_S8_S8_RNS_8ios_baseES4_(%"class.std::__1::basic_streambuf"* %19, i8* %1, i8* %27, i8* %26, %"class.std::__1::ios_base"* dereferenceable(136) %20, i8 signext %44)
  %46 = icmp eq %"class.std::__1::basic_streambuf"* %45, null
  br i1 %46, label %47, label %58

47:                                               ; preds = %42
  %48 = load i8*, i8** %10, align 8
  %49 = getelementptr i8, i8* %48, i64 -24
  %50 = bitcast i8* %49 to i64*
  %51 = load i64, i64* %50, align 8
  %52 = getelementptr inbounds i8, i8* %15, i64 %51
  %53 = bitcast i8* %52 to %"class.std::__1::ios_base"*
  %54 = getelementptr inbounds i8, i8* %52, i64 32
  %55 = bitcast i8* %54 to i32*
  %56 = load i32, i32* %55, align 8
  %57 = or i32 %56, 5
  call void @_ZNSt3__18ios_base5clearEj(%"class.std::__1::ios_base"* %53, i32 %57) #6
  br label %58

58:                                               ; preds = %3, %42, %47
  call void @_ZNSt3__113basic_ostreamIcNS_11char_traitsIcEEE6sentryD1Ev(%"class.std::__1::basic_ostream<char, std::__1::char_traits<char> >::sentry"* nonnull %5) #6
  call void @llvm.lifetime.end.p0i8(i64 16, i8* nonnull %6) #6
  ret %"class.std::__1::basic_ostream"* %0
}

declare void @_ZNSt3__113basic_ostreamIcNS_11char_traitsIcEEE6sentryC1ERS3_(%"class.std::__1::basic_ostream<char, std::__1::char_traits<char> >::sentry"*, %"class.std::__1::basic_ostream"* dereferenceable(160)) unnamed_addr #2

; Function Attrs: nounwind ssp uwtable
define linkonce_odr hidden %"class.std::__1::basic_streambuf"* @_ZNSt3__116__pad_and_outputIcNS_11char_traitsIcEEEENS_19ostreambuf_iteratorIT_T0_EES6_PKS4_S8_S8_RNS_8ios_baseES4_(%"class.std::__1::basic_streambuf"*, i8*, i8*, i8*, %"class.std::__1::ios_base"* dereferenceable(136), i8 signext) local_unnamed_addr #0 comdat {
  %7 = alloca %"class.std::__1::basic_string", align 8
  %8 = icmp eq %"class.std::__1::basic_streambuf"* %0, null
  br i1 %8, label %78, label %9

9:                                                ; preds = %6
  %10 = ptrtoint i8* %3 to i64
  %11 = ptrtoint i8* %1 to i64
  %12 = sub i64 %10, %11
  %13 = getelementptr inbounds %"class.std::__1::ios_base", %"class.std::__1::ios_base"* %4, i64 0, i32 3
  %14 = load i64, i64* %13, align 8
  %15 = icmp sgt i64 %14, %12
  %16 = sub nsw i64 %14, %12
  %17 = select i1 %15, i64 %16, i64 0
  %18 = ptrtoint i8* %2 to i64
  %19 = sub i64 %18, %11
  %20 = icmp sgt i64 %19, 0
  br i1 %20, label %21, label %28

21:                                               ; preds = %9
  %22 = bitcast %"class.std::__1::basic_streambuf"* %0 to i64 (%"class.std::__1::basic_streambuf"*, i8*, i64)***
  %23 = load i64 (%"class.std::__1::basic_streambuf"*, i8*, i64)**, i64 (%"class.std::__1::basic_streambuf"*, i8*, i64)*** %22, align 8
  %24 = getelementptr inbounds i64 (%"class.std::__1::basic_streambuf"*, i8*, i64)*, i64 (%"class.std::__1::basic_streambuf"*, i8*, i64)** %23, i64 12
  %25 = load i64 (%"class.std::__1::basic_streambuf"*, i8*, i64)*, i64 (%"class.std::__1::basic_streambuf"*, i8*, i64)** %24, align 8
  %26 = tail call i64 %25(%"class.std::__1::basic_streambuf"* nonnull %0, i8* %1, i64 %19) #6
  %27 = icmp eq i64 %26, %19
  br i1 %27, label %28, label %78

28:                                               ; preds = %21, %9
  %29 = icmp sgt i64 %17, 0
  br i1 %29, label %30, label %67

30:                                               ; preds = %28
  %31 = bitcast %"class.std::__1::basic_string"* %7 to i8*
  call void @llvm.lifetime.start.p0i8(i64 24, i8* nonnull %31) #6
  %32 = getelementptr inbounds %"class.std::__1::basic_string", %"class.std::__1::basic_string"* %7, i64 0, i32 0, i32 0, i32 0, i32 0, i32 0, i32 0
  %33 = icmp ult i64 %17, 23
  %34 = bitcast %"class.std::__1::basic_string"* %7 to i8*
  call void @llvm.memset.p0i8.i64(i8* nonnull align 8 %34, i8 -86, i64 24, i1 false)
  br i1 %33, label %43, label %35

35:                                               ; preds = %30
  %36 = getelementptr inbounds %"class.std::__1::basic_string", %"class.std::__1::basic_string"* %7, i64 0, i32 0, i32 0, i32 0, i32 0, i32 0, i32 2
  %37 = getelementptr inbounds %"class.std::__1::basic_string", %"class.std::__1::basic_string"* %7, i64 0, i32 0, i32 0, i32 0, i32 0, i32 0, i32 1
  %38 = add nuw i64 %17, 16
  %39 = and i64 %38, -16
  %40 = tail call i8* @_Znwm(i64 %39) #7
  store i8* %40, i8** %32, align 8
  %41 = or i64 %39, -9223372036854775808
  store i64 %41, i64* %36, align 8
  store i64 %17, i64* %37, align 8
  %42 = bitcast %"class.std::__1::basic_string"* %7 to %"struct.std::__1::basic_string<char, std::__1::char_traits<char>, std::__1::allocator<char> >::__short"*
  br label %47

43:                                               ; preds = %30
  %44 = trunc i64 %17 to i8
  %45 = bitcast %"class.std::__1::basic_string"* %7 to %"struct.std::__1::basic_string<char, std::__1::char_traits<char>, std::__1::allocator<char> >::__short"*
  %46 = getelementptr inbounds %"struct.std::__1::basic_string<char, std::__1::char_traits<char>, std::__1::allocator<char> >::__short", %"struct.std::__1::basic_string<char, std::__1::char_traits<char>, std::__1::allocator<char> >::__short"* %45, i64 0, i32 1, i32 0
  store i8 %44, i8* %46, align 1
  br label %47

47:                                               ; preds = %35, %43
  %48 = phi %"struct.std::__1::basic_string<char, std::__1::char_traits<char>, std::__1::allocator<char> >::__short"* [ %42, %35 ], [ %45, %43 ]
  %49 = phi i8* [ %40, %35 ], [ %31, %43 ]
  call void @llvm.memset.p0i8.i64(i8* nonnull align 1 %49, i8 %5, i64 %17, i1 false) #6
  %50 = getelementptr inbounds i8, i8* %49, i64 %17
  store i8 0, i8* %50, align 1
  %51 = getelementptr inbounds %"struct.std::__1::basic_string<char, std::__1::char_traits<char>, std::__1::allocator<char> >::__short", %"struct.std::__1::basic_string<char, std::__1::char_traits<char>, std::__1::allocator<char> >::__short"* %48, i64 0, i32 1, i32 0
  %52 = load i8, i8* %51, align 1
  %53 = icmp slt i8 %52, 0
  %54 = load i8*, i8** %32, align 8
  %55 = select i1 %53, i8* %54, i8* %31
  %56 = bitcast %"class.std::__1::basic_streambuf"* %0 to i64 (%"class.std::__1::basic_streambuf"*, i8*, i64)***
  %57 = load i64 (%"class.std::__1::basic_streambuf"*, i8*, i64)**, i64 (%"class.std::__1::basic_streambuf"*, i8*, i64)*** %56, align 8
  %58 = getelementptr inbounds i64 (%"class.std::__1::basic_streambuf"*, i8*, i64)*, i64 (%"class.std::__1::basic_streambuf"*, i8*, i64)** %57, i64 12
  %59 = load i64 (%"class.std::__1::basic_streambuf"*, i8*, i64)*, i64 (%"class.std::__1::basic_streambuf"*, i8*, i64)** %58, align 8
  %60 = call i64 %59(%"class.std::__1::basic_streambuf"* nonnull %0, i8* %55, i64 %17) #6
  %61 = icmp eq i64 %60, %17
  %62 = load i8, i8* %51, align 1
  %63 = icmp slt i8 %62, 0
  br i1 %63, label %64, label %66

64:                                               ; preds = %47
  %65 = load i8*, i8** %32, align 8
  call void @_ZdlPv(i8* %65) #7
  br label %66

66:                                               ; preds = %47, %64
  call void @llvm.lifetime.end.p0i8(i64 24, i8* nonnull %31) #6
  br i1 %61, label %67, label %78

67:                                               ; preds = %66, %28
  %68 = sub i64 %10, %18
  %69 = icmp sgt i64 %68, 0
  br i1 %69, label %70, label %77

70:                                               ; preds = %67
  %71 = bitcast %"class.std::__1::basic_streambuf"* %0 to i64 (%"class.std::__1::basic_streambuf"*, i8*, i64)***
  %72 = load i64 (%"class.std::__1::basic_streambuf"*, i8*, i64)**, i64 (%"class.std::__1::basic_streambuf"*, i8*, i64)*** %71, align 8
  %73 = getelementptr inbounds i64 (%"class.std::__1::basic_streambuf"*, i8*, i64)*, i64 (%"class.std::__1::basic_streambuf"*, i8*, i64)** %72, i64 12
  %74 = load i64 (%"class.std::__1::basic_streambuf"*, i8*, i64)*, i64 (%"class.std::__1::basic_streambuf"*, i8*, i64)** %73, align 8
  %75 = call i64 %74(%"class.std::__1::basic_streambuf"* nonnull %0, i8* %2, i64 %68) #6
  %76 = icmp eq i64 %75, %68
  br i1 %76, label %77, label %78

77:                                               ; preds = %70, %67
  store i64 0, i64* %13, align 8
  br label %78

78:                                               ; preds = %77, %66, %21, %70, %6
  %79 = phi %"class.std::__1::basic_streambuf"* [ null, %6 ], [ %0, %77 ], [ null, %66 ], [ null, %21 ], [ null, %70 ]
  ret %"class.std::__1::basic_streambuf"* %79
}

; Function Attrs: nounwind
declare void @_ZNSt3__113basic_ostreamIcNS_11char_traitsIcEEE6sentryD1Ev(%"class.std::__1::basic_ostream<char, std::__1::char_traits<char> >::sentry"*) unnamed_addr #3

declare void @_ZNKSt3__18ios_base6getlocEv(%"class.std::__1::locale"* sret, %"class.std::__1::ios_base"*) local_unnamed_addr #2

; Function Attrs: nounwind
declare void @_ZNSt3__16localeD1Ev(%"class.std::__1::locale"*) unnamed_addr #3

declare %"class.std::__1::locale::facet"* @_ZNKSt3__16locale9use_facetERNS0_2idE(%"class.std::__1::locale"*, %"class.std::__1::locale::id"* dereferenceable(16)) local_unnamed_addr #2

declare void @_ZNSt3__18ios_base5clearEj(%"class.std::__1::ios_base"*, i32) local_unnamed_addr #2

declare void @_ZN4base8internal20CallbackBaseCopyableC2ERKS1_(%"class.base::internal::CallbackBaseCopyable"*, %"class.base::internal::CallbackBaseCopyable"* dereferenceable(8)) unnamed_addr #2

; Function Attrs: nounwind
declare void @_ZN4base8internal12CallbackBaseC2EONS0_20CallbackBaseCopyableE(%"class.base::internal::CallbackBase"*, %"class.base::internal::CallbackBaseCopyable"* dereferenceable(8)) unnamed_addr #3

; Function Attrs: nounwind ssp uwtable
define linkonce_odr hidden void @_ZN4base8internal7InvokerINS0_9BindStateIPFvRK13scoped_refptrINS_19SequencedTaskRunnerEENS_12OnceCallbackIFvPN3net15NSSCertDatabaseEEEESB_EJS5_SD_EEESC_E7RunOnceEPNS0_13BindStateBaseESB_(%"class.base::internal::BindStateBase"*, %"class.net::NSSCertDatabase"*) #0 comdat align 2 {
  %3 = alloca %"class.base::OnceCallback", align 8
  %4 = getelementptr inbounds %"class.base::internal::BindStateBase", %"class.base::internal::BindStateBase"* %0, i64 1
  %5 = bitcast %"class.base::internal::BindStateBase"* %4 to void (%class.scoped_refptr.35*, %"class.base::OnceCallback"*, %"class.net::NSSCertDatabase"*)**
  %6 = getelementptr inbounds %"class.base::internal::BindStateBase", %"class.base::internal::BindStateBase"* %0, i64 1, i32 1
  %7 = bitcast void ()** %6 to %class.scoped_refptr.35*
  %8 = getelementptr inbounds void ()*, void ()** %6, i64 1
  %9 = bitcast %"class.base::OnceCallback"* %3 to i8*
  call void @llvm.lifetime.start.p0i8(i64 8, i8* nonnull %9) #6
  %10 = load void (%class.scoped_refptr.35*, %"class.base::OnceCallback"*, %"class.net::NSSCertDatabase"*)*, void (%class.scoped_refptr.35*, %"class.base::OnceCallback"*, %"class.net::NSSCertDatabase"*)** %5, align 8
  %11 = bitcast void ()** %8 to %"class.base::internal::BindStateBase"**
  %12 = bitcast void ()** %8 to i64*
  %13 = load i64, i64* %12, align 8
  %14 = bitcast %"class.base::OnceCallback"* %3 to i64*
  store i64 %13, i64* %14, align 8
  store %"class.base::internal::BindStateBase"* null, %"class.base::internal::BindStateBase"** %11, align 8
  call void %10(%class.scoped_refptr.35* dereferenceable(8) %7, %"class.base::OnceCallback"* nonnull %3, %"class.net::NSSCertDatabase"* %1) #6
  %15 = getelementptr inbounds %"class.base::OnceCallback", %"class.base::OnceCallback"* %3, i64 0, i32 0
  call void @_ZN4base8internal12CallbackBaseD2Ev(%"class.base::internal::CallbackBase"* nonnull %15) #6
  call void @llvm.lifetime.end.p0i8(i64 8, i8* nonnull %9) #6
  ret void
}

; Function Attrs: nounwind ssp uwtable
define linkonce_odr hidden void @_ZN4base8internal9BindStateIPFvRK13scoped_refptrINS_19SequencedTaskRunnerEENS_12OnceCallbackIFvPN3net15NSSCertDatabaseEEEESA_EJS4_SC_EE7DestroyEPKNS0_13BindStateBaseE(%"class.base::internal::BindStateBase"*) #0 comdat align 2 {
  %2 = icmp eq %"class.base::internal::BindStateBase"* %0, null
  br i1 %2, label %20, label %3

3:                                                ; preds = %1
  %4 = getelementptr inbounds %"class.base::internal::BindStateBase", %"class.base::internal::BindStateBase"* %0, i64 1, i32 2
  %5 = bitcast void (%"class.base::internal::BindStateBase"*)** %4 to %"class.base::internal::CallbackBase"*
  tail call void @_ZN4base8internal12CallbackBaseD2Ev(%"class.base::internal::CallbackBase"* %5) #6
  %6 = getelementptr inbounds %"class.base::internal::BindStateBase", %"class.base::internal::BindStateBase"* %0, i64 1, i32 1
  %7 = bitcast void ()** %6 to %"class.base::SequencedTaskRunner"**
  %8 = load %"class.base::SequencedTaskRunner"*, %"class.base::SequencedTaskRunner"** %7, align 8
  %9 = icmp eq %"class.base::SequencedTaskRunner"* %8, null
  br i1 %9, label %18, label %10

10:                                               ; preds = %3
  %11 = getelementptr inbounds %"class.base::SequencedTaskRunner", %"class.base::SequencedTaskRunner"* %8, i64 0, i32 0, i32 1
  %12 = getelementptr inbounds %"class.base::RefCountedThreadSafe.33", %"class.base::RefCountedThreadSafe.33"* %11, i64 0, i32 0, i32 0, i32 0, i32 0, i32 0, i32 0, i32 0, i32 0
  %13 = atomicrmw sub i32* %12, i32 1 acq_rel
  %14 = icmp eq i32 %13, 1
  br i1 %14, label %15, label %18

15:                                               ; preds = %10
  %16 = getelementptr inbounds %"class.base::RefCountedThreadSafe.33", %"class.base::RefCountedThreadSafe.33"* %11, i64 -2
  %17 = bitcast %"class.base::RefCountedThreadSafe.33"* %16 to %"class.base::TaskRunner"*
  tail call void @_ZN4base16TaskRunnerTraits8DestructEPKNS_10TaskRunnerE(%"class.base::TaskRunner"* %17) #6
  br label %18

18:                                               ; preds = %3, %10, %15
  %19 = bitcast %"class.base::internal::BindStateBase"* %0 to i8*
  tail call void @_ZdlPv(i8* %19) #7
  br label %20

20:                                               ; preds = %18, %1
  ret void
}

; Function Attrs: nounwind ssp uwtable
define linkonce_odr hidden void @_ZN4base8internal7InvokerINS0_9BindStateINS_12OnceCallbackIFvPN3net15NSSCertDatabaseEEEEJS6_EEEFvvEE7RunOnceEPNS0_13BindStateBaseE(%"class.base::internal::BindStateBase"*) #0 comdat align 2 {
  %2 = alloca %"class.base::OnceCallback", align 8
  %3 = getelementptr inbounds %"class.base::internal::BindStateBase", %"class.base::internal::BindStateBase"* %0, i64 1
  %4 = getelementptr inbounds %"class.base::internal::BindStateBase", %"class.base::internal::BindStateBase"* %0, i64 1, i32 1
  %5 = bitcast void ()** %4 to %"class.net::NSSCertDatabase"**
  %6 = load %"class.net::NSSCertDatabase"*, %"class.net::NSSCertDatabase"** %5, align 8
  %7 = bitcast %"class.base::OnceCallback"* %2 to i8*
  call void @llvm.lifetime.start.p0i8(i64 8, i8* nonnull %7) #6
  %8 = bitcast %"class.base::internal::BindStateBase"* %3 to %"class.base::internal::BindStateBase"**
  %9 = bitcast %"class.base::internal::BindStateBase"* %3 to i64*
  %10 = load i64, i64* %9, align 8
  %11 = bitcast %"class.base::OnceCallback"* %2 to i64*
  store i64 %10, i64* %11, align 8
  store %"class.base::internal::BindStateBase"* null, %"class.base::internal::BindStateBase"** %8, align 8
  %12 = getelementptr inbounds %"class.base::OnceCallback", %"class.base::OnceCallback"* %2, i64 0, i32 0
  %13 = inttoptr i64 %10 to %"class.base::internal::BindStateBase"*
  %14 = getelementptr inbounds %"class.base::internal::BindStateBase", %"class.base::internal::BindStateBase"* %13, i64 0, i32 1
  %15 = bitcast void ()** %14 to void (%"class.base::internal::BindStateBase"*, %"class.net::NSSCertDatabase"*)**
  %16 = load void (%"class.base::internal::BindStateBase"*, %"class.net::NSSCertDatabase"*)*, void (%"class.base::internal::BindStateBase"*, %"class.net::NSSCertDatabase"*)** %15, align 8
  tail call void %16(%"class.base::internal::BindStateBase"* %13, %"class.net::NSSCertDatabase"* %6) #6
  call void @_ZN4base8internal12CallbackBaseD2Ev(%"class.base::internal::CallbackBase"* nonnull %12) #6
  call void @llvm.lifetime.end.p0i8(i64 8, i8* nonnull %7) #6
  ret void
}

; Function Attrs: nounwind ssp uwtable
define linkonce_odr hidden void @_ZN4base8internal9BindStateINS_12OnceCallbackIFvPN3net15NSSCertDatabaseEEEEJS5_EE7DestroyEPKNS0_13BindStateBaseE(%"class.base::internal::BindStateBase"*) #0 comdat align 2 {
  %2 = icmp eq %"class.base::internal::BindStateBase"* %0, null
  br i1 %2, label %7, label %3

3:                                                ; preds = %1
  %4 = getelementptr inbounds %"class.base::internal::BindStateBase", %"class.base::internal::BindStateBase"* %0, i64 1
  %5 = bitcast %"class.base::internal::BindStateBase"* %4 to %"class.base::internal::CallbackBase"*
  tail call void @_ZN4base8internal12CallbackBaseD2Ev(%"class.base::internal::CallbackBase"* %5) #6
  %6 = bitcast %"class.base::internal::BindStateBase"* %0 to i8*
  tail call void @_ZdlPv(i8* %6) #7
  br label %7

7:                                                ; preds = %3, %1
  ret void
}

; Function Attrs: nounwind ssp uwtable
define linkonce_odr hidden zeroext i1 @_ZN4base8internal23QueryCancellationTraitsINS0_9BindStateINS_12OnceCallbackIFvPN3net15NSSCertDatabaseEEEEJS6_EEEEEbPKNS0_13BindStateBaseENSA_21CancellationQueryModeE(%"class.base::internal::BindStateBase"*, i32) #0 comdat {
  %3 = getelementptr inbounds %"class.base::internal::BindStateBase", %"class.base::internal::BindStateBase"* %0, i64 1
  switch i32 %1, label %10 [
    i32 0, label %4
    i32 1, label %7
  ]

4:                                                ; preds = %2
  %5 = bitcast %"class.base::internal::BindStateBase"* %3 to %"class.base::internal::CallbackBase"*
  %6 = tail call zeroext i1 @_ZNK4base8internal12CallbackBase11IsCancelledEv(%"class.base::internal::CallbackBase"* %5) #6
  br label %10

7:                                                ; preds = %2
  %8 = bitcast %"class.base::internal::BindStateBase"* %3 to %"class.base::internal::CallbackBase"*
  %9 = tail call zeroext i1 @_ZNK4base8internal12CallbackBase10MaybeValidEv(%"class.base::internal::CallbackBase"* %8) #6
  br label %10

10:                                               ; preds = %2, %4, %7
  %11 = phi i1 [ %9, %7 ], [ %6, %4 ], [ false, %2 ]
  ret i1 %11
}

declare void @_ZN4base8internal13BindStateBaseC2EPFvvEPFvPKS1_EPFbS5_NS1_21CancellationQueryModeEE(%"class.base::internal::BindStateBase"*, void ()*, void (%"class.base::internal::BindStateBase"*)*, i1 (%"class.base::internal::BindStateBase"*, i32)*) unnamed_addr #2

declare zeroext i1 @_ZNK4base8internal12CallbackBase11IsCancelledEv(%"class.base::internal::CallbackBase"*) local_unnamed_addr #2

declare zeroext i1 @_ZNK4base8internal12CallbackBase10MaybeValidEv(%"class.base::internal::CallbackBase"*) local_unnamed_addr #2

declare void @_ZN4base16TaskRunnerTraits8DestructEPKNS_10TaskRunnerE(%"class.base::TaskRunner"*) local_unnamed_addr #2

; Function Attrs: nounwind ssp uwtable
define linkonce_odr hidden void @_ZN4base8internal7InvokerINS0_9BindStateIPFvNS_12OnceCallbackIFPN3net15NSSCertDatabaseENS3_IFvS6_EEEEEE13scoped_refptrINS_19SequencedTaskRunnerEES8_EJSA_SB_INS_22SingleThreadTaskRunnerEES8_EEEFvvEE7RunOnceEPNS0_13BindStateBaseE(%"class.base::internal::BindStateBase"*) #0 comdat align 2 {
  %2 = alloca %"class.base::OnceCallback.36", align 8
  %3 = alloca %"class.base::OnceCallback", align 8
  %4 = getelementptr inbounds %"class.base::internal::BindStateBase", %"class.base::internal::BindStateBase"* %0, i64 1
  %5 = bitcast %"class.base::internal::BindStateBase"* %4 to void (%"class.base::OnceCallback.36"*, %"class.base::SequencedTaskRunner"*, %"class.base::OnceCallback"*)**
  %6 = getelementptr inbounds %"class.base::internal::BindStateBase", %"class.base::internal::BindStateBase"* %0, i64 1, i32 1
  %7 = getelementptr inbounds void ()*, void ()** %6, i64 1
  %8 = getelementptr inbounds void ()*, void ()** %6, i64 2
  %9 = bitcast %"class.base::OnceCallback.36"* %2 to i8*
  call void @llvm.lifetime.start.p0i8(i64 8, i8* nonnull %9) #6
  %10 = bitcast %"class.base::OnceCallback"* %3 to i8*
  call void @llvm.lifetime.start.p0i8(i64 8, i8* nonnull %10) #6
  %11 = load void (%"class.base::OnceCallback.36"*, %"class.base::SequencedTaskRunner"*, %"class.base::OnceCallback"*)*, void (%"class.base::OnceCallback.36"*, %"class.base::SequencedTaskRunner"*, %"class.base::OnceCallback"*)** %5, align 8
  %12 = bitcast void ()** %6 to %"class.base::internal::BindStateBase"**
  %13 = bitcast void ()** %6 to i64*
  %14 = load i64, i64* %13, align 8
  %15 = bitcast %"class.base::OnceCallback.36"* %2 to i64*
  store i64 %14, i64* %15, align 8
  store %"class.base::internal::BindStateBase"* null, %"class.base::internal::BindStateBase"** %12, align 8
  %16 = bitcast void ()** %7 to %"class.base::SingleThreadTaskRunner"**
  %17 = bitcast void ()** %7 to %"class.base::SequencedTaskRunner"**
  %18 = load %"class.base::SequencedTaskRunner"*, %"class.base::SequencedTaskRunner"** %17, align 8
  store %"class.base::SingleThreadTaskRunner"* null, %"class.base::SingleThreadTaskRunner"** %16, align 8
  %19 = bitcast void ()** %8 to %"class.base::internal::BindStateBase"**
  %20 = bitcast void ()** %8 to i64*
  %21 = load i64, i64* %20, align 8
  %22 = bitcast %"class.base::OnceCallback"* %3 to i64*
  store i64 %21, i64* %22, align 8
  store %"class.base::internal::BindStateBase"* null, %"class.base::internal::BindStateBase"** %19, align 8
  call void %11(%"class.base::OnceCallback.36"* nonnull %2, %"class.base::SequencedTaskRunner"* %18, %"class.base::OnceCallback"* nonnull %3) #6
  %23 = getelementptr inbounds %"class.base::OnceCallback", %"class.base::OnceCallback"* %3, i64 0, i32 0
  call void @_ZN4base8internal12CallbackBaseD2Ev(%"class.base::internal::CallbackBase"* nonnull %23) #6
  %24 = getelementptr inbounds %"class.base::OnceCallback.36", %"class.base::OnceCallback.36"* %2, i64 0, i32 0
  call void @_ZN4base8internal12CallbackBaseD2Ev(%"class.base::internal::CallbackBase"* nonnull %24) #6
  call void @llvm.lifetime.end.p0i8(i64 8, i8* nonnull %9) #6
  call void @llvm.lifetime.end.p0i8(i64 8, i8* nonnull %10) #6
  ret void
}

; Function Attrs: nounwind ssp uwtable
define linkonce_odr hidden void @_ZN4base8internal9BindStateIPFvNS_12OnceCallbackIFPN3net15NSSCertDatabaseENS2_IFvS5_EEEEEE13scoped_refptrINS_19SequencedTaskRunnerEES7_EJS9_SA_INS_22SingleThreadTaskRunnerEES7_EE7DestroyEPKNS0_13BindStateBaseE(%"class.base::internal::BindStateBase"*) #0 comdat align 2 {
  %2 = icmp eq %"class.base::internal::BindStateBase"* %0, null
  br i1 %2, label %22, label %3

3:                                                ; preds = %1
  %4 = getelementptr inbounds %"class.base::internal::BindStateBase", %"class.base::internal::BindStateBase"* %0, i64 1, i32 3
  %5 = bitcast i1 (%"class.base::internal::BindStateBase"*, i32)** %4 to %"class.base::internal::CallbackBase"*
  tail call void @_ZN4base8internal12CallbackBaseD2Ev(%"class.base::internal::CallbackBase"* %5) #6
  %6 = getelementptr inbounds %"class.base::internal::BindStateBase", %"class.base::internal::BindStateBase"* %0, i64 1, i32 2
  %7 = bitcast void (%"class.base::internal::BindStateBase"*)** %6 to %"class.base::SingleThreadTaskRunner"**
  %8 = load %"class.base::SingleThreadTaskRunner"*, %"class.base::SingleThreadTaskRunner"** %7, align 8
  %9 = icmp eq %"class.base::SingleThreadTaskRunner"* %8, null
  br i1 %9, label %18, label %10

10:                                               ; preds = %3
  %11 = getelementptr inbounds %"class.base::SingleThreadTaskRunner", %"class.base::SingleThreadTaskRunner"* %8, i64 0, i32 0, i32 0, i32 1
  %12 = getelementptr inbounds %"class.base::RefCountedThreadSafe.33", %"class.base::RefCountedThreadSafe.33"* %11, i64 0, i32 0, i32 0, i32 0, i32 0, i32 0, i32 0, i32 0, i32 0
  %13 = atomicrmw sub i32* %12, i32 1 acq_rel
  %14 = icmp eq i32 %13, 1
  br i1 %14, label %15, label %18

15:                                               ; preds = %10
  %16 = getelementptr inbounds %"class.base::RefCountedThreadSafe.33", %"class.base::RefCountedThreadSafe.33"* %11, i64 -2
  %17 = bitcast %"class.base::RefCountedThreadSafe.33"* %16 to %"class.base::TaskRunner"*
  tail call void @_ZN4base16TaskRunnerTraits8DestructEPKNS_10TaskRunnerE(%"class.base::TaskRunner"* %17) #6
  br label %18

18:                                               ; preds = %3, %10, %15
  %19 = getelementptr inbounds %"class.base::internal::BindStateBase", %"class.base::internal::BindStateBase"* %0, i64 1, i32 1
  %20 = bitcast void ()** %19 to %"class.base::internal::CallbackBase"*
  tail call void @_ZN4base8internal12CallbackBaseD2Ev(%"class.base::internal::CallbackBase"* %20) #6
  %21 = bitcast %"class.base::internal::BindStateBase"* %0 to i8*
  tail call void @_ZdlPv(i8* %21) #7
  br label %22

22:                                               ; preds = %18, %1
  ret void
}

attributes #0 = { nounwind ssp uwtable "correctly-rounded-divide-sqrt-fp-math"="false" "disable-tail-calls"="false" "less-precise-fpmad"="false" "min-legal-vector-width"="0" "no-frame-pointer-elim"="false" "no-frame-pointer-elim-non-leaf" "no-infs-fp-math"="false" "no-jump-tables"="false" "no-nans-fp-math"="false" "no-signed-zeros-fp-math"="false" "no-trapping-math"="false" "null-pointer-is-valid"="true" "stack-protector-buffer-size"="4" "target-cpu"="x86-64" "target-features"="+cx8,+fxsr,+mmx,+sse,+sse2,+sse3,+x87" "unsafe-fp-math"="false" "use-soft-float"="false" }
attributes #1 = { argmemonly nounwind }
attributes #2 = { "correctly-rounded-divide-sqrt-fp-math"="false" "disable-tail-calls"="false" "less-precise-fpmad"="false" "no-frame-pointer-elim"="false" "no-frame-pointer-elim-non-leaf" "no-infs-fp-math"="false" "no-nans-fp-math"="false" "no-signed-zeros-fp-math"="false" "no-trapping-math"="false" "null-pointer-is-valid"="true" "stack-protector-buffer-size"="4" "target-cpu"="x86-64" "target-features"="+cx8,+fxsr,+mmx,+sse,+sse2,+sse3,+x87" "unsafe-fp-math"="false" "use-soft-float"="false" }
attributes #3 = { nounwind "correctly-rounded-divide-sqrt-fp-math"="false" "disable-tail-calls"="false" "less-precise-fpmad"="false" "no-frame-pointer-elim"="false" "no-frame-pointer-elim-non-leaf" "no-infs-fp-math"="false" "no-nans-fp-math"="false" "no-signed-zeros-fp-math"="false" "no-trapping-math"="false" "null-pointer-is-valid"="true" "stack-protector-buffer-size"="4" "target-cpu"="x86-64" "target-features"="+cx8,+fxsr,+mmx,+sse,+sse2,+sse3,+x87" "unsafe-fp-math"="false" "use-soft-float"="false" }
attributes #4 = { nobuiltin nofree "correctly-rounded-divide-sqrt-fp-math"="false" "disable-tail-calls"="false" "less-precise-fpmad"="false" "no-frame-pointer-elim"="false" "no-frame-pointer-elim-non-leaf" "no-infs-fp-math"="false" "no-nans-fp-math"="false" "no-signed-zeros-fp-math"="false" "no-trapping-math"="false" "null-pointer-is-valid"="true" "stack-protector-buffer-size"="4" "target-cpu"="x86-64" "target-features"="+cx8,+fxsr,+mmx,+sse,+sse2,+sse3,+x87" "unsafe-fp-math"="false" "use-soft-float"="false" }
attributes #5 = { nobuiltin nounwind "correctly-rounded-divide-sqrt-fp-math"="false" "disable-tail-calls"="false" "less-precise-fpmad"="false" "no-frame-pointer-elim"="false" "no-frame-pointer-elim-non-leaf" "no-infs-fp-math"="false" "no-nans-fp-math"="false" "no-signed-zeros-fp-math"="false" "no-trapping-math"="false" "null-pointer-is-valid"="true" "stack-protector-buffer-size"="4" "target-cpu"="x86-64" "target-features"="+cx8,+fxsr,+mmx,+sse,+sse2,+sse3,+x87" "unsafe-fp-math"="false" "use-soft-float"="false" }
attributes #6 = { nounwind }
attributes #7 = { builtin nounwind }

!llvm.module.flags = !{!0, !1}

!0 = !{i32 1, !"wchar_size", i32 4}
!1 = !{i32 7, !"PIC Level", i32 2}
!2 = !{!3, !5}
!3 = distinct !{!3, !4, !"_ZN4base8internal8BindImplINS_12OnceCallbackEPFvNS2_IFPN3net15NSSCertDatabaseENS2_IFvS5_EEEEEE13scoped_refptrINS_19SequencedTaskRunnerEES7_EJS9_RKSA_INS_22SingleThreadTaskRunnerEES7_EEEDcOT0_DpOT1_: argument 0"}
!4 = distinct !{!4, !"_ZN4base8internal8BindImplINS_12OnceCallbackEPFvNS2_IFPN3net15NSSCertDatabaseENS2_IFvS5_EEEEEE13scoped_refptrINS_19SequencedTaskRunnerEES7_EJS9_RKSA_INS_22SingleThreadTaskRunnerEES7_EEEDcOT0_DpOT1_"}
!5 = distinct !{!5, !6, !"_ZN4base8BindOnceIPFvNS_12OnceCallbackIFPN3net15NSSCertDatabaseENS1_IFvS4_EEEEEE13scoped_refptrINS_19SequencedTaskRunnerEES6_EJS8_RKS9_INS_22SingleThreadTaskRunnerEES6_EEENS1_INS_8internal14BindTypeHelperIT_JDpT0_EE14UnboundRunTypeEEEOSK_DpOSL_: argument 0"}
!6 = distinct !{!6, !"_ZN4base8BindOnceIPFvNS_12OnceCallbackIFPN3net15NSSCertDatabaseENS1_IFvS4_EEEEEE13scoped_refptrINS_19SequencedTaskRunnerEES6_EJS8_RKS9_INS_22SingleThreadTaskRunnerEES6_EEENS1_INS_8internal14BindTypeHelperIT_JDpT0_EE14UnboundRunTypeEEEOSK_DpOSL_"}
!7 = !{!8, !10}
!8 = distinct !{!8, !9, !"_ZN4base8internal8BindImplINS_12OnceCallbackEPFvRK13scoped_refptrINS_19SequencedTaskRunnerEENS2_IFvPN3net15NSSCertDatabaseEEEESA_EJRS5_SC_EEEDcOT0_DpOT1_: argument 0"}
!9 = distinct !{!9, !"_ZN4base8internal8BindImplINS_12OnceCallbackEPFvRK13scoped_refptrINS_19SequencedTaskRunnerEENS2_IFvPN3net15NSSCertDatabaseEEEESA_EJRS5_SC_EEEDcOT0_DpOT1_"}
!10 = distinct !{!10, !11, !"_ZN4base8BindOnceIPFvRK13scoped_refptrINS_19SequencedTaskRunnerEENS_12OnceCallbackIFvPN3net15NSSCertDatabaseEEEES9_EJRS3_SB_EEENS6_INS_8internal14BindTypeHelperIT_JDpT0_EE14UnboundRunTypeEEEOSH_DpOSI_: argument 0"}
!11 = distinct !{!11, !"_ZN4base8BindOnceIPFvRK13scoped_refptrINS_19SequencedTaskRunnerEENS_12OnceCallbackIFvPN3net15NSSCertDatabaseEEEES9_EJRS3_SB_EEENS6_INS_8internal14BindTypeHelperIT_JDpT0_EE14UnboundRunTypeEEEOSH_DpOSI_"}
!12 = !{!13}
!13 = distinct !{!13, !14, !"_ZNSt3__19make_pairIN4base12OnceCallbackIFvPN3net15NSSCertDatabaseEEEES7_EENS_4pairINS_18__unwrap_ref_decayIT_E4typeENS9_IT0_E4typeEEEOSA_OSD_: argument 0"}
!14 = distinct !{!14, !"_ZNSt3__19make_pairIN4base12OnceCallbackIFvPN3net15NSSCertDatabaseEEEES7_EENS_4pairINS_18__unwrap_ref_decayIT_E4typeENS9_IT0_E4typeEEEOSA_OSD_"}
!15 = !{!16, !18}
!16 = distinct !{!16, !17, !"_ZN4base8internal8BindImplINS_17RepeatingCallbackEMNS0_18OnceCallbackHolderIJPN3net15NSSCertDatabaseEEEEFvS6_EJNSt3__110unique_ptrIS7_NSA_14default_deleteIS7_EEEEEEEDcOT0_DpOT1_: argument 0"}
!17 = distinct !{!17, !"_ZN4base8internal8BindImplINS_17RepeatingCallbackEMNS0_18OnceCallbackHolderIJPN3net15NSSCertDatabaseEEEEFvS6_EJNSt3__110unique_ptrIS7_NSA_14default_deleteIS7_EEEEEEEDcOT0_DpOT1_"}
!18 = distinct !{!18, !19, !"_ZN4base13BindRepeatingIMNS_8internal18OnceCallbackHolderIJPN3net15NSSCertDatabaseEEEEFvS5_EJNSt3__110unique_ptrIS6_NS9_14default_deleteIS6_EEEEEEENS_17RepeatingCallbackINS1_14BindTypeHelperIT_JDpT0_EE14UnboundRunTypeEEEOSG_DpOSH_: argument 0"}
!19 = distinct !{!19, !"_ZN4base13BindRepeatingIMNS_8internal18OnceCallbackHolderIJPN3net15NSSCertDatabaseEEEEFvS5_EJNSt3__110unique_ptrIS6_NS9_14default_deleteIS6_EEEEEEENS_17RepeatingCallbackINS1_14BindTypeHelperIT_JDpT0_EE14UnboundRunTypeEEEOSG_DpOSH_"}
!20 = !{!21, !23}
!21 = distinct !{!21, !22, !"_ZN4base8internal8BindImplINS_12OnceCallbackENS2_IFvPN3net15NSSCertDatabaseEEEEJRS5_EEEDcOT0_DpOT1_: argument 0"}
!22 = distinct !{!22, !"_ZN4base8internal8BindImplINS_12OnceCallbackENS2_IFvPN3net15NSSCertDatabaseEEEEJRS5_EEEDcOT0_DpOT1_"}
!23 = distinct !{!23, !24, !"_ZN4base8BindOnceINS_12OnceCallbackIFvPN3net15NSSCertDatabaseEEEEJRS4_EEENS1_INS_8internal14BindTypeHelperIT_JDpT0_EE14UnboundRunTypeEEEOSA_DpOSB_: argument 0"}
!24 = distinct !{!24, !"_ZN4base8BindOnceINS_12OnceCallbackIFvPN3net15NSSCertDatabaseEEEEJRS4_EEENS1_INS_8internal14BindTypeHelperIT_JDpT0_EE14UnboundRunTypeEEEOSA_DpOSB_"}
!25 = !{i8 0, i8 2}
