; ModuleID = '../../components/optimization_guide/core/optimization_guide_store.cc'
source_filename = "../../components/optimization_guide/core/optimization_guide_store.cc"
target datalayout = "e-m:e-i64:64-f80:128-n8:16:32:64-S128"
target triple = "x86_64-unknown-linux-gnu"

module asm ".symver exp, exp@GLIBC_2.2.5"
module asm ".symver exp2, exp2@GLIBC_2.2.5"
module asm ".symver exp2f, exp2f@GLIBC_2.2.5"
module asm ".symver expf, expf@GLIBC_2.2.5"
module asm ".symver lgamma, lgamma@GLIBC_2.2.5"
module asm ".symver lgammaf, lgammaf@GLIBC_2.2.5"
module asm ".symver lgammal, lgammal@GLIBC_2.2.5"
module asm ".symver log, log@GLIBC_2.2.5"
module asm ".symver log2, log2@GLIBC_2.2.5"
module asm ".symver log2f, log2f@GLIBC_2.2.5"
module asm ".symver logf, logf@GLIBC_2.2.5"
module asm ".symver pow, pow@GLIBC_2.2.5"
module asm ".symver powf, powf@GLIBC_2.2.5"

%"class.google::protobuf::internal::ExplicitlyConstructed" = type { %"union.google::protobuf::internal::ExplicitlyConstructed<std::__1::basic_string<char, std::__1::char_traits<char>, std::__1::allocator<char> > >::AlignedUnion" }
%"union.google::protobuf::internal::ExplicitlyConstructed<std::__1::basic_string<char, std::__1::char_traits<char>, std::__1::allocator<char> > >::AlignedUnion" = type { i64, [16 x i8] }
%"class.optimization_guide::proto::PredictionModelDefaultTypeInternal" = type opaque
%"class.optimization_guide::proto::ModelDefaultTypeInternal" = type opaque
%"class.optimization_guide::proto::ModelInfoDefaultTypeInternal" = type opaque
%"class.optimization_guide::OptimizationGuideStore" = type { i32 (...)**, %"class.std::__1::unique_ptr", i32, %"class.absl::optional", %"class.std::__1::basic_string", %"class.base::Time", %"class.base::Time", %"class.std::__1::unique_ptr.10", %class.scoped_refptr, %"class.base::WeakPtrFactory" }
%"class.std::__1::unique_ptr" = type { %"class.std::__1::__compressed_pair" }
%"class.std::__1::__compressed_pair" = type { %"struct.std::__1::__compressed_pair_elem" }
%"struct.std::__1::__compressed_pair_elem" = type { %"class.leveldb_proto::ProtoDatabase"* }
%"class.leveldb_proto::ProtoDatabase" = type { i32 (...)** }
%"class.absl::optional" = type { %"class.absl::optional_internal::optional_data" }
%"class.absl::optional_internal::optional_data" = type { %"class.absl::optional_internal::optional_data_base" }
%"class.absl::optional_internal::optional_data_base" = type { %"class.absl::optional_internal::optional_data_dtor_base" }
%"class.absl::optional_internal::optional_data_dtor_base" = type { i8, %union.anon }
%union.anon = type { %"class.base::Version" }
%"class.base::Version" = type { %"class.std::__1::vector" }
%"class.std::__1::vector" = type { %"class.std::__1::__vector_base" }
%"class.std::__1::__vector_base" = type { i32*, i32*, %"class.std::__1::__compressed_pair.1" }
%"class.std::__1::__compressed_pair.1" = type { %"struct.std::__1::__compressed_pair_elem.2" }
%"struct.std::__1::__compressed_pair_elem.2" = type { i32* }
%"class.std::__1::basic_string" = type { %"class.std::__1::__compressed_pair.4" }
%"class.std::__1::__compressed_pair.4" = type { %"struct.std::__1::__compressed_pair_elem.5" }
%"struct.std::__1::__compressed_pair_elem.5" = type { %"struct.std::__1::basic_string<char, std::__1::char_traits<char>, std::__1::allocator<char> >::__rep" }
%"struct.std::__1::basic_string<char, std::__1::char_traits<char>, std::__1::allocator<char> >::__rep" = type { %union.anon.6 }
%union.anon.6 = type { %"struct.std::__1::basic_string<char, std::__1::char_traits<char>, std::__1::allocator<char> >::__long" }
%"struct.std::__1::basic_string<char, std::__1::char_traits<char>, std::__1::allocator<char> >::__long" = type { i8*, i64, i64 }
%"class.base::Time" = type { %"class.base::time_internal::TimeBase" }
%"class.base::time_internal::TimeBase" = type { i64 }
%"class.std::__1::unique_ptr.10" = type { %"class.std::__1::__compressed_pair.11" }
%"class.std::__1::__compressed_pair.11" = type { %"struct.std::__1::__compressed_pair_elem.12" }
%"struct.std::__1::__compressed_pair_elem.12" = type { %"class.base::internal::flat_tree"* }
%"class.base::internal::flat_tree" = type { %"class.std::__1::vector.13" }
%"class.std::__1::vector.13" = type { %"class.std::__1::__vector_base.14" }
%"class.std::__1::__vector_base.14" = type { %"class.std::__1::basic_string"*, %"class.std::__1::basic_string"*, %"class.std::__1::__compressed_pair.15" }
%"class.std::__1::__compressed_pair.15" = type { %"struct.std::__1::__compressed_pair_elem.16" }
%"struct.std::__1::__compressed_pair_elem.16" = type { %"class.std::__1::basic_string"* }
%class.scoped_refptr = type { %"class.base::SequencedTaskRunner"* }
%"class.base::WeakPtrFactory" = type { %"class.base::internal::WeakPtrFactoryBase" }
%"class.base::internal::WeakPtrFactoryBase" = type { %"class.base::internal::WeakReferenceOwner", i64 }
%"class.base::internal::WeakReferenceOwner" = type { %class.scoped_refptr.24 }
%class.scoped_refptr.24 = type { %"class.base::internal::WeakReference::Flag"* }
%"class.base::internal::WeakReference::Flag" = type <{ %"class.base::RefCountedThreadSafe.25", %"class.base::AtomicFlag", [3 x i8] }>
%"class.base::RefCountedThreadSafe.25" = type { %"class.base::subtle::RefCountedThreadSafeBase" }
%"class.base::subtle::RefCountedThreadSafeBase" = type { %"class.base::AtomicRefCount" }
%"class.base::AtomicRefCount" = type { %"struct.std::__1::atomic" }
%"struct.std::__1::atomic" = type { %"struct.std::__1::__atomic_base" }
%"struct.std::__1::__atomic_base" = type { %"struct.std::__1::__atomic_base.23" }
%"struct.std::__1::__atomic_base.23" = type { %"struct.std::__1::__cxx_atomic_impl" }
%"struct.std::__1::__cxx_atomic_impl" = type { %"struct.std::__1::__cxx_atomic_base_impl" }
%"struct.std::__1::__cxx_atomic_base_impl" = type { i32 }
%"class.base::AtomicFlag" = type { %"struct.std::__1::atomic.26" }
%"struct.std::__1::atomic.26" = type { %"struct.std::__1::__atomic_base.27" }
%"struct.std::__1::__atomic_base.27" = type { %"struct.std::__1::__atomic_base.28" }
%"struct.std::__1::__atomic_base.28" = type { %"struct.std::__1::__cxx_atomic_impl.29" }
%"struct.std::__1::__cxx_atomic_impl.29" = type { %"struct.std::__1::__cxx_atomic_base_impl.30" }
%"struct.std::__1::__cxx_atomic_base_impl.30" = type { i8 }
%"class.leveldb_proto::ProtoDatabaseProvider" = type { i32 (...)**, %"class.base::FilePath", i8, %class.scoped_refptr.31, %"class.base::Lock", %class.scoped_refptr, %"class.base::WeakPtrFactory.80" }
%"class.base::FilePath" = type { %"class.std::__1::basic_string" }
%class.scoped_refptr.31 = type { %"class.leveldb_proto::SharedProtoDatabase"* }
%"class.leveldb_proto::SharedProtoDatabase" = type { i32 (...)**, %"class.base::RefCountedThreadSafe.32", i32, %class.scoped_refptr, %"class.base::FilePath", %"class.std::__1::unique_ptr.33", %"class.std::__1::unique_ptr.58", %"class.std::__1::unique_ptr.65", %"class.std::__1::unique_ptr.72", i32, %"class.std::__1::queue", i8, %"class.base::TimeDelta", %"class.base::internal::CancelableCallbackImpl" }
%"class.base::RefCountedThreadSafe.32" = type { %"class.base::subtle::RefCountedThreadSafeBase" }
%"class.std::__1::unique_ptr.33" = type { %"class.std::__1::__compressed_pair.34" }
%"class.std::__1::__compressed_pair.34" = type { %"struct.std::__1::__compressed_pair_elem.35" }
%"struct.std::__1::__compressed_pair_elem.35" = type { %"class.leveldb_proto::LevelDB"* }
%"class.leveldb_proto::LevelDB" = type { i32 (...)**, %"class.std::__1::unique_ptr.36", %"class.std::__1::unique_ptr.42", %"class.base::FilePath", %"struct.leveldb_env::Options", %"class.base::HistogramBase"* }
%"class.std::__1::unique_ptr.36" = type { %"class.std::__1::__compressed_pair.37" }
%"class.std::__1::__compressed_pair.37" = type { %"struct.std::__1::__compressed_pair_elem.38" }
%"struct.std::__1::__compressed_pair_elem.38" = type { %"class.leveldb::Env"* }
%"class.leveldb::Env" = type { i32 (...)** }
%"class.std::__1::unique_ptr.42" = type { %"class.std::__1::__compressed_pair.43" }
%"class.std::__1::__compressed_pair.43" = type { %"struct.std::__1::__compressed_pair_elem.44" }
%"struct.std::__1::__compressed_pair_elem.44" = type { %"class.leveldb::DB"* }
%"class.leveldb::DB" = type { i32 (...)** }
%"struct.leveldb_env::Options" = type { %"struct.leveldb::Options", %"class.base::RepeatingCallback", %"class.base::RepeatingCallback" }
%"struct.leveldb::Options" = type { %"class.leveldb::Comparator"*, i8, i8, i8, %"class.leveldb::Env"*, %"class.leveldb::Logger"*, i64, i32, %"class.leveldb::Cache"*, i64, i32, i64, i32, i8, %"class.leveldb::FilterPolicy"* }
%"class.leveldb::Comparator" = type opaque
%"class.leveldb::Logger" = type { i32 (...)** }
%"class.leveldb::Cache" = type { i32 (...)**, %"struct.leveldb::Cache::Rep"* }
%"struct.leveldb::Cache::Rep" = type opaque
%"class.leveldb::FilterPolicy" = type opaque
%"class.base::RepeatingCallback" = type { %"class.base::internal::CallbackBaseCopyable" }
%"class.base::internal::CallbackBaseCopyable" = type { %"class.base::internal::CallbackBase" }
%"class.base::internal::CallbackBase" = type { %class.scoped_refptr.48 }
%class.scoped_refptr.48 = type { %"class.base::internal::BindStateBase"* }
%"class.base::internal::BindStateBase" = type { %"class.base::RefCountedThreadSafe.49", void ()*, void (%"class.base::internal::BindStateBase"*)*, i1 (%"class.base::internal::BindStateBase"*, i32)* }
%"class.base::RefCountedThreadSafe.49" = type { %"class.base::subtle::RefCountedThreadSafeBase" }
%"class.base::HistogramBase" = type <{ i32 (...)**, i8*, %"struct.std::__1::atomic.50", [4 x i8] }>
%"struct.std::__1::atomic.50" = type { %"struct.std::__1::__atomic_base.51" }
%"struct.std::__1::__atomic_base.51" = type { %"struct.std::__1::__atomic_base.52" }
%"struct.std::__1::__atomic_base.52" = type { %"struct.std::__1::__cxx_atomic_impl.53" }
%"struct.std::__1::__cxx_atomic_impl.53" = type { %"struct.std::__1::__cxx_atomic_base_impl.54" }
%"struct.std::__1::__cxx_atomic_base_impl.54" = type { i32 }
%"class.std::__1::unique_ptr.58" = type { %"class.std::__1::__compressed_pair.59" }
%"class.std::__1::__compressed_pair.59" = type { %"struct.std::__1::__compressed_pair_elem.60" }
%"struct.std::__1::__compressed_pair_elem.60" = type { %"class.leveldb_proto::ProtoLevelDBWrapper"* }
%"class.leveldb_proto::ProtoLevelDBWrapper" = type { i32 (...)**, %class.scoped_refptr, %"class.leveldb_proto::LevelDB"*, %"class.std::__1::basic_string", %"class.base::WeakPtrFactory.61" }
%"class.base::WeakPtrFactory.61" = type { %"class.base::internal::WeakPtrFactoryBase" }
%"class.std::__1::unique_ptr.65" = type { %"class.std::__1::__compressed_pair.66" }
%"class.std::__1::__compressed_pair.66" = type { %"struct.std::__1::__compressed_pair_elem.67" }
%"struct.std::__1::__compressed_pair_elem.67" = type { %"class.leveldb_proto::ProtoDatabase.68"* }
%"class.leveldb_proto::ProtoDatabase.68" = type opaque
%"class.std::__1::unique_ptr.72" = type { %"class.std::__1::__compressed_pair.73" }
%"class.std::__1::__compressed_pair.73" = type { %"struct.std::__1::__compressed_pair_elem.74" }
%"struct.std::__1::__compressed_pair_elem.74" = type { %"class.leveldb_proto::SharedDBMetadataProto"* }
%"class.leveldb_proto::SharedDBMetadataProto" = type { %"class.google::protobuf::MessageLite", %"class.google::protobuf::internal::HasBits", %"class.google::protobuf::internal::CachedSize", i64, i32, i32 }
%"class.google::protobuf::MessageLite" = type { i32 (...)**, %"class.google::protobuf::internal::InternalMetadata" }
%"class.google::protobuf::internal::InternalMetadata" = type { i8* }
%"class.google::protobuf::internal::HasBits" = type { [1 x i32] }
%"class.google::protobuf::internal::CachedSize" = type { %"struct.std::__1::atomic" }
%"class.std::__1::queue" = type { %"class.base::circular_deque" }
%"class.base::circular_deque" = type { %"class.base::internal::VectorBuffer", i64, i64 }
%"class.base::internal::VectorBuffer" = type { %"class.std::__1::unique_ptr.78"*, i64 }
%"class.std::__1::unique_ptr.78" = type opaque
%"class.base::TimeDelta" = type { i64 }
%"class.base::internal::CancelableCallbackImpl" = type { %"class.base::OnceCallback", %"class.base::WeakPtrFactory.79" }
%"class.base::OnceCallback" = type { %"class.base::internal::CallbackBase" }
%"class.base::WeakPtrFactory.79" = type { %"class.base::internal::WeakPtrFactoryBase" }
%"class.base::Lock" = type { %"class.base::internal::LockImpl" }
%"class.base::internal::LockImpl" = type { %union.pthread_mutex_t }
%union.pthread_mutex_t = type { %struct.__pthread_mutex_s }
%struct.__pthread_mutex_s = type { i32, i32, i32, i32, i32, i16, i16, %struct.__pthread_internal_list }
%struct.__pthread_internal_list = type { %struct.__pthread_internal_list*, %struct.__pthread_internal_list* }
%"class.base::WeakPtrFactory.80" = type { %"class.base::internal::WeakPtrFactoryBase" }
%"class.base::SequencedTaskRunner" = type { %"class.base::TaskRunner.base", [4 x i8] }
%"class.base::TaskRunner.base" = type <{ i32 (...)**, %"class.base::RefCountedThreadSafe" }>
%"class.base::RefCountedThreadSafe" = type { %"class.base::subtle::RefCountedThreadSafeBase" }
%"class.base::TaskRunner" = type <{ i32 (...)**, %"class.base::RefCountedThreadSafe", [4 x i8] }>
%"class.base::internal::WeakReference" = type { %class.scoped_refptr.82 }
%class.scoped_refptr.82 = type { %"class.base::internal::WeakReference::Flag"* }
%"class.base::WeakPtr.240" = type { %"class.base::internal::WeakPtrBase" }
%"class.base::internal::WeakPtrBase" = type { %"class.base::internal::WeakReference", i64 }
%"class.leveldb_proto::ProtoDatabaseSelector" = type { %"class.base::RefCountedThreadSafe.236", i32, %class.scoped_refptr, %"class.std::__1::unique_ptr.237", %"class.std::__1::unique_ptr.244", i32, %"class.std::__1::queue.250", %"class.std::__1::unique_ptr.253", %"class.base::FilePath", %"class.std::__1::basic_string" }
%"class.base::RefCountedThreadSafe.236" = type { %"class.base::subtle::RefCountedThreadSafeBase" }
%"class.std::__1::unique_ptr.237" = type { %"class.std::__1::__compressed_pair.238" }
%"class.std::__1::__compressed_pair.238" = type { %"struct.std::__1::__compressed_pair_elem.239" }
%"struct.std::__1::__compressed_pair_elem.239" = type { %"class.leveldb_proto::SharedProtoDatabaseProvider"* }
%"class.leveldb_proto::SharedProtoDatabaseProvider" = type { %class.scoped_refptr, %"class.base::WeakPtr.240" }
%"class.std::__1::unique_ptr.244" = type { %"class.std::__1::__compressed_pair.245" }
%"class.std::__1::__compressed_pair.245" = type { %"struct.std::__1::__compressed_pair_elem.246" }
%"struct.std::__1::__compressed_pair_elem.246" = type { %"class.leveldb_proto::MigrationDelegate"* }
%"class.leveldb_proto::MigrationDelegate" = type opaque
%"class.std::__1::queue.250" = type { %"class.base::circular_deque.251" }
%"class.base::circular_deque.251" = type { %"class.base::internal::VectorBuffer.252", i64, i64 }
%"class.base::internal::VectorBuffer.252" = type { %"class.base::OnceCallback"*, i64 }
%"class.std::__1::unique_ptr.253" = type { %"class.std::__1::__compressed_pair.254" }
%"class.std::__1::__compressed_pair.254" = type { %"struct.std::__1::__compressed_pair_elem.255" }
%"struct.std::__1::__compressed_pair_elem.255" = type { %"class.leveldb_proto::UniqueProtoDatabase"* }
%"class.leveldb_proto::UniqueProtoDatabase" = type { i32 (...)**, %"class.std::__1::unique_ptr.58", %"class.base::FilePath", %"struct.leveldb_env::Options", %"class.std::__1::unique_ptr.33" }
%"struct.std::__1::basic_string<char, std::__1::char_traits<char>, std::__1::allocator<char> >::__short" = type { [23 x i8], %struct.anon }
%struct.anon = type { i8 }
%"class.base::OnceCallback.81" = type { %"class.base::internal::CallbackBase" }
%"class.base::WeakPtr" = type { %"class.base::internal::WeakPtrBase" }
%"class.base::OnceCallback.122" = type { %"class.base::internal::CallbackBase" }
%"class.base::RepeatingCallback.121" = type { %"class.base::internal::CallbackBaseCopyable" }
%"struct.leveldb::ReadOptions" = type { i8, i8, %"class.leveldb::Snapshot"* }
%"class.leveldb::Snapshot" = type { i32 (...)** }
%"class.base::OnceCallback.123" = type { %"class.base::internal::CallbackBase" }
%"class.optimization_guide::StoreUpdateData" = type { %"class.absl::optional", %"class.absl::optional.86", %"class.absl::optional.86", %"class.std::__1::basic_string", %"class.std::__1::unique_ptr.91" }
%"class.absl::optional.86" = type { %"class.absl::optional_internal::optional_data.87" }
%"class.absl::optional_internal::optional_data.87" = type { %"class.absl::optional_internal::optional_data_base.88" }
%"class.absl::optional_internal::optional_data_base.88" = type { %"class.absl::optional_internal::optional_data_dtor_base.89" }
%"class.absl::optional_internal::optional_data_dtor_base.89" = type { i8, %union.anon.90 }
%union.anon.90 = type { %"class.base::Time" }
%"class.std::__1::unique_ptr.91" = type { %"class.std::__1::__compressed_pair.92" }
%"class.std::__1::__compressed_pair.92" = type { %"struct.std::__1::__compressed_pair_elem.93" }
%"struct.std::__1::__compressed_pair_elem.93" = type { %"class.std::__1::vector.94"* }
%"class.std::__1::vector.94" = type { %"class.std::__1::__vector_base.95" }
%"class.std::__1::__vector_base.95" = type { %"struct.std::__1::pair"*, %"struct.std::__1::pair"*, %"class.std::__1::__compressed_pair.110" }
%"struct.std::__1::pair" = type { %"class.std::__1::basic_string", %"class.optimization_guide::proto::StoreEntry" }
%"class.optimization_guide::proto::StoreEntry" = type <{ %"class.google::protobuf::MessageLite", %"class.google::protobuf::internal::HasBits", %"class.google::protobuf::internal::CachedSize", %"struct.google::protobuf::internal::ArenaStringPtr", %"class.optimization_guide::proto::Hint"*, %"class.optimization_guide::proto::PredictionModel"*, %"class.optimization_guide::proto::HostModelFeatures"*, i64, i64, i32, [4 x i8] }>
%"struct.google::protobuf::internal::ArenaStringPtr" = type { %"class.std::__1::basic_string"* }
%"class.optimization_guide::proto::Hint" = type <{ %"class.google::protobuf::MessageLite", %"class.google::protobuf::internal::HasBits", %"class.google::protobuf::internal::CachedSize", %"class.google::protobuf::RepeatedPtrField", %"class.google::protobuf::RepeatedPtrField.105", %"struct.google::protobuf::internal::ArenaStringPtr", %"struct.google::protobuf::internal::ArenaStringPtr", %"class.optimization_guide::proto::Duration"*, i32, [4 x i8] }>
%"class.google::protobuf::RepeatedPtrField" = type { %"class.google::protobuf::internal::RepeatedPtrFieldBase" }
%"class.google::protobuf::internal::RepeatedPtrFieldBase" = type { %"class.google::protobuf::Arena"*, i32, i32, %"struct.google::protobuf::internal::RepeatedPtrFieldBase::Rep"* }
%"class.google::protobuf::Arena" = type { %"class.google::protobuf::internal::ArenaImpl", void (%"class.std::type_info"*, i64, i8*)*, void (%"class.google::protobuf::Arena"*, i8*, i64)*, void (%"class.google::protobuf::Arena"*, i8*, i64)*, i8* }
%"class.google::protobuf::internal::ArenaImpl" = type { %"struct.std::__1::atomic.96", %"struct.std::__1::atomic.96", %"struct.std::__1::atomic.100", %"class.google::protobuf::internal::ArenaImpl::Block"*, i64, %"struct.google::protobuf::internal::ArenaImpl::Options" }
%"struct.std::__1::atomic.96" = type { %"struct.std::__1::__atomic_base.97" }
%"struct.std::__1::__atomic_base.97" = type { %"struct.std::__1::__cxx_atomic_impl.98" }
%"struct.std::__1::__cxx_atomic_impl.98" = type { %"struct.std::__1::__cxx_atomic_base_impl.99" }
%"struct.std::__1::__cxx_atomic_base_impl.99" = type { %"class.google::protobuf::internal::ArenaImpl::SerialArena"* }
%"class.google::protobuf::internal::ArenaImpl::SerialArena" = type { %"class.google::protobuf::internal::ArenaImpl"*, i8*, %"class.google::protobuf::internal::ArenaImpl::Block"*, %"struct.google::protobuf::internal::ArenaImpl::CleanupChunk"*, %"class.google::protobuf::internal::ArenaImpl::SerialArena"*, i8*, i8*, %"struct.google::protobuf::internal::ArenaImpl::CleanupNode"*, %"struct.google::protobuf::internal::ArenaImpl::CleanupNode"* }
%"struct.google::protobuf::internal::ArenaImpl::CleanupChunk" = type { i64, %"struct.google::protobuf::internal::ArenaImpl::CleanupChunk"*, [1 x %"struct.google::protobuf::internal::ArenaImpl::CleanupNode"] }
%"struct.google::protobuf::internal::ArenaImpl::CleanupNode" = type { i8*, void (i8*)* }
%"struct.std::__1::atomic.100" = type { %"struct.std::__1::__atomic_base.101" }
%"struct.std::__1::__atomic_base.101" = type { %"struct.std::__1::__atomic_base.102" }
%"struct.std::__1::__atomic_base.102" = type { %"struct.std::__1::__cxx_atomic_impl.103" }
%"struct.std::__1::__cxx_atomic_impl.103" = type { %"struct.std::__1::__cxx_atomic_base_impl.104" }
%"struct.std::__1::__cxx_atomic_base_impl.104" = type { i64 }
%"class.google::protobuf::internal::ArenaImpl::Block" = type { %"class.google::protobuf::internal::ArenaImpl::Block"*, i64, i64 }
%"struct.google::protobuf::internal::ArenaImpl::Options" = type { i64, i64, i8*, i64, i8* (i64)*, void (i8*, i64)* }
%"class.std::type_info" = type { i32 (...)**, i8* }
%"struct.google::protobuf::internal::RepeatedPtrFieldBase::Rep" = type { i32, [268435454 x i8*] }
%"class.google::protobuf::RepeatedPtrField.105" = type { %"class.google::protobuf::internal::RepeatedPtrFieldBase" }
%"class.optimization_guide::proto::Duration" = type <{ %"class.google::protobuf::MessageLite", %"class.google::protobuf::internal::HasBits", %"class.google::protobuf::internal::CachedSize", i64, i32, [4 x i8] }>
%"class.optimization_guide::proto::PredictionModel" = type { %"class.google::protobuf::MessageLite", %"class.google::protobuf::internal::HasBits", %"class.google::protobuf::internal::CachedSize", %"class.optimization_guide::proto::ModelInfo"*, %"class.optimization_guide::proto::Model"* }
%"class.optimization_guide::proto::ModelInfo" = type <{ %"class.google::protobuf::MessageLite", %"class.google::protobuf::internal::HasBits", %"class.google::protobuf::internal::CachedSize", %"class.google::protobuf::RepeatedField", %"class.google::protobuf::RepeatedPtrField.106", %"class.optimization_guide::proto::Any"*, i64, i32, [4 x i8] }>
%"class.google::protobuf::RepeatedField" = type { i32, i32, i8* }
%"class.google::protobuf::RepeatedPtrField.106" = type { %"class.google::protobuf::internal::RepeatedPtrFieldBase" }
%"class.optimization_guide::proto::Any" = type { %"class.google::protobuf::MessageLite", %"class.google::protobuf::internal::HasBits", %"class.google::protobuf::internal::CachedSize", %"struct.google::protobuf::internal::ArenaStringPtr", %"struct.google::protobuf::internal::ArenaStringPtr" }
%"class.optimization_guide::proto::Model" = type <{ %"class.google::protobuf::MessageLite", %"class.google::protobuf::internal::HasBits", %"class.google::protobuf::internal::CachedSize", %"class.optimization_guide::proto::DoubleValue"*, %"union.optimization_guide::proto::Model::ModelUnion", [1 x i32], [4 x i8] }>
%"class.optimization_guide::proto::DoubleValue" = type { %"class.google::protobuf::MessageLite", %"class.google::protobuf::internal::HasBits", %"class.google::protobuf::internal::CachedSize", double }
%"union.optimization_guide::proto::Model::ModelUnion" = type { %"class.optimization_guide::proto::DecisionTree"* }
%"class.optimization_guide::proto::DecisionTree" = type <{ %"class.google::protobuf::MessageLite", %"class.google::protobuf::internal::HasBits", %"class.google::protobuf::internal::CachedSize", %"class.google::protobuf::RepeatedPtrField.107", float, [4 x i8] }>
%"class.google::protobuf::RepeatedPtrField.107" = type { %"class.google::protobuf::internal::RepeatedPtrFieldBase" }
%"class.optimization_guide::proto::HostModelFeatures" = type { %"class.google::protobuf::MessageLite", %"class.google::protobuf::internal::HasBits", %"class.google::protobuf::internal::CachedSize", %"class.google::protobuf::RepeatedPtrField.109", %"struct.google::protobuf::internal::ArenaStringPtr" }
%"class.google::protobuf::RepeatedPtrField.109" = type { %"class.google::protobuf::internal::RepeatedPtrFieldBase" }
%"class.std::__1::__compressed_pair.110" = type { %"struct.std::__1::__compressed_pair_elem.111" }
%"struct.std::__1::__compressed_pair_elem.111" = type { %"struct.std::__1::pair"* }
%"class.std::__1::map" = type { %"class.std::__1::__tree" }
%"class.std::__1::__tree" = type { %"class.std::__1::__tree_end_node"*, %"class.std::__1::__compressed_pair.127", %"class.std::__1::__compressed_pair.132" }
%"class.std::__1::__tree_end_node" = type { %"class.std::__1::__tree_node_base"* }
%"class.std::__1::__tree_node_base" = type <{ %"class.std::__1::__tree_end_node", %"class.std::__1::__tree_node_base"*, %"class.std::__1::__tree_end_node"*, i8, [7 x i8] }>
%"class.std::__1::__compressed_pair.127" = type { %"struct.std::__1::__compressed_pair_elem.128" }
%"struct.std::__1::__compressed_pair_elem.128" = type { %"class.std::__1::__tree_end_node" }
%"class.std::__1::__compressed_pair.132" = type { %"struct.std::__1::__compressed_pair_elem.133" }
%"struct.std::__1::__compressed_pair_elem.133" = type { i64 }
%"class.std::__1::__tree_node" = type { %"class.std::__1::__tree_node_base.base", %"struct.std::__1::__value_type" }
%"class.std::__1::__tree_node_base.base" = type <{ %"class.std::__1::__tree_end_node", %"class.std::__1::__tree_node_base"*, %"class.std::__1::__tree_end_node"*, i8 }>
%"struct.std::__1::__value_type" = type { %"struct.std::__1::pair.144" }
%"struct.std::__1::pair.144" = type { %"class.std::__1::basic_string", %"class.optimization_guide::proto::StoreEntry" }
%"class.base::Location" = type { i8*, i8*, i32, i8* }
%"class.base::OnceCallback.172" = type { %"class.base::internal::CallbackBase" }
%"class.absl::optional.173" = type { %"class.absl::optional_internal::optional_data.174" }
%"class.absl::optional_internal::optional_data.174" = type { %"class.absl::optional_internal::optional_data_base.175" }
%"class.absl::optional_internal::optional_data_base.175" = type { %"class.absl::optional_internal::optional_data_dtor_base.176" }
%"class.absl::optional_internal::optional_data_dtor_base.176" = type { i8, %union.anon.177 }
%union.anon.177 = type { %"class.base::FilePath" }
%"struct.google::protobuf::internal::InternalMetadata::ContainerBase" = type { %"class.google::protobuf::Arena"* }
%"struct.base::internal::BindState.500" = type { %"class.base::internal::BindStateBase", %"class.base::OnceCallback.172", %"class.std::__1::tuple.501" }
%"class.std::__1::tuple.501" = type { %"struct.std::__1::__tuple_impl.502" }
%"struct.std::__1::__tuple_impl.502" = type { %"class.std::__1::__tuple_leaf.503" }
%"class.std::__1::__tuple_leaf.503" = type { %"class.base::FilePath" }
%"struct.base::internal::BindState.466" = type { %"class.base::internal::BindStateBase", i1 (%"class.base::internal::flat_tree"*, %"class.std::__1::basic_string"*)*, %"class.std::__1::tuple.467" }
%"class.std::__1::tuple.467" = type { %"struct.std::__1::__tuple_impl.468" }
%"struct.std::__1::__tuple_impl.468" = type { %"class.std::__1::__tuple_leaf.469" }
%"class.std::__1::__tuple_leaf.469" = type { %"class.base::internal::flat_tree" }
%"struct.std::__1::__tuple_impl.474" = type { %"class.std::__1::__tuple_leaf.428", %"class.std::__1::__tuple_leaf.309", %"class.std::__1::__tuple_leaf.475" }
%"class.std::__1::__tuple_leaf.428" = type { %"class.base::WeakPtr" }
%"class.std::__1::__tuple_leaf.309" = type { %"class.base::OnceCallback" }
%"class.std::__1::__tuple_leaf.475" = type { %"class.base::internal::flat_tree" }
%"class.std::__1::__basic_string_common" = type { i8 }
%"class.base::OnceCallback.147" = type { %"class.base::internal::CallbackBase" }
%"class.std::__1::unique_ptr.148" = type { %"class.std::__1::__compressed_pair.149" }
%"class.std::__1::__compressed_pair.149" = type { %"struct.std::__1::__compressed_pair_elem.150" }
%"struct.std::__1::__compressed_pair_elem.150" = type { %"class.optimization_guide::MemoryHint"* }
%"class.optimization_guide::MemoryHint" = type { %"class.absl::optional.86", %"class.std::__1::unique_ptr.151" }
%"class.std::__1::unique_ptr.151" = type { %"class.std::__1::__compressed_pair.152" }
%"class.std::__1::__compressed_pair.152" = type { %"struct.std::__1::__compressed_pair_elem.153" }
%"struct.std::__1::__compressed_pair_elem.153" = type { %"class.optimization_guide::proto::Hint"* }
%"class.base::OnceCallback.160" = type { %"class.base::internal::CallbackBase" }
%"class.base::OnceCallback.178" = type { %"class.base::internal::CallbackBase" }
%"class.std::__1::unique_ptr.179" = type { %"class.std::__1::__compressed_pair.180" }
%"class.std::__1::__compressed_pair.180" = type { %"struct.std::__1::__compressed_pair_elem.181" }
%"struct.std::__1::__compressed_pair_elem.181" = type { %"class.optimization_guide::proto::PredictionModel"* }
%"class.base::OnceCallback.185" = type { %"class.base::internal::CallbackBase" }
%"class.base::OnceCallback.186" = type { %"class.base::internal::CallbackBase" }
%"class.std::__1::unique_ptr.187" = type { %"class.std::__1::__compressed_pair.188" }
%"class.std::__1::__compressed_pair.188" = type { %"struct.std::__1::__compressed_pair_elem.189" }
%"struct.std::__1::__compressed_pair_elem.189" = type { %"class.std::__1::vector.190"* }
%"class.std::__1::vector.190" = type { %"class.std::__1::__vector_base.191" }
%"class.std::__1::__vector_base.191" = type { %"class.optimization_guide::proto::HostModelFeatures"*, %"class.optimization_guide::proto::HostModelFeatures"*, %"class.std::__1::__compressed_pair.192" }
%"class.std::__1::__compressed_pair.192" = type { %"struct.std::__1::__compressed_pair_elem.193" }
%"struct.std::__1::__compressed_pair_elem.193" = type { %"class.optimization_guide::proto::HostModelFeatures"* }
%"class.base::OnceCallback.200" = type { %"class.base::internal::CallbackBase" }
%"class.std::__1::vector.204" = type { %"class.std::__1::__vector_base.205" }
%"class.std::__1::__vector_base.205" = type { %"class.optimization_guide::proto::StoreEntry"*, %"class.optimization_guide::proto::StoreEntry"*, %"class.std::__1::__compressed_pair.206" }
%"class.std::__1::__compressed_pair.206" = type { %"struct.std::__1::__compressed_pair_elem.163" }
%"struct.std::__1::__compressed_pair_elem.163" = type { %"class.optimization_guide::proto::StoreEntry"* }
%"class.base::OnceCallback.213" = type { %"class.base::internal::CallbackBase" }
%"class.std::__1::unique_ptr.214" = type { %"class.std::__1::__compressed_pair.215" }
%"class.std::__1::__compressed_pair.215" = type { %"struct.std::__1::__compressed_pair_elem.193" }
%"class.leveldb_proto::ProtoDatabaseImpl" = type { %"class.leveldb_proto::ProtoDatabase", i32, %class.scoped_refptr.235, i8, %class.scoped_refptr, %"class.base::FilePath" }
%class.scoped_refptr.235 = type { %"class.leveldb_proto::ProtoDatabaseSelector"* }
%"class.base::OnceCallback.262" = type { %"class.base::internal::CallbackBase" }
%"class.base::OnceCallback.339" = type { %"class.base::internal::CallbackBase" }
%"class.base::OnceCallback.398" = type { %"class.base::internal::CallbackBase" }
%"struct.std::__1::__tuple_impl" = type { %"class.std::__1::__tuple_leaf", %"class.std::__1::__tuple_leaf.264", %"class.std::__1::__tuple_leaf.265", %"class.std::__1::__tuple_leaf.266", %"class.std::__1::__tuple_leaf.267", %"class.std::__1::__tuple_leaf.268", %"class.std::__1::__tuple_leaf.269" }
%"class.std::__1::__tuple_leaf" = type { %class.scoped_refptr.235 }
%"class.std::__1::__tuple_leaf.264" = type { %"class.std::__1::basic_string" }
%"class.std::__1::__tuple_leaf.265" = type { %"class.base::FilePath" }
%"class.std::__1::__tuple_leaf.266" = type { %"struct.leveldb_env::Options" }
%"class.std::__1::__tuple_leaf.267" = type { i8 }
%"class.std::__1::__tuple_leaf.268" = type { %class.scoped_refptr }
%"class.std::__1::__tuple_leaf.269" = type { %"class.base::OnceCallback.81" }
%"struct.std::__1::pair.287" = type { %"class.std::__1::basic_string", %"class.std::__1::basic_string" }
%"class.std::__1::vector.285" = type { %"class.std::__1::__vector_base.286" }
%"class.std::__1::__vector_base.286" = type { %"struct.std::__1::pair.287"*, %"struct.std::__1::pair.287"*, %"class.std::__1::__compressed_pair.288" }
%"class.std::__1::__compressed_pair.288" = type { %"struct.std::__1::__compressed_pair_elem.289" }
%"struct.std::__1::__compressed_pair_elem.289" = type { %"struct.std::__1::pair.287"* }
%"struct.std::__1::__tuple_impl.274" = type { %"class.std::__1::__tuple_leaf.275", %"class.std::__1::__tuple_leaf.276", %"class.std::__1::__tuple_leaf.277", %"class.std::__1::__tuple_leaf.278" }
%"class.std::__1::__tuple_leaf.275" = type { %"class.std::__1::unique_ptr.91" }
%"class.std::__1::__tuple_leaf.276" = type { %"class.std::__1::unique_ptr.138" }
%"class.std::__1::unique_ptr.138" = type { %"class.std::__1::__compressed_pair.139" }
%"class.std::__1::__compressed_pair.139" = type { %"struct.std::__1::__compressed_pair_elem.140" }
%"struct.std::__1::__compressed_pair_elem.140" = type { %"class.std::__1::vector.13"* }
%"class.std::__1::__tuple_leaf.277" = type { %class.scoped_refptr.235 }
%"class.std::__1::__tuple_leaf.278" = type { %"class.base::OnceCallback.122" }
%"class.std::__1::__vector_base_common" = type { i8 }
%"class.logging::CheckError" = type { %"class.logging::LogMessage"* }
%"class.logging::LogMessage" = type { i32 (...)**, i32, %"class.std::__1::basic_ostringstream", i64, i8*, i32, %"class.base::ScopedClearLastErrorBase" }
%"class.std::__1::basic_ostringstream" = type { %"class.std::__1::basic_ostream.base", %"class.std::__1::basic_stringbuf", %"class.std::__1::basic_ios.base" }
%"class.std::__1::basic_ostream.base" = type { i32 (...)** }
%"class.std::__1::basic_stringbuf" = type <{ %"class.std::__1::basic_streambuf", %"class.std::__1::basic_string", i8*, i32, [4 x i8] }>
%"class.std::__1::basic_streambuf" = type { i32 (...)**, %"class.std::__1::locale", i8*, i8*, i8*, i8*, i8*, i8* }
%"class.std::__1::locale" = type { %"class.std::__1::locale::__imp"* }
%"class.std::__1::locale::__imp" = type opaque
%"class.std::__1::basic_ios.base" = type <{ %"class.std::__1::ios_base", %"class.std::__1::basic_ostream"*, i32 }>
%"class.std::__1::ios_base" = type { i32 (...)**, i32, i64, i64, i32, i32, i8*, i8*, void (i32, %"class.std::__1::ios_base"*, i32)**, i32*, i64, i64, i64*, i64, i64, i8**, i64, i64 }
%"class.std::__1::basic_ostream" = type { i32 (...)**, %"class.std::__1::basic_ios.base" }
%"class.base::ScopedClearLastErrorBase" = type { i32 }
%"struct.std::__1::__split_buffer.330" = type { %"class.optimization_guide::proto::StoreEntry"*, %"class.optimization_guide::proto::StoreEntry"*, %"class.optimization_guide::proto::StoreEntry"*, %"class.std::__1::__compressed_pair.331" }
%"class.std::__1::__compressed_pair.331" = type { %"struct.std::__1::__compressed_pair_elem.163", %"struct.std::__1::__compressed_pair_elem.332" }
%"struct.std::__1::__compressed_pair_elem.332" = type { %"class.std::__1::allocator.208"* }
%"class.std::__1::allocator.208" = type { i8 }
%"class.std::__1::unique_ptr.201" = type { %"class.std::__1::__compressed_pair.202" }
%"class.std::__1::__compressed_pair.202" = type { %"struct.std::__1::__compressed_pair_elem.203" }
%"struct.std::__1::__compressed_pair_elem.203" = type { %"class.std::__1::vector.204"* }
%"class.std::__1::map.343" = type { %"class.std::__1::__tree.344" }
%"class.std::__1::__tree.344" = type { %"class.std::__1::__tree_end_node"*, %"class.std::__1::__compressed_pair.345", %"class.std::__1::__compressed_pair.349" }
%"class.std::__1::__compressed_pair.345" = type { %"struct.std::__1::__compressed_pair_elem.128" }
%"class.std::__1::__compressed_pair.349" = type { %"struct.std::__1::__compressed_pair_elem.133" }
%"class.std::__1::__tree_node.371" = type { %"class.std::__1::__tree_node_base.base", %"struct.std::__1::__value_type.370" }
%"struct.std::__1::__value_type.370" = type { %"struct.std::__1::pair.367" }
%"struct.std::__1::pair.367" = type { %"class.std::__1::basic_string", %"class.std::__1::basic_string" }
%"class.std::__1::unique_ptr.340" = type { %"class.std::__1::__compressed_pair.341" }
%"class.std::__1::__compressed_pair.341" = type { %"struct.std::__1::__compressed_pair_elem.342" }
%"struct.std::__1::__compressed_pair_elem.342" = type { %"class.std::__1::map.343"* }
%"class.std::__1::unique_ptr.124" = type { %"class.std::__1::__compressed_pair.125" }
%"class.std::__1::__compressed_pair.125" = type { %"struct.std::__1::__compressed_pair_elem.126" }
%"struct.std::__1::__compressed_pair_elem.126" = type { %"class.std::__1::map"* }
%"class.std::__1::unique_ptr.399" = type { %"class.std::__1::__compressed_pair.400" }
%"class.std::__1::__compressed_pair.400" = type { %"struct.std::__1::__compressed_pair_elem.16" }
%"class.std::__1::unique_ptr.161" = type { %"class.std::__1::__compressed_pair.162" }
%"class.std::__1::__compressed_pair.162" = type { %"struct.std::__1::__compressed_pair_elem.163" }
%"struct.std::__1::__tuple_impl.458" = type { %"class.std::__1::__tuple_leaf.428", %"class.std::__1::__tuple_leaf.459", %"class.std::__1::__tuple_leaf.460", %"class.std::__1::__tuple_leaf.461" }
%"class.std::__1::__tuple_leaf.459" = type { %"class.std::__1::unique_ptr.91" }
%"class.std::__1::__tuple_leaf.460" = type { %"class.std::__1::unique_ptr.138" }
%"class.std::__1::__tuple_leaf.461" = type { %"class.base::OnceCallback" }
%"struct.std::__1::__temp_value" = type { %"struct.std::__1::aligned_storage<24, 8>::type", %"class.std::__1::allocator.18"* }
%"struct.std::__1::aligned_storage<24, 8>::type" = type { [24 x i8] }
%"class.std::__1::allocator.18" = type { i8 }
%"struct.std::__1::__split_buffer.463" = type { %"class.std::__1::basic_string"*, %"class.std::__1::basic_string"*, %"class.std::__1::basic_string"*, %"class.std::__1::__compressed_pair.464" }
%"class.std::__1::__compressed_pair.464" = type { %"struct.std::__1::__compressed_pair_elem.16", %"struct.std::__1::__compressed_pair_elem.465" }
%"struct.std::__1::__compressed_pair_elem.465" = type { %"class.std::__1::allocator.18"* }
%"struct.std::__1::__split_buffer.483" = type { %"struct.std::__1::pair"*, %"struct.std::__1::pair"*, %"struct.std::__1::pair"*, %"class.std::__1::__compressed_pair.484" }
%"class.std::__1::__compressed_pair.484" = type { %"struct.std::__1::__compressed_pair_elem.111", %"struct.std::__1::__compressed_pair_elem.485" }
%"struct.std::__1::__compressed_pair_elem.485" = type { %"class.std::__1::allocator.113"* }
%"class.std::__1::allocator.113" = type { i8 }
%"struct.base::internal::BindState.492" = type { %"class.base::internal::BindStateBase", { i64, i64 }, %"class.std::__1::tuple.493" }
%"class.std::__1::tuple.493" = type { %"struct.std::__1::__tuple_impl.494" }
%"struct.std::__1::__tuple_impl.494" = type { %"class.std::__1::__tuple_leaf.428", %"class.std::__1::__tuple_leaf.495", %"class.std::__1::__tuple_leaf.430" }
%"class.std::__1::__tuple_leaf.495" = type { %"class.std::__1::unique_ptr.10" }
%"class.std::__1::__tuple_leaf.430" = type { %"class.base::OnceCallback" }
%"class.std::__1::unique_ptr.517" = type { %"class.std::__1::__compressed_pair.518" }
%"class.std::__1::__compressed_pair.518" = type { %"struct.std::__1::__compressed_pair_elem.519" }
%"struct.std::__1::__compressed_pair_elem.519" = type { i8* }
%"struct.std::__1::__split_buffer.551" = type { %"class.optimization_guide::proto::HostModelFeatures"*, %"class.optimization_guide::proto::HostModelFeatures"*, %"class.optimization_guide::proto::HostModelFeatures"*, %"class.std::__1::__compressed_pair.552" }
%"class.std::__1::__compressed_pair.552" = type { %"struct.std::__1::__compressed_pair_elem.193", %"struct.std::__1::__compressed_pair_elem.553" }
%"struct.std::__1::__compressed_pair_elem.553" = type { %"class.std::__1::allocator.195"* }
%"class.std::__1::allocator.195" = type { i8 }

$_ZN13leveldb_proto21ProtoDatabaseProvider5GetDBIN18optimization_guide5proto10StoreEntryES4_EENSt3__110unique_ptrINS_13ProtoDatabaseIT_T0_EENS5_14default_deleteISA_EEEENS_11ProtoDbTypeERKN4base8FilePathERK13scoped_refptrINSF_19SequencedTaskRunnerEE = comdat any

$_ZN18optimization_guide5proto10StoreEntry11set_versionEPKc = comdat any

$_ZNK4base8internal9flat_treeINSt3__112basic_stringIcNS2_11char_traitsIcEENS2_9allocatorIcEEEENS_8identityENS2_4lessIvEENS2_6vectorIS8_NS6_IS8_EEEEE11equal_rangeIS8_EENS2_4pairINS2_11__wrap_iterIPKS8_EESL_EERKT_ = comdat any

$_ZN6google8protobuf8internal14ArenaStringPtr14CreateInstanceEPNS0_5ArenaEPKNSt3__112basic_stringIcNS5_11char_traitsIcEENS5_9allocatorIcEEEE = comdat any

$_ZN6google8protobuf8internal21arena_destruct_objectINSt3__112basic_stringIcNS3_11char_traitsIcEENS3_9allocatorIcEEEEEEvPv = comdat any

$_ZN13leveldb_proto17ProtoDatabaseImplIN18optimization_guide5proto10StoreEntryES3_ED2Ev = comdat any

$_ZN13leveldb_proto17ProtoDatabaseImplIN18optimization_guide5proto10StoreEntryES3_ED0Ev = comdat any

$_ZN13leveldb_proto17ProtoDatabaseImplIN18optimization_guide5proto10StoreEntryES3_E4InitEN4base12OnceCallbackIFvNS_5Enums10InitStatusEEEE = comdat any

$_ZN13leveldb_proto17ProtoDatabaseImplIN18optimization_guide5proto10StoreEntryES3_E4InitERKN11leveldb_env7OptionsEN4base12OnceCallbackIFvNS_5Enums10InitStatusEEEE = comdat any

$_ZN13leveldb_proto17ProtoDatabaseImplIN18optimization_guide5proto10StoreEntryES3_E13UpdateEntriesENSt3__110unique_ptrINS5_6vectorINS5_4pairINS5_12basic_stringIcNS5_11char_traitsIcEENS5_9allocatorIcEEEES3_EENSC_ISF_EEEENS5_14default_deleteISH_EEEENS6_INS7_ISE_NSC_ISE_EEEENSI_ISM_EEEEN4base12OnceCallbackIFvbEEE = comdat any

$_ZN13leveldb_proto17ProtoDatabaseImplIN18optimization_guide5proto10StoreEntryES3_E29UpdateEntriesWithRemoveFilterENSt3__110unique_ptrINS5_6vectorINS5_4pairINS5_12basic_stringIcNS5_11char_traitsIcEENS5_9allocatorIcEEEES3_EENSC_ISF_EEEENS5_14default_deleteISH_EEEERKN4base17RepeatingCallbackIFbRKSE_EEENSL_12OnceCallbackIFvbEEE = comdat any

$_ZN13leveldb_proto17ProtoDatabaseImplIN18optimization_guide5proto10StoreEntryES3_E11LoadEntriesEN4base12OnceCallbackIFvbNSt3__110unique_ptrINS7_6vectorIS3_NS7_9allocatorIS3_EEEENS7_14default_deleteISC_EEEEEEE = comdat any

$_ZN13leveldb_proto17ProtoDatabaseImplIN18optimization_guide5proto10StoreEntryES3_E21LoadEntriesWithFilterERKN4base17RepeatingCallbackIFbRKNSt3__112basic_stringIcNS7_11char_traitsIcEENS7_9allocatorIcEEEEEEENS5_12OnceCallbackIFvbNS7_10unique_ptrINS7_6vectorIS3_NSB_IS3_EEEENS7_14default_deleteISO_EEEEEEE = comdat any

$_ZN13leveldb_proto17ProtoDatabaseImplIN18optimization_guide5proto10StoreEntryES3_E21LoadEntriesWithFilterERKN4base17RepeatingCallbackIFbRKNSt3__112basic_stringIcNS7_11char_traitsIcEENS7_9allocatorIcEEEEEEERKN7leveldb11ReadOptionsESF_NS5_12OnceCallbackIFvbNS7_10unique_ptrINS7_6vectorIS3_NSB_IS3_EEEENS7_14default_deleteISS_EEEEEEE = comdat any

$_ZN13leveldb_proto17ProtoDatabaseImplIN18optimization_guide5proto10StoreEntryES3_E18LoadKeysAndEntriesEN4base12OnceCallbackIFvbNSt3__110unique_ptrINS7_3mapINS7_12basic_stringIcNS7_11char_traitsIcEENS7_9allocatorIcEEEES3_NS7_4lessISF_EENSD_INS7_4pairIKSF_S3_EEEEEENS7_14default_deleteISM_EEEEEEE = comdat any

$_ZN13leveldb_proto17ProtoDatabaseImplIN18optimization_guide5proto10StoreEntryES3_E28LoadKeysAndEntriesWithFilterERKN4base17RepeatingCallbackIFbRKNSt3__112basic_stringIcNS7_11char_traitsIcEENS7_9allocatorIcEEEEEEENS5_12OnceCallbackIFvbNS7_10unique_ptrINS7_3mapISD_S3_NS7_4lessISD_EENSB_INS7_4pairISE_S3_EEEEEENS7_14default_deleteISS_EEEEEEE = comdat any

$_ZN13leveldb_proto17ProtoDatabaseImplIN18optimization_guide5proto10StoreEntryES3_E28LoadKeysAndEntriesWithFilterERKN4base17RepeatingCallbackIFbRKNSt3__112basic_stringIcNS7_11char_traitsIcEENS7_9allocatorIcEEEEEEERKN7leveldb11ReadOptionsESF_NS5_12OnceCallbackIFvbNS7_10unique_ptrINS7_3mapISD_S3_NS7_4lessISD_EENSB_INS7_4pairISE_S3_EEEEEENS7_14default_deleteISW_EEEEEEE = comdat any

$_ZN13leveldb_proto17ProtoDatabaseImplIN18optimization_guide5proto10StoreEntryES3_E25LoadKeysAndEntriesInRangeERKNSt3__112basic_stringIcNS5_11char_traitsIcEENS5_9allocatorIcEEEESD_N4base12OnceCallbackIFvbNS5_10unique_ptrINS5_3mapISB_S3_NS5_4lessISB_EENS9_INS5_4pairISC_S3_EEEEEENS5_14default_deleteISN_EEEEEEE = comdat any

$_ZN13leveldb_proto17ProtoDatabaseImplIN18optimization_guide5proto10StoreEntryES3_E8LoadKeysEN4base12OnceCallbackIFvbNSt3__110unique_ptrINS7_6vectorINS7_12basic_stringIcNS7_11char_traitsIcEENS7_9allocatorIcEEEENSD_ISF_EEEENS7_14default_deleteISH_EEEEEEE = comdat any

$_ZN13leveldb_proto17ProtoDatabaseImplIN18optimization_guide5proto10StoreEntryES3_E8GetEntryERKNSt3__112basic_stringIcNS5_11char_traitsIcEENS5_9allocatorIcEEEEN4base12OnceCallbackIFvbNS5_10unique_ptrIS3_NS5_14default_deleteIS3_EEEEEEE = comdat any

$_ZN13leveldb_proto17ProtoDatabaseImplIN18optimization_guide5proto10StoreEntryES3_E7DestroyEN4base12OnceCallbackIFvbEEE = comdat any

$_ZN4base8internal7InvokerINS0_9BindStateIMN13leveldb_proto21ProtoDatabaseSelectorEFvRKNSt3__112basic_stringIcNS5_11char_traitsIcEENS5_9allocatorIcEEEENS_8FilePathERKN11leveldb_env7OptionsEb13scoped_refptrINS_19SequencedTaskRunnerEENS_12OnceCallbackIFvNS3_5Enums10InitStatusEEEEEJSJ_IS4_ESB_SE_SG_bSL_SQ_EEEFvvEE7RunOnceEPNS0_13BindStateBaseE = comdat any

$_ZN4base8internal9BindStateIMN13leveldb_proto21ProtoDatabaseSelectorEFvRKNSt3__112basic_stringIcNS4_11char_traitsIcEENS4_9allocatorIcEEEENS_8FilePathERKN11leveldb_env7OptionsEb13scoped_refptrINS_19SequencedTaskRunnerEENS_12OnceCallbackIFvNS2_5Enums10InitStatusEEEEEJSI_IS3_ESA_SD_SF_bSK_SP_EE7DestroyEPKNS0_13BindStateBaseE = comdat any

$_ZNSt3__112__tuple_implINS_15__tuple_indicesIJLm0ELm1ELm2ELm3ELm4ELm5ELm6EEEEJ13scoped_refptrIN13leveldb_proto21ProtoDatabaseSelectorEENS_12basic_stringIcNS_11char_traitsIcEENS_9allocatorIcEEEEN4base8FilePathEN11leveldb_env7OptionsEbS3_INSD_19SequencedTaskRunnerEENSD_12OnceCallbackIFvNS4_5Enums10InitStatusEEEEEED2Ev = comdat any

$_ZN13leveldb_proto17ProtoDatabaseImplIN18optimization_guide5proto10StoreEntryES3_E15PostTransactionEN4base12OnceCallbackIFvvEEE = comdat any

$_ZN4base8internal7InvokerINS0_9BindStateIPFvNSt3__110unique_ptrINS3_6vectorINS3_4pairINS3_12basic_stringIcNS3_11char_traitsIcEENS3_9allocatorIcEEEEN18optimization_guide5proto10StoreEntryEEENSA_ISG_EEEENS3_14default_deleteISI_EEEENS4_INS5_ISC_NSA_ISC_EEEENSJ_ISN_EEEE13scoped_refptrIN13leveldb_proto21ProtoDatabaseSelectorEENS_12OnceCallbackIFvbEEEEJSL_SP_ST_SW_EEEFvvEE7RunOnceEPNS0_13BindStateBaseE = comdat any

$_ZN4base8internal9BindStateIPFvNSt3__110unique_ptrINS2_6vectorINS2_4pairINS2_12basic_stringIcNS2_11char_traitsIcEENS2_9allocatorIcEEEEN18optimization_guide5proto10StoreEntryEEENS9_ISF_EEEENS2_14default_deleteISH_EEEENS3_INS4_ISB_NS9_ISB_EEEENSI_ISM_EEEE13scoped_refptrIN13leveldb_proto21ProtoDatabaseSelectorEENS_12OnceCallbackIFvbEEEEJSK_SO_SS_SV_EE7DestroyEPKNS0_13BindStateBaseE = comdat any

$_ZNSt3__112__tuple_implINS_15__tuple_indicesIJLm0ELm1ELm2ELm3EEEEJNS_10unique_ptrINS_6vectorINS_4pairINS_12basic_stringIcNS_11char_traitsIcEENS_9allocatorIcEEEEN18optimization_guide5proto10StoreEntryEEENS9_ISF_EEEENS_14default_deleteISH_EEEENS3_INS4_ISB_NS9_ISB_EEEENSI_ISM_EEEE13scoped_refptrIN13leveldb_proto21ProtoDatabaseSelectorEEN4base12OnceCallbackIFvbEEEEED2Ev = comdat any

$_ZNSt3__16vectorINS_4pairINS_12basic_stringIcNS_11char_traitsIcEENS_9allocatorIcEEEES7_EENS5_IS8_EEE21__push_back_slow_pathIS8_EEvOT_ = comdat any

$_ZN4base8internal7InvokerINS0_9BindStateIPFv13scoped_refptrINS_19SequencedTaskRunnerEENS_12OnceCallbackIFvbEEEbEJS5_S8_EEES7_E7RunOnceEPNS0_13BindStateBaseEb = comdat any

$_ZN4base8internal9BindStateIPFv13scoped_refptrINS_19SequencedTaskRunnerEENS_12OnceCallbackIFvbEEEbEJS4_S7_EE7DestroyEPKNS0_13BindStateBaseE = comdat any

$_ZN4base8internal7InvokerINS0_9BindStateIMN13leveldb_proto21ProtoDatabaseSelectorEFvNS_12OnceCallbackIFvvEEEEJ13scoped_refptrIS4_ES7_EEES6_E7RunOnceEPNS0_13BindStateBaseE = comdat any

$_ZN4base8internal9BindStateIMN13leveldb_proto21ProtoDatabaseSelectorEFvNS_12OnceCallbackIFvvEEEEJ13scoped_refptrIS3_ES6_EE7DestroyEPKNS0_13BindStateBaseE = comdat any

$_ZN4base8internal7InvokerINS0_9BindStateIPFvNSt3__110unique_ptrINS3_6vectorINS3_4pairINS3_12basic_stringIcNS3_11char_traitsIcEENS3_9allocatorIcEEEEN18optimization_guide5proto10StoreEntryEEENSA_ISG_EEEENS3_14default_deleteISI_EEEERKNS_17RepeatingCallbackIFbRKSC_EEE13scoped_refptrIN13leveldb_proto21ProtoDatabaseSelectorEENS_12OnceCallbackIFvbEEEEJSL_SQ_SW_SZ_EEEFvvEE7RunOnceEPNS0_13BindStateBaseE = comdat any

$_ZN4base8internal9BindStateIPFvNSt3__110unique_ptrINS2_6vectorINS2_4pairINS2_12basic_stringIcNS2_11char_traitsIcEENS2_9allocatorIcEEEEN18optimization_guide5proto10StoreEntryEEENS9_ISF_EEEENS2_14default_deleteISH_EEEERKNS_17RepeatingCallbackIFbRKSB_EEE13scoped_refptrIN13leveldb_proto21ProtoDatabaseSelectorEENS_12OnceCallbackIFvbEEEEJSK_SP_SV_SY_EE7DestroyEPKNS0_13BindStateBaseE = comdat any

$_ZN4base8internal7InvokerINS0_9BindStateIMN13leveldb_proto21ProtoDatabaseSelectorEFvRKNS_17RepeatingCallbackIFbRKNSt3__112basic_stringIcNS6_11char_traitsIcEENS6_9allocatorIcEEEEEEERKN7leveldb11ReadOptionsESE_NS_12OnceCallbackIFvbNS6_10unique_ptrINS6_6vectorISC_NSA_ISC_EEEENS6_14default_deleteISR_EEEEEEEEJ13scoped_refptrIS4_ESG_SK_SC_SW_EEEFvvEE7RunOnceEPNS0_13BindStateBaseE = comdat any

$_ZN4base8internal9BindStateIMN13leveldb_proto21ProtoDatabaseSelectorEFvRKNS_17RepeatingCallbackIFbRKNSt3__112basic_stringIcNS5_11char_traitsIcEENS5_9allocatorIcEEEEEEERKN7leveldb11ReadOptionsESD_NS_12OnceCallbackIFvbNS5_10unique_ptrINS5_6vectorISB_NS9_ISB_EEEENS5_14default_deleteISQ_EEEEEEEEJ13scoped_refptrIS3_ESF_SJ_SB_SV_EE7DestroyEPKNS0_13BindStateBaseE = comdat any

$_ZN4base8internal7InvokerINS0_9BindStateIPFv13scoped_refptrINS_19SequencedTaskRunnerEENS_12OnceCallbackIFvbNSt3__110unique_ptrINS7_6vectorIN18optimization_guide5proto10StoreEntryENS7_9allocatorISC_EEEENS7_14default_deleteISF_EEEEEEEbNS8_INS9_INS7_12basic_stringIcNS7_11char_traitsIcEENSD_IcEEEENSD_ISP_EEEENSG_ISR_EEEEEJS5_SK_EEEFvbST_EE7RunOnceEPNS0_13BindStateBaseEbOST_ = comdat any

$_ZN4base8internal9BindStateIPFv13scoped_refptrINS_19SequencedTaskRunnerEENS_12OnceCallbackIFvbNSt3__110unique_ptrINS6_6vectorIN18optimization_guide5proto10StoreEntryENS6_9allocatorISB_EEEENS6_14default_deleteISE_EEEEEEEbNS7_INS8_INS6_12basic_stringIcNS6_11char_traitsIcEENSC_IcEEEENSC_ISO_EEEENSF_ISQ_EEEEEJS4_SJ_EE7DestroyEPKNS0_13BindStateBaseE = comdat any

$_ZNSt3__16vectorIN18optimization_guide5proto10StoreEntryENS_9allocatorIS3_EEE24__emplace_back_slow_pathIJS3_EEEvDpOT_ = comdat any

$_ZNSt3__16vectorIN18optimization_guide5proto10StoreEntryENS_9allocatorIS3_EEE26__swap_out_circular_bufferERNS_14__split_bufferIS3_RS5_EE = comdat any

$_ZN4base8internal7InvokerINS0_9BindStateINS_12OnceCallbackIFvbNSt3__110unique_ptrINS4_6vectorIN18optimization_guide5proto10StoreEntryENS4_9allocatorIS9_EEEENS4_14default_deleteISC_EEEEEEEJbSF_EEEFvvEE7RunOnceEPNS0_13BindStateBaseE = comdat any

$_ZN4base8internal13FunctorTraitsINS_12OnceCallbackIFvbNSt3__110unique_ptrINS3_6vectorIN18optimization_guide5proto10StoreEntryENS3_9allocatorIS8_EEEENS3_14default_deleteISB_EEEEEEEvE6InvokeISG_JbSE_EEEvOT_DpOT0_ = comdat any

$_ZN4base8internal9BindStateINS_12OnceCallbackIFvbNSt3__110unique_ptrINS3_6vectorIN18optimization_guide5proto10StoreEntryENS3_9allocatorIS8_EEEENS3_14default_deleteISB_EEEEEEEJbSE_EE7DestroyEPKNS0_13BindStateBaseE = comdat any

$_ZN4base8internal23QueryCancellationTraitsINS0_9BindStateINS_12OnceCallbackIFvbNSt3__110unique_ptrINS4_6vectorIN18optimization_guide5proto10StoreEntryENS4_9allocatorIS9_EEEENS4_14default_deleteISC_EEEEEEEJbSF_EEEEEbPKNS0_13BindStateBaseENSJ_21CancellationQueryModeE = comdat any

$_ZN4base8internal7InvokerINS0_9BindStateIMN13leveldb_proto21ProtoDatabaseSelectorEFvRKNS_17RepeatingCallbackIFbRKNSt3__112basic_stringIcNS6_11char_traitsIcEENS6_9allocatorIcEEEEEEERKN7leveldb11ReadOptionsESE_NS_12OnceCallbackIFvbNS6_10unique_ptrINS6_3mapISC_SC_NS6_4lessISC_EENSA_INS6_4pairISD_SC_EEEEEENS6_14default_deleteISV_EEEEEEEEJ13scoped_refptrIS4_ESG_SK_SC_S10_EEEFvvEE7RunOnceEPNS0_13BindStateBaseE = comdat any

$_ZN4base8internal9BindStateIMN13leveldb_proto21ProtoDatabaseSelectorEFvRKNS_17RepeatingCallbackIFbRKNSt3__112basic_stringIcNS5_11char_traitsIcEENS5_9allocatorIcEEEEEEERKN7leveldb11ReadOptionsESD_NS_12OnceCallbackIFvbNS5_10unique_ptrINS5_3mapISB_SB_NS5_4lessISB_EENS9_INS5_4pairISC_SB_EEEEEENS5_14default_deleteISU_EEEEEEEEJ13scoped_refptrIS3_ESF_SJ_SB_SZ_EE7DestroyEPKNS0_13BindStateBaseE = comdat any

$_ZN4base8internal7InvokerINS0_9BindStateIPFv13scoped_refptrINS_19SequencedTaskRunnerEENS_12OnceCallbackIFvbNSt3__110unique_ptrINS7_3mapINS7_12basic_stringIcNS7_11char_traitsIcEENS7_9allocatorIcEEEEN18optimization_guide5proto10StoreEntryENS7_4lessISF_EENSD_INS7_4pairIKSF_SI_EEEEEENS7_14default_deleteISP_EEEEEEEbNS8_INS9_ISF_SF_SK_NSD_INSL_ISM_SF_EEEEEENSQ_ISX_EEEEEJS5_SU_EEEFvbSZ_EE7RunOnceEPNS0_13BindStateBaseEbOSZ_ = comdat any

$_ZN4base8internal9BindStateIPFv13scoped_refptrINS_19SequencedTaskRunnerEENS_12OnceCallbackIFvbNSt3__110unique_ptrINS6_3mapINS6_12basic_stringIcNS6_11char_traitsIcEENS6_9allocatorIcEEEEN18optimization_guide5proto10StoreEntryENS6_4lessISE_EENSC_INS6_4pairIKSE_SH_EEEEEENS6_14default_deleteISO_EEEEEEEbNS7_INS8_ISE_SE_SJ_NSC_INSK_ISL_SE_EEEEEENSP_ISW_EEEEEJS4_ST_EE7DestroyEPKNS0_13BindStateBaseE = comdat any

$_ZNSt3__16__treeINS_12__value_typeINS_12basic_stringIcNS_11char_traitsIcEENS_9allocatorIcEEEEN18optimization_guide5proto10StoreEntryEEENS_19__map_value_compareIS7_SB_NS_4lessIS7_EELb1EEENS5_ISB_EEE7destroyEPNS_11__tree_nodeISB_PvEE = comdat any

$_ZNSt3__16__treeINS_12__value_typeINS_12basic_stringIcNS_11char_traitsIcEENS_9allocatorIcEEEEN18optimization_guide5proto10StoreEntryEEENS_19__map_value_compareIS7_SB_NS_4lessIS7_EELb1EEENS5_ISB_EEE16__emplace_uniqueIRKS7_SA_EENS_9enable_ifIXsr21__can_extract_map_keyIT_S7_NS_4pairISJ_SA_EEEE5valueENSN_INS_15__tree_iteratorISB_PNS_11__tree_nodeISB_PvEElEEbEEE4typeEOSM_OT0_ = comdat any

$_ZNSt3__16__treeINS_12__value_typeINS_12basic_stringIcNS_11char_traitsIcEENS_9allocatorIcEEEEN18optimization_guide5proto10StoreEntryEEENS_19__map_value_compareIS7_SB_NS_4lessIS7_EELb1EEENS5_ISB_EEE12__find_equalIS7_EERPNS_16__tree_node_baseIPvEERPNS_15__tree_end_nodeISM_EERKT_ = comdat any

$_ZNSt3__14pairIKNS_12basic_stringIcNS_11char_traitsIcEENS_9allocatorIcEEEEN18optimization_guide5proto10StoreEntryEEC2IRS7_SA_Lb0EEEOT_OT0_ = comdat any

$_ZNSt3__127__tree_balance_after_insertIPNS_16__tree_node_baseIPvEEEEvT_S5_ = comdat any

$_ZN4base8internal7InvokerINS0_9BindStateINS_12OnceCallbackIFvbNSt3__110unique_ptrINS4_3mapINS4_12basic_stringIcNS4_11char_traitsIcEENS4_9allocatorIcEEEEN18optimization_guide5proto10StoreEntryENS4_4lessISC_EENSA_INS4_4pairIKSC_SF_EEEEEENS4_14default_deleteISM_EEEEEEEJbSP_EEEFvvEE7RunOnceEPNS0_13BindStateBaseE = comdat any

$_ZN4base8internal9BindStateINS_12OnceCallbackIFvbNSt3__110unique_ptrINS3_3mapINS3_12basic_stringIcNS3_11char_traitsIcEENS3_9allocatorIcEEEEN18optimization_guide5proto10StoreEntryENS3_4lessISB_EENS9_INS3_4pairIKSB_SE_EEEEEENS3_14default_deleteISL_EEEEEEEJbSO_EE7DestroyEPKNS0_13BindStateBaseE = comdat any

$_ZN4base8internal23QueryCancellationTraitsINS0_9BindStateINS_12OnceCallbackIFvbNSt3__110unique_ptrINS4_3mapINS4_12basic_stringIcNS4_11char_traitsIcEENS4_9allocatorIcEEEEN18optimization_guide5proto10StoreEntryENS4_4lessISC_EENSA_INS4_4pairIKSC_SF_EEEEEENS4_14default_deleteISM_EEEEEEEJbSP_EEEEEbPKNS0_13BindStateBaseENST_21CancellationQueryModeE = comdat any

$_ZNSt3__16__treeINS_12__value_typeINS_12basic_stringIcNS_11char_traitsIcEENS_9allocatorIcEEEES7_EENS_19__map_value_compareIS7_S8_NS_4lessIS7_EELb1EEENS5_IS8_EEE7destroyEPNS_11__tree_nodeIS8_PvEE = comdat any

$_ZN4base8internal7InvokerINS0_9BindStateIMN13leveldb_proto21ProtoDatabaseSelectorEFvRKNSt3__112basic_stringIcNS5_11char_traitsIcEENS5_9allocatorIcEEEESD_NS_12OnceCallbackIFvbNS5_10unique_ptrINS5_3mapISB_SB_NS5_4lessISB_EENS9_INS5_4pairISC_SB_EEEEEENS5_14default_deleteISM_EEEEEEEEJ13scoped_refptrIS4_ESB_SB_SR_EEEFvvEE7RunOnceEPNS0_13BindStateBaseE = comdat any

$_ZN4base8internal9BindStateIMN13leveldb_proto21ProtoDatabaseSelectorEFvRKNSt3__112basic_stringIcNS4_11char_traitsIcEENS4_9allocatorIcEEEESC_NS_12OnceCallbackIFvbNS4_10unique_ptrINS4_3mapISA_SA_NS4_4lessISA_EENS8_INS4_4pairISB_SA_EEEEEENS4_14default_deleteISL_EEEEEEEEJ13scoped_refptrIS3_ESA_SA_SQ_EE7DestroyEPKNS0_13BindStateBaseE = comdat any

$_ZN4base8internal7InvokerINS0_9BindStateIMN13leveldb_proto21ProtoDatabaseSelectorEFvNS_12OnceCallbackIFvbNSt3__110unique_ptrINS6_6vectorINS6_12basic_stringIcNS6_11char_traitsIcEENS6_9allocatorIcEEEENSC_ISE_EEEENS6_14default_deleteISG_EEEEEEEEJ13scoped_refptrIS4_ESL_EEEFvvEE7RunOnceEPNS0_13BindStateBaseE = comdat any

$_ZN4base8internal9BindStateIMN13leveldb_proto21ProtoDatabaseSelectorEFvNS_12OnceCallbackIFvbNSt3__110unique_ptrINS5_6vectorINS5_12basic_stringIcNS5_11char_traitsIcEENS5_9allocatorIcEEEENSB_ISD_EEEENS5_14default_deleteISF_EEEEEEEEJ13scoped_refptrIS3_ESK_EE7DestroyEPKNS0_13BindStateBaseE = comdat any

$_ZN4base8internal7InvokerINS0_9BindStateIPFv13scoped_refptrINS_19SequencedTaskRunnerEENS_12OnceCallbackIFvbNSt3__110unique_ptrINS7_6vectorINS7_12basic_stringIcNS7_11char_traitsIcEENS7_9allocatorIcEEEENSD_ISF_EEEENS7_14default_deleteISH_EEEEEEEbSK_EJS5_SM_EEESL_E7RunOnceEPNS0_13BindStateBaseEbOSK_ = comdat any

$_ZN4base8internal9BindStateIPFv13scoped_refptrINS_19SequencedTaskRunnerEENS_12OnceCallbackIFvbNSt3__110unique_ptrINS6_6vectorINS6_12basic_stringIcNS6_11char_traitsIcEENS6_9allocatorIcEEEENSC_ISE_EEEENS6_14default_deleteISG_EEEEEEEbSJ_EJS4_SL_EE7DestroyEPKNS0_13BindStateBaseE = comdat any

$_ZN4base8internal7InvokerINS0_9BindStateIMN13leveldb_proto21ProtoDatabaseSelectorEFvRKNSt3__112basic_stringIcNS5_11char_traitsIcEENS5_9allocatorIcEEEENS_12OnceCallbackIFvbNS5_10unique_ptrISB_NS5_14default_deleteISB_EEEEEEEEJ13scoped_refptrIS4_ESB_SK_EEEFvvEE7RunOnceEPNS0_13BindStateBaseE = comdat any

$_ZN4base8internal9BindStateIMN13leveldb_proto21ProtoDatabaseSelectorEFvRKNSt3__112basic_stringIcNS4_11char_traitsIcEENS4_9allocatorIcEEEENS_12OnceCallbackIFvbNS4_10unique_ptrISA_NS4_14default_deleteISA_EEEEEEEEJ13scoped_refptrIS3_ESA_SJ_EE7DestroyEPKNS0_13BindStateBaseE = comdat any

$_ZN4base8internal7InvokerINS0_9BindStateIPFv13scoped_refptrINS_19SequencedTaskRunnerEENS_12OnceCallbackIFvbNSt3__110unique_ptrIN18optimization_guide5proto10StoreEntryENS7_14default_deleteISB_EEEEEEEbNS8_INS7_12basic_stringIcNS7_11char_traitsIcEENS7_9allocatorIcEEEENSC_ISM_EEEEEJS5_SG_EEEFvbSO_EE7RunOnceEPNS0_13BindStateBaseEbOSO_ = comdat any

$_ZN4base8internal9BindStateIPFv13scoped_refptrINS_19SequencedTaskRunnerEENS_12OnceCallbackIFvbNSt3__110unique_ptrIN18optimization_guide5proto10StoreEntryENS6_14default_deleteISA_EEEEEEEbNS7_INS6_12basic_stringIcNS6_11char_traitsIcEENS6_9allocatorIcEEEENSB_ISL_EEEEEJS4_SF_EE7DestroyEPKNS0_13BindStateBaseE = comdat any

$_ZN4base8internal7InvokerINS0_9BindStateINS_12OnceCallbackIFvbNSt3__110unique_ptrIN18optimization_guide5proto10StoreEntryENS4_14default_deleteIS8_EEEEEEEJbSB_EEEFvvEE7RunOnceEPNS0_13BindStateBaseE = comdat any

$_ZN4base8internal9BindStateINS_12OnceCallbackIFvbNSt3__110unique_ptrIN18optimization_guide5proto10StoreEntryENS3_14default_deleteIS7_EEEEEEEJbSA_EE7DestroyEPKNS0_13BindStateBaseE = comdat any

$_ZN4base8internal23QueryCancellationTraitsINS0_9BindStateINS_12OnceCallbackIFvbNSt3__110unique_ptrIN18optimization_guide5proto10StoreEntryENS4_14default_deleteIS8_EEEEEEEJbSB_EEEEEbPKNS0_13BindStateBaseENSF_21CancellationQueryModeE = comdat any

$_ZN4base8internal7InvokerINS0_9BindStateIMN13leveldb_proto21ProtoDatabaseSelectorEFvNS_12OnceCallbackIFvbEEEEJ13scoped_refptrIS4_ES7_EEEFvvEE7RunOnceEPNS0_13BindStateBaseE = comdat any

$_ZN4base8internal9BindStateIMN13leveldb_proto21ProtoDatabaseSelectorEFvNS_12OnceCallbackIFvbEEEEJ13scoped_refptrIS3_ES6_EE7DestroyEPKNS0_13BindStateBaseE = comdat any

$_ZN4base8internal7InvokerINS0_9BindStateIMN18optimization_guide22OptimizationGuideStoreEFvbNS_12OnceCallbackIFvvEEEN13leveldb_proto5Enums10InitStatusEEJNS_7WeakPtrIS4_EEbS7_EEEFvSA_EE7RunOnceEPNS0_13BindStateBaseESA_ = comdat any

$_ZN4base8internal13FunctorTraitsIMN18optimization_guide22OptimizationGuideStoreEFvbNS_12OnceCallbackIFvvEEEN13leveldb_proto5Enums10InitStatusEEvE6InvokeISB_NS_7WeakPtrIS3_EEJbS6_S9_EEEvT_OT0_DpOT1_ = comdat any

$_ZN4base8internal9BindStateIMN18optimization_guide22OptimizationGuideStoreEFvbNS_12OnceCallbackIFvvEEEN13leveldb_proto5Enums10InitStatusEEJNS_7WeakPtrIS3_EEbS6_EE7DestroyEPKNS0_13BindStateBaseE = comdat any

$_ZN4base8internal23QueryCancellationTraitsINS0_9BindStateIMN18optimization_guide22OptimizationGuideStoreEFvbNS_12OnceCallbackIFvvEEEN13leveldb_proto5Enums10InitStatusEEJNS_7WeakPtrIS4_EEbS7_EEEEEbPKNS0_13BindStateBaseENSG_21CancellationQueryModeE = comdat any

$_ZN4base8internal7InvokerINS0_9BindStateIMN18optimization_guide22OptimizationGuideStoreEFvNS_12OnceCallbackIFvvEEEbEJNS_7WeakPtrIS4_EES7_EEEFvbEE7RunOnceEPNS0_13BindStateBaseEb = comdat any

$_ZN4base8internal13FunctorTraitsIMN18optimization_guide22OptimizationGuideStoreEFvNS_12OnceCallbackIFvvEEEbEvE6InvokeIS8_NS_7WeakPtrIS3_EEJS6_bEEEvT_OT0_DpOT1_ = comdat any

$_ZN4base8internal9BindStateIMN18optimization_guide22OptimizationGuideStoreEFvNS_12OnceCallbackIFvvEEEbEJNS_7WeakPtrIS3_EES6_EE7DestroyEPKNS0_13BindStateBaseE = comdat any

$_ZN4base8internal23QueryCancellationTraitsINS0_9BindStateIMN18optimization_guide22OptimizationGuideStoreEFvNS_12OnceCallbackIFvvEEEbEJNS_7WeakPtrIS4_EES7_EEEEEbPKNS0_13BindStateBaseENSD_21CancellationQueryModeE = comdat any

$_ZN4base8internal7InvokerINS0_9BindStateIPFbRKNSt3__112basic_stringIcNS3_11char_traitsIcEENS3_9allocatorIcEEEESB_EJS9_EEEFbSB_EE3RunEPNS0_13BindStateBaseESB_ = comdat any

$_ZN4base8internal9BindStateIPFbRKNSt3__112basic_stringIcNS2_11char_traitsIcEENS2_9allocatorIcEEEESA_EJS8_EE7DestroyEPKNS0_13BindStateBaseE = comdat any

$_ZN4base8internal7InvokerINS0_9BindStateIMN18optimization_guide22OptimizationGuideStoreEFvbNSt3__110unique_ptrINS5_3mapINS5_12basic_stringIcNS5_11char_traitsIcEENS5_9allocatorIcEEEENS3_5proto10StoreEntryENS5_4lessISD_EENSB_INS5_4pairIKSD_SF_EEEEEENS5_14default_deleteISM_EEEEEJNS_7WeakPtrIS4_EEEEEFvbSP_EE7RunOnceEPNS0_13BindStateBaseEbOSP_ = comdat any

$_ZN4base8internal9BindStateIMN18optimization_guide22OptimizationGuideStoreEFvbNSt3__110unique_ptrINS4_3mapINS4_12basic_stringIcNS4_11char_traitsIcEENS4_9allocatorIcEEEENS2_5proto10StoreEntryENS4_4lessISC_EENSA_INS4_4pairIKSC_SE_EEEEEENS4_14default_deleteISL_EEEEEJNS_7WeakPtrIS3_EEEE7DestroyEPKNS0_13BindStateBaseE = comdat any

$_ZN4base8internal23QueryCancellationTraitsINS0_9BindStateIMN18optimization_guide22OptimizationGuideStoreEFvbNSt3__110unique_ptrINS5_3mapINS5_12basic_stringIcNS5_11char_traitsIcEENS5_9allocatorIcEEEENS3_5proto10StoreEntryENS5_4lessISD_EENSB_INS5_4pairIKSD_SF_EEEEEENS5_14default_deleteISM_EEEEEJNS_7WeakPtrIS4_EEEEEEEbPKNS0_13BindStateBaseENSV_21CancellationQueryModeE = comdat any

$_ZN4base8internal7InvokerINS0_9BindStateIZNS_9DoNothing4OnceIJEEENS_12OnceCallbackIFvDpT_EEEvEUlvE_JEEEFvvEE7RunOnceEPNS0_13BindStateBaseE = comdat any

$_ZN4base8internal9BindStateIZNS_9DoNothing4OnceIJEEENS_12OnceCallbackIFvDpT_EEEvEUlvE_JEE7DestroyEPKNS0_13BindStateBaseE = comdat any

$_ZN4base8internal7InvokerINS0_9BindStateIMN18optimization_guide22OptimizationGuideStoreEFvNSt3__110unique_ptrINS5_6vectorINS5_4pairINS5_12basic_stringIcNS5_11char_traitsIcEENS5_9allocatorIcEEEENS3_5proto10StoreEntryEEENSC_ISH_EEEENS5_14default_deleteISJ_EEEENS6_INS7_ISE_NSC_ISE_EEEENSK_ISO_EEEENS_12OnceCallbackIFvvEEEbNS6_INS5_3mapISE_SG_NS5_4lessISE_EENSC_INS8_IKSE_SG_EEEEEENSK_IS10_EEEEEJNS_7WeakPtrIS4_EESM_SQ_ST_EEEFvbS12_EE7RunOnceEPNS0_13BindStateBaseEbOS12_ = comdat any

$_ZN4base8internal13FunctorTraitsIMN18optimization_guide22OptimizationGuideStoreEFvNSt3__110unique_ptrINS4_6vectorINS4_4pairINS4_12basic_stringIcNS4_11char_traitsIcEENS4_9allocatorIcEEEENS2_5proto10StoreEntryEEENSB_ISG_EEEENS4_14default_deleteISI_EEEENS5_INS6_ISD_NSB_ISD_EEEENSJ_ISN_EEEENS_12OnceCallbackIFvvEEEbNS5_INS4_3mapISD_SF_NS4_4lessISD_EENSB_INS7_IKSD_SF_EEEEEENSJ_ISZ_EEEEEvE6InvokeIS13_NS_7WeakPtrIS3_EEJSL_SP_SS_bS11_EEEvT_OT0_DpOT1_ = comdat any

$_ZN4base8internal9BindStateIMN18optimization_guide22OptimizationGuideStoreEFvNSt3__110unique_ptrINS4_6vectorINS4_4pairINS4_12basic_stringIcNS4_11char_traitsIcEENS4_9allocatorIcEEEENS2_5proto10StoreEntryEEENSB_ISG_EEEENS4_14default_deleteISI_EEEENS5_INS6_ISD_NSB_ISD_EEEENSJ_ISN_EEEENS_12OnceCallbackIFvvEEEbNS5_INS4_3mapISD_SF_NS4_4lessISD_EENSB_INS7_IKSD_SF_EEEEEENSJ_ISZ_EEEEEJNS_7WeakPtrIS3_EESL_SP_SS_EE7DestroyEPKNS0_13BindStateBaseE = comdat any

$_ZN4base8internal23QueryCancellationTraitsINS0_9BindStateIMN18optimization_guide22OptimizationGuideStoreEFvNSt3__110unique_ptrINS5_6vectorINS5_4pairINS5_12basic_stringIcNS5_11char_traitsIcEENS5_9allocatorIcEEEENS3_5proto10StoreEntryEEENSC_ISH_EEEENS5_14default_deleteISJ_EEEENS6_INS7_ISE_NSC_ISE_EEEENSK_ISO_EEEENS_12OnceCallbackIFvvEEEbNS6_INS5_3mapISE_SG_NS5_4lessISE_EENSC_INS8_IKSE_SG_EEEEEENSK_IS10_EEEEEJNS_7WeakPtrIS4_EESM_SQ_ST_EEEEEbPKNS0_13BindStateBaseENS18_21CancellationQueryModeE = comdat any

$_ZNSt3__112__tuple_implINS_15__tuple_indicesIJLm0ELm1ELm2ELm3EEEEJN4base7WeakPtrIN18optimization_guide22OptimizationGuideStoreEEENS_10unique_ptrINS_6vectorINS_4pairINS_12basic_stringIcNS_11char_traitsIcEENS_9allocatorIcEEEENS5_5proto10StoreEntryEEENSE_ISJ_EEEENS_14default_deleteISL_EEEENS8_INS9_ISG_NSE_ISG_EEEENSM_ISQ_EEEENS3_12OnceCallbackIFvvEEEEED2Ev = comdat any

$_ZN4base8internal9flat_treeINSt3__112basic_stringIcNS2_11char_traitsIcEENS2_9allocatorIcEEEENS_8identityENS2_4lessIvEENS2_6vectorIS8_NS6_IS8_EEEEE16emplace_key_argsIS8_JRKS8_EEENS2_4pairINS2_11__wrap_iterIPS8_EEbEERKT_DpOT0_ = comdat any

$_ZNSt3__16vectorINS_12basic_stringIcNS_11char_traitsIcEENS_9allocatorIcEEEENS4_IS6_EEE7emplaceIJRKS6_EEENS_11__wrap_iterIPS6_EENSC_IPSA_EEDpOT_ = comdat any

$_ZNSt3__114__split_bufferINS_12basic_stringIcNS_11char_traitsIcEENS_9allocatorIcEEEERNS4_IS6_EEE12emplace_backIJRKS6_EEEvDpOT_ = comdat any

$_ZN4base8internal7InvokerINS0_9BindStateIPFbRKNS0_9flat_treeINSt3__112basic_stringIcNS4_11char_traitsIcEENS4_9allocatorIcEEEENS_8identityENS4_4lessIvEENS4_6vectorISA_NS8_ISA_EEEEEERKSA_EJSH_EEEFbSL_EE3RunEPNS0_13BindStateBaseESL_ = comdat any

$_ZN4base8internal9BindStateIPFbRKNS0_9flat_treeINSt3__112basic_stringIcNS3_11char_traitsIcEENS3_9allocatorIcEEEENS_8identityENS3_4lessIvEENS3_6vectorIS9_NS7_IS9_EEEEEERKS9_EJSG_EE7DestroyEPKNS0_13BindStateBaseE = comdat any

$_ZN4base8internal9BindStateIPFbRKNS0_9flat_treeINSt3__112basic_stringIcNS3_11char_traitsIcEENS3_9allocatorIcEEEENS_8identityENS3_4lessIvEENS3_6vectorIS9_NS7_IS9_EEEEEERKS9_EJSG_EEC2ISM_JRSG_EEENS3_17integral_constantIbLb0EEEPFvvEOT_DpOT0_ = comdat any

$_ZN4base8internal7InvokerINS0_9BindStateIMN18optimization_guide22OptimizationGuideStoreEFvNS_12OnceCallbackIFvvEEERKNS0_9flat_treeINSt3__112basic_stringIcNS9_11char_traitsIcEENS9_9allocatorIcEEEENS_8identityENS9_4lessIvEENS9_6vectorISF_NSD_ISF_EEEEEEbEJNS_7WeakPtrIS4_EES7_SM_EEEFvbEE7RunOnceEPNS0_13BindStateBaseEb = comdat any

$_ZN4base8internal13FunctorTraitsIMN18optimization_guide22OptimizationGuideStoreEFvNS_12OnceCallbackIFvvEEERKNS0_9flat_treeINSt3__112basic_stringIcNS8_11char_traitsIcEENS8_9allocatorIcEEEENS_8identityENS8_4lessIvEENS8_6vectorISE_NSC_ISE_EEEEEEbEvE6InvokeISP_NS_7WeakPtrIS3_EEJS6_SL_bEEEvT_OT0_DpOT1_ = comdat any

$_ZN4base8internal9BindStateIMN18optimization_guide22OptimizationGuideStoreEFvNS_12OnceCallbackIFvvEEERKNS0_9flat_treeINSt3__112basic_stringIcNS8_11char_traitsIcEENS8_9allocatorIcEEEENS_8identityENS8_4lessIvEENS8_6vectorISE_NSC_ISE_EEEEEEbEJNS_7WeakPtrIS3_EES6_SL_EE7DestroyEPKNS0_13BindStateBaseE = comdat any

$_ZN4base8internal23QueryCancellationTraitsINS0_9BindStateIMN18optimization_guide22OptimizationGuideStoreEFvNS_12OnceCallbackIFvvEEERKNS0_9flat_treeINSt3__112basic_stringIcNS9_11char_traitsIcEENS9_9allocatorIcEEEENS_8identityENS9_4lessIvEENS9_6vectorISF_NSD_ISF_EEEEEEbEJNS_7WeakPtrIS4_EES7_SM_EEEEEbPKNS0_13BindStateBaseENSU_21CancellationQueryModeE = comdat any

$_ZNSt3__112__tuple_implINS_15__tuple_indicesIJLm0ELm1ELm2EEEEJN4base7WeakPtrIN18optimization_guide22OptimizationGuideStoreEEENS3_12OnceCallbackIFvvEEENS3_8internal9flat_treeINS_12basic_stringIcNS_11char_traitsIcEENS_9allocatorIcEEEENS3_8identityENS_4lessIvEENS_6vectorISI_NSG_ISI_EEEEEEEEC2IJLm0ELm1ELm2EEJS7_SA_SP_EJEJEJS7_SA_RSP_EEENS1_IJXspT_EEEENS_13__tuple_typesIJDpT0_EEENS1_IJXspT1_EEEENSU_IJDpT2_EEEDpOT3_ = comdat any

$_ZN4base8internal7InvokerINS0_9BindStateIMN18optimization_guide22OptimizationGuideStoreEFvRKNSt3__112basic_stringIcNS5_11char_traitsIcEENS5_9allocatorIcEEEENS_12OnceCallbackIFvSD_NS5_10unique_ptrINS3_10MemoryHintENS5_14default_deleteISG_EEEEEEEbNSF_INS3_5proto10StoreEntryENSH_ISN_EEEEEJNS_7WeakPtrIS4_EESB_SL_EEEFvbSP_EE7RunOnceEPNS0_13BindStateBaseEbOSP_ = comdat any

$_ZN4base8internal13FunctorTraitsIMN18optimization_guide22OptimizationGuideStoreEFvRKNSt3__112basic_stringIcNS4_11char_traitsIcEENS4_9allocatorIcEEEENS_12OnceCallbackIFvSC_NS4_10unique_ptrINS2_10MemoryHintENS4_14default_deleteISF_EEEEEEEbNSE_INS2_5proto10StoreEntryENSG_ISM_EEEEEvE6InvokeISQ_NS_7WeakPtrIS3_EEJSA_SK_bSO_EEEvT_OT0_DpOT1_ = comdat any

$_ZN4base8internal9BindStateIMN18optimization_guide22OptimizationGuideStoreEFvRKNSt3__112basic_stringIcNS4_11char_traitsIcEENS4_9allocatorIcEEEENS_12OnceCallbackIFvSC_NS4_10unique_ptrINS2_10MemoryHintENS4_14default_deleteISF_EEEEEEEbNSE_INS2_5proto10StoreEntryENSG_ISM_EEEEEJNS_7WeakPtrIS3_EESA_SK_EE7DestroyEPKNS0_13BindStateBaseE = comdat any

$_ZN4base8internal23QueryCancellationTraitsINS0_9BindStateIMN18optimization_guide22OptimizationGuideStoreEFvRKNSt3__112basic_stringIcNS5_11char_traitsIcEENS5_9allocatorIcEEEENS_12OnceCallbackIFvSD_NS5_10unique_ptrINS3_10MemoryHintENS5_14default_deleteISG_EEEEEEEbNSF_INS3_5proto10StoreEntryENSH_ISN_EEEEEJNS_7WeakPtrIS4_EESB_SL_EEEEEbPKNS0_13BindStateBaseENSV_21CancellationQueryModeE = comdat any

$_ZN4base8internal7InvokerINS0_9BindStateIMN18optimization_guide22OptimizationGuideStoreEFvbEJNS_7WeakPtrIS4_EEEEEFvbEE7RunOnceEPNS0_13BindStateBaseEb = comdat any

$_ZN4base8internal9BindStateIMN18optimization_guide22OptimizationGuideStoreEFvbEJNS_7WeakPtrIS3_EEEE7DestroyEPKNS0_13BindStateBaseE = comdat any

$_ZN4base8internal23QueryCancellationTraitsINS0_9BindStateIMN18optimization_guide22OptimizationGuideStoreEFvbEJNS_7WeakPtrIS4_EEEEEEEbPKNS0_13BindStateBaseENSA_21CancellationQueryModeE = comdat any

$_ZNSt3__16vectorINS_4pairINS_12basic_stringIcNS_11char_traitsIcEENS_9allocatorIcEEEEN18optimization_guide5proto10StoreEntryEEENS5_ISB_EEE24__emplace_back_slow_pathIJRS7_RSA_EEEvDpOT_ = comdat any

$_ZNSt3__16vectorINS_4pairINS_12basic_stringIcNS_11char_traitsIcEENS_9allocatorIcEEEEN18optimization_guide5proto10StoreEntryEEENS5_ISB_EEE26__swap_out_circular_bufferERNS_14__split_bufferISB_RSC_EE = comdat any

$_ZNSt3__16vectorIjNS_9allocatorIjEEE6assignIPjEENS_9enable_ifIXaasr27__is_cpp17_forward_iteratorIT_EE5valuesr16is_constructibleIjNS_15iterator_traitsIS7_E9referenceEEE5valueEvE4typeES7_S7_ = comdat any

$_ZN4base8internal7InvokerINS0_9BindStateIMN18optimization_guide22OptimizationGuideStoreEFvNSt3__110unique_ptrINS0_9flat_treeINS5_12basic_stringIcNS5_11char_traitsIcEENS5_9allocatorIcEEEENS_8identityENS5_4lessIvEENS5_6vectorISD_NSB_ISD_EEEEEENS5_14default_deleteISK_EEEENS_12OnceCallbackIFvvEEEbNS6_INS5_3mapISD_NS3_5proto10StoreEntryENSF_ISD_EENSB_INS5_4pairIKSD_ST_EEEEEENSL_ISZ_EEEEEJNS_7WeakPtrIS4_EESN_SQ_EEEFvbS11_EE7RunOnceEPNS0_13BindStateBaseEbOS11_ = comdat any

$_ZN4base8internal13FunctorTraitsIMN18optimization_guide22OptimizationGuideStoreEFvNSt3__110unique_ptrINS0_9flat_treeINS4_12basic_stringIcNS4_11char_traitsIcEENS4_9allocatorIcEEEENS_8identityENS4_4lessIvEENS4_6vectorISC_NSA_ISC_EEEEEENS4_14default_deleteISJ_EEEENS_12OnceCallbackIFvvEEEbNS5_INS4_3mapISC_NS2_5proto10StoreEntryENSE_ISC_EENSA_INS4_4pairIKSC_SS_EEEEEENSK_ISY_EEEEEvE6InvokeIS12_NS_7WeakPtrIS3_EEJSM_SP_bS10_EEEvT_OT0_DpOT1_ = comdat any

$_ZN4base8internal9BindStateIMN18optimization_guide22OptimizationGuideStoreEFvNSt3__110unique_ptrINS0_9flat_treeINS4_12basic_stringIcNS4_11char_traitsIcEENS4_9allocatorIcEEEENS_8identityENS4_4lessIvEENS4_6vectorISC_NSA_ISC_EEEEEENS4_14default_deleteISJ_EEEENS_12OnceCallbackIFvvEEEbNS5_INS4_3mapISC_NS2_5proto10StoreEntryENSE_ISC_EENSA_INS4_4pairIKSC_SS_EEEEEENSK_ISY_EEEEEJNS_7WeakPtrIS3_EESM_SP_EE7DestroyEPKNS0_13BindStateBaseE = comdat any

$_ZN4base8internal23QueryCancellationTraitsINS0_9BindStateIMN18optimization_guide22OptimizationGuideStoreEFvNSt3__110unique_ptrINS0_9flat_treeINS5_12basic_stringIcNS5_11char_traitsIcEENS5_9allocatorIcEEEENS_8identityENS5_4lessIvEENS5_6vectorISD_NSB_ISD_EEEEEENS5_14default_deleteISK_EEEENS_12OnceCallbackIFvvEEEbNS6_INS5_3mapISD_NS3_5proto10StoreEntryENSF_ISD_EENSB_INS5_4pairIKSD_ST_EEEEEENSL_ISZ_EEEEEJNS_7WeakPtrIS4_EESN_SQ_EEEEEbPKNS0_13BindStateBaseENS17_21CancellationQueryModeE = comdat any

$_ZN4base8internal9BindStateIMN18optimization_guide22OptimizationGuideStoreEFvNSt3__110unique_ptrINS0_9flat_treeINS4_12basic_stringIcNS4_11char_traitsIcEENS4_9allocatorIcEEEENS_8identityENS4_4lessIvEENS4_6vectorISC_NSA_ISC_EEEEEENS4_14default_deleteISJ_EEEENS_12OnceCallbackIFvvEEEbNS5_INS4_3mapISC_NS2_5proto10StoreEntryENSE_ISC_EENSA_INS4_4pairIKSC_SS_EEEEEENSK_ISY_EEEEEJNS_7WeakPtrIS3_EESM_SP_EED2Ev = comdat any

$_ZN4base8internal7InvokerINS0_9BindStateIMN18optimization_guide22OptimizationGuideStoreEFvNS_12OnceCallbackIFvvEEEbNSt3__110unique_ptrINS8_3mapINS8_12basic_stringIcNS8_11char_traitsIcEENS8_9allocatorIcEEEENS3_5proto10StoreEntryENS8_4lessISG_EENSE_INS8_4pairIKSG_SI_EEEEEENS8_14default_deleteISP_EEEEEJNS_7WeakPtrIS4_EES7_EEEFvbSS_EE7RunOnceEPNS0_13BindStateBaseEbOSS_ = comdat any

$_ZN4base8internal13FunctorTraitsIMN18optimization_guide22OptimizationGuideStoreEFvNS_12OnceCallbackIFvvEEEbNSt3__110unique_ptrINS7_3mapINS7_12basic_stringIcNS7_11char_traitsIcEENS7_9allocatorIcEEEENS2_5proto10StoreEntryENS7_4lessISF_EENSD_INS7_4pairIKSF_SH_EEEEEENS7_14default_deleteISO_EEEEEvE6InvokeIST_NS_7WeakPtrIS3_EEJS6_bSR_EEEvT_OT0_DpOT1_ = comdat any

$_ZN4base8internal9BindStateIMN18optimization_guide22OptimizationGuideStoreEFvNS_12OnceCallbackIFvvEEEbNSt3__110unique_ptrINS7_3mapINS7_12basic_stringIcNS7_11char_traitsIcEENS7_9allocatorIcEEEENS2_5proto10StoreEntryENS7_4lessISF_EENSD_INS7_4pairIKSF_SH_EEEEEENS7_14default_deleteISO_EEEEEJNS_7WeakPtrIS3_EES6_EE7DestroyEPKNS0_13BindStateBaseE = comdat any

$_ZN4base8internal23QueryCancellationTraitsINS0_9BindStateIMN18optimization_guide22OptimizationGuideStoreEFvNS_12OnceCallbackIFvvEEEbNSt3__110unique_ptrINS8_3mapINS8_12basic_stringIcNS8_11char_traitsIcEENS8_9allocatorIcEEEENS3_5proto10StoreEntryENS8_4lessISG_EENSE_INS8_4pairIKSG_SI_EEEEEENS8_14default_deleteISP_EEEEEJNS_7WeakPtrIS4_EES7_EEEEEbPKNS0_13BindStateBaseENSY_21CancellationQueryModeE = comdat any

$_ZNSt3__16__treeINS_12__value_typeINS_12basic_stringIcNS_11char_traitsIcEENS_9allocatorIcEEEEN18optimization_guide5proto10StoreEntryEEENS_19__map_value_compareIS7_SB_NS_4lessIS7_EELb1EEENS5_ISB_EEE4findIS7_EENS_15__tree_iteratorISB_PNS_11__tree_nodeISB_PvEElEERKT_ = comdat any

$_ZNSt3__16vectorINS_12basic_stringIcNS_11char_traitsIcEENS_9allocatorIcEEEENS4_IS6_EEE21__push_back_slow_pathIRKS6_EEvOT_ = comdat any

$_ZNSt3__16vectorINS_4pairINS_12basic_stringIcNS_11char_traitsIcEENS_9allocatorIcEEEEN18optimization_guide5proto10StoreEntryEEENS5_ISB_EEE21__push_back_slow_pathISB_EEvOT_ = comdat any

$_ZN4base8internal9BindStateINS_12OnceCallbackIFvRKNS_8FilePathEEEEJS3_EE6CreateIS7_JS3_EEEPS8_PFvvEOT_DpOT0_ = comdat any

$_ZN4base8internal7InvokerINS0_9BindStateINS_12OnceCallbackIFvRKNS_8FilePathEEEEJS4_EEEFvvEE7RunOnceEPNS0_13BindStateBaseE = comdat any

$_ZN4base8internal9BindStateINS_12OnceCallbackIFvRKNS_8FilePathEEEEJS3_EE7DestroyEPKNS0_13BindStateBaseE = comdat any

$_ZN4base8internal23QueryCancellationTraitsINS0_9BindStateINS_12OnceCallbackIFvRKNS_8FilePathEEEEJS4_EEEEEbPKNS0_13BindStateBaseENSA_21CancellationQueryModeE = comdat any

$_ZN4base8internal7InvokerINS0_9BindStateIMN18optimization_guide22OptimizationGuideStoreEFvNS_12OnceCallbackIFvNSt3__110unique_ptrINS3_5proto15PredictionModelENS6_14default_deleteIS9_EEEEEEEbNS7_INS8_10StoreEntryENSA_ISF_EEEEEJNS_7WeakPtrIS4_EESE_EEEFvbSH_EE7RunOnceEPNS0_13BindStateBaseEbOSH_ = comdat any

$_ZN4base8internal13FunctorTraitsIMN18optimization_guide22OptimizationGuideStoreEFvNS_12OnceCallbackIFvNSt3__110unique_ptrINS2_5proto15PredictionModelENS5_14default_deleteIS8_EEEEEEEbNS6_INS7_10StoreEntryENS9_ISE_EEEEEvE6InvokeISI_NS_7WeakPtrIS3_EEJSD_bSG_EEEvT_OT0_DpOT1_ = comdat any

$_ZN4base8internal9BindStateIMN18optimization_guide22OptimizationGuideStoreEFvNS_12OnceCallbackIFvNSt3__110unique_ptrINS2_5proto15PredictionModelENS5_14default_deleteIS8_EEEEEEEbNS6_INS7_10StoreEntryENS9_ISE_EEEEEJNS_7WeakPtrIS3_EESD_EE7DestroyEPKNS0_13BindStateBaseE = comdat any

$_ZN4base8internal23QueryCancellationTraitsINS0_9BindStateIMN18optimization_guide22OptimizationGuideStoreEFvNS_12OnceCallbackIFvNSt3__110unique_ptrINS3_5proto15PredictionModelENS6_14default_deleteIS9_EEEEEEEbNS7_INS8_10StoreEntryENSA_ISF_EEEEEJNS_7WeakPtrIS4_EESE_EEEEEbPKNS0_13BindStateBaseENSN_21CancellationQueryModeE = comdat any

$_ZN4base8internal7InvokerINS0_9BindStateIPFbRKNS_8FilePathEEJS3_EEEFbvEE7RunOnceEPNS0_13BindStateBaseE = comdat any

$_ZN4base8internal9BindStateIPFbRKNS_8FilePathEEJS2_EE7DestroyEPKNS0_13BindStateBaseE = comdat any

$_ZN4base8internal7InvokerINS0_9BindStateIMN18optimization_guide22OptimizationGuideStoreEFvNSt3__110unique_ptrINS3_5proto15PredictionModelENS5_14default_deleteIS8_EEEENS_12OnceCallbackIFvSB_EEEbEJNS_7WeakPtrIS4_EESB_SE_EEEFvbEE7RunOnceEPNS0_13BindStateBaseEb = comdat any

$_ZN4base8internal13FunctorTraitsIMN18optimization_guide22OptimizationGuideStoreEFvNSt3__110unique_ptrINS2_5proto15PredictionModelENS4_14default_deleteIS7_EEEENS_12OnceCallbackIFvSA_EEEbEvE6InvokeISF_NS_7WeakPtrIS3_EEJSA_SD_bEEEvT_OT0_DpOT1_ = comdat any

$_ZN4base8internal9BindStateIMN18optimization_guide22OptimizationGuideStoreEFvNSt3__110unique_ptrINS2_5proto15PredictionModelENS4_14default_deleteIS7_EEEENS_12OnceCallbackIFvSA_EEEbEJNS_7WeakPtrIS3_EESA_SD_EE7DestroyEPKNS0_13BindStateBaseE = comdat any

$_ZN4base8internal23QueryCancellationTraitsINS0_9BindStateIMN18optimization_guide22OptimizationGuideStoreEFvNSt3__110unique_ptrINS3_5proto15PredictionModelENS5_14default_deleteIS8_EEEENS_12OnceCallbackIFvSB_EEEbEJNS_7WeakPtrIS4_EESB_SE_EEEEEbPKNS0_13BindStateBaseENSK_21CancellationQueryModeE = comdat any

$_ZN4base8internal20ReturnAsParamAdapterIbEEvNS_12OnceCallbackIFT_vEEEPNSt3__110unique_ptrIS3_NS6_14default_deleteIS3_EEEE = comdat any

$_ZN4base8internal12ReplyAdapterIbbEEvNS_12OnceCallbackIFvT0_EEEPNSt3__110unique_ptrIT_NS6_14default_deleteIS8_EEEE = comdat any

$_ZN4base8internal7InvokerINS0_9BindStateIPFvNS_12OnceCallbackIFbvEEEPNSt3__110unique_ptrIbNS6_14default_deleteIbEEEEEJS5_SB_EEEFvvEE7RunOnceEPNS0_13BindStateBaseE = comdat any

$_ZN4base8internal9BindStateIPFvNS_12OnceCallbackIFbvEEEPNSt3__110unique_ptrIbNS5_14default_deleteIbEEEEEJS4_SA_EE7DestroyEPKNS0_13BindStateBaseE = comdat any

$_ZN4base8internal7InvokerINS0_9BindStateIPFvNS_12OnceCallbackIFvbEEEPNSt3__110unique_ptrIbNS6_14default_deleteIbEEEEEJS5_NS0_12OwnedWrapperISA_NS8_ISA_EEEEEEEFvvEE7RunOnceEPNS0_13BindStateBaseE = comdat any

$_ZN4base8internal9BindStateIPFvNS_12OnceCallbackIFvbEEEPNSt3__110unique_ptrIbNS5_14default_deleteIbEEEEEJS4_NS0_12OwnedWrapperIS9_NS7_IS9_EEEEEE7DestroyEPKNS0_13BindStateBaseE = comdat any

$_ZN4base8internal7InvokerINS0_9BindStateIMN18optimization_guide22OptimizationGuideStoreEFvNS_12OnceCallbackIFvNSt3__110unique_ptrINS6_6vectorINS3_5proto17HostModelFeaturesENS6_9allocatorISA_EEEENS6_14default_deleteISD_EEEEEEEbNS7_INS8_INS9_10StoreEntryENSB_ISJ_EEEENSE_ISL_EEEEEJNS_7WeakPtrIS4_EESI_EEEFvbSN_EE7RunOnceEPNS0_13BindStateBaseEbOSN_ = comdat any

$_ZN4base8internal13FunctorTraitsIMN18optimization_guide22OptimizationGuideStoreEFvNS_12OnceCallbackIFvNSt3__110unique_ptrINS5_6vectorINS2_5proto17HostModelFeaturesENS5_9allocatorIS9_EEEENS5_14default_deleteISC_EEEEEEEbNS6_INS7_INS8_10StoreEntryENSA_ISI_EEEENSD_ISK_EEEEEvE6InvokeISO_NS_7WeakPtrIS3_EEJSH_bSM_EEEvT_OT0_DpOT1_ = comdat any

$_ZN4base8internal9BindStateIMN18optimization_guide22OptimizationGuideStoreEFvNS_12OnceCallbackIFvNSt3__110unique_ptrINS5_6vectorINS2_5proto17HostModelFeaturesENS5_9allocatorIS9_EEEENS5_14default_deleteISC_EEEEEEEbNS6_INS7_INS8_10StoreEntryENSA_ISI_EEEENSD_ISK_EEEEEJNS_7WeakPtrIS3_EESH_EE7DestroyEPKNS0_13BindStateBaseE = comdat any

$_ZN4base8internal23QueryCancellationTraitsINS0_9BindStateIMN18optimization_guide22OptimizationGuideStoreEFvNS_12OnceCallbackIFvNSt3__110unique_ptrINS6_6vectorINS3_5proto17HostModelFeaturesENS6_9allocatorISA_EEEENS6_14default_deleteISD_EEEEEEEbNS7_INS8_INS9_10StoreEntryENSB_ISJ_EEEENSE_ISL_EEEEEJNS_7WeakPtrIS4_EESI_EEEEEbPKNS0_13BindStateBaseENST_21CancellationQueryModeE = comdat any

$_ZN4base8internal7InvokerINS0_9BindStateIMN18optimization_guide22OptimizationGuideStoreEFvNS_12OnceCallbackIFvNSt3__110unique_ptrINS3_5proto17HostModelFeaturesENS6_14default_deleteIS9_EEEEEEEbNS7_INS8_10StoreEntryENSA_ISF_EEEEEJNS_7WeakPtrIS4_EESE_EEEFvbSH_EE7RunOnceEPNS0_13BindStateBaseEbOSH_ = comdat any

$_ZN4base8internal13FunctorTraitsIMN18optimization_guide22OptimizationGuideStoreEFvNS_12OnceCallbackIFvNSt3__110unique_ptrINS2_5proto17HostModelFeaturesENS5_14default_deleteIS8_EEEEEEEbNS6_INS7_10StoreEntryENS9_ISE_EEEEEvE6InvokeISI_NS_7WeakPtrIS3_EEJSD_bSG_EEEvT_OT0_DpOT1_ = comdat any

$_ZN4base8internal9BindStateIMN18optimization_guide22OptimizationGuideStoreEFvNS_12OnceCallbackIFvNSt3__110unique_ptrINS2_5proto17HostModelFeaturesENS5_14default_deleteIS8_EEEEEEEbNS6_INS7_10StoreEntryENS9_ISE_EEEEEJNS_7WeakPtrIS3_EESD_EE7DestroyEPKNS0_13BindStateBaseE = comdat any

$_ZN4base8internal23QueryCancellationTraitsINS0_9BindStateIMN18optimization_guide22OptimizationGuideStoreEFvNS_12OnceCallbackIFvNSt3__110unique_ptrINS3_5proto17HostModelFeaturesENS6_14default_deleteIS9_EEEEEEEbNS7_INS8_10StoreEntryENSA_ISF_EEEEEJNS_7WeakPtrIS4_EESE_EEEEEbPKNS0_13BindStateBaseENSN_21CancellationQueryModeE = comdat any

$_ZNSt3__16vectorIN18optimization_guide5proto17HostModelFeaturesENS_9allocatorIS3_EEE24__emplace_back_slow_pathIJRKS3_EEEvDpOT_ = comdat any

$_ZNSt3__16vectorIN18optimization_guide5proto17HostModelFeaturesENS_9allocatorIS3_EEE26__swap_out_circular_bufferERNS_14__split_bufferIS3_RS5_EE = comdat any

$_ZTVN13leveldb_proto17ProtoDatabaseImplIN18optimization_guide5proto10StoreEntryES3_EE = comdat any

@_ZTVN18optimization_guide22OptimizationGuideStoreE = hidden unnamed_addr constant { [10 x i8*] } { [10 x i8*] [i8* null, i8* null, i8* bitcast (void (%"class.optimization_guide::OptimizationGuideStore"*)* @_ZN18optimization_guide22OptimizationGuideStoreD2Ev to i8*), i8* bitcast (void (%"class.optimization_guide::OptimizationGuideStore"*)* @_ZN18optimization_guide22OptimizationGuideStoreD0Ev to i8*), i8* bitcast (void (%"class.optimization_guide::OptimizationGuideStore"*, i1, %"class.base::OnceCallback"*)* @_ZN18optimization_guide22OptimizationGuideStore10InitializeEbN4base12OnceCallbackIFvvEEE to i8*), i8* bitcast (void (%"class.optimization_guide::OptimizationGuideStore"*, %"class.optimization_guide::StoreUpdateData"*, %"class.base::OnceCallback"*)* @_ZN18optimization_guide22OptimizationGuideStore22UpdatePredictionModelsENSt3__110unique_ptrINS_15StoreUpdateDataENS1_14default_deleteIS3_EEEEN4base12OnceCallbackIFvvEEE to i8*), i8* bitcast (i1 (%"class.optimization_guide::OptimizationGuideStore"*, i32, %"class.std::__1::basic_string"*)* @_ZN18optimization_guide22OptimizationGuideStore27FindPredictionModelEntryKeyENS_5proto18OptimizationTargetEPNSt3__112basic_stringIcNS3_11char_traitsIcEENS3_9allocatorIcEEEE to i8*), i8* bitcast (void (%"class.optimization_guide::OptimizationGuideStore"*, %"class.std::__1::basic_string"*, %"class.base::OnceCallback.178"*)* @_ZN18optimization_guide22OptimizationGuideStore19LoadPredictionModelERKNSt3__112basic_stringIcNS1_11char_traitsIcEENS1_9allocatorIcEEEEN4base12OnceCallbackIFvNS1_10unique_ptrINS_5proto15PredictionModelENS1_14default_deleteISE_EEEEEEE to i8*), i8* bitcast (void (%"class.optimization_guide::OptimizationGuideStore"*, %"class.optimization_guide::StoreUpdateData"*, %"class.base::OnceCallback"*)* @_ZN18optimization_guide22OptimizationGuideStore23UpdateHostModelFeaturesENSt3__110unique_ptrINS_15StoreUpdateDataENS1_14default_deleteIS3_EEEEN4base12OnceCallbackIFvvEEE to i8*), i8* bitcast (void (%"class.optimization_guide::OptimizationGuideStore"*, %"class.base::OnceCallback.186"*)* @_ZN18optimization_guide22OptimizationGuideStore24LoadAllHostModelFeaturesEN4base12OnceCallbackIFvNSt3__110unique_ptrINS3_6vectorINS_5proto17HostModelFeaturesENS3_9allocatorIS7_EEEENS3_14default_deleteISA_EEEEEEE to i8*)] }, align 8
@_ZN18optimization_guide22OptimizationGuideStore19kStoreSchemaVersionE = hidden constant [2 x i8] c"1\00", align 1
@.str = private unnamed_addr constant [51 x i8] c"OptimizationGuide.ClearFetchedHints.StoreAvailable\00", align 1
@.str.1 = private unnamed_addr constant [75 x i8] c"OptimizationGuide.PredictionModelStore.HostModelFeaturesLoadMetadataResult\00", align 1
@.str.2 = private unnamed_addr constant [63 x i8] c"OptimizationGuide.HintCacheStore.OnLoadHint.FetchedHintExpired\00", align 1
@.str.3 = private unnamed_addr constant [44 x i8] c"OptimizationGuide.HintCache.HintType.Loaded\00", align 1
@.str.4 = private unnamed_addr constant [57 x i8] c"OptimizationGuide.HintCache.FetchedHint.TimeToExpiration\00", align 1
@.str.5 = private unnamed_addr constant [41 x i8] c"OptimizationGuide.PredictionModelExpired\00", align 1
@.str.6 = private unnamed_addr constant [24 x i8] c"OnLoadModelsToBeUpdated\00", align 1
@.str.7 = private unnamed_addr constant [69 x i8] c"../../components/optimization_guide/core/optimization_guide_store.cc\00", align 1
@.str.8 = private unnamed_addr constant [22 x i8] c"OnLoadPredictionModel\00", align 1
@.str.9 = private unnamed_addr constant [56 x i8] c"OptimizationGuide.ClearHostModelFeatures.StoreAvailable\00", align 1
@.str.10 = private unnamed_addr constant [47 x i8] c"OptimizationGuide.HintCacheLevelDBStore.Status\00", align 1
@_ZN6google8protobuf8internal26fixed_address_empty_stringE = external global %"class.google::protobuf::internal::ExplicitlyConstructed", align 8
@.str.16 = private unnamed_addr constant [59 x i8] c"OptimizationGuide.HintCacheLevelDBStore.LoadMetadataResult\00", align 1
@_ZN18optimization_guide5proto34_PredictionModel_default_instance_E = external global %"class.optimization_guide::proto::PredictionModelDefaultTypeInternal", align 1
@_ZN18optimization_guide5proto24_Model_default_instance_E = external local_unnamed_addr global %"class.optimization_guide::proto::ModelDefaultTypeInternal", align 1
@_ZN18optimization_guide5proto28_ModelInfo_default_instance_E = external local_unnamed_addr global %"class.optimization_guide::proto::ModelInfoDefaultTypeInternal", align 1
@_ZTVN13leveldb_proto17ProtoDatabaseImplIN18optimization_guide5proto10StoreEntryES3_EE = linkonce_odr hidden unnamed_addr constant { [18 x i8*] } { [18 x i8*] [i8* null, i8* null, i8* bitcast (void (%"class.leveldb_proto::ProtoDatabaseImpl"*)* @_ZN13leveldb_proto17ProtoDatabaseImplIN18optimization_guide5proto10StoreEntryES3_ED2Ev to i8*), i8* bitcast (void (%"class.leveldb_proto::ProtoDatabaseImpl"*)* @_ZN13leveldb_proto17ProtoDatabaseImplIN18optimization_guide5proto10StoreEntryES3_ED0Ev to i8*), i8* bitcast (void (%"class.leveldb_proto::ProtoDatabaseImpl"*, %"class.base::OnceCallback.81"*)* @_ZN13leveldb_proto17ProtoDatabaseImplIN18optimization_guide5proto10StoreEntryES3_E4InitEN4base12OnceCallbackIFvNS_5Enums10InitStatusEEEE to i8*), i8* bitcast (void (%"class.leveldb_proto::ProtoDatabaseImpl"*, %"struct.leveldb_env::Options"*, %"class.base::OnceCallback.81"*)* @_ZN13leveldb_proto17ProtoDatabaseImplIN18optimization_guide5proto10StoreEntryES3_E4InitERKN11leveldb_env7OptionsEN4base12OnceCallbackIFvNS_5Enums10InitStatusEEEE to i8*), i8* bitcast (void (%"class.leveldb_proto::ProtoDatabaseImpl"*, %"class.std::__1::vector.94"*, %"class.std::__1::vector.13"*, %"class.base::OnceCallback.122"*)* @_ZN13leveldb_proto17ProtoDatabaseImplIN18optimization_guide5proto10StoreEntryES3_E13UpdateEntriesENSt3__110unique_ptrINS5_6vectorINS5_4pairINS5_12basic_stringIcNS5_11char_traitsIcEENS5_9allocatorIcEEEES3_EENSC_ISF_EEEENS5_14default_deleteISH_EEEENS6_INS7_ISE_NSC_ISE_EEEENSI_ISM_EEEEN4base12OnceCallbackIFvbEEE to i8*), i8* bitcast (void (%"class.leveldb_proto::ProtoDatabaseImpl"*, %"class.std::__1::vector.94"*, %"class.base::RepeatingCallback.121"*, %"class.base::OnceCallback.122"*)* @_ZN13leveldb_proto17ProtoDatabaseImplIN18optimization_guide5proto10StoreEntryES3_E29UpdateEntriesWithRemoveFilterENSt3__110unique_ptrINS5_6vectorINS5_4pairINS5_12basic_stringIcNS5_11char_traitsIcEENS5_9allocatorIcEEEES3_EENSC_ISF_EEEENS5_14default_deleteISH_EEEERKN4base17RepeatingCallbackIFbRKSE_EEENSL_12OnceCallbackIFvbEEE to i8*), i8* bitcast (void (%"class.leveldb_proto::ProtoDatabaseImpl"*, %"class.base::OnceCallback.200"*)* @_ZN13leveldb_proto17ProtoDatabaseImplIN18optimization_guide5proto10StoreEntryES3_E11LoadEntriesEN4base12OnceCallbackIFvbNSt3__110unique_ptrINS7_6vectorIS3_NS7_9allocatorIS3_EEEENS7_14default_deleteISC_EEEEEEE to i8*), i8* bitcast (void (%"class.leveldb_proto::ProtoDatabaseImpl"*, %"class.base::RepeatingCallback.121"*, %"class.base::OnceCallback.200"*)* @_ZN13leveldb_proto17ProtoDatabaseImplIN18optimization_guide5proto10StoreEntryES3_E21LoadEntriesWithFilterERKN4base17RepeatingCallbackIFbRKNSt3__112basic_stringIcNS7_11char_traitsIcEENS7_9allocatorIcEEEEEEENS5_12OnceCallbackIFvbNS7_10unique_ptrINS7_6vectorIS3_NSB_IS3_EEEENS7_14default_deleteISO_EEEEEEE to i8*), i8* bitcast (void (%"class.leveldb_proto::ProtoDatabaseImpl"*, %"class.base::RepeatingCallback.121"*, %"struct.leveldb::ReadOptions"*, %"class.std::__1::basic_string"*, %"class.base::OnceCallback.200"*)* @_ZN13leveldb_proto17ProtoDatabaseImplIN18optimization_guide5proto10StoreEntryES3_E21LoadEntriesWithFilterERKN4base17RepeatingCallbackIFbRKNSt3__112basic_stringIcNS7_11char_traitsIcEENS7_9allocatorIcEEEEEEERKN7leveldb11ReadOptionsESF_NS5_12OnceCallbackIFvbNS7_10unique_ptrINS7_6vectorIS3_NSB_IS3_EEEENS7_14default_deleteISS_EEEEEEE to i8*), i8* bitcast (void (%"class.leveldb_proto::ProtoDatabaseImpl"*, %"class.base::OnceCallback.123"*)* @_ZN13leveldb_proto17ProtoDatabaseImplIN18optimization_guide5proto10StoreEntryES3_E18LoadKeysAndEntriesEN4base12OnceCallbackIFvbNSt3__110unique_ptrINS7_3mapINS7_12basic_stringIcNS7_11char_traitsIcEENS7_9allocatorIcEEEES3_NS7_4lessISF_EENSD_INS7_4pairIKSF_S3_EEEEEENS7_14default_deleteISM_EEEEEEE to i8*), i8* bitcast (void (%"class.leveldb_proto::ProtoDatabaseImpl"*, %"class.base::RepeatingCallback.121"*, %"class.base::OnceCallback.123"*)* @_ZN13leveldb_proto17ProtoDatabaseImplIN18optimization_guide5proto10StoreEntryES3_E28LoadKeysAndEntriesWithFilterERKN4base17RepeatingCallbackIFbRKNSt3__112basic_stringIcNS7_11char_traitsIcEENS7_9allocatorIcEEEEEEENS5_12OnceCallbackIFvbNS7_10unique_ptrINS7_3mapISD_S3_NS7_4lessISD_EENSB_INS7_4pairISE_S3_EEEEEENS7_14default_deleteISS_EEEEEEE to i8*), i8* bitcast (void (%"class.leveldb_proto::ProtoDatabaseImpl"*, %"class.base::RepeatingCallback.121"*, %"struct.leveldb::ReadOptions"*, %"class.std::__1::basic_string"*, %"class.base::OnceCallback.123"*)* @_ZN13leveldb_proto17ProtoDatabaseImplIN18optimization_guide5proto10StoreEntryES3_E28LoadKeysAndEntriesWithFilterERKN4base17RepeatingCallbackIFbRKNSt3__112basic_stringIcNS7_11char_traitsIcEENS7_9allocatorIcEEEEEEERKN7leveldb11ReadOptionsESF_NS5_12OnceCallbackIFvbNS7_10unique_ptrINS7_3mapISD_S3_NS7_4lessISD_EENSB_INS7_4pairISE_S3_EEEEEENS7_14default_deleteISW_EEEEEEE to i8*), i8* bitcast (void (%"class.leveldb_proto::ProtoDatabaseImpl"*, %"class.std::__1::basic_string"*, %"class.std::__1::basic_string"*, %"class.base::OnceCallback.123"*)* @_ZN13leveldb_proto17ProtoDatabaseImplIN18optimization_guide5proto10StoreEntryES3_E25LoadKeysAndEntriesInRangeERKNSt3__112basic_stringIcNS5_11char_traitsIcEENS5_9allocatorIcEEEESD_N4base12OnceCallbackIFvbNS5_10unique_ptrINS5_3mapISB_S3_NS5_4lessISB_EENS9_INS5_4pairISC_S3_EEEEEENS5_14default_deleteISN_EEEEEEE to i8*), i8* bitcast (void (%"class.leveldb_proto::ProtoDatabaseImpl"*, %"class.base::OnceCallback.262"*)* @_ZN13leveldb_proto17ProtoDatabaseImplIN18optimization_guide5proto10StoreEntryES3_E8LoadKeysEN4base12OnceCallbackIFvbNSt3__110unique_ptrINS7_6vectorINS7_12basic_stringIcNS7_11char_traitsIcEENS7_9allocatorIcEEEENSD_ISF_EEEENS7_14default_deleteISH_EEEEEEE to i8*), i8* bitcast (void (%"class.leveldb_proto::ProtoDatabaseImpl"*, %"class.std::__1::basic_string"*, %"class.base::OnceCallback.160"*)* @_ZN13leveldb_proto17ProtoDatabaseImplIN18optimization_guide5proto10StoreEntryES3_E8GetEntryERKNSt3__112basic_stringIcNS5_11char_traitsIcEENS5_9allocatorIcEEEEN4base12OnceCallbackIFvbNS5_10unique_ptrIS3_NS5_14default_deleteIS3_EEEEEEE to i8*), i8* bitcast (void (%"class.leveldb_proto::ProtoDatabaseImpl"*, %"class.base::OnceCallback.122"*)* @_ZN13leveldb_proto17ProtoDatabaseImplIN18optimization_guide5proto10StoreEntryES3_E7DestroyEN4base12OnceCallbackIFvbEEE to i8*)] }, comdat, align 8
@.str.20 = private unnamed_addr constant [13 x i8] c"InitInternal\00", align 1
@.str.21 = private unnamed_addr constant [62 x i8] c"../../components/leveldb_proto/internal/proto_database_impl.h\00", align 1
@.str.22 = private unnamed_addr constant [16 x i8] c"PostTransaction\00", align 1
@.str.23 = private unnamed_addr constant [19 x i8] c"ParseLoadedEntries\00", align 1
@.str.24 = private unnamed_addr constant [27 x i8] c"../../base/bind_internal.h\00", align 1
@.str.25 = private unnamed_addr constant [18 x i8] c"!IsNull(functor_)\00", align 1
@.str.26 = private unnamed_addr constant [26 x i8] c"ParseLoadedKeysAndEntries\00", align 1
@.str.27 = private unnamed_addr constant [17 x i8] c"ParseLoadedEntry\00", align 1
@.str.28 = private unnamed_addr constant [29 x i8] c"../../base/memory/weak_ptr.h\00", align 1
@.str.29 = private unnamed_addr constant [15 x i8] c"ref_.IsValid()\00", align 1
@_ZZN18optimization_guide22OptimizationGuideStore14OnLoadMetadataEN4base12OnceCallbackIFvvEEEbNSt3__110unique_ptrINS5_3mapINS5_12basic_stringIcNS5_11char_traitsIcEENS5_9allocatorIcEEEENS_5proto10StoreEntryENS5_4lessISD_EENSB_INS5_4pairIKSD_SF_EEEEEENS5_14default_deleteISM_EEEEE24atomic_histogram_pointer.0.0.0.0.0 = internal unnamed_addr global i64 0, align 8
@_ZZN18optimization_guide22OptimizationGuideStore10OnLoadHintERKNSt3__112basic_stringIcNS1_11char_traitsIcEENS1_9allocatorIcEEEEN4base12OnceCallbackIFvS9_NS1_10unique_ptrINS_10MemoryHintENS1_14default_deleteISD_EEEEEEEbNSC_INS_5proto10StoreEntryENSE_ISK_EEEEE24atomic_histogram_pointer.0.0.0.0.0 = internal unnamed_addr global i64 0, align 8
@_ZZN18optimization_guide22OptimizationGuideStore10OnLoadHintERKNSt3__112basic_stringIcNS1_11char_traitsIcEENS1_9allocatorIcEEEEN4base12OnceCallbackIFvS9_NS1_10unique_ptrINS_10MemoryHintENS1_14default_deleteISD_EEEEEEEbNSC_INS_5proto10StoreEntryENSE_ISK_EEEEE24atomic_histogram_pointer_0.0.0.0.0.0 = internal unnamed_addr global i64 0, align 8
@_ZZN18optimization_guide22OptimizationGuideStore10OnLoadHintERKNSt3__112basic_stringIcNS1_11char_traitsIcEENS1_9allocatorIcEEEEN4base12OnceCallbackIFvS9_NS1_10unique_ptrINS_10MemoryHintENS1_14default_deleteISD_EEEEEEEbNSC_INS_5proto10StoreEntryENSE_ISK_EEEEE24atomic_histogram_pointer_1.0.0.0.0.0 = internal unnamed_addr global i64 0, align 8
@_ZZN18optimization_guide12_GLOBAL__N_118RecordStatusChangeENS_22OptimizationGuideStore6StatusEE24atomic_histogram_pointer.0.0.0.0.0 = internal unnamed_addr global i64 0, align 8
@_ZZN18optimization_guide12_GLOBAL__N_132ScopedLoadMetadataResultRecorderD1EvE24atomic_histogram_pointer.0.0.0.0.0 = internal unnamed_addr global i64 0, align 8

@_ZN18optimization_guide22OptimizationGuideStoreC1EPN13leveldb_proto21ProtoDatabaseProviderERKN4base8FilePathE13scoped_refptrINS4_19SequencedTaskRunnerEE = hidden unnamed_addr alias void (%"class.optimization_guide::OptimizationGuideStore"*, %"class.leveldb_proto::ProtoDatabaseProvider"*, %"class.base::FilePath"*, %"class.base::SequencedTaskRunner"*), void (%"class.optimization_guide::OptimizationGuideStore"*, %"class.leveldb_proto::ProtoDatabaseProvider"*, %"class.base::FilePath"*, %"class.base::SequencedTaskRunner"*)* @_ZN18optimization_guide22OptimizationGuideStoreC2EPN13leveldb_proto21ProtoDatabaseProviderERKN4base8FilePathE13scoped_refptrINS4_19SequencedTaskRunnerEE
@_ZN18optimization_guide22OptimizationGuideStoreC1ENSt3__110unique_ptrIN13leveldb_proto13ProtoDatabaseINS_5proto10StoreEntryES6_EENS1_14default_deleteIS7_EEEE13scoped_refptrIN4base19SequencedTaskRunnerEE = hidden unnamed_addr alias void (%"class.optimization_guide::OptimizationGuideStore"*, %"class.leveldb_proto::ProtoDatabase"*, %"class.base::SequencedTaskRunner"*), void (%"class.optimization_guide::OptimizationGuideStore"*, %"class.leveldb_proto::ProtoDatabase"*, %"class.base::SequencedTaskRunner"*)* @_ZN18optimization_guide22OptimizationGuideStoreC2ENSt3__110unique_ptrIN13leveldb_proto13ProtoDatabaseINS_5proto10StoreEntryES6_EENS1_14default_deleteIS7_EEEE13scoped_refptrIN4base19SequencedTaskRunnerEE
@_ZN18optimization_guide22OptimizationGuideStoreD1Ev = hidden unnamed_addr alias void (%"class.optimization_guide::OptimizationGuideStore"*), void (%"class.optimization_guide::OptimizationGuideStore"*)* @_ZN18optimization_guide22OptimizationGuideStoreD2Ev

; Function Attrs: nounwind ssp uwtable
define hidden void @_ZN18optimization_guide22OptimizationGuideStoreC2EPN13leveldb_proto21ProtoDatabaseProviderERKN4base8FilePathE13scoped_refptrINS4_19SequencedTaskRunnerEE(%"class.optimization_guide::OptimizationGuideStore"*, %"class.leveldb_proto::ProtoDatabaseProvider"*, %"class.base::FilePath"* dereferenceable(24), %"class.base::SequencedTaskRunner"*) unnamed_addr #0 align 2 {
  %5 = getelementptr inbounds %"class.optimization_guide::OptimizationGuideStore", %"class.optimization_guide::OptimizationGuideStore"* %0, i64 0, i32 0
  store i32 (...)** bitcast (i8** getelementptr inbounds ({ [10 x i8*] }, { [10 x i8*] }* @_ZTVN18optimization_guide22OptimizationGuideStoreE, i64 0, inrange i32 0, i64 2) to i32 (...)**), i32 (...)*** %5, align 8
  %6 = getelementptr inbounds %"class.optimization_guide::OptimizationGuideStore", %"class.optimization_guide::OptimizationGuideStore"* %0, i64 0, i32 1
  %7 = bitcast %"class.std::__1::unique_ptr"* %6 to i64*
  store i64 0, i64* %7, align 8
  %8 = getelementptr inbounds %"class.optimization_guide::OptimizationGuideStore", %"class.optimization_guide::OptimizationGuideStore"* %0, i64 0, i32 2
  store i32 0, i32* %8, align 8
  %9 = getelementptr inbounds %"class.optimization_guide::OptimizationGuideStore", %"class.optimization_guide::OptimizationGuideStore"* %0, i64 0, i32 3, i32 0, i32 0, i32 0, i32 0
  store i8 0, i8* %9, align 8
  %10 = getelementptr inbounds %"class.optimization_guide::OptimizationGuideStore", %"class.optimization_guide::OptimizationGuideStore"* %0, i64 0, i32 3, i32 0, i32 0, i32 0, i32 1
  %11 = getelementptr inbounds %"class.optimization_guide::OptimizationGuideStore", %"class.optimization_guide::OptimizationGuideStore"* %0, i64 0, i32 8
  %12 = getelementptr inbounds %class.scoped_refptr, %class.scoped_refptr* %11, i64 0, i32 0
  %13 = bitcast %union.anon* %10 to i8*
  call void @llvm.memset.p0i8.i64(i8* align 8 %13, i8 0, i64 72, i1 false)
  store %"class.base::SequencedTaskRunner"* %3, %"class.base::SequencedTaskRunner"** %12, align 8
  %14 = icmp eq %"class.base::SequencedTaskRunner"* %3, null
  br i1 %14, label %18, label %15

15:                                               ; preds = %4
  %16 = getelementptr inbounds %"class.base::SequencedTaskRunner", %"class.base::SequencedTaskRunner"* %3, i64 0, i32 0, i32 1, i32 0, i32 0, i32 0, i32 0, i32 0, i32 0, i32 0, i32 0
  %17 = atomicrmw add i32* %16, i32 1 monotonic
  br label %18

18:                                               ; preds = %4, %15
  %19 = getelementptr inbounds %"class.optimization_guide::OptimizationGuideStore", %"class.optimization_guide::OptimizationGuideStore"* %0, i64 0, i32 9, i32 0
  %20 = ptrtoint %"class.optimization_guide::OptimizationGuideStore"* %0 to i64
  tail call void @_ZN4base8internal18WeakPtrFactoryBaseC2Em(%"class.base::internal::WeakPtrFactoryBase"* %19, i64 %20) #16
  %21 = tail call %"class.leveldb_proto::ProtoDatabase"* @_ZN13leveldb_proto21ProtoDatabaseProvider5GetDBIN18optimization_guide5proto10StoreEntryES4_EENSt3__110unique_ptrINS_13ProtoDatabaseIT_T0_EENS5_14default_deleteISA_EEEENS_11ProtoDbTypeERKN4base8FilePathERK13scoped_refptrINSF_19SequencedTaskRunnerEE(%"class.leveldb_proto::ProtoDatabaseProvider"* %1, i32 20, %"class.base::FilePath"* dereferenceable(24) %2, %class.scoped_refptr* dereferenceable(8) %11)
  %22 = ptrtoint %"class.leveldb_proto::ProtoDatabase"* %21 to i64
  %23 = getelementptr inbounds %"class.std::__1::unique_ptr", %"class.std::__1::unique_ptr"* %6, i64 0, i32 0, i32 0, i32 0
  %24 = load %"class.leveldb_proto::ProtoDatabase"*, %"class.leveldb_proto::ProtoDatabase"** %23, align 8
  store i64 %22, i64* %7, align 8
  %25 = icmp eq %"class.leveldb_proto::ProtoDatabase"* %24, null
  br i1 %25, label %31, label %26

26:                                               ; preds = %18
  %27 = bitcast %"class.leveldb_proto::ProtoDatabase"* %24 to void (%"class.leveldb_proto::ProtoDatabase"*)***
  %28 = load void (%"class.leveldb_proto::ProtoDatabase"*)**, void (%"class.leveldb_proto::ProtoDatabase"*)*** %27, align 8
  %29 = getelementptr inbounds void (%"class.leveldb_proto::ProtoDatabase"*)*, void (%"class.leveldb_proto::ProtoDatabase"*)** %28, i64 1
  %30 = load void (%"class.leveldb_proto::ProtoDatabase"*)*, void (%"class.leveldb_proto::ProtoDatabase"*)** %29, align 8
  tail call void %30(%"class.leveldb_proto::ProtoDatabase"* nonnull %24) #16
  br label %31

31:                                               ; preds = %26, %18
  %32 = load i32, i32* %8, align 8
  %33 = load atomic i64, i64* @_ZZN18optimization_guide12_GLOBAL__N_118RecordStatusChangeENS_22OptimizationGuideStore6StatusEE24atomic_histogram_pointer.0.0.0.0.0 acquire, align 8
  %34 = inttoptr i64 %33 to %"class.base::HistogramBase"*
  %35 = icmp eq i64 %33, 0
  br i1 %35, label %36, label %39

36:                                               ; preds = %31
  %37 = tail call %"class.base::HistogramBase"* @_ZN4base15LinearHistogram10FactoryGetEPKciiji(i8* getelementptr inbounds ([47 x i8], [47 x i8]* @.str.10, i64 0, i64 0), i32 1, i32 4, i32 5, i32 1) #16
  %38 = ptrtoint %"class.base::HistogramBase"* %37 to i64
  store atomic i64 %38, i64* @_ZZN18optimization_guide12_GLOBAL__N_118RecordStatusChangeENS_22OptimizationGuideStore6StatusEE24atomic_histogram_pointer.0.0.0.0.0 release, align 8
  br label %39

39:                                               ; preds = %31, %36
  %40 = phi %"class.base::HistogramBase"* [ %34, %31 ], [ %37, %36 ]
  %41 = bitcast %"class.base::HistogramBase"* %40 to void (%"class.base::HistogramBase"*, i32)***
  %42 = load void (%"class.base::HistogramBase"*, i32)**, void (%"class.base::HistogramBase"*, i32)*** %41, align 8
  %43 = getelementptr inbounds void (%"class.base::HistogramBase"*, i32)*, void (%"class.base::HistogramBase"*, i32)** %42, i64 6
  %44 = load void (%"class.base::HistogramBase"*, i32)*, void (%"class.base::HistogramBase"*, i32)** %43, align 8
  tail call void %44(%"class.base::HistogramBase"* %40, i32 %32) #16
  br i1 %14, label %53, label %45

45:                                               ; preds = %39
  %46 = getelementptr inbounds %"class.base::SequencedTaskRunner", %"class.base::SequencedTaskRunner"* %3, i64 0, i32 0, i32 1
  %47 = getelementptr inbounds %"class.base::RefCountedThreadSafe", %"class.base::RefCountedThreadSafe"* %46, i64 0, i32 0, i32 0, i32 0, i32 0, i32 0, i32 0, i32 0, i32 0
  %48 = atomicrmw sub i32* %47, i32 1 acq_rel
  %49 = icmp eq i32 %48, 1
  br i1 %49, label %50, label %53

50:                                               ; preds = %45
  %51 = getelementptr inbounds %"class.base::RefCountedThreadSafe", %"class.base::RefCountedThreadSafe"* %46, i64 -2
  %52 = bitcast %"class.base::RefCountedThreadSafe"* %51 to %"class.base::TaskRunner"*
  tail call void @_ZN4base16TaskRunnerTraits8DestructEPKNS_10TaskRunnerE(%"class.base::TaskRunner"* %52) #16
  br label %53

53:                                               ; preds = %39, %45, %50
  ret void
}

; Function Attrs: argmemonly nounwind
declare void @llvm.lifetime.start.p0i8(i64 immarg, i8* nocapture) #1

; Function Attrs: nounwind ssp uwtable
define linkonce_odr hidden %"class.leveldb_proto::ProtoDatabase"* @_ZN13leveldb_proto21ProtoDatabaseProvider5GetDBIN18optimization_guide5proto10StoreEntryES4_EENSt3__110unique_ptrINS_13ProtoDatabaseIT_T0_EENS5_14default_deleteISA_EEEENS_11ProtoDbTypeERKN4base8FilePathERK13scoped_refptrINSF_19SequencedTaskRunnerEE(%"class.leveldb_proto::ProtoDatabaseProvider"*, i32, %"class.base::FilePath"* dereferenceable(24), %class.scoped_refptr* dereferenceable(8)) local_unnamed_addr #0 comdat align 2 {
  %5 = alloca %"class.base::internal::WeakReference", align 8
  %6 = alloca %"class.base::FilePath", align 8
  %7 = alloca %"class.base::WeakPtr.240", align 8
  %8 = getelementptr inbounds %"class.leveldb_proto::ProtoDatabaseProvider", %"class.leveldb_proto::ProtoDatabaseProvider"* %0, i64 0, i32 2
  %9 = load i8, i8* %8, align 8, !range !2
  %10 = icmp eq i8 %9, 0
  br i1 %10, label %41, label %11

11:                                               ; preds = %4
  %12 = bitcast %"class.base::FilePath"* %6 to i8*
  call void @llvm.lifetime.start.p0i8(i64 24, i8* nonnull %12) #16
  call void @_ZN4base8FilePathC1Ev(%"class.base::FilePath"* nonnull %6) #16
  %13 = call i8* @_Znwm(i64 64) #17
  %14 = bitcast i8* %13 to i32 (...)***
  store i32 (...)** bitcast (i8** getelementptr inbounds ({ [18 x i8*] }, { [18 x i8*] }* @_ZTVN13leveldb_proto17ProtoDatabaseImplIN18optimization_guide5proto10StoreEntryES3_EE, i64 0, inrange i32 0, i64 2) to i32 (...)**), i32 (...)*** %14, align 8
  %15 = getelementptr inbounds i8, i8* %13, i64 8
  %16 = bitcast i8* %15 to i32*
  store i32 %1, i32* %16, align 8
  %17 = call i8* @_Znwm(i64 128) #17
  %18 = bitcast i8* %17 to %"class.leveldb_proto::ProtoDatabaseSelector"*
  %19 = getelementptr inbounds %class.scoped_refptr, %class.scoped_refptr* %3, i64 0, i32 0
  %20 = load %"class.base::SequencedTaskRunner"*, %"class.base::SequencedTaskRunner"** %19, align 8
  %21 = icmp eq %"class.base::SequencedTaskRunner"* %20, null
  br i1 %21, label %25, label %22

22:                                               ; preds = %11
  %23 = getelementptr inbounds %"class.base::SequencedTaskRunner", %"class.base::SequencedTaskRunner"* %20, i64 0, i32 0, i32 1, i32 0, i32 0, i32 0, i32 0, i32 0, i32 0, i32 0, i32 0
  %24 = atomicrmw add i32* %23, i32 1 monotonic
  br label %25

25:                                               ; preds = %22, %11
  call void @_ZN13leveldb_proto21ProtoDatabaseSelectorC1ENS_11ProtoDbTypeE13scoped_refptrIN4base19SequencedTaskRunnerEENSt3__110unique_ptrINS_27SharedProtoDatabaseProviderENS6_14default_deleteIS8_EEEE(%"class.leveldb_proto::ProtoDatabaseSelector"* nonnull %18, i32 %1, %"class.base::SequencedTaskRunner"* %20, %"class.leveldb_proto::SharedProtoDatabaseProvider"* null) #16
  %26 = getelementptr inbounds i8, i8* %13, i64 16
  %27 = bitcast i8* %26 to i8**
  store i8* %17, i8** %27, align 8
  %28 = bitcast i8* %17 to i32*
  %29 = atomicrmw add i32* %28, i32 1 monotonic
  %30 = getelementptr inbounds i8, i8* %13, i64 24
  store i8 1, i8* %30, align 8
  %31 = load %"class.base::SequencedTaskRunner"*, %"class.base::SequencedTaskRunner"** %19, align 8
  %32 = getelementptr inbounds i8, i8* %13, i64 32
  %33 = bitcast i8* %32 to %"class.base::SequencedTaskRunner"**
  store %"class.base::SequencedTaskRunner"* %31, %"class.base::SequencedTaskRunner"** %33, align 8
  %34 = icmp eq %"class.base::SequencedTaskRunner"* %31, null
  br i1 %34, label %38, label %35

35:                                               ; preds = %25
  %36 = getelementptr inbounds %"class.base::SequencedTaskRunner", %"class.base::SequencedTaskRunner"* %31, i64 0, i32 0, i32 1, i32 0, i32 0, i32 0, i32 0, i32 0, i32 0, i32 0, i32 0
  %37 = atomicrmw add i32* %36, i32 1 monotonic
  br label %38

38:                                               ; preds = %25, %35
  %39 = getelementptr inbounds i8, i8* %13, i64 40
  %40 = bitcast i8* %39 to %"class.base::FilePath"*
  call void @_ZN4base8FilePathC1ERKS0_(%"class.base::FilePath"* %40, %"class.base::FilePath"* nonnull dereferenceable(24) %6) #16
  call void @_ZN4base8FilePathD1Ev(%"class.base::FilePath"* nonnull %6) #16
  call void @llvm.lifetime.end.p0i8(i64 24, i8* nonnull %12) #16
  br label %78

41:                                               ; preds = %4
  %42 = tail call i8* @_Znwm(i64 24) #17
  %43 = bitcast i8* %42 to %"class.leveldb_proto::SharedProtoDatabaseProvider"*
  %44 = getelementptr inbounds %"class.leveldb_proto::ProtoDatabaseProvider", %"class.leveldb_proto::ProtoDatabaseProvider"* %0, i64 0, i32 5
  %45 = bitcast %"class.base::internal::WeakReference"* %5 to i8*
  call void @llvm.lifetime.start.p0i8(i64 8, i8* nonnull %45) #16, !noalias !3
  %46 = getelementptr inbounds %"class.leveldb_proto::ProtoDatabaseProvider", %"class.leveldb_proto::ProtoDatabaseProvider"* %0, i64 0, i32 6, i32 0, i32 0
  call void @_ZNK4base8internal18WeakReferenceOwner6GetRefEv(%"class.base::internal::WeakReference"* nonnull sret %5, %"class.base::internal::WeakReferenceOwner"* %46) #16, !noalias !3
  %47 = getelementptr inbounds %"class.leveldb_proto::ProtoDatabaseProvider", %"class.leveldb_proto::ProtoDatabaseProvider"* %0, i64 0, i32 6, i32 0, i32 1
  %48 = load i64, i64* %47, align 8, !noalias !3
  %49 = getelementptr inbounds %"class.base::WeakPtr.240", %"class.base::WeakPtr.240"* %7, i64 0, i32 0
  call void @_ZN4base8internal11WeakPtrBaseC2ERKNS0_13WeakReferenceEm(%"class.base::internal::WeakPtrBase"* nonnull %49, %"class.base::internal::WeakReference"* nonnull dereferenceable(8) %5, i64 %48) #16
  call void @_ZN4base8internal13WeakReferenceD1Ev(%"class.base::internal::WeakReference"* nonnull %5) #16
  call void @llvm.lifetime.end.p0i8(i64 8, i8* nonnull %45) #16, !noalias !3
  call void @_ZN13leveldb_proto27SharedProtoDatabaseProviderC1ERK13scoped_refptrIN4base19SequencedTaskRunnerEENS2_7WeakPtrINS_21ProtoDatabaseProviderEEE(%"class.leveldb_proto::SharedProtoDatabaseProvider"* nonnull %43, %class.scoped_refptr* dereferenceable(8) %44, %"class.base::WeakPtr.240"* nonnull %7) #16
  %50 = call i8* @_Znwm(i64 64) #17
  %51 = bitcast i8* %50 to i32 (...)***
  store i32 (...)** bitcast (i8** getelementptr inbounds ({ [18 x i8*] }, { [18 x i8*] }* @_ZTVN13leveldb_proto17ProtoDatabaseImplIN18optimization_guide5proto10StoreEntryES3_EE, i64 0, inrange i32 0, i64 2) to i32 (...)**), i32 (...)*** %51, align 8
  %52 = getelementptr inbounds i8, i8* %50, i64 8
  %53 = bitcast i8* %52 to i32*
  store i32 %1, i32* %53, align 8
  %54 = call i8* @_Znwm(i64 128) #17
  %55 = bitcast i8* %54 to %"class.leveldb_proto::ProtoDatabaseSelector"*
  %56 = getelementptr inbounds %class.scoped_refptr, %class.scoped_refptr* %3, i64 0, i32 0
  %57 = load %"class.base::SequencedTaskRunner"*, %"class.base::SequencedTaskRunner"** %56, align 8
  %58 = icmp eq %"class.base::SequencedTaskRunner"* %57, null
  br i1 %58, label %62, label %59

59:                                               ; preds = %41
  %60 = getelementptr inbounds %"class.base::SequencedTaskRunner", %"class.base::SequencedTaskRunner"* %57, i64 0, i32 0, i32 1, i32 0, i32 0, i32 0, i32 0, i32 0, i32 0, i32 0, i32 0
  %61 = atomicrmw add i32* %60, i32 1 monotonic
  br label %62

62:                                               ; preds = %59, %41
  call void @_ZN13leveldb_proto21ProtoDatabaseSelectorC1ENS_11ProtoDbTypeE13scoped_refptrIN4base19SequencedTaskRunnerEENSt3__110unique_ptrINS_27SharedProtoDatabaseProviderENS6_14default_deleteIS8_EEEE(%"class.leveldb_proto::ProtoDatabaseSelector"* nonnull %55, i32 %1, %"class.base::SequencedTaskRunner"* %57, %"class.leveldb_proto::SharedProtoDatabaseProvider"* nonnull %43) #16
  %63 = getelementptr inbounds i8, i8* %50, i64 16
  %64 = bitcast i8* %63 to i8**
  store i8* %54, i8** %64, align 8
  %65 = bitcast i8* %54 to i32*
  %66 = atomicrmw add i32* %65, i32 1 monotonic
  %67 = getelementptr inbounds i8, i8* %50, i64 24
  store i8 0, i8* %67, align 8
  %68 = load %"class.base::SequencedTaskRunner"*, %"class.base::SequencedTaskRunner"** %56, align 8
  %69 = getelementptr inbounds i8, i8* %50, i64 32
  %70 = bitcast i8* %69 to %"class.base::SequencedTaskRunner"**
  store %"class.base::SequencedTaskRunner"* %68, %"class.base::SequencedTaskRunner"** %70, align 8
  %71 = icmp eq %"class.base::SequencedTaskRunner"* %68, null
  br i1 %71, label %75, label %72

72:                                               ; preds = %62
  %73 = getelementptr inbounds %"class.base::SequencedTaskRunner", %"class.base::SequencedTaskRunner"* %68, i64 0, i32 0, i32 1, i32 0, i32 0, i32 0, i32 0, i32 0, i32 0, i32 0, i32 0
  %74 = atomicrmw add i32* %73, i32 1 monotonic
  br label %75

75:                                               ; preds = %62, %72
  %76 = getelementptr inbounds i8, i8* %50, i64 40
  %77 = bitcast i8* %76 to %"class.base::FilePath"*
  call void @_ZN4base8FilePathC1ERKS0_(%"class.base::FilePath"* %77, %"class.base::FilePath"* dereferenceable(24) %2) #16
  call void @_ZN4base8internal11WeakPtrBaseD2Ev(%"class.base::internal::WeakPtrBase"* nonnull %49) #16
  br label %78

78:                                               ; preds = %75, %38
  %79 = phi i8* [ %50, %75 ], [ %13, %38 ]
  %80 = bitcast i8* %79 to %"class.leveldb_proto::ProtoDatabase"*
  ret %"class.leveldb_proto::ProtoDatabase"* %80
}

; Function Attrs: argmemonly nounwind
declare void @llvm.lifetime.end.p0i8(i64 immarg, i8* nocapture) #1

; Function Attrs: nounwind ssp uwtable
define hidden void @_ZN18optimization_guide22OptimizationGuideStoreC2ENSt3__110unique_ptrIN13leveldb_proto13ProtoDatabaseINS_5proto10StoreEntryES6_EENS1_14default_deleteIS7_EEEE13scoped_refptrIN4base19SequencedTaskRunnerEE(%"class.optimization_guide::OptimizationGuideStore"*, %"class.leveldb_proto::ProtoDatabase"*, %"class.base::SequencedTaskRunner"*) unnamed_addr #0 align 2 {
  %4 = ptrtoint %"class.leveldb_proto::ProtoDatabase"* %1 to i64
  %5 = getelementptr inbounds %"class.optimization_guide::OptimizationGuideStore", %"class.optimization_guide::OptimizationGuideStore"* %0, i64 0, i32 0
  store i32 (...)** bitcast (i8** getelementptr inbounds ({ [10 x i8*] }, { [10 x i8*] }* @_ZTVN18optimization_guide22OptimizationGuideStoreE, i64 0, inrange i32 0, i64 2) to i32 (...)**), i32 (...)*** %5, align 8
  %6 = getelementptr inbounds %"class.optimization_guide::OptimizationGuideStore", %"class.optimization_guide::OptimizationGuideStore"* %0, i64 0, i32 1
  %7 = bitcast %"class.std::__1::unique_ptr"* %6 to i64*
  store i64 %4, i64* %7, align 8
  %8 = getelementptr inbounds %"class.optimization_guide::OptimizationGuideStore", %"class.optimization_guide::OptimizationGuideStore"* %0, i64 0, i32 2
  store i32 0, i32* %8, align 8
  %9 = getelementptr inbounds %"class.optimization_guide::OptimizationGuideStore", %"class.optimization_guide::OptimizationGuideStore"* %0, i64 0, i32 3, i32 0, i32 0, i32 0, i32 0
  store i8 0, i8* %9, align 8
  %10 = getelementptr inbounds %"class.optimization_guide::OptimizationGuideStore", %"class.optimization_guide::OptimizationGuideStore"* %0, i64 0, i32 3, i32 0, i32 0, i32 0, i32 1
  %11 = getelementptr inbounds %"class.optimization_guide::OptimizationGuideStore", %"class.optimization_guide::OptimizationGuideStore"* %0, i64 0, i32 8, i32 0
  %12 = bitcast %union.anon* %10 to i8*
  call void @llvm.memset.p0i8.i64(i8* align 8 %12, i8 0, i64 72, i1 false)
  store %"class.base::SequencedTaskRunner"* %2, %"class.base::SequencedTaskRunner"** %11, align 8
  %13 = icmp eq %"class.base::SequencedTaskRunner"* %2, null
  br i1 %13, label %17, label %14

14:                                               ; preds = %3
  %15 = getelementptr inbounds %"class.base::SequencedTaskRunner", %"class.base::SequencedTaskRunner"* %2, i64 0, i32 0, i32 1, i32 0, i32 0, i32 0, i32 0, i32 0, i32 0, i32 0, i32 0
  %16 = atomicrmw add i32* %15, i32 1 monotonic
  br label %17

17:                                               ; preds = %3, %14
  %18 = getelementptr inbounds %"class.optimization_guide::OptimizationGuideStore", %"class.optimization_guide::OptimizationGuideStore"* %0, i64 0, i32 9, i32 0
  %19 = ptrtoint %"class.optimization_guide::OptimizationGuideStore"* %0 to i64
  tail call void @_ZN4base8internal18WeakPtrFactoryBaseC2Em(%"class.base::internal::WeakPtrFactoryBase"* %18, i64 %19) #16
  %20 = load i32, i32* %8, align 8
  %21 = load atomic i64, i64* @_ZZN18optimization_guide12_GLOBAL__N_118RecordStatusChangeENS_22OptimizationGuideStore6StatusEE24atomic_histogram_pointer.0.0.0.0.0 acquire, align 8
  %22 = inttoptr i64 %21 to %"class.base::HistogramBase"*
  %23 = icmp eq i64 %21, 0
  br i1 %23, label %24, label %27

24:                                               ; preds = %17
  %25 = tail call %"class.base::HistogramBase"* @_ZN4base15LinearHistogram10FactoryGetEPKciiji(i8* getelementptr inbounds ([47 x i8], [47 x i8]* @.str.10, i64 0, i64 0), i32 1, i32 4, i32 5, i32 1) #16
  %26 = ptrtoint %"class.base::HistogramBase"* %25 to i64
  store atomic i64 %26, i64* @_ZZN18optimization_guide12_GLOBAL__N_118RecordStatusChangeENS_22OptimizationGuideStore6StatusEE24atomic_histogram_pointer.0.0.0.0.0 release, align 8
  br label %27

27:                                               ; preds = %17, %24
  %28 = phi %"class.base::HistogramBase"* [ %22, %17 ], [ %25, %24 ]
  %29 = bitcast %"class.base::HistogramBase"* %28 to void (%"class.base::HistogramBase"*, i32)***
  %30 = load void (%"class.base::HistogramBase"*, i32)**, void (%"class.base::HistogramBase"*, i32)*** %29, align 8
  %31 = getelementptr inbounds void (%"class.base::HistogramBase"*, i32)*, void (%"class.base::HistogramBase"*, i32)** %30, i64 6
  %32 = load void (%"class.base::HistogramBase"*, i32)*, void (%"class.base::HistogramBase"*, i32)** %31, align 8
  tail call void %32(%"class.base::HistogramBase"* %28, i32 %20) #16
  br i1 %13, label %41, label %33

33:                                               ; preds = %27
  %34 = getelementptr inbounds %"class.base::SequencedTaskRunner", %"class.base::SequencedTaskRunner"* %2, i64 0, i32 0, i32 1
  %35 = getelementptr inbounds %"class.base::RefCountedThreadSafe", %"class.base::RefCountedThreadSafe"* %34, i64 0, i32 0, i32 0, i32 0, i32 0, i32 0, i32 0, i32 0, i32 0
  %36 = atomicrmw sub i32* %35, i32 1 acq_rel
  %37 = icmp eq i32 %36, 1
  br i1 %37, label %38, label %41

38:                                               ; preds = %33
  %39 = getelementptr inbounds %"class.base::RefCountedThreadSafe", %"class.base::RefCountedThreadSafe"* %34, i64 -2
  %40 = bitcast %"class.base::RefCountedThreadSafe"* %39 to %"class.base::TaskRunner"*
  tail call void @_ZN4base16TaskRunnerTraits8DestructEPKNS_10TaskRunnerE(%"class.base::TaskRunner"* %40) #16
  br label %41

41:                                               ; preds = %38, %33, %27
  ret void
}

; Function Attrs: nounwind ssp uwtable
define hidden void @_ZN18optimization_guide22OptimizationGuideStoreD2Ev(%"class.optimization_guide::OptimizationGuideStore"*) unnamed_addr #0 align 2 {
  %2 = getelementptr inbounds %"class.optimization_guide::OptimizationGuideStore", %"class.optimization_guide::OptimizationGuideStore"* %0, i64 0, i32 0
  store i32 (...)** bitcast (i8** getelementptr inbounds ({ [10 x i8*] }, { [10 x i8*] }* @_ZTVN18optimization_guide22OptimizationGuideStoreE, i64 0, inrange i32 0, i64 2) to i32 (...)**), i32 (...)*** %2, align 8
  %3 = getelementptr inbounds %"class.optimization_guide::OptimizationGuideStore", %"class.optimization_guide::OptimizationGuideStore"* %0, i64 0, i32 9, i32 0
  tail call void @_ZN4base8internal18WeakPtrFactoryBaseD2Ev(%"class.base::internal::WeakPtrFactoryBase"* %3) #16
  %4 = getelementptr inbounds %"class.optimization_guide::OptimizationGuideStore", %"class.optimization_guide::OptimizationGuideStore"* %0, i64 0, i32 8, i32 0
  %5 = load %"class.base::SequencedTaskRunner"*, %"class.base::SequencedTaskRunner"** %4, align 8
  %6 = icmp eq %"class.base::SequencedTaskRunner"* %5, null
  br i1 %6, label %15, label %7

7:                                                ; preds = %1
  %8 = getelementptr inbounds %"class.base::SequencedTaskRunner", %"class.base::SequencedTaskRunner"* %5, i64 0, i32 0, i32 1
  %9 = getelementptr inbounds %"class.base::RefCountedThreadSafe", %"class.base::RefCountedThreadSafe"* %8, i64 0, i32 0, i32 0, i32 0, i32 0, i32 0, i32 0, i32 0, i32 0
  %10 = atomicrmw sub i32* %9, i32 1 acq_rel
  %11 = icmp eq i32 %10, 1
  br i1 %11, label %12, label %15

12:                                               ; preds = %7
  %13 = getelementptr inbounds %"class.base::RefCountedThreadSafe", %"class.base::RefCountedThreadSafe"* %8, i64 -2
  %14 = bitcast %"class.base::RefCountedThreadSafe"* %13 to %"class.base::TaskRunner"*
  tail call void @_ZN4base16TaskRunnerTraits8DestructEPKNS_10TaskRunnerE(%"class.base::TaskRunner"* %14) #16
  br label %15

15:                                               ; preds = %1, %7, %12
  %16 = getelementptr inbounds %"class.optimization_guide::OptimizationGuideStore", %"class.optimization_guide::OptimizationGuideStore"* %0, i64 0, i32 7, i32 0, i32 0, i32 0
  %17 = load %"class.base::internal::flat_tree"*, %"class.base::internal::flat_tree"** %16, align 8
  store %"class.base::internal::flat_tree"* null, %"class.base::internal::flat_tree"** %16, align 8
  %18 = icmp eq %"class.base::internal::flat_tree"* %17, null
  br i1 %18, label %47, label %19

19:                                               ; preds = %15
  %20 = getelementptr inbounds %"class.base::internal::flat_tree", %"class.base::internal::flat_tree"* %17, i64 0, i32 0, i32 0, i32 0
  %21 = load %"class.std::__1::basic_string"*, %"class.std::__1::basic_string"** %20, align 8
  %22 = icmp eq %"class.std::__1::basic_string"* %21, null
  br i1 %22, label %45, label %23

23:                                               ; preds = %19
  %24 = bitcast %"class.std::__1::basic_string"* %21 to i8*
  %25 = getelementptr inbounds %"class.base::internal::flat_tree", %"class.base::internal::flat_tree"* %17, i64 0, i32 0, i32 0, i32 1
  %26 = load %"class.std::__1::basic_string"*, %"class.std::__1::basic_string"** %25, align 8
  %27 = icmp eq %"class.std::__1::basic_string"* %26, %21
  br i1 %27, label %43, label %28

28:                                               ; preds = %23, %38
  %29 = phi %"class.std::__1::basic_string"* [ %30, %38 ], [ %26, %23 ]
  %30 = getelementptr inbounds %"class.std::__1::basic_string", %"class.std::__1::basic_string"* %29, i64 -1
  %31 = bitcast %"class.std::__1::basic_string"* %30 to %"struct.std::__1::basic_string<char, std::__1::char_traits<char>, std::__1::allocator<char> >::__short"*
  %32 = getelementptr inbounds %"struct.std::__1::basic_string<char, std::__1::char_traits<char>, std::__1::allocator<char> >::__short", %"struct.std::__1::basic_string<char, std::__1::char_traits<char>, std::__1::allocator<char> >::__short"* %31, i64 0, i32 1, i32 0
  %33 = load i8, i8* %32, align 1
  %34 = icmp slt i8 %33, 0
  br i1 %34, label %35, label %38

35:                                               ; preds = %28
  %36 = getelementptr inbounds %"class.std::__1::basic_string", %"class.std::__1::basic_string"* %30, i64 0, i32 0, i32 0, i32 0, i32 0, i32 0, i32 0
  %37 = load i8*, i8** %36, align 8
  tail call void @_ZdlPv(i8* %37) #17
  br label %38

38:                                               ; preds = %35, %28
  %39 = icmp eq %"class.std::__1::basic_string"* %30, %21
  br i1 %39, label %40, label %28

40:                                               ; preds = %38
  %41 = bitcast %"class.base::internal::flat_tree"* %17 to i8**
  %42 = load i8*, i8** %41, align 8
  br label %43

43:                                               ; preds = %40, %23
  %44 = phi i8* [ %42, %40 ], [ %24, %23 ]
  store %"class.std::__1::basic_string"* %21, %"class.std::__1::basic_string"** %25, align 8
  tail call void @_ZdlPv(i8* %44) #17
  br label %45

45:                                               ; preds = %43, %19
  %46 = bitcast %"class.base::internal::flat_tree"* %17 to i8*
  tail call void @_ZdlPv(i8* %46) #17
  br label %47

47:                                               ; preds = %15, %45
  %48 = getelementptr inbounds %"class.optimization_guide::OptimizationGuideStore", %"class.optimization_guide::OptimizationGuideStore"* %0, i64 0, i32 4
  %49 = bitcast %"class.std::__1::basic_string"* %48 to %"struct.std::__1::basic_string<char, std::__1::char_traits<char>, std::__1::allocator<char> >::__short"*
  %50 = getelementptr inbounds %"struct.std::__1::basic_string<char, std::__1::char_traits<char>, std::__1::allocator<char> >::__short", %"struct.std::__1::basic_string<char, std::__1::char_traits<char>, std::__1::allocator<char> >::__short"* %49, i64 0, i32 1, i32 0
  %51 = load i8, i8* %50, align 1
  %52 = icmp slt i8 %51, 0
  br i1 %52, label %53, label %56

53:                                               ; preds = %47
  %54 = getelementptr inbounds %"class.std::__1::basic_string", %"class.std::__1::basic_string"* %48, i64 0, i32 0, i32 0, i32 0, i32 0, i32 0, i32 0
  %55 = load i8*, i8** %54, align 8
  tail call void @_ZdlPv(i8* %55) #17
  br label %56

56:                                               ; preds = %47, %53
  %57 = getelementptr inbounds %"class.optimization_guide::OptimizationGuideStore", %"class.optimization_guide::OptimizationGuideStore"* %0, i64 0, i32 3, i32 0, i32 0, i32 0, i32 0
  %58 = load i8, i8* %57, align 8, !range !2
  %59 = icmp eq i8 %58, 0
  br i1 %59, label %62, label %60

60:                                               ; preds = %56
  %61 = getelementptr inbounds %"class.optimization_guide::OptimizationGuideStore", %"class.optimization_guide::OptimizationGuideStore"* %0, i64 0, i32 3, i32 0, i32 0, i32 0, i32 1, i32 0
  tail call void @_ZN4base7VersionD1Ev(%"class.base::Version"* %61) #16
  store i8 0, i8* %57, align 8
  br label %62

62:                                               ; preds = %56, %60
  %63 = getelementptr inbounds %"class.optimization_guide::OptimizationGuideStore", %"class.optimization_guide::OptimizationGuideStore"* %0, i64 0, i32 1, i32 0, i32 0, i32 0
  %64 = load %"class.leveldb_proto::ProtoDatabase"*, %"class.leveldb_proto::ProtoDatabase"** %63, align 8
  store %"class.leveldb_proto::ProtoDatabase"* null, %"class.leveldb_proto::ProtoDatabase"** %63, align 8
  %65 = icmp eq %"class.leveldb_proto::ProtoDatabase"* %64, null
  br i1 %65, label %71, label %66

66:                                               ; preds = %62
  %67 = bitcast %"class.leveldb_proto::ProtoDatabase"* %64 to void (%"class.leveldb_proto::ProtoDatabase"*)***
  %68 = load void (%"class.leveldb_proto::ProtoDatabase"*)**, void (%"class.leveldb_proto::ProtoDatabase"*)*** %67, align 8
  %69 = getelementptr inbounds void (%"class.leveldb_proto::ProtoDatabase"*)*, void (%"class.leveldb_proto::ProtoDatabase"*)** %68, i64 1
  %70 = load void (%"class.leveldb_proto::ProtoDatabase"*)*, void (%"class.leveldb_proto::ProtoDatabase"*)** %69, align 8
  tail call void %70(%"class.leveldb_proto::ProtoDatabase"* nonnull %64) #16
  br label %71

71:                                               ; preds = %62, %66
  ret void
}

; Function Attrs: nounwind
declare void @_ZN4base8internal18WeakPtrFactoryBaseD2Ev(%"class.base::internal::WeakPtrFactoryBase"*) unnamed_addr #2

; Function Attrs: nounwind ssp uwtable
define hidden void @_ZN18optimization_guide22OptimizationGuideStoreD0Ev(%"class.optimization_guide::OptimizationGuideStore"*) unnamed_addr #0 align 2 {
  tail call void @_ZN18optimization_guide22OptimizationGuideStoreD2Ev(%"class.optimization_guide::OptimizationGuideStore"* %0) #16
  %2 = bitcast %"class.optimization_guide::OptimizationGuideStore"* %0 to i8*
  tail call void @_ZdlPv(i8* %2) #17
  ret void
}

; Function Attrs: nobuiltin nounwind
declare void @_ZdlPv(i8*) local_unnamed_addr #3

; Function Attrs: nounwind ssp uwtable
define hidden void @_ZN18optimization_guide22OptimizationGuideStore10InitializeEbN4base12OnceCallbackIFvvEEE(%"class.optimization_guide::OptimizationGuideStore"*, i1 zeroext, %"class.base::OnceCallback"* nocapture) unnamed_addr #0 align 2 {
  %4 = alloca %"class.base::internal::WeakReference", align 8
  %5 = alloca %"class.base::OnceCallback", align 8
  %6 = alloca %"struct.leveldb_env::Options", align 8
  %7 = alloca %"class.base::OnceCallback.81", align 8
  %8 = alloca %"class.base::WeakPtr", align 8
  %9 = getelementptr inbounds %"class.optimization_guide::OptimizationGuideStore", %"class.optimization_guide::OptimizationGuideStore"* %0, i64 0, i32 2
  %10 = load i32, i32* %9, align 8
  %11 = icmp sgt i32 %10, 0
  br i1 %11, label %12, label %23

12:                                               ; preds = %3
  %13 = bitcast %"class.base::OnceCallback"* %5 to i8*
  call void @llvm.lifetime.start.p0i8(i64 8, i8* nonnull %13) #16
  %14 = getelementptr inbounds %"class.base::OnceCallback", %"class.base::OnceCallback"* %2, i64 0, i32 0, i32 0, i32 0
  %15 = bitcast %"class.base::OnceCallback"* %2 to i64*
  %16 = load i64, i64* %15, align 8
  %17 = bitcast %"class.base::OnceCallback"* %5 to i64*
  store i64 %16, i64* %17, align 8
  store %"class.base::internal::BindStateBase"* null, %"class.base::internal::BindStateBase"** %14, align 8
  %18 = getelementptr inbounds %"class.base::OnceCallback", %"class.base::OnceCallback"* %5, i64 0, i32 0
  %19 = inttoptr i64 %16 to %"class.base::internal::BindStateBase"*
  %20 = getelementptr inbounds %"class.base::internal::BindStateBase", %"class.base::internal::BindStateBase"* %19, i64 0, i32 1
  %21 = bitcast void ()** %20 to void (%"class.base::internal::BindStateBase"*)**
  %22 = load void (%"class.base::internal::BindStateBase"*)*, void (%"class.base::internal::BindStateBase"*)** %21, align 8
  tail call void %22(%"class.base::internal::BindStateBase"* %19) #16
  call void @_ZN4base8internal12CallbackBaseD2Ev(%"class.base::internal::CallbackBase"* nonnull %18) #16
  call void @llvm.lifetime.end.p0i8(i64 8, i8* nonnull %13) #16
  br label %60

23:                                               ; preds = %3
  %24 = zext i1 %1 to i8
  tail call void @_ZN18optimization_guide22OptimizationGuideStore12UpdateStatusENS0_6StatusE(%"class.optimization_guide::OptimizationGuideStore"* %0, i32 1)
  %25 = bitcast %"struct.leveldb_env::Options"* %6 to i8*
  call void @llvm.lifetime.start.p0i8(i64 112, i8* nonnull %25) #16
  call void @llvm.memset.p0i8.i64(i8* nonnull align 8 %25, i8 -86, i64 112, i1 false)
  call void @_ZN13leveldb_proto19CreateSimpleOptionsEv(%"struct.leveldb_env::Options"* nonnull sret %6) #16
  %26 = getelementptr inbounds %"struct.leveldb_env::Options", %"struct.leveldb_env::Options"* %6, i64 0, i32 0, i32 6
  store i64 131072, i64* %26, align 8
  %27 = getelementptr inbounds %"class.optimization_guide::OptimizationGuideStore", %"class.optimization_guide::OptimizationGuideStore"* %0, i64 0, i32 1, i32 0, i32 0, i32 0
  %28 = load %"class.leveldb_proto::ProtoDatabase"*, %"class.leveldb_proto::ProtoDatabase"** %27, align 8
  %29 = bitcast %"class.base::WeakPtr"* %8 to i8*
  call void @llvm.lifetime.start.p0i8(i64 16, i8* nonnull %29) #16
  %30 = bitcast %"class.base::internal::WeakReference"* %4 to i8*
  call void @llvm.lifetime.start.p0i8(i64 8, i8* nonnull %30) #16, !noalias !6
  %31 = getelementptr inbounds %"class.optimization_guide::OptimizationGuideStore", %"class.optimization_guide::OptimizationGuideStore"* %0, i64 0, i32 9, i32 0, i32 0
  call void @_ZNK4base8internal18WeakReferenceOwner6GetRefEv(%"class.base::internal::WeakReference"* nonnull sret %4, %"class.base::internal::WeakReferenceOwner"* %31) #16, !noalias !6
  %32 = getelementptr inbounds %"class.optimization_guide::OptimizationGuideStore", %"class.optimization_guide::OptimizationGuideStore"* %0, i64 0, i32 9, i32 0, i32 1
  %33 = load i64, i64* %32, align 8, !noalias !6
  %34 = getelementptr inbounds %"class.base::WeakPtr", %"class.base::WeakPtr"* %8, i64 0, i32 0
  call void @_ZN4base8internal11WeakPtrBaseC2ERKNS0_13WeakReferenceEm(%"class.base::internal::WeakPtrBase"* nonnull %34, %"class.base::internal::WeakReference"* nonnull dereferenceable(8) %4, i64 %33) #16
  call void @_ZN4base8internal13WeakReferenceD1Ev(%"class.base::internal::WeakReference"* nonnull %4) #16
  call void @llvm.lifetime.end.p0i8(i64 8, i8* nonnull %30) #16, !noalias !6
  %35 = call i8* @_Znwm(i64 80) #17, !noalias !9
  %36 = bitcast i8* %35 to %"class.base::internal::BindStateBase"*
  call void @_ZN4base8internal13BindStateBaseC2EPFvvEPFvPKS1_EPFbS5_NS1_21CancellationQueryModeEE(%"class.base::internal::BindStateBase"* nonnull %36, void ()* bitcast (void (%"class.base::internal::BindStateBase"*, i32)* @_ZN4base8internal7InvokerINS0_9BindStateIMN18optimization_guide22OptimizationGuideStoreEFvbNS_12OnceCallbackIFvvEEEN13leveldb_proto5Enums10InitStatusEEJNS_7WeakPtrIS4_EEbS7_EEEFvSA_EE7RunOnceEPNS0_13BindStateBaseESA_ to void ()*), void (%"class.base::internal::BindStateBase"*)* nonnull @_ZN4base8internal9BindStateIMN18optimization_guide22OptimizationGuideStoreEFvbNS_12OnceCallbackIFvvEEEN13leveldb_proto5Enums10InitStatusEEJNS_7WeakPtrIS3_EEbS6_EE7DestroyEPKNS0_13BindStateBaseE, i1 (%"class.base::internal::BindStateBase"*, i32)* nonnull @_ZN4base8internal23QueryCancellationTraitsINS0_9BindStateIMN18optimization_guide22OptimizationGuideStoreEFvbNS_12OnceCallbackIFvvEEEN13leveldb_proto5Enums10InitStatusEEJNS_7WeakPtrIS4_EEbS7_EEEEEbPKNS0_13BindStateBaseENSG_21CancellationQueryModeE) #16, !noalias !9
  %37 = getelementptr inbounds i8, i8* %35, i64 32
  %38 = bitcast i8* %37 to <2 x i64>*
  store <2 x i64> <i64 ptrtoint (void (%"class.optimization_guide::OptimizationGuideStore"*, i1, %"class.base::OnceCallback"*, i32)* @_ZN18optimization_guide22OptimizationGuideStore21OnDatabaseInitializedEbN4base12OnceCallbackIFvvEEEN13leveldb_proto5Enums10InitStatusE to i64), i64 0>, <2 x i64>* %38, align 8, !noalias !9
  %39 = getelementptr inbounds i8, i8* %35, i64 48
  %40 = bitcast i8* %39 to %"class.base::internal::WeakReference"*
  %41 = getelementptr inbounds %"class.base::WeakPtr", %"class.base::WeakPtr"* %8, i64 0, i32 0, i32 0
  call void @_ZN4base8internal13WeakReferenceC1EOS1_(%"class.base::internal::WeakReference"* %40, %"class.base::internal::WeakReference"* nonnull dereferenceable(8) %41) #16, !noalias !9
  %42 = getelementptr inbounds i8, i8* %35, i64 56
  %43 = bitcast i8* %42 to i64*
  %44 = getelementptr inbounds %"class.base::WeakPtr", %"class.base::WeakPtr"* %8, i64 0, i32 0, i32 1
  %45 = load i64, i64* %44, align 8, !noalias !9
  store i64 %45, i64* %43, align 8, !noalias !9
  %46 = getelementptr inbounds i8, i8* %35, i64 64
  store i8 %24, i8* %46, align 1, !noalias !9
  %47 = getelementptr inbounds i8, i8* %35, i64 72
  %48 = getelementptr inbounds %"class.base::OnceCallback", %"class.base::OnceCallback"* %2, i64 0, i32 0, i32 0, i32 0
  %49 = bitcast %"class.base::OnceCallback"* %2 to i64*
  %50 = load i64, i64* %49, align 8, !noalias !9
  %51 = bitcast i8* %47 to i64*
  store i64 %50, i64* %51, align 8, !noalias !9
  store %"class.base::internal::BindStateBase"* null, %"class.base::internal::BindStateBase"** %48, align 8, !noalias !9
  %52 = bitcast %"class.base::OnceCallback.81"* %7 to i8**
  store i8* %35, i8** %52, align 8, !alias.scope !9
  %53 = bitcast %"class.leveldb_proto::ProtoDatabase"* %28 to void (%"class.leveldb_proto::ProtoDatabase"*, %"struct.leveldb_env::Options"*, %"class.base::OnceCallback.81"*)***
  %54 = load void (%"class.leveldb_proto::ProtoDatabase"*, %"struct.leveldb_env::Options"*, %"class.base::OnceCallback.81"*)**, void (%"class.leveldb_proto::ProtoDatabase"*, %"struct.leveldb_env::Options"*, %"class.base::OnceCallback.81"*)*** %53, align 8
  %55 = getelementptr inbounds void (%"class.leveldb_proto::ProtoDatabase"*, %"struct.leveldb_env::Options"*, %"class.base::OnceCallback.81"*)*, void (%"class.leveldb_proto::ProtoDatabase"*, %"struct.leveldb_env::Options"*, %"class.base::OnceCallback.81"*)** %54, i64 3
  %56 = load void (%"class.leveldb_proto::ProtoDatabase"*, %"struct.leveldb_env::Options"*, %"class.base::OnceCallback.81"*)*, void (%"class.leveldb_proto::ProtoDatabase"*, %"struct.leveldb_env::Options"*, %"class.base::OnceCallback.81"*)** %55, align 8
  call void %56(%"class.leveldb_proto::ProtoDatabase"* %28, %"struct.leveldb_env::Options"* nonnull dereferenceable(112) %6, %"class.base::OnceCallback.81"* nonnull %7) #16
  %57 = getelementptr inbounds %"class.base::OnceCallback.81", %"class.base::OnceCallback.81"* %7, i64 0, i32 0
  call void @_ZN4base8internal12CallbackBaseD2Ev(%"class.base::internal::CallbackBase"* nonnull %57) #16
  call void @_ZN4base8internal11WeakPtrBaseD2Ev(%"class.base::internal::WeakPtrBase"* nonnull %34) #16
  call void @llvm.lifetime.end.p0i8(i64 16, i8* nonnull %29) #16
  %58 = getelementptr inbounds %"struct.leveldb_env::Options", %"struct.leveldb_env::Options"* %6, i64 0, i32 2, i32 0, i32 0
  call void @_ZN4base8internal12CallbackBaseD2Ev(%"class.base::internal::CallbackBase"* %58) #16
  %59 = getelementptr inbounds %"struct.leveldb_env::Options", %"struct.leveldb_env::Options"* %6, i64 0, i32 1, i32 0, i32 0
  call void @_ZN4base8internal12CallbackBaseD2Ev(%"class.base::internal::CallbackBase"* %59) #16
  call void @llvm.lifetime.end.p0i8(i64 112, i8* nonnull %25) #16
  br label %60

60:                                               ; preds = %23, %12
  ret void
}

; Function Attrs: nounwind ssp uwtable
define hidden void @_ZN18optimization_guide22OptimizationGuideStore12UpdateStatusENS0_6StatusE(%"class.optimization_guide::OptimizationGuideStore"*, i32) local_unnamed_addr #0 align 2 {
  %3 = alloca %"class.base::internal::WeakReference", align 8
  %4 = alloca %"class.base::OnceCallback.122", align 8
  %5 = alloca %"class.base::WeakPtr", align 8
  %6 = getelementptr inbounds %"class.optimization_guide::OptimizationGuideStore", %"class.optimization_guide::OptimizationGuideStore"* %0, i64 0, i32 2
  %7 = load i32, i32* %6, align 8
  %8 = icmp eq i32 %7, %1
  br i1 %8, label %99, label %9

9:                                                ; preds = %2
  store i32 %1, i32* %6, align 8
  %10 = load atomic i64, i64* @_ZZN18optimization_guide12_GLOBAL__N_118RecordStatusChangeENS_22OptimizationGuideStore6StatusEE24atomic_histogram_pointer.0.0.0.0.0 acquire, align 8
  %11 = inttoptr i64 %10 to %"class.base::HistogramBase"*
  %12 = icmp eq i64 %10, 0
  br i1 %12, label %13, label %16

13:                                               ; preds = %9
  %14 = tail call %"class.base::HistogramBase"* @_ZN4base15LinearHistogram10FactoryGetEPKciiji(i8* getelementptr inbounds ([47 x i8], [47 x i8]* @.str.10, i64 0, i64 0), i32 1, i32 4, i32 5, i32 1) #16
  %15 = ptrtoint %"class.base::HistogramBase"* %14 to i64
  store atomic i64 %15, i64* @_ZZN18optimization_guide12_GLOBAL__N_118RecordStatusChangeENS_22OptimizationGuideStore6StatusEE24atomic_histogram_pointer.0.0.0.0.0 release, align 8
  br label %16

16:                                               ; preds = %9, %13
  %17 = phi %"class.base::HistogramBase"* [ %11, %9 ], [ %14, %13 ]
  %18 = bitcast %"class.base::HistogramBase"* %17 to void (%"class.base::HistogramBase"*, i32)***
  %19 = load void (%"class.base::HistogramBase"*, i32)**, void (%"class.base::HistogramBase"*, i32)*** %18, align 8
  %20 = getelementptr inbounds void (%"class.base::HistogramBase"*, i32)*, void (%"class.base::HistogramBase"*, i32)** %19, i64 6
  %21 = load void (%"class.base::HistogramBase"*, i32)*, void (%"class.base::HistogramBase"*, i32)** %20, align 8
  tail call void %21(%"class.base::HistogramBase"* %17, i32 %1) #16
  %22 = load i32, i32* %6, align 8
  %23 = icmp eq i32 %22, 3
  br i1 %23, label %24, label %99

24:                                               ; preds = %16
  %25 = getelementptr inbounds %"class.optimization_guide::OptimizationGuideStore", %"class.optimization_guide::OptimizationGuideStore"* %0, i64 0, i32 1, i32 0, i32 0, i32 0
  %26 = load %"class.leveldb_proto::ProtoDatabase"*, %"class.leveldb_proto::ProtoDatabase"** %25, align 8
  %27 = bitcast %"class.base::WeakPtr"* %5 to i8*
  call void @llvm.lifetime.start.p0i8(i64 16, i8* nonnull %27) #16
  %28 = bitcast %"class.base::internal::WeakReference"* %3 to i8*
  call void @llvm.lifetime.start.p0i8(i64 8, i8* nonnull %28) #16, !noalias !14
  %29 = getelementptr inbounds %"class.optimization_guide::OptimizationGuideStore", %"class.optimization_guide::OptimizationGuideStore"* %0, i64 0, i32 9, i32 0, i32 0
  call void @_ZNK4base8internal18WeakReferenceOwner6GetRefEv(%"class.base::internal::WeakReference"* nonnull sret %3, %"class.base::internal::WeakReferenceOwner"* %29) #16, !noalias !14
  %30 = getelementptr inbounds %"class.optimization_guide::OptimizationGuideStore", %"class.optimization_guide::OptimizationGuideStore"* %0, i64 0, i32 9, i32 0, i32 1
  %31 = load i64, i64* %30, align 8, !noalias !14
  %32 = getelementptr inbounds %"class.base::WeakPtr", %"class.base::WeakPtr"* %5, i64 0, i32 0
  call void @_ZN4base8internal11WeakPtrBaseC2ERKNS0_13WeakReferenceEm(%"class.base::internal::WeakPtrBase"* nonnull %32, %"class.base::internal::WeakReference"* nonnull dereferenceable(8) %3, i64 %31) #16
  call void @_ZN4base8internal13WeakReferenceD1Ev(%"class.base::internal::WeakReference"* nonnull %3) #16
  call void @llvm.lifetime.end.p0i8(i64 8, i8* nonnull %28) #16, !noalias !14
  %33 = call i8* @_Znwm(i64 64) #17, !noalias !17
  %34 = bitcast i8* %33 to %"class.base::internal::BindStateBase"*
  call void @_ZN4base8internal13BindStateBaseC2EPFvvEPFvPKS1_EPFbS5_NS1_21CancellationQueryModeEE(%"class.base::internal::BindStateBase"* nonnull %34, void ()* bitcast (void (%"class.base::internal::BindStateBase"*, i1)* @_ZN4base8internal7InvokerINS0_9BindStateIMN18optimization_guide22OptimizationGuideStoreEFvbEJNS_7WeakPtrIS4_EEEEEFvbEE7RunOnceEPNS0_13BindStateBaseEb to void ()*), void (%"class.base::internal::BindStateBase"*)* nonnull @_ZN4base8internal9BindStateIMN18optimization_guide22OptimizationGuideStoreEFvbEJNS_7WeakPtrIS3_EEEE7DestroyEPKNS0_13BindStateBaseE, i1 (%"class.base::internal::BindStateBase"*, i32)* nonnull @_ZN4base8internal23QueryCancellationTraitsINS0_9BindStateIMN18optimization_guide22OptimizationGuideStoreEFvbEJNS_7WeakPtrIS4_EEEEEEEbPKNS0_13BindStateBaseENSA_21CancellationQueryModeE) #16, !noalias !17
  %35 = getelementptr inbounds i8, i8* %33, i64 32
  %36 = bitcast i8* %35 to <2 x i64>*
  store <2 x i64> <i64 ptrtoint (void (%"class.optimization_guide::OptimizationGuideStore"*, i1)* @_ZN18optimization_guide22OptimizationGuideStore19OnDatabaseDestroyedEb to i64), i64 0>, <2 x i64>* %36, align 8, !noalias !17
  %37 = getelementptr inbounds i8, i8* %33, i64 48
  %38 = bitcast i8* %37 to %"class.base::internal::WeakReference"*
  %39 = getelementptr inbounds %"class.base::WeakPtr", %"class.base::WeakPtr"* %5, i64 0, i32 0, i32 0
  call void @_ZN4base8internal13WeakReferenceC1EOS1_(%"class.base::internal::WeakReference"* %38, %"class.base::internal::WeakReference"* nonnull dereferenceable(8) %39) #16, !noalias !17
  %40 = getelementptr inbounds i8, i8* %33, i64 56
  %41 = bitcast i8* %40 to i64*
  %42 = getelementptr inbounds %"class.base::WeakPtr", %"class.base::WeakPtr"* %5, i64 0, i32 0, i32 1
  %43 = load i64, i64* %42, align 8, !noalias !17
  store i64 %43, i64* %41, align 8, !noalias !17
  %44 = bitcast %"class.base::OnceCallback.122"* %4 to i8**
  store i8* %33, i8** %44, align 8, !alias.scope !17
  %45 = bitcast %"class.leveldb_proto::ProtoDatabase"* %26 to void (%"class.leveldb_proto::ProtoDatabase"*, %"class.base::OnceCallback.122"*)***
  %46 = load void (%"class.leveldb_proto::ProtoDatabase"*, %"class.base::OnceCallback.122"*)**, void (%"class.leveldb_proto::ProtoDatabase"*, %"class.base::OnceCallback.122"*)*** %45, align 8
  %47 = getelementptr inbounds void (%"class.leveldb_proto::ProtoDatabase"*, %"class.base::OnceCallback.122"*)*, void (%"class.leveldb_proto::ProtoDatabase"*, %"class.base::OnceCallback.122"*)** %46, i64 15
  %48 = load void (%"class.leveldb_proto::ProtoDatabase"*, %"class.base::OnceCallback.122"*)*, void (%"class.leveldb_proto::ProtoDatabase"*, %"class.base::OnceCallback.122"*)** %47, align 8
  call void %48(%"class.leveldb_proto::ProtoDatabase"* %26, %"class.base::OnceCallback.122"* nonnull %4) #16
  %49 = getelementptr inbounds %"class.base::OnceCallback.122", %"class.base::OnceCallback.122"* %4, i64 0, i32 0
  call void @_ZN4base8internal12CallbackBaseD2Ev(%"class.base::internal::CallbackBase"* nonnull %49) #16
  call void @_ZN4base8internal11WeakPtrBaseD2Ev(%"class.base::internal::WeakPtrBase"* nonnull %32) #16
  call void @llvm.lifetime.end.p0i8(i64 16, i8* nonnull %27) #16
  %50 = getelementptr inbounds %"class.optimization_guide::OptimizationGuideStore", %"class.optimization_guide::OptimizationGuideStore"* %0, i64 0, i32 3, i32 0, i32 0, i32 0, i32 0
  %51 = load i8, i8* %50, align 8, !range !2
  %52 = icmp eq i8 %51, 0
  br i1 %52, label %55, label %53

53:                                               ; preds = %24
  %54 = getelementptr inbounds %"class.optimization_guide::OptimizationGuideStore", %"class.optimization_guide::OptimizationGuideStore"* %0, i64 0, i32 3, i32 0, i32 0, i32 0, i32 1, i32 0
  call void @_ZN4base7VersionD1Ev(%"class.base::Version"* %54) #16
  store i8 0, i8* %50, align 8
  br label %55

55:                                               ; preds = %53, %24
  %56 = getelementptr inbounds %"class.optimization_guide::OptimizationGuideStore", %"class.optimization_guide::OptimizationGuideStore"* %0, i64 0, i32 4
  %57 = bitcast %"class.std::__1::basic_string"* %56 to %"struct.std::__1::basic_string<char, std::__1::char_traits<char>, std::__1::allocator<char> >::__short"*
  %58 = getelementptr inbounds %"struct.std::__1::basic_string<char, std::__1::char_traits<char>, std::__1::allocator<char> >::__short", %"struct.std::__1::basic_string<char, std::__1::char_traits<char>, std::__1::allocator<char> >::__short"* %57, i64 0, i32 1, i32 0
  %59 = load i8, i8* %58, align 1
  %60 = icmp slt i8 %59, 0
  br i1 %60, label %61, label %65

61:                                               ; preds = %55
  %62 = getelementptr inbounds %"class.std::__1::basic_string", %"class.std::__1::basic_string"* %56, i64 0, i32 0, i32 0, i32 0, i32 0, i32 0, i32 0
  %63 = load i8*, i8** %62, align 8
  store i8 0, i8* %63, align 1
  %64 = getelementptr inbounds %"class.optimization_guide::OptimizationGuideStore", %"class.optimization_guide::OptimizationGuideStore"* %0, i64 0, i32 4, i32 0, i32 0, i32 0, i32 0, i32 0, i32 1
  store i64 0, i64* %64, align 8
  br label %67

65:                                               ; preds = %55
  %66 = bitcast %"class.std::__1::basic_string"* %56 to i8*
  store i8 0, i8* %66, align 1
  store i8 0, i8* %58, align 1
  br label %67

67:                                               ; preds = %61, %65
  %68 = getelementptr inbounds %"class.optimization_guide::OptimizationGuideStore", %"class.optimization_guide::OptimizationGuideStore"* %0, i64 0, i32 7, i32 0, i32 0, i32 0
  %69 = load %"class.base::internal::flat_tree"*, %"class.base::internal::flat_tree"** %68, align 8
  store %"class.base::internal::flat_tree"* null, %"class.base::internal::flat_tree"** %68, align 8
  %70 = icmp eq %"class.base::internal::flat_tree"* %69, null
  br i1 %70, label %99, label %71

71:                                               ; preds = %67
  %72 = getelementptr inbounds %"class.base::internal::flat_tree", %"class.base::internal::flat_tree"* %69, i64 0, i32 0, i32 0, i32 0
  %73 = load %"class.std::__1::basic_string"*, %"class.std::__1::basic_string"** %72, align 8
  %74 = icmp eq %"class.std::__1::basic_string"* %73, null
  br i1 %74, label %97, label %75

75:                                               ; preds = %71
  %76 = bitcast %"class.std::__1::basic_string"* %73 to i8*
  %77 = getelementptr inbounds %"class.base::internal::flat_tree", %"class.base::internal::flat_tree"* %69, i64 0, i32 0, i32 0, i32 1
  %78 = load %"class.std::__1::basic_string"*, %"class.std::__1::basic_string"** %77, align 8
  %79 = icmp eq %"class.std::__1::basic_string"* %78, %73
  br i1 %79, label %95, label %80

80:                                               ; preds = %75, %90
  %81 = phi %"class.std::__1::basic_string"* [ %82, %90 ], [ %78, %75 ]
  %82 = getelementptr inbounds %"class.std::__1::basic_string", %"class.std::__1::basic_string"* %81, i64 -1
  %83 = bitcast %"class.std::__1::basic_string"* %82 to %"struct.std::__1::basic_string<char, std::__1::char_traits<char>, std::__1::allocator<char> >::__short"*
  %84 = getelementptr inbounds %"struct.std::__1::basic_string<char, std::__1::char_traits<char>, std::__1::allocator<char> >::__short", %"struct.std::__1::basic_string<char, std::__1::char_traits<char>, std::__1::allocator<char> >::__short"* %83, i64 0, i32 1, i32 0
  %85 = load i8, i8* %84, align 1
  %86 = icmp slt i8 %85, 0
  br i1 %86, label %87, label %90

87:                                               ; preds = %80
  %88 = getelementptr inbounds %"class.std::__1::basic_string", %"class.std::__1::basic_string"* %82, i64 0, i32 0, i32 0, i32 0, i32 0, i32 0, i32 0
  %89 = load i8*, i8** %88, align 8
  call void @_ZdlPv(i8* %89) #17
  br label %90

90:                                               ; preds = %87, %80
  %91 = icmp eq %"class.std::__1::basic_string"* %82, %73
  br i1 %91, label %92, label %80

92:                                               ; preds = %90
  %93 = bitcast %"class.base::internal::flat_tree"* %69 to i8**
  %94 = load i8*, i8** %93, align 8
  br label %95

95:                                               ; preds = %92, %75
  %96 = phi i8* [ %94, %92 ], [ %76, %75 ]
  store %"class.std::__1::basic_string"* %73, %"class.std::__1::basic_string"** %77, align 8
  call void @_ZdlPv(i8* %96) #17
  br label %97

97:                                               ; preds = %95, %71
  %98 = bitcast %"class.base::internal::flat_tree"* %69 to i8*
  call void @_ZdlPv(i8* %98) #17
  br label %99

99:                                               ; preds = %97, %67, %2, %16
  ret void
}

; Function Attrs: argmemonly nounwind
declare void @llvm.memset.p0i8.i64(i8* nocapture writeonly, i8, i64, i1 immarg) #1

declare void @_ZN13leveldb_proto19CreateSimpleOptionsEv(%"struct.leveldb_env::Options"* sret) local_unnamed_addr #4

; Function Attrs: nounwind ssp uwtable
define hidden void @_ZN18optimization_guide22OptimizationGuideStore21OnDatabaseInitializedEbN4base12OnceCallbackIFvvEEEN13leveldb_proto5Enums10InitStatusE(%"class.optimization_guide::OptimizationGuideStore"*, i1 zeroext, %"class.base::OnceCallback"* nocapture, i32) #0 align 2 {
  %5 = alloca %"class.base::internal::WeakReference", align 8
  %6 = alloca %"class.std::__1::basic_string", align 8
  %7 = alloca %"class.base::OnceCallback", align 8
  %8 = alloca %"class.base::OnceCallback", align 8
  %9 = alloca %"class.base::RepeatingCallback.121", align 8
  %10 = alloca %"struct.leveldb::ReadOptions", align 8
  %11 = alloca %"class.std::__1::basic_string", align 8
  %12 = alloca %"class.base::OnceCallback.123", align 8
  %13 = alloca %"class.base::WeakPtr", align 8
  %14 = icmp eq i32 %3, 1
  br i1 %14, label %26, label %15

15:                                               ; preds = %4
  tail call void @_ZN18optimization_guide22OptimizationGuideStore12UpdateStatusENS0_6StatusE(%"class.optimization_guide::OptimizationGuideStore"* %0, i32 3)
  %16 = bitcast %"class.base::OnceCallback"* %7 to i8*
  call void @llvm.lifetime.start.p0i8(i64 8, i8* nonnull %16) #16
  %17 = getelementptr inbounds %"class.base::OnceCallback", %"class.base::OnceCallback"* %2, i64 0, i32 0, i32 0, i32 0
  %18 = bitcast %"class.base::OnceCallback"* %2 to i64*
  %19 = load i64, i64* %18, align 8
  %20 = bitcast %"class.base::OnceCallback"* %7 to i64*
  store i64 %19, i64* %20, align 8
  store %"class.base::internal::BindStateBase"* null, %"class.base::internal::BindStateBase"** %17, align 8
  %21 = getelementptr inbounds %"class.base::OnceCallback", %"class.base::OnceCallback"* %7, i64 0, i32 0
  %22 = inttoptr i64 %19 to %"class.base::internal::BindStateBase"*
  %23 = getelementptr inbounds %"class.base::internal::BindStateBase", %"class.base::internal::BindStateBase"* %22, i64 0, i32 1
  %24 = bitcast void ()** %23 to void (%"class.base::internal::BindStateBase"*)**
  %25 = load void (%"class.base::internal::BindStateBase"*)*, void (%"class.base::internal::BindStateBase"*)** %24, align 8
  tail call void %25(%"class.base::internal::BindStateBase"* %22) #16
  call void @_ZN4base8internal12CallbackBaseD2Ev(%"class.base::internal::CallbackBase"* nonnull %21) #16
  call void @llvm.lifetime.end.p0i8(i64 8, i8* nonnull %16) #16
  br label %81

26:                                               ; preds = %4
  br i1 %1, label %27, label %33

27:                                               ; preds = %26
  %28 = getelementptr inbounds %"class.base::OnceCallback", %"class.base::OnceCallback"* %2, i64 0, i32 0, i32 0, i32 0
  %29 = bitcast %"class.base::OnceCallback"* %2 to i64*
  %30 = load i64, i64* %29, align 8
  %31 = bitcast %"class.base::OnceCallback"* %8 to i64*
  store i64 %30, i64* %31, align 8
  store %"class.base::internal::BindStateBase"* null, %"class.base::internal::BindStateBase"** %28, align 8
  call void @_ZN18optimization_guide22OptimizationGuideStore13PurgeDatabaseEN4base12OnceCallbackIFvvEEE(%"class.optimization_guide::OptimizationGuideStore"* %0, %"class.base::OnceCallback"* nonnull %8)
  %32 = getelementptr inbounds %"class.base::OnceCallback", %"class.base::OnceCallback"* %8, i64 0, i32 0
  call void @_ZN4base8internal12CallbackBaseD2Ev(%"class.base::internal::CallbackBase"* nonnull %32) #16
  br label %81

33:                                               ; preds = %26
  %34 = getelementptr inbounds %"class.optimization_guide::OptimizationGuideStore", %"class.optimization_guide::OptimizationGuideStore"* %0, i64 0, i32 1, i32 0, i32 0, i32 0
  %35 = load %"class.leveldb_proto::ProtoDatabase"*, %"class.leveldb_proto::ProtoDatabase"** %34, align 8
  %36 = bitcast %"class.base::RepeatingCallback.121"* %9 to i8*
  call void @llvm.lifetime.start.p0i8(i64 8, i8* nonnull %36) #16
  %37 = getelementptr inbounds %"class.base::RepeatingCallback.121", %"class.base::RepeatingCallback.121"* %9, i64 0, i32 0, i32 0, i32 0, i32 0
  store %"class.base::internal::BindStateBase"* null, %"class.base::internal::BindStateBase"** %37, align 8
  %38 = getelementptr inbounds %"struct.leveldb::ReadOptions", %"struct.leveldb::ReadOptions"* %10, i64 0, i32 0
  call void @llvm.lifetime.start.p0i8(i64 16, i8* nonnull %38) #16
  %39 = getelementptr inbounds %"struct.leveldb::ReadOptions", %"struct.leveldb::ReadOptions"* %10, i64 0, i32 1
  %40 = bitcast %"struct.leveldb::ReadOptions"* %10 to i64*
  store i64 0, i64* %40, align 8
  store i8 1, i8* %39, align 1
  %41 = getelementptr inbounds %"struct.leveldb::ReadOptions", %"struct.leveldb::ReadOptions"* %10, i64 0, i32 2
  store %"class.leveldb::Snapshot"* null, %"class.leveldb::Snapshot"** %41, align 8
  %42 = bitcast %"class.std::__1::basic_string"* %11 to i8*
  call void @llvm.lifetime.start.p0i8(i64 24, i8* nonnull %42) #16
  %43 = bitcast %"class.std::__1::basic_string"* %6 to i8*
  call void @llvm.lifetime.start.p0i8(i64 24, i8* nonnull %43) #16, !noalias !22
  call void @_ZN4base14NumberToStringEi(%"class.std::__1::basic_string"* nonnull sret %6, i32 1) #16, !noalias !22
  call void @_ZNSt3__112basic_stringIcNS_11char_traitsIcEENS_9allocatorIcEEE9push_backEc(%"class.std::__1::basic_string"* nonnull %6, i8 signext 95) #16, !noalias !25
  call void @llvm.memcpy.p0i8.p0i8.i64(i8* nonnull align 8 %42, i8* nonnull align 8 %43, i64 24, i1 false) #16
  call void @llvm.lifetime.end.p0i8(i64 24, i8* nonnull %43) #16, !noalias !22
  %44 = bitcast %"class.base::WeakPtr"* %13 to i8*
  call void @llvm.lifetime.start.p0i8(i64 16, i8* nonnull %44) #16
  %45 = bitcast %"class.base::internal::WeakReference"* %5 to i8*
  call void @llvm.lifetime.start.p0i8(i64 8, i8* nonnull %45) #16, !noalias !28
  %46 = getelementptr inbounds %"class.optimization_guide::OptimizationGuideStore", %"class.optimization_guide::OptimizationGuideStore"* %0, i64 0, i32 9, i32 0, i32 0
  call void @_ZNK4base8internal18WeakReferenceOwner6GetRefEv(%"class.base::internal::WeakReference"* nonnull sret %5, %"class.base::internal::WeakReferenceOwner"* %46) #16, !noalias !28
  %47 = getelementptr inbounds %"class.optimization_guide::OptimizationGuideStore", %"class.optimization_guide::OptimizationGuideStore"* %0, i64 0, i32 9, i32 0, i32 1
  %48 = load i64, i64* %47, align 8, !noalias !28
  %49 = getelementptr inbounds %"class.base::WeakPtr", %"class.base::WeakPtr"* %13, i64 0, i32 0
  call void @_ZN4base8internal11WeakPtrBaseC2ERKNS0_13WeakReferenceEm(%"class.base::internal::WeakPtrBase"* nonnull %49, %"class.base::internal::WeakReference"* nonnull dereferenceable(8) %5, i64 %48) #16
  call void @_ZN4base8internal13WeakReferenceD1Ev(%"class.base::internal::WeakReference"* nonnull %5) #16
  call void @llvm.lifetime.end.p0i8(i64 8, i8* nonnull %45) #16, !noalias !28
  %50 = call i8* @_Znwm(i64 72) #17, !noalias !31
  %51 = bitcast i8* %50 to %"class.base::internal::BindStateBase"*
  call void @_ZN4base8internal13BindStateBaseC2EPFvvEPFvPKS1_EPFbS5_NS1_21CancellationQueryModeEE(%"class.base::internal::BindStateBase"* nonnull %51, void ()* bitcast (void (%"class.base::internal::BindStateBase"*, i1, %"class.std::__1::unique_ptr.124"*)* @_ZN4base8internal7InvokerINS0_9BindStateIMN18optimization_guide22OptimizationGuideStoreEFvNS_12OnceCallbackIFvvEEEbNSt3__110unique_ptrINS8_3mapINS8_12basic_stringIcNS8_11char_traitsIcEENS8_9allocatorIcEEEENS3_5proto10StoreEntryENS8_4lessISG_EENSE_INS8_4pairIKSG_SI_EEEEEENS8_14default_deleteISP_EEEEEJNS_7WeakPtrIS4_EES7_EEEFvbSS_EE7RunOnceEPNS0_13BindStateBaseEbOSS_ to void ()*), void (%"class.base::internal::BindStateBase"*)* nonnull @_ZN4base8internal9BindStateIMN18optimization_guide22OptimizationGuideStoreEFvNS_12OnceCallbackIFvvEEEbNSt3__110unique_ptrINS7_3mapINS7_12basic_stringIcNS7_11char_traitsIcEENS7_9allocatorIcEEEENS2_5proto10StoreEntryENS7_4lessISF_EENSD_INS7_4pairIKSF_SH_EEEEEENS7_14default_deleteISO_EEEEEJNS_7WeakPtrIS3_EES6_EE7DestroyEPKNS0_13BindStateBaseE, i1 (%"class.base::internal::BindStateBase"*, i32)* nonnull @_ZN4base8internal23QueryCancellationTraitsINS0_9BindStateIMN18optimization_guide22OptimizationGuideStoreEFvNS_12OnceCallbackIFvvEEEbNSt3__110unique_ptrINS8_3mapINS8_12basic_stringIcNS8_11char_traitsIcEENS8_9allocatorIcEEEENS3_5proto10StoreEntryENS8_4lessISG_EENSE_INS8_4pairIKSG_SI_EEEEEENS8_14default_deleteISP_EEEEEJNS_7WeakPtrIS4_EES7_EEEEEbPKNS0_13BindStateBaseENSY_21CancellationQueryModeE) #16, !noalias !31
  %52 = getelementptr inbounds i8, i8* %50, i64 32
  %53 = bitcast i8* %52 to <2 x i64>*
  store <2 x i64> <i64 ptrtoint (void (%"class.optimization_guide::OptimizationGuideStore"*, %"class.base::OnceCallback"*, i1, %"class.std::__1::map"*)* @_ZN18optimization_guide22OptimizationGuideStore14OnLoadMetadataEN4base12OnceCallbackIFvvEEEbNSt3__110unique_ptrINS5_3mapINS5_12basic_stringIcNS5_11char_traitsIcEENS5_9allocatorIcEEEENS_5proto10StoreEntryENS5_4lessISD_EENSB_INS5_4pairIKSD_SF_EEEEEENS5_14default_deleteISM_EEEE to i64), i64 0>, <2 x i64>* %53, align 8, !noalias !31
  %54 = getelementptr inbounds i8, i8* %50, i64 48
  %55 = bitcast i8* %54 to %"class.base::internal::WeakReference"*
  %56 = getelementptr inbounds %"class.base::WeakPtr", %"class.base::WeakPtr"* %13, i64 0, i32 0, i32 0
  call void @_ZN4base8internal13WeakReferenceC1EOS1_(%"class.base::internal::WeakReference"* %55, %"class.base::internal::WeakReference"* nonnull dereferenceable(8) %56) #16, !noalias !31
  %57 = getelementptr inbounds i8, i8* %50, i64 56
  %58 = bitcast i8* %57 to i64*
  %59 = getelementptr inbounds %"class.base::WeakPtr", %"class.base::WeakPtr"* %13, i64 0, i32 0, i32 1
  %60 = load i64, i64* %59, align 8, !noalias !31
  store i64 %60, i64* %58, align 8, !noalias !31
  %61 = getelementptr inbounds i8, i8* %50, i64 64
  %62 = getelementptr inbounds %"class.base::OnceCallback", %"class.base::OnceCallback"* %2, i64 0, i32 0, i32 0, i32 0
  %63 = bitcast %"class.base::OnceCallback"* %2 to i64*
  %64 = load i64, i64* %63, align 8, !noalias !31
  %65 = bitcast i8* %61 to i64*
  store i64 %64, i64* %65, align 8, !noalias !31
  store %"class.base::internal::BindStateBase"* null, %"class.base::internal::BindStateBase"** %62, align 8, !noalias !31
  %66 = bitcast %"class.base::OnceCallback.123"* %12 to i8**
  store i8* %50, i8** %66, align 8, !alias.scope !31
  %67 = bitcast %"class.leveldb_proto::ProtoDatabase"* %35 to void (%"class.leveldb_proto::ProtoDatabase"*, %"class.base::RepeatingCallback.121"*, %"struct.leveldb::ReadOptions"*, %"class.std::__1::basic_string"*, %"class.base::OnceCallback.123"*)***
  %68 = load void (%"class.leveldb_proto::ProtoDatabase"*, %"class.base::RepeatingCallback.121"*, %"struct.leveldb::ReadOptions"*, %"class.std::__1::basic_string"*, %"class.base::OnceCallback.123"*)**, void (%"class.leveldb_proto::ProtoDatabase"*, %"class.base::RepeatingCallback.121"*, %"struct.leveldb::ReadOptions"*, %"class.std::__1::basic_string"*, %"class.base::OnceCallback.123"*)*** %67, align 8
  %69 = getelementptr inbounds void (%"class.leveldb_proto::ProtoDatabase"*, %"class.base::RepeatingCallback.121"*, %"struct.leveldb::ReadOptions"*, %"class.std::__1::basic_string"*, %"class.base::OnceCallback.123"*)*, void (%"class.leveldb_proto::ProtoDatabase"*, %"class.base::RepeatingCallback.121"*, %"struct.leveldb::ReadOptions"*, %"class.std::__1::basic_string"*, %"class.base::OnceCallback.123"*)** %68, i64 11
  %70 = load void (%"class.leveldb_proto::ProtoDatabase"*, %"class.base::RepeatingCallback.121"*, %"struct.leveldb::ReadOptions"*, %"class.std::__1::basic_string"*, %"class.base::OnceCallback.123"*)*, void (%"class.leveldb_proto::ProtoDatabase"*, %"class.base::RepeatingCallback.121"*, %"struct.leveldb::ReadOptions"*, %"class.std::__1::basic_string"*, %"class.base::OnceCallback.123"*)** %69, align 8
  call void %70(%"class.leveldb_proto::ProtoDatabase"* %35, %"class.base::RepeatingCallback.121"* nonnull dereferenceable(8) %9, %"struct.leveldb::ReadOptions"* nonnull dereferenceable(16) %10, %"class.std::__1::basic_string"* nonnull dereferenceable(24) %11, %"class.base::OnceCallback.123"* nonnull %12) #16
  %71 = getelementptr inbounds %"class.base::OnceCallback.123", %"class.base::OnceCallback.123"* %12, i64 0, i32 0
  call void @_ZN4base8internal12CallbackBaseD2Ev(%"class.base::internal::CallbackBase"* nonnull %71) #16
  call void @_ZN4base8internal11WeakPtrBaseD2Ev(%"class.base::internal::WeakPtrBase"* nonnull %49) #16
  call void @llvm.lifetime.end.p0i8(i64 16, i8* nonnull %44) #16
  %72 = bitcast %"class.std::__1::basic_string"* %11 to %"struct.std::__1::basic_string<char, std::__1::char_traits<char>, std::__1::allocator<char> >::__short"*
  %73 = getelementptr inbounds %"struct.std::__1::basic_string<char, std::__1::char_traits<char>, std::__1::allocator<char> >::__short", %"struct.std::__1::basic_string<char, std::__1::char_traits<char>, std::__1::allocator<char> >::__short"* %72, i64 0, i32 1, i32 0
  %74 = load i8, i8* %73, align 1
  %75 = icmp slt i8 %74, 0
  br i1 %75, label %76, label %79

76:                                               ; preds = %33
  %77 = getelementptr inbounds %"class.std::__1::basic_string", %"class.std::__1::basic_string"* %11, i64 0, i32 0, i32 0, i32 0, i32 0, i32 0, i32 0
  %78 = load i8*, i8** %77, align 8
  call void @_ZdlPv(i8* %78) #17
  br label %79

79:                                               ; preds = %33, %76
  call void @llvm.lifetime.end.p0i8(i64 24, i8* nonnull %42) #16
  call void @llvm.lifetime.end.p0i8(i64 16, i8* nonnull %38) #16
  %80 = getelementptr inbounds %"class.base::RepeatingCallback.121", %"class.base::RepeatingCallback.121"* %9, i64 0, i32 0, i32 0
  call void @_ZN4base8internal12CallbackBaseD2Ev(%"class.base::internal::CallbackBase"* nonnull %80) #16
  call void @llvm.lifetime.end.p0i8(i64 8, i8* nonnull %36) #16
  br label %81

81:                                               ; preds = %79, %27, %15
  ret void
}

; Function Attrs: nounwind
declare void @_ZN4base8internal11WeakPtrBaseD2Ev(%"class.base::internal::WeakPtrBase"*) unnamed_addr #2

; Function Attrs: nounwind ssp uwtable
define hidden %"class.optimization_guide::StoreUpdateData"* @_ZNK18optimization_guide22OptimizationGuideStore38MaybeCreateUpdateDataForComponentHintsERKN4base7VersionE(%"class.optimization_guide::OptimizationGuideStore"*, %"class.base::Version"* dereferenceable(24)) local_unnamed_addr #0 align 2 {
  %3 = getelementptr inbounds %"class.optimization_guide::OptimizationGuideStore", %"class.optimization_guide::OptimizationGuideStore"* %0, i64 0, i32 2
  %4 = load i32, i32* %3, align 8
  %5 = icmp eq i32 %4, 2
  br i1 %5, label %6, label %15

6:                                                ; preds = %2
  %7 = getelementptr inbounds %"class.optimization_guide::OptimizationGuideStore", %"class.optimization_guide::OptimizationGuideStore"* %0, i64 0, i32 3, i32 0, i32 0, i32 0, i32 0
  %8 = load i8, i8* %7, align 8, !range !2
  %9 = icmp eq i8 %8, 0
  br i1 %9, label %13, label %10

10:                                               ; preds = %6
  %11 = getelementptr inbounds %"class.optimization_guide::OptimizationGuideStore", %"class.optimization_guide::OptimizationGuideStore"* %0, i64 0, i32 3, i32 0, i32 0, i32 0, i32 1, i32 0
  %12 = tail call zeroext i1 @_ZN4baseleERKNS_7VersionES2_(%"class.base::Version"* dereferenceable(24) %1, %"class.base::Version"* dereferenceable(24) %11) #16
  br i1 %12, label %15, label %13

13:                                               ; preds = %6, %10
  %14 = tail call %"class.optimization_guide::StoreUpdateData"* @_ZN18optimization_guide15StoreUpdateData30CreateComponentStoreUpdateDataERKN4base7VersionE(%"class.base::Version"* dereferenceable(24) %1) #16
  br label %15

15:                                               ; preds = %10, %2, %13
  %16 = phi %"class.optimization_guide::StoreUpdateData"* [ %14, %13 ], [ null, %2 ], [ null, %10 ]
  ret %"class.optimization_guide::StoreUpdateData"* %16
}

; Function Attrs: norecurse nounwind readonly ssp uwtable
define hidden zeroext i1 @_ZNK18optimization_guide22OptimizationGuideStore11IsAvailableEv(%"class.optimization_guide::OptimizationGuideStore"* nocapture readonly) local_unnamed_addr #5 align 2 {
  %2 = getelementptr inbounds %"class.optimization_guide::OptimizationGuideStore", %"class.optimization_guide::OptimizationGuideStore"* %0, i64 0, i32 2
  %3 = load i32, i32* %2, align 8
  %4 = icmp eq i32 %3, 2
  ret i1 %4
}

declare %"class.optimization_guide::StoreUpdateData"* @_ZN18optimization_guide15StoreUpdateData30CreateComponentStoreUpdateDataERKN4base7VersionE(%"class.base::Version"* dereferenceable(24)) local_unnamed_addr #4

; Function Attrs: nounwind ssp uwtable
define hidden %"class.optimization_guide::StoreUpdateData"* @_ZNK18optimization_guide22OptimizationGuideStore31CreateUpdateDataForFetchedHintsEN4base4TimeE(%"class.optimization_guide::OptimizationGuideStore"* nocapture readnone, i64) local_unnamed_addr #0 align 2 {
  %3 = tail call %"class.optimization_guide::StoreUpdateData"* @_ZN18optimization_guide15StoreUpdateData28CreateFetchedStoreUpdateDataEN4base4TimeE(i64 %1) #16
  ret %"class.optimization_guide::StoreUpdateData"* %3
}

declare %"class.optimization_guide::StoreUpdateData"* @_ZN18optimization_guide15StoreUpdateData28CreateFetchedStoreUpdateDataEN4base4TimeE(i64) local_unnamed_addr #4

; Function Attrs: argmemonly nounwind
declare void @llvm.memcpy.p0i8.p0i8.i64(i8* nocapture writeonly, i8* nocapture readonly, i64, i1 immarg) #1

; Function Attrs: nounwind ssp uwtable
define hidden void @_ZN18optimization_guide22OptimizationGuideStore20UpdateComponentHintsENSt3__110unique_ptrINS_15StoreUpdateDataENS1_14default_deleteIS3_EEEEN4base12OnceCallbackIFvvEEE(%"class.optimization_guide::OptimizationGuideStore"*, %"class.optimization_guide::StoreUpdateData"*, %"class.base::OnceCallback"* nocapture) local_unnamed_addr #0 align 2 {
  %4 = alloca %"class.base::internal::WeakReference", align 8
  %5 = alloca %"class.std::__1::basic_string", align 8
  %6 = alloca %"class.base::OnceCallback", align 8
  %7 = alloca %"class.base::OnceCallback", align 8
  %8 = alloca %"class.absl::optional", align 8
  %9 = alloca %"class.absl::optional", align 8
  %10 = alloca %"class.std::__1::basic_string", align 8
  %11 = alloca %"class.base::RepeatingCallback.121", align 8
  %12 = alloca %"class.base::OnceCallback.122", align 8
  %13 = alloca %"class.base::WeakPtr", align 8
  %14 = getelementptr inbounds %"class.optimization_guide::OptimizationGuideStore", %"class.optimization_guide::OptimizationGuideStore"* %0, i64 0, i32 2
  %15 = load i32, i32* %14, align 8
  %16 = icmp eq i32 %15, 2
  br i1 %16, label %28, label %17

17:                                               ; preds = %3
  %18 = bitcast %"class.base::OnceCallback"* %7 to i8*
  call void @llvm.lifetime.start.p0i8(i64 8, i8* nonnull %18) #16
  %19 = getelementptr inbounds %"class.base::OnceCallback", %"class.base::OnceCallback"* %2, i64 0, i32 0, i32 0, i32 0
  %20 = bitcast %"class.base::OnceCallback"* %2 to i64*
  %21 = load i64, i64* %20, align 8
  %22 = bitcast %"class.base::OnceCallback"* %7 to i64*
  store i64 %21, i64* %22, align 8
  store %"class.base::internal::BindStateBase"* null, %"class.base::internal::BindStateBase"** %19, align 8
  %23 = getelementptr inbounds %"class.base::OnceCallback", %"class.base::OnceCallback"* %7, i64 0, i32 0
  %24 = inttoptr i64 %21 to %"class.base::internal::BindStateBase"*
  %25 = getelementptr inbounds %"class.base::internal::BindStateBase", %"class.base::internal::BindStateBase"* %24, i64 0, i32 1
  %26 = bitcast void ()** %25 to void (%"class.base::internal::BindStateBase"*)**
  %27 = load void (%"class.base::internal::BindStateBase"*)*, void (%"class.base::internal::BindStateBase"*)** %26, align 8
  tail call void %27(%"class.base::internal::BindStateBase"* %24) #16
  call void @_ZN4base8internal12CallbackBaseD2Ev(%"class.base::internal::CallbackBase"* nonnull %23) #16
  call void @llvm.lifetime.end.p0i8(i64 8, i8* nonnull %18) #16
  br label %191

28:                                               ; preds = %3
  %29 = getelementptr inbounds %"class.optimization_guide::OptimizationGuideStore", %"class.optimization_guide::OptimizationGuideStore"* %0, i64 0, i32 3, i32 0, i32 0, i32 0, i32 0
  %30 = load i8, i8* %29, align 8, !range !2
  %31 = icmp eq i8 %30, 0
  br i1 %31, label %64, label %32

32:                                               ; preds = %28
  %33 = getelementptr inbounds %"class.absl::optional", %"class.absl::optional"* %8, i64 0, i32 0, i32 0, i32 0, i32 0
  call void @llvm.lifetime.start.p0i8(i64 32, i8* nonnull %33) #16
  %34 = getelementptr inbounds %"class.optimization_guide::StoreUpdateData", %"class.optimization_guide::StoreUpdateData"* %1, i64 0, i32 0, i32 0, i32 0, i32 0, i32 0
  call void @llvm.memset.p0i8.i64(i8* nonnull align 8 %33, i8 0, i64 32, i1 false) #16, !alias.scope !36
  %35 = load i8, i8* %34, align 8, !range !2, !noalias !36
  %36 = icmp eq i8 %35, 0
  br i1 %36, label %37, label %38

37:                                               ; preds = %32
  call void @llvm.lifetime.end.p0i8(i64 32, i8* nonnull %33) #16
  br label %52

38:                                               ; preds = %32
  %39 = getelementptr inbounds %"class.optimization_guide::StoreUpdateData", %"class.optimization_guide::StoreUpdateData"* %1, i64 0, i32 0, i32 0, i32 0, i32 0, i32 1, i32 0
  %40 = getelementptr inbounds %"class.absl::optional", %"class.absl::optional"* %8, i64 0, i32 0, i32 0, i32 0, i32 1, i32 0
  call void @_ZN4base7VersionC1ERKS0_(%"class.base::Version"* %40, %"class.base::Version"* dereferenceable(24) %39) #16
  store i8 1, i8* %33, align 8, !alias.scope !36
  %41 = load i8, i8* %29, align 8, !range !2
  %42 = icmp eq i8 %41, 0
  %43 = getelementptr inbounds %"class.absl::optional", %"class.absl::optional"* %8, i64 0, i32 0, i32 0, i32 0, i32 1, i32 0
  br i1 %42, label %63, label %44

44:                                               ; preds = %38
  %45 = getelementptr inbounds %"class.optimization_guide::OptimizationGuideStore", %"class.optimization_guide::OptimizationGuideStore"* %0, i64 0, i32 3, i32 0, i32 0, i32 0, i32 1, i32 0
  %46 = call zeroext i1 @_ZN4baseleERKNS_7VersionES2_(%"class.base::Version"* dereferenceable(24) %43, %"class.base::Version"* dereferenceable(24) %45) #16
  %47 = load i8, i8* %33, align 8, !range !2
  %48 = icmp eq i8 %47, 0
  br i1 %48, label %51, label %49

49:                                               ; preds = %44
  %50 = getelementptr inbounds %"class.absl::optional", %"class.absl::optional"* %8, i64 0, i32 0, i32 0, i32 0, i32 1, i32 0
  call void @_ZN4base7VersionD1Ev(%"class.base::Version"* %50) #16
  call void @llvm.lifetime.end.p0i8(i64 32, i8* nonnull %33) #16
  br i1 %46, label %52, label %64

51:                                               ; preds = %44
  call void @llvm.lifetime.end.p0i8(i64 32, i8* nonnull %33) #16
  br i1 %46, label %52, label %64

52:                                               ; preds = %49, %37, %51
  %53 = bitcast %"class.base::OnceCallback"* %6 to i8*
  call void @llvm.lifetime.start.p0i8(i64 8, i8* nonnull %53) #16
  %54 = getelementptr inbounds %"class.base::OnceCallback", %"class.base::OnceCallback"* %2, i64 0, i32 0, i32 0, i32 0
  %55 = bitcast %"class.base::OnceCallback"* %2 to i64*
  %56 = load i64, i64* %55, align 8
  %57 = bitcast %"class.base::OnceCallback"* %6 to i64*
  store i64 %56, i64* %57, align 8
  store %"class.base::internal::BindStateBase"* null, %"class.base::internal::BindStateBase"** %54, align 8
  %58 = getelementptr inbounds %"class.base::OnceCallback", %"class.base::OnceCallback"* %6, i64 0, i32 0
  %59 = inttoptr i64 %56 to %"class.base::internal::BindStateBase"*
  %60 = getelementptr inbounds %"class.base::internal::BindStateBase", %"class.base::internal::BindStateBase"* %59, i64 0, i32 1
  %61 = bitcast void ()** %60 to void (%"class.base::internal::BindStateBase"*)**
  %62 = load void (%"class.base::internal::BindStateBase"*)*, void (%"class.base::internal::BindStateBase"*)** %61, align 8
  call void %62(%"class.base::internal::BindStateBase"* %59) #16
  call void @_ZN4base8internal12CallbackBaseD2Ev(%"class.base::internal::CallbackBase"* nonnull %58) #16
  call void @llvm.lifetime.end.p0i8(i64 8, i8* nonnull %53) #16
  br label %191

63:                                               ; preds = %38
  call void @_ZN4base7VersionD1Ev(%"class.base::Version"* %43) #16
  call void @llvm.lifetime.end.p0i8(i64 32, i8* nonnull %33) #16
  br label %64

64:                                               ; preds = %63, %49, %28, %51
  %65 = getelementptr inbounds %"class.absl::optional", %"class.absl::optional"* %9, i64 0, i32 0, i32 0, i32 0, i32 0
  call void @llvm.lifetime.start.p0i8(i64 32, i8* nonnull %65) #16
  %66 = getelementptr inbounds %"class.optimization_guide::StoreUpdateData", %"class.optimization_guide::StoreUpdateData"* %1, i64 0, i32 0, i32 0, i32 0, i32 0, i32 0
  call void @llvm.memset.p0i8.i64(i8* nonnull align 8 %65, i8 0, i64 32, i1 false) #16, !alias.scope !39
  %67 = load i8, i8* %66, align 8, !range !2, !noalias !39
  %68 = icmp eq i8 %67, 0
  br i1 %68, label %69, label %70

69:                                               ; preds = %64
  call void @llvm.trap() #16
  unreachable

70:                                               ; preds = %64
  %71 = getelementptr inbounds %"class.optimization_guide::StoreUpdateData", %"class.optimization_guide::StoreUpdateData"* %1, i64 0, i32 0, i32 0, i32 0, i32 0, i32 1, i32 0
  %72 = getelementptr inbounds %"class.absl::optional", %"class.absl::optional"* %9, i64 0, i32 0, i32 0, i32 0, i32 1, i32 0
  call void @_ZN4base7VersionC1ERKS0_(%"class.base::Version"* %72, %"class.base::Version"* dereferenceable(24) %71) #16
  store i8 1, i8* %65, align 8, !alias.scope !39
  %73 = getelementptr inbounds %"class.absl::optional", %"class.absl::optional"* %9, i64 0, i32 0, i32 0, i32 0, i32 1, i32 0
  call void @_ZN18optimization_guide22OptimizationGuideStore19SetComponentVersionERKN4base7VersionE(%"class.optimization_guide::OptimizationGuideStore"* %0, %"class.base::Version"* dereferenceable(24) %73)
  %74 = load i8, i8* %65, align 8, !range !2
  %75 = icmp eq i8 %74, 0
  br i1 %75, label %77, label %76

76:                                               ; preds = %70
  call void @_ZN4base7VersionD1Ev(%"class.base::Version"* %73) #16
  store i8 0, i8* %65, align 8
  br label %77

77:                                               ; preds = %70, %76
  call void @llvm.lifetime.end.p0i8(i64 32, i8* nonnull %65) #16
  %78 = getelementptr inbounds %"class.optimization_guide::OptimizationGuideStore", %"class.optimization_guide::OptimizationGuideStore"* %0, i64 0, i32 7, i32 0, i32 0, i32 0
  %79 = load %"class.base::internal::flat_tree"*, %"class.base::internal::flat_tree"** %78, align 8
  store %"class.base::internal::flat_tree"* null, %"class.base::internal::flat_tree"** %78, align 8
  %80 = icmp eq %"class.base::internal::flat_tree"* %79, null
  br i1 %80, label %109, label %81

81:                                               ; preds = %77
  %82 = getelementptr inbounds %"class.base::internal::flat_tree", %"class.base::internal::flat_tree"* %79, i64 0, i32 0, i32 0, i32 0
  %83 = load %"class.std::__1::basic_string"*, %"class.std::__1::basic_string"** %82, align 8
  %84 = icmp eq %"class.std::__1::basic_string"* %83, null
  br i1 %84, label %107, label %85

85:                                               ; preds = %81
  %86 = bitcast %"class.std::__1::basic_string"* %83 to i8*
  %87 = getelementptr inbounds %"class.base::internal::flat_tree", %"class.base::internal::flat_tree"* %79, i64 0, i32 0, i32 0, i32 1
  %88 = load %"class.std::__1::basic_string"*, %"class.std::__1::basic_string"** %87, align 8
  %89 = icmp eq %"class.std::__1::basic_string"* %88, %83
  br i1 %89, label %105, label %90

90:                                               ; preds = %85, %100
  %91 = phi %"class.std::__1::basic_string"* [ %92, %100 ], [ %88, %85 ]
  %92 = getelementptr inbounds %"class.std::__1::basic_string", %"class.std::__1::basic_string"* %91, i64 -1
  %93 = bitcast %"class.std::__1::basic_string"* %92 to %"struct.std::__1::basic_string<char, std::__1::char_traits<char>, std::__1::allocator<char> >::__short"*
  %94 = getelementptr inbounds %"struct.std::__1::basic_string<char, std::__1::char_traits<char>, std::__1::allocator<char> >::__short", %"struct.std::__1::basic_string<char, std::__1::char_traits<char>, std::__1::allocator<char> >::__short"* %93, i64 0, i32 1, i32 0
  %95 = load i8, i8* %94, align 1
  %96 = icmp slt i8 %95, 0
  br i1 %96, label %97, label %100

97:                                               ; preds = %90
  %98 = getelementptr inbounds %"class.std::__1::basic_string", %"class.std::__1::basic_string"* %92, i64 0, i32 0, i32 0, i32 0, i32 0, i32 0, i32 0
  %99 = load i8*, i8** %98, align 8
  call void @_ZdlPv(i8* %99) #17
  br label %100

100:                                              ; preds = %97, %90
  %101 = icmp eq %"class.std::__1::basic_string"* %92, %83
  br i1 %101, label %102, label %90

102:                                              ; preds = %100
  %103 = bitcast %"class.base::internal::flat_tree"* %79 to i8**
  %104 = load i8*, i8** %103, align 8
  br label %105

105:                                              ; preds = %102, %85
  %106 = phi i8* [ %104, %102 ], [ %86, %85 ]
  store %"class.std::__1::basic_string"* %83, %"class.std::__1::basic_string"** %87, align 8
  call void @_ZdlPv(i8* %106) #17
  br label %107

107:                                              ; preds = %105, %81
  %108 = bitcast %"class.base::internal::flat_tree"* %79 to i8*
  call void @_ZdlPv(i8* %108) #17
  br label %109

109:                                              ; preds = %77, %107
  %110 = bitcast %"class.std::__1::basic_string"* %10 to i8*
  call void @llvm.lifetime.start.p0i8(i64 24, i8* nonnull %110) #16
  %111 = getelementptr inbounds %"class.std::__1::basic_string", %"class.std::__1::basic_string"* %10, i64 0, i32 0, i32 0, i32 0, i32 0, i32 0, i32 0
  %112 = getelementptr inbounds %"class.std::__1::basic_string", %"class.std::__1::basic_string"* %10, i64 0, i32 0, i32 0, i32 0, i32 0, i32 0, i32 1
  %113 = bitcast %"class.std::__1::basic_string"* %10 to i8*
  call void @llvm.memset.p0i8.i64(i8* nonnull align 8 %113, i8 -86, i64 24, i1 false)
  %114 = load i8, i8* %29, align 8, !range !2
  %115 = icmp eq i8 %114, 0
  br i1 %115, label %116, label %117

116:                                              ; preds = %109
  call void @_ZN4absl17optional_internal25throw_bad_optional_accessEv() #18
  unreachable

117:                                              ; preds = %109
  %118 = getelementptr inbounds %"class.optimization_guide::OptimizationGuideStore", %"class.optimization_guide::OptimizationGuideStore"* %0, i64 0, i32 3, i32 0, i32 0, i32 0, i32 1, i32 0
  call void @_ZN18optimization_guide22OptimizationGuideStore30GetComponentHintEntryKeyPrefixERKN4base7VersionE(%"class.std::__1::basic_string"* nonnull sret %10, %"class.base::Version"* dereferenceable(24) %118)
  %119 = bitcast %"class.std::__1::basic_string"* %5 to i8*
  call void @llvm.lifetime.start.p0i8(i64 24, i8* nonnull %119) #16, !noalias !42
  call void @_ZN4base14NumberToStringEi(%"class.std::__1::basic_string"* nonnull sret %5, i32 2) #16, !noalias !42
  call void @_ZNSt3__112basic_stringIcNS_11char_traitsIcEENS_9allocatorIcEEE9push_backEc(%"class.std::__1::basic_string"* nonnull %5, i8 signext 95) #16, !noalias !45
  %120 = getelementptr inbounds %"class.std::__1::basic_string", %"class.std::__1::basic_string"* %5, i64 0, i32 0, i32 0, i32 0, i32 0, i32 0, i32 0
  %121 = load i8*, i8** %120, align 8
  %122 = getelementptr inbounds %"class.std::__1::basic_string", %"class.std::__1::basic_string"* %5, i64 0, i32 0, i32 0, i32 0, i32 0, i32 0, i32 1
  %123 = load i64, i64* %122, align 8
  %124 = getelementptr inbounds %"class.std::__1::basic_string", %"class.std::__1::basic_string"* %5, i64 0, i32 0, i32 0, i32 0, i32 0, i32 0, i32 2
  %125 = load i64, i64* %124, align 8
  call void @llvm.lifetime.end.p0i8(i64 24, i8* nonnull %119) #16, !noalias !42
  %126 = getelementptr inbounds %"class.optimization_guide::OptimizationGuideStore", %"class.optimization_guide::OptimizationGuideStore"* %0, i64 0, i32 1, i32 0, i32 0, i32 0
  %127 = load %"class.leveldb_proto::ProtoDatabase"*, %"class.leveldb_proto::ProtoDatabase"** %126, align 8
  %128 = call %"class.std::__1::vector.94"* @_ZN18optimization_guide15StoreUpdateData17TakeUpdateEntriesEv(%"class.optimization_guide::StoreUpdateData"* %1) #16
  %129 = bitcast %"class.base::RepeatingCallback.121"* %11 to i8*
  call void @llvm.lifetime.start.p0i8(i64 8, i8* nonnull %129) #16
  %130 = call i8* @_Znwm(i64 88) #17, !noalias !48
  %131 = bitcast i8* %130 to %"class.base::internal::BindStateBase"*
  call void @_ZN4base8internal13BindStateBaseC2EPFvvEPFvPKS1_E(%"class.base::internal::BindStateBase"* nonnull %131, void ()* bitcast (i1 (%"class.base::internal::BindStateBase"*, %"class.std::__1::basic_string"*)* @"_ZN4base8internal7InvokerINS0_9BindStateIZN18optimization_guide22OptimizationGuideStore20UpdateComponentHintsENSt3__110unique_ptrINS3_15StoreUpdateDataENS5_14default_deleteIS7_EEEENS_12OnceCallbackIFvvEEEE3$_0JNS5_12basic_stringIcNS5_11char_traitsIcEENS5_9allocatorIcEEEESK_EEEFbRKSK_EE3RunEPNS0_13BindStateBaseESN_" to void ()*), void (%"class.base::internal::BindStateBase"*)* nonnull @"_ZN4base8internal9BindStateIZN18optimization_guide22OptimizationGuideStore20UpdateComponentHintsENSt3__110unique_ptrINS2_15StoreUpdateDataENS4_14default_deleteIS6_EEEENS_12OnceCallbackIFvvEEEE3$_0JNS4_12basic_stringIcNS4_11char_traitsIcEENS4_9allocatorIcEEEESJ_EE7DestroyEPKNS0_13BindStateBaseE") #16, !noalias !48
  %132 = getelementptr inbounds i8, i8* %130, i64 40
  %133 = bitcast %"class.std::__1::basic_string"* %10 to %"struct.std::__1::basic_string<char, std::__1::char_traits<char>, std::__1::allocator<char> >::__short"*
  %134 = getelementptr inbounds %"struct.std::__1::basic_string<char, std::__1::char_traits<char>, std::__1::allocator<char> >::__short", %"struct.std::__1::basic_string<char, std::__1::char_traits<char>, std::__1::allocator<char> >::__short"* %133, i64 0, i32 1, i32 0
  %135 = load i8, i8* %134, align 1, !noalias !48
  %136 = icmp slt i8 %135, 0
  br i1 %136, label %138, label %137

137:                                              ; preds = %117
  call void @llvm.memcpy.p0i8.p0i8.i64(i8* align 8 %132, i8* nonnull align 8 %110, i64 24, i1 false) #16, !noalias !48
  br label %142

138:                                              ; preds = %117
  %139 = bitcast i8* %132 to %"class.std::__1::basic_string"*
  %140 = load i8*, i8** %111, align 8, !noalias !48
  %141 = load i64, i64* %112, align 8, !noalias !48
  call void @_ZNSt3__112basic_stringIcNS_11char_traitsIcEENS_9allocatorIcEEE25__init_copy_ctor_externalEPKcm(%"class.std::__1::basic_string"* %139, i8* %140, i64 %141) #16, !noalias !48
  br label %142

142:                                              ; preds = %138, %137
  %143 = getelementptr inbounds i8, i8* %130, i64 64
  %144 = lshr i64 %125, 56
  %145 = trunc i64 %144 to i8
  %146 = icmp slt i8 %145, 0
  br i1 %146, label %153, label %147

147:                                              ; preds = %142
  %148 = bitcast i8* %143 to i8**
  store i8* %121, i8** %148, align 8, !noalias !48
  %149 = getelementptr inbounds i8, i8* %130, i64 72
  %150 = bitcast i8* %149 to i64*
  store i64 %123, i64* %150, align 8, !noalias !48
  %151 = getelementptr inbounds i8, i8* %130, i64 80
  %152 = bitcast i8* %151 to i64*
  store i64 %125, i64* %152, align 8, !noalias !48
  br label %155

153:                                              ; preds = %142
  %154 = bitcast i8* %143 to %"class.std::__1::basic_string"*
  call void @_ZNSt3__112basic_stringIcNS_11char_traitsIcEENS_9allocatorIcEEE25__init_copy_ctor_externalEPKcm(%"class.std::__1::basic_string"* %154, i8* %121, i64 %123) #16, !noalias !48
  br label %155

155:                                              ; preds = %147, %153
  %156 = bitcast %"class.base::RepeatingCallback.121"* %11 to i8**
  store i8* %130, i8** %156, align 8, !alias.scope !48
  %157 = bitcast %"class.base::WeakPtr"* %13 to i8*
  call void @llvm.lifetime.start.p0i8(i64 16, i8* nonnull %157) #16
  %158 = bitcast %"class.base::internal::WeakReference"* %4 to i8*
  call void @llvm.lifetime.start.p0i8(i64 8, i8* nonnull %158) #16, !noalias !53
  %159 = getelementptr inbounds %"class.optimization_guide::OptimizationGuideStore", %"class.optimization_guide::OptimizationGuideStore"* %0, i64 0, i32 9, i32 0, i32 0
  call void @_ZNK4base8internal18WeakReferenceOwner6GetRefEv(%"class.base::internal::WeakReference"* nonnull sret %4, %"class.base::internal::WeakReferenceOwner"* %159) #16, !noalias !53
  %160 = getelementptr inbounds %"class.optimization_guide::OptimizationGuideStore", %"class.optimization_guide::OptimizationGuideStore"* %0, i64 0, i32 9, i32 0, i32 1
  %161 = load i64, i64* %160, align 8, !noalias !53
  %162 = getelementptr inbounds %"class.base::WeakPtr", %"class.base::WeakPtr"* %13, i64 0, i32 0
  call void @_ZN4base8internal11WeakPtrBaseC2ERKNS0_13WeakReferenceEm(%"class.base::internal::WeakPtrBase"* nonnull %162, %"class.base::internal::WeakReference"* nonnull dereferenceable(8) %4, i64 %161) #16
  call void @_ZN4base8internal13WeakReferenceD1Ev(%"class.base::internal::WeakReference"* nonnull %4) #16
  call void @llvm.lifetime.end.p0i8(i64 8, i8* nonnull %158) #16, !noalias !53
  %163 = call i8* @_Znwm(i64 72) #17, !noalias !56
  %164 = bitcast i8* %163 to %"class.base::internal::BindStateBase"*
  call void @_ZN4base8internal13BindStateBaseC2EPFvvEPFvPKS1_EPFbS5_NS1_21CancellationQueryModeEE(%"class.base::internal::BindStateBase"* nonnull %164, void ()* bitcast (void (%"class.base::internal::BindStateBase"*, i1)* @_ZN4base8internal7InvokerINS0_9BindStateIMN18optimization_guide22OptimizationGuideStoreEFvNS_12OnceCallbackIFvvEEEbEJNS_7WeakPtrIS4_EES7_EEEFvbEE7RunOnceEPNS0_13BindStateBaseEb to void ()*), void (%"class.base::internal::BindStateBase"*)* nonnull @_ZN4base8internal9BindStateIMN18optimization_guide22OptimizationGuideStoreEFvNS_12OnceCallbackIFvvEEEbEJNS_7WeakPtrIS3_EES6_EE7DestroyEPKNS0_13BindStateBaseE, i1 (%"class.base::internal::BindStateBase"*, i32)* nonnull @_ZN4base8internal23QueryCancellationTraitsINS0_9BindStateIMN18optimization_guide22OptimizationGuideStoreEFvNS_12OnceCallbackIFvvEEEbEJNS_7WeakPtrIS4_EES7_EEEEEbPKNS0_13BindStateBaseENSD_21CancellationQueryModeE) #16, !noalias !56
  %165 = getelementptr inbounds i8, i8* %163, i64 32
  %166 = bitcast i8* %165 to <2 x i64>*
  store <2 x i64> <i64 ptrtoint (void (%"class.optimization_guide::OptimizationGuideStore"*, %"class.base::OnceCallback"*, i1)* @_ZN18optimization_guide22OptimizationGuideStore13OnUpdateStoreEN4base12OnceCallbackIFvvEEEb to i64), i64 0>, <2 x i64>* %166, align 8, !noalias !56
  %167 = getelementptr inbounds i8, i8* %163, i64 48
  %168 = bitcast i8* %167 to %"class.base::internal::WeakReference"*
  %169 = getelementptr inbounds %"class.base::WeakPtr", %"class.base::WeakPtr"* %13, i64 0, i32 0, i32 0
  call void @_ZN4base8internal13WeakReferenceC1EOS1_(%"class.base::internal::WeakReference"* %168, %"class.base::internal::WeakReference"* nonnull dereferenceable(8) %169) #16, !noalias !56
  %170 = getelementptr inbounds i8, i8* %163, i64 56
  %171 = bitcast i8* %170 to i64*
  %172 = getelementptr inbounds %"class.base::WeakPtr", %"class.base::WeakPtr"* %13, i64 0, i32 0, i32 1
  %173 = load i64, i64* %172, align 8, !noalias !56
  store i64 %173, i64* %171, align 8, !noalias !56
  %174 = getelementptr inbounds i8, i8* %163, i64 64
  %175 = getelementptr inbounds %"class.base::OnceCallback", %"class.base::OnceCallback"* %2, i64 0, i32 0, i32 0, i32 0
  %176 = bitcast %"class.base::OnceCallback"* %2 to i64*
  %177 = load i64, i64* %176, align 8, !noalias !56
  %178 = bitcast i8* %174 to i64*
  store i64 %177, i64* %178, align 8, !noalias !56
  store %"class.base::internal::BindStateBase"* null, %"class.base::internal::BindStateBase"** %175, align 8, !noalias !56
  %179 = bitcast %"class.base::OnceCallback.122"* %12 to i8**
  store i8* %163, i8** %179, align 8, !alias.scope !56
  %180 = bitcast %"class.leveldb_proto::ProtoDatabase"* %127 to void (%"class.leveldb_proto::ProtoDatabase"*, %"class.std::__1::vector.94"*, %"class.base::RepeatingCallback.121"*, %"class.base::OnceCallback.122"*)***
  %181 = load void (%"class.leveldb_proto::ProtoDatabase"*, %"class.std::__1::vector.94"*, %"class.base::RepeatingCallback.121"*, %"class.base::OnceCallback.122"*)**, void (%"class.leveldb_proto::ProtoDatabase"*, %"class.std::__1::vector.94"*, %"class.base::RepeatingCallback.121"*, %"class.base::OnceCallback.122"*)*** %180, align 8
  %182 = getelementptr inbounds void (%"class.leveldb_proto::ProtoDatabase"*, %"class.std::__1::vector.94"*, %"class.base::RepeatingCallback.121"*, %"class.base::OnceCallback.122"*)*, void (%"class.leveldb_proto::ProtoDatabase"*, %"class.std::__1::vector.94"*, %"class.base::RepeatingCallback.121"*, %"class.base::OnceCallback.122"*)** %181, i64 5
  %183 = load void (%"class.leveldb_proto::ProtoDatabase"*, %"class.std::__1::vector.94"*, %"class.base::RepeatingCallback.121"*, %"class.base::OnceCallback.122"*)*, void (%"class.leveldb_proto::ProtoDatabase"*, %"class.std::__1::vector.94"*, %"class.base::RepeatingCallback.121"*, %"class.base::OnceCallback.122"*)** %182, align 8
  call void %183(%"class.leveldb_proto::ProtoDatabase"* %127, %"class.std::__1::vector.94"* %128, %"class.base::RepeatingCallback.121"* nonnull dereferenceable(8) %11, %"class.base::OnceCallback.122"* nonnull %12) #16
  %184 = getelementptr inbounds %"class.base::OnceCallback.122", %"class.base::OnceCallback.122"* %12, i64 0, i32 0
  call void @_ZN4base8internal12CallbackBaseD2Ev(%"class.base::internal::CallbackBase"* nonnull %184) #16
  call void @_ZN4base8internal11WeakPtrBaseD2Ev(%"class.base::internal::WeakPtrBase"* nonnull %162) #16
  call void @llvm.lifetime.end.p0i8(i64 16, i8* nonnull %157) #16
  %185 = getelementptr inbounds %"class.base::RepeatingCallback.121", %"class.base::RepeatingCallback.121"* %11, i64 0, i32 0, i32 0
  call void @_ZN4base8internal12CallbackBaseD2Ev(%"class.base::internal::CallbackBase"* nonnull %185) #16
  call void @llvm.lifetime.end.p0i8(i64 8, i8* nonnull %129) #16
  br i1 %146, label %186, label %187

186:                                              ; preds = %155
  call void @_ZdlPv(i8* %121) #17
  br label %187

187:                                              ; preds = %155, %186
  br i1 %136, label %188, label %190

188:                                              ; preds = %187
  %189 = load i8*, i8** %111, align 8
  call void @_ZdlPv(i8* %189) #17
  br label %190

190:                                              ; preds = %187, %188
  call void @llvm.lifetime.end.p0i8(i64 24, i8* nonnull %110) #16
  br label %191

191:                                              ; preds = %190, %52, %17
  %192 = icmp eq %"class.optimization_guide::StoreUpdateData"* %1, null
  br i1 %192, label %195, label %193

193:                                              ; preds = %191
  call void @_ZN18optimization_guide15StoreUpdateDataD1Ev(%"class.optimization_guide::StoreUpdateData"* nonnull %1) #16
  %194 = getelementptr inbounds %"class.optimization_guide::StoreUpdateData", %"class.optimization_guide::StoreUpdateData"* %1, i64 0, i32 0, i32 0, i32 0, i32 0, i32 0
  call void @_ZdlPv(i8* %194) #17
  br label %195

195:                                              ; preds = %191, %193
  ret void
}

; Function Attrs: nounwind ssp uwtable
define hidden void @_ZN18optimization_guide22OptimizationGuideStore19SetComponentVersionERKN4base7VersionE(%"class.optimization_guide::OptimizationGuideStore"*, %"class.base::Version"* dereferenceable(24)) local_unnamed_addr #0 align 2 {
  %3 = alloca %"class.std::__1::basic_string", align 8
  %4 = getelementptr inbounds %"class.optimization_guide::OptimizationGuideStore", %"class.optimization_guide::OptimizationGuideStore"* %0, i64 0, i32 3, i32 0, i32 0, i32 0, i32 0
  %5 = load i8, i8* %4, align 8, !range !2
  %6 = icmp eq i8 %5, 0
  %7 = getelementptr inbounds %"class.optimization_guide::OptimizationGuideStore", %"class.optimization_guide::OptimizationGuideStore"* %0, i64 0, i32 3, i32 0, i32 0, i32 0, i32 1, i32 0
  br i1 %6, label %10, label %8

8:                                                ; preds = %2
  %9 = icmp eq %"class.base::Version"* %7, %1
  br i1 %9, label %11, label %13

10:                                               ; preds = %2
  tail call void @_ZN4base7VersionC1ERKS0_(%"class.base::Version"* %7, %"class.base::Version"* dereferenceable(24) %1) #16
  store i8 1, i8* %4, align 8
  br label %11

11:                                               ; preds = %8, %10
  %12 = bitcast %"class.std::__1::basic_string"* %3 to i8*
  call void @llvm.lifetime.start.p0i8(i64 24, i8* nonnull %12) #16
  br label %23

13:                                               ; preds = %8
  %14 = getelementptr inbounds %"class.base::Version", %"class.base::Version"* %7, i64 0, i32 0
  %15 = getelementptr inbounds %"class.base::Version", %"class.base::Version"* %1, i64 0, i32 0, i32 0, i32 0
  %16 = load i32*, i32** %15, align 8
  %17 = getelementptr inbounds %"class.base::Version", %"class.base::Version"* %1, i64 0, i32 0, i32 0, i32 1
  %18 = load i32*, i32** %17, align 8
  tail call void @_ZNSt3__16vectorIjNS_9allocatorIjEEE6assignIPjEENS_9enable_ifIXaasr27__is_cpp17_forward_iteratorIT_EE5valuesr16is_constructibleIjNS_15iterator_traitsIS7_E9referenceEEE5valueEvE4typeES7_S7_(%"class.std::__1::vector"* %14, i32* %16, i32* %18) #16
  %19 = load i8, i8* %4, align 8
  %20 = bitcast %"class.std::__1::basic_string"* %3 to i8*
  call void @llvm.lifetime.start.p0i8(i64 24, i8* nonnull %20) #16
  %21 = icmp eq i8 %19, 0
  br i1 %21, label %22, label %23

22:                                               ; preds = %13
  tail call void @_ZN4absl17optional_internal25throw_bad_optional_accessEv() #18
  unreachable

23:                                               ; preds = %11, %13
  %24 = phi i8* [ %12, %11 ], [ %20, %13 ]
  call void @_ZN18optimization_guide22OptimizationGuideStore30GetComponentHintEntryKeyPrefixERKN4base7VersionE(%"class.std::__1::basic_string"* nonnull sret %3, %"class.base::Version"* dereferenceable(24) %7)
  %25 = getelementptr inbounds %"class.optimization_guide::OptimizationGuideStore", %"class.optimization_guide::OptimizationGuideStore"* %0, i64 0, i32 4
  %26 = bitcast %"class.std::__1::basic_string"* %25 to %"struct.std::__1::basic_string<char, std::__1::char_traits<char>, std::__1::allocator<char> >::__short"*
  %27 = getelementptr inbounds %"struct.std::__1::basic_string<char, std::__1::char_traits<char>, std::__1::allocator<char> >::__short", %"struct.std::__1::basic_string<char, std::__1::char_traits<char>, std::__1::allocator<char> >::__short"* %26, i64 0, i32 1, i32 0
  %28 = load i8, i8* %27, align 1
  %29 = icmp slt i8 %28, 0
  br i1 %29, label %30, label %33

30:                                               ; preds = %23
  %31 = getelementptr inbounds %"class.std::__1::basic_string", %"class.std::__1::basic_string"* %25, i64 0, i32 0, i32 0, i32 0, i32 0, i32 0, i32 0
  %32 = load i8*, i8** %31, align 8
  tail call void @_ZdlPv(i8* %32) #17
  br label %33

33:                                               ; preds = %30, %23
  %34 = bitcast %"class.std::__1::basic_string"* %25 to i8*
  call void @llvm.memcpy.p0i8.p0i8.i64(i8* align 8 %34, i8* nonnull align 8 %24, i64 24, i1 false) #16
  %35 = bitcast %"class.std::__1::basic_string"* %3 to %"struct.std::__1::basic_string<char, std::__1::char_traits<char>, std::__1::allocator<char> >::__short"*
  %36 = getelementptr inbounds %"struct.std::__1::basic_string<char, std::__1::char_traits<char>, std::__1::allocator<char> >::__short", %"struct.std::__1::basic_string<char, std::__1::char_traits<char>, std::__1::allocator<char> >::__short"* %35, i64 0, i32 1, i32 0
  store i8 0, i8* %36, align 1
  call void @llvm.lifetime.end.p0i8(i64 24, i8* nonnull %24) #16
  ret void
}

; Function Attrs: nounwind ssp uwtable
define hidden void @_ZN18optimization_guide22OptimizationGuideStore30GetComponentHintEntryKeyPrefixERKN4base7VersionE(%"class.std::__1::basic_string"* noalias nocapture sret, %"class.base::Version"* dereferenceable(24)) local_unnamed_addr #0 align 2 {
  %3 = alloca %"class.std::__1::basic_string", align 8
  %4 = alloca %"class.std::__1::basic_string", align 8
  %5 = alloca %"class.std::__1::basic_string", align 8
  %6 = alloca %"class.std::__1::basic_string", align 8
  %7 = bitcast %"class.std::__1::basic_string"* %4 to i8*
  call void @llvm.lifetime.start.p0i8(i64 24, i8* nonnull %7) #16
  %8 = bitcast %"class.std::__1::basic_string"* %5 to i8*
  call void @llvm.lifetime.start.p0i8(i64 24, i8* nonnull %8) #16
  %9 = bitcast %"class.std::__1::basic_string"* %3 to i8*
  call void @llvm.lifetime.start.p0i8(i64 24, i8* nonnull %9) #16, !noalias !61
  call void @_ZN4base14NumberToStringEi(%"class.std::__1::basic_string"* nonnull sret %3, i32 2) #16, !noalias !61
  call void @_ZNSt3__112basic_stringIcNS_11char_traitsIcEENS_9allocatorIcEEE9push_backEc(%"class.std::__1::basic_string"* nonnull %3, i8 signext 95) #16, !noalias !64
  call void @llvm.memcpy.p0i8.p0i8.i64(i8* nonnull align 8 %8, i8* nonnull align 8 %9, i64 24, i1 false) #16
  call void @llvm.lifetime.end.p0i8(i64 24, i8* nonnull %9) #16, !noalias !61
  %10 = bitcast %"class.std::__1::basic_string"* %6 to i8*
  call void @llvm.lifetime.start.p0i8(i64 24, i8* nonnull %10) #16
  call void @_ZNK4base7Version9GetStringEv(%"class.std::__1::basic_string"* nonnull sret %6, %"class.base::Version"* %1) #16
  %11 = bitcast %"class.std::__1::basic_string"* %6 to %"struct.std::__1::basic_string<char, std::__1::char_traits<char>, std::__1::allocator<char> >::__short"*
  %12 = getelementptr inbounds %"struct.std::__1::basic_string<char, std::__1::char_traits<char>, std::__1::allocator<char> >::__short", %"struct.std::__1::basic_string<char, std::__1::char_traits<char>, std::__1::allocator<char> >::__short"* %11, i64 0, i32 1, i32 0
  %13 = load i8, i8* %12, align 1, !noalias !67
  %14 = icmp slt i8 %13, 0
  %15 = getelementptr inbounds %"class.std::__1::basic_string", %"class.std::__1::basic_string"* %6, i64 0, i32 0, i32 0, i32 0, i32 0, i32 0, i32 0
  %16 = load i8*, i8** %15, align 8, !noalias !67
  %17 = getelementptr inbounds %"class.std::__1::basic_string", %"class.std::__1::basic_string"* %6, i64 0, i32 0, i32 0, i32 0, i32 0, i32 0, i32 1
  %18 = load i64, i64* %17, align 8, !noalias !67
  %19 = zext i8 %13 to i64
  %20 = select i1 %14, i8* %16, i8* %10
  %21 = select i1 %14, i64 %18, i64 %19
  %22 = call dereferenceable(24) %"class.std::__1::basic_string"* @_ZNSt3__112basic_stringIcNS_11char_traitsIcEENS_9allocatorIcEEE6appendEPKcm(%"class.std::__1::basic_string"* nonnull %5, i8* %20, i64 %21) #16, !noalias !67
  %23 = bitcast %"class.std::__1::basic_string"* %22 to i8*
  call void @llvm.memcpy.p0i8.p0i8.i64(i8* nonnull align 8 %7, i8* align 8 %23, i64 24, i1 false) #16
  call void @llvm.memset.p0i8.i64(i8* align 8 %23, i8 0, i64 24, i1 false) #16, !noalias !67
  call void @_ZNSt3__112basic_stringIcNS_11char_traitsIcEENS_9allocatorIcEEE9push_backEc(%"class.std::__1::basic_string"* nonnull %4, i8 signext 95) #16, !noalias !70
  %24 = bitcast %"class.std::__1::basic_string"* %0 to i8*
  call void @llvm.memcpy.p0i8.p0i8.i64(i8* align 8 %24, i8* nonnull align 8 %7, i64 24, i1 false) #16
  call void @llvm.memset.p0i8.i64(i8* nonnull align 8 %7, i8 0, i64 24, i1 false) #16, !noalias !70
  %25 = load i8, i8* %12, align 1
  %26 = icmp slt i8 %25, 0
  br i1 %26, label %27, label %29

27:                                               ; preds = %2
  %28 = load i8*, i8** %15, align 8
  call void @_ZdlPv(i8* %28) #17
  br label %29

29:                                               ; preds = %2, %27
  call void @llvm.lifetime.end.p0i8(i64 24, i8* nonnull %10) #16
  %30 = bitcast %"class.std::__1::basic_string"* %5 to %"struct.std::__1::basic_string<char, std::__1::char_traits<char>, std::__1::allocator<char> >::__short"*
  %31 = getelementptr inbounds %"struct.std::__1::basic_string<char, std::__1::char_traits<char>, std::__1::allocator<char> >::__short", %"struct.std::__1::basic_string<char, std::__1::char_traits<char>, std::__1::allocator<char> >::__short"* %30, i64 0, i32 1, i32 0
  %32 = load i8, i8* %31, align 1
  %33 = icmp slt i8 %32, 0
  br i1 %33, label %34, label %37

34:                                               ; preds = %29
  %35 = getelementptr inbounds %"class.std::__1::basic_string", %"class.std::__1::basic_string"* %5, i64 0, i32 0, i32 0, i32 0, i32 0, i32 0, i32 0
  %36 = load i8*, i8** %35, align 8
  call void @_ZdlPv(i8* %36) #17
  br label %37

37:                                               ; preds = %29, %34
  call void @llvm.lifetime.end.p0i8(i64 24, i8* nonnull %8) #16
  call void @llvm.lifetime.end.p0i8(i64 24, i8* nonnull %7) #16
  ret void
}

; Function Attrs: nounwind ssp uwtable
define hidden void @_ZN18optimization_guide22OptimizationGuideStore44GetComponentHintEntryKeyPrefixWithoutVersionEv(%"class.std::__1::basic_string"* noalias nocapture sret) local_unnamed_addr #0 align 2 {
  %2 = alloca %"class.std::__1::basic_string", align 8
  %3 = bitcast %"class.std::__1::basic_string"* %2 to i8*
  call void @llvm.lifetime.start.p0i8(i64 24, i8* nonnull %3) #16
  call void @_ZN4base14NumberToStringEi(%"class.std::__1::basic_string"* nonnull sret %2, i32 2) #16
  call void @_ZNSt3__112basic_stringIcNS_11char_traitsIcEENS_9allocatorIcEEE9push_backEc(%"class.std::__1::basic_string"* nonnull %2, i8 signext 95) #16, !noalias !73
  %4 = bitcast %"class.std::__1::basic_string"* %0 to i8*
  call void @llvm.memcpy.p0i8.p0i8.i64(i8* align 8 %4, i8* nonnull align 8 %3, i64 24, i1 false) #16
  call void @llvm.lifetime.end.p0i8(i64 24, i8* nonnull %3) #16
  ret void
}

declare %"class.std::__1::vector.94"* @_ZN18optimization_guide15StoreUpdateData17TakeUpdateEntriesEv(%"class.optimization_guide::StoreUpdateData"*) local_unnamed_addr #4

; Function Attrs: nounwind ssp uwtable
define hidden void @_ZN18optimization_guide22OptimizationGuideStore13OnUpdateStoreEN4base12OnceCallbackIFvvEEEb(%"class.optimization_guide::OptimizationGuideStore"*, %"class.base::OnceCallback"* nocapture, i1 zeroext) #0 align 2 {
  %4 = alloca %"class.base::OnceCallback", align 8
  %5 = alloca %"class.base::OnceCallback", align 8
  br i1 %2, label %17, label %6

6:                                                ; preds = %3
  tail call void @_ZN18optimization_guide22OptimizationGuideStore12UpdateStatusENS0_6StatusE(%"class.optimization_guide::OptimizationGuideStore"* %0, i32 3)
  %7 = bitcast %"class.base::OnceCallback"* %4 to i8*
  call void @llvm.lifetime.start.p0i8(i64 8, i8* nonnull %7) #16
  %8 = getelementptr inbounds %"class.base::OnceCallback", %"class.base::OnceCallback"* %1, i64 0, i32 0, i32 0, i32 0
  %9 = bitcast %"class.base::OnceCallback"* %1 to i64*
  %10 = load i64, i64* %9, align 8
  %11 = bitcast %"class.base::OnceCallback"* %4 to i64*
  store i64 %10, i64* %11, align 8
  store %"class.base::internal::BindStateBase"* null, %"class.base::internal::BindStateBase"** %8, align 8
  %12 = getelementptr inbounds %"class.base::OnceCallback", %"class.base::OnceCallback"* %4, i64 0, i32 0
  %13 = inttoptr i64 %10 to %"class.base::internal::BindStateBase"*
  %14 = getelementptr inbounds %"class.base::internal::BindStateBase", %"class.base::internal::BindStateBase"* %13, i64 0, i32 1
  %15 = bitcast void ()** %14 to void (%"class.base::internal::BindStateBase"*)**
  %16 = load void (%"class.base::internal::BindStateBase"*)*, void (%"class.base::internal::BindStateBase"*)** %15, align 8
  tail call void %16(%"class.base::internal::BindStateBase"* %13) #16
  call void @_ZN4base8internal12CallbackBaseD2Ev(%"class.base::internal::CallbackBase"* nonnull %12) #16
  call void @llvm.lifetime.end.p0i8(i64 8, i8* nonnull %7) #16
  br label %23

17:                                               ; preds = %3
  %18 = getelementptr inbounds %"class.base::OnceCallback", %"class.base::OnceCallback"* %1, i64 0, i32 0, i32 0, i32 0
  %19 = bitcast %"class.base::OnceCallback"* %1 to i64*
  %20 = load i64, i64* %19, align 8
  %21 = bitcast %"class.base::OnceCallback"* %5 to i64*
  store i64 %20, i64* %21, align 8
  store %"class.base::internal::BindStateBase"* null, %"class.base::internal::BindStateBase"** %18, align 8
  call void @_ZN18optimization_guide22OptimizationGuideStore18MaybeLoadEntryKeysEN4base12OnceCallbackIFvvEEE(%"class.optimization_guide::OptimizationGuideStore"* %0, %"class.base::OnceCallback"* nonnull %5)
  %22 = getelementptr inbounds %"class.base::OnceCallback", %"class.base::OnceCallback"* %5, i64 0, i32 0
  call void @_ZN4base8internal12CallbackBaseD2Ev(%"class.base::internal::CallbackBase"* nonnull %22) #16
  br label %23

23:                                               ; preds = %17, %6
  ret void
}

; Function Attrs: nounwind ssp uwtable
define hidden void @_ZN18optimization_guide22OptimizationGuideStore18UpdateFetchedHintsENSt3__110unique_ptrINS_15StoreUpdateDataENS1_14default_deleteIS3_EEEEN4base12OnceCallbackIFvvEEE(%"class.optimization_guide::OptimizationGuideStore"*, %"class.optimization_guide::StoreUpdateData"*, %"class.base::OnceCallback"* nocapture) local_unnamed_addr #0 align 2 {
  %4 = alloca %"class.base::internal::WeakReference", align 8
  %5 = alloca %"class.base::OnceCallback", align 8
  %6 = alloca %"class.base::RepeatingCallback.121", align 8
  %7 = alloca %"class.std::__1::basic_string", align 8
  %8 = alloca %"class.base::OnceCallback.122", align 8
  %9 = alloca %"class.base::WeakPtr", align 8
  %10 = getelementptr inbounds %"class.optimization_guide::OptimizationGuideStore", %"class.optimization_guide::OptimizationGuideStore"* %0, i64 0, i32 2
  %11 = load i32, i32* %10, align 8
  %12 = icmp eq i32 %11, 2
  br i1 %12, label %24, label %13

13:                                               ; preds = %3
  %14 = bitcast %"class.base::OnceCallback"* %5 to i8*
  call void @llvm.lifetime.start.p0i8(i64 8, i8* nonnull %14) #16
  %15 = getelementptr inbounds %"class.base::OnceCallback", %"class.base::OnceCallback"* %2, i64 0, i32 0, i32 0, i32 0
  %16 = bitcast %"class.base::OnceCallback"* %2 to i64*
  %17 = load i64, i64* %16, align 8
  %18 = bitcast %"class.base::OnceCallback"* %5 to i64*
  store i64 %17, i64* %18, align 8
  store %"class.base::internal::BindStateBase"* null, %"class.base::internal::BindStateBase"** %15, align 8
  %19 = getelementptr inbounds %"class.base::OnceCallback", %"class.base::OnceCallback"* %5, i64 0, i32 0
  %20 = inttoptr i64 %17 to %"class.base::internal::BindStateBase"*
  %21 = getelementptr inbounds %"class.base::internal::BindStateBase", %"class.base::internal::BindStateBase"* %20, i64 0, i32 1
  %22 = bitcast void ()** %21 to void (%"class.base::internal::BindStateBase"*)**
  %23 = load void (%"class.base::internal::BindStateBase"*)*, void (%"class.base::internal::BindStateBase"*)** %22, align 8
  tail call void %23(%"class.base::internal::BindStateBase"* %20) #16
  call void @_ZN4base8internal12CallbackBaseD2Ev(%"class.base::internal::CallbackBase"* nonnull %19) #16
  br label %105

24:                                               ; preds = %3
  %25 = getelementptr inbounds %"class.optimization_guide::StoreUpdateData", %"class.optimization_guide::StoreUpdateData"* %1, i64 0, i32 1, i32 0, i32 0, i32 0, i32 0
  %26 = load i8, i8* %25, align 8
  %27 = icmp eq i8 %26, 0
  br i1 %27, label %28, label %29, !prof !76

28:                                               ; preds = %24
  tail call void @llvm.trap() #16
  unreachable

29:                                               ; preds = %24
  %30 = getelementptr inbounds %"class.optimization_guide::StoreUpdateData", %"class.optimization_guide::StoreUpdateData"* %1, i64 0, i32 1, i32 0, i32 0, i32 0, i32 1, i32 0, i32 0, i32 0
  %31 = load i64, i64* %30, align 8
  %32 = getelementptr inbounds %"class.optimization_guide::OptimizationGuideStore", %"class.optimization_guide::OptimizationGuideStore"* %0, i64 0, i32 5, i32 0, i32 0
  store i64 %31, i64* %32, align 8
  %33 = getelementptr inbounds %"class.optimization_guide::OptimizationGuideStore", %"class.optimization_guide::OptimizationGuideStore"* %0, i64 0, i32 7, i32 0, i32 0, i32 0
  %34 = load %"class.base::internal::flat_tree"*, %"class.base::internal::flat_tree"** %33, align 8
  store %"class.base::internal::flat_tree"* null, %"class.base::internal::flat_tree"** %33, align 8
  %35 = icmp eq %"class.base::internal::flat_tree"* %34, null
  br i1 %35, label %64, label %36

36:                                               ; preds = %29
  %37 = getelementptr inbounds %"class.base::internal::flat_tree", %"class.base::internal::flat_tree"* %34, i64 0, i32 0, i32 0, i32 0
  %38 = load %"class.std::__1::basic_string"*, %"class.std::__1::basic_string"** %37, align 8
  %39 = icmp eq %"class.std::__1::basic_string"* %38, null
  br i1 %39, label %62, label %40

40:                                               ; preds = %36
  %41 = bitcast %"class.std::__1::basic_string"* %38 to i8*
  %42 = getelementptr inbounds %"class.base::internal::flat_tree", %"class.base::internal::flat_tree"* %34, i64 0, i32 0, i32 0, i32 1
  %43 = load %"class.std::__1::basic_string"*, %"class.std::__1::basic_string"** %42, align 8
  %44 = icmp eq %"class.std::__1::basic_string"* %43, %38
  br i1 %44, label %60, label %45

45:                                               ; preds = %40, %55
  %46 = phi %"class.std::__1::basic_string"* [ %47, %55 ], [ %43, %40 ]
  %47 = getelementptr inbounds %"class.std::__1::basic_string", %"class.std::__1::basic_string"* %46, i64 -1
  %48 = bitcast %"class.std::__1::basic_string"* %47 to %"struct.std::__1::basic_string<char, std::__1::char_traits<char>, std::__1::allocator<char> >::__short"*
  %49 = getelementptr inbounds %"struct.std::__1::basic_string<char, std::__1::char_traits<char>, std::__1::allocator<char> >::__short", %"struct.std::__1::basic_string<char, std::__1::char_traits<char>, std::__1::allocator<char> >::__short"* %48, i64 0, i32 1, i32 0
  %50 = load i8, i8* %49, align 1
  %51 = icmp slt i8 %50, 0
  br i1 %51, label %52, label %55

52:                                               ; preds = %45
  %53 = getelementptr inbounds %"class.std::__1::basic_string", %"class.std::__1::basic_string"* %47, i64 0, i32 0, i32 0, i32 0, i32 0, i32 0, i32 0
  %54 = load i8*, i8** %53, align 8
  tail call void @_ZdlPv(i8* %54) #17
  br label %55

55:                                               ; preds = %52, %45
  %56 = icmp eq %"class.std::__1::basic_string"* %47, %38
  br i1 %56, label %57, label %45

57:                                               ; preds = %55
  %58 = bitcast %"class.base::internal::flat_tree"* %34 to i8**
  %59 = load i8*, i8** %58, align 8
  br label %60

60:                                               ; preds = %57, %40
  %61 = phi i8* [ %59, %57 ], [ %41, %40 ]
  store %"class.std::__1::basic_string"* %38, %"class.std::__1::basic_string"** %42, align 8
  tail call void @_ZdlPv(i8* %61) #17
  br label %62

62:                                               ; preds = %60, %36
  %63 = bitcast %"class.base::internal::flat_tree"* %34 to i8*
  tail call void @_ZdlPv(i8* %63) #17
  br label %64

64:                                               ; preds = %62, %29
  %65 = getelementptr inbounds %"class.optimization_guide::OptimizationGuideStore", %"class.optimization_guide::OptimizationGuideStore"* %0, i64 0, i32 1, i32 0, i32 0, i32 0
  %66 = load %"class.leveldb_proto::ProtoDatabase"*, %"class.leveldb_proto::ProtoDatabase"** %65, align 8
  %67 = tail call %"class.std::__1::vector.94"* @_ZN18optimization_guide15StoreUpdateData17TakeUpdateEntriesEv(%"class.optimization_guide::StoreUpdateData"* %1) #16
  %68 = bitcast %"class.base::RepeatingCallback.121"* %6 to i8*
  call void @llvm.lifetime.start.p0i8(i64 8, i8* nonnull %68) #16
  %69 = bitcast %"class.std::__1::basic_string"* %7 to i8*
  call void @llvm.lifetime.start.p0i8(i64 24, i8* nonnull %69) #16
  call void @_ZN18optimization_guide22OptimizationGuideStore23GetMetadataTypeEntryKeyENS0_12MetadataTypeE(%"class.std::__1::basic_string"* nonnull sret %7, i32 3)
  %70 = tail call i8* @_Znwm(i64 64) #17, !noalias !77
  %71 = bitcast i8* %70 to %"class.base::internal::BindStateBase"*
  tail call void @_ZN4base8internal13BindStateBaseC2EPFvvEPFvPKS1_E(%"class.base::internal::BindStateBase"* nonnull %71, void ()* bitcast (i1 (%"class.base::internal::BindStateBase"*, %"class.std::__1::basic_string"*)* @_ZN4base8internal7InvokerINS0_9BindStateIPFbRKNSt3__112basic_stringIcNS3_11char_traitsIcEENS3_9allocatorIcEEEESB_EJS9_EEEFbSB_EE3RunEPNS0_13BindStateBaseESB_ to void ()*), void (%"class.base::internal::BindStateBase"*)* nonnull @_ZN4base8internal9BindStateIPFbRKNSt3__112basic_stringIcNS2_11char_traitsIcEENS2_9allocatorIcEEEESA_EJS8_EE7DestroyEPKNS0_13BindStateBaseE) #16, !noalias !77
  %72 = getelementptr inbounds i8, i8* %70, i64 32
  %73 = bitcast i8* %72 to i64*
  store i64 ptrtoint (i1 (%"class.std::__1::basic_string"*, %"class.std::__1::basic_string"*)* @_ZN18optimization_guide12_GLOBAL__N_120DatabasePrefixFilterERKNSt3__112basic_stringIcNS1_11char_traitsIcEENS1_9allocatorIcEEEES9_ to i64), i64* %73, align 8, !noalias !77
  %74 = getelementptr inbounds i8, i8* %70, i64 40
  call void @llvm.memcpy.p0i8.p0i8.i64(i8* align 8 %74, i8* nonnull align 8 %69, i64 24, i1 false) #16, !noalias !77
  %75 = bitcast %"class.base::RepeatingCallback.121"* %6 to i8**
  store i8* %70, i8** %75, align 8, !alias.scope !77
  %76 = bitcast %"class.base::WeakPtr"* %9 to i8*
  call void @llvm.lifetime.start.p0i8(i64 16, i8* nonnull %76) #16
  %77 = bitcast %"class.base::internal::WeakReference"* %4 to i8*
  call void @llvm.lifetime.start.p0i8(i64 8, i8* nonnull %77) #16, !noalias !82
  %78 = getelementptr inbounds %"class.optimization_guide::OptimizationGuideStore", %"class.optimization_guide::OptimizationGuideStore"* %0, i64 0, i32 9, i32 0, i32 0
  call void @_ZNK4base8internal18WeakReferenceOwner6GetRefEv(%"class.base::internal::WeakReference"* nonnull sret %4, %"class.base::internal::WeakReferenceOwner"* %78) #16, !noalias !82
  %79 = getelementptr inbounds %"class.optimization_guide::OptimizationGuideStore", %"class.optimization_guide::OptimizationGuideStore"* %0, i64 0, i32 9, i32 0, i32 1
  %80 = load i64, i64* %79, align 8, !noalias !82
  %81 = getelementptr inbounds %"class.base::WeakPtr", %"class.base::WeakPtr"* %9, i64 0, i32 0
  call void @_ZN4base8internal11WeakPtrBaseC2ERKNS0_13WeakReferenceEm(%"class.base::internal::WeakPtrBase"* nonnull %81, %"class.base::internal::WeakReference"* nonnull dereferenceable(8) %4, i64 %80) #16
  call void @_ZN4base8internal13WeakReferenceD1Ev(%"class.base::internal::WeakReference"* nonnull %4) #16
  call void @llvm.lifetime.end.p0i8(i64 8, i8* nonnull %77) #16, !noalias !82
  %82 = call i8* @_Znwm(i64 72) #17, !noalias !85
  %83 = bitcast i8* %82 to %"class.base::internal::BindStateBase"*
  call void @_ZN4base8internal13BindStateBaseC2EPFvvEPFvPKS1_EPFbS5_NS1_21CancellationQueryModeEE(%"class.base::internal::BindStateBase"* nonnull %83, void ()* bitcast (void (%"class.base::internal::BindStateBase"*, i1)* @_ZN4base8internal7InvokerINS0_9BindStateIMN18optimization_guide22OptimizationGuideStoreEFvNS_12OnceCallbackIFvvEEEbEJNS_7WeakPtrIS4_EES7_EEEFvbEE7RunOnceEPNS0_13BindStateBaseEb to void ()*), void (%"class.base::internal::BindStateBase"*)* nonnull @_ZN4base8internal9BindStateIMN18optimization_guide22OptimizationGuideStoreEFvNS_12OnceCallbackIFvvEEEbEJNS_7WeakPtrIS3_EES6_EE7DestroyEPKNS0_13BindStateBaseE, i1 (%"class.base::internal::BindStateBase"*, i32)* nonnull @_ZN4base8internal23QueryCancellationTraitsINS0_9BindStateIMN18optimization_guide22OptimizationGuideStoreEFvNS_12OnceCallbackIFvvEEEbEJNS_7WeakPtrIS4_EES7_EEEEEbPKNS0_13BindStateBaseENSD_21CancellationQueryModeE) #16, !noalias !85
  %84 = getelementptr inbounds i8, i8* %82, i64 32
  %85 = bitcast i8* %84 to <2 x i64>*
  store <2 x i64> <i64 ptrtoint (void (%"class.optimization_guide::OptimizationGuideStore"*, %"class.base::OnceCallback"*, i1)* @_ZN18optimization_guide22OptimizationGuideStore13OnUpdateStoreEN4base12OnceCallbackIFvvEEEb to i64), i64 0>, <2 x i64>* %85, align 8, !noalias !85
  %86 = getelementptr inbounds i8, i8* %82, i64 48
  %87 = bitcast i8* %86 to %"class.base::internal::WeakReference"*
  %88 = getelementptr inbounds %"class.base::WeakPtr", %"class.base::WeakPtr"* %9, i64 0, i32 0, i32 0
  call void @_ZN4base8internal13WeakReferenceC1EOS1_(%"class.base::internal::WeakReference"* %87, %"class.base::internal::WeakReference"* nonnull dereferenceable(8) %88) #16, !noalias !85
  %89 = getelementptr inbounds i8, i8* %82, i64 56
  %90 = bitcast i8* %89 to i64*
  %91 = getelementptr inbounds %"class.base::WeakPtr", %"class.base::WeakPtr"* %9, i64 0, i32 0, i32 1
  %92 = load i64, i64* %91, align 8, !noalias !85
  store i64 %92, i64* %90, align 8, !noalias !85
  %93 = getelementptr inbounds i8, i8* %82, i64 64
  %94 = getelementptr inbounds %"class.base::OnceCallback", %"class.base::OnceCallback"* %2, i64 0, i32 0, i32 0, i32 0
  %95 = bitcast %"class.base::OnceCallback"* %2 to i64*
  %96 = load i64, i64* %95, align 8, !noalias !85
  %97 = bitcast i8* %93 to i64*
  store i64 %96, i64* %97, align 8, !noalias !85
  store %"class.base::internal::BindStateBase"* null, %"class.base::internal::BindStateBase"** %94, align 8, !noalias !85
  %98 = bitcast %"class.base::OnceCallback.122"* %8 to i8**
  store i8* %82, i8** %98, align 8, !alias.scope !85
  %99 = bitcast %"class.leveldb_proto::ProtoDatabase"* %66 to void (%"class.leveldb_proto::ProtoDatabase"*, %"class.std::__1::vector.94"*, %"class.base::RepeatingCallback.121"*, %"class.base::OnceCallback.122"*)***
  %100 = load void (%"class.leveldb_proto::ProtoDatabase"*, %"class.std::__1::vector.94"*, %"class.base::RepeatingCallback.121"*, %"class.base::OnceCallback.122"*)**, void (%"class.leveldb_proto::ProtoDatabase"*, %"class.std::__1::vector.94"*, %"class.base::RepeatingCallback.121"*, %"class.base::OnceCallback.122"*)*** %99, align 8
  %101 = getelementptr inbounds void (%"class.leveldb_proto::ProtoDatabase"*, %"class.std::__1::vector.94"*, %"class.base::RepeatingCallback.121"*, %"class.base::OnceCallback.122"*)*, void (%"class.leveldb_proto::ProtoDatabase"*, %"class.std::__1::vector.94"*, %"class.base::RepeatingCallback.121"*, %"class.base::OnceCallback.122"*)** %100, i64 5
  %102 = load void (%"class.leveldb_proto::ProtoDatabase"*, %"class.std::__1::vector.94"*, %"class.base::RepeatingCallback.121"*, %"class.base::OnceCallback.122"*)*, void (%"class.leveldb_proto::ProtoDatabase"*, %"class.std::__1::vector.94"*, %"class.base::RepeatingCallback.121"*, %"class.base::OnceCallback.122"*)** %101, align 8
  call void %102(%"class.leveldb_proto::ProtoDatabase"* %66, %"class.std::__1::vector.94"* %67, %"class.base::RepeatingCallback.121"* nonnull dereferenceable(8) %6, %"class.base::OnceCallback.122"* nonnull %8) #16
  %103 = getelementptr inbounds %"class.base::OnceCallback.122", %"class.base::OnceCallback.122"* %8, i64 0, i32 0
  call void @_ZN4base8internal12CallbackBaseD2Ev(%"class.base::internal::CallbackBase"* nonnull %103) #16
  call void @_ZN4base8internal11WeakPtrBaseD2Ev(%"class.base::internal::WeakPtrBase"* nonnull %81) #16
  call void @llvm.lifetime.end.p0i8(i64 16, i8* nonnull %76) #16
  %104 = getelementptr inbounds %"class.base::RepeatingCallback.121", %"class.base::RepeatingCallback.121"* %6, i64 0, i32 0, i32 0
  call void @_ZN4base8internal12CallbackBaseD2Ev(%"class.base::internal::CallbackBase"* nonnull %104) #16
  call void @llvm.lifetime.end.p0i8(i64 24, i8* nonnull %69) #16
  br label %105

105:                                              ; preds = %64, %13
  %106 = phi i8* [ %68, %64 ], [ %14, %13 ]
  call void @llvm.lifetime.end.p0i8(i64 8, i8* nonnull %106) #16
  %107 = icmp eq %"class.optimization_guide::StoreUpdateData"* %1, null
  br i1 %107, label %110, label %108

108:                                              ; preds = %105
  call void @_ZN18optimization_guide15StoreUpdateDataD1Ev(%"class.optimization_guide::StoreUpdateData"* nonnull %1) #16
  %109 = getelementptr inbounds %"class.optimization_guide::StoreUpdateData", %"class.optimization_guide::StoreUpdateData"* %1, i64 0, i32 0, i32 0, i32 0, i32 0, i32 0
  call void @_ZdlPv(i8* %109) #17
  br label %110

110:                                              ; preds = %105, %108
  ret void
}

; Function Attrs: nounwind ssp uwtable
define internal zeroext i1 @_ZN18optimization_guide12_GLOBAL__N_120DatabasePrefixFilterERKNSt3__112basic_stringIcNS1_11char_traitsIcEENS1_9allocatorIcEEEES9_(%"class.std::__1::basic_string"* dereferenceable(24), %"class.std::__1::basic_string"* dereferenceable(24)) #0 {
  %3 = bitcast %"class.std::__1::basic_string"* %1 to %"struct.std::__1::basic_string<char, std::__1::char_traits<char>, std::__1::allocator<char> >::__short"*
  %4 = getelementptr inbounds %"struct.std::__1::basic_string<char, std::__1::char_traits<char>, std::__1::allocator<char> >::__short", %"struct.std::__1::basic_string<char, std::__1::char_traits<char>, std::__1::allocator<char> >::__short"* %3, i64 0, i32 1, i32 0
  %5 = load i8, i8* %4, align 1
  %6 = icmp slt i8 %5, 0
  %7 = getelementptr inbounds %"class.std::__1::basic_string", %"class.std::__1::basic_string"* %1, i64 0, i32 0, i32 0, i32 0, i32 0, i32 0, i32 0
  %8 = load i8*, i8** %7, align 8
  %9 = bitcast %"class.std::__1::basic_string"* %1 to i8*
  %10 = select i1 %6, i8* %8, i8* %9
  %11 = getelementptr inbounds %"class.std::__1::basic_string", %"class.std::__1::basic_string"* %1, i64 0, i32 0, i32 0, i32 0, i32 0, i32 0, i32 1
  %12 = load i64, i64* %11, align 8
  %13 = zext i8 %5 to i64
  %14 = select i1 %6, i64 %12, i64 %13
  %15 = bitcast %"class.std::__1::basic_string"* %0 to %"struct.std::__1::basic_string<char, std::__1::char_traits<char>, std::__1::allocator<char> >::__short"*
  %16 = getelementptr inbounds %"struct.std::__1::basic_string<char, std::__1::char_traits<char>, std::__1::allocator<char> >::__short", %"struct.std::__1::basic_string<char, std::__1::char_traits<char>, std::__1::allocator<char> >::__short"* %15, i64 0, i32 1, i32 0
  %17 = load i8, i8* %16, align 1
  %18 = icmp slt i8 %17, 0
  %19 = getelementptr inbounds %"class.std::__1::basic_string", %"class.std::__1::basic_string"* %0, i64 0, i32 0, i32 0, i32 0, i32 0, i32 0, i32 0
  %20 = load i8*, i8** %19, align 8
  %21 = bitcast %"class.std::__1::basic_string"* %0 to i8*
  %22 = select i1 %18, i8* %20, i8* %21
  %23 = getelementptr inbounds %"class.std::__1::basic_string", %"class.std::__1::basic_string"* %0, i64 0, i32 0, i32 0, i32 0, i32 0, i32 0, i32 1
  %24 = load i64, i64* %23, align 8
  %25 = zext i8 %17 to i64
  %26 = select i1 %18, i64 %24, i64 %25
  %27 = tail call zeroext i1 @_ZN4base10StartsWithENS_16BasicStringPieceIcNSt3__111char_traitsIcEEEES4_NS_11CompareCaseE(i8* %10, i64 %14, i8* %22, i64 %26, i32 0) #16
  ret i1 %27
}

; Function Attrs: nounwind ssp uwtable
define hidden void @_ZN18optimization_guide22OptimizationGuideStore23GetMetadataTypeEntryKeyENS0_12MetadataTypeE(%"class.std::__1::basic_string"* noalias nocapture sret, i32) local_unnamed_addr #0 align 2 {
  %3 = alloca %"class.std::__1::basic_string", align 8
  %4 = alloca %"class.std::__1::basic_string", align 8
  %5 = alloca %"class.std::__1::basic_string", align 8
  %6 = bitcast %"class.std::__1::basic_string"* %4 to i8*
  call void @llvm.lifetime.start.p0i8(i64 24, i8* nonnull %6) #16
  %7 = bitcast %"class.std::__1::basic_string"* %3 to i8*
  call void @llvm.lifetime.start.p0i8(i64 24, i8* nonnull %7) #16, !noalias !90
  call void @_ZN4base14NumberToStringEi(%"class.std::__1::basic_string"* nonnull sret %3, i32 1) #16, !noalias !90
  call void @_ZNSt3__112basic_stringIcNS_11char_traitsIcEENS_9allocatorIcEEE9push_backEc(%"class.std::__1::basic_string"* nonnull %3, i8 signext 95) #16, !noalias !93
  call void @llvm.memcpy.p0i8.p0i8.i64(i8* nonnull align 8 %6, i8* nonnull align 8 %7, i64 24, i1 false) #16
  call void @llvm.lifetime.end.p0i8(i64 24, i8* nonnull %7) #16, !noalias !90
  %8 = bitcast %"class.std::__1::basic_string"* %5 to i8*
  call void @llvm.lifetime.start.p0i8(i64 24, i8* nonnull %8) #16
  call void @_ZN4base14NumberToStringEi(%"class.std::__1::basic_string"* nonnull sret %5, i32 %1) #16
  %9 = bitcast %"class.std::__1::basic_string"* %5 to %"struct.std::__1::basic_string<char, std::__1::char_traits<char>, std::__1::allocator<char> >::__short"*
  %10 = getelementptr inbounds %"struct.std::__1::basic_string<char, std::__1::char_traits<char>, std::__1::allocator<char> >::__short", %"struct.std::__1::basic_string<char, std::__1::char_traits<char>, std::__1::allocator<char> >::__short"* %9, i64 0, i32 1, i32 0
  %11 = load i8, i8* %10, align 1, !noalias !96
  %12 = icmp slt i8 %11, 0
  %13 = getelementptr inbounds %"class.std::__1::basic_string", %"class.std::__1::basic_string"* %5, i64 0, i32 0, i32 0, i32 0, i32 0, i32 0, i32 0
  %14 = load i8*, i8** %13, align 8, !noalias !96
  %15 = getelementptr inbounds %"class.std::__1::basic_string", %"class.std::__1::basic_string"* %5, i64 0, i32 0, i32 0, i32 0, i32 0, i32 0, i32 1
  %16 = load i64, i64* %15, align 8, !noalias !96
  %17 = zext i8 %11 to i64
  %18 = select i1 %12, i8* %14, i8* %8
  %19 = select i1 %12, i64 %16, i64 %17
  %20 = call dereferenceable(24) %"class.std::__1::basic_string"* @_ZNSt3__112basic_stringIcNS_11char_traitsIcEENS_9allocatorIcEEE6appendEPKcm(%"class.std::__1::basic_string"* nonnull %4, i8* %18, i64 %19) #16, !noalias !96
  %21 = bitcast %"class.std::__1::basic_string"* %0 to i8*
  %22 = bitcast %"class.std::__1::basic_string"* %20 to i8*
  call void @llvm.memcpy.p0i8.p0i8.i64(i8* align 8 %21, i8* align 8 %22, i64 24, i1 false) #16
  call void @llvm.memset.p0i8.i64(i8* align 8 %22, i8 0, i64 24, i1 false) #16, !noalias !96
  %23 = load i8, i8* %10, align 1
  %24 = icmp slt i8 %23, 0
  br i1 %24, label %25, label %27

25:                                               ; preds = %2
  %26 = load i8*, i8** %13, align 8
  call void @_ZdlPv(i8* %26) #17
  br label %27

27:                                               ; preds = %2, %25
  call void @llvm.lifetime.end.p0i8(i64 24, i8* nonnull %8) #16
  %28 = bitcast %"class.std::__1::basic_string"* %4 to %"struct.std::__1::basic_string<char, std::__1::char_traits<char>, std::__1::allocator<char> >::__short"*
  %29 = getelementptr inbounds %"struct.std::__1::basic_string<char, std::__1::char_traits<char>, std::__1::allocator<char> >::__short", %"struct.std::__1::basic_string<char, std::__1::char_traits<char>, std::__1::allocator<char> >::__short"* %28, i64 0, i32 1, i32 0
  %30 = load i8, i8* %29, align 1
  %31 = icmp slt i8 %30, 0
  br i1 %31, label %32, label %35

32:                                               ; preds = %27
  %33 = getelementptr inbounds %"class.std::__1::basic_string", %"class.std::__1::basic_string"* %4, i64 0, i32 0, i32 0, i32 0, i32 0, i32 0, i32 0
  %34 = load i8*, i8** %33, align 8
  call void @_ZdlPv(i8* %34) #17
  br label %35

35:                                               ; preds = %27, %32
  call void @llvm.lifetime.end.p0i8(i64 24, i8* nonnull %6) #16
  ret void
}

; Function Attrs: nounwind ssp uwtable
define hidden void @_ZN18optimization_guide22OptimizationGuideStore24PurgeExpiredFetchedHintsEv(%"class.optimization_guide::OptimizationGuideStore"*) local_unnamed_addr #0 align 2 {
  %2 = alloca %"class.base::internal::WeakReference", align 8
  %3 = alloca %"class.std::__1::basic_string", align 8
  %4 = alloca %"class.base::RepeatingCallback.121", align 8
  %5 = alloca [15 x i8], align 8
  %6 = alloca %"class.base::OnceCallback.123", align 8
  %7 = alloca %"class.base::WeakPtr", align 8
  %8 = getelementptr inbounds %"class.optimization_guide::OptimizationGuideStore", %"class.optimization_guide::OptimizationGuideStore"* %0, i64 0, i32 2
  %9 = load i32, i32* %8, align 8
  %10 = icmp eq i32 %9, 2
  br i1 %10, label %11, label %56

11:                                               ; preds = %1
  %12 = getelementptr inbounds %"class.optimization_guide::OptimizationGuideStore", %"class.optimization_guide::OptimizationGuideStore"* %0, i64 0, i32 1, i32 0, i32 0, i32 0
  %13 = load %"class.leveldb_proto::ProtoDatabase"*, %"class.leveldb_proto::ProtoDatabase"** %12, align 8
  %14 = bitcast %"class.base::RepeatingCallback.121"* %4 to i8*
  call void @llvm.lifetime.start.p0i8(i64 8, i8* nonnull %14) #16
  %15 = getelementptr inbounds [15 x i8], [15 x i8]* %5, i64 0, i64 0
  call void @llvm.lifetime.start.p0i8(i64 15, i8* nonnull %15)
  %16 = bitcast %"class.std::__1::basic_string"* %3 to i8*
  call void @llvm.lifetime.start.p0i8(i64 24, i8* nonnull %16) #16, !noalias !99
  call void @_ZN4base14NumberToStringEi(%"class.std::__1::basic_string"* nonnull sret %3, i32 3) #16, !noalias !99
  call void @_ZNSt3__112basic_stringIcNS_11char_traitsIcEENS_9allocatorIcEEE9push_backEc(%"class.std::__1::basic_string"* nonnull %3, i8 signext 95) #16, !noalias !102
  %17 = bitcast %"class.std::__1::basic_string"* %3 to i64*
  %18 = load i64, i64* %17, align 8
  %19 = getelementptr inbounds %"class.std::__1::basic_string", %"class.std::__1::basic_string"* %3, i64 0, i32 0, i32 0, i32 0, i32 0, i32 0, i32 1
  %20 = bitcast i64* %19 to i8*
  call void @llvm.memcpy.p0i8.p0i8.i64(i8* nonnull align 8 %15, i8* align 8 %20, i64 15, i1 false)
  %21 = getelementptr inbounds i8, i8* %16, i64 23
  %22 = load i8, i8* %21, align 1
  call void @llvm.lifetime.end.p0i8(i64 24, i8* nonnull %16) #16, !noalias !99
  %23 = call i8* @_Znwm(i64 64) #17, !noalias !105
  %24 = bitcast i8* %23 to %"class.base::internal::BindStateBase"*
  call void @_ZN4base8internal13BindStateBaseC2EPFvvEPFvPKS1_E(%"class.base::internal::BindStateBase"* nonnull %24, void ()* bitcast (i1 (%"class.base::internal::BindStateBase"*, %"class.std::__1::basic_string"*)* @_ZN4base8internal7InvokerINS0_9BindStateIPFbRKNSt3__112basic_stringIcNS3_11char_traitsIcEENS3_9allocatorIcEEEESB_EJS9_EEEFbSB_EE3RunEPNS0_13BindStateBaseESB_ to void ()*), void (%"class.base::internal::BindStateBase"*)* nonnull @_ZN4base8internal9BindStateIPFbRKNSt3__112basic_stringIcNS2_11char_traitsIcEENS2_9allocatorIcEEEESA_EJS8_EE7DestroyEPKNS0_13BindStateBaseE) #16, !noalias !105
  %25 = getelementptr inbounds i8, i8* %23, i64 32
  %26 = bitcast i8* %25 to i64*
  store i64 ptrtoint (i1 (%"class.std::__1::basic_string"*, %"class.std::__1::basic_string"*)* @_ZN18optimization_guide12_GLOBAL__N_120DatabasePrefixFilterERKNSt3__112basic_stringIcNS1_11char_traitsIcEENS1_9allocatorIcEEEES9_ to i64), i64* %26, align 8, !noalias !105
  %27 = getelementptr inbounds i8, i8* %23, i64 40
  %28 = bitcast i8* %27 to i64*
  store i64 %18, i64* %28, align 8, !noalias !105
  %29 = getelementptr inbounds i8, i8* %23, i64 48
  call void @llvm.memcpy.p0i8.p0i8.i64(i8* align 8 %29, i8* nonnull align 8 %15, i64 15, i1 false), !noalias !105
  %30 = getelementptr inbounds i8, i8* %23, i64 63
  store i8 %22, i8* %30, align 1, !noalias !105
  %31 = bitcast %"class.base::RepeatingCallback.121"* %4 to i8**
  store i8* %23, i8** %31, align 8, !alias.scope !105
  %32 = bitcast %"class.base::WeakPtr"* %7 to i8*
  call void @llvm.lifetime.start.p0i8(i64 16, i8* nonnull %32) #16
  %33 = bitcast %"class.base::internal::WeakReference"* %2 to i8*
  call void @llvm.lifetime.start.p0i8(i64 8, i8* nonnull %33) #16, !noalias !110
  %34 = getelementptr inbounds %"class.optimization_guide::OptimizationGuideStore", %"class.optimization_guide::OptimizationGuideStore"* %0, i64 0, i32 9, i32 0, i32 0
  call void @_ZNK4base8internal18WeakReferenceOwner6GetRefEv(%"class.base::internal::WeakReference"* nonnull sret %2, %"class.base::internal::WeakReferenceOwner"* %34) #16, !noalias !110
  %35 = getelementptr inbounds %"class.optimization_guide::OptimizationGuideStore", %"class.optimization_guide::OptimizationGuideStore"* %0, i64 0, i32 9, i32 0, i32 1
  %36 = load i64, i64* %35, align 8, !noalias !110
  %37 = getelementptr inbounds %"class.base::WeakPtr", %"class.base::WeakPtr"* %7, i64 0, i32 0
  call void @_ZN4base8internal11WeakPtrBaseC2ERKNS0_13WeakReferenceEm(%"class.base::internal::WeakPtrBase"* nonnull %37, %"class.base::internal::WeakReference"* nonnull dereferenceable(8) %2, i64 %36) #16
  call void @_ZN4base8internal13WeakReferenceD1Ev(%"class.base::internal::WeakReference"* nonnull %2) #16
  call void @llvm.lifetime.end.p0i8(i64 8, i8* nonnull %33) #16, !noalias !110
  %38 = call i8* @_Znwm(i64 64) #17, !noalias !113
  %39 = bitcast i8* %38 to %"class.base::internal::BindStateBase"*
  call void @_ZN4base8internal13BindStateBaseC2EPFvvEPFvPKS1_EPFbS5_NS1_21CancellationQueryModeEE(%"class.base::internal::BindStateBase"* nonnull %39, void ()* bitcast (void (%"class.base::internal::BindStateBase"*, i1, %"class.std::__1::unique_ptr.124"*)* @_ZN4base8internal7InvokerINS0_9BindStateIMN18optimization_guide22OptimizationGuideStoreEFvbNSt3__110unique_ptrINS5_3mapINS5_12basic_stringIcNS5_11char_traitsIcEENS5_9allocatorIcEEEENS3_5proto10StoreEntryENS5_4lessISD_EENSB_INS5_4pairIKSD_SF_EEEEEENS5_14default_deleteISM_EEEEEJNS_7WeakPtrIS4_EEEEEFvbSP_EE7RunOnceEPNS0_13BindStateBaseEbOSP_ to void ()*), void (%"class.base::internal::BindStateBase"*)* nonnull @_ZN4base8internal9BindStateIMN18optimization_guide22OptimizationGuideStoreEFvbNSt3__110unique_ptrINS4_3mapINS4_12basic_stringIcNS4_11char_traitsIcEENS4_9allocatorIcEEEENS2_5proto10StoreEntryENS4_4lessISC_EENSA_INS4_4pairIKSC_SE_EEEEEENS4_14default_deleteISL_EEEEEJNS_7WeakPtrIS3_EEEE7DestroyEPKNS0_13BindStateBaseE, i1 (%"class.base::internal::BindStateBase"*, i32)* nonnull @_ZN4base8internal23QueryCancellationTraitsINS0_9BindStateIMN18optimization_guide22OptimizationGuideStoreEFvbNSt3__110unique_ptrINS5_3mapINS5_12basic_stringIcNS5_11char_traitsIcEENS5_9allocatorIcEEEENS3_5proto10StoreEntryENS5_4lessISD_EENSB_INS5_4pairIKSD_SF_EEEEEENS5_14default_deleteISM_EEEEEJNS_7WeakPtrIS4_EEEEEEEbPKNS0_13BindStateBaseENSV_21CancellationQueryModeE) #16, !noalias !113
  %40 = getelementptr inbounds i8, i8* %38, i64 32
  %41 = bitcast i8* %40 to <2 x i64>*
  store <2 x i64> <i64 ptrtoint (void (%"class.optimization_guide::OptimizationGuideStore"*, i1, %"class.std::__1::map"*)* @_ZN18optimization_guide22OptimizationGuideStore27OnLoadEntriesToPurgeExpiredEbNSt3__110unique_ptrINS1_3mapINS1_12basic_stringIcNS1_11char_traitsIcEENS1_9allocatorIcEEEENS_5proto10StoreEntryENS1_4lessIS9_EENS7_INS1_4pairIKS9_SB_EEEEEENS1_14default_deleteISI_EEEE to i64), i64 0>, <2 x i64>* %41, align 8, !noalias !113
  %42 = getelementptr inbounds i8, i8* %38, i64 48
  %43 = bitcast i8* %42 to %"class.base::internal::WeakReference"*
  %44 = getelementptr inbounds %"class.base::WeakPtr", %"class.base::WeakPtr"* %7, i64 0, i32 0, i32 0
  call void @_ZN4base8internal13WeakReferenceC1EOS1_(%"class.base::internal::WeakReference"* %43, %"class.base::internal::WeakReference"* nonnull dereferenceable(8) %44) #16, !noalias !113
  %45 = getelementptr inbounds i8, i8* %38, i64 56
  %46 = bitcast i8* %45 to i64*
  %47 = getelementptr inbounds %"class.base::WeakPtr", %"class.base::WeakPtr"* %7, i64 0, i32 0, i32 1
  %48 = load i64, i64* %47, align 8, !noalias !113
  store i64 %48, i64* %46, align 8, !noalias !113
  %49 = bitcast %"class.base::OnceCallback.123"* %6 to i8**
  store i8* %38, i8** %49, align 8, !alias.scope !113
  %50 = bitcast %"class.leveldb_proto::ProtoDatabase"* %13 to void (%"class.leveldb_proto::ProtoDatabase"*, %"class.base::RepeatingCallback.121"*, %"class.base::OnceCallback.123"*)***
  %51 = load void (%"class.leveldb_proto::ProtoDatabase"*, %"class.base::RepeatingCallback.121"*, %"class.base::OnceCallback.123"*)**, void (%"class.leveldb_proto::ProtoDatabase"*, %"class.base::RepeatingCallback.121"*, %"class.base::OnceCallback.123"*)*** %50, align 8
  %52 = getelementptr inbounds void (%"class.leveldb_proto::ProtoDatabase"*, %"class.base::RepeatingCallback.121"*, %"class.base::OnceCallback.123"*)*, void (%"class.leveldb_proto::ProtoDatabase"*, %"class.base::RepeatingCallback.121"*, %"class.base::OnceCallback.123"*)** %51, i64 10
  %53 = load void (%"class.leveldb_proto::ProtoDatabase"*, %"class.base::RepeatingCallback.121"*, %"class.base::OnceCallback.123"*)*, void (%"class.leveldb_proto::ProtoDatabase"*, %"class.base::RepeatingCallback.121"*, %"class.base::OnceCallback.123"*)** %52, align 8
  call void %53(%"class.leveldb_proto::ProtoDatabase"* %13, %"class.base::RepeatingCallback.121"* nonnull dereferenceable(8) %4, %"class.base::OnceCallback.123"* nonnull %6) #16
  %54 = getelementptr inbounds %"class.base::OnceCallback.123", %"class.base::OnceCallback.123"* %6, i64 0, i32 0
  call void @_ZN4base8internal12CallbackBaseD2Ev(%"class.base::internal::CallbackBase"* nonnull %54) #16
  call void @_ZN4base8internal11WeakPtrBaseD2Ev(%"class.base::internal::WeakPtrBase"* nonnull %37) #16
  call void @llvm.lifetime.end.p0i8(i64 16, i8* nonnull %32) #16
  %55 = getelementptr inbounds %"class.base::RepeatingCallback.121", %"class.base::RepeatingCallback.121"* %4, i64 0, i32 0, i32 0
  call void @_ZN4base8internal12CallbackBaseD2Ev(%"class.base::internal::CallbackBase"* nonnull %55) #16
  call void @llvm.lifetime.end.p0i8(i64 15, i8* nonnull %15)
  call void @llvm.lifetime.end.p0i8(i64 8, i8* nonnull %14) #16
  br label %56

56:                                               ; preds = %1, %11
  ret void
}

; Function Attrs: nounwind ssp uwtable
define hidden void @_ZN18optimization_guide22OptimizationGuideStore28GetFetchedHintEntryKeyPrefixEv(%"class.std::__1::basic_string"* noalias nocapture sret) local_unnamed_addr #0 align 2 {
  %2 = alloca %"class.std::__1::basic_string", align 8
  %3 = bitcast %"class.std::__1::basic_string"* %2 to i8*
  call void @llvm.lifetime.start.p0i8(i64 24, i8* nonnull %3) #16
  call void @_ZN4base14NumberToStringEi(%"class.std::__1::basic_string"* nonnull sret %2, i32 3) #16
  call void @_ZNSt3__112basic_stringIcNS_11char_traitsIcEENS_9allocatorIcEEE9push_backEc(%"class.std::__1::basic_string"* nonnull %2, i8 signext 95) #16, !noalias !118
  %4 = bitcast %"class.std::__1::basic_string"* %0 to i8*
  call void @llvm.memcpy.p0i8.p0i8.i64(i8* align 8 %4, i8* nonnull align 8 %3, i64 24, i1 false) #16
  call void @llvm.lifetime.end.p0i8(i64 24, i8* nonnull %3) #16
  ret void
}

; Function Attrs: nounwind ssp uwtable
define hidden void @_ZN18optimization_guide22OptimizationGuideStore27OnLoadEntriesToPurgeExpiredEbNSt3__110unique_ptrINS1_3mapINS1_12basic_stringIcNS1_11char_traitsIcEENS1_9allocatorIcEEEENS_5proto10StoreEntryENS1_4lessIS9_EENS7_INS1_4pairIKS9_SB_EEEEEENS1_14default_deleteISI_EEEE(%"class.optimization_guide::OptimizationGuideStore"*, i1 zeroext, %"class.std::__1::map"*) #0 align 2 {
  %4 = alloca %"class.base::internal::WeakReference", align 8
  %5 = alloca %"class.base::internal::flat_tree", align 16
  %6 = alloca %"class.base::Time", align 8
  %7 = alloca %"class.base::RepeatingCallback.121", align 8
  %8 = alloca %"class.base::OnceCallback.122", align 8
  %9 = alloca %"class.base::WeakPtr", align 8
  %10 = alloca %"class.base::OnceCallback", align 8
  br i1 %1, label %11, label %182

11:                                               ; preds = %3
  %12 = bitcast %"class.base::internal::flat_tree"* %5 to i8*
  call void @llvm.lifetime.start.p0i8(i64 24, i8* nonnull %12) #16
  %13 = getelementptr inbounds %"class.base::internal::flat_tree", %"class.base::internal::flat_tree"* %5, i64 0, i32 0, i32 0, i32 0
  %14 = getelementptr inbounds %"class.base::internal::flat_tree", %"class.base::internal::flat_tree"* %5, i64 0, i32 0, i32 0, i32 1
  %15 = getelementptr inbounds %"class.base::internal::flat_tree", %"class.base::internal::flat_tree"* %5, i64 0, i32 0, i32 0, i32 2, i32 0, i32 0
  call void @llvm.memset.p0i8.i64(i8* nonnull align 16 %12, i8 0, i64 24, i1 false) #16
  %16 = bitcast %"class.base::Time"* %6 to i8*
  call void @llvm.lifetime.start.p0i8(i64 8, i8* nonnull %16) #16
  %17 = tail call i64 @_ZN4base4Time3NowEv() #16
  %18 = getelementptr inbounds %"class.base::Time", %"class.base::Time"* %6, i64 0, i32 0, i32 0
  store i64 %17, i64* %18, align 8
  %19 = call i64 @_ZNK4base4Time24ToDeltaSinceWindowsEpochEv(%"class.base::Time"* nonnull %6) #16
  %20 = add i64 %19, -9223372036854775807
  %21 = icmp ult i64 %20, 2
  %22 = sdiv i64 %19, 1000000
  %23 = select i1 %21, i64 %19, i64 %22
  call void @llvm.lifetime.end.p0i8(i64 8, i8* nonnull %16) #16
  %24 = getelementptr inbounds %"class.std::__1::map", %"class.std::__1::map"* %2, i64 0, i32 0, i32 0
  %25 = load %"class.std::__1::__tree_end_node"*, %"class.std::__1::__tree_end_node"** %24, align 8
  %26 = getelementptr inbounds %"class.std::__1::map", %"class.std::__1::map"* %2, i64 0, i32 0, i32 1, i32 0, i32 0
  %27 = icmp eq %"class.std::__1::__tree_end_node"* %25, %26
  br i1 %27, label %28, label %135

28:                                               ; preds = %179, %11
  %29 = getelementptr inbounds %"class.optimization_guide::OptimizationGuideStore", %"class.optimization_guide::OptimizationGuideStore"* %0, i64 0, i32 7, i32 0, i32 0, i32 0
  %30 = load %"class.base::internal::flat_tree"*, %"class.base::internal::flat_tree"** %29, align 8
  store %"class.base::internal::flat_tree"* null, %"class.base::internal::flat_tree"** %29, align 8
  %31 = icmp eq %"class.base::internal::flat_tree"* %30, null
  br i1 %31, label %60, label %32

32:                                               ; preds = %28
  %33 = getelementptr inbounds %"class.base::internal::flat_tree", %"class.base::internal::flat_tree"* %30, i64 0, i32 0, i32 0, i32 0
  %34 = load %"class.std::__1::basic_string"*, %"class.std::__1::basic_string"** %33, align 8
  %35 = icmp eq %"class.std::__1::basic_string"* %34, null
  br i1 %35, label %58, label %36

36:                                               ; preds = %32
  %37 = bitcast %"class.std::__1::basic_string"* %34 to i8*
  %38 = getelementptr inbounds %"class.base::internal::flat_tree", %"class.base::internal::flat_tree"* %30, i64 0, i32 0, i32 0, i32 1
  %39 = load %"class.std::__1::basic_string"*, %"class.std::__1::basic_string"** %38, align 8
  %40 = icmp eq %"class.std::__1::basic_string"* %39, %34
  br i1 %40, label %56, label %41

41:                                               ; preds = %36, %51
  %42 = phi %"class.std::__1::basic_string"* [ %43, %51 ], [ %39, %36 ]
  %43 = getelementptr inbounds %"class.std::__1::basic_string", %"class.std::__1::basic_string"* %42, i64 -1
  %44 = bitcast %"class.std::__1::basic_string"* %43 to %"struct.std::__1::basic_string<char, std::__1::char_traits<char>, std::__1::allocator<char> >::__short"*
  %45 = getelementptr inbounds %"struct.std::__1::basic_string<char, std::__1::char_traits<char>, std::__1::allocator<char> >::__short", %"struct.std::__1::basic_string<char, std::__1::char_traits<char>, std::__1::allocator<char> >::__short"* %44, i64 0, i32 1, i32 0
  %46 = load i8, i8* %45, align 1
  %47 = icmp slt i8 %46, 0
  br i1 %47, label %48, label %51

48:                                               ; preds = %41
  %49 = getelementptr inbounds %"class.std::__1::basic_string", %"class.std::__1::basic_string"* %43, i64 0, i32 0, i32 0, i32 0, i32 0, i32 0, i32 0
  %50 = load i8*, i8** %49, align 8
  call void @_ZdlPv(i8* %50) #17
  br label %51

51:                                               ; preds = %48, %41
  %52 = icmp eq %"class.std::__1::basic_string"* %43, %34
  br i1 %52, label %53, label %41

53:                                               ; preds = %51
  %54 = bitcast %"class.base::internal::flat_tree"* %30 to i8**
  %55 = load i8*, i8** %54, align 8
  br label %56

56:                                               ; preds = %53, %36
  %57 = phi i8* [ %55, %53 ], [ %37, %36 ]
  store %"class.std::__1::basic_string"* %34, %"class.std::__1::basic_string"** %38, align 8
  call void @_ZdlPv(i8* %57) #17
  br label %58

58:                                               ; preds = %56, %32
  %59 = bitcast %"class.base::internal::flat_tree"* %30 to i8*
  call void @_ZdlPv(i8* %59) #17
  br label %60

60:                                               ; preds = %28, %58
  %61 = getelementptr inbounds %"class.optimization_guide::OptimizationGuideStore", %"class.optimization_guide::OptimizationGuideStore"* %0, i64 0, i32 1, i32 0, i32 0, i32 0
  %62 = load %"class.leveldb_proto::ProtoDatabase"*, %"class.leveldb_proto::ProtoDatabase"** %61, align 8
  %63 = call i8* @_Znwm(i64 24) #17
  %64 = bitcast i8* %63 to %"class.std::__1::vector.94"*
  call void @llvm.memset.p0i8.i64(i8* nonnull align 8 %63, i8 0, i64 24, i1 false) #16
  %65 = bitcast %"class.base::RepeatingCallback.121"* %7 to i8*
  call void @llvm.lifetime.start.p0i8(i64 8, i8* nonnull %65) #16
  %66 = call i8* @_Znwm(i64 64) #17, !noalias !121
  %67 = bitcast i8* %66 to %"class.base::internal::BindStateBase"*
  call void @_ZN4base8internal13BindStateBaseC2EPFvvEPFvPKS1_E(%"class.base::internal::BindStateBase"* nonnull %67, void ()* bitcast (i1 (%"class.base::internal::BindStateBase"*, %"class.std::__1::basic_string"*)* @_ZN4base8internal7InvokerINS0_9BindStateIPFbRKNS0_9flat_treeINSt3__112basic_stringIcNS4_11char_traitsIcEENS4_9allocatorIcEEEENS_8identityENS4_4lessIvEENS4_6vectorISA_NS8_ISA_EEEEEERKSA_EJSH_EEEFbSL_EE3RunEPNS0_13BindStateBaseESL_ to void ()*), void (%"class.base::internal::BindStateBase"*)* nonnull @_ZN4base8internal9BindStateIPFbRKNS0_9flat_treeINSt3__112basic_stringIcNS3_11char_traitsIcEENS3_9allocatorIcEEEENS_8identityENS3_4lessIvEENS3_6vectorIS9_NS7_IS9_EEEEEERKS9_EJSG_EE7DestroyEPKNS0_13BindStateBaseE) #16, !noalias !121
  %68 = getelementptr inbounds i8, i8* %66, i64 32
  %69 = bitcast i8* %68 to i64*
  store i64 ptrtoint (i1 (%"class.base::internal::flat_tree"*, %"class.std::__1::basic_string"*)* @_ZN18optimization_guide12_GLOBAL__N_112KeySetFilterERKN4base8internal9flat_treeINSt3__112basic_stringIcNS4_11char_traitsIcEENS4_9allocatorIcEEEENS1_8identityENS4_4lessIvEENS4_6vectorISA_NS8_ISA_EEEEEERKSA_ to i64), i64* %69, align 8, !noalias !121
  %70 = getelementptr inbounds i8, i8* %66, i64 40
  %71 = bitcast %"class.base::internal::flat_tree"* %5 to <2 x i64>*
  %72 = load <2 x i64>, <2 x i64>* %71, align 16, !noalias !121
  %73 = bitcast i8* %70 to <2 x i64>*
  store <2 x i64> %72, <2 x i64>* %73, align 8, !noalias !121
  %74 = bitcast %"class.std::__1::basic_string"** %15 to i64*
  %75 = load i64, i64* %74, align 16, !noalias !121
  %76 = getelementptr inbounds i8, i8* %66, i64 56
  %77 = bitcast i8* %76 to i64*
  store i64 %75, i64* %77, align 8, !noalias !121
