; ModuleID = '../../services/network/origin_policy/origin_policy_fetcher.cc'
source_filename = "../../services/network/origin_policy/origin_policy_fetcher.cc"
target datalayout = "e-m:e-i64:64-f80:128-n8:16:32:64-S128"
target triple = "x86_64-unknown-linux-gnu"

module asm ".symver exp, exp@GLIBC_2.2.5"
module asm ".symver exp2, exp2@GLIBC_2.2.5"
module asm ".symver exp2f, exp2f@GLIBC_2.2.5"
module asm ".symver expf, expf@GLIBC_2.2.5"
module asm ".symver lgamma, lgamma@GLIBC_2.2.5"
module asm ".symver lgammaf, lgammaf@GLIBC_2.2.5"
module asm ".symver lgammal, lgammal@GLIBC_2.2.5"
module asm ".symver log, log@GLIBC_2.2.5"
module asm ".symver log2, log2@GLIBC_2.2.5"
module asm ".symver log2f, log2f@GLIBC_2.2.5"
module asm ".symver logf, logf@GLIBC_2.2.5"
module asm ".symver pow, pow@GLIBC_2.2.5"
module asm ".symver powf, powf@GLIBC_2.2.5"

%"class.network::OriginPolicyFetcher" = type { %"class.network::OriginPolicyManager"*, %"class.std::__1::unique_ptr.196", %class.GURL, %"class.net::IsolationInfo", %"class.base::OnceCallback.238" }
%"class.std::__1::unique_ptr.196" = type { %"class.std::__1::__compressed_pair.197" }
%"class.std::__1::__compressed_pair.197" = type { %"struct.std::__1::__compressed_pair_elem.198" }
%"struct.std::__1::__compressed_pair_elem.198" = type { %"class.network::SimpleURLLoader"* }
%"class.network::SimpleURLLoader" = type { i32 (...)** }
%class.GURL = type { %"class.std::__1::basic_string", i8, %"struct.url::Parsed", %"class.std::__1::unique_ptr.202" }
%"class.std::__1::basic_string" = type { %"class.std::__1::__compressed_pair.15" }
%"class.std::__1::__compressed_pair.15" = type { %"struct.std::__1::__compressed_pair_elem.16" }
%"struct.std::__1::__compressed_pair_elem.16" = type { %"struct.std::__1::basic_string<char, std::__1::char_traits<char>, std::__1::allocator<char> >::__rep" }
%"struct.std::__1::basic_string<char, std::__1::char_traits<char>, std::__1::allocator<char> >::__rep" = type { %union.anon }
%union.anon = type { %"struct.std::__1::basic_string<char, std::__1::char_traits<char>, std::__1::allocator<char> >::__long" }
%"struct.std::__1::basic_string<char, std::__1::char_traits<char>, std::__1::allocator<char> >::__long" = type { i8*, i64, i64 }
%"struct.url::Parsed" = type { %"struct.url::Component", %"struct.url::Component", %"struct.url::Component", %"struct.url::Component", %"struct.url::Component", %"struct.url::Component", %"struct.url::Component", %"struct.url::Component", i8, %"struct.url::Parsed"* }
%"struct.url::Component" = type { i32, i32 }
%"class.std::__1::unique_ptr.202" = type { %"class.std::__1::__compressed_pair.203" }
%"class.std::__1::__compressed_pair.203" = type { %"struct.std::__1::__compressed_pair_elem.204" }
%"struct.std::__1::__compressed_pair_elem.204" = type { %class.GURL* }
%"class.net::IsolationInfo" = type { i32, %"class.absl::optional.208", %"class.absl::optional.208", %"class.net::NetworkIsolationKey", %"class.net::SiteForCookies", i8, %"class.absl::optional.223" }
%"class.absl::optional.208" = type { %"class.absl::optional_internal::optional_data.209" }
%"class.absl::optional_internal::optional_data.209" = type { %"class.absl::optional_internal::optional_data_base.210" }
%"class.absl::optional_internal::optional_data_base.210" = type { %"class.absl::optional_internal::optional_data_dtor_base.211" }
%"class.absl::optional_internal::optional_data_dtor_base.211" = type { i8, %union.anon.212 }
%union.anon.212 = type { %"class.url::Origin" }
%"class.url::Origin" = type { %"class.url::SchemeHostPort", %"class.absl::optional.213" }
%"class.url::SchemeHostPort" = type <{ %"class.std::__1::basic_string", %"class.std::__1::basic_string", i16, [6 x i8] }>
%"class.absl::optional.213" = type { %"class.absl::optional_internal::optional_data.214" }
%"class.absl::optional_internal::optional_data.214" = type { %"class.absl::optional_internal::optional_data_base.215" }
%"class.absl::optional_internal::optional_data_base.215" = type { %"class.absl::optional_internal::optional_data_dtor_base.216" }
%"class.absl::optional_internal::optional_data_dtor_base.216" = type { i8, %union.anon.217 }
%union.anon.217 = type { %"class.url::Origin::Nonce" }
%"class.url::Origin::Nonce" = type { %"class.base::UnguessableToken" }
%"class.base::UnguessableToken" = type { %"class.base::Token" }
%"class.base::Token" = type { i64, i64 }
%"class.net::NetworkIsolationKey" = type { i8, %"class.absl::optional.218", %"class.absl::optional.218" }
%"class.absl::optional.218" = type { %"class.absl::optional_internal::optional_data.219" }
%"class.absl::optional_internal::optional_data.219" = type { %"class.absl::optional_internal::optional_data_base.220" }
%"class.absl::optional_internal::optional_data_base.220" = type { %"class.absl::optional_internal::optional_data_dtor_base.221" }
%"class.absl::optional_internal::optional_data_dtor_base.221" = type { i8, %union.anon.222 }
%union.anon.222 = type { %"class.net::SchemefulSite" }
%"class.net::SchemefulSite" = type { %"class.url::Origin" }
%"class.net::SiteForCookies" = type <{ %"class.net::SchemefulSite", i8, [7 x i8] }>
%"class.absl::optional.223" = type { %"class.absl::optional_internal::optional_data.224" }
%"class.absl::optional_internal::optional_data.224" = type { %"class.absl::optional_internal::optional_data_base.225" }
%"class.absl::optional_internal::optional_data_base.225" = type { %"class.absl::optional_internal::optional_data_dtor_base.226" }
%"class.absl::optional_internal::optional_data_dtor_base.226" = type { i8, %union.anon.227 }
%union.anon.227 = type { %"class.std::__1::set.228" }
%"class.std::__1::set.228" = type { %"class.std::__1::__tree.229" }
%"class.std::__1::__tree.229" = type { %"class.std::__1::__tree_end_node"*, %"class.std::__1::__compressed_pair.230", %"class.std::__1::__compressed_pair.234" }
%"class.std::__1::__tree_end_node" = type { %"class.std::__1::__tree_node_base"* }
%"class.std::__1::__tree_node_base" = type <{ %"class.std::__1::__tree_end_node", %"class.std::__1::__tree_node_base"*, %"class.std::__1::__tree_end_node"*, i8, [7 x i8] }>
%"class.std::__1::__compressed_pair.230" = type { %"struct.std::__1::__compressed_pair_elem" }
%"struct.std::__1::__compressed_pair_elem" = type { %"class.std::__1::__tree_end_node" }
%"class.std::__1::__compressed_pair.234" = type { %"struct.std::__1::__compressed_pair_elem.2" }
%"struct.std::__1::__compressed_pair_elem.2" = type { i64 }
%"class.base::OnceCallback.238" = type { %"class.base::internal::CallbackBase" }
%"class.base::internal::CallbackBase" = type { %class.scoped_refptr.36 }
%class.scoped_refptr.36 = type { %"class.base::internal::BindStateBase"* }
%"class.base::internal::BindStateBase" = type { %"class.base::RefCountedThreadSafe.37", void ()*, void (%"class.base::internal::BindStateBase"*)*, i1 (%"class.base::internal::BindStateBase"*, i32)* }
%"class.base::RefCountedThreadSafe.37" = type { %"class.base::subtle::RefCountedThreadSafeBase" }
%"class.base::subtle::RefCountedThreadSafeBase" = type { %"class.base::AtomicRefCount" }
%"class.base::AtomicRefCount" = type { %"struct.std::__1::atomic" }
%"struct.std::__1::atomic" = type { %"struct.std::__1::__atomic_base" }
%"struct.std::__1::__atomic_base" = type { %"struct.std::__1::__atomic_base.12" }
%"struct.std::__1::__atomic_base.12" = type { %"struct.std::__1::__cxx_atomic_impl" }
%"struct.std::__1::__cxx_atomic_impl" = type { %"struct.std::__1::__cxx_atomic_base_impl" }
%"struct.std::__1::__cxx_atomic_base_impl" = type { i32 }
%"class.network::OriginPolicyManager" = type { %"class.network::mojom::OriginPolicyManager", %"class.network::NetworkContext"*, %"class.std::__1::set", %"class.std::__1::set.4", %"class.mojo::Remote", %"class.mojo::ReceiverSetBase" }
%"class.network::mojom::OriginPolicyManager" = type { i32 (...)** }
%"class.network::NetworkContext" = type opaque
%"class.std::__1::set" = type { %"class.std::__1::__tree" }
%"class.std::__1::__tree" = type { %"class.std::__1::__tree_end_node"*, %"class.std::__1::__compressed_pair", %"class.std::__1::__compressed_pair.1" }
%"class.std::__1::__compressed_pair" = type { %"struct.std::__1::__compressed_pair_elem" }
%"class.std::__1::__compressed_pair.1" = type { %"struct.std::__1::__compressed_pair_elem.2" }
%"class.std::__1::set.4" = type { %"class.std::__1::__tree.5" }
%"class.std::__1::__tree.5" = type { %"class.std::__1::__tree_end_node"*, %"class.std::__1::__compressed_pair.6", %"class.std::__1::__compressed_pair.10" }
%"class.std::__1::__compressed_pair.6" = type { %"struct.std::__1::__compressed_pair_elem" }
%"class.std::__1::__compressed_pair.10" = type { %"struct.std::__1::__compressed_pair_elem.2" }
%"class.mojo::Remote" = type { %"class.mojo::internal::InterfacePtrState" }
%"class.mojo::internal::InterfacePtrState" = type { %"class.mojo::internal::InterfacePtrStateBase.base", %"class.std::__1::unique_ptr.179" }
%"class.mojo::internal::InterfacePtrStateBase.base" = type <{ %class.scoped_refptr, %"class.std::__1::unique_ptr.129", %"class.mojo::ScopedHandleBase", [4 x i8], %class.scoped_refptr.13, i32 }>
%class.scoped_refptr = type { %"class.mojo::internal::MultiplexRouter"* }
%"class.mojo::internal::MultiplexRouter" = type <{ %"class.mojo::MessageReceiver", %"class.mojo::AssociatedGroupController.base", [4 x i8], %"class.mojo::PipeControlMessageHandlerDelegate", i32, i8, [3 x i8], %class.scoped_refptr.13, %"class.mojo::MessageHeaderValidator"*, %"class.mojo::MessageDispatcher", %"class.mojo::Connector", %"class.mojo::ScopedHandleBase", [4 x i8], %"class.absl::optional.92", %"class.absl::optional.97", %"class.absl::optional.53", %"class.mojo::PipeControlMessageHandler", %"class.mojo::PipeControlMessageProxy", %"class.base::small_map", i32, [4 x i8], %"class.base::circular_deque", %"class.std::__1::map.120", i8, [7 x i8], %class.scoped_refptr.13, i8, i8, i8, i8, i8, [3 x i8] }>
%"class.mojo::MessageReceiver" = type { i32 (...)** }
%"class.mojo::AssociatedGroupController.base" = type <{ i32 (...)**, %"class.base::RefCountedThreadSafe" }>
%"class.base::RefCountedThreadSafe" = type { %"class.base::subtle::RefCountedThreadSafeBase" }
%"class.mojo::PipeControlMessageHandlerDelegate" = type { i32 (...)** }
%"class.mojo::MessageHeaderValidator" = type { %"class.mojo::MessageReceiver", %"class.std::__1::basic_string" }
%"class.mojo::MessageDispatcher" = type { %"class.mojo::MessageReceiver", %"class.std::__1::unique_ptr", %"class.std::__1::unique_ptr.23", %"class.mojo::MessageReceiver"*, %"class.base::WeakPtrFactory" }
%"class.std::__1::unique_ptr" = type { %"class.std::__1::__compressed_pair.20" }
%"class.std::__1::__compressed_pair.20" = type { %"struct.std::__1::__compressed_pair_elem.21" }
%"struct.std::__1::__compressed_pair_elem.21" = type { %"class.mojo::MessageReceiver"* }
%"class.std::__1::unique_ptr.23" = type { %"class.std::__1::__compressed_pair.24" }
%"class.std::__1::__compressed_pair.24" = type { %"struct.std::__1::__compressed_pair_elem.25" }
%"struct.std::__1::__compressed_pair_elem.25" = type { %"class.mojo::MessageFilter"* }
%"class.mojo::MessageFilter" = type { i32 (...)** }
%"class.base::WeakPtrFactory" = type { %"class.base::internal::WeakPtrFactoryBase" }
%"class.base::internal::WeakPtrFactoryBase" = type { %"class.base::internal::WeakReferenceOwner", i64 }
%"class.base::internal::WeakReferenceOwner" = type { %class.scoped_refptr.29 }
%class.scoped_refptr.29 = type { %"class.base::internal::WeakReference::Flag"* }
%"class.base::internal::WeakReference::Flag" = type <{ %"class.base::RefCountedThreadSafe.30", %"class.base::AtomicFlag", [3 x i8] }>
%"class.base::RefCountedThreadSafe.30" = type { %"class.base::subtle::RefCountedThreadSafeBase" }
%"class.base::AtomicFlag" = type { %"struct.std::__1::atomic.31" }
%"struct.std::__1::atomic.31" = type { %"struct.std::__1::__atomic_base.32" }
%"struct.std::__1::__atomic_base.32" = type { %"struct.std::__1::__atomic_base.33" }
%"struct.std::__1::__atomic_base.33" = type { %"struct.std::__1::__cxx_atomic_impl.34" }
%"struct.std::__1::__cxx_atomic_impl.34" = type { %"struct.std::__1::__cxx_atomic_base_impl.35" }
%"struct.std::__1::__cxx_atomic_base_impl.35" = type { i8 }
%"class.mojo::Connector" = type { %"class.mojo::MessageReceiver", %"class.base::OnceCallback", %"class.mojo::ScopedHandleBase", %"class.mojo::MessageReceiver"*, %class.scoped_refptr.13, %"class.std::__1::unique_ptr.38", %"class.absl::optional", %"struct.std::__1::atomic.49", i8, i8, i8, i8, i32, i32, %"class.absl::optional.53", %"class.std::__1::unique_ptr.58", i8, i64, %class.scoped_refptr.88, %"class.base::Lock", i8, i8*, %"class.mojo::Connector::RunLoopNestingObserver"*, i8, i64, %"class.mojo::ConnectionGroup::Ref", %"class.base::WeakPtr", %"class.base::WeakPtrFactory.91" }
%"class.base::OnceCallback" = type { %"class.base::internal::CallbackBase" }
%"class.std::__1::unique_ptr.38" = type { %"class.std::__1::__compressed_pair.39" }
%"class.std::__1::__compressed_pair.39" = type { %"struct.std::__1::__compressed_pair_elem.40" }
%"struct.std::__1::__compressed_pair_elem.40" = type { %"class.mojo::SimpleWatcher"* }
%"class.mojo::SimpleWatcher" = type { i32, %class.scoped_refptr.13, i8, %"class.mojo::ScopedHandleBase.41", %class.scoped_refptr.42, %"class.mojo::Handle", i32, %"class.base::RepeatingCallback", i8*, %"class.base::WeakPtrFactory.43" }
%"class.mojo::ScopedHandleBase.41" = type { %"class.mojo::TrapHandle" }
%"class.mojo::TrapHandle" = type { %"class.mojo::Handle" }
%class.scoped_refptr.42 = type { %"class.mojo::SimpleWatcher::Context"* }
%"class.mojo::SimpleWatcher::Context" = type opaque
%"class.mojo::Handle" = type { i32 }
%"class.base::RepeatingCallback" = type { %"class.base::internal::CallbackBaseCopyable" }
%"class.base::internal::CallbackBaseCopyable" = type { %"class.base::internal::CallbackBase" }
%"class.base::WeakPtrFactory.43" = type { %"class.base::internal::WeakPtrFactoryBase" }
%"class.absl::optional" = type { %"class.absl::optional_internal::optional_data" }
%"class.absl::optional_internal::optional_data" = type { %"class.absl::optional_internal::optional_data_base" }
%"class.absl::optional_internal::optional_data_base" = type { %"class.absl::optional_internal::optional_data_dtor_base" }
%"class.absl::optional_internal::optional_data_dtor_base" = type { i8, %union.anon.47 }
%union.anon.47 = type { %"class.mojo::HandleSignalTracker" }
%"class.mojo::HandleSignalTracker" = type { %"class.base::RepeatingCallback.48", %"struct.mojo::HandleSignalsState", %"class.mojo::SimpleWatcher", %"class.mojo::SimpleWatcher" }
%"class.base::RepeatingCallback.48" = type { %"class.base::internal::CallbackBaseCopyable" }
%"struct.mojo::HandleSignalsState" = type { %struct.MojoHandleSignalsState }
%struct.MojoHandleSignalsState = type { i32, i32 }
%"struct.std::__1::atomic.49" = type { %"struct.std::__1::__atomic_base.50" }
%"struct.std::__1::__atomic_base.50" = type { %"struct.std::__1::__cxx_atomic_impl.51" }
%"struct.std::__1::__cxx_atomic_impl.51" = type { %"struct.std::__1::__cxx_atomic_base_impl.52" }
%"struct.std::__1::__cxx_atomic_base_impl.52" = type { i8 }
%"class.std::__1::unique_ptr.58" = type { %"class.std::__1::__compressed_pair.59" }
%"class.std::__1::__compressed_pair.59" = type { %"struct.std::__1::__compressed_pair_elem.60" }
%"struct.std::__1::__compressed_pair_elem.60" = type { %"class.mojo::SyncHandleWatcher"* }
%"class.mojo::SyncHandleWatcher" = type { %"class.mojo::Handle", i32, %"class.base::RepeatingCallback.61", i8, i64, %class.scoped_refptr.62, %class.scoped_refptr.84 }
%"class.base::RepeatingCallback.61" = type { %"class.base::internal::CallbackBaseCopyable" }
%class.scoped_refptr.62 = type { %"class.mojo::SyncHandleRegistry"* }
%"class.mojo::SyncHandleRegistry" = type <{ %"class.base::RefCounted", [4 x i8], %"class.mojo::WaitSet", %"class.std::__1::map", %"class.std::__1::map.73", i8, [7 x i8] }>
%"class.base::RefCounted" = type { %"class.base::subtle::RefCountedBase" }
%"class.base::subtle::RefCountedBase" = type { i32 }
%"class.mojo::WaitSet" = type { %class.scoped_refptr.63 }
%class.scoped_refptr.63 = type { %"class.mojo::WaitSet::State"* }
%"class.mojo::WaitSet::State" = type opaque
%"class.std::__1::map" = type { %"class.std::__1::__tree.64" }
%"class.std::__1::__tree.64" = type { %"class.std::__1::__tree_end_node"*, %"class.std::__1::__compressed_pair.65", %"class.std::__1::__compressed_pair.69" }
%"class.std::__1::__compressed_pair.65" = type { %"struct.std::__1::__compressed_pair_elem" }
%"class.std::__1::__compressed_pair.69" = type { %"struct.std::__1::__compressed_pair_elem.2" }
%"class.std::__1::map.73" = type { %"class.std::__1::__tree.74" }
%"class.std::__1::__tree.74" = type { %"class.std::__1::__tree_end_node"*, %"class.std::__1::__compressed_pair.75", %"class.std::__1::__compressed_pair.79" }
%"class.std::__1::__compressed_pair.75" = type { %"struct.std::__1::__compressed_pair_elem" }
%"class.std::__1::__compressed_pair.79" = type { %"struct.std::__1::__compressed_pair_elem.2" }
%class.scoped_refptr.84 = type { %"class.base::RefCountedData"* }
%"class.base::RefCountedData" = type opaque
%class.scoped_refptr.88 = type { %"class.mojo::internal::MessageQuotaChecker"* }
%"class.mojo::internal::MessageQuotaChecker" = type opaque
%"class.base::Lock" = type { %"class.base::internal::LockImpl" }
%"class.base::internal::LockImpl" = type { %union.pthread_mutex_t }
%union.pthread_mutex_t = type { %struct.__pthread_mutex_s }
%struct.__pthread_mutex_s = type { i32, i32, i32, i32, i32, i16, i16, %struct.__pthread_internal_list }
%struct.__pthread_internal_list = type { %struct.__pthread_internal_list*, %struct.__pthread_internal_list* }
%"class.mojo::Connector::RunLoopNestingObserver" = type opaque
%"class.mojo::ConnectionGroup::Ref" = type { i32, %class.scoped_refptr.89 }
%class.scoped_refptr.89 = type { %"class.mojo::ConnectionGroup"* }
%"class.mojo::ConnectionGroup" = type <{ i32 (...)**, %"class.base::RefCountedThreadSafe.239", [4 x i8], %"class.base::RepeatingCallback.132", %class.scoped_refptr.13, %"class.mojo::ConnectionGroup::Ref", %"struct.std::__1::atomic.240", [4 x i8] }>
%"class.base::RefCountedThreadSafe.239" = type { %"class.base::subtle::RefCountedThreadSafeBase" }
%"class.base::RepeatingCallback.132" = type { %"class.base::internal::CallbackBaseCopyable" }
%"struct.std::__1::atomic.240" = type { %"struct.std::__1::__atomic_base.241" }
%"struct.std::__1::__atomic_base.241" = type { %"struct.std::__1::__atomic_base.242" }
%"struct.std::__1::__atomic_base.242" = type { %"struct.std::__1::__cxx_atomic_impl.243" }
%"struct.std::__1::__cxx_atomic_impl.243" = type { %"struct.std::__1::__cxx_atomic_base_impl.244" }
%"struct.std::__1::__cxx_atomic_base_impl.244" = type { i32 }
%"class.base::WeakPtr" = type { %"class.base::internal::WeakPtrBase" }
%"class.base::internal::WeakPtrBase" = type { %"class.base::internal::WeakReference", i64 }
%"class.base::internal::WeakReference" = type { %class.scoped_refptr.90 }
%class.scoped_refptr.90 = type { %"class.base::internal::WeakReference::Flag"* }
%"class.base::WeakPtrFactory.91" = type { %"class.base::internal::WeakPtrFactoryBase" }
%"class.absl::optional.92" = type { %"class.absl::optional_internal::optional_data.93" }
%"class.absl::optional_internal::optional_data.93" = type { %"class.absl::optional_internal::optional_data_base.94" }
%"class.absl::optional_internal::optional_data_base.94" = type { %"class.absl::optional_internal::optional_data_dtor_base.95" }
%"class.absl::optional_internal::optional_data_dtor_base.95" = type { i8, %union.anon.96 }
%union.anon.96 = type { %"class.mojo::SimpleWatcher" }
%"class.absl::optional.97" = type { %"class.absl::optional_internal::optional_data.98" }
%"class.absl::optional_internal::optional_data.98" = type { %"class.absl::optional_internal::optional_data_base.99" }
%"class.absl::optional_internal::optional_data_base.99" = type { %"class.absl::optional_internal::optional_data_dtor_base.100" }
%"class.absl::optional_internal::optional_data_dtor_base.100" = type { i8, [7 x i8], %union.anon.101 }
%union.anon.101 = type { %"struct.mojo::internal::MultiplexRouter::ExclusiveSyncWaitInfo" }
%"struct.mojo::internal::MultiplexRouter::ExclusiveSyncWaitInfo" = type <{ i32, [4 x i8], i64, i8, [7 x i8] }>
%"class.absl::optional.53" = type { %"class.absl::optional_internal::optional_data.54" }
%"class.absl::optional_internal::optional_data.54" = type { %"class.absl::optional_internal::optional_data_base.55" }
%"class.absl::optional_internal::optional_data_base.55" = type { %"class.absl::optional_internal::optional_data_dtor_base.56" }
%"class.absl::optional_internal::optional_data_dtor_base.56" = type { i8, %union.anon.57 }
%union.anon.57 = type { %"class.base::Lock" }
%"class.mojo::PipeControlMessageHandler" = type { %"class.mojo::MessageReceiver", %"class.std::__1::basic_string", %"class.mojo::PipeControlMessageHandlerDelegate"* }
%"class.mojo::PipeControlMessageProxy" = type { %"class.mojo::MessageReceiver"* }
%"class.base::small_map" = type { i64, %"class.base::internal::small_map_default_init", %union.anon.106 }
%"class.base::internal::small_map_default_init" = type { i8 }
%union.anon.106 = type { %"class.std::__1::map.108" }
%"class.std::__1::map.108" = type { %"class.std::__1::__tree.109" }
%"class.std::__1::__tree.109" = type { %"class.std::__1::__tree_end_node"*, %"class.std::__1::__compressed_pair.110", %"class.std::__1::__compressed_pair.114" }
%"class.std::__1::__compressed_pair.110" = type { %"struct.std::__1::__compressed_pair_elem" }
%"class.std::__1::__compressed_pair.114" = type { %"struct.std::__1::__compressed_pair_elem.2" }
%"class.base::circular_deque" = type { %"class.base::internal::VectorBuffer", i64, i64 }
%"class.base::internal::VectorBuffer" = type { %"class.std::__1::unique_ptr.119"*, i64 }
%"class.std::__1::unique_ptr.119" = type opaque
%"class.std::__1::map.120" = type { %"class.std::__1::__tree.121" }
%"class.std::__1::__tree.121" = type { %"class.std::__1::__tree_end_node"*, %"class.std::__1::__compressed_pair.122", %"class.std::__1::__compressed_pair.126" }
%"class.std::__1::__compressed_pair.122" = type { %"struct.std::__1::__compressed_pair_elem" }
%"class.std::__1::__compressed_pair.126" = type { %"struct.std::__1::__compressed_pair_elem.2" }
%"class.std::__1::unique_ptr.129" = type { %"class.std::__1::__compressed_pair.130" }
%"class.std::__1::__compressed_pair.130" = type { %"struct.std::__1::__compressed_pair_elem.131" }
%"struct.std::__1::__compressed_pair_elem.131" = type { %"class.mojo::InterfaceEndpointClient"* }
%"class.mojo::InterfaceEndpointClient" = type { %"class.mojo::MessageReceiverWithResponder", i8, %"class.base::RepeatingCallback.132", %"class.base::OnceCallback.133", %"class.absl::optional.134", %"class.absl::optional.139", %"class.mojo::ConnectionGroup::Ref", i32, %"class.mojo::ScopedInterfaceEndpointHandle", %"class.std::__1::unique_ptr.146", %"class.mojo::InterfaceEndpointController"*, %"class.mojo::MessageReceiverWithResponderStatus"*, %"class.mojo::InterfaceEndpointClient::HandleIncomingMessageThunk", %"class.mojo::MessageDispatcher", %"class.std::__1::map.154", %"class.std::__1::map.165", i64, %"class.base::OnceCallback", %"class.base::OnceCallback.174", i8, %class.scoped_refptr.13, %"class.mojo::internal::ControlMessageProxy", %"class.mojo::internal::ControlMessageHandler", i8*, %"class.base::WeakPtrFactory.175" }
%"class.mojo::MessageReceiverWithResponder" = type { %"class.mojo::MessageReceiver" }
%"class.base::OnceCallback.133" = type { %"class.base::internal::CallbackBase" }
%"class.absl::optional.134" = type { %"class.absl::optional_internal::optional_data.135" }
%"class.absl::optional_internal::optional_data.135" = type { %"class.absl::optional_internal::optional_data_base.136" }
%"class.absl::optional_internal::optional_data_base.136" = type { %"class.absl::optional_internal::optional_data_dtor_base.137" }
%"class.absl::optional_internal::optional_data_dtor_base.137" = type { i8, %union.anon.138 }
%union.anon.138 = type { %"class.base::TimeDelta" }
%"class.base::TimeDelta" = type { i64 }
%"class.absl::optional.139" = type { %"class.absl::optional_internal::optional_data.140" }
%"class.absl::optional_internal::optional_data.140" = type { %"class.absl::optional_internal::optional_data_base.141" }
%"class.absl::optional_internal::optional_data_base.141" = type { %"class.absl::optional_internal::optional_data_dtor_base.142" }
%"class.absl::optional_internal::optional_data_dtor_base.142" = type { i8, %union.anon.143 }
%union.anon.143 = type { %"class.base::OneShotTimer" }
%"class.base::OneShotTimer" = type { %"class.base::internal::TimerBase", %"class.base::OnceCallback" }
%"class.base::internal::TimerBase" = type { i32 (...)**, %class.scoped_refptr.13, %"class.base::SequenceCheckerDoNothing", %"class.base::internal::TaskDestructionDetector"*, %"class.base::Location", %"class.base::TimeDelta", %"class.base::TimeTicks", %"class.base::TimeTicks", %"class.base::TickClock"*, i8, %"class.base::WeakPtrFactory.144" }
%"class.base::SequenceCheckerDoNothing" = type { i8 }
%"class.base::internal::TaskDestructionDetector" = type opaque
%"class.base::Location" = type { i8*, i8*, i32, i8* }
%"class.base::TimeTicks" = type { %"class.base::time_internal::TimeBase" }
%"class.base::time_internal::TimeBase" = type { i64 }
%"class.base::TickClock" = type opaque
%"class.base::WeakPtrFactory.144" = type { %"class.base::internal::WeakPtrFactoryBase" }
%"class.mojo::ScopedInterfaceEndpointHandle" = type { %class.scoped_refptr.145 }
%class.scoped_refptr.145 = type { %"class.mojo::ScopedInterfaceEndpointHandle::State"* }
%"class.mojo::ScopedInterfaceEndpointHandle::State" = type opaque
%"class.std::__1::unique_ptr.146" = type { %"class.std::__1::__compressed_pair.147" }
%"class.std::__1::__compressed_pair.147" = type { %"struct.std::__1::__compressed_pair_elem.148" }
%"struct.std::__1::__compressed_pair_elem.148" = type { %"class.mojo::AssociatedGroup"* }
%"class.mojo::AssociatedGroup" = type { %"class.base::RepeatingCallback.149", %class.scoped_refptr.150 }
%"class.base::RepeatingCallback.149" = type { %"class.base::internal::CallbackBaseCopyable" }
%class.scoped_refptr.150 = type { %"class.mojo::AssociatedGroupController"* }
%"class.mojo::AssociatedGroupController" = type <{ i32 (...)**, %"class.base::RefCountedThreadSafe", [4 x i8] }>
%"class.mojo::InterfaceEndpointController" = type opaque
%"class.mojo::MessageReceiverWithResponderStatus" = type { %"class.mojo::MessageReceiver" }
%"class.mojo::InterfaceEndpointClient::HandleIncomingMessageThunk" = type { %"class.mojo::MessageReceiver", %"class.mojo::InterfaceEndpointClient"* }
%"class.std::__1::map.154" = type { %"class.std::__1::__tree.155" }
%"class.std::__1::__tree.155" = type { %"class.std::__1::__tree_end_node"*, %"class.std::__1::__compressed_pair.156", %"class.std::__1::__compressed_pair.160" }
%"class.std::__1::__compressed_pair.156" = type { %"struct.std::__1::__compressed_pair_elem" }
%"class.std::__1::__compressed_pair.160" = type { %"struct.std::__1::__compressed_pair_elem.2" }
%"class.std::__1::map.165" = type { %"class.std::__1::__tree.166" }
%"class.std::__1::__tree.166" = type { %"class.std::__1::__tree_end_node"*, %"class.std::__1::__compressed_pair.167", %"class.std::__1::__compressed_pair.171" }
%"class.std::__1::__compressed_pair.167" = type { %"struct.std::__1::__compressed_pair_elem" }
%"class.std::__1::__compressed_pair.171" = type { %"struct.std::__1::__compressed_pair_elem.2" }
%"class.base::OnceCallback.174" = type { %"class.base::internal::CallbackBase" }
%"class.mojo::internal::ControlMessageProxy" = type { %"class.mojo::InterfaceEndpointClient"*, i8, %"class.base::OnceCallback" }
%"class.mojo::internal::ControlMessageHandler" = type <{ %"class.mojo::MessageReceiverWithResponderStatus", %"class.mojo::InterfaceEndpointClient"*, i32, [4 x i8] }>
%"class.base::WeakPtrFactory.175" = type { %"class.base::internal::WeakPtrFactoryBase" }
%"class.mojo::ScopedHandleBase" = type { %"class.mojo::MessagePipeHandle" }
%"class.mojo::MessagePipeHandle" = type { %"class.mojo::Handle" }
%class.scoped_refptr.13 = type { %"class.base::SequencedTaskRunner"* }
%"class.base::SequencedTaskRunner" = type { %"class.base::TaskRunner.base", [4 x i8] }
%"class.base::TaskRunner.base" = type <{ i32 (...)**, %"class.base::RefCountedThreadSafe.14" }>
%"class.base::RefCountedThreadSafe.14" = type { %"class.base::subtle::RefCountedThreadSafeBase" }
%"class.std::__1::unique_ptr.179" = type { %"class.std::__1::__compressed_pair.180" }
%"class.std::__1::__compressed_pair.180" = type { %"struct.std::__1::__compressed_pair_elem.181" }
%"struct.std::__1::__compressed_pair_elem.181" = type { %"class.network::mojom::URLLoaderFactoryProxy"* }
%"class.network::mojom::URLLoaderFactoryProxy" = type { %"class.network::mojom::URLLoaderFactory", %"class.mojo::MessageReceiverWithResponder"* }
%"class.network::mojom::URLLoaderFactory" = type { i32 (...)** }
%"class.mojo::ReceiverSetBase" = type { %"class.mojo::ReceiverSetState" }
%"class.mojo::ReceiverSetState" = type { %"class.base::RepeatingCallback.132", %"class.base::RepeatingCallback.185", i64, %"class.std::__1::map.186", i8*, i64, %"class.base::WeakPtrFactory.195" }
%"class.base::RepeatingCallback.185" = type { %"class.base::internal::CallbackBaseCopyable" }
%"class.std::__1::map.186" = type { %"class.std::__1::__tree.187" }
%"class.std::__1::__tree.187" = type { %"class.std::__1::__tree_end_node"*, %"class.std::__1::__compressed_pair.188", %"class.std::__1::__compressed_pair.192" }
%"class.std::__1::__compressed_pair.188" = type { %"struct.std::__1::__compressed_pair_elem" }
%"class.std::__1::__compressed_pair.192" = type { %"struct.std::__1::__compressed_pair_elem.2" }
%"class.base::WeakPtrFactory.195" = type { %"class.base::internal::WeakPtrFactoryBase" }
%"class.base::BasicStringPiece" = type { i8*, i64 }
%"struct.std::__1::basic_string<char, std::__1::char_traits<char>, std::__1::allocator<char> >::__short" = type { [23 x i8], %struct.anon }
%struct.anon = type { i8 }
%"struct.net::NetworkTrafficAnnotationTag" = type { i32 }
%"class.base::OnceCallback.245" = type { %"class.base::internal::CallbackBase" }
%"class.base::OnceCallback.252" = type { %"class.base::internal::CallbackBase" }
%"struct.network::ResourceRequest::TrustedParams" = type { %"class.net::IsolationInfo", i8, i8, %"class.mojo::PendingRemote.479", %"class.mojo::PendingRemote.480", %"class.mojo::PendingRemote.481", %"class.mojo::StructPtr.482", %"class.mojo::PendingRemote.489" }
%"class.mojo::PendingRemote.479" = type { %"struct.mojo::internal::PendingRemoteState" }
%"struct.mojo::internal::PendingRemoteState" = type { %"class.mojo::ScopedHandleBase", i32 }
%"class.mojo::PendingRemote.480" = type { %"struct.mojo::internal::PendingRemoteState" }
%"class.mojo::PendingRemote.481" = type { %"struct.mojo::internal::PendingRemoteState" }
%"class.mojo::StructPtr.482" = type { %"class.std::__1::unique_ptr.483" }
%"class.std::__1::unique_ptr.483" = type { %"class.std::__1::__compressed_pair.484" }
%"class.std::__1::__compressed_pair.484" = type { %"struct.std::__1::__compressed_pair_elem.485" }
%"struct.std::__1::__compressed_pair_elem.485" = type { %"class.network::mojom::ClientSecurityState"* }
%"class.network::mojom::ClientSecurityState" = type <{ %"struct.network::CrossOriginEmbedderPolicy", i8, [3 x i8], i32, i32, [4 x i8] }>
%"struct.network::CrossOriginEmbedderPolicy" = type { i32, %"class.absl::optional.385", i32, %"class.absl::optional.385" }
%"class.absl::optional.385" = type { %"class.absl::optional_internal::optional_data.386" }
%"class.absl::optional_internal::optional_data.386" = type { %"class.absl::optional_internal::optional_data_base.387" }
%"class.absl::optional_internal::optional_data_base.387" = type { %"class.absl::optional_internal::optional_data_dtor_base.388" }
%"class.absl::optional_internal::optional_data_dtor_base.388" = type { i8, %union.anon.389 }
%union.anon.389 = type { %"class.std::__1::basic_string" }
%"class.mojo::PendingRemote.489" = type { %"struct.mojo::internal::PendingRemoteState" }
%"struct.network::ResourceRequest" = type { %"class.std::__1::basic_string", %class.GURL, %"class.net::SiteForCookies", i8, %"class.absl::optional.208", %"class.absl::optional.208", %class.GURL, i32, %"class.net::HttpRequestHeaders", %"class.net::HttpRequestHeaders", i32, i32, i32, i8, i8, i32, i8, i8, i8, i32, i32, i32, %"class.std::__1::basic_string", i32, %class.scoped_refptr.452, i8, i8, i8, i8, i8, i8, i32, i8, i32, i8, i8, %"class.absl::optional.437", %"class.net::HttpRequestHeaders", %"class.net::HttpRequestHeaders", %"class.absl::optional.437", %"class.absl::optional.385", %"class.absl::optional.385", i8, i8, i8, i8, %"class.absl::optional.437", %"class.absl::optional.474", %"class.network::OptionalTrustTokenParams", %"class.absl::optional.504", %"class.absl::optional.510" }
%class.scoped_refptr.452 = type { %"class.network::ResourceRequestBody"* }
%"class.network::ResourceRequestBody" = type <{ %"class.base::RefCountedThreadSafe.453", [4 x i8], %"class.std::__1::vector.454", i64, i8, i8, [6 x i8] }>
%"class.base::RefCountedThreadSafe.453" = type { %"class.base::subtle::RefCountedThreadSafeBase" }
%"class.std::__1::vector.454" = type { %"class.std::__1::__vector_base.455" }
%"class.std::__1::__vector_base.455" = type { %"class.network::DataElement"*, %"class.network::DataElement"*, %"class.std::__1::__compressed_pair.469" }
%"class.network::DataElement" = type { %"class.absl::variant" }
%"class.absl::variant" = type { %"class.absl::variant_internal::VariantMoveAssignBaseNontrivial" }
%"class.absl::variant_internal::VariantMoveAssignBaseNontrivial" = type { %"class.absl::variant_internal::VariantMoveBaseNontrivial" }
%"class.absl::variant_internal::VariantMoveBaseNontrivial" = type { %"class.absl::variant_internal::VariantStateBaseDestructorNontrivial" }
%"class.absl::variant_internal::VariantStateBaseDestructorNontrivial" = type { %"class.absl::variant_internal::VariantStateBase" }
%"class.absl::variant_internal::VariantStateBase" = type { %"union.absl::variant_internal::DestructibleUnionImpl", i64 }
%"union.absl::variant_internal::DestructibleUnionImpl" = type { %"union.absl::variant_internal::DestructibleUnionImpl.456" }
%"union.absl::variant_internal::DestructibleUnionImpl.456" = type { %"union.absl::variant_internal::DestructibleUnionImpl.464" }
%"union.absl::variant_internal::DestructibleUnionImpl.464" = type { %"union.absl::variant_internal::DestructibleUnionImpl.465" }
%"union.absl::variant_internal::DestructibleUnionImpl.465" = type { %"union.absl::variant_internal::DestructibleUnionImpl.467" }
%"union.absl::variant_internal::DestructibleUnionImpl.467" = type { %"class.network::DataElementFile" }
%"class.network::DataElementFile" = type { %"class.base::FilePath", i64, i64, %"class.base::Time" }
%"class.base::FilePath" = type { %"class.std::__1::basic_string" }
%"class.base::Time" = type { %"class.base::time_internal::TimeBase.253" }
%"class.base::time_internal::TimeBase.253" = type { i64 }
%"class.std::__1::__compressed_pair.469" = type { %"struct.std::__1::__compressed_pair_elem.470" }
%"struct.std::__1::__compressed_pair_elem.470" = type { %"class.network::DataElement"* }
%"class.net::HttpRequestHeaders" = type { %"class.std::__1::vector.445" }
%"class.std::__1::vector.445" = type { %"class.std::__1::__vector_base.446" }
%"class.std::__1::__vector_base.446" = type { %"struct.net::HttpRequestHeaders::HeaderKeyValuePair"*, %"struct.net::HttpRequestHeaders::HeaderKeyValuePair"*, %"class.std::__1::__compressed_pair.447" }
%"struct.net::HttpRequestHeaders::HeaderKeyValuePair" = type { %"class.std::__1::basic_string", %"class.std::__1::basic_string" }
%"class.std::__1::__compressed_pair.447" = type { %"struct.std::__1::__compressed_pair_elem.448" }
%"struct.std::__1::__compressed_pair_elem.448" = type { %"struct.net::HttpRequestHeaders::HeaderKeyValuePair"* }
%"class.absl::optional.437" = type { %"class.absl::optional_internal::optional_data.438" }
%"class.absl::optional_internal::optional_data.438" = type { %"class.absl::optional_internal::optional_data_base.439" }
%"class.absl::optional_internal::optional_data_base.439" = type { %"class.absl::optional_internal::optional_data_dtor_base.440" }
%"class.absl::optional_internal::optional_data_dtor_base.440" = type { i8, %union.anon.441 }
%union.anon.441 = type { %"class.base::UnguessableToken" }
%"class.absl::optional.474" = type { %"class.absl::optional_internal::optional_data.475" }
%"class.absl::optional_internal::optional_data.475" = type { %"class.absl::optional_internal::optional_data_base.476" }
%"class.absl::optional_internal::optional_data_base.476" = type { %"class.absl::optional_internal::optional_data_dtor_base.477" }
%"class.absl::optional_internal::optional_data_dtor_base.477" = type { i8, %union.anon.478 }
%union.anon.478 = type { %"struct.network::ResourceRequest::TrustedParams" }
%"class.network::OptionalTrustTokenParams" = type { %"class.mojo::StructPtr.490" }
%"class.mojo::StructPtr.490" = type { %"class.std::__1::unique_ptr.491" }
%"class.std::__1::unique_ptr.491" = type { %"class.std::__1::__compressed_pair.492" }
%"class.std::__1::__compressed_pair.492" = type { %"struct.std::__1::__compressed_pair_elem.493" }
%"struct.std::__1::__compressed_pair_elem.493" = type { %"class.network::mojom::TrustTokenParams"* }
%"class.network::mojom::TrustTokenParams" = type { i32, i32, i32, i8, %"class.std::__1::vector.494", %"class.std::__1::vector.287", %"class.absl::optional.385" }
%"class.std::__1::vector.494" = type { %"class.std::__1::__vector_base.495" }
%"class.std::__1::__vector_base.495" = type { %"class.url::Origin"*, %"class.url::Origin"*, %"class.std::__1::__compressed_pair.496" }
%"class.std::__1::__compressed_pair.496" = type { %"struct.std::__1::__compressed_pair_elem.497" }
%"struct.std::__1::__compressed_pair_elem.497" = type { %"class.url::Origin"* }
%"class.std::__1::vector.287" = type { %"class.std::__1::__vector_base.288" }
%"class.std::__1::__vector_base.288" = type { %"class.std::__1::basic_string"*, %"class.std::__1::basic_string"*, %"class.std::__1::__compressed_pair.289" }
%"class.std::__1::__compressed_pair.289" = type { %"struct.std::__1::__compressed_pair_elem.248" }
%"struct.std::__1::__compressed_pair_elem.248" = type { %"class.std::__1::basic_string"* }
%"class.absl::optional.504" = type { %"class.absl::optional_internal::optional_data.505" }
%"class.absl::optional_internal::optional_data.505" = type { %"class.absl::optional_internal::optional_data_base.506" }
%"class.absl::optional_internal::optional_data_base.506" = type { %"class.absl::optional_internal::optional_data_dtor_base.507" }
%"class.absl::optional_internal::optional_data_dtor_base.507" = type { i8, [7 x i8], %union.anon.508 }
%union.anon.508 = type { %"struct.network::ResourceRequest::WebBundleTokenParams" }
%"struct.network::ResourceRequest::WebBundleTokenParams" = type <{ %class.GURL, %"class.base::UnguessableToken", %"class.mojo::PendingRemote.509", i32, [4 x i8] }>
%"class.mojo::PendingRemote.509" = type { %"struct.mojo::internal::PendingRemoteState" }
%"class.absl::optional.510" = type { %"class.absl::optional_internal::optional_data.511" }
%"class.absl::optional_internal::optional_data.511" = type { %"class.absl::optional_internal::optional_data_base.512" }
%"class.absl::optional_internal::optional_data_base.512" = type { %"class.absl::optional_internal::optional_data_dtor_base.513" }
%"class.absl::optional_internal::optional_data_dtor_base.513" = type { i8, %union.anon.514 }
%union.anon.514 = type { %"class.std::__1::vector.515" }
%"class.std::__1::vector.515" = type { %"class.std::__1::__vector_base.516" }
%"class.std::__1::__vector_base.516" = type { i32*, i32*, %"class.std::__1::__compressed_pair.517" }
%"class.std::__1::__compressed_pair.517" = type { %"struct.std::__1::__compressed_pair_elem.518" }
%"struct.std::__1::__compressed_pair_elem.518" = type { i32* }
%"struct.network::OriginPolicy" = type { i32, %class.GURL, %"class.std::__1::unique_ptr.431" }
%"class.std::__1::unique_ptr.431" = type { %"class.std::__1::__compressed_pair.432" }
%"class.std::__1::__compressed_pair.432" = type { %"struct.std::__1::__compressed_pair_elem.433" }
%"struct.std::__1::__compressed_pair_elem.433" = type { %"struct.network::OriginPolicyContents"* }
%"struct.network::OriginPolicyContents" = type { %"class.std::__1::vector.287", %"class.absl::optional.385", %"class.std::__1::vector.287", %"class.std::__1::vector.287" }
%"class.network::mojom::URLResponseHead" = type <{ %"class.base::Time", %"class.base::Time", %class.scoped_refptr.254, %"class.std::__1::basic_string", %"class.std::__1::basic_string", i32, [4 x i8], i64, i64, i64, i8, [7 x i8], i64, %class.GURL, %"struct.net::LoadTimingInfo", %"class.mojo::StructPtr", i8, i8, i8, i8, i32, %"class.std::__1::basic_string", %"class.net::IPEndPoint", i8, i8, [2 x i8], %"class.net::ProxyServer", i8, [3 x i8], i32, %"class.std::__1::vector.274", i32, [4 x i8], i64, %"class.std::__1::basic_string", i32, [4 x i8], %"class.absl::optional.280", %"class.std::__1::vector.287", i8, i8, i8, i8, i8, i8, i8, i8, i8, i8, i8, [5 x i8], %"class.absl::optional.321", %"class.base::TimeTicks", %"class.base::TimeTicks", %"class.mojo::StructPtr.326", %"class.absl::optional.426", %"class.absl::optional.437", %"class.std::__1::vector.287", %class.GURL, i8, [7 x i8] }>
%class.scoped_refptr.254 = type { %"class.net::HttpResponseHeaders"* }
%"class.net::HttpResponseHeaders" = type { %"class.base::RefCountedThreadSafe.255", %"class.std::__1::vector", %"class.std::__1::basic_string", i32, %"class.net::HttpVersion" }
%"class.base::RefCountedThreadSafe.255" = type { %"class.base::subtle::RefCountedThreadSafeBase" }
%"class.std::__1::vector" = type { %"class.std::__1::__vector_base" }
%"class.std::__1::__vector_base" = type { %"struct.net::HttpResponseHeaders::ParsedHeader"*, %"struct.net::HttpResponseHeaders::ParsedHeader"*, %"class.std::__1::__compressed_pair.256" }
%"struct.net::HttpResponseHeaders::ParsedHeader" = type opaque
%"class.std::__1::__compressed_pair.256" = type { %"struct.std::__1::__compressed_pair_elem.257" }
%"struct.std::__1::__compressed_pair_elem.257" = type { %"struct.net::HttpResponseHeaders::ParsedHeader"* }
%"class.net::HttpVersion" = type { i32 }
%"struct.net::LoadTimingInfo" = type { i8, i32, %"class.base::Time", %"class.base::TimeTicks", %"class.base::TimeTicks", %"class.base::TimeTicks", %"class.base::TimeTicks", %"class.base::TimeTicks", %"class.base::TimeTicks", %"class.base::TimeTicks", %"struct.net::LoadTimingInfo::ConnectTiming", %"class.base::TimeTicks", %"class.base::TimeTicks", %"class.base::TimeTicks", %"class.base::TimeTicks", %"class.base::TimeTicks", %"class.base::TimeTicks", %"class.base::TimeTicks", %"class.base::TimeTicks" }
%"struct.net::LoadTimingInfo::ConnectTiming" = type { %"class.base::TimeTicks", %"class.base::TimeTicks", %"class.base::TimeTicks", %"class.base::TimeTicks", %"class.base::TimeTicks", %"class.base::TimeTicks" }
%"class.mojo::StructPtr" = type { %"class.std::__1::unique_ptr.261" }
%"class.std::__1::unique_ptr.261" = type { %"class.std::__1::__compressed_pair.262" }
%"class.std::__1::__compressed_pair.262" = type { %"struct.std::__1::__compressed_pair_elem.263" }
%"struct.std::__1::__compressed_pair_elem.263" = type { %"class.network::mojom::HttpRawRequestResponseInfo"* }
%"class.network::mojom::HttpRawRequestResponseInfo" = type { i32, %"class.std::__1::basic_string", %"class.std::__1::vector.264", %"class.std::__1::vector.264", %"class.std::__1::basic_string", %"class.std::__1::basic_string" }
%"class.std::__1::vector.264" = type { %"class.std::__1::__vector_base.265" }
%"class.std::__1::__vector_base.265" = type { %"class.mojo::InlinedStructPtr"*, %"class.mojo::InlinedStructPtr"*, %"class.std::__1::__compressed_pair.266" }
%"class.mojo::InlinedStructPtr" = type <{ %"class.network::mojom::HttpRawHeaderPair", i32, [4 x i8] }>
%"class.network::mojom::HttpRawHeaderPair" = type { %"class.std::__1::basic_string", %"class.std::__1::basic_string" }
%"class.std::__1::__compressed_pair.266" = type { %"struct.std::__1::__compressed_pair_elem.267" }
%"struct.std::__1::__compressed_pair_elem.267" = type { %"class.mojo::InlinedStructPtr"* }
%"class.net::IPEndPoint" = type { %"class.net::IPAddress", i16 }
%"class.net::IPAddress" = type { %"class.net::IPAddressBytes" }
%"class.net::IPAddressBytes" = type { %"struct.std::__1::array", i8 }
%"struct.std::__1::array" = type { [16 x i8] }
%"class.net::ProxyServer" = type { i32, [4 x i8], %"class.net::HostPortPair" }
%"class.net::HostPortPair" = type <{ %"class.std::__1::basic_string", i16, [6 x i8] }>
%"class.std::__1::vector.274" = type { %"class.std::__1::__vector_base.275" }
%"class.std::__1::__vector_base.275" = type { %class.GURL*, %class.GURL*, %"class.std::__1::__compressed_pair.276" }
%"class.std::__1::__compressed_pair.276" = type { %"struct.std::__1::__compressed_pair_elem.204" }
%"class.absl::optional.280" = type { %"class.absl::optional_internal::optional_data.281" }
%"class.absl::optional_internal::optional_data.281" = type { %"class.absl::optional_internal::optional_data_base.282" }
%"class.absl::optional_internal::optional_data_base.282" = type { %"class.absl::optional_internal::optional_data_dtor_base.283" }
%"class.absl::optional_internal::optional_data_dtor_base.283" = type { i8, [7 x i8], %union.anon.284 }
%union.anon.284 = type { %"class.net::SSLInfo" }
%"class.net::SSLInfo" = type <{ %class.scoped_refptr.285, %class.scoped_refptr.285, i32, i16, i16, i32, i8, i8, i8, i8, i32, [4 x i8], %"class.std::__1::vector.304", %"class.std::__1::basic_string", %"class.std::__1::vector.312", i32, %"struct.net::OCSPVerifyResult", i8, [3 x i8] }>
%class.scoped_refptr.285 = type { %"class.net::X509Certificate"* }
%"class.net::X509Certificate" = type { %"class.base::RefCountedThreadSafe.286", %"struct.net::CertPrincipal", %"struct.net::CertPrincipal", %"class.base::Time", %"class.base::Time", %"class.std::__1::basic_string", %"class.std::__1::unique_ptr.293", %"class.std::__1::vector.297" }
%"class.base::RefCountedThreadSafe.286" = type { %"class.base::subtle::RefCountedThreadSafeBase" }
%"struct.net::CertPrincipal" = type { %"class.std::__1::basic_string", %"class.std::__1::basic_string", %"class.std::__1::basic_string", %"class.std::__1::basic_string", %"class.std::__1::vector.287", %"class.std::__1::vector.287", %"class.std::__1::vector.287", %"class.std::__1::vector.287" }
%"class.std::__1::unique_ptr.293" = type { %"class.std::__1::__compressed_pair.294" }
%"class.std::__1::__compressed_pair.294" = type { %"struct.std::__1::__compressed_pair_elem.295" }
%"struct.std::__1::__compressed_pair_elem.295" = type { %struct.crypto_buffer_st* }
%struct.crypto_buffer_st = type opaque
%"class.std::__1::vector.297" = type { %"class.std::__1::__vector_base.298" }
%"class.std::__1::__vector_base.298" = type { %"class.std::__1::unique_ptr.293"*, %"class.std::__1::unique_ptr.293"*, %"class.std::__1::__compressed_pair.299" }
%"class.std::__1::__compressed_pair.299" = type { %"struct.std::__1::__compressed_pair_elem.300" }
%"struct.std::__1::__compressed_pair_elem.300" = type { %"class.std::__1::unique_ptr.293"* }
%"class.std::__1::vector.304" = type { %"class.std::__1::__vector_base.305" }
%"class.std::__1::__vector_base.305" = type { %"class.net::HashValue"*, %"class.net::HashValue"*, %"class.std::__1::__compressed_pair.307" }
%"class.net::HashValue" = type { i32, %union.anon.306 }
%union.anon.306 = type { %"struct.net::SHA256HashValue" }
%"struct.net::SHA256HashValue" = type { [32 x i8] }
%"class.std::__1::__compressed_pair.307" = type { %"struct.std::__1::__compressed_pair_elem.308" }
%"struct.std::__1::__compressed_pair_elem.308" = type { %"class.net::HashValue"* }
%"class.std::__1::vector.312" = type { %"class.std::__1::__vector_base.313" }
%"class.std::__1::__vector_base.313" = type { %"struct.net::SignedCertificateTimestampAndStatus"*, %"struct.net::SignedCertificateTimestampAndStatus"*, %"class.std::__1::__compressed_pair.316" }
%"struct.net::SignedCertificateTimestampAndStatus" = type <{ %class.scoped_refptr.314, i32, [4 x i8] }>
%class.scoped_refptr.314 = type { %"struct.net::ct::SignedCertificateTimestamp"* }
%"struct.net::ct::SignedCertificateTimestamp" = type { %"class.base::RefCountedThreadSafe.315", i32, %"class.std::__1::basic_string", %"class.base::Time", %"class.std::__1::basic_string", %"struct.net::ct::DigitallySigned", i32, %"class.std::__1::basic_string" }
%"class.base::RefCountedThreadSafe.315" = type { %"class.base::subtle::RefCountedThreadSafeBase" }
%"struct.net::ct::DigitallySigned" = type { i32, i32, %"class.std::__1::basic_string" }
%"class.std::__1::__compressed_pair.316" = type { %"struct.std::__1::__compressed_pair_elem.317" }
%"struct.std::__1::__compressed_pair_elem.317" = type { %"struct.net::SignedCertificateTimestampAndStatus"* }
%"struct.net::OCSPVerifyResult" = type { i32, i32 }
%"class.absl::optional.321" = type { %"class.absl::optional_internal::optional_data.322" }
%"class.absl::optional_internal::optional_data.322" = type { %"class.absl::optional_internal::optional_data_base.323" }
%"class.absl::optional_internal::optional_data_base.323" = type { %"class.absl::optional_internal::optional_data_dtor_base.324" }
%"class.absl::optional_internal::optional_data_dtor_base.324" = type { i8, %union.anon.325 }
%union.anon.325 = type { %"class.net::AuthChallengeInfo" }
%"class.net::AuthChallengeInfo" = type { i8, %"class.url::Origin", %"class.std::__1::basic_string", %"class.std::__1::basic_string", %"class.std::__1::basic_string", %"class.std::__1::basic_string" }
%"class.mojo::StructPtr.326" = type { %"class.std::__1::unique_ptr.327" }
%"class.std::__1::unique_ptr.327" = type { %"class.std::__1::__compressed_pair.328" }
%"class.std::__1::__compressed_pair.328" = type { %"struct.std::__1::__compressed_pair_elem.329" }
%"struct.std::__1::__compressed_pair_elem.329" = type { %"class.network::mojom::ParsedHeaders"* }
%"class.network::mojom::ParsedHeaders" = type <{ %"class.std::__1::vector.330", %"class.mojo::StructPtr.378", %"struct.network::CrossOriginEmbedderPolicy", %"struct.network::CrossOriginOpenerPolicy", i8, [7 x i8], %"class.absl::optional.390", %"class.base::TimeDelta", %"class.absl::optional.390", i32, [4 x i8], %"class.std::__1::vector.402", %"class.mojo::StructPtr.416", i8, [7 x i8] }>
%"class.std::__1::vector.330" = type { %"class.std::__1::__vector_base.331" }
%"class.std::__1::__vector_base.331" = type { %"class.mojo::StructPtr.332"*, %"class.mojo::StructPtr.332"*, %"class.std::__1::__compressed_pair.373" }
%"class.mojo::StructPtr.332" = type { %"class.std::__1::unique_ptr.333" }
%"class.std::__1::unique_ptr.333" = type { %"class.std::__1::__compressed_pair.334" }
%"class.std::__1::__compressed_pair.334" = type { %"struct.std::__1::__compressed_pair_elem.335" }
%"struct.std::__1::__compressed_pair_elem.335" = type { %"class.network::mojom::ContentSecurityPolicy"* }
%"class.network::mojom::ContentSecurityPolicy" = type { %"class.mojo::StructPtr.336", %"class.base::flat_map", %"class.base::flat_map.351", i8, i8, i8, i32, %"class.mojo::InlinedStructPtr.361", i8, %"class.std::__1::vector.287", i32, %"class.mojo::StructPtr.363", %"class.std::__1::vector.287" }
%"class.mojo::StructPtr.336" = type { %"class.std::__1::unique_ptr.337" }
%"class.std::__1::unique_ptr.337" = type { %"class.std::__1::__compressed_pair.338" }
%"class.std::__1::__compressed_pair.338" = type { %"struct.std::__1::__compressed_pair_elem.339" }
%"struct.std::__1::__compressed_pair_elem.339" = type { %"class.network::mojom::CSPSource"* }
%"class.network::mojom::CSPSource" = type <{ %"class.std::__1::basic_string", %"class.std::__1::basic_string", i32, [4 x i8], %"class.std::__1::basic_string", i8, i8, [6 x i8] }>
%"class.base::flat_map" = type { %"class.base::internal::flat_tree" }
%"class.base::internal::flat_tree" = type { %"class.std::__1::vector.343" }
%"class.std::__1::vector.343" = type { %"class.std::__1::__vector_base.344" }
%"class.std::__1::__vector_base.344" = type { %"struct.std::__1::pair.345"*, %"struct.std::__1::pair.345"*, %"class.std::__1::__compressed_pair.346" }
%"struct.std::__1::pair.345" = type opaque
%"class.std::__1::__compressed_pair.346" = type { %"struct.std::__1::__compressed_pair_elem.347" }
%"struct.std::__1::__compressed_pair_elem.347" = type { %"struct.std::__1::pair.345"* }
%"class.base::flat_map.351" = type { %"class.base::internal::flat_tree.352" }
%"class.base::internal::flat_tree.352" = type { %"class.std::__1::vector.353" }
%"class.std::__1::vector.353" = type { %"class.std::__1::__vector_base.354" }
%"class.std::__1::__vector_base.354" = type { %"struct.std::__1::pair.355"*, %"struct.std::__1::pair.355"*, %"class.std::__1::__compressed_pair.356" }
%"struct.std::__1::pair.355" = type opaque
%"class.std::__1::__compressed_pair.356" = type { %"struct.std::__1::__compressed_pair_elem.357" }
%"struct.std::__1::__compressed_pair_elem.357" = type { %"struct.std::__1::pair.355"* }
%"class.mojo::InlinedStructPtr.361" = type <{ %"class.network::mojom::ContentSecurityPolicyHeader", i32, [4 x i8] }>
%"class.network::mojom::ContentSecurityPolicyHeader" = type { %"class.std::__1::basic_string", i32, i32 }
%"class.mojo::StructPtr.363" = type { %"class.std::__1::unique_ptr.364" }
%"class.std::__1::unique_ptr.364" = type { %"class.std::__1::__compressed_pair.365" }
%"class.std::__1::__compressed_pair.365" = type { %"struct.std::__1::__compressed_pair_elem.366" }
%"struct.std::__1::__compressed_pair_elem.366" = type { %"class.network::mojom::CSPTrustedTypes"* }
%"class.network::mojom::CSPTrustedTypes" = type <{ %"class.std::__1::vector.287", i8, i8, [6 x i8] }>
%"class.std::__1::__compressed_pair.373" = type { %"struct.std::__1::__compressed_pair_elem.374" }
%"struct.std::__1::__compressed_pair_elem.374" = type { %"class.mojo::StructPtr.332"* }
%"class.mojo::StructPtr.378" = type { %"class.std::__1::unique_ptr.379" }
%"class.std::__1::unique_ptr.379" = type { %"class.std::__1::__compressed_pair.380" }
%"class.std::__1::__compressed_pair.380" = type { %"struct.std::__1::__compressed_pair_elem.381" }
%"struct.std::__1::__compressed_pair_elem.381" = type { %"class.network::mojom::AllowCSPFromHeaderValue"* }
%"class.network::mojom::AllowCSPFromHeaderValue" = type { i32, %"union.network::mojom::AllowCSPFromHeaderValue::Union_" }
%"union.network::mojom::AllowCSPFromHeaderValue::Union_" = type { %"class.url::Origin"* }
%"struct.network::CrossOriginOpenerPolicy" = type { i32, %"class.absl::optional.385", i32, %"class.absl::optional.385" }
%"class.absl::optional.390" = type { %"class.absl::optional_internal::optional_data.391" }
%"class.absl::optional_internal::optional_data.391" = type { %"class.absl::optional_internal::optional_data_base.392" }
%"class.absl::optional_internal::optional_data_base.392" = type { %"class.absl::optional_internal::optional_data_dtor_base.393" }
%"class.absl::optional_internal::optional_data_dtor_base.393" = type { i8, %union.anon.394 }
%union.anon.394 = type { %"class.std::__1::vector.395" }
%"class.std::__1::vector.395" = type { %"class.std::__1::__vector_base.396" }
%"class.std::__1::__vector_base.396" = type { i32*, i32*, %"class.std::__1::__compressed_pair.397" }
%"class.std::__1::__compressed_pair.397" = type { %"struct.std::__1::__compressed_pair_elem.398" }
%"struct.std::__1::__compressed_pair_elem.398" = type { i32* }
%"class.std::__1::vector.402" = type { %"class.std::__1::__vector_base.403" }
%"class.std::__1::__vector_base.403" = type { %"class.mojo::StructPtr.404"*, %"class.mojo::StructPtr.404"*, %"class.std::__1::__compressed_pair.411" }
%"class.mojo::StructPtr.404" = type { %"class.std::__1::unique_ptr.405" }
%"class.std::__1::unique_ptr.405" = type { %"class.std::__1::__compressed_pair.406" }
%"class.std::__1::__compressed_pair.406" = type { %"struct.std::__1::__compressed_pair_elem.407" }
%"struct.std::__1::__compressed_pair_elem.407" = type { %"class.network::mojom::LinkHeader"* }
%"class.network::mojom::LinkHeader" = type { %class.GURL, i32, i32, i32, %"class.absl::optional.385" }
%"class.std::__1::__compressed_pair.411" = type { %"struct.std::__1::__compressed_pair_elem.412" }
%"struct.std::__1::__compressed_pair_elem.412" = type { %"class.mojo::StructPtr.404"* }
%"class.mojo::StructPtr.416" = type { %"class.std::__1::unique_ptr.417" }
%"class.std::__1::unique_ptr.417" = type { %"class.std::__1::__compressed_pair.418" }
%"class.std::__1::__compressed_pair.418" = type { %"struct.std::__1::__compressed_pair_elem.419" }
%"struct.std::__1::__compressed_pair_elem.419" = type { %"class.network::mojom::TimingAllowOrigin"* }
%"class.network::mojom::TimingAllowOrigin" = type { i32, %"union.network::mojom::TimingAllowOrigin::Union_" }
%"union.network::mojom::TimingAllowOrigin::Union_" = type { %"class.std::__1::vector.287"* }
%"class.absl::optional.426" = type { %"class.absl::optional_internal::optional_data.427" }
%"class.absl::optional_internal::optional_data.427" = type { %"class.absl::optional_internal::optional_data_base.428" }
%"class.absl::optional_internal::optional_data_base.428" = type { %"class.absl::optional_internal::optional_data_dtor_base.429" }
%"class.absl::optional_internal::optional_data_dtor_base.429" = type { i8, %union.anon.430 }
%union.anon.430 = type { %"struct.network::OriginPolicy" }
%"class.std::__1::unique_ptr.246" = type { %"class.std::__1::__compressed_pair.247" }
%"class.std::__1::__compressed_pair.247" = type { %"struct.std::__1::__compressed_pair_elem.248" }

$_ZN3net30DefineNetworkTrafficAnnotationILm21ELm669EEENS_27NetworkTrafficAnnotationTagERAT__KcRAT0__S2_ = comdat any

$_ZN4base8internal7InvokerINS0_9BindStateIMN7network19OriginPolicyFetcherEFvNSt3__110unique_ptrINS5_12basic_stringIcNS5_11char_traitsIcEENS5_9allocatorIcEEEENS5_14default_deleteISC_EEEEEJNS0_17UnretainedWrapperIS4_EEEEEFvSF_EE7RunOnceEPNS0_13BindStateBaseEOSF_ = comdat any

$_ZN4base8internal9BindStateIMN7network19OriginPolicyFetcherEFvNSt3__110unique_ptrINS4_12basic_stringIcNS4_11char_traitsIcEENS4_9allocatorIcEEEENS4_14default_deleteISB_EEEEEJNS0_17UnretainedWrapperIS3_EEEE7DestroyEPKNS0_13BindStateBaseE = comdat any

$_ZN4base8internal7InvokerINS0_9BindStateIMN7network19OriginPolicyFetcherEFvRK4GURLRKNS3_5mojom15URLResponseHeadEEJNS0_17UnretainedWrapperIS4_EEEEEFvS7_SB_EE7RunOnceEPNS0_13BindStateBaseES7_SB_ = comdat any

$_ZN4base8internal9BindStateIMN7network19OriginPolicyFetcherEFvRK4GURLRKNS2_5mojom15URLResponseHeadEEJNS0_17UnretainedWrapperIS3_EEEE7DestroyEPKNS0_13BindStateBaseE = comdat any

@_ZN7networkL22kOriginPolicyWellKnownE = internal constant [27 x i8] c"/.well-known/origin-policy\00", align 16
@.str = private unnamed_addr constant [21 x i8] c"origin_policy_loader\00", align 1
@.str.1 = private unnamed_addr constant [669 x i8] c"\0A        semantics {\0A          sender: \22Origin Policy URL Loader Throttle\22\0A          description:\0A            \22Fetches the Origin Policy from an origin.\22\0A          trigger:\0A            \22The server has used the Origin-Policy header to request that an \22\0A            \22origin policy be applied.\22\0A          data:\0A            \22None; the URL itself contains the origin.\22\0A          destination: OTHER\0A        }\0A        policy {\0A          cookies_allowed: NO\0A          setting: \22This feature cannot be disabled by settings. Servers \22\0A            \22opt in or out of this mechanism.\22\0A          policy_exception_justification:\0A            \22Not implemented, considered not useful.\22}\00", align 1
@.str.2 = private unnamed_addr constant [30 x i8] c"application/originpolicy+json\00", align 1

@_ZN7network19OriginPolicyFetcherC1EPNS_19OriginPolicyManagerERKN3url6OriginERKN3net13IsolationInfoEPNS_5mojom16URLLoaderFactoryEN4base12OnceCallbackIFvRKNS_12OriginPolicyEEEE = hidden unnamed_addr alias void (%"class.network::OriginPolicyFetcher"*, %"class.network::OriginPolicyManager"*, %"class.url::Origin"*, %"class.net::IsolationInfo"*, %"class.network::mojom::URLLoaderFactory"*, %"class.base::OnceCallback.238"*), void (%"class.network::OriginPolicyFetcher"*, %"class.network::OriginPolicyManager"*, %"class.url::Origin"*, %"class.net::IsolationInfo"*, %"class.network::mojom::URLLoaderFactory"*, %"class.base::OnceCallback.238"*)* @_ZN7network19OriginPolicyFetcherC2EPNS_19OriginPolicyManagerERKN3url6OriginERKN3net13IsolationInfoEPNS_5mojom16URLLoaderFactoryEN4base12OnceCallbackIFvRKNS_12OriginPolicyEEEE
@_ZN7network19OriginPolicyFetcherD1Ev = hidden unnamed_addr alias void (%"class.network::OriginPolicyFetcher"*), void (%"class.network::OriginPolicyFetcher"*)* @_ZN7network19OriginPolicyFetcherD2Ev

; Function Attrs: nounwind ssp uwtable
define hidden void @_ZN7network19OriginPolicyFetcherC2EPNS_19OriginPolicyManagerERKN3url6OriginERKN3net13IsolationInfoEPNS_5mojom16URLLoaderFactoryEN4base12OnceCallbackIFvRKNS_12OriginPolicyEEEE(%"class.network::OriginPolicyFetcher"*, %"class.network::OriginPolicyManager"*, %"class.url::Origin"* dereferenceable(80), %"class.net::IsolationInfo"* dereferenceable(496), %"class.network::mojom::URLLoaderFactory"*, %"class.base::OnceCallback.238"* nocapture) unnamed_addr #0 align 2 {
  %7 = getelementptr inbounds %"class.network::OriginPolicyFetcher", %"class.network::OriginPolicyFetcher"* %0, i64 0, i32 0
  store %"class.network::OriginPolicyManager"* %1, %"class.network::OriginPolicyManager"** %7, align 8
  %8 = getelementptr inbounds %"class.network::OriginPolicyFetcher", %"class.network::OriginPolicyFetcher"* %0, i64 0, i32 1
  %9 = bitcast %"class.std::__1::unique_ptr.196"* %8 to i64*
  store i64 0, i64* %9, align 8
  %10 = getelementptr inbounds %"class.network::OriginPolicyFetcher", %"class.network::OriginPolicyFetcher"* %0, i64 0, i32 2
  tail call void @_ZN7network19OriginPolicyFetcher12GetPolicyURLERKN3url6OriginE(%class.GURL* sret %10, %"class.url::Origin"* dereferenceable(80) %2)
  %11 = getelementptr inbounds %"class.network::OriginPolicyFetcher", %"class.network::OriginPolicyFetcher"* %0, i64 0, i32 3
  tail call void @_ZN3net13IsolationInfoC1ERKS0_(%"class.net::IsolationInfo"* %11, %"class.net::IsolationInfo"* dereferenceable(496) %3) #8
  %12 = getelementptr inbounds %"class.network::OriginPolicyFetcher", %"class.network::OriginPolicyFetcher"* %0, i64 0, i32 4
  %13 = getelementptr inbounds %"class.base::OnceCallback.238", %"class.base::OnceCallback.238"* %5, i64 0, i32 0, i32 0, i32 0
  %14 = bitcast %"class.base::OnceCallback.238"* %5 to i64*
  %15 = load i64, i64* %14, align 8
  %16 = bitcast %"class.base::OnceCallback.238"* %12 to i64*
  store i64 %15, i64* %16, align 8
  store %"class.base::internal::BindStateBase"* null, %"class.base::internal::BindStateBase"** %13, align 8
  tail call void @_ZN7network19OriginPolicyFetcher11FetchPolicyEPNS_5mojom16URLLoaderFactoryE(%"class.network::OriginPolicyFetcher"* %0, %"class.network::mojom::URLLoaderFactory"* %4)
  ret void
}

; Function Attrs: nounwind ssp uwtable
define hidden void @_ZN7network19OriginPolicyFetcher12GetPolicyURLERKN3url6OriginE(%class.GURL* noalias sret, %"class.url::Origin"* dereferenceable(80)) local_unnamed_addr #0 align 2 {
  %3 = alloca %"class.std::__1::basic_string", align 8
  %4 = alloca [2 x %"class.base::BasicStringPiece"], align 8
  %5 = alloca %"class.std::__1::basic_string", align 8
  %6 = bitcast %"class.std::__1::basic_string"* %3 to i8*
  call void @llvm.lifetime.start.p0i8(i64 24, i8* nonnull %6) #8
  %7 = bitcast [2 x %"class.base::BasicStringPiece"]* %4 to i8*
  call void @llvm.lifetime.start.p0i8(i64 32, i8* nonnull %7) #8
  %8 = getelementptr inbounds [2 x %"class.base::BasicStringPiece"], [2 x %"class.base::BasicStringPiece"]* %4, i64 0, i64 0
  %9 = bitcast %"class.std::__1::basic_string"* %5 to i8*
  call void @llvm.lifetime.start.p0i8(i64 24, i8* nonnull %9) #8
  call void @_ZNK3url6Origin9SerializeEv(%"class.std::__1::basic_string"* nonnull sret %5, %"class.url::Origin"* %1) #8
  %10 = getelementptr inbounds [2 x %"class.base::BasicStringPiece"], [2 x %"class.base::BasicStringPiece"]* %4, i64 0, i64 0, i32 0
  %11 = bitcast %"class.std::__1::basic_string"* %5 to %"struct.std::__1::basic_string<char, std::__1::char_traits<char>, std::__1::allocator<char> >::__short"*
  %12 = getelementptr inbounds %"struct.std::__1::basic_string<char, std::__1::char_traits<char>, std::__1::allocator<char> >::__short", %"struct.std::__1::basic_string<char, std::__1::char_traits<char>, std::__1::allocator<char> >::__short"* %11, i64 0, i32 1, i32 0
  %13 = load i8, i8* %12, align 1
  %14 = icmp slt i8 %13, 0
  %15 = getelementptr inbounds %"class.std::__1::basic_string", %"class.std::__1::basic_string"* %5, i64 0, i32 0, i32 0, i32 0, i32 0, i32 0, i32 0
  %16 = load i8*, i8** %15, align 8
  %17 = select i1 %14, i8* %16, i8* %9
  store i8* %17, i8** %10, align 8
  %18 = getelementptr inbounds [2 x %"class.base::BasicStringPiece"], [2 x %"class.base::BasicStringPiece"]* %4, i64 0, i64 0, i32 1
  %19 = getelementptr inbounds %"class.std::__1::basic_string", %"class.std::__1::basic_string"* %5, i64 0, i32 0, i32 0, i32 0, i32 0, i32 0, i32 1
  %20 = load i64, i64* %19, align 8
  %21 = zext i8 %13 to i64
  %22 = select i1 %14, i64 %20, i64 %21
  store i64 %22, i64* %18, align 8
  %23 = getelementptr inbounds [2 x %"class.base::BasicStringPiece"], [2 x %"class.base::BasicStringPiece"]* %4, i64 0, i64 1, i32 0
  store i8* getelementptr inbounds ([27 x i8], [27 x i8]* @_ZN7networkL22kOriginPolicyWellKnownE, i64 0, i64 0), i8** %23, align 8
  %24 = getelementptr inbounds [2 x %"class.base::BasicStringPiece"], [2 x %"class.base::BasicStringPiece"]* %4, i64 0, i64 1, i32 1
  store i64 26, i64* %24, align 8
  call void @_ZN4base6StrCatENS_4spanIKNS_16BasicStringPieceIcNSt3__111char_traitsIcEEEELm18446744073709551615EEE(%"class.std::__1::basic_string"* nonnull sret %3, i64 2, %"class.base::BasicStringPiece"* nonnull %8) #8
  %25 = bitcast %"class.std::__1::basic_string"* %3 to %"struct.std::__1::basic_string<char, std::__1::char_traits<char>, std::__1::allocator<char> >::__short"*
  %26 = getelementptr inbounds %"struct.std::__1::basic_string<char, std::__1::char_traits<char>, std::__1::allocator<char> >::__short", %"struct.std::__1::basic_string<char, std::__1::char_traits<char>, std::__1::allocator<char> >::__short"* %25, i64 0, i32 1, i32 0
  %27 = load i8, i8* %26, align 1
  %28 = icmp slt i8 %27, 0
  %29 = getelementptr inbounds %"class.std::__1::basic_string", %"class.std::__1::basic_string"* %3, i64 0, i32 0, i32 0, i32 0, i32 0, i32 0, i32 0
  %30 = load i8*, i8** %29, align 8
  %31 = select i1 %28, i8* %30, i8* %6
  %32 = getelementptr inbounds %"class.std::__1::basic_string", %"class.std::__1::basic_string"* %3, i64 0, i32 0, i32 0, i32 0, i32 0, i32 0, i32 1
  %33 = load i64, i64* %32, align 8
  %34 = zext i8 %27 to i64
  %35 = select i1 %28, i64 %33, i64 %34
  call void @_ZN4GURLC1EN4base16BasicStringPieceIcNSt3__111char_traitsIcEEEE(%class.GURL* %0, i8* %31, i64 %35) #8
  %36 = load i8, i8* %26, align 1
  %37 = icmp slt i8 %36, 0
  br i1 %37, label %38, label %40

38:                                               ; preds = %2
  %39 = load i8*, i8** %29, align 8
  call void @_ZdlPv(i8* %39) #9
  br label %40

40:                                               ; preds = %2, %38
  %41 = load i8, i8* %12, align 1
  %42 = icmp slt i8 %41, 0
  br i1 %42, label %43, label %45

43:                                               ; preds = %40
  %44 = load i8*, i8** %15, align 8
  call void @_ZdlPv(i8* %44) #9
  br label %45

45:                                               ; preds = %40, %43
  call void @llvm.lifetime.end.p0i8(i64 24, i8* nonnull %9) #8
  call void @llvm.lifetime.end.p0i8(i64 32, i8* nonnull %7) #8
  call void @llvm.lifetime.end.p0i8(i64 24, i8* nonnull %6) #8
  ret void
}

declare void @_ZN3net13IsolationInfoC1ERKS0_(%"class.net::IsolationInfo"*, %"class.net::IsolationInfo"* dereferenceable(496)) unnamed_addr #1

; Function Attrs: nounwind ssp uwtable
define hidden void @_ZN7network19OriginPolicyFetcher11FetchPolicyEPNS_5mojom16URLLoaderFactoryE(%"class.network::OriginPolicyFetcher"*, %"class.network::mojom::URLLoaderFactory"*) local_unnamed_addr #0 align 2 {
  %3 = alloca %"struct.net::NetworkTrafficAnnotationTag", align 4
  %4 = alloca %"class.base::OnceCallback.245", align 8
  %5 = alloca %"class.base::OnceCallback.252", align 8
  %6 = alloca %"struct.network::ResourceRequest::TrustedParams", align 8
  %7 = alloca %"class.base::OnceCallback.252", align 8
  %8 = alloca %"class.base::OnceCallback.245", align 8
  %9 = bitcast %"struct.net::NetworkTrafficAnnotationTag"* %3 to i8*
  call void @llvm.lifetime.start.p0i8(i64 4, i8* nonnull %9) #8
  %10 = getelementptr inbounds %"struct.net::NetworkTrafficAnnotationTag", %"struct.net::NetworkTrafficAnnotationTag"* %3, i64 0, i32 0
  %11 = tail call i32 @_ZN3net30DefineNetworkTrafficAnnotationILm21ELm669EEENS_27NetworkTrafficAnnotationTagERAT__KcRAT0__S2_([21 x i8]* nonnull dereferenceable(21) @.str, [669 x i8]* nonnull dereferenceable(669) @.str.1)
  store i32 %11, i32* %10, align 4
  %12 = bitcast %"class.base::OnceCallback.245"* %4 to i8*
  call void @llvm.lifetime.start.p0i8(i64 8, i8* nonnull %12) #8
  %13 = getelementptr inbounds %"class.base::OnceCallback.245", %"class.base::OnceCallback.245"* %4, i64 0, i32 0, i32 0, i32 0
  %14 = ptrtoint %"class.network::OriginPolicyFetcher"* %0 to i64
  %15 = tail call i8* @_Znwm(i64 56) #9, !noalias !2
  %16 = bitcast i8* %15 to %"class.base::internal::BindStateBase"*
  tail call void @_ZN4base8internal13BindStateBaseC2EPFvvEPFvPKS1_E(%"class.base::internal::BindStateBase"* nonnull %16, void ()* bitcast (void (%"class.base::internal::BindStateBase"*, %"class.std::__1::unique_ptr.246"*)* @_ZN4base8internal7InvokerINS0_9BindStateIMN7network19OriginPolicyFetcherEFvNSt3__110unique_ptrINS5_12basic_stringIcNS5_11char_traitsIcEENS5_9allocatorIcEEEENS5_14default_deleteISC_EEEEEJNS0_17UnretainedWrapperIS4_EEEEEFvSF_EE7RunOnceEPNS0_13BindStateBaseEOSF_ to void ()*), void (%"class.base::internal::BindStateBase"*)* nonnull @_ZN4base8internal9BindStateIMN7network19OriginPolicyFetcherEFvNSt3__110unique_ptrINS4_12basic_stringIcNS4_11char_traitsIcEENS4_9allocatorIcEEEENS4_14default_deleteISB_EEEEEJNS0_17UnretainedWrapperIS3_EEEE7DestroyEPKNS0_13BindStateBaseE) #8, !noalias !2
  %17 = getelementptr inbounds i8, i8* %15, i64 32
  %18 = bitcast i8* %17 to <2 x i64>*
  store <2 x i64> <i64 ptrtoint (void (%"class.network::OriginPolicyFetcher"*, %"class.std::__1::basic_string"*)* @_ZN7network19OriginPolicyFetcher18OnPolicyHasArrivedENSt3__110unique_ptrINS1_12basic_stringIcNS1_11char_traitsIcEENS1_9allocatorIcEEEENS1_14default_deleteIS8_EEEE to i64), i64 0>, <2 x i64>* %18, align 8, !noalias !2
  %19 = getelementptr inbounds i8, i8* %15, i64 48
  %20 = bitcast i8* %19 to i64*
  store i64 %14, i64* %20, align 8, !noalias !2
  %21 = bitcast %"class.base::OnceCallback.245"* %4 to i8**
  store i8* %15, i8** %21, align 8, !alias.scope !2
  %22 = bitcast %"class.base::OnceCallback.252"* %5 to i8*
  call void @llvm.lifetime.start.p0i8(i64 8, i8* nonnull %22) #8
  %23 = getelementptr inbounds %"class.base::OnceCallback.252", %"class.base::OnceCallback.252"* %5, i64 0, i32 0, i32 0, i32 0
  %24 = tail call i8* @_Znwm(i64 56) #9, !noalias !7
  %25 = bitcast i8* %24 to %"class.base::internal::BindStateBase"*
  tail call void @_ZN4base8internal13BindStateBaseC2EPFvvEPFvPKS1_E(%"class.base::internal::BindStateBase"* nonnull %25, void ()* bitcast (void (%"class.base::internal::BindStateBase"*, %class.GURL*, %"class.network::mojom::URLResponseHead"*)* @_ZN4base8internal7InvokerINS0_9BindStateIMN7network19OriginPolicyFetcherEFvRK4GURLRKNS3_5mojom15URLResponseHeadEEJNS0_17UnretainedWrapperIS4_EEEEEFvS7_SB_EE7RunOnceEPNS0_13BindStateBaseES7_SB_ to void ()*), void (%"class.base::internal::BindStateBase"*)* nonnull @_ZN4base8internal9BindStateIMN7network19OriginPolicyFetcherEFvRK4GURLRKNS2_5mojom15URLResponseHeadEEJNS0_17UnretainedWrapperIS3_EEEE7DestroyEPKNS0_13BindStateBaseE) #8, !noalias !7
  %26 = getelementptr inbounds i8, i8* %24, i64 32
  %27 = bitcast i8* %26 to <2 x i64>*
  store <2 x i64> <i64 ptrtoint (void (%"class.network::OriginPolicyFetcher"*, %class.GURL*, %"class.network::mojom::URLResponseHead"*)* @_ZN7network19OriginPolicyFetcher17OnResponseStartedERK4GURLRKNS_5mojom15URLResponseHeadE to i64), i64 0>, <2 x i64>* %27, align 8, !noalias !7
  %28 = getelementptr inbounds i8, i8* %24, i64 48
  %29 = bitcast i8* %28 to i64*
  store i64 %14, i64* %29, align 8, !noalias !7
  %30 = bitcast %"class.base::OnceCallback.252"* %5 to i8**
  store i8* %24, i8** %30, align 8, !alias.scope !7
  %31 = tail call i8* @_Znwm(i64 1640) #9
  %32 = bitcast i8* %31 to %"struct.network::ResourceRequest"*
  tail call void @_ZN7network15ResourceRequestC1Ev(%"struct.network::ResourceRequest"* nonnull %32) #8
  %33 = getelementptr inbounds %"class.network::OriginPolicyFetcher", %"class.network::OriginPolicyFetcher"* %0, i64 0, i32 2
  %34 = getelementptr inbounds i8, i8* %31, i64 24
  %35 = bitcast i8* %34 to %class.GURL*
  %36 = tail call dereferenceable(120) %class.GURL* @_ZN4GURLaSERKS_(%class.GURL* %35, %class.GURL* dereferenceable(120) %33) #8
  %37 = getelementptr inbounds %"class.network::OriginPolicyFetcher", %"class.network::OriginPolicyFetcher"* %0, i64 0, i32 3
  %38 = getelementptr inbounds %"class.network::OriginPolicyFetcher", %"class.network::OriginPolicyFetcher"* %0, i64 0, i32 3, i32 2, i32 0, i32 0, i32 0, i32 0
  %39 = load i8, i8* %38, align 8, !range !12
  %40 = icmp eq i8 %39, 0
  br i1 %40, label %41, label %42

41:                                               ; preds = %2
  tail call void @_ZN4absl17optional_internal25throw_bad_optional_accessEv() #10
  unreachable

42:                                               ; preds = %2
  %43 = getelementptr inbounds %"class.network::OriginPolicyFetcher", %"class.network::OriginPolicyFetcher"* %0, i64 0, i32 3, i32 2, i32 0, i32 0, i32 0, i32 1, i32 0
  %44 = getelementptr inbounds i8, i8* %31, i64 240
  %45 = load i8, i8* %44, align 8, !range !12
  %46 = icmp eq i8 %45, 0
  %47 = getelementptr inbounds i8, i8* %31, i64 248
  %48 = bitcast i8* %47 to %"class.url::Origin"*
  br i1 %46, label %51, label %49

49:                                               ; preds = %42
  %50 = tail call dereferenceable(80) %"class.url::Origin"* @_ZN3url6OriginaSERKS0_(%"class.url::Origin"* %48, %"class.url::Origin"* dereferenceable(80) %43) #8
  br label %52

51:                                               ; preds = %42
  tail call void @_ZN3url6OriginC1ERKS0_(%"class.url::Origin"* %48, %"class.url::Origin"* dereferenceable(80) %43) #8
  store i8 1, i8* %44, align 8
  br label %52

52:                                               ; preds = %49, %51
  %53 = getelementptr inbounds i8, i8* %31, i64 620
  %54 = bitcast i8* %53 to i32*
  store i32 0, i32* %54, align 4
  %55 = getelementptr inbounds i8, i8* %31, i64 624
  %56 = bitcast i8* %55 to i32*
  store i32 1, i32* %56, align 8
  %57 = bitcast %"struct.network::ResourceRequest::TrustedParams"* %6 to i8*
  call void @llvm.lifetime.start.p0i8(i64 544, i8* nonnull %57) #8
  call void @_ZN7network15ResourceRequest13TrustedParamsC1Ev(%"struct.network::ResourceRequest::TrustedParams"* nonnull %6) #8
  %58 = getelementptr inbounds i8, i8* %31, i64 888
  %59 = load i8, i8* %58, align 8, !range !12
  %60 = icmp eq i8 %59, 0
  %61 = getelementptr inbounds i8, i8* %31, i64 896
  %62 = bitcast i8* %61 to %"struct.network::ResourceRequest::TrustedParams"*
  br i1 %60, label %65, label %63

63:                                               ; preds = %52
  %64 = call dereferenceable(544) %"struct.network::ResourceRequest::TrustedParams"* @_ZN7network15ResourceRequest13TrustedParamsaSERKS1_(%"struct.network::ResourceRequest::TrustedParams"* %62, %"struct.network::ResourceRequest::TrustedParams"* nonnull dereferenceable(544) %6) #8
  br label %66

65:                                               ; preds = %52
  call void @_ZN7network15ResourceRequest13TrustedParamsC1ERKS1_(%"struct.network::ResourceRequest::TrustedParams"* %62, %"struct.network::ResourceRequest::TrustedParams"* nonnull dereferenceable(544) %6) #8
  store i8 1, i8* %58, align 8
  br label %66

66:                                               ; preds = %63, %65
  call void @_ZN7network15ResourceRequest13TrustedParamsD1Ev(%"struct.network::ResourceRequest::TrustedParams"* nonnull %6) #8
  call void @llvm.lifetime.end.p0i8(i64 544, i8* nonnull %57) #8
  %67 = load i8, i8* %58, align 8, !range !12
  %68 = icmp eq i8 %67, 0
  br i1 %68, label %69, label %70, !prof !13

69:                                               ; preds = %66
  call void @llvm.trap() #8
  unreachable

70:                                               ; preds = %66
  %71 = bitcast i8* %61 to %"class.net::IsolationInfo"*
  %72 = call dereferenceable(496) %"class.net::IsolationInfo"* @_ZN3net13IsolationInfoaSERKS0_(%"class.net::IsolationInfo"* %71, %"class.net::IsolationInfo"* dereferenceable(496) %37) #8
  %73 = call %"class.network::SimpleURLLoader"* @_ZN7network15SimpleURLLoader6CreateENSt3__110unique_ptrINS_15ResourceRequestENS1_14default_deleteIS3_EEEERKN3net27NetworkTrafficAnnotationTagE(%"struct.network::ResourceRequest"* nonnull %32, %"struct.net::NetworkTrafficAnnotationTag"* nonnull dereferenceable(4) %3) #8
  %74 = ptrtoint %"class.network::SimpleURLLoader"* %73 to i64
  %75 = getelementptr inbounds %"class.network::OriginPolicyFetcher", %"class.network::OriginPolicyFetcher"* %0, i64 0, i32 1
  %76 = getelementptr inbounds %"class.std::__1::unique_ptr.196", %"class.std::__1::unique_ptr.196"* %75, i64 0, i32 0, i32 0, i32 0
  %77 = load %"class.network::SimpleURLLoader"*, %"class.network::SimpleURLLoader"** %76, align 8
  %78 = bitcast %"class.std::__1::unique_ptr.196"* %75 to i64*
  store i64 %74, i64* %78, align 8
  %79 = icmp eq %"class.network::SimpleURLLoader"* %77, null
  br i1 %79, label %86, label %80

80:                                               ; preds = %70
  %81 = bitcast %"class.network::SimpleURLLoader"* %77 to void (%"class.network::SimpleURLLoader"*)***
  %82 = load void (%"class.network::SimpleURLLoader"*)**, void (%"class.network::SimpleURLLoader"*)*** %81, align 8
  %83 = getelementptr inbounds void (%"class.network::SimpleURLLoader"*)*, void (%"class.network::SimpleURLLoader"*)** %82, i64 1
  %84 = load void (%"class.network::SimpleURLLoader"*)*, void (%"class.network::SimpleURLLoader"*)** %83, align 8
  call void %84(%"class.network::SimpleURLLoader"* nonnull %77) #8
  %85 = load %"class.network::SimpleURLLoader"*, %"class.network::SimpleURLLoader"** %76, align 8
  br label %86

86:                                               ; preds = %70, %80
  %87 = phi %"class.network::SimpleURLLoader"* [ %73, %70 ], [ %85, %80 ]
  %88 = bitcast %"class.base::OnceCallback.252"* %5 to i64*
  %89 = load i64, i64* %88, align 8
  %90 = bitcast %"class.base::OnceCallback.252"* %7 to i64*
  store i64 %89, i64* %90, align 8
  store %"class.base::internal::BindStateBase"* null, %"class.base::internal::BindStateBase"** %23, align 8
  %91 = bitcast %"class.network::SimpleURLLoader"* %87 to void (%"class.network::SimpleURLLoader"*, %"class.base::OnceCallback.252"*)***
  %92 = load void (%"class.network::SimpleURLLoader"*, %"class.base::OnceCallback.252"*)**, void (%"class.network::SimpleURLLoader"*, %"class.base::OnceCallback.252"*)*** %91, align 8
  %93 = getelementptr inbounds void (%"class.network::SimpleURLLoader"*, %"class.base::OnceCallback.252"*)*, void (%"class.network::SimpleURLLoader"*, %"class.base::OnceCallback.252"*)** %92, i64 9
  %94 = load void (%"class.network::SimpleURLLoader"*, %"class.base::OnceCallback.252"*)*, void (%"class.network::SimpleURLLoader"*, %"class.base::OnceCallback.252"*)** %93, align 8
  call void %94(%"class.network::SimpleURLLoader"* %87, %"class.base::OnceCallback.252"* nonnull %7) #8
  %95 = getelementptr inbounds %"class.base::OnceCallback.252", %"class.base::OnceCallback.252"* %7, i64 0, i32 0
  call void @_ZN4base8internal12CallbackBaseD2Ev(%"class.base::internal::CallbackBase"* nonnull %95) #8
  %96 = load %"class.network::SimpleURLLoader"*, %"class.network::SimpleURLLoader"** %76, align 8
  %97 = bitcast %"class.base::OnceCallback.245"* %4 to i64*
  %98 = load i64, i64* %97, align 8
  %99 = bitcast %"class.base::OnceCallback.245"* %8 to i64*
  store i64 %98, i64* %99, align 8
  store %"class.base::internal::BindStateBase"* null, %"class.base::internal::BindStateBase"** %13, align 8
  %100 = bitcast %"class.network::SimpleURLLoader"* %96 to void (%"class.network::SimpleURLLoader"*, %"class.network::mojom::URLLoaderFactory"*, %"class.base::OnceCallback.245"*, i64)***
  %101 = load void (%"class.network::SimpleURLLoader"*, %"class.network::mojom::URLLoaderFactory"*, %"class.base::OnceCallback.245"*, i64)**, void (%"class.network::SimpleURLLoader"*, %"class.network::mojom::URLLoaderFactory"*, %"class.base::OnceCallback.245"*, i64)*** %100, align 8
  %102 = getelementptr inbounds void (%"class.network::SimpleURLLoader"*, %"class.network::mojom::URLLoaderFactory"*, %"class.base::OnceCallback.245"*, i64)*, void (%"class.network::SimpleURLLoader"*, %"class.network::mojom::URLLoaderFactory"*, %"class.base::OnceCallback.245"*, i64)** %101, i64 2
  %103 = load void (%"class.network::SimpleURLLoader"*, %"class.network::mojom::URLLoaderFactory"*, %"class.base::OnceCallback.245"*, i64)*, void (%"class.network::SimpleURLLoader"*, %"class.network::mojom::URLLoaderFactory"*, %"class.base::OnceCallback.245"*, i64)** %102, align 8
  call void %103(%"class.network::SimpleURLLoader"* %96, %"class.network::mojom::URLLoaderFactory"* %1, %"class.base::OnceCallback.245"* nonnull %8, i64 1048576) #8
  %104 = getelementptr inbounds %"class.base::OnceCallback.245", %"class.base::OnceCallback.245"* %8, i64 0, i32 0
  call void @_ZN4base8internal12CallbackBaseD2Ev(%"class.base::internal::CallbackBase"* nonnull %104) #8
  %105 = getelementptr inbounds %"class.base::OnceCallback.252", %"class.base::OnceCallback.252"* %5, i64 0, i32 0
  call void @_ZN4base8internal12CallbackBaseD2Ev(%"class.base::internal::CallbackBase"* nonnull %105) #8
  call void @llvm.lifetime.end.p0i8(i64 8, i8* nonnull %22) #8
  %106 = getelementptr inbounds %"class.base::OnceCallback.245", %"class.base::OnceCallback.245"* %4, i64 0, i32 0
  call void @_ZN4base8internal12CallbackBaseD2Ev(%"class.base::internal::CallbackBase"* nonnull %106) #8
  call void @llvm.lifetime.end.p0i8(i64 8, i8* nonnull %12) #8
  call void @llvm.lifetime.end.p0i8(i64 4, i8* nonnull %9) #8
  ret void
}

; Function Attrs: nounwind ssp uwtable
define hidden void @_ZN7network19OriginPolicyFetcherD2Ev(%"class.network::OriginPolicyFetcher"*) unnamed_addr #0 align 2 {
  %2 = getelementptr inbounds %"class.network::OriginPolicyFetcher", %"class.network::OriginPolicyFetcher"* %0, i64 0, i32 4, i32 0
  tail call void @_ZN4base8internal12CallbackBaseD2Ev(%"class.base::internal::CallbackBase"* %2) #8
  %3 = getelementptr inbounds %"class.network::OriginPolicyFetcher", %"class.network::OriginPolicyFetcher"* %0, i64 0, i32 3
  tail call void @_ZN3net13IsolationInfoD1Ev(%"class.net::IsolationInfo"* %3) #8
  %4 = getelementptr inbounds %"class.network::OriginPolicyFetcher", %"class.network::OriginPolicyFetcher"* %0, i64 0, i32 2
  tail call void @_ZN4GURLD1Ev(%class.GURL* %4) #8
  %5 = getelementptr inbounds %"class.network::OriginPolicyFetcher", %"class.network::OriginPolicyFetcher"* %0, i64 0, i32 1, i32 0, i32 0, i32 0
  %6 = load %"class.network::SimpleURLLoader"*, %"class.network::SimpleURLLoader"** %5, align 8
  store %"class.network::SimpleURLLoader"* null, %"class.network::SimpleURLLoader"** %5, align 8
  %7 = icmp eq %"class.network::SimpleURLLoader"* %6, null
  br i1 %7, label %13, label %8

8:                                                ; preds = %1
  %9 = bitcast %"class.network::SimpleURLLoader"* %6 to void (%"class.network::SimpleURLLoader"*)***
  %10 = load void (%"class.network::SimpleURLLoader"*)**, void (%"class.network::SimpleURLLoader"*)*** %9, align 8
  %11 = getelementptr inbounds void (%"class.network::SimpleURLLoader"*)*, void (%"class.network::SimpleURLLoader"*)** %10, i64 1
  %12 = load void (%"class.network::SimpleURLLoader"*)*, void (%"class.network::SimpleURLLoader"*)** %11, align 8
  tail call void %12(%"class.network::SimpleURLLoader"* nonnull %6) #8
  br label %13

13:                                               ; preds = %1, %8
  ret void
}

; Function Attrs: nounwind
declare void @_ZN4base8internal12CallbackBaseD2Ev(%"class.base::internal::CallbackBase"*) unnamed_addr #2

; Function Attrs: nounwind
declare void @_ZN3net13IsolationInfoD1Ev(%"class.net::IsolationInfo"*) unnamed_addr #2

; Function Attrs: nounwind
declare void @_ZN4GURLD1Ev(%class.GURL*) unnamed_addr #2

; Function Attrs: argmemonly nounwind
declare void @llvm.lifetime.start.p0i8(i64 immarg, i8* nocapture) #3

declare void @_ZNK3url6Origin9SerializeEv(%"class.std::__1::basic_string"* sret, %"class.url::Origin"*) local_unnamed_addr #1

declare void @_ZN4GURLC1EN4base16BasicStringPieceIcNSt3__111char_traitsIcEEEE(%class.GURL*, i8*, i64) unnamed_addr #1

; Function Attrs: argmemonly nounwind
declare void @llvm.lifetime.end.p0i8(i64 immarg, i8* nocapture) #3

; Function Attrs: nounwind ssp uwtable
define linkonce_odr hidden i32 @_ZN3net30DefineNetworkTrafficAnnotationILm21ELm669EEENS_27NetworkTrafficAnnotationTagERAT__KcRAT0__S2_([21 x i8]* dereferenceable(21), [669 x i8]* dereferenceable(669)) local_unnamed_addr #0 comdat {
  %3 = getelementptr inbounds [21 x i8], [21 x i8]* %0, i64 0, i64 0
  %4 = load i8, i8* %3, align 1
  %5 = sext i8 %4 to i32
  %6 = mul nsw i32 %5, 31
  %7 = getelementptr inbounds [21 x i8], [21 x i8]* %0, i64 0, i64 1
  %8 = load i8, i8* %7, align 1
  %9 = sext i8 %8 to i32
  %10 = add nsw i32 %6, %9
  %11 = urem i32 %10, 138003713
  %12 = mul i32 %11, 31
  %13 = getelementptr inbounds [21 x i8], [21 x i8]* %0, i64 0, i64 2
  %14 = load i8, i8* %13, align 1
  %15 = sext i8 %14 to i32
  %16 = add i32 %12, %15
  %17 = urem i32 %16, 138003713
  %18 = mul i32 %17, 31
  %19 = getelementptr inbounds [21 x i8], [21 x i8]* %0, i64 0, i64 3
  %20 = load i8, i8* %19, align 1
  %21 = sext i8 %20 to i32
  %22 = add i32 %18, %21
  %23 = urem i32 %22, 138003713
  %24 = mul i32 %23, 31
  %25 = getelementptr inbounds [21 x i8], [21 x i8]* %0, i64 0, i64 4
  %26 = load i8, i8* %25, align 1
  %27 = sext i8 %26 to i32
  %28 = add i32 %24, %27
  %29 = urem i32 %28, 138003713
  %30 = mul i32 %29, 31
  %31 = getelementptr inbounds [21 x i8], [21 x i8]* %0, i64 0, i64 5
  %32 = load i8, i8* %31, align 1
  %33 = sext i8 %32 to i32
  %34 = add i32 %30, %33
  %35 = urem i32 %34, 138003713
  %36 = mul i32 %35, 31
  %37 = getelementptr inbounds [21 x i8], [21 x i8]* %0, i64 0, i64 6
  %38 = load i8, i8* %37, align 1
  %39 = sext i8 %38 to i32
  %40 = add i32 %36, %39
  %41 = urem i32 %40, 138003713
  %42 = mul i32 %41, 31
  %43 = getelementptr inbounds [21 x i8], [21 x i8]* %0, i64 0, i64 7
  %44 = load i8, i8* %43, align 1
  %45 = sext i8 %44 to i32
  %46 = add i32 %42, %45
  %47 = urem i32 %46, 138003713
  %48 = mul i32 %47, 31
  %49 = getelementptr inbounds [21 x i8], [21 x i8]* %0, i64 0, i64 8
  %50 = load i8, i8* %49, align 1
  %51 = sext i8 %50 to i32
  %52 = add i32 %48, %51
  %53 = urem i32 %52, 138003713
  %54 = mul i32 %53, 31
  %55 = getelementptr inbounds [21 x i8], [21 x i8]* %0, i64 0, i64 9
  %56 = load i8, i8* %55, align 1
  %57 = sext i8 %56 to i32
  %58 = add i32 %54, %57
  %59 = urem i32 %58, 138003713
  %60 = mul i32 %59, 31
  %61 = getelementptr inbounds [21 x i8], [21 x i8]* %0, i64 0, i64 10
  %62 = load i8, i8* %61, align 1
  %63 = sext i8 %62 to i32
  %64 = add i32 %60, %63
  %65 = urem i32 %64, 138003713
  %66 = mul i32 %65, 31
  %67 = getelementptr inbounds [21 x i8], [21 x i8]* %0, i64 0, i64 11
  %68 = load i8, i8* %67, align 1
  %69 = sext i8 %68 to i32
  %70 = add i32 %66, %69
  %71 = urem i32 %70, 138003713
  %72 = mul i32 %71, 31
  %73 = getelementptr inbounds [21 x i8], [21 x i8]* %0, i64 0, i64 12
  %74 = load i8, i8* %73, align 1
  %75 = sext i8 %74 to i32
  %76 = add i32 %72, %75
  %77 = urem i32 %76, 138003713
  %78 = mul i32 %77, 31
  %79 = getelementptr inbounds [21 x i8], [21 x i8]* %0, i64 0, i64 13
  %80 = load i8, i8* %79, align 1
  %81 = sext i8 %80 to i32
  %82 = add i32 %78, %81
  %83 = urem i32 %82, 138003713
  %84 = mul i32 %83, 31
  %85 = getelementptr inbounds [21 x i8], [21 x i8]* %0, i64 0, i64 14
  %86 = load i8, i8* %85, align 1
  %87 = sext i8 %86 to i32
  %88 = add i32 %84, %87
  %89 = urem i32 %88, 138003713
  %90 = mul i32 %89, 31
  %91 = getelementptr inbounds [21 x i8], [21 x i8]* %0, i64 0, i64 15
  %92 = load i8, i8* %91, align 1
  %93 = sext i8 %92 to i32
  %94 = add i32 %90, %93
  %95 = urem i32 %94, 138003713
  %96 = mul i32 %95, 31
  %97 = getelementptr inbounds [21 x i8], [21 x i8]* %0, i64 0, i64 16
  %98 = load i8, i8* %97, align 1
  %99 = sext i8 %98 to i32
  %100 = add i32 %96, %99
  %101 = urem i32 %100, 138003713
  %102 = mul i32 %101, 31
  %103 = getelementptr inbounds [21 x i8], [21 x i8]* %0, i64 0, i64 17
  %104 = load i8, i8* %103, align 1
  %105 = sext i8 %104 to i32
  %106 = add i32 %102, %105
  %107 = urem i32 %106, 138003713
  %108 = mul i32 %107, 31
  %109 = getelementptr inbounds [21 x i8], [21 x i8]* %0, i64 0, i64 18
  %110 = load i8, i8* %109, align 1
  %111 = sext i8 %110 to i32
  %112 = add i32 %108, %111
  %113 = urem i32 %112, 138003713
  %114 = mul i32 %113, 31
  %115 = getelementptr inbounds [21 x i8], [21 x i8]* %0, i64 0, i64 19
  %116 = load i8, i8* %115, align 1
  %117 = sext i8 %116 to i32
  %118 = add i32 %114, %117
  %119 = urem i32 %118, 138003713
  ret i32 %119
}

; Function Attrs: nounwind ssp uwtable
define hidden void @_ZN7network19OriginPolicyFetcher18OnPolicyHasArrivedENSt3__110unique_ptrINS1_12basic_stringIcNS1_11char_traitsIcEENS1_9allocatorIcEEEENS1_14default_deleteIS8_EEEE(%"class.network::OriginPolicyFetcher"*, %"class.std::__1::basic_string"*) #0 align 2 {
  %3 = alloca %"struct.network::OriginPolicy", align 8
  %4 = alloca %"class.base::OnceCallback.238", align 8
  %5 = bitcast %"struct.network::OriginPolicy"* %3 to i8*
  call void @llvm.lifetime.start.p0i8(i64 136, i8* nonnull %5) #8
  call void @llvm.memset.p0i8.i64(i8* nonnull align 8 %5, i8 -86, i64 136, i1 false)
  call void @_ZN7network12OriginPolicyC1Ev(%"struct.network::OriginPolicy"* nonnull %3) #8
  %6 = icmp ne %"class.std::__1::basic_string"* %1, null
  %7 = xor i1 %6, true
  %8 = zext i1 %7 to i32
  %9 = getelementptr inbounds %"struct.network::OriginPolicy", %"struct.network::OriginPolicy"* %3, i64 0, i32 0
  store i32 %8, i32* %9, align 8
  br i1 %6, label %10, label %32

10:                                               ; preds = %2
  %11 = bitcast %"class.std::__1::basic_string"* %1 to %"struct.std::__1::basic_string<char, std::__1::char_traits<char>, std::__1::allocator<char> >::__short"*
  %12 = getelementptr inbounds %"struct.std::__1::basic_string<char, std::__1::char_traits<char>, std::__1::allocator<char> >::__short", %"struct.std::__1::basic_string<char, std::__1::char_traits<char>, std::__1::allocator<char> >::__short"* %11, i64 0, i32 1, i32 0
  %13 = load i8, i8* %12, align 1
  %14 = icmp slt i8 %13, 0
  %15 = getelementptr inbounds %"class.std::__1::basic_string", %"class.std::__1::basic_string"* %1, i64 0, i32 0, i32 0, i32 0, i32 0, i32 0, i32 0
  %16 = load i8*, i8** %15, align 8
  %17 = bitcast %"class.std::__1::basic_string"* %1 to i8*
  %18 = select i1 %14, i8* %16, i8* %17
  %19 = getelementptr inbounds %"class.std::__1::basic_string", %"class.std::__1::basic_string"* %1, i64 0, i32 0, i32 0, i32 0, i32 0, i32 0, i32 1
  %20 = load i64, i64* %19, align 8
  %21 = zext i8 %13 to i64
  %22 = select i1 %14, i64 %20, i64 %21
  %23 = call %"struct.network::OriginPolicyContents"* @_ZN7network18OriginPolicyParser5ParseEN4base16BasicStringPieceIcNSt3__111char_traitsIcEEEE(i8* %18, i64 %22) #8
  %24 = ptrtoint %"struct.network::OriginPolicyContents"* %23 to i64
  %25 = getelementptr inbounds %"struct.network::OriginPolicy", %"struct.network::OriginPolicy"* %3, i64 0, i32 2
  %26 = getelementptr inbounds %"class.std::__1::unique_ptr.431", %"class.std::__1::unique_ptr.431"* %25, i64 0, i32 0, i32 0, i32 0
  %27 = load %"struct.network::OriginPolicyContents"*, %"struct.network::OriginPolicyContents"** %26, align 8
  %28 = bitcast %"class.std::__1::unique_ptr.431"* %25 to i64*
  store i64 %24, i64* %28, align 8
  %29 = icmp eq %"struct.network::OriginPolicyContents"* %27, null
  br i1 %29, label %32, label %30

30:                                               ; preds = %10
  call void @_ZN7network20OriginPolicyContentsD1Ev(%"struct.network::OriginPolicyContents"* nonnull %27) #8
  %31 = bitcast %"struct.network::OriginPolicyContents"* %27 to i8*
  call void @_ZdlPv(i8* %31) #9
  br label %32

32:                                               ; preds = %10, %30, %2
  %33 = getelementptr inbounds %"class.network::OriginPolicyFetcher", %"class.network::OriginPolicyFetcher"* %0, i64 0, i32 2
  %34 = getelementptr inbounds %"struct.network::OriginPolicy", %"struct.network::OriginPolicy"* %3, i64 0, i32 1
  %35 = call dereferenceable(120) %class.GURL* @_ZN4GURLaSERKS_(%class.GURL* %34, %class.GURL* dereferenceable(120) %33) #8
  %36 = getelementptr inbounds %"class.network::OriginPolicyFetcher", %"class.network::OriginPolicyFetcher"* %0, i64 0, i32 0
  %37 = load %"class.network::OriginPolicyManager"*, %"class.network::OriginPolicyManager"** %36, align 8
  %38 = getelementptr inbounds %"class.network::OriginPolicyFetcher", %"class.network::OriginPolicyFetcher"* %0, i64 0, i32 4
  %39 = getelementptr inbounds %"class.base::OnceCallback.238", %"class.base::OnceCallback.238"* %38, i64 0, i32 0, i32 0, i32 0
  %40 = bitcast %"class.base::OnceCallback.238"* %38 to i64*
  %41 = load i64, i64* %40, align 8
  %42 = bitcast %"class.base::OnceCallback.238"* %4 to i64*
  store i64 %41, i64* %42, align 8
  store %"class.base::internal::BindStateBase"* null, %"class.base::internal::BindStateBase"** %39, align 8
  call void @_ZN7network19OriginPolicyManager11FetcherDoneEPNS_19OriginPolicyFetcherERKNS_12OriginPolicyEN4base12OnceCallbackIFvS5_EEE(%"class.network::OriginPolicyManager"* %37, %"class.network::OriginPolicyFetcher"* %0, %"struct.network::OriginPolicy"* nonnull dereferenceable(136) %3, %"class.base::OnceCallback.238"* nonnull %4) #8
  %43 = getelementptr inbounds %"class.base::OnceCallback.238", %"class.base::OnceCallback.238"* %4, i64 0, i32 0
  call void @_ZN4base8internal12CallbackBaseD2Ev(%"class.base::internal::CallbackBase"* nonnull %43) #8
  call void @_ZN7network12OriginPolicyD1Ev(%"struct.network::OriginPolicy"* nonnull %3) #8
  call void @llvm.lifetime.end.p0i8(i64 136, i8* nonnull %5) #8
  %44 = icmp eq %"class.std::__1::basic_string"* %1, null
  br i1 %44, label %55, label %45

45:                                               ; preds = %32
  %46 = bitcast %"class.std::__1::basic_string"* %1 to %"struct.std::__1::basic_string<char, std::__1::char_traits<char>, std::__1::allocator<char> >::__short"*
  %47 = getelementptr inbounds %"struct.std::__1::basic_string<char, std::__1::char_traits<char>, std::__1::allocator<char> >::__short", %"struct.std::__1::basic_string<char, std::__1::char_traits<char>, std::__1::allocator<char> >::__short"* %46, i64 0, i32 1, i32 0
  %48 = load i8, i8* %47, align 1
  %49 = icmp slt i8 %48, 0
  br i1 %49, label %50, label %53

50:                                               ; preds = %45
  %51 = getelementptr inbounds %"class.std::__1::basic_string", %"class.std::__1::basic_string"* %1, i64 0, i32 0, i32 0, i32 0, i32 0, i32 0, i32 0
  %52 = load i8*, i8** %51, align 8
  call void @_ZdlPv(i8* %52) #9
  br label %53

53:                                               ; preds = %50, %45
  %54 = bitcast %"class.std::__1::basic_string"* %1 to i8*
  call void @_ZdlPv(i8* %54) #9
  br label %55

55:                                               ; preds = %32, %53
  ret void
}

; Function Attrs: nounwind ssp uwtable
define hidden void @_ZN7network19OriginPolicyFetcher17OnResponseStartedERK4GURLRKNS_5mojom15URLResponseHeadE(%"class.network::OriginPolicyFetcher"*, %class.GURL* nocapture readnone dereferenceable(120), %"class.network::mojom::URLResponseHead"* nocapture readonly dereferenceable(1320)) #0 align 2 {
  %4 = alloca %"class.std::__1::basic_string", align 8
  %5 = alloca %"struct.network::OriginPolicy", align 8
  %6 = alloca %"class.base::OnceCallback.238", align 8
  %7 = bitcast %"class.std::__1::basic_string"* %4 to i8*
  call void @llvm.lifetime.start.p0i8(i64 24, i8* nonnull %7) #8
  %8 = getelementptr inbounds %"class.std::__1::basic_string", %"class.std::__1::basic_string"* %4, i64 0, i32 0, i32 0, i32 0, i32 0, i32 0, i32 0
  %9 = getelementptr inbounds %"class.std::__1::basic_string", %"class.std::__1::basic_string"* %4, i64 0, i32 0, i32 0, i32 0, i32 0, i32 0, i32 1
  call void @llvm.memset.p0i8.i64(i8* nonnull align 8 %7, i8 0, i64 24, i1 false) #8
  %10 = getelementptr inbounds %"class.network::mojom::URLResponseHead", %"class.network::mojom::URLResponseHead"* %2, i64 0, i32 2, i32 0
  %11 = load %"class.net::HttpResponseHeaders"*, %"class.net::HttpResponseHeaders"** %10, align 8
  %12 = icmp eq %"class.net::HttpResponseHeaders"* %11, null
  br i1 %12, label %32, label %13

13:                                               ; preds = %3
  %14 = getelementptr inbounds %"class.net::HttpResponseHeaders", %"class.net::HttpResponseHeaders"* %11, i64 0, i32 3
  %15 = load i32, i32* %14, align 8
  %16 = add i32 %15, -200
  %17 = icmp ugt i32 %16, 99
  br i1 %17, label %32, label %18

18:                                               ; preds = %13
  %19 = call zeroext i1 @_ZNK3net19HttpResponseHeaders11GetMimeTypeEPNSt3__112basic_stringIcNS1_11char_traitsIcEENS1_9allocatorIcEEEE(%"class.net::HttpResponseHeaders"* nonnull %11, %"class.std::__1::basic_string"* nonnull %4) #8
  br i1 %19, label %20, label %43

20:                                               ; preds = %18
  %21 = bitcast %"class.std::__1::basic_string"* %4 to %"struct.std::__1::basic_string<char, std::__1::char_traits<char>, std::__1::allocator<char> >::__short"*
  %22 = getelementptr inbounds %"struct.std::__1::basic_string<char, std::__1::char_traits<char>, std::__1::allocator<char> >::__short", %"struct.std::__1::basic_string<char, std::__1::char_traits<char>, std::__1::allocator<char> >::__short"* %21, i64 0, i32 1, i32 0
  %23 = load i8, i8* %22, align 1
  %24 = icmp slt i8 %23, 0
  %25 = load i64, i64* %9, align 8
  %26 = zext i8 %23 to i64
  %27 = select i1 %24, i64 %25, i64 %26
  %28 = icmp eq i64 %27, 29
  br i1 %28, label %29, label %32

29:                                               ; preds = %20
  %30 = call i32 @_ZNKSt3__112basic_stringIcNS_11char_traitsIcEENS_9allocatorIcEEE7compareEmmPKcm(%"class.std::__1::basic_string"* nonnull %4, i64 0, i64 -1, i8* getelementptr inbounds ([30 x i8], [30 x i8]* @.str.2, i64 0, i64 0), i64 29) #8
  %31 = icmp eq i32 %30, 0
  br i1 %31, label %43, label %32

32:                                               ; preds = %29, %3, %20, %13
  %33 = bitcast %"struct.network::OriginPolicy"* %5 to i8*
  call void @llvm.lifetime.start.p0i8(i64 136, i8* nonnull %33) #8
  call void @llvm.memset.p0i8.i64(i8* nonnull align 8 %33, i8 -86, i64 136, i1 false)
  call void @_ZN7network12OriginPolicyC1Ev(%"struct.network::OriginPolicy"* nonnull %5) #8
  %34 = getelementptr inbounds %"struct.network::OriginPolicy", %"struct.network::OriginPolicy"* %5, i64 0, i32 0
  store i32 3, i32* %34, align 8
  %35 = getelementptr inbounds %"class.network::OriginPolicyFetcher", %"class.network::OriginPolicyFetcher"* %0, i64 0, i32 0
  %36 = load %"class.network::OriginPolicyManager"*, %"class.network::OriginPolicyManager"** %35, align 8
  %37 = getelementptr inbounds %"class.network::OriginPolicyFetcher", %"class.network::OriginPolicyFetcher"* %0, i64 0, i32 4
  %38 = getelementptr inbounds %"class.base::OnceCallback.238", %"class.base::OnceCallback.238"* %37, i64 0, i32 0, i32 0, i32 0
  %39 = bitcast %"class.base::OnceCallback.238"* %37 to i64*
  %40 = load i64, i64* %39, align 8
  %41 = bitcast %"class.base::OnceCallback.238"* %6 to i64*
  store i64 %40, i64* %41, align 8
  store %"class.base::internal::BindStateBase"* null, %"class.base::internal::BindStateBase"** %38, align 8
  call void @_ZN7network19OriginPolicyManager11FetcherDoneEPNS_19OriginPolicyFetcherERKNS_12OriginPolicyEN4base12OnceCallbackIFvS5_EEE(%"class.network::OriginPolicyManager"* %36, %"class.network::OriginPolicyFetcher"* %0, %"struct.network::OriginPolicy"* nonnull dereferenceable(136) %5, %"class.base::OnceCallback.238"* nonnull %6) #8
  %42 = getelementptr inbounds %"class.base::OnceCallback.238", %"class.base::OnceCallback.238"* %6, i64 0, i32 0
  call void @_ZN4base8internal12CallbackBaseD2Ev(%"class.base::internal::CallbackBase"* nonnull %42) #8
  call void @_ZN7network12OriginPolicyD1Ev(%"struct.network::OriginPolicy"* nonnull %5) #8
  call void @llvm.lifetime.end.p0i8(i64 136, i8* nonnull %33) #8
  br label %43

43:                                               ; preds = %29, %32, %18
  %44 = bitcast %"class.std::__1::basic_string"* %4 to %"struct.std::__1::basic_string<char, std::__1::char_traits<char>, std::__1::allocator<char> >::__short"*
  %45 = getelementptr inbounds %"struct.std::__1::basic_string<char, std::__1::char_traits<char>, std::__1::allocator<char> >::__short", %"struct.std::__1::basic_string<char, std::__1::char_traits<char>, std::__1::allocator<char> >::__short"* %44, i64 0, i32 1, i32 0
  %46 = load i8, i8* %45, align 1
  %47 = icmp slt i8 %46, 0
  br i1 %47, label %48, label %50

48:                                               ; preds = %43
  %49 = load i8*, i8** %8, align 8
  call void @_ZdlPv(i8* %49) #9
  br label %50

50:                                               ; preds = %43, %48
  call void @llvm.lifetime.end.p0i8(i64 24, i8* nonnull %7) #8
  ret void
}

declare dereferenceable(120) %class.GURL* @_ZN4GURLaSERKS_(%class.GURL*, %class.GURL* dereferenceable(120)) local_unnamed_addr #1

declare void @_ZN7network15ResourceRequest13TrustedParamsC1Ev(%"struct.network::ResourceRequest::TrustedParams"*) unnamed_addr #1

; Function Attrs: nounwind
declare void @_ZN7network15ResourceRequest13TrustedParamsD1Ev(%"struct.network::ResourceRequest::TrustedParams"*) unnamed_addr #2

declare dereferenceable(496) %"class.net::IsolationInfo"* @_ZN3net13IsolationInfoaSERKS0_(%"class.net::IsolationInfo"*, %"class.net::IsolationInfo"* dereferenceable(496)) local_unnamed_addr #1

declare %"class.network::SimpleURLLoader"* @_ZN7network15SimpleURLLoader6CreateENSt3__110unique_ptrINS_15ResourceRequestENS1_14default_deleteIS3_EEEERKN3net27NetworkTrafficAnnotationTagE(%"struct.network::ResourceRequest"*, %"struct.net::NetworkTrafficAnnotationTag"* dereferenceable(4)) local_unnamed_addr #1

declare zeroext i1 @_ZNK3net19HttpResponseHeaders11GetMimeTypeEPNSt3__112basic_stringIcNS1_11char_traitsIcEENS1_9allocatorIcEEEE(%"class.net::HttpResponseHeaders"*, %"class.std::__1::basic_string"*) local_unnamed_addr #1

; Function Attrs: argmemonly nounwind
declare void @llvm.memset.p0i8.i64(i8* nocapture writeonly, i8, i64, i1 immarg) #3

declare void @_ZN7network12OriginPolicyC1Ev(%"struct.network::OriginPolicy"*) unnamed_addr #1

declare void @_ZN7network19OriginPolicyManager11FetcherDoneEPNS_19OriginPolicyFetcherERKNS_12OriginPolicyEN4base12OnceCallbackIFvS5_EEE(%"class.network::OriginPolicyManager"*, %"class.network::OriginPolicyFetcher"*, %"struct.network::OriginPolicy"* dereferenceable(136), %"class.base::OnceCallback.238"*) local_unnamed_addr #1

; Function Attrs: nounwind
declare void @_ZN7network12OriginPolicyD1Ev(%"struct.network::OriginPolicy"*) unnamed_addr #2

declare %"struct.network::OriginPolicyContents"* @_ZN7network18OriginPolicyParser5ParseEN4base16BasicStringPieceIcNSt3__111char_traitsIcEEEE(i8*, i64) local_unnamed_addr #1

declare void @_ZN4base6StrCatENS_4spanIKNS_16BasicStringPieceIcNSt3__111char_traitsIcEEEELm18446744073709551615EEE(%"class.std::__1::basic_string"* sret, i64, %"class.base::BasicStringPiece"*) local_unnamed_addr #1

; Function Attrs: noreturn
declare void @_ZN4absl17optional_internal25throw_bad_optional_accessEv() local_unnamed_addr #4

; Function Attrs: nobuiltin nounwind
declare void @_ZdlPv(i8*) local_unnamed_addr #5

; Function Attrs: nounwind ssp uwtable
define linkonce_odr hidden void @_ZN4base8internal7InvokerINS0_9BindStateIMN7network19OriginPolicyFetcherEFvNSt3__110unique_ptrINS5_12basic_stringIcNS5_11char_traitsIcEENS5_9allocatorIcEEEENS5_14default_deleteISC_EEEEEJNS0_17UnretainedWrapperIS4_EEEEEFvSF_EE7RunOnceEPNS0_13BindStateBaseEOSF_(%"class.base::internal::BindStateBase"*, %"class.std::__1::unique_ptr.246"* dereferenceable(8)) #0 comdat align 2 {
  %3 = getelementptr inbounds %"class.base::internal::BindStateBase", %"class.base::internal::BindStateBase"* %0, i64 1
  %4 = getelementptr inbounds %"class.base::internal::BindStateBase", %"class.base::internal::BindStateBase"* %0, i64 1, i32 2
  %5 = bitcast void (%"class.base::internal::BindStateBase"*)** %4 to i8**
  %6 = load i8*, i8** %5, align 8
  %7 = bitcast %"class.base::internal::BindStateBase"* %3 to i64*
  %8 = load i64, i64* %7, align 8
  %9 = getelementptr inbounds %"class.base::internal::BindStateBase", %"class.base::internal::BindStateBase"* %0, i64 1, i32 1
  %10 = bitcast void ()** %9 to i64*
  %11 = load i64, i64* %10, align 8
  %12 = getelementptr inbounds i8, i8* %6, i64 %11
  %13 = bitcast i8* %12 to %"class.network::OriginPolicyFetcher"*
  %14 = and i64 %8, 1
  %15 = icmp eq i64 %14, 0
  br i1 %15, label %23, label %16

16:                                               ; preds = %2
  %17 = bitcast i8* %12 to i8**
  %18 = load i8*, i8** %17, align 8
  %19 = add i64 %8, -1
  %20 = getelementptr i8, i8* %18, i64 %19
  %21 = bitcast i8* %20 to void (%"class.network::OriginPolicyFetcher"*, %"class.std::__1::basic_string"*)**
  %22 = load void (%"class.network::OriginPolicyFetcher"*, %"class.std::__1::basic_string"*)*, void (%"class.network::OriginPolicyFetcher"*, %"class.std::__1::basic_string"*)** %21, align 8
  br label %25

23:                                               ; preds = %2
  %24 = inttoptr i64 %8 to void (%"class.network::OriginPolicyFetcher"*, %"class.std::__1::basic_string"*)*
  br label %25

25:                                               ; preds = %16, %23
  %26 = phi void (%"class.network::OriginPolicyFetcher"*, %"class.std::__1::basic_string"*)* [ %22, %16 ], [ %24, %23 ]
  %27 = getelementptr inbounds %"class.std::__1::unique_ptr.246", %"class.std::__1::unique_ptr.246"* %1, i64 0, i32 0, i32 0, i32 0
  %28 = load %"class.std::__1::basic_string"*, %"class.std::__1::basic_string"** %27, align 8
  store %"class.std::__1::basic_string"* null, %"class.std::__1::basic_string"** %27, align 8
  tail call void %26(%"class.network::OriginPolicyFetcher"* %13, %"class.std::__1::basic_string"* %28) #8
  ret void
}

; Function Attrs: nobuiltin nofree
declare noalias nonnull i8* @_Znwm(i64) local_unnamed_addr #6

; Function Attrs: nounwind ssp uwtable
define linkonce_odr hidden void @_ZN4base8internal9BindStateIMN7network19OriginPolicyFetcherEFvNSt3__110unique_ptrINS4_12basic_stringIcNS4_11char_traitsIcEENS4_9allocatorIcEEEENS4_14default_deleteISB_EEEEEJNS0_17UnretainedWrapperIS3_EEEE7DestroyEPKNS0_13BindStateBaseE(%"class.base::internal::BindStateBase"*) #0 comdat align 2 {
  %2 = icmp eq %"class.base::internal::BindStateBase"* %0, null
  br i1 %2, label %5, label %3

3:                                                ; preds = %1
  %4 = bitcast %"class.base::internal::BindStateBase"* %0 to i8*
  tail call void @_ZdlPv(i8* %4) #9
  br label %5

5:                                                ; preds = %3, %1
  ret void
}

declare void @_ZN4base8internal13BindStateBaseC2EPFvvEPFvPKS1_E(%"class.base::internal::BindStateBase"*, void ()*, void (%"class.base::internal::BindStateBase"*)*) unnamed_addr #1

; Function Attrs: nounwind ssp uwtable
define linkonce_odr hidden void @_ZN4base8internal7InvokerINS0_9BindStateIMN7network19OriginPolicyFetcherEFvRK4GURLRKNS3_5mojom15URLResponseHeadEEJNS0_17UnretainedWrapperIS4_EEEEEFvS7_SB_EE7RunOnceEPNS0_13BindStateBaseES7_SB_(%"class.base::internal::BindStateBase"*, %class.GURL* dereferenceable(120), %"class.network::mojom::URLResponseHead"* dereferenceable(1320)) #0 comdat align 2 {
  %4 = getelementptr inbounds %"class.base::internal::BindStateBase", %"class.base::internal::BindStateBase"* %0, i64 1
  %5 = getelementptr inbounds %"class.base::internal::BindStateBase", %"class.base::internal::BindStateBase"* %0, i64 1, i32 2
  %6 = bitcast void (%"class.base::internal::BindStateBase"*)** %5 to i8**
  %7 = load i8*, i8** %6, align 8
  %8 = bitcast %"class.base::internal::BindStateBase"* %4 to i64*
  %9 = load i64, i64* %8, align 8
  %10 = getelementptr inbounds %"class.base::internal::BindStateBase", %"class.base::internal::BindStateBase"* %0, i64 1, i32 1
  %11 = bitcast void ()** %10 to i64*
  %12 = load i64, i64* %11, align 8
  %13 = getelementptr inbounds i8, i8* %7, i64 %12
  %14 = bitcast i8* %13 to %"class.network::OriginPolicyFetcher"*
  %15 = and i64 %9, 1
  %16 = icmp eq i64 %15, 0
  br i1 %16, label %24, label %17

17:                                               ; preds = %3
  %18 = bitcast i8* %13 to i8**
  %19 = load i8*, i8** %18, align 8
  %20 = add i64 %9, -1
  %21 = getelementptr i8, i8* %19, i64 %20
  %22 = bitcast i8* %21 to void (%"class.network::OriginPolicyFetcher"*, %class.GURL*, %"class.network::mojom::URLResponseHead"*)**
  %23 = load void (%"class.network::OriginPolicyFetcher"*, %class.GURL*, %"class.network::mojom::URLResponseHead"*)*, void (%"class.network::OriginPolicyFetcher"*, %class.GURL*, %"class.network::mojom::URLResponseHead"*)** %22, align 8
  br label %26

24:                                               ; preds = %3
  %25 = inttoptr i64 %9 to void (%"class.network::OriginPolicyFetcher"*, %class.GURL*, %"class.network::mojom::URLResponseHead"*)*
  br label %26

26:                                               ; preds = %17, %24
  %27 = phi void (%"class.network::OriginPolicyFetcher"*, %class.GURL*, %"class.network::mojom::URLResponseHead"*)* [ %23, %17 ], [ %25, %24 ]
  tail call void %27(%"class.network::OriginPolicyFetcher"* %14, %class.GURL* dereferenceable(120) %1, %"class.network::mojom::URLResponseHead"* dereferenceable(1320) %2) #8
  ret void
}

; Function Attrs: nounwind ssp uwtable
define linkonce_odr hidden void @_ZN4base8internal9BindStateIMN7network19OriginPolicyFetcherEFvRK4GURLRKNS2_5mojom15URLResponseHeadEEJNS0_17UnretainedWrapperIS3_EEEE7DestroyEPKNS0_13BindStateBaseE(%"class.base::internal::BindStateBase"*) #0 comdat align 2 {
  %2 = icmp eq %"class.base::internal::BindStateBase"* %0, null
  br i1 %2, label %5, label %3

3:                                                ; preds = %1
  %4 = bitcast %"class.base::internal::BindStateBase"* %0 to i8*
  tail call void @_ZdlPv(i8* %4) #9
  br label %5

5:                                                ; preds = %3, %1
  ret void
}

declare void @_ZN7network15ResourceRequestC1Ev(%"struct.network::ResourceRequest"*) unnamed_addr #1

declare dereferenceable(80) %"class.url::Origin"* @_ZN3url6OriginaSERKS0_(%"class.url::Origin"*, %"class.url::Origin"* dereferenceable(80)) local_unnamed_addr #1

declare void @_ZN3url6OriginC1ERKS0_(%"class.url::Origin"*, %"class.url::Origin"* dereferenceable(80)) unnamed_addr #1

declare dereferenceable(544) %"struct.network::ResourceRequest::TrustedParams"* @_ZN7network15ResourceRequest13TrustedParamsaSERKS1_(%"struct.network::ResourceRequest::TrustedParams"*, %"struct.network::ResourceRequest::TrustedParams"* dereferenceable(544)) local_unnamed_addr #1

declare void @_ZN7network15ResourceRequest13TrustedParamsC1ERKS1_(%"struct.network::ResourceRequest::TrustedParams"*, %"struct.network::ResourceRequest::TrustedParams"* dereferenceable(544)) unnamed_addr #1

; Function Attrs: cold noreturn nounwind
declare void @llvm.trap() #7

declare i32 @_ZNKSt3__112basic_stringIcNS_11char_traitsIcEENS_9allocatorIcEEE7compareEmmPKcm(%"class.std::__1::basic_string"*, i64, i64, i8*, i64) local_unnamed_addr #1

; Function Attrs: nounwind
declare void @_ZN7network20OriginPolicyContentsD1Ev(%"struct.network::OriginPolicyContents"*) unnamed_addr #2

attributes #0 = { nounwind ssp uwtable "correctly-rounded-divide-sqrt-fp-math"="false" "disable-tail-calls"="false" "less-precise-fpmad"="false" "min-legal-vector-width"="0" "no-frame-pointer-elim"="false" "no-frame-pointer-elim-non-leaf" "no-infs-fp-math"="false" "no-jump-tables"="false" "no-nans-fp-math"="false" "no-signed-zeros-fp-math"="false" "no-trapping-math"="false" "null-pointer-is-valid"="true" "stack-protector-buffer-size"="4" "target-cpu"="x86-64" "target-features"="+cx8,+fxsr,+mmx,+sse,+sse2,+sse3,+x87" "unsafe-fp-math"="false" "use-soft-float"="false" }
attributes #1 = { "correctly-rounded-divide-sqrt-fp-math"="false" "disable-tail-calls"="false" "less-precise-fpmad"="false" "no-frame-pointer-elim"="false" "no-frame-pointer-elim-non-leaf" "no-infs-fp-math"="false" "no-nans-fp-math"="false" "no-signed-zeros-fp-math"="false" "no-trapping-math"="false" "null-pointer-is-valid"="true" "stack-protector-buffer-size"="4" "target-cpu"="x86-64" "target-features"="+cx8,+fxsr,+mmx,+sse,+sse2,+sse3,+x87" "unsafe-fp-math"="false" "use-soft-float"="false" }
attributes #2 = { nounwind "correctly-rounded-divide-sqrt-fp-math"="false" "disable-tail-calls"="false" "less-precise-fpmad"="false" "no-frame-pointer-elim"="false" "no-frame-pointer-elim-non-leaf" "no-infs-fp-math"="false" "no-nans-fp-math"="false" "no-signed-zeros-fp-math"="false" "no-trapping-math"="false" "null-pointer-is-valid"="true" "stack-protector-buffer-size"="4" "target-cpu"="x86-64" "target-features"="+cx8,+fxsr,+mmx,+sse,+sse2,+sse3,+x87" "unsafe-fp-math"="false" "use-soft-float"="false" }
attributes #3 = { argmemonly nounwind }
attributes #4 = { noreturn "correctly-rounded-divide-sqrt-fp-math"="false" "disable-tail-calls"="false" "less-precise-fpmad"="false" "no-frame-pointer-elim"="false" "no-frame-pointer-elim-non-leaf" "no-infs-fp-math"="false" "no-nans-fp-math"="false" "no-signed-zeros-fp-math"="false" "no-trapping-math"="false" "null-pointer-is-valid"="true" "stack-protector-buffer-size"="4" "target-cpu"="x86-64" "target-features"="+cx8,+fxsr,+mmx,+sse,+sse2,+sse3,+x87" "unsafe-fp-math"="false" "use-soft-float"="false" }
attributes #5 = { nobuiltin nounwind "correctly-rounded-divide-sqrt-fp-math"="false" "disable-tail-calls"="false" "less-precise-fpmad"="false" "no-frame-pointer-elim"="false" "no-frame-pointer-elim-non-leaf" "no-infs-fp-math"="false" "no-nans-fp-math"="false" "no-signed-zeros-fp-math"="false" "no-trapping-math"="false" "null-pointer-is-valid"="true" "stack-protector-buffer-size"="4" "target-cpu"="x86-64" "target-features"="+cx8,+fxsr,+mmx,+sse,+sse2,+sse3,+x87" "unsafe-fp-math"="false" "use-soft-float"="false" }
attributes #6 = { nobuiltin nofree "correctly-rounded-divide-sqrt-fp-math"="false" "disable-tail-calls"="false" "less-precise-fpmad"="false" "no-frame-pointer-elim"="false" "no-frame-pointer-elim-non-leaf" "no-infs-fp-math"="false" "no-nans-fp-math"="false" "no-signed-zeros-fp-math"="false" "no-trapping-math"="false" "null-pointer-is-valid"="true" "stack-protector-buffer-size"="4" "target-cpu"="x86-64" "target-features"="+cx8,+fxsr,+mmx,+sse,+sse2,+sse3,+x87" "unsafe-fp-math"="false" "use-soft-float"="false" }
attributes #7 = { cold noreturn nounwind }
attributes #8 = { nounwind }
attributes #9 = { builtin nounwind }
attributes #10 = { noreturn nounwind }

!llvm.module.flags = !{!0, !1}

!0 = !{i32 1, !"wchar_size", i32 4}
!1 = !{i32 7, !"PIC Level", i32 2}
!2 = !{!3, !5}
!3 = distinct !{!3, !4, !"_ZN4base8internal8BindImplINS_12OnceCallbackEMN7network19OriginPolicyFetcherEFvNSt3__110unique_ptrINS5_12basic_stringIcNS5_11char_traitsIcEENS5_9allocatorIcEEEENS5_14default_deleteISC_EEEEEJNS0_17UnretainedWrapperIS4_EEEEEDcOT0_DpOT1_: argument 0"}
!4 = distinct !{!4, !"_ZN4base8internal8BindImplINS_12OnceCallbackEMN7network19OriginPolicyFetcherEFvNSt3__110unique_ptrINS5_12basic_stringIcNS5_11char_traitsIcEENS5_9allocatorIcEEEENS5_14default_deleteISC_EEEEEJNS0_17UnretainedWrapperIS4_EEEEEDcOT0_DpOT1_"}
!5 = distinct !{!5, !6, !"_ZN4base8BindOnceIMN7network19OriginPolicyFetcherEFvNSt3__110unique_ptrINS3_12basic_stringIcNS3_11char_traitsIcEENS3_9allocatorIcEEEENS3_14default_deleteISA_EEEEEJNS_8internal17UnretainedWrapperIS2_EEEEENS_12OnceCallbackINSG_14BindTypeHelperIT_JDpT0_EE14UnboundRunTypeEEEOSL_DpOSM_: argument 0"}
!6 = distinct !{!6, !"_ZN4base8BindOnceIMN7network19OriginPolicyFetcherEFvNSt3__110unique_ptrINS3_12basic_stringIcNS3_11char_traitsIcEENS3_9allocatorIcEEEENS3_14default_deleteISA_EEEEEJNS_8internal17UnretainedWrapperIS2_EEEEENS_12OnceCallbackINSG_14BindTypeHelperIT_JDpT0_EE14UnboundRunTypeEEEOSL_DpOSM_"}
!7 = !{!8, !10}
!8 = distinct !{!8, !9, !"_ZN4base8internal8BindImplINS_12OnceCallbackEMN7network19OriginPolicyFetcherEFvRK4GURLRKNS3_5mojom15URLResponseHeadEEJNS0_17UnretainedWrapperIS4_EEEEEDcOT0_DpOT1_: argument 0"}
!9 = distinct !{!9, !"_ZN4base8internal8BindImplINS_12OnceCallbackEMN7network19OriginPolicyFetcherEFvRK4GURLRKNS3_5mojom15URLResponseHeadEEJNS0_17UnretainedWrapperIS4_EEEEEDcOT0_DpOT1_"}
!10 = distinct !{!10, !11, !"_ZN4base8BindOnceIMN7network19OriginPolicyFetcherEFvRK4GURLRKNS1_5mojom15URLResponseHeadEEJNS_8internal17UnretainedWrapperIS2_EEEEENS_12OnceCallbackINSC_14BindTypeHelperIT_JDpT0_EE14UnboundRunTypeEEEOSH_DpOSI_: argument 0"}
!11 = distinct !{!11, !"_ZN4base8BindOnceIMN7network19OriginPolicyFetcherEFvRK4GURLRKNS1_5mojom15URLResponseHeadEEJNS_8internal17UnretainedWrapperIS2_EEEEENS_12OnceCallbackINSC_14BindTypeHelperIT_JDpT0_EE14UnboundRunTypeEEEOSH_DpOSI_"}
!12 = !{i8 0, i8 2}
!13 = !{!"branch_weights", i32 1, i32 2000}
