; ModuleID = '../../crypto/p224_spake.cc'
source_filename = "../../crypto/p224_spake.cc"
target datalayout = "e-m:e-i64:64-f80:128-n8:16:32:64-S128"
target triple = "x86_64-unknown-linux-gnu"

module asm ".symver exp, exp@GLIBC_2.2.5"
module asm ".symver exp2, exp2@GLIBC_2.2.5"
module asm ".symver exp2f, exp2f@GLIBC_2.2.5"
module asm ".symver expf, expf@GLIBC_2.2.5"
module asm ".symver lgamma, lgamma@GLIBC_2.2.5"
module asm ".symver lgammaf, lgammaf@GLIBC_2.2.5"
module asm ".symver lgammal, lgammal@GLIBC_2.2.5"
module asm ".symver log, log@GLIBC_2.2.5"
module asm ".symver log2, log2@GLIBC_2.2.5"
module asm ".symver log2f, log2f@GLIBC_2.2.5"
module asm ".symver logf, logf@GLIBC_2.2.5"
module asm ".symver pow, pow@GLIBC_2.2.5"
module asm ".symver powf, powf@GLIBC_2.2.5"

%"class.std::__1::locale::id" = type <{ %"struct.std::__1::once_flag", i32, [4 x i8] }>
%"struct.std::__1::once_flag" = type { i64 }
%"class.crypto::P224EncryptedKeyExchange" = type { i32, i8, %"class.std::__1::basic_string", %"class.std::__1::basic_string", [28 x i8], [28 x i8], [32 x i8], %"class.std::__1::basic_string" }
%"class.std::__1::basic_string" = type { %"class.std::__1::__compressed_pair" }
%"class.std::__1::__compressed_pair" = type { %"struct.std::__1::__compressed_pair_elem" }
%"struct.std::__1::__compressed_pair_elem" = type { %"struct.std::__1::basic_string<char, std::__1::char_traits<char>, std::__1::allocator<char> >::__rep" }
%"struct.std::__1::basic_string<char, std::__1::char_traits<char>, std::__1::allocator<char> >::__rep" = type { %union.anon }
%union.anon = type { %"struct.std::__1::basic_string<char, std::__1::char_traits<char>, std::__1::allocator<char> >::__long" }
%"struct.std::__1::basic_string<char, std::__1::char_traits<char>, std::__1::allocator<char> >::__long" = type { i8*, i64, i64 }
%"class.std::__1::__basic_string_common" = type { i8 }
%"struct.std::__1::basic_string<char, std::__1::char_traits<char>, std::__1::allocator<char> >::__short" = type { [23 x i8], %struct.anon }
%struct.anon = type { i8 }
%"class.logging::CheckError" = type { %"class.logging::LogMessage"* }
%"class.logging::LogMessage" = type { i32 (...)**, i32, %"class.std::__1::basic_ostringstream", i64, i8*, i32, %"class.base::ScopedClearLastErrorBase" }
%"class.std::__1::basic_ostringstream" = type { %"class.std::__1::basic_ostream.base", %"class.std::__1::basic_stringbuf", %"class.std::__1::basic_ios.base" }
%"class.std::__1::basic_ostream.base" = type { i32 (...)** }
%"class.std::__1::basic_stringbuf" = type <{ %"class.std::__1::basic_streambuf", %"class.std::__1::basic_string", i8*, i32, [4 x i8] }>
%"class.std::__1::basic_streambuf" = type { i32 (...)**, %"class.std::__1::locale", i8*, i8*, i8*, i8*, i8*, i8* }
%"class.std::__1::locale" = type { %"class.std::__1::locale::__imp"* }
%"class.std::__1::locale::__imp" = type opaque
%"class.std::__1::basic_ios.base" = type <{ %"class.std::__1::ios_base", %"class.std::__1::basic_ostream"*, i32 }>
%"class.std::__1::ios_base" = type { i32 (...)**, i32, i64, i64, i32, i32, i8*, i8*, void (i32, %"class.std::__1::ios_base"*, i32)**, i32*, i64, i64, i64*, i64, i64, i8**, i64, i64 }
%"class.std::__1::basic_ostream" = type { i32 (...)**, %"class.std::__1::basic_ios.base" }
%"class.base::ScopedClearLastErrorBase" = type { i32 }
%struct.ec_group_st = type opaque
%struct.ec_point_st = type opaque
%struct.bignum_st = type { i64*, i32, i32, i32, i32 }
%struct.bignum_ctx = type opaque
%"class.std::__1::basic_ostream<char, std::__1::char_traits<char> >::sentry" = type { i8, %"class.std::__1::basic_ostream"* }
%"class.std::__1::locale::facet" = type { %"class.std::__1::__shared_count" }
%"class.std::__1::__shared_count" = type { i32 (...)**, i64 }
%"class.std::__1::ctype" = type <{ %"class.std::__1::locale::facet", i16*, i8, [7 x i8] }>

$_ZNSt3__124__put_character_sequenceIcNS_11char_traitsIcEEEERNS_13basic_ostreamIT_T0_EES7_PKS4_m = comdat any

$_ZNSt3__116__pad_and_outputIcNS_11char_traitsIcEEEENS_19ostreambuf_iteratorIT_T0_EES6_PKS4_S8_S8_RNS_8ios_baseES4_ = comdat any

@.str = private unnamed_addr constant [27 x i8] c"../../crypto/p224_spake.cc\00", align 1
@.str.1 = private unnamed_addr constant [73 x i8] c"EC_POINT_mul(p224.get(), X.get(), x_bn.get(), nullptr, nullptr, nullptr)\00", align 1
@.str.2 = private unnamed_addr constant [68 x i8] c"EC_POINT_add(p224.get(), Xstar.get(), X.get(), MNpw.get(), nullptr)\00", align 1
@.str.3 = private unnamed_addr constant [62 x i8] c"P224EncryptedKeyExchange::GetNextMessage called in bad state \00", align 1
@.str.5 = private unnamed_addr constant [34 x i8] c"peer's hash had an incorrect size\00", align 1
@.str.6 = private unnamed_addr constant [32 x i8] c"peer's hash had incorrect value\00", align 1
@.str.7 = private unnamed_addr constant [62 x i8] c"P224EncryptedKeyExchange::ProcessMessage called in bad state \00", align 1
@.str.8 = private unnamed_addr constant [15 x i8] c"internal error\00", align 1
@.str.9 = private unnamed_addr constant [51 x i8] c"failed to parse peer's masked Diffie-Hellman value\00", align 1
@.str.10 = private unnamed_addr constant [49 x i8] c"EC_POINT_invert(p224.get(), MNpw.get(), nullptr)\00", align 1
@.str.11 = private unnamed_addr constant [68 x i8] c"EC_POINT_add(p224.get(), Y.get(), Ystar.get(), MNpw.get(), nullptr)\00", align 1
@.str.12 = private unnamed_addr constant [73 x i8] c"EC_POINT_mul(p224.get(), K.get(), nullptr, Y.get(), x_bn.get(), nullptr)\00", align 1
@.str.13 = private unnamed_addr constant [7 x i8] c"server\00", align 1
@.str.14 = private unnamed_addr constant [7 x i8] c"client\00", align 1
@.str.15 = private unnamed_addr constant [70 x i8] c"BN_bin2bn(big_endian_bytes.data(), big_endian_bytes.size(), bn.get())\00", align 1
@_ZN12_GLOBAL__N_17kM_X962E = internal constant [57 x i8] c"\04MH\C8\EA\8D#9.\07\E8Q\FAj\A8 H\09N\05\13rI\9Co\BAb\A7Kl\18\5C\AB\D5..\8A\9E-!\B0\ECN\E1A!\1F\E2\9Dd\EAM\04F:\E83", align 16
@_ZN12_GLOBAL__N_17kN_X962E = internal constant [57 x i8] c"\04\0B\1C\FCj@|\DC\B1]\C1pL\D1>\DA\AB\8F\DE\FF\8C\FB\FBP\D2\C8\1D\E2\C2>\14\F6)\96\08\09\07\B5m\D2\82\07\1A\A7\A1!\C3\994\BC0\DA[\CB\C6\A3\CC", align 16
@.str.16 = private unnamed_addr constant [72 x i8] c"EC_POINT_mul(p224, MNpw.get(), nullptr, MN.get(), pw_bn.get(), nullptr)\00", align 1
@.str.17 = private unnamed_addr constant [73 x i8] c"EC_POINT_oct2point(p224, point.get(), x962.data(), x962.size(), nullptr)\00", align 1
@.str.20 = private unnamed_addr constant [105 x i8] c"EC_POINT_point2oct(p224, in, POINT_CONVERSION_UNCOMPRESSED, x962, sizeof(x962), nullptr) == sizeof(x962)\00", align 1
@_ZNSt3__15ctypeIcE2idE = external global %"class.std::__1::locale::id", align 8

@_ZN6crypto24P224EncryptedKeyExchangeC1ENS0_8PeerTypeEN4base16BasicStringPieceIcNSt3__111char_traitsIcEEEE = hidden unnamed_addr alias void (%"class.crypto::P224EncryptedKeyExchange"*, i32, i8*, i64), void (%"class.crypto::P224EncryptedKeyExchange"*, i32, i8*, i64)* @_ZN6crypto24P224EncryptedKeyExchangeC2ENS0_8PeerTypeEN4base16BasicStringPieceIcNSt3__111char_traitsIcEEEE

; Function Attrs: nounwind ssp uwtable
define hidden void @_ZN6crypto24P224EncryptedKeyExchangeC2ENS0_8PeerTypeEN4base16BasicStringPieceIcNSt3__111char_traitsIcEEEE(%"class.crypto::P224EncryptedKeyExchange"*, i32, i8*, i64) unnamed_addr #0 align 2 {
  %5 = alloca %"class.std::__1::basic_string", align 8
  %6 = getelementptr inbounds %"class.crypto::P224EncryptedKeyExchange", %"class.crypto::P224EncryptedKeyExchange"* %0, i64 0, i32 0
  store i32 0, i32* %6, align 8
  %7 = getelementptr inbounds %"class.crypto::P224EncryptedKeyExchange", %"class.crypto::P224EncryptedKeyExchange"* %0, i64 0, i32 1
  %8 = icmp eq i32 %1, 1
  %9 = zext i1 %8 to i8
  store i8 %9, i8* %7, align 4
  %10 = getelementptr inbounds %"class.crypto::P224EncryptedKeyExchange", %"class.crypto::P224EncryptedKeyExchange"* %0, i64 0, i32 2
  %11 = getelementptr inbounds %"class.crypto::P224EncryptedKeyExchange", %"class.crypto::P224EncryptedKeyExchange"* %0, i64 0, i32 4, i64 0
  %12 = getelementptr inbounds %"class.crypto::P224EncryptedKeyExchange", %"class.crypto::P224EncryptedKeyExchange"* %0, i64 0, i32 6, i64 0
  %13 = bitcast %"class.std::__1::basic_string"* %10 to i8*
  call void @llvm.memset.p0i8.i64(i8* align 8 %13, i8 0, i64 76, i1 false)
  call void @llvm.memset.p0i8.i64(i8* align 8 %12, i8 0, i64 56, i1 false)
  tail call void @_ZN6crypto9RandBytesEPvm(i8* %11, i64 28) #8
  %14 = bitcast %"class.std::__1::basic_string"* %5 to i8*
  call void @llvm.lifetime.start.p0i8(i64 24, i8* nonnull %14) #8
  %15 = icmp ugt i64 %3, -17
  br i1 %15, label %16, label %18

16:                                               ; preds = %4
  %17 = bitcast %"class.std::__1::basic_string"* %5 to %"class.std::__1::__basic_string_common"*
  call void @_ZNKSt3__121__basic_string_commonILb1EE20__throw_length_errorEv(%"class.std::__1::__basic_string_common"* nonnull %17) #9
  unreachable

18:                                               ; preds = %4
  %19 = icmp ult i64 %3, 23
  br i1 %19, label %29, label %20

20:                                               ; preds = %18
  %21 = add nuw i64 %3, 16
  %22 = and i64 %21, -16
  %23 = tail call i8* @_Znwm(i64 %22) #10
  %24 = getelementptr inbounds %"class.std::__1::basic_string", %"class.std::__1::basic_string"* %5, i64 0, i32 0, i32 0, i32 0, i32 0, i32 0, i32 0
  store i8* %23, i8** %24, align 8
  %25 = or i64 %22, -9223372036854775808
  %26 = getelementptr inbounds %"class.std::__1::basic_string", %"class.std::__1::basic_string"* %5, i64 0, i32 0, i32 0, i32 0, i32 0, i32 0, i32 2
  store i64 %25, i64* %26, align 8
  %27 = getelementptr inbounds %"class.std::__1::basic_string", %"class.std::__1::basic_string"* %5, i64 0, i32 0, i32 0, i32 0, i32 0, i32 0, i32 1
  store i64 %3, i64* %27, align 8
  %28 = bitcast %"class.std::__1::basic_string"* %5 to %"struct.std::__1::basic_string<char, std::__1::char_traits<char>, std::__1::allocator<char> >::__short"*
  br label %34

29:                                               ; preds = %18
  %30 = trunc i64 %3 to i8
  %31 = bitcast %"class.std::__1::basic_string"* %5 to %"struct.std::__1::basic_string<char, std::__1::char_traits<char>, std::__1::allocator<char> >::__short"*
  %32 = getelementptr inbounds %"struct.std::__1::basic_string<char, std::__1::char_traits<char>, std::__1::allocator<char> >::__short", %"struct.std::__1::basic_string<char, std::__1::char_traits<char>, std::__1::allocator<char> >::__short"* %31, i64 0, i32 1, i32 0
  store i8 %30, i8* %32, align 1
  %33 = icmp eq i64 %3, 0
  br i1 %33, label %37, label %34

34:                                               ; preds = %29, %20
  %35 = phi %"struct.std::__1::basic_string<char, std::__1::char_traits<char>, std::__1::allocator<char> >::__short"* [ %31, %29 ], [ %28, %20 ]
  %36 = phi i8* [ %14, %29 ], [ %23, %20 ]
  call void @llvm.memcpy.p0i8.p0i8.i64(i8* nonnull align 1 %36, i8* align 1 %2, i64 %3, i1 false) #8
  br label %37

37:                                               ; preds = %29, %34
  %38 = phi %"struct.std::__1::basic_string<char, std::__1::char_traits<char>, std::__1::allocator<char> >::__short"* [ %31, %29 ], [ %35, %34 ]
  %39 = phi i8* [ %14, %29 ], [ %36, %34 ]
  %40 = getelementptr inbounds i8, i8* %39, i64 %3
  store i8 0, i8* %40, align 1
  %41 = getelementptr inbounds %"struct.std::__1::basic_string<char, std::__1::char_traits<char>, std::__1::allocator<char> >::__short", %"struct.std::__1::basic_string<char, std::__1::char_traits<char>, std::__1::allocator<char> >::__short"* %38, i64 0, i32 1, i32 0
  %42 = load i8, i8* %41, align 1
  %43 = icmp slt i8 %42, 0
  %44 = getelementptr inbounds %"class.std::__1::basic_string", %"class.std::__1::basic_string"* %5, i64 0, i32 0, i32 0, i32 0, i32 0, i32 0, i32 0
  %45 = load i8*, i8** %44, align 8
  %46 = select i1 %43, i8* %45, i8* %14
  %47 = getelementptr inbounds %"class.std::__1::basic_string", %"class.std::__1::basic_string"* %5, i64 0, i32 0, i32 0, i32 0, i32 0, i32 0, i32 1
  %48 = load i64, i64* %47, align 8
  %49 = zext i8 %42 to i64
  %50 = select i1 %43, i64 %48, i64 %49
  %51 = getelementptr inbounds %"class.crypto::P224EncryptedKeyExchange", %"class.crypto::P224EncryptedKeyExchange"* %0, i64 0, i32 5, i64 0
  call void @_ZN6crypto16SHA256HashStringEN4base16BasicStringPieceIcNSt3__111char_traitsIcEEEEPvm(i8* %46, i64 %50, i8* %51, i64 28) #8
  %52 = load i8, i8* %41, align 1
  %53 = icmp slt i8 %52, 0
  br i1 %53, label %54, label %56

54:                                               ; preds = %37
  %55 = load i8*, i8** %44, align 8
  call void @_ZdlPv(i8* %55) #10
  br label %56

56:                                               ; preds = %37, %54
  call void @llvm.lifetime.end.p0i8(i64 24, i8* nonnull %14) #8
  call void @_ZN6crypto24P224EncryptedKeyExchange4InitEv(%"class.crypto::P224EncryptedKeyExchange"* %0)
  ret void
}

; Function Attrs: argmemonly nounwind
declare void @llvm.memset.p0i8.i64(i8* nocapture writeonly, i8, i64, i1 immarg) #1

declare void @_ZN6crypto9RandBytesEPvm(i8*, i64) local_unnamed_addr #2

declare void @_ZN6crypto16SHA256HashStringEN4base16BasicStringPieceIcNSt3__111char_traitsIcEEEEPvm(i8*, i64, i8*, i64) local_unnamed_addr #2

; Function Attrs: argmemonly nounwind
declare void @llvm.lifetime.start.p0i8(i64 immarg, i8* nocapture) #1

; Function Attrs: argmemonly nounwind
declare void @llvm.lifetime.end.p0i8(i64 immarg, i8* nocapture) #1

; Function Attrs: nounwind ssp uwtable
define hidden void @_ZN6crypto24P224EncryptedKeyExchange4InitEv(%"class.crypto::P224EncryptedKeyExchange"*) local_unnamed_addr #0 align 2 {
  %2 = alloca %"class.logging::CheckError", align 8
  %3 = alloca %"class.logging::CheckError", align 8
  %4 = alloca %"class.logging::CheckError", align 8
  %5 = alloca %"class.std::__1::basic_string", align 8
  %6 = tail call %struct.ec_group_st* @EC_GROUP_new_by_curve_name(i32 713) #8
  %7 = tail call %struct.ec_point_st* @EC_POINT_new(%struct.ec_group_st* %6) #8
  %8 = getelementptr inbounds %"class.crypto::P224EncryptedKeyExchange", %"class.crypto::P224EncryptedKeyExchange"* %0, i64 0, i32 4, i64 0
  %9 = tail call %struct.bignum_st* @BN_new() #8
  %10 = tail call %struct.bignum_st* @BN_bin2bn(i8* %8, i64 28, %struct.bignum_st* %9) #8
  %11 = icmp eq %struct.bignum_st* %10, null
  br i1 %11, label %12, label %15

12:                                               ; preds = %1
  %13 = bitcast %"class.logging::CheckError"* %2 to i8*
  call void @llvm.lifetime.start.p0i8(i64 8, i8* nonnull %13) #8
  call void @_ZN7logging10CheckError5CheckEPKciS2_(%"class.logging::CheckError"* nonnull sret %2, i8* getelementptr inbounds ([27 x i8], [27 x i8]* @.str, i64 0, i64 0), i32 107, i8* getelementptr inbounds ([70 x i8], [70 x i8]* @.str.15, i64 0, i64 0)) #8
  %14 = call dereferenceable(160) %"class.std::__1::basic_ostream"* @_ZN7logging10CheckError6streamEv(%"class.logging::CheckError"* nonnull %2) #8
  call void @_ZN7logging10CheckErrorD1Ev(%"class.logging::CheckError"* nonnull %2) #8
  call void @llvm.lifetime.end.p0i8(i64 8, i8* nonnull %13) #8
  br label %15

15:                                               ; preds = %1, %12
  %16 = call i32 @EC_POINT_mul(%struct.ec_group_st* %6, %struct.ec_point_st* %7, %struct.bignum_st* %9, %struct.ec_point_st* null, %struct.bignum_st* null, %struct.bignum_ctx* null) #8
  %17 = icmp eq i32 %16, 0
  br i1 %17, label %18, label %21

18:                                               ; preds = %15
  %19 = bitcast %"class.logging::CheckError"* %3 to i8*
  call void @llvm.lifetime.start.p0i8(i64 8, i8* nonnull %19) #8
  call void @_ZN7logging10CheckError5CheckEPKciS2_(%"class.logging::CheckError"* nonnull sret %3, i8* getelementptr inbounds ([27 x i8], [27 x i8]* @.str, i64 0, i64 0), i32 198, i8* getelementptr inbounds ([73 x i8], [73 x i8]* @.str.1, i64 0, i64 0)) #8
  %20 = call dereferenceable(160) %"class.std::__1::basic_ostream"* @_ZN7logging10CheckError6streamEv(%"class.logging::CheckError"* nonnull %3) #8
  call void @_ZN7logging10CheckErrorD1Ev(%"class.logging::CheckError"* nonnull %3) #8
  call void @llvm.lifetime.end.p0i8(i64 8, i8* nonnull %19) #8
  br label %21

21:                                               ; preds = %15, %18
  %22 = getelementptr inbounds %"class.crypto::P224EncryptedKeyExchange", %"class.crypto::P224EncryptedKeyExchange"* %0, i64 0, i32 1
  %23 = load i8, i8* %22, align 4, !range !2
  %24 = icmp eq i8 %23, 0
  %25 = getelementptr inbounds %"class.crypto::P224EncryptedKeyExchange", %"class.crypto::P224EncryptedKeyExchange"* %0, i64 0, i32 5, i64 0
  %26 = call fastcc %struct.ec_point_st* @_ZN12_GLOBAL__N_17GetMaskEPK11ec_group_stbN4base4spanIKhLm18446744073709551615EEE(%struct.ec_group_st* %6, i1 zeroext %24, i64 28, i8* %25)
  %27 = call %struct.ec_point_st* @EC_POINT_new(%struct.ec_group_st* %6) #8
  %28 = call i32 @EC_POINT_add(%struct.ec_group_st* %6, %struct.ec_point_st* %27, %struct.ec_point_st* %7, %struct.ec_point_st* %26, %struct.bignum_ctx* null) #8
  %29 = icmp eq i32 %28, 0
  br i1 %29, label %30, label %33

30:                                               ; preds = %21
  %31 = bitcast %"class.logging::CheckError"* %4 to i8*
  call void @llvm.lifetime.start.p0i8(i64 8, i8* nonnull %31) #8
  call void @_ZN7logging10CheckError5CheckEPKciS2_(%"class.logging::CheckError"* nonnull sret %4, i8* getelementptr inbounds ([27 x i8], [27 x i8]* @.str, i64 0, i64 0), i32 207, i8* getelementptr inbounds ([68 x i8], [68 x i8]* @.str.2, i64 0, i64 0)) #8
  %32 = call dereferenceable(160) %"class.std::__1::basic_ostream"* @_ZN7logging10CheckError6streamEv(%"class.logging::CheckError"* nonnull %4) #8
  call void @_ZN7logging10CheckErrorD1Ev(%"class.logging::CheckError"* nonnull %4) #8
  call void @llvm.lifetime.end.p0i8(i64 8, i8* nonnull %31) #8
  br label %33

33:                                               ; preds = %21, %30
  %34 = bitcast %"class.std::__1::basic_string"* %5 to i8*
  call void @llvm.lifetime.start.p0i8(i64 24, i8* nonnull %34) #8
  call fastcc void @_ZN12_GLOBAL__N_19ToMessageEPK11ec_group_stPK11ec_point_st(%"class.std::__1::basic_string"* nonnull sret %5, %struct.ec_group_st* %6, %struct.ec_point_st* %27)
  %35 = getelementptr inbounds %"class.crypto::P224EncryptedKeyExchange", %"class.crypto::P224EncryptedKeyExchange"* %0, i64 0, i32 2
  %36 = bitcast %"class.std::__1::basic_string"* %35 to %"struct.std::__1::basic_string<char, std::__1::char_traits<char>, std::__1::allocator<char> >::__short"*
  %37 = getelementptr inbounds %"struct.std::__1::basic_string<char, std::__1::char_traits<char>, std::__1::allocator<char> >::__short", %"struct.std::__1::basic_string<char, std::__1::char_traits<char>, std::__1::allocator<char> >::__short"* %36, i64 0, i32 1, i32 0
  %38 = load i8, i8* %37, align 1
  %39 = icmp slt i8 %38, 0
  br i1 %39, label %40, label %43

40:                                               ; preds = %33
  %41 = getelementptr inbounds %"class.std::__1::basic_string", %"class.std::__1::basic_string"* %35, i64 0, i32 0, i32 0, i32 0, i32 0, i32 0, i32 0
  %42 = load i8*, i8** %41, align 8
  call void @_ZdlPv(i8* %42) #10
  br label %43

43:                                               ; preds = %40, %33
  %44 = bitcast %"class.std::__1::basic_string"* %35 to i8*
  call void @llvm.memcpy.p0i8.p0i8.i64(i8* align 8 %44, i8* nonnull align 8 %34, i64 24, i1 false) #8
  call void @llvm.lifetime.end.p0i8(i64 24, i8* nonnull %34) #8
  %45 = icmp eq %struct.ec_point_st* %27, null
  br i1 %45, label %47, label %46

46:                                               ; preds = %43
  call void @EC_POINT_free(%struct.ec_point_st* nonnull %27) #8
  br label %47

47:                                               ; preds = %43, %46
  %48 = icmp eq %struct.ec_point_st* %26, null
  br i1 %48, label %50, label %49

49:                                               ; preds = %47
  call void @EC_POINT_free(%struct.ec_point_st* nonnull %26) #8
  br label %50

50:                                               ; preds = %47, %49
  %51 = icmp eq %struct.bignum_st* %9, null
  br i1 %51, label %53, label %52

52:                                               ; preds = %50
  call void @BN_free(%struct.bignum_st* nonnull %9) #8
  br label %53

53:                                               ; preds = %50, %52
  %54 = icmp eq %struct.ec_point_st* %7, null
  br i1 %54, label %56, label %55

55:                                               ; preds = %53
  call void @EC_POINT_free(%struct.ec_point_st* nonnull %7) #8
  br label %56

56:                                               ; preds = %53, %55
  %57 = icmp eq %struct.ec_group_st* %6, null
  br i1 %57, label %59, label %58

58:                                               ; preds = %56
  call void @EC_GROUP_free(%struct.ec_group_st* nonnull %6) #8
  br label %59

59:                                               ; preds = %56, %58
  ret void
}

declare %struct.ec_group_st* @EC_GROUP_new_by_curve_name(i32) local_unnamed_addr #2

declare %struct.ec_point_st* @EC_POINT_new(%struct.ec_group_st*) local_unnamed_addr #2

declare i32 @EC_POINT_mul(%struct.ec_group_st*, %struct.ec_point_st*, %struct.bignum_st*, %struct.ec_point_st*, %struct.bignum_st*, %struct.bignum_ctx*) local_unnamed_addr #2

declare void @_ZN7logging10CheckError5CheckEPKciS2_(%"class.logging::CheckError"* sret, i8*, i32, i8*) local_unnamed_addr #2

declare dereferenceable(160) %"class.std::__1::basic_ostream"* @_ZN7logging10CheckError6streamEv(%"class.logging::CheckError"*) local_unnamed_addr #2

; Function Attrs: nounwind
declare void @_ZN7logging10CheckErrorD1Ev(%"class.logging::CheckError"*) unnamed_addr #3

; Function Attrs: nounwind ssp uwtable
define internal fastcc %struct.ec_point_st* @_ZN12_GLOBAL__N_17GetMaskEPK11ec_group_stbN4base4spanIKhLm18446744073709551615EEE(%struct.ec_group_st*, i1 zeroext, i64, i8*) unnamed_addr #0 {
  %5 = alloca %"class.logging::CheckError", align 8
  %6 = alloca %"class.logging::CheckError", align 8
  %7 = alloca %"class.logging::CheckError", align 8
  %8 = select i1 %1, [57 x i8]* @_ZN12_GLOBAL__N_17kM_X962E, [57 x i8]* @_ZN12_GLOBAL__N_17kN_X962E
  %9 = getelementptr inbounds [57 x i8], [57 x i8]* %8, i64 0, i64 0
  %10 = tail call %struct.ec_point_st* @EC_POINT_new(%struct.ec_group_st* %0) #8
  %11 = tail call i32 @EC_POINT_oct2point(%struct.ec_group_st* %0, %struct.ec_point_st* %10, i8* nonnull %9, i64 57, %struct.bignum_ctx* null) #8
  %12 = icmp eq i32 %11, 0
  br i1 %12, label %13, label %16

13:                                               ; preds = %4
  %14 = bitcast %"class.logging::CheckError"* %6 to i8*
  call void @llvm.lifetime.start.p0i8(i64 8, i8* nonnull %14) #8
  call void @_ZN7logging10CheckError5CheckEPKciS2_(%"class.logging::CheckError"* nonnull sret %6, i8* getelementptr inbounds ([27 x i8], [27 x i8]* @.str, i64 0, i64 0), i32 118, i8* getelementptr inbounds ([73 x i8], [73 x i8]* @.str.17, i64 0, i64 0)) #8
  %15 = call dereferenceable(160) %"class.std::__1::basic_ostream"* @_ZN7logging10CheckError6streamEv(%"class.logging::CheckError"* nonnull %6) #8
  call void @_ZN7logging10CheckErrorD1Ev(%"class.logging::CheckError"* nonnull %6) #8
  call void @llvm.lifetime.end.p0i8(i64 8, i8* nonnull %14) #8
  br label %16

16:                                               ; preds = %4, %13
  %17 = call %struct.ec_point_st* @EC_POINT_new(%struct.ec_group_st* %0) #8
  %18 = call %struct.bignum_st* @BN_new() #8
  %19 = call %struct.bignum_st* @BN_bin2bn(i8* %3, i64 %2, %struct.bignum_st* %18) #8
  %20 = icmp eq %struct.bignum_st* %19, null
  br i1 %20, label %21, label %24

21:                                               ; preds = %16
  %22 = bitcast %"class.logging::CheckError"* %5 to i8*
  call void @llvm.lifetime.start.p0i8(i64 8, i8* nonnull %22) #8
  call void @_ZN7logging10CheckError5CheckEPKciS2_(%"class.logging::CheckError"* nonnull sret %5, i8* getelementptr inbounds ([27 x i8], [27 x i8]* @.str, i64 0, i64 0), i32 107, i8* getelementptr inbounds ([70 x i8], [70 x i8]* @.str.15, i64 0, i64 0)) #8
  %23 = call dereferenceable(160) %"class.std::__1::basic_ostream"* @_ZN7logging10CheckError6streamEv(%"class.logging::CheckError"* nonnull %5) #8
  call void @_ZN7logging10CheckErrorD1Ev(%"class.logging::CheckError"* nonnull %5) #8
  call void @llvm.lifetime.end.p0i8(i64 8, i8* nonnull %22) #8
  br label %24

24:                                               ; preds = %16, %21
  %25 = call i32 @EC_POINT_mul(%struct.ec_group_st* %0, %struct.ec_point_st* %17, %struct.bignum_st* null, %struct.ec_point_st* %10, %struct.bignum_st* %18, %struct.bignum_ctx* null) #8
  %26 = icmp eq i32 %25, 0
  br i1 %26, label %27, label %30

27:                                               ; preds = %24
  %28 = bitcast %"class.logging::CheckError"* %7 to i8*
  call void @llvm.lifetime.start.p0i8(i64 8, i8* nonnull %28) #8
  call void @_ZN7logging10CheckError5CheckEPKciS2_(%"class.logging::CheckError"* nonnull sret %7, i8* getelementptr inbounds ([27 x i8], [27 x i8]* @.str, i64 0, i64 0), i32 131, i8* getelementptr inbounds ([72 x i8], [72 x i8]* @.str.16, i64 0, i64 0)) #8
  %29 = call dereferenceable(160) %"class.std::__1::basic_ostream"* @_ZN7logging10CheckError6streamEv(%"class.logging::CheckError"* nonnull %7) #8
  call void @_ZN7logging10CheckErrorD1Ev(%"class.logging::CheckError"* nonnull %7) #8
  call void @llvm.lifetime.end.p0i8(i64 8, i8* nonnull %28) #8
  br label %30

30:                                               ; preds = %24, %27
  %31 = icmp eq %struct.bignum_st* %18, null
  br i1 %31, label %33, label %32

32:                                               ; preds = %30
  call void @BN_free(%struct.bignum_st* nonnull %18) #8
  br label %33

33:                                               ; preds = %30, %32
  %34 = icmp eq %struct.ec_point_st* %10, null
  br i1 %34, label %36, label %35

35:                                               ; preds = %33
  call void @EC_POINT_free(%struct.ec_point_st* nonnull %10) #8
  br label %36

36:                                               ; preds = %33, %35
  ret %struct.ec_point_st* %17
}

declare i32 @EC_POINT_add(%struct.ec_group_st*, %struct.ec_point_st*, %struct.ec_point_st*, %struct.ec_point_st*, %struct.bignum_ctx*) local_unnamed_addr #2

; Function Attrs: nounwind ssp uwtable
define internal fastcc void @_ZN12_GLOBAL__N_19ToMessageEPK11ec_group_stPK11ec_point_st(%"class.std::__1::basic_string"* noalias nocapture sret, %struct.ec_group_st*, %struct.ec_point_st*) unnamed_addr #0 {
  %4 = alloca [57 x i8], align 16
  %5 = alloca %"class.logging::CheckError", align 8
  %6 = tail call i32 @EC_POINT_is_at_infinity(%struct.ec_group_st* %1, %struct.ec_point_st* %2) #8
  %7 = icmp eq i32 %6, 0
  br i1 %7, label %13, label %8

8:                                                ; preds = %3
  %9 = tail call i8* @_Znwm(i64 64) #10
  %10 = getelementptr inbounds %"class.std::__1::basic_string", %"class.std::__1::basic_string"* %0, i64 0, i32 0, i32 0, i32 0, i32 0, i32 0, i32 0
  store i8* %9, i8** %10, align 8
  %11 = getelementptr inbounds %"class.std::__1::basic_string", %"class.std::__1::basic_string"* %0, i64 0, i32 0, i32 0, i32 0, i32 0, i32 0, i32 1
  %12 = bitcast i64* %11 to <2 x i64>*
  store <2 x i64> <i64 56, i64 -9223372036854775744>, <2 x i64>* %12, align 8
  call void @llvm.memset.p0i8.i64(i8* nonnull align 1 %9, i8 0, i64 57, i1 false)
  br label %27

13:                                               ; preds = %3
  %14 = getelementptr inbounds [57 x i8], [57 x i8]* %4, i64 0, i64 0
  call void @llvm.lifetime.start.p0i8(i64 57, i8* nonnull %14) #8
  call void @llvm.memset.p0i8.i64(i8* nonnull align 16 %14, i8 -86, i64 57, i1 false)
  %15 = call i64 @EC_POINT_point2oct(%struct.ec_group_st* %1, %struct.ec_point_st* %2, i32 4, i8* nonnull %14, i64 57, %struct.bignum_ctx* null) #8
  %16 = icmp eq i64 %15, 57
  br i1 %16, label %20, label %17

17:                                               ; preds = %13
  %18 = bitcast %"class.logging::CheckError"* %5 to i8*
  call void @llvm.lifetime.start.p0i8(i64 8, i8* nonnull %18) #8
  call void @_ZN7logging10CheckError5CheckEPKciS2_(%"class.logging::CheckError"* nonnull sret %5, i8* getelementptr inbounds ([27 x i8], [27 x i8]* @.str, i64 0, i64 0), i32 144, i8* getelementptr inbounds ([105 x i8], [105 x i8]* @.str.20, i64 0, i64 0)) #8
  %19 = call dereferenceable(160) %"class.std::__1::basic_ostream"* @_ZN7logging10CheckError6streamEv(%"class.logging::CheckError"* nonnull %5) #8
  call void @_ZN7logging10CheckErrorD1Ev(%"class.logging::CheckError"* nonnull %5) #8
  call void @llvm.lifetime.end.p0i8(i64 8, i8* nonnull %18) #8
  br label %20

20:                                               ; preds = %13, %17
  %21 = getelementptr inbounds [57 x i8], [57 x i8]* %4, i64 0, i64 1
  %22 = call i8* @_Znwm(i64 64) #10
  %23 = getelementptr inbounds %"class.std::__1::basic_string", %"class.std::__1::basic_string"* %0, i64 0, i32 0, i32 0, i32 0, i32 0, i32 0, i32 0
  store i8* %22, i8** %23, align 8
  %24 = getelementptr inbounds %"class.std::__1::basic_string", %"class.std::__1::basic_string"* %0, i64 0, i32 0, i32 0, i32 0, i32 0, i32 0, i32 1
  %25 = bitcast i64* %24 to <2 x i64>*
  store <2 x i64> <i64 56, i64 -9223372036854775744>, <2 x i64>* %25, align 8
  call void @llvm.memcpy.p0i8.p0i8.i64(i8* nonnull align 1 %22, i8* align 1 %21, i64 56, i1 false) #8
  %26 = getelementptr inbounds i8, i8* %22, i64 56
  store i8 0, i8* %26, align 1
  call void @llvm.lifetime.end.p0i8(i64 57, i8* nonnull %14) #8
  br label %27

27:                                               ; preds = %20, %8
  ret void
}

; Function Attrs: nounwind ssp uwtable
define hidden dereferenceable(24) %"class.std::__1::basic_string"* @_ZN6crypto24P224EncryptedKeyExchange14GetNextMessageEv(%"class.crypto::P224EncryptedKeyExchange"*) local_unnamed_addr #0 align 2 {
  %2 = alloca %"class.logging::LogMessage", align 8
  %3 = getelementptr inbounds %"class.crypto::P224EncryptedKeyExchange", %"class.crypto::P224EncryptedKeyExchange"* %0, i64 0, i32 0
  %4 = load i32, i32* %3, align 8
  switch i32 %4, label %9 [
    i32 0, label %5
    i32 2, label %7
  ]

5:                                                ; preds = %1
  store i32 1, i32* %3, align 8
  %6 = getelementptr inbounds %"class.crypto::P224EncryptedKeyExchange", %"class.crypto::P224EncryptedKeyExchange"* %0, i64 0, i32 2
  br label %32

7:                                                ; preds = %1
  store i32 3, i32* %3, align 8
  %8 = getelementptr inbounds %"class.crypto::P224EncryptedKeyExchange", %"class.crypto::P224EncryptedKeyExchange"* %0, i64 0, i32 2
  br label %32

9:                                                ; preds = %1
  %10 = tail call zeroext i1 @_ZN7logging22ShouldCreateLogMessageEi(i32 3) #8
  br i1 %10, label %11, label %18

11:                                               ; preds = %9
  %12 = bitcast %"class.logging::LogMessage"* %2 to i8*
  call void @llvm.lifetime.start.p0i8(i64 304, i8* nonnull %12) #8
  call void @_ZN7logging10LogMessageC1EPKcii(%"class.logging::LogMessage"* nonnull %2, i8* getelementptr inbounds ([27 x i8], [27 x i8]* @.str, i64 0, i64 0), i32 221, i32 3) #8
  %13 = getelementptr inbounds %"class.logging::LogMessage", %"class.logging::LogMessage"* %2, i64 0, i32 2
  %14 = bitcast %"class.std::__1::basic_ostringstream"* %13 to %"class.std::__1::basic_ostream"*
  %15 = call dereferenceable(160) %"class.std::__1::basic_ostream"* @_ZNSt3__124__put_character_sequenceIcNS_11char_traitsIcEEEERNS_13basic_ostreamIT_T0_EES7_PKS4_m(%"class.std::__1::basic_ostream"* dereferenceable(160) %14, i8* getelementptr inbounds ([62 x i8], [62 x i8]* @.str.3, i64 0, i64 0), i64 61) #8
  %16 = load i32, i32* %3, align 8
  %17 = call dereferenceable(160) %"class.std::__1::basic_ostream"* @_ZNSt3__113basic_ostreamIcNS_11char_traitsIcEEElsEi(%"class.std::__1::basic_ostream"* %15, i32 %16) #8
  call void @_ZN7logging10LogMessageD1Ev(%"class.logging::LogMessage"* nonnull %2) #8
  call void @llvm.lifetime.end.p0i8(i64 304, i8* nonnull %12) #8
  br label %18

18:                                               ; preds = %9, %11
  %19 = getelementptr inbounds %"class.crypto::P224EncryptedKeyExchange", %"class.crypto::P224EncryptedKeyExchange"* %0, i64 0, i32 2
  %20 = bitcast %"class.std::__1::basic_string"* %19 to %"struct.std::__1::basic_string<char, std::__1::char_traits<char>, std::__1::allocator<char> >::__short"*
  %21 = getelementptr inbounds %"struct.std::__1::basic_string<char, std::__1::char_traits<char>, std::__1::allocator<char> >::__short", %"struct.std::__1::basic_string<char, std::__1::char_traits<char>, std::__1::allocator<char> >::__short"* %20, i64 0, i32 1, i32 0
  %22 = load i8, i8* %21, align 1
  %23 = icmp slt i8 %22, 0
  br i1 %23, label %24, label %28

24:                                               ; preds = %18
  %25 = getelementptr inbounds %"class.crypto::P224EncryptedKeyExchange", %"class.crypto::P224EncryptedKeyExchange"* %0, i64 0, i32 2, i32 0, i32 0, i32 0, i32 0, i32 0, i32 1
  store i64 0, i64* %25, align 8
  %26 = getelementptr inbounds %"class.std::__1::basic_string", %"class.std::__1::basic_string"* %19, i64 0, i32 0, i32 0, i32 0, i32 0, i32 0, i32 0
  %27 = load i8*, i8** %26, align 8
  br label %30

28:                                               ; preds = %18
  store i8 0, i8* %21, align 1
  %29 = bitcast %"class.std::__1::basic_string"* %19 to i8*
  br label %30

30:                                               ; preds = %24, %28
  %31 = phi i8* [ %27, %24 ], [ %29, %28 ]
  store i8 0, i8* %31, align 1
  br label %32

32:                                               ; preds = %30, %7, %5
  %33 = phi %"class.std::__1::basic_string"* [ %6, %5 ], [ %8, %7 ], [ %19, %30 ]
  ret %"class.std::__1::basic_string"* %33
}

declare zeroext i1 @_ZN7logging22ShouldCreateLogMessageEi(i32) local_unnamed_addr #2

declare void @_ZN7logging10LogMessageC1EPKcii(%"class.logging::LogMessage"*, i8*, i32, i32) unnamed_addr #2

declare dereferenceable(160) %"class.std::__1::basic_ostream"* @_ZNSt3__113basic_ostreamIcNS_11char_traitsIcEEElsEi(%"class.std::__1::basic_ostream"*, i32) local_unnamed_addr #2

; Function Attrs: nounwind
declare void @_ZN7logging10LogMessageD1Ev(%"class.logging::LogMessage"*) unnamed_addr #3

; Function Attrs: nounwind ssp uwtable
define hidden i32 @_ZN6crypto24P224EncryptedKeyExchange14ProcessMessageEN4base16BasicStringPieceIcNSt3__111char_traitsIcEEEE(%"class.crypto::P224EncryptedKeyExchange"*, i8*, i64) local_unnamed_addr #0 align 2 {
  %4 = alloca %"class.logging::CheckError", align 8
  %5 = alloca [57 x i8], align 16
  %6 = alloca %"class.logging::LogMessage", align 8
  %7 = alloca %"class.logging::CheckError", align 8
  %8 = alloca %"class.logging::CheckError", align 8
  %9 = alloca %"class.logging::CheckError", align 8
  %10 = alloca %"class.std::__1::basic_string", align 8
  %11 = alloca %"class.std::__1::basic_string", align 8
  %12 = alloca %"class.std::__1::basic_string", align 8
  %13 = alloca %"class.std::__1::basic_string", align 8
  %14 = alloca %"class.std::__1::basic_string", align 8
  %15 = alloca [32 x i8], align 16
  %16 = alloca [32 x i8], align 16
  %17 = getelementptr inbounds %"class.crypto::P224EncryptedKeyExchange", %"class.crypto::P224EncryptedKeyExchange"* %0, i64 0, i32 0
  %18 = load i32, i32* %17, align 8
  switch i32 %18, label %31 [
    i32 3, label %19
    i32 1, label %55
  ]

19:                                               ; preds = %3
  %20 = icmp eq i64 %2, 32
  br i1 %20, label %24, label %21

21:                                               ; preds = %19
  %22 = getelementptr inbounds %"class.crypto::P224EncryptedKeyExchange", %"class.crypto::P224EncryptedKeyExchange"* %0, i64 0, i32 3
  %23 = tail call dereferenceable(24) %"class.std::__1::basic_string"* @_ZNSt3__112basic_stringIcNS_11char_traitsIcEENS_9allocatorIcEEE17__assign_externalEPKcm(%"class.std::__1::basic_string"* %22, i8* getelementptr inbounds ([34 x i8], [34 x i8]* @.str.5, i64 0, i64 0), i64 33) #8
  br label %231

24:                                               ; preds = %19
  %25 = getelementptr inbounds %"class.crypto::P224EncryptedKeyExchange", %"class.crypto::P224EncryptedKeyExchange"* %0, i64 0, i32 6, i64 0
  %26 = tail call zeroext i1 @_ZN6crypto14SecureMemEqualEPKvS1_m(i8* %1, i8* %25, i64 32) #8
  br i1 %26, label %30, label %27

27:                                               ; preds = %24
  %28 = getelementptr inbounds %"class.crypto::P224EncryptedKeyExchange", %"class.crypto::P224EncryptedKeyExchange"* %0, i64 0, i32 3
  %29 = tail call dereferenceable(24) %"class.std::__1::basic_string"* @_ZNSt3__112basic_stringIcNS_11char_traitsIcEENS_9allocatorIcEEE17__assign_externalEPKcm(%"class.std::__1::basic_string"* %28, i8* getelementptr inbounds ([32 x i8], [32 x i8]* @.str.6, i64 0, i64 0), i64 31) #8
  br label %231

30:                                               ; preds = %24
  store i32 4, i32* %17, align 8
  br label %231

31:                                               ; preds = %3
  %32 = tail call zeroext i1 @_ZN7logging22ShouldCreateLogMessageEi(i32 3) #8
  br i1 %32, label %33, label %40

33:                                               ; preds = %31
  %34 = bitcast %"class.logging::LogMessage"* %6 to i8*
  call void @llvm.lifetime.start.p0i8(i64 304, i8* nonnull %34) #8
  call void @_ZN7logging10LogMessageC1EPKcii(%"class.logging::LogMessage"* nonnull %6, i8* getelementptr inbounds ([27 x i8], [27 x i8]* @.str, i64 0, i64 0), i32 246, i32 3) #8
  %35 = getelementptr inbounds %"class.logging::LogMessage", %"class.logging::LogMessage"* %6, i64 0, i32 2
  %36 = bitcast %"class.std::__1::basic_ostringstream"* %35 to %"class.std::__1::basic_ostream"*
  %37 = call dereferenceable(160) %"class.std::__1::basic_ostream"* @_ZNSt3__124__put_character_sequenceIcNS_11char_traitsIcEEEERNS_13basic_ostreamIT_T0_EES7_PKS4_m(%"class.std::__1::basic_ostream"* dereferenceable(160) %36, i8* getelementptr inbounds ([62 x i8], [62 x i8]* @.str.7, i64 0, i64 0), i64 61) #8
  %38 = load i32, i32* %17, align 8
  %39 = call dereferenceable(160) %"class.std::__1::basic_ostream"* @_ZNSt3__113basic_ostreamIcNS_11char_traitsIcEEElsEi(%"class.std::__1::basic_ostream"* %37, i32 %38) #8
  call void @_ZN7logging10LogMessageD1Ev(%"class.logging::LogMessage"* nonnull %6) #8
  call void @llvm.lifetime.end.p0i8(i64 304, i8* nonnull %34) #8
  br label %40

40:                                               ; preds = %31, %33
  %41 = getelementptr inbounds %"class.crypto::P224EncryptedKeyExchange", %"class.crypto::P224EncryptedKeyExchange"* %0, i64 0, i32 3
  %42 = bitcast %"class.std::__1::basic_string"* %41 to %"struct.std::__1::basic_string<char, std::__1::char_traits<char>, std::__1::allocator<char> >::__short"*
  %43 = getelementptr inbounds %"struct.std::__1::basic_string<char, std::__1::char_traits<char>, std::__1::allocator<char> >::__short", %"struct.std::__1::basic_string<char, std::__1::char_traits<char>, std::__1::allocator<char> >::__short"* %42, i64 0, i32 1, i32 0
  %44 = load i8, i8* %43, align 1
  %45 = icmp slt i8 %44, 0
  br i1 %45, label %46, label %50

46:                                               ; preds = %40
  %47 = getelementptr inbounds %"class.crypto::P224EncryptedKeyExchange", %"class.crypto::P224EncryptedKeyExchange"* %0, i64 0, i32 3, i32 0, i32 0, i32 0, i32 0, i32 0, i32 1
  store i64 14, i64* %47, align 8
  %48 = getelementptr inbounds %"class.std::__1::basic_string", %"class.std::__1::basic_string"* %41, i64 0, i32 0, i32 0, i32 0, i32 0, i32 0, i32 0
  %49 = load i8*, i8** %48, align 8
  br label %52

50:                                               ; preds = %40
  store i8 14, i8* %43, align 1
  %51 = bitcast %"class.std::__1::basic_string"* %41 to i8*
  br label %52

52:                                               ; preds = %46, %50
  %53 = phi i8* [ %49, %46 ], [ %51, %50 ]
  call void @llvm.memcpy.p0i8.p0i8.i64(i8* align 1 %53, i8* align 1 getelementptr inbounds ([15 x i8], [15 x i8]* @.str.8, i64 0, i64 0), i64 14, i1 false) #8
  %54 = getelementptr inbounds i8, i8* %53, i64 14
  store i8 0, i8* %54, align 1
  br label %231

55:                                               ; preds = %3
  %56 = tail call %struct.ec_group_st* @EC_GROUP_new_by_curve_name(i32 713) #8
  %57 = icmp eq i64 %2, 56
  br i1 %57, label %58, label %70

58:                                               ; preds = %55
  %59 = getelementptr inbounds [57 x i8], [57 x i8]* %5, i64 0, i64 0
  call void @llvm.lifetime.start.p0i8(i64 57, i8* nonnull %59) #8
  store i8 4, i8* %59, align 16
  %60 = getelementptr inbounds [57 x i8], [57 x i8]* %5, i64 0, i64 1
  call void @llvm.memcpy.p0i8.p0i8.i64(i8* align 1 %60, i8* align 1 %1, i64 56, i1 false) #8
  %61 = tail call %struct.ec_point_st* @EC_POINT_new(%struct.ec_group_st* %56) #8
  %62 = call i32 @EC_POINT_oct2point(%struct.ec_group_st* %56, %struct.ec_point_st* %61, i8* nonnull %59, i64 57, %struct.bignum_ctx* null) #8
  %63 = icmp eq i32 %62, 0
  br i1 %63, label %64, label %68

64:                                               ; preds = %58
  %65 = icmp eq %struct.ec_point_st* %61, null
  br i1 %65, label %67, label %66

66:                                               ; preds = %64
  call void @EC_POINT_free(%struct.ec_point_st* nonnull %61) #8
  br label %67

67:                                               ; preds = %64, %66
  call void @llvm.lifetime.end.p0i8(i64 57, i8* nonnull %59) #8
  br label %70

68:                                               ; preds = %58
  call void @llvm.lifetime.end.p0i8(i64 57, i8* nonnull %59) #8
  %69 = icmp eq %struct.ec_point_st* %61, null
  br i1 %69, label %70, label %73

70:                                               ; preds = %67, %55, %68
  %71 = getelementptr inbounds %"class.crypto::P224EncryptedKeyExchange", %"class.crypto::P224EncryptedKeyExchange"* %0, i64 0, i32 3
  %72 = call dereferenceable(24) %"class.std::__1::basic_string"* @_ZNSt3__112basic_stringIcNS_11char_traitsIcEENS_9allocatorIcEEE17__assign_externalEPKcm(%"class.std::__1::basic_string"* %71, i8* getelementptr inbounds ([51 x i8], [51 x i8]* @.str.9, i64 0, i64 0), i64 50) #8
  br label %227

73:                                               ; preds = %68
  %74 = getelementptr inbounds %"class.crypto::P224EncryptedKeyExchange", %"class.crypto::P224EncryptedKeyExchange"* %0, i64 0, i32 1
  %75 = load i8, i8* %74, align 4, !range !2
  %76 = icmp ne i8 %75, 0
  %77 = getelementptr inbounds %"class.crypto::P224EncryptedKeyExchange", %"class.crypto::P224EncryptedKeyExchange"* %0, i64 0, i32 5, i64 0
  %78 = call fastcc %struct.ec_point_st* @_ZN12_GLOBAL__N_17GetMaskEPK11ec_group_stbN4base4spanIKhLm18446744073709551615EEE(%struct.ec_group_st* %56, i1 zeroext %76, i64 28, i8* %77)
  %79 = call i32 @EC_POINT_invert(%struct.ec_group_st* %56, %struct.ec_point_st* %78, %struct.bignum_ctx* null) #8
  %80 = icmp eq i32 %79, 0
  br i1 %80, label %81, label %84

81:                                               ; preds = %73
  %82 = bitcast %"class.logging::CheckError"* %7 to i8*
  call void @llvm.lifetime.start.p0i8(i64 8, i8* nonnull %82) #8
  call void @_ZN7logging10CheckError5CheckEPKciS2_(%"class.logging::CheckError"* nonnull sret %7, i8* getelementptr inbounds ([27 x i8], [27 x i8]* @.str, i64 0, i64 0), i32 264, i8* getelementptr inbounds ([49 x i8], [49 x i8]* @.str.10, i64 0, i64 0)) #8
  %83 = call dereferenceable(160) %"class.std::__1::basic_ostream"* @_ZN7logging10CheckError6streamEv(%"class.logging::CheckError"* nonnull %7) #8
  call void @_ZN7logging10CheckErrorD1Ev(%"class.logging::CheckError"* nonnull %7) #8
  call void @llvm.lifetime.end.p0i8(i64 8, i8* nonnull %82) #8
  br label %84

84:                                               ; preds = %73, %81
  %85 = call %struct.ec_point_st* @EC_POINT_new(%struct.ec_group_st* %56) #8
  %86 = call i32 @EC_POINT_add(%struct.ec_group_st* %56, %struct.ec_point_st* %85, %struct.ec_point_st* nonnull %61, %struct.ec_point_st* %78, %struct.bignum_ctx* null) #8
  %87 = icmp eq i32 %86, 0
  br i1 %87, label %88, label %91

88:                                               ; preds = %84
  %89 = bitcast %"class.logging::CheckError"* %8 to i8*
  call void @llvm.lifetime.start.p0i8(i64 8, i8* nonnull %89) #8
  call void @_ZN7logging10CheckError5CheckEPKciS2_(%"class.logging::CheckError"* nonnull sret %8, i8* getelementptr inbounds ([27 x i8], [27 x i8]* @.str, i64 0, i64 0), i32 267, i8* getelementptr inbounds ([68 x i8], [68 x i8]* @.str.11, i64 0, i64 0)) #8
  %90 = call dereferenceable(160) %"class.std::__1::basic_ostream"* @_ZN7logging10CheckError6streamEv(%"class.logging::CheckError"* nonnull %8) #8
  call void @_ZN7logging10CheckErrorD1Ev(%"class.logging::CheckError"* nonnull %8) #8
  call void @llvm.lifetime.end.p0i8(i64 8, i8* nonnull %89) #8
  br label %91

91:                                               ; preds = %84, %88
  %92 = call %struct.ec_point_st* @EC_POINT_new(%struct.ec_group_st* %56) #8
  %93 = getelementptr inbounds %"class.crypto::P224EncryptedKeyExchange", %"class.crypto::P224EncryptedKeyExchange"* %0, i64 0, i32 4, i64 0
  %94 = call %struct.bignum_st* @BN_new() #8
  %95 = call %struct.bignum_st* @BN_bin2bn(i8* %93, i64 28, %struct.bignum_st* %94) #8
  %96 = icmp eq %struct.bignum_st* %95, null
  br i1 %96, label %97, label %100

97:                                               ; preds = %91
  %98 = bitcast %"class.logging::CheckError"* %4 to i8*
  call void @llvm.lifetime.start.p0i8(i64 8, i8* nonnull %98) #8
  call void @_ZN7logging10CheckError5CheckEPKciS2_(%"class.logging::CheckError"* nonnull sret %4, i8* getelementptr inbounds ([27 x i8], [27 x i8]* @.str, i64 0, i64 0), i32 107, i8* getelementptr inbounds ([70 x i8], [70 x i8]* @.str.15, i64 0, i64 0)) #8
  %99 = call dereferenceable(160) %"class.std::__1::basic_ostream"* @_ZN7logging10CheckError6streamEv(%"class.logging::CheckError"* nonnull %4) #8
  call void @_ZN7logging10CheckErrorD1Ev(%"class.logging::CheckError"* nonnull %4) #8
  call void @llvm.lifetime.end.p0i8(i64 8, i8* nonnull %98) #8
  br label %100

100:                                              ; preds = %91, %97
  %101 = call i32 @EC_POINT_mul(%struct.ec_group_st* %56, %struct.ec_point_st* %92, %struct.bignum_st* null, %struct.ec_point_st* %85, %struct.bignum_st* %94, %struct.bignum_ctx* null) #8
  %102 = icmp eq i32 %101, 0
  br i1 %102, label %103, label %106

103:                                              ; preds = %100
  %104 = bitcast %"class.logging::CheckError"* %9 to i8*
  call void @llvm.lifetime.start.p0i8(i64 8, i8* nonnull %104) #8
  call void @_ZN7logging10CheckError5CheckEPKciS2_(%"class.logging::CheckError"* nonnull sret %9, i8* getelementptr inbounds ([27 x i8], [27 x i8]* @.str, i64 0, i64 0), i32 273, i8* getelementptr inbounds ([73 x i8], [73 x i8]* @.str.12, i64 0, i64 0)) #8
  %105 = call dereferenceable(160) %"class.std::__1::basic_ostream"* @_ZN7logging10CheckError6streamEv(%"class.logging::CheckError"* nonnull %9) #8
  call void @_ZN7logging10CheckErrorD1Ev(%"class.logging::CheckError"* nonnull %9) #8
  call void @llvm.lifetime.end.p0i8(i64 8, i8* nonnull %104) #8
  br label %106

106:                                              ; preds = %100, %103
  %107 = bitcast %"class.std::__1::basic_string"* %10 to i8*
  call void @llvm.lifetime.start.p0i8(i64 24, i8* nonnull %107) #8
  call fastcc void @_ZN12_GLOBAL__N_19ToMessageEPK11ec_group_stPK11ec_point_st(%"class.std::__1::basic_string"* nonnull sret %10, %struct.ec_group_st* %56, %struct.ec_point_st* %92)
  %108 = getelementptr inbounds %"class.crypto::P224EncryptedKeyExchange", %"class.crypto::P224EncryptedKeyExchange"* %0, i64 0, i32 7
  %109 = bitcast %"class.std::__1::basic_string"* %108 to %"struct.std::__1::basic_string<char, std::__1::char_traits<char>, std::__1::allocator<char> >::__short"*
  %110 = getelementptr inbounds %"struct.std::__1::basic_string<char, std::__1::char_traits<char>, std::__1::allocator<char> >::__short", %"struct.std::__1::basic_string<char, std::__1::char_traits<char>, std::__1::allocator<char> >::__short"* %109, i64 0, i32 1, i32 0
  %111 = load i8, i8* %110, align 1
  %112 = icmp slt i8 %111, 0
  br i1 %112, label %113, label %116

113:                                              ; preds = %106
  %114 = getelementptr inbounds %"class.std::__1::basic_string", %"class.std::__1::basic_string"* %108, i64 0, i32 0, i32 0, i32 0, i32 0, i32 0, i32 0
  %115 = load i8*, i8** %114, align 8
  call void @_ZdlPv(i8* %115) #10
  br label %116

116:                                              ; preds = %113, %106
  %117 = bitcast %"class.std::__1::basic_string"* %108 to i8*
  call void @llvm.memcpy.p0i8.p0i8.i64(i8* align 8 %117, i8* nonnull align 8 %107, i64 24, i1 false) #8
  call void @llvm.lifetime.end.p0i8(i64 24, i8* nonnull %107) #8
  %118 = bitcast %"class.std::__1::basic_string"* %11 to i8*
  call void @llvm.lifetime.start.p0i8(i64 24, i8* nonnull %118) #8
  %119 = getelementptr inbounds %"class.std::__1::basic_string", %"class.std::__1::basic_string"* %11, i64 0, i32 0, i32 0, i32 0, i32 0, i32 0, i32 0
  call void @llvm.memset.p0i8.i64(i8* nonnull align 8 %118, i8 0, i64 24, i1 false) #8
  %120 = bitcast %"class.std::__1::basic_string"* %12 to i8*
  call void @llvm.lifetime.start.p0i8(i64 24, i8* nonnull %120) #8
  %121 = getelementptr inbounds %"class.std::__1::basic_string", %"class.std::__1::basic_string"* %12, i64 0, i32 0, i32 0, i32 0, i32 0, i32 0, i32 0
  call void @llvm.memset.p0i8.i64(i8* nonnull align 8 %120, i8 0, i64 24, i1 false) #8
  %122 = load i8, i8* %74, align 4, !range !2
  %123 = icmp eq i8 %122, 0
  br i1 %123, label %146, label %124

124:                                              ; preds = %116
  %125 = bitcast %"class.std::__1::basic_string"* %13 to i8*
  call void @llvm.lifetime.start.p0i8(i64 24, i8* nonnull %125) #8
  %126 = call i8* @_Znwm(i64 64) #10
  %127 = getelementptr inbounds %"class.std::__1::basic_string", %"class.std::__1::basic_string"* %13, i64 0, i32 0, i32 0, i32 0, i32 0, i32 0, i32 0
  store i8* %126, i8** %127, align 8, !alias.scope !3
  %128 = getelementptr inbounds %"class.std::__1::basic_string", %"class.std::__1::basic_string"* %13, i64 0, i32 0, i32 0, i32 0, i32 0, i32 0, i32 1
  %129 = bitcast i64* %128 to <2 x i64>*
  store <2 x i64> <i64 56, i64 -9223372036854775744>, <2 x i64>* %129, align 8, !alias.scope !3
  call void @llvm.memcpy.p0i8.p0i8.i64(i8* nonnull align 1 %126, i8* align 1 %1, i64 56, i1 false) #8
  %130 = getelementptr inbounds i8, i8* %126, i64 56
  store i8 0, i8* %130, align 1
  call void @llvm.memcpy.p0i8.p0i8.i64(i8* nonnull align 8 %118, i8* nonnull align 8 %125, i64 24, i1 false) #8
  call void @llvm.lifetime.end.p0i8(i64 24, i8* nonnull %125) #8
  %131 = getelementptr inbounds %"class.crypto::P224EncryptedKeyExchange", %"class.crypto::P224EncryptedKeyExchange"* %0, i64 0, i32 2
  %132 = icmp eq %"class.std::__1::basic_string"* %12, %131
  br i1 %132, label %177, label %133

133:                                              ; preds = %124
  %134 = bitcast %"class.std::__1::basic_string"* %131 to %"struct.std::__1::basic_string<char, std::__1::char_traits<char>, std::__1::allocator<char> >::__short"*
  %135 = getelementptr inbounds %"struct.std::__1::basic_string<char, std::__1::char_traits<char>, std::__1::allocator<char> >::__short", %"struct.std::__1::basic_string<char, std::__1::char_traits<char>, std::__1::allocator<char> >::__short"* %134, i64 0, i32 1, i32 0
  %136 = load i8, i8* %135, align 1
  %137 = icmp slt i8 %136, 0
  br i1 %137, label %140, label %138

138:                                              ; preds = %133
  %139 = bitcast %"class.std::__1::basic_string"* %131 to i8*
  call void @llvm.memcpy.p0i8.p0i8.i64(i8* nonnull align 8 %120, i8* align 8 %139, i64 24, i1 false) #8
  br label %177

140:                                              ; preds = %133
  %141 = getelementptr inbounds %"class.std::__1::basic_string", %"class.std::__1::basic_string"* %131, i64 0, i32 0, i32 0, i32 0, i32 0, i32 0, i32 0
  %142 = load i8*, i8** %141, align 8
  %143 = getelementptr inbounds %"class.crypto::P224EncryptedKeyExchange", %"class.crypto::P224EncryptedKeyExchange"* %0, i64 0, i32 2, i32 0, i32 0, i32 0, i32 0, i32 0, i32 1
  %144 = load i64, i64* %143, align 8
  %145 = call dereferenceable(24) %"class.std::__1::basic_string"* @_ZNSt3__112basic_stringIcNS_11char_traitsIcEENS_9allocatorIcEEE17__assign_no_aliasILb1EEERS5_PKcm(%"class.std::__1::basic_string"* nonnull %12, i8* %142, i64 %144) #8
  br label %177

146:                                              ; preds = %116
  %147 = getelementptr inbounds %"class.crypto::P224EncryptedKeyExchange", %"class.crypto::P224EncryptedKeyExchange"* %0, i64 0, i32 2
  %148 = icmp eq %"class.std::__1::basic_string"* %11, %147
  br i1 %148, label %166, label %149

149:                                              ; preds = %146
  %150 = bitcast %"class.std::__1::basic_string"* %147 to %"struct.std::__1::basic_string<char, std::__1::char_traits<char>, std::__1::allocator<char> >::__short"*
  %151 = getelementptr inbounds %"struct.std::__1::basic_string<char, std::__1::char_traits<char>, std::__1::allocator<char> >::__short", %"struct.std::__1::basic_string<char, std::__1::char_traits<char>, std::__1::allocator<char> >::__short"* %150, i64 0, i32 1, i32 0
  %152 = load i8, i8* %151, align 1
  %153 = icmp slt i8 %152, 0
  br i1 %153, label %156, label %154

154:                                              ; preds = %149
  %155 = bitcast %"class.std::__1::basic_string"* %147 to i8*
  call void @llvm.memcpy.p0i8.p0i8.i64(i8* nonnull align 8 %118, i8* align 8 %155, i64 24, i1 false) #8
  br label %166

156:                                              ; preds = %149
  %157 = getelementptr inbounds %"class.std::__1::basic_string", %"class.std::__1::basic_string"* %147, i64 0, i32 0, i32 0, i32 0, i32 0, i32 0, i32 0
  %158 = load i8*, i8** %157, align 8
  %159 = getelementptr inbounds %"class.crypto::P224EncryptedKeyExchange", %"class.crypto::P224EncryptedKeyExchange"* %0, i64 0, i32 2, i32 0, i32 0, i32 0, i32 0, i32 0, i32 1
  %160 = load i64, i64* %159, align 8
  %161 = call dereferenceable(24) %"class.std::__1::basic_string"* @_ZNSt3__112basic_stringIcNS_11char_traitsIcEENS_9allocatorIcEEE17__assign_no_aliasILb1EEERS5_PKcm(%"class.std::__1::basic_string"* nonnull %11, i8* %158, i64 %160) #8
  %162 = bitcast %"class.std::__1::basic_string"* %12 to %"struct.std::__1::basic_string<char, std::__1::char_traits<char>, std::__1::allocator<char> >::__short"*
  %163 = getelementptr inbounds %"struct.std::__1::basic_string<char, std::__1::char_traits<char>, std::__1::allocator<char> >::__short", %"struct.std::__1::basic_string<char, std::__1::char_traits<char>, std::__1::allocator<char> >::__short"* %162, i64 0, i32 1, i32 0
  %164 = load i8, i8* %163, align 1
  %165 = icmp slt i8 %164, 0
  br label %166

166:                                              ; preds = %146, %154, %156
  %167 = phi i1 [ false, %146 ], [ false, %154 ], [ %165, %156 ]
  %168 = bitcast %"class.std::__1::basic_string"* %14 to i8*
  call void @llvm.lifetime.start.p0i8(i64 24, i8* nonnull %168) #8
  %169 = call i8* @_Znwm(i64 64) #10
  %170 = getelementptr inbounds %"class.std::__1::basic_string", %"class.std::__1::basic_string"* %14, i64 0, i32 0, i32 0, i32 0, i32 0, i32 0, i32 0
  store i8* %169, i8** %170, align 8, !alias.scope !6
  %171 = getelementptr inbounds %"class.std::__1::basic_string", %"class.std::__1::basic_string"* %14, i64 0, i32 0, i32 0, i32 0, i32 0, i32 0, i32 1
  %172 = bitcast i64* %171 to <2 x i64>*
  store <2 x i64> <i64 56, i64 -9223372036854775744>, <2 x i64>* %172, align 8, !alias.scope !6
  call void @llvm.memcpy.p0i8.p0i8.i64(i8* nonnull align 1 %169, i8* align 1 %1, i64 56, i1 false) #8
  %173 = getelementptr inbounds i8, i8* %169, i64 56
  store i8 0, i8* %173, align 1
  br i1 %167, label %174, label %176

174:                                              ; preds = %166
  %175 = load i8*, i8** %121, align 8
  call void @_ZdlPv(i8* %175) #10
  br label %176

176:                                              ; preds = %174, %166
  call void @llvm.memcpy.p0i8.p0i8.i64(i8* nonnull align 8 %120, i8* nonnull align 8 %168, i64 24, i1 false) #8
  call void @llvm.lifetime.end.p0i8(i64 24, i8* nonnull %168) #8
  br label %177

177:                                              ; preds = %140, %138, %124, %176
  %178 = getelementptr inbounds [32 x i8], [32 x i8]* %15, i64 0, i64 0
  call void @llvm.lifetime.start.p0i8(i64 32, i8* nonnull %178) #8
  %179 = getelementptr inbounds [32 x i8], [32 x i8]* %16, i64 0, i64 0
  call void @llvm.memset.p0i8.i64(i8* nonnull align 16 %178, i8 -86, i64 32, i1 false)
  call void @llvm.lifetime.start.p0i8(i64 32, i8* nonnull %179) #8
  call void @llvm.memset.p0i8.i64(i8* nonnull align 16 %179, i8 -86, i64 32, i1 false)
  call void @_ZN6crypto24P224EncryptedKeyExchange13CalculateHashENS0_8PeerTypeERKNSt3__112basic_stringIcNS2_11char_traitsIcEENS2_9allocatorIcEEEESA_SA_Ph(%"class.crypto::P224EncryptedKeyExchange"* %0, i32 0, %"class.std::__1::basic_string"* nonnull dereferenceable(24) %11, %"class.std::__1::basic_string"* nonnull dereferenceable(24) %12, %"class.std::__1::basic_string"* dereferenceable(24) %108, i8* nonnull %178)
  call void @_ZN6crypto24P224EncryptedKeyExchange13CalculateHashENS0_8PeerTypeERKNSt3__112basic_stringIcNS2_11char_traitsIcEENS2_9allocatorIcEEEESA_SA_Ph(%"class.crypto::P224EncryptedKeyExchange"* %0, i32 1, %"class.std::__1::basic_string"* nonnull dereferenceable(24) %11, %"class.std::__1::basic_string"* nonnull dereferenceable(24) %12, %"class.std::__1::basic_string"* dereferenceable(24) %108, i8* nonnull %179)
  %180 = load i8, i8* %74, align 4, !range !2
  %181 = icmp ne i8 %180, 0
  %182 = select i1 %181, [32 x i8]* %16, [32 x i8]* %15
  %183 = getelementptr inbounds [32 x i8], [32 x i8]* %182, i64 0, i64 0
  %184 = select i1 %181, [32 x i8]* %15, [32 x i8]* %16
  %185 = getelementptr inbounds [32 x i8], [32 x i8]* %184, i64 0, i64 0
  %186 = call i8* @_Znwm(i64 48) #10
  call void @llvm.memcpy.p0i8.p0i8.i64(i8* nonnull align 1 %186, i8* nonnull align 16 %183, i64 32, i1 false) #8
  %187 = getelementptr inbounds i8, i8* %186, i64 32
  store i8 0, i8* %187, align 1
  %188 = getelementptr inbounds %"class.crypto::P224EncryptedKeyExchange", %"class.crypto::P224EncryptedKeyExchange"* %0, i64 0, i32 2
  %189 = bitcast %"class.std::__1::basic_string"* %188 to %"struct.std::__1::basic_string<char, std::__1::char_traits<char>, std::__1::allocator<char> >::__short"*
  %190 = getelementptr inbounds %"struct.std::__1::basic_string<char, std::__1::char_traits<char>, std::__1::allocator<char> >::__short", %"struct.std::__1::basic_string<char, std::__1::char_traits<char>, std::__1::allocator<char> >::__short"* %189, i64 0, i32 1, i32 0
  %191 = load i8, i8* %190, align 1
  %192 = icmp slt i8 %191, 0
  br i1 %192, label %193, label %196

193:                                              ; preds = %177
  %194 = getelementptr inbounds %"class.std::__1::basic_string", %"class.std::__1::basic_string"* %188, i64 0, i32 0, i32 0, i32 0, i32 0, i32 0, i32 0
  %195 = load i8*, i8** %194, align 8
  call void @_ZdlPv(i8* %195) #10
  br label %196

196:                                              ; preds = %193, %177
  %197 = getelementptr inbounds %"class.crypto::P224EncryptedKeyExchange", %"class.crypto::P224EncryptedKeyExchange"* %0, i64 0, i32 2, i32 0, i32 0, i32 0, i32 0, i32 0, i32 0
  store i8* %186, i8** %197, align 8
  %198 = getelementptr inbounds %"class.crypto::P224EncryptedKeyExchange", %"class.crypto::P224EncryptedKeyExchange"* %0, i64 0, i32 2, i32 0, i32 0, i32 0, i32 0, i32 0, i32 1
  %199 = bitcast i64* %198 to <2 x i64>*
  store <2 x i64> <i64 32, i64 -9223372036854775760>, <2 x i64>* %199, align 8
  %200 = getelementptr inbounds %"class.crypto::P224EncryptedKeyExchange", %"class.crypto::P224EncryptedKeyExchange"* %0, i64 0, i32 6, i64 0
  call void @llvm.memcpy.p0i8.p0i8.i64(i8* align 8 %200, i8* nonnull align 16 %185, i64 32, i1 false)
  store i32 2, i32* %17, align 8
  call void @llvm.lifetime.end.p0i8(i64 32, i8* nonnull %179) #8
  call void @llvm.lifetime.end.p0i8(i64 32, i8* nonnull %178) #8
  %201 = bitcast %"class.std::__1::basic_string"* %12 to %"struct.std::__1::basic_string<char, std::__1::char_traits<char>, std::__1::allocator<char> >::__short"*
  %202 = getelementptr inbounds %"struct.std::__1::basic_string<char, std::__1::char_traits<char>, std::__1::allocator<char> >::__short", %"struct.std::__1::basic_string<char, std::__1::char_traits<char>, std::__1::allocator<char> >::__short"* %201, i64 0, i32 1, i32 0
  %203 = load i8, i8* %202, align 1
  %204 = icmp slt i8 %203, 0
  br i1 %204, label %205, label %207

205:                                              ; preds = %196
  %206 = load i8*, i8** %121, align 8
  call void @_ZdlPv(i8* %206) #10
  br label %207

207:                                              ; preds = %196, %205
  call void @llvm.lifetime.end.p0i8(i64 24, i8* nonnull %120) #8
  %208 = bitcast %"class.std::__1::basic_string"* %11 to %"struct.std::__1::basic_string<char, std::__1::char_traits<char>, std::__1::allocator<char> >::__short"*
  %209 = getelementptr inbounds %"struct.std::__1::basic_string<char, std::__1::char_traits<char>, std::__1::allocator<char> >::__short", %"struct.std::__1::basic_string<char, std::__1::char_traits<char>, std::__1::allocator<char> >::__short"* %208, i64 0, i32 1, i32 0
  %210 = load i8, i8* %209, align 1
  %211 = icmp slt i8 %210, 0
  br i1 %211, label %212, label %214

212:                                              ; preds = %207
  %213 = load i8*, i8** %119, align 8
  call void @_ZdlPv(i8* %213) #10
  br label %214

214:                                              ; preds = %207, %212
  call void @llvm.lifetime.end.p0i8(i64 24, i8* nonnull %118) #8
  %215 = icmp eq %struct.bignum_st* %94, null
  br i1 %215, label %217, label %216

216:                                              ; preds = %214
  call void @BN_free(%struct.bignum_st* nonnull %94) #8
  br label %217

217:                                              ; preds = %214, %216
  %218 = icmp eq %struct.ec_point_st* %92, null
  br i1 %218, label %220, label %219

219:                                              ; preds = %217
  call void @EC_POINT_free(%struct.ec_point_st* nonnull %92) #8
  br label %220

220:                                              ; preds = %217, %219
  %221 = icmp eq %struct.ec_point_st* %85, null
  br i1 %221, label %223, label %222

222:                                              ; preds = %220
  call void @EC_POINT_free(%struct.ec_point_st* nonnull %85) #8
  br label %223

223:                                              ; preds = %220, %222
  %224 = icmp eq %struct.ec_point_st* %78, null
  br i1 %224, label %226, label %225

225:                                              ; preds = %223
  call void @EC_POINT_free(%struct.ec_point_st* nonnull %78) #8
  br label %226

226:                                              ; preds = %223, %225
  call void @EC_POINT_free(%struct.ec_point_st* nonnull %61) #8
  br label %227

227:                                              ; preds = %70, %226
  %228 = phi i32 [ 0, %226 ], [ 1, %70 ]
  %229 = icmp eq %struct.ec_group_st* %56, null
  br i1 %229, label %231, label %230

230:                                              ; preds = %227
  call void @EC_GROUP_free(%struct.ec_group_st* nonnull %56) #8
  br label %231

231:                                              ; preds = %230, %227, %52, %27, %21, %30
  %232 = phi i32 [ 2, %30 ], [ 1, %21 ], [ 1, %27 ], [ 1, %52 ], [ %228, %227 ], [ %228, %230 ]
  ret i32 %232
}

declare zeroext i1 @_ZN6crypto14SecureMemEqualEPKvS1_m(i8*, i8*, i64) local_unnamed_addr #2

; Function Attrs: argmemonly nounwind
declare void @llvm.memcpy.p0i8.p0i8.i64(i8* nocapture writeonly, i8* nocapture readonly, i64, i1 immarg) #1

declare i32 @EC_POINT_invert(%struct.ec_group_st*, %struct.ec_point_st*, %struct.bignum_ctx*) local_unnamed_addr #2

; Function Attrs: nounwind ssp uwtable
define hidden void @_ZN6crypto24P224EncryptedKeyExchange13CalculateHashENS0_8PeerTypeERKNSt3__112basic_stringIcNS2_11char_traitsIcEENS2_9allocatorIcEEEESA_SA_Ph(%"class.crypto::P224EncryptedKeyExchange"* nocapture readonly, i32, %"class.std::__1::basic_string"* dereferenceable(24), %"class.std::__1::basic_string"* dereferenceable(24), %"class.std::__1::basic_string"* dereferenceable(24), i8*) local_unnamed_addr #0 align 2 {
  %7 = alloca %"class.std::__1::basic_string", align 8
  %8 = bitcast %"class.std::__1::basic_string"* %7 to i8*
  call void @llvm.lifetime.start.p0i8(i64 24, i8* nonnull %8) #8
  %9 = getelementptr inbounds %"class.std::__1::basic_string", %"class.std::__1::basic_string"* %7, i64 0, i32 0, i32 0, i32 0, i32 0, i32 0, i32 0
  %10 = getelementptr inbounds %"class.std::__1::basic_string", %"class.std::__1::basic_string"* %7, i64 0, i32 0, i32 0, i32 0, i32 0, i32 0, i32 1
  call void @llvm.memset.p0i8.i64(i8* nonnull align 8 %8, i8 0, i64 24, i1 false) #8
  %11 = icmp eq i32 %1, 1
  %12 = bitcast %"class.std::__1::basic_string"* %7 to %"struct.std::__1::basic_string<char, std::__1::char_traits<char>, std::__1::allocator<char> >::__short"*
  %13 = getelementptr inbounds %"struct.std::__1::basic_string<char, std::__1::char_traits<char>, std::__1::allocator<char> >::__short", %"struct.std::__1::basic_string<char, std::__1::char_traits<char>, std::__1::allocator<char> >::__short"* %12, i64 0, i32 1, i32 0
  store i8 6, i8* %13, align 1
  br i1 %11, label %14, label %15

14:                                               ; preds = %6
  call void @llvm.memcpy.p0i8.p0i8.i64(i8* nonnull align 8 %8, i8* align 1 getelementptr inbounds ([7 x i8], [7 x i8]* @.str.13, i64 0, i64 0), i64 6, i1 false) #8
  br label %16

15:                                               ; preds = %6
  call void @llvm.memcpy.p0i8.p0i8.i64(i8* nonnull align 8 %8, i8* align 1 getelementptr inbounds ([7 x i8], [7 x i8]* @.str.14, i64 0, i64 0), i64 6, i1 false) #8
  br label %16

16:                                               ; preds = %15, %14
  %17 = getelementptr inbounds i8, i8* %8, i64 6
  store i8 0, i8* %17, align 2
  %18 = bitcast %"class.std::__1::basic_string"* %2 to %"struct.std::__1::basic_string<char, std::__1::char_traits<char>, std::__1::allocator<char> >::__short"*
  %19 = getelementptr inbounds %"struct.std::__1::basic_string<char, std::__1::char_traits<char>, std::__1::allocator<char> >::__short", %"struct.std::__1::basic_string<char, std::__1::char_traits<char>, std::__1::allocator<char> >::__short"* %18, i64 0, i32 1, i32 0
  %20 = load i8, i8* %19, align 1
  %21 = icmp slt i8 %20, 0
  %22 = getelementptr inbounds %"class.std::__1::basic_string", %"class.std::__1::basic_string"* %2, i64 0, i32 0, i32 0, i32 0, i32 0, i32 0, i32 0
  %23 = load i8*, i8** %22, align 8
  %24 = getelementptr inbounds %"class.std::__1::basic_string", %"class.std::__1::basic_string"* %2, i64 0, i32 0, i32 0, i32 0, i32 0, i32 0, i32 1
  %25 = load i64, i64* %24, align 8
  %26 = bitcast %"class.std::__1::basic_string"* %2 to i8*
  %27 = zext i8 %20 to i64
  %28 = select i1 %21, i8* %23, i8* %26
  %29 = select i1 %21, i64 %25, i64 %27
  %30 = call dereferenceable(24) %"class.std::__1::basic_string"* @_ZNSt3__112basic_stringIcNS_11char_traitsIcEENS_9allocatorIcEEE6appendEPKcm(%"class.std::__1::basic_string"* nonnull %7, i8* %28, i64 %29) #8
  %31 = bitcast %"class.std::__1::basic_string"* %3 to %"struct.std::__1::basic_string<char, std::__1::char_traits<char>, std::__1::allocator<char> >::__short"*
  %32 = getelementptr inbounds %"struct.std::__1::basic_string<char, std::__1::char_traits<char>, std::__1::allocator<char> >::__short", %"struct.std::__1::basic_string<char, std::__1::char_traits<char>, std::__1::allocator<char> >::__short"* %31, i64 0, i32 1, i32 0
  %33 = load i8, i8* %32, align 1
  %34 = icmp slt i8 %33, 0
  %35 = getelementptr inbounds %"class.std::__1::basic_string", %"class.std::__1::basic_string"* %3, i64 0, i32 0, i32 0, i32 0, i32 0, i32 0, i32 0
  %36 = load i8*, i8** %35, align 8
  %37 = getelementptr inbounds %"class.std::__1::basic_string", %"class.std::__1::basic_string"* %3, i64 0, i32 0, i32 0, i32 0, i32 0, i32 0, i32 1
  %38 = load i64, i64* %37, align 8
  %39 = bitcast %"class.std::__1::basic_string"* %3 to i8*
  %40 = zext i8 %33 to i64
  %41 = select i1 %34, i8* %36, i8* %39
  %42 = select i1 %34, i64 %38, i64 %40
  %43 = call dereferenceable(24) %"class.std::__1::basic_string"* @_ZNSt3__112basic_stringIcNS_11char_traitsIcEENS_9allocatorIcEEE6appendEPKcm(%"class.std::__1::basic_string"* nonnull %7, i8* %41, i64 %42) #8
  %44 = getelementptr inbounds %"class.crypto::P224EncryptedKeyExchange", %"class.crypto::P224EncryptedKeyExchange"* %0, i64 0, i32 5, i64 0
  %45 = call i8* @_Znwm(i64 32) #10
  call void @llvm.memcpy.p0i8.p0i8.i64(i8* nonnull align 1 %45, i8* align 1 %44, i64 28, i1 false) #8
  %46 = getelementptr inbounds i8, i8* %45, i64 28
  store i8 0, i8* %46, align 1
  %47 = call dereferenceable(24) %"class.std::__1::basic_string"* @_ZNSt3__112basic_stringIcNS_11char_traitsIcEENS_9allocatorIcEEE6appendEPKcm(%"class.std::__1::basic_string"* nonnull %7, i8* nonnull %45, i64 28) #8
  call void @_ZdlPv(i8* nonnull %45) #10
  %48 = bitcast %"class.std::__1::basic_string"* %4 to %"struct.std::__1::basic_string<char, std::__1::char_traits<char>, std::__1::allocator<char> >::__short"*
  %49 = getelementptr inbounds %"struct.std::__1::basic_string<char, std::__1::char_traits<char>, std::__1::allocator<char> >::__short", %"struct.std::__1::basic_string<char, std::__1::char_traits<char>, std::__1::allocator<char> >::__short"* %48, i64 0, i32 1, i32 0
  %50 = load i8, i8* %49, align 1
  %51 = icmp slt i8 %50, 0
  %52 = getelementptr inbounds %"class.std::__1::basic_string", %"class.std::__1::basic_string"* %4, i64 0, i32 0, i32 0, i32 0, i32 0, i32 0, i32 0
  %53 = load i8*, i8** %52, align 8
  %54 = getelementptr inbounds %"class.std::__1::basic_string", %"class.std::__1::basic_string"* %4, i64 0, i32 0, i32 0, i32 0, i32 0, i32 0, i32 1
  %55 = load i64, i64* %54, align 8
  %56 = bitcast %"class.std::__1::basic_string"* %4 to i8*
  %57 = zext i8 %50 to i64
  %58 = select i1 %51, i8* %53, i8* %56
  %59 = select i1 %51, i64 %55, i64 %57
  %60 = call dereferenceable(24) %"class.std::__1::basic_string"* @_ZNSt3__112basic_stringIcNS_11char_traitsIcEENS_9allocatorIcEEE6appendEPKcm(%"class.std::__1::basic_string"* nonnull %7, i8* %58, i64 %59) #8
  %61 = load i8, i8* %13, align 1
  %62 = icmp slt i8 %61, 0
  %63 = load i8*, i8** %9, align 8
  %64 = select i1 %62, i8* %63, i8* %8
  %65 = load i64, i64* %10, align 8
  %66 = zext i8 %61 to i64
  %67 = select i1 %62, i64 %65, i64 %66
  call void @_ZN6crypto16SHA256HashStringEN4base16BasicStringPieceIcNSt3__111char_traitsIcEEEEPvm(i8* %64, i64 %67, i8* %5, i64 32) #8
  %68 = load i8, i8* %13, align 1
  %69 = icmp slt i8 %68, 0
  br i1 %69, label %70, label %72

70:                                               ; preds = %16
  %71 = load i8*, i8** %9, align 8
  call void @_ZdlPv(i8* %71) #10
  br label %72

72:                                               ; preds = %16, %70
  call void @llvm.lifetime.end.p0i8(i64 24, i8* nonnull %8) #8
  ret void
}

; Function Attrs: norecurse nounwind readnone ssp uwtable
define hidden dereferenceable(24) %"class.std::__1::basic_string"* @_ZNK6crypto24P224EncryptedKeyExchange5errorEv(%"class.crypto::P224EncryptedKeyExchange"* readnone) local_unnamed_addr #4 align 2 {
  %2 = getelementptr inbounds %"class.crypto::P224EncryptedKeyExchange", %"class.crypto::P224EncryptedKeyExchange"* %0, i64 0, i32 3
  ret %"class.std::__1::basic_string"* %2
}

; Function Attrs: norecurse nounwind readnone ssp uwtable
define hidden dereferenceable(24) %"class.std::__1::basic_string"* @_ZNK6crypto24P224EncryptedKeyExchange6GetKeyEv(%"class.crypto::P224EncryptedKeyExchange"* readnone) local_unnamed_addr #4 align 2 {
  %2 = getelementptr inbounds %"class.crypto::P224EncryptedKeyExchange", %"class.crypto::P224EncryptedKeyExchange"* %0, i64 0, i32 7
  ret %"class.std::__1::basic_string"* %2
}

; Function Attrs: norecurse nounwind readnone ssp uwtable
define hidden dereferenceable(24) %"class.std::__1::basic_string"* @_ZNK6crypto24P224EncryptedKeyExchange16GetUnverifiedKeyEv(%"class.crypto::P224EncryptedKeyExchange"* readnone) local_unnamed_addr #4 align 2 {
  %2 = getelementptr inbounds %"class.crypto::P224EncryptedKeyExchange", %"class.crypto::P224EncryptedKeyExchange"* %0, i64 0, i32 7
  ret %"class.std::__1::basic_string"* %2
}

; Function Attrs: nounwind ssp uwtable
define hidden void @_ZN6crypto24P224EncryptedKeyExchange14SetXForTestingERKNSt3__112basic_stringIcNS1_11char_traitsIcEENS1_9allocatorIcEEEE(%"class.crypto::P224EncryptedKeyExchange"*, %"class.std::__1::basic_string"* nocapture readonly dereferenceable(24)) local_unnamed_addr #0 align 2 {
  %3 = getelementptr inbounds %"class.crypto::P224EncryptedKeyExchange", %"class.crypto::P224EncryptedKeyExchange"* %0, i64 0, i32 4, i64 0
  tail call void @llvm.memset.p0i8.i64(i8* align 8 %3, i8 0, i64 28, i1 false)
  %4 = bitcast %"class.std::__1::basic_string"* %1 to %"struct.std::__1::basic_string<char, std::__1::char_traits<char>, std::__1::allocator<char> >::__short"*
  %5 = getelementptr inbounds %"struct.std::__1::basic_string<char, std::__1::char_traits<char>, std::__1::allocator<char> >::__short", %"struct.std::__1::basic_string<char, std::__1::char_traits<char>, std::__1::allocator<char> >::__short"* %4, i64 0, i32 1, i32 0
  %6 = load i8, i8* %5, align 1
  %7 = icmp slt i8 %6, 0
  %8 = getelementptr inbounds %"class.std::__1::basic_string", %"class.std::__1::basic_string"* %1, i64 0, i32 0, i32 0, i32 0, i32 0, i32 0, i32 0
  %9 = load i8*, i8** %8, align 8
  %10 = getelementptr inbounds %"class.std::__1::basic_string", %"class.std::__1::basic_string"* %1, i64 0, i32 0, i32 0, i32 0, i32 0, i32 0, i32 1
  %11 = load i64, i64* %10, align 8
  %12 = bitcast %"class.std::__1::basic_string"* %1 to i8*
  %13 = zext i8 %6 to i64
  %14 = select i1 %7, i8* %9, i8* %12
  %15 = select i1 %7, i64 %11, i64 %13
  %16 = icmp ult i64 %15, 28
  %17 = select i1 %16, i64 %15, i64 28
  tail call void @llvm.memcpy.p0i8.p0i8.i64(i8* align 8 %3, i8* align 1 %14, i64 %17, i1 false)
  tail call void @_ZN6crypto24P224EncryptedKeyExchange4InitEv(%"class.crypto::P224EncryptedKeyExchange"* %0)
  ret void
}

declare %struct.bignum_st* @BN_new() local_unnamed_addr #2

declare %struct.bignum_st* @BN_bin2bn(i8*, i64, %struct.bignum_st*) local_unnamed_addr #2

declare i32 @EC_POINT_oct2point(%struct.ec_group_st*, %struct.ec_point_st*, i8*, i64, %struct.bignum_ctx*) local_unnamed_addr #2

declare i32 @EC_POINT_is_at_infinity(%struct.ec_group_st*, %struct.ec_point_st*) local_unnamed_addr #2

declare i64 @EC_POINT_point2oct(%struct.ec_group_st*, %struct.ec_point_st*, i32, i8*, i64, %struct.bignum_ctx*) local_unnamed_addr #2

; Function Attrs: noreturn
declare void @_ZNKSt3__121__basic_string_commonILb1EE20__throw_length_errorEv(%"class.std::__1::__basic_string_common"*) local_unnamed_addr #5

; Function Attrs: nobuiltin nofree
declare noalias nonnull i8* @_Znwm(i64) local_unnamed_addr #6

; Function Attrs: nobuiltin nounwind
declare void @_ZdlPv(i8*) local_unnamed_addr #7

declare void @BN_free(%struct.bignum_st*) local_unnamed_addr #2

declare void @EC_POINT_free(%struct.ec_point_st*) local_unnamed_addr #2

declare void @EC_GROUP_free(%struct.ec_group_st*) local_unnamed_addr #2

; Function Attrs: nounwind ssp uwtable
define linkonce_odr hidden dereferenceable(160) %"class.std::__1::basic_ostream"* @_ZNSt3__124__put_character_sequenceIcNS_11char_traitsIcEEEERNS_13basic_ostreamIT_T0_EES7_PKS4_m(%"class.std::__1::basic_ostream"* dereferenceable(160), i8*, i64) local_unnamed_addr #0 comdat {
  %4 = alloca %"class.std::__1::locale", align 8
  %5 = alloca %"class.std::__1::basic_ostream<char, std::__1::char_traits<char> >::sentry", align 8
  %6 = getelementptr inbounds %"class.std::__1::basic_ostream<char, std::__1::char_traits<char> >::sentry", %"class.std::__1::basic_ostream<char, std::__1::char_traits<char> >::sentry"* %5, i64 0, i32 0
  call void @llvm.lifetime.start.p0i8(i64 16, i8* nonnull %6) #8
  call void @llvm.memset.p0i8.i64(i8* nonnull align 8 %6, i8 -86, i64 16, i1 false)
  call void @_ZNSt3__113basic_ostreamIcNS_11char_traitsIcEEE6sentryC1ERS3_(%"class.std::__1::basic_ostream<char, std::__1::char_traits<char> >::sentry"* nonnull %5, %"class.std::__1::basic_ostream"* dereferenceable(160) %0) #8
  %7 = load i8, i8* %6, align 8, !range !2
  %8 = icmp eq i8 %7, 0
  br i1 %8, label %58, label %9

9:                                                ; preds = %3
  %10 = bitcast %"class.std::__1::basic_ostream"* %0 to i8**
  %11 = load i8*, i8** %10, align 8
  %12 = getelementptr i8, i8* %11, i64 -24
  %13 = bitcast i8* %12 to i64*
  %14 = load i64, i64* %13, align 8
  %15 = bitcast %"class.std::__1::basic_ostream"* %0 to i8*
  %16 = getelementptr inbounds i8, i8* %15, i64 %14
  %17 = getelementptr inbounds i8, i8* %16, i64 40
  %18 = bitcast i8* %17 to %"class.std::__1::basic_streambuf"**
  %19 = load %"class.std::__1::basic_streambuf"*, %"class.std::__1::basic_streambuf"** %18, align 8
  %20 = bitcast i8* %16 to %"class.std::__1::ios_base"*
  %21 = getelementptr inbounds i8, i8* %16, i64 8
  %22 = bitcast i8* %21 to i32*
  %23 = load i32, i32* %22, align 8
  %24 = and i32 %23, 176
  %25 = icmp eq i32 %24, 32
  %26 = getelementptr inbounds i8, i8* %1, i64 %2
  %27 = select i1 %25, i8* %26, i8* %1
  %28 = getelementptr inbounds i8, i8* %16, i64 144
  %29 = bitcast i8* %28 to i32*
  %30 = load i32, i32* %29, align 8
  %31 = icmp eq i32 %30, -1
  br i1 %31, label %32, label %42

32:                                               ; preds = %9
  %33 = bitcast %"class.std::__1::locale"* %4 to i8*
  call void @llvm.lifetime.start.p0i8(i64 8, i8* nonnull %33) #8
  call void @_ZNKSt3__18ios_base6getlocEv(%"class.std::__1::locale"* nonnull sret %4, %"class.std::__1::ios_base"* %20) #8
  %34 = call %"class.std::__1::locale::facet"* @_ZNKSt3__16locale9use_facetERNS0_2idE(%"class.std::__1::locale"* nonnull %4, %"class.std::__1::locale::id"* nonnull dereferenceable(16) @_ZNSt3__15ctypeIcE2idE) #8
  %35 = bitcast %"class.std::__1::locale::facet"* %34 to %"class.std::__1::ctype"*
  %36 = bitcast %"class.std::__1::locale::facet"* %34 to i8 (%"class.std::__1::ctype"*, i8)***
  %37 = load i8 (%"class.std::__1::ctype"*, i8)**, i8 (%"class.std::__1::ctype"*, i8)*** %36, align 8
  %38 = getelementptr inbounds i8 (%"class.std::__1::ctype"*, i8)*, i8 (%"class.std::__1::ctype"*, i8)** %37, i64 7
  %39 = load i8 (%"class.std::__1::ctype"*, i8)*, i8 (%"class.std::__1::ctype"*, i8)** %38, align 8
  %40 = call signext i8 %39(%"class.std::__1::ctype"* %35, i8 signext 32) #8
  call void @_ZNSt3__16localeD1Ev(%"class.std::__1::locale"* nonnull %4) #8
  call void @llvm.lifetime.end.p0i8(i64 8, i8* nonnull %33) #8
  %41 = sext i8 %40 to i32
  store i32 %41, i32* %29, align 8
  br label %42

42:                                               ; preds = %9, %32
  %43 = phi i32 [ %41, %32 ], [ %30, %9 ]
  %44 = trunc i32 %43 to i8
  %45 = call %"class.std::__1::basic_streambuf"* @_ZNSt3__116__pad_and_outputIcNS_11char_traitsIcEEEENS_19ostreambuf_iteratorIT_T0_EES6_PKS4_S8_S8_RNS_8ios_baseES4_(%"class.std::__1::basic_streambuf"* %19, i8* %1, i8* %27, i8* %26, %"class.std::__1::ios_base"* dereferenceable(136) %20, i8 signext %44)
  %46 = icmp eq %"class.std::__1::basic_streambuf"* %45, null
  br i1 %46, label %47, label %58

47:                                               ; preds = %42
  %48 = load i8*, i8** %10, align 8
  %49 = getelementptr i8, i8* %48, i64 -24
  %50 = bitcast i8* %49 to i64*
  %51 = load i64, i64* %50, align 8
  %52 = getelementptr inbounds i8, i8* %15, i64 %51
  %53 = bitcast i8* %52 to %"class.std::__1::ios_base"*
  %54 = getelementptr inbounds i8, i8* %52, i64 32
  %55 = bitcast i8* %54 to i32*
  %56 = load i32, i32* %55, align 8
  %57 = or i32 %56, 5
  call void @_ZNSt3__18ios_base5clearEj(%"class.std::__1::ios_base"* %53, i32 %57) #8
  br label %58

58:                                               ; preds = %3, %42, %47
  call void @_ZNSt3__113basic_ostreamIcNS_11char_traitsIcEEE6sentryD1Ev(%"class.std::__1::basic_ostream<char, std::__1::char_traits<char> >::sentry"* nonnull %5) #8
  call void @llvm.lifetime.end.p0i8(i64 16, i8* nonnull %6) #8
  ret %"class.std::__1::basic_ostream"* %0
}

declare void @_ZNSt3__113basic_ostreamIcNS_11char_traitsIcEEE6sentryC1ERS3_(%"class.std::__1::basic_ostream<char, std::__1::char_traits<char> >::sentry"*, %"class.std::__1::basic_ostream"* dereferenceable(160)) unnamed_addr #2

; Function Attrs: nounwind ssp uwtable
define linkonce_odr hidden %"class.std::__1::basic_streambuf"* @_ZNSt3__116__pad_and_outputIcNS_11char_traitsIcEEEENS_19ostreambuf_iteratorIT_T0_EES6_PKS4_S8_S8_RNS_8ios_baseES4_(%"class.std::__1::basic_streambuf"*, i8*, i8*, i8*, %"class.std::__1::ios_base"* dereferenceable(136), i8 signext) local_unnamed_addr #0 comdat {
  %7 = alloca %"class.std::__1::basic_string", align 8
  %8 = icmp eq %"class.std::__1::basic_streambuf"* %0, null
  br i1 %8, label %78, label %9

9:                                                ; preds = %6
  %10 = ptrtoint i8* %3 to i64
  %11 = ptrtoint i8* %1 to i64
  %12 = sub i64 %10, %11
  %13 = getelementptr inbounds %"class.std::__1::ios_base", %"class.std::__1::ios_base"* %4, i64 0, i32 3
  %14 = load i64, i64* %13, align 8
  %15 = icmp sgt i64 %14, %12
  %16 = sub nsw i64 %14, %12
  %17 = select i1 %15, i64 %16, i64 0
  %18 = ptrtoint i8* %2 to i64
  %19 = sub i64 %18, %11
  %20 = icmp sgt i64 %19, 0
  br i1 %20, label %21, label %28

21:                                               ; preds = %9
  %22 = bitcast %"class.std::__1::basic_streambuf"* %0 to i64 (%"class.std::__1::basic_streambuf"*, i8*, i64)***
  %23 = load i64 (%"class.std::__1::basic_streambuf"*, i8*, i64)**, i64 (%"class.std::__1::basic_streambuf"*, i8*, i64)*** %22, align 8
  %24 = getelementptr inbounds i64 (%"class.std::__1::basic_streambuf"*, i8*, i64)*, i64 (%"class.std::__1::basic_streambuf"*, i8*, i64)** %23, i64 12
  %25 = load i64 (%"class.std::__1::basic_streambuf"*, i8*, i64)*, i64 (%"class.std::__1::basic_streambuf"*, i8*, i64)** %24, align 8
  %26 = tail call i64 %25(%"class.std::__1::basic_streambuf"* nonnull %0, i8* %1, i64 %19) #8
  %27 = icmp eq i64 %26, %19
  br i1 %27, label %28, label %78

28:                                               ; preds = %21, %9
  %29 = icmp sgt i64 %17, 0
  br i1 %29, label %30, label %67

30:                                               ; preds = %28
  %31 = bitcast %"class.std::__1::basic_string"* %7 to i8*
  call void @llvm.lifetime.start.p0i8(i64 24, i8* nonnull %31) #8
  %32 = getelementptr inbounds %"class.std::__1::basic_string", %"class.std::__1::basic_string"* %7, i64 0, i32 0, i32 0, i32 0, i32 0, i32 0, i32 0
  %33 = icmp ult i64 %17, 23
  %34 = bitcast %"class.std::__1::basic_string"* %7 to i8*
  call void @llvm.memset.p0i8.i64(i8* nonnull align 8 %34, i8 -86, i64 24, i1 false)
  br i1 %33, label %43, label %35

35:                                               ; preds = %30
  %36 = getelementptr inbounds %"class.std::__1::basic_string", %"class.std::__1::basic_string"* %7, i64 0, i32 0, i32 0, i32 0, i32 0, i32 0, i32 2
  %37 = getelementptr inbounds %"class.std::__1::basic_string", %"class.std::__1::basic_string"* %7, i64 0, i32 0, i32 0, i32 0, i32 0, i32 0, i32 1
  %38 = add nuw i64 %17, 16
  %39 = and i64 %38, -16
  %40 = tail call i8* @_Znwm(i64 %39) #10
  store i8* %40, i8** %32, align 8
  %41 = or i64 %39, -9223372036854775808
  store i64 %41, i64* %36, align 8
  store i64 %17, i64* %37, align 8
  %42 = bitcast %"class.std::__1::basic_string"* %7 to %"struct.std::__1::basic_string<char, std::__1::char_traits<char>, std::__1::allocator<char> >::__short"*
  br label %47

43:                                               ; preds = %30
  %44 = trunc i64 %17 to i8
  %45 = bitcast %"class.std::__1::basic_string"* %7 to %"struct.std::__1::basic_string<char, std::__1::char_traits<char>, std::__1::allocator<char> >::__short"*
  %46 = getelementptr inbounds %"struct.std::__1::basic_string<char, std::__1::char_traits<char>, std::__1::allocator<char> >::__short", %"struct.std::__1::basic_string<char, std::__1::char_traits<char>, std::__1::allocator<char> >::__short"* %45, i64 0, i32 1, i32 0
  store i8 %44, i8* %46, align 1
  br label %47

47:                                               ; preds = %35, %43
  %48 = phi %"struct.std::__1::basic_string<char, std::__1::char_traits<char>, std::__1::allocator<char> >::__short"* [ %42, %35 ], [ %45, %43 ]
  %49 = phi i8* [ %40, %35 ], [ %31, %43 ]
  call void @llvm.memset.p0i8.i64(i8* nonnull align 1 %49, i8 %5, i64 %17, i1 false) #8
  %50 = getelementptr inbounds i8, i8* %49, i64 %17
  store i8 0, i8* %50, align 1
  %51 = getelementptr inbounds %"struct.std::__1::basic_string<char, std::__1::char_traits<char>, std::__1::allocator<char> >::__short", %"struct.std::__1::basic_string<char, std::__1::char_traits<char>, std::__1::allocator<char> >::__short"* %48, i64 0, i32 1, i32 0
  %52 = load i8, i8* %51, align 1
  %53 = icmp slt i8 %52, 0
  %54 = load i8*, i8** %32, align 8
  %55 = select i1 %53, i8* %54, i8* %31
  %56 = bitcast %"class.std::__1::basic_streambuf"* %0 to i64 (%"class.std::__1::basic_streambuf"*, i8*, i64)***
  %57 = load i64 (%"class.std::__1::basic_streambuf"*, i8*, i64)**, i64 (%"class.std::__1::basic_streambuf"*, i8*, i64)*** %56, align 8
  %58 = getelementptr inbounds i64 (%"class.std::__1::basic_streambuf"*, i8*, i64)*, i64 (%"class.std::__1::basic_streambuf"*, i8*, i64)** %57, i64 12
  %59 = load i64 (%"class.std::__1::basic_streambuf"*, i8*, i64)*, i64 (%"class.std::__1::basic_streambuf"*, i8*, i64)** %58, align 8
  %60 = call i64 %59(%"class.std::__1::basic_streambuf"* nonnull %0, i8* %55, i64 %17) #8
  %61 = icmp eq i64 %60, %17
  %62 = load i8, i8* %51, align 1
  %63 = icmp slt i8 %62, 0
  br i1 %63, label %64, label %66

64:                                               ; preds = %47
  %65 = load i8*, i8** %32, align 8
  call void @_ZdlPv(i8* %65) #10
  br label %66

66:                                               ; preds = %47, %64
  call void @llvm.lifetime.end.p0i8(i64 24, i8* nonnull %31) #8
  br i1 %61, label %67, label %78

67:                                               ; preds = %66, %28
  %68 = sub i64 %10, %18
  %69 = icmp sgt i64 %68, 0
  br i1 %69, label %70, label %77

70:                                               ; preds = %67
  %71 = bitcast %"class.std::__1::basic_streambuf"* %0 to i64 (%"class.std::__1::basic_streambuf"*, i8*, i64)***
  %72 = load i64 (%"class.std::__1::basic_streambuf"*, i8*, i64)**, i64 (%"class.std::__1::basic_streambuf"*, i8*, i64)*** %71, align 8
  %73 = getelementptr inbounds i64 (%"class.std::__1::basic_streambuf"*, i8*, i64)*, i64 (%"class.std::__1::basic_streambuf"*, i8*, i64)** %72, i64 12
  %74 = load i64 (%"class.std::__1::basic_streambuf"*, i8*, i64)*, i64 (%"class.std::__1::basic_streambuf"*, i8*, i64)** %73, align 8
  %75 = call i64 %74(%"class.std::__1::basic_streambuf"* nonnull %0, i8* %2, i64 %68) #8
  %76 = icmp eq i64 %75, %68
  br i1 %76, label %77, label %78

77:                                               ; preds = %70, %67
  store i64 0, i64* %13, align 8
  br label %78

78:                                               ; preds = %77, %66, %21, %70, %6
  %79 = phi %"class.std::__1::basic_streambuf"* [ null, %6 ], [ %0, %77 ], [ null, %66 ], [ null, %21 ], [ null, %70 ]
  ret %"class.std::__1::basic_streambuf"* %79
}

; Function Attrs: nounwind
declare void @_ZNSt3__113basic_ostreamIcNS_11char_traitsIcEEE6sentryD1Ev(%"class.std::__1::basic_ostream<char, std::__1::char_traits<char> >::sentry"*) unnamed_addr #3

declare void @_ZNKSt3__18ios_base6getlocEv(%"class.std::__1::locale"* sret, %"class.std::__1::ios_base"*) local_unnamed_addr #2

; Function Attrs: nounwind
declare void @_ZNSt3__16localeD1Ev(%"class.std::__1::locale"*) unnamed_addr #3

declare %"class.std::__1::locale::facet"* @_ZNKSt3__16locale9use_facetERNS0_2idE(%"class.std::__1::locale"*, %"class.std::__1::locale::id"* dereferenceable(16)) local_unnamed_addr #2

declare void @_ZNSt3__18ios_base5clearEj(%"class.std::__1::ios_base"*, i32) local_unnamed_addr #2

declare dereferenceable(24) %"class.std::__1::basic_string"* @_ZNSt3__112basic_stringIcNS_11char_traitsIcEENS_9allocatorIcEEE17__assign_externalEPKcm(%"class.std::__1::basic_string"*, i8*, i64) local_unnamed_addr #2

declare dereferenceable(24) %"class.std::__1::basic_string"* @_ZNSt3__112basic_stringIcNS_11char_traitsIcEENS_9allocatorIcEEE17__assign_no_aliasILb1EEERS5_PKcm(%"class.std::__1::basic_string"*, i8*, i64) local_unnamed_addr #2

declare dereferenceable(24) %"class.std::__1::basic_string"* @_ZNSt3__112basic_stringIcNS_11char_traitsIcEENS_9allocatorIcEEE6appendEPKcm(%"class.std::__1::basic_string"*, i8*, i64) local_unnamed_addr #2

attributes #0 = { nounwind ssp uwtable "correctly-rounded-divide-sqrt-fp-math"="false" "disable-tail-calls"="false" "less-precise-fpmad"="false" "min-legal-vector-width"="0" "no-frame-pointer-elim"="false" "no-frame-pointer-elim-non-leaf" "no-infs-fp-math"="false" "no-jump-tables"="false" "no-nans-fp-math"="false" "no-signed-zeros-fp-math"="false" "no-trapping-math"="false" "null-pointer-is-valid"="true" "stack-protector-buffer-size"="4" "target-cpu"="x86-64" "target-features"="+cx8,+fxsr,+mmx,+sse,+sse2,+sse3,+x87" "unsafe-fp-math"="false" "use-soft-float"="false" }
attributes #1 = { argmemonly nounwind }
attributes #2 = { "correctly-rounded-divide-sqrt-fp-math"="false" "disable-tail-calls"="false" "less-precise-fpmad"="false" "no-frame-pointer-elim"="false" "no-frame-pointer-elim-non-leaf" "no-infs-fp-math"="false" "no-nans-fp-math"="false" "no-signed-zeros-fp-math"="false" "no-trapping-math"="false" "null-pointer-is-valid"="true" "stack-protector-buffer-size"="4" "target-cpu"="x86-64" "target-features"="+cx8,+fxsr,+mmx,+sse,+sse2,+sse3,+x87" "unsafe-fp-math"="false" "use-soft-float"="false" }
attributes #3 = { nounwind "correctly-rounded-divide-sqrt-fp-math"="false" "disable-tail-calls"="false" "less-precise-fpmad"="false" "no-frame-pointer-elim"="false" "no-frame-pointer-elim-non-leaf" "no-infs-fp-math"="false" "no-nans-fp-math"="false" "no-signed-zeros-fp-math"="false" "no-trapping-math"="false" "null-pointer-is-valid"="true" "stack-protector-buffer-size"="4" "target-cpu"="x86-64" "target-features"="+cx8,+fxsr,+mmx,+sse,+sse2,+sse3,+x87" "unsafe-fp-math"="false" "use-soft-float"="false" }
attributes #4 = { norecurse nounwind readnone ssp uwtable "correctly-rounded-divide-sqrt-fp-math"="false" "disable-tail-calls"="false" "less-precise-fpmad"="false" "min-legal-vector-width"="0" "no-frame-pointer-elim"="false" "no-frame-pointer-elim-non-leaf" "no-infs-fp-math"="false" "no-jump-tables"="false" "no-nans-fp-math"="false" "no-signed-zeros-fp-math"="false" "no-trapping-math"="false" "null-pointer-is-valid"="true" "stack-protector-buffer-size"="4" "target-cpu"="x86-64" "target-features"="+cx8,+fxsr,+mmx,+sse,+sse2,+sse3,+x87" "unsafe-fp-math"="false" "use-soft-float"="false" }
attributes #5 = { noreturn "correctly-rounded-divide-sqrt-fp-math"="false" "disable-tail-calls"="false" "less-precise-fpmad"="false" "no-frame-pointer-elim"="false" "no-frame-pointer-elim-non-leaf" "no-infs-fp-math"="false" "no-nans-fp-math"="false" "no-signed-zeros-fp-math"="false" "no-trapping-math"="false" "null-pointer-is-valid"="true" "stack-protector-buffer-size"="4" "target-cpu"="x86-64" "target-features"="+cx8,+fxsr,+mmx,+sse,+sse2,+sse3,+x87" "unsafe-fp-math"="false" "use-soft-float"="false" }
attributes #6 = { nobuiltin nofree "correctly-rounded-divide-sqrt-fp-math"="false" "disable-tail-calls"="false" "less-precise-fpmad"="false" "no-frame-pointer-elim"="false" "no-frame-pointer-elim-non-leaf" "no-infs-fp-math"="false" "no-nans-fp-math"="false" "no-signed-zeros-fp-math"="false" "no-trapping-math"="false" "null-pointer-is-valid"="true" "stack-protector-buffer-size"="4" "target-cpu"="x86-64" "target-features"="+cx8,+fxsr,+mmx,+sse,+sse2,+sse3,+x87" "unsafe-fp-math"="false" "use-soft-float"="false" }
attributes #7 = { nobuiltin nounwind "correctly-rounded-divide-sqrt-fp-math"="false" "disable-tail-calls"="false" "less-precise-fpmad"="false" "no-frame-pointer-elim"="false" "no-frame-pointer-elim-non-leaf" "no-infs-fp-math"="false" "no-nans-fp-math"="false" "no-signed-zeros-fp-math"="false" "no-trapping-math"="false" "null-pointer-is-valid"="true" "stack-protector-buffer-size"="4" "target-cpu"="x86-64" "target-features"="+cx8,+fxsr,+mmx,+sse,+sse2,+sse3,+x87" "unsafe-fp-math"="false" "use-soft-float"="false" }
attributes #8 = { nounwind }
attributes #9 = { noreturn nounwind }
attributes #10 = { builtin nounwind }

!llvm.module.flags = !{!0, !1}

!0 = !{i32 1, !"wchar_size", i32 4}
!1 = !{i32 7, !"PIC Level", i32 2}
!2 = !{i8 0, i8 2}
!3 = !{!4}
!4 = distinct !{!4, !5, !"_ZNK4base16BasicStringPieceIcNSt3__111char_traitsIcEEEcvNS1_12basic_stringIcS3_NS1_9allocatorIcEEEEEv: argument 0"}
!5 = distinct !{!5, !"_ZNK4base16BasicStringPieceIcNSt3__111char_traitsIcEEEcvNS1_12basic_stringIcS3_NS1_9allocatorIcEEEEEv"}
!6 = !{!7}
!7 = distinct !{!7, !8, !"_ZNK4base16BasicStringPieceIcNSt3__111char_traitsIcEEEcvNS1_12basic_stringIcS3_NS1_9allocatorIcEEEEEv: argument 0"}
!8 = distinct !{!8, !"_ZNK4base16BasicStringPieceIcNSt3__111char_traitsIcEEEcvNS1_12basic_stringIcS3_NS1_9allocatorIcEEEEEv"}
