; ModuleID = '../../third_party/webrtc/p2p/base/p2p_constants.cc'
source_filename = "../../third_party/webrtc/p2p/base/p2p_constants.cc"
target datalayout = "e-m:e-i64:64-f80:128-n8:16:32:64-S128"
target triple = "x86_64-unknown-linux-gnu"

@_ZN7cricket8CN_AUDIOE = hidden local_unnamed_addr constant [6 x i8] c"audio\00", align 1
@_ZN7cricket8CN_VIDEOE = hidden local_unnamed_addr constant [6 x i8] c"video\00", align 1
@_ZN7cricket7CN_DATAE = hidden local_unnamed_addr constant [5 x i8] c"data\00", align 1
@_ZN7cricket8CN_OTHERE = hidden local_unnamed_addr constant [5 x i8] c"main\00", align 1
@_ZN7cricket17GROUP_TYPE_BUNDLEE = hidden local_unnamed_addr constant [7 x i8] c"BUNDLE\00", align 1
@_ZN7cricket16ICE_UFRAG_LENGTHE = hidden local_unnamed_addr constant i32 4, align 4
@_ZN7cricket14ICE_PWD_LENGTHE = hidden local_unnamed_addr constant i32 24, align 4
@_ZN7cricket20ICE_UFRAG_MIN_LENGTHE = hidden local_unnamed_addr constant i64 4, align 8
@_ZN7cricket18ICE_PWD_MIN_LENGTHE = hidden local_unnamed_addr constant i64 22, align 8
@_ZN7cricket20ICE_UFRAG_MAX_LENGTHE = hidden local_unnamed_addr constant i64 256, align 8
@_ZN7cricket18ICE_PWD_MAX_LENGTHE = hidden local_unnamed_addr constant i64 256, align 8
@_ZN7cricket27ICE_CANDIDATE_COMPONENT_RTPE = hidden local_unnamed_addr constant i32 1, align 4
@_ZN7cricket28ICE_CANDIDATE_COMPONENT_RTCPE = hidden local_unnamed_addr constant i32 2, align 4
@_ZN7cricket31ICE_CANDIDATE_COMPONENT_DEFAULTE = hidden local_unnamed_addr constant i32 1, align 4
@_ZN7cricket25CONNECTIONROLE_ACTIVE_STRE = hidden local_unnamed_addr constant [7 x i8] c"active\00", align 1
@_ZN7cricket26CONNECTIONROLE_PASSIVE_STRE = hidden local_unnamed_addr constant [8 x i8] c"passive\00", align 1
@_ZN7cricket26CONNECTIONROLE_ACTPASS_STRE = hidden local_unnamed_addr constant [8 x i8] c"actpass\00", align 1
@_ZN7cricket27CONNECTIONROLE_HOLDCONN_STRE = hidden local_unnamed_addr constant [9 x i8] c"holdconn\00", align 1
@_ZN7cricket9LOCAL_TLDE = hidden local_unnamed_addr constant [7 x i8] c".local\00", align 1
@_ZN7cricket28MIN_CHECK_RECEIVING_INTERVALE = hidden local_unnamed_addr constant i32 50, align 4
@_ZN7cricket17RECEIVING_TIMEOUTE = hidden local_unnamed_addr constant i32 2500, align 4
@_ZN7cricket25RECEIVING_SWITCHING_DELAYE = hidden local_unnamed_addr constant i32 1000, align 4
@_ZN7cricket31BACKUP_CONNECTION_PING_INTERVALE = hidden local_unnamed_addr constant i32 25000, align 4
@_ZN7cricket36REGATHER_ON_FAILED_NETWORKS_INTERVALE = hidden local_unnamed_addr constant i32 300000, align 4
@_ZN7cricket20STRONG_PING_INTERVALE = hidden local_unnamed_addr constant i32 480, align 4
@_ZN7cricket18WEAK_PING_INTERVALE = hidden local_unnamed_addr constant i32 48, align 4
@_ZN7cricket53WEAK_OR_STABILIZING_WRITABLE_CONNECTION_PING_INTERVALE = hidden local_unnamed_addr constant i32 900, align 4
@_ZN7cricket51STRONG_AND_STABLE_WRITABLE_CONNECTION_PING_INTERVALE = hidden local_unnamed_addr constant i32 2500, align 4
@_ZN7cricket32CONNECTION_WRITE_CONNECT_TIMEOUTE = hidden local_unnamed_addr constant i32 5000, align 4
@_ZN7cricket33CONNECTION_WRITE_CONNECT_FAILURESE = hidden local_unnamed_addr constant i32 5, align 4
@_ZN7cricket23STUN_KEEPALIVE_INTERVALE = hidden local_unnamed_addr constant i32 10000, align 4
@_ZN7cricket23MIN_CONNECTION_LIFETIMEE = hidden local_unnamed_addr constant i32 10000, align 4
@_ZN7cricket31DEAD_CONNECTION_RECEIVE_TIMEOUTE = hidden local_unnamed_addr constant i32 30000, align 4
@_ZN7cricket31WEAK_CONNECTION_RECEIVE_TIMEOUTE = hidden local_unnamed_addr constant i32 2500, align 4
@_ZN7cricket24CONNECTION_WRITE_TIMEOUTE = hidden local_unnamed_addr constant i32 15000, align 4
@_ZN7cricket27CONNECTION_RESPONSE_TIMEOUTE = hidden local_unnamed_addr constant i32 60000, align 4

!llvm.module.flags = !{!0, !1}

!0 = !{i32 1, !"wchar_size", i32 4}
!1 = !{i32 7, !"PIC Level", i32 2}
