; ModuleID = '../../components/services/paint_preview_compositor/paint_preview_frame.cc'
source_filename = "../../components/services/paint_preview_compositor/paint_preview_frame.cc"
target datalayout = "e-m:e-i64:64-f80:128-n8:16:32:64-S128"
target triple = "x86_64-unknown-linux-gnu"

module asm ".symver exp, exp@GLIBC_2.2.5"
module asm ".symver exp2, exp2@GLIBC_2.2.5"
module asm ".symver exp2f, exp2f@GLIBC_2.2.5"
module asm ".symver expf, expf@GLIBC_2.2.5"
module asm ".symver lgamma, lgamma@GLIBC_2.2.5"
module asm ".symver lgammaf, lgammaf@GLIBC_2.2.5"
module asm ".symver lgammal, lgammal@GLIBC_2.2.5"
module asm ".symver log, log@GLIBC_2.2.5"
module asm ".symver log2, log2@GLIBC_2.2.5"
module asm ".symver log2f, log2f@GLIBC_2.2.5"
module asm ".symver logf, logf@GLIBC_2.2.5"
module asm ".symver pow, pow@GLIBC_2.2.5"
module asm ".symver powf, powf@GLIBC_2.2.5"

%"struct.paint_preview::PaintPreviewFrame" = type { %class.sk_sp, %"class.std::__1::vector" }
%class.sk_sp = type { %class.SkPicture* }
%class.SkPicture = type <{ %class.SkRefCnt.base, i32, %"struct.std::__1::atomic.1", [7 x i8] }>
%class.SkRefCnt.base = type { %class.SkRefCntBase.base }
%class.SkRefCntBase.base = type <{ i32 (...)**, %"struct.std::__1::atomic" }>
%"struct.std::__1::atomic" = type { %"struct.std::__1::__atomic_base" }
%"struct.std::__1::__atomic_base" = type { %"struct.std::__1::__atomic_base.0" }
%"struct.std::__1::__atomic_base.0" = type { %"struct.std::__1::__cxx_atomic_impl" }
%"struct.std::__1::__cxx_atomic_impl" = type { %"struct.std::__1::__cxx_atomic_base_impl" }
%"struct.std::__1::__cxx_atomic_base_impl" = type { i32 }
%"struct.std::__1::atomic.1" = type { %"struct.std::__1::__atomic_base.2" }
%"struct.std::__1::__atomic_base.2" = type { %"struct.std::__1::__cxx_atomic_impl.3" }
%"struct.std::__1::__cxx_atomic_impl.3" = type { %"struct.std::__1::__cxx_atomic_base_impl.4" }
%"struct.std::__1::__cxx_atomic_base_impl.4" = type { i8 }
%"class.std::__1::vector" = type { %"class.std::__1::__vector_base" }
%"class.std::__1::__vector_base" = type { %"class.paint_preview::mojom::SubframeClipRect"*, %"class.paint_preview::mojom::SubframeClipRect"*, %"class.std::__1::__compressed_pair" }
%"class.paint_preview::mojom::SubframeClipRect" = type { %"class.base::UnguessableToken", %"class.gfx::Rect" }
%"class.base::UnguessableToken" = type { %"class.base::Token" }
%"class.base::Token" = type { i64, i64 }
%"class.gfx::Rect" = type { %"class.gfx::Point", %"class.gfx::Size" }
%"class.gfx::Point" = type { i32, i32 }
%"class.gfx::Size" = type { i32, i32 }
%"class.std::__1::__compressed_pair" = type { %"struct.std::__1::__compressed_pair_elem" }
%"struct.std::__1::__compressed_pair_elem" = type { %"class.paint_preview::mojom::SubframeClipRect"* }
%class.SkRefCntBase = type <{ i32 (...)**, %"struct.std::__1::atomic", [4 x i8] }>

@_ZN13paint_preview17PaintPreviewFrameC1Ev = hidden unnamed_addr alias void (%"struct.paint_preview::PaintPreviewFrame"*), void (%"struct.paint_preview::PaintPreviewFrame"*)* @_ZN13paint_preview17PaintPreviewFrameC2Ev
@_ZN13paint_preview17PaintPreviewFrameD1Ev = hidden unnamed_addr alias void (%"struct.paint_preview::PaintPreviewFrame"*), void (%"struct.paint_preview::PaintPreviewFrame"*)* @_ZN13paint_preview17PaintPreviewFrameD2Ev
@_ZN13paint_preview17PaintPreviewFrameC1EOS0_ = hidden unnamed_addr alias void (%"struct.paint_preview::PaintPreviewFrame"*, %"struct.paint_preview::PaintPreviewFrame"*), void (%"struct.paint_preview::PaintPreviewFrame"*, %"struct.paint_preview::PaintPreviewFrame"*)* @_ZN13paint_preview17PaintPreviewFrameC2EOS0_

; Function Attrs: nounwind ssp uwtable
define hidden void @_ZN13paint_preview17PaintPreviewFrameC2Ev(%"struct.paint_preview::PaintPreviewFrame"* nocapture) unnamed_addr #0 align 2 {
  %2 = bitcast %"struct.paint_preview::PaintPreviewFrame"* %0 to i8*
  call void @llvm.memset.p0i8.i64(i8* align 8 %2, i8 0, i64 32, i1 false)
  ret void
}

; Function Attrs: nounwind ssp uwtable
define hidden void @_ZN13paint_preview17PaintPreviewFrameD2Ev(%"struct.paint_preview::PaintPreviewFrame"* nocapture) unnamed_addr #0 align 2 {
  %2 = getelementptr inbounds %"struct.paint_preview::PaintPreviewFrame", %"struct.paint_preview::PaintPreviewFrame"* %0, i64 0, i32 1
  %3 = getelementptr inbounds %"class.std::__1::vector", %"class.std::__1::vector"* %2, i64 0, i32 0, i32 0
  %4 = load %"class.paint_preview::mojom::SubframeClipRect"*, %"class.paint_preview::mojom::SubframeClipRect"** %3, align 8
  %5 = icmp eq %"class.paint_preview::mojom::SubframeClipRect"* %4, null
  br i1 %5, label %20, label %6

6:                                                ; preds = %1
  %7 = bitcast %"class.paint_preview::mojom::SubframeClipRect"* %4 to i8*
  %8 = getelementptr inbounds %"struct.paint_preview::PaintPreviewFrame", %"struct.paint_preview::PaintPreviewFrame"* %0, i64 0, i32 1, i32 0, i32 1
  %9 = load %"class.paint_preview::mojom::SubframeClipRect"*, %"class.paint_preview::mojom::SubframeClipRect"** %8, align 8
  %10 = icmp eq %"class.paint_preview::mojom::SubframeClipRect"* %9, %4
  br i1 %10, label %18, label %11

11:                                               ; preds = %6, %11
  %12 = phi %"class.paint_preview::mojom::SubframeClipRect"* [ %13, %11 ], [ %9, %6 ]
  %13 = getelementptr inbounds %"class.paint_preview::mojom::SubframeClipRect", %"class.paint_preview::mojom::SubframeClipRect"* %12, i64 -1
  tail call void @_ZN13paint_preview5mojom16SubframeClipRectD1Ev(%"class.paint_preview::mojom::SubframeClipRect"* %13) #4
  %14 = icmp eq %"class.paint_preview::mojom::SubframeClipRect"* %13, %4
  br i1 %14, label %15, label %11

15:                                               ; preds = %11
  %16 = bitcast %"class.std::__1::vector"* %2 to i8**
  %17 = load i8*, i8** %16, align 8
  br label %18

18:                                               ; preds = %15, %6
  %19 = phi i8* [ %17, %15 ], [ %7, %6 ]
  store %"class.paint_preview::mojom::SubframeClipRect"* %4, %"class.paint_preview::mojom::SubframeClipRect"** %8, align 8
  tail call void @_ZdlPv(i8* %19) #5
  br label %20

20:                                               ; preds = %1, %18
  %21 = getelementptr inbounds %"struct.paint_preview::PaintPreviewFrame", %"struct.paint_preview::PaintPreviewFrame"* %0, i64 0, i32 0, i32 0
  %22 = load %class.SkPicture*, %class.SkPicture** %21, align 8
  %23 = icmp eq %class.SkPicture* %22, null
  br i1 %23, label %34, label %24

24:                                               ; preds = %20
  %25 = getelementptr inbounds %class.SkPicture, %class.SkPicture* %22, i64 0, i32 0, i32 0, i32 1, i32 0, i32 0, i32 0, i32 0, i32 0
  %26 = atomicrmw add i32* %25, i32 -1 acq_rel
  %27 = icmp eq i32 %26, 1
  br i1 %27, label %28, label %34

28:                                               ; preds = %24
  %29 = bitcast %class.SkPicture* %22 to %class.SkRefCntBase*
  %30 = bitcast %class.SkPicture* %22 to void (%class.SkRefCntBase*)***
  %31 = load void (%class.SkRefCntBase*)**, void (%class.SkRefCntBase*)*** %30, align 8
  %32 = getelementptr inbounds void (%class.SkRefCntBase*)*, void (%class.SkRefCntBase*)** %31, i64 2
  %33 = load void (%class.SkRefCntBase*)*, void (%class.SkRefCntBase*)** %32, align 8
  tail call void %33(%class.SkRefCntBase* nonnull %29) #4
  br label %34

34:                                               ; preds = %20, %24, %28
  ret void
}

; Function Attrs: nounwind ssp uwtable
define hidden void @_ZN13paint_preview17PaintPreviewFrameC2EOS0_(%"struct.paint_preview::PaintPreviewFrame"* nocapture, %"struct.paint_preview::PaintPreviewFrame"* nocapture dereferenceable(32)) unnamed_addr #0 align 2 {
  %3 = getelementptr inbounds %"struct.paint_preview::PaintPreviewFrame", %"struct.paint_preview::PaintPreviewFrame"* %1, i64 0, i32 0, i32 0
  %4 = bitcast %"struct.paint_preview::PaintPreviewFrame"* %1 to i64*
  %5 = load i64, i64* %4, align 8
  store %class.SkPicture* null, %class.SkPicture** %3, align 8
  %6 = bitcast %"struct.paint_preview::PaintPreviewFrame"* %0 to i64*
  store i64 %5, i64* %6, align 8
  %7 = getelementptr inbounds %"struct.paint_preview::PaintPreviewFrame", %"struct.paint_preview::PaintPreviewFrame"* %0, i64 0, i32 1
  %8 = getelementptr inbounds %"struct.paint_preview::PaintPreviewFrame", %"struct.paint_preview::PaintPreviewFrame"* %1, i64 0, i32 1
  %9 = bitcast %"class.std::__1::vector"* %7 to i8*
  tail call void @llvm.memset.p0i8.i64(i8* align 8 %9, i8 0, i64 24, i1 false) #4
  %10 = bitcast %"class.std::__1::vector"* %8 to i64*
  %11 = load i64, i64* %10, align 8
  %12 = bitcast %"class.std::__1::vector"* %7 to i64*
  store i64 %11, i64* %12, align 8
  %13 = getelementptr inbounds %"struct.paint_preview::PaintPreviewFrame", %"struct.paint_preview::PaintPreviewFrame"* %1, i64 0, i32 1, i32 0, i32 1
  %14 = bitcast %"class.paint_preview::mojom::SubframeClipRect"** %13 to i64*
  %15 = load i64, i64* %14, align 8
  %16 = getelementptr inbounds %"struct.paint_preview::PaintPreviewFrame", %"struct.paint_preview::PaintPreviewFrame"* %0, i64 0, i32 1, i32 0, i32 1
  %17 = bitcast %"class.paint_preview::mojom::SubframeClipRect"** %16 to i64*
  store i64 %15, i64* %17, align 8
  %18 = getelementptr inbounds %"struct.paint_preview::PaintPreviewFrame", %"struct.paint_preview::PaintPreviewFrame"* %1, i64 0, i32 1, i32 0, i32 2, i32 0, i32 0
  %19 = bitcast %"class.paint_preview::mojom::SubframeClipRect"** %18 to i64*
  %20 = load i64, i64* %19, align 8
  %21 = getelementptr inbounds %"struct.paint_preview::PaintPreviewFrame", %"struct.paint_preview::PaintPreviewFrame"* %0, i64 0, i32 1, i32 0, i32 2, i32 0, i32 0
  %22 = bitcast %"class.paint_preview::mojom::SubframeClipRect"** %21 to i64*
  store i64 %20, i64* %22, align 8
  %23 = bitcast %"class.std::__1::vector"* %8 to i8*
  tail call void @llvm.memset.p0i8.i64(i8* align 8 %23, i8 0, i64 24, i1 false) #4
  ret void
}

; Function Attrs: nounwind ssp uwtable
define hidden dereferenceable(32) %"struct.paint_preview::PaintPreviewFrame"* @_ZN13paint_preview17PaintPreviewFrameaSEOS0_(%"struct.paint_preview::PaintPreviewFrame"* returned, %"struct.paint_preview::PaintPreviewFrame"* nocapture dereferenceable(32)) local_unnamed_addr #0 align 2 {
  %3 = getelementptr inbounds %"struct.paint_preview::PaintPreviewFrame", %"struct.paint_preview::PaintPreviewFrame"* %1, i64 0, i32 0, i32 0
  %4 = bitcast %"struct.paint_preview::PaintPreviewFrame"* %1 to i64*
  %5 = load i64, i64* %4, align 8
  store %class.SkPicture* null, %class.SkPicture** %3, align 8
  %6 = getelementptr inbounds %"struct.paint_preview::PaintPreviewFrame", %"struct.paint_preview::PaintPreviewFrame"* %0, i64 0, i32 0, i32 0
  %7 = load %class.SkPicture*, %class.SkPicture** %6, align 8
  %8 = bitcast %"struct.paint_preview::PaintPreviewFrame"* %0 to i64*
  store i64 %5, i64* %8, align 8
  %9 = icmp eq %class.SkPicture* %7, null
  br i1 %9, label %20, label %10

10:                                               ; preds = %2
  %11 = getelementptr inbounds %class.SkPicture, %class.SkPicture* %7, i64 0, i32 0, i32 0, i32 1, i32 0, i32 0, i32 0, i32 0, i32 0
  %12 = atomicrmw add i32* %11, i32 -1 acq_rel
  %13 = icmp eq i32 %12, 1
  br i1 %13, label %14, label %20

14:                                               ; preds = %10
  %15 = bitcast %class.SkPicture* %7 to %class.SkRefCntBase*
  %16 = bitcast %class.SkPicture* %7 to void (%class.SkRefCntBase*)***
  %17 = load void (%class.SkRefCntBase*)**, void (%class.SkRefCntBase*)*** %16, align 8
  %18 = getelementptr inbounds void (%class.SkRefCntBase*)*, void (%class.SkRefCntBase*)** %17, i64 2
  %19 = load void (%class.SkRefCntBase*)*, void (%class.SkRefCntBase*)** %18, align 8
  tail call void %19(%class.SkRefCntBase* nonnull %15) #4
  br label %20

20:                                               ; preds = %2, %10, %14
  %21 = getelementptr inbounds %"struct.paint_preview::PaintPreviewFrame", %"struct.paint_preview::PaintPreviewFrame"* %0, i64 0, i32 1
  %22 = getelementptr inbounds %"struct.paint_preview::PaintPreviewFrame", %"struct.paint_preview::PaintPreviewFrame"* %1, i64 0, i32 1
  %23 = getelementptr inbounds %"class.std::__1::vector", %"class.std::__1::vector"* %21, i64 0, i32 0, i32 0
  %24 = load %"class.paint_preview::mojom::SubframeClipRect"*, %"class.paint_preview::mojom::SubframeClipRect"** %23, align 8
  %25 = icmp eq %"class.paint_preview::mojom::SubframeClipRect"* %24, null
  br i1 %25, label %41, label %26

26:                                               ; preds = %20
  %27 = bitcast %"class.paint_preview::mojom::SubframeClipRect"* %24 to i8*
  %28 = getelementptr inbounds %"struct.paint_preview::PaintPreviewFrame", %"struct.paint_preview::PaintPreviewFrame"* %0, i64 0, i32 1, i32 0, i32 1
  %29 = load %"class.paint_preview::mojom::SubframeClipRect"*, %"class.paint_preview::mojom::SubframeClipRect"** %28, align 8
  %30 = icmp eq %"class.paint_preview::mojom::SubframeClipRect"* %29, %24
  br i1 %30, label %38, label %31

31:                                               ; preds = %26, %31
  %32 = phi %"class.paint_preview::mojom::SubframeClipRect"* [ %33, %31 ], [ %29, %26 ]
  %33 = getelementptr inbounds %"class.paint_preview::mojom::SubframeClipRect", %"class.paint_preview::mojom::SubframeClipRect"* %32, i64 -1
  tail call void @_ZN13paint_preview5mojom16SubframeClipRectD1Ev(%"class.paint_preview::mojom::SubframeClipRect"* %33) #4
  %34 = icmp eq %"class.paint_preview::mojom::SubframeClipRect"* %33, %24
  br i1 %34, label %35, label %31

35:                                               ; preds = %31
  %36 = bitcast %"class.std::__1::vector"* %21 to i8**
  %37 = load i8*, i8** %36, align 8
  br label %38

38:                                               ; preds = %35, %26
  %39 = phi i8* [ %37, %35 ], [ %27, %26 ]
  store %"class.paint_preview::mojom::SubframeClipRect"* %24, %"class.paint_preview::mojom::SubframeClipRect"** %28, align 8
  tail call void @_ZdlPv(i8* %39) #5
  %40 = bitcast %"class.std::__1::vector"* %21 to i8*
  tail call void @llvm.memset.p0i8.i64(i8* align 8 %40, i8 0, i64 24, i1 false) #4
  br label %41

41:                                               ; preds = %20, %38
  %42 = bitcast %"class.std::__1::vector"* %22 to i64*
  %43 = load i64, i64* %42, align 8
  %44 = bitcast %"class.std::__1::vector"* %21 to i64*
  store i64 %43, i64* %44, align 8
  %45 = getelementptr inbounds %"struct.paint_preview::PaintPreviewFrame", %"struct.paint_preview::PaintPreviewFrame"* %1, i64 0, i32 1, i32 0, i32 1
  %46 = bitcast %"class.paint_preview::mojom::SubframeClipRect"** %45 to i64*
  %47 = load i64, i64* %46, align 8
  %48 = getelementptr inbounds %"struct.paint_preview::PaintPreviewFrame", %"struct.paint_preview::PaintPreviewFrame"* %0, i64 0, i32 1, i32 0, i32 1
  %49 = bitcast %"class.paint_preview::mojom::SubframeClipRect"** %48 to i64*
  store i64 %47, i64* %49, align 8
  %50 = getelementptr inbounds %"struct.paint_preview::PaintPreviewFrame", %"struct.paint_preview::PaintPreviewFrame"* %1, i64 0, i32 1, i32 0, i32 2, i32 0, i32 0
  %51 = bitcast %"class.paint_preview::mojom::SubframeClipRect"** %50 to i64*
  %52 = load i64, i64* %51, align 8
  %53 = getelementptr inbounds %"struct.paint_preview::PaintPreviewFrame", %"struct.paint_preview::PaintPreviewFrame"* %0, i64 0, i32 1, i32 0, i32 2, i32 0, i32 0
  %54 = bitcast %"class.paint_preview::mojom::SubframeClipRect"** %53 to i64*
  store i64 %52, i64* %54, align 8
  %55 = bitcast %"class.std::__1::vector"* %22 to i8*
  tail call void @llvm.memset.p0i8.i64(i8* align 8 %55, i8 0, i64 24, i1 false) #4
  ret %"struct.paint_preview::PaintPreviewFrame"* %0
}

; Function Attrs: nounwind
declare void @_ZN13paint_preview5mojom16SubframeClipRectD1Ev(%"class.paint_preview::mojom::SubframeClipRect"*) unnamed_addr #1

; Function Attrs: nobuiltin nounwind
declare void @_ZdlPv(i8*) local_unnamed_addr #2

; Function Attrs: argmemonly nounwind
declare void @llvm.memset.p0i8.i64(i8* nocapture writeonly, i8, i64, i1 immarg) #3

attributes #0 = { nounwind ssp uwtable "correctly-rounded-divide-sqrt-fp-math"="false" "disable-tail-calls"="false" "less-precise-fpmad"="false" "min-legal-vector-width"="0" "no-frame-pointer-elim"="false" "no-frame-pointer-elim-non-leaf" "no-infs-fp-math"="false" "no-jump-tables"="false" "no-nans-fp-math"="false" "no-signed-zeros-fp-math"="false" "no-trapping-math"="false" "null-pointer-is-valid"="true" "stack-protector-buffer-size"="4" "target-cpu"="x86-64" "target-features"="+cx8,+fxsr,+mmx,+sse,+sse2,+sse3,+x87" "unsafe-fp-math"="false" "use-soft-float"="false" }
attributes #1 = { nounwind "correctly-rounded-divide-sqrt-fp-math"="false" "disable-tail-calls"="false" "less-precise-fpmad"="false" "no-frame-pointer-elim"="false" "no-frame-pointer-elim-non-leaf" "no-infs-fp-math"="false" "no-nans-fp-math"="false" "no-signed-zeros-fp-math"="false" "no-trapping-math"="false" "null-pointer-is-valid"="true" "stack-protector-buffer-size"="4" "target-cpu"="x86-64" "target-features"="+cx8,+fxsr,+mmx,+sse,+sse2,+sse3,+x87" "unsafe-fp-math"="false" "use-soft-float"="false" }
attributes #2 = { nobuiltin nounwind "correctly-rounded-divide-sqrt-fp-math"="false" "disable-tail-calls"="false" "less-precise-fpmad"="false" "no-frame-pointer-elim"="false" "no-frame-pointer-elim-non-leaf" "no-infs-fp-math"="false" "no-nans-fp-math"="false" "no-signed-zeros-fp-math"="false" "no-trapping-math"="false" "null-pointer-is-valid"="true" "stack-protector-buffer-size"="4" "target-cpu"="x86-64" "target-features"="+cx8,+fxsr,+mmx,+sse,+sse2,+sse3,+x87" "unsafe-fp-math"="false" "use-soft-float"="false" }
attributes #3 = { argmemonly nounwind }
attributes #4 = { nounwind }
attributes #5 = { builtin nounwind }

!llvm.module.flags = !{!0, !1}

!0 = !{i32 1, !"wchar_size", i32 4}
!1 = !{i32 7, !"PIC Level", i32 2}
