; ModuleID = '../../components/password_manager/core/browser/password_store.cc'
source_filename = "../../components/password_manager/core/browser/password_store.cc"
target datalayout = "e-m:e-i64:64-f80:128-n8:16:32:64-S128"
target triple = "x86_64-unknown-linux-gnu"

module asm ".symver exp, exp@GLIBC_2.2.5"
module asm ".symver exp2, exp2@GLIBC_2.2.5"
module asm ".symver exp2f, exp2f@GLIBC_2.2.5"
module asm ".symver expf, expf@GLIBC_2.2.5"
module asm ".symver lgamma, lgamma@GLIBC_2.2.5"
module asm ".symver lgammaf, lgammaf@GLIBC_2.2.5"
module asm ".symver lgammal, lgammal@GLIBC_2.2.5"
module asm ".symver log, log@GLIBC_2.2.5"
module asm ".symver log2, log2@GLIBC_2.2.5"
module asm ".symver log2f, log2f@GLIBC_2.2.5"
module asm ".symver logf, logf@GLIBC_2.2.5"
module asm ".symver pow, pow@GLIBC_2.2.5"
module asm ".symver powf, powf@GLIBC_2.2.5"

%"struct.base::trace_event::TraceCategory" = type { i8, i32, i8* }
%"struct.base::Time::Exploded" = type { i32, i32, i32, i32, i32, i32, i32, i32 }
%"class.base::TaskTraits" = type { %"struct.base::TaskTraitsExtensionStorage", i8, i8, i8, i8, i8, i8 }
%"struct.base::TaskTraitsExtensionStorage" = type { i8, %"struct.std::__1::array" }
%"struct.std::__1::array" = type { [8 x i8] }
%"struct.base::Feature" = type { i8*, i32 }
%"class.base::LazyInstance" = type { i64, [8 x i8] }
%"struct.std::__1::piecewise_construct_t" = type { i8 }
%"class.password_manager::PasswordStore::CheckReuseRequest" = type { %"class.password_manager::PasswordReuseDetectorConsumer", %class.scoped_refptr, %"class.base::WeakPtr.305" }
%"class.password_manager::PasswordReuseDetectorConsumer" = type { i32 (...)**, %"class.base::SupportsWeakPtr" }
%"class.base::SupportsWeakPtr" = type { %"class.base::internal::WeakReferenceOwner" }
%"class.base::internal::WeakReferenceOwner" = type { %class.scoped_refptr.79 }
%class.scoped_refptr.79 = type { %"class.base::internal::WeakReference::Flag"* }
%"class.base::internal::WeakReference::Flag" = type <{ %"class.base::RefCountedThreadSafe.73", %"class.base::AtomicFlag", [3 x i8] }>
%"class.base::RefCountedThreadSafe.73" = type { %"class.base::subtle::RefCountedThreadSafeBase" }
%"class.base::subtle::RefCountedThreadSafeBase" = type { %"class.base::AtomicRefCount" }
%"class.base::AtomicRefCount" = type { %"struct.std::__1::atomic" }
%"struct.std::__1::atomic" = type { %"struct.std::__1::__atomic_base" }
%"struct.std::__1::__atomic_base" = type { %"struct.std::__1::__atomic_base.0" }
%"struct.std::__1::__atomic_base.0" = type { %"struct.std::__1::__cxx_atomic_impl" }
%"struct.std::__1::__cxx_atomic_impl" = type { %"struct.std::__1::__cxx_atomic_base_impl" }
%"struct.std::__1::__cxx_atomic_base_impl" = type { i32 }
%"class.base::AtomicFlag" = type { %"struct.std::__1::atomic.74" }
%"struct.std::__1::atomic.74" = type { %"struct.std::__1::__atomic_base.75" }
%"struct.std::__1::__atomic_base.75" = type { %"struct.std::__1::__atomic_base.76" }
%"struct.std::__1::__atomic_base.76" = type { %"struct.std::__1::__cxx_atomic_impl.77" }
%"struct.std::__1::__cxx_atomic_impl.77" = type { %"struct.std::__1::__cxx_atomic_base_impl.78" }
%"struct.std::__1::__cxx_atomic_base_impl.78" = type { i8 }
%class.scoped_refptr = type { %"class.base::SequencedTaskRunner"* }
%"class.base::SequencedTaskRunner" = type { %"class.base::TaskRunner.base", [4 x i8] }
%"class.base::TaskRunner.base" = type <{ i32 (...)**, %"class.base::RefCountedThreadSafe.1" }>
%"class.base::RefCountedThreadSafe.1" = type { %"class.base::subtle::RefCountedThreadSafeBase" }
%"class.base::WeakPtr.305" = type { %"class.base::internal::WeakPtrBase" }
%"class.base::internal::WeakPtrBase" = type { %"class.base::internal::WeakReference", i64 }
%"class.base::internal::WeakReference" = type { %class.scoped_refptr.72 }
%class.scoped_refptr.72 = type { %"class.base::internal::WeakReference::Flag"* }
%"struct.password_manager::PasswordStore::FormDigest" = type { i32, %"class.std::__1::basic_string", %class.GURL }
%"class.std::__1::basic_string" = type { %"class.std::__1::__compressed_pair.163" }
%"class.std::__1::__compressed_pair.163" = type { %"struct.std::__1::__compressed_pair_elem.164" }
%"struct.std::__1::__compressed_pair_elem.164" = type { %"struct.std::__1::basic_string<char, std::__1::char_traits<char>, std::__1::allocator<char> >::__rep" }
%"struct.std::__1::basic_string<char, std::__1::char_traits<char>, std::__1::allocator<char> >::__rep" = type { %union.anon.165 }
%union.anon.165 = type { %"struct.std::__1::basic_string<char, std::__1::char_traits<char>, std::__1::allocator<char> >::__long" }
%"struct.std::__1::basic_string<char, std::__1::char_traits<char>, std::__1::allocator<char> >::__long" = type { i8*, i64, i64 }
%class.GURL = type { %"class.std::__1::basic_string", i8, %"struct.url::Parsed", %"class.std::__1::unique_ptr.181" }
%"struct.url::Parsed" = type { %"struct.url::Component", %"struct.url::Component", %"struct.url::Component", %"struct.url::Component", %"struct.url::Component", %"struct.url::Component", %"struct.url::Component", %"struct.url::Component", i8, %"struct.url::Parsed"* }
%"struct.url::Component" = type { i32, i32 }
%"class.std::__1::unique_ptr.181" = type { %"class.std::__1::__compressed_pair.182" }
%"class.std::__1::__compressed_pair.182" = type { %"struct.std::__1::__compressed_pair_elem.183" }
%"struct.std::__1::__compressed_pair_elem.183" = type { %class.GURL* }
%"struct.password_manager::PasswordForm" = type { i32, %"class.std::__1::basic_string", %class.GURL, %class.GURL, %"class.std::__1::basic_string", %"class.std::__1::basic_string", %class.GURL, %"class.std::__1::basic_string.219", %"class.std::__1::basic_string.219", %"class.autofill::FieldRendererId", i8, i8, %"class.std::__1::basic_string.219", %"class.std::__1::vector.228", %"class.std::__1::vector.228", i8, %"class.std::__1::basic_string.219", %"class.autofill::FieldRendererId", %"class.std::__1::basic_string.219", %"class.std::__1::basic_string", %"class.std::__1::basic_string.219", %"class.autofill::FieldRendererId", %"class.std::__1::basic_string.219", %"class.autofill::FieldRendererId", %"class.std::__1::basic_string.219", %"class.base::Time", %"class.base::Time", %"class.base::Time", i8, i32, i32, [4 x i8], %"struct.autofill::FormData", i32, %"class.std::__1::basic_string.219", %class.GURL, %"class.url::Origin", i8, i8, i8, i8, i32, i8, i8, i32, %"class.std::__1::vector.291" }
%"class.std::__1::vector.228" = type { %"class.std::__1::__vector_base.229" }
%"class.std::__1::__vector_base.229" = type { %"struct.std::__1::pair.230"*, %"struct.std::__1::pair.230"*, %"class.std::__1::__compressed_pair.231" }
%"struct.std::__1::pair.230" = type opaque
%"class.std::__1::__compressed_pair.231" = type { %"struct.std::__1::__compressed_pair_elem.232" }
%"struct.std::__1::__compressed_pair_elem.232" = type { %"struct.std::__1::pair.230"* }
%"class.autofill::FieldRendererId" = type { %"class.util::IdType" }
%"class.util::IdType" = type { %"class.base::StrongAlias" }
%"class.base::StrongAlias" = type { i32 }
%"class.base::Time" = type { %"class.base::time_internal::TimeBase" }
%"class.base::time_internal::TimeBase" = type { i64 }
%"struct.autofill::FormData" = type <{ %"class.std::__1::basic_string.219", %"class.std::__1::basic_string.219", %"class.std::__1::basic_string.219", %"class.std::__1::vector.236", %class.GURL, %class.GURL, %class.GURL, i8, [7 x i8], %"class.url::Origin", i8, [7 x i8], %"class.autofill::internal::TokenType", %"class.autofill::FormRendererId", [4 x i8], %"class.std::__1::vector.252", %"class.std::__1::vector.263", i32, [4 x i8], %"class.std::__1::vector.270", %"class.std::__1::vector.284", i8, [7 x i8] }>
%"class.std::__1::vector.236" = type { %"class.std::__1::__vector_base.237" }
%"class.std::__1::__vector_base.237" = type { %"struct.std::__1::pair.238"*, %"struct.std::__1::pair.238"*, %"class.std::__1::__compressed_pair.239" }
%"struct.std::__1::pair.238" = type <{ %"class.std::__1::basic_string.219", i32, [4 x i8] }>
%"class.std::__1::__compressed_pair.239" = type { %"struct.std::__1::__compressed_pair_elem.240" }
%"struct.std::__1::__compressed_pair_elem.240" = type { %"struct.std::__1::pair.238"* }
%"class.autofill::internal::TokenType" = type { %"class.base::StrongAlias.249" }
%"class.base::StrongAlias.249" = type { %"class.base::UnguessableToken" }
%"class.base::UnguessableToken" = type { %"class.base::Token" }
%"class.base::Token" = type { i64, i64 }
%"class.autofill::FormRendererId" = type { %"class.util::IdType.250" }
%"class.util::IdType.250" = type { %"class.base::StrongAlias.251" }
%"class.base::StrongAlias.251" = type { i32 }
%"class.std::__1::vector.252" = type { %"class.std::__1::__vector_base.253" }
%"class.std::__1::__vector_base.253" = type { %"class.absl::variant"*, %"class.absl::variant"*, %"class.std::__1::__compressed_pair.258" }
%"class.absl::variant" = type { %"class.absl::variant_internal::VariantStateBase" }
%"class.absl::variant_internal::VariantStateBase" = type { %"union.absl::variant_internal::Union", i64 }
%"union.absl::variant_internal::Union" = type { %"class.autofill::internal::TokenType.254" }
%"class.autofill::internal::TokenType.254" = type { %"class.base::StrongAlias.255" }
%"class.base::StrongAlias.255" = type { %"class.base::UnguessableToken" }
%"class.std::__1::__compressed_pair.258" = type { %"struct.std::__1::__compressed_pair_elem.259" }
%"struct.std::__1::__compressed_pair_elem.259" = type { %"class.absl::variant"* }
%"class.std::__1::vector.263" = type { %"class.std::__1::__vector_base.264" }
%"class.std::__1::__vector_base.264" = type { i32*, i32*, %"class.std::__1::__compressed_pair.265" }
%"class.std::__1::__compressed_pair.265" = type { %"struct.std::__1::__compressed_pair_elem.266" }
%"struct.std::__1::__compressed_pair_elem.266" = type { i32* }
%"class.std::__1::vector.270" = type { %"class.std::__1::__vector_base.271" }
%"class.std::__1::__vector_base.271" = type { %"struct.autofill::FormFieldData"*, %"struct.autofill::FormFieldData"*, %"class.std::__1::__compressed_pair.279" }
%"struct.autofill::FormFieldData" = type { %"class.std::__1::basic_string.219", %"class.std::__1::basic_string.219", %"class.std::__1::basic_string.219", %"class.std::__1::basic_string.219", %"class.std::__1::basic_string.219", %"class.std::__1::basic_string", %"class.std::__1::basic_string", %"class.std::__1::basic_string.219", %"class.std::__1::basic_string.219", %"class.std::__1::basic_string.219", %"class.std::__1::basic_string.219", %"class.autofill::internal::TokenType", %"class.autofill::FieldRendererId", %"class.autofill::FormRendererId", %"class.url::Origin", i32, %"class.std::__1::basic_string", i64, i8, i32, i8, i8, i32, i32, i32, i8, i8, %"class.std::__1::basic_string.219", %"class.std::__1::vector.272", %"class.std::__1::vector.272", i32, %"class.gfx::RectF", %"class.std::__1::vector.272", %"class.std::__1::vector.272" }
%"class.gfx::RectF" = type { %"class.gfx::PointF", %"class.gfx::SizeF" }
%"class.gfx::PointF" = type { float, float }
%"class.gfx::SizeF" = type { float, float }
%"class.std::__1::vector.272" = type { %"class.std::__1::__vector_base.273" }
%"class.std::__1::__vector_base.273" = type { %"class.std::__1::basic_string.219"*, %"class.std::__1::basic_string.219"*, %"class.std::__1::__compressed_pair.274" }
%"class.std::__1::__compressed_pair.274" = type { %"struct.std::__1::__compressed_pair_elem.275" }
%"struct.std::__1::__compressed_pair_elem.275" = type { %"class.std::__1::basic_string.219"* }
%"class.std::__1::__compressed_pair.279" = type { %"struct.std::__1::__compressed_pair_elem.280" }
%"struct.std::__1::__compressed_pair_elem.280" = type { %"struct.autofill::FormFieldData"* }
%"class.std::__1::vector.284" = type { %"class.std::__1::__vector_base.285" }
%"class.std::__1::__vector_base.285" = type { %"class.autofill::FieldRendererId"*, %"class.autofill::FieldRendererId"*, %"class.std::__1::__compressed_pair.286" }
%"class.std::__1::__compressed_pair.286" = type { %"struct.std::__1::__compressed_pair_elem.287" }
%"struct.std::__1::__compressed_pair_elem.287" = type { %"class.autofill::FieldRendererId"* }
%"class.std::__1::basic_string.219" = type { %"class.std::__1::__compressed_pair.220" }
%"class.std::__1::__compressed_pair.220" = type { %"struct.std::__1::__compressed_pair_elem.221" }
%"struct.std::__1::__compressed_pair_elem.221" = type { %"struct.std::__1::basic_string<char16_t, std::__1::char_traits<char16_t>, std::__1::allocator<char16_t> >::__rep" }
%"struct.std::__1::basic_string<char16_t, std::__1::char_traits<char16_t>, std::__1::allocator<char16_t> >::__rep" = type { %union.anon.222 }
%union.anon.222 = type { %"struct.std::__1::basic_string<char16_t, std::__1::char_traits<char16_t>, std::__1::allocator<char16_t> >::__long" }
%"struct.std::__1::basic_string<char16_t, std::__1::char_traits<char16_t>, std::__1::allocator<char16_t> >::__long" = type { i16*, i64, i64 }
%"class.url::Origin" = type { %"class.url::SchemeHostPort", %"class.absl::optional.244" }
%"class.url::SchemeHostPort" = type <{ %"class.std::__1::basic_string", %"class.std::__1::basic_string", i16, [6 x i8] }>
%"class.absl::optional.244" = type { %"class.absl::optional_internal::optional_data.245" }
%"class.absl::optional_internal::optional_data.245" = type { %"class.absl::optional_internal::optional_data_base.246" }
%"class.absl::optional_internal::optional_data_base.246" = type { %"class.absl::optional_internal::optional_data_dtor_base.247" }
%"class.absl::optional_internal::optional_data_dtor_base.247" = type { i8, %union.anon.248 }
%union.anon.248 = type { %"class.url::Origin::Nonce" }
%"class.url::Origin::Nonce" = type { %"class.base::UnguessableToken" }
%"class.std::__1::vector.291" = type { %"class.std::__1::__vector_base.292" }
%"class.std::__1::__vector_base.292" = type { %"class.autofill::GaiaIdHash"*, %"class.autofill::GaiaIdHash"*, %"class.std::__1::__compressed_pair.293" }
%"class.autofill::GaiaIdHash" = type { %"class.std::__1::basic_string" }
%"class.std::__1::__compressed_pair.293" = type { %"struct.std::__1::__compressed_pair_elem.294" }
%"struct.std::__1::__compressed_pair_elem.294" = type { %"class.autofill::GaiaIdHash"* }
%"class.password_manager::PasswordStore" = type { %"class.password_manager::PasswordStoreSync", %class.RefcountedKeyedService, %class.scoped_refptr, %class.scoped_refptr, %class.scoped_refptr.2, %class.scoped_refptr.18, %"class.std::__1::unique_ptr.48", %"class.base::RepeatingCallback", %"class.std::__1::unique_ptr.60", %class.PrefService*, %"class.password_manager::PasswordReuseDetector"*, %"class.std::__1::unique_ptr.191", %"class.password_manager::HashPasswordManager", %"class.std::__1::unique_ptr.202", %"class.std::__1::vector.208", %"class.base::internal::CancelableCallbackImpl", i8, i32, %"class.base::TimeDelta" }
%"class.password_manager::PasswordStoreSync" = type { i32 (...)** }
%class.RefcountedKeyedService = type { i32 (...)**, %"class.base::RefCountedThreadSafe", %class.scoped_refptr }
%"class.base::RefCountedThreadSafe" = type { %"class.base::subtle::RefCountedThreadSafeBase" }
%class.scoped_refptr.2 = type { %"class.base::ObserverListThreadSafe"* }
%"class.base::ObserverListThreadSafe" = type { %"class.base::internal::ObserverListThreadSafeBase.base", i32, %"class.base::Lock", i64, %"class.std::__1::unordered_map" }
%"class.base::internal::ObserverListThreadSafeBase.base" = type <{ i32 (...)**, %"class.base::RefCountedThreadSafe.3" }>
%"class.base::RefCountedThreadSafe.3" = type { %"class.base::subtle::RefCountedThreadSafeBase" }
%"class.base::Lock" = type { %"class.base::internal::LockImpl" }
%"class.base::internal::LockImpl" = type { %union.pthread_mutex_t }
%union.pthread_mutex_t = type { %struct.__pthread_mutex_s }
%struct.__pthread_mutex_s = type { i32, i32, i32, i32, i32, i16, i16, %struct.__pthread_internal_list }
%struct.__pthread_internal_list = type { %struct.__pthread_internal_list*, %struct.__pthread_internal_list* }
%"class.std::__1::unordered_map" = type { %"class.std::__1::__hash_table" }
%"class.std::__1::__hash_table" = type <{ %"class.std::__1::unique_ptr", %"class.std::__1::__compressed_pair.8", %"class.std::__1::__compressed_pair.13", %"class.std::__1::__compressed_pair.15", [4 x i8] }>
%"class.std::__1::unique_ptr" = type { %"class.std::__1::__compressed_pair" }
%"class.std::__1::__compressed_pair" = type { %"struct.std::__1::__compressed_pair_elem", %"struct.std::__1::__compressed_pair_elem.4" }
%"struct.std::__1::__compressed_pair_elem" = type { %"struct.std::__1::__hash_node_base"** }
%"struct.std::__1::__hash_node_base" = type { %"struct.std::__1::__hash_node_base"* }
%"struct.std::__1::__compressed_pair_elem.4" = type { %"class.std::__1::__bucket_list_deallocator" }
%"class.std::__1::__bucket_list_deallocator" = type { %"class.std::__1::__compressed_pair.5" }
%"class.std::__1::__compressed_pair.5" = type { %"struct.std::__1::__compressed_pair_elem.6" }
%"struct.std::__1::__compressed_pair_elem.6" = type { i64 }
%"class.std::__1::__compressed_pair.8" = type { %"struct.std::__1::__compressed_pair_elem.9" }
%"struct.std::__1::__compressed_pair_elem.9" = type { %"struct.std::__1::__hash_node_base" }
%"class.std::__1::__compressed_pair.13" = type { %"struct.std::__1::__compressed_pair_elem.6" }
%"class.std::__1::__compressed_pair.15" = type { %"struct.std::__1::__compressed_pair_elem.16" }
%"struct.std::__1::__compressed_pair_elem.16" = type { float }
%class.scoped_refptr.18 = type { %"class.base::ObserverListThreadSafe.19"* }
%"class.base::ObserverListThreadSafe.19" = type { %"class.base::internal::ObserverListThreadSafeBase.base", i32, %"class.base::Lock", i64, %"class.std::__1::unordered_map.20" }
%"class.std::__1::unordered_map.20" = type { %"class.std::__1::__hash_table.21" }
%"class.std::__1::__hash_table.21" = type <{ %"class.std::__1::unique_ptr.22", %"class.std::__1::__compressed_pair.32", %"class.std::__1::__compressed_pair.37", %"class.std::__1::__compressed_pair.42", [4 x i8] }>
%"class.std::__1::unique_ptr.22" = type { %"class.std::__1::__compressed_pair.23" }
%"class.std::__1::__compressed_pair.23" = type { %"struct.std::__1::__compressed_pair_elem.24", %"struct.std::__1::__compressed_pair_elem.26" }
%"struct.std::__1::__compressed_pair_elem.24" = type { %"struct.std::__1::__hash_node_base.25"** }
%"struct.std::__1::__hash_node_base.25" = type { %"struct.std::__1::__hash_node_base.25"* }
%"struct.std::__1::__compressed_pair_elem.26" = type { %"class.std::__1::__bucket_list_deallocator.27" }
%"class.std::__1::__bucket_list_deallocator.27" = type { %"class.std::__1::__compressed_pair.28" }
%"class.std::__1::__compressed_pair.28" = type { %"struct.std::__1::__compressed_pair_elem.6" }
%"class.std::__1::__compressed_pair.32" = type { %"struct.std::__1::__compressed_pair_elem.33" }
%"struct.std::__1::__compressed_pair_elem.33" = type { %"struct.std::__1::__hash_node_base.25" }
%"class.std::__1::__compressed_pair.37" = type { %"struct.std::__1::__compressed_pair_elem.6" }
%"class.std::__1::__compressed_pair.42" = type { %"struct.std::__1::__compressed_pair_elem.16" }
%"class.std::__1::unique_ptr.48" = type { %"class.std::__1::__compressed_pair.49" }
%"class.std::__1::__compressed_pair.49" = type { %"struct.std::__1::__compressed_pair_elem.50" }
%"struct.std::__1::__compressed_pair_elem.50" = type { %"class.password_manager::PasswordSyncBridge"* }
%"class.password_manager::PasswordSyncBridge" = type <{ %"class.syncer::ModelTypeSyncBridge", %"class.password_manager::PasswordStoreSync"*, %"class.base::RepeatingCallback", i8, [7 x i8] }>
%"class.syncer::ModelTypeSyncBridge" = type { i32 (...)**, %"class.std::__1::unique_ptr.51" }
%"class.std::__1::unique_ptr.51" = type { %"class.std::__1::__compressed_pair.52" }
%"class.std::__1::__compressed_pair.52" = type { %"struct.std::__1::__compressed_pair_elem.53" }
%"struct.std::__1::__compressed_pair_elem.53" = type { %"class.syncer::ModelTypeChangeProcessor"* }
%"class.syncer::ModelTypeChangeProcessor" = type { i32 (...)** }
%"class.base::RepeatingCallback" = type { %"class.base::internal::CallbackBaseCopyable" }
%"class.base::internal::CallbackBaseCopyable" = type { %"class.base::internal::CallbackBase" }
%"class.base::internal::CallbackBase" = type { %class.scoped_refptr.55 }
%class.scoped_refptr.55 = type { %"class.base::internal::BindStateBase"* }
%"class.base::internal::BindStateBase" = type { %"class.base::RefCountedThreadSafe.56", void ()*, void (%"class.base::internal::BindStateBase"*)*, i1 (%"class.base::internal::BindStateBase"*, i32)* }
%"class.base::RefCountedThreadSafe.56" = type { %"class.base::subtle::RefCountedThreadSafeBase" }
%"class.std::__1::unique_ptr.60" = type { %"class.std::__1::__compressed_pair.61" }
%"class.std::__1::__compressed_pair.61" = type { %"struct.std::__1::__compressed_pair_elem.62" }
%"struct.std::__1::__compressed_pair_elem.62" = type { %"class.password_manager::AffiliatedMatchHelper"* }
%"class.password_manager::AffiliatedMatchHelper" = type { %"class.password_manager::PasswordStore::Observer", %"class.password_manager::PasswordStoreConsumer", %"class.password_manager::PasswordStore"*, %"class.std::__1::unique_ptr.81", %"class.base::WeakPtrFactory.88" }
%"class.password_manager::PasswordStore::Observer" = type { i32 (...)** }
%"class.password_manager::PasswordStoreConsumer" = type { i32 (...)**, %"class.base::CancelableTaskTracker", %"class.base::WeakPtrFactory.80" }
%"class.base::CancelableTaskTracker" = type { %"class.base::small_map", i64, %"class.base::SequenceCheckerDoNothing", %"class.base::WeakPtr", %"class.base::WeakPtrFactory" }
%"class.base::small_map" = type { i64, %"class.base::internal::small_map_default_init", %union.anon }
%"class.base::internal::small_map_default_init" = type { i8 }
%union.anon = type { [4 x %"struct.std::__1::pair"] }
%"struct.std::__1::pair" = type { i64, %class.scoped_refptr.63 }
%class.scoped_refptr.63 = type { %"class.base::RefCountedData"* }
%"class.base::RefCountedData" = type opaque
%"class.base::SequenceCheckerDoNothing" = type { i8 }
%"class.base::WeakPtr" = type { %"class.base::internal::WeakPtrBase" }
%"class.base::WeakPtrFactory" = type { %"class.base::internal::WeakPtrFactoryBase" }
%"class.base::internal::WeakPtrFactoryBase" = type { %"class.base::internal::WeakReferenceOwner", i64 }
%"class.base::WeakPtrFactory.80" = type { %"class.base::internal::WeakPtrFactoryBase" }
%"class.std::__1::unique_ptr.81" = type { %"class.std::__1::__compressed_pair.82" }
%"class.std::__1::__compressed_pair.82" = type { %"struct.std::__1::__compressed_pair_elem.83" }
%"struct.std::__1::__compressed_pair_elem.83" = type { %"class.password_manager::AndroidAffiliationService"* }
%"class.password_manager::AndroidAffiliationService" = type { %class.KeyedService, %"class.password_manager::AffiliationBackend"*, %class.scoped_refptr, %"class.base::WeakPtrFactory.84" }
%class.KeyedService = type { i32 (...)** }
%"class.password_manager::AffiliationBackend" = type opaque
%"class.base::WeakPtrFactory.84" = type { %"class.base::internal::WeakPtrFactoryBase" }
%"class.base::WeakPtrFactory.88" = type { %"class.base::internal::WeakPtrFactoryBase" }
%class.PrefService = type { i32 (...)**, %"class.std::__1::unique_ptr.92", %"class.std::__1::unique_ptr.98", %class.scoped_refptr.123, %"class.base::RepeatingCallback.124", %class.scoped_refptr.125, %"class.std::__1::unordered_map.126" }
%"class.std::__1::unique_ptr.92" = type { %"class.std::__1::__compressed_pair.93" }
%"class.std::__1::__compressed_pair.93" = type { %"struct.std::__1::__compressed_pair_elem.94" }
%"struct.std::__1::__compressed_pair_elem.94" = type { %class.PrefNotifierImpl* }
%class.PrefNotifierImpl = type opaque
%"class.std::__1::unique_ptr.98" = type { %"class.std::__1::__compressed_pair.99" }
%"class.std::__1::__compressed_pair.99" = type { %"struct.std::__1::__compressed_pair_elem.100" }
%"struct.std::__1::__compressed_pair_elem.100" = type { %class.PrefValueStore* }
%class.PrefValueStore = type { i32 (...)**, [7 x %"class.PrefValueStore::PrefStoreKeeper"], %"class.base::RepeatingCallback.102", %class.PrefNotifier*, %"class.std::__1::map.103", i8, %"class.std::__1::unique_ptr.114" }
%"class.PrefValueStore::PrefStoreKeeper" = type <{ %"class.PrefStore::Observer", %class.PrefValueStore*, %class.scoped_refptr.101, i32, [4 x i8] }>
%"class.PrefStore::Observer" = type { i32 (...)** }
%class.scoped_refptr.101 = type { %class.PrefStore* }
%class.PrefStore = type <{ i32 (...)**, %"class.base::RefCounted", [4 x i8] }>
%"class.base::RefCounted" = type { %"class.base::subtle::RefCountedBase" }
%"class.base::subtle::RefCountedBase" = type { i32 }
%"class.base::RepeatingCallback.102" = type { %"class.base::internal::CallbackBaseCopyable" }
%class.PrefNotifier = type opaque
%"class.std::__1::map.103" = type { %"class.std::__1::__tree.104" }
%"class.std::__1::__tree.104" = type { %"class.std::__1::__tree_end_node"*, %"class.std::__1::__compressed_pair.105", %"class.std::__1::__compressed_pair.109" }
%"class.std::__1::__tree_end_node" = type { %"class.std::__1::__tree_node_base"* }
%"class.std::__1::__tree_node_base" = type opaque
%"class.std::__1::__compressed_pair.105" = type { %"struct.std::__1::__compressed_pair_elem.65" }
%"struct.std::__1::__compressed_pair_elem.65" = type { %"class.std::__1::__tree_end_node" }
%"class.std::__1::__compressed_pair.109" = type { %"struct.std::__1::__compressed_pair_elem.6" }
%"class.std::__1::unique_ptr.114" = type { %"class.std::__1::__compressed_pair.115" }
%"class.std::__1::__compressed_pair.115" = type { %"struct.std::__1::__compressed_pair_elem.116" }
%"struct.std::__1::__compressed_pair_elem.116" = type { %"class.PrefValueStore::Delegate"* }
%"class.PrefValueStore::Delegate" = type { i32 (...)** }
%class.scoped_refptr.123 = type { %class.PersistentPrefStore* }
%class.PersistentPrefStore = type { %class.WriteablePrefStore.base, [4 x i8] }
%class.WriteablePrefStore.base = type { %class.PrefStore.base }
%class.PrefStore.base = type <{ i32 (...)**, %"class.base::RefCounted" }>
%"class.base::RepeatingCallback.124" = type { %"class.base::internal::CallbackBaseCopyable" }
%class.scoped_refptr.125 = type { %class.PrefRegistry* }
%class.PrefRegistry = type opaque
%"class.std::__1::unordered_map.126" = type { %"class.std::__1::__hash_table.127" }
%"class.std::__1::__hash_table.127" = type <{ %"class.std::__1::unique_ptr.128", %"class.std::__1::__compressed_pair.138", %"class.std::__1::__compressed_pair.143", %"class.std::__1::__compressed_pair.148", [4 x i8] }>
%"class.std::__1::unique_ptr.128" = type { %"class.std::__1::__compressed_pair.129" }
%"class.std::__1::__compressed_pair.129" = type { %"struct.std::__1::__compressed_pair_elem.130", %"struct.std::__1::__compressed_pair_elem.132" }
%"struct.std::__1::__compressed_pair_elem.130" = type { %"struct.std::__1::__hash_node_base.131"** }
%"struct.std::__1::__hash_node_base.131" = type { %"struct.std::__1::__hash_node_base.131"* }
%"struct.std::__1::__compressed_pair_elem.132" = type { %"class.std::__1::__bucket_list_deallocator.133" }
%"class.std::__1::__bucket_list_deallocator.133" = type { %"class.std::__1::__compressed_pair.134" }
%"class.std::__1::__compressed_pair.134" = type { %"struct.std::__1::__compressed_pair_elem.6" }
%"class.std::__1::__compressed_pair.138" = type { %"struct.std::__1::__compressed_pair_elem.139" }
%"struct.std::__1::__compressed_pair_elem.139" = type { %"struct.std::__1::__hash_node_base.131" }
%"class.std::__1::__compressed_pair.143" = type { %"struct.std::__1::__compressed_pair_elem.6" }
%"class.std::__1::__compressed_pair.148" = type { %"struct.std::__1::__compressed_pair_elem.16" }
%"class.password_manager::PasswordReuseDetector" = type { %"class.password_manager::PasswordStoreConsumer", %"class.std::__1::map.153", i32, %"class.absl::optional", %"class.absl::optional", %"class.absl::optional.174" }
%"class.std::__1::map.153" = type { %"class.std::__1::__tree.154" }
%"class.std::__1::__tree.154" = type { %"class.std::__1::__tree_end_node"*, %"class.std::__1::__compressed_pair.155", %"class.std::__1::__compressed_pair.159" }
%"class.std::__1::__compressed_pair.155" = type { %"struct.std::__1::__compressed_pair_elem.65" }
%"class.std::__1::__compressed_pair.159" = type { %"struct.std::__1::__compressed_pair_elem.6" }
%"class.absl::optional" = type { %"class.absl::optional_internal::optional_data" }
%"class.absl::optional_internal::optional_data" = type { %"class.absl::optional_internal::optional_data_base" }
%"class.absl::optional_internal::optional_data_base" = type { %"class.absl::optional_internal::optional_data_dtor_base" }
%"class.absl::optional_internal::optional_data_dtor_base" = type { i8, %union.anon.162 }
%union.anon.162 = type { %"class.std::__1::vector" }
%"class.std::__1::vector" = type { %"class.std::__1::__vector_base" }
%"class.std::__1::__vector_base" = type { %"struct.password_manager::PasswordHashData"*, %"struct.password_manager::PasswordHashData"*, %"class.std::__1::__compressed_pair.169" }
%"struct.password_manager::PasswordHashData" = type <{ %"class.std::__1::basic_string", i64, %"class.std::__1::basic_string", i64, i8, i8, [6 x i8] }>
%"class.std::__1::__compressed_pair.169" = type { %"struct.std::__1::__compressed_pair_elem.170" }
%"struct.std::__1::__compressed_pair_elem.170" = type { %"struct.password_manager::PasswordHashData"* }
%"class.absl::optional.174" = type { %"class.absl::optional_internal::optional_data.175" }
%"class.absl::optional_internal::optional_data.175" = type { %"class.absl::optional_internal::optional_data_base.176" }
%"class.absl::optional_internal::optional_data_base.176" = type { %"class.absl::optional_internal::optional_data_dtor_base.177" }
%"class.absl::optional_internal::optional_data_dtor_base.177" = type { i8, %union.anon.178 }
%union.anon.178 = type { %"class.std::__1::vector.179" }
%"class.std::__1::vector.179" = type { %"class.std::__1::__vector_base.180" }
%"class.std::__1::__vector_base.180" = type { %class.GURL*, %class.GURL*, %"class.std::__1::__compressed_pair.187" }
%"class.std::__1::__compressed_pair.187" = type { %"struct.std::__1::__compressed_pair_elem.183" }
%"class.std::__1::unique_ptr.191" = type { %"class.std::__1::__compressed_pair.192" }
%"class.std::__1::__compressed_pair.192" = type { %"struct.std::__1::__compressed_pair_elem.193" }
%"struct.std::__1::__compressed_pair_elem.193" = type { %"class.password_manager::PasswordStoreSigninNotifier"* }
%"class.password_manager::PasswordStoreSigninNotifier" = type { i32 (...)** }
%"class.password_manager::HashPasswordManager" = type { i32 (...)**, %class.PrefService*, %"class.base::RepeatingCallbackList" }
%"class.base::RepeatingCallbackList" = type { %"class.base::internal::CallbackListBase" }
%"class.base::internal::CallbackListBase" = type { %"class.std::__1::list", i8, %"class.base::RepeatingCallback", %"class.base::WeakPtrFactory.201" }
%"class.std::__1::list" = type { %"class.std::__1::__list_imp" }
%"class.std::__1::__list_imp" = type { %"struct.std::__1::__list_node_base", %"class.std::__1::__compressed_pair.197" }
%"struct.std::__1::__list_node_base" = type { %"struct.std::__1::__list_node_base"*, %"struct.std::__1::__list_node_base"* }
%"class.std::__1::__compressed_pair.197" = type { %"struct.std::__1::__compressed_pair_elem.6" }
%"class.base::WeakPtrFactory.201" = type { %"class.base::internal::WeakPtrFactoryBase" }
%"class.std::__1::unique_ptr.202" = type { %"class.std::__1::__compressed_pair.203" }
%"class.std::__1::__compressed_pair.203" = type { %"struct.std::__1::__compressed_pair_elem.204" }
%"struct.std::__1::__compressed_pair_elem.204" = type { %"class.password_manager::PasswordStore::UnsyncedCredentialsDeletionNotifier"* }
%"class.password_manager::PasswordStore::UnsyncedCredentialsDeletionNotifier" = type { i32 (...)** }
%"class.std::__1::vector.208" = type { %"class.std::__1::__vector_base.209" }
%"class.std::__1::__vector_base.209" = type { %"class.base::OnceCallback"*, %"class.base::OnceCallback"*, %"class.std::__1::__compressed_pair.210" }
%"class.base::OnceCallback" = type { %"class.base::internal::CallbackBase" }
%"class.std::__1::__compressed_pair.210" = type { %"struct.std::__1::__compressed_pair_elem.211" }
%"struct.std::__1::__compressed_pair_elem.211" = type { %"class.base::OnceCallback"* }
%"class.base::internal::CancelableCallbackImpl" = type { %"class.base::OnceCallback.215", %"class.base::WeakPtrFactory.216" }
%"class.base::OnceCallback.215" = type { %"class.base::internal::CallbackBase" }
%"class.base::WeakPtrFactory.216" = type { %"class.base::internal::WeakPtrFactoryBase" }
%"class.base::TimeDelta" = type { i64 }
%"class.std::__1::vector.217" = type { %"class.std::__1::__vector_base.218" }
%"class.std::__1::__vector_base.218" = type { %"class.password_manager::PasswordStoreChange"*, %"class.password_manager::PasswordStoreChange"*, %"class.std::__1::__compressed_pair.300" }
%"class.password_manager::PasswordStoreChange" = type <{ i32, [4 x i8], %"struct.password_manager::PasswordForm", %"class.base::StrongAlias.298", i8, %"class.base::StrongAlias.299", [2 x i8] }>
%"class.base::StrongAlias.298" = type { i32 }
%"class.base::StrongAlias.299" = type { i8 }
%"class.std::__1::__compressed_pair.300" = type { %"struct.std::__1::__compressed_pair_elem.301" }
%"struct.std::__1::__compressed_pair_elem.301" = type { %"class.password_manager::PasswordStoreChange"* }
%"class.password_manager::PasswordStore::DatabaseInsecureCredentialsObserver" = type { i32 (...)** }
%"class.base::TimeTicks" = type { %"class.base::time_internal::TimeBase.466" }
%"class.base::time_internal::TimeBase.466" = type { i64 }
%"class.base::trace_event::TraceArguments" = type { i8, [2 x i8], [2 x i8*], [2 x %"union.base::trace_event::TraceValue"] }
%"union.base::trace_event::TraceValue" = type { i64 }
%"class.base::TaskRunner" = type <{ i32 (...)**, %"class.base::RefCountedThreadSafe.1", [4 x i8] }>
%"class.absl::optional.313" = type { %"class.absl::optional_internal::optional_data.314" }
%"class.absl::optional_internal::optional_data.314" = type { %"class.absl::optional_internal::optional_data_base.315" }
%"class.absl::optional_internal::optional_data_base.315" = type { %"class.absl::optional_internal::optional_data_dtor_base.316" }
%"class.absl::optional_internal::optional_data_dtor_base.316" = type { i8, [7 x i8], %union.anon.317 }
%union.anon.317 = type { %"struct.password_manager::PasswordHashData" }
%"class.std::__1::vector.306" = type { %"class.std::__1::__vector_base.307" }
%"class.std::__1::__vector_base.307" = type { %"struct.password_manager::MatchingReusedCredential"*, %"struct.password_manager::MatchingReusedCredential"*, %"class.std::__1::__compressed_pair.308" }
%"struct.password_manager::MatchingReusedCredential" = type <{ %"class.std::__1::basic_string", %"class.std::__1::basic_string.219", i32, [4 x i8] }>
%"class.std::__1::__compressed_pair.308" = type { %"struct.std::__1::__compressed_pair_elem.309" }
%"struct.std::__1::__compressed_pair_elem.309" = type { %"struct.password_manager::MatchingReusedCredential"* }
%"class.base::Location" = type { i8*, i8*, i32, i8* }
%"struct.std::__1::__tuple_impl" = type <{ %"class.std::__1::__tuple_leaf", %"class.std::__1::__tuple_leaf.497", [7 x i8], %"class.std::__1::__tuple_leaf.498", %"class.std::__1::__tuple_leaf.499", %"class.std::__1::__tuple_leaf.500", %"class.std::__1::__tuple_leaf.501", [4 x i8] }>
%"class.std::__1::__tuple_leaf" = type { %"class.base::WeakPtr.305" }
%"class.std::__1::__tuple_leaf.497" = type { i8 }
%"class.std::__1::__tuple_leaf.498" = type { i64 }
%"class.std::__1::__tuple_leaf.499" = type { %"class.absl::optional.313" }
%"class.std::__1::__tuple_leaf.500" = type { %"class.std::__1::vector.306" }
%"class.std::__1::__tuple_leaf.501" = type { i32 }
%"struct.std::__1::basic_string<char, std::__1::char_traits<char>, std::__1::allocator<char> >::__short" = type { [23 x i8], %struct.anon }
%struct.anon = type { i8 }
%"class.base::OnceCallback.318" = type { %"class.base::internal::CallbackBase" }
%"class.std::__1::__basic_string_common" = type { i8 }
%"class.base::HistogramBase" = type <{ i32 (...)**, i8*, %"struct.std::__1::atomic.451", [4 x i8] }>
%"struct.std::__1::atomic.451" = type { %"struct.std::__1::__atomic_base.452" }
%"struct.std::__1::__atomic_base.452" = type { %"struct.std::__1::__atomic_base.453" }
%"struct.std::__1::__atomic_base.453" = type { %"struct.std::__1::__cxx_atomic_impl.454" }
%"struct.std::__1::__cxx_atomic_impl.454" = type { %"struct.std::__1::__cxx_atomic_base_impl.455" }
%"struct.std::__1::__cxx_atomic_base_impl.455" = type { i32 }
%"class.base::RepeatingCallback.319" = type { %"class.base::internal::CallbackBaseCopyable" }
%"class.password_manager::PasswordStoreSync::MetadataStore" = type { %"class.syncer::SyncMetadataStore" }
%"class.syncer::SyncMetadataStore" = type { i32 (...)** }
%"class.std::__1::vector.331" = type { %"class.std::__1::__vector_base.332" }
%"class.std::__1::__vector_base.332" = type { %"class.std::__1::unique_ptr.333"*, %"class.std::__1::unique_ptr.333"*, %"class.std::__1::__compressed_pair.339" }
%"class.std::__1::unique_ptr.333" = type { %"class.std::__1::__compressed_pair.334" }
%"class.std::__1::__compressed_pair.334" = type { %"struct.std::__1::__compressed_pair_elem.335" }
%"struct.std::__1::__compressed_pair_elem.335" = type { %"struct.password_manager::PasswordForm"* }
%"class.std::__1::__compressed_pair.339" = type { %"struct.std::__1::__compressed_pair_elem.340" }
%"struct.std::__1::__compressed_pair_elem.340" = type { %"class.std::__1::unique_ptr.333"* }
%"class.base::OnceCallback.320" = type { %"class.base::internal::CallbackBase" }
%"class.base::WeakPtr.321" = type { %"class.base::internal::WeakPtrBase" }
%"class.base::OnceCallback.329" = type { %"class.base::internal::CallbackBase" }
%"class.base::OnceCallback.330" = type { %"class.base::internal::CallbackBase" }
%"struct.base::internal::BindState.587" = type { %"class.base::internal::BindStateBase", { i64, i64 }, %"class.std::__1::tuple.588" }
%"class.std::__1::tuple.588" = type { %"struct.std::__1::__tuple_impl.589" }
%"struct.std::__1::__tuple_impl.589" = type { %"class.std::__1::__tuple_leaf.507", %"class.std::__1::__tuple_leaf.590", %"class.std::__1::__tuple_leaf.591", %"class.std::__1::__tuple_leaf.559" }
%"class.std::__1::__tuple_leaf.507" = type { %class.scoped_refptr.436 }
%class.scoped_refptr.436 = type { %"class.password_manager::PasswordStore"* }
%"class.std::__1::__tuple_leaf.590" = type { %"class.base::WeakPtr.321" }
%"class.std::__1::__tuple_leaf.591" = type { %"struct.password_manager::PasswordStore::FormDigest" }
%"class.std::__1::__tuple_leaf.559" = type { %"class.base::Time" }
%"class.base::OnceCallback.344" = type { %"class.base::internal::CallbackBase" }
%"class.std::__1::vector.322" = type { %"class.std::__1::__vector_base.323" }
%"class.std::__1::__vector_base.323" = type { %"class.std::__1::basic_string"*, %"class.std::__1::basic_string"*, %"class.std::__1::__compressed_pair.324" }
%"class.std::__1::__compressed_pair.324" = type { %"struct.std::__1::__compressed_pair_elem.325" }
%"struct.std::__1::__compressed_pair_elem.325" = type { %"class.std::__1::basic_string"* }
%"struct.base::internal::BindState.943" = type { %"class.base::internal::BindStateBase", { i64, i64 }, %"class.std::__1::tuple.944" }
%"class.std::__1::tuple.944" = type { %"struct.std::__1::__tuple_impl.945" }
%"struct.std::__1::__tuple_impl.945" = type { %"class.std::__1::__tuple_leaf.507", %"class.std::__1::__tuple_leaf.585", %"class.std::__1::__tuple_leaf.946" }
%"class.std::__1::__tuple_leaf.585" = type { %"struct.password_manager::PasswordStore::FormDigest" }
%"class.std::__1::__tuple_leaf.946" = type { %"class.std::__1::vector.322" }
%"class.logging::CheckError" = type { %"class.logging::LogMessage"* }
%"class.logging::LogMessage" = type { i32 (...)**, i32, %"class.std::__1::basic_ostringstream", i64, i8*, i32, %"class.base::ScopedClearLastErrorBase" }
%"class.std::__1::basic_ostringstream" = type { %"class.std::__1::basic_ostream.base", %"class.std::__1::basic_stringbuf", %"class.std::__1::basic_ios.base" }
%"class.std::__1::basic_ostream.base" = type { i32 (...)** }
%"class.std::__1::basic_stringbuf" = type <{ %"class.std::__1::basic_streambuf", %"class.std::__1::basic_string", i8*, i32, [4 x i8] }>
%"class.std::__1::basic_streambuf" = type { i32 (...)**, %"class.std::__1::locale", i8*, i8*, i8*, i8*, i8*, i8* }
%"class.std::__1::locale" = type { %"class.std::__1::locale::__imp"* }
%"class.std::__1::locale::__imp" = type opaque
%"class.std::__1::basic_ios.base" = type <{ %"class.std::__1::ios_base", %"class.std::__1::basic_ostream"*, i32 }>
%"class.std::__1::ios_base" = type { i32 (...)**, i32, i64, i64, i32, i32, i8*, i8*, void (i32, %"class.std::__1::ios_base"*, i32)**, i32*, i64, i64, i64*, i64, i64, i8**, i64, i64 }
%"class.std::__1::basic_ostream" = type { i32 (...)**, %"class.std::__1::basic_ios.base" }
%"class.base::ScopedClearLastErrorBase" = type { i32 }
%"struct.base::internal::BindState.602" = type { %"class.base::internal::BindStateBase", { i64, i64 }, %"class.std::__1::tuple.603" }
%"class.std::__1::tuple.603" = type { %"struct.std::__1::__tuple_impl.604" }
%"struct.std::__1::__tuple_impl.604" = type { %"class.std::__1::__tuple_leaf.507", %"class.std::__1::__tuple_leaf.605" }
%"class.std::__1::__tuple_leaf.605" = type { %"class.std::__1::basic_string.219" }
%"struct.password_manager::InteractionsStats" = type { %class.GURL, %"class.std::__1::basic_string.219", i32, %"class.base::Time" }
%"class.std::__1::__tuple_leaf.620" = type { %"struct.password_manager::InteractionsStats" }
%"class.base::OnceCallback.346" = type { %"class.base::internal::CallbackBase" }
%"class.base::OnceCallback.456" = type { %"class.base::internal::CallbackBase" }
%"struct.password_manager::InsecureCredential" = type <{ %"class.base::StrongAlias.298", [4 x i8], %"class.std::__1::basic_string", %"class.std::__1::basic_string.219", %"class.base::Time", i32, %"class.base::StrongAlias.347", [3 x i8], i32, [4 x i8] }>
%"class.base::StrongAlias.347" = type { i8 }
%"class.base::OnceCallback.348" = type { %"class.base::internal::CallbackBase" }
%"struct.std::__1::__tuple_impl.647" = type <{ %"class.std::__1::__tuple_leaf.507", %"class.std::__1::__tuple_leaf.612", %"class.std::__1::__tuple_leaf.648", %"class.std::__1::__tuple_leaf.649", [4 x i8] }>
%"class.std::__1::__tuple_leaf.612" = type { %"class.std::__1::basic_string" }
%"class.std::__1::__tuple_leaf.648" = type { %"class.std::__1::basic_string.219" }
%"class.std::__1::__tuple_leaf.649" = type { i32 }
%"class.password_manager::InsecureCredentialsConsumer" = type { i32 (...)**, %"class.base::CancelableTaskTracker", %"class.base::WeakPtrFactory.349" }
%"class.base::WeakPtrFactory.349" = type { %"class.base::internal::WeakPtrFactoryBase" }
%"class.base::OnceCallback.350" = type { %"class.base::internal::CallbackBase" }
%"class.base::OnceCallback.457" = type { %"class.base::internal::CallbackBase" }
%"class.base::WeakPtr.351" = type { %"class.base::internal::WeakPtrBase" }
%"struct.base::internal::BindState.948" = type { %"class.base::internal::BindStateBase", { i64, i64 }, %"class.std::__1::tuple.949" }
%"class.std::__1::tuple.949" = type { %"struct.std::__1::__tuple_impl.950" }
%"struct.std::__1::__tuple_impl.950" = type { %"class.std::__1::__tuple_leaf.507", %"class.std::__1::__tuple_leaf.612", %"class.std::__1::__tuple_leaf.946" }
%"struct.password_manager::FieldInfo" = type { %"class.autofill::FormSignature", %"class.autofill::FieldSignature", i32, %"class.base::Time" }
%"class.autofill::FormSignature" = type { %"class.util::IdType.352" }
%"class.util::IdType.352" = type { %"class.base::StrongAlias.353" }
%"class.base::StrongAlias.353" = type { i64 }
%"class.autofill::FieldSignature" = type { %"class.util::IdType.354" }
%"class.util::IdType.354" = type { %"class.base::StrongAlias.355" }
%"class.base::StrongAlias.355" = type { i32 }
%"class.base::OnceCallback.356" = type { %"class.base::internal::CallbackBase" }
%"class.base::OnceCallback.357" = type { %"class.base::internal::CallbackBase" }
%"class.std::__1::tuple.715" = type { %"struct.std::__1::__tuple_impl.716" }
%"struct.std::__1::__tuple_impl.716" = type { %"class.std::__1::__tuple_leaf.717" }
%"class.std::__1::__tuple_leaf.717" = type { %"class.password_manager::PasswordStore::Observer"** }
%"class.std::__1::tuple.718" = type { i8 }
%"struct.base::ObserverListThreadSafe<password_manager::PasswordStore::Observer>::NotificationData" = type { %"struct.base::internal::ObserverListThreadSafeBase::NotificationDataBase", %"class.base::RepeatingCallback.712", i64 }
%"struct.base::internal::ObserverListThreadSafeBase::NotificationDataBase" = type { i8*, %"class.base::Location" }
%"class.base::RepeatingCallback.712" = type { %"class.base::internal::CallbackBaseCopyable" }
%"class.base::ThreadLocalStorage::Slot" = type { i32, i32 }
%"class.base::ThreadLocalPointer" = type { %"class.base::ThreadLocalStorage::Slot" }
%"class.std::__1::tuple.742" = type { %"struct.std::__1::__tuple_impl.743" }
%"struct.std::__1::__tuple_impl.743" = type { %"class.std::__1::__tuple_leaf.744" }
%"class.std::__1::__tuple_leaf.744" = type { %"class.password_manager::PasswordStore::DatabaseInsecureCredentialsObserver"** }
%"struct.base::ObserverListThreadSafe<password_manager::PasswordStore::DatabaseInsecureCredentialsObserver>::NotificationData" = type { %"struct.base::internal::ObserverListThreadSafeBase::NotificationDataBase", %"class.base::RepeatingCallback.738", i64 }
%"class.base::RepeatingCallback.738" = type { %"class.base::internal::CallbackBaseCopyable" }
%"class.syncer::ProxyModelTypeControllerDelegate" = type { %"class.syncer::ModelTypeControllerDelegate", %class.scoped_refptr, %"class.base::RepeatingCallback.361" }
%"class.syncer::ModelTypeControllerDelegate" = type { i32 (...)** }
%"class.base::RepeatingCallback.361" = type { %"class.base::internal::CallbackBaseCopyable" }
%"class.base::WeakPtr.365" = type { %"class.base::internal::WeakPtrBase" }
%"class.std::__1::unique_ptr.366" = type { %"class.std::__1::__compressed_pair.367" }
%"class.std::__1::__compressed_pair.367" = type { %"struct.std::__1::__compressed_pair_elem.368" }
%"struct.std::__1::__compressed_pair_elem.368" = type { %"class.password_manager::PasswordStore::CheckReuseRequest"* }
%"struct.std::__1::__tuple_impl.770" = type { %"class.std::__1::__tuple_leaf.507", %"class.std::__1::__tuple_leaf.771", %"class.std::__1::__tuple_leaf.648", %"class.std::__1::__tuple_leaf.772" }
%"class.std::__1::__tuple_leaf.771" = type { %"class.std::__1::unique_ptr.366" }
%"class.std::__1::__tuple_leaf.772" = type { %"class.std::__1::basic_string" }
%"struct.std::__1::basic_string<char16_t, std::__1::char_traits<char16_t>, std::__1::allocator<char16_t> >::__short" = type { [11 x i16], %struct.anon.223 }
%struct.anon.223 = type { %"struct.std::__1::__padding.224", i8 }
%"struct.std::__1::__padding.224" = type { [1 x i8] }
%"class.base::CallbackListSubscription" = type { %"class.base::OnceCallback.215" }
%"class.absl::optional.446" = type { %"class.absl::optional_internal::optional_data.447" }
%"class.absl::optional_internal::optional_data.447" = type { %"class.absl::optional_internal::optional_data_base.448" }
%"class.absl::optional_internal::optional_data_base.448" = type { %"class.absl::optional_internal::optional_data_dtor_base.449" }
%"class.absl::optional_internal::optional_data_dtor_base.449" = type { i8, %union.anon.450 }
%union.anon.450 = type { %class.GURL }
%"class.std::__1::__vector_base_common" = type { i8 }
%"class.base::internal::ObserverListThreadSafeBase" = type <{ i32 (...)**, %"class.base::RefCountedThreadSafe.3", [4 x i8] }>
%"class.std::__1::vector.373" = type { %"class.std::__1::__vector_base.374" }
%"class.std::__1::__vector_base.374" = type { %"struct.password_manager::InsecureCredential"*, %"struct.password_manager::InsecureCredential"*, %"class.std::__1::__compressed_pair.375" }
%"class.std::__1::__compressed_pair.375" = type { %"struct.std::__1::__compressed_pair_elem.376" }
%"struct.std::__1::__compressed_pair_elem.376" = type { %"struct.password_manager::InsecureCredential"* }
%"class.syncer::ClientTagBasedModelTypeProcessor" = type { %"class.syncer::ModelTypeProcessor", %"class.syncer::ModelTypeChangeProcessor", %"class.syncer::ModelTypeControllerDelegate", i32, %"class.syncer::ModelTypeSyncBridge"*, %"class.base::RepeatingCallback", %"class.absl::optional.383", i8, %"class.base::OnceCallback.388", %"struct.syncer::DataTypeActivationRequest", %"class.std::__1::unique_ptr.390", %"class.std::__1::unique_ptr.396", i8, %"class.base::WeakPtrFactory.431", %"class.base::WeakPtrFactory.432" }
%"class.syncer::ModelTypeProcessor" = type { i32 (...)** }
%"class.absl::optional.383" = type { %"class.absl::optional_internal::optional_data.384" }
%"class.absl::optional_internal::optional_data.384" = type { %"class.absl::optional_internal::optional_data_base.385" }
%"class.absl::optional_internal::optional_data_base.385" = type { %"class.absl::optional_internal::optional_data_dtor_base.386" }
%"class.absl::optional_internal::optional_data_dtor_base.386" = type { i8, %union.anon.387 }
%union.anon.387 = type { %"class.syncer::ModelError" }
%"class.syncer::ModelError" = type { %"class.base::Location", %"class.std::__1::basic_string" }
%"class.base::OnceCallback.388" = type { %"class.base::internal::CallbackBase" }
%"struct.syncer::DataTypeActivationRequest" = type { %"class.base::RepeatingCallback.389", %struct.CoreAccountId, %"class.std::__1::basic_string", i32, %"class.base::Time" }
%"class.base::RepeatingCallback.389" = type { %"class.base::internal::CallbackBaseCopyable" }
%struct.CoreAccountId = type { %"class.std::__1::basic_string" }
%"class.std::__1::unique_ptr.390" = type { %"class.std::__1::__compressed_pair.391" }
%"class.std::__1::__compressed_pair.391" = type { %"struct.std::__1::__compressed_pair_elem.392" }
%"struct.std::__1::__compressed_pair_elem.392" = type { %"class.syncer::CommitQueue"* }
%"class.syncer::CommitQueue" = type opaque
%"class.std::__1::unique_ptr.396" = type { %"class.std::__1::__compressed_pair.397" }
%"class.std::__1::__compressed_pair.397" = type { %"struct.std::__1::__compressed_pair_elem.398" }
%"struct.std::__1::__compressed_pair_elem.398" = type { %"class.syncer::ProcessorEntityTracker"* }
%"class.syncer::ProcessorEntityTracker" = type { %"class.std::__1::map.399", %"class.sync_pb::ModelTypeState", %"class.std::__1::map.419" }
%"class.std::__1::map.399" = type { %"class.std::__1::__tree.400" }
%"class.std::__1::__tree.400" = type { %"class.std::__1::__tree_end_node"*, %"class.std::__1::__compressed_pair.401", %"class.std::__1::__compressed_pair.405" }
%"class.std::__1::__compressed_pair.401" = type { %"struct.std::__1::__compressed_pair_elem.65" }
%"class.std::__1::__compressed_pair.405" = type { %"struct.std::__1::__compressed_pair_elem.6" }
%"class.sync_pb::ModelTypeState" = type <{ %"class.google::protobuf::MessageLite", %"class.google::protobuf::internal::HasBits", %"class.google::protobuf::internal::CachedSize", %"struct.google::protobuf::internal::ArenaStringPtr", %"struct.google::protobuf::internal::ArenaStringPtr", %"struct.google::protobuf::internal::ArenaStringPtr", %"class.sync_pb::DataTypeProgressMarker"*, %"class.sync_pb::DataTypeContext"*, i8, [7 x i8] }>
%"class.google::protobuf::MessageLite" = type { i32 (...)**, %"class.google::protobuf::internal::InternalMetadata" }
%"class.google::protobuf::internal::InternalMetadata" = type { i8* }
%"class.google::protobuf::internal::HasBits" = type { [1 x i32] }
%"class.google::protobuf::internal::CachedSize" = type { %"struct.std::__1::atomic" }
%"struct.google::protobuf::internal::ArenaStringPtr" = type { %"class.std::__1::basic_string"* }
%"class.sync_pb::DataTypeProgressMarker" = type <{ %"class.google::protobuf::MessageLite", %"class.google::protobuf::internal::HasBits", %"class.google::protobuf::internal::CachedSize", %"struct.google::protobuf::internal::ArenaStringPtr", %"struct.google::protobuf::internal::ArenaStringPtr", %"class.sync_pb::GetUpdateTriggers"*, %"class.sync_pb::GarbageCollectionDirective"*, i64, i32, [4 x i8] }>
%"class.sync_pb::GetUpdateTriggers" = type <{ %"class.google::protobuf::MessageLite", %"class.google::protobuf::internal::HasBits", %"class.google::protobuf::internal::CachedSize", %"class.google::protobuf::RepeatedPtrField", i64, i64, i8, i8, i8, i8, i8, [3 x i8] }>
%"class.google::protobuf::RepeatedPtrField" = type { %"class.google::protobuf::internal::RepeatedPtrFieldBase" }
%"class.google::protobuf::internal::RepeatedPtrFieldBase" = type { %"class.google::protobuf::Arena"*, i32, i32, %"struct.google::protobuf::internal::RepeatedPtrFieldBase::Rep"* }
%"class.google::protobuf::Arena" = type { %"class.google::protobuf::internal::ArenaImpl", void (%"class.std::type_info"*, i64, i8*)*, void (%"class.google::protobuf::Arena"*, i8*, i64)*, void (%"class.google::protobuf::Arena"*, i8*, i64)*, i8* }
%"class.google::protobuf::internal::ArenaImpl" = type { %"struct.std::__1::atomic.410", %"struct.std::__1::atomic.410", %"struct.std::__1::atomic.414", %"class.google::protobuf::internal::ArenaImpl::Block"*, i64, %"struct.google::protobuf::internal::ArenaImpl::Options" }
%"struct.std::__1::atomic.410" = type { %"struct.std::__1::__atomic_base.411" }
%"struct.std::__1::__atomic_base.411" = type { %"struct.std::__1::__cxx_atomic_impl.412" }
%"struct.std::__1::__cxx_atomic_impl.412" = type { %"struct.std::__1::__cxx_atomic_base_impl.413" }
%"struct.std::__1::__cxx_atomic_base_impl.413" = type { %"class.google::protobuf::internal::ArenaImpl::SerialArena"* }
%"class.google::protobuf::internal::ArenaImpl::SerialArena" = type { %"class.google::protobuf::internal::ArenaImpl"*, i8*, %"class.google::protobuf::internal::ArenaImpl::Block"*, %"struct.google::protobuf::internal::ArenaImpl::CleanupChunk"*, %"class.google::protobuf::internal::ArenaImpl::SerialArena"*, i8*, i8*, %"struct.google::protobuf::internal::ArenaImpl::CleanupNode"*, %"struct.google::protobuf::internal::ArenaImpl::CleanupNode"* }
%"struct.google::protobuf::internal::ArenaImpl::CleanupChunk" = type { i64, %"struct.google::protobuf::internal::ArenaImpl::CleanupChunk"*, [1 x %"struct.google::protobuf::internal::ArenaImpl::CleanupNode"] }
%"struct.google::protobuf::internal::ArenaImpl::CleanupNode" = type { i8*, void (i8*)* }
%"struct.std::__1::atomic.414" = type { %"struct.std::__1::__atomic_base.415" }
%"struct.std::__1::__atomic_base.415" = type { %"struct.std::__1::__atomic_base.416" }
%"struct.std::__1::__atomic_base.416" = type { %"struct.std::__1::__cxx_atomic_impl.417" }
%"struct.std::__1::__cxx_atomic_impl.417" = type { %"struct.std::__1::__cxx_atomic_base_impl.418" }
%"struct.std::__1::__cxx_atomic_base_impl.418" = type { i64 }
%"class.google::protobuf::internal::ArenaImpl::Block" = type { %"class.google::protobuf::internal::ArenaImpl::Block"*, i64, i64 }
%"struct.google::protobuf::internal::ArenaImpl::Options" = type { i64, i64, i8*, i64, i8* (i64)*, void (i8*, i64)* }
%"class.std::type_info" = type { i32 (...)**, i8* }
%"struct.google::protobuf::internal::RepeatedPtrFieldBase::Rep" = type { i32, [268435454 x i8*] }
%"class.sync_pb::GarbageCollectionDirective" = type { %"class.google::protobuf::MessageLite", %"class.google::protobuf::internal::HasBits", %"class.google::protobuf::internal::CachedSize", i64, i32, i32 }
%"class.sync_pb::DataTypeContext" = type <{ %"class.google::protobuf::MessageLite", %"class.google::protobuf::internal::HasBits", %"class.google::protobuf::internal::CachedSize", %"struct.google::protobuf::internal::ArenaStringPtr", i64, i32, [4 x i8] }>
%"class.std::__1::map.419" = type { %"class.std::__1::__tree.420" }
%"class.std::__1::__tree.420" = type { %"class.std::__1::__tree_end_node"*, %"class.std::__1::__compressed_pair.421", %"class.std::__1::__compressed_pair.425" }
%"class.std::__1::__compressed_pair.421" = type { %"struct.std::__1::__compressed_pair_elem.65" }
%"class.std::__1::__compressed_pair.425" = type { %"struct.std::__1::__compressed_pair_elem.6" }
%"class.base::WeakPtrFactory.431" = type { %"class.base::internal::WeakPtrFactoryBase" }
%"class.base::WeakPtrFactory.432" = type { %"class.base::internal::WeakPtrFactoryBase" }
%"class.base::CheckedContiguousIterator" = type { %"struct.password_manager::InsecureCredential"*, %"struct.password_manager::InsecureCredential"*, %"struct.password_manager::InsecureCredential"* }
%"class.base::internal::RetainedRefWrapper" = type { %class.scoped_refptr.436 }
%"struct.base::internal::BindState.799" = type { %"class.base::internal::BindStateBase", void (i64, i64, %"class.password_manager::PasswordStore"*, %"class.std::__1::vector.217"*, %"class.password_manager::PasswordStore::Observer"*)*, %"class.std::__1::tuple.800" }
%"class.std::__1::tuple.800" = type { %"struct.std::__1::__tuple_impl.801" }
%"struct.std::__1::__tuple_impl.801" = type { %"class.std::__1::__tuple_leaf.802", %"class.std::__1::__tuple_leaf.796", %"class.std::__1::__tuple_leaf.803" }
%"class.std::__1::__tuple_leaf.802" = type { { i64, i64 } }
%"class.std::__1::__tuple_leaf.796" = type { %"class.base::internal::RetainedRefWrapper" }
%"class.std::__1::__tuple_leaf.803" = type { %"class.std::__1::vector.217" }
%"struct.std::__1::__hash_node" = type { %"struct.std::__1::__hash_node_base", i64, %"struct.std::__1::__hash_value_type" }
%"struct.std::__1::__hash_value_type" = type { %"struct.std::__1::pair.487" }
%"struct.std::__1::pair.487" = type { %"class.password_manager::PasswordStore::Observer"*, %"struct.base::ObserverListThreadSafe<password_manager::PasswordStore::Observer>::ObserverTaskRunnerInfo" }
%"struct.base::ObserverListThreadSafe<password_manager::PasswordStore::Observer>::ObserverTaskRunnerInfo" = type { %class.scoped_refptr, i64 }
%"struct.std::__1::__hash_node.493" = type { %"struct.std::__1::__hash_node_base.25", i64, %"struct.std::__1::__hash_value_type.494" }
%"struct.std::__1::__hash_value_type.494" = type { %"struct.std::__1::pair.495" }
%"struct.std::__1::pair.495" = type { %"class.password_manager::PasswordStore::DatabaseInsecureCredentialsObserver"*, %"struct.base::ObserverListThreadSafe<password_manager::PasswordStore::DatabaseInsecureCredentialsObserver>::ObserverTaskRunnerInfo" }
%"struct.base::ObserverListThreadSafe<password_manager::PasswordStore::DatabaseInsecureCredentialsObserver>::ObserverTaskRunnerInfo" = type { %class.scoped_refptr, i64 }
%"class.std::__1::vector.438" = type { %"class.std::__1::__vector_base.439" }
%"class.std::__1::__vector_base.439" = type { %"struct.password_manager::PasswordForm"*, %"struct.password_manager::PasswordForm"*, %"class.std::__1::__compressed_pair.440" }
%"class.std::__1::__compressed_pair.440" = type { %"struct.std::__1::__compressed_pair_elem.335" }
%"class.base::WeakPtr.444" = type { %"class.base::internal::WeakPtrBase" }
%"struct.base::internal::BindState.953" = type { %"class.base::internal::BindStateBase", { i64, i64 }, %"class.std::__1::tuple.954" }
%"class.std::__1::tuple.954" = type { %"struct.std::__1::__tuple_impl.955" }
%"struct.std::__1::__tuple_impl.955" = type { %"class.std::__1::__tuple_leaf.507", %"class.std::__1::__tuple_leaf.545", %"class.std::__1::__tuple_leaf.946" }
%"class.std::__1::__tuple_leaf.545" = type { %"struct.password_manager::PasswordForm" }
%"class.logging::CheckOpResult" = type { i8* }
%"class.std::__1::allocator.311" = type { i8 }
%"class.std::__1::unique_ptr.518" = type { %"class.std::__1::__compressed_pair.519" }
%"class.std::__1::__compressed_pair.519" = type { %"struct.std::__1::__compressed_pair_elem.520" }
%"struct.std::__1::__compressed_pair_elem.520" = type { i8* }
%"class.std::__1::tuple.610" = type { %"struct.std::__1::__tuple_impl.611" }
%"struct.std::__1::__tuple_impl.611" = type <{ %"class.std::__1::__tuple_leaf.507", %"class.std::__1::__tuple_leaf.612", %"class.std::__1::__tuple_leaf.613", %"class.std::__1::__tuple_leaf.614", [6 x i8] }>
%"class.std::__1::__tuple_leaf.613" = type { i8 }
%"class.std::__1::__tuple_leaf.614" = type { %"class.base::StrongAlias.345" }
%"class.base::StrongAlias.345" = type { i8 }
%"class.std::__1::vector.627" = type { %"class.std::__1::__vector_base.628" }
%"class.std::__1::__vector_base.628" = type { %"struct.password_manager::InteractionsStats"*, %"struct.password_manager::InteractionsStats"*, %"class.std::__1::__compressed_pair.629" }
%"class.std::__1::__compressed_pair.629" = type { %"struct.std::__1::__compressed_pair_elem.630" }
%"struct.std::__1::__compressed_pair_elem.630" = type { %"struct.password_manager::InteractionsStats"* }
%"class.std::__1::vector.668" = type { %"class.std::__1::__vector_base.669" }
%"class.std::__1::__vector_base.669" = type { %"struct.password_manager::FieldInfo"*, %"struct.password_manager::FieldInfo"*, %"class.std::__1::__compressed_pair.670" }
%"class.std::__1::__compressed_pair.670" = type { %"struct.std::__1::__compressed_pair_elem.671" }
%"struct.std::__1::__compressed_pair_elem.671" = type { %"struct.password_manager::FieldInfo"* }
%"class.std::__1::unique_ptr.681" = type { %"class.std::__1::__compressed_pair.682" }
%"class.std::__1::__compressed_pair.682" = type { %"struct.std::__1::__compressed_pair_elem.683" }
%"struct.std::__1::__compressed_pair_elem.683" = type { %"class.std::__1::vector.668"* }
%"class.std::__1::unique_ptr.719" = type { %"class.std::__1::__compressed_pair.720" }
%"class.std::__1::__compressed_pair.720" = type { %"struct.std::__1::__compressed_pair_elem.721", %"struct.std::__1::__compressed_pair_elem.722" }
%"struct.std::__1::__compressed_pair_elem.721" = type { %"struct.std::__1::__hash_node"* }
%"struct.std::__1::__compressed_pair_elem.722" = type { %"class.std::__1::__hash_node_destructor" }
%"class.std::__1::__hash_node_destructor" = type <{ %"class.std::__1::allocator.11"*, i8, [7 x i8] }>
%"class.std::__1::allocator.11" = type { i8 }
%"class.std::__1::unique_ptr.745" = type { %"class.std::__1::__compressed_pair.746" }
%"class.std::__1::__compressed_pair.746" = type { %"struct.std::__1::__compressed_pair_elem.747", %"struct.std::__1::__compressed_pair_elem.748" }
%"struct.std::__1::__compressed_pair_elem.747" = type { %"struct.std::__1::__hash_node.493"* }
%"struct.std::__1::__compressed_pair_elem.748" = type { %"class.std::__1::__hash_node_destructor.749" }
%"class.std::__1::__hash_node_destructor.749" = type <{ %"class.std::__1::allocator.35"*, i8, [7 x i8] }>
%"class.std::__1::allocator.35" = type { i8 }
%"class.std::__1::tuple.776" = type { %"struct.std::__1::__tuple_impl.777" }
%"struct.std::__1::__tuple_impl.777" = type <{ %"class.std::__1::__tuple_leaf.507", %"class.std::__1::__tuple_leaf.778", %"class.std::__1::__tuple_leaf.613", %"class.std::__1::__tuple_leaf.779", %"class.std::__1::__tuple_leaf.780", [5 x i8] }>
%"class.std::__1::__tuple_leaf.778" = type { %"class.std::__1::vector" }
%"class.std::__1::__tuple_leaf.779" = type { i8 }
%"class.std::__1::__tuple_leaf.780" = type { i8 }
%"struct.base::internal::BindState.775" = type { %"class.base::internal::BindStateBase", { i64, i64 }, %"class.std::__1::tuple.776" }
%"struct.base::internal::BindState.793" = type { %"class.base::internal::BindStateBase", { i64, i64 }, %"class.std::__1::tuple.794" }
%"class.std::__1::tuple.794" = type { %"struct.std::__1::__tuple_impl.795" }
%"struct.std::__1::__tuple_impl.795" = type { %"class.std::__1::__tuple_leaf.679", %"class.std::__1::__tuple_leaf.796", %"class.std::__1::__tuple_leaf.797" }
%"class.std::__1::__tuple_leaf.679" = type { %"class.base::WeakPtr.321" }
%"class.std::__1::__tuple_leaf.797" = type { %"class.std::__1::vector.331" }
%"class.std::__1::unique_ptr.829" = type { %"class.std::__1::__compressed_pair.830" }
%"class.std::__1::__compressed_pair.830" = type { %"struct.std::__1::__compressed_pair_elem.831" }
%"struct.std::__1::__compressed_pair_elem.831" = type { %"class.std::__1::vector.331"* }
%"struct.std::__1::default_delete.841" = type { i8 }
%"class.std::__1::unique_ptr.867" = type { %"class.std::__1::__compressed_pair.868" }
%"class.std::__1::__compressed_pair.868" = type { %"struct.std::__1::__compressed_pair_elem.869" }
%"struct.std::__1::__compressed_pair_elem.869" = type { %"class.std::__1::vector.627"* }
%"struct.std::__1::default_delete.879" = type { i8 }
%"class.std::__1::unique_ptr.898" = type { %"class.std::__1::__compressed_pair.899" }
%"class.std::__1::__compressed_pair.899" = type { %"struct.std::__1::__compressed_pair_elem.900" }
%"struct.std::__1::__compressed_pair_elem.900" = type { %"class.std::__1::vector.373"* }
%"struct.base::internal::BindState.918" = type { %"class.base::internal::BindStateBase", void (%"class.base::OnceCallback.457"*, %"class.std::__1::unique_ptr.898"*)*, %"class.std::__1::tuple.919" }
%"class.std::__1::tuple.919" = type { %"struct.std::__1::__tuple_impl.920" }
%"struct.std::__1::__tuple_impl.920" = type { %"class.std::__1::__tuple_leaf.921", %"class.std::__1::__tuple_leaf.922" }
%"class.std::__1::__tuple_leaf.921" = type { %"class.base::OnceCallback.457" }
%"class.std::__1::__tuple_leaf.922" = type { %"class.base::internal::OwnedWrapper.905" }
%"class.base::internal::OwnedWrapper.905" = type { %"class.std::__1::unique_ptr.906" }
%"class.std::__1::unique_ptr.906" = type { %"class.std::__1::__compressed_pair.907" }
%"class.std::__1::__compressed_pair.907" = type { %"struct.std::__1::__compressed_pair_elem.908" }
%"struct.std::__1::__compressed_pair_elem.908" = type { %"class.std::__1::unique_ptr.898"* }
%"class.base::WeakPtr.931" = type { %"class.base::internal::WeakPtrBase" }

$_ZN4base22ObserverListThreadSafeIN16password_manager13PasswordStore8ObserverEE11AddObserverEPS3_ = comdat any

$_ZN4base22ObserverListThreadSafeIN16password_manager13PasswordStore35DatabaseInsecureCredentialsObserverEE11AddObserverEPS3_ = comdat any

$_ZN4base22ObserverListThreadSafeIN16password_manager13PasswordStore8ObserverEE6NotifyIMS3_FvPS2_RKNSt3__16vectorINS1_19PasswordStoreChangeENS7_9allocatorIS9_EEEEEJNS_8internal18RetainedRefWrapperIS2_EESE_EEEvRKNS_8LocationET_DpOT0_ = comdat any

$_ZN4base22ObserverListThreadSafeIN16password_manager13PasswordStore35DatabaseInsecureCredentialsObserverEE6NotifyIMS3_FvPS2_EJNS_8internal18RetainedRefWrapperIS2_EEEEEvRKNS_8LocationET_DpOT0_ = comdat any

$_ZNSt3__16vectorIN16password_manager19PasswordStoreChangeENS_9allocatorIS2_EEE6insertINS_11__wrap_iterIPS2_EEEENS_9enable_ifIXaasr27__is_cpp17_forward_iteratorIT_EE5valuesr16is_constructibleIS2_NS_15iterator_traitsISB_E9referenceEEE5valueES9_E4typeENS7_IPKS2_EESB_SB_ = comdat any

$_ZNSt3__16vectorINS_10unique_ptrIN16password_manager12PasswordFormENS_14default_deleteIS3_EEEENS_9allocatorIS6_EEE6insertINS_13move_iteratorINS_11__wrap_iterIPS6_EEEEEENS_9enable_ifIXaasr27__is_cpp17_forward_iteratorIT_EE5valuesr16is_constructibleIS6_NS_15iterator_traitsISH_E9referenceEEE5valueESE_E4typeENSC_IPKS6_EESH_SH_ = comdat any

$_ZNSt3__16vectorIN16password_manager18InsecureCredentialENS_9allocatorIS2_EEE6insertINS_13move_iteratorINS_11__wrap_iterIPS2_EEEEEENS_9enable_ifIXaasr27__is_cpp17_forward_iteratorIT_EE5valuesr16is_constructibleIS2_NS_15iterator_traitsISD_E9referenceEEE5valueESA_E4typeENS8_IPKS2_EESD_SD_ = comdat any

$_ZNSt3__112basic_stringIDsNS_11char_traitsIDsEENS_9allocatorIDsEEEaSERKS5_ = comdat any

$_ZN16password_manager13PasswordStore8ObserverD2Ev = comdat any

$_ZN16password_manager13PasswordStore8ObserverD0Ev = comdat any

$_ZN16password_manager13PasswordStore35DatabaseInsecureCredentialsObserverD2Ev = comdat any

$_ZN16password_manager13PasswordStore35DatabaseInsecureCredentialsObserverD0Ev = comdat any

$_ZN4base22ObserverListThreadSafeIN16password_manager13PasswordStore8ObserverEED2Ev = comdat any

$_ZN4base22ObserverListThreadSafeIN16password_manager13PasswordStore8ObserverEED0Ev = comdat any

$_ZNK4base25CheckedContiguousIteratorIKN16password_manager18InsecureCredentialEEdeEv = comdat any

$_ZN4base25CheckedContiguousIteratorIKN16password_manager18InsecureCredentialEEppEv = comdat any

$_ZNK4base25CheckedContiguousIteratorIKN16password_manager18InsecureCredentialEE15CheckComparableERKS4_ = comdat any

$_ZZN7logging15CheckOpValueStrIPKN16password_manager18InsecureCredentialEEENSt3__19enable_ifIXaasr4base8internal23SupportsOstreamOperatorIRKT_EE5valuentsr3std11is_functionINS5_14remove_pointerIS7_E4typeEEE5valueEPcE4typeES9_ENUlRNS5_13basic_ostreamIcNS5_11char_traitsIcEEEEPKvE_8__invokeESK_SM_ = comdat any

$_ZN4base25CheckedContiguousIteratorIKN16password_manager18InsecureCredentialEEC2EPS3_S5_S5_ = comdat any

$_ZN4base22ObserverListThreadSafeIN16password_manager13PasswordStore35DatabaseInsecureCredentialsObserverEED2Ev = comdat any

$_ZN4base22ObserverListThreadSafeIN16password_manager13PasswordStore35DatabaseInsecureCredentialsObserverEED0Ev = comdat any

$_ZN4base8internal7InvokerINS0_9BindStateIMN16password_manager29PasswordReuseDetectorConsumerEFvbmN4absl8optionalINS3_16PasswordHashDataEEERKNSt3__16vectorINS3_24MatchingReusedCredentialENS9_9allocatorISB_EEEEiEJNS_7WeakPtrIS4_EEbmS8_SE_iEEEFvvEE7RunOnceEPNS0_13BindStateBaseE = comdat any

$_ZN4base8internal13FunctorTraitsIMN16password_manager29PasswordReuseDetectorConsumerEFvbmN4absl8optionalINS2_16PasswordHashDataEEERKNSt3__16vectorINS2_24MatchingReusedCredentialENS8_9allocatorISA_EEEEiEvE6InvokeISH_NS_7WeakPtrIS3_EEJbmS7_SD_iEEEvT_OT0_DpOT1_ = comdat any

$_ZN4base8internal9BindStateIMN16password_manager29PasswordReuseDetectorConsumerEFvbmN4absl8optionalINS2_16PasswordHashDataEEERKNSt3__16vectorINS2_24MatchingReusedCredentialENS8_9allocatorISA_EEEEiEJNS_7WeakPtrIS3_EEbmS7_SD_iEE7DestroyEPKNS0_13BindStateBaseE = comdat any

$_ZN4base8internal23QueryCancellationTraitsINS0_9BindStateIMN16password_manager29PasswordReuseDetectorConsumerEFvbmN4absl8optionalINS3_16PasswordHashDataEEERKNSt3__16vectorINS3_24MatchingReusedCredentialENS9_9allocatorISB_EEEEiEJNS_7WeakPtrIS4_EEbmS8_SE_iEEEEEbPKNS0_13BindStateBaseENSM_21CancellationQueryModeE = comdat any

$_ZNSt3__112__tuple_implINS_15__tuple_indicesIJLm0ELm1ELm2ELm3ELm4ELm5EEEEJN4base7WeakPtrIN16password_manager29PasswordReuseDetectorConsumerEEEbmN4absl8optionalINS5_16PasswordHashDataEEENS_6vectorINS5_24MatchingReusedCredentialENS_9allocatorISD_EEEEiEED2Ev = comdat any

$_ZNSt3__112__tuple_implINS_15__tuple_indicesIJLm0ELm1ELm2ELm3ELm4ELm5EEEEJN4base7WeakPtrIN16password_manager29PasswordReuseDetectorConsumerEEEbmN4absl8optionalINS5_16PasswordHashDataEEENS_6vectorINS5_24MatchingReusedCredentialENS_9allocatorISD_EEEEiEEC2IJLm0ELm1ELm2ELm3ELm4ELm5EEJS7_bmSB_SG_iEJEJEJRKS7_RbRmRSB_RKSG_RiEEENS1_IJXspT_EEEENS_13__tuple_typesIJDpT0_EEENS1_IJXspT1_EEEENSS_IJDpT2_EEEDpOT3_ = comdat any

$_ZNSt3__19allocatorIN16password_manager24MatchingReusedCredentialEE9constructIS2_JRS2_EEEvPT_DpOT0_ = comdat any

$_ZN4base8internal7InvokerINS0_9BindStateIMN16password_manager13PasswordStoreEFbbEJ13scoped_refptrIS4_EbEEEFbvEE7RunOnceEPNS0_13BindStateBaseE = comdat any

$_ZN4base8internal9BindStateIMN16password_manager13PasswordStoreEFbbEJ13scoped_refptrIS3_EbEE7DestroyEPKNS0_13BindStateBaseE = comdat any

$_ZN4base8internal7InvokerINS0_9BindStateIMN16password_manager13PasswordStoreEFvbEJ13scoped_refptrIS4_EEEEFvbEE7RunOnceEPNS0_13BindStateBaseEb = comdat any

$_ZN4base8internal9BindStateIMN16password_manager13PasswordStoreEFvbEJ13scoped_refptrIS3_EEE7DestroyEPKNS0_13BindStateBaseE = comdat any

$_ZN4base8internal20ReturnAsParamAdapterIbEEvNS_12OnceCallbackIFT_vEEEPNSt3__110unique_ptrIS3_NS6_14default_deleteIS3_EEEE = comdat any

$_ZN4base8internal12ReplyAdapterIbbEEvNS_12OnceCallbackIFvT0_EEEPNSt3__110unique_ptrIT_NS6_14default_deleteIS8_EEEE = comdat any

$_ZN4base8internal7InvokerINS0_9BindStateIPFvNS_12OnceCallbackIFbvEEEPNSt3__110unique_ptrIbNS6_14default_deleteIbEEEEEJS5_SB_EEEFvvEE7RunOnceEPNS0_13BindStateBaseE = comdat any

$_ZN4base8internal9BindStateIPFvNS_12OnceCallbackIFbvEEEPNSt3__110unique_ptrIbNS5_14default_deleteIbEEEEEJS4_SA_EE7DestroyEPKNS0_13BindStateBaseE = comdat any

$_ZN4base8internal7InvokerINS0_9BindStateIPFvNS_12OnceCallbackIFvbEEEPNSt3__110unique_ptrIbNS6_14default_deleteIbEEEEEJS5_NS0_12OwnedWrapperISA_NS8_ISA_EEEEEEEFvvEE7RunOnceEPNS0_13BindStateBaseE = comdat any

$_ZN4base8internal9BindStateIPFvNS_12OnceCallbackIFvbEEEPNSt3__110unique_ptrIbNS5_14default_deleteIbEEEEEJS4_NS0_12OwnedWrapperIS9_NS7_IS9_EEEEEE7DestroyEPKNS0_13BindStateBaseE = comdat any

$_ZN4base8internal7InvokerINS0_9BindStateIMN16password_manager13PasswordStoreEFvRKNS3_12PasswordFormEEJ13scoped_refptrIS4_ES5_EEEFvvEE7RunOnceEPNS0_13BindStateBaseE = comdat any

$_ZN4base8internal9BindStateIMN16password_manager13PasswordStoreEFvRKNS2_12PasswordFormEEJ13scoped_refptrIS3_ES4_EE7DestroyEPKNS0_13BindStateBaseE = comdat any

$_ZN4base8internal7InvokerINS0_9BindStateIMN16password_manager13PasswordStoreEFvRKNS3_12PasswordFormES7_EJ13scoped_refptrIS4_ES5_S5_EEEFvvEE7RunOnceEPNS0_13BindStateBaseE = comdat any

$_ZN4base8internal9BindStateIMN16password_manager13PasswordStoreEFvRKNS2_12PasswordFormES6_EJ13scoped_refptrIS3_ES4_S4_EE7DestroyEPKNS0_13BindStateBaseE = comdat any

$_ZN4base8internal7InvokerINS0_9BindStateIMN16password_manager13PasswordStoreEFvRKNS_17RepeatingCallbackIFbRK4GURLEEENS_4TimeESD_NS_12OnceCallbackIFvvEEENSE_IFvbEEEEJ13scoped_refptrIS4_ESA_SD_SD_SG_SI_EEESF_E7RunOnceEPNS0_13BindStateBaseE = comdat any

$_ZN4base8internal9BindStateIMN16password_manager13PasswordStoreEFvRKNS_17RepeatingCallbackIFbRK4GURLEEENS_4TimeESC_NS_12OnceCallbackIFvvEEENSD_IFvbEEEEJ13scoped_refptrIS3_ES9_SC_SC_SF_SH_EE7DestroyEPKNS0_13BindStateBaseE = comdat any

$_ZN4base8internal7InvokerINS0_9BindStateIMN16password_manager13PasswordStoreEFvNS_4TimeES5_NS_12OnceCallbackIFvvEEEEJ13scoped_refptrIS4_ES5_S5_S8_EEES7_E7RunOnceEPNS0_13BindStateBaseE = comdat any

$_ZN4base8internal9BindStateIMN16password_manager13PasswordStoreEFvNS_4TimeES4_NS_12OnceCallbackIFvvEEEEJ13scoped_refptrIS3_ES4_S4_S7_EE7DestroyEPKNS0_13BindStateBaseE = comdat any

$_ZN4base8internal7InvokerINS0_9BindStateIMN16password_manager13PasswordStoreEFvRKNS_17RepeatingCallbackIFbRK4GURLEEENS_4TimeESD_NS_12OnceCallbackIFvvEEEEJ13scoped_refptrIS4_ESA_SD_SD_SG_EEESF_E7RunOnceEPNS0_13BindStateBaseE = comdat any

$_ZN4base8internal9BindStateIMN16password_manager13PasswordStoreEFvRKNS_17RepeatingCallbackIFbRK4GURLEEENS_4TimeESC_NS_12OnceCallbackIFvvEEEEJ13scoped_refptrIS3_ES9_SC_SC_SF_EE7DestroyEPKNS0_13BindStateBaseE = comdat any

$_ZN4base8internal7InvokerINS0_9BindStateIMN16password_manager13PasswordStoreEFvRKNS_17RepeatingCallbackIFbRK4GURLEEENS_12OnceCallbackIFvvEEEEJ13scoped_refptrIS4_ESA_SF_EEESE_E7RunOnceEPNS0_13BindStateBaseE = comdat any

$_ZN4base8internal9BindStateIMN16password_manager13PasswordStoreEFvRKNS_17RepeatingCallbackIFbRK4GURLEEENS_12OnceCallbackIFvvEEEEJ13scoped_refptrIS3_ES9_SE_EE7DestroyEPKNS0_13BindStateBaseE = comdat any

$_ZN4base8internal7InvokerINS0_9BindStateIMN16password_manager13PasswordStoreEFvRKNS4_10FormDigestENS_12OnceCallbackIFvvEEEEJ13scoped_refptrIS4_ES5_SA_EEES9_E7RunOnceEPNS0_13BindStateBaseE = comdat any

$_ZN4base8internal9BindStateIMN16password_manager13PasswordStoreEFvRKNS3_10FormDigestENS_12OnceCallbackIFvvEEEEJ13scoped_refptrIS3_ES4_S9_EE7DestroyEPKNS0_13BindStateBaseE = comdat any

$_ZN4base8internal9BindStateIMN16password_manager13PasswordStoreEFvNS_7WeakPtrINS2_21PasswordStoreConsumerEEERKNS3_10FormDigestENS_4TimeERKNSt3__16vectorINSB_12basic_stringIcNSB_11char_traitsIcEENSB_9allocatorIcEEEENSG_ISI_EEEEEJ13scoped_refptrIS3_ES6_S7_SA_EE6CreateISO_JPS3_S6_S9_RSA_EEEPSR_PFvvEOT_DpOT0_ = comdat any

$_ZN4base8internal7InvokerINS0_9BindStateIMN16password_manager13PasswordStoreEFvNS_7WeakPtrINS3_21PasswordStoreConsumerEEERKNS4_10FormDigestENS_4TimeERKNSt3__16vectorINSC_12basic_stringIcNSC_11char_traitsIcEENSC_9allocatorIcEEEENSH_ISJ_EEEEEJ13scoped_refptrIS4_ES7_S8_SB_EEEFvSN_EE7RunOnceEPNS0_13BindStateBaseESN_ = comdat any

$_ZN4base8internal9BindStateIMN16password_manager13PasswordStoreEFvNS_7WeakPtrINS2_21PasswordStoreConsumerEEERKNS3_10FormDigestENS_4TimeERKNSt3__16vectorINSB_12basic_stringIcNSB_11char_traitsIcEENSB_9allocatorIcEEEENSG_ISI_EEEEEJ13scoped_refptrIS3_ES6_S7_SA_EE7DestroyEPKNS0_13BindStateBaseE = comdat any

$_ZN4base8internal7InvokerINS0_9BindStateIMN16password_manager13PasswordStoreEFNSt3__16vectorINS5_10unique_ptrINS3_12PasswordFormENS5_14default_deleteIS8_EEEENS5_9allocatorISB_EEEERKNS4_10FormDigestEEJ13scoped_refptrIS4_ESF_EEEFSE_vEE7RunOnceEPNS0_13BindStateBaseE = comdat any

$_ZN4base8internal9BindStateIMN16password_manager13PasswordStoreEFNSt3__16vectorINS4_10unique_ptrINS2_12PasswordFormENS4_14default_deleteIS7_EEEENS4_9allocatorISA_EEEERKNS3_10FormDigestEEJ13scoped_refptrIS3_ESE_EE7DestroyEPKNS0_13BindStateBaseE = comdat any

$_ZN4base8internal7InvokerINS0_9BindStateIPFvNS_4TimeENS_12OnceCallbackIFvNSt3__16vectorINS5_10unique_ptrIN16password_manager12PasswordFormENS5_14default_deleteIS9_EEEENS5_9allocatorISC_EEEEEEESF_EJS3_EEEFvSH_SF_EE7RunOnceEPNS0_13BindStateBaseEOSH_OSF_ = comdat any

$_ZN4base8internal13FunctorTraitsIPFvNS_4TimeENS_12OnceCallbackIFvNSt3__16vectorINS4_10unique_ptrIN16password_manager12PasswordFormENS4_14default_deleteIS8_EEEENS4_9allocatorISB_EEEEEEESE_EvE6InvokeISI_JS2_SG_SE_EEEvOT_DpOT0_ = comdat any

$_ZN4base8internal9BindStateIPFvNS_4TimeENS_12OnceCallbackIFvNSt3__16vectorINS4_10unique_ptrIN16password_manager12PasswordFormENS4_14default_deleteIS8_EEEENS4_9allocatorISB_EEEEEEESE_EJS2_EE7DestroyEPKNS0_13BindStateBaseE = comdat any

$_ZN4base8internal7InvokerINS0_9BindStateIMN16password_manager13PasswordStoreEFNSt3__16vectorINS5_10unique_ptrINS3_12PasswordFormENS5_14default_deleteIS8_EEEENS5_9allocatorISB_EEEERKNS5_12basic_stringIDsNS5_11char_traitsIDsEENSC_IDsEEEEEJ13scoped_refptrIS4_ESJ_EEEFSE_vEE7RunOnceEPNS0_13BindStateBaseE = comdat any

$_ZN4base8internal9BindStateIMN16password_manager13PasswordStoreEFNSt3__16vectorINS4_10unique_ptrINS2_12PasswordFormENS4_14default_deleteIS7_EEEENS4_9allocatorISA_EEEERKNS4_12basic_stringIDsNS4_11char_traitsIDsEENSB_IDsEEEEEJ13scoped_refptrIS3_ESI_EEC2ISM_JPS3_SK_EEENS4_17integral_constantIbLb0EEEPFvvEOT_DpOT0_ = comdat any

$_ZN4base8internal9BindStateIMN16password_manager13PasswordStoreEFNSt3__16vectorINS4_10unique_ptrINS2_12PasswordFormENS4_14default_deleteIS7_EEEENS4_9allocatorISA_EEEERKNS4_12basic_stringIDsNS4_11char_traitsIDsEENSB_IDsEEEEEJ13scoped_refptrIS3_ESI_EE7DestroyEPKNS0_13BindStateBaseE = comdat any

$_ZN4base8internal7InvokerINS0_9BindStateIMN16password_manager13PasswordStoreEFNSt3__16vectorINS5_10unique_ptrINS3_12PasswordFormENS5_14default_deleteIS8_EEEENS5_9allocatorISB_EEEEvEJ13scoped_refptrIS4_EEEEFSE_vEE7RunOnceEPNS0_13BindStateBaseE = comdat any

$_ZN4base8internal9BindStateIMN16password_manager13PasswordStoreEFNSt3__16vectorINS4_10unique_ptrINS2_12PasswordFormENS4_14default_deleteIS7_EEEENS4_9allocatorISA_EEEEvEJ13scoped_refptrIS3_EEE7DestroyEPKNS0_13BindStateBaseE = comdat any

$_ZN4base8internal7InvokerINS0_9BindStateIMN16password_manager13PasswordStoreEFvNS_12OnceCallbackIFvNSt3__16vectorINS6_10unique_ptrINS3_12PasswordFormENS6_14default_deleteIS9_EEEENS6_9allocatorISC_EEEEEEESF_EJ13scoped_refptrIS4_EEEEFvSH_SF_EE7RunOnceEPNS0_13BindStateBaseEOSH_OSF_ = comdat any

$_ZN4base8internal13FunctorTraitsIMN16password_manager13PasswordStoreEFvNS_12OnceCallbackIFvNSt3__16vectorINS5_10unique_ptrINS2_12PasswordFormENS5_14default_deleteIS8_EEEENS5_9allocatorISB_EEEEEEESE_EvE6InvokeISI_13scoped_refptrIS3_EJSG_SE_EEEvT_OT0_DpOT1_ = comdat any

$_ZN4base8internal9BindStateIMN16password_manager13PasswordStoreEFvNS_12OnceCallbackIFvNSt3__16vectorINS5_10unique_ptrINS2_12PasswordFormENS5_14default_deleteIS8_EEEENS5_9allocatorISB_EEEEEEESE_EJ13scoped_refptrIS3_EEE7DestroyEPKNS0_13BindStateBaseE = comdat any

$_ZN4base8internal7InvokerINS0_9BindStateIMN16password_manager13PasswordStoreEFvRKNSt3__112basic_stringIcNS5_11char_traitsIcEENS5_9allocatorIcEEEEbNS_11StrongAliasINS3_16BulkCheckDoneTagEbEEEJ13scoped_refptrIS4_ESB_bSG_EEEFvvEE7RunOnceEPNS0_13BindStateBaseE = comdat any

$_ZN4base8internal9BindStateIMN16password_manager13PasswordStoreEFvRKNSt3__112basic_stringIcNS4_11char_traitsIcEENS4_9allocatorIcEEEEbNS_11StrongAliasINS2_16BulkCheckDoneTagEbEEEJ13scoped_refptrIS3_ESA_bSF_EE7DestroyEPKNS0_13BindStateBaseE = comdat any

$_ZN4base8internal7InvokerINS0_9BindStateIMN16password_manager13PasswordStoreEFvRKNS3_17InteractionsStatsEEJ13scoped_refptrIS4_ES5_EEEFvvEE7RunOnceEPNS0_13BindStateBaseE = comdat any

$_ZN4base8internal9BindStateIMN16password_manager13PasswordStoreEFvRKNS2_17InteractionsStatsEEJ13scoped_refptrIS3_ES4_EE7DestroyEPKNS0_13BindStateBaseE = comdat any

$_ZNSt3__112__tuple_leafILm1EN16password_manager17InteractionsStatsELb0EEC2IRKS2_vEEOT_ = comdat any

$_ZN4base8internal7InvokerINS0_9BindStateIMN16password_manager13PasswordStoreEFvRK4GURLEJ13scoped_refptrIS4_ES5_EEEFvvEE7RunOnceEPNS0_13BindStateBaseE = comdat any

$_ZN4base8internal9BindStateIMN16password_manager13PasswordStoreEFvRK4GURLEJ13scoped_refptrIS3_ES4_EE7DestroyEPKNS0_13BindStateBaseE = comdat any

$_ZN4base8internal7InvokerINS0_9BindStateIMN16password_manager13PasswordStoreEFNSt3__16vectorINS3_17InteractionsStatsENS5_9allocatorIS7_EEEERK4GURLEJ13scoped_refptrIS4_ESB_EEEFSA_vEE7RunOnceEPNS0_13BindStateBaseE = comdat any

$_ZN4base8internal9BindStateIMN16password_manager13PasswordStoreEFNSt3__16vectorINS2_17InteractionsStatsENS4_9allocatorIS6_EEEERK4GURLEJ13scoped_refptrIS3_ESA_EE7DestroyEPKNS0_13BindStateBaseE = comdat any

$_ZN4base8internal7InvokerINS0_9BindStateIMN16password_manager13PasswordStoreEFNSt3__16vectorINS3_19PasswordStoreChangeENS5_9allocatorIS7_EEEERKNS3_18InsecureCredentialEEJ13scoped_refptrIS4_ESB_EEEFSA_vEE7RunOnceEPNS0_13BindStateBaseE = comdat any

$_ZN4base8internal9BindStateIMN16password_manager13PasswordStoreEFNSt3__16vectorINS2_19PasswordStoreChangeENS4_9allocatorIS6_EEEERKNS2_18InsecureCredentialEEJ13scoped_refptrIS3_ESA_EE7DestroyEPKNS0_13BindStateBaseE = comdat any

$_ZN4base8internal7InvokerINS0_9BindStateIMN16password_manager13PasswordStoreEFvNS_12OnceCallbackIFNSt3__16vectorINS3_19PasswordStoreChangeENS6_9allocatorIS8_EEEEvEEEEJ13scoped_refptrIS4_ESD_EEEFvvEE7RunOnceEPNS0_13BindStateBaseE = comdat any

$_ZN4base8internal9BindStateIMN16password_manager13PasswordStoreEFvNS_12OnceCallbackIFNSt3__16vectorINS2_19PasswordStoreChangeENS5_9allocatorIS7_EEEEvEEEEJ13scoped_refptrIS3_ESC_EE7DestroyEPKNS0_13BindStateBaseE = comdat any

$_ZN4base8internal7InvokerINS0_9BindStateIMN16password_manager13PasswordStoreEFNSt3__16vectorINS3_19PasswordStoreChangeENS5_9allocatorIS7_EEEERKNS5_12basic_stringIcNS5_11char_traitsIcEENS8_IcEEEERKNSB_IDsNSC_IDsEENS8_IDsEEEENS3_31RemoveInsecureCredentialsReasonEEJ13scoped_refptrIS4_ESF_SK_SN_EEEFSA_vEE7RunOnceEPNS0_13BindStateBaseE = comdat any

$_ZN4base8internal9BindStateIMN16password_manager13PasswordStoreEFNSt3__16vectorINS2_19PasswordStoreChangeENS4_9allocatorIS6_EEEERKNS4_12basic_stringIcNS4_11char_traitsIcEENS7_IcEEEERKNSA_IDsNSB_IDsEENS7_IDsEEEENS2_31RemoveInsecureCredentialsReasonEEJ13scoped_refptrIS3_ESE_SJ_SM_EE7DestroyEPKNS0_13BindStateBaseE = comdat any

$_ZNSt3__112__tuple_implINS_15__tuple_indicesIJLm0ELm1ELm2ELm3EEEEJ13scoped_refptrIN16password_manager13PasswordStoreEENS_12basic_stringIcNS_11char_traitsIcEENS_9allocatorIcEEEENS7_IDsNS8_IDsEENSA_IDsEEEENS4_31RemoveInsecureCredentialsReasonEEEC2IJLm0ELm1ELm2ELm3EEJS6_SC_SF_SG_EJEJEJPS5_RKSC_RKSF_RSG_EEENS1_IJXspT_EEEENS_13__tuple_typesIJDpT0_EEENS1_IJXspT1_EEEENSQ_IJDpT2_EEEDpOT3_ = comdat any

$_ZN4base8internal7InvokerINS0_9BindStateIMN16password_manager13PasswordStoreEFNSt3__16vectorINS3_18InsecureCredentialENS5_9allocatorIS7_EEEEvEJ13scoped_refptrIS4_EEEEFSA_vEE7RunOnceEPNS0_13BindStateBaseE = comdat any

$_ZN4base8internal9BindStateIMN16password_manager13PasswordStoreEFNSt3__16vectorINS2_18InsecureCredentialENS4_9allocatorIS6_EEEEvEJ13scoped_refptrIS3_EEE7DestroyEPKNS0_13BindStateBaseE = comdat any

$_ZN4base8internal7InvokerINS0_9BindStateIMN16password_manager13PasswordStoreEFvNS_7WeakPtrINS3_27InsecureCredentialsConsumerEEERKNSt3__112basic_stringIcNS8_11char_traitsIcEENS8_9allocatorIcEEEERKNS8_6vectorISE_NSC_ISE_EEEEEJ13scoped_refptrIS4_ES7_SE_EEEFvSL_EE7RunOnceEPNS0_13BindStateBaseESL_ = comdat any

$_ZN4base8internal9BindStateIMN16password_manager13PasswordStoreEFvNS_7WeakPtrINS2_27InsecureCredentialsConsumerEEERKNSt3__112basic_stringIcNS7_11char_traitsIcEENS7_9allocatorIcEEEERKNS7_6vectorISD_NSB_ISD_EEEEEJ13scoped_refptrIS3_ES6_SD_EE7DestroyEPKNS0_13BindStateBaseE = comdat any

$_ZN4base8internal7InvokerINS0_9BindStateIMN16password_manager13PasswordStoreEFNSt3__16vectorINS3_18InsecureCredentialENS5_9allocatorIS7_EEEERKNS5_12basic_stringIcNS5_11char_traitsIcEENS8_IcEEEEEJ13scoped_refptrIS4_ESF_EEEFSA_vEE7RunOnceEPNS0_13BindStateBaseE = comdat any

$_ZN4base8internal9BindStateIMN16password_manager13PasswordStoreEFNSt3__16vectorINS2_18InsecureCredentialENS4_9allocatorIS6_EEEERKNS4_12basic_stringIcNS4_11char_traitsIcEENS7_IcEEEEEJ13scoped_refptrIS3_ESE_EE7DestroyEPKNS0_13BindStateBaseE = comdat any

$_ZN4base8internal7InvokerINS0_9BindStateIMN16password_manager13PasswordStoreEFvRKNS3_9FieldInfoEEJ13scoped_refptrIS4_ES5_EEEFvvEE7RunOnceEPNS0_13BindStateBaseE = comdat any

$_ZN4base8internal9BindStateIMN16password_manager13PasswordStoreEFvRKNS2_9FieldInfoEEJ13scoped_refptrIS3_ES4_EE7DestroyEPKNS0_13BindStateBaseE = comdat any

$_ZN4base8internal7InvokerINS0_9BindStateIMN16password_manager13PasswordStoreEFNSt3__16vectorINS3_9FieldInfoENS5_9allocatorIS7_EEEEvEJ13scoped_refptrIS4_EEEEFSA_vEE7RunOnceEPNS0_13BindStateBaseE = comdat any

$_ZN4base8internal9BindStateIMN16password_manager13PasswordStoreEFNSt3__16vectorINS2_9FieldInfoENS4_9allocatorIS6_EEEEvEJ13scoped_refptrIS3_EEE7DestroyEPKNS0_13BindStateBaseE = comdat any

$_ZN4base8internal7InvokerINS0_9BindStateIMN16password_manager21PasswordStoreConsumerEFvNSt3__16vectorINS3_9FieldInfoENS5_9allocatorIS7_EEEEEJNS_7WeakPtrIS4_EEEEEFvSA_EE7RunOnceEPNS0_13BindStateBaseEOSA_ = comdat any

$_ZN4base8internal12InvokeHelperILb1EvE8MakeItSoIMN16password_manager21PasswordStoreConsumerEFvNSt3__16vectorINS4_9FieldInfoENS6_9allocatorIS8_EEEEENS_7WeakPtrIS5_EEJSB_EEEvOT_OT0_DpOT1_ = comdat any

$_ZN4base8internal9BindStateIMN16password_manager21PasswordStoreConsumerEFvNSt3__16vectorINS2_9FieldInfoENS4_9allocatorIS6_EEEEEJNS_7WeakPtrIS3_EEEE7DestroyEPKNS0_13BindStateBaseE = comdat any

$_ZN4base8internal23QueryCancellationTraitsINS0_9BindStateIMN16password_manager21PasswordStoreConsumerEFvNSt3__16vectorINS3_9FieldInfoENS5_9allocatorIS7_EEEEEJNS_7WeakPtrIS4_EEEEEEEbPKNS0_13BindStateBaseENSG_21CancellationQueryModeE = comdat any

$_ZN4base8internal20ReturnAsParamAdapterINSt3__16vectorIN16password_manager9FieldInfoENS2_9allocatorIS5_EEEEEEvNS_12OnceCallbackIFT_vEEEPNS2_10unique_ptrISA_NS2_14default_deleteISA_EEEE = comdat any

$_ZN4base8internal12ReplyAdapterINSt3__16vectorIN16password_manager9FieldInfoENS2_9allocatorIS5_EEEES8_EEvNS_12OnceCallbackIFvT0_EEEPNS2_10unique_ptrIT_NS2_14default_deleteISE_EEEE = comdat any

$_ZN4base8internal7InvokerINS0_9BindStateIPFvNS_12OnceCallbackIFNSt3__16vectorIN16password_manager9FieldInfoENS4_9allocatorIS7_EEEEvEEEPNS4_10unique_ptrISA_NS4_14default_deleteISA_EEEEEJSC_NS0_17UnretainedWrapperISG_EEEEEFvvEE7RunOnceEPNS0_13BindStateBaseE = comdat any

$_ZN4base8internal9BindStateIPFvNS_12OnceCallbackIFNSt3__16vectorIN16password_manager9FieldInfoENS3_9allocatorIS6_EEEEvEEEPNS3_10unique_ptrIS9_NS3_14default_deleteIS9_EEEEEJSB_NS0_17UnretainedWrapperISF_EEEE7DestroyEPKNS0_13BindStateBaseE = comdat any

$_ZN4base8internal7InvokerINS0_9BindStateIPFvNS_12OnceCallbackIFvNSt3__16vectorIN16password_manager9FieldInfoENS4_9allocatorIS7_EEEEEEEPNS4_10unique_ptrISA_NS4_14default_deleteISA_EEEEEJSC_NS0_12OwnedWrapperISG_NSE_ISG_EEEEEEEFvvEE7RunOnceEPNS0_13BindStateBaseE = comdat any

$_ZN4base8internal9BindStateIPFvNS_12OnceCallbackIFvNSt3__16vectorIN16password_manager9FieldInfoENS3_9allocatorIS6_EEEEEEEPNS3_10unique_ptrIS9_NS3_14default_deleteIS9_EEEEEJSB_NS0_12OwnedWrapperISF_NSD_ISF_EEEEEE7DestroyEPKNS0_13BindStateBaseE = comdat any

$_ZN4base8internal7InvokerINS0_9BindStateIMN16password_manager13PasswordStoreEFvNS_12OnceCallbackIFvbEEEEJ13scoped_refptrIS4_ES7_EEEFvvEE7RunOnceEPNS0_13BindStateBaseE = comdat any

$_ZN4base8internal9BindStateIMN16password_manager13PasswordStoreEFvNS_12OnceCallbackIFvbEEEEJ13scoped_refptrIS3_ES6_EE7DestroyEPKNS0_13BindStateBaseE = comdat any

$_ZN4base22ObserverListThreadSafeIN16password_manager13PasswordStore8ObserverEE13NotifyWrapperEPS3_RKNS4_16NotificationDataE = comdat any

$_ZNSt3__112__hash_tableINS_17__hash_value_typeIPN16password_manager13PasswordStore8ObserverEN4base22ObserverListThreadSafeIS4_E22ObserverTaskRunnerInfoEEENS_22__unordered_map_hasherIS5_SA_NS_4hashIS5_EENS_8equal_toIS5_EELb1EEENS_21__unordered_map_equalIS5_SA_SF_SD_Lb1EEENS_9allocatorISA_EEE25__emplace_unique_key_argsIS5_JRKNS_21piecewise_construct_tENS_5tupleIJRKS5_EEENSQ_IJEEEEEENS_4pairINS_15__hash_iteratorIPNS_11__hash_nodeISA_PvEEEEbEERKT_DpOT0_ = comdat any

$_ZNSt3__112__hash_tableINS_17__hash_value_typeIPN16password_manager13PasswordStore8ObserverEN4base22ObserverListThreadSafeIS4_E22ObserverTaskRunnerInfoEEENS_22__unordered_map_hasherIS5_SA_NS_4hashIS5_EENS_8equal_toIS5_EELb1EEENS_21__unordered_map_equalIS5_SA_SF_SD_Lb1EEENS_9allocatorISA_EEE6rehashEm = comdat any

$_ZNSt3__112__hash_tableINS_17__hash_value_typeIPN16password_manager13PasswordStore8ObserverEN4base22ObserverListThreadSafeIS4_E22ObserverTaskRunnerInfoEEENS_22__unordered_map_hasherIS5_SA_NS_4hashIS5_EENS_8equal_toIS5_EELb1EEENS_21__unordered_map_equalIS5_SA_SF_SD_Lb1EEENS_9allocatorISA_EEE8__rehashEm = comdat any

$_ZN4base8internal7InvokerINS0_9BindStateIMNS_22ObserverListThreadSafeIN16password_manager13PasswordStore8ObserverEEEFvPS6_RKNS7_16NotificationDataEEJ13scoped_refptrIS7_ES8_S9_EEEFvvEE7RunOnceEPNS0_13BindStateBaseE = comdat any

$_ZN4base8internal9BindStateIMNS_22ObserverListThreadSafeIN16password_manager13PasswordStore8ObserverEEEFvPS5_RKNS6_16NotificationDataEEJ13scoped_refptrIS6_ES7_S8_EE7DestroyEPKNS0_13BindStateBaseE = comdat any

$_ZNSt3__112__hash_tableINS_17__hash_value_typeIPN16password_manager13PasswordStore8ObserverEN4base22ObserverListThreadSafeIS4_E22ObserverTaskRunnerInfoEEENS_22__unordered_map_hasherIS5_SA_NS_4hashIS5_EENS_8equal_toIS5_EELb1EEENS_21__unordered_map_equalIS5_SA_SF_SD_Lb1EEENS_9allocatorISA_EEE14__erase_uniqueIS5_EEmRKT_ = comdat any

$_ZNSt3__112__hash_tableINS_17__hash_value_typeIPN16password_manager13PasswordStore8ObserverEN4base22ObserverListThreadSafeIS4_E22ObserverTaskRunnerInfoEEENS_22__unordered_map_hasherIS5_SA_NS_4hashIS5_EENS_8equal_toIS5_EELb1EEENS_21__unordered_map_equalIS5_SA_SF_SD_Lb1EEENS_9allocatorISA_EEE6removeENS_21__hash_const_iteratorIPNS_11__hash_nodeISA_PvEEEE = comdat any

$_ZN4base22ObserverListThreadSafeIN16password_manager13PasswordStore35DatabaseInsecureCredentialsObserverEE13NotifyWrapperEPS3_RKNS4_16NotificationDataE = comdat any

$_ZNSt3__112__hash_tableINS_17__hash_value_typeIPN16password_manager13PasswordStore35DatabaseInsecureCredentialsObserverEN4base22ObserverListThreadSafeIS4_E22ObserverTaskRunnerInfoEEENS_22__unordered_map_hasherIS5_SA_NS_4hashIS5_EENS_8equal_toIS5_EELb1EEENS_21__unordered_map_equalIS5_SA_SF_SD_Lb1EEENS_9allocatorISA_EEE25__emplace_unique_key_argsIS5_JRKNS_21piecewise_construct_tENS_5tupleIJRKS5_EEENSQ_IJEEEEEENS_4pairINS_15__hash_iteratorIPNS_11__hash_nodeISA_PvEEEEbEERKT_DpOT0_ = comdat any

$_ZNSt3__112__hash_tableINS_17__hash_value_typeIPN16password_manager13PasswordStore35DatabaseInsecureCredentialsObserverEN4base22ObserverListThreadSafeIS4_E22ObserverTaskRunnerInfoEEENS_22__unordered_map_hasherIS5_SA_NS_4hashIS5_EENS_8equal_toIS5_EELb1EEENS_21__unordered_map_equalIS5_SA_SF_SD_Lb1EEENS_9allocatorISA_EEE6rehashEm = comdat any

$_ZNSt3__112__hash_tableINS_17__hash_value_typeIPN16password_manager13PasswordStore35DatabaseInsecureCredentialsObserverEN4base22ObserverListThreadSafeIS4_E22ObserverTaskRunnerInfoEEENS_22__unordered_map_hasherIS5_SA_NS_4hashIS5_EENS_8equal_toIS5_EELb1EEENS_21__unordered_map_equalIS5_SA_SF_SD_Lb1EEENS_9allocatorISA_EEE8__rehashEm = comdat any

$_ZN4base8internal7InvokerINS0_9BindStateIMNS_22ObserverListThreadSafeIN16password_manager13PasswordStore35DatabaseInsecureCredentialsObserverEEEFvPS6_RKNS7_16NotificationDataEEJ13scoped_refptrIS7_ES8_S9_EEEFvvEE7RunOnceEPNS0_13BindStateBaseE = comdat any

$_ZN4base8internal9BindStateIMNS_22ObserverListThreadSafeIN16password_manager13PasswordStore35DatabaseInsecureCredentialsObserverEEEFvPS5_RKNS6_16NotificationDataEEJ13scoped_refptrIS6_ES7_S8_EE7DestroyEPKNS0_13BindStateBaseE = comdat any

$_ZNSt3__112__hash_tableINS_17__hash_value_typeIPN16password_manager13PasswordStore35DatabaseInsecureCredentialsObserverEN4base22ObserverListThreadSafeIS4_E22ObserverTaskRunnerInfoEEENS_22__unordered_map_hasherIS5_SA_NS_4hashIS5_EENS_8equal_toIS5_EELb1EEENS_21__unordered_map_equalIS5_SA_SF_SD_Lb1EEENS_9allocatorISA_EEE14__erase_uniqueIS5_EEmRKT_ = comdat any

$_ZNSt3__112__hash_tableINS_17__hash_value_typeIPN16password_manager13PasswordStore35DatabaseInsecureCredentialsObserverEN4base22ObserverListThreadSafeIS4_E22ObserverTaskRunnerInfoEEENS_22__unordered_map_hasherIS5_SA_NS_4hashIS5_EENS_8equal_toIS5_EELb1EEENS_21__unordered_map_equalIS5_SA_SF_SD_Lb1EEENS_9allocatorISA_EEE6removeENS_21__hash_const_iteratorIPNS_11__hash_nodeISA_PvEEEE = comdat any

$_ZN4base8internal7InvokerINS0_9BindStateIMN16password_manager13PasswordStoreEFvvEJ13scoped_refptrIS4_EEEEFvvEE7RunOnceEPNS0_13BindStateBaseE = comdat any

$_ZN4base8internal9BindStateIMN16password_manager13PasswordStoreEFvvEJ13scoped_refptrIS3_EEE7DestroyEPKNS0_13BindStateBaseE = comdat any

$_ZN4base8internal7InvokerINS0_9BindStateIMN16password_manager13PasswordStoreEFNS_7WeakPtrIN6syncer27ModelTypeControllerDelegateEEEvEJNS0_17UnretainedWrapperIS4_EEEEEFS8_vEE3RunEPNS0_13BindStateBaseE = comdat any

$_ZN4base8internal9BindStateIMN16password_manager13PasswordStoreEFNS_7WeakPtrIN6syncer27ModelTypeControllerDelegateEEEvEJNS0_17UnretainedWrapperIS3_EEEE7DestroyEPKNS0_13BindStateBaseE = comdat any

$_ZN4base8internal7InvokerINS0_9BindStateIMN16password_manager13PasswordStoreEFvNSt3__110unique_ptrINS4_17CheckReuseRequestENS5_14default_deleteIS7_EEEERKNS5_12basic_stringIDsNS5_11char_traitsIDsEENS5_9allocatorIDsEEEERKNSB_IcNSC_IcEENSE_IcEEEEEJ13scoped_refptrIS4_ESA_SG_SL_EEEFvvEE7RunOnceEPNS0_13BindStateBaseE = comdat any

$_ZN4base8internal9BindStateIMN16password_manager13PasswordStoreEFvNSt3__110unique_ptrINS3_17CheckReuseRequestENS4_14default_deleteIS6_EEEERKNS4_12basic_stringIDsNS4_11char_traitsIDsEENS4_9allocatorIDsEEEERKNSA_IcNSB_IcEENSD_IcEEEEEJ13scoped_refptrIS3_ES9_SF_SK_EE7DestroyEPKNS0_13BindStateBaseE = comdat any

$_ZNSt3__112__tuple_implINS_15__tuple_indicesIJLm0ELm1ELm2ELm3EEEEJ13scoped_refptrIN16password_manager13PasswordStoreEENS_10unique_ptrINS5_17CheckReuseRequestENS_14default_deleteIS8_EEEENS_12basic_stringIDsNS_11char_traitsIDsEENS_9allocatorIDsEEEENSC_IcNSD_IcEENSF_IcEEEEEEC2IJLm0ELm1ELm2ELm3EEJS6_SB_SH_SK_EJEJEJPS5_SB_RKSH_RKSK_EEENS1_IJXspT_EEEENS_13__tuple_typesIJDpT0_EEENS1_IJXspT1_EEEENST_IJDpT2_EEEDpOT3_ = comdat any

$_ZN4base8internal7InvokerINS0_9BindStateIMN16password_manager13PasswordStoreEFvRKNSt3__112basic_stringIcNS5_11char_traitsIcEENS5_9allocatorIcEEEEEJ13scoped_refptrIS4_ESB_EEEFvvEE7RunOnceEPNS0_13BindStateBaseE = comdat any

$_ZN4base8internal9BindStateIMN16password_manager13PasswordStoreEFvRKNSt3__112basic_stringIcNS4_11char_traitsIcEENS4_9allocatorIcEEEEEJ13scoped_refptrIS3_ESA_EE7DestroyEPKNS0_13BindStateBaseE = comdat any

$_ZN4base8internal7InvokerINS0_9BindStateIMN16password_manager13PasswordStoreEFvN4absl8optionalINSt3__16vectorINS3_16PasswordHashDataENS7_9allocatorIS9_EEEEEEbbbEJ13scoped_refptrIS4_ESC_bbbEEEFvvEE7RunOnceEPNS0_13BindStateBaseE = comdat any

$_ZN4base8internal13FunctorTraitsIMN16password_manager13PasswordStoreEFvN4absl8optionalINSt3__16vectorINS2_16PasswordHashDataENS6_9allocatorIS8_EEEEEEbbbEvE6InvokeISE_13scoped_refptrIS3_EJSB_bbbEEEvT_OT0_DpOT1_ = comdat any

$_ZN4base8internal9BindStateIMN16password_manager13PasswordStoreEFvN4absl8optionalINSt3__16vectorINS2_16PasswordHashDataENS6_9allocatorIS8_EEEEEEbbbEJ13scoped_refptrIS3_ESB_bbbEE7DestroyEPKNS0_13BindStateBaseE = comdat any

$_ZN4base8internal9BindStateIMN16password_manager13PasswordStoreEFvN4absl8optionalINSt3__16vectorINS2_16PasswordHashDataENS6_9allocatorIS8_EEEEEEbbbEJ13scoped_refptrIS3_ESB_bbbEED2Ev = comdat any

$_ZN4base8internal7InvokerINS0_9BindStateIMN16password_manager13PasswordStoreEFvRKNSt3__16vectorI4GURLNS5_9allocatorIS7_EEEERKS7_EJ13scoped_refptrIS4_ESA_S7_EEEFvvEE7RunOnceEPNS0_13BindStateBaseE = comdat any

$_ZN4base8internal9BindStateIMN16password_manager13PasswordStoreEFvRKNSt3__16vectorI4GURLNS4_9allocatorIS6_EEEERKS6_EJ13scoped_refptrIS3_ES9_S6_EE7DestroyEPKNS0_13BindStateBaseE = comdat any

$_ZN4base12DeleteHelperIN16password_manager18PasswordSyncBridgeEE8DoDeleteEPKv = comdat any

$_ZN4base8internal7InvokerINS0_9BindStateIZNS_9DoNothing10RepeatedlyIJEEENS_17RepeatingCallbackIFvDpT_EEEvEUlvE_JEEEFvvEE3RunEPNS0_13BindStateBaseE = comdat any

$_ZN4base8internal9BindStateIZNS_9DoNothing10RepeatedlyIJEEENS_17RepeatingCallbackIFvDpT_EEEvEUlvE_JEE7DestroyEPKNS0_13BindStateBaseE = comdat any

$_ZN4base8internal7InvokerINS0_9BindStateIMN16password_manager21PasswordStoreConsumerEFvPNS3_13PasswordStoreENSt3__16vectorINS7_10unique_ptrINS3_12PasswordFormENS7_14default_deleteISA_EEEENS7_9allocatorISD_EEEEEJNS_7WeakPtrIS4_EENS0_18RetainedRefWrapperIS5_EESG_EEEFvvEE7RunOnceEPNS0_13BindStateBaseE = comdat any

$_ZN4base8internal13FunctorTraitsIMN16password_manager21PasswordStoreConsumerEFvPNS2_13PasswordStoreENSt3__16vectorINS6_10unique_ptrINS2_12PasswordFormENS6_14default_deleteIS9_EEEENS6_9allocatorISC_EEEEEvE6InvokeISH_NS_7WeakPtrIS3_EEJS5_SF_EEEvT_OT0_DpOT1_ = comdat any

$_ZN4base8internal9BindStateIMN16password_manager21PasswordStoreConsumerEFvPNS2_13PasswordStoreENSt3__16vectorINS6_10unique_ptrINS2_12PasswordFormENS6_14default_deleteIS9_EEEENS6_9allocatorISC_EEEEEJNS_7WeakPtrIS3_EENS0_18RetainedRefWrapperIS4_EESF_EE7DestroyEPKNS0_13BindStateBaseE = comdat any

$_ZN4base8internal23QueryCancellationTraitsINS0_9BindStateIMN16password_manager21PasswordStoreConsumerEFvPNS3_13PasswordStoreENSt3__16vectorINS7_10unique_ptrINS3_12PasswordFormENS7_14default_deleteISA_EEEENS7_9allocatorISD_EEEEEJNS_7WeakPtrIS4_EENS0_18RetainedRefWrapperIS5_EESG_EEEEEbPKNS0_13BindStateBaseENSO_21CancellationQueryModeE = comdat any

$_ZN4base8internal9BindStateIMN16password_manager21PasswordStoreConsumerEFvPNS2_13PasswordStoreENSt3__16vectorINS6_10unique_ptrINS2_12PasswordFormENS6_14default_deleteIS9_EEEENS6_9allocatorISC_EEEEEJNS_7WeakPtrIS3_EENS0_18RetainedRefWrapperIS4_EESF_EED2Ev = comdat any

$_ZN4base8internal26ObserverListThreadSafeBase10DispatcherIN16password_manager13PasswordStore8ObserverEMS5_FvPS4_RKNSt3__16vectorINS3_19PasswordStoreChangeENS7_9allocatorIS9_EEEEEE3RunESG_S6_SE_PS5_ = comdat any

$_ZN4base8internal7InvokerINS0_9BindStateIPFvMN16password_manager13PasswordStore8ObserverEFvPS4_RKNSt3__16vectorINS3_19PasswordStoreChangeENS7_9allocatorIS9_EEEEES6_SE_PS5_EJSG_NS0_18RetainedRefWrapperIS4_EESC_EEEFvSH_EE3RunEPNS0_13BindStateBaseESH_ = comdat any

$_ZN4base8internal9BindStateIPFvMN16password_manager13PasswordStore8ObserverEFvPS3_RKNSt3__16vectorINS2_19PasswordStoreChangeENS6_9allocatorIS8_EEEEES5_SD_PS4_EJSF_NS0_18RetainedRefWrapperIS3_EESB_EEC2ISI_JRSF_SK_SD_EEENS6_17integral_constantIbLb0EEEPFvvEOT_DpOT0_ = comdat any

$_ZN4base8internal9BindStateIPFvMN16password_manager13PasswordStore8ObserverEFvPS3_RKNSt3__16vectorINS2_19PasswordStoreChangeENS6_9allocatorIS8_EEEEES5_SD_PS4_EJSF_NS0_18RetainedRefWrapperIS3_EESB_EE7DestroyEPKNS0_13BindStateBaseE = comdat any

$_ZN4base8internal26ObserverListThreadSafeBase10DispatcherIN16password_manager13PasswordStore35DatabaseInsecureCredentialsObserverEMS5_FvPS4_EE3RunES8_S6_PS5_ = comdat any

$_ZN4base8internal7InvokerINS0_9BindStateIPFvMN16password_manager13PasswordStore35DatabaseInsecureCredentialsObserverEFvPS4_ES6_PS5_EJS8_NS0_18RetainedRefWrapperIS4_EEEEEFvS9_EE3RunEPNS0_13BindStateBaseES9_ = comdat any

$_ZN4base8internal9BindStateIPFvMN16password_manager13PasswordStore35DatabaseInsecureCredentialsObserverEFvPS3_ES5_PS4_EJS7_NS0_18RetainedRefWrapperIS3_EEEE7DestroyEPKNS0_13BindStateBaseE = comdat any

$_ZN4base8internal7InvokerINS0_9BindStateINS_12OnceCallbackIFvbEEEJbEEEFvvEE7RunOnceEPNS0_13BindStateBaseE = comdat any

$_ZN4base8internal9BindStateINS_12OnceCallbackIFvbEEEJbEE7DestroyEPKNS0_13BindStateBaseE = comdat any

$_ZN4base8internal23QueryCancellationTraitsINS0_9BindStateINS_12OnceCallbackIFvbEEEJbEEEEEbPKNS0_13BindStateBaseENS7_21CancellationQueryModeE = comdat any

$_ZN4base8internal7InvokerINS0_9BindStateIMN16password_manager13PasswordStore35UnsyncedCredentialsDeletionNotifierEFvNSt3__16vectorINS3_12PasswordFormENS6_9allocatorIS8_EEEEEJNS_7WeakPtrIS5_EESB_EEEFvvEE7RunOnceEPNS0_13BindStateBaseE = comdat any

$_ZN4base8internal13FunctorTraitsIMN16password_manager13PasswordStore35UnsyncedCredentialsDeletionNotifierEFvNSt3__16vectorINS2_12PasswordFormENS5_9allocatorIS7_EEEEEvE6InvokeISC_NS_7WeakPtrIS4_EEJSA_EEEvT_OT0_DpOT1_ = comdat any

$_ZN4base8internal9BindStateIMN16password_manager13PasswordStore35UnsyncedCredentialsDeletionNotifierEFvNSt3__16vectorINS2_12PasswordFormENS5_9allocatorIS7_EEEEEJNS_7WeakPtrIS4_EESA_EE7DestroyEPKNS0_13BindStateBaseE = comdat any

$_ZN4base8internal23QueryCancellationTraitsINS0_9BindStateIMN16password_manager13PasswordStore35UnsyncedCredentialsDeletionNotifierEFvNSt3__16vectorINS3_12PasswordFormENS6_9allocatorIS8_EEEEEJNS_7WeakPtrIS5_EESB_EEEEEbPKNS0_13BindStateBaseENSH_21CancellationQueryModeE = comdat any

$_ZNSt3__16vectorIN16password_manager16PasswordHashDataENS_9allocatorIS2_EEE21__push_back_slow_pathIS2_EEvOT_ = comdat any

$_ZN4base8internal7InvokerINS0_9BindStateIMN16password_manager21PasswordStoreConsumerEFvPNS3_13PasswordStoreENSt3__16vectorINS7_10unique_ptrINS3_12PasswordFormENS7_14default_deleteISA_EEEENS7_9allocatorISD_EEEEEJNS_7WeakPtrIS4_EENS0_18RetainedRefWrapperIS5_EEEEEFvSG_EE7RunOnceEPNS0_13BindStateBaseEOSG_ = comdat any

$_ZN4base8internal9BindStateIMN16password_manager21PasswordStoreConsumerEFvPNS2_13PasswordStoreENSt3__16vectorINS6_10unique_ptrINS2_12PasswordFormENS6_14default_deleteIS9_EEEENS6_9allocatorISC_EEEEEJNS_7WeakPtrIS3_EENS0_18RetainedRefWrapperIS4_EEEE7DestroyEPKNS0_13BindStateBaseE = comdat any

$_ZN4base8internal23QueryCancellationTraitsINS0_9BindStateIMN16password_manager21PasswordStoreConsumerEFvPNS3_13PasswordStoreENSt3__16vectorINS7_10unique_ptrINS3_12PasswordFormENS7_14default_deleteISA_EEEENS7_9allocatorISD_EEEEEJNS_7WeakPtrIS4_EENS0_18RetainedRefWrapperIS5_EEEEEEEbPKNS0_13BindStateBaseENSO_21CancellationQueryModeE = comdat any

$_ZN4base8internal20ReturnAsParamAdapterINSt3__16vectorINS2_10unique_ptrIN16password_manager12PasswordFormENS2_14default_deleteIS6_EEEENS2_9allocatorIS9_EEEEEEvNS_12OnceCallbackIFT_vEEEPNS4_ISE_NS7_ISE_EEEE = comdat any

$_ZN4base8internal12ReplyAdapterINSt3__16vectorINS2_10unique_ptrIN16password_manager12PasswordFormENS2_14default_deleteIS6_EEEENS2_9allocatorIS9_EEEESC_EEvNS_12OnceCallbackIFvT0_EEEPNS4_IT_NS7_ISH_EEEE = comdat any

$_ZN4base8internal7InvokerINS0_9BindStateIPFvNS_12OnceCallbackIFNSt3__16vectorINS4_10unique_ptrIN16password_manager12PasswordFormENS4_14default_deleteIS8_EEEENS4_9allocatorISB_EEEEvEEEPNS6_ISE_NS9_ISE_EEEEEJSG_NS0_17UnretainedWrapperISI_EEEEEFvvEE7RunOnceEPNS0_13BindStateBaseE = comdat any

$_ZN4base8internal9BindStateIPFvNS_12OnceCallbackIFNSt3__16vectorINS3_10unique_ptrIN16password_manager12PasswordFormENS3_14default_deleteIS7_EEEENS3_9allocatorISA_EEEEvEEEPNS5_ISD_NS8_ISD_EEEEEJSF_NS0_17UnretainedWrapperISH_EEEE7DestroyEPKNS0_13BindStateBaseE = comdat any

$_ZN4base8internal7InvokerINS0_9BindStateIPFvNS_12OnceCallbackIFvNSt3__16vectorINS4_10unique_ptrIN16password_manager12PasswordFormENS4_14default_deleteIS8_EEEENS4_9allocatorISB_EEEEEEEPNS6_ISE_NS9_ISE_EEEEEJSG_NS0_12OwnedWrapperISI_NS9_ISI_EEEEEEEFvvEE7RunOnceEPNS0_13BindStateBaseE = comdat any

$_ZN4base8internal9BindStateIPFvNS_12OnceCallbackIFvNSt3__16vectorINS3_10unique_ptrIN16password_manager12PasswordFormENS3_14default_deleteIS7_EEEENS3_9allocatorISA_EEEEEEEPNS5_ISD_NS8_ISD_EEEEEJSF_NS0_12OwnedWrapperISH_NS8_ISH_EEEEEE7DestroyEPKNS0_13BindStateBaseE = comdat any

$_ZNKSt3__114default_deleteINS_10unique_ptrINS_6vectorINS1_IN16password_manager12PasswordFormENS0_IS4_EEEENS_9allocatorIS6_EEEENS0_IS9_EEEEEclEPSB_ = comdat any

$_ZN4base8internal7InvokerINS0_9BindStateIPFvPKcPN16password_manager21PasswordStoreConsumerENS_12OnceCallbackIFvNSt3__16vectorINS9_10unique_ptrINS5_12PasswordFormENS9_14default_deleteISC_EEEENS9_9allocatorISF_EEEEEEESI_EJS4_S7_SK_EEESJ_E7RunOnceEPNS0_13BindStateBaseEOSI_ = comdat any

$_ZN4base8internal13FunctorTraitsIPFvPKcPN16password_manager21PasswordStoreConsumerENS_12OnceCallbackIFvNSt3__16vectorINS8_10unique_ptrINS4_12PasswordFormENS8_14default_deleteISB_EEEENS8_9allocatorISE_EEEEEEESH_EvE6InvokeISL_JS3_S6_SJ_SH_EEEvOT_DpOT0_ = comdat any

$_ZN4base8internal9BindStateIPFvPKcPN16password_manager21PasswordStoreConsumerENS_12OnceCallbackIFvNSt3__16vectorINS8_10unique_ptrINS4_12PasswordFormENS8_14default_deleteISB_EEEENS8_9allocatorISE_EEEEEEESH_EJS3_S6_SJ_EE7DestroyEPKNS0_13BindStateBaseE = comdat any

$_ZN4base8internal7InvokerINS0_9BindStateINS_12OnceCallbackIFvNS3_IFvNSt3__16vectorINS4_10unique_ptrIN16password_manager12PasswordFormENS4_14default_deleteIS8_EEEENS4_9allocatorISB_EEEEEEESE_EEEJSG_EEESF_E7RunOnceEPNS0_13BindStateBaseEOSE_ = comdat any

$_ZN4base8internal13FunctorTraitsINS_12OnceCallbackIFvNS2_IFvNSt3__16vectorINS3_10unique_ptrIN16password_manager12PasswordFormENS3_14default_deleteIS7_EEEENS3_9allocatorISA_EEEEEEESD_EEEvE6InvokeISH_JSF_SD_EEEvOT_DpOT0_ = comdat any

$_ZN4base8internal9BindStateINS_12OnceCallbackIFvNS2_IFvNSt3__16vectorINS3_10unique_ptrIN16password_manager12PasswordFormENS3_14default_deleteIS7_EEEENS3_9allocatorISA_EEEEEEESD_EEEJSF_EE7DestroyEPKNS0_13BindStateBaseE = comdat any

$_ZN4base8internal23QueryCancellationTraitsINS0_9BindStateINS_12OnceCallbackIFvNS3_IFvNSt3__16vectorINS4_10unique_ptrIN16password_manager12PasswordFormENS4_14default_deleteIS8_EEEENS4_9allocatorISB_EEEEEEESE_EEEJSG_EEEEEbPKNS0_13BindStateBaseENSK_21CancellationQueryModeE = comdat any

$_ZN4base8internal7InvokerINS0_9BindStateIMN16password_manager21PasswordStoreConsumerEFvNSt3__16vectorINS3_17InteractionsStatsENS5_9allocatorIS7_EEEEEJNS_7WeakPtrIS4_EEEEEFvSA_EE7RunOnceEPNS0_13BindStateBaseEOSA_ = comdat any

$_ZN4base8internal12InvokeHelperILb1EvE8MakeItSoIMN16password_manager21PasswordStoreConsumerEFvNSt3__16vectorINS4_17InteractionsStatsENS6_9allocatorIS8_EEEEENS_7WeakPtrIS5_EEJSB_EEEvOT_OT0_DpOT1_ = comdat any

$_ZN4base8internal9BindStateIMN16password_manager21PasswordStoreConsumerEFvNSt3__16vectorINS2_17InteractionsStatsENS4_9allocatorIS6_EEEEEJNS_7WeakPtrIS3_EEEE7DestroyEPKNS0_13BindStateBaseE = comdat any

$_ZN4base8internal23QueryCancellationTraitsINS0_9BindStateIMN16password_manager21PasswordStoreConsumerEFvNSt3__16vectorINS3_17InteractionsStatsENS5_9allocatorIS7_EEEEEJNS_7WeakPtrIS4_EEEEEEEbPKNS0_13BindStateBaseENSG_21CancellationQueryModeE = comdat any

$_ZN4base8internal20ReturnAsParamAdapterINSt3__16vectorIN16password_manager17InteractionsStatsENS2_9allocatorIS5_EEEEEEvNS_12OnceCallbackIFT_vEEEPNS2_10unique_ptrISA_NS2_14default_deleteISA_EEEE = comdat any

$_ZN4base8internal12ReplyAdapterINSt3__16vectorIN16password_manager17InteractionsStatsENS2_9allocatorIS5_EEEES8_EEvNS_12OnceCallbackIFvT0_EEEPNS2_10unique_ptrIT_NS2_14default_deleteISE_EEEE = comdat any

$_ZN4base8internal7InvokerINS0_9BindStateIPFvNS_12OnceCallbackIFNSt3__16vectorIN16password_manager17InteractionsStatsENS4_9allocatorIS7_EEEEvEEEPNS4_10unique_ptrISA_NS4_14default_deleteISA_EEEEEJSC_NS0_17UnretainedWrapperISG_EEEEEFvvEE7RunOnceEPNS0_13BindStateBaseE = comdat any

$_ZN4base8internal9BindStateIPFvNS_12OnceCallbackIFNSt3__16vectorIN16password_manager17InteractionsStatsENS3_9allocatorIS6_EEEEvEEEPNS3_10unique_ptrIS9_NS3_14default_deleteIS9_EEEEEJSB_NS0_17UnretainedWrapperISF_EEEE7DestroyEPKNS0_13BindStateBaseE = comdat any

$_ZN4base8internal7InvokerINS0_9BindStateIPFvNS_12OnceCallbackIFvNSt3__16vectorIN16password_manager17InteractionsStatsENS4_9allocatorIS7_EEEEEEEPNS4_10unique_ptrISA_NS4_14default_deleteISA_EEEEEJSC_NS0_12OwnedWrapperISG_NSE_ISG_EEEEEEEFvvEE7RunOnceEPNS0_13BindStateBaseE = comdat any

$_ZN4base8internal9BindStateIPFvNS_12OnceCallbackIFvNSt3__16vectorIN16password_manager17InteractionsStatsENS3_9allocatorIS6_EEEEEEEPNS3_10unique_ptrIS9_NS3_14default_deleteIS9_EEEEEJSB_NS0_12OwnedWrapperISF_NSD_ISF_EEEEEE7DestroyEPKNS0_13BindStateBaseE = comdat any

$_ZNKSt3__114default_deleteINS_10unique_ptrINS_6vectorIN16password_manager17InteractionsStatsENS_9allocatorIS4_EEEENS0_IS7_EEEEEclEPS9_ = comdat any

$_ZN4base8internal7InvokerINS0_9BindStateIMN16password_manager27InsecureCredentialsConsumerEFvPNS3_13PasswordStoreENSt3__16vectorINS3_18InsecureCredentialENS7_9allocatorIS9_EEEEEJNS_7WeakPtrIS4_EENS0_18RetainedRefWrapperIS5_EEEEEFvSC_EE7RunOnceEPNS0_13BindStateBaseEOSC_ = comdat any

$_ZN4base8internal13FunctorTraitsIMN16password_manager27InsecureCredentialsConsumerEFvPNS2_13PasswordStoreENSt3__16vectorINS2_18InsecureCredentialENS6_9allocatorIS8_EEEEEvE6InvokeISD_NS_7WeakPtrIS3_EEJS5_SB_EEEvT_OT0_DpOT1_ = comdat any

$_ZN4base8internal9BindStateIMN16password_manager27InsecureCredentialsConsumerEFvPNS2_13PasswordStoreENSt3__16vectorINS2_18InsecureCredentialENS6_9allocatorIS8_EEEEEJNS_7WeakPtrIS3_EENS0_18RetainedRefWrapperIS4_EEEE7DestroyEPKNS0_13BindStateBaseE = comdat any

$_ZN4base8internal23QueryCancellationTraitsINS0_9BindStateIMN16password_manager27InsecureCredentialsConsumerEFvPNS3_13PasswordStoreENSt3__16vectorINS3_18InsecureCredentialENS7_9allocatorIS9_EEEEEJNS_7WeakPtrIS4_EENS0_18RetainedRefWrapperIS5_EEEEEEEbPKNS0_13BindStateBaseENSK_21CancellationQueryModeE = comdat any

$_ZN4base8internal20ReturnAsParamAdapterINSt3__16vectorIN16password_manager18InsecureCredentialENS2_9allocatorIS5_EEEEEEvNS_12OnceCallbackIFT_vEEEPNS2_10unique_ptrISA_NS2_14default_deleteISA_EEEE = comdat any

$_ZN4base8internal12ReplyAdapterINSt3__16vectorIN16password_manager18InsecureCredentialENS2_9allocatorIS5_EEEES8_EEvNS_12OnceCallbackIFvT0_EEEPNS2_10unique_ptrIT_NS2_14default_deleteISE_EEEE = comdat any

$_ZN4base8internal7InvokerINS0_9BindStateIPFvNS_12OnceCallbackIFNSt3__16vectorIN16password_manager18InsecureCredentialENS4_9allocatorIS7_EEEEvEEEPNS4_10unique_ptrISA_NS4_14default_deleteISA_EEEEEJSC_NS0_17UnretainedWrapperISG_EEEEEFvvEE7RunOnceEPNS0_13BindStateBaseE = comdat any

$_ZN4base8internal9BindStateIPFvNS_12OnceCallbackIFNSt3__16vectorIN16password_manager18InsecureCredentialENS3_9allocatorIS6_EEEEvEEEPNS3_10unique_ptrIS9_NS3_14default_deleteIS9_EEEEEJSB_NS0_17UnretainedWrapperISF_EEEE7DestroyEPKNS0_13BindStateBaseE = comdat any

$_ZN4base8internal7InvokerINS0_9BindStateIPFvNS_12OnceCallbackIFvNSt3__16vectorIN16password_manager18InsecureCredentialENS4_9allocatorIS7_EEEEEEEPNS4_10unique_ptrISA_NS4_14default_deleteISA_EEEEEJSC_NS0_12OwnedWrapperISG_NSE_ISG_EEEEEEEFvvEE7RunOnceEPNS0_13BindStateBaseE = comdat any

$_ZN4base8internal9BindStateIPFvNS_12OnceCallbackIFvNSt3__16vectorIN16password_manager18InsecureCredentialENS3_9allocatorIS6_EEEEEEEPNS3_10unique_ptrIS9_NS3_14default_deleteIS9_EEEEEJSB_NS0_12OwnedWrapperISF_NSD_ISF_EEEEEE7DestroyEPKNS0_13BindStateBaseE = comdat any

$_ZN4base8internal9BindStateIPFvNS_12OnceCallbackIFvNSt3__16vectorIN16password_manager18InsecureCredentialENS3_9allocatorIS6_EEEEEEEPNS3_10unique_ptrIS9_NS3_14default_deleteIS9_EEEEEJSB_NS0_12OwnedWrapperISF_NSD_ISF_EEEEEED2Ev = comdat any

$_ZNSt3__16vectorIN4base12OnceCallbackIFvbEEENS_9allocatorIS4_EEE21__push_back_slow_pathIS4_EEvOT_ = comdat any

$_ZN4base8internal7InvokerINS0_9BindStateIMN16password_manager13PasswordStoreEFvbEJ13scoped_refptrIS4_EbEEEFvvEE7RunOnceEPNS0_13BindStateBaseE = comdat any

$_ZN4base8internal9BindStateIMN16password_manager13PasswordStoreEFvbEJ13scoped_refptrIS3_EbEE7DestroyEPKNS0_13BindStateBaseE = comdat any

$_ZNK4base8internal22CancelableCallbackImplINS_12OnceCallbackIFvvEEEE13MakeForwarderIJEEEvPNS2_IFvDpT_EEE = comdat any

$_ZN4base8internal22CancelableCallbackImplINS_12OnceCallbackIFvvEEEE11ForwardOnceIJEEEvDpT_ = comdat any

$_ZN4base8internal7InvokerINS0_9BindStateIMNS0_22CancelableCallbackImplINS_12OnceCallbackIFvvEEEEEFvvEJNS_7WeakPtrIS7_EEEEES5_E7RunOnceEPNS0_13BindStateBaseE = comdat any

$_ZN4base8internal9BindStateIMNS0_22CancelableCallbackImplINS_12OnceCallbackIFvvEEEEEFvvEJNS_7WeakPtrIS6_EEEE7DestroyEPKNS0_13BindStateBaseE = comdat any

$_ZN4base8internal23QueryCancellationTraitsINS0_9BindStateIMNS0_22CancelableCallbackImplINS_12OnceCallbackIFvvEEEEEFvvEJNS_7WeakPtrIS7_EEEEEEEbPKNS0_13BindStateBaseENSD_21CancellationQueryModeE = comdat any

$_ZN4base8internal7InvokerINS0_9BindStateIMN16password_manager13PasswordStoreEFNSt3__16vectorINS5_10unique_ptrINS3_12PasswordFormENS5_14default_deleteIS8_EEEENS5_9allocatorISB_EEEERKNS4_10FormDigestERKNS6_INS5_12basic_stringIcNS5_11char_traitsIcEENSC_IcEEEENSC_ISM_EEEEEJ13scoped_refptrIS4_ESF_SO_EEEFSE_vEE7RunOnceEPNS0_13BindStateBaseE = comdat any

$_ZN4base8internal9BindStateIMN16password_manager13PasswordStoreEFNSt3__16vectorINS4_10unique_ptrINS2_12PasswordFormENS4_14default_deleteIS7_EEEENS4_9allocatorISA_EEEERKNS3_10FormDigestERKNS5_INS4_12basic_stringIcNS4_11char_traitsIcEENSB_IcEEEENSB_ISL_EEEEEJ13scoped_refptrIS3_ESE_SN_EEC2ISR_JPS3_SG_SP_EEENS4_17integral_constantIbLb0EEEPFvvEOT_DpOT0_ = comdat any

$_ZN4base8internal9BindStateIMN16password_manager13PasswordStoreEFNSt3__16vectorINS4_10unique_ptrINS2_12PasswordFormENS4_14default_deleteIS7_EEEENS4_9allocatorISA_EEEERKNS3_10FormDigestERKNS5_INS4_12basic_stringIcNS4_11char_traitsIcEENSB_IcEEEENSB_ISL_EEEEEJ13scoped_refptrIS3_ESE_SN_EE7DestroyEPKNS0_13BindStateBaseE = comdat any

$_ZN4base8internal9BindStateIMN16password_manager13PasswordStoreEFNSt3__16vectorINS4_10unique_ptrINS2_12PasswordFormENS4_14default_deleteIS7_EEEENS4_9allocatorISA_EEEERKNS3_10FormDigestERKNS5_INS4_12basic_stringIcNS4_11char_traitsIcEENSB_IcEEEENSB_ISL_EEEEEJ13scoped_refptrIS3_ESE_SN_EED2Ev = comdat any

$_ZN4base8internal7InvokerINS0_9BindStateIMN16password_manager13PasswordStoreEFNSt3__16vectorINS3_18InsecureCredentialENS5_9allocatorIS7_EEEERKNS5_12basic_stringIcNS5_11char_traitsIcEENS8_IcEEEERKNS6_ISF_NS8_ISF_EEEEEJ13scoped_refptrIS4_ESF_SJ_EEEFSA_vEE7RunOnceEPNS0_13BindStateBaseE = comdat any

$_ZN4base8internal9BindStateIMN16password_manager13PasswordStoreEFNSt3__16vectorINS2_18InsecureCredentialENS4_9allocatorIS6_EEEERKNS4_12basic_stringIcNS4_11char_traitsIcEENS7_IcEEEERKNS5_ISE_NS7_ISE_EEEEEJ13scoped_refptrIS3_ESE_SI_EEC2ISM_JPS3_SG_SK_EEENS4_17integral_constantIbLb0EEEPFvvEOT_DpOT0_ = comdat any

$_ZN4base8internal9BindStateIMN16password_manager13PasswordStoreEFNSt3__16vectorINS2_18InsecureCredentialENS4_9allocatorIS6_EEEERKNS4_12basic_stringIcNS4_11char_traitsIcEENS7_IcEEEERKNS5_ISE_NS7_ISE_EEEEEJ13scoped_refptrIS3_ESE_SI_EE7DestroyEPKNS0_13BindStateBaseE = comdat any

$_ZN4base8internal9BindStateIMN16password_manager13PasswordStoreEFNSt3__16vectorINS2_18InsecureCredentialENS4_9allocatorIS6_EEEERKNS4_12basic_stringIcNS4_11char_traitsIcEENS7_IcEEEERKNS5_ISE_NS7_ISE_EEEEEJ13scoped_refptrIS3_ESE_SI_EED2Ev = comdat any

$_ZN4base8internal7InvokerINS0_9BindStateIMN16password_manager13PasswordStoreEFvRKNS3_12PasswordFormERKNSt3__16vectorINS8_12basic_stringIcNS8_11char_traitsIcEENS8_9allocatorIcEEEENSD_ISF_EEEEEJ13scoped_refptrIS4_ES5_EEEFvSJ_EE7RunOnceEPNS0_13BindStateBaseESJ_ = comdat any

$_ZN4base8internal9BindStateIMN16password_manager13PasswordStoreEFvRKNS2_12PasswordFormERKNSt3__16vectorINS7_12basic_stringIcNS7_11char_traitsIcEENS7_9allocatorIcEEEENSC_ISE_EEEEEJ13scoped_refptrIS3_ES4_EE7DestroyEPKNS0_13BindStateBaseE = comdat any

$_ZNSt3__112basic_stringIDsNS_11char_traitsIDsEENS_9allocatorIDsEEE21__grow_by_and_replaceEmmmmmmPKDs = comdat any

$_ZN4base8internal7InvokerINS0_9BindStateIMN16password_manager13PasswordStoreEFvRKNS3_12PasswordFormERKNSt3__16vectorINS8_12basic_stringIcNS8_11char_traitsIcEENS8_9allocatorIcEEEENSD_ISF_EEEEEJ13scoped_refptrIS4_ES5_SH_EEEFvvEE7RunOnceEPNS0_13BindStateBaseE = comdat any

$_ZN4base8internal9BindStateIMN16password_manager13PasswordStoreEFvRKNS2_12PasswordFormERKNSt3__16vectorINS7_12basic_stringIcNS7_11char_traitsIcEENS7_9allocatorIcEEEENSC_ISE_EEEEEJ13scoped_refptrIS3_ES4_SG_EEC2ISK_JPS3_S6_SI_EEENS7_17integral_constantIbLb0EEEPFvvEOT_DpOT0_ = comdat any

$_ZN4base8internal9BindStateIMN16password_manager13PasswordStoreEFvRKNS2_12PasswordFormERKNSt3__16vectorINS7_12basic_stringIcNS7_11char_traitsIcEENS7_9allocatorIcEEEENSC_ISE_EEEEEJ13scoped_refptrIS3_ES4_SG_EE7DestroyEPKNS0_13BindStateBaseE = comdat any

$_ZTVN4base22ObserverListThreadSafeIN16password_manager13PasswordStore8ObserverEEE = comdat any

$_ZTVN4base22ObserverListThreadSafeIN16password_manager13PasswordStore35DatabaseInsecureCredentialsObserverEEE = comdat any

@_ZTVN16password_manager13PasswordStore17CheckReuseRequestE = hidden unnamed_addr constant { [5 x i8*] } { [5 x i8*] [i8* null, i8* null, i8* bitcast (void (%"class.password_manager::PasswordStore::CheckReuseRequest"*)* @_ZN16password_manager13PasswordStore17CheckReuseRequestD2Ev to i8*), i8* bitcast (void (%"class.password_manager::PasswordStore::CheckReuseRequest"*)* @_ZN16password_manager13PasswordStore17CheckReuseRequestD0Ev to i8*), i8* bitcast (void (%"class.password_manager::PasswordStore::CheckReuseRequest"*, i1, i64, %"class.absl::optional.313"*, %"class.std::__1::vector.306"*, i32)* @_ZN16password_manager13PasswordStore17CheckReuseRequest16OnReuseCheckDoneEbmN4absl8optionalINS_16PasswordHashDataEEERKNSt3__16vectorINS_24MatchingReusedCredentialENS6_9allocatorIS8_EEEEi to i8*)] }, align 8
@_ZN4base11trace_event16CategoryRegistry11categories_E = external global [300 x %"struct.base::trace_event::TraceCategory"], align 16
@.str = private unnamed_addr constant [18 x i8] c"CheckReuseRequest\00", align 1
@.str.1 = private unnamed_addr constant [17 x i8] c"OnReuseCheckDone\00", align 1
@.str.2 = private unnamed_addr constant [65 x i8] c"../../components/password_manager/core/browser/password_store.cc\00", align 1
@_ZTVN16password_manager13PasswordStoreE = hidden unnamed_addr constant { [70 x i8*], [5 x i8*] } { [70 x i8*] [i8* null, i8* null, i8* bitcast (void ()* @__cxa_pure_virtual to i8*), i8* bitcast (void ()* @__cxa_pure_virtual to i8*), i8* bitcast (void ()* @__cxa_pure_virtual to i8*), i8* bitcast (void (%"class.std::__1::vector.217"*, %"class.password_manager::PasswordStore"*, %"struct.password_manager::PasswordForm"*, i32*)* @_ZN16password_manager13PasswordStore12AddLoginSyncERKNS_12PasswordFormEPNS_13AddLoginErrorE to i8*), i8* bitcast (i1 (%"class.password_manager::PasswordStore"*, i64, %"struct.password_manager::InsecureCredential"*)* @_ZN16password_manager13PasswordStore26AddInsecureCredentialsSyncEN4base4spanIKNS_18InsecureCredentialELm18446744073709551615EEE to i8*), i8* bitcast (void (%"class.std::__1::vector.217"*, %"class.password_manager::PasswordStore"*, %"struct.password_manager::PasswordForm"*, i32*)* @_ZN16password_manager13PasswordStore15UpdateLoginSyncERKNS_12PasswordFormEPNS_16UpdateLoginErrorE to i8*), i8* bitcast (i1 (%"class.password_manager::PasswordStore"*, %"struct.password_manager::PasswordForm"*, i64, %"struct.password_manager::InsecureCredential"*)* @_ZN16password_manager13PasswordStore29UpdateInsecureCredentialsSyncERKNS_12PasswordFormEN4base4spanIKNS_18InsecureCredentialELm18446744073709551615EEE to i8*), i8* bitcast (void (%"class.std::__1::vector.217"*, %"class.password_manager::PasswordStore"*, %"struct.password_manager::PasswordForm"*)* @_ZN16password_manager13PasswordStore15RemoveLoginSyncERKNS_12PasswordFormE to i8*), i8* bitcast (void ()* @__cxa_pure_virtual to i8*), i8* bitcast (void (%"class.password_manager::PasswordStore"*, %"class.std::__1::vector.217"*)* @_ZN16password_manager13PasswordStore19NotifyLoginsChangedERKNSt3__16vectorINS_19PasswordStoreChangeENS1_9allocatorIS3_EEEE to i8*), i8* bitcast (void (%"class.password_manager::PasswordStore"*)* @_ZN16password_manager13PasswordStore32NotifyInsecureCredentialsChangedEv to i8*), i8* bitcast (void (%"class.password_manager::PasswordStore"*, i1)* @_ZN16password_manager13PasswordStore25NotifyDeletionsHaveSyncedEb to i8*), i8* bitcast (void (%"class.password_manager::PasswordStore"*, %"class.std::__1::vector.438"*)* @_ZN16password_manager13PasswordStore38NotifyUnsyncedCredentialsWillBeDeletedENSt3__16vectorINS_12PasswordFormENS1_9allocatorIS3_EEEE to i8*), i8* bitcast (void ()* @__cxa_pure_virtual to i8*), i8* bitcast (void ()* @__cxa_pure_virtual to i8*), i8* bitcast (void ()* @__cxa_pure_virtual to i8*), i8* bitcast (void ()* @__cxa_pure_virtual to i8*), i8* bitcast (void ()* @__cxa_pure_virtual to i8*), i8* bitcast (void ()* @__cxa_pure_virtual to i8*), i8* bitcast (void (%"class.password_manager::PasswordStore"*)* @_ZN16password_manager13PasswordStoreD2Ev to i8*), i8* bitcast (void (%"class.password_manager::PasswordStore"*)* @_ZN16password_manager13PasswordStoreD0Ev to i8*), i8* bitcast (void (%"class.password_manager::PasswordStore"*)* @_ZN16password_manager13PasswordStore18ShutdownOnUIThreadEv to i8*), i8* bitcast (void (%"class.password_manager::PasswordStore"*, %"struct.password_manager::PasswordForm"*)* @_ZN16password_manager13PasswordStore8AddLoginERKNS_12PasswordFormE to i8*), i8* bitcast (void (%"class.password_manager::PasswordStore"*, %"struct.password_manager::PasswordForm"*)* @_ZN16password_manager13PasswordStore11UpdateLoginERKNS_12PasswordFormE to i8*), i8* bitcast (void (%"class.password_manager::PasswordStore"*, %"struct.password_manager::PasswordForm"*, %"struct.password_manager::PasswordForm"*)* @_ZN16password_manager13PasswordStore25UpdateLoginWithPrimaryKeyERKNS_12PasswordFormES3_ to i8*), i8* bitcast (void (%"class.password_manager::PasswordStore"*, %"struct.password_manager::PasswordForm"*)* @_ZN16password_manager13PasswordStore11RemoveLoginERKNS_12PasswordFormE to i8*), i8* bitcast (void (%"class.password_manager::PasswordStore"*, %"struct.password_manager::PasswordStore::FormDigest"*, %"class.base::OnceCallback.215"*)* @_ZN16password_manager13PasswordStore11UnblocklistERKNS0_10FormDigestEN4base12OnceCallbackIFvvEEE to i8*), i8* bitcast (void (%"class.password_manager::PasswordStore"*, %"struct.password_manager::PasswordStore::FormDigest"*, %"class.password_manager::PasswordStoreConsumer"*)* @_ZN16password_manager13PasswordStore9GetLoginsERKNS0_10FormDigestEPNS_21PasswordStoreConsumerE to i8*), i8* bitcast (void (%"class.password_manager::PasswordStore"*, %"class.password_manager::PasswordStoreConsumer"*)* @_ZN16password_manager13PasswordStore21GetAutofillableLoginsEPNS_21PasswordStoreConsumerE to i8*), i8* bitcast (void (%"class.password_manager::PasswordStore"*, %"class.password_manager::PasswordStoreConsumer"*)* @_ZN16password_manager13PasswordStore12GetAllLoginsEPNS_21PasswordStoreConsumerE to i8*), i8* bitcast (void (%"class.password_manager::PasswordStore"*, %"class.password_manager::PasswordStoreConsumer"*)* @_ZN16password_manager13PasswordStore49GetAllLoginsWithAffiliationAndBrandingInformationEPNS_21PasswordStoreConsumerE to i8*), i8* bitcast (void (%"class.password_manager::PasswordStore"*, %"class.std::__1::basic_string"*, i1, i1)* @_ZN16password_manager13PasswordStore13ReportMetricsERKNSt3__112basic_stringIcNS1_11char_traitsIcEENS1_9allocatorIcEEEEbb to i8*), i8* bitcast (i1 (%"class.password_manager::PasswordStore"*)* @_ZNK16password_manager13PasswordStore21IsAbleToSavePasswordsEv to i8*), i8* bitcast (void (%"class.password_manager::PasswordStore"*, %"class.std::__1::basic_string.219"*, %"class.std::__1::basic_string"*, %"class.password_manager::PasswordReuseDetectorConsumer"*)* @_ZN16password_manager13PasswordStore10CheckReuseERKNSt3__112basic_stringIDsNS1_11char_traitsIDsEENS1_9allocatorIDsEEEERKNS2_IcNS3_IcEENS5_IcEEEEPNS_29PasswordReuseDetectorConsumerE to i8*), i8* bitcast (void (%"class.password_manager::PasswordStore"*, %"class.std::__1::basic_string"*, %"class.std::__1::basic_string.219"*, i1, i32)* @_ZN16password_manager13PasswordStore20SaveGaiaPasswordHashERKNSt3__112basic_stringIcNS1_11char_traitsIcEENS1_9allocatorIcEEEERKNS2_IDsNS3_IDsEENS5_IDsEEEEbNS_12metrics_util22GaiaPasswordHashChangeE to i8*), i8* bitcast (void (%"class.password_manager::PasswordStore"*, %"class.std::__1::basic_string"*, %"class.std::__1::basic_string.219"*)* @_ZN16password_manager13PasswordStore26SaveEnterprisePasswordHashERKNSt3__112basic_stringIcNS1_11char_traitsIcEENS1_9allocatorIcEEEERKNS2_IDsNS3_IDsEENS5_IDsEEEE to i8*), i8* bitcast (void (%"class.password_manager::PasswordStore"*, %"struct.password_manager::PasswordHashData"*, i32)* @_ZN16password_manager13PasswordStore20SaveSyncPasswordHashERKNS_16PasswordHashDataENS_12metrics_util22GaiaPasswordHashChangeE to i8*), i8* bitcast (void (%"class.password_manager::PasswordStore"*, %"class.std::__1::basic_string"*)* @_ZN16password_manager13PasswordStore21ClearGaiaPasswordHashERKNSt3__112basic_stringIcNS1_11char_traitsIcEENS1_9allocatorIcEEEE to i8*), i8* bitcast (void (%"class.password_manager::PasswordStore"*)* @_ZN16password_manager13PasswordStore24ClearAllGaiaPasswordHashEv to i8*), i8* bitcast (void (%"class.password_manager::PasswordStore"*)* @_ZN16password_manager13PasswordStore30ClearAllEnterprisePasswordHashEv to i8*), i8* bitcast (void (%"class.password_manager::PasswordStore"*)* @_ZN16password_manager13PasswordStore28ClearAllNonGmailPasswordHashEv to i8*), i8* bitcast (void (%"class.base::CallbackListSubscription"*, %"class.password_manager::PasswordStore"*, %"class.base::RepeatingCallback.102"*)* @_ZN16password_manager13PasswordStore42RegisterStateCallbackOnHashPasswordManagerERKN4base17RepeatingCallbackIFvRKNSt3__112basic_stringIcNS3_11char_traitsIcEENS3_9allocatorIcEEEEEEE to i8*), i8* bitcast (%"class.base::SequencedTaskRunner"* (%"class.password_manager::PasswordStore"*)* @_ZNK16password_manager13PasswordStore26CreateBackgroundTaskRunnerEv to i8*), i8* bitcast (i1 (%"class.password_manager::PasswordStore"*, i1)* @_ZN16password_manager13PasswordStore24InitOnBackgroundSequenceEb to i8*), i8* bitcast (void ()* @__cxa_pure_virtual to i8*), i8* bitcast (void ()* @__cxa_pure_virtual to i8*), i8* bitcast (void ()* @__cxa_pure_virtual to i8*), i8* bitcast (void ()* @__cxa_pure_virtual to i8*), i8* bitcast (void ()* @__cxa_pure_virtual to i8*), i8* bitcast (void ()* @__cxa_pure_virtual to i8*), i8* bitcast (void ()* @__cxa_pure_virtual to i8*), i8* bitcast (void ()* @__cxa_pure_virtual to i8*), i8* bitcast (void ()* @__cxa_pure_virtual to i8*), i8* bitcast (void ()* @__cxa_pure_virtual to i8*), i8* bitcast (void ()* @__cxa_pure_virtual to i8*), i8* bitcast (void ()* @__cxa_pure_virtual to i8*), i8* bitcast (void ()* @__cxa_pure_virtual to i8*), i8* bitcast (void ()* @__cxa_pure_virtual to i8*), i8* bitcast (void ()* @__cxa_pure_virtual to i8*), i8* bitcast (void ()* @__cxa_pure_virtual to i8*), i8* bitcast (void ()* @__cxa_pure_virtual to i8*), i8* bitcast (void ()* @__cxa_pure_virtual to i8*), i8* bitcast (void ()* @__cxa_pure_virtual to i8*), i8* bitcast (void ()* @__cxa_pure_virtual to i8*), i8* bitcast (void ()* @__cxa_pure_virtual to i8*), i8* bitcast (void ()* @__cxa_pure_virtual to i8*), i8* bitcast (void ()* @__cxa_pure_virtual to i8*), i8* bitcast (void ()* @__cxa_pure_virtual to i8*)], [5 x i8*] [i8* inttoptr (i64 -8 to i8*), i8* null, i8* bitcast (void (%"class.password_manager::PasswordStore"*)* @_ZThn8_N16password_manager13PasswordStore18ShutdownOnUIThreadEv to i8*), i8* bitcast (void (%"class.password_manager::PasswordStore"*)* @_ZThn8_N16password_manager13PasswordStoreD1Ev to i8*), i8* bitcast (void (%"class.password_manager::PasswordStore"*)* @_ZThn8_N16password_manager13PasswordStoreD0Ev to i8*)] }, align 8
@_ZN16password_manager5prefs36kWasPhishedCredentialsUploadedToSyncE = external constant [0 x i8], align 1
@.str.3 = private unnamed_addr constant [40 x i8] c"PasswordStore::InitOnBackgroundSequence\00", align 1
@.str.4 = private unnamed_addr constant [5 x i8] c"Init\00", align 1
@.str.5 = private unnamed_addr constant [25 x i8] c"PasswordStore::GetLogins\00", align 1
@.str.6 = private unnamed_addr constant [22 x i8] c"http://www.google.com\00", align 1
@.str.7 = private unnamed_addr constant [23 x i8] c"http://www.google.com/\00", align 1
@.str.8 = private unnamed_addr constant [23 x i8] c"https://www.google.com\00", align 1
@.str.9 = private unnamed_addr constant [24 x i8] c"https://www.google.com/\00", align 1
@_ZZN16password_manager13PasswordStore9GetLoginsERKNS0_10FormDigestEPNS_21PasswordStoreConsumerEE15exploded_cutoff = internal constant %"struct.base::Time::Exploded" { i32 2012, i32 1, i32 0, i32 1, i32 0, i32 0, i32 0, i32 0 }, align 4
@.str.10 = private unnamed_addr constant [65 x i8] c"PasswordStore::GetAllLoginsWithAffiliationAndBrandingInformation\00", align 1
@_ZN16password_manager5prefs31kLastTimePasswordCheckCompletedE = external constant [0 x i8], align 1
@.str.11 = private unnamed_addr constant [14 x i8] c"ReportMetrics\00", align 1
@.str.12 = private unnamed_addr constant [16 x i8] c"GetAllFieldInfo\00", align 1
@.str.13 = private unnamed_addr constant [13 x i8] c"ScheduleTask\00", align 1
@.str.14 = private unnamed_addr constant [15 x i8] c"~PasswordStore\00", align 1
@.ref.tmp = private constant %"class.base::TaskTraits" { %"struct.base::TaskTraitsExtensionStorage" zeroinitializer, i8 1, i8 1, i8 0, i8 1, i8 0, i8 0 }, align 1
@.str.15 = private unnamed_addr constant [25 x i8] c"InitOnBackgroundSequence\00", align 1
@.str.16 = private unnamed_addr constant [20 x i8] c"NotifyLoginsChanged\00", align 1
@.str.17 = private unnamed_addr constant [33 x i8] c"NotifyInsecureCredentialsChanged\00", align 1
@.str.18 = private unnamed_addr constant [49 x i8] c"PasswordManager.PasswordStoreDeletionsHaveSynced\00", align 1
@.str.19 = private unnamed_addr constant [26 x i8] c"NotifyDeletionsHaveSynced\00", align 1
@.str.20 = private unnamed_addr constant [39 x i8] c"NotifyUnsyncedCredentialsWillBeDeleted\00", align 1
@.str.21 = private unnamed_addr constant [45 x i8] c"PasswordStore::SaveProtectedPasswordHashImpl\00", align 1
@.str.22 = private unnamed_addr constant [42 x i8] c"PasswordStore::SaveEnterprisePasswordURLs\00", align 1
@.str.23 = private unnamed_addr constant [41 x i8] c"PasswordStore::ClearGaiaPasswordHashImpl\00", align 1
@.str.24 = private unnamed_addr constant [44 x i8] c"PasswordStore::ClearAllGaiaPasswordHashImpl\00", align 1
@.str.25 = private unnamed_addr constant [50 x i8] c"PasswordStore::ClearAllEnterprisePasswordHashImpl\00", align 1
@.str.26 = private unnamed_addr constant [48 x i8] c"PasswordStore::ClearAllNonGmailPasswordHashImpl\00", align 1
@.str.27 = private unnamed_addr constant [40 x i8] c"PasswordManager.PasswordStoreInitResult\00", align 1
@.str.28 = private unnamed_addr constant [43 x i8] c"PostLoginsTaskAndReplyToConsumerWithResult\00", align 1
@.str.29 = private unnamed_addr constant [52 x i8] c"PostLoginsTaskAndReplyToConsumerWithProcessedResult\00", align 1
@.str.30 = private unnamed_addr constant [42 x i8] c"PostStatsTaskAndReplyToConsumerWithResult\00", align 1
@.str.31 = private unnamed_addr constant [56 x i8] c"PostInsecureCredentialsTaskAndReplyToConsumerWithResult\00", align 1
@.str.32 = private unnamed_addr constant [32 x i8] c"PasswordStore::AddLoginInternal\00", align 1
@.str.33 = private unnamed_addr constant [35 x i8] c"PasswordStore::UpdateLoginInternal\00", align 1
@.str.34 = private unnamed_addr constant [35 x i8] c"PasswordStore::RemoveLoginInternal\00", align 1
@.str.35 = private unnamed_addr constant [49 x i8] c"PasswordStore::UpdateLoginWithPrimaryKeyInternal\00", align 1
@.str.36 = private unnamed_addr constant [48 x i8] c"PasswordStore::RemoveLoginsByURLAndTimeInternal\00", align 1
@.str.37 = private unnamed_addr constant [33 x i8] c"RemoveLoginsByURLAndTimeInternal\00", align 1
@.str.38 = private unnamed_addr constant [50 x i8] c"PasswordStore::RemoveLoginsCreatedBetweenInternal\00", align 1
@.str.39 = private unnamed_addr constant [35 x i8] c"RemoveLoginsCreatedBetweenInternal\00", align 1
@.str.40 = private unnamed_addr constant [55 x i8] c"PasswordStore::RemoveStatisticsByOriginAndTimeInternal\00", align 1
@.str.41 = private unnamed_addr constant [40 x i8] c"RemoveStatisticsByOriginAndTimeInternal\00", align 1
@.str.42 = private unnamed_addr constant [51 x i8] c"PasswordStore::DisableAutoSignInForOriginsInternal\00", align 1
@.str.43 = private unnamed_addr constant [36 x i8] c"DisableAutoSignInForOriginsInternal\00", align 1
@.str.44 = private unnamed_addr constant [35 x i8] c"PasswordStore::UnblocklistInternal\00", align 1
@.str.45 = private unnamed_addr constant [20 x i8] c"UnblocklistInternal\00", align 1
@.str.46 = private unnamed_addr constant [30 x i8] c"RemoveFieldInfoByTimeInternal\00", align 1
@.str.47 = private unnamed_addr constant [19 x i8] c"ClearStoreInternal\00", align 1
@.str.48 = private unnamed_addr constant [39 x i8] c"PasswordStore::GetLoginsByPasswordImpl\00", align 1
@.str.49 = private unnamed_addr constant [41 x i8] c"PasswordStore::GetAutofillableLoginsImpl\00", align 1
@.str.50 = private unnamed_addr constant [32 x i8] c"PasswordStore::GetAllLoginsImpl\00", align 1
@.str.52 = private unnamed_addr constant [41 x i8] c"ScheduleFindAndUpdateAffiliatedWebLogins\00", align 1
@_ZTVN16password_manager13PasswordStore8ObserverE = hidden unnamed_addr constant { [6 x i8*] } { [6 x i8*] [i8* null, i8* null, i8* bitcast (void ()* @__cxa_pure_virtual to i8*), i8* bitcast (void (%"class.password_manager::PasswordStore::Observer"*, %"class.password_manager::PasswordStore"*, %"class.std::__1::vector.217"*)* @_ZN16password_manager13PasswordStore8Observer17OnLoginsChangedInEPS0_RKNSt3__16vectorINS_19PasswordStoreChangeENS3_9allocatorIS5_EEEE to i8*), i8* bitcast (void (%"class.password_manager::PasswordStore::Observer"*)* @_ZN16password_manager13PasswordStore8ObserverD2Ev to i8*), i8* bitcast (void (%"class.password_manager::PasswordStore::Observer"*)* @_ZN16password_manager13PasswordStore8ObserverD0Ev to i8*)] }, align 8
@_ZTVN16password_manager13PasswordStore35DatabaseInsecureCredentialsObserverE = hidden unnamed_addr constant { [6 x i8*] } { [6 x i8*] [i8* null, i8* null, i8* bitcast (void ()* @__cxa_pure_virtual to i8*), i8* bitcast (void (%"class.password_manager::PasswordStore::DatabaseInsecureCredentialsObserver"*, %"class.password_manager::PasswordStore"*)* @_ZN16password_manager13PasswordStore35DatabaseInsecureCredentialsObserver30OnInsecureCredentialsChangedInEPS0_ to i8*), i8* bitcast (void (%"class.password_manager::PasswordStore::DatabaseInsecureCredentialsObserver"*)* @_ZN16password_manager13PasswordStore35DatabaseInsecureCredentialsObserverD2Ev to i8*), i8* bitcast (void (%"class.password_manager::PasswordStore::DatabaseInsecureCredentialsObserver"*)* @_ZN16password_manager13PasswordStore35DatabaseInsecureCredentialsObserverD0Ev to i8*)] }, align 8
@_ZTVN4base22ObserverListThreadSafeIN16password_manager13PasswordStore8ObserverEEE = linkonce_odr hidden unnamed_addr constant { [4 x i8*] } { [4 x i8*] [i8* null, i8* null, i8* bitcast (void (%"class.base::ObserverListThreadSafe"*)* @_ZN4base22ObserverListThreadSafeIN16password_manager13PasswordStore8ObserverEED2Ev to i8*), i8* bitcast (void (%"class.base::ObserverListThreadSafe"*)* @_ZN4base22ObserverListThreadSafeIN16password_manager13PasswordStore8ObserverEED0Ev to i8*)] }, comdat, align 8
@_ZN16password_manager8features30kPasswordReuseDetectionEnabledE = external global %"struct.base::Feature", align 8
@_ZN16password_manager8features30kSyncingCompromisedCredentialsE = external global %"struct.base::Feature", align 8
@.str.53 = private unnamed_addr constant [23 x i8] c"start_ == other.start_\00", align 1
@.str.54 = private unnamed_addr constant [42 x i8] c"../../base/containers/checked_iterators.h\00", align 1
@.str.55 = private unnamed_addr constant [19 x i8] c"end_ == other.end_\00", align 1
@.str.56 = private unnamed_addr constant [17 x i8] c"current_ != end_\00", align 1
@.str.57 = private unnamed_addr constant [17 x i8] c"start <= current\00", align 1
@.str.58 = private unnamed_addr constant [15 x i8] c"current <= end\00", align 1
@_ZTVN4base22ObserverListThreadSafeIN16password_manager13PasswordStore35DatabaseInsecureCredentialsObserverEEE = linkonce_odr hidden unnamed_addr constant { [4 x i8*] } { [4 x i8*] [i8* null, i8* null, i8* bitcast (void (%"class.base::ObserverListThreadSafe.19"*)* @_ZN4base22ObserverListThreadSafeIN16password_manager13PasswordStore35DatabaseInsecureCredentialsObserverEED2Ev to i8*), i8* bitcast (void (%"class.base::ObserverListThreadSafe.19"*)* @_ZN4base22ObserverListThreadSafeIN16password_manager13PasswordStore35DatabaseInsecureCredentialsObserverEED0Ev to i8*)] }, comdat, align 8
@.str.60 = private unnamed_addr constant [29 x i8] c"../../base/memory/weak_ptr.h\00", align 1
@.str.61 = private unnamed_addr constant [15 x i8] c"ref_.IsValid()\00", align 1
@_ZN4base8internal26ObserverListThreadSafeBase25tls_current_notification_E = external global %"class.base::LazyInstance", align 8
@_ZNSt3__1L19piecewise_constructE = internal constant %"struct.std::__1::piecewise_construct_t" undef, align 1
@.str.62 = private unnamed_addr constant [27 x i8] c"../../base/bind_internal.h\00", align 1
@.str.63 = private unnamed_addr constant [18 x i8] c"!IsNull(functor_)\00", align 1
@_ZZN16password_manager13PasswordStore15OnInitCompletedEbE24atomic_histogram_pointer.0.0.0.0.0 = internal unnamed_addr global i64 0, align 8

@_ZN16password_manager13PasswordStore17CheckReuseRequestC1EPNS_29PasswordReuseDetectorConsumerE = hidden unnamed_addr alias void (%"class.password_manager::PasswordStore::CheckReuseRequest"*, %"class.password_manager::PasswordReuseDetectorConsumer"*), void (%"class.password_manager::PasswordStore::CheckReuseRequest"*, %"class.password_manager::PasswordReuseDetectorConsumer"*)* @_ZN16password_manager13PasswordStore17CheckReuseRequestC2EPNS_29PasswordReuseDetectorConsumerE
@_ZN16password_manager13PasswordStore17CheckReuseRequestD1Ev = hidden unnamed_addr alias void (%"class.password_manager::PasswordStore::CheckReuseRequest"*), void (%"class.password_manager::PasswordStore::CheckReuseRequest"*)* @_ZN16password_manager13PasswordStore17CheckReuseRequestD2Ev
@_ZN16password_manager13PasswordStore10FormDigestC1ENS_12PasswordForm6SchemeERKNSt3__112basic_stringIcNS4_11char_traitsIcEENS4_9allocatorIcEEEERK4GURL = hidden unnamed_addr alias void (%"struct.password_manager::PasswordStore::FormDigest"*, i32, %"class.std::__1::basic_string"*, %class.GURL*), void (%"struct.password_manager::PasswordStore::FormDigest"*, i32, %"class.std::__1::basic_string"*, %class.GURL*)* @_ZN16password_manager13PasswordStore10FormDigestC2ENS_12PasswordForm6SchemeERKNSt3__112basic_stringIcNS4_11char_traitsIcEENS4_9allocatorIcEEEERK4GURL
@_ZN16password_manager13PasswordStore10FormDigestC1ERKNS_12PasswordFormE = hidden unnamed_addr alias void (%"struct.password_manager::PasswordStore::FormDigest"*, %"struct.password_manager::PasswordForm"*), void (%"struct.password_manager::PasswordStore::FormDigest"*, %"struct.password_manager::PasswordForm"*)* @_ZN16password_manager13PasswordStore10FormDigestC2ERKNS_12PasswordFormE
@_ZN16password_manager13PasswordStore10FormDigestC1ERKN8autofill8FormDataE = hidden unnamed_addr alias void (%"struct.password_manager::PasswordStore::FormDigest"*, %"struct.autofill::FormData"*), void (%"struct.password_manager::PasswordStore::FormDigest"*, %"struct.autofill::FormData"*)* @_ZN16password_manager13PasswordStore10FormDigestC2ERKN8autofill8FormDataE
@_ZN16password_manager13PasswordStore10FormDigestC1ERKS1_ = hidden unnamed_addr alias void (%"struct.password_manager::PasswordStore::FormDigest"*, %"struct.password_manager::PasswordStore::FormDigest"*), void (%"struct.password_manager::PasswordStore::FormDigest"*, %"struct.password_manager::PasswordStore::FormDigest"*)* @_ZN16password_manager13PasswordStore10FormDigestC2ERKS1_
@_ZN16password_manager13PasswordStore10FormDigestC1EOS1_ = hidden unnamed_addr alias void (%"struct.password_manager::PasswordStore::FormDigest"*, %"struct.password_manager::PasswordStore::FormDigest"*), void (%"struct.password_manager::PasswordStore::FormDigest"*, %"struct.password_manager::PasswordStore::FormDigest"*)* @_ZN16password_manager13PasswordStore10FormDigestC2EOS1_
@_ZN16password_manager13PasswordStoreD1Ev = hidden unnamed_addr alias void (%"class.password_manager::PasswordStore"*), void (%"class.password_manager::PasswordStore"*)* @_ZN16password_manager13PasswordStoreD2Ev

; Function Attrs: nounwind ssp uwtable
define hidden void @_ZN16password_manager13PasswordStore8Observer17OnLoginsChangedInEPS0_RKNSt3__16vectorINS_19PasswordStoreChangeENS3_9allocatorIS5_EEEE(%"class.password_manager::PasswordStore::Observer"*, %"class.password_manager::PasswordStore"* nocapture readnone, %"class.std::__1::vector.217"* dereferenceable(24)) unnamed_addr #0 align 2 {
  %4 = bitcast %"class.password_manager::PasswordStore::Observer"* %0 to void (%"class.password_manager::PasswordStore::Observer"*, %"class.std::__1::vector.217"*)***
  %5 = load void (%"class.password_manager::PasswordStore::Observer"*, %"class.std::__1::vector.217"*)**, void (%"class.password_manager::PasswordStore::Observer"*, %"class.std::__1::vector.217"*)*** %4, align 8
  %6 = load void (%"class.password_manager::PasswordStore::Observer"*, %"class.std::__1::vector.217"*)*, void (%"class.password_manager::PasswordStore::Observer"*, %"class.std::__1::vector.217"*)** %5, align 8
  tail call void %6(%"class.password_manager::PasswordStore::Observer"* %0, %"class.std::__1::vector.217"* dereferenceable(24) %2) #16
  ret void
}

; Function Attrs: nounwind ssp uwtable
define hidden void @_ZN16password_manager13PasswordStore35DatabaseInsecureCredentialsObserver30OnInsecureCredentialsChangedInEPS0_(%"class.password_manager::PasswordStore::DatabaseInsecureCredentialsObserver"*, %"class.password_manager::PasswordStore"* nocapture readnone) unnamed_addr #0 align 2 {
  %3 = bitcast %"class.password_manager::PasswordStore::DatabaseInsecureCredentialsObserver"* %0 to void (%"class.password_manager::PasswordStore::DatabaseInsecureCredentialsObserver"*)***
  %4 = load void (%"class.password_manager::PasswordStore::DatabaseInsecureCredentialsObserver"*)**, void (%"class.password_manager::PasswordStore::DatabaseInsecureCredentialsObserver"*)*** %3, align 8
  %5 = load void (%"class.password_manager::PasswordStore::DatabaseInsecureCredentialsObserver"*)*, void (%"class.password_manager::PasswordStore::DatabaseInsecureCredentialsObserver"*)** %4, align 8
  tail call void %5(%"class.password_manager::PasswordStore::DatabaseInsecureCredentialsObserver"* %0) #16
  ret void
}

; Function Attrs: nounwind ssp uwtable
define hidden void @_ZN16password_manager13PasswordStore17CheckReuseRequestC2EPNS_29PasswordReuseDetectorConsumerE(%"class.password_manager::PasswordStore::CheckReuseRequest"*, %"class.password_manager::PasswordReuseDetectorConsumer"*) unnamed_addr #0 align 2 {
  %3 = alloca %"class.base::internal::WeakReference", align 8
  %4 = alloca %"class.base::TimeTicks", align 8
  %5 = getelementptr inbounds %"class.password_manager::PasswordStore::CheckReuseRequest", %"class.password_manager::PasswordStore::CheckReuseRequest"* %0, i64 0, i32 0
  tail call void @_ZN16password_manager29PasswordReuseDetectorConsumerC2Ev(%"class.password_manager::PasswordReuseDetectorConsumer"* %5) #16
  %6 = getelementptr inbounds %"class.password_manager::PasswordStore::CheckReuseRequest", %"class.password_manager::PasswordStore::CheckReuseRequest"* %0, i64 0, i32 0, i32 0
  store i32 (...)** bitcast (i8** getelementptr inbounds ({ [5 x i8*] }, { [5 x i8*] }* @_ZTVN16password_manager13PasswordStore17CheckReuseRequestE, i64 0, inrange i32 0, i64 2) to i32 (...)**), i32 (...)*** %6, align 8
  %7 = tail call dereferenceable(8) %class.scoped_refptr* @_ZN4base25SequencedTaskRunnerHandle3GetEv() #16
  %8 = getelementptr inbounds %class.scoped_refptr, %class.scoped_refptr* %7, i64 0, i32 0
  %9 = load %"class.base::SequencedTaskRunner"*, %"class.base::SequencedTaskRunner"** %8, align 8
  %10 = getelementptr inbounds %"class.password_manager::PasswordStore::CheckReuseRequest", %"class.password_manager::PasswordStore::CheckReuseRequest"* %0, i64 0, i32 1, i32 0
  store %"class.base::SequencedTaskRunner"* %9, %"class.base::SequencedTaskRunner"** %10, align 8
  %11 = icmp eq %"class.base::SequencedTaskRunner"* %9, null
  br i1 %11, label %15, label %12

12:                                               ; preds = %2
  %13 = getelementptr inbounds %"class.base::SequencedTaskRunner", %"class.base::SequencedTaskRunner"* %9, i64 0, i32 0, i32 1, i32 0, i32 0, i32 0, i32 0, i32 0, i32 0, i32 0, i32 0
  %14 = atomicrmw add i32* %13, i32 1 monotonic
  br label %15

15:                                               ; preds = %2, %12
  %16 = getelementptr inbounds %"class.password_manager::PasswordReuseDetectorConsumer", %"class.password_manager::PasswordReuseDetectorConsumer"* %1, i64 0, i32 1
  %17 = bitcast %"class.base::internal::WeakReference"* %3 to i8*
  call void @llvm.lifetime.start.p0i8(i64 8, i8* nonnull %17) #16, !noalias !2
  %18 = getelementptr inbounds %"class.base::SupportsWeakPtr", %"class.base::SupportsWeakPtr"* %16, i64 0, i32 0
  call void @_ZNK4base8internal18WeakReferenceOwner6GetRefEv(%"class.base::internal::WeakReference"* nonnull sret %3, %"class.base::internal::WeakReferenceOwner"* %18) #16, !noalias !2
  %19 = getelementptr inbounds %"class.base::SupportsWeakPtr", %"class.base::SupportsWeakPtr"* %16, i64 -1
  %20 = getelementptr inbounds %"class.password_manager::PasswordStore::CheckReuseRequest", %"class.password_manager::PasswordStore::CheckReuseRequest"* %0, i64 0, i32 2, i32 0
  %21 = ptrtoint %"class.base::SupportsWeakPtr"* %19 to i64
  call void @_ZN4base8internal11WeakPtrBaseC2ERKNS0_13WeakReferenceEm(%"class.base::internal::WeakPtrBase"* %20, %"class.base::internal::WeakReference"* nonnull dereferenceable(8) %3, i64 %21) #16
  call void @_ZN4base8internal13WeakReferenceD1Ev(%"class.base::internal::WeakReference"* nonnull %3) #16
  call void @llvm.lifetime.end.p0i8(i64 8, i8* nonnull %17) #16, !noalias !2
  %22 = load i8, i8* getelementptr inbounds ([300 x %"struct.base::trace_event::TraceCategory"], [300 x %"struct.base::trace_event::TraceCategory"]* @_ZN4base11trace_event16CategoryRegistry11categories_E, i64 0, i64 94, i32 0), align 16
  %23 = and i8 %22, 25
  %24 = icmp eq i8 %23, 0
  br i1 %24, label %32, label %25, !prof !5

25:                                               ; preds = %15
  %26 = ptrtoint %"class.password_manager::PasswordStore::CheckReuseRequest"* %0 to i64
  %27 = call i32 @_ZN4base14PlatformThread9CurrentIdEv() #16
  %28 = bitcast %"class.base::TimeTicks"* %4 to i8*
  call void @llvm.lifetime.start.p0i8(i64 8, i8* nonnull %28) #16
  %29 = getelementptr inbounds %"class.base::TimeTicks", %"class.base::TimeTicks"* %4, i64 0, i32 0, i32 0
  %30 = call i64 @_ZN4base6subtle28TimeTicksNowIgnoringOverrideEv() #16
  store i64 %30, i64* %29, align 8
  %31 = call i64 @_ZN20trace_event_internal37AddTraceEventWithThreadIdAndTimestampEcPKhPKcS3_yyiRKN4base9TimeTicksEPNS4_11trace_event14TraceArgumentsEj(i8 signext 98, i8* getelementptr inbounds ([300 x %"struct.base::trace_event::TraceCategory"], [300 x %"struct.base::trace_event::TraceCategory"]* @_ZN4base11trace_event16CategoryRegistry11categories_E, i64 0, i64 94, i32 0), i8* getelementptr inbounds ([18 x i8], [18 x i8]* @.str, i64 0, i64 0), i8* null, i64 %26, i64 0, i32 %27, %"class.base::TimeTicks"* nonnull dereferenceable(8) %4, %"class.base::trace_event::TraceArguments"* null, i32 2048) #16
  call void @llvm.lifetime.end.p0i8(i64 8, i8* nonnull %28) #16
  br label %32

32:                                               ; preds = %15, %25
  ret void
}

declare void @_ZN16password_manager29PasswordReuseDetectorConsumerC2Ev(%"class.password_manager::PasswordReuseDetectorConsumer"*) unnamed_addr #1

declare dereferenceable(8) %class.scoped_refptr* @_ZN4base25SequencedTaskRunnerHandle3GetEv() local_unnamed_addr #1

; Function Attrs: argmemonly nounwind
declare void @llvm.lifetime.start.p0i8(i64 immarg, i8* nocapture) #2

; Function Attrs: argmemonly nounwind
declare void @llvm.lifetime.end.p0i8(i64 immarg, i8* nocapture) #2

; Function Attrs: nounwind ssp uwtable
define hidden void @_ZN16password_manager13PasswordStore17CheckReuseRequestD2Ev(%"class.password_manager::PasswordStore::CheckReuseRequest"*) unnamed_addr #0 align 2 {
  %2 = getelementptr inbounds %"class.password_manager::PasswordStore::CheckReuseRequest", %"class.password_manager::PasswordStore::CheckReuseRequest"* %0, i64 0, i32 0, i32 0
  store i32 (...)** bitcast (i8** getelementptr inbounds ({ [5 x i8*] }, { [5 x i8*] }* @_ZTVN16password_manager13PasswordStore17CheckReuseRequestE, i64 0, inrange i32 0, i64 2) to i32 (...)**), i32 (...)*** %2, align 8
  %3 = getelementptr inbounds %"class.password_manager::PasswordStore::CheckReuseRequest", %"class.password_manager::PasswordStore::CheckReuseRequest"* %0, i64 0, i32 2, i32 0
  tail call void @_ZN4base8internal11WeakPtrBaseD2Ev(%"class.base::internal::WeakPtrBase"* %3) #16
  %4 = getelementptr inbounds %"class.password_manager::PasswordStore::CheckReuseRequest", %"class.password_manager::PasswordStore::CheckReuseRequest"* %0, i64 0, i32 1, i32 0
  %5 = load %"class.base::SequencedTaskRunner"*, %"class.base::SequencedTaskRunner"** %4, align 8
  %6 = icmp eq %"class.base::SequencedTaskRunner"* %5, null
  br i1 %6, label %15, label %7

7:                                                ; preds = %1
  %8 = getelementptr inbounds %"class.base::SequencedTaskRunner", %"class.base::SequencedTaskRunner"* %5, i64 0, i32 0, i32 1
  %9 = getelementptr inbounds %"class.base::RefCountedThreadSafe.1", %"class.base::RefCountedThreadSafe.1"* %8, i64 0, i32 0, i32 0, i32 0, i32 0, i32 0, i32 0, i32 0, i32 0
  %10 = atomicrmw sub i32* %9, i32 1 acq_rel
  %11 = icmp eq i32 %10, 1
  br i1 %11, label %12, label %15

12:                                               ; preds = %7
  %13 = getelementptr inbounds %"class.base::RefCountedThreadSafe.1", %"class.base::RefCountedThreadSafe.1"* %8, i64 -2
  %14 = bitcast %"class.base::RefCountedThreadSafe.1"* %13 to %"class.base::TaskRunner"*
  tail call void @_ZN4base16TaskRunnerTraits8DestructEPKNS_10TaskRunnerE(%"class.base::TaskRunner"* %14) #16
  br label %15

15:                                               ; preds = %1, %7, %12
  %16 = getelementptr inbounds %"class.password_manager::PasswordStore::CheckReuseRequest", %"class.password_manager::PasswordStore::CheckReuseRequest"* %0, i64 0, i32 0
  tail call void @_ZN16password_manager29PasswordReuseDetectorConsumerD2Ev(%"class.password_manager::PasswordReuseDetectorConsumer"* %16) #16
  ret void
}

; Function Attrs: nounwind
declare void @_ZN16password_manager29PasswordReuseDetectorConsumerD2Ev(%"class.password_manager::PasswordReuseDetectorConsumer"*) unnamed_addr #3

; Function Attrs: nounwind ssp uwtable
define hidden void @_ZN16password_manager13PasswordStore17CheckReuseRequestD0Ev(%"class.password_manager::PasswordStore::CheckReuseRequest"*) unnamed_addr #0 align 2 {
  %2 = getelementptr inbounds %"class.password_manager::PasswordStore::CheckReuseRequest", %"class.password_manager::PasswordStore::CheckReuseRequest"* %0, i64 0, i32 0, i32 0
  store i32 (...)** bitcast (i8** getelementptr inbounds ({ [5 x i8*] }, { [5 x i8*] }* @_ZTVN16password_manager13PasswordStore17CheckReuseRequestE, i64 0, inrange i32 0, i64 2) to i32 (...)**), i32 (...)*** %2, align 8
  %3 = getelementptr inbounds %"class.password_manager::PasswordStore::CheckReuseRequest", %"class.password_manager::PasswordStore::CheckReuseRequest"* %0, i64 0, i32 2, i32 0
  tail call void @_ZN4base8internal11WeakPtrBaseD2Ev(%"class.base::internal::WeakPtrBase"* %3) #16
  %4 = getelementptr inbounds %"class.password_manager::PasswordStore::CheckReuseRequest", %"class.password_manager::PasswordStore::CheckReuseRequest"* %0, i64 0, i32 1, i32 0
  %5 = load %"class.base::SequencedTaskRunner"*, %"class.base::SequencedTaskRunner"** %4, align 8
  %6 = icmp eq %"class.base::SequencedTaskRunner"* %5, null
  br i1 %6, label %15, label %7

7:                                                ; preds = %1
  %8 = getelementptr inbounds %"class.base::SequencedTaskRunner", %"class.base::SequencedTaskRunner"* %5, i64 0, i32 0, i32 1
  %9 = getelementptr inbounds %"class.base::RefCountedThreadSafe.1", %"class.base::RefCountedThreadSafe.1"* %8, i64 0, i32 0, i32 0, i32 0, i32 0, i32 0, i32 0, i32 0, i32 0
  %10 = atomicrmw sub i32* %9, i32 1 acq_rel
  %11 = icmp eq i32 %10, 1
  br i1 %11, label %12, label %15

12:                                               ; preds = %7
  %13 = getelementptr inbounds %"class.base::RefCountedThreadSafe.1", %"class.base::RefCountedThreadSafe.1"* %8, i64 -2
  %14 = bitcast %"class.base::RefCountedThreadSafe.1"* %13 to %"class.base::TaskRunner"*
  tail call void @_ZN4base16TaskRunnerTraits8DestructEPKNS_10TaskRunnerE(%"class.base::TaskRunner"* %14) #16
  br label %15

15:                                               ; preds = %1, %7, %12
  %16 = getelementptr inbounds %"class.password_manager::PasswordStore::CheckReuseRequest", %"class.password_manager::PasswordStore::CheckReuseRequest"* %0, i64 0, i32 0
  tail call void @_ZN16password_manager29PasswordReuseDetectorConsumerD2Ev(%"class.password_manager::PasswordReuseDetectorConsumer"* %16) #16
  %17 = bitcast %"class.password_manager::PasswordStore::CheckReuseRequest"* %0 to i8*
  tail call void @_ZdlPv(i8* %17) #17
  ret void
}

; Function Attrs: nobuiltin nounwind
declare void @_ZdlPv(i8*) local_unnamed_addr #4

; Function Attrs: nounwind ssp uwtable
define hidden void @_ZN16password_manager13PasswordStore17CheckReuseRequest16OnReuseCheckDoneEbmN4absl8optionalINS_16PasswordHashDataEEERKNSt3__16vectorINS_24MatchingReusedCredentialENS6_9allocatorIS8_EEEEi(%"class.password_manager::PasswordStore::CheckReuseRequest"*, i1 zeroext, i64, %"class.absl::optional.313"*, %"class.std::__1::vector.306"* dereferenceable(24), i32) unnamed_addr #0 align 2 {
  %7 = alloca %"class.base::TimeTicks", align 8
  %8 = alloca i8, align 1
  %9 = alloca i64, align 8
  %10 = alloca i32, align 4
  %11 = alloca %"class.base::Location", align 8
  %12 = alloca %"class.base::OnceCallback.215", align 8
  %13 = zext i1 %1 to i8
  store i8 %13, i8* %8, align 1
  store i64 %2, i64* %9, align 8
  store i32 %5, i32* %10, align 4
  %14 = getelementptr inbounds %"class.password_manager::PasswordStore::CheckReuseRequest", %"class.password_manager::PasswordStore::CheckReuseRequest"* %0, i64 0, i32 1, i32 0
  %15 = bitcast %"class.base::SequencedTaskRunner"** %14 to %"class.base::TaskRunner"**
  %16 = load %"class.base::TaskRunner"*, %"class.base::TaskRunner"** %15, align 8
  %17 = bitcast %"class.base::Location"* %11 to i8*
  call void @llvm.lifetime.start.p0i8(i64 32, i8* nonnull %17) #16
  call void @_ZN4base8Location7CurrentEPKcS2_i(%"class.base::Location"* nonnull sret %11, i8* getelementptr inbounds ([17 x i8], [17 x i8]* @.str.1, i64 0, i64 0), i8* getelementptr inbounds ([65 x i8], [65 x i8]* @.str.2, i64 0, i64 0), i32 131) #16
  %18 = getelementptr inbounds %"class.password_manager::PasswordStore::CheckReuseRequest", %"class.password_manager::PasswordStore::CheckReuseRequest"* %0, i64 0, i32 2
  %19 = call i8* @_Znwm(i64 192) #17, !noalias !6
  %20 = bitcast i8* %19 to %"class.base::internal::BindStateBase"*
  call void @_ZN4base8internal13BindStateBaseC2EPFvvEPFvPKS1_EPFbS5_NS1_21CancellationQueryModeEE(%"class.base::internal::BindStateBase"* nonnull %20, void ()* bitcast (void (%"class.base::internal::BindStateBase"*)* @_ZN4base8internal7InvokerINS0_9BindStateIMN16password_manager29PasswordReuseDetectorConsumerEFvbmN4absl8optionalINS3_16PasswordHashDataEEERKNSt3__16vectorINS3_24MatchingReusedCredentialENS9_9allocatorISB_EEEEiEJNS_7WeakPtrIS4_EEbmS8_SE_iEEEFvvEE7RunOnceEPNS0_13BindStateBaseE to void ()*), void (%"class.base::internal::BindStateBase"*)* nonnull @_ZN4base8internal9BindStateIMN16password_manager29PasswordReuseDetectorConsumerEFvbmN4absl8optionalINS2_16PasswordHashDataEEERKNSt3__16vectorINS2_24MatchingReusedCredentialENS8_9allocatorISA_EEEEiEJNS_7WeakPtrIS3_EEbmS7_SD_iEE7DestroyEPKNS0_13BindStateBaseE, i1 (%"class.base::internal::BindStateBase"*, i32)* nonnull @_ZN4base8internal23QueryCancellationTraitsINS0_9BindStateIMN16password_manager29PasswordReuseDetectorConsumerEFvbmN4absl8optionalINS3_16PasswordHashDataEEERKNSt3__16vectorINS3_24MatchingReusedCredentialENS9_9allocatorISB_EEEEiEJNS_7WeakPtrIS4_EEbmS8_SE_iEEEEEbPKNS0_13BindStateBaseENSM_21CancellationQueryModeE) #16, !noalias !6
  %21 = getelementptr inbounds i8, i8* %19, i64 32
  %22 = bitcast i8* %21 to <2 x i64>*
  store <2 x i64> <i64 17, i64 0>, <2 x i64>* %22, align 8, !noalias !6
  %23 = getelementptr inbounds i8, i8* %19, i64 48
  %24 = bitcast i8* %23 to %"struct.std::__1::__tuple_impl"*
  call void @_ZNSt3__112__tuple_implINS_15__tuple_indicesIJLm0ELm1ELm2ELm3ELm4ELm5EEEEJN4base7WeakPtrIN16password_manager29PasswordReuseDetectorConsumerEEEbmN4absl8optionalINS5_16PasswordHashDataEEENS_6vectorINS5_24MatchingReusedCredentialENS_9allocatorISD_EEEEiEEC2IJLm0ELm1ELm2ELm3ELm4ELm5EEJS7_bmSB_SG_iEJEJEJRKS7_RbRmRSB_RKSG_RiEEENS1_IJXspT_EEEENS_13__tuple_typesIJDpT0_EEENS1_IJXspT1_EEEENSS_IJDpT2_EEEDpOT3_(%"struct.std::__1::__tuple_impl"* %24, %"class.base::WeakPtr.305"* dereferenceable(16) %18, i8* nonnull dereferenceable(1) %8, i64* nonnull dereferenceable(8) %9, %"class.absl::optional.313"* dereferenceable(80) %3, %"class.std::__1::vector.306"* dereferenceable(24) %4, i32* nonnull dereferenceable(4) %10) #16, !noalias !6
  %25 = bitcast %"class.base::OnceCallback.215"* %12 to i8**
  store i8* %19, i8** %25, align 8, !alias.scope !6
  %26 = call zeroext i1 @_ZN4base10TaskRunner8PostTaskERKNS_8LocationENS_12OnceCallbackIFvvEEE(%"class.base::TaskRunner"* %16, %"class.base::Location"* nonnull dereferenceable(32) %11, %"class.base::OnceCallback.215"* nonnull %12) #16
  %27 = getelementptr inbounds %"class.base::OnceCallback.215", %"class.base::OnceCallback.215"* %12, i64 0, i32 0
  call void @_ZN4base8internal12CallbackBaseD2Ev(%"class.base::internal::CallbackBase"* nonnull %27) #16
  call void @llvm.lifetime.end.p0i8(i64 32, i8* nonnull %17) #16
  %28 = load i8, i8* getelementptr inbounds ([300 x %"struct.base::trace_event::TraceCategory"], [300 x %"struct.base::trace_event::TraceCategory"]* @_ZN4base11trace_event16CategoryRegistry11categories_E, i64 0, i64 94, i32 0), align 16
  %29 = and i8 %28, 25
  %30 = icmp eq i8 %29, 0
  br i1 %30, label %38, label %31, !prof !5

31:                                               ; preds = %6
  %32 = ptrtoint %"class.password_manager::PasswordStore::CheckReuseRequest"* %0 to i64
  %33 = call i32 @_ZN4base14PlatformThread9CurrentIdEv() #16
  %34 = bitcast %"class.base::TimeTicks"* %7 to i8*
  call void @llvm.lifetime.start.p0i8(i64 8, i8* nonnull %34) #16
  %35 = getelementptr inbounds %"class.base::TimeTicks", %"class.base::TimeTicks"* %7, i64 0, i32 0, i32 0
  %36 = call i64 @_ZN4base6subtle28TimeTicksNowIgnoringOverrideEv() #16
  store i64 %36, i64* %35, align 8
  %37 = call i64 @_ZN20trace_event_internal37AddTraceEventWithThreadIdAndTimestampEcPKhPKcS3_yyiRKN4base9TimeTicksEPNS4_11trace_event14TraceArgumentsEj(i8 signext 101, i8* getelementptr inbounds ([300 x %"struct.base::trace_event::TraceCategory"], [300 x %"struct.base::trace_event::TraceCategory"]* @_ZN4base11trace_event16CategoryRegistry11categories_E, i64 0, i64 94, i32 0), i8* getelementptr inbounds ([18 x i8], [18 x i8]* @.str, i64 0, i64 0), i8* null, i64 %32, i64 0, i32 %33, %"class.base::TimeTicks"* nonnull dereferenceable(8) %7, %"class.base::trace_event::TraceArguments"* null, i32 2048) #16
  call void @llvm.lifetime.end.p0i8(i64 8, i8* nonnull %34) #16
  br label %38

38:                                               ; preds = %6, %31
  ret void
}

declare zeroext i1 @_ZN4base10TaskRunner8PostTaskERKNS_8LocationENS_12OnceCallbackIFvvEEE(%"class.base::TaskRunner"*, %"class.base::Location"* dereferenceable(32), %"class.base::OnceCallback.215"*) local_unnamed_addr #1

declare void @_ZN4base8Location7CurrentEPKcS2_i(%"class.base::Location"* sret, i8*, i8*, i32) local_unnamed_addr #1

; Function Attrs: nounwind
declare void @_ZN4base8internal12CallbackBaseD2Ev(%"class.base::internal::CallbackBase"*) unnamed_addr #3

; Function Attrs: nounwind ssp uwtable
define hidden void @_ZN16password_manager13PasswordStore10FormDigestC2ENS_12PasswordForm6SchemeERKNSt3__112basic_stringIcNS4_11char_traitsIcEENS4_9allocatorIcEEEERK4GURL(%"struct.password_manager::PasswordStore::FormDigest"*, i32, %"class.std::__1::basic_string"* nocapture readonly dereferenceable(24), %class.GURL* dereferenceable(120)) unnamed_addr #0 align 2 {
  %5 = getelementptr inbounds %"struct.password_manager::PasswordStore::FormDigest", %"struct.password_manager::PasswordStore::FormDigest"* %0, i64 0, i32 0
  store i32 %1, i32* %5, align 8
  %6 = getelementptr inbounds %"struct.password_manager::PasswordStore::FormDigest", %"struct.password_manager::PasswordStore::FormDigest"* %0, i64 0, i32 1
  %7 = bitcast %"class.std::__1::basic_string"* %2 to %"struct.std::__1::basic_string<char, std::__1::char_traits<char>, std::__1::allocator<char> >::__short"*
  %8 = getelementptr inbounds %"struct.std::__1::basic_string<char, std::__1::char_traits<char>, std::__1::allocator<char> >::__short", %"struct.std::__1::basic_string<char, std::__1::char_traits<char>, std::__1::allocator<char> >::__short"* %7, i64 0, i32 1, i32 0
  %9 = load i8, i8* %8, align 1
  %10 = icmp slt i8 %9, 0
  br i1 %10, label %14, label %11

11:                                               ; preds = %4
  %12 = bitcast %"class.std::__1::basic_string"* %6 to i8*
  %13 = bitcast %"class.std::__1::basic_string"* %2 to i8*
  tail call void @llvm.memcpy.p0i8.p0i8.i64(i8* align 8 %12, i8* align 8 %13, i64 24, i1 false) #16
  br label %19

14:                                               ; preds = %4
  %15 = getelementptr inbounds %"class.std::__1::basic_string", %"class.std::__1::basic_string"* %2, i64 0, i32 0, i32 0, i32 0, i32 0, i32 0, i32 0
  %16 = load i8*, i8** %15, align 8
  %17 = getelementptr inbounds %"class.std::__1::basic_string", %"class.std::__1::basic_string"* %2, i64 0, i32 0, i32 0, i32 0, i32 0, i32 0, i32 1
  %18 = load i64, i64* %17, align 8
  tail call void @_ZNSt3__112basic_stringIcNS_11char_traitsIcEENS_9allocatorIcEEE25__init_copy_ctor_externalEPKcm(%"class.std::__1::basic_string"* %6, i8* %16, i64 %18) #16
  br label %19

19:                                               ; preds = %11, %14
  %20 = getelementptr inbounds %"struct.password_manager::PasswordStore::FormDigest", %"struct.password_manager::PasswordStore::FormDigest"* %0, i64 0, i32 2
  tail call void @_ZN4GURLC1ERKS_(%class.GURL* %20, %class.GURL* dereferenceable(120) %3) #16
  ret void
}

declare void @_ZN4GURLC1ERKS_(%class.GURL*, %class.GURL* dereferenceable(120)) unnamed_addr #1

; Function Attrs: nounwind ssp uwtable
define hidden void @_ZN16password_manager13PasswordStore10FormDigestC2ERKNS_12PasswordFormE(%"struct.password_manager::PasswordStore::FormDigest"*, %"struct.password_manager::PasswordForm"* dereferenceable(1744)) unnamed_addr #0 align 2 {
  %3 = getelementptr inbounds %"struct.password_manager::PasswordStore::FormDigest", %"struct.password_manager::PasswordStore::FormDigest"* %0, i64 0, i32 0
  %4 = getelementptr inbounds %"struct.password_manager::PasswordForm", %"struct.password_manager::PasswordForm"* %1, i64 0, i32 0
  %5 = load i32, i32* %4, align 8
  store i32 %5, i32* %3, align 8
  %6 = getelementptr inbounds %"struct.password_manager::PasswordStore::FormDigest", %"struct.password_manager::PasswordStore::FormDigest"* %0, i64 0, i32 1
  %7 = getelementptr inbounds %"struct.password_manager::PasswordForm", %"struct.password_manager::PasswordForm"* %1, i64 0, i32 1
  %8 = bitcast %"class.std::__1::basic_string"* %7 to %"struct.std::__1::basic_string<char, std::__1::char_traits<char>, std::__1::allocator<char> >::__short"*
  %9 = getelementptr inbounds %"struct.std::__1::basic_string<char, std::__1::char_traits<char>, std::__1::allocator<char> >::__short", %"struct.std::__1::basic_string<char, std::__1::char_traits<char>, std::__1::allocator<char> >::__short"* %8, i64 0, i32 1, i32 0
  %10 = load i8, i8* %9, align 1
  %11 = icmp slt i8 %10, 0
  br i1 %11, label %15, label %12

12:                                               ; preds = %2
  %13 = bitcast %"class.std::__1::basic_string"* %6 to i8*
  %14 = bitcast %"class.std::__1::basic_string"* %7 to i8*
  tail call void @llvm.memcpy.p0i8.p0i8.i64(i8* align 8 %13, i8* align 8 %14, i64 24, i1 false) #16
  br label %20

15:                                               ; preds = %2
  %16 = getelementptr inbounds %"class.std::__1::basic_string", %"class.std::__1::basic_string"* %7, i64 0, i32 0, i32 0, i32 0, i32 0, i32 0, i32 0
  %17 = load i8*, i8** %16, align 8
  %18 = getelementptr inbounds %"struct.password_manager::PasswordForm", %"struct.password_manager::PasswordForm"* %1, i64 0, i32 1, i32 0, i32 0, i32 0, i32 0, i32 0, i32 1
  %19 = load i64, i64* %18, align 8
  tail call void @_ZNSt3__112basic_stringIcNS_11char_traitsIcEENS_9allocatorIcEEE25__init_copy_ctor_externalEPKcm(%"class.std::__1::basic_string"* %6, i8* %17, i64 %19) #16
  br label %20

20:                                               ; preds = %12, %15
  %21 = getelementptr inbounds %"struct.password_manager::PasswordStore::FormDigest", %"struct.password_manager::PasswordStore::FormDigest"* %0, i64 0, i32 2
  %22 = getelementptr inbounds %"struct.password_manager::PasswordForm", %"struct.password_manager::PasswordForm"* %1, i64 0, i32 2
  tail call void @_ZN4GURLC1ERKS_(%class.GURL* %21, %class.GURL* dereferenceable(120) %22) #16
  ret void
}

; Function Attrs: nounwind ssp uwtable
define hidden void @_ZN16password_manager13PasswordStore10FormDigestC2ERKN8autofill8FormDataE(%"struct.password_manager::PasswordStore::FormDigest"*, %"struct.autofill::FormData"* dereferenceable(688)) unnamed_addr #0 align 2 {
  %3 = alloca %class.GURL, align 8
  %4 = getelementptr inbounds %"struct.password_manager::PasswordStore::FormDigest", %"struct.password_manager::PasswordStore::FormDigest"* %0, i64 0, i32 0
  store i32 0, i32* %4, align 8
  %5 = getelementptr inbounds %"struct.password_manager::PasswordStore::FormDigest", %"struct.password_manager::PasswordStore::FormDigest"* %0, i64 0, i32 1
  %6 = bitcast %class.GURL* %3 to i8*
  call void @llvm.lifetime.start.p0i8(i64 120, i8* nonnull %6) #16
  %7 = getelementptr inbounds %"struct.autofill::FormData", %"struct.autofill::FormData"* %1, i64 0, i32 4
  call void @_ZNK4GURL9GetOriginEv(%class.GURL* nonnull sret %3, %class.GURL* %7) #16
  %8 = call dereferenceable(24) %"class.std::__1::basic_string"* @_ZNK4GURL4specEv(%class.GURL* nonnull %3) #16
  %9 = bitcast %"class.std::__1::basic_string"* %8 to %"struct.std::__1::basic_string<char, std::__1::char_traits<char>, std::__1::allocator<char> >::__short"*
  %10 = getelementptr inbounds %"struct.std::__1::basic_string<char, std::__1::char_traits<char>, std::__1::allocator<char> >::__short", %"struct.std::__1::basic_string<char, std::__1::char_traits<char>, std::__1::allocator<char> >::__short"* %9, i64 0, i32 1, i32 0
  %11 = load i8, i8* %10, align 1
  %12 = icmp slt i8 %11, 0
  br i1 %12, label %16, label %13

13:                                               ; preds = %2
  %14 = bitcast %"class.std::__1::basic_string"* %5 to i8*
  %15 = bitcast %"class.std::__1::basic_string"* %8 to i8*
  call void @llvm.memcpy.p0i8.p0i8.i64(i8* align 8 %14, i8* align 8 %15, i64 24, i1 false) #16
  br label %21

16:                                               ; preds = %2
  %17 = getelementptr inbounds %"class.std::__1::basic_string", %"class.std::__1::basic_string"* %8, i64 0, i32 0, i32 0, i32 0, i32 0, i32 0, i32 0
  %18 = load i8*, i8** %17, align 8
  %19 = getelementptr inbounds %"class.std::__1::basic_string", %"class.std::__1::basic_string"* %8, i64 0, i32 0, i32 0, i32 0, i32 0, i32 0, i32 1
  %20 = load i64, i64* %19, align 8
  call void @_ZNSt3__112basic_stringIcNS_11char_traitsIcEENS_9allocatorIcEEE25__init_copy_ctor_externalEPKcm(%"class.std::__1::basic_string"* %5, i8* %18, i64 %20) #16
  br label %21

21:                                               ; preds = %13, %16
  call void @_ZN4GURLD1Ev(%class.GURL* nonnull %3) #16
  call void @llvm.lifetime.end.p0i8(i64 120, i8* nonnull %6) #16
  %22 = getelementptr inbounds %"struct.password_manager::PasswordStore::FormDigest", %"struct.password_manager::PasswordStore::FormDigest"* %0, i64 0, i32 2
  call void @_ZN4GURLC1ERKS_(%class.GURL* %22, %class.GURL* dereferenceable(120) %7) #16
  ret void
}

declare void @_ZNK4GURL9GetOriginEv(%class.GURL* sret, %class.GURL*) local_unnamed_addr #1

declare dereferenceable(24) %"class.std::__1::basic_string"* @_ZNK4GURL4specEv(%class.GURL*) local_unnamed_addr #1

; Function Attrs: nounwind
declare void @_ZN4GURLD1Ev(%class.GURL*) unnamed_addr #3

; Function Attrs: nounwind ssp uwtable
define hidden void @_ZN16password_manager13PasswordStore10FormDigestC2ERKS1_(%"struct.password_manager::PasswordStore::FormDigest"*, %"struct.password_manager::PasswordStore::FormDigest"* dereferenceable(152)) unnamed_addr #0 align 2 {
  %3 = getelementptr inbounds %"struct.password_manager::PasswordStore::FormDigest", %"struct.password_manager::PasswordStore::FormDigest"* %0, i64 0, i32 0
  %4 = getelementptr inbounds %"struct.password_manager::PasswordStore::FormDigest", %"struct.password_manager::PasswordStore::FormDigest"* %1, i64 0, i32 0
  %5 = load i32, i32* %4, align 8
  store i32 %5, i32* %3, align 8
  %6 = getelementptr inbounds %"struct.password_manager::PasswordStore::FormDigest", %"struct.password_manager::PasswordStore::FormDigest"* %0, i64 0, i32 1
  %7 = getelementptr inbounds %"struct.password_manager::PasswordStore::FormDigest", %"struct.password_manager::PasswordStore::FormDigest"* %1, i64 0, i32 1
  %8 = bitcast %"class.std::__1::basic_string"* %7 to %"struct.std::__1::basic_string<char, std::__1::char_traits<char>, std::__1::allocator<char> >::__short"*
  %9 = getelementptr inbounds %"struct.std::__1::basic_string<char, std::__1::char_traits<char>, std::__1::allocator<char> >::__short", %"struct.std::__1::basic_string<char, std::__1::char_traits<char>, std::__1::allocator<char> >::__short"* %8, i64 0, i32 1, i32 0
  %10 = load i8, i8* %9, align 1
  %11 = icmp slt i8 %10, 0
  br i1 %11, label %15, label %12

12:                                               ; preds = %2
  %13 = bitcast %"class.std::__1::basic_string"* %6 to i8*
  %14 = bitcast %"class.std::__1::basic_string"* %7 to i8*
  tail call void @llvm.memcpy.p0i8.p0i8.i64(i8* align 8 %13, i8* align 8 %14, i64 24, i1 false) #16
  br label %20

15:                                               ; preds = %2
  %16 = getelementptr inbounds %"class.std::__1::basic_string", %"class.std::__1::basic_string"* %7, i64 0, i32 0, i32 0, i32 0, i32 0, i32 0, i32 0
  %17 = load i8*, i8** %16, align 8
  %18 = getelementptr inbounds %"struct.password_manager::PasswordStore::FormDigest", %"struct.password_manager::PasswordStore::FormDigest"* %1, i64 0, i32 1, i32 0, i32 0, i32 0, i32 0, i32 0, i32 1
  %19 = load i64, i64* %18, align 8
  tail call void @_ZNSt3__112basic_stringIcNS_11char_traitsIcEENS_9allocatorIcEEE25__init_copy_ctor_externalEPKcm(%"class.std::__1::basic_string"* %6, i8* %17, i64 %19) #16
  br label %20

20:                                               ; preds = %12, %15
  %21 = getelementptr inbounds %"struct.password_manager::PasswordStore::FormDigest", %"struct.password_manager::PasswordStore::FormDigest"* %0, i64 0, i32 2
  %22 = getelementptr inbounds %"struct.password_manager::PasswordStore::FormDigest", %"struct.password_manager::PasswordStore::FormDigest"* %1, i64 0, i32 2
  tail call void @_ZN4GURLC1ERKS_(%class.GURL* %21, %class.GURL* dereferenceable(120) %22) #16
  ret void
}

; Function Attrs: nounwind ssp uwtable
define hidden void @_ZN16password_manager13PasswordStore10FormDigestC2EOS1_(%"struct.password_manager::PasswordStore::FormDigest"*, %"struct.password_manager::PasswordStore::FormDigest"* dereferenceable(152)) unnamed_addr #0 align 2 {
  %3 = getelementptr inbounds %"struct.password_manager::PasswordStore::FormDigest", %"struct.password_manager::PasswordStore::FormDigest"* %0, i64 0, i32 0
  %4 = getelementptr inbounds %"struct.password_manager::PasswordStore::FormDigest", %"struct.password_manager::PasswordStore::FormDigest"* %1, i64 0, i32 0
  %5 = load i32, i32* %4, align 8
  store i32 %5, i32* %3, align 8
  %6 = getelementptr inbounds %"struct.password_manager::PasswordStore::FormDigest", %"struct.password_manager::PasswordStore::FormDigest"* %0, i64 0, i32 1
  %7 = getelementptr inbounds %"struct.password_manager::PasswordStore::FormDigest", %"struct.password_manager::PasswordStore::FormDigest"* %1, i64 0, i32 1
  %8 = bitcast %"class.std::__1::basic_string"* %6 to i8*
  %9 = bitcast %"class.std::__1::basic_string"* %7 to i8*
  tail call void @llvm.memcpy.p0i8.p0i8.i64(i8* align 8 %8, i8* align 8 %9, i64 24, i1 false) #16
  tail call void @llvm.memset.p0i8.i64(i8* align 8 %9, i8 0, i64 24, i1 false) #16
  %10 = getelementptr inbounds %"struct.password_manager::PasswordStore::FormDigest", %"struct.password_manager::PasswordStore::FormDigest"* %0, i64 0, i32 2
  %11 = getelementptr inbounds %"struct.password_manager::PasswordStore::FormDigest", %"struct.password_manager::PasswordStore::FormDigest"* %1, i64 0, i32 2
  tail call void @_ZN4GURLC1EOS_(%class.GURL* %10, %class.GURL* dereferenceable(120) %11) #16
  ret void
}

; Function Attrs: nounwind
declare void @_ZN4GURLC1EOS_(%class.GURL*, %class.GURL* dereferenceable(120)) unnamed_addr #3

; Function Attrs: nounwind ssp uwtable
define hidden dereferenceable(152) %"struct.password_manager::PasswordStore::FormDigest"* @_ZN16password_manager13PasswordStore10FormDigestaSERKS1_(%"struct.password_manager::PasswordStore::FormDigest"* returned, %"struct.password_manager::PasswordStore::FormDigest"* dereferenceable(152)) local_unnamed_addr #0 align 2 {
  %3 = getelementptr inbounds %"struct.password_manager::PasswordStore::FormDigest", %"struct.password_manager::PasswordStore::FormDigest"* %1, i64 0, i32 0
  %4 = load i32, i32* %3, align 8
  %5 = getelementptr inbounds %"struct.password_manager::PasswordStore::FormDigest", %"struct.password_manager::PasswordStore::FormDigest"* %0, i64 0, i32 0
  store i32 %4, i32* %5, align 8
  %6 = getelementptr inbounds %"struct.password_manager::PasswordStore::FormDigest", %"struct.password_manager::PasswordStore::FormDigest"* %0, i64 0, i32 1
  %7 = getelementptr inbounds %"struct.password_manager::PasswordStore::FormDigest", %"struct.password_manager::PasswordStore::FormDigest"* %1, i64 0, i32 1
  %8 = icmp eq %"struct.password_manager::PasswordStore::FormDigest"* %0, %1
  br i1 %8, label %38, label %9

9:                                                ; preds = %2
  %10 = bitcast %"class.std::__1::basic_string"* %6 to %"struct.std::__1::basic_string<char, std::__1::char_traits<char>, std::__1::allocator<char> >::__short"*
  %11 = getelementptr inbounds %"struct.std::__1::basic_string<char, std::__1::char_traits<char>, std::__1::allocator<char> >::__short", %"struct.std::__1::basic_string<char, std::__1::char_traits<char>, std::__1::allocator<char> >::__short"* %10, i64 0, i32 1, i32 0
  %12 = load i8, i8* %11, align 1
  %13 = icmp slt i8 %12, 0
  %14 = bitcast %"class.std::__1::basic_string"* %7 to %"struct.std::__1::basic_string<char, std::__1::char_traits<char>, std::__1::allocator<char> >::__short"*
  %15 = getelementptr inbounds %"struct.std::__1::basic_string<char, std::__1::char_traits<char>, std::__1::allocator<char> >::__short", %"struct.std::__1::basic_string<char, std::__1::char_traits<char>, std::__1::allocator<char> >::__short"* %14, i64 0, i32 1, i32 0
  %16 = load i8, i8* %15, align 1
  %17 = icmp slt i8 %16, 0
  br i1 %13, label %28, label %18

18:                                               ; preds = %9
  br i1 %17, label %22, label %19

19:                                               ; preds = %18
  %20 = bitcast %"class.std::__1::basic_string"* %6 to i8*
  %21 = bitcast %"class.std::__1::basic_string"* %7 to i8*
  tail call void @llvm.memcpy.p0i8.p0i8.i64(i8* align 8 %20, i8* align 8 %21, i64 24, i1 false) #16
  br label %38

22:                                               ; preds = %18
  %23 = getelementptr inbounds %"class.std::__1::basic_string", %"class.std::__1::basic_string"* %7, i64 0, i32 0, i32 0, i32 0, i32 0, i32 0, i32 0
  %24 = load i8*, i8** %23, align 8
  %25 = getelementptr inbounds %"struct.password_manager::PasswordStore::FormDigest", %"struct.password_manager::PasswordStore::FormDigest"* %1, i64 0, i32 1, i32 0, i32 0, i32 0, i32 0, i32 0, i32 1
  %26 = load i64, i64* %25, align 8
  %27 = tail call dereferenceable(24) %"class.std::__1::basic_string"* @_ZNSt3__112basic_stringIcNS_11char_traitsIcEENS_9allocatorIcEEE17__assign_no_aliasILb1EEERS5_PKcm(%"class.std::__1::basic_string"* %6, i8* %24, i64 %26) #16
  br label %38

28:                                               ; preds = %9
  %29 = getelementptr inbounds %"class.std::__1::basic_string", %"class.std::__1::basic_string"* %7, i64 0, i32 0, i32 0, i32 0, i32 0, i32 0, i32 0
  %30 = load i8*, i8** %29, align 8
  %31 = getelementptr inbounds %"struct.password_manager::PasswordStore::FormDigest", %"struct.password_manager::PasswordStore::FormDigest"* %1, i64 0, i32 1, i32 0, i32 0, i32 0, i32 0, i32 0, i32 1
  %32 = load i64, i64* %31, align 8
  %33 = bitcast %"class.std::__1::basic_string"* %7 to i8*
  %34 = zext i8 %16 to i64
  %35 = select i1 %17, i8* %30, i8* %33
  %36 = select i1 %17, i64 %32, i64 %34
  %37 = tail call dereferenceable(24) %"class.std::__1::basic_string"* @_ZNSt3__112basic_stringIcNS_11char_traitsIcEENS_9allocatorIcEEE17__assign_no_aliasILb0EEERS5_PKcm(%"class.std::__1::basic_string"* %6, i8* %35, i64 %36) #16
  br label %38

38:                                               ; preds = %2, %19, %22, %28
  %39 = getelementptr inbounds %"struct.password_manager::PasswordStore::FormDigest", %"struct.password_manager::PasswordStore::FormDigest"* %0, i64 0, i32 2
  %40 = getelementptr inbounds %"struct.password_manager::PasswordStore::FormDigest", %"struct.password_manager::PasswordStore::FormDigest"* %1, i64 0, i32 2
  %41 = tail call dereferenceable(120) %class.GURL* @_ZN4GURLaSERKS_(%class.GURL* %39, %class.GURL* dereferenceable(120) %40) #16
  ret %"struct.password_manager::PasswordStore::FormDigest"* %0
}

declare dereferenceable(120) %class.GURL* @_ZN4GURLaSERKS_(%class.GURL*, %class.GURL* dereferenceable(120)) local_unnamed_addr #1

; Function Attrs: nounwind ssp uwtable
define hidden dereferenceable(152) %"struct.password_manager::PasswordStore::FormDigest"* @_ZN16password_manager13PasswordStore10FormDigestaSEOS1_(%"struct.password_manager::PasswordStore::FormDigest"* returned, %"struct.password_manager::PasswordStore::FormDigest"* dereferenceable(152)) local_unnamed_addr #0 align 2 {
  %3 = getelementptr inbounds %"struct.password_manager::PasswordStore::FormDigest", %"struct.password_manager::PasswordStore::FormDigest"* %1, i64 0, i32 0
  %4 = load i32, i32* %3, align 8
  %5 = getelementptr inbounds %"struct.password_manager::PasswordStore::FormDigest", %"struct.password_manager::PasswordStore::FormDigest"* %0, i64 0, i32 0
  store i32 %4, i32* %5, align 8
  %6 = getelementptr inbounds %"struct.password_manager::PasswordStore::FormDigest", %"struct.password_manager::PasswordStore::FormDigest"* %0, i64 0, i32 1
  %7 = getelementptr inbounds %"struct.password_manager::PasswordStore::FormDigest", %"struct.password_manager::PasswordStore::FormDigest"* %1, i64 0, i32 1
  %8 = bitcast %"class.std::__1::basic_string"* %6 to %"struct.std::__1::basic_string<char, std::__1::char_traits<char>, std::__1::allocator<char> >::__short"*
  %9 = getelementptr inbounds %"struct.std::__1::basic_string<char, std::__1::char_traits<char>, std::__1::allocator<char> >::__short", %"struct.std::__1::basic_string<char, std::__1::char_traits<char>, std::__1::allocator<char> >::__short"* %8, i64 0, i32 1, i32 0
  %10 = load i8, i8* %9, align 1
  %11 = icmp slt i8 %10, 0
  br i1 %11, label %12, label %15

12:                                               ; preds = %2
  %13 = getelementptr inbounds %"class.std::__1::basic_string", %"class.std::__1::basic_string"* %6, i64 0, i32 0, i32 0, i32 0, i32 0, i32 0, i32 0
  %14 = load i8*, i8** %13, align 8
  tail call void @_ZdlPv(i8* %14) #17
  br label %15

15:                                               ; preds = %2, %12
  %16 = bitcast %"class.std::__1::basic_string"* %6 to i8*
  %17 = bitcast %"class.std::__1::basic_string"* %7 to i8*
  tail call void @llvm.memcpy.p0i8.p0i8.i64(i8* align 8 %16, i8* align 8 %17, i64 24, i1 false) #16
  %18 = bitcast %"class.std::__1::basic_string"* %7 to %"struct.std::__1::basic_string<char, std::__1::char_traits<char>, std::__1::allocator<char> >::__short"*
  %19 = getelementptr inbounds %"struct.std::__1::basic_string<char, std::__1::char_traits<char>, std::__1::allocator<char> >::__short", %"struct.std::__1::basic_string<char, std::__1::char_traits<char>, std::__1::allocator<char> >::__short"* %18, i64 0, i32 1, i32 0
  store i8 0, i8* %19, align 1
  store i8 0, i8* %17, align 1
  %20 = getelementptr inbounds %"struct.password_manager::PasswordStore::FormDigest", %"struct.password_manager::PasswordStore::FormDigest"* %0, i64 0, i32 2
  %21 = getelementptr inbounds %"struct.password_manager::PasswordStore::FormDigest", %"struct.password_manager::PasswordStore::FormDigest"* %1, i64 0, i32 2
  %22 = tail call dereferenceable(120) %class.GURL* @_ZN4GURLaSEOS_(%class.GURL* %20, %class.GURL* dereferenceable(120) %21) #16
  ret %"struct.password_manager::PasswordStore::FormDigest"* %0
}

; Function Attrs: nounwind
declare dereferenceable(120) %class.GURL* @_ZN4GURLaSEOS_(%class.GURL*, %class.GURL* dereferenceable(120)) local_unnamed_addr #3

; Function Attrs: nounwind ssp uwtable
define hidden zeroext i1 @_ZNK16password_manager13PasswordStore10FormDigesteqERKS1_(%"struct.password_manager::PasswordStore::FormDigest"*, %"struct.password_manager::PasswordStore::FormDigest"* dereferenceable(152)) local_unnamed_addr #0 align 2 {
  %3 = getelementptr inbounds %"struct.password_manager::PasswordStore::FormDigest", %"struct.password_manager::PasswordStore::FormDigest"* %0, i64 0, i32 0
  %4 = load i32, i32* %3, align 8
  %5 = getelementptr inbounds %"struct.password_manager::PasswordStore::FormDigest", %"struct.password_manager::PasswordStore::FormDigest"* %1, i64 0, i32 0
  %6 = load i32, i32* %5, align 8
  %7 = icmp eq i32 %4, %6
  br i1 %7, label %8, label %64

8:                                                ; preds = %2
  %9 = getelementptr inbounds %"struct.password_manager::PasswordStore::FormDigest", %"struct.password_manager::PasswordStore::FormDigest"* %0, i64 0, i32 1
  %10 = getelementptr inbounds %"struct.password_manager::PasswordStore::FormDigest", %"struct.password_manager::PasswordStore::FormDigest"* %1, i64 0, i32 1
  %11 = bitcast %"class.std::__1::basic_string"* %9 to %"struct.std::__1::basic_string<char, std::__1::char_traits<char>, std::__1::allocator<char> >::__short"*
  %12 = getelementptr inbounds %"struct.std::__1::basic_string<char, std::__1::char_traits<char>, std::__1::allocator<char> >::__short", %"struct.std::__1::basic_string<char, std::__1::char_traits<char>, std::__1::allocator<char> >::__short"* %11, i64 0, i32 1, i32 0
  %13 = load i8, i8* %12, align 1
  %14 = icmp slt i8 %13, 0
  %15 = getelementptr inbounds %"struct.password_manager::PasswordStore::FormDigest", %"struct.password_manager::PasswordStore::FormDigest"* %0, i64 0, i32 1, i32 0, i32 0, i32 0, i32 0, i32 0, i32 1
  %16 = load i64, i64* %15, align 8
  %17 = zext i8 %13 to i64
  %18 = select i1 %14, i64 %16, i64 %17
  %19 = bitcast %"class.std::__1::basic_string"* %10 to %"struct.std::__1::basic_string<char, std::__1::char_traits<char>, std::__1::allocator<char> >::__short"*
  %20 = getelementptr inbounds %"struct.std::__1::basic_string<char, std::__1::char_traits<char>, std::__1::allocator<char> >::__short", %"struct.std::__1::basic_string<char, std::__1::char_traits<char>, std::__1::allocator<char> >::__short"* %19, i64 0, i32 1, i32 0
  %21 = load i8, i8* %20, align 1
  %22 = icmp slt i8 %21, 0
  %23 = getelementptr inbounds %"struct.password_manager::PasswordStore::FormDigest", %"struct.password_manager::PasswordStore::FormDigest"* %1, i64 0, i32 1, i32 0, i32 0, i32 0, i32 0, i32 0, i32 1
  %24 = load i64, i64* %23, align 8
  %25 = zext i8 %21 to i64
  %26 = select i1 %22, i64 %24, i64 %25
  %27 = icmp eq i64 %18, %26
  br i1 %27, label %28, label %64

28:                                               ; preds = %8
  %29 = getelementptr inbounds %"class.std::__1::basic_string", %"class.std::__1::basic_string"* %9, i64 0, i32 0, i32 0, i32 0, i32 0, i32 0, i32 0
  %30 = load i8*, i8** %29, align 8
  %31 = bitcast %"class.std::__1::basic_string"* %9 to i8*
  %32 = select i1 %14, i8* %30, i8* %31
  %33 = getelementptr inbounds %"class.std::__1::basic_string", %"class.std::__1::basic_string"* %10, i64 0, i32 0, i32 0, i32 0, i32 0, i32 0, i32 0
  %34 = load i8*, i8** %33, align 8
  %35 = bitcast %"class.std::__1::basic_string"* %10 to i8*
  %36 = select i1 %22, i8* %34, i8* %35
  %37 = icmp eq i64 %18, 0
  br i1 %14, label %44, label %38

38:                                               ; preds = %28
  br i1 %37, label %60, label %39

39:                                               ; preds = %38
  %40 = ptrtoint i8* %30 to i64
  %41 = trunc i64 %40 to i8
  %42 = load i8, i8* %36, align 1
  %43 = icmp eq i8 %42, %41
  br i1 %43, label %45, label %64

44:                                               ; preds = %28
  br i1 %37, label %60, label %57

45:                                               ; preds = %39, %52
  %46 = phi i64 [ %49, %52 ], [ %17, %39 ]
  %47 = phi i8* [ %50, %52 ], [ %31, %39 ]
  %48 = phi i8* [ %53, %52 ], [ %36, %39 ]
  %49 = add i64 %46, -1
  %50 = getelementptr inbounds i8, i8* %47, i64 1
  %51 = icmp eq i64 %49, 0
  br i1 %51, label %60, label %52

52:                                               ; preds = %45
  %53 = getelementptr inbounds i8, i8* %48, i64 1
  %54 = load i8, i8* %50, align 1
  %55 = load i8, i8* %53, align 1
  %56 = icmp eq i8 %54, %55
  br i1 %56, label %45, label %64

57:                                               ; preds = %44
  %58 = tail call i32 @bcmp(i8* %32, i8* %36, i64 %18) #16
  %59 = icmp eq i32 %58, 0
  br i1 %59, label %60, label %64

60:                                               ; preds = %45, %38, %44, %57
  %61 = getelementptr inbounds %"struct.password_manager::PasswordStore::FormDigest", %"struct.password_manager::PasswordStore::FormDigest"* %0, i64 0, i32 2
  %62 = getelementptr inbounds %"struct.password_manager::PasswordStore::FormDigest", %"struct.password_manager::PasswordStore::FormDigest"* %1, i64 0, i32 2
  %63 = tail call zeroext i1 @_ZeqRK4GURLS1_(%class.GURL* dereferenceable(120) %61, %class.GURL* dereferenceable(120) %62) #16
  br label %64

64:                                               ; preds = %52, %39, %8, %60, %57, %2
  %65 = phi i1 [ false, %57 ], [ false, %2 ], [ %63, %60 ], [ false, %8 ], [ false, %39 ], [ false, %52 ]
  ret i1 %65
}

declare zeroext i1 @_ZeqRK4GURLS1_(%class.GURL* dereferenceable(120), %class.GURL* dereferenceable(120)) local_unnamed_addr #1

; Function Attrs: nounwind ssp uwtable
define hidden zeroext i1 @_ZNK16password_manager13PasswordStore10FormDigestneERKS1_(%"struct.password_manager::PasswordStore::FormDigest"*, %"struct.password_manager::PasswordStore::FormDigest"* dereferenceable(152)) local_unnamed_addr #0 align 2 {
  %3 = getelementptr inbounds %"struct.password_manager::PasswordStore::FormDigest", %"struct.password_manager::PasswordStore::FormDigest"* %0, i64 0, i32 0
  %4 = load i32, i32* %3, align 8
  %5 = getelementptr inbounds %"struct.password_manager::PasswordStore::FormDigest", %"struct.password_manager::PasswordStore::FormDigest"* %1, i64 0, i32 0
  %6 = load i32, i32* %5, align 8
  %7 = icmp eq i32 %4, %6
  br i1 %7, label %8, label %65

8:                                                ; preds = %2
  %9 = getelementptr inbounds %"struct.password_manager::PasswordStore::FormDigest", %"struct.password_manager::PasswordStore::FormDigest"* %0, i64 0, i32 1
  %10 = getelementptr inbounds %"struct.password_manager::PasswordStore::FormDigest", %"struct.password_manager::PasswordStore::FormDigest"* %1, i64 0, i32 1
  %11 = bitcast %"class.std::__1::basic_string"* %9 to %"struct.std::__1::basic_string<char, std::__1::char_traits<char>, std::__1::allocator<char> >::__short"*
  %12 = getelementptr inbounds %"struct.std::__1::basic_string<char, std::__1::char_traits<char>, std::__1::allocator<char> >::__short", %"struct.std::__1::basic_string<char, std::__1::char_traits<char>, std::__1::allocator<char> >::__short"* %11, i64 0, i32 1, i32 0
  %13 = load i8, i8* %12, align 1
  %14 = icmp slt i8 %13, 0
  %15 = getelementptr inbounds %"struct.password_manager::PasswordStore::FormDigest", %"struct.password_manager::PasswordStore::FormDigest"* %0, i64 0, i32 1, i32 0, i32 0, i32 0, i32 0, i32 0, i32 1
  %16 = load i64, i64* %15, align 8
  %17 = zext i8 %13 to i64
  %18 = select i1 %14, i64 %16, i64 %17
  %19 = bitcast %"class.std::__1::basic_string"* %10 to %"struct.std::__1::basic_string<char, std::__1::char_traits<char>, std::__1::allocator<char> >::__short"*
  %20 = getelementptr inbounds %"struct.std::__1::basic_string<char, std::__1::char_traits<char>, std::__1::allocator<char> >::__short", %"struct.std::__1::basic_string<char, std::__1::char_traits<char>, std::__1::allocator<char> >::__short"* %19, i64 0, i32 1, i32 0
  %21 = load i8, i8* %20, align 1
  %22 = icmp slt i8 %21, 0
  %23 = getelementptr inbounds %"struct.password_manager::PasswordStore::FormDigest", %"struct.password_manager::PasswordStore::FormDigest"* %1, i64 0, i32 1, i32 0, i32 0, i32 0, i32 0, i32 0, i32 1
  %24 = load i64, i64* %23, align 8
  %25 = zext i8 %21 to i64
  %26 = select i1 %22, i64 %24, i64 %25
  %27 = icmp eq i64 %18, %26
  br i1 %27, label %28, label %65

28:                                               ; preds = %8
  %29 = getelementptr inbounds %"class.std::__1::basic_string", %"class.std::__1::basic_string"* %9, i64 0, i32 0, i32 0, i32 0, i32 0, i32 0, i32 0
  %30 = load i8*, i8** %29, align 8
  %31 = bitcast %"class.std::__1::basic_string"* %9 to i8*
  %32 = select i1 %14, i8* %30, i8* %31
  %33 = getelementptr inbounds %"class.std::__1::basic_string", %"class.std::__1::basic_string"* %10, i64 0, i32 0, i32 0, i32 0, i32 0, i32 0, i32 0
  %34 = load i8*, i8** %33, align 8
  %35 = bitcast %"class.std::__1::basic_string"* %10 to i8*
  %36 = select i1 %22, i8* %34, i8* %35
  %37 = icmp eq i64 %18, 0
  br i1 %14, label %44, label %38

38:                                               ; preds = %28
  br i1 %37, label %60, label %39

39:                                               ; preds = %38
  %40 = ptrtoint i8* %30 to i64
  %41 = trunc i64 %40 to i8
  %42 = load i8, i8* %36, align 1
  %43 = icmp eq i8 %42, %41
  br i1 %43, label %45, label %65

44:                                               ; preds = %28
  br i1 %37, label %60, label %57

45:                                               ; preds = %39, %52
  %46 = phi i64 [ %49, %52 ], [ %17, %39 ]
  %47 = phi i8* [ %50, %52 ], [ %31, %39 ]
  %48 = phi i8* [ %53, %52 ], [ %36, %39 ]
  %49 = add i64 %46, -1
  %50 = getelementptr inbounds i8, i8* %47, i64 1
  %51 = icmp eq i64 %49, 0
  br i1 %51, label %60, label %52

52:                                               ; preds = %45
  %53 = getelementptr inbounds i8, i8* %48, i64 1
  %54 = load i8, i8* %50, align 1
  %55 = load i8, i8* %53, align 1
  %56 = icmp eq i8 %54, %55
  br i1 %56, label %45, label %65

57:                                               ; preds = %44
  %58 = tail call i32 @bcmp(i8* %32, i8* %36, i64 %18) #16
  %59 = icmp eq i32 %58, 0
  br i1 %59, label %60, label %65

60:                                               ; preds = %45, %57, %44, %38
  %61 = getelementptr inbounds %"struct.password_manager::PasswordStore::FormDigest", %"struct.password_manager::PasswordStore::FormDigest"* %0, i64 0, i32 2
  %62 = getelementptr inbounds %"struct.password_manager::PasswordStore::FormDigest", %"struct.password_manager::PasswordStore::FormDigest"* %1, i64 0, i32 2
  %63 = tail call zeroext i1 @_ZeqRK4GURLS1_(%class.GURL* dereferenceable(120) %61, %class.GURL* dereferenceable(120) %62) #16
  %64 = xor i1 %63, true
  br label %65

65:                                               ; preds = %52, %39, %2, %8, %57, %60
  %66 = phi i1 [ true, %57 ], [ true, %2 ], [ %64, %60 ], [ true, %8 ], [ true, %39 ], [ true, %52 ]
  ret i1 %66
}

; Function Attrs: nounwind ssp uwtable
define hidden void @_ZN16password_manager13PasswordStoreC2Ev(%"class.password_manager::PasswordStore"*) unnamed_addr #0 align 2 {
  %2 = getelementptr inbounds %"class.password_manager::PasswordStore", %"class.password_manager::PasswordStore"* %0, i64 0, i32 0
  tail call void @_ZN16password_manager17PasswordStoreSyncC2Ev(%"class.password_manager::PasswordStoreSync"* %2) #16
  %3 = getelementptr inbounds %"class.password_manager::PasswordStore", %"class.password_manager::PasswordStore"* %0, i64 0, i32 1
  tail call void @_ZN22RefcountedKeyedServiceC2Ev(%class.RefcountedKeyedService* %3) #16
  %4 = bitcast %"class.password_manager::PasswordStore"* %0 to <2 x i32 (...)**>*
  store <2 x i32 (...)**> <i32 (...)** bitcast (i8** getelementptr inbounds ({ [70 x i8*], [5 x i8*] }, { [70 x i8*], [5 x i8*] }* @_ZTVN16password_manager13PasswordStoreE, i64 0, inrange i32 0, i64 2) to i32 (...)**), i32 (...)** bitcast (i8** getelementptr inbounds ({ [70 x i8*], [5 x i8*] }, { [70 x i8*], [5 x i8*] }* @_ZTVN16password_manager13PasswordStoreE, i64 0, inrange i32 1, i64 2) to i32 (...)**)>, <2 x i32 (...)**>* %4, align 8
  %5 = getelementptr inbounds %"class.password_manager::PasswordStore", %"class.password_manager::PasswordStore"* %0, i64 0, i32 2, i32 0
  %6 = bitcast %"class.base::SequencedTaskRunner"** %5 to i8*
  call void @llvm.memset.p0i8.i64(i8* align 8 %6, i8 0, i64 16, i1 false)
  %7 = tail call i8* @_Znwm(i64 104) #17
  %8 = getelementptr inbounds i8, i8* %7, i64 8
  %9 = bitcast i8* %8 to i32*
  %10 = bitcast i8* %7 to i32 (...)***
  call void @llvm.memset.p0i8.i64(i8* nonnull align 16 %7, i8 0, i64 104, i1 false)
  store i32 (...)** bitcast (i8** getelementptr inbounds ({ [4 x i8*] }, { [4 x i8*] }* @_ZTVN4base22ObserverListThreadSafeIN16password_manager13PasswordStore8ObserverEEE, i64 0, inrange i32 0, i64 2) to i32 (...)**), i32 (...)*** %10, align 8
  %11 = getelementptr inbounds i8, i8* %7, i64 12
  %12 = bitcast i8* %11 to i32*
  store i32 0, i32* %12, align 4
  %13 = getelementptr inbounds i8, i8* %7, i64 16
  %14 = bitcast i8* %13 to %"class.base::internal::LockImpl"*
  tail call void @_ZN4base8internal8LockImplC1Ev(%"class.base::internal::LockImpl"* %14) #16
  %15 = getelementptr inbounds i8, i8* %7, i64 56
  %16 = getelementptr inbounds i8, i8* %7, i64 96
  %17 = bitcast i8* %16 to i32*
  tail call void @llvm.memset.p0i8.i64(i8* align 8 %15, i8 0, i64 40, i1 false) #16
  store i32 1065353216, i32* %17, align 4
  %18 = getelementptr inbounds %"class.password_manager::PasswordStore", %"class.password_manager::PasswordStore"* %0, i64 0, i32 4, i32 0
  %19 = bitcast %"class.base::ObserverListThreadSafe"** %18 to i8**
  store i8* %7, i8** %19, align 8
  %20 = atomicrmw add i32* %9, i32 1 monotonic
  %21 = tail call i8* @_Znwm(i64 104) #17
  %22 = getelementptr inbounds i8, i8* %21, i64 8
  %23 = bitcast i8* %22 to i32*
  %24 = bitcast i8* %21 to i32 (...)***
  tail call void @llvm.memset.p0i8.i64(i8* nonnull align 16 %21, i8 0, i64 104, i1 false) #16
  store i32 (...)** bitcast (i8** getelementptr inbounds ({ [4 x i8*] }, { [4 x i8*] }* @_ZTVN4base22ObserverListThreadSafeIN16password_manager13PasswordStore35DatabaseInsecureCredentialsObserverEEE, i64 0, inrange i32 0, i64 2) to i32 (...)**), i32 (...)*** %24, align 8
  %25 = getelementptr inbounds i8, i8* %21, i64 12
  %26 = bitcast i8* %25 to i32*
  store i32 0, i32* %26, align 4
  %27 = getelementptr inbounds i8, i8* %21, i64 16
  %28 = bitcast i8* %27 to %"class.base::internal::LockImpl"*
  tail call void @_ZN4base8internal8LockImplC1Ev(%"class.base::internal::LockImpl"* %28) #16
  %29 = getelementptr inbounds i8, i8* %21, i64 56
  %30 = getelementptr inbounds i8, i8* %21, i64 96
  %31 = bitcast i8* %30 to i32*
  tail call void @llvm.memset.p0i8.i64(i8* align 8 %29, i8 0, i64 40, i1 false) #16
  store i32 1065353216, i32* %31, align 4
  %32 = atomicrmw add i32* %23, i32 1 monotonic
  %33 = getelementptr inbounds %"class.password_manager::PasswordStore", %"class.password_manager::PasswordStore"* %0, i64 0, i32 5, i32 0
  %34 = bitcast %"class.base::ObserverListThreadSafe.19"** %33 to i8**
  store i8* %21, i8** %34, align 8
  %35 = getelementptr inbounds %"class.password_manager::PasswordStore", %"class.password_manager::PasswordStore"* %0, i64 0, i32 6
  %36 = getelementptr inbounds %"class.password_manager::PasswordStore", %"class.password_manager::PasswordStore"* %0, i64 0, i32 12
  %37 = bitcast %"class.std::__1::unique_ptr.48"* %35 to i8*
  call void @llvm.memset.p0i8.i64(i8* align 8 %37, i8 0, i64 48, i1 false)
  tail call void @_ZN16password_manager19HashPasswordManagerC1Ev(%"class.password_manager::HashPasswordManager"* %36) #16
  %38 = getelementptr inbounds %"class.password_manager::PasswordStore", %"class.password_manager::PasswordStore"* %0, i64 0, i32 13
  %39 = getelementptr inbounds %"class.password_manager::PasswordStore", %"class.password_manager::PasswordStore"* %0, i64 0, i32 15
  %40 = getelementptr inbounds %"class.password_manager::PasswordStore", %"class.password_manager::PasswordStore"* %0, i64 0, i32 15, i32 1, i32 0
  %41 = ptrtoint %"class.base::internal::CancelableCallbackImpl"* %39 to i64
  %42 = bitcast %"class.std::__1::unique_ptr.202"* %38 to i8*
  call void @llvm.memset.p0i8.i64(i8* align 8 %42, i8 0, i64 40, i1 false)
  tail call void @_ZN4base8internal18WeakPtrFactoryBaseC2Em(%"class.base::internal::WeakPtrFactoryBase"* %40, i64 %41) #16
  %43 = getelementptr inbounds %"class.password_manager::PasswordStore", %"class.password_manager::PasswordStore"* %0, i64 0, i32 16
  store i8 0, i8* %43, align 8
  %44 = getelementptr inbounds %"class.password_manager::PasswordStore", %"class.password_manager::PasswordStore"* %0, i64 0, i32 17
  store i32 0, i32* %44, align 4
  %45 = getelementptr inbounds %"class.password_manager::PasswordStore", %"class.password_manager::PasswordStore"* %0, i64 0, i32 18, i32 0
  store i64 30000000, i64* %45, align 8
  ret void
}

declare void @_ZN16password_manager17PasswordStoreSyncC2Ev(%"class.password_manager::PasswordStoreSync"*) unnamed_addr #1

declare void @_ZN22RefcountedKeyedServiceC2Ev(%class.RefcountedKeyedService*) unnamed_addr #1

; Function Attrs: nobuiltin nofree
declare noalias nonnull i8* @_Znwm(i64) local_unnamed_addr #5

; Function Attrs: argmemonly nounwind
declare void @llvm.memset.p0i8.i64(i8* nocapture writeonly, i8, i64, i1 immarg) #2

declare void @_ZN16password_manager19HashPasswordManagerC1Ev(%"class.password_manager::HashPasswordManager"*) unnamed_addr #1

; Function Attrs: nounwind ssp uwtable
define hidden zeroext i1 @_ZN16password_manager13PasswordStore4InitEP11PrefServiceN4base17RepeatingCallbackIFvvEEE(%"class.password_manager::PasswordStore"*, %class.PrefService*, %"class.base::RepeatingCallback"*) local_unnamed_addr #0 align 2 {
  %4 = alloca %"class.base::TimeTicks", align 8
  %5 = alloca %"class.std::__1::basic_string", align 8
  %6 = alloca %"class.base::OnceCallback.215", align 8
  %7 = alloca %"class.base::OnceCallback.215", align 8
  %8 = alloca %"class.std::__1::basic_string", align 8
  %9 = alloca %"class.base::Location", align 8
  %10 = alloca %"class.base::OnceCallback.318", align 8
  %11 = alloca %"class.base::OnceCallback", align 8
  %12 = tail call dereferenceable(8) %class.scoped_refptr* @_ZN4base25SequencedTaskRunnerHandle3GetEv() #16
  %13 = getelementptr inbounds %class.scoped_refptr, %class.scoped_refptr* %12, i64 0, i32 0
  %14 = load %"class.base::SequencedTaskRunner"*, %"class.base::SequencedTaskRunner"** %13, align 8
  %15 = icmp eq %"class.base::SequencedTaskRunner"* %14, null
  br i1 %15, label %19, label %16

16:                                               ; preds = %3
  %17 = getelementptr inbounds %"class.base::SequencedTaskRunner", %"class.base::SequencedTaskRunner"* %14, i64 0, i32 0, i32 1, i32 0, i32 0, i32 0, i32 0, i32 0, i32 0, i32 0, i32 0
  %18 = atomicrmw add i32* %17, i32 1 monotonic
  br label %19

19:                                               ; preds = %3, %16
  %20 = getelementptr inbounds %"class.password_manager::PasswordStore", %"class.password_manager::PasswordStore"* %0, i64 0, i32 2
  %21 = ptrtoint %"class.base::SequencedTaskRunner"* %14 to i64
  %22 = bitcast %class.scoped_refptr* %20 to i64*
  %23 = getelementptr inbounds %class.scoped_refptr, %class.scoped_refptr* %20, i64 0, i32 0
  %24 = load %"class.base::SequencedTaskRunner"*, %"class.base::SequencedTaskRunner"** %23, align 8
  store i64 %21, i64* %22, align 8
  %25 = icmp eq %"class.base::SequencedTaskRunner"* %24, null
  br i1 %25, label %34, label %26

26:                                               ; preds = %19
  %27 = getelementptr inbounds %"class.base::SequencedTaskRunner", %"class.base::SequencedTaskRunner"* %24, i64 0, i32 0, i32 1
  %28 = getelementptr inbounds %"class.base::RefCountedThreadSafe.1", %"class.base::RefCountedThreadSafe.1"* %27, i64 0, i32 0, i32 0, i32 0, i32 0, i32 0, i32 0, i32 0, i32 0
  %29 = atomicrmw sub i32* %28, i32 1 acq_rel
  %30 = icmp eq i32 %29, 1
  br i1 %30, label %31, label %34

31:                                               ; preds = %26
  %32 = getelementptr inbounds %"class.base::RefCountedThreadSafe.1", %"class.base::RefCountedThreadSafe.1"* %27, i64 -2
  %33 = bitcast %"class.base::RefCountedThreadSafe.1"* %32 to %"class.base::TaskRunner"*
  tail call void @_ZN4base16TaskRunnerTraits8DestructEPKNS_10TaskRunnerE(%"class.base::TaskRunner"* %33) #16
  br label %34

34:                                               ; preds = %19, %26, %31
  %35 = bitcast %"class.password_manager::PasswordStore"* %0 to %"class.base::SequencedTaskRunner"* (%"class.password_manager::PasswordStore"*)***
  %36 = load %"class.base::SequencedTaskRunner"* (%"class.password_manager::PasswordStore"*)**, %"class.base::SequencedTaskRunner"* (%"class.password_manager::PasswordStore"*)*** %35, align 8
  %37 = getelementptr inbounds %"class.base::SequencedTaskRunner"* (%"class.password_manager::PasswordStore"*)*, %"class.base::SequencedTaskRunner"* (%"class.password_manager::PasswordStore"*)** %36, i64 42
  %38 = load %"class.base::SequencedTaskRunner"* (%"class.password_manager::PasswordStore"*)*, %"class.base::SequencedTaskRunner"* (%"class.password_manager::PasswordStore"*)** %37, align 8
  %39 = tail call %"class.base::SequencedTaskRunner"* %38(%"class.password_manager::PasswordStore"* %0) #16
  %40 = getelementptr inbounds %"class.password_manager::PasswordStore", %"class.password_manager::PasswordStore"* %0, i64 0, i32 3
  %41 = ptrtoint %"class.base::SequencedTaskRunner"* %39 to i64
  %42 = bitcast %class.scoped_refptr* %40 to i64*
  %43 = getelementptr inbounds %class.scoped_refptr, %class.scoped_refptr* %40, i64 0, i32 0
  %44 = load %"class.base::SequencedTaskRunner"*, %"class.base::SequencedTaskRunner"** %43, align 8
  store i64 %41, i64* %42, align 8
  %45 = icmp eq %"class.base::SequencedTaskRunner"* %44, null
  br i1 %45, label %54, label %46

46:                                               ; preds = %34
  %47 = getelementptr inbounds %"class.base::SequencedTaskRunner", %"class.base::SequencedTaskRunner"* %44, i64 0, i32 0, i32 1
  %48 = getelementptr inbounds %"class.base::RefCountedThreadSafe.1", %"class.base::RefCountedThreadSafe.1"* %47, i64 0, i32 0, i32 0, i32 0, i32 0, i32 0, i32 0, i32 0, i32 0
  %49 = atomicrmw sub i32* %48, i32 1 acq_rel
  %50 = icmp eq i32 %49, 1
  br i1 %50, label %51, label %54

51:                                               ; preds = %46
  %52 = getelementptr inbounds %"class.base::RefCountedThreadSafe.1", %"class.base::RefCountedThreadSafe.1"* %47, i64 -2
  %53 = bitcast %"class.base::RefCountedThreadSafe.1"* %52 to %"class.base::TaskRunner"*
  tail call void @_ZN4base16TaskRunnerTraits8DestructEPKNS_10TaskRunnerE(%"class.base::TaskRunner"* %53) #16
  br label %54

54:                                               ; preds = %34, %46, %51
  %55 = getelementptr inbounds %"class.password_manager::PasswordStore", %"class.password_manager::PasswordStore"* %0, i64 0, i32 7, i32 0
  %56 = getelementptr inbounds %"class.base::RepeatingCallback", %"class.base::RepeatingCallback"* %2, i64 0, i32 0
  %57 = tail call dereferenceable(8) %"class.base::internal::CallbackBaseCopyable"* @_ZN4base8internal20CallbackBaseCopyableaSEOS1_(%"class.base::internal::CallbackBaseCopyable"* %55, %"class.base::internal::CallbackBaseCopyable"* dereferenceable(8) %56) #16
  %58 = getelementptr inbounds %"class.password_manager::PasswordStore", %"class.password_manager::PasswordStore"* %0, i64 0, i32 9
  store %class.PrefService* %1, %class.PrefService** %58, align 8
  %59 = tail call zeroext i1 @_ZN4base11FeatureList9IsEnabledERKNS_7FeatureE(%"struct.base::Feature"* nonnull dereferenceable(16) @_ZN16password_manager8features30kPasswordReuseDetectionEnabledE) #16
  br i1 %59, label %60, label %62

60:                                               ; preds = %54
  %61 = getelementptr inbounds %"class.password_manager::PasswordStore", %"class.password_manager::PasswordStore"* %0, i64 0, i32 12, i32 1
  store %class.PrefService* %1, %class.PrefService** %61, align 8
  br label %62

62:                                               ; preds = %60, %54
  %63 = load %"class.base::SequencedTaskRunner"*, %"class.base::SequencedTaskRunner"** %43, align 8
  %64 = icmp eq %"class.base::SequencedTaskRunner"* %63, null
  br i1 %64, label %216, label %65

65:                                               ; preds = %62
  %66 = load %class.PrefService*, %class.PrefService** %58, align 8
  %67 = tail call zeroext i1 @_ZN4base11FeatureList9IsEnabledERKNS_7FeatureE(%"struct.base::Feature"* nonnull dereferenceable(16) @_ZN16password_manager8features30kSyncingCompromisedCredentialsE) #16
  %68 = xor i1 %67, true
  %69 = icmp eq %class.PrefService* %66, null
  %70 = or i1 %69, %68
  br i1 %70, label %145, label %71

71:                                               ; preds = %65
  %72 = bitcast %"class.std::__1::basic_string"* %5 to i8*
  call void @llvm.lifetime.start.p0i8(i64 24, i8* nonnull %72) #16
  %73 = tail call i64 @strlen(i8* getelementptr inbounds ([0 x i8], [0 x i8]* @_ZN16password_manager5prefs36kWasPhishedCredentialsUploadedToSyncE, i64 0, i64 0)) #16
  %74 = icmp ugt i64 %73, -17
  br i1 %74, label %75, label %77

75:                                               ; preds = %71
  %76 = bitcast %"class.std::__1::basic_string"* %5 to %"class.std::__1::__basic_string_common"*
  call void @_ZNKSt3__121__basic_string_commonILb1EE20__throw_length_errorEv(%"class.std::__1::__basic_string_common"* nonnull %76) #18
  unreachable

77:                                               ; preds = %71
  %78 = icmp ult i64 %73, 23
  br i1 %78, label %88, label %79

79:                                               ; preds = %77
  %80 = add nuw i64 %73, 16
  %81 = and i64 %80, -16
  %82 = tail call i8* @_Znwm(i64 %81) #17
  %83 = getelementptr inbounds %"class.std::__1::basic_string", %"class.std::__1::basic_string"* %5, i64 0, i32 0, i32 0, i32 0, i32 0, i32 0, i32 0
  store i8* %82, i8** %83, align 8
  %84 = or i64 %81, -9223372036854775808
  %85 = getelementptr inbounds %"class.std::__1::basic_string", %"class.std::__1::basic_string"* %5, i64 0, i32 0, i32 0, i32 0, i32 0, i32 0, i32 2
  store i64 %84, i64* %85, align 8
  %86 = getelementptr inbounds %"class.std::__1::basic_string", %"class.std::__1::basic_string"* %5, i64 0, i32 0, i32 0, i32 0, i32 0, i32 0, i32 1
  store i64 %73, i64* %86, align 8
  %87 = bitcast %"class.std::__1::basic_string"* %5 to %"struct.std::__1::basic_string<char, std::__1::char_traits<char>, std::__1::allocator<char> >::__short"*
  br label %93

88:                                               ; preds = %77
  %89 = trunc i64 %73 to i8
  %90 = bitcast %"class.std::__1::basic_string"* %5 to %"struct.std::__1::basic_string<char, std::__1::char_traits<char>, std::__1::allocator<char> >::__short"*
  %91 = getelementptr inbounds %"struct.std::__1::basic_string<char, std::__1::char_traits<char>, std::__1::allocator<char> >::__short", %"struct.std::__1::basic_string<char, std::__1::char_traits<char>, std::__1::allocator<char> >::__short"* %90, i64 0, i32 1, i32 0
  store i8 %89, i8* %91, align 1
  %92 = icmp eq i64 %73, 0
  br i1 %92, label %96, label %93

93:                                               ; preds = %88, %79
  %94 = phi %"struct.std::__1::basic_string<char, std::__1::char_traits<char>, std::__1::allocator<char> >::__short"* [ %90, %88 ], [ %87, %79 ]
  %95 = phi i8* [ %72, %88 ], [ %82, %79 ]
  call void @llvm.memcpy.p0i8.p0i8.i64(i8* nonnull align 1 %95, i8* align 1 getelementptr inbounds ([0 x i8], [0 x i8]* @_ZN16password_manager5prefs36kWasPhishedCredentialsUploadedToSyncE, i64 0, i64 0), i64 %73, i1 false) #16
  br label %96

96:                                               ; preds = %93, %88
  %97 = phi %"struct.std::__1::basic_string<char, std::__1::char_traits<char>, std::__1::allocator<char> >::__short"* [ %94, %93 ], [ %90, %88 ]
  %98 = phi i8* [ %95, %93 ], [ %72, %88 ]
  %99 = getelementptr inbounds i8, i8* %98, i64 %73
  store i8 0, i8* %99, align 1
  %100 = call zeroext i1 @_ZNK11PrefService10GetBooleanERKNSt3__112basic_stringIcNS0_11char_traitsIcEENS0_9allocatorIcEEEE(%class.PrefService* nonnull %66, %"class.std::__1::basic_string"* nonnull dereferenceable(24) %5) #16
  %101 = getelementptr inbounds %"struct.std::__1::basic_string<char, std::__1::char_traits<char>, std::__1::allocator<char> >::__short", %"struct.std::__1::basic_string<char, std::__1::char_traits<char>, std::__1::allocator<char> >::__short"* %97, i64 0, i32 1, i32 0
  %102 = load i8, i8* %101, align 1
  %103 = icmp slt i8 %102, 0
  br i1 %103, label %104, label %107

104:                                              ; preds = %96
  %105 = getelementptr inbounds %"class.std::__1::basic_string", %"class.std::__1::basic_string"* %5, i64 0, i32 0, i32 0, i32 0, i32 0, i32 0, i32 0
  %106 = load i8*, i8** %105, align 8
  call void @_ZdlPv(i8* %106) #17
  br label %107

107:                                              ; preds = %96, %104
  call void @llvm.lifetime.end.p0i8(i64 24, i8* nonnull %72) #16
  br i1 %100, label %145, label %108

108:                                              ; preds = %107
  %109 = load %class.PrefService*, %class.PrefService** %58, align 8
  %110 = bitcast %"class.std::__1::basic_string"* %8 to i8*
  call void @llvm.lifetime.start.p0i8(i64 24, i8* nonnull %110) #16
  %111 = call i64 @strlen(i8* getelementptr inbounds ([0 x i8], [0 x i8]* @_ZN16password_manager5prefs36kWasPhishedCredentialsUploadedToSyncE, i64 0, i64 0)) #16
  %112 = icmp ugt i64 %111, -17
  br i1 %112, label %113, label %115

113:                                              ; preds = %108
  %114 = bitcast %"class.std::__1::basic_string"* %8 to %"class.std::__1::__basic_string_common"*
  call void @_ZNKSt3__121__basic_string_commonILb1EE20__throw_length_errorEv(%"class.std::__1::__basic_string_common"* nonnull %114) #18
  unreachable

115:                                              ; preds = %108
  %116 = icmp ult i64 %111, 23
  br i1 %116, label %126, label %117

117:                                              ; preds = %115
  %118 = add nuw i64 %111, 16
  %119 = and i64 %118, -16
  %120 = call i8* @_Znwm(i64 %119) #17
  %121 = getelementptr inbounds %"class.std::__1::basic_string", %"class.std::__1::basic_string"* %8, i64 0, i32 0, i32 0, i32 0, i32 0, i32 0, i32 0
  store i8* %120, i8** %121, align 8
  %122 = or i64 %119, -9223372036854775808
  %123 = getelementptr inbounds %"class.std::__1::basic_string", %"class.std::__1::basic_string"* %8, i64 0, i32 0, i32 0, i32 0, i32 0, i32 0, i32 2
  store i64 %122, i64* %123, align 8
  %124 = getelementptr inbounds %"class.std::__1::basic_string", %"class.std::__1::basic_string"* %8, i64 0, i32 0, i32 0, i32 0, i32 0, i32 0, i32 1
  store i64 %111, i64* %124, align 8
  %125 = bitcast %"class.std::__1::basic_string"* %8 to %"struct.std::__1::basic_string<char, std::__1::char_traits<char>, std::__1::allocator<char> >::__short"*
  br label %131

126:                                              ; preds = %115
  %127 = trunc i64 %111 to i8
  %128 = bitcast %"class.std::__1::basic_string"* %8 to %"struct.std::__1::basic_string<char, std::__1::char_traits<char>, std::__1::allocator<char> >::__short"*
  %129 = getelementptr inbounds %"struct.std::__1::basic_string<char, std::__1::char_traits<char>, std::__1::allocator<char> >::__short", %"struct.std::__1::basic_string<char, std::__1::char_traits<char>, std::__1::allocator<char> >::__short"* %128, i64 0, i32 1, i32 0
  store i8 %127, i8* %129, align 1
  %130 = icmp eq i64 %111, 0
  br i1 %130, label %134, label %131

131:                                              ; preds = %126, %117
  %132 = phi %"struct.std::__1::basic_string<char, std::__1::char_traits<char>, std::__1::allocator<char> >::__short"* [ %128, %126 ], [ %125, %117 ]
  %133 = phi i8* [ %110, %126 ], [ %120, %117 ]
  call void @llvm.memcpy.p0i8.p0i8.i64(i8* nonnull align 1 %133, i8* align 1 getelementptr inbounds ([0 x i8], [0 x i8]* @_ZN16password_manager5prefs36kWasPhishedCredentialsUploadedToSyncE, i64 0, i64 0), i64 %111, i1 false) #16
  br label %134

134:                                              ; preds = %126, %131
  %135 = phi %"struct.std::__1::basic_string<char, std::__1::char_traits<char>, std::__1::allocator<char> >::__short"* [ %128, %126 ], [ %132, %131 ]
  %136 = phi i8* [ %110, %126 ], [ %133, %131 ]
  %137 = getelementptr inbounds i8, i8* %136, i64 %111
  store i8 0, i8* %137, align 1
  call void @_ZN11PrefService10SetBooleanERKNSt3__112basic_stringIcNS0_11char_traitsIcEENS0_9allocatorIcEEEEb(%class.PrefService* %109, %"class.std::__1::basic_string"* nonnull dereferenceable(24) %8, i1 zeroext true) #16
  %138 = getelementptr inbounds %"struct.std::__1::basic_string<char, std::__1::char_traits<char>, std::__1::allocator<char> >::__short", %"struct.std::__1::basic_string<char, std::__1::char_traits<char>, std::__1::allocator<char> >::__short"* %135, i64 0, i32 1, i32 0
  %139 = load i8, i8* %138, align 1
  %140 = icmp slt i8 %139, 0
  br i1 %140, label %141, label %144

141:                                              ; preds = %134
  %142 = getelementptr inbounds %"class.std::__1::basic_string", %"class.std::__1::basic_string"* %8, i64 0, i32 0, i32 0, i32 0, i32 0, i32 0, i32 0
  %143 = load i8*, i8** %142, align 8
  call void @_ZdlPv(i8* %143) #17
  br label %144

144:                                              ; preds = %134, %141
  call void @llvm.lifetime.end.p0i8(i64 24, i8* nonnull %110) #16
  br label %145

145:                                              ; preds = %107, %65, %144
  %146 = phi i8 [ 0, %107 ], [ 1, %144 ], [ 0, %65 ]
  %147 = load i8, i8* getelementptr inbounds ([300 x %"struct.base::trace_event::TraceCategory"], [300 x %"struct.base::trace_event::TraceCategory"]* @_ZN4base11trace_event16CategoryRegistry11categories_E, i64 0, i64 94, i32 0), align 16
  %148 = and i8 %147, 25
  %149 = icmp eq i8 %148, 0
  br i1 %149, label %157, label %150, !prof !5

150:                                              ; preds = %145
  %151 = ptrtoint %"class.password_manager::PasswordStore"* %0 to i64
  %152 = call i32 @_ZN4base14PlatformThread9CurrentIdEv() #16
  %153 = bitcast %"class.base::TimeTicks"* %4 to i8*
  call void @llvm.lifetime.start.p0i8(i64 8, i8* nonnull %153) #16
  %154 = getelementptr inbounds %"class.base::TimeTicks", %"class.base::TimeTicks"* %4, i64 0, i32 0, i32 0
  %155 = call i64 @_ZN4base6subtle28TimeTicksNowIgnoringOverrideEv() #16
  store i64 %155, i64* %154, align 8
  %156 = call i64 @_ZN20trace_event_internal37AddTraceEventWithThreadIdAndTimestampEcPKhPKcS3_yyiRKN4base9TimeTicksEPNS4_11trace_event14TraceArgumentsEj(i8 signext 98, i8* getelementptr inbounds ([300 x %"struct.base::trace_event::TraceCategory"], [300 x %"struct.base::trace_event::TraceCategory"]* @_ZN4base11trace_event16CategoryRegistry11categories_E, i64 0, i64 94, i32 0), i8* getelementptr inbounds ([40 x i8], [40 x i8]* @.str.3, i64 0, i64 0), i8* null, i64 %151, i64 0, i32 %152, %"class.base::TimeTicks"* nonnull dereferenceable(8) %4, %"class.base::trace_event::TraceArguments"* null, i32 2048) #16
  call void @llvm.lifetime.end.p0i8(i64 8, i8* nonnull %153) #16
  br label %157

157:                                              ; preds = %145, %150
  %158 = bitcast %class.scoped_refptr* %40 to %"class.base::TaskRunner"**
  %159 = load %"class.base::TaskRunner"*, %"class.base::TaskRunner"** %158, align 8
  %160 = bitcast %"class.base::Location"* %9 to i8*
  call void @llvm.lifetime.start.p0i8(i64 32, i8* nonnull %160) #16
  call void @_ZN4base8Location7CurrentEPKcS2_i(%"class.base::Location"* nonnull sret %9, i8* getelementptr inbounds ([5 x i8], [5 x i8]* @.str.4, i64 0, i64 0), i8* getelementptr inbounds ([65 x i8], [65 x i8]* @.str.2, i64 0, i64 0), i32 199) #16
  %161 = call i8* @_Znwm(i64 64) #17, !noalias !11
  %162 = bitcast i8* %161 to %"class.base::internal::BindStateBase"*
  call void @_ZN4base8internal13BindStateBaseC2EPFvvEPFvPKS1_E(%"class.base::internal::BindStateBase"* nonnull %162, void ()* bitcast (i1 (%"class.base::internal::BindStateBase"*)* @_ZN4base8internal7InvokerINS0_9BindStateIMN16password_manager13PasswordStoreEFbbEJ13scoped_refptrIS4_EbEEEFbvEE7RunOnceEPNS0_13BindStateBaseE to void ()*), void (%"class.base::internal::BindStateBase"*)* nonnull @_ZN4base8internal9BindStateIMN16password_manager13PasswordStoreEFbbEJ13scoped_refptrIS3_EbEE7DestroyEPKNS0_13BindStateBaseE) #16, !noalias !11
  %163 = getelementptr inbounds i8, i8* %161, i64 32
  %164 = bitcast i8* %163 to <2 x i64>*
  store <2 x i64> <i64 345, i64 0>, <2 x i64>* %164, align 8, !noalias !11
  %165 = getelementptr inbounds i8, i8* %161, i64 48
  %166 = bitcast i8* %165 to %"class.password_manager::PasswordStore"**
  store %"class.password_manager::PasswordStore"* %0, %"class.password_manager::PasswordStore"** %166, align 8, !noalias !11
  %167 = icmp eq %"class.password_manager::PasswordStore"* %0, null
  br i1 %167, label %171, label %168

168:                                              ; preds = %157
  %169 = getelementptr inbounds %"class.password_manager::PasswordStore", %"class.password_manager::PasswordStore"* %0, i64 0, i32 1, i32 1, i32 0, i32 0, i32 0, i32 0, i32 0, i32 0, i32 0, i32 0
  %170 = atomicrmw add i32* %169, i32 1 monotonic, !noalias !11
  br label %171

171:                                              ; preds = %157, %168
  %172 = getelementptr inbounds i8, i8* %161, i64 56
  store i8 %146, i8* %172, align 1, !noalias !11
  %173 = bitcast %"class.base::OnceCallback.318"* %10 to i8**
  store i8* %161, i8** %173, align 8, !alias.scope !11
  %174 = call i8* @_Znwm(i64 56) #17, !noalias !16
  %175 = bitcast i8* %174 to %"class.base::internal::BindStateBase"*
  call void @_ZN4base8internal13BindStateBaseC2EPFvvEPFvPKS1_E(%"class.base::internal::BindStateBase"* nonnull %175, void ()* bitcast (void (%"class.base::internal::BindStateBase"*, i1)* @_ZN4base8internal7InvokerINS0_9BindStateIMN16password_manager13PasswordStoreEFvbEJ13scoped_refptrIS4_EEEEFvbEE7RunOnceEPNS0_13BindStateBaseEb to void ()*), void (%"class.base::internal::BindStateBase"*)* nonnull @_ZN4base8internal9BindStateIMN16password_manager13PasswordStoreEFvbEJ13scoped_refptrIS3_EEE7DestroyEPKNS0_13BindStateBaseE) #16, !noalias !16
  %176 = getelementptr inbounds i8, i8* %174, i64 32
  %177 = bitcast i8* %176 to <2 x i64>*
  store <2 x i64> <i64 ptrtoint (void (%"class.password_manager::PasswordStore"*, i1)* @_ZN16password_manager13PasswordStore15OnInitCompletedEb to i64), i64 0>, <2 x i64>* %177, align 8, !noalias !16
  %178 = getelementptr inbounds i8, i8* %174, i64 48
  %179 = bitcast i8* %178 to %"class.password_manager::PasswordStore"**
  store %"class.password_manager::PasswordStore"* %0, %"class.password_manager::PasswordStore"** %179, align 8, !noalias !16
  %180 = ptrtoint i8* %161 to i64
  br i1 %167, label %184, label %181

181:                                              ; preds = %171
  %182 = getelementptr inbounds %"class.password_manager::PasswordStore", %"class.password_manager::PasswordStore"* %0, i64 0, i32 1, i32 1, i32 0, i32 0, i32 0, i32 0, i32 0, i32 0, i32 0, i32 0
  %183 = atomicrmw add i32* %182, i32 1 monotonic, !noalias !16
  br label %184

184:                                              ; preds = %171, %181
  %185 = bitcast %"class.base::OnceCallback.215"* %6 to i8*
  call void @llvm.lifetime.start.p0i8(i64 8, i8* nonnull %185)
  %186 = bitcast %"class.base::OnceCallback.215"* %7 to i8*
  call void @llvm.lifetime.start.p0i8(i64 8, i8* nonnull %186)
  %187 = call i8* @_Znwm(i64 8) #17
  %188 = bitcast i8* %187 to i64*
  store i64 0, i64* %188, align 8
  %189 = ptrtoint i8* %187 to i64
  %190 = call i8* @_Znwm(i64 56) #17, !noalias !21
  %191 = bitcast i8* %190 to %"class.base::internal::BindStateBase"*
  call void @_ZN4base8internal13BindStateBaseC2EPFvvEPFvPKS1_E(%"class.base::internal::BindStateBase"* nonnull %191, void ()* bitcast (void (%"class.base::internal::BindStateBase"*)* @_ZN4base8internal7InvokerINS0_9BindStateIPFvNS_12OnceCallbackIFbvEEEPNSt3__110unique_ptrIbNS6_14default_deleteIbEEEEEJS5_SB_EEEFvvEE7RunOnceEPNS0_13BindStateBaseE to void ()*), void (%"class.base::internal::BindStateBase"*)* nonnull @_ZN4base8internal9BindStateIPFvNS_12OnceCallbackIFbvEEEPNSt3__110unique_ptrIbNS5_14default_deleteIbEEEEEJS4_SA_EE7DestroyEPKNS0_13BindStateBaseE) #16, !noalias !21
  %192 = getelementptr inbounds i8, i8* %190, i64 32
  %193 = bitcast i8* %192 to i64*
  store i64 ptrtoint (void (%"class.base::OnceCallback.318"*, %"class.std::__1::unique_ptr.518"*)* @_ZN4base8internal20ReturnAsParamAdapterIbEEvNS_12OnceCallbackIFT_vEEEPNSt3__110unique_ptrIS3_NS6_14default_deleteIS3_EEEE to i64), i64* %193, align 8, !noalias !21
  %194 = getelementptr inbounds i8, i8* %190, i64 40
  %195 = getelementptr inbounds %"class.base::OnceCallback.318", %"class.base::OnceCallback.318"* %10, i64 0, i32 0, i32 0, i32 0
  %196 = bitcast i8* %194 to i64*
  store i64 %180, i64* %196, align 8, !noalias !21
  store %"class.base::internal::BindStateBase"* null, %"class.base::internal::BindStateBase"** %195, align 8, !noalias !21
  %197 = getelementptr inbounds i8, i8* %190, i64 48
  %198 = bitcast i8* %197 to i64*
  store i64 %189, i64* %198, align 8, !noalias !21
  %199 = bitcast %"class.base::OnceCallback.215"* %6 to i8**
  store i8* %190, i8** %199, align 8, !alias.scope !21
  %200 = call i8* @_Znwm(i64 56) #17, !noalias !26
  %201 = bitcast i8* %200 to %"class.base::internal::BindStateBase"*
  call void @_ZN4base8internal13BindStateBaseC2EPFvvEPFvPKS1_E(%"class.base::internal::BindStateBase"* nonnull %201, void ()* bitcast (void (%"class.base::internal::BindStateBase"*)* @_ZN4base8internal7InvokerINS0_9BindStateIPFvNS_12OnceCallbackIFvbEEEPNSt3__110unique_ptrIbNS6_14default_deleteIbEEEEEJS5_NS0_12OwnedWrapperISA_NS8_ISA_EEEEEEEFvvEE7RunOnceEPNS0_13BindStateBaseE to void ()*), void (%"class.base::internal::BindStateBase"*)* nonnull @_ZN4base8internal9BindStateIPFvNS_12OnceCallbackIFvbEEEPNSt3__110unique_ptrIbNS5_14default_deleteIbEEEEEJS4_NS0_12OwnedWrapperIS9_NS7_IS9_EEEEEE7DestroyEPKNS0_13BindStateBaseE) #16, !noalias !26
  %202 = getelementptr inbounds i8, i8* %200, i64 32
  %203 = bitcast i8* %202 to i64*
  store i64 ptrtoint (void (%"class.base::OnceCallback"*, %"class.std::__1::unique_ptr.518"*)* @_ZN4base8internal12ReplyAdapterIbbEEvNS_12OnceCallbackIFvT0_EEEPNSt3__110unique_ptrIT_NS6_14default_deleteIS8_EEEE to i64), i64* %203, align 8, !noalias !26
  %204 = getelementptr inbounds i8, i8* %200, i64 40
  %205 = getelementptr inbounds %"class.base::OnceCallback", %"class.base::OnceCallback"* %11, i64 0, i32 0, i32 0, i32 0
  %206 = ptrtoint i8* %174 to i64
  %207 = bitcast i8* %204 to i64*
  store i64 %206, i64* %207, align 8, !noalias !26
  store %"class.base::internal::BindStateBase"* null, %"class.base::internal::BindStateBase"** %205, align 8, !noalias !26
  %208 = getelementptr inbounds i8, i8* %200, i64 48
  %209 = bitcast i8* %208 to i64*
  store i64 %189, i64* %209, align 8, !noalias !26
  %210 = bitcast %"class.base::OnceCallback.215"* %7 to i8**
  store i8* %200, i8** %210, align 8, !alias.scope !26
  %211 = call zeroext i1 @_ZN4base10TaskRunner16PostTaskAndReplyERKNS_8LocationENS_12OnceCallbackIFvvEEES6_(%"class.base::TaskRunner"* %159, %"class.base::Location"* nonnull dereferenceable(32) %9, %"class.base::OnceCallback.215"* nonnull %6, %"class.base::OnceCallback.215"* nonnull %7) #16
  %212 = getelementptr inbounds %"class.base::OnceCallback.215", %"class.base::OnceCallback.215"* %7, i64 0, i32 0
  call void @_ZN4base8internal12CallbackBaseD2Ev(%"class.base::internal::CallbackBase"* nonnull %212) #16
  %213 = getelementptr inbounds %"class.base::OnceCallback.215", %"class.base::OnceCallback.215"* %6, i64 0, i32 0
  call void @_ZN4base8internal12CallbackBaseD2Ev(%"class.base::internal::CallbackBase"* nonnull %213) #16
  call void @llvm.lifetime.end.p0i8(i64 8, i8* nonnull %185)
  call void @llvm.lifetime.end.p0i8(i64 8, i8* nonnull %186)
  %214 = getelementptr inbounds %"class.base::OnceCallback", %"class.base::OnceCallback"* %11, i64 0, i32 0
  call void @_ZN4base8internal12CallbackBaseD2Ev(%"class.base::internal::CallbackBase"* nonnull %214) #16
  %215 = getelementptr inbounds %"class.base::OnceCallback.318", %"class.base::OnceCallback.318"* %10, i64 0, i32 0
  call void @_ZN4base8internal12CallbackBaseD2Ev(%"class.base::internal::CallbackBase"* nonnull %215) #16
  call void @llvm.lifetime.end.p0i8(i64 32, i8* nonnull %160) #16
  br label %216

216:                                              ; preds = %62, %184
  ret i1 true
}

declare void @_ZN11PrefService10SetBooleanERKNSt3__112basic_stringIcNS0_11char_traitsIcEENS0_9allocatorIcEEEEb(%class.PrefService*, %"class.std::__1::basic_string"* dereferenceable(24), i1 zeroext) local_unnamed_addr #1

; Function Attrs: nounwind ssp uwtable
define hidden void @_ZN16password_manager13PasswordStore15OnInitCompletedEb(%"class.password_manager::PasswordStore"*, i1 zeroext) #0 align 2 {
  %3 = alloca %"class.base::TimeTicks", align 8
  %4 = select i1 %1, i32 1, i32 2
  %5 = getelementptr inbounds %"class.password_manager::PasswordStore", %"class.password_manager::PasswordStore"* %0, i64 0, i32 17
  store i32 %4, i32* %5, align 4
  %6 = load atomic i64, i64* @_ZZN16password_manager13PasswordStore15OnInitCompletedEbE24atomic_histogram_pointer.0.0.0.0.0 acquire, align 8
  %7 = inttoptr i64 %6 to %"class.base::HistogramBase"*
  %8 = icmp eq i64 %6, 0
  br i1 %8, label %9, label %12

9:                                                ; preds = %2
  %10 = tail call %"class.base::HistogramBase"* @_ZN4base16BooleanHistogram10FactoryGetEPKci(i8* getelementptr inbounds ([40 x i8], [40 x i8]* @.str.27, i64 0, i64 0), i32 1) #16
  %11 = ptrtoint %"class.base::HistogramBase"* %10 to i64
  store atomic i64 %11, i64* @_ZZN16password_manager13PasswordStore15OnInitCompletedEbE24atomic_histogram_pointer.0.0.0.0.0 release, align 8
  br label %12

12:                                               ; preds = %2, %9
  %13 = phi %"class.base::HistogramBase"* [ %7, %2 ], [ %10, %9 ]
  tail call void @_ZN4base13HistogramBase10AddBooleanEb(%"class.base::HistogramBase"* %13, i1 zeroext %1) #16
  %14 = load i8, i8* getelementptr inbounds ([300 x %"struct.base::trace_event::TraceCategory"], [300 x %"struct.base::trace_event::TraceCategory"]* @_ZN4base11trace_event16CategoryRegistry11categories_E, i64 0, i64 94, i32 0), align 16
  %15 = and i8 %14, 25
  %16 = icmp eq i8 %15, 0
  br i1 %16, label %24, label %17, !prof !5

17:                                               ; preds = %12
  %18 = ptrtoint %"class.password_manager::PasswordStore"* %0 to i64
  %19 = tail call i32 @_ZN4base14PlatformThread9CurrentIdEv() #16
  %20 = bitcast %"class.base::TimeTicks"* %3 to i8*
  call void @llvm.lifetime.start.p0i8(i64 8, i8* nonnull %20) #16
  %21 = getelementptr inbounds %"class.base::TimeTicks", %"class.base::TimeTicks"* %3, i64 0, i32 0, i32 0
  %22 = tail call i64 @_ZN4base6subtle28TimeTicksNowIgnoringOverrideEv() #16
  store i64 %22, i64* %21, align 8
  %23 = call i64 @_ZN20trace_event_internal37AddTraceEventWithThreadIdAndTimestampEcPKhPKcS3_yyiRKN4base9TimeTicksEPNS4_11trace_event14TraceArgumentsEj(i8 signext 101, i8* getelementptr inbounds ([300 x %"struct.base::trace_event::TraceCategory"], [300 x %"struct.base::trace_event::TraceCategory"]* @_ZN4base11trace_event16CategoryRegistry11categories_E, i64 0, i64 94, i32 0), i8* getelementptr inbounds ([40 x i8], [40 x i8]* @.str.3, i64 0, i64 0), i8* null, i64 %18, i64 0, i32 %19, %"class.base::TimeTicks"* nonnull dereferenceable(8) %3, %"class.base::trace_event::TraceArguments"* null, i32 2048) #16
  call void @llvm.lifetime.end.p0i8(i64 8, i8* nonnull %20) #16
  br label %24

24:                                               ; preds = %12, %17
  ret void
}

; Function Attrs: nounwind ssp uwtable
define hidden void @_ZN16password_manager13PasswordStore24SetAffiliatedMatchHelperENSt3__110unique_ptrINS_21AffiliatedMatchHelperENS1_14default_deleteIS3_EEEE(%"class.password_manager::PasswordStore"* nocapture, %"class.password_manager::AffiliatedMatchHelper"*) local_unnamed_addr #0 align 2 {
  %3 = ptrtoint %"class.password_manager::AffiliatedMatchHelper"* %1 to i64
  %4 = getelementptr inbounds %"class.password_manager::PasswordStore", %"class.password_manager::PasswordStore"* %0, i64 0, i32 8
  %5 = getelementptr inbounds %"class.std::__1::unique_ptr.60", %"class.std::__1::unique_ptr.60"* %4, i64 0, i32 0, i32 0, i32 0
  %6 = load %"class.password_manager::AffiliatedMatchHelper"*, %"class.password_manager::AffiliatedMatchHelper"** %5, align 8
  %7 = bitcast %"class.std::__1::unique_ptr.60"* %4 to i64*
  store i64 %3, i64* %7, align 8
  %8 = icmp eq %"class.password_manager::AffiliatedMatchHelper"* %6, null
  br i1 %8, label %14, label %9

9:                                                ; preds = %2
  %10 = bitcast %"class.password_manager::AffiliatedMatchHelper"* %6 to void (%"class.password_manager::AffiliatedMatchHelper"*)***
  %11 = load void (%"class.password_manager::AffiliatedMatchHelper"*)**, void (%"class.password_manager::AffiliatedMatchHelper"*)*** %10, align 8
  %12 = getelementptr inbounds void (%"class.password_manager::AffiliatedMatchHelper"*)*, void (%"class.password_manager::AffiliatedMatchHelper"*)** %11, i64 3
  %13 = load void (%"class.password_manager::AffiliatedMatchHelper"*)*, void (%"class.password_manager::AffiliatedMatchHelper"*)** %12, align 8
  tail call void %13(%"class.password_manager::AffiliatedMatchHelper"* nonnull %6) #16
  br label %14

14:                                               ; preds = %9, %2
  ret void
}

; Function Attrs: nounwind ssp uwtable
define hidden void @_ZN16password_manager13PasswordStore8AddLoginERKNS_12PasswordFormE(%"class.password_manager::PasswordStore"*, %"struct.password_manager::PasswordForm"* dereferenceable(1744)) unnamed_addr #0 align 2 {
  %3 = alloca %"class.base::Location", align 8
  %4 = alloca %"class.base::OnceCallback.215", align 8
  %5 = alloca %"class.base::OnceCallback.215", align 8
  %6 = tail call i8* @_Znwm(i64 1800) #17, !noalias !31
  %7 = bitcast i8* %6 to %"class.base::internal::BindStateBase"*
  tail call void @_ZN4base8internal13BindStateBaseC2EPFvvEPFvPKS1_E(%"class.base::internal::BindStateBase"* nonnull %7, void ()* bitcast (void (%"class.base::internal::BindStateBase"*)* @_ZN4base8internal7InvokerINS0_9BindStateIMN16password_manager13PasswordStoreEFvRKNS3_12PasswordFormEEJ13scoped_refptrIS4_ES5_EEEFvvEE7RunOnceEPNS0_13BindStateBaseE to void ()*), void (%"class.base::internal::BindStateBase"*)* nonnull @_ZN4base8internal9BindStateIMN16password_manager13PasswordStoreEFvRKNS2_12PasswordFormEEJ13scoped_refptrIS3_ES4_EE7DestroyEPKNS0_13BindStateBaseE) #16, !noalias !31
  %8 = getelementptr inbounds i8, i8* %6, i64 32
  %9 = bitcast i8* %8 to <2 x i64>*
  store <2 x i64> <i64 ptrtoint (void (%"class.password_manager::PasswordStore"*, %"struct.password_manager::PasswordForm"*)* @_ZN16password_manager13PasswordStore16AddLoginInternalERKNS_12PasswordFormE to i64), i64 0>, <2 x i64>* %9, align 8, !noalias !31
  %10 = getelementptr inbounds i8, i8* %6, i64 48
  %11 = bitcast i8* %10 to %"class.password_manager::PasswordStore"**
  store %"class.password_manager::PasswordStore"* %0, %"class.password_manager::PasswordStore"** %11, align 8, !noalias !31
  %12 = icmp eq %"class.password_manager::PasswordStore"* %0, null
  br i1 %12, label %16, label %13

13:                                               ; preds = %2
  %14 = getelementptr inbounds %"class.password_manager::PasswordStore", %"class.password_manager::PasswordStore"* %0, i64 0, i32 1, i32 1, i32 0, i32 0, i32 0, i32 0, i32 0, i32 0, i32 0, i32 0
  %15 = atomicrmw add i32* %14, i32 1 monotonic, !noalias !31
  br label %16

16:                                               ; preds = %2, %13
  %17 = getelementptr inbounds i8, i8* %6, i64 56
  %18 = bitcast i8* %17 to %"struct.password_manager::PasswordForm"*
  tail call void @_ZN16password_manager12PasswordFormC1ERKS0_(%"struct.password_manager::PasswordForm"* %18, %"struct.password_manager::PasswordForm"* dereferenceable(1744) %1) #16, !noalias !31
  %19 = bitcast %"class.base::OnceCallback.215"* %5 to i8**
  store i8* %6, i8** %19, align 8, !alias.scope !31
  %20 = bitcast %"class.base::OnceCallback.215"* %4 to i8*
  call void @llvm.lifetime.start.p0i8(i64 8, i8* nonnull %20)
  %21 = getelementptr inbounds %"class.password_manager::PasswordStore", %"class.password_manager::PasswordStore"* %0, i64 0, i32 3, i32 0
  %22 = load %"class.base::SequencedTaskRunner"*, %"class.base::SequencedTaskRunner"** %21, align 8
  %23 = icmp eq %"class.base::SequencedTaskRunner"* %22, null
  %24 = bitcast %"class.base::Location"* %3 to i8*
  call void @llvm.lifetime.start.p0i8(i64 32, i8* nonnull %24) #16
  br i1 %23, label %33, label %25

25:                                               ; preds = %16
  %26 = bitcast %"class.base::SequencedTaskRunner"* %22 to %"class.base::TaskRunner"*
  call void @_ZN4base8Location7CurrentEPKcS2_i(%"class.base::Location"* nonnull sret %3, i8* getelementptr inbounds ([13 x i8], [13 x i8]* @.str.13, i64 0, i64 0), i8* getelementptr inbounds ([65 x i8], [65 x i8]* @.str.2, i64 0, i64 0), i32 507) #16
  %27 = getelementptr inbounds %"class.base::OnceCallback.215", %"class.base::OnceCallback.215"* %5, i64 0, i32 0, i32 0, i32 0
  %28 = bitcast %"class.base::OnceCallback.215"* %5 to i64*
  %29 = load i64, i64* %28, align 8
  %30 = bitcast %"class.base::OnceCallback.215"* %4 to i64*
  store i64 %29, i64* %30, align 8
  store %"class.base::internal::BindStateBase"* null, %"class.base::internal::BindStateBase"** %27, align 8
  %31 = call zeroext i1 @_ZN4base10TaskRunner8PostTaskERKNS_8LocationENS_12OnceCallbackIFvvEEE(%"class.base::TaskRunner"* nonnull %26, %"class.base::Location"* nonnull dereferenceable(32) %3, %"class.base::OnceCallback.215"* nonnull %4) #16
  %32 = getelementptr inbounds %"class.base::OnceCallback.215", %"class.base::OnceCallback.215"* %4, i64 0, i32 0
  call void @_ZN4base8internal12CallbackBaseD2Ev(%"class.base::internal::CallbackBase"* nonnull %32) #16
  br label %33

33:                                               ; preds = %16, %25
  call void @llvm.lifetime.end.p0i8(i64 32, i8* nonnull %24) #16
  call void @llvm.lifetime.end.p0i8(i64 8, i8* nonnull %20)
  %34 = getelementptr inbounds %"class.base::OnceCallback.215", %"class.base::OnceCallback.215"* %5, i64 0, i32 0
  call void @_ZN4base8internal12CallbackBaseD2Ev(%"class.base::internal::CallbackBase"* nonnull %34) #16
  ret void
}

; Function Attrs: nounwind ssp uwtable
define hidden zeroext i1 @_ZN16password_manager13PasswordStore12ScheduleTaskEN4base12OnceCallbackIFvvEEE(%"class.password_manager::PasswordStore"* nocapture readonly, %"class.base::OnceCallback.215"* nocapture) local_unnamed_addr #0 align 2 {
  %3 = alloca %"class.base::Location", align 8
  %4 = alloca %"class.base::OnceCallback.215", align 8
  %5 = getelementptr inbounds %"class.password_manager::PasswordStore", %"class.password_manager::PasswordStore"* %0, i64 0, i32 3, i32 0
  %6 = load %"class.base::SequencedTaskRunner"*, %"class.base::SequencedTaskRunner"** %5, align 8
  %7 = icmp eq %"class.base::SequencedTaskRunner"* %6, null
  %8 = bitcast %"class.base::Location"* %3 to i8*
  call void @llvm.lifetime.start.p0i8(i64 32, i8* nonnull %8) #16
  br i1 %7, label %17, label %9

9:                                                ; preds = %2
  %10 = bitcast %"class.base::SequencedTaskRunner"* %6 to %"class.base::TaskRunner"*
  call void @_ZN4base8Location7CurrentEPKcS2_i(%"class.base::Location"* nonnull sret %3, i8* getelementptr inbounds ([13 x i8], [13 x i8]* @.str.13, i64 0, i64 0), i8* getelementptr inbounds ([65 x i8], [65 x i8]* @.str.2, i64 0, i64 0), i32 507) #16
  %11 = getelementptr inbounds %"class.base::OnceCallback.215", %"class.base::OnceCallback.215"* %1, i64 0, i32 0, i32 0, i32 0
  %12 = bitcast %"class.base::OnceCallback.215"* %1 to i64*
  %13 = load i64, i64* %12, align 8
  %14 = bitcast %"class.base::OnceCallback.215"* %4 to i64*
  store i64 %13, i64* %14, align 8
  store %"class.base::internal::BindStateBase"* null, %"class.base::internal::BindStateBase"** %11, align 8
  %15 = call zeroext i1 @_ZN4base10TaskRunner8PostTaskERKNS_8LocationENS_12OnceCallbackIFvvEEE(%"class.base::TaskRunner"* nonnull %10, %"class.base::Location"* nonnull dereferenceable(32) %3, %"class.base::OnceCallback.215"* nonnull %4) #16
  %16 = getelementptr inbounds %"class.base::OnceCallback.215", %"class.base::OnceCallback.215"* %4, i64 0, i32 0
  call void @_ZN4base8internal12CallbackBaseD2Ev(%"class.base::internal::CallbackBase"* nonnull %16) #16
  br label %17

17:                                               ; preds = %2, %9
  %18 = phi i1 [ %15, %9 ], [ false, %2 ]
  call void @llvm.lifetime.end.p0i8(i64 32, i8* nonnull %8) #16
  ret i1 %18
}

; Function Attrs: nounwind ssp uwtable
define hidden void @_ZN16password_manager13PasswordStore16AddLoginInternalERKNS_12PasswordFormE(%"class.password_manager::PasswordStore"*, %"struct.password_manager::PasswordForm"* dereferenceable(1744)) #0 align 2 {
  %3 = alloca %"class.base::TimeTicks", align 8
  %4 = alloca %"class.std::__1::vector.217", align 8
  %5 = load i8, i8* getelementptr inbounds ([300 x %"struct.base::trace_event::TraceCategory"], [300 x %"struct.base::trace_event::TraceCategory"]* @_ZN4base11trace_event16CategoryRegistry11categories_E, i64 0, i64 94, i32 0), align 16
  %6 = and i8 %5, 25
  %7 = icmp eq i8 %6, 0
  br i1 %7, label %14, label %8, !prof !5

8:                                                ; preds = %2
  %9 = tail call i32 @_ZN4base14PlatformThread9CurrentIdEv() #16
  %10 = bitcast %"class.base::TimeTicks"* %3 to i8*
  call void @llvm.lifetime.start.p0i8(i64 8, i8* nonnull %10) #16
  %11 = getelementptr inbounds %"class.base::TimeTicks", %"class.base::TimeTicks"* %3, i64 0, i32 0, i32 0
  %12 = tail call i64 @_ZN4base6subtle28TimeTicksNowIgnoringOverrideEv() #16
  store i64 %12, i64* %11, align 8
  %13 = call i64 @_ZN20trace_event_internal37AddTraceEventWithThreadIdAndTimestampEcPKhPKcS3_yyiRKN4base9TimeTicksEPNS4_11trace_event14TraceArgumentsEj(i8 signext 88, i8* getelementptr inbounds ([300 x %"struct.base::trace_event::TraceCategory"], [300 x %"struct.base::trace_event::TraceCategory"]* @_ZN4base11trace_event16CategoryRegistry11categories_E, i64 0, i64 94, i32 0), i8* getelementptr inbounds ([32 x i8], [32 x i8]* @.str.32, i64 0, i64 0), i8* null, i64 0, i64 0, i32 %9, %"class.base::TimeTicks"* nonnull dereferenceable(8) %3, %"class.base::trace_event::TraceArguments"* null, i32 0) #16
  call void @llvm.lifetime.end.p0i8(i64 8, i8* nonnull %10) #16
  br label %14

14:                                               ; preds = %2, %8
  %15 = phi i64 [ -6148914691236517206, %2 ], [ %13, %8 ]
  %16 = phi i8* [ inttoptr (i64 -6148914691236517206 to i8*), %2 ], [ getelementptr inbounds ([32 x i8], [32 x i8]* @.str.32, i64 0, i64 0), %8 ]
  %17 = phi i8* [ null, %2 ], [ getelementptr inbounds ([300 x %"struct.base::trace_event::TraceCategory"], [300 x %"struct.base::trace_event::TraceCategory"]* @_ZN4base11trace_event16CategoryRegistry11categories_E, i64 0, i64 94, i32 0), %8 ]
  %18 = getelementptr inbounds %"class.password_manager::PasswordStore", %"class.password_manager::PasswordStore"* %0, i64 0, i32 0
  %19 = bitcast %"class.password_manager::PasswordStore"* %0 to i1 (%"class.password_manager::PasswordStoreSync"*)***
  %20 = load i1 (%"class.password_manager::PasswordStoreSync"*)**, i1 (%"class.password_manager::PasswordStoreSync"*)*** %19, align 8
  %21 = getelementptr inbounds i1 (%"class.password_manager::PasswordStoreSync"*)*, i1 (%"class.password_manager::PasswordStoreSync"*)** %20, i64 13
  %22 = load i1 (%"class.password_manager::PasswordStoreSync"*)*, i1 (%"class.password_manager::PasswordStoreSync"*)** %21, align 8
  %23 = call zeroext i1 %22(%"class.password_manager::PasswordStoreSync"* %18) #16
  %24 = bitcast %"class.std::__1::vector.217"* %4 to i8*
  call void @llvm.lifetime.start.p0i8(i64 24, i8* nonnull %24) #16
  %25 = getelementptr inbounds %"class.std::__1::vector.217", %"class.std::__1::vector.217"* %4, i64 0, i32 0, i32 0
  %26 = getelementptr inbounds %"class.std::__1::vector.217", %"class.std::__1::vector.217"* %4, i64 0, i32 0, i32 1
  %27 = bitcast %"class.password_manager::PasswordStore"* %0 to void (%"class.std::__1::vector.217"*, %"class.password_manager::PasswordStore"*, %"struct.password_manager::PasswordForm"*, i32*)***
  %28 = bitcast %"class.std::__1::vector.217"* %4 to i8*
  call void @llvm.memset.p0i8.i64(i8* nonnull align 8 %28, i8 -86, i64 24, i1 false)
  %29 = load void (%"class.std::__1::vector.217"*, %"class.password_manager::PasswordStore"*, %"struct.password_manager::PasswordForm"*, i32*)**, void (%"class.std::__1::vector.217"*, %"class.password_manager::PasswordStore"*, %"struct.password_manager::PasswordForm"*, i32*)*** %27, align 8
  %30 = getelementptr inbounds void (%"class.std::__1::vector.217"*, %"class.password_manager::PasswordStore"*, %"struct.password_manager::PasswordForm"*, i32*)*, void (%"class.std::__1::vector.217"*, %"class.password_manager::PasswordStore"*, %"struct.password_manager::PasswordForm"*, i32*)** %29, i64 49
  %31 = load void (%"class.std::__1::vector.217"*, %"class.password_manager::PasswordStore"*, %"struct.password_manager::PasswordForm"*, i32*)*, void (%"class.std::__1::vector.217"*, %"class.password_manager::PasswordStore"*, %"struct.password_manager::PasswordForm"*, i32*)** %30, align 8
  call void %31(%"class.std::__1::vector.217"* nonnull sret %4, %"class.password_manager::PasswordStore"* %0, %"struct.password_manager::PasswordForm"* dereferenceable(1744) %1, i32* null) #16
  %32 = bitcast %"class.password_manager::PasswordStore"* %0 to void (%"class.password_manager::PasswordStore"*, %"class.std::__1::vector.217"*)***
  %33 = load void (%"class.password_manager::PasswordStore"*, %"class.std::__1::vector.217"*)**, void (%"class.password_manager::PasswordStore"*, %"class.std::__1::vector.217"*)*** %32, align 8
  %34 = getelementptr inbounds void (%"class.password_manager::PasswordStore"*, %"class.std::__1::vector.217"*)*, void (%"class.password_manager::PasswordStore"*, %"class.std::__1::vector.217"*)** %33, i64 9
  %35 = load void (%"class.password_manager::PasswordStore"*, %"class.std::__1::vector.217"*)*, void (%"class.password_manager::PasswordStore"*, %"class.std::__1::vector.217"*)** %34, align 8
  call void %35(%"class.password_manager::PasswordStore"* %0, %"class.std::__1::vector.217"* nonnull dereferenceable(24) %4) #16
  %36 = load i1 (%"class.password_manager::PasswordStoreSync"*)**, i1 (%"class.password_manager::PasswordStoreSync"*)*** %19, align 8
  %37 = getelementptr inbounds i1 (%"class.password_manager::PasswordStoreSync"*)*, i1 (%"class.password_manager::PasswordStoreSync"*)** %36, i64 15
  %38 = load i1 (%"class.password_manager::PasswordStoreSync"*)*, i1 (%"class.password_manager::PasswordStoreSync"*)** %37, align 8
  %39 = call zeroext i1 %38(%"class.password_manager::PasswordStoreSync"* %18) #16
  %40 = load %"class.password_manager::PasswordStoreChange"*, %"class.password_manager::PasswordStoreChange"** %25, align 8
  %41 = icmp eq %"class.password_manager::PasswordStoreChange"* %40, null
  br i1 %41, label %55, label %42

42:                                               ; preds = %14
  %43 = bitcast %"class.password_manager::PasswordStoreChange"* %40 to i8*
  %44 = load %"class.password_manager::PasswordStoreChange"*, %"class.password_manager::PasswordStoreChange"** %26, align 8
  %45 = icmp eq %"class.password_manager::PasswordStoreChange"* %44, %40
  br i1 %45, label %53, label %46

46:                                               ; preds = %42, %46
  %47 = phi %"class.password_manager::PasswordStoreChange"* [ %48, %46 ], [ %44, %42 ]
  %48 = getelementptr inbounds %"class.password_manager::PasswordStoreChange", %"class.password_manager::PasswordStoreChange"* %47, i64 -1
  call void @_ZN16password_manager19PasswordStoreChangeD1Ev(%"class.password_manager::PasswordStoreChange"* %48) #16
  %49 = icmp eq %"class.password_manager::PasswordStoreChange"* %48, %40
  br i1 %49, label %50, label %46

50:                                               ; preds = %46
  %51 = bitcast %"class.std::__1::vector.217"* %4 to i8**
  %52 = load i8*, i8** %51, align 8
  br label %53

53:                                               ; preds = %50, %42
  %54 = phi i8* [ %52, %50 ], [ %43, %42 ]
  store %"class.password_manager::PasswordStoreChange"* %40, %"class.password_manager::PasswordStoreChange"** %26, align 8
  call void @_ZdlPv(i8* %54) #17
  br label %55

55:                                               ; preds = %14, %53
  call void @llvm.lifetime.end.p0i8(i64 24, i8* nonnull %24) #16
  %56 = icmp eq i8* %17, null
  br i1 %56, label %61, label %57

57:                                               ; preds = %55
  %58 = load i8, i8* %17, align 1
  %59 = icmp eq i8 %58, 0
  br i1 %59, label %61, label %60

60:                                               ; preds = %57
  call void @_ZN20trace_event_internal24UpdateTraceEventDurationEPKhPKcN4base11trace_event16TraceEventHandleE(i8* nonnull %17, i8* %16, i64 %15) #16
  br label %61

61:                                               ; preds = %55, %57, %60
  ret void
}

; Function Attrs: nounwind ssp uwtable
define hidden void @_ZN16password_manager13PasswordStore11UpdateLoginERKNS_12PasswordFormE(%"class.password_manager::PasswordStore"*, %"struct.password_manager::PasswordForm"* dereferenceable(1744)) unnamed_addr #0 align 2 {
  %3 = alloca %"class.base::Location", align 8
  %4 = alloca %"class.base::OnceCallback.215", align 8
  %5 = alloca %"class.base::OnceCallback.215", align 8
  %6 = tail call i8* @_Znwm(i64 1800) #17, !noalias !36
  %7 = bitcast i8* %6 to %"class.base::internal::BindStateBase"*
  tail call void @_ZN4base8internal13BindStateBaseC2EPFvvEPFvPKS1_E(%"class.base::internal::BindStateBase"* nonnull %7, void ()* bitcast (void (%"class.base::internal::BindStateBase"*)* @_ZN4base8internal7InvokerINS0_9BindStateIMN16password_manager13PasswordStoreEFvRKNS3_12PasswordFormEEJ13scoped_refptrIS4_ES5_EEEFvvEE7RunOnceEPNS0_13BindStateBaseE to void ()*), void (%"class.base::internal::BindStateBase"*)* nonnull @_ZN4base8internal9BindStateIMN16password_manager13PasswordStoreEFvRKNS2_12PasswordFormEEJ13scoped_refptrIS3_ES4_EE7DestroyEPKNS0_13BindStateBaseE) #16, !noalias !36
  %8 = getelementptr inbounds i8, i8* %6, i64 32
  %9 = bitcast i8* %8 to <2 x i64>*
  store <2 x i64> <i64 ptrtoint (void (%"class.password_manager::PasswordStore"*, %"struct.password_manager::PasswordForm"*)* @_ZN16password_manager13PasswordStore19UpdateLoginInternalERKNS_12PasswordFormE to i64), i64 0>, <2 x i64>* %9, align 8, !noalias !36
  %10 = getelementptr inbounds i8, i8* %6, i64 48
  %11 = bitcast i8* %10 to %"class.password_manager::PasswordStore"**
  store %"class.password_manager::PasswordStore"* %0, %"class.password_manager::PasswordStore"** %11, align 8, !noalias !36
  %12 = icmp eq %"class.password_manager::PasswordStore"* %0, null
  br i1 %12, label %16, label %13

13:                                               ; preds = %2
  %14 = getelementptr inbounds %"class.password_manager::PasswordStore", %"class.password_manager::PasswordStore"* %0, i64 0, i32 1, i32 1, i32 0, i32 0, i32 0, i32 0, i32 0, i32 0, i32 0, i32 0
  %15 = atomicrmw add i32* %14, i32 1 monotonic, !noalias !36
  br label %16

16:                                               ; preds = %2, %13
  %17 = getelementptr inbounds i8, i8* %6, i64 56
  %18 = bitcast i8* %17 to %"struct.password_manager::PasswordForm"*
  tail call void @_ZN16password_manager12PasswordFormC1ERKS0_(%"struct.password_manager::PasswordForm"* %18, %"struct.password_manager::PasswordForm"* dereferenceable(1744) %1) #16, !noalias !36
  %19 = bitcast %"class.base::OnceCallback.215"* %5 to i8**
  store i8* %6, i8** %19, align 8, !alias.scope !36
  %20 = bitcast %"class.base::OnceCallback.215"* %4 to i8*
  call void @llvm.lifetime.start.p0i8(i64 8, i8* nonnull %20)
  %21 = getelementptr inbounds %"class.password_manager::PasswordStore", %"class.password_manager::PasswordStore"* %0, i64 0, i32 3, i32 0
  %22 = load %"class.base::SequencedTaskRunner"*, %"class.base::SequencedTaskRunner"** %21, align 8
  %23 = icmp eq %"class.base::SequencedTaskRunner"* %22, null
  %24 = bitcast %"class.base::Location"* %3 to i8*
  call void @llvm.lifetime.start.p0i8(i64 32, i8* nonnull %24) #16
  br i1 %23, label %33, label %25

25:                                               ; preds = %16
  %26 = bitcast %"class.base::SequencedTaskRunner"* %22 to %"class.base::TaskRunner"*
  call void @_ZN4base8Location7CurrentEPKcS2_i(%"class.base::Location"* nonnull sret %3, i8* getelementptr inbounds ([13 x i8], [13 x i8]* @.str.13, i64 0, i64 0), i8* getelementptr inbounds ([65 x i8], [65 x i8]* @.str.2, i64 0, i64 0), i32 507) #16
  %27 = getelementptr inbounds %"class.base::OnceCallback.215", %"class.base::OnceCallback.215"* %5, i64 0, i32 0, i32 0, i32 0
  %28 = bitcast %"class.base::OnceCallback.215"* %5 to i64*
  %29 = load i64, i64* %28, align 8
  %30 = bitcast %"class.base::OnceCallback.215"* %4 to i64*
  store i64 %29, i64* %30, align 8
  store %"class.base::internal::BindStateBase"* null, %"class.base::internal::BindStateBase"** %27, align 8
  %31 = call zeroext i1 @_ZN4base10TaskRunner8PostTaskERKNS_8LocationENS_12OnceCallbackIFvvEEE(%"class.base::TaskRunner"* nonnull %26, %"class.base::Location"* nonnull dereferenceable(32) %3, %"class.base::OnceCallback.215"* nonnull %4) #16
  %32 = getelementptr inbounds %"class.base::OnceCallback.215", %"class.base::OnceCallback.215"* %4, i64 0, i32 0
  call void @_ZN4base8internal12CallbackBaseD2Ev(%"class.base::internal::CallbackBase"* nonnull %32) #16
  br label %33

33:                                               ; preds = %16, %25
  call void @llvm.lifetime.end.p0i8(i64 32, i8* nonnull %24) #16
  call void @llvm.lifetime.end.p0i8(i64 8, i8* nonnull %20)
  %34 = getelementptr inbounds %"class.base::OnceCallback.215", %"class.base::OnceCallback.215"* %5, i64 0, i32 0
  call void @_ZN4base8internal12CallbackBaseD2Ev(%"class.base::internal::CallbackBase"* nonnull %34) #16
  ret void
}

; Function Attrs: nounwind ssp uwtable
define hidden void @_ZN16password_manager13PasswordStore19UpdateLoginInternalERKNS_12PasswordFormE(%"class.password_manager::PasswordStore"*, %"struct.password_manager::PasswordForm"* dereferenceable(1744)) #0 align 2 {
  %3 = alloca %"class.base::TimeTicks", align 8
  %4 = alloca %"class.std::__1::vector.217", align 8
  %5 = load i8, i8* getelementptr inbounds ([300 x %"struct.base::trace_event::TraceCategory"], [300 x %"struct.base::trace_event::TraceCategory"]* @_ZN4base11trace_event16CategoryRegistry11categories_E, i64 0, i64 94, i32 0), align 16
  %6 = and i8 %5, 25
  %7 = icmp eq i8 %6, 0
  br i1 %7, label %14, label %8, !prof !5

8:                                                ; preds = %2
  %9 = tail call i32 @_ZN4base14PlatformThread9CurrentIdEv() #16
  %10 = bitcast %"class.base::TimeTicks"* %3 to i8*
  call void @llvm.lifetime.start.p0i8(i64 8, i8* nonnull %10) #16
  %11 = getelementptr inbounds %"class.base::TimeTicks", %"class.base::TimeTicks"* %3, i64 0, i32 0, i32 0
  %12 = tail call i64 @_ZN4base6subtle28TimeTicksNowIgnoringOverrideEv() #16
  store i64 %12, i64* %11, align 8
  %13 = call i64 @_ZN20trace_event_internal37AddTraceEventWithThreadIdAndTimestampEcPKhPKcS3_yyiRKN4base9TimeTicksEPNS4_11trace_event14TraceArgumentsEj(i8 signext 88, i8* getelementptr inbounds ([300 x %"struct.base::trace_event::TraceCategory"], [300 x %"struct.base::trace_event::TraceCategory"]* @_ZN4base11trace_event16CategoryRegistry11categories_E, i64 0, i64 94, i32 0), i8* getelementptr inbounds ([35 x i8], [35 x i8]* @.str.33, i64 0, i64 0), i8* null, i64 0, i64 0, i32 %9, %"class.base::TimeTicks"* nonnull dereferenceable(8) %3, %"class.base::trace_event::TraceArguments"* null, i32 0) #16
  call void @llvm.lifetime.end.p0i8(i64 8, i8* nonnull %10) #16
  br label %14

14:                                               ; preds = %2, %8
  %15 = phi i64 [ -6148914691236517206, %2 ], [ %13, %8 ]
  %16 = phi i8* [ inttoptr (i64 -6148914691236517206 to i8*), %2 ], [ getelementptr inbounds ([35 x i8], [35 x i8]* @.str.33, i64 0, i64 0), %8 ]
  %17 = phi i8* [ null, %2 ], [ getelementptr inbounds ([300 x %"struct.base::trace_event::TraceCategory"], [300 x %"struct.base::trace_event::TraceCategory"]* @_ZN4base11trace_event16CategoryRegistry11categories_E, i64 0, i64 94, i32 0), %8 ]
  %18 = getelementptr inbounds %"class.password_manager::PasswordStore", %"class.password_manager::PasswordStore"* %0, i64 0, i32 0
  %19 = bitcast %"class.password_manager::PasswordStore"* %0 to i1 (%"class.password_manager::PasswordStoreSync"*)***
  %20 = load i1 (%"class.password_manager::PasswordStoreSync"*)**, i1 (%"class.password_manager::PasswordStoreSync"*)*** %19, align 8
  %21 = getelementptr inbounds i1 (%"class.password_manager::PasswordStoreSync"*)*, i1 (%"class.password_manager::PasswordStoreSync"*)** %20, i64 13
  %22 = load i1 (%"class.password_manager::PasswordStoreSync"*)*, i1 (%"class.password_manager::PasswordStoreSync"*)** %21, align 8
  %23 = call zeroext i1 %22(%"class.password_manager::PasswordStoreSync"* %18) #16
  %24 = bitcast %"class.std::__1::vector.217"* %4 to i8*
  call void @llvm.lifetime.start.p0i8(i64 24, i8* nonnull %24) #16
  %25 = getelementptr inbounds %"class.std::__1::vector.217", %"class.std::__1::vector.217"* %4, i64 0, i32 0, i32 0
  %26 = getelementptr inbounds %"class.std::__1::vector.217", %"class.std::__1::vector.217"* %4, i64 0, i32 0, i32 1
  %27 = bitcast %"class.password_manager::PasswordStore"* %0 to void (%"class.std::__1::vector.217"*, %"class.password_manager::PasswordStore"*, %"struct.password_manager::PasswordForm"*, i32*)***
  %28 = bitcast %"class.std::__1::vector.217"* %4 to i8*
  call void @llvm.memset.p0i8.i64(i8* nonnull align 8 %28, i8 -86, i64 24, i1 false)
  %29 = load void (%"class.std::__1::vector.217"*, %"class.password_manager::PasswordStore"*, %"struct.password_manager::PasswordForm"*, i32*)**, void (%"class.std::__1::vector.217"*, %"class.password_manager::PasswordStore"*, %"struct.password_manager::PasswordForm"*, i32*)*** %27, align 8
  %30 = getelementptr inbounds void (%"class.std::__1::vector.217"*, %"class.password_manager::PasswordStore"*, %"struct.password_manager::PasswordForm"*, i32*)*, void (%"class.std::__1::vector.217"*, %"class.password_manager::PasswordStore"*, %"struct.password_manager::PasswordForm"*, i32*)** %29, i64 50
  %31 = load void (%"class.std::__1::vector.217"*, %"class.password_manager::PasswordStore"*, %"struct.password_manager::PasswordForm"*, i32*)*, void (%"class.std::__1::vector.217"*, %"class.password_manager::PasswordStore"*, %"struct.password_manager::PasswordForm"*, i32*)** %30, align 8
  call void %31(%"class.std::__1::vector.217"* nonnull sret %4, %"class.password_manager::PasswordStore"* %0, %"struct.password_manager::PasswordForm"* dereferenceable(1744) %1, i32* null) #16
  %32 = bitcast %"class.password_manager::PasswordStore"* %0 to void (%"class.password_manager::PasswordStore"*, %"class.std::__1::vector.217"*)***
  %33 = load void (%"class.password_manager::PasswordStore"*, %"class.std::__1::vector.217"*)**, void (%"class.password_manager::PasswordStore"*, %"class.std::__1::vector.217"*)*** %32, align 8
  %34 = getelementptr inbounds void (%"class.password_manager::PasswordStore"*, %"class.std::__1::vector.217"*)*, void (%"class.password_manager::PasswordStore"*, %"class.std::__1::vector.217"*)** %33, i64 9
  %35 = load void (%"class.password_manager::PasswordStore"*, %"class.std::__1::vector.217"*)*, void (%"class.password_manager::PasswordStore"*, %"class.std::__1::vector.217"*)** %34, align 8
  call void %35(%"class.password_manager::PasswordStore"* %0, %"class.std::__1::vector.217"* nonnull dereferenceable(24) %4) #16
  %36 = load i1 (%"class.password_manager::PasswordStoreSync"*)**, i1 (%"class.password_manager::PasswordStoreSync"*)*** %19, align 8
  %37 = getelementptr inbounds i1 (%"class.password_manager::PasswordStoreSync"*)*, i1 (%"class.password_manager::PasswordStoreSync"*)** %36, i64 15
  %38 = load i1 (%"class.password_manager::PasswordStoreSync"*)*, i1 (%"class.password_manager::PasswordStoreSync"*)** %37, align 8
  %39 = call zeroext i1 %38(%"class.password_manager::PasswordStoreSync"* %18) #16
  %40 = load %"class.password_manager::PasswordStoreChange"*, %"class.password_manager::PasswordStoreChange"** %25, align 8
  %41 = icmp eq %"class.password_manager::PasswordStoreChange"* %40, null
  br i1 %41, label %55, label %42

42:                                               ; preds = %14
  %43 = bitcast %"class.password_manager::PasswordStoreChange"* %40 to i8*
  %44 = load %"class.password_manager::PasswordStoreChange"*, %"class.password_manager::PasswordStoreChange"** %26, align 8
  %45 = icmp eq %"class.password_manager::PasswordStoreChange"* %44, %40
  br i1 %45, label %53, label %46

46:                                               ; preds = %42, %46
  %47 = phi %"class.password_manager::PasswordStoreChange"* [ %48, %46 ], [ %44, %42 ]
  %48 = getelementptr inbounds %"class.password_manager::PasswordStoreChange", %"class.password_manager::PasswordStoreChange"* %47, i64 -1
  call void @_ZN16password_manager19PasswordStoreChangeD1Ev(%"class.password_manager::PasswordStoreChange"* %48) #16
  %49 = icmp eq %"class.password_manager::PasswordStoreChange"* %48, %40
  br i1 %49, label %50, label %46

50:                                               ; preds = %46
  %51 = bitcast %"class.std::__1::vector.217"* %4 to i8**
  %52 = load i8*, i8** %51, align 8
  br label %53

53:                                               ; preds = %50, %42
  %54 = phi i8* [ %52, %50 ], [ %43, %42 ]
  store %"class.password_manager::PasswordStoreChange"* %40, %"class.password_manager::PasswordStoreChange"** %26, align 8
  call void @_ZdlPv(i8* %54) #17
  br label %55

55:                                               ; preds = %14, %53
  call void @llvm.lifetime.end.p0i8(i64 24, i8* nonnull %24) #16
  %56 = icmp eq i8* %17, null
  br i1 %56, label %61, label %57

57:                                               ; preds = %55
  %58 = load i8, i8* %17, align 1
  %59 = icmp eq i8 %58, 0
  br i1 %59, label %61, label %60

60:                                               ; preds = %57
  call void @_ZN20trace_event_internal24UpdateTraceEventDurationEPKhPKcN4base11trace_event16TraceEventHandleE(i8* nonnull %17, i8* %16, i64 %15) #16
  br label %61

61:                                               ; preds = %55, %57, %60
  ret void
}

; Function Attrs: nounwind ssp uwtable
define hidden void @_ZN16password_manager13PasswordStore25UpdateLoginWithPrimaryKeyERKNS_12PasswordFormES3_(%"class.password_manager::PasswordStore"*, %"struct.password_manager::PasswordForm"* dereferenceable(1744), %"struct.password_manager::PasswordForm"* dereferenceable(1744)) unnamed_addr #0 align 2 {
  %4 = alloca %"class.base::Location", align 8
  %5 = alloca %"class.base::OnceCallback.215", align 8
  %6 = alloca %"class.base::OnceCallback.215", align 8
  %7 = tail call i8* @_Znwm(i64 3544) #17, !noalias !41
  %8 = bitcast i8* %7 to %"class.base::internal::BindStateBase"*
  tail call void @_ZN4base8internal13BindStateBaseC2EPFvvEPFvPKS1_E(%"class.base::internal::BindStateBase"* nonnull %8, void ()* bitcast (void (%"class.base::internal::BindStateBase"*)* @_ZN4base8internal7InvokerINS0_9BindStateIMN16password_manager13PasswordStoreEFvRKNS3_12PasswordFormES7_EJ13scoped_refptrIS4_ES5_S5_EEEFvvEE7RunOnceEPNS0_13BindStateBaseE to void ()*), void (%"class.base::internal::BindStateBase"*)* nonnull @_ZN4base8internal9BindStateIMN16password_manager13PasswordStoreEFvRKNS2_12PasswordFormES6_EJ13scoped_refptrIS3_ES4_S4_EE7DestroyEPKNS0_13BindStateBaseE) #16, !noalias !41
  %9 = getelementptr inbounds i8, i8* %7, i64 32
  %10 = bitcast i8* %9 to <2 x i64>*
  store <2 x i64> <i64 ptrtoint (void (%"class.password_manager::PasswordStore"*, %"struct.password_manager::PasswordForm"*, %"struct.password_manager::PasswordForm"*)* @_ZN16password_manager13PasswordStore33UpdateLoginWithPrimaryKeyInternalERKNS_12PasswordFormES3_ to i64), i64 0>, <2 x i64>* %10, align 8, !noalias !41
  %11 = getelementptr inbounds i8, i8* %7, i64 48
  %12 = bitcast i8* %11 to %"class.password_manager::PasswordStore"**
  store %"class.password_manager::PasswordStore"* %0, %"class.password_manager::PasswordStore"** %12, align 8, !noalias !41
  %13 = icmp eq %"class.password_manager::PasswordStore"* %0, null
  br i1 %13, label %17, label %14

14:                                               ; preds = %3
  %15 = getelementptr inbounds %"class.password_manager::PasswordStore", %"class.password_manager::PasswordStore"* %0, i64 0, i32 1, i32 1, i32 0, i32 0, i32 0, i32 0, i32 0, i32 0, i32 0, i32 0
  %16 = atomicrmw add i32* %15, i32 1 monotonic, !noalias !41
  br label %17

17:                                               ; preds = %3, %14
  %18 = getelementptr inbounds i8, i8* %7, i64 56
  %19 = bitcast i8* %18 to %"struct.password_manager::PasswordForm"*
  tail call void @_ZN16password_manager12PasswordFormC1ERKS0_(%"struct.password_manager::PasswordForm"* %19, %"struct.password_manager::PasswordForm"* dereferenceable(1744) %1) #16, !noalias !41
  %20 = getelementptr inbounds i8, i8* %7, i64 1800
  %21 = bitcast i8* %20 to %"struct.password_manager::PasswordForm"*
  tail call void @_ZN16password_manager12PasswordFormC1ERKS0_(%"struct.password_manager::PasswordForm"* %21, %"struct.password_manager::PasswordForm"* dereferenceable(1744) %2) #16, !noalias !41
  %22 = bitcast %"class.base::OnceCallback.215"* %6 to i8**
  store i8* %7, i8** %22, align 8, !alias.scope !41
  %23 = bitcast %"class.base::OnceCallback.215"* %5 to i8*
  call void @llvm.lifetime.start.p0i8(i64 8, i8* nonnull %23)
  %24 = getelementptr inbounds %"class.password_manager::PasswordStore", %"class.password_manager::PasswordStore"* %0, i64 0, i32 3, i32 0
  %25 = load %"class.base::SequencedTaskRunner"*, %"class.base::SequencedTaskRunner"** %24, align 8
  %26 = icmp eq %"class.base::SequencedTaskRunner"* %25, null
  %27 = bitcast %"class.base::Location"* %4 to i8*
  call void @llvm.lifetime.start.p0i8(i64 32, i8* nonnull %27) #16
  br i1 %26, label %36, label %28

28:                                               ; preds = %17
  %29 = bitcast %"class.base::SequencedTaskRunner"* %25 to %"class.base::TaskRunner"*
  call void @_ZN4base8Location7CurrentEPKcS2_i(%"class.base::Location"* nonnull sret %4, i8* getelementptr inbounds ([13 x i8], [13 x i8]* @.str.13, i64 0, i64 0), i8* getelementptr inbounds ([65 x i8], [65 x i8]* @.str.2, i64 0, i64 0), i32 507) #16
  %30 = getelementptr inbounds %"class.base::OnceCallback.215", %"class.base::OnceCallback.215"* %6, i64 0, i32 0, i32 0, i32 0
  %31 = bitcast %"class.base::OnceCallback.215"* %6 to i64*
  %32 = load i64, i64* %31, align 8
  %33 = bitcast %"class.base::OnceCallback.215"* %5 to i64*
  store i64 %32, i64* %33, align 8
  store %"class.base::internal::BindStateBase"* null, %"class.base::internal::BindStateBase"** %30, align 8
  %34 = call zeroext i1 @_ZN4base10TaskRunner8PostTaskERKNS_8LocationENS_12OnceCallbackIFvvEEE(%"class.base::TaskRunner"* nonnull %29, %"class.base::Location"* nonnull dereferenceable(32) %4, %"class.base::OnceCallback.215"* nonnull %5) #16
  %35 = getelementptr inbounds %"class.base::OnceCallback.215", %"class.base::OnceCallback.215"* %5, i64 0, i32 0
  call void @_ZN4base8internal12CallbackBaseD2Ev(%"class.base::internal::CallbackBase"* nonnull %35) #16
  br label %36

36:                                               ; preds = %17, %28
  call void @llvm.lifetime.end.p0i8(i64 32, i8* nonnull %27) #16
  call void @llvm.lifetime.end.p0i8(i64 8, i8* nonnull %23)
  %37 = getelementptr inbounds %"class.base::OnceCallback.215", %"class.base::OnceCallback.215"* %6, i64 0, i32 0
  call void @_ZN4base8internal12CallbackBaseD2Ev(%"class.base::internal::CallbackBase"* nonnull %37) #16
  ret void
}

; Function Attrs: nounwind ssp uwtable
define hidden void @_ZN16password_manager13PasswordStore33UpdateLoginWithPrimaryKeyInternalERKNS_12PasswordFormES3_(%"class.password_manager::PasswordStore"*, %"struct.password_manager::PasswordForm"* dereferenceable(1744), %"struct.password_manager::PasswordForm"* dereferenceable(1744)) #0 align 2 {
  %4 = alloca %"class.base::TimeTicks", align 8
  %5 = alloca %"class.std::__1::vector.217", align 8
  %6 = alloca %"class.std::__1::vector.217", align 8
  %7 = load i8, i8* getelementptr inbounds ([300 x %"struct.base::trace_event::TraceCategory"], [300 x %"struct.base::trace_event::TraceCategory"]* @_ZN4base11trace_event16CategoryRegistry11categories_E, i64 0, i64 94, i32 0), align 16
  %8 = and i8 %7, 25
  %9 = icmp eq i8 %8, 0
  br i1 %9, label %16, label %10, !prof !5

10:                                               ; preds = %3
  %11 = tail call i32 @_ZN4base14PlatformThread9CurrentIdEv() #16
  %12 = bitcast %"class.base::TimeTicks"* %4 to i8*
  call void @llvm.lifetime.start.p0i8(i64 8, i8* nonnull %12) #16
  %13 = getelementptr inbounds %"class.base::TimeTicks", %"class.base::TimeTicks"* %4, i64 0, i32 0, i32 0
  %14 = tail call i64 @_ZN4base6subtle28TimeTicksNowIgnoringOverrideEv() #16
  store i64 %14, i64* %13, align 8
  %15 = call i64 @_ZN20trace_event_internal37AddTraceEventWithThreadIdAndTimestampEcPKhPKcS3_yyiRKN4base9TimeTicksEPNS4_11trace_event14TraceArgumentsEj(i8 signext 88, i8* getelementptr inbounds ([300 x %"struct.base::trace_event::TraceCategory"], [300 x %"struct.base::trace_event::TraceCategory"]* @_ZN4base11trace_event16CategoryRegistry11categories_E, i64 0, i64 94, i32 0), i8* getelementptr inbounds ([49 x i8], [49 x i8]* @.str.35, i64 0, i64 0), i8* null, i64 0, i64 0, i32 %11, %"class.base::TimeTicks"* nonnull dereferenceable(8) %4, %"class.base::trace_event::TraceArguments"* null, i32 0) #16
  call void @llvm.lifetime.end.p0i8(i64 8, i8* nonnull %12) #16
  br label %16

16:                                               ; preds = %3, %10
  %17 = phi i8* [ null, %3 ], [ getelementptr inbounds ([300 x %"struct.base::trace_event::TraceCategory"], [300 x %"struct.base::trace_event::TraceCategory"]* @_ZN4base11trace_event16CategoryRegistry11categories_E, i64 0, i64 94, i32 0), %10 ]
  %18 = phi i8* [ inttoptr (i64 -6148914691236517206 to i8*), %3 ], [ getelementptr inbounds ([49 x i8], [49 x i8]* @.str.35, i64 0, i64 0), %10 ]
  %19 = phi i64 [ -6148914691236517206, %3 ], [ %15, %10 ]
  %20 = getelementptr inbounds %"class.password_manager::PasswordStore", %"class.password_manager::PasswordStore"* %0, i64 0, i32 0
  %21 = bitcast %"class.password_manager::PasswordStore"* %0 to i1 (%"class.password_manager::PasswordStoreSync"*)***
  %22 = load i1 (%"class.password_manager::PasswordStoreSync"*)**, i1 (%"class.password_manager::PasswordStoreSync"*)*** %21, align 8
  %23 = getelementptr inbounds i1 (%"class.password_manager::PasswordStoreSync"*)*, i1 (%"class.password_manager::PasswordStoreSync"*)** %22, i64 13
  %24 = load i1 (%"class.password_manager::PasswordStoreSync"*)*, i1 (%"class.password_manager::PasswordStoreSync"*)** %23, align 8
  %25 = call zeroext i1 %24(%"class.password_manager::PasswordStoreSync"* %20) #16
  %26 = bitcast %"class.std::__1::vector.217"* %5 to i8*
  call void @llvm.lifetime.start.p0i8(i64 24, i8* nonnull %26) #16
  %27 = getelementptr inbounds %"class.std::__1::vector.217", %"class.std::__1::vector.217"* %5, i64 0, i32 0, i32 0
  %28 = getelementptr inbounds %"class.std::__1::vector.217", %"class.std::__1::vector.217"* %5, i64 0, i32 0, i32 1
  %29 = bitcast %"class.password_manager::PasswordStore"* %0 to void (%"class.std::__1::vector.217"*, %"class.password_manager::PasswordStore"*, %"struct.password_manager::PasswordForm"*)***
  %30 = bitcast %"class.std::__1::vector.217"* %5 to i8*
  call void @llvm.memset.p0i8.i64(i8* nonnull align 8 %30, i8 -86, i64 24, i1 false)
  %31 = load void (%"class.std::__1::vector.217"*, %"class.password_manager::PasswordStore"*, %"struct.password_manager::PasswordForm"*)**, void (%"class.std::__1::vector.217"*, %"class.password_manager::PasswordStore"*, %"struct.password_manager::PasswordForm"*)*** %29, align 8
  %32 = getelementptr inbounds void (%"class.std::__1::vector.217"*, %"class.password_manager::PasswordStore"*, %"struct.password_manager::PasswordForm"*)*, void (%"class.std::__1::vector.217"*, %"class.password_manager::PasswordStore"*, %"struct.password_manager::PasswordForm"*)** %31, i64 51
  %33 = load void (%"class.std::__1::vector.217"*, %"class.password_manager::PasswordStore"*, %"struct.password_manager::PasswordForm"*)*, void (%"class.std::__1::vector.217"*, %"class.password_manager::PasswordStore"*, %"struct.password_manager::PasswordForm"*)** %32, align 8
  call void %33(%"class.std::__1::vector.217"* nonnull sret %5, %"class.password_manager::PasswordStore"* %0, %"struct.password_manager::PasswordForm"* dereferenceable(1744) %2) #16
  %34 = bitcast %"class.std::__1::vector.217"* %6 to i8*
  call void @llvm.lifetime.start.p0i8(i64 24, i8* nonnull %34) #16
  %35 = getelementptr inbounds %"class.std::__1::vector.217", %"class.std::__1::vector.217"* %6, i64 0, i32 0, i32 0
  %36 = getelementptr inbounds %"class.std::__1::vector.217", %"class.std::__1::vector.217"* %6, i64 0, i32 0, i32 1
  %37 = bitcast %"class.password_manager::PasswordStore"* %0 to void (%"class.std::__1::vector.217"*, %"class.password_manager::PasswordStore"*, %"struct.password_manager::PasswordForm"*, i32*)***
  %38 = bitcast %"class.std::__1::vector.217"* %6 to i8*
  call void @llvm.memset.p0i8.i64(i8* nonnull align 8 %38, i8 -86, i64 24, i1 false)
  %39 = load void (%"class.std::__1::vector.217"*, %"class.password_manager::PasswordStore"*, %"struct.password_manager::PasswordForm"*, i32*)**, void (%"class.std::__1::vector.217"*, %"class.password_manager::PasswordStore"*, %"struct.password_manager::PasswordForm"*, i32*)*** %37, align 8
  %40 = getelementptr inbounds void (%"class.std::__1::vector.217"*, %"class.password_manager::PasswordStore"*, %"struct.password_manager::PasswordForm"*, i32*)*, void (%"class.std::__1::vector.217"*, %"class.password_manager::PasswordStore"*, %"struct.password_manager::PasswordForm"*, i32*)** %39, i64 49
  %41 = load void (%"class.std::__1::vector.217"*, %"class.password_manager::PasswordStore"*, %"struct.password_manager::PasswordForm"*, i32*)*, void (%"class.std::__1::vector.217"*, %"class.password_manager::PasswordStore"*, %"struct.password_manager::PasswordForm"*, i32*)** %40, align 8
  call void %41(%"class.std::__1::vector.217"* nonnull sret %6, %"class.password_manager::PasswordStore"* %0, %"struct.password_manager::PasswordForm"* dereferenceable(1744) %1, i32* null) #16
  %42 = load %"class.password_manager::PasswordStoreChange"*, %"class.password_manager::PasswordStoreChange"** %28, align 8
  %43 = load %"class.password_manager::PasswordStoreChange"*, %"class.password_manager::PasswordStoreChange"** %35, align 8
  %44 = load %"class.password_manager::PasswordStoreChange"*, %"class.password_manager::PasswordStoreChange"** %36, align 8
  %45 = call %"class.password_manager::PasswordStoreChange"* @_ZNSt3__16vectorIN16password_manager19PasswordStoreChangeENS_9allocatorIS2_EEE6insertINS_11__wrap_iterIPS2_EEEENS_9enable_ifIXaasr27__is_cpp17_forward_iteratorIT_EE5valuesr16is_constructibleIS2_NS_15iterator_traitsISB_E9referenceEEE5valueES9_E4typeENS7_IPKS2_EESB_SB_(%"class.std::__1::vector.217"* nonnull %5, %"class.password_manager::PasswordStoreChange"* %42, %"class.password_manager::PasswordStoreChange"* %43, %"class.password_manager::PasswordStoreChange"* %44)
  %46 = bitcast %"class.password_manager::PasswordStore"* %0 to void (%"class.password_manager::PasswordStore"*, %"class.std::__1::vector.217"*)***
  %47 = load void (%"class.password_manager::PasswordStore"*, %"class.std::__1::vector.217"*)**, void (%"class.password_manager::PasswordStore"*, %"class.std::__1::vector.217"*)*** %46, align 8
  %48 = getelementptr inbounds void (%"class.password_manager::PasswordStore"*, %"class.std::__1::vector.217"*)*, void (%"class.password_manager::PasswordStore"*, %"class.std::__1::vector.217"*)** %47, i64 9
  %49 = load void (%"class.password_manager::PasswordStore"*, %"class.std::__1::vector.217"*)*, void (%"class.password_manager::PasswordStore"*, %"class.std::__1::vector.217"*)** %48, align 8
  call void %49(%"class.password_manager::PasswordStore"* %0, %"class.std::__1::vector.217"* nonnull dereferenceable(24) %5) #16
  %50 = load i1 (%"class.password_manager::PasswordStoreSync"*)**, i1 (%"class.password_manager::PasswordStoreSync"*)*** %21, align 8
  %51 = getelementptr inbounds i1 (%"class.password_manager::PasswordStoreSync"*)*, i1 (%"class.password_manager::PasswordStoreSync"*)** %50, i64 15
  %52 = load i1 (%"class.password_manager::PasswordStoreSync"*)*, i1 (%"class.password_manager::PasswordStoreSync"*)** %51, align 8
  %53 = call zeroext i1 %52(%"class.password_manager::PasswordStoreSync"* %20) #16
  %54 = load %"class.password_manager::PasswordStoreChange"*, %"class.password_manager::PasswordStoreChange"** %35, align 8
  %55 = icmp eq %"class.password_manager::PasswordStoreChange"* %54, null
  br i1 %55, label %69, label %56

56:                                               ; preds = %16
  %57 = bitcast %"class.password_manager::PasswordStoreChange"* %54 to i8*
  %58 = load %"class.password_manager::PasswordStoreChange"*, %"class.password_manager::PasswordStoreChange"** %36, align 8
  %59 = icmp eq %"class.password_manager::PasswordStoreChange"* %58, %54
  br i1 %59, label %67, label %60

60:                                               ; preds = %56, %60
  %61 = phi %"class.password_manager::PasswordStoreChange"* [ %62, %60 ], [ %58, %56 ]
  %62 = getelementptr inbounds %"class.password_manager::PasswordStoreChange", %"class.password_manager::PasswordStoreChange"* %61, i64 -1
  call void @_ZN16password_manager19PasswordStoreChangeD1Ev(%"class.password_manager::PasswordStoreChange"* %62) #16
  %63 = icmp eq %"class.password_manager::PasswordStoreChange"* %62, %54
  br i1 %63, label %64, label %60

64:                                               ; preds = %60
  %65 = bitcast %"class.std::__1::vector.217"* %6 to i8**
  %66 = load i8*, i8** %65, align 8
  br label %67

67:                                               ; preds = %64, %56
  %68 = phi i8* [ %66, %64 ], [ %57, %56 ]
  store %"class.password_manager::PasswordStoreChange"* %54, %"class.password_manager::PasswordStoreChange"** %36, align 8
  call void @_ZdlPv(i8* %68) #17
  br label %69

69:                                               ; preds = %16, %67
  call void @llvm.lifetime.end.p0i8(i64 24, i8* nonnull %34) #16
  %70 = load %"class.password_manager::PasswordStoreChange"*, %"class.password_manager::PasswordStoreChange"** %27, align 8
  %71 = icmp eq %"class.password_manager::PasswordStoreChange"* %70, null
  br i1 %71, label %85, label %72

72:                                               ; preds = %69
  %73 = bitcast %"class.password_manager::PasswordStoreChange"* %70 to i8*
  %74 = load %"class.password_manager::PasswordStoreChange"*, %"class.password_manager::PasswordStoreChange"** %28, align 8
  %75 = icmp eq %"class.password_manager::PasswordStoreChange"* %74, %70
  br i1 %75, label %83, label %76

76:                                               ; preds = %72, %76
  %77 = phi %"class.password_manager::PasswordStoreChange"* [ %78, %76 ], [ %74, %72 ]
  %78 = getelementptr inbounds %"class.password_manager::PasswordStoreChange", %"class.password_manager::PasswordStoreChange"* %77, i64 -1
  call void @_ZN16password_manager19PasswordStoreChangeD1Ev(%"class.password_manager::PasswordStoreChange"* %78) #16
  %79 = icmp eq %"class.password_manager::PasswordStoreChange"* %78, %70
  br i1 %79, label %80, label %76

80:                                               ; preds = %76
  %81 = bitcast %"class.std::__1::vector.217"* %5 to i8**
  %82 = load i8*, i8** %81, align 8
  br label %83

83:                                               ; preds = %80, %72
  %84 = phi i8* [ %82, %80 ], [ %73, %72 ]
  store %"class.password_manager::PasswordStoreChange"* %70, %"class.password_manager::PasswordStoreChange"** %28, align 8
  call void @_ZdlPv(i8* %84) #17
  br label %85

85:                                               ; preds = %69, %83
  call void @llvm.lifetime.end.p0i8(i64 24, i8* nonnull %26) #16
  %86 = icmp eq i8* %17, null
  br i1 %86, label %91, label %87

87:                                               ; preds = %85
  %88 = load i8, i8* %17, align 1
  %89 = icmp eq i8 %88, 0
  br i1 %89, label %91, label %90

90:                                               ; preds = %87
  call void @_ZN20trace_event_internal24UpdateTraceEventDurationEPKhPKcN4base11trace_event16TraceEventHandleE(i8* nonnull %17, i8* %18, i64 %19) #16
  br label %91

91:                                               ; preds = %85, %87, %90
  ret void
}

; Function Attrs: nounwind ssp uwtable
define hidden void @_ZN16password_manager13PasswordStore11RemoveLoginERKNS_12PasswordFormE(%"class.password_manager::PasswordStore"*, %"struct.password_manager::PasswordForm"* dereferenceable(1744)) unnamed_addr #0 align 2 {
  %3 = alloca %"class.base::Location", align 8
  %4 = alloca %"class.base::OnceCallback.215", align 8
  %5 = alloca %"class.base::OnceCallback.215", align 8
  %6 = tail call i8* @_Znwm(i64 1800) #17, !noalias !46
  %7 = bitcast i8* %6 to %"class.base::internal::BindStateBase"*
  tail call void @_ZN4base8internal13BindStateBaseC2EPFvvEPFvPKS1_E(%"class.base::internal::BindStateBase"* nonnull %7, void ()* bitcast (void (%"class.base::internal::BindStateBase"*)* @_ZN4base8internal7InvokerINS0_9BindStateIMN16password_manager13PasswordStoreEFvRKNS3_12PasswordFormEEJ13scoped_refptrIS4_ES5_EEEFvvEE7RunOnceEPNS0_13BindStateBaseE to void ()*), void (%"class.base::internal::BindStateBase"*)* nonnull @_ZN4base8internal9BindStateIMN16password_manager13PasswordStoreEFvRKNS2_12PasswordFormEEJ13scoped_refptrIS3_ES4_EE7DestroyEPKNS0_13BindStateBaseE) #16, !noalias !46
  %8 = getelementptr inbounds i8, i8* %6, i64 32
  %9 = bitcast i8* %8 to <2 x i64>*
  store <2 x i64> <i64 ptrtoint (void (%"class.password_manager::PasswordStore"*, %"struct.password_manager::PasswordForm"*)* @_ZN16password_manager13PasswordStore19RemoveLoginInternalERKNS_12PasswordFormE to i64), i64 0>, <2 x i64>* %9, align 8, !noalias !46
  %10 = getelementptr inbounds i8, i8* %6, i64 48
  %11 = bitcast i8* %10 to %"class.password_manager::PasswordStore"**
  store %"class.password_manager::PasswordStore"* %0, %"class.password_manager::PasswordStore"** %11, align 8, !noalias !46
  %12 = icmp eq %"class.password_manager::PasswordStore"* %0, null
  br i1 %12, label %16, label %13

13:                                               ; preds = %2
  %14 = getelementptr inbounds %"class.password_manager::PasswordStore", %"class.password_manager::PasswordStore"* %0, i64 0, i32 1, i32 1, i32 0, i32 0, i32 0, i32 0, i32 0, i32 0, i32 0, i32 0
  %15 = atomicrmw add i32* %14, i32 1 monotonic, !noalias !46
  br label %16

16:                                               ; preds = %2, %13
  %17 = getelementptr inbounds i8, i8* %6, i64 56
  %18 = bitcast i8* %17 to %"struct.password_manager::PasswordForm"*
  tail call void @_ZN16password_manager12PasswordFormC1ERKS0_(%"struct.password_manager::PasswordForm"* %18, %"struct.password_manager::PasswordForm"* dereferenceable(1744) %1) #16, !noalias !46
  %19 = bitcast %"class.base::OnceCallback.215"* %5 to i8**
  store i8* %6, i8** %19, align 8, !alias.scope !46
  %20 = bitcast %"class.base::OnceCallback.215"* %4 to i8*
  call void @llvm.lifetime.start.p0i8(i64 8, i8* nonnull %20)
  %21 = getelementptr inbounds %"class.password_manager::PasswordStore", %"class.password_manager::PasswordStore"* %0, i64 0, i32 3, i32 0
  %22 = load %"class.base::SequencedTaskRunner"*, %"class.base::SequencedTaskRunner"** %21, align 8
  %23 = icmp eq %"class.base::SequencedTaskRunner"* %22, null
  %24 = bitcast %"class.base::Location"* %3 to i8*
  call void @llvm.lifetime.start.p0i8(i64 32, i8* nonnull %24) #16
  br i1 %23, label %33, label %25

25:                                               ; preds = %16
  %26 = bitcast %"class.base::SequencedTaskRunner"* %22 to %"class.base::TaskRunner"*
  call void @_ZN4base8Location7CurrentEPKcS2_i(%"class.base::Location"* nonnull sret %3, i8* getelementptr inbounds ([13 x i8], [13 x i8]* @.str.13, i64 0, i64 0), i8* getelementptr inbounds ([65 x i8], [65 x i8]* @.str.2, i64 0, i64 0), i32 507) #16
  %27 = getelementptr inbounds %"class.base::OnceCallback.215", %"class.base::OnceCallback.215"* %5, i64 0, i32 0, i32 0, i32 0
  %28 = bitcast %"class.base::OnceCallback.215"* %5 to i64*
  %29 = load i64, i64* %28, align 8
  %30 = bitcast %"class.base::OnceCallback.215"* %4 to i64*
  store i64 %29, i64* %30, align 8
  store %"class.base::internal::BindStateBase"* null, %"class.base::internal::BindStateBase"** %27, align 8
  %31 = call zeroext i1 @_ZN4base10TaskRunner8PostTaskERKNS_8LocationENS_12OnceCallbackIFvvEEE(%"class.base::TaskRunner"* nonnull %26, %"class.base::Location"* nonnull dereferenceable(32) %3, %"class.base::OnceCallback.215"* nonnull %4) #16
  %32 = getelementptr inbounds %"class.base::OnceCallback.215", %"class.base::OnceCallback.215"* %4, i64 0, i32 0
  call void @_ZN4base8internal12CallbackBaseD2Ev(%"class.base::internal::CallbackBase"* nonnull %32) #16
  br label %33

33:                                               ; preds = %16, %25
  call void @llvm.lifetime.end.p0i8(i64 32, i8* nonnull %24) #16
  call void @llvm.lifetime.end.p0i8(i64 8, i8* nonnull %20)
  %34 = getelementptr inbounds %"class.base::OnceCallback.215", %"class.base::OnceCallback.215"* %5, i64 0, i32 0
  call void @_ZN4base8internal12CallbackBaseD2Ev(%"class.base::internal::CallbackBase"* nonnull %34) #16
  ret void
}

; Function Attrs: nounwind ssp uwtable
define hidden void @_ZN16password_manager13PasswordStore19RemoveLoginInternalERKNS_12PasswordFormE(%"class.password_manager::PasswordStore"*, %"struct.password_manager::PasswordForm"* dereferenceable(1744)) #0 align 2 {
  %3 = alloca %"class.base::TimeTicks", align 8
  %4 = alloca %"class.std::__1::vector.217", align 8
  %5 = load i8, i8* getelementptr inbounds ([300 x %"struct.base::trace_event::TraceCategory"], [300 x %"struct.base::trace_event::TraceCategory"]* @_ZN4base11trace_event16CategoryRegistry11categories_E, i64 0, i64 94, i32 0), align 16
  %6 = and i8 %5, 25
  %7 = icmp eq i8 %6, 0
  br i1 %7, label %14, label %8, !prof !5

8:                                                ; preds = %2
  %9 = tail call i32 @_ZN4base14PlatformThread9CurrentIdEv() #16
  %10 = bitcast %"class.base::TimeTicks"* %3 to i8*
  call void @llvm.lifetime.start.p0i8(i64 8, i8* nonnull %10) #16
  %11 = getelementptr inbounds %"class.base::TimeTicks", %"class.base::TimeTicks"* %3, i64 0, i32 0, i32 0
  %12 = tail call i64 @_ZN4base6subtle28TimeTicksNowIgnoringOverrideEv() #16
  store i64 %12, i64* %11, align 8
  %13 = call i64 @_ZN20trace_event_internal37AddTraceEventWithThreadIdAndTimestampEcPKhPKcS3_yyiRKN4base9TimeTicksEPNS4_11trace_event14TraceArgumentsEj(i8 signext 88, i8* getelementptr inbounds ([300 x %"struct.base::trace_event::TraceCategory"], [300 x %"struct.base::trace_event::TraceCategory"]* @_ZN4base11trace_event16CategoryRegistry11categories_E, i64 0, i64 94, i32 0), i8* getelementptr inbounds ([35 x i8], [35 x i8]* @.str.34, i64 0, i64 0), i8* null, i64 0, i64 0, i32 %9, %"class.base::TimeTicks"* nonnull dereferenceable(8) %3, %"class.base::trace_event::TraceArguments"* null, i32 0) #16
  call void @llvm.lifetime.end.p0i8(i64 8, i8* nonnull %10) #16
  br label %14

14:                                               ; preds = %2, %8
  %15 = phi i64 [ -6148914691236517206, %2 ], [ %13, %8 ]
  %16 = phi i8* [ inttoptr (i64 -6148914691236517206 to i8*), %2 ], [ getelementptr inbounds ([35 x i8], [35 x i8]* @.str.34, i64 0, i64 0), %8 ]
  %17 = phi i8* [ null, %2 ], [ getelementptr inbounds ([300 x %"struct.base::trace_event::TraceCategory"], [300 x %"struct.base::trace_event::TraceCategory"]* @_ZN4base11trace_event16CategoryRegistry11categories_E, i64 0, i64 94, i32 0), %8 ]
  %18 = getelementptr inbounds %"class.password_manager::PasswordStore", %"class.password_manager::PasswordStore"* %0, i64 0, i32 0
  %19 = bitcast %"class.password_manager::PasswordStore"* %0 to i1 (%"class.password_manager::PasswordStoreSync"*)***
  %20 = load i1 (%"class.password_manager::PasswordStoreSync"*)**, i1 (%"class.password_manager::PasswordStoreSync"*)*** %19, align 8
  %21 = getelementptr inbounds i1 (%"class.password_manager::PasswordStoreSync"*)*, i1 (%"class.password_manager::PasswordStoreSync"*)** %20, i64 13
  %22 = load i1 (%"class.password_manager::PasswordStoreSync"*)*, i1 (%"class.password_manager::PasswordStoreSync"*)** %21, align 8
  %23 = call zeroext i1 %22(%"class.password_manager::PasswordStoreSync"* %18) #16
  %24 = bitcast %"class.std::__1::vector.217"* %4 to i8*
  call void @llvm.lifetime.start.p0i8(i64 24, i8* nonnull %24) #16
  %25 = getelementptr inbounds %"class.std::__1::vector.217", %"class.std::__1::vector.217"* %4, i64 0, i32 0, i32 0
  %26 = getelementptr inbounds %"class.std::__1::vector.217", %"class.std::__1::vector.217"* %4, i64 0, i32 0, i32 1
  %27 = bitcast %"class.password_manager::PasswordStore"* %0 to void (%"class.std::__1::vector.217"*, %"class.password_manager::PasswordStore"*, %"struct.password_manager::PasswordForm"*)***
  %28 = bitcast %"class.std::__1::vector.217"* %4 to i8*
  call void @llvm.memset.p0i8.i64(i8* nonnull align 8 %28, i8 -86, i64 24, i1 false)
  %29 = load void (%"class.std::__1::vector.217"*, %"class.password_manager::PasswordStore"*, %"struct.password_manager::PasswordForm"*)**, void (%"class.std::__1::vector.217"*, %"class.password_manager::PasswordStore"*, %"struct.password_manager::PasswordForm"*)*** %27, align 8
  %30 = getelementptr inbounds void (%"class.std::__1::vector.217"*, %"class.password_manager::PasswordStore"*, %"struct.password_manager::PasswordForm"*)*, void (%"class.std::__1::vector.217"*, %"class.password_manager::PasswordStore"*, %"struct.password_manager::PasswordForm"*)** %29, i64 51
  %31 = load void (%"class.std::__1::vector.217"*, %"class.password_manager::PasswordStore"*, %"struct.password_manager::PasswordForm"*)*, void (%"class.std::__1::vector.217"*, %"class.password_manager::PasswordStore"*, %"struct.password_manager::PasswordForm"*)** %30, align 8
  call void %31(%"class.std::__1::vector.217"* nonnull sret %4, %"class.password_manager::PasswordStore"* %0, %"struct.password_manager::PasswordForm"* dereferenceable(1744) %1) #16
  %32 = bitcast %"class.password_manager::PasswordStore"* %0 to void (%"class.password_manager::PasswordStore"*, %"class.std::__1::vector.217"*)***
  %33 = load void (%"class.password_manager::PasswordStore"*, %"class.std::__1::vector.217"*)**, void (%"class.password_manager::PasswordStore"*, %"class.std::__1::vector.217"*)*** %32, align 8
  %34 = getelementptr inbounds void (%"class.password_manager::PasswordStore"*, %"class.std::__1::vector.217"*)*, void (%"class.password_manager::PasswordStore"*, %"class.std::__1::vector.217"*)** %33, i64 9
  %35 = load void (%"class.password_manager::PasswordStore"*, %"class.std::__1::vector.217"*)*, void (%"class.password_manager::PasswordStore"*, %"class.std::__1::vector.217"*)** %34, align 8
  call void %35(%"class.password_manager::PasswordStore"* %0, %"class.std::__1::vector.217"* nonnull dereferenceable(24) %4) #16
  %36 = load i1 (%"class.password_manager::PasswordStoreSync"*)**, i1 (%"class.password_manager::PasswordStoreSync"*)*** %19, align 8
  %37 = getelementptr inbounds i1 (%"class.password_manager::PasswordStoreSync"*)*, i1 (%"class.password_manager::PasswordStoreSync"*)** %36, i64 15
  %38 = load i1 (%"class.password_manager::PasswordStoreSync"*)*, i1 (%"class.password_manager::PasswordStoreSync"*)** %37, align 8
  %39 = call zeroext i1 %38(%"class.password_manager::PasswordStoreSync"* %18) #16
  %40 = load %"class.password_manager::PasswordStoreChange"*, %"class.password_manager::PasswordStoreChange"** %25, align 8
  %41 = icmp eq %"class.password_manager::PasswordStoreChange"* %40, null
  br i1 %41, label %55, label %42

42:                                               ; preds = %14
  %43 = bitcast %"class.password_manager::PasswordStoreChange"* %40 to i8*
  %44 = load %"class.password_manager::PasswordStoreChange"*, %"class.password_manager::PasswordStoreChange"** %26, align 8
  %45 = icmp eq %"class.password_manager::PasswordStoreChange"* %44, %40
  br i1 %45, label %53, label %46

46:                                               ; preds = %42, %46
  %47 = phi %"class.password_manager::PasswordStoreChange"* [ %48, %46 ], [ %44, %42 ]
  %48 = getelementptr inbounds %"class.password_manager::PasswordStoreChange", %"class.password_manager::PasswordStoreChange"* %47, i64 -1
  call void @_ZN16password_manager19PasswordStoreChangeD1Ev(%"class.password_manager::PasswordStoreChange"* %48) #16
  %49 = icmp eq %"class.password_manager::PasswordStoreChange"* %48, %40
  br i1 %49, label %50, label %46

50:                                               ; preds = %46
  %51 = bitcast %"class.std::__1::vector.217"* %4 to i8**
  %52 = load i8*, i8** %51, align 8
  br label %53

53:                                               ; preds = %50, %42
  %54 = phi i8* [ %52, %50 ], [ %43, %42 ]
  store %"class.password_manager::PasswordStoreChange"* %40, %"class.password_manager::PasswordStoreChange"** %26, align 8
  call void @_ZdlPv(i8* %54) #17
  br label %55

55:                                               ; preds = %14, %53
  call void @llvm.lifetime.end.p0i8(i64 24, i8* nonnull %24) #16
  %56 = icmp eq i8* %17, null
  br i1 %56, label %61, label %57

57:                                               ; preds = %55
  %58 = load i8, i8* %17, align 1
  %59 = icmp eq i8 %58, 0
  br i1 %59, label %61, label %60

60:                                               ; preds = %57
  call void @_ZN20trace_event_internal24UpdateTraceEventDurationEPKhPKcN4base11trace_event16TraceEventHandleE(i8* nonnull %17, i8* %16, i64 %15) #16
  br label %61

61:                                               ; preds = %55, %57, %60
  ret void
}

; Function Attrs: nounwind ssp uwtable
define hidden void @_ZN16password_manager13PasswordStore24RemoveLoginsByURLAndTimeERKN4base17RepeatingCallbackIFbRK4GURLEEENS1_4TimeESA_NS1_12OnceCallbackIFvvEEENSB_IFvbEEE(%"class.password_manager::PasswordStore"*, %"class.base::RepeatingCallback.319"* dereferenceable(8), i64, i64, %"class.base::OnceCallback.215"* nocapture, %"class.base::OnceCallback"* nocapture) local_unnamed_addr #0 align 2 {
  %7 = alloca %"class.base::Location", align 8
  %8 = alloca %"class.base::OnceCallback.215", align 8
  %9 = alloca %"class.base::OnceCallback.215", align 8
  %10 = tail call i8* @_Znwm(i64 96) #17, !noalias !51
  %11 = bitcast i8* %10 to %"class.base::internal::BindStateBase"*
  tail call void @_ZN4base8internal13BindStateBaseC2EPFvvEPFvPKS1_E(%"class.base::internal::BindStateBase"* nonnull %11, void ()* bitcast (void (%"class.base::internal::BindStateBase"*)* @_ZN4base8internal7InvokerINS0_9BindStateIMN16password_manager13PasswordStoreEFvRKNS_17RepeatingCallbackIFbRK4GURLEEENS_4TimeESD_NS_12OnceCallbackIFvvEEENSE_IFvbEEEEJ13scoped_refptrIS4_ESA_SD_SD_SG_SI_EEESF_E7RunOnceEPNS0_13BindStateBaseE to void ()*), void (%"class.base::internal::BindStateBase"*)* nonnull @_ZN4base8internal9BindStateIMN16password_manager13PasswordStoreEFvRKNS_17RepeatingCallbackIFbRK4GURLEEENS_4TimeESC_NS_12OnceCallbackIFvvEEENSD_IFvbEEEEJ13scoped_refptrIS3_ES9_SC_SC_SF_SH_EE7DestroyEPKNS0_13BindStateBaseE) #16, !noalias !51
  %12 = getelementptr inbounds i8, i8* %10, i64 32
  %13 = bitcast i8* %12 to <2 x i64>*
  store <2 x i64> <i64 ptrtoint (void (%"class.password_manager::PasswordStore"*, %"class.base::RepeatingCallback.319"*, i64, i64, %"class.base::OnceCallback.215"*, %"class.base::OnceCallback"*)* @_ZN16password_manager13PasswordStore32RemoveLoginsByURLAndTimeInternalERKN4base17RepeatingCallbackIFbRK4GURLEEENS1_4TimeESA_NS1_12OnceCallbackIFvvEEENSB_IFvbEEE to i64), i64 0>, <2 x i64>* %13, align 8, !noalias !51
  %14 = getelementptr inbounds i8, i8* %10, i64 48
  %15 = bitcast i8* %14 to %"class.password_manager::PasswordStore"**
  store %"class.password_manager::PasswordStore"* %0, %"class.password_manager::PasswordStore"** %15, align 8, !noalias !51
  %16 = icmp eq %"class.password_manager::PasswordStore"* %0, null
  br i1 %16, label %20, label %17

17:                                               ; preds = %6
  %18 = getelementptr inbounds %"class.password_manager::PasswordStore", %"class.password_manager::PasswordStore"* %0, i64 0, i32 1, i32 1, i32 0, i32 0, i32 0, i32 0, i32 0, i32 0, i32 0, i32 0
  %19 = atomicrmw add i32* %18, i32 1 monotonic, !noalias !51
  br label %20

20:                                               ; preds = %6, %17
  %21 = getelementptr inbounds i8, i8* %10, i64 56
  %22 = bitcast i8* %21 to %"class.base::internal::CallbackBaseCopyable"*
  %23 = getelementptr inbounds %"class.base::RepeatingCallback.319", %"class.base::RepeatingCallback.319"* %1, i64 0, i32 0
  tail call void @_ZN4base8internal20CallbackBaseCopyableC2ERKS1_(%"class.base::internal::CallbackBaseCopyable"* %22, %"class.base::internal::CallbackBaseCopyable"* dereferenceable(8) %23) #16, !noalias !51
  %24 = getelementptr inbounds i8, i8* %10, i64 64
  %25 = bitcast i8* %24 to i64*
  store i64 %2, i64* %25, align 8, !noalias !51
  %26 = getelementptr inbounds i8, i8* %10, i64 72
  %27 = bitcast i8* %26 to i64*
  store i64 %3, i64* %27, align 8, !noalias !51
  %28 = getelementptr inbounds i8, i8* %10, i64 80
  %29 = getelementptr inbounds %"class.base::OnceCallback.215", %"class.base::OnceCallback.215"* %4, i64 0, i32 0, i32 0, i32 0
  %30 = bitcast %"class.base::OnceCallback.215"* %4 to i64*
  %31 = load i64, i64* %30, align 8, !noalias !51
  %32 = bitcast i8* %28 to i64*
  store i64 %31, i64* %32, align 8, !noalias !51
  store %"class.base::internal::BindStateBase"* null, %"class.base::internal::BindStateBase"** %29, align 8, !noalias !51
  %33 = getelementptr inbounds i8, i8* %10, i64 88
  %34 = getelementptr inbounds %"class.base::OnceCallback", %"class.base::OnceCallback"* %5, i64 0, i32 0, i32 0, i32 0
  %35 = bitcast %"class.base::OnceCallback"* %5 to i64*
  %36 = load i64, i64* %35, align 8, !noalias !51
  %37 = bitcast i8* %33 to i64*
  store i64 %36, i64* %37, align 8, !noalias !51
  store %"class.base::internal::BindStateBase"* null, %"class.base::internal::BindStateBase"** %34, align 8, !noalias !51
  %38 = bitcast %"class.base::OnceCallback.215"* %9 to i8**
  store i8* %10, i8** %38, align 8, !alias.scope !51
  %39 = bitcast %"class.base::OnceCallback.215"* %8 to i8*
  call void @llvm.lifetime.start.p0i8(i64 8, i8* nonnull %39)
  %40 = getelementptr inbounds %"class.password_manager::PasswordStore", %"class.password_manager::PasswordStore"* %0, i64 0, i32 3, i32 0
  %41 = load %"class.base::SequencedTaskRunner"*, %"class.base::SequencedTaskRunner"** %40, align 8
  %42 = icmp eq %"class.base::SequencedTaskRunner"* %41, null
  %43 = bitcast %"class.base::Location"* %7 to i8*
  call void @llvm.lifetime.start.p0i8(i64 32, i8* nonnull %43) #16
  br i1 %42, label %52, label %44

44:                                               ; preds = %20
  %45 = bitcast %"class.base::SequencedTaskRunner"* %41 to %"class.base::TaskRunner"*
  call void @_ZN4base8Location7CurrentEPKcS2_i(%"class.base::Location"* nonnull sret %7, i8* getelementptr inbounds ([13 x i8], [13 x i8]* @.str.13, i64 0, i64 0), i8* getelementptr inbounds ([65 x i8], [65 x i8]* @.str.2, i64 0, i64 0), i32 507) #16
  %46 = getelementptr inbounds %"class.base::OnceCallback.215", %"class.base::OnceCallback.215"* %9, i64 0, i32 0, i32 0, i32 0
  %47 = bitcast %"class.base::OnceCallback.215"* %9 to i64*
  %48 = load i64, i64* %47, align 8
  %49 = bitcast %"class.base::OnceCallback.215"* %8 to i64*
  store i64 %48, i64* %49, align 8
  store %"class.base::internal::BindStateBase"* null, %"class.base::internal::BindStateBase"** %46, align 8
  %50 = call zeroext i1 @_ZN4base10TaskRunner8PostTaskERKNS_8LocationENS_12OnceCallbackIFvvEEE(%"class.base::TaskRunner"* nonnull %45, %"class.base::Location"* nonnull dereferenceable(32) %7, %"class.base::OnceCallback.215"* nonnull %8) #16
  %51 = getelementptr inbounds %"class.base::OnceCallback.215", %"class.base::OnceCallback.215"* %8, i64 0, i32 0
  call void @_ZN4base8internal12CallbackBaseD2Ev(%"class.base::internal::CallbackBase"* nonnull %51) #16
  br label %52

52:                                               ; preds = %20, %44
  call void @llvm.lifetime.end.p0i8(i64 32, i8* nonnull %43) #16
  call void @llvm.lifetime.end.p0i8(i64 8, i8* nonnull %39)
  %53 = getelementptr inbounds %"class.base::OnceCallback.215", %"class.base::OnceCallback.215"* %9, i64 0, i32 0
  call void @_ZN4base8internal12CallbackBaseD2Ev(%"class.base::internal::CallbackBase"* nonnull %53) #16
  ret void
}

; Function Attrs: nounwind ssp uwtable
define hidden void @_ZN16password_manager13PasswordStore32RemoveLoginsByURLAndTimeInternalERKN4base17RepeatingCallbackIFbRK4GURLEEENS1_4TimeESA_NS1_12OnceCallbackIFvvEEENSB_IFvbEEE(%"class.password_manager::PasswordStore"*, %"class.base::RepeatingCallback.319"* dereferenceable(8), i64, i64, %"class.base::OnceCallback.215"* nocapture, %"class.base::OnceCallback"*) #0 align 2 {
  %7 = alloca %"class.base::OnceCallback.215", align 8
  %8 = alloca %"class.base::TimeTicks", align 8
  %9 = alloca %"class.std::__1::vector.217", align 8
  %10 = alloca %"class.base::Location", align 8
  %11 = alloca %"class.base::OnceCallback.215", align 8
  %12 = alloca %"class.base::OnceCallback.215", align 8
  %13 = alloca %"class.base::Location", align 8
  %14 = alloca %"class.base::OnceCallback.215", align 8
  %15 = load i8, i8* getelementptr inbounds ([300 x %"struct.base::trace_event::TraceCategory"], [300 x %"struct.base::trace_event::TraceCategory"]* @_ZN4base11trace_event16CategoryRegistry11categories_E, i64 0, i64 94, i32 0), align 16
  %16 = and i8 %15, 25
  %17 = icmp eq i8 %16, 0
  br i1 %17, label %24, label %18, !prof !5

18:                                               ; preds = %6
  %19 = tail call i32 @_ZN4base14PlatformThread9CurrentIdEv() #16
  %20 = bitcast %"class.base::TimeTicks"* %8 to i8*
  call void @llvm.lifetime.start.p0i8(i64 8, i8* nonnull %20) #16
  %21 = getelementptr inbounds %"class.base::TimeTicks", %"class.base::TimeTicks"* %8, i64 0, i32 0, i32 0
  %22 = tail call i64 @_ZN4base6subtle28TimeTicksNowIgnoringOverrideEv() #16
  store i64 %22, i64* %21, align 8
  %23 = call i64 @_ZN20trace_event_internal37AddTraceEventWithThreadIdAndTimestampEcPKhPKcS3_yyiRKN4base9TimeTicksEPNS4_11trace_event14TraceArgumentsEj(i8 signext 88, i8* getelementptr inbounds ([300 x %"struct.base::trace_event::TraceCategory"], [300 x %"struct.base::trace_event::TraceCategory"]* @_ZN4base11trace_event16CategoryRegistry11categories_E, i64 0, i64 94, i32 0), i8* getelementptr inbounds ([48 x i8], [48 x i8]* @.str.36, i64 0, i64 0), i8* null, i64 0, i64 0, i32 %19, %"class.base::TimeTicks"* nonnull dereferenceable(8) %8, %"class.base::trace_event::TraceArguments"* null, i32 0) #16
  call void @llvm.lifetime.end.p0i8(i64 8, i8* nonnull %20) #16
  br label %24

24:                                               ; preds = %6, %18
  %25 = phi i8* [ null, %6 ], [ getelementptr inbounds ([300 x %"struct.base::trace_event::TraceCategory"], [300 x %"struct.base::trace_event::TraceCategory"]* @_ZN4base11trace_event16CategoryRegistry11categories_E, i64 0, i64 94, i32 0), %18 ]
  %26 = phi i8* [ inttoptr (i64 -6148914691236517206 to i8*), %6 ], [ getelementptr inbounds ([48 x i8], [48 x i8]* @.str.36, i64 0, i64 0), %18 ]
  %27 = phi i64 [ -6148914691236517206, %6 ], [ %23, %18 ]
  %28 = getelementptr inbounds %"class.password_manager::PasswordStore", %"class.password_manager::PasswordStore"* %0, i64 0, i32 0
  %29 = bitcast %"class.password_manager::PasswordStore"* %0 to i1 (%"class.password_manager::PasswordStoreSync"*)***
  %30 = load i1 (%"class.password_manager::PasswordStoreSync"*)**, i1 (%"class.password_manager::PasswordStoreSync"*)*** %29, align 8
  %31 = getelementptr inbounds i1 (%"class.password_manager::PasswordStoreSync"*)*, i1 (%"class.password_manager::PasswordStoreSync"*)** %30, i64 13
  %32 = load i1 (%"class.password_manager::PasswordStoreSync"*)*, i1 (%"class.password_manager::PasswordStoreSync"*)** %31, align 8
  %33 = call zeroext i1 %32(%"class.password_manager::PasswordStoreSync"* %28) #16
  %34 = bitcast %"class.std::__1::vector.217"* %9 to i8*
  call void @llvm.lifetime.start.p0i8(i64 24, i8* nonnull %34) #16
  %35 = getelementptr inbounds %"class.std::__1::vector.217", %"class.std::__1::vector.217"* %9, i64 0, i32 0, i32 0
  %36 = getelementptr inbounds %"class.std::__1::vector.217", %"class.std::__1::vector.217"* %9, i64 0, i32 0, i32 1
  %37 = bitcast %"class.password_manager::PasswordStore"* %0 to void (%"class.std::__1::vector.217"*, %"class.password_manager::PasswordStore"*, %"class.base::RepeatingCallback.319"*, i64, i64)***
  %38 = bitcast %"class.std::__1::vector.217"* %9 to i8*
  call void @llvm.memset.p0i8.i64(i8* nonnull align 8 %38, i8 -86, i64 24, i1 false)
  %39 = load void (%"class.std::__1::vector.217"*, %"class.password_manager::PasswordStore"*, %"class.base::RepeatingCallback.319"*, i64, i64)**, void (%"class.std::__1::vector.217"*, %"class.password_manager::PasswordStore"*, %"class.base::RepeatingCallback.319"*, i64, i64)*** %37, align 8
  %40 = getelementptr inbounds void (%"class.std::__1::vector.217"*, %"class.password_manager::PasswordStore"*, %"class.base::RepeatingCallback.319"*, i64, i64)*, void (%"class.std::__1::vector.217"*, %"class.password_manager::PasswordStore"*, %"class.base::RepeatingCallback.319"*, i64, i64)** %39, i64 45
  %41 = load void (%"class.std::__1::vector.217"*, %"class.password_manager::PasswordStore"*, %"class.base::RepeatingCallback.319"*, i64, i64)*, void (%"class.std::__1::vector.217"*, %"class.password_manager::PasswordStore"*, %"class.base::RepeatingCallback.319"*, i64, i64)** %40, align 8
  call void %41(%"class.std::__1::vector.217"* nonnull sret %9, %"class.password_manager::PasswordStore"* %0, %"class.base::RepeatingCallback.319"* dereferenceable(8) %1, i64 %2, i64 %3) #16
  %42 = bitcast %"class.password_manager::PasswordStore"* %0 to void (%"class.password_manager::PasswordStore"*, %"class.std::__1::vector.217"*)***
  %43 = load void (%"class.password_manager::PasswordStore"*, %"class.std::__1::vector.217"*)**, void (%"class.password_manager::PasswordStore"*, %"class.std::__1::vector.217"*)*** %42, align 8
  %44 = getelementptr inbounds void (%"class.password_manager::PasswordStore"*, %"class.std::__1::vector.217"*)*, void (%"class.password_manager::PasswordStore"*, %"class.std::__1::vector.217"*)** %43, i64 9
  %45 = load void (%"class.password_manager::PasswordStore"*, %"class.std::__1::vector.217"*)*, void (%"class.password_manager::PasswordStore"*, %"class.std::__1::vector.217"*)** %44, align 8
  call void %45(%"class.password_manager::PasswordStore"* %0, %"class.std::__1::vector.217"* nonnull dereferenceable(24) %9) #16
  %46 = load i1 (%"class.password_manager::PasswordStoreSync"*)**, i1 (%"class.password_manager::PasswordStoreSync"*)*** %29, align 8
  %47 = getelementptr inbounds i1 (%"class.password_manager::PasswordStoreSync"*)*, i1 (%"class.password_manager::PasswordStoreSync"*)** %46, i64 15
  %48 = load i1 (%"class.password_manager::PasswordStoreSync"*)*, i1 (%"class.password_manager::PasswordStoreSync"*)** %47, align 8
  %49 = call zeroext i1 %48(%"class.password_manager::PasswordStoreSync"* %28) #16
  %50 = getelementptr inbounds %"class.base::OnceCallback.215", %"class.base::OnceCallback.215"* %4, i64 0, i32 0, i32 0, i32 0
  %51 = load %"class.base::internal::BindStateBase"*, %"class.base::internal::BindStateBase"** %50, align 8
  %52 = icmp eq %"class.base::internal::BindStateBase"* %51, null
  br i1 %52, label %63, label %53

53:                                               ; preds = %24
  %54 = getelementptr inbounds %"class.password_manager::PasswordStore", %"class.password_manager::PasswordStore"* %0, i64 0, i32 2, i32 0
  %55 = bitcast %"class.base::SequencedTaskRunner"** %54 to %"class.base::TaskRunner"**
  %56 = load %"class.base::TaskRunner"*, %"class.base::TaskRunner"** %55, align 8
  %57 = bitcast %"class.base::Location"* %10 to i8*
  call void @llvm.lifetime.start.p0i8(i64 32, i8* nonnull %57) #16
  call void @_ZN4base8Location7CurrentEPKcS2_i(%"class.base::Location"* nonnull sret %10, i8* getelementptr inbounds ([33 x i8], [33 x i8]* @.str.37, i64 0, i64 0), i8* getelementptr inbounds ([65 x i8], [65 x i8]* @.str.2, i64 0, i64 0), i32 1030) #16
  %58 = bitcast %"class.base::OnceCallback.215"* %4 to i64*
  %59 = load i64, i64* %58, align 8
  %60 = bitcast %"class.base::OnceCallback.215"* %11 to i64*
  store i64 %59, i64* %60, align 8
  store %"class.base::internal::BindStateBase"* null, %"class.base::internal::BindStateBase"** %50, align 8
  %61 = call zeroext i1 @_ZN4base10TaskRunner8PostTaskERKNS_8LocationENS_12OnceCallbackIFvvEEE(%"class.base::TaskRunner"* %56, %"class.base::Location"* nonnull dereferenceable(32) %10, %"class.base::OnceCallback.215"* nonnull %11) #16
  %62 = getelementptr inbounds %"class.base::OnceCallback.215", %"class.base::OnceCallback.215"* %11, i64 0, i32 0
  call void @_ZN4base8internal12CallbackBaseD2Ev(%"class.base::internal::CallbackBase"* nonnull %62) #16
  call void @llvm.lifetime.end.p0i8(i64 32, i8* nonnull %57) #16
  br label %63

63:                                               ; preds = %24, %53
  %64 = getelementptr inbounds %"class.base::OnceCallback", %"class.base::OnceCallback"* %5, i64 0, i32 0, i32 0, i32 0
  %65 = load %"class.base::internal::BindStateBase"*, %"class.base::internal::BindStateBase"** %64, align 8
  %66 = icmp eq %"class.base::internal::BindStateBase"* %65, null
  %67 = ptrtoint %"class.base::internal::BindStateBase"* %65 to i64
  br i1 %66, label %139, label %68

68:                                               ; preds = %63
  %69 = getelementptr inbounds %"class.password_manager::PasswordStore", %"class.password_manager::PasswordStore"* %0, i64 0, i32 14, i32 0, i32 1
  %70 = load %"class.base::OnceCallback"*, %"class.base::OnceCallback"** %69, align 8
  %71 = getelementptr inbounds %"class.password_manager::PasswordStore", %"class.password_manager::PasswordStore"* %0, i64 0, i32 14, i32 0, i32 2, i32 0, i32 0
  %72 = load %"class.base::OnceCallback"*, %"class.base::OnceCallback"** %71, align 8
  %73 = icmp ult %"class.base::OnceCallback"* %70, %72
  br i1 %73, label %74, label %79

74:                                               ; preds = %68
  %75 = bitcast %"class.base::OnceCallback"* %70 to i64*
  store i64 %67, i64* %75, align 8
  store %"class.base::internal::BindStateBase"* null, %"class.base::internal::BindStateBase"** %64, align 8
  %76 = getelementptr inbounds %"class.base::OnceCallback", %"class.base::OnceCallback"* %70, i64 1
  %77 = ptrtoint %"class.base::OnceCallback"* %76 to i64
  %78 = bitcast %"class.base::OnceCallback"** %69 to i64*
  store i64 %77, i64* %78, align 8
  br label %81

79:                                               ; preds = %68
  %80 = getelementptr inbounds %"class.password_manager::PasswordStore", %"class.password_manager::PasswordStore"* %0, i64 0, i32 14
  call void @_ZNSt3__16vectorIN4base12OnceCallbackIFvbEEENS_9allocatorIS4_EEE21__push_back_slow_pathIS4_EEvOT_(%"class.std::__1::vector.208"* %80, %"class.base::OnceCallback"* dereferenceable(8) %5) #16
  br label %81

81:                                               ; preds = %74, %79
  %82 = getelementptr inbounds %"class.password_manager::PasswordStore", %"class.password_manager::PasswordStore"* %0, i64 0, i32 15
  %83 = call i8* @_Znwm(i64 64) #17, !noalias !56
  %84 = bitcast i8* %83 to %"class.base::internal::BindStateBase"*
  call void @_ZN4base8internal13BindStateBaseC2EPFvvEPFvPKS1_E(%"class.base::internal::BindStateBase"* nonnull %84, void ()* bitcast (void (%"class.base::internal::BindStateBase"*)* @_ZN4base8internal7InvokerINS0_9BindStateIMN16password_manager13PasswordStoreEFvbEJ13scoped_refptrIS4_EbEEEFvvEE7RunOnceEPNS0_13BindStateBaseE to void ()*), void (%"class.base::internal::BindStateBase"*)* nonnull @_ZN4base8internal9BindStateIMN16password_manager13PasswordStoreEFvbEJ13scoped_refptrIS3_EbEE7DestroyEPKNS0_13BindStateBaseE) #16, !noalias !56
  %85 = getelementptr inbounds i8, i8* %83, i64 32
  %86 = bitcast i8* %85 to <2 x i64>*
  store <2 x i64> <i64 89, i64 0>, <2 x i64>* %86, align 8, !noalias !56
  %87 = getelementptr inbounds i8, i8* %83, i64 48
  %88 = bitcast i8* %87 to %"class.password_manager::PasswordStore"**
  store %"class.password_manager::PasswordStore"* %0, %"class.password_manager::PasswordStore"** %88, align 8, !noalias !56
  %89 = icmp eq %"class.password_manager::PasswordStore"* %0, null
  br i1 %89, label %93, label %90

90:                                               ; preds = %81
  %91 = getelementptr inbounds %"class.password_manager::PasswordStore", %"class.password_manager::PasswordStore"* %0, i64 0, i32 1, i32 1, i32 0, i32 0, i32 0, i32 0, i32 0, i32 0, i32 0, i32 0
  %92 = atomicrmw add i32* %91, i32 1 monotonic, !noalias !56
  br label %93

93:                                               ; preds = %81, %90
  %94 = getelementptr inbounds i8, i8* %83, i64 56
  store i8 0, i8* %94, align 1, !noalias !56
  %95 = bitcast %"class.base::OnceCallback.215"* %12 to i8**
  store i8* %83, i8** %95, align 8, !alias.scope !56
  %96 = getelementptr inbounds %"class.password_manager::PasswordStore", %"class.password_manager::PasswordStore"* %0, i64 0, i32 15, i32 1, i32 0, i32 0
  call void @_ZN4base8internal18WeakReferenceOwner10InvalidateEv(%"class.base::internal::WeakReferenceOwner"* %96) #16
  %97 = getelementptr inbounds %"class.base::internal::CancelableCallbackImpl", %"class.base::internal::CancelableCallbackImpl"* %82, i64 0, i32 0, i32 0
  call void @_ZN4base8internal12CallbackBase5ResetEv(%"class.base::internal::CallbackBase"* %97) #16
  %98 = getelementptr inbounds %"class.base::OnceCallback.215", %"class.base::OnceCallback.215"* %12, i64 0, i32 0
  %99 = call dereferenceable(8) %"class.base::internal::CallbackBase"* @_ZN4base8internal12CallbackBaseaSEOS1_(%"class.base::internal::CallbackBase"* %97, %"class.base::internal::CallbackBase"* nonnull dereferenceable(8) %98) #16
  call void @_ZN4base8internal12CallbackBaseD2Ev(%"class.base::internal::CallbackBase"* nonnull %98) #16
  %100 = getelementptr inbounds %"class.password_manager::PasswordStore", %"class.password_manager::PasswordStore"* %0, i64 0, i32 3, i32 0
  %101 = load %"class.base::SequencedTaskRunner"*, %"class.base::SequencedTaskRunner"** %100, align 8
  %102 = bitcast %"class.base::SequencedTaskRunner"* %101 to %"class.base::TaskRunner"*
  %103 = bitcast %"class.base::Location"* %13 to i8*
  call void @llvm.lifetime.start.p0i8(i64 32, i8* nonnull %103) #16
  call void @_ZN4base8Location7CurrentEPKcS2_i(%"class.base::Location"* nonnull sret %13, i8* getelementptr inbounds ([33 x i8], [33 x i8]* @.str.37, i64 0, i64 0), i8* getelementptr inbounds ([65 x i8], [65 x i8]* @.str.2, i64 0, i64 0), i32 1038) #16
  %104 = getelementptr inbounds %"class.base::internal::CancelableCallbackImpl", %"class.base::internal::CancelableCallbackImpl"* %82, i64 0, i32 0, i32 0, i32 0, i32 0
  %105 = load %"class.base::internal::BindStateBase"*, %"class.base::internal::BindStateBase"** %104, align 8, !noalias !61
  %106 = icmp eq %"class.base::internal::BindStateBase"* %105, null
  br i1 %106, label %107, label %109

107:                                              ; preds = %93
  %108 = getelementptr inbounds %"class.base::OnceCallback.215", %"class.base::OnceCallback.215"* %14, i64 0, i32 0, i32 0, i32 0
  store %"class.base::internal::BindStateBase"* null, %"class.base::internal::BindStateBase"** %108, align 8, !alias.scope !61
  br label %116

109:                                              ; preds = %93
  %110 = bitcast %"class.base::OnceCallback.215"* %7 to i8*
  call void @llvm.lifetime.start.p0i8(i64 8, i8* nonnull %110) #16, !noalias !61
  %111 = getelementptr inbounds %"class.base::OnceCallback.215", %"class.base::OnceCallback.215"* %7, i64 0, i32 0, i32 0, i32 0
  store %"class.base::internal::BindStateBase"* null, %"class.base::internal::BindStateBase"** %111, align 8, !noalias !61
  call void @_ZNK4base8internal22CancelableCallbackImplINS_12OnceCallbackIFvvEEEE13MakeForwarderIJEEEvPNS2_IFvDpT_EEE(%"class.base::internal::CancelableCallbackImpl"* %82, %"class.base::OnceCallback.215"* nonnull %7) #16, !noalias !61
  %112 = bitcast %"class.base::OnceCallback.215"* %7 to i64*
  %113 = load i64, i64* %112, align 8, !noalias !61
  %114 = bitcast %"class.base::OnceCallback.215"* %14 to i64*
  store i64 %113, i64* %114, align 8, !alias.scope !61
  store %"class.base::internal::BindStateBase"* null, %"class.base::internal::BindStateBase"** %111, align 8, !noalias !61
  %115 = getelementptr inbounds %"class.base::OnceCallback.215", %"class.base::OnceCallback.215"* %7, i64 0, i32 0
  call void @_ZN4base8internal12CallbackBaseD2Ev(%"class.base::internal::CallbackBase"* nonnull %115) #16, !noalias !61
  call void @llvm.lifetime.end.p0i8(i64 8, i8* nonnull %110) #16, !noalias !61
  br label %116

116:                                              ; preds = %107, %109
  %117 = getelementptr inbounds %"class.password_manager::PasswordStore", %"class.password_manager::PasswordStore"* %0, i64 0, i32 18, i32 0
  %118 = load i64, i64* %117, align 8
  %119 = bitcast %"class.base::SequencedTaskRunner"* %101 to i1 (%"class.base::TaskRunner"*, %"class.base::Location"*, %"class.base::OnceCallback.215"*, i64)***
  %120 = load i1 (%"class.base::TaskRunner"*, %"class.base::Location"*, %"class.base::OnceCallback.215"*, i64)**, i1 (%"class.base::TaskRunner"*, %"class.base::Location"*, %"class.base::OnceCallback.215"*, i64)*** %119, align 8
  %121 = load i1 (%"class.base::TaskRunner"*, %"class.base::Location"*, %"class.base::OnceCallback.215"*, i64)*, i1 (%"class.base::TaskRunner"*, %"class.base::Location"*, %"class.base::OnceCallback.215"*, i64)** %120, align 8
  %122 = call zeroext i1 %121(%"class.base::TaskRunner"* %102, %"class.base::Location"* nonnull dereferenceable(32) %13, %"class.base::OnceCallback.215"* nonnull %14, i64 %118) #16
  %123 = getelementptr inbounds %"class.base::OnceCallback.215", %"class.base::OnceCallback.215"* %14, i64 0, i32 0
  call void @_ZN4base8internal12CallbackBaseD2Ev(%"class.base::internal::CallbackBase"* nonnull %123) #16
  call void @llvm.lifetime.end.p0i8(i64 32, i8* nonnull %103) #16
  %124 = bitcast %"class.password_manager::PasswordStore"* %0 to %"class.password_manager::PasswordStoreSync::MetadataStore"* (%"class.password_manager::PasswordStoreSync"*)***
  %125 = load %"class.password_manager::PasswordStoreSync::MetadataStore"* (%"class.password_manager::PasswordStoreSync"*)**, %"class.password_manager::PasswordStoreSync::MetadataStore"* (%"class.password_manager::PasswordStoreSync"*)*** %124, align 8
  %126 = getelementptr inbounds %"class.password_manager::PasswordStoreSync::MetadataStore"* (%"class.password_manager::PasswordStoreSync"*)*, %"class.password_manager::PasswordStoreSync::MetadataStore"* (%"class.password_manager::PasswordStoreSync"*)** %125, i64 16
  %127 = load %"class.password_manager::PasswordStoreSync::MetadataStore"* (%"class.password_manager::PasswordStoreSync"*)*, %"class.password_manager::PasswordStoreSync::MetadataStore"* (%"class.password_manager::PasswordStoreSync"*)** %126, align 8
  %128 = call %"class.password_manager::PasswordStoreSync::MetadataStore"* %127(%"class.password_manager::PasswordStoreSync"* %28) #16
  %129 = bitcast %"class.password_manager::PasswordStoreSync::MetadataStore"* %128 to i1 (%"class.password_manager::PasswordStoreSync::MetadataStore"*)***
  %130 = load i1 (%"class.password_manager::PasswordStoreSync::MetadataStore"*)**, i1 (%"class.password_manager::PasswordStoreSync::MetadataStore"*)*** %129, align 8
  %131 = getelementptr inbounds i1 (%"class.password_manager::PasswordStoreSync::MetadataStore"*)*, i1 (%"class.password_manager::PasswordStoreSync::MetadataStore"*)** %130, i64 9
  %132 = load i1 (%"class.password_manager::PasswordStoreSync::MetadataStore"*)*, i1 (%"class.password_manager::PasswordStoreSync::MetadataStore"*)** %131, align 8
  %133 = call zeroext i1 %132(%"class.password_manager::PasswordStoreSync::MetadataStore"* %128) #16
  br i1 %133, label %139, label %134

134:                                              ; preds = %116
  %135 = bitcast %"class.password_manager::PasswordStore"* %0 to void (%"class.password_manager::PasswordStore"*, i1)***
  %136 = load void (%"class.password_manager::PasswordStore"*, i1)**, void (%"class.password_manager::PasswordStore"*, i1)*** %135, align 8
  %137 = getelementptr inbounds void (%"class.password_manager::PasswordStore"*, i1)*, void (%"class.password_manager::PasswordStore"*, i1)** %136, i64 11
  %138 = load void (%"class.password_manager::PasswordStore"*, i1)*, void (%"class.password_manager::PasswordStore"*, i1)** %137, align 8
  call void %138(%"class.password_manager::PasswordStore"* %0, i1 zeroext true) #16
  br label %139

139:                                              ; preds = %63, %116, %134
  %140 = load %"class.password_manager::PasswordStoreChange"*, %"class.password_manager::PasswordStoreChange"** %35, align 8
  %141 = icmp eq %"class.password_manager::PasswordStoreChange"* %140, null
  br i1 %141, label %155, label %142

142:                                              ; preds = %139
  %143 = bitcast %"class.password_manager::PasswordStoreChange"* %140 to i8*
  %144 = load %"class.password_manager::PasswordStoreChange"*, %"class.password_manager::PasswordStoreChange"** %36, align 8
  %145 = icmp eq %"class.password_manager::PasswordStoreChange"* %144, %140
  br i1 %145, label %153, label %146

146:                                              ; preds = %142, %146
  %147 = phi %"class.password_manager::PasswordStoreChange"* [ %148, %146 ], [ %144, %142 ]
  %148 = getelementptr inbounds %"class.password_manager::PasswordStoreChange", %"class.password_manager::PasswordStoreChange"* %147, i64 -1
  call void @_ZN16password_manager19PasswordStoreChangeD1Ev(%"class.password_manager::PasswordStoreChange"* %148) #16
  %149 = icmp eq %"class.password_manager::PasswordStoreChange"* %148, %140
  br i1 %149, label %150, label %146

150:                                              ; preds = %146
  %151 = bitcast %"class.std::__1::vector.217"* %9 to i8**
  %152 = load i8*, i8** %151, align 8
  br label %153

153:                                              ; preds = %150, %142
  %154 = phi i8* [ %152, %150 ], [ %143, %142 ]
  store %"class.password_manager::PasswordStoreChange"* %140, %"class.password_manager::PasswordStoreChange"** %36, align 8
  call void @_ZdlPv(i8* %154) #17
  br label %155

155:                                              ; preds = %139, %153
  call void @llvm.lifetime.end.p0i8(i64 24, i8* nonnull %34) #16
  %156 = icmp eq i8* %25, null
  br i1 %156, label %161, label %157

157:                                              ; preds = %155
  %158 = load i8, i8* %25, align 1
  %159 = icmp eq i8 %158, 0
  br i1 %159, label %161, label %160

160:                                              ; preds = %157
  call void @_ZN20trace_event_internal24UpdateTraceEventDurationEPKhPKcN4base11trace_event16TraceEventHandleE(i8* nonnull %25, i8* %26, i64 %27) #16
  br label %161

161:                                              ; preds = %155, %157, %160
  ret void
}

; Function Attrs: nounwind ssp uwtable
define hidden void @_ZN16password_manager13PasswordStore26RemoveLoginsCreatedBetweenEN4base4TimeES2_NS1_12OnceCallbackIFvvEEE(%"class.password_manager::PasswordStore"*, i64, i64, %"class.base::OnceCallback.215"* nocapture) local_unnamed_addr #0 align 2 {
  %5 = alloca %"class.base::Location", align 8
  %6 = alloca %"class.base::OnceCallback.215", align 8
  %7 = alloca %"class.base::OnceCallback.215", align 8
  %8 = tail call i8* @_Znwm(i64 80) #17, !noalias !64
  %9 = bitcast i8* %8 to %"class.base::internal::BindStateBase"*
  tail call void @_ZN4base8internal13BindStateBaseC2EPFvvEPFvPKS1_E(%"class.base::internal::BindStateBase"* nonnull %9, void ()* bitcast (void (%"class.base::internal::BindStateBase"*)* @_ZN4base8internal7InvokerINS0_9BindStateIMN16password_manager13PasswordStoreEFvNS_4TimeES5_NS_12OnceCallbackIFvvEEEEJ13scoped_refptrIS4_ES5_S5_S8_EEES7_E7RunOnceEPNS0_13BindStateBaseE to void ()*), void (%"class.base::internal::BindStateBase"*)* nonnull @_ZN4base8internal9BindStateIMN16password_manager13PasswordStoreEFvNS_4TimeES4_NS_12OnceCallbackIFvvEEEEJ13scoped_refptrIS3_ES4_S4_S7_EE7DestroyEPKNS0_13BindStateBaseE) #16, !noalias !64
  %10 = getelementptr inbounds i8, i8* %8, i64 32
  %11 = bitcast i8* %10 to <2 x i64>*
  store <2 x i64> <i64 ptrtoint (void (%"class.password_manager::PasswordStore"*, i64, i64, %"class.base::OnceCallback.215"*)* @_ZN16password_manager13PasswordStore34RemoveLoginsCreatedBetweenInternalEN4base4TimeES2_NS1_12OnceCallbackIFvvEEE to i64), i64 0>, <2 x i64>* %11, align 8, !noalias !64
  %12 = getelementptr inbounds i8, i8* %8, i64 48
  %13 = bitcast i8* %12 to %"class.password_manager::PasswordStore"**
  store %"class.password_manager::PasswordStore"* %0, %"class.password_manager::PasswordStore"** %13, align 8, !noalias !64
  %14 = icmp eq %"class.password_manager::PasswordStore"* %0, null
  br i1 %14, label %18, label %15

15:                                               ; preds = %4
  %16 = getelementptr inbounds %"class.password_manager::PasswordStore", %"class.password_manager::PasswordStore"* %0, i64 0, i32 1, i32 1, i32 0, i32 0, i32 0, i32 0, i32 0, i32 0, i32 0, i32 0
  %17 = atomicrmw add i32* %16, i32 1 monotonic, !noalias !64
  br label %18

18:                                               ; preds = %4, %15
  %19 = getelementptr inbounds i8, i8* %8, i64 56
  %20 = bitcast i8* %19 to i64*
  store i64 %1, i64* %20, align 8, !noalias !64
  %21 = getelementptr inbounds i8, i8* %8, i64 64
  %22 = bitcast i8* %21 to i64*
  store i64 %2, i64* %22, align 8, !noalias !64
  %23 = getelementptr inbounds i8, i8* %8, i64 72
  %24 = getelementptr inbounds %"class.base::OnceCallback.215", %"class.base::OnceCallback.215"* %3, i64 0, i32 0, i32 0, i32 0
  %25 = bitcast %"class.base::OnceCallback.215"* %3 to i64*
  %26 = load i64, i64* %25, align 8, !noalias !64
  %27 = bitcast i8* %23 to i64*
  store i64 %26, i64* %27, align 8, !noalias !64
  store %"class.base::internal::BindStateBase"* null, %"class.base::internal::BindStateBase"** %24, align 8, !noalias !64
  %28 = bitcast %"class.base::OnceCallback.215"* %7 to i8**
  store i8* %8, i8** %28, align 8, !alias.scope !64
  %29 = bitcast %"class.base::OnceCallback.215"* %6 to i8*
  call void @llvm.lifetime.start.p0i8(i64 8, i8* nonnull %29)
  %30 = getelementptr inbounds %"class.password_manager::PasswordStore", %"class.password_manager::PasswordStore"* %0, i64 0, i32 3, i32 0
  %31 = load %"class.base::SequencedTaskRunner"*, %"class.base::SequencedTaskRunner"** %30, align 8
  %32 = icmp eq %"class.base::SequencedTaskRunner"* %31, null
  %33 = bitcast %"class.base::Location"* %5 to i8*
  call void @llvm.lifetime.start.p0i8(i64 32, i8* nonnull %33) #16
  br i1 %32, label %42, label %34

34:                                               ; preds = %18
  %35 = bitcast %"class.base::SequencedTaskRunner"* %31 to %"class.base::TaskRunner"*
  call void @_ZN4base8Location7CurrentEPKcS2_i(%"class.base::Location"* nonnull sret %5, i8* getelementptr inbounds ([13 x i8], [13 x i8]* @.str.13, i64 0, i64 0), i8* getelementptr inbounds ([65 x i8], [65 x i8]* @.str.2, i64 0, i64 0), i32 507) #16
  %36 = getelementptr inbounds %"class.base::OnceCallback.215", %"class.base::OnceCallback.215"* %7, i64 0, i32 0, i32 0, i32 0
  %37 = bitcast %"class.base::OnceCallback.215"* %7 to i64*
  %38 = load i64, i64* %37, align 8
  %39 = bitcast %"class.base::OnceCallback.215"* %6 to i64*
  store i64 %38, i64* %39, align 8
  store %"class.base::internal::BindStateBase"* null, %"class.base::internal::BindStateBase"** %36, align 8
  %40 = call zeroext i1 @_ZN4base10TaskRunner8PostTaskERKNS_8LocationENS_12OnceCallbackIFvvEEE(%"class.base::TaskRunner"* nonnull %35, %"class.base::Location"* nonnull dereferenceable(32) %5, %"class.base::OnceCallback.215"* nonnull %6) #16
  %41 = getelementptr inbounds %"class.base::OnceCallback.215", %"class.base::OnceCallback.215"* %6, i64 0, i32 0
  call void @_ZN4base8internal12CallbackBaseD2Ev(%"class.base::internal::CallbackBase"* nonnull %41) #16
  br label %42

42:                                               ; preds = %18, %34
  call void @llvm.lifetime.end.p0i8(i64 32, i8* nonnull %33) #16
  call void @llvm.lifetime.end.p0i8(i64 8, i8* nonnull %29)
  %43 = getelementptr inbounds %"class.base::OnceCallback.215", %"class.base::OnceCallback.215"* %7, i64 0, i32 0
  call void @_ZN4base8internal12CallbackBaseD2Ev(%"class.base::internal::CallbackBase"* nonnull %43) #16
  ret void
}

; Function Attrs: nounwind ssp uwtable
define hidden void @_ZN16password_manager13PasswordStore34RemoveLoginsCreatedBetweenInternalEN4base4TimeES2_NS1_12OnceCallbackIFvvEEE(%"class.password_manager::PasswordStore"*, i64, i64, %"class.base::OnceCallback.215"* nocapture) #0 align 2 {
  %5 = alloca %"class.base::TimeTicks", align 8
  %6 = alloca %"class.std::__1::vector.217", align 8
  %7 = alloca %"class.base::Location", align 8
  %8 = alloca %"class.base::OnceCallback.215", align 8
  %9 = load i8, i8* getelementptr inbounds ([300 x %"struct.base::trace_event::TraceCategory"], [300 x %"struct.base::trace_event::TraceCategory"]* @_ZN4base11trace_event16CategoryRegistry11categories_E, i64 0, i64 94, i32 0), align 16
  %10 = and i8 %9, 25
  %11 = icmp eq i8 %10, 0
  br i1 %11, label %18, label %12, !prof !5

12:                                               ; preds = %4
  %13 = tail call i32 @_ZN4base14PlatformThread9CurrentIdEv() #16
  %14 = bitcast %"class.base::TimeTicks"* %5 to i8*
  call void @llvm.lifetime.start.p0i8(i64 8, i8* nonnull %14) #16
  %15 = getelementptr inbounds %"class.base::TimeTicks", %"class.base::TimeTicks"* %5, i64 0, i32 0, i32 0
  %16 = tail call i64 @_ZN4base6subtle28TimeTicksNowIgnoringOverrideEv() #16
  store i64 %16, i64* %15, align 8
  %17 = call i64 @_ZN20trace_event_internal37AddTraceEventWithThreadIdAndTimestampEcPKhPKcS3_yyiRKN4base9TimeTicksEPNS4_11trace_event14TraceArgumentsEj(i8 signext 88, i8* getelementptr inbounds ([300 x %"struct.base::trace_event::TraceCategory"], [300 x %"struct.base::trace_event::TraceCategory"]* @_ZN4base11trace_event16CategoryRegistry11categories_E, i64 0, i64 94, i32 0), i8* getelementptr inbounds ([50 x i8], [50 x i8]* @.str.38, i64 0, i64 0), i8* null, i64 0, i64 0, i32 %13, %"class.base::TimeTicks"* nonnull dereferenceable(8) %5, %"class.base::trace_event::TraceArguments"* null, i32 0) #16
  call void @llvm.lifetime.end.p0i8(i64 8, i8* nonnull %14) #16
  br label %18

18:                                               ; preds = %4, %12
  %19 = phi i64 [ -6148914691236517206, %4 ], [ %17, %12 ]
  %20 = phi i8* [ inttoptr (i64 -6148914691236517206 to i8*), %4 ], [ getelementptr inbounds ([50 x i8], [50 x i8]* @.str.38, i64 0, i64 0), %12 ]
  %21 = phi i8* [ null, %4 ], [ getelementptr inbounds ([300 x %"struct.base::trace_event::TraceCategory"], [300 x %"struct.base::trace_event::TraceCategory"]* @_ZN4base11trace_event16CategoryRegistry11categories_E, i64 0, i64 94, i32 0), %12 ]
  %22 = getelementptr inbounds %"class.password_manager::PasswordStore", %"class.password_manager::PasswordStore"* %0, i64 0, i32 0
  %23 = bitcast %"class.password_manager::PasswordStore"* %0 to i1 (%"class.password_manager::PasswordStoreSync"*)***
  %24 = load i1 (%"class.password_manager::PasswordStoreSync"*)**, i1 (%"class.password_manager::PasswordStoreSync"*)*** %23, align 8
  %25 = getelementptr inbounds i1 (%"class.password_manager::PasswordStoreSync"*)*, i1 (%"class.password_manager::PasswordStoreSync"*)** %24, i64 13
  %26 = load i1 (%"class.password_manager::PasswordStoreSync"*)*, i1 (%"class.password_manager::PasswordStoreSync"*)** %25, align 8
  %27 = call zeroext i1 %26(%"class.password_manager::PasswordStoreSync"* %22) #16
  %28 = bitcast %"class.std::__1::vector.217"* %6 to i8*
  call void @llvm.lifetime.start.p0i8(i64 24, i8* nonnull %28) #16
  %29 = getelementptr inbounds %"class.std::__1::vector.217", %"class.std::__1::vector.217"* %6, i64 0, i32 0, i32 0
  %30 = getelementptr inbounds %"class.std::__1::vector.217", %"class.std::__1::vector.217"* %6, i64 0, i32 0, i32 1
  %31 = bitcast %"class.password_manager::PasswordStore"* %0 to void (%"class.std::__1::vector.217"*, %"class.password_manager::PasswordStore"*, i64, i64)***
  %32 = bitcast %"class.std::__1::vector.217"* %6 to i8*
  call void @llvm.memset.p0i8.i64(i8* nonnull align 8 %32, i8 -86, i64 24, i1 false)
  %33 = load void (%"class.std::__1::vector.217"*, %"class.password_manager::PasswordStore"*, i64, i64)**, void (%"class.std::__1::vector.217"*, %"class.password_manager::PasswordStore"*, i64, i64)*** %31, align 8
  %34 = getelementptr inbounds void (%"class.std::__1::vector.217"*, %"class.password_manager::PasswordStore"*, i64, i64)*, void (%"class.std::__1::vector.217"*, %"class.password_manager::PasswordStore"*, i64, i64)** %33, i64 46
  %35 = load void (%"class.std::__1::vector.217"*, %"class.password_manager::PasswordStore"*, i64, i64)*, void (%"class.std::__1::vector.217"*, %"class.password_manager::PasswordStore"*, i64, i64)** %34, align 8
  call void %35(%"class.std::__1::vector.217"* nonnull sret %6, %"class.password_manager::PasswordStore"* %0, i64 %1, i64 %2) #16
  %36 = bitcast %"class.password_manager::PasswordStore"* %0 to void (%"class.password_manager::PasswordStore"*, %"class.std::__1::vector.217"*)***
  %37 = load void (%"class.password_manager::PasswordStore"*, %"class.std::__1::vector.217"*)**, void (%"class.password_manager::PasswordStore"*, %"class.std::__1::vector.217"*)*** %36, align 8
  %38 = getelementptr inbounds void (%"class.password_manager::PasswordStore"*, %"class.std::__1::vector.217"*)*, void (%"class.password_manager::PasswordStore"*, %"class.std::__1::vector.217"*)** %37, i64 9
  %39 = load void (%"class.password_manager::PasswordStore"*, %"class.std::__1::vector.217"*)*, void (%"class.password_manager::PasswordStore"*, %"class.std::__1::vector.217"*)** %38, align 8
  call void %39(%"class.password_manager::PasswordStore"* %0, %"class.std::__1::vector.217"* nonnull dereferenceable(24) %6) #16
  %40 = load i1 (%"class.password_manager::PasswordStoreSync"*)**, i1 (%"class.password_manager::PasswordStoreSync"*)*** %23, align 8
  %41 = getelementptr inbounds i1 (%"class.password_manager::PasswordStoreSync"*)*, i1 (%"class.password_manager::PasswordStoreSync"*)** %40, i64 15
  %42 = load i1 (%"class.password_manager::PasswordStoreSync"*)*, i1 (%"class.password_manager::PasswordStoreSync"*)** %41, align 8
  %43 = call zeroext i1 %42(%"class.password_manager::PasswordStoreSync"* %22) #16
  %44 = getelementptr inbounds %"class.base::OnceCallback.215", %"class.base::OnceCallback.215"* %3, i64 0, i32 0, i32 0, i32 0
  %45 = load %"class.base::internal::BindStateBase"*, %"class.base::internal::BindStateBase"** %44, align 8
  %46 = icmp eq %"class.base::internal::BindStateBase"* %45, null
  br i1 %46, label %57, label %47

47:                                               ; preds = %18
  %48 = getelementptr inbounds %"class.password_manager::PasswordStore", %"class.password_manager::PasswordStore"* %0, i64 0, i32 2, i32 0
  %49 = bitcast %"class.base::SequencedTaskRunner"** %48 to %"class.base::TaskRunner"**
  %50 = load %"class.base::TaskRunner"*, %"class.base::TaskRunner"** %49, align 8
  %51 = bitcast %"class.base::Location"* %7 to i8*
  call void @llvm.lifetime.start.p0i8(i64 32, i8* nonnull %51) #16
  call void @_ZN4base8Location7CurrentEPKcS2_i(%"class.base::Location"* nonnull sret %7, i8* getelementptr inbounds ([35 x i8], [35 x i8]* @.str.39, i64 0, i64 0), i8* getelementptr inbounds ([65 x i8], [65 x i8]* @.str.2, i64 0, i64 0), i32 1065) #16
  %52 = bitcast %"class.base::OnceCallback.215"* %3 to i64*
  %53 = load i64, i64* %52, align 8
  %54 = bitcast %"class.base::OnceCallback.215"* %8 to i64*
  store i64 %53, i64* %54, align 8
  store %"class.base::internal::BindStateBase"* null, %"class.base::internal::BindStateBase"** %44, align 8
  %55 = call zeroext i1 @_ZN4base10TaskRunner8PostTaskERKNS_8LocationENS_12OnceCallbackIFvvEEE(%"class.base::TaskRunner"* %50, %"class.base::Location"* nonnull dereferenceable(32) %7, %"class.base::OnceCallback.215"* nonnull %8) #16
  %56 = getelementptr inbounds %"class.base::OnceCallback.215", %"class.base::OnceCallback.215"* %8, i64 0, i32 0
  call void @_ZN4base8internal12CallbackBaseD2Ev(%"class.base::internal::CallbackBase"* nonnull %56) #16
  call void @llvm.lifetime.end.p0i8(i64 32, i8* nonnull %51) #16
  br label %57

57:                                               ; preds = %18, %47
  %58 = load %"class.password_manager::PasswordStoreChange"*, %"class.password_manager::PasswordStoreChange"** %29, align 8
  %59 = icmp eq %"class.password_manager::PasswordStoreChange"* %58, null
  br i1 %59, label %73, label %60

60:                                               ; preds = %57
  %61 = bitcast %"class.password_manager::PasswordStoreChange"* %58 to i8*
  %62 = load %"class.password_manager::PasswordStoreChange"*, %"class.password_manager::PasswordStoreChange"** %30, align 8
  %63 = icmp eq %"class.password_manager::PasswordStoreChange"* %62, %58
  br i1 %63, label %71, label %64

64:                                               ; preds = %60, %64
  %65 = phi %"class.password_manager::PasswordStoreChange"* [ %66, %64 ], [ %62, %60 ]
  %66 = getelementptr inbounds %"class.password_manager::PasswordStoreChange", %"class.password_manager::PasswordStoreChange"* %65, i64 -1
  call void @_ZN16password_manager19PasswordStoreChangeD1Ev(%"class.password_manager::PasswordStoreChange"* %66) #16
  %67 = icmp eq %"class.password_manager::PasswordStoreChange"* %66, %58
  br i1 %67, label %68, label %64

68:                                               ; preds = %64
  %69 = bitcast %"class.std::__1::vector.217"* %6 to i8**
  %70 = load i8*, i8** %69, align 8
  br label %71

71:                                               ; preds = %68, %60
  %72 = phi i8* [ %70, %68 ], [ %61, %60 ]
  store %"class.password_manager::PasswordStoreChange"* %58, %"class.password_manager::PasswordStoreChange"** %30, align 8
  call void @_ZdlPv(i8* %72) #17
  br label %73

73:                                               ; preds = %57, %71
  call void @llvm.lifetime.end.p0i8(i64 24, i8* nonnull %28) #16
  %74 = icmp eq i8* %21, null
  br i1 %74, label %79, label %75

75:                                               ; preds = %73
  %76 = load i8, i8* %21, align 1
  %77 = icmp eq i8 %76, 0
  br i1 %77, label %79, label %78

78:                                               ; preds = %75
  call void @_ZN20trace_event_internal24UpdateTraceEventDurationEPKhPKcN4base11trace_event16TraceEventHandleE(i8* nonnull %21, i8* %20, i64 %19) #16
  br label %79

79:                                               ; preds = %73, %75, %78
  ret void
}

; Function Attrs: nounwind ssp uwtable
define hidden void @_ZN16password_manager13PasswordStore31RemoveStatisticsByOriginAndTimeERKN4base17RepeatingCallbackIFbRK4GURLEEENS1_4TimeESA_NS1_12OnceCallbackIFvvEEE(%"class.password_manager::PasswordStore"*, %"class.base::RepeatingCallback.319"* dereferenceable(8), i64, i64, %"class.base::OnceCallback.215"* nocapture) local_unnamed_addr #0 align 2 {
  %6 = alloca %"class.base::Location", align 8
  %7 = alloca %"class.base::OnceCallback.215", align 8
  %8 = alloca %"class.base::OnceCallback.215", align 8
  %9 = tail call i8* @_Znwm(i64 88) #17, !noalias !69
  %10 = bitcast i8* %9 to %"class.base::internal::BindStateBase"*
  tail call void @_ZN4base8internal13BindStateBaseC2EPFvvEPFvPKS1_E(%"class.base::internal::BindStateBase"* nonnull %10, void ()* bitcast (void (%"class.base::internal::BindStateBase"*)* @_ZN4base8internal7InvokerINS0_9BindStateIMN16password_manager13PasswordStoreEFvRKNS_17RepeatingCallbackIFbRK4GURLEEENS_4TimeESD_NS_12OnceCallbackIFvvEEEEJ13scoped_refptrIS4_ESA_SD_SD_SG_EEESF_E7RunOnceEPNS0_13BindStateBaseE to void ()*), void (%"class.base::internal::BindStateBase"*)* nonnull @_ZN4base8internal9BindStateIMN16password_manager13PasswordStoreEFvRKNS_17RepeatingCallbackIFbRK4GURLEEENS_4TimeESC_NS_12OnceCallbackIFvvEEEEJ13scoped_refptrIS3_ES9_SC_SC_SF_EE7DestroyEPKNS0_13BindStateBaseE) #16, !noalias !69
  %11 = getelementptr inbounds i8, i8* %9, i64 32
  %12 = bitcast i8* %11 to <2 x i64>*
  store <2 x i64> <i64 ptrtoint (void (%"class.password_manager::PasswordStore"*, %"class.base::RepeatingCallback.319"*, i64, i64, %"class.base::OnceCallback.215"*)* @_ZN16password_manager13PasswordStore39RemoveStatisticsByOriginAndTimeInternalERKN4base17RepeatingCallbackIFbRK4GURLEEENS1_4TimeESA_NS1_12OnceCallbackIFvvEEE to i64), i64 0>, <2 x i64>* %12, align 8, !noalias !69
  %13 = getelementptr inbounds i8, i8* %9, i64 48
  %14 = bitcast i8* %13 to %"class.password_manager::PasswordStore"**
  store %"class.password_manager::PasswordStore"* %0, %"class.password_manager::PasswordStore"** %14, align 8, !noalias !69
  %15 = icmp eq %"class.password_manager::PasswordStore"* %0, null
  br i1 %15, label %19, label %16

16:                                               ; preds = %5
  %17 = getelementptr inbounds %"class.password_manager::PasswordStore", %"class.password_manager::PasswordStore"* %0, i64 0, i32 1, i32 1, i32 0, i32 0, i32 0, i32 0, i32 0, i32 0, i32 0, i32 0
  %18 = atomicrmw add i32* %17, i32 1 monotonic, !noalias !69
  br label %19

19:                                               ; preds = %5, %16
  %20 = getelementptr inbounds i8, i8* %9, i64 56
  %21 = bitcast i8* %20 to %"class.base::internal::CallbackBaseCopyable"*
  %22 = getelementptr inbounds %"class.base::RepeatingCallback.319", %"class.base::RepeatingCallback.319"* %1, i64 0, i32 0
  tail call void @_ZN4base8internal20CallbackBaseCopyableC2ERKS1_(%"class.base::internal::CallbackBaseCopyable"* %21, %"class.base::internal::CallbackBaseCopyable"* dereferenceable(8) %22) #16, !noalias !69
  %23 = getelementptr inbounds i8, i8* %9, i64 64
  %24 = bitcast i8* %23 to i64*
  store i64 %2, i64* %24, align 8, !noalias !69
  %25 = getelementptr inbounds i8, i8* %9, i64 72
  %26 = bitcast i8* %25 to i64*
  store i64 %3, i64* %26, align 8, !noalias !69
  %27 = getelementptr inbounds i8, i8* %9, i64 80
  %28 = getelementptr inbounds %"class.base::OnceCallback.215", %"class.base::OnceCallback.215"* %4, i64 0, i32 0, i32 0, i32 0
  %29 = bitcast %"class.base::OnceCallback.215"* %4 to i64*
  %30 = load i64, i64* %29, align 8, !noalias !69
  %31 = bitcast i8* %27 to i64*
  store i64 %30, i64* %31, align 8, !noalias !69
  store %"class.base::internal::BindStateBase"* null, %"class.base::internal::BindStateBase"** %28, align 8, !noalias !69
  %32 = bitcast %"class.base::OnceCallback.215"* %8 to i8**
  store i8* %9, i8** %32, align 8, !alias.scope !69
  %33 = bitcast %"class.base::OnceCallback.215"* %7 to i8*
  call void @llvm.lifetime.start.p0i8(i64 8, i8* nonnull %33)
  %34 = getelementptr inbounds %"class.password_manager::PasswordStore", %"class.password_manager::PasswordStore"* %0, i64 0, i32 3, i32 0
  %35 = load %"class.base::SequencedTaskRunner"*, %"class.base::SequencedTaskRunner"** %34, align 8
  %36 = icmp eq %"class.base::SequencedTaskRunner"* %35, null
  %37 = bitcast %"class.base::Location"* %6 to i8*
  call void @llvm.lifetime.start.p0i8(i64 32, i8* nonnull %37) #16
  br i1 %36, label %46, label %38

38:                                               ; preds = %19
  %39 = bitcast %"class.base::SequencedTaskRunner"* %35 to %"class.base::TaskRunner"*
  call void @_ZN4base8Location7CurrentEPKcS2_i(%"class.base::Location"* nonnull sret %6, i8* getelementptr inbounds ([13 x i8], [13 x i8]* @.str.13, i64 0, i64 0), i8* getelementptr inbounds ([65 x i8], [65 x i8]* @.str.2, i64 0, i64 0), i32 507) #16
  %40 = getelementptr inbounds %"class.base::OnceCallback.215", %"class.base::OnceCallback.215"* %8, i64 0, i32 0, i32 0, i32 0
  %41 = bitcast %"class.base::OnceCallback.215"* %8 to i64*
  %42 = load i64, i64* %41, align 8
  %43 = bitcast %"class.base::OnceCallback.215"* %7 to i64*
  store i64 %42, i64* %43, align 8
  store %"class.base::internal::BindStateBase"* null, %"class.base::internal::BindStateBase"** %40, align 8
  %44 = call zeroext i1 @_ZN4base10TaskRunner8PostTaskERKNS_8LocationENS_12OnceCallbackIFvvEEE(%"class.base::TaskRunner"* nonnull %39, %"class.base::Location"* nonnull dereferenceable(32) %6, %"class.base::OnceCallback.215"* nonnull %7) #16
  %45 = getelementptr inbounds %"class.base::OnceCallback.215", %"class.base::OnceCallback.215"* %7, i64 0, i32 0
  call void @_ZN4base8internal12CallbackBaseD2Ev(%"class.base::internal::CallbackBase"* nonnull %45) #16
  br label %46

46:                                               ; preds = %19, %38
  call void @llvm.lifetime.end.p0i8(i64 32, i8* nonnull %37) #16
  call void @llvm.lifetime.end.p0i8(i64 8, i8* nonnull %33)
  %47 = getelementptr inbounds %"class.base::OnceCallback.215", %"class.base::OnceCallback.215"* %8, i64 0, i32 0
  call void @_ZN4base8internal12CallbackBaseD2Ev(%"class.base::internal::CallbackBase"* nonnull %47) #16
  ret void
}

; Function Attrs: nounwind ssp uwtable
define hidden void @_ZN16password_manager13PasswordStore39RemoveStatisticsByOriginAndTimeInternalERKN4base17RepeatingCallbackIFbRK4GURLEEENS1_4TimeESA_NS1_12OnceCallbackIFvvEEE(%"class.password_manager::PasswordStore"*, %"class.base::RepeatingCallback.319"* dereferenceable(8), i64, i64, %"class.base::OnceCallback.215"* nocapture) #0 align 2 {
  %6 = alloca %"class.base::TimeTicks", align 8
  %7 = alloca %"class.base::Location", align 8
  %8 = alloca %"class.base::OnceCallback.215", align 8
  %9 = load i8, i8* getelementptr inbounds ([300 x %"struct.base::trace_event::TraceCategory"], [300 x %"struct.base::trace_event::TraceCategory"]* @_ZN4base11trace_event16CategoryRegistry11categories_E, i64 0, i64 94, i32 0), align 16
  %10 = and i8 %9, 25
  %11 = icmp eq i8 %10, 0
  br i1 %11, label %18, label %12, !prof !5

12:                                               ; preds = %5
  %13 = tail call i32 @_ZN4base14PlatformThread9CurrentIdEv() #16
  %14 = bitcast %"class.base::TimeTicks"* %6 to i8*
  call void @llvm.lifetime.start.p0i8(i64 8, i8* nonnull %14) #16
  %15 = getelementptr inbounds %"class.base::TimeTicks", %"class.base::TimeTicks"* %6, i64 0, i32 0, i32 0
  %16 = tail call i64 @_ZN4base6subtle28TimeTicksNowIgnoringOverrideEv() #16
  store i64 %16, i64* %15, align 8
  %17 = call i64 @_ZN20trace_event_internal37AddTraceEventWithThreadIdAndTimestampEcPKhPKcS3_yyiRKN4base9TimeTicksEPNS4_11trace_event14TraceArgumentsEj(i8 signext 88, i8* getelementptr inbounds ([300 x %"struct.base::trace_event::TraceCategory"], [300 x %"struct.base::trace_event::TraceCategory"]* @_ZN4base11trace_event16CategoryRegistry11categories_E, i64 0, i64 94, i32 0), i8* getelementptr inbounds ([55 x i8], [55 x i8]* @.str.40, i64 0, i64 0), i8* null, i64 0, i64 0, i32 %13, %"class.base::TimeTicks"* nonnull dereferenceable(8) %6, %"class.base::trace_event::TraceArguments"* null, i32 0) #16
  call void @llvm.lifetime.end.p0i8(i64 8, i8* nonnull %14) #16
  br label %18

18:                                               ; preds = %5, %12
  %19 = phi i64 [ -6148914691236517206, %5 ], [ %17, %12 ]
  %20 = phi i8* [ inttoptr (i64 -6148914691236517206 to i8*), %5 ], [ getelementptr inbounds ([55 x i8], [55 x i8]* @.str.40, i64 0, i64 0), %12 ]
  %21 = phi i8* [ null, %5 ], [ getelementptr inbounds ([300 x %"struct.base::trace_event::TraceCategory"], [300 x %"struct.base::trace_event::TraceCategory"]* @_ZN4base11trace_event16CategoryRegistry11categories_E, i64 0, i64 94, i32 0), %12 ]
  %22 = bitcast %"class.password_manager::PasswordStore"* %0 to i1 (%"class.password_manager::PasswordStore"*, %"class.base::RepeatingCallback.319"*, i64, i64)***
  %23 = load i1 (%"class.password_manager::PasswordStore"*, %"class.base::RepeatingCallback.319"*, i64, i64)**, i1 (%"class.password_manager::PasswordStore"*, %"class.base::RepeatingCallback.319"*, i64, i64)*** %22, align 8
  %24 = getelementptr inbounds i1 (%"class.password_manager::PasswordStore"*, %"class.base::RepeatingCallback.319"*, i64, i64)*, i1 (%"class.password_manager::PasswordStore"*, %"class.base::RepeatingCallback.319"*, i64, i64)** %23, i64 47
  %25 = load i1 (%"class.password_manager::PasswordStore"*, %"class.base::RepeatingCallback.319"*, i64, i64)*, i1 (%"class.password_manager::PasswordStore"*, %"class.base::RepeatingCallback.319"*, i64, i64)** %24, align 8
  %26 = call zeroext i1 %25(%"class.password_manager::PasswordStore"* %0, %"class.base::RepeatingCallback.319"* dereferenceable(8) %1, i64 %2, i64 %3) #16
  %27 = getelementptr inbounds %"class.base::OnceCallback.215", %"class.base::OnceCallback.215"* %4, i64 0, i32 0, i32 0, i32 0
  %28 = load %"class.base::internal::BindStateBase"*, %"class.base::internal::BindStateBase"** %27, align 8
  %29 = icmp eq %"class.base::internal::BindStateBase"* %28, null
  br i1 %29, label %40, label %30

30:                                               ; preds = %18
  %31 = getelementptr inbounds %"class.password_manager::PasswordStore", %"class.password_manager::PasswordStore"* %0, i64 0, i32 2, i32 0
  %32 = bitcast %"class.base::SequencedTaskRunner"** %31 to %"class.base::TaskRunner"**
  %33 = load %"class.base::TaskRunner"*, %"class.base::TaskRunner"** %32, align 8
  %34 = bitcast %"class.base::Location"* %7 to i8*
  call void @llvm.lifetime.start.p0i8(i64 32, i8* nonnull %34) #16
  call void @_ZN4base8Location7CurrentEPKcS2_i(%"class.base::Location"* nonnull sret %7, i8* getelementptr inbounds ([40 x i8], [40 x i8]* @.str.41, i64 0, i64 0), i8* getelementptr inbounds ([65 x i8], [65 x i8]* @.str.2, i64 0, i64 0), i32 1078) #16
  %35 = bitcast %"class.base::OnceCallback.215"* %4 to i64*
  %36 = load i64, i64* %35, align 8
  %37 = bitcast %"class.base::OnceCallback.215"* %8 to i64*
  store i64 %36, i64* %37, align 8
  store %"class.base::internal::BindStateBase"* null, %"class.base::internal::BindStateBase"** %27, align 8
  %38 = call zeroext i1 @_ZN4base10TaskRunner8PostTaskERKNS_8LocationENS_12OnceCallbackIFvvEEE(%"class.base::TaskRunner"* %33, %"class.base::Location"* nonnull dereferenceable(32) %7, %"class.base::OnceCallback.215"* nonnull %8) #16
  %39 = getelementptr inbounds %"class.base::OnceCallback.215", %"class.base::OnceCallback.215"* %8, i64 0, i32 0
  call void @_ZN4base8internal12CallbackBaseD2Ev(%"class.base::internal::CallbackBase"* nonnull %39) #16
  call void @llvm.lifetime.end.p0i8(i64 32, i8* nonnull %34) #16
  br label %40

40:                                               ; preds = %18, %30
  %41 = icmp eq i8* %21, null
  br i1 %41, label %46, label %42

42:                                               ; preds = %40
  %43 = load i8, i8* %21, align 1
  %44 = icmp eq i8 %43, 0
  br i1 %44, label %46, label %45

45:                                               ; preds = %42
  call void @_ZN20trace_event_internal24UpdateTraceEventDurationEPKhPKcN4base11trace_event16TraceEventHandleE(i8* nonnull %21, i8* %20, i64 %19) #16
  br label %46

46:                                               ; preds = %40, %42, %45
  ret void
}

; Function Attrs: nounwind ssp uwtable
define hidden void @_ZN16password_manager13PasswordStore27DisableAutoSignInForOriginsERKN4base17RepeatingCallbackIFbRK4GURLEEENS1_12OnceCallbackIFvvEEE(%"class.password_manager::PasswordStore"*, %"class.base::RepeatingCallback.319"* dereferenceable(8), %"class.base::OnceCallback.215"* nocapture) local_unnamed_addr #0 align 2 {
  %4 = alloca %"class.base::Location", align 8
  %5 = alloca %"class.base::OnceCallback.215", align 8
  %6 = alloca %"class.base::OnceCallback.215", align 8
  %7 = alloca %"class.base::RepeatingCallback.319", align 8
  %8 = bitcast %"class.base::RepeatingCallback.319"* %7 to i8*
  call void @llvm.lifetime.start.p0i8(i64 8, i8* nonnull %8) #16
  %9 = getelementptr inbounds %"class.base::RepeatingCallback.319", %"class.base::RepeatingCallback.319"* %7, i64 0, i32 0
  %10 = getelementptr inbounds %"class.base::RepeatingCallback.319", %"class.base::RepeatingCallback.319"* %1, i64 0, i32 0
  call void @_ZN4base8internal20CallbackBaseCopyableC2ERKS1_(%"class.base::internal::CallbackBaseCopyable"* nonnull %9, %"class.base::internal::CallbackBaseCopyable"* dereferenceable(8) %10) #16
  %11 = call i8* @_Znwm(i64 72) #17, !noalias !74
  %12 = bitcast i8* %11 to %"class.base::internal::BindStateBase"*
  call void @_ZN4base8internal13BindStateBaseC2EPFvvEPFvPKS1_E(%"class.base::internal::BindStateBase"* nonnull %12, void ()* bitcast (void (%"class.base::internal::BindStateBase"*)* @_ZN4base8internal7InvokerINS0_9BindStateIMN16password_manager13PasswordStoreEFvRKNS_17RepeatingCallbackIFbRK4GURLEEENS_12OnceCallbackIFvvEEEEJ13scoped_refptrIS4_ESA_SF_EEESE_E7RunOnceEPNS0_13BindStateBaseE to void ()*), void (%"class.base::internal::BindStateBase"*)* nonnull @_ZN4base8internal9BindStateIMN16password_manager13PasswordStoreEFvRKNS_17RepeatingCallbackIFbRK4GURLEEENS_12OnceCallbackIFvvEEEEJ13scoped_refptrIS3_ES9_SE_EE7DestroyEPKNS0_13BindStateBaseE) #16, !noalias !74
  %13 = getelementptr inbounds i8, i8* %11, i64 32
  %14 = bitcast i8* %13 to <2 x i64>*
  store <2 x i64> <i64 ptrtoint (void (%"class.password_manager::PasswordStore"*, %"class.base::RepeatingCallback.319"*, %"class.base::OnceCallback.215"*)* @_ZN16password_manager13PasswordStore35DisableAutoSignInForOriginsInternalERKN4base17RepeatingCallbackIFbRK4GURLEEENS1_12OnceCallbackIFvvEEE to i64), i64 0>, <2 x i64>* %14, align 8, !noalias !74
  %15 = getelementptr inbounds i8, i8* %11, i64 48
  %16 = bitcast i8* %15 to %"class.password_manager::PasswordStore"**
  store %"class.password_manager::PasswordStore"* %0, %"class.password_manager::PasswordStore"** %16, align 8, !noalias !74
  %17 = icmp eq %"class.password_manager::PasswordStore"* %0, null
  br i1 %17, label %21, label %18

18:                                               ; preds = %3
  %19 = getelementptr inbounds %"class.password_manager::PasswordStore", %"class.password_manager::PasswordStore"* %0, i64 0, i32 1, i32 1, i32 0, i32 0, i32 0, i32 0, i32 0, i32 0, i32 0, i32 0
  %20 = atomicrmw add i32* %19, i32 1 monotonic, !noalias !74
  br label %21

21:                                               ; preds = %3, %18
  %22 = getelementptr inbounds i8, i8* %11, i64 56
  %23 = getelementptr inbounds %"class.base::RepeatingCallback.319", %"class.base::RepeatingCallback.319"* %7, i64 0, i32 0, i32 0, i32 0, i32 0
  %24 = bitcast %"class.base::RepeatingCallback.319"* %7 to i64*
  %25 = load i64, i64* %24, align 8, !noalias !74
  %26 = bitcast i8* %22 to i64*
  store i64 %25, i64* %26, align 8, !noalias !74
  store %"class.base::internal::BindStateBase"* null, %"class.base::internal::BindStateBase"** %23, align 8, !noalias !74
  %27 = getelementptr inbounds i8, i8* %11, i64 64
  %28 = getelementptr inbounds %"class.base::OnceCallback.215", %"class.base::OnceCallback.215"* %2, i64 0, i32 0, i32 0, i32 0
  %29 = bitcast %"class.base::OnceCallback.215"* %2 to i64*
  %30 = load i64, i64* %29, align 8, !noalias !74
  %31 = bitcast i8* %27 to i64*
  store i64 %30, i64* %31, align 8, !noalias !74
  store %"class.base::internal::BindStateBase"* null, %"class.base::internal::BindStateBase"** %28, align 8, !noalias !74
  %32 = bitcast %"class.base::OnceCallback.215"* %6 to i8**
  store i8* %11, i8** %32, align 8, !alias.scope !74
  %33 = bitcast %"class.base::OnceCallback.215"* %5 to i8*
  call void @llvm.lifetime.start.p0i8(i64 8, i8* nonnull %33)
  %34 = getelementptr inbounds %"class.password_manager::PasswordStore", %"class.password_manager::PasswordStore"* %0, i64 0, i32 3, i32 0
  %35 = load %"class.base::SequencedTaskRunner"*, %"class.base::SequencedTaskRunner"** %34, align 8
  %36 = icmp eq %"class.base::SequencedTaskRunner"* %35, null
  %37 = bitcast %"class.base::Location"* %4 to i8*
  call void @llvm.lifetime.start.p0i8(i64 32, i8* nonnull %37) #16
  br i1 %36, label %46, label %38

38:                                               ; preds = %21
  %39 = bitcast %"class.base::SequencedTaskRunner"* %35 to %"class.base::TaskRunner"*
  call void @_ZN4base8Location7CurrentEPKcS2_i(%"class.base::Location"* nonnull sret %4, i8* getelementptr inbounds ([13 x i8], [13 x i8]* @.str.13, i64 0, i64 0), i8* getelementptr inbounds ([65 x i8], [65 x i8]* @.str.2, i64 0, i64 0), i32 507) #16
  %40 = getelementptr inbounds %"class.base::OnceCallback.215", %"class.base::OnceCallback.215"* %6, i64 0, i32 0, i32 0, i32 0
  %41 = bitcast %"class.base::OnceCallback.215"* %6 to i64*
  %42 = load i64, i64* %41, align 8
  %43 = bitcast %"class.base::OnceCallback.215"* %5 to i64*
  store i64 %42, i64* %43, align 8
  store %"class.base::internal::BindStateBase"* null, %"class.base::internal::BindStateBase"** %40, align 8
  %44 = call zeroext i1 @_ZN4base10TaskRunner8PostTaskERKNS_8LocationENS_12OnceCallbackIFvvEEE(%"class.base::TaskRunner"* nonnull %39, %"class.base::Location"* nonnull dereferenceable(32) %4, %"class.base::OnceCallback.215"* nonnull %5) #16
  %45 = getelementptr inbounds %"class.base::OnceCallback.215", %"class.base::OnceCallback.215"* %5, i64 0, i32 0
  call void @_ZN4base8internal12CallbackBaseD2Ev(%"class.base::internal::CallbackBase"* nonnull %45) #16
  br label %46

46:                                               ; preds = %21, %38
  call void @llvm.lifetime.end.p0i8(i64 32, i8* nonnull %37) #16
  call void @llvm.lifetime.end.p0i8(i64 8, i8* nonnull %33)
  %47 = getelementptr inbounds %"class.base::OnceCallback.215", %"class.base::OnceCallback.215"* %6, i64 0, i32 0
  call void @_ZN4base8internal12CallbackBaseD2Ev(%"class.base::internal::CallbackBase"* nonnull %47) #16
  %48 = getelementptr inbounds %"class.base::RepeatingCallback.319", %"class.base::RepeatingCallback.319"* %7, i64 0, i32 0, i32 0
  call void @_ZN4base8internal12CallbackBaseD2Ev(%"class.base::internal::CallbackBase"* nonnull %48) #16
  call void @llvm.lifetime.end.p0i8(i64 8, i8* nonnull %8) #16
  ret void
}

; Function Attrs: nounwind ssp uwtable
define hidden void @_ZN16password_manager13PasswordStore35DisableAutoSignInForOriginsInternalERKN4base17RepeatingCallbackIFbRK4GURLEEENS1_12OnceCallbackIFvvEEE(%"class.password_manager::PasswordStore"*, %"class.base::RepeatingCallback.319"* dereferenceable(8), %"class.base::OnceCallback.215"* nocapture) #0 align 2 {
  %4 = alloca %"class.base::TimeTicks", align 8
  %5 = alloca %"class.std::__1::vector.217", align 8
  %6 = alloca %"class.base::Location", align 8
  %7 = alloca %"class.base::OnceCallback.215", align 8
  %8 = load i8, i8* getelementptr inbounds ([300 x %"struct.base::trace_event::TraceCategory"], [300 x %"struct.base::trace_event::TraceCategory"]* @_ZN4base11trace_event16CategoryRegistry11categories_E, i64 0, i64 94, i32 0), align 16
  %9 = and i8 %8, 25
  %10 = icmp eq i8 %9, 0
  br i1 %10, label %17, label %11, !prof !5

11:                                               ; preds = %3
  %12 = tail call i32 @_ZN4base14PlatformThread9CurrentIdEv() #16
  %13 = bitcast %"class.base::TimeTicks"* %4 to i8*
  call void @llvm.lifetime.start.p0i8(i64 8, i8* nonnull %13) #16
  %14 = getelementptr inbounds %"class.base::TimeTicks", %"class.base::TimeTicks"* %4, i64 0, i32 0, i32 0
  %15 = tail call i64 @_ZN4base6subtle28TimeTicksNowIgnoringOverrideEv() #16
  store i64 %15, i64* %14, align 8
  %16 = call i64 @_ZN20trace_event_internal37AddTraceEventWithThreadIdAndTimestampEcPKhPKcS3_yyiRKN4base9TimeTicksEPNS4_11trace_event14TraceArgumentsEj(i8 signext 88, i8* getelementptr inbounds ([300 x %"struct.base::trace_event::TraceCategory"], [300 x %"struct.base::trace_event::TraceCategory"]* @_ZN4base11trace_event16CategoryRegistry11categories_E, i64 0, i64 94, i32 0), i8* getelementptr inbounds ([51 x i8], [51 x i8]* @.str.42, i64 0, i64 0), i8* null, i64 0, i64 0, i32 %12, %"class.base::TimeTicks"* nonnull dereferenceable(8) %4, %"class.base::trace_event::TraceArguments"* null, i32 0) #16
  call void @llvm.lifetime.end.p0i8(i64 8, i8* nonnull %13) #16
  br label %17

17:                                               ; preds = %3, %11
  %18 = phi i64 [ -6148914691236517206, %3 ], [ %16, %11 ]
  %19 = phi i8* [ inttoptr (i64 -6148914691236517206 to i8*), %3 ], [ getelementptr inbounds ([51 x i8], [51 x i8]* @.str.42, i64 0, i64 0), %11 ]
  %20 = phi i8* [ null, %3 ], [ getelementptr inbounds ([300 x %"struct.base::trace_event::TraceCategory"], [300 x %"struct.base::trace_event::TraceCategory"]* @_ZN4base11trace_event16CategoryRegistry11categories_E, i64 0, i64 94, i32 0), %11 ]
  %21 = bitcast %"class.password_manager::PasswordStore"* %0 to void (%"class.std::__1::vector.217"*, %"class.password_manager::PasswordStore"*, %"class.base::RepeatingCallback.319"*)***
  %22 = load void (%"class.std::__1::vector.217"*, %"class.password_manager::PasswordStore"*, %"class.base::RepeatingCallback.319"*)**, void (%"class.std::__1::vector.217"*, %"class.password_manager::PasswordStore"*, %"class.base::RepeatingCallback.319"*)*** %21, align 8
  %23 = getelementptr inbounds void (%"class.std::__1::vector.217"*, %"class.password_manager::PasswordStore"*, %"class.base::RepeatingCallback.319"*)*, void (%"class.std::__1::vector.217"*, %"class.password_manager::PasswordStore"*, %"class.base::RepeatingCallback.319"*)** %22, i64 48
  %24 = load void (%"class.std::__1::vector.217"*, %"class.password_manager::PasswordStore"*, %"class.base::RepeatingCallback.319"*)*, void (%"class.std::__1::vector.217"*, %"class.password_manager::PasswordStore"*, %"class.base::RepeatingCallback.319"*)** %23, align 8
  call void %24(%"class.std::__1::vector.217"* nonnull sret %5, %"class.password_manager::PasswordStore"* %0, %"class.base::RepeatingCallback.319"* dereferenceable(8) %1) #16
  %25 = getelementptr inbounds %"class.std::__1::vector.217", %"class.std::__1::vector.217"* %5, i64 0, i32 0, i32 0
  %26 = load %"class.password_manager::PasswordStoreChange"*, %"class.password_manager::PasswordStoreChange"** %25, align 8
  %27 = icmp eq %"class.password_manager::PasswordStoreChange"* %26, null
  br i1 %27, label %42, label %28

28:                                               ; preds = %17
  %29 = bitcast %"class.password_manager::PasswordStoreChange"* %26 to i8*
  %30 = getelementptr inbounds %"class.std::__1::vector.217", %"class.std::__1::vector.217"* %5, i64 0, i32 0, i32 1
  %31 = load %"class.password_manager::PasswordStoreChange"*, %"class.password_manager::PasswordStoreChange"** %30, align 8
  %32 = icmp eq %"class.password_manager::PasswordStoreChange"* %31, %26
  br i1 %32, label %40, label %33

33:                                               ; preds = %28, %33
  %34 = phi %"class.password_manager::PasswordStoreChange"* [ %35, %33 ], [ %31, %28 ]
  %35 = getelementptr inbounds %"class.password_manager::PasswordStoreChange", %"class.password_manager::PasswordStoreChange"* %34, i64 -1
  call void @_ZN16password_manager19PasswordStoreChangeD1Ev(%"class.password_manager::PasswordStoreChange"* %35) #16
  %36 = icmp eq %"class.password_manager::PasswordStoreChange"* %35, %26
  br i1 %36, label %37, label %33

37:                                               ; preds = %33
  %38 = bitcast %"class.std::__1::vector.217"* %5 to i8**
  %39 = load i8*, i8** %38, align 8
  br label %40

40:                                               ; preds = %37, %28
  %41 = phi i8* [ %39, %37 ], [ %29, %28 ]
  store %"class.password_manager::PasswordStoreChange"* %26, %"class.password_manager::PasswordStoreChange"** %30, align 8
  call void @_ZdlPv(i8* %41) #17
  br label %42

42:                                               ; preds = %17, %40
  %43 = getelementptr inbounds %"class.base::OnceCallback.215", %"class.base::OnceCallback.215"* %2, i64 0, i32 0, i32 0, i32 0
  %44 = load %"class.base::internal::BindStateBase"*, %"class.base::internal::BindStateBase"** %43, align 8
  %45 = icmp eq %"class.base::internal::BindStateBase"* %44, null
  br i1 %45, label %56, label %46

46:                                               ; preds = %42
  %47 = getelementptr inbounds %"class.password_manager::PasswordStore", %"class.password_manager::PasswordStore"* %0, i64 0, i32 2, i32 0
  %48 = bitcast %"class.base::SequencedTaskRunner"** %47 to %"class.base::TaskRunner"**
  %49 = load %"class.base::TaskRunner"*, %"class.base::TaskRunner"** %48, align 8
  %50 = bitcast %"class.base::Location"* %6 to i8*
  call void @llvm.lifetime.start.p0i8(i64 32, i8* nonnull %50) #16
  call void @_ZN4base8Location7CurrentEPKcS2_i(%"class.base::Location"* nonnull sret %6, i8* getelementptr inbounds ([36 x i8], [36 x i8]* @.str.43, i64 0, i64 0), i8* getelementptr inbounds ([65 x i8], [65 x i8]* @.str.2, i64 0, i64 0), i32 1089) #16
  %51 = bitcast %"class.base::OnceCallback.215"* %2 to i64*
  %52 = load i64, i64* %51, align 8
  %53 = bitcast %"class.base::OnceCallback.215"* %7 to i64*
  store i64 %52, i64* %53, align 8
  store %"class.base::internal::BindStateBase"* null, %"class.base::internal::BindStateBase"** %43, align 8
  %54 = call zeroext i1 @_ZN4base10TaskRunner8PostTaskERKNS_8LocationENS_12OnceCallbackIFvvEEE(%"class.base::TaskRunner"* %49, %"class.base::Location"* nonnull dereferenceable(32) %6, %"class.base::OnceCallback.215"* nonnull %7) #16
  %55 = getelementptr inbounds %"class.base::OnceCallback.215", %"class.base::OnceCallback.215"* %7, i64 0, i32 0
  call void @_ZN4base8internal12CallbackBaseD2Ev(%"class.base::internal::CallbackBase"* nonnull %55) #16
  call void @llvm.lifetime.end.p0i8(i64 32, i8* nonnull %50) #16
  br label %56

56:                                               ; preds = %42, %46
  %57 = icmp eq i8* %20, null
  br i1 %57, label %62, label %58

58:                                               ; preds = %56
  %59 = load i8, i8* %20, align 1
  %60 = icmp eq i8 %59, 0
  br i1 %60, label %62, label %61

61:                                               ; preds = %58
  call void @_ZN20trace_event_internal24UpdateTraceEventDurationEPKhPKcN4base11trace_event16TraceEventHandleE(i8* nonnull %20, i8* %19, i64 %18) #16
  br label %62

62:                                               ; preds = %56, %58, %61
  ret void
}

; Function Attrs: nounwind ssp uwtable
define hidden void @_ZN16password_manager13PasswordStore11UnblocklistERKNS0_10FormDigestEN4base12OnceCallbackIFvvEEE(%"class.password_manager::PasswordStore"*, %"struct.password_manager::PasswordStore::FormDigest"* dereferenceable(152), %"class.base::OnceCallback.215"* nocapture) unnamed_addr #0 align 2 {
  %4 = alloca %"class.base::Location", align 8
  %5 = alloca %"class.base::OnceCallback.215", align 8
  %6 = alloca %"class.base::OnceCallback.215", align 8
  %7 = tail call i8* @_Znwm(i64 216) #17, !noalias !79
  %8 = bitcast i8* %7 to %"class.base::internal::BindStateBase"*
  tail call void @_ZN4base8internal13BindStateBaseC2EPFvvEPFvPKS1_E(%"class.base::internal::BindStateBase"* nonnull %8, void ()* bitcast (void (%"class.base::internal::BindStateBase"*)* @_ZN4base8internal7InvokerINS0_9BindStateIMN16password_manager13PasswordStoreEFvRKNS4_10FormDigestENS_12OnceCallbackIFvvEEEEJ13scoped_refptrIS4_ES5_SA_EEES9_E7RunOnceEPNS0_13BindStateBaseE to void ()*), void (%"class.base::internal::BindStateBase"*)* nonnull @_ZN4base8internal9BindStateIMN16password_manager13PasswordStoreEFvRKNS3_10FormDigestENS_12OnceCallbackIFvvEEEEJ13scoped_refptrIS3_ES4_S9_EE7DestroyEPKNS0_13BindStateBaseE) #16, !noalias !79
  %9 = getelementptr inbounds i8, i8* %7, i64 32
  %10 = bitcast i8* %9 to <2 x i64>*
  store <2 x i64> <i64 ptrtoint (void (%"class.password_manager::PasswordStore"*, %"struct.password_manager::PasswordStore::FormDigest"*, %"class.base::OnceCallback.215"*)* @_ZN16password_manager13PasswordStore19UnblocklistInternalERKNS0_10FormDigestEN4base12OnceCallbackIFvvEEE to i64), i64 0>, <2 x i64>* %10, align 8, !noalias !79
  %11 = getelementptr inbounds i8, i8* %7, i64 48
  %12 = bitcast i8* %11 to %"class.password_manager::PasswordStore"**
  store %"class.password_manager::PasswordStore"* %0, %"class.password_manager::PasswordStore"** %12, align 8, !noalias !79
  %13 = icmp eq %"class.password_manager::PasswordStore"* %0, null
  br i1 %13, label %17, label %14

14:                                               ; preds = %3
  %15 = getelementptr inbounds %"class.password_manager::PasswordStore", %"class.password_manager::PasswordStore"* %0, i64 0, i32 1, i32 1, i32 0, i32 0, i32 0, i32 0, i32 0, i32 0, i32 0, i32 0
  %16 = atomicrmw add i32* %15, i32 1 monotonic, !noalias !79
  br label %17

17:                                               ; preds = %14, %3
  %18 = getelementptr inbounds i8, i8* %7, i64 56
  %19 = bitcast i8* %18 to i32*
  %20 = getelementptr inbounds %"struct.password_manager::PasswordStore::FormDigest", %"struct.password_manager::PasswordStore::FormDigest"* %1, i64 0, i32 0
  %21 = load i32, i32* %20, align 8, !noalias !79
  store i32 %21, i32* %19, align 8, !noalias !79
  %22 = getelementptr inbounds i8, i8* %7, i64 64
  %23 = getelementptr inbounds %"struct.password_manager::PasswordStore::FormDigest", %"struct.password_manager::PasswordStore::FormDigest"* %1, i64 0, i32 1
  %24 = bitcast %"class.std::__1::basic_string"* %23 to %"struct.std::__1::basic_string<char, std::__1::char_traits<char>, std::__1::allocator<char> >::__short"*
  %25 = getelementptr inbounds %"struct.std::__1::basic_string<char, std::__1::char_traits<char>, std::__1::allocator<char> >::__short", %"struct.std::__1::basic_string<char, std::__1::char_traits<char>, std::__1::allocator<char> >::__short"* %24, i64 0, i32 1, i32 0
  %26 = load i8, i8* %25, align 1, !noalias !79
  %27 = icmp slt i8 %26, 0
  br i1 %27, label %30, label %28

28:                                               ; preds = %17
  %29 = bitcast %"class.std::__1::basic_string"* %23 to i8*
  tail call void @llvm.memcpy.p0i8.p0i8.i64(i8* align 8 %22, i8* align 8 %29, i64 24, i1 false) #16, !noalias !79
  br label %36

30:                                               ; preds = %17
  %31 = bitcast i8* %22 to %"class.std::__1::basic_string"*
  %32 = getelementptr inbounds %"class.std::__1::basic_string", %"class.std::__1::basic_string"* %23, i64 0, i32 0, i32 0, i32 0, i32 0, i32 0, i32 0
  %33 = load i8*, i8** %32, align 8, !noalias !79
  %34 = getelementptr inbounds %"struct.password_manager::PasswordStore::FormDigest", %"struct.password_manager::PasswordStore::FormDigest"* %1, i64 0, i32 1, i32 0, i32 0, i32 0, i32 0, i32 0, i32 1
  %35 = load i64, i64* %34, align 8, !noalias !79
  tail call void @_ZNSt3__112basic_stringIcNS_11char_traitsIcEENS_9allocatorIcEEE25__init_copy_ctor_externalEPKcm(%"class.std::__1::basic_string"* %31, i8* %33, i64 %35) #16, !noalias !79
  br label %36

36:                                               ; preds = %28, %30
  %37 = getelementptr inbounds i8, i8* %7, i64 88
  %38 = bitcast i8* %37 to %class.GURL*
  %39 = getelementptr inbounds %"struct.password_manager::PasswordStore::FormDigest", %"struct.password_manager::PasswordStore::FormDigest"* %1, i64 0, i32 2
  tail call void @_ZN4GURLC1ERKS_(%class.GURL* %38, %class.GURL* dereferenceable(120) %39) #16, !noalias !79
  %40 = getelementptr inbounds i8, i8* %7, i64 208
  %41 = getelementptr inbounds %"class.base::OnceCallback.215", %"class.base::OnceCallback.215"* %2, i64 0, i32 0, i32 0, i32 0
  %42 = bitcast %"class.base::OnceCallback.215"* %2 to i64*
  %43 = load i64, i64* %42, align 8, !noalias !79
  %44 = bitcast i8* %40 to i64*
  store i64 %43, i64* %44, align 8, !noalias !79
  store %"class.base::internal::BindStateBase"* null, %"class.base::internal::BindStateBase"** %41, align 8, !noalias !79
  %45 = bitcast %"class.base::OnceCallback.215"* %6 to i8**
  store i8* %7, i8** %45, align 8, !alias.scope !79
  %46 = bitcast %"class.base::OnceCallback.215"* %5 to i8*
  call void @llvm.lifetime.start.p0i8(i64 8, i8* nonnull %46)
  %47 = getelementptr inbounds %"class.password_manager::PasswordStore", %"class.password_manager::PasswordStore"* %0, i64 0, i32 3, i32 0
  %48 = load %"class.base::SequencedTaskRunner"*, %"class.base::SequencedTaskRunner"** %47, align 8
  %49 = icmp eq %"class.base::SequencedTaskRunner"* %48, null
  %50 = bitcast %"class.base::Location"* %4 to i8*
  call void @llvm.lifetime.start.p0i8(i64 32, i8* nonnull %50) #16
  br i1 %49, label %59, label %51

51:                                               ; preds = %36
  %52 = bitcast %"class.base::SequencedTaskRunner"* %48 to %"class.base::TaskRunner"*
  call void @_ZN4base8Location7CurrentEPKcS2_i(%"class.base::Location"* nonnull sret %4, i8* getelementptr inbounds ([13 x i8], [13 x i8]* @.str.13, i64 0, i64 0), i8* getelementptr inbounds ([65 x i8], [65 x i8]* @.str.2, i64 0, i64 0), i32 507) #16
  %53 = getelementptr inbounds %"class.base::OnceCallback.215", %"class.base::OnceCallback.215"* %6, i64 0, i32 0, i32 0, i32 0
  %54 = bitcast %"class.base::OnceCallback.215"* %6 to i64*
  %55 = load i64, i64* %54, align 8
  %56 = bitcast %"class.base::OnceCallback.215"* %5 to i64*
  store i64 %55, i64* %56, align 8
  store %"class.base::internal::BindStateBase"* null, %"class.base::internal::BindStateBase"** %53, align 8
  %57 = call zeroext i1 @_ZN4base10TaskRunner8PostTaskERKNS_8LocationENS_12OnceCallbackIFvvEEE(%"class.base::TaskRunner"* nonnull %52, %"class.base::Location"* nonnull dereferenceable(32) %4, %"class.base::OnceCallback.215"* nonnull %5) #16
  %58 = getelementptr inbounds %"class.base::OnceCallback.215", %"class.base::OnceCallback.215"* %5, i64 0, i32 0
  call void @_ZN4base8internal12CallbackBaseD2Ev(%"class.base::internal::CallbackBase"* nonnull %58) #16
  br label %59

59:                                               ; preds = %36, %51
  call void @llvm.lifetime.end.p0i8(i64 32, i8* nonnull %50) #16
  call void @llvm.lifetime.end.p0i8(i64 8, i8* nonnull %46)
  %60 = getelementptr inbounds %"class.base::OnceCallback.215", %"class.base::OnceCallback.215"* %6, i64 0, i32 0
  call void @_ZN4base8internal12CallbackBaseD2Ev(%"class.base::internal::CallbackBase"* nonnull %60) #16
  ret void
}

; Function Attrs: nounwind ssp uwtable
define hidden void @_ZN16password_manager13PasswordStore19UnblocklistInternalERKNS0_10FormDigestEN4base12OnceCallbackIFvvEEE(%"class.password_manager::PasswordStore"*, %"struct.password_manager::PasswordStore::FormDigest"* dereferenceable(152), %"class.base::OnceCallback.215"* nocapture) #0 align 2 {
  %4 = alloca %"class.base::TimeTicks", align 8
  %5 = alloca %"class.std::__1::vector.331", align 8
  %6 = alloca %"class.base::Location", align 8
  %7 = alloca %"class.base::OnceCallback.215", align 8
  %8 = load i8, i8* getelementptr inbounds ([300 x %"struct.base::trace_event::TraceCategory"], [300 x %"struct.base::trace_event::TraceCategory"]* @_ZN4base11trace_event16CategoryRegistry11categories_E, i64 0, i64 94, i32 0), align 16
  %9 = and i8 %8, 25
  %10 = icmp eq i8 %9, 0
  br i1 %10, label %17, label %11, !prof !5

11:                                               ; preds = %3
  %12 = tail call i32 @_ZN4base14PlatformThread9CurrentIdEv() #16
  %13 = bitcast %"class.base::TimeTicks"* %4 to i8*
  call void @llvm.lifetime.start.p0i8(i64 8, i8* nonnull %13) #16
  %14 = getelementptr inbounds %"class.base::TimeTicks", %"class.base::TimeTicks"* %4, i64 0, i32 0, i32 0
  %15 = tail call i64 @_ZN4base6subtle28TimeTicksNowIgnoringOverrideEv() #16
  store i64 %15, i64* %14, align 8
  %16 = call i64 @_ZN20trace_event_internal37AddTraceEventWithThreadIdAndTimestampEcPKhPKcS3_yyiRKN4base9TimeTicksEPNS4_11trace_event14TraceArgumentsEj(i8 signext 88, i8* getelementptr inbounds ([300 x %"struct.base::trace_event::TraceCategory"], [300 x %"struct.base::trace_event::TraceCategory"]* @_ZN4base11trace_event16CategoryRegistry11categories_E, i64 0, i64 94, i32 0), i8* getelementptr inbounds ([35 x i8], [35 x i8]* @.str.44, i64 0, i64 0), i8* null, i64 0, i64 0, i32 %12, %"class.base::TimeTicks"* nonnull dereferenceable(8) %4, %"class.base::trace_event::TraceArguments"* null, i32 0) #16
  call void @llvm.lifetime.end.p0i8(i64 8, i8* nonnull %13) #16
  br label %17

17:                                               ; preds = %3, %11
  %18 = phi i64 [ -6148914691236517206, %3 ], [ %16, %11 ]
  %19 = phi i8* [ inttoptr (i64 -6148914691236517206 to i8*), %3 ], [ getelementptr inbounds ([35 x i8], [35 x i8]* @.str.44, i64 0, i64 0), %11 ]
  %20 = phi i8* [ null, %3 ], [ getelementptr inbounds ([300 x %"struct.base::trace_event::TraceCategory"], [300 x %"struct.base::trace_event::TraceCategory"]* @_ZN4base11trace_event16CategoryRegistry11categories_E, i64 0, i64 94, i32 0), %11 ]
  %21 = bitcast %"class.std::__1::vector.331"* %5 to i8*
  call void @llvm.lifetime.start.p0i8(i64 24, i8* nonnull %21) #16
  %22 = getelementptr inbounds %"class.std::__1::vector.331", %"class.std::__1::vector.331"* %5, i64 0, i32 0, i32 0
  %23 = getelementptr inbounds %"class.std::__1::vector.331", %"class.std::__1::vector.331"* %5, i64 0, i32 0, i32 1
  %24 = bitcast %"class.password_manager::PasswordStore"* %0 to void (%"class.std::__1::vector.331"*, %"class.password_manager::PasswordStore"*, %"struct.password_manager::PasswordStore::FormDigest"*)***
  %25 = bitcast %"class.std::__1::vector.331"* %5 to i8*
  call void @llvm.memset.p0i8.i64(i8* nonnull align 8 %25, i8 -86, i64 24, i1 false)
  %26 = load void (%"class.std::__1::vector.331"*, %"class.password_manager::PasswordStore"*, %"struct.password_manager::PasswordStore::FormDigest"*)**, void (%"class.std::__1::vector.331"*, %"class.password_manager::PasswordStore"*, %"struct.password_manager::PasswordStore::FormDigest"*)*** %24, align 8, !noalias !84
  %27 = getelementptr inbounds void (%"class.std::__1::vector.331"*, %"class.password_manager::PasswordStore"*, %"struct.password_manager::PasswordStore::FormDigest"*)*, void (%"class.std::__1::vector.331"*, %"class.password_manager::PasswordStore"*, %"struct.password_manager::PasswordStore::FormDigest"*)** %26, i64 52
  %28 = load void (%"class.std::__1::vector.331"*, %"class.password_manager::PasswordStore"*, %"struct.password_manager::PasswordStore::FormDigest"*)*, void (%"class.std::__1::vector.331"*, %"class.password_manager::PasswordStore"*, %"struct.password_manager::PasswordStore::FormDigest"*)** %27, align 8, !noalias !84
  call void %28(%"class.std::__1::vector.331"* nonnull sret %5, %"class.password_manager::PasswordStore"* %0, %"struct.password_manager::PasswordStore::FormDigest"* dereferenceable(152) %1) #16
  %29 = load %"class.std::__1::unique_ptr.333"*, %"class.std::__1::unique_ptr.333"** %22, align 8
  %30 = load %"class.std::__1::unique_ptr.333"*, %"class.std::__1::unique_ptr.333"** %23, align 8
  %31 = icmp eq %"class.std::__1::unique_ptr.333"* %29, %30
  br i1 %31, label %32, label %36

32:                                               ; preds = %48, %17
  %33 = getelementptr inbounds %"class.base::OnceCallback.215", %"class.base::OnceCallback.215"* %2, i64 0, i32 0, i32 0, i32 0
  %34 = load %"class.base::internal::BindStateBase"*, %"class.base::internal::BindStateBase"** %33, align 8
  %35 = icmp eq %"class.base::internal::BindStateBase"* %34, null
  br i1 %35, label %61, label %51

36:                                               ; preds = %17, %48
  %37 = phi %"class.std::__1::unique_ptr.333"* [ %49, %48 ], [ %29, %17 ]
  %38 = getelementptr inbounds %"class.std::__1::unique_ptr.333", %"class.std::__1::unique_ptr.333"* %37, i64 0, i32 0, i32 0, i32 0
  %39 = load %"struct.password_manager::PasswordForm"*, %"struct.password_manager::PasswordForm"** %38, align 8
  %40 = getelementptr inbounds %"struct.password_manager::PasswordForm", %"struct.password_manager::PasswordForm"* %39, i64 0, i32 28
  %41 = load i8, i8* %40, align 8, !range !87
  %42 = icmp eq i8 %41, 0
  br i1 %42, label %48, label %43

43:                                               ; preds = %36
  %44 = getelementptr inbounds %"struct.password_manager::PasswordForm", %"struct.password_manager::PasswordForm"* %39, i64 0, i32 39
  %45 = load i8, i8* %44, align 2, !range !87
  %46 = icmp eq i8 %45, 0
  br i1 %46, label %47, label %48

47:                                               ; preds = %43
  call void @_ZN16password_manager13PasswordStore19RemoveLoginInternalERKNS_12PasswordFormE(%"class.password_manager::PasswordStore"* %0, %"struct.password_manager::PasswordForm"* dereferenceable(1744) %39)
  br label %48

48:                                               ; preds = %43, %36, %47
  %49 = getelementptr inbounds %"class.std::__1::unique_ptr.333", %"class.std::__1::unique_ptr.333"* %37, i64 1
  %50 = icmp eq %"class.std::__1::unique_ptr.333"* %49, %30
  br i1 %50, label %32, label %36

51:                                               ; preds = %32
  %52 = getelementptr inbounds %"class.password_manager::PasswordStore", %"class.password_manager::PasswordStore"* %0, i64 0, i32 2, i32 0
  %53 = bitcast %"class.base::SequencedTaskRunner"** %52 to %"class.base::TaskRunner"**
  %54 = load %"class.base::TaskRunner"*, %"class.base::TaskRunner"** %53, align 8
  %55 = bitcast %"class.base::Location"* %6 to i8*
  call void @llvm.lifetime.start.p0i8(i64 32, i8* nonnull %55) #16
  call void @_ZN4base8Location7CurrentEPKcS2_i(%"class.base::Location"* nonnull sret %6, i8* getelementptr inbounds ([20 x i8], [20 x i8]* @.str.45, i64 0, i64 0), i8* getelementptr inbounds ([65 x i8], [65 x i8]* @.str.2, i64 0, i64 0), i32 1106) #16
  %56 = bitcast %"class.base::OnceCallback.215"* %2 to i64*
  %57 = load i64, i64* %56, align 8
  %58 = bitcast %"class.base::OnceCallback.215"* %7 to i64*
  store i64 %57, i64* %58, align 8
  store %"class.base::internal::BindStateBase"* null, %"class.base::internal::BindStateBase"** %33, align 8
  %59 = call zeroext i1 @_ZN4base10TaskRunner8PostTaskERKNS_8LocationENS_12OnceCallbackIFvvEEE(%"class.base::TaskRunner"* %54, %"class.base::Location"* nonnull dereferenceable(32) %6, %"class.base::OnceCallback.215"* nonnull %7) #16
  %60 = getelementptr inbounds %"class.base::OnceCallback.215", %"class.base::OnceCallback.215"* %7, i64 0, i32 0
  call void @_ZN4base8internal12CallbackBaseD2Ev(%"class.base::internal::CallbackBase"* nonnull %60) #16
  call void @llvm.lifetime.end.p0i8(i64 32, i8* nonnull %55) #16
  br label %61

61:                                               ; preds = %32, %51
  %62 = load %"class.std::__1::unique_ptr.333"*, %"class.std::__1::unique_ptr.333"** %22, align 8
  %63 = icmp eq %"class.std::__1::unique_ptr.333"* %62, null
  br i1 %63, label %83, label %64

64:                                               ; preds = %61
  %65 = bitcast %"class.std::__1::unique_ptr.333"* %62 to i8*
  %66 = load %"class.std::__1::unique_ptr.333"*, %"class.std::__1::unique_ptr.333"** %23, align 8
  %67 = icmp eq %"class.std::__1::unique_ptr.333"* %66, %62
  br i1 %67, label %81, label %68

68:                                               ; preds = %64, %76
  %69 = phi %"class.std::__1::unique_ptr.333"* [ %70, %76 ], [ %66, %64 ]
  %70 = getelementptr inbounds %"class.std::__1::unique_ptr.333", %"class.std::__1::unique_ptr.333"* %69, i64 -1
  %71 = getelementptr inbounds %"class.std::__1::unique_ptr.333", %"class.std::__1::unique_ptr.333"* %70, i64 0, i32 0, i32 0, i32 0
  %72 = load %"struct.password_manager::PasswordForm"*, %"struct.password_manager::PasswordForm"** %71, align 8
  store %"struct.password_manager::PasswordForm"* null, %"struct.password_manager::PasswordForm"** %71, align 8
  %73 = icmp eq %"struct.password_manager::PasswordForm"* %72, null
  br i1 %73, label %76, label %74

74:                                               ; preds = %68
  call void @_ZN16password_manager12PasswordFormD1Ev(%"struct.password_manager::PasswordForm"* nonnull %72) #16
  %75 = bitcast %"struct.password_manager::PasswordForm"* %72 to i8*
  call void @_ZdlPv(i8* %75) #17
  br label %76

76:                                               ; preds = %74, %68
  %77 = icmp eq %"class.std::__1::unique_ptr.333"* %70, %62
  br i1 %77, label %78, label %68

78:                                               ; preds = %76
  %79 = bitcast %"class.std::__1::vector.331"* %5 to i8**
  %80 = load i8*, i8** %79, align 8
  br label %81

81:                                               ; preds = %78, %64
  %82 = phi i8* [ %80, %78 ], [ %65, %64 ]
  store %"class.std::__1::unique_ptr.333"* %62, %"class.std::__1::unique_ptr.333"** %23, align 8
  call void @_ZdlPv(i8* %82) #17
  br label %83

83:                                               ; preds = %61, %81
  call void @llvm.lifetime.end.p0i8(i64 24, i8* nonnull %21) #16
  %84 = icmp eq i8* %20, null
  br i1 %84, label %89, label %85

85:                                               ; preds = %83
  %86 = load i8, i8* %20, align 1
  %87 = icmp eq i8 %86, 0
  br i1 %87, label %89, label %88

88:                                               ; preds = %85
  call void @_ZN20trace_event_internal24UpdateTraceEventDurationEPKhPKcN4base11trace_event16TraceEventHandleE(i8* nonnull %20, i8* %19, i64 %18) #16
  br label %89

89:                                               ; preds = %83, %85, %88
  ret void
}

; Function Attrs: nounwind ssp uwtable
define hidden void @_ZN16password_manager13PasswordStore9GetLoginsERKNS0_10FormDigestEPNS_21PasswordStoreConsumerE(%"class.password_manager::PasswordStore"*, %"struct.password_manager::PasswordStore::FormDigest"* dereferenceable(152), %"class.password_manager::PasswordStoreConsumer"*) unnamed_addr #0 align 2 {
  %4 = alloca %"class.base::internal::WeakReference", align 8
  %5 = alloca %"class.base::TimeTicks", align 8
  %6 = alloca %"class.base::Time", align 8
  %7 = alloca %"class.base::Time", align 8
  %8 = alloca %"class.base::OnceCallback.320", align 8
  %9 = alloca <2 x i64>, align 16
  %10 = bitcast <2 x i64>* %9 to { i64, i64 }*
  %11 = alloca %"class.password_manager::PasswordStore"*, align 8
  %12 = alloca %"class.base::WeakPtr.321", align 8
  %13 = alloca %"class.base::OnceCallback.329", align 8
  %14 = alloca %"class.base::OnceCallback.330", align 8
  %15 = load i8, i8* getelementptr inbounds ([300 x %"struct.base::trace_event::TraceCategory"], [300 x %"struct.base::trace_event::TraceCategory"]* @_ZN4base11trace_event16CategoryRegistry11categories_E, i64 0, i64 94, i32 0), align 16
  %16 = and i8 %15, 25
  %17 = icmp eq i8 %16, 0
  br i1 %17, label %25, label %18, !prof !5

18:                                               ; preds = %3
  %19 = ptrtoint %"class.password_manager::PasswordStoreConsumer"* %2 to i64
  %20 = tail call i32 @_ZN4base14PlatformThread9CurrentIdEv() #16
  %21 = bitcast %"class.base::TimeTicks"* %5 to i8*
  call void @llvm.lifetime.start.p0i8(i64 8, i8* nonnull %21) #16
  %22 = getelementptr inbounds %"class.base::TimeTicks", %"class.base::TimeTicks"* %5, i64 0, i32 0, i32 0
  %23 = tail call i64 @_ZN4base6subtle28TimeTicksNowIgnoringOverrideEv() #16
  store i64 %23, i64* %22, align 8
  %24 = call i64 @_ZN20trace_event_internal37AddTraceEventWithThreadIdAndTimestampEcPKhPKcS3_yyiRKN4base9TimeTicksEPNS4_11trace_event14TraceArgumentsEj(i8 signext 98, i8* getelementptr inbounds ([300 x %"struct.base::trace_event::TraceCategory"], [300 x %"struct.base::trace_event::TraceCategory"]* @_ZN4base11trace_event16CategoryRegistry11categories_E, i64 0, i64 94, i32 0), i8* getelementptr inbounds ([25 x i8], [25 x i8]* @.str.5, i64 0, i64 0), i8* null, i64 %19, i64 0, i32 %20, %"class.base::TimeTicks"* nonnull dereferenceable(8) %5, %"class.base::trace_event::TraceArguments"* null, i32 2048) #16
  call void @llvm.lifetime.end.p0i8(i64 8, i8* nonnull %21) #16
  br label %25

25:                                               ; preds = %3, %18
  %26 = bitcast %"class.base::Time"* %6 to i8*
  call void @llvm.lifetime.start.p0i8(i64 8, i8* nonnull %26) #16
  %27 = getelementptr inbounds %"class.base::Time", %"class.base::Time"* %6, i64 0, i32 0, i32 0
  store i64 0, i64* %27, align 8
  %28 = getelementptr inbounds %"struct.password_manager::PasswordStore::FormDigest", %"struct.password_manager::PasswordStore::FormDigest"* %1, i64 0, i32 0
  %29 = load i32, i32* %28, align 8
  %30 = icmp eq i32 %29, 0
  br i1 %30, label %31, label %92

31:                                               ; preds = %25
  %32 = getelementptr inbounds %"struct.password_manager::PasswordStore::FormDigest", %"struct.password_manager::PasswordStore::FormDigest"* %1, i64 0, i32 1
  %33 = bitcast %"class.std::__1::basic_string"* %32 to %"struct.std::__1::basic_string<char, std::__1::char_traits<char>, std::__1::allocator<char> >::__short"*
  %34 = getelementptr inbounds %"struct.std::__1::basic_string<char, std::__1::char_traits<char>, std::__1::allocator<char> >::__short", %"struct.std::__1::basic_string<char, std::__1::char_traits<char>, std::__1::allocator<char> >::__short"* %33, i64 0, i32 1, i32 0
  %35 = load i8, i8* %34, align 1
  %36 = icmp slt i8 %35, 0
  %37 = getelementptr inbounds %"struct.password_manager::PasswordStore::FormDigest", %"struct.password_manager::PasswordStore::FormDigest"* %1, i64 0, i32 1, i32 0, i32 0, i32 0, i32 0, i32 0, i32 1
  %38 = load i64, i64* %37, align 8
  %39 = zext i8 %35 to i64
  %40 = select i1 %36, i64 %38, i64 %39
  %41 = icmp eq i64 %40, 21
  br i1 %41, label %42, label %49

42:                                               ; preds = %31
  %43 = call i32 @_ZNKSt3__112basic_stringIcNS_11char_traitsIcEENS_9allocatorIcEEE7compareEmmPKcm(%"class.std::__1::basic_string"* %32, i64 0, i64 -1, i8* getelementptr inbounds ([22 x i8], [22 x i8]* @.str.6, i64 0, i64 0), i64 21) #16
  %44 = icmp eq i32 %43, 0
  br i1 %44, label %87, label %45

45:                                               ; preds = %42
  %46 = load i8, i8* %34, align 1
  %47 = load i64, i64* %37, align 8
  %48 = zext i8 %46 to i64
  br label %49

49:                                               ; preds = %45, %31
  %50 = phi i64 [ %48, %45 ], [ %39, %31 ]
  %51 = phi i64 [ %47, %45 ], [ %38, %31 ]
  %52 = phi i8 [ %46, %45 ], [ %35, %31 ]
  %53 = icmp slt i8 %52, 0
  %54 = select i1 %53, i64 %51, i64 %50
  %55 = icmp eq i64 %54, 22
  br i1 %55, label %56, label %63

56:                                               ; preds = %49
  %57 = call i32 @_ZNKSt3__112basic_stringIcNS_11char_traitsIcEENS_9allocatorIcEEE7compareEmmPKcm(%"class.std::__1::basic_string"* %32, i64 0, i64 -1, i8* getelementptr inbounds ([23 x i8], [23 x i8]* @.str.7, i64 0, i64 0), i64 22) #16
  %58 = icmp eq i32 %57, 0
  br i1 %58, label %87, label %59

59:                                               ; preds = %56
  %60 = load i8, i8* %34, align 1
  %61 = load i64, i64* %37, align 8
  %62 = zext i8 %60 to i64
  br label %63

63:                                               ; preds = %59, %49
  %64 = phi i64 [ %62, %59 ], [ %50, %49 ]
  %65 = phi i64 [ %61, %59 ], [ %51, %49 ]
  %66 = phi i8 [ %60, %59 ], [ %52, %49 ]
  %67 = icmp slt i8 %66, 0
  %68 = select i1 %67, i64 %65, i64 %64
  %69 = icmp eq i64 %68, 22
  br i1 %69, label %70, label %77

70:                                               ; preds = %63
  %71 = call i32 @_ZNKSt3__112basic_stringIcNS_11char_traitsIcEENS_9allocatorIcEEE7compareEmmPKcm(%"class.std::__1::basic_string"* %32, i64 0, i64 -1, i8* getelementptr inbounds ([23 x i8], [23 x i8]* @.str.8, i64 0, i64 0), i64 22) #16
  %72 = icmp eq i32 %71, 0
  br i1 %72, label %87, label %73

73:                                               ; preds = %70
  %74 = load i8, i8* %34, align 1
  %75 = load i64, i64* %37, align 8
  %76 = zext i8 %74 to i64
  br label %77

77:                                               ; preds = %73, %63
  %78 = phi i64 [ %76, %73 ], [ %64, %63 ]
  %79 = phi i64 [ %75, %73 ], [ %65, %63 ]
  %80 = phi i8 [ %74, %73 ], [ %66, %63 ]
  %81 = icmp slt i8 %80, 0
  %82 = select i1 %81, i64 %79, i64 %78
  %83 = icmp eq i64 %82, 23
  br i1 %83, label %84, label %92

84:                                               ; preds = %77
  %85 = call i32 @_ZNKSt3__112basic_stringIcNS_11char_traitsIcEENS_9allocatorIcEEE7compareEmmPKcm(%"class.std::__1::basic_string"* %32, i64 0, i64 -1, i8* getelementptr inbounds ([24 x i8], [24 x i8]* @.str.9, i64 0, i64 0), i64 23) #16
  %86 = icmp eq i32 %85, 0
  br i1 %86, label %87, label %92

87:                                               ; preds = %84, %70, %56, %42
  %88 = bitcast %"class.base::Time"* %7 to i8*
  call void @llvm.lifetime.start.p0i8(i64 8, i8* nonnull %88) #16
  %89 = getelementptr inbounds %"class.base::Time", %"class.base::Time"* %7, i64 0, i32 0, i32 0
  store i64 0, i64* %89, align 8
  %90 = call zeroext i1 @_ZN4base4Time12FromExplodedEbRKNS0_8ExplodedEPS0_(i1 zeroext false, %"struct.base::Time::Exploded"* nonnull dereferenceable(32) @_ZZN16password_manager13PasswordStore9GetLoginsERKNS0_10FormDigestEPNS_21PasswordStoreConsumerEE15exploded_cutoff, %"class.base::Time"* nonnull %7) #16
  %91 = load i64, i64* %89, align 8
  store i64 %91, i64* %27, align 8
  call void @llvm.lifetime.end.p0i8(i64 8, i8* nonnull %88) #16
  br label %92

92:                                               ; preds = %77, %87, %84, %25
  %93 = getelementptr inbounds %"class.password_manager::PasswordStore", %"class.password_manager::PasswordStore"* %0, i64 0, i32 8, i32 0, i32 0, i32 0
  %94 = load %"class.password_manager::AffiliatedMatchHelper"*, %"class.password_manager::AffiliatedMatchHelper"** %93, align 8
  %95 = icmp eq %"class.password_manager::AffiliatedMatchHelper"* %94, null
  br i1 %95, label %113, label %96

96:                                               ; preds = %92
  %97 = bitcast <2 x i64>* %9 to i8*
  call void @llvm.lifetime.start.p0i8(i64 16, i8* nonnull %97) #16
  store <2 x i64> <i64 ptrtoint (void (%"class.password_manager::PasswordStore"*, %"class.base::WeakPtr.321"*, %"struct.password_manager::PasswordStore::FormDigest"*, i64, %"class.std::__1::vector.322"*)* @_ZN16password_manager13PasswordStore41ScheduleGetFilteredLoginsWithAffiliationsEN4base7WeakPtrINS_21PasswordStoreConsumerEEERKNS0_10FormDigestENS1_4TimeERKNSt3__16vectorINS9_12basic_stringIcNS9_11char_traitsIcEENS9_9allocatorIcEEEENSE_ISG_EEEE to i64), i64 0>, <2 x i64>* %9, align 16
  %98 = bitcast %"class.password_manager::PasswordStore"** %11 to i8*
  call void @llvm.lifetime.start.p0i8(i64 8, i8* nonnull %98) #16
  store %"class.password_manager::PasswordStore"* %0, %"class.password_manager::PasswordStore"** %11, align 8
  %99 = bitcast %"class.base::WeakPtr.321"* %12 to i8*
  call void @llvm.lifetime.start.p0i8(i64 16, i8* nonnull %99) #16
  %100 = bitcast %"class.base::internal::WeakReference"* %4 to i8*
  call void @llvm.lifetime.start.p0i8(i64 8, i8* nonnull %100) #16, !noalias !88
  %101 = getelementptr inbounds %"class.password_manager::PasswordStoreConsumer", %"class.password_manager::PasswordStoreConsumer"* %2, i64 0, i32 2, i32 0, i32 0
  call void @_ZNK4base8internal18WeakReferenceOwner6GetRefEv(%"class.base::internal::WeakReference"* nonnull sret %4, %"class.base::internal::WeakReferenceOwner"* %101) #16, !noalias !88
  %102 = getelementptr inbounds %"class.password_manager::PasswordStoreConsumer", %"class.password_manager::PasswordStoreConsumer"* %2, i64 0, i32 2, i32 0, i32 1
  %103 = load i64, i64* %102, align 8, !noalias !88
  %104 = getelementptr inbounds %"class.base::WeakPtr.321", %"class.base::WeakPtr.321"* %12, i64 0, i32 0
  call void @_ZN4base8internal11WeakPtrBaseC2ERKNS0_13WeakReferenceEm(%"class.base::internal::WeakPtrBase"* nonnull %104, %"class.base::internal::WeakReference"* nonnull dereferenceable(8) %4, i64 %103) #16
  call void @_ZN4base8internal13WeakReferenceD1Ev(%"class.base::internal::WeakReference"* nonnull %4) #16
  call void @llvm.lifetime.end.p0i8(i64 8, i8* nonnull %100) #16, !noalias !88
  %105 = call %"struct.base::internal::BindState.587"* @_ZN4base8internal9BindStateIMN16password_manager13PasswordStoreEFvNS_7WeakPtrINS2_21PasswordStoreConsumerEEERKNS3_10FormDigestENS_4TimeERKNSt3__16vectorINSB_12basic_stringIcNSB_11char_traitsIcEENSB_9allocatorIcEEEENSG_ISI_EEEEEJ13scoped_refptrIS3_ES6_S7_SA_EE6CreateISO_JPS3_S6_S9_RSA_EEEPSR_PFvvEOT_DpOT0_(void ()* bitcast (void (%"class.base::internal::BindStateBase"*, %"class.std::__1::vector.322"*)* @_ZN4base8internal7InvokerINS0_9BindStateIMN16password_manager13PasswordStoreEFvNS_7WeakPtrINS3_21PasswordStoreConsumerEEERKNS4_10FormDigestENS_4TimeERKNSt3__16vectorINSC_12basic_stringIcNSC_11char_traitsIcEENSC_9allocatorIcEEEENSH_ISJ_EEEEEJ13scoped_refptrIS4_ES7_S8_SB_EEEFvSN_EE7RunOnceEPNS0_13BindStateBaseESN_ to void ()*), { i64, i64 }* nonnull dereferenceable(16) %10, %"class.password_manager::PasswordStore"** nonnull dereferenceable(8) %11, %"class.base::WeakPtr.321"* nonnull dereferenceable(16) %12, %"struct.password_manager::PasswordStore::FormDigest"* dereferenceable(152) %1, %"class.base::Time"* nonnull dereferenceable(8) %6) #16, !noalias !93
  %106 = getelementptr inbounds %"struct.base::internal::BindState.587", %"struct.base::internal::BindState.587"* %105, i64 0, i32 0
  %107 = getelementptr inbounds %"class.base::OnceCallback.320", %"class.base::OnceCallback.320"* %8, i64 0, i32 0, i32 0, i32 0
  store %"class.base::internal::BindStateBase"* %106, %"class.base::internal::BindStateBase"** %107, align 8, !alias.scope !93
  %108 = bitcast %"class.password_manager::AffiliatedMatchHelper"* %94 to void (%"class.password_manager::AffiliatedMatchHelper"*, %"struct.password_manager::PasswordStore::FormDigest"*, %"class.base::OnceCallback.320"*)***
  %109 = load void (%"class.password_manager::AffiliatedMatchHelper"*, %"struct.password_manager::PasswordStore::FormDigest"*, %"class.base::OnceCallback.320"*)**, void (%"class.password_manager::AffiliatedMatchHelper"*, %"struct.password_manager::PasswordStore::FormDigest"*, %"class.base::OnceCallback.320"*)*** %108, align 8
  %110 = getelementptr inbounds void (%"class.password_manager::AffiliatedMatchHelper"*, %"struct.password_manager::PasswordStore::FormDigest"*, %"class.base::OnceCallback.320"*)*, void (%"class.password_manager::AffiliatedMatchHelper"*, %"struct.password_manager::PasswordStore::FormDigest"*, %"class.base::OnceCallback.320"*)** %109, i64 4
  %111 = load void (%"class.password_manager::AffiliatedMatchHelper"*, %"struct.password_manager::PasswordStore::FormDigest"*, %"class.base::OnceCallback.320"*)*, void (%"class.password_manager::AffiliatedMatchHelper"*, %"struct.password_manager::PasswordStore::FormDigest"*, %"class.base::OnceCallback.320"*)** %110, align 8
  call void %111(%"class.password_manager::AffiliatedMatchHelper"* nonnull %94, %"struct.password_manager::PasswordStore::FormDigest"* dereferenceable(152) %1, %"class.base::OnceCallback.320"* nonnull %8) #16
  %112 = getelementptr inbounds %"class.base::OnceCallback.320", %"class.base::OnceCallback.320"* %8, i64 0, i32 0
  call void @_ZN4base8internal12CallbackBaseD2Ev(%"class.base::internal::CallbackBase"* nonnull %112) #16
  call void @_ZN4base8internal11WeakPtrBaseD2Ev(%"class.base::internal::WeakPtrBase"* nonnull %104) #16
  call void @llvm.lifetime.end.p0i8(i64 16, i8* nonnull %99) #16
  call void @llvm.lifetime.end.p0i8(i64 8, i8* nonnull %98) #16
  call void @llvm.lifetime.end.p0i8(i64 16, i8* nonnull %97) #16
  br label %157

113:                                              ; preds = %92
  %114 = call i8* @_Znwm(i64 208) #17, !noalias !98
  %115 = bitcast i8* %114 to %"class.base::internal::BindStateBase"*
  call void @_ZN4base8internal13BindStateBaseC2EPFvvEPFvPKS1_E(%"class.base::internal::BindStateBase"* nonnull %115, void ()* bitcast (void (%"class.std::__1::vector.331"*, %"class.base::internal::BindStateBase"*)* @_ZN4base8internal7InvokerINS0_9BindStateIMN16password_manager13PasswordStoreEFNSt3__16vectorINS5_10unique_ptrINS3_12PasswordFormENS5_14default_deleteIS8_EEEENS5_9allocatorISB_EEEERKNS4_10FormDigestEEJ13scoped_refptrIS4_ESF_EEEFSE_vEE7RunOnceEPNS0_13BindStateBaseE to void ()*), void (%"class.base::internal::BindStateBase"*)* nonnull @_ZN4base8internal9BindStateIMN16password_manager13PasswordStoreEFNSt3__16vectorINS4_10unique_ptrINS2_12PasswordFormENS4_14default_deleteIS7_EEEENS4_9allocatorISA_EEEERKNS3_10FormDigestEEJ13scoped_refptrIS3_ESE_EE7DestroyEPKNS0_13BindStateBaseE) #16, !noalias !98
  %116 = getelementptr inbounds i8, i8* %114, i64 32
  %117 = bitcast i8* %116 to <2 x i64>*
  store <2 x i64> <i64 ptrtoint (void (%"class.std::__1::vector.331"*, %"class.password_manager::PasswordStore"*, %"struct.password_manager::PasswordStore::FormDigest"*)* @_ZN16password_manager13PasswordStore13GetLoginsImplERKNS0_10FormDigestE to i64), i64 0>, <2 x i64>* %117, align 8, !noalias !98
  %118 = getelementptr inbounds i8, i8* %114, i64 48
  %119 = bitcast i8* %118 to %"class.password_manager::PasswordStore"**
  store %"class.password_manager::PasswordStore"* %0, %"class.password_manager::PasswordStore"** %119, align 8, !noalias !98
  %120 = icmp eq %"class.password_manager::PasswordStore"* %0, null
  br i1 %120, label %124, label %121

121:                                              ; preds = %113
  %122 = getelementptr inbounds %"class.password_manager::PasswordStore", %"class.password_manager::PasswordStore"* %0, i64 0, i32 1, i32 1, i32 0, i32 0, i32 0, i32 0, i32 0, i32 0, i32 0, i32 0
  %123 = atomicrmw add i32* %122, i32 1 monotonic, !noalias !98
  br label %124

124:                                              ; preds = %121, %113
  %125 = getelementptr inbounds i8, i8* %114, i64 56
  %126 = bitcast i8* %125 to i32*
  %127 = load i32, i32* %28, align 8, !noalias !98
  store i32 %127, i32* %126, align 8, !noalias !98
  %128 = getelementptr inbounds i8, i8* %114, i64 64
  %129 = getelementptr inbounds %"struct.password_manager::PasswordStore::FormDigest", %"struct.password_manager::PasswordStore::FormDigest"* %1, i64 0, i32 1
  %130 = bitcast %"class.std::__1::basic_string"* %129 to %"struct.std::__1::basic_string<char, std::__1::char_traits<char>, std::__1::allocator<char> >::__short"*
  %131 = getelementptr inbounds %"struct.std::__1::basic_string<char, std::__1::char_traits<char>, std::__1::allocator<char> >::__short", %"struct.std::__1::basic_string<char, std::__1::char_traits<char>, std::__1::allocator<char> >::__short"* %130, i64 0, i32 1, i32 0
  %132 = load i8, i8* %131, align 1, !noalias !98
  %133 = icmp slt i8 %132, 0
  br i1 %133, label %136, label %134

134:                                              ; preds = %124
  %135 = bitcast %"class.std::__1::basic_string"* %129 to i8*
  call void @llvm.memcpy.p0i8.p0i8.i64(i8* align 8 %128, i8* align 8 %135, i64 24, i1 false) #16, !noalias !98
  br label %142

136:                                              ; preds = %124
  %137 = bitcast i8* %128 to %"class.std::__1::basic_string"*
  %138 = getelementptr inbounds %"class.std::__1::basic_string", %"class.std::__1::basic_string"* %129, i64 0, i32 0, i32 0, i32 0, i32 0, i32 0, i32 0
  %139 = load i8*, i8** %138, align 8, !noalias !98
  %140 = getelementptr inbounds %"struct.password_manager::PasswordStore::FormDigest", %"struct.password_manager::PasswordStore::FormDigest"* %1, i64 0, i32 1, i32 0, i32 0, i32 0, i32 0, i32 0, i32 1
  %141 = load i64, i64* %140, align 8, !noalias !98
  call void @_ZNSt3__112basic_stringIcNS_11char_traitsIcEENS_9allocatorIcEEE25__init_copy_ctor_externalEPKcm(%"class.std::__1::basic_string"* %137, i8* %139, i64 %141) #16, !noalias !98
  br label %142

142:                                              ; preds = %134, %136
  %143 = getelementptr inbounds i8, i8* %114, i64 88
  %144 = bitcast i8* %143 to %class.GURL*
  %145 = getelementptr inbounds %"struct.password_manager::PasswordStore::FormDigest", %"struct.password_manager::PasswordStore::FormDigest"* %1, i64 0, i32 2
  call void @_ZN4GURLC1ERKS_(%class.GURL* %144, %class.GURL* dereferenceable(120) %145) #16, !noalias !98
  %146 = bitcast %"class.base::OnceCallback.329"* %13 to i8**
  store i8* %114, i8** %146, align 8, !alias.scope !98
  %147 = call i8* @_Znwm(i64 48) #17, !noalias !103
  %148 = bitcast i8* %147 to %"class.base::internal::BindStateBase"*
  call void @_ZN4base8internal13BindStateBaseC2EPFvvEPFvPKS1_E(%"class.base::internal::BindStateBase"* nonnull %148, void ()* bitcast (void (%"class.base::internal::BindStateBase"*, %"class.base::OnceCallback.344"*, %"class.std::__1::vector.331"*)* @_ZN4base8internal7InvokerINS0_9BindStateIPFvNS_4TimeENS_12OnceCallbackIFvNSt3__16vectorINS5_10unique_ptrIN16password_manager12PasswordFormENS5_14default_deleteIS9_EEEENS5_9allocatorISC_EEEEEEESF_EJS3_EEEFvSH_SF_EE7RunOnceEPNS0_13BindStateBaseEOSH_OSF_ to void ()*), void (%"class.base::internal::BindStateBase"*)* nonnull @_ZN4base8internal9BindStateIPFvNS_4TimeENS_12OnceCallbackIFvNSt3__16vectorINS4_10unique_ptrIN16password_manager12PasswordFormENS4_14default_deleteIS8_EEEENS4_9allocatorISB_EEEEEEESE_EJS2_EE7DestroyEPKNS0_13BindStateBaseE) #16, !noalias !103
  %149 = getelementptr inbounds i8, i8* %147, i64 32
  %150 = bitcast i8* %149 to void (i64, %"class.base::OnceCallback.344"*, %"class.std::__1::vector.331"*)**
  store void (i64, %"class.base::OnceCallback.344"*, %"class.std::__1::vector.331"*)* @_ZN16password_manager12_GLOBAL__N_112FilterLoginsEN4base4TimeENS1_12OnceCallbackIFvNSt3__16vectorINS4_10unique_ptrINS_12PasswordFormENS4_14default_deleteIS7_EEEENS4_9allocatorISA_EEEEEEESD_, void (i64, %"class.base::OnceCallback.344"*, %"class.std::__1::vector.331"*)** %150, align 8, !noalias !103
  %151 = getelementptr inbounds i8, i8* %147, i64 40
  %152 = bitcast i8* %151 to i64*
  %153 = load i64, i64* %27, align 8, !noalias !103
  store i64 %153, i64* %152, align 8, !noalias !103
  %154 = bitcast %"class.base::OnceCallback.330"* %14 to i8**
  store i8* %147, i8** %154, align 8, !alias.scope !103
  call void @_ZN16password_manager13PasswordStore51PostLoginsTaskAndReplyToConsumerWithProcessedResultEPKcPNS_21PasswordStoreConsumerEN4base12OnceCallbackIFNSt3__16vectorINS7_10unique_ptrINS_12PasswordFormENS7_14default_deleteISA_EEEENS7_9allocatorISD_EEEEvEEENS6_IFvNS6_IFvSG_EEESG_EEE(%"class.password_manager::PasswordStore"* %0, i8* getelementptr inbounds ([25 x i8], [25 x i8]* @.str.5, i64 0, i64 0), %"class.password_manager::PasswordStoreConsumer"* %2, %"class.base::OnceCallback.329"* nonnull %13, %"class.base::OnceCallback.330"* nonnull %14)
  %155 = getelementptr inbounds %"class.base::OnceCallback.330", %"class.base::OnceCallback.330"* %14, i64 0, i32 0
  call void @_ZN4base8internal12CallbackBaseD2Ev(%"class.base::internal::CallbackBase"* nonnull %155) #16
  %156 = getelementptr inbounds %"class.base::OnceCallback.329", %"class.base::OnceCallback.329"* %13, i64 0, i32 0
  call void @_ZN4base8internal12CallbackBaseD2Ev(%"class.base::internal::CallbackBase"* nonnull %156) #16
  br label %157

157:                                              ; preds = %142, %96
  call void @llvm.lifetime.end.p0i8(i64 8, i8* nonnull %26) #16
  ret void
}

; Function Attrs: argmemonly nounwind
declare void @llvm.memcpy.p0i8.p0i8.i64(i8* nocapture writeonly, i8* nocapture readonly, i64, i1 immarg) #2

; Function Attrs: nounwind ssp uwtable
define hidden void @_ZN16password_manager13PasswordStore41ScheduleGetFilteredLoginsWithAffiliationsEN4base7WeakPtrINS_21PasswordStoreConsumerEEERKNS0_10FormDigestENS1_4TimeERKNSt3__16vectorINS9_12basic_stringIcNS9_11char_traitsIcEENS9_9allocatorIcEEEENSE_ISG_EEEE(%"class.password_manager::PasswordStore"*, %"class.base::WeakPtr.321"*, %"struct.password_manager::PasswordStore::FormDigest"* dereferenceable(152), i64, %"class.std::__1::vector.322"* dereferenceable(24)) #0 align 2 {
  %6 = alloca %"class.base::OnceCallback.329", align 8
  %7 = alloca <2 x i64>, align 16
  %8 = bitcast <2 x i64>* %7 to { i64, i64 }*
  %9 = alloca %"class.password_manager::PasswordStore"*, align 8
  %10 = alloca %"class.base::OnceCallback.330", align 8
  %11 = getelementptr inbounds %"class.base::WeakPtr.321", %"class.base::WeakPtr.321"* %1, i64 0, i32 0, i32 0
  %12 = tail call zeroext i1 @_ZNK4base8internal13WeakReference7IsValidEv(%"class.base::internal::WeakReference"* %11) #16
  br i1 %12, label %13, label %38

13:                                               ; preds = %5
  %14 = getelementptr inbounds %"class.base::WeakPtr.321", %"class.base::WeakPtr.321"* %1, i64 0, i32 0, i32 1
  %15 = bitcast i64* %14 to %"class.password_manager::PasswordStoreConsumer"**
  %16 = load %"class.password_manager::PasswordStoreConsumer"*, %"class.password_manager::PasswordStoreConsumer"** %15, align 8
  %17 = icmp eq %"class.password_manager::PasswordStoreConsumer"* %16, null
  br i1 %17, label %38, label %18

18:                                               ; preds = %13
  %19 = tail call zeroext i1 @_ZNK4base8internal13WeakReference7IsValidEv(%"class.base::internal::WeakReference"* %11) #16
  br i1 %19, label %20, label %22

20:                                               ; preds = %18
  %21 = load %"class.password_manager::PasswordStoreConsumer"*, %"class.password_manager::PasswordStoreConsumer"** %15, align 8
  br label %22

22:                                               ; preds = %18, %20
  %23 = phi %"class.password_manager::PasswordStoreConsumer"* [ %21, %20 ], [ null, %18 ]
  %24 = bitcast <2 x i64>* %7 to i8*
  call void @llvm.lifetime.start.p0i8(i64 16, i8* nonnull %24) #16
  store <2 x i64> <i64 ptrtoint (void (%"class.std::__1::vector.331"*, %"class.password_manager::PasswordStore"*, %"struct.password_manager::PasswordStore::FormDigest"*, %"class.std::__1::vector.322"*)* @_ZN16password_manager13PasswordStore29GetLoginsWithAffiliationsImplERKNS0_10FormDigestERKNSt3__16vectorINS4_12basic_stringIcNS4_11char_traitsIcEENS4_9allocatorIcEEEENS9_ISB_EEEE to i64), i64 0>, <2 x i64>* %7, align 16
  %25 = bitcast %"class.password_manager::PasswordStore"** %9 to i8*
  call void @llvm.lifetime.start.p0i8(i64 8, i8* nonnull %25) #16
  store %"class.password_manager::PasswordStore"* %0, %"class.password_manager::PasswordStore"** %9, align 8
  %26 = tail call i8* @_Znwm(i64 232) #17, !noalias !108
  %27 = bitcast i8* %26 to %"struct.base::internal::BindState.943"*
  call void @_ZN4base8internal9BindStateIMN16password_manager13PasswordStoreEFNSt3__16vectorINS4_10unique_ptrINS2_12PasswordFormENS4_14default_deleteIS7_EEEENS4_9allocatorISA_EEEERKNS3_10FormDigestERKNS5_INS4_12basic_stringIcNS4_11char_traitsIcEENSB_IcEEEENSB_ISL_EEEEEJ13scoped_refptrIS3_ESE_SN_EEC2ISR_JPS3_SG_SP_EEENS4_17integral_constantIbLb0EEEPFvvEOT_DpOT0_(%"struct.base::internal::BindState.943"* nonnull %27, void ()* bitcast (void (%"class.std::__1::vector.331"*, %"class.base::internal::BindStateBase"*)* @_ZN4base8internal7InvokerINS0_9BindStateIMN16password_manager13PasswordStoreEFNSt3__16vectorINS5_10unique_ptrINS3_12PasswordFormENS5_14default_deleteIS8_EEEENS5_9allocatorISB_EEEERKNS4_10FormDigestERKNS6_INS5_12basic_stringIcNS5_11char_traitsIcEENSC_IcEEEENSC_ISM_EEEEEJ13scoped_refptrIS4_ESF_SO_EEEFSE_vEE7RunOnceEPNS0_13BindStateBaseE to void ()*), { i64, i64 }* nonnull dereferenceable(16) %8, %"class.password_manager::PasswordStore"** nonnull dereferenceable(8) %9, %"struct.password_manager::PasswordStore::FormDigest"* dereferenceable(152) %2, %"class.std::__1::vector.322"* dereferenceable(24) %4) #16, !noalias !108
  %28 = bitcast %"class.base::OnceCallback.329"* %6 to i8**
  store i8* %26, i8** %28, align 8, !alias.scope !108
  %29 = call i8* @_Znwm(i64 48) #17, !noalias !113
  %30 = bitcast i8* %29 to %"class.base::internal::BindStateBase"*
  call void @_ZN4base8internal13BindStateBaseC2EPFvvEPFvPKS1_E(%"class.base::internal::BindStateBase"* nonnull %30, void ()* bitcast (void (%"class.base::internal::BindStateBase"*, %"class.base::OnceCallback.344"*, %"class.std::__1::vector.331"*)* @_ZN4base8internal7InvokerINS0_9BindStateIPFvNS_4TimeENS_12OnceCallbackIFvNSt3__16vectorINS5_10unique_ptrIN16password_manager12PasswordFormENS5_14default_deleteIS9_EEEENS5_9allocatorISC_EEEEEEESF_EJS3_EEEFvSH_SF_EE7RunOnceEPNS0_13BindStateBaseEOSH_OSF_ to void ()*), void (%"class.base::internal::BindStateBase"*)* nonnull @_ZN4base8internal9BindStateIPFvNS_4TimeENS_12OnceCallbackIFvNSt3__16vectorINS4_10unique_ptrIN16password_manager12PasswordFormENS4_14default_deleteIS8_EEEENS4_9allocatorISB_EEEEEEESE_EJS2_EE7DestroyEPKNS0_13BindStateBaseE) #16, !noalias !113
  %31 = getelementptr inbounds i8, i8* %29, i64 32
  %32 = bitcast i8* %31 to void (i64, %"class.base::OnceCallback.344"*, %"class.std::__1::vector.331"*)**
  store void (i64, %"class.base::OnceCallback.344"*, %"class.std::__1::vector.331"*)* @_ZN16password_manager12_GLOBAL__N_112FilterLoginsEN4base4TimeENS1_12OnceCallbackIFvNSt3__16vectorINS4_10unique_ptrINS_12PasswordFormENS4_14default_deleteIS7_EEEENS4_9allocatorISA_EEEEEEESD_, void (i64, %"class.base::OnceCallback.344"*, %"class.std::__1::vector.331"*)** %32, align 8, !noalias !113
  %33 = getelementptr inbounds i8, i8* %29, i64 40
  %34 = bitcast i8* %33 to i64*
  store i64 %3, i64* %34, align 8, !noalias !113
  %35 = bitcast %"class.base::OnceCallback.330"* %10 to i8**
  store i8* %29, i8** %35, align 8, !alias.scope !113
  call void @_ZN16password_manager13PasswordStore51PostLoginsTaskAndReplyToConsumerWithProcessedResultEPKcPNS_21PasswordStoreConsumerEN4base12OnceCallbackIFNSt3__16vectorINS7_10unique_ptrINS_12PasswordFormENS7_14default_deleteISA_EEEENS7_9allocatorISD_EEEEvEEENS6_IFvNS6_IFvSG_EEESG_EEE(%"class.password_manager::PasswordStore"* %0, i8* getelementptr inbounds ([25 x i8], [25 x i8]* @.str.5, i64 0, i64 0), %"class.password_manager::PasswordStoreConsumer"* %23, %"class.base::OnceCallback.329"* nonnull %6, %"class.base::OnceCallback.330"* nonnull %10)
  %36 = getelementptr inbounds %"class.base::OnceCallback.330", %"class.base::OnceCallback.330"* %10, i64 0, i32 0
  call void @_ZN4base8internal12CallbackBaseD2Ev(%"class.base::internal::CallbackBase"* nonnull %36) #16
  %37 = getelementptr inbounds %"class.base::OnceCallback.329", %"class.base::OnceCallback.329"* %6, i64 0, i32 0
  call void @_ZN4base8internal12CallbackBaseD2Ev(%"class.base::internal::CallbackBase"* nonnull %37) #16
  call void @llvm.lifetime.end.p0i8(i64 8, i8* nonnull %25) #16
  call void @llvm.lifetime.end.p0i8(i64 16, i8* nonnull %24) #16
  br label %38

38:                                               ; preds = %13, %5, %22
  ret void
}

; Function Attrs: nounwind ssp uwtable
define hidden void @_ZN16password_manager13PasswordStore51PostLoginsTaskAndReplyToConsumerWithProcessedResultEPKcPNS_21PasswordStoreConsumerEN4base12OnceCallbackIFNSt3__16vectorINS7_10unique_ptrINS_12PasswordFormENS7_14default_deleteISA_EEEENS7_9allocatorISD_EEEEvEEENS6_IFvNS6_IFvSG_EEESG_EEE(%"class.password_manager::PasswordStore"*, i8*, %"class.password_manager::PasswordStoreConsumer"*, %"class.base::OnceCallback.329"* nocapture, %"class.base::OnceCallback.330"* nocapture) local_unnamed_addr #0 align 2 {
  %6 = alloca %"class.logging::CheckError", align 8
  %7 = alloca %"class.base::OnceCallback.215", align 8
  %8 = alloca %"class.base::OnceCallback.215", align 8
  %9 = alloca %"class.base::internal::WeakReference", align 8
  %10 = alloca %"class.base::OnceCallback.344", align 8
  %11 = alloca %"class.base::OnceCallback.344", align 8
  %12 = alloca %"class.base::WeakPtr.321", align 8
  %13 = alloca %"class.base::Location", align 8
  %14 = alloca %"class.base::OnceCallback.329", align 8
  %15 = alloca %"class.base::OnceCallback.344", align 8
  %16 = ptrtoint i8* %1 to i64
  %17 = ptrtoint %"class.password_manager::PasswordStoreConsumer"* %2 to i64
  %18 = bitcast %"class.base::OnceCallback.344"* %10 to i8*
  call void @llvm.lifetime.start.p0i8(i64 8, i8* nonnull %18) #16
  %19 = getelementptr inbounds %"class.base::OnceCallback.344", %"class.base::OnceCallback.344"* %10, i64 0, i32 0, i32 0, i32 0
  store %"class.base::internal::BindStateBase"* inttoptr (i64 -6148914691236517206 to %"class.base::internal::BindStateBase"*), %"class.base::internal::BindStateBase"** %19, align 8
  %20 = bitcast %"class.base::OnceCallback.344"* %11 to i8*
  call void @llvm.lifetime.start.p0i8(i64 8, i8* nonnull %20) #16
  %21 = bitcast %"class.base::WeakPtr.321"* %12 to i8*
  call void @llvm.lifetime.start.p0i8(i64 16, i8* nonnull %21) #16
  %22 = bitcast %"class.base::internal::WeakReference"* %9 to i8*
  call void @llvm.lifetime.start.p0i8(i64 8, i8* nonnull %22) #16, !noalias !118
  %23 = getelementptr inbounds %"class.password_manager::PasswordStoreConsumer", %"class.password_manager::PasswordStoreConsumer"* %2, i64 0, i32 2, i32 0, i32 0
  call void @_ZNK4base8internal18WeakReferenceOwner6GetRefEv(%"class.base::internal::WeakReference"* nonnull sret %9, %"class.base::internal::WeakReferenceOwner"* %23) #16, !noalias !118
  %24 = getelementptr inbounds %"class.password_manager::PasswordStoreConsumer", %"class.password_manager::PasswordStoreConsumer"* %2, i64 0, i32 2, i32 0, i32 1
  %25 = load i64, i64* %24, align 8, !noalias !118
  %26 = getelementptr inbounds %"class.base::WeakPtr.321", %"class.base::WeakPtr.321"* %12, i64 0, i32 0
  call void @_ZN4base8internal11WeakPtrBaseC2ERKNS0_13WeakReferenceEm(%"class.base::internal::WeakPtrBase"* nonnull %26, %"class.base::internal::WeakReference"* nonnull dereferenceable(8) %9, i64 %25) #16
  call void @_ZN4base8internal13WeakReferenceD1Ev(%"class.base::internal::WeakReference"* nonnull %9) #16
  call void @llvm.lifetime.end.p0i8(i64 8, i8* nonnull %22) #16, !noalias !118
  %27 = icmp eq %"class.password_manager::PasswordStore"* %0, null
  br i1 %27, label %31, label %28

28:                                               ; preds = %5
  %29 = getelementptr inbounds %"class.password_manager::PasswordStore", %"class.password_manager::PasswordStore"* %0, i64 0, i32 1, i32 1, i32 0, i32 0, i32 0, i32 0, i32 0, i32 0, i32 0, i32 0
  %30 = atomicrmw add i32* %29, i32 1 monotonic
  br label %31

31:                                               ; preds = %28, %5
  %32 = ptrtoint %"class.password_manager::PasswordStore"* %0 to i64
  %33 = call i8* @_Znwm(i64 72) #17, !noalias !123
  %34 = bitcast i8* %33 to %"class.base::internal::BindStateBase"*
  call void @_ZN4base8internal13BindStateBaseC2EPFvvEPFvPKS1_EPFbS5_NS1_21CancellationQueryModeEE(%"class.base::internal::BindStateBase"* nonnull %34, void ()* bitcast (void (%"class.base::internal::BindStateBase"*, %"class.std::__1::vector.331"*)* @_ZN4base8internal7InvokerINS0_9BindStateIMN16password_manager21PasswordStoreConsumerEFvPNS3_13PasswordStoreENSt3__16vectorINS7_10unique_ptrINS3_12PasswordFormENS7_14default_deleteISA_EEEENS7_9allocatorISD_EEEEEJNS_7WeakPtrIS4_EENS0_18RetainedRefWrapperIS5_EEEEEFvSG_EE7RunOnceEPNS0_13BindStateBaseEOSG_ to void ()*), void (%"class.base::internal::BindStateBase"*)* nonnull @_ZN4base8internal9BindStateIMN16password_manager21PasswordStoreConsumerEFvPNS2_13PasswordStoreENSt3__16vectorINS6_10unique_ptrINS2_12PasswordFormENS6_14default_deleteIS9_EEEENS6_9allocatorISC_EEEEEJNS_7WeakPtrIS3_EENS0_18RetainedRefWrapperIS4_EEEE7DestroyEPKNS0_13BindStateBaseE, i1 (%"class.base::internal::BindStateBase"*, i32)* nonnull @_ZN4base8internal23QueryCancellationTraitsINS0_9BindStateIMN16password_manager21PasswordStoreConsumerEFvPNS3_13PasswordStoreENSt3__16vectorINS7_10unique_ptrINS3_12PasswordFormENS7_14default_deleteISA_EEEENS7_9allocatorISD_EEEEEJNS_7WeakPtrIS4_EENS0_18RetainedRefWrapperIS5_EEEEEEEbPKNS0_13BindStateBaseENSO_21CancellationQueryModeE) #16, !noalias !123
  %35 = getelementptr inbounds i8, i8* %33, i64 32
  %36 = bitcast i8* %35 to <2 x i64>*
  store <2 x i64> <i64 9, i64 0>, <2 x i64>* %36, align 8, !noalias !123
  %37 = getelementptr inbounds i8, i8* %33, i64 48
  %38 = bitcast i8* %37 to %"class.base::internal::WeakReference"*
  %39 = getelementptr inbounds %"class.base::WeakPtr.321", %"class.base::WeakPtr.321"* %12, i64 0, i32 0, i32 0
  call void @_ZN4base8internal13WeakReferenceC1EOS1_(%"class.base::internal::WeakReference"* %38, %"class.base::internal::WeakReference"* nonnull dereferenceable(8) %39) #16, !noalias !123
  %40 = getelementptr inbounds i8, i8* %33, i64 56
  %41 = bitcast i8* %40 to i64*
  %42 = getelementptr inbounds %"class.base::WeakPtr.321", %"class.base::WeakPtr.321"* %12, i64 0, i32 0, i32 1
  %43 = load i64, i64* %42, align 8, !noalias !123
  store i64 %43, i64* %41, align 8, !noalias !123
  %44 = getelementptr inbounds i8, i8* %33, i64 64
  %45 = bitcast i8* %44 to i64*
  store i64 %32, i64* %45, align 8, !noalias !123
  %46 = call i8* @_Znwm(i64 64) #17, !noalias !128
  %47 = bitcast i8* %46 to %"class.base::internal::BindStateBase"*
  call void @_ZN4base8internal13BindStateBaseC2EPFvvEPFvPKS1_E(%"class.base::internal::BindStateBase"* nonnull %47, void ()* bitcast (void (%"class.base::internal::BindStateBase"*, %"class.std::__1::vector.331"*)* @_ZN4base8internal7InvokerINS0_9BindStateIPFvPKcPN16password_manager21PasswordStoreConsumerENS_12OnceCallbackIFvNSt3__16vectorINS9_10unique_ptrINS5_12PasswordFormENS9_14default_deleteISC_EEEENS9_9allocatorISF_EEEEEEESI_EJS4_S7_SK_EEESJ_E7RunOnceEPNS0_13BindStateBaseEOSI_ to void ()*), void (%"class.base::internal::BindStateBase"*)* nonnull @_ZN4base8internal9BindStateIPFvPKcPN16password_manager21PasswordStoreConsumerENS_12OnceCallbackIFvNSt3__16vectorINS8_10unique_ptrINS4_12PasswordFormENS8_14default_deleteISB_EEEENS8_9allocatorISE_EEEEEEESH_EJS3_S6_SJ_EE7DestroyEPKNS0_13BindStateBaseE) #16, !noalias !128
  %48 = getelementptr inbounds i8, i8* %46, i64 32
  %49 = bitcast i8* %48 to void (i8*, %"class.password_manager::PasswordStoreConsumer"*, %"class.base::OnceCallback.344"*, %"class.std::__1::vector.331"*)**
  store void (i8*, %"class.password_manager::PasswordStoreConsumer"*, %"class.base::OnceCallback.344"*, %"class.std::__1::vector.331"*)* @_ZN16password_manager12_GLOBAL__N_121CloseTraceAndCallBackEPKcPNS_21PasswordStoreConsumerEN4base12OnceCallbackIFvNSt3__16vectorINS7_10unique_ptrINS_12PasswordFormENS7_14default_deleteISA_EEEENS7_9allocatorISD_EEEEEEESG_, void (i8*, %"class.password_manager::PasswordStoreConsumer"*, %"class.base::OnceCallback.344"*, %"class.std::__1::vector.331"*)** %49, align 8, !noalias !128
  %50 = getelementptr inbounds i8, i8* %46, i64 40
  %51 = bitcast i8* %50 to i64*
  store i64 %16, i64* %51, align 8, !noalias !128
  %52 = getelementptr inbounds i8, i8* %46, i64 48
  %53 = bitcast i8* %52 to i64*
  store i64 %17, i64* %53, align 8, !noalias !128
  %54 = getelementptr inbounds i8, i8* %46, i64 56
  %55 = getelementptr inbounds %"class.base::OnceCallback.344", %"class.base::OnceCallback.344"* %11, i64 0, i32 0, i32 0, i32 0
  %56 = ptrtoint i8* %33 to i64
  %57 = bitcast i8* %54 to i64*
  store i64 %56, i64* %57, align 8, !noalias !128
  store %"class.base::internal::BindStateBase"* null, %"class.base::internal::BindStateBase"** %55, align 8, !noalias !128
  %58 = getelementptr inbounds %"class.base::OnceCallback.344", %"class.base::OnceCallback.344"* %11, i64 0, i32 0
  call void @_ZN4base8internal12CallbackBaseD2Ev(%"class.base::internal::CallbackBase"* nonnull %58) #16
  call void @_ZN4base8internal11WeakPtrBaseD2Ev(%"class.base::internal::WeakPtrBase"* nonnull %26) #16
  call void @llvm.lifetime.end.p0i8(i64 16, i8* nonnull %21) #16
  call void @llvm.lifetime.end.p0i8(i64 8, i8* nonnull %20) #16
  %59 = getelementptr inbounds %"class.password_manager::PasswordStoreConsumer", %"class.password_manager::PasswordStoreConsumer"* %2, i64 0, i32 1
  %60 = getelementptr inbounds %"class.password_manager::PasswordStore", %"class.password_manager::PasswordStore"* %0, i64 0, i32 3, i32 0
  %61 = bitcast %"class.base::SequencedTaskRunner"** %60 to %"class.base::TaskRunner"**
  %62 = load %"class.base::TaskRunner"*, %"class.base::TaskRunner"** %61, align 8
  %63 = bitcast %"class.base::Location"* %13 to i8*
  call void @llvm.lifetime.start.p0i8(i64 32, i8* nonnull %63) #16
  call void @_ZN4base8Location7CurrentEPKcS2_i(%"class.base::Location"* nonnull sret %13, i8* getelementptr inbounds ([52 x i8], [52 x i8]* @.str.29, i64 0, i64 0), i8* getelementptr inbounds ([65 x i8], [65 x i8]* @.str.2, i64 0, i64 0), i32 933) #16
  %64 = getelementptr inbounds %"class.base::OnceCallback.329", %"class.base::OnceCallback.329"* %3, i64 0, i32 0, i32 0, i32 0
  %65 = bitcast %"class.base::OnceCallback.329"* %3 to i64*
  %66 = load i64, i64* %65, align 8
  %67 = bitcast %"class.base::OnceCallback.329"* %14 to i64*
  store i64 %66, i64* %67, align 8
  store %"class.base::internal::BindStateBase"* null, %"class.base::internal::BindStateBase"** %64, align 8
  %68 = call i8* @_Znwm(i64 48) #17, !noalias !133
  %69 = bitcast i8* %68 to %"class.base::internal::BindStateBase"*
  call void @_ZN4base8internal13BindStateBaseC2EPFvvEPFvPKS1_EPFbS5_NS1_21CancellationQueryModeEE(%"class.base::internal::BindStateBase"* nonnull %69, void ()* bitcast (void (%"class.base::internal::BindStateBase"*, %"class.std::__1::vector.331"*)* @_ZN4base8internal7InvokerINS0_9BindStateINS_12OnceCallbackIFvNS3_IFvNSt3__16vectorINS4_10unique_ptrIN16password_manager12PasswordFormENS4_14default_deleteIS8_EEEENS4_9allocatorISB_EEEEEEESE_EEEJSG_EEESF_E7RunOnceEPNS0_13BindStateBaseEOSE_ to void ()*), void (%"class.base::internal::BindStateBase"*)* nonnull @_ZN4base8internal9BindStateINS_12OnceCallbackIFvNS2_IFvNSt3__16vectorINS3_10unique_ptrIN16password_manager12PasswordFormENS3_14default_deleteIS7_EEEENS3_9allocatorISA_EEEEEEESD_EEEJSF_EE7DestroyEPKNS0_13BindStateBaseE, i1 (%"class.base::internal::BindStateBase"*, i32)* nonnull @_ZN4base8internal23QueryCancellationTraitsINS0_9BindStateINS_12OnceCallbackIFvNS3_IFvNSt3__16vectorINS4_10unique_ptrIN16password_manager12PasswordFormENS4_14default_deleteIS8_EEEENS4_9allocatorISB_EEEEEEESE_EEEJSG_EEEEEbPKNS0_13BindStateBaseENSK_21CancellationQueryModeE) #16, !noalias !133
  %70 = getelementptr inbounds i8, i8* %68, i64 32
  %71 = getelementptr inbounds %"class.base::OnceCallback.330", %"class.base::OnceCallback.330"* %4, i64 0, i32 0, i32 0, i32 0
  %72 = bitcast %"class.base::OnceCallback.330"* %4 to i64*
  %73 = load i64, i64* %72, align 8, !noalias !133
  %74 = bitcast i8* %70 to i64*
  store i64 %73, i64* %74, align 8, !noalias !133
  store %"class.base::internal::BindStateBase"* null, %"class.base::internal::BindStateBase"** %71, align 8, !noalias !133
  %75 = getelementptr inbounds i8, i8* %68, i64 40
  %76 = ptrtoint i8* %46 to i64
  %77 = bitcast i8* %75 to i64*
  store i64 %76, i64* %77, align 8, !noalias !133
  store %"class.base::internal::BindStateBase"* null, %"class.base::internal::BindStateBase"** %19, align 8, !noalias !133
  %78 = icmp eq i64 %73, 0
  br i1 %78, label %79, label %83

79:                                               ; preds = %31
  %80 = bitcast %"class.logging::CheckError"* %6 to i8*
  call void @llvm.lifetime.start.p0i8(i64 8, i8* nonnull %80) #16, !noalias !133
  call void @_ZN7logging10CheckError5CheckEPKciS2_(%"class.logging::CheckError"* nonnull sret %6, i8* getelementptr inbounds ([27 x i8], [27 x i8]* @.str.62, i64 0, i64 0), i32 896, i8* getelementptr inbounds ([18 x i8], [18 x i8]* @.str.63, i64 0, i64 0)) #16, !noalias !133
  %81 = call dereferenceable(160) %"class.std::__1::basic_ostream"* @_ZN7logging10CheckError6streamEv(%"class.logging::CheckError"* nonnull %6) #16, !noalias !133
  call void @_ZN7logging10CheckErrorD1Ev(%"class.logging::CheckError"* nonnull %6) #16, !noalias !133
  call void @llvm.lifetime.end.p0i8(i64 8, i8* nonnull %80) #16, !noalias !133
  %82 = load i64, i64* %67, align 8, !noalias !138
  br label %83

83:                                               ; preds = %31, %79
  %84 = phi i64 [ %66, %31 ], [ %82, %79 ]
  %85 = bitcast %"class.base::OnceCallback.215"* %7 to i8*
  call void @llvm.lifetime.start.p0i8(i64 8, i8* nonnull %85)
  %86 = bitcast %"class.base::OnceCallback.215"* %8 to i8*
  call void @llvm.lifetime.start.p0i8(i64 8, i8* nonnull %86)
  %87 = call i8* @_Znwm(i64 8) #17
  %88 = bitcast i8* %87 to i64*
  store i64 0, i64* %88, align 8
  %89 = ptrtoint i8* %87 to i64
  %90 = call i8* @_Znwm(i64 56) #17, !noalias !138
  %91 = bitcast i8* %90 to %"class.base::internal::BindStateBase"*
  call void @_ZN4base8internal13BindStateBaseC2EPFvvEPFvPKS1_E(%"class.base::internal::BindStateBase"* nonnull %91, void ()* bitcast (void (%"class.base::internal::BindStateBase"*)* @_ZN4base8internal7InvokerINS0_9BindStateIPFvNS_12OnceCallbackIFNSt3__16vectorINS4_10unique_ptrIN16password_manager12PasswordFormENS4_14default_deleteIS8_EEEENS4_9allocatorISB_EEEEvEEEPNS6_ISE_NS9_ISE_EEEEEJSG_NS0_17UnretainedWrapperISI_EEEEEFvvEE7RunOnceEPNS0_13BindStateBaseE to void ()*), void (%"class.base::internal::BindStateBase"*)* nonnull @_ZN4base8internal9BindStateIPFvNS_12OnceCallbackIFNSt3__16vectorINS3_10unique_ptrIN16password_manager12PasswordFormENS3_14default_deleteIS7_EEEENS3_9allocatorISA_EEEEvEEEPNS5_ISD_NS8_ISD_EEEEEJSF_NS0_17UnretainedWrapperISH_EEEE7DestroyEPKNS0_13BindStateBaseE) #16, !noalias !138
  %92 = getelementptr inbounds i8, i8* %90, i64 32
  %93 = bitcast i8* %92 to i64*
  store i64 ptrtoint (void (%"class.base::OnceCallback.329"*, %"class.std::__1::unique_ptr.829"*)* @_ZN4base8internal20ReturnAsParamAdapterINSt3__16vectorINS2_10unique_ptrIN16password_manager12PasswordFormENS2_14default_deleteIS6_EEEENS2_9allocatorIS9_EEEEEEvNS_12OnceCallbackIFT_vEEEPNS4_ISE_NS7_ISE_EEEE to i64), i64* %93, align 8, !noalias !138
  %94 = getelementptr inbounds i8, i8* %90, i64 40
  %95 = getelementptr inbounds %"class.base::OnceCallback.329", %"class.base::OnceCallback.329"* %14, i64 0, i32 0, i32 0, i32 0
  %96 = bitcast i8* %94 to i64*
  store i64 %84, i64* %96, align 8, !noalias !138
  store %"class.base::internal::BindStateBase"* null, %"class.base::internal::BindStateBase"** %95, align 8, !noalias !138
  %97 = getelementptr inbounds i8, i8* %90, i64 48
  %98 = bitcast i8* %97 to i64*
  store i64 %89, i64* %98, align 8, !noalias !138
  %99 = bitcast %"class.base::OnceCallback.215"* %7 to i8**
  store i8* %90, i8** %99, align 8, !alias.scope !138
  %100 = call i8* @_Znwm(i64 56) #17, !noalias !143
  %101 = bitcast i8* %100 to %"class.base::internal::BindStateBase"*
  call void @_ZN4base8internal13BindStateBaseC2EPFvvEPFvPKS1_E(%"class.base::internal::BindStateBase"* nonnull %101, void ()* bitcast (void (%"class.base::internal::BindStateBase"*)* @_ZN4base8internal7InvokerINS0_9BindStateIPFvNS_12OnceCallbackIFvNSt3__16vectorINS4_10unique_ptrIN16password_manager12PasswordFormENS4_14default_deleteIS8_EEEENS4_9allocatorISB_EEEEEEEPNS6_ISE_NS9_ISE_EEEEEJSG_NS0_12OwnedWrapperISI_NS9_ISI_EEEEEEEFvvEE7RunOnceEPNS0_13BindStateBaseE to void ()*), void (%"class.base::internal::BindStateBase"*)* nonnull @_ZN4base8internal9BindStateIPFvNS_12OnceCallbackIFvNSt3__16vectorINS3_10unique_ptrIN16password_manager12PasswordFormENS3_14default_deleteIS7_EEEENS3_9allocatorISA_EEEEEEEPNS5_ISD_NS8_ISD_EEEEEJSF_NS0_12OwnedWrapperISH_NS8_ISH_EEEEEE7DestroyEPKNS0_13BindStateBaseE) #16, !noalias !143
  %102 = getelementptr inbounds i8, i8* %100, i64 32
  %103 = bitcast i8* %102 to i64*
  store i64 ptrtoint (void (%"class.base::OnceCallback.344"*, %"class.std::__1::unique_ptr.829"*)* @_ZN4base8internal12ReplyAdapterINSt3__16vectorINS2_10unique_ptrIN16password_manager12PasswordFormENS2_14default_deleteIS6_EEEENS2_9allocatorIS9_EEEESC_EEvNS_12OnceCallbackIFvT0_EEEPNS4_IT_NS7_ISH_EEEE to i64), i64* %103, align 8, !noalias !143
  %104 = getelementptr inbounds i8, i8* %100, i64 40
  %105 = getelementptr inbounds %"class.base::OnceCallback.344", %"class.base::OnceCallback.344"* %15, i64 0, i32 0, i32 0, i32 0
  %106 = ptrtoint i8* %68 to i64
  %107 = bitcast i8* %104 to i64*
  store i64 %106, i64* %107, align 8, !noalias !143
  store %"class.base::internal::BindStateBase"* null, %"class.base::internal::BindStateBase"** %105, align 8, !noalias !143
  %108 = getelementptr inbounds i8, i8* %100, i64 48
  %109 = bitcast i8* %108 to i64*
  store i64 %89, i64* %109, align 8, !noalias !143
  %110 = bitcast %"class.base::OnceCallback.215"* %8 to i8**
  store i8* %100, i8** %110, align 8, !alias.scope !143
  %111 = call i64 @_ZN4base21CancelableTaskTracker16PostTaskAndReplyEPNS_10TaskRunnerERKNS_8LocationENS_12OnceCallbackIFvvEEES8_(%"class.base::CancelableTaskTracker"* %59, %"class.base::TaskRunner"* %62, %"class.base::Location"* nonnull dereferenceable(32) %13, %"class.base::OnceCallback.215"* nonnull %7, %"class.base::OnceCallback.215"* nonnull %8) #16
  %112 = getelementptr inbounds %"class.base::OnceCallback.215", %"class.base::OnceCallback.215"* %8, i64 0, i32 0
  call void @_ZN4base8internal12CallbackBaseD2Ev(%"class.base::internal::CallbackBase"* nonnull %112) #16
  %113 = getelementptr inbounds %"class.base::OnceCallback.215", %"class.base::OnceCallback.215"* %7, i64 0, i32 0
  call void @_ZN4base8internal12CallbackBaseD2Ev(%"class.base::internal::CallbackBase"* nonnull %113) #16
  call void @llvm.lifetime.end.p0i8(i64 8, i8* nonnull %85)
  call void @llvm.lifetime.end.p0i8(i64 8, i8* nonnull %86)
  %114 = getelementptr inbounds %"class.base::OnceCallback.344", %"class.base::OnceCallback.344"* %15, i64 0, i32 0
  call void @_ZN4base8internal12CallbackBaseD2Ev(%"class.base::internal::CallbackBase"* nonnull %114) #16
  %115 = getelementptr inbounds %"class.base::OnceCallback.329", %"class.base::OnceCallback.329"* %14, i64 0, i32 0
  call void @_ZN4base8internal12CallbackBaseD2Ev(%"class.base::internal::CallbackBase"* nonnull %115) #16
  call void @llvm.lifetime.end.p0i8(i64 32, i8* nonnull %63) #16
  %116 = getelementptr inbounds %"class.base::OnceCallback.344", %"class.base::OnceCallback.344"* %10, i64 0, i32 0
  call void @_ZN4base8internal12CallbackBaseD2Ev(%"class.base::internal::CallbackBase"* nonnull %116) #16
  call void @llvm.lifetime.end.p0i8(i64 8, i8* nonnull %18) #16
  ret void
}

; Function Attrs: nounwind ssp uwtable
define hidden void @_ZN16password_manager13PasswordStore13GetLoginsImplERKNS0_10FormDigestE(%"class.std::__1::vector.331"* noalias sret, %"class.password_manager::PasswordStore"*, %"struct.password_manager::PasswordStore::FormDigest"* dereferenceable(152)) #0 align 2 {
  %4 = bitcast %"class.password_manager::PasswordStore"* %1 to void (%"class.std::__1::vector.331"*, %"class.password_manager::PasswordStore"*, %"struct.password_manager::PasswordStore::FormDigest"*)***
  %5 = load void (%"class.std::__1::vector.331"*, %"class.password_manager::PasswordStore"*, %"struct.password_manager::PasswordStore::FormDigest"*)**, void (%"class.std::__1::vector.331"*, %"class.password_manager::PasswordStore"*, %"struct.password_manager::PasswordStore::FormDigest"*)*** %4, align 8
  %6 = getelementptr inbounds void (%"class.std::__1::vector.331"*, %"class.password_manager::PasswordStore"*, %"struct.password_manager::PasswordStore::FormDigest"*)*, void (%"class.std::__1::vector.331"*, %"class.password_manager::PasswordStore"*, %"struct.password_manager::PasswordStore::FormDigest"*)** %5, i64 52
  %7 = load void (%"class.std::__1::vector.331"*, %"class.password_manager::PasswordStore"*, %"struct.password_manager::PasswordStore::FormDigest"*)*, void (%"class.std::__1::vector.331"*, %"class.password_manager::PasswordStore"*, %"struct.password_manager::PasswordStore::FormDigest"*)** %6, align 8
  tail call void %7(%"class.std::__1::vector.331"* sret %0, %"class.password_manager::PasswordStore"* %1, %"struct.password_manager::PasswordStore::FormDigest"* dereferenceable(152) %2) #16
  ret void
}

; Function Attrs: nounwind ssp uwtable
define internal void @_ZN16password_manager12_GLOBAL__N_112FilterLoginsEN4base4TimeENS1_12OnceCallbackIFvNSt3__16vectorINS4_10unique_ptrINS_12PasswordFormENS4_14default_deleteIS7_EEEENS4_9allocatorISA_EEEEEEESD_(i64, %"class.base::OnceCallback.344"* nocapture, %"class.std::__1::vector.331"* nocapture) #0 {
  %4 = alloca %"class.base::OnceCallback.344", align 8
  %5 = alloca %"class.std::__1::vector.331", align 8
  %6 = getelementptr inbounds %"class.std::__1::vector.331", %"class.std::__1::vector.331"* %2, i64 0, i32 0, i32 0
  %7 = load %"class.std::__1::unique_ptr.333"*, %"class.std::__1::unique_ptr.333"** %6, align 8
  %8 = getelementptr inbounds %"class.std::__1::vector.331", %"class.std::__1::vector.331"* %2, i64 0, i32 0, i32 1
  %9 = load %"class.std::__1::unique_ptr.333"*, %"class.std::__1::unique_ptr.333"** %8, align 8
  %10 = icmp eq %"class.std::__1::unique_ptr.333"* %7, %9
  %11 = ptrtoint %"class.std::__1::unique_ptr.333"* %9 to i64
  br i1 %10, label %22, label %12

12:                                               ; preds = %3, %19
  %13 = phi %"class.std::__1::unique_ptr.333"* [ %20, %19 ], [ %7, %3 ]
  %14 = getelementptr inbounds %"class.std::__1::unique_ptr.333", %"class.std::__1::unique_ptr.333"* %13, i64 0, i32 0, i32 0, i32 0
  %15 = load %"struct.password_manager::PasswordForm"*, %"struct.password_manager::PasswordForm"** %14, align 8
  %16 = getelementptr inbounds %"struct.password_manager::PasswordForm", %"struct.password_manager::PasswordForm"* %15, i64 0, i32 26, i32 0, i32 0
  %17 = load i64, i64* %16, align 8
  %18 = icmp slt i64 %17, %0
  br i1 %18, label %22, label %19

19:                                               ; preds = %12
  %20 = getelementptr inbounds %"class.std::__1::unique_ptr.333", %"class.std::__1::unique_ptr.333"* %13, i64 1
  %21 = icmp eq %"class.std::__1::unique_ptr.333"* %20, %9
  br i1 %21, label %56, label %12

22:                                               ; preds = %12, %3
  %23 = phi %"class.std::__1::unique_ptr.333"* [ %7, %3 ], [ %13, %12 ]
  %24 = ptrtoint %"class.std::__1::unique_ptr.333"* %23 to i64
  %25 = icmp eq %"class.std::__1::unique_ptr.333"* %23, %9
  br i1 %25, label %56, label %26

26:                                               ; preds = %22
  %27 = getelementptr inbounds %"class.std::__1::unique_ptr.333", %"class.std::__1::unique_ptr.333"* %23, i64 1
  %28 = icmp eq %"class.std::__1::unique_ptr.333"* %27, %9
  br i1 %28, label %56, label %29

29:                                               ; preds = %26, %49
  %30 = phi %"class.std::__1::unique_ptr.333"* [ %51, %49 ], [ %27, %26 ]
  %31 = phi i64 [ %50, %49 ], [ %24, %26 ]
  %32 = getelementptr inbounds %"class.std::__1::unique_ptr.333", %"class.std::__1::unique_ptr.333"* %30, i64 0, i32 0, i32 0, i32 0
  %33 = load %"struct.password_manager::PasswordForm"*, %"struct.password_manager::PasswordForm"** %32, align 8
  %34 = getelementptr inbounds %"struct.password_manager::PasswordForm", %"struct.password_manager::PasswordForm"* %33, i64 0, i32 26, i32 0, i32 0
  %35 = load i64, i64* %34, align 8
  %36 = icmp slt i64 %35, %0
  br i1 %36, label %49, label %37

37:                                               ; preds = %29
  %38 = ptrtoint %"struct.password_manager::PasswordForm"* %33 to i64
  %39 = inttoptr i64 %31 to %"class.std::__1::unique_ptr.333"*
  store %"struct.password_manager::PasswordForm"* null, %"struct.password_manager::PasswordForm"** %32, align 8
  %40 = getelementptr inbounds %"class.std::__1::unique_ptr.333", %"class.std::__1::unique_ptr.333"* %39, i64 0, i32 0, i32 0, i32 0
  %41 = load %"struct.password_manager::PasswordForm"*, %"struct.password_manager::PasswordForm"** %40, align 8
  %42 = inttoptr i64 %31 to i64*
  store i64 %38, i64* %42, align 8
  %43 = icmp eq %"struct.password_manager::PasswordForm"* %41, null
  br i1 %43, label %46, label %44

44:                                               ; preds = %37
  tail call void @_ZN16password_manager12PasswordFormD1Ev(%"struct.password_manager::PasswordForm"* nonnull %41) #16
  %45 = bitcast %"struct.password_manager::PasswordForm"* %41 to i8*
  tail call void @_ZdlPv(i8* %45) #17
  br label %46

46:                                               ; preds = %44, %37
  %47 = getelementptr inbounds %"class.std::__1::unique_ptr.333", %"class.std::__1::unique_ptr.333"* %39, i64 1
  %48 = ptrtoint %"class.std::__1::unique_ptr.333"* %47 to i64
  br label %49

49:                                               ; preds = %46, %29
  %50 = phi i64 [ %31, %29 ], [ %48, %46 ]
  %51 = getelementptr inbounds %"class.std::__1::unique_ptr.333", %"class.std::__1::unique_ptr.333"* %30, i64 1
  %52 = icmp eq %"class.std::__1::unique_ptr.333"* %51, %9
  br i1 %52, label %53, label %29

53:                                               ; preds = %49
  %54 = load %"class.std::__1::unique_ptr.333"*, %"class.std::__1::unique_ptr.333"** %8, align 8
  %55 = ptrtoint %"class.std::__1::unique_ptr.333"* %54 to i64
  br label %56

56:                                               ; preds = %19, %53, %26, %22
  %57 = phi i64 [ %11, %22 ], [ %11, %26 ], [ %55, %53 ], [ %11, %19 ]
  %58 = phi %"class.std::__1::unique_ptr.333"* [ %9, %22 ], [ %9, %26 ], [ %54, %53 ], [ %9, %19 ]
  %59 = phi i64 [ %24, %22 ], [ %24, %26 ], [ %50, %53 ], [ %11, %19 ]
  %60 = inttoptr i64 %59 to %"class.std::__1::unique_ptr.333"*
  %61 = icmp eq %"class.std::__1::unique_ptr.333"* %58, %60
  br i1 %61, label %73, label %62

62:                                               ; preds = %56, %70
  %63 = phi %"class.std::__1::unique_ptr.333"* [ %64, %70 ], [ %58, %56 ]
  %64 = getelementptr inbounds %"class.std::__1::unique_ptr.333", %"class.std::__1::unique_ptr.333"* %63, i64 -1
  %65 = getelementptr inbounds %"class.std::__1::unique_ptr.333", %"class.std::__1::unique_ptr.333"* %64, i64 0, i32 0, i32 0, i32 0
  %66 = load %"struct.password_manager::PasswordForm"*, %"struct.password_manager::PasswordForm"** %65, align 8
  store %"struct.password_manager::PasswordForm"* null, %"struct.password_manager::PasswordForm"** %65, align 8
  %67 = icmp eq %"struct.password_manager::PasswordForm"* %66, null
  br i1 %67, label %70, label %68

68:                                               ; preds = %62
  tail call void @_ZN16password_manager12PasswordFormD1Ev(%"struct.password_manager::PasswordForm"* nonnull %66) #16
  %69 = bitcast %"struct.password_manager::PasswordForm"* %66 to i8*
  tail call void @_ZdlPv(i8* %69) #17
  br label %70

70:                                               ; preds = %68, %62
  %71 = icmp eq %"class.std::__1::unique_ptr.333"* %64, %60
  br i1 %71, label %72, label %62

72:                                               ; preds = %70
  store %"class.std::__1::unique_ptr.333"* %60, %"class.std::__1::unique_ptr.333"** %8, align 8
  br label %73

73:                                               ; preds = %56, %72
  %74 = phi i64 [ %57, %56 ], [ %59, %72 ]
  %75 = bitcast %"class.std::__1::vector.331"* %2 to i64*
  %76 = load i64, i64* %75, align 8
  %77 = bitcast %"class.std::__1::vector.331"* %5 to i64*
  store i64 %76, i64* %77, align 8
  %78 = getelementptr inbounds %"class.std::__1::vector.331", %"class.std::__1::vector.331"* %5, i64 0, i32 0, i32 1
  %79 = bitcast %"class.std::__1::unique_ptr.333"** %78 to i64*
  store i64 %74, i64* %79, align 8
  %80 = getelementptr inbounds %"class.std::__1::vector.331", %"class.std::__1::vector.331"* %2, i64 0, i32 0, i32 2, i32 0, i32 0
  %81 = bitcast %"class.std::__1::unique_ptr.333"** %80 to i64*
  %82 = load i64, i64* %81, align 8
  %83 = getelementptr inbounds %"class.std::__1::vector.331", %"class.std::__1::vector.331"* %5, i64 0, i32 0, i32 2, i32 0, i32 0
  %84 = bitcast %"class.std::__1::unique_ptr.333"** %83 to i64*
  store i64 %82, i64* %84, align 8
  %85 = bitcast %"class.std::__1::vector.331"* %2 to i8*
  tail call void @llvm.memset.p0i8.i64(i8* align 8 %85, i8 0, i64 24, i1 false) #16
  %86 = bitcast %"class.base::OnceCallback.344"* %4 to i8*
  call void @llvm.lifetime.start.p0i8(i64 8, i8* nonnull %86) #16
  %87 = getelementptr inbounds %"class.base::OnceCallback.344", %"class.base::OnceCallback.344"* %1, i64 0, i32 0, i32 0, i32 0
  %88 = bitcast %"class.base::OnceCallback.344"* %1 to i64*
  %89 = load i64, i64* %88, align 8
  %90 = bitcast %"class.base::OnceCallback.344"* %4 to i64*
  store i64 %89, i64* %90, align 8
  store %"class.base::internal::BindStateBase"* null, %"class.base::internal::BindStateBase"** %87, align 8
  %91 = getelementptr inbounds %"class.base::OnceCallback.344", %"class.base::OnceCallback.344"* %4, i64 0, i32 0
  %92 = inttoptr i64 %89 to %"class.base::internal::BindStateBase"*
  %93 = getelementptr inbounds %"class.base::internal::BindStateBase", %"class.base::internal::BindStateBase"* %92, i64 0, i32 1
  %94 = bitcast void ()** %93 to void (%"class.base::internal::BindStateBase"*, %"class.std::__1::vector.331"*)**
  %95 = load void (%"class.base::internal::BindStateBase"*, %"class.std::__1::vector.331"*)*, void (%"class.base::internal::BindStateBase"*, %"class.std::__1::vector.331"*)** %94, align 8
  call void %95(%"class.base::internal::BindStateBase"* %92, %"class.std::__1::vector.331"* nonnull dereferenceable(24) %5) #16
  call void @_ZN4base8internal12CallbackBaseD2Ev(%"class.base::internal::CallbackBase"* nonnull %91) #16
  call void @llvm.lifetime.end.p0i8(i64 8, i8* nonnull %86) #16
  %96 = getelementptr inbounds %"class.std::__1::vector.331", %"class.std::__1::vector.331"* %5, i64 0, i32 0, i32 0
  %97 = load %"class.std::__1::unique_ptr.333"*, %"class.std::__1::unique_ptr.333"** %96, align 8
  %98 = icmp eq %"class.std::__1::unique_ptr.333"* %97, null
  br i1 %98, label %118, label %99

99:                                               ; preds = %73
  %100 = bitcast %"class.std::__1::unique_ptr.333"* %97 to i8*
  %101 = load %"class.std::__1::unique_ptr.333"*, %"class.std::__1::unique_ptr.333"** %78, align 8
  %102 = icmp eq %"class.std::__1::unique_ptr.333"* %101, %97
  br i1 %102, label %116, label %103

103:                                              ; preds = %99, %111
  %104 = phi %"class.std::__1::unique_ptr.333"* [ %105, %111 ], [ %101, %99 ]
  %105 = getelementptr inbounds %"class.std::__1::unique_ptr.333", %"class.std::__1::unique_ptr.333"* %104, i64 -1
  %106 = getelementptr inbounds %"class.std::__1::unique_ptr.333", %"class.std::__1::unique_ptr.333"* %105, i64 0, i32 0, i32 0, i32 0
  %107 = load %"struct.password_manager::PasswordForm"*, %"struct.password_manager::PasswordForm"** %106, align 8
  store %"struct.password_manager::PasswordForm"* null, %"struct.password_manager::PasswordForm"** %106, align 8
  %108 = icmp eq %"struct.password_manager::PasswordForm"* %107, null
  br i1 %108, label %111, label %109

109:                                              ; preds = %103
  call void @_ZN16password_manager12PasswordFormD1Ev(%"struct.password_manager::PasswordForm"* nonnull %107) #16
  %110 = bitcast %"struct.password_manager::PasswordForm"* %107 to i8*
  call void @_ZdlPv(i8* %110) #17
  br label %111

111:                                              ; preds = %109, %103
  %112 = icmp eq %"class.std::__1::unique_ptr.333"* %105, %97
  br i1 %112, label %113, label %103

113:                                              ; preds = %111
  %114 = bitcast %"class.std::__1::vector.331"* %5 to i8**
  %115 = load i8*, i8** %114, align 8
  br label %116

116:                                              ; preds = %113, %99
  %117 = phi i8* [ %115, %113 ], [ %100, %99 ]
  store %"class.std::__1::unique_ptr.333"* %97, %"class.std::__1::unique_ptr.333"** %78, align 8
  call void @_ZdlPv(i8* %117) #17
  br label %118

118:                                              ; preds = %73, %116
  ret void
}

; Function Attrs: nounwind ssp uwtable
define hidden void @_ZN16password_manager13PasswordStore19GetLoginsByPasswordERKNSt3__112basic_stringIDsNS1_11char_traitsIDsEENS1_9allocatorIDsEEEEPNS_21PasswordStoreConsumerE(%"class.password_manager::PasswordStore"*, %"class.std::__1::basic_string.219"* dereferenceable(24), %"class.password_manager::PasswordStoreConsumer"*) local_unnamed_addr #0 align 2 {
  %4 = alloca %"class.base::OnceCallback.329", align 8
  %5 = alloca <2 x i64>, align 16
  %6 = bitcast <2 x i64>* %5 to { i64, i64 }*
  %7 = alloca %"class.password_manager::PasswordStore"*, align 8
  %8 = bitcast <2 x i64>* %5 to i8*
  call void @llvm.lifetime.start.p0i8(i64 16, i8* nonnull %8) #16
  store <2 x i64> <i64 ptrtoint (void (%"class.std::__1::vector.331"*, %"class.password_manager::PasswordStore"*, %"class.std::__1::basic_string.219"*)* @_ZN16password_manager13PasswordStore23GetLoginsByPasswordImplERKNSt3__112basic_stringIDsNS1_11char_traitsIDsEENS1_9allocatorIDsEEEE to i64), i64 0>, <2 x i64>* %5, align 16
  %9 = bitcast %"class.password_manager::PasswordStore"** %7 to i8*
  call void @llvm.lifetime.start.p0i8(i64 8, i8* nonnull %9) #16
  store %"class.password_manager::PasswordStore"* %0, %"class.password_manager::PasswordStore"** %7, align 8
  %10 = tail call i8* @_Znwm(i64 80) #17, !noalias !148
  %11 = bitcast i8* %10 to %"struct.base::internal::BindState.602"*
  call void @_ZN4base8internal9BindStateIMN16password_manager13PasswordStoreEFNSt3__16vectorINS4_10unique_ptrINS2_12PasswordFormENS4_14default_deleteIS7_EEEENS4_9allocatorISA_EEEERKNS4_12basic_stringIDsNS4_11char_traitsIDsEENSB_IDsEEEEEJ13scoped_refptrIS3_ESI_EEC2ISM_JPS3_SK_EEENS4_17integral_constantIbLb0EEEPFvvEOT_DpOT0_(%"struct.base::internal::BindState.602"* nonnull %11, void ()* bitcast (void (%"class.std::__1::vector.331"*, %"class.base::internal::BindStateBase"*)* @_ZN4base8internal7InvokerINS0_9BindStateIMN16password_manager13PasswordStoreEFNSt3__16vectorINS5_10unique_ptrINS3_12PasswordFormENS5_14default_deleteIS8_EEEENS5_9allocatorISB_EEEERKNS5_12basic_stringIDsNS5_11char_traitsIDsEENSC_IDsEEEEEJ13scoped_refptrIS4_ESJ_EEEFSE_vEE7RunOnceEPNS0_13BindStateBaseE to void ()*), { i64, i64 }* nonnull dereferenceable(16) %6, %"class.password_manager::PasswordStore"** nonnull dereferenceable(8) %7, %"class.std::__1::basic_string.219"* dereferenceable(24) %1) #16, !noalias !148
  %12 = bitcast %"class.base::OnceCallback.329"* %4 to i8**
  store i8* %10, i8** %12, align 8, !alias.scope !148
  call void @_ZN16password_manager13PasswordStore42PostLoginsTaskAndReplyToConsumerWithResultEPNS_21PasswordStoreConsumerEN4base12OnceCallbackIFNSt3__16vectorINS5_10unique_ptrINS_12PasswordFormENS5_14default_deleteIS8_EEEENS5_9allocatorISB_EEEEvEEE(%"class.password_manager::PasswordStore"* %0, %"class.password_manager::PasswordStoreConsumer"* %2, %"class.base::OnceCallback.329"* nonnull %4)
  %13 = getelementptr inbounds %"class.base::OnceCallback.329", %"class.base::OnceCallback.329"* %4, i64 0, i32 0
  call void @_ZN4base8internal12CallbackBaseD2Ev(%"class.base::internal::CallbackBase"* nonnull %13) #16
  call void @llvm.lifetime.end.p0i8(i64 8, i8* nonnull %9) #16
  call void @llvm.lifetime.end.p0i8(i64 16, i8* nonnull %8) #16
  ret void
}

; Function Attrs: nounwind ssp uwtable
define hidden void @_ZN16password_manager13PasswordStore42PostLoginsTaskAndReplyToConsumerWithResultEPNS_21PasswordStoreConsumerEN4base12OnceCallbackIFNSt3__16vectorINS5_10unique_ptrINS_12PasswordFormENS5_14default_deleteIS8_EEEENS5_9allocatorISB_EEEEvEEE(%"class.password_manager::PasswordStore"*, %"class.password_manager::PasswordStoreConsumer"*, %"class.base::OnceCallback.329"* nocapture) local_unnamed_addr #0 align 2 {
  %4 = alloca %"class.base::internal::WeakReference", align 8
  %5 = alloca %"class.base::OnceCallback.215", align 8
  %6 = alloca %"class.base::OnceCallback.215", align 8
  %7 = alloca %"class.base::Location", align 8
  %8 = alloca %"class.base::OnceCallback.329", align 8
  %9 = alloca %"class.base::OnceCallback.344", align 8
  %10 = alloca %"class.base::WeakPtr.321", align 8
  %11 = getelementptr inbounds %"class.password_manager::PasswordStoreConsumer", %"class.password_manager::PasswordStoreConsumer"* %1, i64 0, i32 1
  %12 = getelementptr inbounds %"class.password_manager::PasswordStore", %"class.password_manager::PasswordStore"* %0, i64 0, i32 3, i32 0
  %13 = bitcast %"class.base::SequencedTaskRunner"** %12 to %"class.base::TaskRunner"**
  %14 = load %"class.base::TaskRunner"*, %"class.base::TaskRunner"** %13, align 8
  %15 = bitcast %"class.base::Location"* %7 to i8*
  call void @llvm.lifetime.start.p0i8(i64 32, i8* nonnull %15) #16
  call void @_ZN4base8Location7CurrentEPKcS2_i(%"class.base::Location"* nonnull sret %7, i8* getelementptr inbounds ([43 x i8], [43 x i8]* @.str.28, i64 0, i64 0), i8* getelementptr inbounds ([65 x i8], [65 x i8]* @.str.2, i64 0, i64 0), i32 918) #16
  %16 = getelementptr inbounds %"class.base::OnceCallback.329", %"class.base::OnceCallback.329"* %2, i64 0, i32 0, i32 0, i32 0
  %17 = bitcast %"class.base::OnceCallback.329"* %2 to i64*
  %18 = load i64, i64* %17, align 8
  %19 = bitcast %"class.base::OnceCallback.329"* %8 to i64*
  store i64 %18, i64* %19, align 8
  store %"class.base::internal::BindStateBase"* null, %"class.base::internal::BindStateBase"** %16, align 8
  %20 = bitcast %"class.base::WeakPtr.321"* %10 to i8*
  call void @llvm.lifetime.start.p0i8(i64 16, i8* nonnull %20) #16
  %21 = bitcast %"class.base::internal::WeakReference"* %4 to i8*
  call void @llvm.lifetime.start.p0i8(i64 8, i8* nonnull %21) #16, !noalias !153
  %22 = getelementptr inbounds %"class.password_manager::PasswordStoreConsumer", %"class.password_manager::PasswordStoreConsumer"* %1, i64 0, i32 2, i32 0, i32 0
  call void @_ZNK4base8internal18WeakReferenceOwner6GetRefEv(%"class.base::internal::WeakReference"* nonnull sret %4, %"class.base::internal::WeakReferenceOwner"* %22) #16, !noalias !153
  %23 = getelementptr inbounds %"class.password_manager::PasswordStoreConsumer", %"class.password_manager::PasswordStoreConsumer"* %1, i64 0, i32 2, i32 0, i32 1
  %24 = load i64, i64* %23, align 8, !noalias !153
  %25 = getelementptr inbounds %"class.base::WeakPtr.321", %"class.base::WeakPtr.321"* %10, i64 0, i32 0
  call void @_ZN4base8internal11WeakPtrBaseC2ERKNS0_13WeakReferenceEm(%"class.base::internal::WeakPtrBase"* nonnull %25, %"class.base::internal::WeakReference"* nonnull dereferenceable(8) %4, i64 %24) #16
  call void @_ZN4base8internal13WeakReferenceD1Ev(%"class.base::internal::WeakReference"* nonnull %4) #16
  call void @llvm.lifetime.end.p0i8(i64 8, i8* nonnull %21) #16, !noalias !153
  %26 = icmp eq %"class.password_manager::PasswordStore"* %0, null
  br i1 %26, label %30, label %27

27:                                               ; preds = %3
  %28 = getelementptr inbounds %"class.password_manager::PasswordStore", %"class.password_manager::PasswordStore"* %0, i64 0, i32 1, i32 1, i32 0, i32 0, i32 0, i32 0, i32 0, i32 0, i32 0, i32 0
  %29 = atomicrmw add i32* %28, i32 1 monotonic
  br label %30

30:                                               ; preds = %27, %3
  %31 = ptrtoint %"class.password_manager::PasswordStore"* %0 to i64
  %32 = call i8* @_Znwm(i64 72) #17, !noalias !158
  %33 = bitcast i8* %32 to %"class.base::internal::BindStateBase"*
  call void @_ZN4base8internal13BindStateBaseC2EPFvvEPFvPKS1_EPFbS5_NS1_21CancellationQueryModeEE(%"class.base::internal::BindStateBase"* nonnull %33, void ()* bitcast (void (%"class.base::internal::BindStateBase"*, %"class.std::__1::vector.331"*)* @_ZN4base8internal7InvokerINS0_9BindStateIMN16password_manager21PasswordStoreConsumerEFvPNS3_13PasswordStoreENSt3__16vectorINS7_10unique_ptrINS3_12PasswordFormENS7_14default_deleteISA_EEEENS7_9allocatorISD_EEEEEJNS_7WeakPtrIS4_EENS0_18RetainedRefWrapperIS5_EEEEEFvSG_EE7RunOnceEPNS0_13BindStateBaseEOSG_ to void ()*), void (%"class.base::internal::BindStateBase"*)* nonnull @_ZN4base8internal9BindStateIMN16password_manager21PasswordStoreConsumerEFvPNS2_13PasswordStoreENSt3__16vectorINS6_10unique_ptrINS2_12PasswordFormENS6_14default_deleteIS9_EEEENS6_9allocatorISC_EEEEEJNS_7WeakPtrIS3_EENS0_18RetainedRefWrapperIS4_EEEE7DestroyEPKNS0_13BindStateBaseE, i1 (%"class.base::internal::BindStateBase"*, i32)* nonnull @_ZN4base8internal23QueryCancellationTraitsINS0_9BindStateIMN16password_manager21PasswordStoreConsumerEFvPNS3_13PasswordStoreENSt3__16vectorINS7_10unique_ptrINS3_12PasswordFormENS7_14default_deleteISA_EEEENS7_9allocatorISD_EEEEEJNS_7WeakPtrIS4_EENS0_18RetainedRefWrapperIS5_EEEEEEEbPKNS0_13BindStateBaseENSO_21CancellationQueryModeE) #16, !noalias !158
  %34 = getelementptr inbounds i8, i8* %32, i64 32
  %35 = bitcast i8* %34 to <2 x i64>*
  store <2 x i64> <i64 9, i64 0>, <2 x i64>* %35, align 8, !noalias !158
  %36 = getelementptr inbounds i8, i8* %32, i64 48
  %37 = bitcast i8* %36 to %"class.base::internal::WeakReference"*
  %38 = getelementptr inbounds %"class.base::WeakPtr.321", %"class.base::WeakPtr.321"* %10, i64 0, i32 0, i32 0
  call void @_ZN4base8internal13WeakReferenceC1EOS1_(%"class.base::internal::WeakReference"* %37, %"class.base::internal::WeakReference"* nonnull dereferenceable(8) %38) #16, !noalias !158
  %39 = getelementptr inbounds i8, i8* %32, i64 56
  %40 = bitcast i8* %39 to i64*
  %41 = getelementptr inbounds %"class.base::WeakPtr.321", %"class.base::WeakPtr.321"* %10, i64 0, i32 0, i32 1
  %42 = load i64, i64* %41, align 8, !noalias !158
  store i64 %42, i64* %40, align 8, !noalias !158
  %43 = getelementptr inbounds i8, i8* %32, i64 64
  %44 = bitcast i8* %43 to i64*
  store i64 %31, i64* %44, align 8, !noalias !158
  %45 = bitcast %"class.base::OnceCallback.215"* %5 to i8*
  call void @llvm.lifetime.start.p0i8(i64 8, i8* nonnull %45)
  %46 = bitcast %"class.base::OnceCallback.215"* %6 to i8*
  call void @llvm.lifetime.start.p0i8(i64 8, i8* nonnull %46)
  %47 = call i8* @_Znwm(i64 8) #17
  %48 = bitcast i8* %47 to i64*
  store i64 0, i64* %48, align 8
  %49 = ptrtoint i8* %47 to i64
  %50 = call i8* @_Znwm(i64 56) #17, !noalias !163
  %51 = bitcast i8* %50 to %"class.base::internal::BindStateBase"*
  call void @_ZN4base8internal13BindStateBaseC2EPFvvEPFvPKS1_E(%"class.base::internal::BindStateBase"* nonnull %51, void ()* bitcast (void (%"class.base::internal::BindStateBase"*)* @_ZN4base8internal7InvokerINS0_9BindStateIPFvNS_12OnceCallbackIFNSt3__16vectorINS4_10unique_ptrIN16password_manager12PasswordFormENS4_14default_deleteIS8_EEEENS4_9allocatorISB_EEEEvEEEPNS6_ISE_NS9_ISE_EEEEEJSG_NS0_17UnretainedWrapperISI_EEEEEFvvEE7RunOnceEPNS0_13BindStateBaseE to void ()*), void (%"class.base::internal::BindStateBase"*)* nonnull @_ZN4base8internal9BindStateIPFvNS_12OnceCallbackIFNSt3__16vectorINS3_10unique_ptrIN16password_manager12PasswordFormENS3_14default_deleteIS7_EEEENS3_9allocatorISA_EEEEvEEEPNS5_ISD_NS8_ISD_EEEEEJSF_NS0_17UnretainedWrapperISH_EEEE7DestroyEPKNS0_13BindStateBaseE) #16, !noalias !163
  %52 = getelementptr inbounds i8, i8* %50, i64 32
  %53 = bitcast i8* %52 to i64*
  store i64 ptrtoint (void (%"class.base::OnceCallback.329"*, %"class.std::__1::unique_ptr.829"*)* @_ZN4base8internal20ReturnAsParamAdapterINSt3__16vectorINS2_10unique_ptrIN16password_manager12PasswordFormENS2_14default_deleteIS6_EEEENS2_9allocatorIS9_EEEEEEvNS_12OnceCallbackIFT_vEEEPNS4_ISE_NS7_ISE_EEEE to i64), i64* %53, align 8, !noalias !163
  %54 = getelementptr inbounds i8, i8* %50, i64 40
  %55 = getelementptr inbounds %"class.base::OnceCallback.329", %"class.base::OnceCallback.329"* %8, i64 0, i32 0, i32 0, i32 0
  %56 = bitcast i8* %54 to i64*
  store i64 %18, i64* %56, align 8, !noalias !163
  store %"class.base::internal::BindStateBase"* null, %"class.base::internal::BindStateBase"** %55, align 8, !noalias !163
  %57 = getelementptr inbounds i8, i8* %50, i64 48
  %58 = bitcast i8* %57 to i64*
  store i64 %49, i64* %58, align 8, !noalias !163
  %59 = bitcast %"class.base::OnceCallback.215"* %5 to i8**
  store i8* %50, i8** %59, align 8, !alias.scope !163
  %60 = call i8* @_Znwm(i64 56) #17, !noalias !168
  %61 = bitcast i8* %60 to %"class.base::internal::BindStateBase"*
  call void @_ZN4base8internal13BindStateBaseC2EPFvvEPFvPKS1_E(%"class.base::internal::BindStateBase"* nonnull %61, void ()* bitcast (void (%"class.base::internal::BindStateBase"*)* @_ZN4base8internal7InvokerINS0_9BindStateIPFvNS_12OnceCallbackIFvNSt3__16vectorINS4_10unique_ptrIN16password_manager12PasswordFormENS4_14default_deleteIS8_EEEENS4_9allocatorISB_EEEEEEEPNS6_ISE_NS9_ISE_EEEEEJSG_NS0_12OwnedWrapperISI_NS9_ISI_EEEEEEEFvvEE7RunOnceEPNS0_13BindStateBaseE to void ()*), void (%"class.base::internal::BindStateBase"*)* nonnull @_ZN4base8internal9BindStateIPFvNS_12OnceCallbackIFvNSt3__16vectorINS3_10unique_ptrIN16password_manager12PasswordFormENS3_14default_deleteIS7_EEEENS3_9allocatorISA_EEEEEEEPNS5_ISD_NS8_ISD_EEEEEJSF_NS0_12OwnedWrapperISH_NS8_ISH_EEEEEE7DestroyEPKNS0_13BindStateBaseE) #16, !noalias !168
  %62 = getelementptr inbounds i8, i8* %60, i64 32
  %63 = bitcast i8* %62 to i64*
  store i64 ptrtoint (void (%"class.base::OnceCallback.344"*, %"class.std::__1::unique_ptr.829"*)* @_ZN4base8internal12ReplyAdapterINSt3__16vectorINS2_10unique_ptrIN16password_manager12PasswordFormENS2_14default_deleteIS6_EEEENS2_9allocatorIS9_EEEESC_EEvNS_12OnceCallbackIFvT0_EEEPNS4_IT_NS7_ISH_EEEE to i64), i64* %63, align 8, !noalias !168
  %64 = getelementptr inbounds i8, i8* %60, i64 40
  %65 = getelementptr inbounds %"class.base::OnceCallback.344", %"class.base::OnceCallback.344"* %9, i64 0, i32 0, i32 0, i32 0
  %66 = ptrtoint i8* %32 to i64
  %67 = bitcast i8* %64 to i64*
  store i64 %66, i64* %67, align 8, !noalias !168
  store %"class.base::internal::BindStateBase"* null, %"class.base::internal::BindStateBase"** %65, align 8, !noalias !168
  %68 = getelementptr inbounds i8, i8* %60, i64 48
  %69 = bitcast i8* %68 to i64*
  store i64 %49, i64* %69, align 8, !noalias !168
  %70 = bitcast %"class.base::OnceCallback.215"* %6 to i8**
  store i8* %60, i8** %70, align 8, !alias.scope !168
  %71 = call i64 @_ZN4base21CancelableTaskTracker16PostTaskAndReplyEPNS_10TaskRunnerERKNS_8LocationENS_12OnceCallbackIFvvEEES8_(%"class.base::CancelableTaskTracker"* %11, %"class.base::TaskRunner"* %14, %"class.base::Location"* nonnull dereferenceable(32) %7, %"class.base::OnceCallback.215"* nonnull %5, %"class.base::OnceCallback.215"* nonnull %6) #16
  %72 = getelementptr inbounds %"class.base::OnceCallback.215", %"class.base::OnceCallback.215"* %6, i64 0, i32 0
  call void @_ZN4base8internal12CallbackBaseD2Ev(%"class.base::internal::CallbackBase"* nonnull %72) #16
  %73 = getelementptr inbounds %"class.base::OnceCallback.215", %"class.base::OnceCallback.215"* %5, i64 0, i32 0
  call void @_ZN4base8internal12CallbackBaseD2Ev(%"class.base::internal::CallbackBase"* nonnull %73) #16
  call void @llvm.lifetime.end.p0i8(i64 8, i8* nonnull %45)
  call void @llvm.lifetime.end.p0i8(i64 8, i8* nonnull %46)
  %74 = getelementptr inbounds %"class.base::OnceCallback.344", %"class.base::OnceCallback.344"* %9, i64 0, i32 0
  call void @_ZN4base8internal12CallbackBaseD2Ev(%"class.base::internal::CallbackBase"* nonnull %74) #16
  call void @_ZN4base8internal11WeakPtrBaseD2Ev(%"class.base::internal::WeakPtrBase"* nonnull %25) #16
  call void @llvm.lifetime.end.p0i8(i64 16, i8* nonnull %20) #16
  %75 = getelementptr inbounds %"class.base::OnceCallback.329", %"class.base::OnceCallback.329"* %8, i64 0, i32 0
  call void @_ZN4base8internal12CallbackBaseD2Ev(%"class.base::internal::CallbackBase"* nonnull %75) #16
  call void @llvm.lifetime.end.p0i8(i64 32, i8* nonnull %15) #16
  ret void
}

; Function Attrs: nounwind ssp uwtable
define hidden void @_ZN16password_manager13PasswordStore23GetLoginsByPasswordImplERKNSt3__112basic_stringIDsNS1_11char_traitsIDsEENS1_9allocatorIDsEEEE(%"class.std::__1::vector.331"* noalias sret, %"class.password_manager::PasswordStore"*, %"class.std::__1::basic_string.219"* dereferenceable(24)) #0 align 2 {
  %4 = alloca %"class.base::TimeTicks", align 8
  %5 = load i8, i8* getelementptr inbounds ([300 x %"struct.base::trace_event::TraceCategory"], [300 x %"struct.base::trace_event::TraceCategory"]* @_ZN4base11trace_event16CategoryRegistry11categories_E, i64 0, i64 94, i32 0), align 16
  %6 = and i8 %5, 25
  %7 = icmp eq i8 %6, 0
  br i1 %7, label %14, label %8, !prof !5

8:                                                ; preds = %3
  %9 = tail call i32 @_ZN4base14PlatformThread9CurrentIdEv() #16
  %10 = bitcast %"class.base::TimeTicks"* %4 to i8*
  call void @llvm.lifetime.start.p0i8(i64 8, i8* nonnull %10) #16
  %11 = getelementptr inbounds %"class.base::TimeTicks", %"class.base::TimeTicks"* %4, i64 0, i32 0, i32 0
  %12 = tail call i64 @_ZN4base6subtle28TimeTicksNowIgnoringOverrideEv() #16
  store i64 %12, i64* %11, align 8
  %13 = call i64 @_ZN20trace_event_internal37AddTraceEventWithThreadIdAndTimestampEcPKhPKcS3_yyiRKN4base9TimeTicksEPNS4_11trace_event14TraceArgumentsEj(i8 signext 88, i8* getelementptr inbounds ([300 x %"struct.base::trace_event::TraceCategory"], [300 x %"struct.base::trace_event::TraceCategory"]* @_ZN4base11trace_event16CategoryRegistry11categories_E, i64 0, i64 94, i32 0), i8* getelementptr inbounds ([39 x i8], [39 x i8]* @.str.48, i64 0, i64 0), i8* null, i64 0, i64 0, i32 %9, %"class.base::TimeTicks"* nonnull dereferenceable(8) %4, %"class.base::trace_event::TraceArguments"* null, i32 0) #16
  call void @llvm.lifetime.end.p0i8(i64 8, i8* nonnull %10) #16
  br label %14

14:                                               ; preds = %3, %8
  %15 = phi i64 [ -6148914691236517206, %3 ], [ %13, %8 ]
  %16 = phi i8* [ inttoptr (i64 -6148914691236517206 to i8*), %3 ], [ getelementptr inbounds ([39 x i8], [39 x i8]* @.str.48, i64 0, i64 0), %8 ]
  %17 = phi i8* [ null, %3 ], [ getelementptr inbounds ([300 x %"struct.base::trace_event::TraceCategory"], [300 x %"struct.base::trace_event::TraceCategory"]* @_ZN4base11trace_event16CategoryRegistry11categories_E, i64 0, i64 94, i32 0), %8 ]
  %18 = bitcast %"class.password_manager::PasswordStore"* %1 to void (%"class.std::__1::vector.331"*, %"class.password_manager::PasswordStore"*, %"class.std::__1::basic_string.219"*)***
  %19 = load void (%"class.std::__1::vector.331"*, %"class.password_manager::PasswordStore"*, %"class.std::__1::basic_string.219"*)**, void (%"class.std::__1::vector.331"*, %"class.password_manager::PasswordStore"*, %"class.std::__1::basic_string.219"*)*** %18, align 8
  %20 = getelementptr inbounds void (%"class.std::__1::vector.331"*, %"class.password_manager::PasswordStore"*, %"class.std::__1::basic_string.219"*)*, void (%"class.std::__1::vector.331"*, %"class.password_manager::PasswordStore"*, %"class.std::__1::basic_string.219"*)** %19, i64 53
  %21 = load void (%"class.std::__1::vector.331"*, %"class.password_manager::PasswordStore"*, %"class.std::__1::basic_string.219"*)*, void (%"class.std::__1::vector.331"*, %"class.password_manager::PasswordStore"*, %"class.std::__1::basic_string.219"*)** %20, align 8
  call void %21(%"class.std::__1::vector.331"* sret %0, %"class.password_manager::PasswordStore"* %1, %"class.std::__1::basic_string.219"* dereferenceable(24) %2) #16
  %22 = icmp eq i8* %17, null
  br i1 %22, label %27, label %23

23:                                               ; preds = %14
  %24 = load i8, i8* %17, align 1
  %25 = icmp eq i8 %24, 0
  br i1 %25, label %27, label %26

26:                                               ; preds = %23
  call void @_ZN20trace_event_internal24UpdateTraceEventDurationEPKhPKcN4base11trace_event16TraceEventHandleE(i8* nonnull %17, i8* %16, i64 %15) #16
  br label %27

27:                                               ; preds = %14, %23, %26
  ret void
}

; Function Attrs: nounwind ssp uwtable
define hidden void @_ZN16password_manager13PasswordStore21GetAutofillableLoginsEPNS_21PasswordStoreConsumerE(%"class.password_manager::PasswordStore"*, %"class.password_manager::PasswordStoreConsumer"*) unnamed_addr #0 align 2 {
  %3 = alloca %"class.base::OnceCallback.329", align 8
  %4 = tail call i8* @_Znwm(i64 56) #17, !noalias !173
  %5 = bitcast i8* %4 to %"class.base::internal::BindStateBase"*
  tail call void @_ZN4base8internal13BindStateBaseC2EPFvvEPFvPKS1_E(%"class.base::internal::BindStateBase"* nonnull %5, void ()* bitcast (void (%"class.std::__1::vector.331"*, %"class.base::internal::BindStateBase"*)* @_ZN4base8internal7InvokerINS0_9BindStateIMN16password_manager13PasswordStoreEFNSt3__16vectorINS5_10unique_ptrINS3_12PasswordFormENS5_14default_deleteIS8_EEEENS5_9allocatorISB_EEEEvEJ13scoped_refptrIS4_EEEEFSE_vEE7RunOnceEPNS0_13BindStateBaseE to void ()*), void (%"class.base::internal::BindStateBase"*)* nonnull @_ZN4base8internal9BindStateIMN16password_manager13PasswordStoreEFNSt3__16vectorINS4_10unique_ptrINS2_12PasswordFormENS4_14default_deleteIS7_EEEENS4_9allocatorISA_EEEEvEJ13scoped_refptrIS3_EEE7DestroyEPKNS0_13BindStateBaseE) #16, !noalias !173
  %6 = getelementptr inbounds i8, i8* %4, i64 32
  %7 = bitcast i8* %6 to <2 x i64>*
  store <2 x i64> <i64 ptrtoint (void (%"class.std::__1::vector.331"*, %"class.password_manager::PasswordStore"*)* @_ZN16password_manager13PasswordStore25GetAutofillableLoginsImplEv to i64), i64 0>, <2 x i64>* %7, align 8, !noalias !173
  %8 = getelementptr inbounds i8, i8* %4, i64 48
  %9 = bitcast i8* %8 to %"class.password_manager::PasswordStore"**
  store %"class.password_manager::PasswordStore"* %0, %"class.password_manager::PasswordStore"** %9, align 8, !noalias !173
  %10 = icmp eq %"class.password_manager::PasswordStore"* %0, null
  br i1 %10, label %14, label %11

11:                                               ; preds = %2
  %12 = getelementptr inbounds %"class.password_manager::PasswordStore", %"class.password_manager::PasswordStore"* %0, i64 0, i32 1, i32 1, i32 0, i32 0, i32 0, i32 0, i32 0, i32 0, i32 0, i32 0
  %13 = atomicrmw add i32* %12, i32 1 monotonic, !noalias !173
  br label %14

14:                                               ; preds = %2, %11
  %15 = bitcast %"class.base::OnceCallback.329"* %3 to i8**
  store i8* %4, i8** %15, align 8, !alias.scope !173
  call void @_ZN16password_manager13PasswordStore42PostLoginsTaskAndReplyToConsumerWithResultEPNS_21PasswordStoreConsumerEN4base12OnceCallbackIFNSt3__16vectorINS5_10unique_ptrINS_12PasswordFormENS5_14default_deleteIS8_EEEENS5_9allocatorISB_EEEEvEEE(%"class.password_manager::PasswordStore"* %0, %"class.password_manager::PasswordStoreConsumer"* %1, %"class.base::OnceCallback.329"* nonnull %3)
  %16 = getelementptr inbounds %"class.base::OnceCallback.329", %"class.base::OnceCallback.329"* %3, i64 0, i32 0
  call void @_ZN4base8internal12CallbackBaseD2Ev(%"class.base::internal::CallbackBase"* nonnull %16) #16
  ret void
}

; Function Attrs: nounwind ssp uwtable
define hidden void @_ZN16password_manager13PasswordStore25GetAutofillableLoginsImplEv(%"class.std::__1::vector.331"* noalias sret, %"class.password_manager::PasswordStore"*) #0 align 2 {
  %3 = alloca %"class.base::TimeTicks", align 8
  %4 = load i8, i8* getelementptr inbounds ([300 x %"struct.base::trace_event::TraceCategory"], [300 x %"struct.base::trace_event::TraceCategory"]* @_ZN4base11trace_event16CategoryRegistry11categories_E, i64 0, i64 94, i32 0), align 16
  %5 = and i8 %4, 25
  %6 = icmp eq i8 %5, 0
  br i1 %6, label %13, label %7, !prof !5

7:                                                ; preds = %2
  %8 = tail call i32 @_ZN4base14PlatformThread9CurrentIdEv() #16
  %9 = bitcast %"class.base::TimeTicks"* %3 to i8*
  call void @llvm.lifetime.start.p0i8(i64 8, i8* nonnull %9) #16
  %10 = getelementptr inbounds %"class.base::TimeTicks", %"class.base::TimeTicks"* %3, i64 0, i32 0, i32 0
  %11 = tail call i64 @_ZN4base6subtle28TimeTicksNowIgnoringOverrideEv() #16
  store i64 %11, i64* %10, align 8
  %12 = call i64 @_ZN20trace_event_internal37AddTraceEventWithThreadIdAndTimestampEcPKhPKcS3_yyiRKN4base9TimeTicksEPNS4_11trace_event14TraceArgumentsEj(i8 signext 88, i8* getelementptr inbounds ([300 x %"struct.base::trace_event::TraceCategory"], [300 x %"struct.base::trace_event::TraceCategory"]* @_ZN4base11trace_event16CategoryRegistry11categories_E, i64 0, i64 94, i32 0), i8* getelementptr inbounds ([41 x i8], [41 x i8]* @.str.49, i64 0, i64 0), i8* null, i64 0, i64 0, i32 %8, %"class.base::TimeTicks"* nonnull dereferenceable(8) %3, %"class.base::trace_event::TraceArguments"* null, i32 0) #16
  call void @llvm.lifetime.end.p0i8(i64 8, i8* nonnull %9) #16
  br label %13

13:                                               ; preds = %2, %7
  %14 = phi i64 [ -6148914691236517206, %2 ], [ %12, %7 ]
  %15 = phi i8* [ inttoptr (i64 -6148914691236517206 to i8*), %2 ], [ getelementptr inbounds ([41 x i8], [41 x i8]* @.str.49, i64 0, i64 0), %7 ]
  %16 = phi i8* [ null, %2 ], [ getelementptr inbounds ([300 x %"struct.base::trace_event::TraceCategory"], [300 x %"struct.base::trace_event::TraceCategory"]* @_ZN4base11trace_event16CategoryRegistry11categories_E, i64 0, i64 94, i32 0), %7 ]
  %17 = getelementptr inbounds %"class.std::__1::vector.331", %"class.std::__1::vector.331"* %0, i64 0, i32 0, i32 1
  %18 = bitcast %"class.std::__1::vector.331"* %0 to i8*
  call void @llvm.memset.p0i8.i64(i8* align 8 %18, i8 0, i64 24, i1 false) #16
  %19 = bitcast %"class.password_manager::PasswordStore"* %1 to i1 (%"class.password_manager::PasswordStore"*, %"class.std::__1::vector.331"*)***
  %20 = load i1 (%"class.password_manager::PasswordStore"*, %"class.std::__1::vector.331"*)**, i1 (%"class.password_manager::PasswordStore"*, %"class.std::__1::vector.331"*)*** %19, align 8
  %21 = getelementptr inbounds i1 (%"class.password_manager::PasswordStore"*, %"class.std::__1::vector.331"*)*, i1 (%"class.password_manager::PasswordStore"*, %"class.std::__1::vector.331"*)** %20, i64 54
  %22 = load i1 (%"class.password_manager::PasswordStore"*, %"class.std::__1::vector.331"*)*, i1 (%"class.password_manager::PasswordStore"*, %"class.std::__1::vector.331"*)** %21, align 8
  %23 = call zeroext i1 %22(%"class.password_manager::PasswordStore"* %1, %"class.std::__1::vector.331"* %0) #16
  br i1 %23, label %40, label %24

24:                                               ; preds = %13
  %25 = getelementptr inbounds %"class.std::__1::vector.331", %"class.std::__1::vector.331"* %0, i64 0, i32 0, i32 0
  %26 = load %"class.std::__1::unique_ptr.333"*, %"class.std::__1::unique_ptr.333"** %25, align 8
  %27 = load %"class.std::__1::unique_ptr.333"*, %"class.std::__1::unique_ptr.333"** %17, align 8
  %28 = icmp eq %"class.std::__1::unique_ptr.333"* %27, %26
  br i1 %28, label %39, label %29

29:                                               ; preds = %24, %37
  %30 = phi %"class.std::__1::unique_ptr.333"* [ %31, %37 ], [ %27, %24 ]
  %31 = getelementptr inbounds %"class.std::__1::unique_ptr.333", %"class.std::__1::unique_ptr.333"* %30, i64 -1
  %32 = getelementptr inbounds %"class.std::__1::unique_ptr.333", %"class.std::__1::unique_ptr.333"* %31, i64 0, i32 0, i32 0, i32 0
  %33 = load %"struct.password_manager::PasswordForm"*, %"struct.password_manager::PasswordForm"** %32, align 8
  store %"struct.password_manager::PasswordForm"* null, %"struct.password_manager::PasswordForm"** %32, align 8
  %34 = icmp eq %"struct.password_manager::PasswordForm"* %33, null
  br i1 %34, label %37, label %35

35:                                               ; preds = %29
  call void @_ZN16password_manager12PasswordFormD1Ev(%"struct.password_manager::PasswordForm"* nonnull %33) #16
  %36 = bitcast %"struct.password_manager::PasswordForm"* %33 to i8*
  call void @_ZdlPv(i8* %36) #17
  br label %37

37:                                               ; preds = %35, %29
  %38 = icmp eq %"class.std::__1::unique_ptr.333"* %31, %26
  br i1 %38, label %39, label %29

39:                                               ; preds = %37, %24
  store %"class.std::__1::unique_ptr.333"* %26, %"class.std::__1::unique_ptr.333"** %17, align 8
  br label %40

40:                                               ; preds = %13, %39
  %41 = icmp eq i8* %16, null
  br i1 %41, label %46, label %42

42:                                               ; preds = %40
  %43 = load i8, i8* %16, align 1
  %44 = icmp eq i8 %43, 0
  br i1 %44, label %46, label %45

45:                                               ; preds = %42
  call void @_ZN20trace_event_internal24UpdateTraceEventDurationEPKhPKcN4base11trace_event16TraceEventHandleE(i8* nonnull %16, i8* %15, i64 %14) #16
  br label %46

46:                                               ; preds = %40, %42, %45
  ret void
}

; Function Attrs: nounwind ssp uwtable
define hidden void @_ZN16password_manager13PasswordStore12GetAllLoginsEPNS_21PasswordStoreConsumerE(%"class.password_manager::PasswordStore"*, %"class.password_manager::PasswordStoreConsumer"*) unnamed_addr #0 align 2 {
  %3 = alloca %"class.base::OnceCallback.329", align 8
  %4 = tail call i8* @_Znwm(i64 56) #17, !noalias !178
  %5 = bitcast i8* %4 to %"class.base::internal::BindStateBase"*
  tail call void @_ZN4base8internal13BindStateBaseC2EPFvvEPFvPKS1_E(%"class.base::internal::BindStateBase"* nonnull %5, void ()* bitcast (void (%"class.std::__1::vector.331"*, %"class.base::internal::BindStateBase"*)* @_ZN4base8internal7InvokerINS0_9BindStateIMN16password_manager13PasswordStoreEFNSt3__16vectorINS5_10unique_ptrINS3_12PasswordFormENS5_14default_deleteIS8_EEEENS5_9allocatorISB_EEEEvEJ13scoped_refptrIS4_EEEEFSE_vEE7RunOnceEPNS0_13BindStateBaseE to void ()*), void (%"class.base::internal::BindStateBase"*)* nonnull @_ZN4base8internal9BindStateIMN16password_manager13PasswordStoreEFNSt3__16vectorINS4_10unique_ptrINS2_12PasswordFormENS4_14default_deleteIS7_EEEENS4_9allocatorISA_EEEEvEJ13scoped_refptrIS3_EEE7DestroyEPKNS0_13BindStateBaseE) #16, !noalias !178
  %6 = getelementptr inbounds i8, i8* %4, i64 32
  %7 = bitcast i8* %6 to <2 x i64>*
  store <2 x i64> <i64 ptrtoint (void (%"class.std::__1::vector.331"*, %"class.password_manager::PasswordStore"*)* @_ZN16password_manager13PasswordStore16GetAllLoginsImplEv to i64), i64 0>, <2 x i64>* %7, align 8, !noalias !178
  %8 = getelementptr inbounds i8, i8* %4, i64 48
  %9 = bitcast i8* %8 to %"class.password_manager::PasswordStore"**
  store %"class.password_manager::PasswordStore"* %0, %"class.password_manager::PasswordStore"** %9, align 8, !noalias !178
  %10 = icmp eq %"class.password_manager::PasswordStore"* %0, null
  br i1 %10, label %14, label %11

11:                                               ; preds = %2
  %12 = getelementptr inbounds %"class.password_manager::PasswordStore", %"class.password_manager::PasswordStore"* %0, i64 0, i32 1, i32 1, i32 0, i32 0, i32 0, i32 0, i32 0, i32 0, i32 0, i32 0
  %13 = atomicrmw add i32* %12, i32 1 monotonic, !noalias !178
  br label %14

14:                                               ; preds = %2, %11
  %15 = bitcast %"class.base::OnceCallback.329"* %3 to i8**
  store i8* %4, i8** %15, align 8, !alias.scope !178
  call void @_ZN16password_manager13PasswordStore42PostLoginsTaskAndReplyToConsumerWithResultEPNS_21PasswordStoreConsumerEN4base12OnceCallbackIFNSt3__16vectorINS5_10unique_ptrINS_12PasswordFormENS5_14default_deleteIS8_EEEENS5_9allocatorISB_EEEEvEEE(%"class.password_manager::PasswordStore"* %0, %"class.password_manager::PasswordStoreConsumer"* %1, %"class.base::OnceCallback.329"* nonnull %3)
  %16 = getelementptr inbounds %"class.base::OnceCallback.329", %"class.base::OnceCallback.329"* %3, i64 0, i32 0
  call void @_ZN4base8internal12CallbackBaseD2Ev(%"class.base::internal::CallbackBase"* nonnull %16) #16
  ret void
}

; Function Attrs: nounwind ssp uwtable
define hidden void @_ZN16password_manager13PasswordStore16GetAllLoginsImplEv(%"class.std::__1::vector.331"* noalias sret, %"class.password_manager::PasswordStore"*) #0 align 2 {
  %3 = alloca %"class.base::TimeTicks", align 8
  %4 = alloca %"class.std::__1::vector.331", align 8
  %5 = load i8, i8* getelementptr inbounds ([300 x %"struct.base::trace_event::TraceCategory"], [300 x %"struct.base::trace_event::TraceCategory"]* @_ZN4base11trace_event16CategoryRegistry11categories_E, i64 0, i64 94, i32 0), align 16
  %6 = and i8 %5, 25
  %7 = icmp eq i8 %6, 0
  br i1 %7, label %19, label %8, !prof !5

8:                                                ; preds = %2
  %9 = tail call i32 @_ZN4base14PlatformThread9CurrentIdEv() #16
  %10 = bitcast %"class.base::TimeTicks"* %3 to i8*
  call void @llvm.lifetime.start.p0i8(i64 8, i8* nonnull %10) #16
  %11 = getelementptr inbounds %"class.base::TimeTicks", %"class.base::TimeTicks"* %3, i64 0, i32 0, i32 0
  %12 = tail call i64 @_ZN4base6subtle28TimeTicksNowIgnoringOverrideEv() #16
  store i64 %12, i64* %11, align 8
  %13 = call i64 @_ZN20trace_event_internal37AddTraceEventWithThreadIdAndTimestampEcPKhPKcS3_yyiRKN4base9TimeTicksEPNS4_11trace_event14TraceArgumentsEj(i8 signext 88, i8* getelementptr inbounds ([300 x %"struct.base::trace_event::TraceCategory"], [300 x %"struct.base::trace_event::TraceCategory"]* @_ZN4base11trace_event16CategoryRegistry11categories_E, i64 0, i64 94, i32 0), i8* getelementptr inbounds ([32 x i8], [32 x i8]* @.str.50, i64 0, i64 0), i8* null, i64 0, i64 0, i32 %9, %"class.base::TimeTicks"* nonnull dereferenceable(8) %3, %"class.base::trace_event::TraceArguments"* null, i32 0) #16
  call void @llvm.lifetime.end.p0i8(i64 8, i8* nonnull %10) #16
  br label %19

14:                                               ; preds = %93
  %15 = load i8, i8* %20, align 1
  %16 = icmp eq i8 %15, 0
  br i1 %16, label %18, label %17

17:                                               ; preds = %14
  call void @_ZN20trace_event_internal24UpdateTraceEventDurationEPKhPKcN4base11trace_event16TraceEventHandleE(i8* nonnull %20, i8* %21, i64 %22) #16
  br label %18

18:                                               ; preds = %93, %14, %17
  ret void

19:                                               ; preds = %2, %8
  %20 = phi i8* [ null, %2 ], [ getelementptr inbounds ([300 x %"struct.base::trace_event::TraceCategory"], [300 x %"struct.base::trace_event::TraceCategory"]* @_ZN4base11trace_event16CategoryRegistry11categories_E, i64 0, i64 94, i32 0), %8 ]
  %21 = phi i8* [ inttoptr (i64 -6148914691236517206 to i8*), %2 ], [ getelementptr inbounds ([32 x i8], [32 x i8]* @.str.50, i64 0, i64 0), %8 ]
  %22 = phi i64 [ -6148914691236517206, %2 ], [ %13, %8 ]
  %23 = getelementptr inbounds %"class.std::__1::vector.331", %"class.std::__1::vector.331"* %0, i64 0, i32 0, i32 1
  %24 = bitcast %"class.std::__1::vector.331"* %0 to i8*
  call void @llvm.memset.p0i8.i64(i8* align 8 %24, i8 0, i64 24, i1 false) #16
  %25 = bitcast %"class.std::__1::vector.331"* %4 to i8*
  %26 = getelementptr inbounds %"class.std::__1::vector.331", %"class.std::__1::vector.331"* %4, i64 0, i32 0, i32 0
  %27 = getelementptr inbounds %"class.std::__1::vector.331", %"class.std::__1::vector.331"* %4, i64 0, i32 0, i32 1
  %28 = bitcast %"class.std::__1::vector.331"* %4 to i8**
  call void @llvm.lifetime.start.p0i8(i64 24, i8* nonnull %25) #16
  call void @llvm.memset.p0i8.i64(i8* nonnull align 8 %25, i8 0, i64 24, i1 false) #16
  %29 = bitcast %"class.password_manager::PasswordStore"* %1 to i8**
  %30 = load i8*, i8** %29, align 8
  %31 = getelementptr i8, i8* %30, i64 432
  %32 = bitcast i8* %31 to i1 (%"class.password_manager::PasswordStore"*, %"class.std::__1::vector.331"*)**
  %33 = load i1 (%"class.password_manager::PasswordStore"*, %"class.std::__1::vector.331"*)*, i1 (%"class.password_manager::PasswordStore"*, %"class.std::__1::vector.331"*)** %32, align 8
  %34 = call zeroext i1 %33(%"class.password_manager::PasswordStore"* %1, %"class.std::__1::vector.331"* nonnull %4) #16
  br i1 %34, label %35, label %39

35:                                               ; preds = %19
  %36 = load %"class.std::__1::unique_ptr.333"*, %"class.std::__1::unique_ptr.333"** %26, align 8
  %37 = load %"class.std::__1::unique_ptr.333"*, %"class.std::__1::unique_ptr.333"** %27, align 8
  %38 = call %"class.std::__1::unique_ptr.333"* @_ZNSt3__16vectorINS_10unique_ptrIN16password_manager12PasswordFormENS_14default_deleteIS3_EEEENS_9allocatorIS6_EEE6insertINS_13move_iteratorINS_11__wrap_iterIPS6_EEEEEENS_9enable_ifIXaasr27__is_cpp17_forward_iteratorIT_EE5valuesr16is_constructibleIS6_NS_15iterator_traitsISH_E9referenceEEE5valueESE_E4typeENSC_IPKS6_EESH_SH_(%"class.std::__1::vector.331"* %0, %"class.std::__1::unique_ptr.333"* null, %"class.std::__1::unique_ptr.333"* %36, %"class.std::__1::unique_ptr.333"* %37)
  br label %39

39:                                               ; preds = %35, %19
  %40 = load %"class.std::__1::unique_ptr.333"*, %"class.std::__1::unique_ptr.333"** %26, align 8
  %41 = icmp eq %"class.std::__1::unique_ptr.333"* %40, null
  br i1 %41, label %60, label %42

42:                                               ; preds = %39
  %43 = bitcast %"class.std::__1::unique_ptr.333"* %40 to i8*
  %44 = load %"class.std::__1::unique_ptr.333"*, %"class.std::__1::unique_ptr.333"** %27, align 8
  %45 = icmp eq %"class.std::__1::unique_ptr.333"* %44, %40
  br i1 %45, label %58, label %46

46:                                               ; preds = %42, %54
  %47 = phi %"class.std::__1::unique_ptr.333"* [ %48, %54 ], [ %44, %42 ]
  %48 = getelementptr inbounds %"class.std::__1::unique_ptr.333", %"class.std::__1::unique_ptr.333"* %47, i64 -1
  %49 = getelementptr inbounds %"class.std::__1::unique_ptr.333", %"class.std::__1::unique_ptr.333"* %48, i64 0, i32 0, i32 0, i32 0
  %50 = load %"struct.password_manager::PasswordForm"*, %"struct.password_manager::PasswordForm"** %49, align 8
  store %"struct.password_manager::PasswordForm"* null, %"struct.password_manager::PasswordForm"** %49, align 8
  %51 = icmp eq %"struct.password_manager::PasswordForm"* %50, null
  br i1 %51, label %54, label %52

52:                                               ; preds = %46
  call void @_ZN16password_manager12PasswordFormD1Ev(%"struct.password_manager::PasswordForm"* nonnull %50) #16
  %53 = bitcast %"struct.password_manager::PasswordForm"* %50 to i8*
  call void @_ZdlPv(i8* %53) #17
  br label %54

54:                                               ; preds = %52, %46
  %55 = icmp eq %"class.std::__1::unique_ptr.333"* %48, %40
  br i1 %55, label %56, label %46

56:                                               ; preds = %54
  %57 = load i8*, i8** %28, align 8
  br label %58

58:                                               ; preds = %56, %42
  %59 = phi i8* [ %57, %56 ], [ %43, %42 ]
  store %"class.std::__1::unique_ptr.333"* %40, %"class.std::__1::unique_ptr.333"** %27, align 8
  call void @_ZdlPv(i8* %59) #17
  br label %60

60:                                               ; preds = %39, %58
  call void @llvm.lifetime.end.p0i8(i64 24, i8* nonnull %25) #16
  call void @llvm.lifetime.start.p0i8(i64 24, i8* nonnull %25) #16
  call void @llvm.memset.p0i8.i64(i8* nonnull align 8 %25, i8 0, i64 24, i1 false) #16
  %61 = bitcast %"class.password_manager::PasswordStore"* %1 to i8**
  %62 = load i8*, i8** %61, align 8
  %63 = getelementptr i8, i8* %62, i64 440
  %64 = bitcast i8* %63 to i1 (%"class.password_manager::PasswordStore"*, %"class.std::__1::vector.331"*)**
  %65 = load i1 (%"class.password_manager::PasswordStore"*, %"class.std::__1::vector.331"*)*, i1 (%"class.password_manager::PasswordStore"*, %"class.std::__1::vector.331"*)** %64, align 8
  %66 = call zeroext i1 %65(%"class.password_manager::PasswordStore"* %1, %"class.std::__1::vector.331"* nonnull %4) #16
  br i1 %66, label %67, label %72

67:                                               ; preds = %60
  %68 = load %"class.std::__1::unique_ptr.333"*, %"class.std::__1::unique_ptr.333"** %23, align 8
  %69 = load %"class.std::__1::unique_ptr.333"*, %"class.std::__1::unique_ptr.333"** %26, align 8
  %70 = load %"class.std::__1::unique_ptr.333"*, %"class.std::__1::unique_ptr.333"** %27, align 8
  %71 = call %"class.std::__1::unique_ptr.333"* @_ZNSt3__16vectorINS_10unique_ptrIN16password_manager12PasswordFormENS_14default_deleteIS3_EEEENS_9allocatorIS6_EEE6insertINS_13move_iteratorINS_11__wrap_iterIPS6_EEEEEENS_9enable_ifIXaasr27__is_cpp17_forward_iteratorIT_EE5valuesr16is_constructibleIS6_NS_15iterator_traitsISH_E9referenceEEE5valueESE_E4typeENSC_IPKS6_EESH_SH_(%"class.std::__1::vector.331"* %0, %"class.std::__1::unique_ptr.333"* %68, %"class.std::__1::unique_ptr.333"* %69, %"class.std::__1::unique_ptr.333"* %70)
  br label %72

72:                                               ; preds = %67, %60
  %73 = load %"class.std::__1::unique_ptr.333"*, %"class.std::__1::unique_ptr.333"** %26, align 8
  %74 = icmp eq %"class.std::__1::unique_ptr.333"* %73, null
  br i1 %74, label %93, label %75

75:                                               ; preds = %72
  %76 = bitcast %"class.std::__1::unique_ptr.333"* %73 to i8*
  %77 = load %"class.std::__1::unique_ptr.333"*, %"class.std::__1::unique_ptr.333"** %27, align 8
  %78 = icmp eq %"class.std::__1::unique_ptr.333"* %77, %73
  br i1 %78, label %91, label %79

79:                                               ; preds = %75, %87
  %80 = phi %"class.std::__1::unique_ptr.333"* [ %81, %87 ], [ %77, %75 ]
  %81 = getelementptr inbounds %"class.std::__1::unique_ptr.333", %"class.std::__1::unique_ptr.333"* %80, i64 -1
  %82 = getelementptr inbounds %"class.std::__1::unique_ptr.333", %"class.std::__1::unique_ptr.333"* %81, i64 0, i32 0, i32 0, i32 0
  %83 = load %"struct.password_manager::PasswordForm"*, %"struct.password_manager::PasswordForm"** %82, align 8
  store %"struct.password_manager::PasswordForm"* null, %"struct.password_manager::PasswordForm"** %82, align 8
  %84 = icmp eq %"struct.password_manager::PasswordForm"* %83, null
  br i1 %84, label %87, label %85

85:                                               ; preds = %79
  call void @_ZN16password_manager12PasswordFormD1Ev(%"struct.password_manager::PasswordForm"* nonnull %83) #16
  %86 = bitcast %"struct.password_manager::PasswordForm"* %83 to i8*
  call void @_ZdlPv(i8* %86) #17
  br label %87

87:                                               ; preds = %85, %79
  %88 = icmp eq %"class.std::__1::unique_ptr.333"* %81, %73
  br i1 %88, label %89, label %79

89:                                               ; preds = %87
  %90 = load i8*, i8** %28, align 8
  br label %91

91:                                               ; preds = %89, %75
  %92 = phi i8* [ %90, %89 ], [ %76, %75 ]
  store %"class.std::__1::unique_ptr.333"* %73, %"class.std::__1::unique_ptr.333"** %27, align 8
  call void @_ZdlPv(i8* %92) #17
  br label %93

93:                                               ; preds = %91, %72
  call void @llvm.lifetime.end.p0i8(i64 24, i8* nonnull %25) #16
  %94 = icmp eq i8* %20, null
  br i1 %94, label %18, label %14
}

; Function Attrs: nounwind ssp uwtable
define hidden void @_ZN16password_manager13PasswordStore49GetAllLoginsWithAffiliationAndBrandingInformationEPNS_21PasswordStoreConsumerE(%"class.password_manager::PasswordStore"*, %"class.password_manager::PasswordStoreConsumer"*) unnamed_addr #0 align 2 {
  %3 = alloca %"class.base::TimeTicks", align 8
  %4 = alloca %"class.base::OnceCallback.329", align 8
  %5 = alloca %"class.base::OnceCallback.330", align 8
  %6 = load i8, i8* getelementptr inbounds ([300 x %"struct.base::trace_event::TraceCategory"], [300 x %"struct.base::trace_event::TraceCategory"]* @_ZN4base11trace_event16CategoryRegistry11categories_E, i64 0, i64 94, i32 0), align 16
  %7 = and i8 %6, 25
  %8 = icmp eq i8 %7, 0
  br i1 %8, label %16, label %9, !prof !5

9:                                                ; preds = %2
  %10 = ptrtoint %"class.password_manager::PasswordStoreConsumer"* %1 to i64
  %11 = tail call i32 @_ZN4base14PlatformThread9CurrentIdEv() #16
  %12 = bitcast %"class.base::TimeTicks"* %3 to i8*
  call void @llvm.lifetime.start.p0i8(i64 8, i8* nonnull %12) #16
  %13 = getelementptr inbounds %"class.base::TimeTicks", %"class.base::TimeTicks"* %3, i64 0, i32 0, i32 0
  %14 = tail call i64 @_ZN4base6subtle28TimeTicksNowIgnoringOverrideEv() #16
  store i64 %14, i64* %13, align 8
  %15 = call i64 @_ZN20trace_event_internal37AddTraceEventWithThreadIdAndTimestampEcPKhPKcS3_yyiRKN4base9TimeTicksEPNS4_11trace_event14TraceArgumentsEj(i8 signext 98, i8* getelementptr inbounds ([300 x %"struct.base::trace_event::TraceCategory"], [300 x %"struct.base::trace_event::TraceCategory"]* @_ZN4base11trace_event16CategoryRegistry11categories_E, i64 0, i64 94, i32 0), i8* getelementptr inbounds ([65 x i8], [65 x i8]* @.str.10, i64 0, i64 0), i8* null, i64 %10, i64 0, i32 %11, %"class.base::TimeTicks"* nonnull dereferenceable(8) %3, %"class.base::trace_event::TraceArguments"* null, i32 2048) #16
  call void @llvm.lifetime.end.p0i8(i64 8, i8* nonnull %12) #16
  br label %16

16:                                               ; preds = %2, %9
  %17 = call i8* @_Znwm(i64 56) #17, !noalias !183
  %18 = bitcast i8* %17 to %"class.base::internal::BindStateBase"*
  call void @_ZN4base8internal13BindStateBaseC2EPFvvEPFvPKS1_E(%"class.base::internal::BindStateBase"* nonnull %18, void ()* bitcast (void (%"class.std::__1::vector.331"*, %"class.base::internal::BindStateBase"*)* @_ZN4base8internal7InvokerINS0_9BindStateIMN16password_manager13PasswordStoreEFNSt3__16vectorINS5_10unique_ptrINS3_12PasswordFormENS5_14default_deleteIS8_EEEENS5_9allocatorISB_EEEEvEJ13scoped_refptrIS4_EEEEFSE_vEE7RunOnceEPNS0_13BindStateBaseE to void ()*), void (%"class.base::internal::BindStateBase"*)* nonnull @_ZN4base8internal9BindStateIMN16password_manager13PasswordStoreEFNSt3__16vectorINS4_10unique_ptrINS2_12PasswordFormENS4_14default_deleteIS7_EEEENS4_9allocatorISA_EEEEvEJ13scoped_refptrIS3_EEE7DestroyEPKNS0_13BindStateBaseE) #16, !noalias !183
  %19 = getelementptr inbounds i8, i8* %17, i64 32
  %20 = bitcast i8* %19 to <2 x i64>*
  store <2 x i64> <i64 ptrtoint (void (%"class.std::__1::vector.331"*, %"class.password_manager::PasswordStore"*)* @_ZN16password_manager13PasswordStore16GetAllLoginsImplEv to i64), i64 0>, <2 x i64>* %20, align 8, !noalias !183
  %21 = getelementptr inbounds i8, i8* %17, i64 48
  %22 = bitcast i8* %21 to %"class.password_manager::PasswordStore"**
  store %"class.password_manager::PasswordStore"* %0, %"class.password_manager::PasswordStore"** %22, align 8, !noalias !183
  %23 = icmp eq %"class.password_manager::PasswordStore"* %0, null
  br i1 %23, label %27, label %24

24:                                               ; preds = %16
  %25 = getelementptr inbounds %"class.password_manager::PasswordStore", %"class.password_manager::PasswordStore"* %0, i64 0, i32 1, i32 1, i32 0, i32 0, i32 0, i32 0, i32 0, i32 0, i32 0, i32 0
  %26 = atomicrmw add i32* %25, i32 1 monotonic, !noalias !183
  br label %27

27:                                               ; preds = %16, %24
  %28 = bitcast %"class.base::OnceCallback.329"* %4 to i8**
  store i8* %17, i8** %28, align 8, !alias.scope !183
  %29 = call i8* @_Znwm(i64 56) #17, !noalias !188
  %30 = bitcast i8* %29 to %"class.base::internal::BindStateBase"*
  call void @_ZN4base8internal13BindStateBaseC2EPFvvEPFvPKS1_E(%"class.base::internal::BindStateBase"* nonnull %30, void ()* bitcast (void (%"class.base::internal::BindStateBase"*, %"class.base::OnceCallback.344"*, %"class.std::__1::vector.331"*)* @_ZN4base8internal7InvokerINS0_9BindStateIMN16password_manager13PasswordStoreEFvNS_12OnceCallbackIFvNSt3__16vectorINS6_10unique_ptrINS3_12PasswordFormENS6_14default_deleteIS9_EEEENS6_9allocatorISC_EEEEEEESF_EJ13scoped_refptrIS4_EEEEFvSH_SF_EE7RunOnceEPNS0_13BindStateBaseEOSH_OSF_ to void ()*), void (%"class.base::internal::BindStateBase"*)* nonnull @_ZN4base8internal9BindStateIMN16password_manager13PasswordStoreEFvNS_12OnceCallbackIFvNSt3__16vectorINS5_10unique_ptrINS2_12PasswordFormENS5_14default_deleteIS8_EEEENS5_9allocatorISB_EEEEEEESE_EJ13scoped_refptrIS3_EEE7DestroyEPKNS0_13BindStateBaseE) #16, !noalias !188
  %31 = getelementptr inbounds i8, i8* %29, i64 32
  %32 = bitcast i8* %31 to <2 x i64>*
  store <2 x i64> <i64 ptrtoint (void (%"class.password_manager::PasswordStore"*, %"class.base::OnceCallback.344"*, %"class.std::__1::vector.331"*)* @_ZN16password_manager13PasswordStore39InjectAffiliationAndBrandingInformationEN4base12OnceCallbackIFvNSt3__16vectorINS3_10unique_ptrINS_12PasswordFormENS3_14default_deleteIS6_EEEENS3_9allocatorIS9_EEEEEEESC_ to i64), i64 0>, <2 x i64>* %32, align 8, !noalias !188
  %33 = getelementptr inbounds i8, i8* %29, i64 48
  %34 = bitcast i8* %33 to %"class.password_manager::PasswordStore"**
  store %"class.password_manager::PasswordStore"* %0, %"class.password_manager::PasswordStore"** %34, align 8, !noalias !188
  br i1 %23, label %38, label %35

35:                                               ; preds = %27
  %36 = getelementptr inbounds %"class.password_manager::PasswordStore", %"class.password_manager::PasswordStore"* %0, i64 0, i32 1, i32 1, i32 0, i32 0, i32 0, i32 0, i32 0, i32 0, i32 0, i32 0
  %37 = atomicrmw add i32* %36, i32 1 monotonic, !noalias !188
  br label %38

38:                                               ; preds = %27, %35
  %39 = bitcast %"class.base::OnceCallback.330"* %5 to i8**
  store i8* %29, i8** %39, align 8, !alias.scope !188
  call void @_ZN16password_manager13PasswordStore51PostLoginsTaskAndReplyToConsumerWithProcessedResultEPKcPNS_21PasswordStoreConsumerEN4base12OnceCallbackIFNSt3__16vectorINS7_10unique_ptrINS_12PasswordFormENS7_14default_deleteISA_EEEENS7_9allocatorISD_EEEEvEEENS6_IFvNS6_IFvSG_EEESG_EEE(%"class.password_manager::PasswordStore"* %0, i8* getelementptr inbounds ([65 x i8], [65 x i8]* @.str.10, i64 0, i64 0), %"class.password_manager::PasswordStoreConsumer"* %1, %"class.base::OnceCallback.329"* nonnull %4, %"class.base::OnceCallback.330"* nonnull %5)
  %40 = getelementptr inbounds %"class.base::OnceCallback.330", %"class.base::OnceCallback.330"* %5, i64 0, i32 0
  call void @_ZN4base8internal12CallbackBaseD2Ev(%"class.base::internal::CallbackBase"* nonnull %40) #16
  %41 = getelementptr inbounds %"class.base::OnceCallback.329", %"class.base::OnceCallback.329"* %4, i64 0, i32 0
  call void @_ZN4base8internal12CallbackBaseD2Ev(%"class.base::internal::CallbackBase"* nonnull %41) #16
  ret void
}

; Function Attrs: nounwind ssp uwtable
define hidden void @_ZN16password_manager13PasswordStore39InjectAffiliationAndBrandingInformationEN4base12OnceCallbackIFvNSt3__16vectorINS3_10unique_ptrINS_12PasswordFormENS3_14default_deleteIS6_EEEENS3_9allocatorIS9_EEEEEEESC_(%"class.password_manager::PasswordStore"* nocapture readonly, %"class.base::OnceCallback.344"* nocapture, %"class.std::__1::vector.331"* nocapture) #0 align 2 {
  %4 = alloca %"class.base::OnceCallback.344", align 8
  %5 = alloca %"class.std::__1::vector.331", align 8
  %6 = alloca %"class.base::OnceCallback.344", align 8
  %7 = alloca %"class.std::__1::vector.331", align 8
  %8 = getelementptr inbounds %"class.password_manager::PasswordStore", %"class.password_manager::PasswordStore"* %0, i64 0, i32 8, i32 0, i32 0, i32 0
  %9 = load %"class.password_manager::AffiliatedMatchHelper"*, %"class.password_manager::AffiliatedMatchHelper"** %8, align 8
  %10 = icmp eq %"class.password_manager::AffiliatedMatchHelper"* %9, null
  %11 = bitcast %"class.std::__1::vector.331"* %2 to i64*
  %12 = load i64, i64* %11, align 8
  br i1 %10, label %52, label %13

13:                                               ; preds = %3
  %14 = bitcast %"class.std::__1::vector.331"* %5 to i64*
  store i64 %12, i64* %14, align 8
  %15 = getelementptr inbounds %"class.std::__1::vector.331", %"class.std::__1::vector.331"* %2, i64 0, i32 0, i32 1
  %16 = getelementptr inbounds %"class.std::__1::vector.331", %"class.std::__1::vector.331"* %5, i64 0, i32 0, i32 1
  %17 = bitcast %"class.std::__1::unique_ptr.333"** %15 to <2 x i64>*
  %18 = load <2 x i64>, <2 x i64>* %17, align 8
  %19 = bitcast %"class.std::__1::unique_ptr.333"** %16 to <2 x i64>*
  store <2 x i64> %18, <2 x i64>* %19, align 8
  %20 = bitcast %"class.std::__1::vector.331"* %2 to i8*
  tail call void @llvm.memset.p0i8.i64(i8* align 8 %20, i8 0, i64 24, i1 false) #16
  %21 = getelementptr inbounds %"class.base::OnceCallback.344", %"class.base::OnceCallback.344"* %1, i64 0, i32 0, i32 0, i32 0
  %22 = bitcast %"class.base::OnceCallback.344"* %1 to i64*
  %23 = load i64, i64* %22, align 8
  %24 = bitcast %"class.base::OnceCallback.344"* %6 to i64*
  store i64 %23, i64* %24, align 8
  store %"class.base::internal::BindStateBase"* null, %"class.base::internal::BindStateBase"** %21, align 8
  %25 = bitcast %"class.password_manager::AffiliatedMatchHelper"* %9 to void (%"class.password_manager::AffiliatedMatchHelper"*, %"class.std::__1::vector.331"*, i32, %"class.base::OnceCallback.344"*)***
  %26 = load void (%"class.password_manager::AffiliatedMatchHelper"*, %"class.std::__1::vector.331"*, i32, %"class.base::OnceCallback.344"*)**, void (%"class.password_manager::AffiliatedMatchHelper"*, %"class.std::__1::vector.331"*, i32, %"class.base::OnceCallback.344"*)*** %25, align 8
