; ModuleID = '../../components/payments/content/payment_credential_enrollment_controller.cc'
source_filename = "../../components/payments/content/payment_credential_enrollment_controller.cc"
target datalayout = "e-m:e-i64:64-f80:128-n8:16:32:64-S128"
target triple = "x86_64-unknown-linux-gnu"

module asm ".symver exp, exp@GLIBC_2.2.5"
module asm ".symver exp2, exp2@GLIBC_2.2.5"
module asm ".symver exp2f, exp2f@GLIBC_2.2.5"
module asm ".symver expf, expf@GLIBC_2.2.5"
module asm ".symver lgamma, lgamma@GLIBC_2.2.5"
module asm ".symver lgammaf, lgammaf@GLIBC_2.2.5"
module asm ".symver lgammal, lgammal@GLIBC_2.2.5"
module asm ".symver log, log@GLIBC_2.2.5"
module asm ".symver log2, log2@GLIBC_2.2.5"
module asm ".symver log2f, log2f@GLIBC_2.2.5"
module asm ".symver logf, logf@GLIBC_2.2.5"
module asm ".symver pow, pow@GLIBC_2.2.5"
module asm ".symver powf, powf@GLIBC_2.2.5"

%"class.payments::PaymentCredentialEnrollmentController::ScopedToken" = type { %"class.base::WeakPtrFactory" }
%"class.base::WeakPtrFactory" = type { %"class.base::internal::WeakPtrFactoryBase" }
%"class.base::internal::WeakPtrFactoryBase" = type { %"class.base::internal::WeakReferenceOwner", i64 }
%"class.base::internal::WeakReferenceOwner" = type { %class.scoped_refptr }
%class.scoped_refptr = type { %"class.base::internal::WeakReference::Flag"* }
%"class.base::internal::WeakReference::Flag" = type <{ %"class.base::RefCountedThreadSafe", %"class.base::AtomicFlag", [3 x i8] }>
%"class.base::RefCountedThreadSafe" = type { %"class.base::subtle::RefCountedThreadSafeBase" }
%"class.base::subtle::RefCountedThreadSafeBase" = type { %"class.base::AtomicRefCount" }
%"class.base::AtomicRefCount" = type { %"struct.std::__1::atomic" }
%"struct.std::__1::atomic" = type { %"struct.std::__1::__atomic_base" }
%"struct.std::__1::__atomic_base" = type { %"struct.std::__1::__atomic_base.0" }
%"struct.std::__1::__atomic_base.0" = type { %"struct.std::__1::__cxx_atomic_impl" }
%"struct.std::__1::__cxx_atomic_impl" = type { %"struct.std::__1::__cxx_atomic_base_impl" }
%"struct.std::__1::__cxx_atomic_base_impl" = type { i32 }
%"class.base::AtomicFlag" = type { %"struct.std::__1::atomic.1" }
%"struct.std::__1::atomic.1" = type { %"struct.std::__1::__atomic_base.2" }
%"struct.std::__1::__atomic_base.2" = type { %"struct.std::__1::__atomic_base.3" }
%"struct.std::__1::__atomic_base.3" = type { %"struct.std::__1::__cxx_atomic_impl.4" }
%"struct.std::__1::__cxx_atomic_impl.4" = type { %"struct.std::__1::__cxx_atomic_base_impl.5" }
%"struct.std::__1::__cxx_atomic_base_impl.5" = type { i8 }
%"class.payments::PaymentCredentialEnrollmentController" = type { %"class.content::WebContentsObserver", %"class.content::WebContentsUserData", %"struct.content::GlobalFrameRoutingId", %"class.base::OnceCallback", %"class.payments::PaymentCredentialEnrollmentController::ObserverForTest"*, %"class.base::WeakPtr", %"class.std::__1::unique_ptr", i8, %"class.base::WeakPtrFactory.16" }
%"class.content::WebContentsObserver" = type { %"class.IPC::Listener", %"class.content::WebContents"* }
%"class.IPC::Listener" = type { i32 (...)** }
%"class.content::WebContentsUserData" = type { %"class.base::SupportsUserData::Data" }
%"class.base::SupportsUserData::Data" = type { i32 (...)** }
%"struct.content::GlobalFrameRoutingId" = type { i32, i32 }
%"class.base::OnceCallback" = type { %"class.base::internal::CallbackBase" }
%"class.base::internal::CallbackBase" = type { %class.scoped_refptr.11 }
%class.scoped_refptr.11 = type { %"class.base::internal::BindStateBase"* }
%"class.base::internal::BindStateBase" = type { %"class.base::RefCountedThreadSafe.12", void ()*, void (%"class.base::internal::BindStateBase"*)*, i1 (%"class.base::internal::BindStateBase"*, i32)* }
%"class.base::RefCountedThreadSafe.12" = type { %"class.base::subtle::RefCountedThreadSafeBase" }
%"class.payments::PaymentCredentialEnrollmentController::ObserverForTest" = type { i32 (...)** }
%"class.base::WeakPtr" = type { %"class.base::internal::WeakPtrBase" }
%"class.base::internal::WeakPtrBase" = type { %"class.base::internal::WeakReference", i64 }
%"class.base::internal::WeakReference" = type { %class.scoped_refptr.6 }
%class.scoped_refptr.6 = type { %"class.base::internal::WeakReference::Flag"* }
%"class.std::__1::unique_ptr" = type { %"class.std::__1::__compressed_pair.13" }
%"class.std::__1::__compressed_pair.13" = type { %"struct.std::__1::__compressed_pair_elem.14" }
%"struct.std::__1::__compressed_pair_elem.14" = type { %"class.payments::PaymentCredentialEnrollmentBridge"* }
%"class.payments::PaymentCredentialEnrollmentBridge" = type { i32 (...)** }
%"class.base::WeakPtrFactory.16" = type { %"class.base::internal::WeakPtrFactoryBase" }
%"class.content::WebContents" = type <{ %"class.content::PageNavigator", %"class.base::SupportsUserData.base", [7 x i8] }>
%"class.content::PageNavigator" = type { i32 (...)** }
%"class.base::SupportsUserData.base" = type <{ i32 (...)**, %"class.std::__1::map", %"class.base::SequenceCheckerDoNothing" }>
%"class.std::__1::map" = type { %"class.std::__1::__tree" }
%"class.std::__1::__tree" = type { %"class.std::__1::__tree_end_node"*, %"class.std::__1::__compressed_pair", %"class.std::__1::__compressed_pair.8" }
%"class.std::__1::__tree_end_node" = type { %"class.std::__1::__tree_node_base"* }
%"class.std::__1::__tree_node_base" = type <{ %"class.std::__1::__tree_end_node", %"class.std::__1::__tree_node_base"*, %"class.std::__1::__tree_end_node"*, i8, [7 x i8] }>
%"class.std::__1::__compressed_pair" = type { %"struct.std::__1::__compressed_pair_elem" }
%"struct.std::__1::__compressed_pair_elem" = type { %"class.std::__1::__tree_end_node" }
%"class.std::__1::__compressed_pair.8" = type { %"struct.std::__1::__compressed_pair_elem.9" }
%"struct.std::__1::__compressed_pair_elem.9" = type { i64 }
%"class.base::SequenceCheckerDoNothing" = type { i8 }
%"class.base::SupportsUserData" = type <{ i32 (...)**, %"class.std::__1::map", %"class.base::SequenceCheckerDoNothing", [7 x i8] }>
%class.SkBitmap = type { %class.sk_sp, %class.SkPixmap, %class.sk_sp.21 }
%class.sk_sp = type { %class.SkPixelRef* }
%class.SkPixelRef = type opaque
%class.SkPixmap = type { i8*, i64, %struct.SkImageInfo }
%struct.SkImageInfo = type { %class.SkColorInfo, %struct.SkISize }
%class.SkColorInfo = type { %class.sk_sp.20, i32, i32 }
%class.sk_sp.20 = type { %class.SkColorSpace* }
%class.SkColorSpace = type <{ %class.SkNVRefCnt, i32, i32, %struct.skcms_TransferFunction, %struct.skcms_Matrix3x3, %struct.skcms_TransferFunction, %struct.skcms_Matrix3x3, %class.SkOnce, [3 x i8] }>
%class.SkNVRefCnt = type { %"struct.std::__1::atomic" }
%struct.skcms_TransferFunction = type { float, float, float, float, float, float, float }
%struct.skcms_Matrix3x3 = type { [3 x [3 x float]] }
%class.SkOnce = type { %"struct.std::__1::atomic.1" }
%struct.SkISize = type { i32, i32 }
%class.sk_sp.21 = type { %class.SkMipmap* }
%class.SkMipmap = type opaque
%"class.std::__1::basic_string" = type { %"class.std::__1::__compressed_pair.25" }
%"class.std::__1::__compressed_pair.25" = type { %"struct.std::__1::__compressed_pair_elem.26" }
%"struct.std::__1::__compressed_pair_elem.26" = type { %"struct.std::__1::basic_string<char16_t, std::__1::char_traits<char16_t>, std::__1::allocator<char16_t> >::__rep" }
%"struct.std::__1::basic_string<char16_t, std::__1::char_traits<char16_t>, std::__1::allocator<char16_t> >::__rep" = type { %union.anon }
%union.anon = type { %"struct.std::__1::basic_string<char16_t, std::__1::char_traits<char16_t>, std::__1::allocator<char16_t> >::__long" }
%"struct.std::__1::basic_string<char16_t, std::__1::char_traits<char16_t>, std::__1::allocator<char16_t> >::__long" = type { i16*, i64, i64 }
%"class.base::WeakPtr.30" = type { %"class.base::internal::WeakPtrBase" }
%"class.content::NavigationHandle" = type { %"class.base::SupportsUserData.base", [7 x i8] }
%"class.content::RenderFrameHost" = type { %"class.IPC::Listener", %"class.IPC::Sender" }
%"class.IPC::Sender" = type { i32 (...)** }
%"class.IPC::Message" = type { %"class.base::Pickle", i8, %class.scoped_refptr.37 }
%"class.base::Pickle" = type { i32 (...)**, %"struct.base::Pickle::Header"*, i64, i64, i64 }
%"struct.base::Pickle::Header" = type { i32 }
%class.scoped_refptr.37 = type { %"class.IPC::MessageAttachmentSet"* }
%"class.IPC::MessageAttachmentSet" = type opaque
%"class.std::__1::basic_string.38" = type { %"class.std::__1::__compressed_pair.39" }
%"class.std::__1::__compressed_pair.39" = type { %"struct.std::__1::__compressed_pair_elem.40" }
%"struct.std::__1::__compressed_pair_elem.40" = type { %"struct.std::__1::basic_string<char, std::__1::char_traits<char>, std::__1::allocator<char> >::__rep" }
%"struct.std::__1::basic_string<char, std::__1::char_traits<char>, std::__1::allocator<char> >::__rep" = type { %union.anon.41 }
%union.anon.41 = type { %"struct.std::__1::basic_string<char, std::__1::char_traits<char>, std::__1::allocator<char> >::__long" }
%"struct.std::__1::basic_string<char, std::__1::char_traits<char>, std::__1::allocator<char> >::__long" = type { i8*, i64, i64 }
%"class.mojo::ScopedInterfaceEndpointHandle" = type { %class.scoped_refptr.47 }
%class.scoped_refptr.47 = type { %"class.mojo::ScopedInterfaceEndpointHandle::State"* }
%"class.mojo::ScopedInterfaceEndpointHandle::State" = type opaque
%"class.blink::mojom::CaptureHandleConfig" = type opaque
%"class.content::RenderViewHost" = type opaque
%"class.content::RenderProcessHost" = type opaque
%class.GURL = type { %"class.std::__1::basic_string.38", i8, %"struct.url::Parsed", %"class.std::__1::unique_ptr.48" }
%"struct.url::Parsed" = type { %"struct.url::Component", %"struct.url::Component", %"struct.url::Component", %"struct.url::Component", %"struct.url::Component", %"struct.url::Component", %"struct.url::Component", %"struct.url::Component", i8, %"struct.url::Parsed"* }
%"struct.url::Component" = type { i32, i32 }
%"class.std::__1::unique_ptr.48" = type { %"class.std::__1::__compressed_pair.49" }
%"class.std::__1::__compressed_pair.49" = type { %"struct.std::__1::__compressed_pair_elem.50" }
%"struct.std::__1::__compressed_pair_elem.50" = type { %class.GURL* }
%"struct.content::GlobalRequestID" = type { i32, i32 }
%"class.blink::mojom::ResourceLoadInfo" = type opaque
%"struct.content::CookieAccessDetails" = type <{ i32, [4 x i8], %class.GURL, %class.GURL, %"class.std::__1::vector", i8, [7 x i8] }>
%"class.std::__1::vector" = type { %"class.std::__1::__vector_base" }
%"class.std::__1::__vector_base" = type { %"class.net::CanonicalCookie"*, %"class.net::CanonicalCookie"*, %"class.std::__1::__compressed_pair.55" }
%"class.net::CanonicalCookie" = type { %"class.std::__1::basic_string.38", %"class.std::__1::basic_string.38", %"class.std::__1::basic_string.38", %"class.std::__1::basic_string.38", %"class.base::Time", %"class.base::Time", %"class.base::Time", i8, i8, i32, i32, i8, i32, i32 }
%"class.base::Time" = type { %"class.base::time_internal::TimeBase.54" }
%"class.base::time_internal::TimeBase.54" = type { i64 }
%"class.std::__1::__compressed_pair.55" = type { %"struct.std::__1::__compressed_pair_elem.56" }
%"struct.std::__1::__compressed_pair_elem.56" = type { %"class.net::CanonicalCookie"* }
%"struct.content::LoadCommittedDetails" = type opaque
%"struct.content::PrunedDetails" = type opaque
%"struct.content::EntryChangedDetails" = type opaque
%"struct.content::Referrer" = type <{ %class.GURL, i32, [4 x i8] }>
%"class.blink::WebInputEvent" = type { i32 (...)**, float, %"class.gfx::Vector2dF", %"class.base::TimeTicks", i32, i32 }
%"class.gfx::Vector2dF" = type { float, float }
%"class.base::TimeTicks" = type { %"class.base::time_internal::TimeBase" }
%"class.base::time_internal::TimeBase" = type { i64 }
%"class.gfx::Size" = type { i32, i32 }
%"class.content::NavigationEntry" = type opaque
%"class.base::FilePath" = type { %"class.std::__1::basic_string.38" }
%"struct.blink::UserAgentOverride" = type { %"class.std::__1::basic_string.38", %"class.absl::optional" }
%"class.absl::optional" = type { %"class.absl::optional_internal::optional_data" }
%"class.absl::optional_internal::optional_data" = type { %"class.absl::optional_internal::optional_data_base" }
%"class.absl::optional_internal::optional_data_base" = type { %"class.absl::optional_internal::optional_data_dtor_base" }
%"class.absl::optional_internal::optional_data_dtor_base" = type { i8, [7 x i8], %union.anon.60 }
%union.anon.60 = type { %"struct.blink::UserAgentMetadata" }
%"struct.blink::UserAgentMetadata" = type <{ %"class.std::__1::vector.61", %"class.std::__1::basic_string.38", %"class.std::__1::basic_string.38", %"class.std::__1::basic_string.38", %"class.std::__1::basic_string.38", %"class.std::__1::basic_string.38", i8, [7 x i8] }>
%"class.std::__1::vector.61" = type { %"class.std::__1::__vector_base.62" }
%"class.std::__1::__vector_base.62" = type { %"struct.blink::UserAgentBrandVersion"*, %"struct.blink::UserAgentBrandVersion"*, %"class.std::__1::__compressed_pair.63" }
%"struct.blink::UserAgentBrandVersion" = type { %"class.std::__1::basic_string.38", %"class.std::__1::basic_string.38" }
%"class.std::__1::__compressed_pair.63" = type { %"struct.std::__1::__compressed_pair_elem.64" }
%"struct.std::__1::__compressed_pair_elem.64" = type { %"struct.blink::UserAgentBrandVersion"* }
%"class.std::__1::vector.68" = type opaque
%"struct.content::AXEventNotificationDetails" = type opaque
%"class.std::__1::vector.69" = type opaque
%"class.absl::optional.70" = type opaque
%"struct.content::WebContentsObserver::MediaPlayerInfo" = type { i8, i8 }
%"struct.content::MediaPlayerId" = type opaque
%"class.content::RenderWidgetHost" = type opaque
%"struct.content::FocusedNodeDetails" = type opaque
%"class.absl::optional.71" = type { %"class.absl::optional_internal::optional_data.72" }
%"class.absl::optional_internal::optional_data.72" = type { %"class.absl::optional_internal::optional_data_base.73" }
%"class.absl::optional_internal::optional_data_base.73" = type { %"class.absl::optional_internal::optional_data_dtor_base.74" }
%"class.absl::optional_internal::optional_data_dtor_base.74" = type { i8, %union.anon.75 }
%union.anon.75 = type { %class.GURL }
%"class.mojo::ScopedHandleBase" = type { %"class.mojo::MessagePipeHandle" }
%"class.mojo::MessagePipeHandle" = type { %"class.mojo::Handle" }
%"class.mojo::Handle" = type { i32 }
%"struct.std::__1::pair" = type opaque
%"class.logging::CheckError" = type { %"class.logging::LogMessage"* }
%"class.logging::LogMessage" = type { i32 (...)**, i32, %"class.std::__1::basic_ostringstream", i64, i8*, i32, %"class.base::ScopedClearLastErrorBase" }
%"class.std::__1::basic_ostringstream" = type { %"class.std::__1::basic_ostream.base", %"class.std::__1::basic_stringbuf", %"class.std::__1::basic_ios.base" }
%"class.std::__1::basic_ostream.base" = type { i32 (...)** }
%"class.std::__1::basic_stringbuf" = type <{ %"class.std::__1::basic_streambuf", %"class.std::__1::basic_string.38", i8*, i32, [4 x i8] }>
%"class.std::__1::basic_streambuf" = type { i32 (...)**, %"class.std::__1::locale", i8*, i8*, i8*, i8*, i8*, i8* }
%"class.std::__1::locale" = type { %"class.std::__1::locale::__imp"* }
%"class.std::__1::locale::__imp" = type opaque
%"class.std::__1::basic_ios.base" = type <{ %"class.std::__1::ios_base", %"class.std::__1::basic_ostream"*, i32 }>
%"class.std::__1::ios_base" = type { i32 (...)**, i32, i64, i64, i32, i32, i8*, i8*, void (i32, %"class.std::__1::ios_base"*, i32)**, i32*, i64, i64, i64*, i64, i64, i8**, i64, i64 }
%"class.std::__1::basic_ostream" = type { i32 (...)**, %"class.std::__1::basic_ios.base" }
%"class.base::ScopedClearLastErrorBase" = type { i32 }

$_ZN7content19WebContentsUserDataIN8payments37PaymentCredentialEnrollmentControllerEE20CreateForWebContentsIJEEEvPNS_11WebContentsEDpOT_ = comdat any

$_ZN3IPC8Listener18OnChannelConnectedEi = comdat any

$_ZN3IPC8Listener14OnChannelErrorEv = comdat any

$_ZN3IPC8Listener20OnBadMessageReceivedERKNS_7MessageE = comdat any

$_ZN3IPC8Listener28OnAssociatedInterfaceRequestERKNSt3__112basic_stringIcNS1_11char_traitsIcEENS1_9allocatorIcEEEEN4mojo29ScopedInterfaceEndpointHandleE = comdat any

$_ZN3IPC8Listener15OnChannelDeniedEv = comdat any

$_ZN3IPC8Listener20OnChannelListenErrorEv = comdat any

$_ZN7content19WebContentsObserver18RenderFrameCreatedEPNS_15RenderFrameHostE = comdat any

$_ZN7content19WebContentsObserver22RenderFrameHostChangedEPNS_15RenderFrameHostES2_ = comdat any

$_ZN7content19WebContentsObserver12FrameDeletedEi = comdat any

$_ZN7content19WebContentsObserver27RenderFrameHostStateChangedEPNS_15RenderFrameHostENS1_14LifecycleStateES3_ = comdat any

$_ZN7content19WebContentsObserver20CaptureTargetChangedEv = comdat any

$_ZN7content19WebContentsObserver27OnCaptureHandleConfigUpdateERKN5blink5mojom19CaptureHandleConfigE = comdat any

$_ZN7content19WebContentsObserver15RenderViewReadyEv = comdat any

$_ZN7content19WebContentsObserver17RenderViewDeletedEPNS_14RenderViewHostE = comdat any

$_ZN7content19WebContentsObserver17RenderProcessGoneEN4base17TerminationStatusE = comdat any

$_ZN7content19WebContentsObserver21RenderViewHostChangedEPNS_14RenderViewHostES2_ = comdat any

$_ZN7content19WebContentsObserver22OnRendererUnresponsiveEPNS_17RenderProcessHostE = comdat any

$_ZN7content19WebContentsObserver20OnRendererResponsiveEPNS_17RenderProcessHostE = comdat any

$_ZN7content19WebContentsObserver21DidRedirectNavigationEPNS_16NavigationHandleE = comdat any

$_ZN7content19WebContentsObserver23ReadyToCommitNavigationEPNS_16NavigationHandleE = comdat any

$_ZN7content19WebContentsObserver19DidFinishNavigationEPNS_16NavigationHandleE = comdat any

$_ZN7content19WebContentsObserver17DidActivatePortalEPNS_11WebContentsEN4base9TimeTicksE = comdat any

$_ZN7content19WebContentsObserver15DidStartLoadingEv = comdat any

$_ZN7content19WebContentsObserver18DidReceiveResponseEv = comdat any

$_ZN7content19WebContentsObserver14DidStopLoadingEv = comdat any

$_ZN7content19WebContentsObserver19LoadProgressChangedEd = comdat any

$_ZN7content19WebContentsObserver28DocumentAvailableInMainFrameEPNS_15RenderFrameHostE = comdat any

$_ZN7content19WebContentsObserver34DocumentOnLoadCompletedInMainFrameEPNS_15RenderFrameHostE = comdat any

$_ZN7content19WebContentsObserver16DOMContentLoadedEPNS_15RenderFrameHostE = comdat any

$_ZN7content19WebContentsObserver13DidFinishLoadEPNS_15RenderFrameHostERK4GURL = comdat any

$_ZN7content19WebContentsObserver11DidFailLoadEPNS_15RenderFrameHostERK4GURLi = comdat any

$_ZN7content19WebContentsObserver29DidChangeVisibleSecurityStateEv = comdat any

$_ZN7content19WebContentsObserver30DidLoadResourceFromMemoryCacheEPNS_15RenderFrameHostERK4GURLRKNSt3__112basic_stringIcNS6_11char_traitsIcEENS6_9allocatorIcEEEEN7network5mojom18RequestDestinationE = comdat any

$_ZN7content19WebContentsObserver20ResourceLoadCompleteEPNS_15RenderFrameHostERKNS_15GlobalRequestIDERKN5blink5mojom16ResourceLoadInfoE = comdat any

$_ZN7content19WebContentsObserver17OnCookiesAccessedEPNS_15RenderFrameHostERKNS_19CookieAccessDetailsE = comdat any

$_ZN7content19WebContentsObserver17OnCookiesAccessedEPNS_16NavigationHandleERKNS_19CookieAccessDetailsE = comdat any

$_ZN7content19WebContentsObserver24NavigationEntryCommittedERKNS_20LoadCommittedDetailsE = comdat any

$_ZN7content19WebContentsObserver20NavigationListPrunedERKNS_13PrunedDetailsE = comdat any

$_ZN7content19WebContentsObserver24NavigationEntriesDeletedEv = comdat any

$_ZN7content19WebContentsObserver22NavigationEntryChangedERKNS_19EntryChangedDetailsE = comdat any

$_ZN7content19WebContentsObserver19DidOpenRequestedURLEPNS_11WebContentsEPNS_15RenderFrameHostERK4GURLRKNS_8ReferrerE21WindowOpenDispositionN2ui14PageTransitionEbb = comdat any

$_ZN7content19WebContentsObserver29DidFirstVisuallyNonEmptyPaintEv = comdat any

$_ZN7content19WebContentsObserver17NavigationStoppedEv = comdat any

$_ZN7content19WebContentsObserver21DidGetUserInteractionERKN5blink13WebInputEventE = comdat any

$_ZN7content19WebContentsObserver20DidGetIgnoredUIEventEv = comdat any

$_ZN7content19WebContentsObserver19OnVisibilityChangedENS_10VisibilityE = comdat any

$_ZN7content19WebContentsObserver19MainFrameWasResizedEb = comdat any

$_ZN7content19WebContentsObserver16FrameNameChangedEPNS_15RenderFrameHostERKNSt3__112basic_stringIcNS3_11char_traitsIcEENS3_9allocatorIcEEEE = comdat any

$_ZN7content19WebContentsObserver27FrameReceivedUserActivationEPNS_15RenderFrameHostE = comdat any

$_ZN7content19WebContentsObserver24FrameDisplayStateChangedEPNS_15RenderFrameHostEb = comdat any

$_ZN7content19WebContentsObserver16FrameSizeChangedEPNS_15RenderFrameHostERKN3gfx4SizeE = comdat any

$_ZN7content19WebContentsObserver11TitleWasSetEPNS_15NavigationEntryE = comdat any

$_ZN7content19WebContentsObserver16AppCacheAccessedERK4GURLb = comdat any

$_ZN7content19WebContentsObserver21PepperInstanceCreatedEv = comdat any

$_ZN7content19WebContentsObserver21PepperInstanceDeletedEv = comdat any

$_ZN7content19WebContentsObserver18ViewportFitChangedEN5blink5mojom11ViewportFitE = comdat any

$_ZN7content19WebContentsObserver13PluginCrashedERKN4base8FilePathEi = comdat any

$_ZN7content19WebContentsObserver23PluginHungStatusChangedEiRKN4base8FilePathEb = comdat any

$_ZN7content19WebContentsObserver23InnerWebContentsCreatedEPNS_11WebContentsE = comdat any

$_ZN7content19WebContentsObserver24InnerWebContentsAttachedEPNS_11WebContentsEPNS_15RenderFrameHostEb = comdat any

$_ZN7content19WebContentsObserver24InnerWebContentsDetachedEPNS_11WebContentsE = comdat any

$_ZN7content19WebContentsObserver24DidCloneToNewWebContentsEPNS_11WebContentsES2_ = comdat any

$_ZN7content19WebContentsObserver20WebContentsDestroyedEv = comdat any

$_ZN7content19WebContentsObserver20UserAgentOverrideSetERKN5blink17UserAgentOverrideE = comdat any

$_ZN7content19WebContentsObserver19DidUpdateFaviconURLEPNS_15RenderFrameHostERKNSt3__16vectorIN4mojo9StructPtrIN5blink5mojom10FaviconURLEEENS3_9allocatorISA_EEEE = comdat any

$_ZN7content19WebContentsObserver19OnAudioStateChangedEb = comdat any

$_ZN7content19WebContentsObserver24OnFrameAudioStateChangedEPNS_15RenderFrameHostEb = comdat any

$_ZN7content19WebContentsObserver37OnIsConnectedToBluetoothDeviceChangedEb = comdat any

$_ZN7content19WebContentsObserver25DidUpdateAudioMutingStateEb = comdat any

$_ZN7content19WebContentsObserver29DidToggleFullscreenModeForTabEbb = comdat any

$_ZN7content19WebContentsObserver20DidAcquireFullscreenEPNS_15RenderFrameHostE = comdat any

$_ZN7content19WebContentsObserver32DidChangeVerticalScrollDirectionEN3viz23VerticalScrollDirectionE = comdat any

$_ZN7content19WebContentsObserver27BeforeFormRepostWarningShowEv = comdat any

$_ZN7content19WebContentsObserver17BeforeUnloadFiredEbRKN4base9TimeTicksE = comdat any

$_ZN7content19WebContentsObserver27BeforeUnloadDialogCancelledEv = comdat any

$_ZN7content19WebContentsObserver30AXTreeIDForMainFrameHasChangedEv = comdat any

$_ZN7content19WebContentsObserver26AccessibilityEventReceivedERKNS_26AXEventNotificationDetailsE = comdat any

$_ZN7content19WebContentsObserver36AccessibilityLocationChangesReceivedERKNSt3__16vectorINS_35AXLocationChangeNotificationDetailsENS1_9allocatorIS3_EEEE = comdat any

$_ZN7content19WebContentsObserver19DidChangeThemeColorEv = comdat any

$_ZN7content19WebContentsObserver24OnBackgroundColorChangedEv = comdat any

$_ZN7content19WebContentsObserver24OnDidAddMessageToConsoleEPNS_15RenderFrameHostEN5blink5mojom19ConsoleMessageLevelERKNSt3__112basic_stringIDsNS6_11char_traitsIDsEENS6_9allocatorIDsEEEEiSE_RKN4absl8optionalISC_EE = comdat any

$_ZN7content19WebContentsObserver19MediaStartedPlayingERKNS0_15MediaPlayerInfoERKNS_13MediaPlayerIdE = comdat any

$_ZN7content19WebContentsObserver19MediaStoppedPlayingERKNS0_15MediaPlayerInfoERKNS_13MediaPlayerIdENS0_18MediaStoppedReasonE = comdat any

$_ZN7content19WebContentsObserver12MediaResizedERKN3gfx4SizeERKNS_13MediaPlayerIdE = comdat any

$_ZN7content19WebContentsObserver33MediaEffectivelyFullscreenChangedEb = comdat any

$_ZN7content19WebContentsObserver28MediaPictureInPictureChangedEb = comdat any

$_ZN7content19WebContentsObserver23MediaMutedStatusChangedERKNS_13MediaPlayerIdEb = comdat any

$_ZN7content19WebContentsObserver20MediaBufferUnderflowERKNS_13MediaPlayerIdE = comdat any

$_ZN7content19WebContentsObserver15MediaPlayerSeekERKNS_13MediaPlayerIdE = comdat any

$_ZN7content19WebContentsObserver14MediaDestroyedERKNS_13MediaPlayerIdE = comdat any

$_ZN7content19WebContentsObserver24OnPageScaleFactorChangedEf = comdat any

$_ZN7content19WebContentsObserver7OnPasteEv = comdat any

$_ZN7content19WebContentsObserver20OnWebContentsFocusedEPNS_16RenderWidgetHostE = comdat any

$_ZN7content19WebContentsObserver22OnWebContentsLostFocusEPNS_16RenderWidgetHostE = comdat any

$_ZN7content19WebContentsObserver20OnFocusChangedInPageEPNS_18FocusedNodeDetailsE = comdat any

$_ZN7content19WebContentsObserver23DidUpdateWebManifestURLEPNS_15RenderFrameHostERKN4absl8optionalI4GURLEE = comdat any

$_ZN7content19WebContentsObserver27OnInterfaceRequestFromFrameEPNS_15RenderFrameHostERKNSt3__112basic_stringIcNS3_11char_traitsIcEENS3_9allocatorIcEEEEPN4mojo16ScopedHandleBaseINSC_17MessagePipeHandleEEE = comdat any

$_ZN7content19WebContentsObserver27AudioContextPlaybackStartedERKNSt3__14pairIPNS_15RenderFrameHostEiEE = comdat any

$_ZN7content19WebContentsObserver27AudioContextPlaybackStoppedERKNSt3__14pairIPNS_15RenderFrameHostEiEE = comdat any

$_ZN7content19WebContentsObserver23OnServiceWorkerAccessedEPNS_15RenderFrameHostERK4GURLNS_24AllowServiceWorkerResultE = comdat any

$_ZN7content19WebContentsObserver23OnServiceWorkerAccessedEPNS_16NavigationHandleERK4GURLNS_24AllowServiceWorkerResultE = comdat any

$_ZN4base8internal7InvokerINS0_9BindStateIMN8payments37PaymentCredentialEnrollmentControllerEFvbEJNS_7WeakPtrIS4_EEEEEFvbEE7RunOnceEPNS0_13BindStateBaseEb = comdat any

$_ZN4base8internal9BindStateIMN8payments37PaymentCredentialEnrollmentControllerEFvbEJNS_7WeakPtrIS3_EEEE7DestroyEPKNS0_13BindStateBaseE = comdat any

$_ZN4base8internal23QueryCancellationTraitsINS0_9BindStateIMN8payments37PaymentCredentialEnrollmentControllerEFvbEJNS_7WeakPtrIS4_EEEEEEEbPKNS0_13BindStateBaseENSA_21CancellationQueryModeE = comdat any

@_ZTVN8payments37PaymentCredentialEnrollmentControllerE = hidden unnamed_addr constant { [109 x i8*], [5 x i8*] } { [109 x i8*] [i8* null, i8* null, i8* bitcast (i1 (%"class.content::WebContentsObserver"*, %"class.IPC::Message"*)* @_ZN7content19WebContentsObserver17OnMessageReceivedERKN3IPC7MessageE to i8*), i8* bitcast (void (%"class.IPC::Listener"*, i32)* @_ZN3IPC8Listener18OnChannelConnectedEi to i8*), i8* bitcast (void (%"class.IPC::Listener"*)* @_ZN3IPC8Listener14OnChannelErrorEv to i8*), i8* bitcast (void (%"class.IPC::Listener"*, %"class.IPC::Message"*)* @_ZN3IPC8Listener20OnBadMessageReceivedERKNS_7MessageE to i8*), i8* bitcast (void (%"class.IPC::Listener"*, %"class.std::__1::basic_string.38"*, %"class.mojo::ScopedInterfaceEndpointHandle"*)* @_ZN3IPC8Listener28OnAssociatedInterfaceRequestERKNSt3__112basic_stringIcNS1_11char_traitsIcEENS1_9allocatorIcEEEEN4mojo29ScopedInterfaceEndpointHandleE to i8*), i8* bitcast (void (%"class.IPC::Listener"*)* @_ZN3IPC8Listener15OnChannelDeniedEv to i8*), i8* bitcast (void (%"class.IPC::Listener"*)* @_ZN3IPC8Listener20OnChannelListenErrorEv to i8*), i8* bitcast (void (%"class.payments::PaymentCredentialEnrollmentController"*)* @_ZN8payments37PaymentCredentialEnrollmentControllerD2Ev to i8*), i8* bitcast (void (%"class.payments::PaymentCredentialEnrollmentController"*)* @_ZN8payments37PaymentCredentialEnrollmentControllerD0Ev to i8*), i8* bitcast (void (%"class.content::WebContentsObserver"*, %"class.content::RenderFrameHost"*)* @_ZN7content19WebContentsObserver18RenderFrameCreatedEPNS_15RenderFrameHostE to i8*), i8* bitcast (void (%"class.payments::PaymentCredentialEnrollmentController"*, %"class.content::RenderFrameHost"*)* @_ZN8payments37PaymentCredentialEnrollmentController18RenderFrameDeletedEPN7content15RenderFrameHostE to i8*), i8* bitcast (void (%"class.content::WebContentsObserver"*, %"class.content::RenderFrameHost"*, %"class.content::RenderFrameHost"*)* @_ZN7content19WebContentsObserver22RenderFrameHostChangedEPNS_15RenderFrameHostES2_ to i8*), i8* bitcast (void (%"class.content::WebContentsObserver"*, i32)* @_ZN7content19WebContentsObserver12FrameDeletedEi to i8*), i8* bitcast (void (%"class.content::WebContentsObserver"*, %"class.content::RenderFrameHost"*, i32, i32)* @_ZN7content19WebContentsObserver27RenderFrameHostStateChangedEPNS_15RenderFrameHostENS1_14LifecycleStateES3_ to i8*), i8* bitcast (void (%"class.content::WebContentsObserver"*)* @_ZN7content19WebContentsObserver20CaptureTargetChangedEv to i8*), i8* bitcast (void (%"class.content::WebContentsObserver"*, %"class.blink::mojom::CaptureHandleConfig"*)* @_ZN7content19WebContentsObserver27OnCaptureHandleConfigUpdateERKN5blink5mojom19CaptureHandleConfigE to i8*), i8* bitcast (void (%"class.content::WebContentsObserver"*)* @_ZN7content19WebContentsObserver15RenderViewReadyEv to i8*), i8* bitcast (void (%"class.content::WebContentsObserver"*, %"class.content::RenderViewHost"*)* @_ZN7content19WebContentsObserver17RenderViewDeletedEPNS_14RenderViewHostE to i8*), i8* bitcast (void (%"class.content::WebContentsObserver"*, i32)* @_ZN7content19WebContentsObserver17RenderProcessGoneEN4base17TerminationStatusE to i8*), i8* bitcast (void (%"class.content::WebContentsObserver"*, %"class.content::RenderViewHost"*, %"class.content::RenderViewHost"*)* @_ZN7content19WebContentsObserver21RenderViewHostChangedEPNS_14RenderViewHostES2_ to i8*), i8* bitcast (void (%"class.content::WebContentsObserver"*, %"class.content::RenderProcessHost"*)* @_ZN7content19WebContentsObserver22OnRendererUnresponsiveEPNS_17RenderProcessHostE to i8*), i8* bitcast (void (%"class.content::WebContentsObserver"*, %"class.content::RenderProcessHost"*)* @_ZN7content19WebContentsObserver20OnRendererResponsiveEPNS_17RenderProcessHostE to i8*), i8* bitcast (void (%"class.payments::PaymentCredentialEnrollmentController"*, %"class.content::NavigationHandle"*)* @_ZN8payments37PaymentCredentialEnrollmentController18DidStartNavigationEPN7content16NavigationHandleE to i8*), i8* bitcast (void (%"class.content::WebContentsObserver"*, %"class.content::NavigationHandle"*)* @_ZN7content19WebContentsObserver21DidRedirectNavigationEPNS_16NavigationHandleE to i8*), i8* bitcast (void (%"class.content::WebContentsObserver"*, %"class.content::NavigationHandle"*)* @_ZN7content19WebContentsObserver23ReadyToCommitNavigationEPNS_16NavigationHandleE to i8*), i8* bitcast (void (%"class.content::WebContentsObserver"*, %"class.content::NavigationHandle"*)* @_ZN7content19WebContentsObserver19DidFinishNavigationEPNS_16NavigationHandleE to i8*), i8* bitcast (void (%"class.content::WebContentsObserver"*, %"class.content::WebContents"*, i64)* @_ZN7content19WebContentsObserver17DidActivatePortalEPNS_11WebContentsEN4base9TimeTicksE to i8*), i8* bitcast (void (%"class.content::WebContentsObserver"*)* @_ZN7content19WebContentsObserver15DidStartLoadingEv to i8*), i8* bitcast (void (%"class.content::WebContentsObserver"*)* @_ZN7content19WebContentsObserver18DidReceiveResponseEv to i8*), i8* bitcast (void (%"class.content::WebContentsObserver"*)* @_ZN7content19WebContentsObserver14DidStopLoadingEv to i8*), i8* bitcast (void (%"class.content::WebContentsObserver"*, double)* @_ZN7content19WebContentsObserver19LoadProgressChangedEd to i8*), i8* bitcast (void (%"class.content::WebContentsObserver"*, %"class.content::RenderFrameHost"*)* @_ZN7content19WebContentsObserver28DocumentAvailableInMainFrameEPNS_15RenderFrameHostE to i8*), i8* bitcast (void (%"class.content::WebContentsObserver"*, %"class.content::RenderFrameHost"*)* @_ZN7content19WebContentsObserver34DocumentOnLoadCompletedInMainFrameEPNS_15RenderFrameHostE to i8*), i8* bitcast (void (%"class.content::WebContentsObserver"*, %"class.content::RenderFrameHost"*)* @_ZN7content19WebContentsObserver16DOMContentLoadedEPNS_15RenderFrameHostE to i8*), i8* bitcast (void (%"class.content::WebContentsObserver"*, %"class.content::RenderFrameHost"*, %class.GURL*)* @_ZN7content19WebContentsObserver13DidFinishLoadEPNS_15RenderFrameHostERK4GURL to i8*), i8* bitcast (void (%"class.content::WebContentsObserver"*, %"class.content::RenderFrameHost"*, %class.GURL*, i32)* @_ZN7content19WebContentsObserver11DidFailLoadEPNS_15RenderFrameHostERK4GURLi to i8*), i8* bitcast (void (%"class.content::WebContentsObserver"*)* @_ZN7content19WebContentsObserver29DidChangeVisibleSecurityStateEv to i8*), i8* bitcast (void (%"class.content::WebContentsObserver"*, %"class.content::RenderFrameHost"*, %class.GURL*, %"class.std::__1::basic_string.38"*, i32)* @_ZN7content19WebContentsObserver30DidLoadResourceFromMemoryCacheEPNS_15RenderFrameHostERK4GURLRKNSt3__112basic_stringIcNS6_11char_traitsIcEENS6_9allocatorIcEEEEN7network5mojom18RequestDestinationE to i8*), i8* bitcast (void (%"class.content::WebContentsObserver"*, %"class.content::RenderFrameHost"*, %"struct.content::GlobalRequestID"*, %"class.blink::mojom::ResourceLoadInfo"*)* @_ZN7content19WebContentsObserver20ResourceLoadCompleteEPNS_15RenderFrameHostERKNS_15GlobalRequestIDERKN5blink5mojom16ResourceLoadInfoE to i8*), i8* bitcast (void (%"class.content::WebContentsObserver"*, %"class.content::RenderFrameHost"*, %"struct.content::CookieAccessDetails"*)* @_ZN7content19WebContentsObserver17OnCookiesAccessedEPNS_15RenderFrameHostERKNS_19CookieAccessDetailsE to i8*), i8* bitcast (void (%"class.content::WebContentsObserver"*, %"class.content::NavigationHandle"*, %"struct.content::CookieAccessDetails"*)* @_ZN7content19WebContentsObserver17OnCookiesAccessedEPNS_16NavigationHandleERKNS_19CookieAccessDetailsE to i8*), i8* bitcast (void (%"class.content::WebContentsObserver"*, %"struct.content::LoadCommittedDetails"*)* @_ZN7content19WebContentsObserver24NavigationEntryCommittedERKNS_20LoadCommittedDetailsE to i8*), i8* bitcast (void (%"class.content::WebContentsObserver"*, %"struct.content::PrunedDetails"*)* @_ZN7content19WebContentsObserver20NavigationListPrunedERKNS_13PrunedDetailsE to i8*), i8* bitcast (void (%"class.content::WebContentsObserver"*)* @_ZN7content19WebContentsObserver24NavigationEntriesDeletedEv to i8*), i8* bitcast (void (%"class.content::WebContentsObserver"*, %"struct.content::EntryChangedDetails"*)* @_ZN7content19WebContentsObserver22NavigationEntryChangedERKNS_19EntryChangedDetailsE to i8*), i8* bitcast (void (%"class.content::WebContentsObserver"*, %"class.content::WebContents"*, %"class.content::RenderFrameHost"*, %class.GURL*, %"struct.content::Referrer"*, i32, i32, i1, i1)* @_ZN7content19WebContentsObserver19DidOpenRequestedURLEPNS_11WebContentsEPNS_15RenderFrameHostERK4GURLRKNS_8ReferrerE21WindowOpenDispositionN2ui14PageTransitionEbb to i8*), i8* bitcast (void (%"class.content::WebContentsObserver"*)* @_ZN7content19WebContentsObserver29DidFirstVisuallyNonEmptyPaintEv to i8*), i8* bitcast (void (%"class.content::WebContentsObserver"*)* @_ZN7content19WebContentsObserver17NavigationStoppedEv to i8*), i8* bitcast (void (%"class.content::WebContentsObserver"*, %"class.blink::WebInputEvent"*)* @_ZN7content19WebContentsObserver21DidGetUserInteractionERKN5blink13WebInputEventE to i8*), i8* bitcast (void (%"class.content::WebContentsObserver"*)* @_ZN7content19WebContentsObserver20DidGetIgnoredUIEventEv to i8*), i8* bitcast (void (%"class.content::WebContentsObserver"*, i32)* @_ZN7content19WebContentsObserver19OnVisibilityChangedENS_10VisibilityE to i8*), i8* bitcast (void (%"class.content::WebContentsObserver"*, i1)* @_ZN7content19WebContentsObserver19MainFrameWasResizedEb to i8*), i8* bitcast (void (%"class.content::WebContentsObserver"*, %"class.content::RenderFrameHost"*, %"class.std::__1::basic_string.38"*)* @_ZN7content19WebContentsObserver16FrameNameChangedEPNS_15RenderFrameHostERKNSt3__112basic_stringIcNS3_11char_traitsIcEENS3_9allocatorIcEEEE to i8*), i8* bitcast (void (%"class.content::WebContentsObserver"*, %"class.content::RenderFrameHost"*)* @_ZN7content19WebContentsObserver27FrameReceivedUserActivationEPNS_15RenderFrameHostE to i8*), i8* bitcast (void (%"class.content::WebContentsObserver"*, %"class.content::RenderFrameHost"*, i1)* @_ZN7content19WebContentsObserver24FrameDisplayStateChangedEPNS_15RenderFrameHostEb to i8*), i8* bitcast (void (%"class.content::WebContentsObserver"*, %"class.content::RenderFrameHost"*, %"class.gfx::Size"*)* @_ZN7content19WebContentsObserver16FrameSizeChangedEPNS_15RenderFrameHostERKN3gfx4SizeE to i8*), i8* bitcast (void (%"class.content::WebContentsObserver"*, %"class.content::NavigationEntry"*)* @_ZN7content19WebContentsObserver11TitleWasSetEPNS_15NavigationEntryE to i8*), i8* bitcast (void (%"class.content::WebContentsObserver"*, %class.GURL*, i1)* @_ZN7content19WebContentsObserver16AppCacheAccessedERK4GURLb to i8*), i8* bitcast (void (%"class.content::WebContentsObserver"*)* @_ZN7content19WebContentsObserver21PepperInstanceCreatedEv to i8*), i8* bitcast (void (%"class.content::WebContentsObserver"*)* @_ZN7content19WebContentsObserver21PepperInstanceDeletedEv to i8*), i8* bitcast (void (%"class.content::WebContentsObserver"*, i32)* @_ZN7content19WebContentsObserver18ViewportFitChangedEN5blink5mojom11ViewportFitE to i8*), i8* bitcast (void (%"class.content::WebContentsObserver"*, %"class.base::FilePath"*, i32)* @_ZN7content19WebContentsObserver13PluginCrashedERKN4base8FilePathEi to i8*), i8* bitcast (void (%"class.content::WebContentsObserver"*, i32, %"class.base::FilePath"*, i1)* @_ZN7content19WebContentsObserver23PluginHungStatusChangedEiRKN4base8FilePathEb to i8*), i8* bitcast (void (%"class.content::WebContentsObserver"*, %"class.content::WebContents"*)* @_ZN7content19WebContentsObserver23InnerWebContentsCreatedEPNS_11WebContentsE to i8*), i8* bitcast (void (%"class.content::WebContentsObserver"*, %"class.content::WebContents"*, %"class.content::RenderFrameHost"*, i1)* @_ZN7content19WebContentsObserver24InnerWebContentsAttachedEPNS_11WebContentsEPNS_15RenderFrameHostEb to i8*), i8* bitcast (void (%"class.content::WebContentsObserver"*, %"class.content::WebContents"*)* @_ZN7content19WebContentsObserver24InnerWebContentsDetachedEPNS_11WebContentsE to i8*), i8* bitcast (void (%"class.content::WebContentsObserver"*, %"class.content::WebContents"*, %"class.content::WebContents"*)* @_ZN7content19WebContentsObserver24DidCloneToNewWebContentsEPNS_11WebContentsES2_ to i8*), i8* bitcast (void (%"class.content::WebContentsObserver"*)* @_ZN7content19WebContentsObserver20WebContentsDestroyedEv to i8*), i8* bitcast (void (%"class.content::WebContentsObserver"*, %"struct.blink::UserAgentOverride"*)* @_ZN7content19WebContentsObserver20UserAgentOverrideSetERKN5blink17UserAgentOverrideE to i8*), i8* bitcast (void (%"class.content::WebContentsObserver"*, %"class.content::RenderFrameHost"*, %"class.std::__1::vector.68"*)* @_ZN7content19WebContentsObserver19DidUpdateFaviconURLEPNS_15RenderFrameHostERKNSt3__16vectorIN4mojo9StructPtrIN5blink5mojom10FaviconURLEEENS3_9allocatorISA_EEEE to i8*), i8* bitcast (void (%"class.content::WebContentsObserver"*, i1)* @_ZN7content19WebContentsObserver19OnAudioStateChangedEb to i8*), i8* bitcast (void (%"class.content::WebContentsObserver"*, %"class.content::RenderFrameHost"*, i1)* @_ZN7content19WebContentsObserver24OnFrameAudioStateChangedEPNS_15RenderFrameHostEb to i8*), i8* bitcast (void (%"class.content::WebContentsObserver"*, i1)* @_ZN7content19WebContentsObserver37OnIsConnectedToBluetoothDeviceChangedEb to i8*), i8* bitcast (void (%"class.content::WebContentsObserver"*, i1)* @_ZN7content19WebContentsObserver25DidUpdateAudioMutingStateEb to i8*), i8* bitcast (void (%"class.content::WebContentsObserver"*, i1, i1)* @_ZN7content19WebContentsObserver29DidToggleFullscreenModeForTabEbb to i8*), i8* bitcast (void (%"class.content::WebContentsObserver"*, %"class.content::RenderFrameHost"*)* @_ZN7content19WebContentsObserver20DidAcquireFullscreenEPNS_15RenderFrameHostE to i8*), i8* bitcast (void (%"class.content::WebContentsObserver"*, i32)* @_ZN7content19WebContentsObserver32DidChangeVerticalScrollDirectionEN3viz23VerticalScrollDirectionE to i8*), i8* bitcast (void (%"class.content::WebContentsObserver"*)* @_ZN7content19WebContentsObserver27BeforeFormRepostWarningShowEv to i8*), i8* bitcast (void (%"class.content::WebContentsObserver"*, i1, %"class.base::TimeTicks"*)* @_ZN7content19WebContentsObserver17BeforeUnloadFiredEbRKN4base9TimeTicksE to i8*), i8* bitcast (void (%"class.content::WebContentsObserver"*)* @_ZN7content19WebContentsObserver27BeforeUnloadDialogCancelledEv to i8*), i8* bitcast (void (%"class.content::WebContentsObserver"*)* @_ZN7content19WebContentsObserver30AXTreeIDForMainFrameHasChangedEv to i8*), i8* bitcast (void (%"class.content::WebContentsObserver"*, %"struct.content::AXEventNotificationDetails"*)* @_ZN7content19WebContentsObserver26AccessibilityEventReceivedERKNS_26AXEventNotificationDetailsE to i8*), i8* bitcast (void (%"class.content::WebContentsObserver"*, %"class.std::__1::vector.69"*)* @_ZN7content19WebContentsObserver36AccessibilityLocationChangesReceivedERKNSt3__16vectorINS_35AXLocationChangeNotificationDetailsENS1_9allocatorIS3_EEEE to i8*), i8* bitcast (void (%"class.content::WebContentsObserver"*)* @_ZN7content19WebContentsObserver19DidChangeThemeColorEv to i8*), i8* bitcast (void (%"class.content::WebContentsObserver"*)* @_ZN7content19WebContentsObserver24OnBackgroundColorChangedEv to i8*), i8* bitcast (void (%"class.content::WebContentsObserver"*, %"class.content::RenderFrameHost"*, i32, %"class.std::__1::basic_string"*, i32, %"class.std::__1::basic_string"*, %"class.absl::optional.70"*)* @_ZN7content19WebContentsObserver24OnDidAddMessageToConsoleEPNS_15RenderFrameHostEN5blink5mojom19ConsoleMessageLevelERKNSt3__112basic_stringIDsNS6_11char_traitsIDsEENS6_9allocatorIDsEEEEiSE_RKN4absl8optionalISC_EE to i8*), i8* bitcast (void (%"class.content::WebContentsObserver"*, %"struct.content::WebContentsObserver::MediaPlayerInfo"*, %"struct.content::MediaPlayerId"*)* @_ZN7content19WebContentsObserver19MediaStartedPlayingERKNS0_15MediaPlayerInfoERKNS_13MediaPlayerIdE to i8*), i8* bitcast (void (%"class.content::WebContentsObserver"*, %"struct.content::WebContentsObserver::MediaPlayerInfo"*, %"struct.content::MediaPlayerId"*, i32)* @_ZN7content19WebContentsObserver19MediaStoppedPlayingERKNS0_15MediaPlayerInfoERKNS_13MediaPlayerIdENS0_18MediaStoppedReasonE to i8*), i8* bitcast (void (%"class.content::WebContentsObserver"*, %"class.gfx::Size"*, %"struct.content::MediaPlayerId"*)* @_ZN7content19WebContentsObserver12MediaResizedERKN3gfx4SizeERKNS_13MediaPlayerIdE to i8*), i8* bitcast (void (%"class.content::WebContentsObserver"*, i1)* @_ZN7content19WebContentsObserver33MediaEffectivelyFullscreenChangedEb to i8*), i8* bitcast (void (%"class.content::WebContentsObserver"*, i1)* @_ZN7content19WebContentsObserver28MediaPictureInPictureChangedEb to i8*), i8* bitcast (void (%"class.content::WebContentsObserver"*, %"struct.content::MediaPlayerId"*, i1)* @_ZN7content19WebContentsObserver23MediaMutedStatusChangedERKNS_13MediaPlayerIdEb to i8*), i8* bitcast (void (%"class.content::WebContentsObserver"*, %"struct.content::MediaPlayerId"*)* @_ZN7content19WebContentsObserver20MediaBufferUnderflowERKNS_13MediaPlayerIdE to i8*), i8* bitcast (void (%"class.content::WebContentsObserver"*, %"struct.content::MediaPlayerId"*)* @_ZN7content19WebContentsObserver15MediaPlayerSeekERKNS_13MediaPlayerIdE to i8*), i8* bitcast (void (%"class.content::WebContentsObserver"*, %"struct.content::MediaPlayerId"*)* @_ZN7content19WebContentsObserver14MediaDestroyedERKNS_13MediaPlayerIdE to i8*), i8* bitcast (void (%"class.content::WebContentsObserver"*, float)* @_ZN7content19WebContentsObserver24OnPageScaleFactorChangedEf to i8*), i8* bitcast (void (%"class.content::WebContentsObserver"*)* @_ZN7content19WebContentsObserver7OnPasteEv to i8*), i8* bitcast (i1 (%"class.content::WebContentsObserver"*, %"class.IPC::Message"*, %"class.content::RenderFrameHost"*)* @_ZN7content19WebContentsObserver17OnMessageReceivedERKN3IPC7MessageEPNS_15RenderFrameHostE to i8*), i8* bitcast (void (%"class.content::WebContentsObserver"*, %"class.content::RenderWidgetHost"*)* @_ZN7content19WebContentsObserver20OnWebContentsFocusedEPNS_16RenderWidgetHostE to i8*), i8* bitcast (void (%"class.content::WebContentsObserver"*, %"class.content::RenderWidgetHost"*)* @_ZN7content19WebContentsObserver22OnWebContentsLostFocusEPNS_16RenderWidgetHostE to i8*), i8* bitcast (void (%"class.content::WebContentsObserver"*, %"struct.content::FocusedNodeDetails"*)* @_ZN7content19WebContentsObserver20OnFocusChangedInPageEPNS_18FocusedNodeDetailsE to i8*), i8* bitcast (void (%"class.content::WebContentsObserver"*, %"class.content::RenderFrameHost"*, %"class.absl::optional.71"*)* @_ZN7content19WebContentsObserver23DidUpdateWebManifestURLEPNS_15RenderFrameHostERKN4absl8optionalI4GURLEE to i8*), i8* bitcast (void (%"class.content::WebContentsObserver"*, %"class.content::RenderFrameHost"*, %"class.std::__1::basic_string.38"*, %"class.mojo::ScopedHandleBase"*)* @_ZN7content19WebContentsObserver27OnInterfaceRequestFromFrameEPNS_15RenderFrameHostERKNSt3__112basic_stringIcNS3_11char_traitsIcEENS3_9allocatorIcEEEEPN4mojo16ScopedHandleBaseINSC_17MessagePipeHandleEEE to i8*), i8* bitcast (void (%"class.content::WebContentsObserver"*, %"struct.std::__1::pair"*)* @_ZN7content19WebContentsObserver27AudioContextPlaybackStartedERKNSt3__14pairIPNS_15RenderFrameHostEiEE to i8*), i8* bitcast (void (%"class.content::WebContentsObserver"*, %"struct.std::__1::pair"*)* @_ZN7content19WebContentsObserver27AudioContextPlaybackStoppedERKNSt3__14pairIPNS_15RenderFrameHostEiEE to i8*), i8* bitcast (void (%"class.content::WebContentsObserver"*, %"class.content::RenderFrameHost"*, %class.GURL*, i24)* @_ZN7content19WebContentsObserver23OnServiceWorkerAccessedEPNS_15RenderFrameHostERK4GURLNS_24AllowServiceWorkerResultE to i8*), i8* bitcast (void (%"class.content::WebContentsObserver"*, %"class.content::NavigationHandle"*, %class.GURL*, i24)* @_ZN7content19WebContentsObserver23OnServiceWorkerAccessedEPNS_16NavigationHandleERK4GURLNS_24AllowServiceWorkerResultE to i8*)], [5 x i8*] [i8* inttoptr (i64 -16 to i8*), i8* null, i8* bitcast (void (%"class.payments::PaymentCredentialEnrollmentController"*)* @_ZThn16_N8payments37PaymentCredentialEnrollmentControllerD1Ev to i8*), i8* bitcast (void (%"class.payments::PaymentCredentialEnrollmentController"*)* @_ZThn16_N8payments37PaymentCredentialEnrollmentControllerD0Ev to i8*), i8* bitcast (void ()* @_ZN4base16SupportsUserData4Data5CloneEv to i8*)] }, align 8
@_ZN8payments37PaymentCredentialEnrollmentController12kUserDataKeyE = hidden constant i32 0, align 4
@.str = private unnamed_addr constant [29 x i8] c"../../base/memory/weak_ptr.h\00", align 1
@.str.1 = private unnamed_addr constant [15 x i8] c"ref_.IsValid()\00", align 1

@_ZN8payments37PaymentCredentialEnrollmentController11ScopedTokenC1Ev = hidden unnamed_addr alias void (%"class.payments::PaymentCredentialEnrollmentController::ScopedToken"*), void (%"class.payments::PaymentCredentialEnrollmentController::ScopedToken"*)* @_ZN8payments37PaymentCredentialEnrollmentController11ScopedTokenC2Ev
@_ZN8payments37PaymentCredentialEnrollmentController11ScopedTokenD1Ev = hidden unnamed_addr alias void (%"class.payments::PaymentCredentialEnrollmentController::ScopedToken"*), void (%"class.payments::PaymentCredentialEnrollmentController::ScopedToken"*)* @_ZN8payments37PaymentCredentialEnrollmentController11ScopedTokenD2Ev
@_ZN8payments37PaymentCredentialEnrollmentControllerC1EPN7content11WebContentsE = hidden unnamed_addr alias void (%"class.payments::PaymentCredentialEnrollmentController"*, %"class.content::WebContents"*), void (%"class.payments::PaymentCredentialEnrollmentController"*, %"class.content::WebContents"*)* @_ZN8payments37PaymentCredentialEnrollmentControllerC2EPN7content11WebContentsE
@_ZN8payments37PaymentCredentialEnrollmentControllerD1Ev = hidden unnamed_addr alias void (%"class.payments::PaymentCredentialEnrollmentController"*), void (%"class.payments::PaymentCredentialEnrollmentController"*)* @_ZN8payments37PaymentCredentialEnrollmentControllerD2Ev

; Function Attrs: nounwind ssp uwtable
define hidden void @_ZN8payments37PaymentCredentialEnrollmentController11ScopedTokenC2Ev(%"class.payments::PaymentCredentialEnrollmentController::ScopedToken"*) unnamed_addr #0 align 2 {
  %2 = getelementptr inbounds %"class.payments::PaymentCredentialEnrollmentController::ScopedToken", %"class.payments::PaymentCredentialEnrollmentController::ScopedToken"* %0, i64 0, i32 0, i32 0
  %3 = ptrtoint %"class.payments::PaymentCredentialEnrollmentController::ScopedToken"* %0 to i64
  tail call void @_ZN4base8internal18WeakPtrFactoryBaseC2Em(%"class.base::internal::WeakPtrFactoryBase"* %2, i64 %3) #6
  ret void
}

; Function Attrs: nounwind ssp uwtable
define hidden void @_ZN8payments37PaymentCredentialEnrollmentController11ScopedTokenD2Ev(%"class.payments::PaymentCredentialEnrollmentController::ScopedToken"*) unnamed_addr #0 align 2 {
  %2 = getelementptr inbounds %"class.payments::PaymentCredentialEnrollmentController::ScopedToken", %"class.payments::PaymentCredentialEnrollmentController::ScopedToken"* %0, i64 0, i32 0, i32 0
  tail call void @_ZN4base8internal18WeakPtrFactoryBaseD2Ev(%"class.base::internal::WeakPtrFactoryBase"* %2) #6
  ret void
}

; Function Attrs: nounwind ssp uwtable
define hidden void @_ZN8payments37PaymentCredentialEnrollmentController11ScopedToken10GetWeakPtrEv(%"class.base::WeakPtr"* noalias sret, %"class.payments::PaymentCredentialEnrollmentController::ScopedToken"*) local_unnamed_addr #0 align 2 {
  %3 = alloca %"class.base::internal::WeakReference", align 8
  %4 = bitcast %"class.base::internal::WeakReference"* %3 to i8*
  call void @llvm.lifetime.start.p0i8(i64 8, i8* nonnull %4) #6, !noalias !2
  %5 = getelementptr inbounds %"class.payments::PaymentCredentialEnrollmentController::ScopedToken", %"class.payments::PaymentCredentialEnrollmentController::ScopedToken"* %1, i64 0, i32 0, i32 0, i32 0
  call void @_ZNK4base8internal18WeakReferenceOwner6GetRefEv(%"class.base::internal::WeakReference"* nonnull sret %3, %"class.base::internal::WeakReferenceOwner"* %5) #6, !noalias !2
  %6 = getelementptr inbounds %"class.payments::PaymentCredentialEnrollmentController::ScopedToken", %"class.payments::PaymentCredentialEnrollmentController::ScopedToken"* %1, i64 0, i32 0, i32 0, i32 1
  %7 = load i64, i64* %6, align 8, !noalias !2
  %8 = getelementptr inbounds %"class.base::WeakPtr", %"class.base::WeakPtr"* %0, i64 0, i32 0
  call void @_ZN4base8internal11WeakPtrBaseC2ERKNS0_13WeakReferenceEm(%"class.base::internal::WeakPtrBase"* %8, %"class.base::internal::WeakReference"* nonnull dereferenceable(8) %3, i64 %7) #6
  call void @_ZN4base8internal13WeakReferenceD1Ev(%"class.base::internal::WeakReference"* nonnull %3) #6
  call void @llvm.lifetime.end.p0i8(i64 8, i8* nonnull %4) #6, !noalias !2
  ret void
}

; Function Attrs: nounwind ssp uwtable
define hidden %"class.payments::PaymentCredentialEnrollmentController"* @_ZN8payments37PaymentCredentialEnrollmentController25GetOrCreateForWebContentsEPN7content11WebContentsE(%"class.content::WebContents"*) local_unnamed_addr #0 align 2 {
  tail call void @_ZN7content19WebContentsUserDataIN8payments37PaymentCredentialEnrollmentControllerEE20CreateForWebContentsIJEEEvPNS_11WebContentsEDpOT_(%"class.content::WebContents"* %0)
  %2 = getelementptr inbounds %"class.content::WebContents", %"class.content::WebContents"* %0, i64 0, i32 1
  %3 = bitcast %"class.base::SupportsUserData.base"* %2 to %"class.base::SupportsUserData"*
  %4 = tail call %"class.base::SupportsUserData::Data"* @_ZNK4base16SupportsUserData11GetUserDataEPKv(%"class.base::SupportsUserData"* %3, i8* bitcast (i32* @_ZN8payments37PaymentCredentialEnrollmentController12kUserDataKeyE to i8*)) #6
  %5 = icmp eq %"class.base::SupportsUserData::Data"* %4, null
  %6 = getelementptr inbounds %"class.base::SupportsUserData::Data", %"class.base::SupportsUserData::Data"* %4, i64 -2
  %7 = bitcast %"class.base::SupportsUserData::Data"* %6 to %"class.payments::PaymentCredentialEnrollmentController"*
  %8 = select i1 %5, %"class.payments::PaymentCredentialEnrollmentController"* null, %"class.payments::PaymentCredentialEnrollmentController"* %7
  ret %"class.payments::PaymentCredentialEnrollmentController"* %8
}

; Function Attrs: nounwind ssp uwtable
define linkonce_odr hidden void @_ZN7content19WebContentsUserDataIN8payments37PaymentCredentialEnrollmentControllerEE20CreateForWebContentsIJEEEvPNS_11WebContentsEDpOT_(%"class.content::WebContents"*) local_unnamed_addr #0 comdat align 2 {
  %2 = getelementptr inbounds %"class.content::WebContents", %"class.content::WebContents"* %0, i64 0, i32 1
  %3 = bitcast %"class.base::SupportsUserData.base"* %2 to %"class.base::SupportsUserData"*
  %4 = tail call %"class.base::SupportsUserData::Data"* @_ZNK4base16SupportsUserData11GetUserDataEPKv(%"class.base::SupportsUserData"* %3, i8* bitcast (i32* @_ZN8payments37PaymentCredentialEnrollmentController12kUserDataKeyE to i8*)) #6
  %5 = icmp eq %"class.base::SupportsUserData::Data"* %4, null
  %6 = getelementptr inbounds %"class.base::SupportsUserData::Data", %"class.base::SupportsUserData::Data"* %4, i64 -2
  %7 = icmp eq %"class.base::SupportsUserData::Data"* %6, null
  %8 = or i1 %5, %7
  br i1 %8, label %9, label %29

9:                                                ; preds = %1
  %10 = tail call i8* @_Znwm(i64 96) #7
  %11 = bitcast i8* %10 to %"class.content::WebContentsObserver"*
  tail call void @_ZN7content19WebContentsObserverC2EPNS_11WebContentsE(%"class.content::WebContentsObserver"* nonnull %11, %"class.content::WebContents"* %0) #6
  %12 = getelementptr inbounds i8, i8* %10, i64 16
  %13 = bitcast i8* %12 to i32 (...)***
  %14 = bitcast i8* %10 to i32 (...)***
  store i32 (...)** bitcast (i8** getelementptr inbounds ({ [109 x i8*], [5 x i8*] }, { [109 x i8*], [5 x i8*] }* @_ZTVN8payments37PaymentCredentialEnrollmentControllerE, i64 0, inrange i32 0, i64 2) to i32 (...)**), i32 (...)*** %14, align 8
  store i32 (...)** bitcast (i8** getelementptr inbounds ({ [109 x i8*], [5 x i8*] }, { [109 x i8*], [5 x i8*] }* @_ZTVN8payments37PaymentCredentialEnrollmentControllerE, i64 0, inrange i32 1, i64 2) to i32 (...)**), i32 (...)*** %13, align 8
  %15 = getelementptr inbounds i8, i8* %10, i64 24
  %16 = bitcast i8* %15 to i32*
  store i32 0, i32* %16, align 4
  %17 = getelementptr inbounds i8, i8* %10, i64 28
  %18 = bitcast i8* %17 to i32*
  store i32 -2, i32* %18, align 4
  %19 = getelementptr inbounds i8, i8* %10, i64 32
  %20 = getelementptr inbounds i8, i8* %10, i64 48
  %21 = bitcast i8* %20 to %"class.base::internal::WeakPtrBase"*
  tail call void @llvm.memset.p0i8.i64(i8* align 8 %19, i8 0, i64 16, i1 false) #6
  tail call void @_ZN4base8internal11WeakPtrBaseC2Ev(%"class.base::internal::WeakPtrBase"* %21) #6
  %22 = getelementptr inbounds i8, i8* %10, i64 64
  %23 = bitcast i8* %22 to i64*
  store i64 0, i64* %23, align 8
  %24 = getelementptr inbounds i8, i8* %10, i64 72
  store i8 0, i8* %24, align 8
  %25 = getelementptr inbounds i8, i8* %10, i64 80
  %26 = bitcast i8* %25 to %"class.base::internal::WeakPtrFactoryBase"*
  %27 = ptrtoint i8* %10 to i64
  tail call void @_ZN4base8internal18WeakPtrFactoryBaseC2Em(%"class.base::internal::WeakPtrFactoryBase"* %26, i64 %27) #6
  %28 = bitcast i8* %12 to %"class.base::SupportsUserData::Data"*
  tail call void @_ZN4base16SupportsUserData11SetUserDataEPKvNSt3__110unique_ptrINS0_4DataENS3_14default_deleteIS5_EEEE(%"class.base::SupportsUserData"* %3, i8* bitcast (i32* @_ZN8payments37PaymentCredentialEnrollmentController12kUserDataKeyE to i8*), %"class.base::SupportsUserData::Data"* %28) #6
  br label %29

29:                                               ; preds = %1, %9
  ret void
}

; Function Attrs: nounwind ssp uwtable
define hidden void @_ZN8payments37PaymentCredentialEnrollmentControllerC2EPN7content11WebContentsE(%"class.payments::PaymentCredentialEnrollmentController"*, %"class.content::WebContents"*) unnamed_addr #0 align 2 {
  %3 = getelementptr inbounds %"class.payments::PaymentCredentialEnrollmentController", %"class.payments::PaymentCredentialEnrollmentController"* %0, i64 0, i32 0
  tail call void @_ZN7content19WebContentsObserverC2EPNS_11WebContentsE(%"class.content::WebContentsObserver"* %3, %"class.content::WebContents"* %1) #6
  %4 = getelementptr inbounds %"class.payments::PaymentCredentialEnrollmentController", %"class.payments::PaymentCredentialEnrollmentController"* %0, i64 0, i32 1, i32 0, i32 0
  %5 = getelementptr inbounds %"class.payments::PaymentCredentialEnrollmentController", %"class.payments::PaymentCredentialEnrollmentController"* %0, i64 0, i32 0, i32 0, i32 0
  store i32 (...)** bitcast (i8** getelementptr inbounds ({ [109 x i8*], [5 x i8*] }, { [109 x i8*], [5 x i8*] }* @_ZTVN8payments37PaymentCredentialEnrollmentControllerE, i64 0, inrange i32 0, i64 2) to i32 (...)**), i32 (...)*** %5, align 8
  store i32 (...)** bitcast (i8** getelementptr inbounds ({ [109 x i8*], [5 x i8*] }, { [109 x i8*], [5 x i8*] }* @_ZTVN8payments37PaymentCredentialEnrollmentControllerE, i64 0, inrange i32 1, i64 2) to i32 (...)**), i32 (...)*** %4, align 8
  %6 = getelementptr inbounds %"class.payments::PaymentCredentialEnrollmentController", %"class.payments::PaymentCredentialEnrollmentController"* %0, i64 0, i32 2, i32 0
  store i32 0, i32* %6, align 4
  %7 = getelementptr inbounds %"class.payments::PaymentCredentialEnrollmentController", %"class.payments::PaymentCredentialEnrollmentController"* %0, i64 0, i32 2, i32 1
  store i32 -2, i32* %7, align 4
  %8 = getelementptr inbounds %"class.payments::PaymentCredentialEnrollmentController", %"class.payments::PaymentCredentialEnrollmentController"* %0, i64 0, i32 3, i32 0, i32 0, i32 0
  %9 = getelementptr inbounds %"class.payments::PaymentCredentialEnrollmentController", %"class.payments::PaymentCredentialEnrollmentController"* %0, i64 0, i32 5, i32 0
  %10 = bitcast %"class.base::internal::BindStateBase"** %8 to i8*
  call void @llvm.memset.p0i8.i64(i8* align 8 %10, i8 0, i64 16, i1 false)
  tail call void @_ZN4base8internal11WeakPtrBaseC2Ev(%"class.base::internal::WeakPtrBase"* %9) #6
  %11 = getelementptr inbounds %"class.payments::PaymentCredentialEnrollmentController", %"class.payments::PaymentCredentialEnrollmentController"* %0, i64 0, i32 6
  %12 = bitcast %"class.std::__1::unique_ptr"* %11 to i64*
  store i64 0, i64* %12, align 8
  %13 = getelementptr inbounds %"class.payments::PaymentCredentialEnrollmentController", %"class.payments::PaymentCredentialEnrollmentController"* %0, i64 0, i32 7
  store i8 0, i8* %13, align 8
  %14 = getelementptr inbounds %"class.payments::PaymentCredentialEnrollmentController", %"class.payments::PaymentCredentialEnrollmentController"* %0, i64 0, i32 8, i32 0
  %15 = ptrtoint %"class.payments::PaymentCredentialEnrollmentController"* %0 to i64
  tail call void @_ZN4base8internal18WeakPtrFactoryBaseC2Em(%"class.base::internal::WeakPtrFactoryBase"* %14, i64 %15) #6
  ret void
}

declare void @_ZN7content19WebContentsObserverC2EPNS_11WebContentsE(%"class.content::WebContentsObserver"*, %"class.content::WebContents"*) unnamed_addr #1

; Function Attrs: nounwind ssp uwtable
define hidden void @_ZN8payments37PaymentCredentialEnrollmentControllerD2Ev(%"class.payments::PaymentCredentialEnrollmentController"*) unnamed_addr #0 align 2 {
  %2 = getelementptr inbounds %"class.payments::PaymentCredentialEnrollmentController", %"class.payments::PaymentCredentialEnrollmentController"* %0, i64 0, i32 0, i32 0, i32 0
  store i32 (...)** bitcast (i8** getelementptr inbounds ({ [109 x i8*], [5 x i8*] }, { [109 x i8*], [5 x i8*] }* @_ZTVN8payments37PaymentCredentialEnrollmentControllerE, i64 0, inrange i32 0, i64 2) to i32 (...)**), i32 (...)*** %2, align 8
  %3 = getelementptr inbounds %"class.payments::PaymentCredentialEnrollmentController", %"class.payments::PaymentCredentialEnrollmentController"* %0, i64 0, i32 1, i32 0, i32 0
  store i32 (...)** bitcast (i8** getelementptr inbounds ({ [109 x i8*], [5 x i8*] }, { [109 x i8*], [5 x i8*] }* @_ZTVN8payments37PaymentCredentialEnrollmentControllerE, i64 0, inrange i32 1, i64 2) to i32 (...)**), i32 (...)*** %3, align 8
  %4 = getelementptr inbounds %"class.payments::PaymentCredentialEnrollmentController", %"class.payments::PaymentCredentialEnrollmentController"* %0, i64 0, i32 8, i32 0
  tail call void @_ZN4base8internal18WeakPtrFactoryBaseD2Ev(%"class.base::internal::WeakPtrFactoryBase"* %4) #6
  %5 = getelementptr inbounds %"class.payments::PaymentCredentialEnrollmentController", %"class.payments::PaymentCredentialEnrollmentController"* %0, i64 0, i32 6, i32 0, i32 0, i32 0
  %6 = load %"class.payments::PaymentCredentialEnrollmentBridge"*, %"class.payments::PaymentCredentialEnrollmentBridge"** %5, align 8
  store %"class.payments::PaymentCredentialEnrollmentBridge"* null, %"class.payments::PaymentCredentialEnrollmentBridge"** %5, align 8
  %7 = icmp eq %"class.payments::PaymentCredentialEnrollmentBridge"* %6, null
  br i1 %7, label %13, label %8

8:                                                ; preds = %1
  %9 = bitcast %"class.payments::PaymentCredentialEnrollmentBridge"* %6 to void (%"class.payments::PaymentCredentialEnrollmentBridge"*)***
  %10 = load void (%"class.payments::PaymentCredentialEnrollmentBridge"*)**, void (%"class.payments::PaymentCredentialEnrollmentBridge"*)*** %9, align 8
  %11 = getelementptr inbounds void (%"class.payments::PaymentCredentialEnrollmentBridge"*)*, void (%"class.payments::PaymentCredentialEnrollmentBridge"*)** %10, i64 1
  %12 = load void (%"class.payments::PaymentCredentialEnrollmentBridge"*)*, void (%"class.payments::PaymentCredentialEnrollmentBridge"*)** %11, align 8
  tail call void %12(%"class.payments::PaymentCredentialEnrollmentBridge"* nonnull %6) #6
  br label %13

13:                                               ; preds = %1, %8
  %14 = getelementptr inbounds %"class.payments::PaymentCredentialEnrollmentController", %"class.payments::PaymentCredentialEnrollmentController"* %0, i64 0, i32 5, i32 0
  tail call void @_ZN4base8internal11WeakPtrBaseD2Ev(%"class.base::internal::WeakPtrBase"* %14) #6
  %15 = getelementptr inbounds %"class.payments::PaymentCredentialEnrollmentController", %"class.payments::PaymentCredentialEnrollmentController"* %0, i64 0, i32 3, i32 0
  tail call void @_ZN4base8internal12CallbackBaseD2Ev(%"class.base::internal::CallbackBase"* %15) #6
  %16 = getelementptr inbounds %"class.payments::PaymentCredentialEnrollmentController", %"class.payments::PaymentCredentialEnrollmentController"* %0, i64 0, i32 0
  tail call void @_ZN7content19WebContentsObserverD2Ev(%"class.content::WebContentsObserver"* %16) #6
  ret void
}

; Function Attrs: nounwind
declare void @_ZN4base8internal18WeakPtrFactoryBaseD2Ev(%"class.base::internal::WeakPtrFactoryBase"*) unnamed_addr #2

; Function Attrs: nounwind
declare void @_ZN4base8internal11WeakPtrBaseD2Ev(%"class.base::internal::WeakPtrBase"*) unnamed_addr #2

; Function Attrs: nounwind
declare void @_ZN4base8internal12CallbackBaseD2Ev(%"class.base::internal::CallbackBase"*) unnamed_addr #2

; Function Attrs: nounwind
declare void @_ZN7content19WebContentsObserverD2Ev(%"class.content::WebContentsObserver"*) unnamed_addr #2

; Function Attrs: nounwind ssp uwtable
define hidden void @_ZThn16_N8payments37PaymentCredentialEnrollmentControllerD1Ev(%"class.payments::PaymentCredentialEnrollmentController"*) unnamed_addr #0 align 2 {
  %2 = getelementptr inbounds %"class.payments::PaymentCredentialEnrollmentController", %"class.payments::PaymentCredentialEnrollmentController"* %0, i64 -1, i32 8
  %3 = bitcast %"class.base::WeakPtrFactory.16"* %2 to i32 (...)***
  store i32 (...)** bitcast (i8** getelementptr inbounds ({ [109 x i8*], [5 x i8*] }, { [109 x i8*], [5 x i8*] }* @_ZTVN8payments37PaymentCredentialEnrollmentControllerE, i64 0, inrange i32 0, i64 2) to i32 (...)**), i32 (...)*** %3, align 8
  %4 = getelementptr inbounds %"class.base::WeakPtrFactory.16", %"class.base::WeakPtrFactory.16"* %2, i64 1
  %5 = bitcast %"class.base::WeakPtrFactory.16"* %4 to i32 (...)***
  store i32 (...)** bitcast (i8** getelementptr inbounds ({ [109 x i8*], [5 x i8*] }, { [109 x i8*], [5 x i8*] }* @_ZTVN8payments37PaymentCredentialEnrollmentControllerE, i64 0, inrange i32 1, i64 2) to i32 (...)**), i32 (...)*** %5, align 8
  %6 = getelementptr inbounds %"class.base::WeakPtrFactory.16", %"class.base::WeakPtrFactory.16"* %2, i64 5, i32 0
  tail call void @_ZN4base8internal18WeakPtrFactoryBaseD2Ev(%"class.base::internal::WeakPtrFactoryBase"* %6) #6
  %7 = getelementptr inbounds %"class.base::WeakPtrFactory.16", %"class.base::WeakPtrFactory.16"* %2, i64 4
  %8 = bitcast %"class.base::WeakPtrFactory.16"* %7 to %"class.payments::PaymentCredentialEnrollmentBridge"**
  %9 = load %"class.payments::PaymentCredentialEnrollmentBridge"*, %"class.payments::PaymentCredentialEnrollmentBridge"** %8, align 8
  store %"class.payments::PaymentCredentialEnrollmentBridge"* null, %"class.payments::PaymentCredentialEnrollmentBridge"** %8, align 8
  %10 = icmp eq %"class.payments::PaymentCredentialEnrollmentBridge"* %9, null
  br i1 %10, label %16, label %11

11:                                               ; preds = %1
  %12 = bitcast %"class.payments::PaymentCredentialEnrollmentBridge"* %9 to void (%"class.payments::PaymentCredentialEnrollmentBridge"*)***
  %13 = load void (%"class.payments::PaymentCredentialEnrollmentBridge"*)**, void (%"class.payments::PaymentCredentialEnrollmentBridge"*)*** %12, align 8
  %14 = getelementptr inbounds void (%"class.payments::PaymentCredentialEnrollmentBridge"*)*, void (%"class.payments::PaymentCredentialEnrollmentBridge"*)** %13, i64 1
  %15 = load void (%"class.payments::PaymentCredentialEnrollmentBridge"*)*, void (%"class.payments::PaymentCredentialEnrollmentBridge"*)** %14, align 8
  tail call void %15(%"class.payments::PaymentCredentialEnrollmentBridge"* nonnull %9) #6
  br label %16

16:                                               ; preds = %1, %11
  %17 = getelementptr inbounds %"class.base::WeakPtrFactory.16", %"class.base::WeakPtrFactory.16"* %2, i64 3
  %18 = bitcast %"class.base::WeakPtrFactory.16"* %17 to %"class.base::internal::WeakPtrBase"*
  tail call void @_ZN4base8internal11WeakPtrBaseD2Ev(%"class.base::internal::WeakPtrBase"* %18) #6
  %19 = getelementptr inbounds %"class.base::WeakPtrFactory.16", %"class.base::WeakPtrFactory.16"* %2, i64 2
  %20 = bitcast %"class.base::WeakPtrFactory.16"* %19 to %"class.base::internal::CallbackBase"*
  tail call void @_ZN4base8internal12CallbackBaseD2Ev(%"class.base::internal::CallbackBase"* %20) #6
  %21 = bitcast %"class.base::WeakPtrFactory.16"* %2 to %"class.content::WebContentsObserver"*
  tail call void @_ZN7content19WebContentsObserverD2Ev(%"class.content::WebContentsObserver"* %21) #6
  ret void
}

; Function Attrs: nounwind ssp uwtable
define hidden void @_ZN8payments37PaymentCredentialEnrollmentControllerD0Ev(%"class.payments::PaymentCredentialEnrollmentController"*) unnamed_addr #0 align 2 {
  %2 = getelementptr inbounds %"class.payments::PaymentCredentialEnrollmentController", %"class.payments::PaymentCredentialEnrollmentController"* %0, i64 0, i32 0, i32 0, i32 0
  store i32 (...)** bitcast (i8** getelementptr inbounds ({ [109 x i8*], [5 x i8*] }, { [109 x i8*], [5 x i8*] }* @_ZTVN8payments37PaymentCredentialEnrollmentControllerE, i64 0, inrange i32 0, i64 2) to i32 (...)**), i32 (...)*** %2, align 8
  %3 = getelementptr inbounds %"class.payments::PaymentCredentialEnrollmentController", %"class.payments::PaymentCredentialEnrollmentController"* %0, i64 0, i32 1, i32 0, i32 0
  store i32 (...)** bitcast (i8** getelementptr inbounds ({ [109 x i8*], [5 x i8*] }, { [109 x i8*], [5 x i8*] }* @_ZTVN8payments37PaymentCredentialEnrollmentControllerE, i64 0, inrange i32 1, i64 2) to i32 (...)**), i32 (...)*** %3, align 8
  %4 = getelementptr inbounds %"class.payments::PaymentCredentialEnrollmentController", %"class.payments::PaymentCredentialEnrollmentController"* %0, i64 0, i32 8, i32 0
  tail call void @_ZN4base8internal18WeakPtrFactoryBaseD2Ev(%"class.base::internal::WeakPtrFactoryBase"* %4) #6
  %5 = getelementptr inbounds %"class.payments::PaymentCredentialEnrollmentController", %"class.payments::PaymentCredentialEnrollmentController"* %0, i64 0, i32 6, i32 0, i32 0, i32 0
  %6 = load %"class.payments::PaymentCredentialEnrollmentBridge"*, %"class.payments::PaymentCredentialEnrollmentBridge"** %5, align 8
  store %"class.payments::PaymentCredentialEnrollmentBridge"* null, %"class.payments::PaymentCredentialEnrollmentBridge"** %5, align 8
  %7 = icmp eq %"class.payments::PaymentCredentialEnrollmentBridge"* %6, null
  br i1 %7, label %13, label %8

8:                                                ; preds = %1
  %9 = bitcast %"class.payments::PaymentCredentialEnrollmentBridge"* %6 to void (%"class.payments::PaymentCredentialEnrollmentBridge"*)***
  %10 = load void (%"class.payments::PaymentCredentialEnrollmentBridge"*)**, void (%"class.payments::PaymentCredentialEnrollmentBridge"*)*** %9, align 8
  %11 = getelementptr inbounds void (%"class.payments::PaymentCredentialEnrollmentBridge"*)*, void (%"class.payments::PaymentCredentialEnrollmentBridge"*)** %10, i64 1
  %12 = load void (%"class.payments::PaymentCredentialEnrollmentBridge"*)*, void (%"class.payments::PaymentCredentialEnrollmentBridge"*)** %11, align 8
  tail call void %12(%"class.payments::PaymentCredentialEnrollmentBridge"* nonnull %6) #6
  br label %13

13:                                               ; preds = %1, %8
  %14 = getelementptr inbounds %"class.payments::PaymentCredentialEnrollmentController", %"class.payments::PaymentCredentialEnrollmentController"* %0, i64 0, i32 5, i32 0
  tail call void @_ZN4base8internal11WeakPtrBaseD2Ev(%"class.base::internal::WeakPtrBase"* %14) #6
  %15 = getelementptr inbounds %"class.payments::PaymentCredentialEnrollmentController", %"class.payments::PaymentCredentialEnrollmentController"* %0, i64 0, i32 3, i32 0
  tail call void @_ZN4base8internal12CallbackBaseD2Ev(%"class.base::internal::CallbackBase"* %15) #6
  %16 = getelementptr inbounds %"class.payments::PaymentCredentialEnrollmentController", %"class.payments::PaymentCredentialEnrollmentController"* %0, i64 0, i32 0
  tail call void @_ZN7content19WebContentsObserverD2Ev(%"class.content::WebContentsObserver"* %16) #6
  %17 = bitcast %"class.payments::PaymentCredentialEnrollmentController"* %0 to i8*
  tail call void @_ZdlPv(i8* %17) #7
  ret void
}

; Function Attrs: nobuiltin nounwind
declare void @_ZdlPv(i8*) local_unnamed_addr #3

; Function Attrs: nounwind ssp uwtable
define hidden void @_ZThn16_N8payments37PaymentCredentialEnrollmentControllerD0Ev(%"class.payments::PaymentCredentialEnrollmentController"*) unnamed_addr #0 align 2 {
  %2 = getelementptr inbounds %"class.payments::PaymentCredentialEnrollmentController", %"class.payments::PaymentCredentialEnrollmentController"* %0, i64 -1, i32 8
  %3 = bitcast %"class.base::WeakPtrFactory.16"* %2 to i32 (...)***
  store i32 (...)** bitcast (i8** getelementptr inbounds ({ [109 x i8*], [5 x i8*] }, { [109 x i8*], [5 x i8*] }* @_ZTVN8payments37PaymentCredentialEnrollmentControllerE, i64 0, inrange i32 0, i64 2) to i32 (...)**), i32 (...)*** %3, align 8
  %4 = getelementptr inbounds %"class.base::WeakPtrFactory.16", %"class.base::WeakPtrFactory.16"* %2, i64 1
  %5 = bitcast %"class.base::WeakPtrFactory.16"* %4 to i32 (...)***
  store i32 (...)** bitcast (i8** getelementptr inbounds ({ [109 x i8*], [5 x i8*] }, { [109 x i8*], [5 x i8*] }* @_ZTVN8payments37PaymentCredentialEnrollmentControllerE, i64 0, inrange i32 1, i64 2) to i32 (...)**), i32 (...)*** %5, align 8
  %6 = getelementptr inbounds %"class.base::WeakPtrFactory.16", %"class.base::WeakPtrFactory.16"* %2, i64 5, i32 0
  tail call void @_ZN4base8internal18WeakPtrFactoryBaseD2Ev(%"class.base::internal::WeakPtrFactoryBase"* %6) #6
  %7 = getelementptr inbounds %"class.base::WeakPtrFactory.16", %"class.base::WeakPtrFactory.16"* %2, i64 4
  %8 = bitcast %"class.base::WeakPtrFactory.16"* %7 to %"class.payments::PaymentCredentialEnrollmentBridge"**
  %9 = load %"class.payments::PaymentCredentialEnrollmentBridge"*, %"class.payments::PaymentCredentialEnrollmentBridge"** %8, align 8
  store %"class.payments::PaymentCredentialEnrollmentBridge"* null, %"class.payments::PaymentCredentialEnrollmentBridge"** %8, align 8
  %10 = icmp eq %"class.payments::PaymentCredentialEnrollmentBridge"* %9, null
  br i1 %10, label %16, label %11

11:                                               ; preds = %1
  %12 = bitcast %"class.payments::PaymentCredentialEnrollmentBridge"* %9 to void (%"class.payments::PaymentCredentialEnrollmentBridge"*)***
  %13 = load void (%"class.payments::PaymentCredentialEnrollmentBridge"*)**, void (%"class.payments::PaymentCredentialEnrollmentBridge"*)*** %12, align 8
  %14 = getelementptr inbounds void (%"class.payments::PaymentCredentialEnrollmentBridge"*)*, void (%"class.payments::PaymentCredentialEnrollmentBridge"*)** %13, i64 1
  %15 = load void (%"class.payments::PaymentCredentialEnrollmentBridge"*)*, void (%"class.payments::PaymentCredentialEnrollmentBridge"*)** %14, align 8
  tail call void %15(%"class.payments::PaymentCredentialEnrollmentBridge"* nonnull %9) #6
  br label %16

16:                                               ; preds = %1, %11
  %17 = getelementptr inbounds %"class.base::WeakPtrFactory.16", %"class.base::WeakPtrFactory.16"* %2, i64 3
  %18 = bitcast %"class.base::WeakPtrFactory.16"* %17 to %"class.base::internal::WeakPtrBase"*
  tail call void @_ZN4base8internal11WeakPtrBaseD2Ev(%"class.base::internal::WeakPtrBase"* %18) #6
  %19 = getelementptr inbounds %"class.base::WeakPtrFactory.16", %"class.base::WeakPtrFactory.16"* %2, i64 2
  %20 = bitcast %"class.base::WeakPtrFactory.16"* %19 to %"class.base::internal::CallbackBase"*
  tail call void @_ZN4base8internal12CallbackBaseD2Ev(%"class.base::internal::CallbackBase"* %20) #6
  %21 = bitcast %"class.base::WeakPtrFactory.16"* %2 to %"class.content::WebContentsObserver"*
  tail call void @_ZN7content19WebContentsObserverD2Ev(%"class.content::WebContentsObserver"* %21) #6
  %22 = bitcast %"class.base::WeakPtrFactory.16"* %2 to i8*
  tail call void @_ZdlPv(i8* %22) #7
  ret void
}

; Function Attrs: nounwind ssp uwtable
define hidden void @_ZN8payments37PaymentCredentialEnrollmentController10ShowDialogEN7content20GlobalFrameRoutingIdENSt3__110unique_ptrI8SkBitmapNS3_14default_deleteIS5_EEEERKNS3_12basic_stringIDsNS3_11char_traitsIDsEENS3_9allocatorIDsEEEEN4base12OnceCallbackIFvbEEE(%"class.payments::PaymentCredentialEnrollmentController"*, i64, %class.SkBitmap*, %"class.std::__1::basic_string"* dereferenceable(24), %"class.base::OnceCallback"*) local_unnamed_addr #0 align 2 {
  %6 = alloca %"class.base::internal::WeakReference", align 8
  %7 = alloca %"class.base::OnceCallback", align 8
  %8 = alloca %"class.base::WeakPtr.30", align 8
  %9 = getelementptr inbounds %"class.payments::PaymentCredentialEnrollmentController", %"class.payments::PaymentCredentialEnrollmentController"* %0, i64 0, i32 7
  store i8 0, i8* %9, align 8
  %10 = getelementptr inbounds %"class.payments::PaymentCredentialEnrollmentController", %"class.payments::PaymentCredentialEnrollmentController"* %0, i64 0, i32 2
  %11 = bitcast %"struct.content::GlobalFrameRoutingId"* %10 to i64*
  store i64 %1, i64* %11, align 8
  %12 = getelementptr inbounds %"class.payments::PaymentCredentialEnrollmentController", %"class.payments::PaymentCredentialEnrollmentController"* %0, i64 0, i32 3, i32 0
  %13 = getelementptr inbounds %"class.base::OnceCallback", %"class.base::OnceCallback"* %4, i64 0, i32 0
  %14 = tail call dereferenceable(8) %"class.base::internal::CallbackBase"* @_ZN4base8internal12CallbackBaseaSEOS1_(%"class.base::internal::CallbackBase"* %12, %"class.base::internal::CallbackBase"* dereferenceable(8) %13) #6
  %15 = tail call %"class.payments::PaymentCredentialEnrollmentBridge"* @_ZN8payments33PaymentCredentialEnrollmentBridge6CreateEv() #6
  %16 = ptrtoint %"class.payments::PaymentCredentialEnrollmentBridge"* %15 to i64
  %17 = getelementptr inbounds %"class.payments::PaymentCredentialEnrollmentController", %"class.payments::PaymentCredentialEnrollmentController"* %0, i64 0, i32 6
  %18 = getelementptr inbounds %"class.std::__1::unique_ptr", %"class.std::__1::unique_ptr"* %17, i64 0, i32 0, i32 0, i32 0
  %19 = load %"class.payments::PaymentCredentialEnrollmentBridge"*, %"class.payments::PaymentCredentialEnrollmentBridge"** %18, align 8
  %20 = bitcast %"class.std::__1::unique_ptr"* %17 to i64*
  store i64 %16, i64* %20, align 8
  %21 = icmp eq %"class.payments::PaymentCredentialEnrollmentBridge"* %19, null
  br i1 %21, label %28, label %22

22:                                               ; preds = %5
  %23 = bitcast %"class.payments::PaymentCredentialEnrollmentBridge"* %19 to void (%"class.payments::PaymentCredentialEnrollmentBridge"*)***
  %24 = load void (%"class.payments::PaymentCredentialEnrollmentBridge"*)**, void (%"class.payments::PaymentCredentialEnrollmentBridge"*)*** %23, align 8
  %25 = getelementptr inbounds void (%"class.payments::PaymentCredentialEnrollmentBridge"*)*, void (%"class.payments::PaymentCredentialEnrollmentBridge"*)** %24, i64 1
  %26 = load void (%"class.payments::PaymentCredentialEnrollmentBridge"*)*, void (%"class.payments::PaymentCredentialEnrollmentBridge"*)** %25, align 8
  tail call void %26(%"class.payments::PaymentCredentialEnrollmentBridge"* nonnull %19) #6
  %27 = load %"class.payments::PaymentCredentialEnrollmentBridge"*, %"class.payments::PaymentCredentialEnrollmentBridge"** %18, align 8
  br label %28

28:                                               ; preds = %22, %5
  %29 = phi %"class.payments::PaymentCredentialEnrollmentBridge"* [ %27, %22 ], [ %15, %5 ]
  %30 = getelementptr inbounds %"class.payments::PaymentCredentialEnrollmentController", %"class.payments::PaymentCredentialEnrollmentController"* %0, i64 0, i32 0
  %31 = tail call %"class.content::WebContents"* @_ZNK7content19WebContentsObserver12web_contentsEv(%"class.content::WebContentsObserver"* %30) #6
  %32 = bitcast %"class.base::WeakPtr.30"* %8 to i8*
  call void @llvm.lifetime.start.p0i8(i64 16, i8* nonnull %32) #6
  %33 = bitcast %"class.base::internal::WeakReference"* %6 to i8*
  call void @llvm.lifetime.start.p0i8(i64 8, i8* nonnull %33) #6, !noalias !5
  %34 = getelementptr inbounds %"class.payments::PaymentCredentialEnrollmentController", %"class.payments::PaymentCredentialEnrollmentController"* %0, i64 0, i32 8, i32 0, i32 0
  call void @_ZNK4base8internal18WeakReferenceOwner6GetRefEv(%"class.base::internal::WeakReference"* nonnull sret %6, %"class.base::internal::WeakReferenceOwner"* %34) #6, !noalias !5
  %35 = getelementptr inbounds %"class.payments::PaymentCredentialEnrollmentController", %"class.payments::PaymentCredentialEnrollmentController"* %0, i64 0, i32 8, i32 0, i32 1
  %36 = load i64, i64* %35, align 8, !noalias !5
  %37 = getelementptr inbounds %"class.base::WeakPtr.30", %"class.base::WeakPtr.30"* %8, i64 0, i32 0
  call void @_ZN4base8internal11WeakPtrBaseC2ERKNS0_13WeakReferenceEm(%"class.base::internal::WeakPtrBase"* nonnull %37, %"class.base::internal::WeakReference"* nonnull dereferenceable(8) %6, i64 %36) #6
  call void @_ZN4base8internal13WeakReferenceD1Ev(%"class.base::internal::WeakReference"* nonnull %6) #6
  call void @llvm.lifetime.end.p0i8(i64 8, i8* nonnull %33) #6, !noalias !5
  %38 = call i8* @_Znwm(i64 64) #7, !noalias !8
  %39 = bitcast i8* %38 to %"class.base::internal::BindStateBase"*
  call void @_ZN4base8internal13BindStateBaseC2EPFvvEPFvPKS1_EPFbS5_NS1_21CancellationQueryModeEE(%"class.base::internal::BindStateBase"* nonnull %39, void ()* bitcast (void (%"class.base::internal::BindStateBase"*, i1)* @_ZN4base8internal7InvokerINS0_9BindStateIMN8payments37PaymentCredentialEnrollmentControllerEFvbEJNS_7WeakPtrIS4_EEEEEFvbEE7RunOnceEPNS0_13BindStateBaseEb to void ()*), void (%"class.base::internal::BindStateBase"*)* nonnull @_ZN4base8internal9BindStateIMN8payments37PaymentCredentialEnrollmentControllerEFvbEJNS_7WeakPtrIS3_EEEE7DestroyEPKNS0_13BindStateBaseE, i1 (%"class.base::internal::BindStateBase"*, i32)* nonnull @_ZN4base8internal23QueryCancellationTraitsINS0_9BindStateIMN8payments37PaymentCredentialEnrollmentControllerEFvbEJNS_7WeakPtrIS4_EEEEEEEbPKNS0_13BindStateBaseENSA_21CancellationQueryModeE) #6, !noalias !8
  %40 = getelementptr inbounds i8, i8* %38, i64 32
  %41 = bitcast i8* %40 to <2 x i64>*
  store <2 x i64> <i64 ptrtoint (void (%"class.payments::PaymentCredentialEnrollmentController"*, i1)* @_ZN8payments37PaymentCredentialEnrollmentController10OnResponseEb to i64), i64 0>, <2 x i64>* %41, align 8, !noalias !8
  %42 = getelementptr inbounds i8, i8* %38, i64 48
  %43 = bitcast i8* %42 to %"class.base::internal::WeakReference"*
  %44 = getelementptr inbounds %"class.base::WeakPtr.30", %"class.base::WeakPtr.30"* %8, i64 0, i32 0, i32 0
  call void @_ZN4base8internal13WeakReferenceC1EOS1_(%"class.base::internal::WeakReference"* %43, %"class.base::internal::WeakReference"* nonnull dereferenceable(8) %44) #6, !noalias !8
  %45 = getelementptr inbounds i8, i8* %38, i64 56
  %46 = bitcast i8* %45 to i64*
  %47 = getelementptr inbounds %"class.base::WeakPtr.30", %"class.base::WeakPtr.30"* %8, i64 0, i32 0, i32 1
  %48 = load i64, i64* %47, align 8, !noalias !8
  store i64 %48, i64* %46, align 8, !noalias !8
  %49 = bitcast %"class.base::OnceCallback"* %7 to i8**
  store i8* %38, i8** %49, align 8, !alias.scope !8
  %50 = bitcast %"class.payments::PaymentCredentialEnrollmentBridge"* %29 to void (%"class.payments::PaymentCredentialEnrollmentBridge"*, %"class.content::WebContents"*, %class.SkBitmap*, %"class.std::__1::basic_string"*, %"class.base::OnceCallback"*)***
  %51 = load void (%"class.payments::PaymentCredentialEnrollmentBridge"*, %"class.content::WebContents"*, %class.SkBitmap*, %"class.std::__1::basic_string"*, %"class.base::OnceCallback"*)**, void (%"class.payments::PaymentCredentialEnrollmentBridge"*, %"class.content::WebContents"*, %class.SkBitmap*, %"class.std::__1::basic_string"*, %"class.base::OnceCallback"*)*** %50, align 8
  %52 = getelementptr inbounds void (%"class.payments::PaymentCredentialEnrollmentBridge"*, %"class.content::WebContents"*, %class.SkBitmap*, %"class.std::__1::basic_string"*, %"class.base::OnceCallback"*)*, void (%"class.payments::PaymentCredentialEnrollmentBridge"*, %"class.content::WebContents"*, %class.SkBitmap*, %"class.std::__1::basic_string"*, %"class.base::OnceCallback"*)** %51, i64 2
  %53 = load void (%"class.payments::PaymentCredentialEnrollmentBridge"*, %"class.content::WebContents"*, %class.SkBitmap*, %"class.std::__1::basic_string"*, %"class.base::OnceCallback"*)*, void (%"class.payments::PaymentCredentialEnrollmentBridge"*, %"class.content::WebContents"*, %class.SkBitmap*, %"class.std::__1::basic_string"*, %"class.base::OnceCallback"*)** %52, align 8
  call void %53(%"class.payments::PaymentCredentialEnrollmentBridge"* %29, %"class.content::WebContents"* %31, %class.SkBitmap* %2, %"class.std::__1::basic_string"* dereferenceable(24) %3, %"class.base::OnceCallback"* nonnull %7) #6
  %54 = getelementptr inbounds %"class.base::OnceCallback", %"class.base::OnceCallback"* %7, i64 0, i32 0
  call void @_ZN4base8internal12CallbackBaseD2Ev(%"class.base::internal::CallbackBase"* nonnull %54) #6
  call void @_ZN4base8internal11WeakPtrBaseD2Ev(%"class.base::internal::WeakPtrBase"* nonnull %37) #6
  call void @llvm.lifetime.end.p0i8(i64 16, i8* nonnull %32) #6
  %55 = getelementptr inbounds %"class.payments::PaymentCredentialEnrollmentController", %"class.payments::PaymentCredentialEnrollmentController"* %0, i64 0, i32 4
  %56 = load %"class.payments::PaymentCredentialEnrollmentController::ObserverForTest"*, %"class.payments::PaymentCredentialEnrollmentController::ObserverForTest"** %55, align 8
  %57 = icmp eq %"class.payments::PaymentCredentialEnrollmentController::ObserverForTest"* %56, null
  br i1 %57, label %62, label %58

58:                                               ; preds = %28
  %59 = bitcast %"class.payments::PaymentCredentialEnrollmentController::ObserverForTest"* %56 to void (%"class.payments::PaymentCredentialEnrollmentController::ObserverForTest"*)***
  %60 = load void (%"class.payments::PaymentCredentialEnrollmentController::ObserverForTest"*)**, void (%"class.payments::PaymentCredentialEnrollmentController::ObserverForTest"*)*** %59, align 8
  %61 = load void (%"class.payments::PaymentCredentialEnrollmentController::ObserverForTest"*)*, void (%"class.payments::PaymentCredentialEnrollmentController::ObserverForTest"*)** %60, align 8
  call void %61(%"class.payments::PaymentCredentialEnrollmentController::ObserverForTest"* nonnull %56) #6
  br label %62

62:                                               ; preds = %58, %28
  ret void
}

; Function Attrs: argmemonly nounwind
declare void @llvm.lifetime.start.p0i8(i64 immarg, i8* nocapture) #4

declare %"class.payments::PaymentCredentialEnrollmentBridge"* @_ZN8payments33PaymentCredentialEnrollmentBridge6CreateEv() local_unnamed_addr #1

; Function Attrs: argmemonly nounwind
declare void @llvm.lifetime.end.p0i8(i64 immarg, i8* nocapture) #4

declare %"class.content::WebContents"* @_ZNK7content19WebContentsObserver12web_contentsEv(%"class.content::WebContentsObserver"*) local_unnamed_addr #1

; Function Attrs: nounwind ssp uwtable
define hidden void @_ZN8payments37PaymentCredentialEnrollmentController10OnResponseEb(%"class.payments::PaymentCredentialEnrollmentController"* nocapture, i1 zeroext) #0 align 2 {
  %3 = alloca %"class.base::OnceCallback", align 8
  %4 = alloca %"class.base::OnceCallback", align 8
  %5 = bitcast %"class.base::OnceCallback"* %4 to i8*
  call void @llvm.lifetime.start.p0i8(i64 8, i8* nonnull %5) #6
  %6 = getelementptr inbounds %"class.base::OnceCallback", %"class.base::OnceCallback"* %4, i64 0, i32 0, i32 0, i32 0
  %7 = getelementptr inbounds %"class.payments::PaymentCredentialEnrollmentController", %"class.payments::PaymentCredentialEnrollmentController"* %0, i64 0, i32 3
  %8 = getelementptr inbounds %"class.base::OnceCallback", %"class.base::OnceCallback"* %7, i64 0, i32 0, i32 0, i32 0
  %9 = bitcast %"class.base::OnceCallback"* %7 to i64*
  %10 = load i64, i64* %9, align 8
  %11 = bitcast %"class.base::OnceCallback"* %4 to i64*
  store i64 %10, i64* %11, align 8
  store %"class.base::internal::BindStateBase"* null, %"class.base::internal::BindStateBase"** %8, align 8
  %12 = getelementptr inbounds %"class.base::OnceCallback", %"class.base::OnceCallback"* %4, i64 0, i32 0
  %13 = icmp eq i64 %10, 0
  br i1 %13, label %69, label %14

14:                                               ; preds = %2
  %15 = getelementptr inbounds %"class.payments::PaymentCredentialEnrollmentController", %"class.payments::PaymentCredentialEnrollmentController"* %0, i64 0, i32 7
  %16 = load i8, i8* %15, align 8, !range !13
  %17 = icmp eq i8 %16, 0
  br i1 %1, label %18, label %33

18:                                               ; preds = %14
  br i1 %17, label %19, label %24

19:                                               ; preds = %18
  %20 = getelementptr inbounds %"class.payments::PaymentCredentialEnrollmentController", %"class.payments::PaymentCredentialEnrollmentController"* %0, i64 0, i32 6, i32 0, i32 0, i32 0
  %21 = load %"class.payments::PaymentCredentialEnrollmentBridge"*, %"class.payments::PaymentCredentialEnrollmentBridge"** %20, align 8
  %22 = icmp eq %"class.payments::PaymentCredentialEnrollmentBridge"* %21, null
  br i1 %22, label %24, label %23

23:                                               ; preds = %19
  store i8 1, i8* %15, align 8
  tail call void @_ZN8payments24RecordEnrollDialogResultENS_43SecurePaymentConfirmationEnrollDialogResultE(i32 2) #6
  br label %24

24:                                               ; preds = %18, %19, %23
  %25 = getelementptr inbounds %"class.payments::PaymentCredentialEnrollmentController", %"class.payments::PaymentCredentialEnrollmentController"* %0, i64 0, i32 6, i32 0, i32 0, i32 0
  %26 = load %"class.payments::PaymentCredentialEnrollmentBridge"*, %"class.payments::PaymentCredentialEnrollmentBridge"** %25, align 8
  %27 = icmp eq %"class.payments::PaymentCredentialEnrollmentBridge"* %26, null
  br i1 %27, label %61, label %28

28:                                               ; preds = %24
  %29 = bitcast %"class.payments::PaymentCredentialEnrollmentBridge"* %26 to void (%"class.payments::PaymentCredentialEnrollmentBridge"*)***
  %30 = load void (%"class.payments::PaymentCredentialEnrollmentBridge"*)**, void (%"class.payments::PaymentCredentialEnrollmentBridge"*)*** %29, align 8
  %31 = getelementptr inbounds void (%"class.payments::PaymentCredentialEnrollmentBridge"*)*, void (%"class.payments::PaymentCredentialEnrollmentBridge"*)** %30, i64 4
  %32 = load void (%"class.payments::PaymentCredentialEnrollmentBridge"*)*, void (%"class.payments::PaymentCredentialEnrollmentBridge"*)** %31, align 8
  tail call void %32(%"class.payments::PaymentCredentialEnrollmentBridge"* nonnull %26) #6
  br label %61

33:                                               ; preds = %14
  br i1 %17, label %34, label %45

34:                                               ; preds = %33
  %35 = getelementptr inbounds %"class.payments::PaymentCredentialEnrollmentController", %"class.payments::PaymentCredentialEnrollmentController"* %0, i64 0, i32 6, i32 0, i32 0, i32 0
  %36 = load %"class.payments::PaymentCredentialEnrollmentBridge"*, %"class.payments::PaymentCredentialEnrollmentBridge"** %35, align 8
  %37 = icmp eq %"class.payments::PaymentCredentialEnrollmentBridge"* %36, null
  br i1 %37, label %45, label %38

38:                                               ; preds = %34
  store i8 1, i8* %15, align 8
  tail call void @_ZN8payments24RecordEnrollDialogResultENS_43SecurePaymentConfirmationEnrollDialogResultE(i32 1) #6
  %39 = load i8, i8* %15, align 8
  %40 = icmp eq i8 %39, 0
  br i1 %40, label %41, label %45

41:                                               ; preds = %38
  %42 = load %"class.payments::PaymentCredentialEnrollmentBridge"*, %"class.payments::PaymentCredentialEnrollmentBridge"** %35, align 8
  %43 = icmp eq %"class.payments::PaymentCredentialEnrollmentBridge"* %42, null
  br i1 %43, label %45, label %44

44:                                               ; preds = %41
  store i8 1, i8* %15, align 8
  tail call void @_ZN8payments24RecordEnrollDialogResultENS_43SecurePaymentConfirmationEnrollDialogResultE(i32 0) #6
  br label %45

45:                                               ; preds = %34, %33, %44, %41, %38
  %46 = getelementptr inbounds %"class.payments::PaymentCredentialEnrollmentController", %"class.payments::PaymentCredentialEnrollmentController"* %0, i64 0, i32 6, i32 0, i32 0, i32 0
  %47 = load %"class.payments::PaymentCredentialEnrollmentBridge"*, %"class.payments::PaymentCredentialEnrollmentBridge"** %46, align 8
  %48 = icmp eq %"class.payments::PaymentCredentialEnrollmentBridge"* %47, null
  br i1 %48, label %61, label %49

49:                                               ; preds = %45
  %50 = bitcast %"class.payments::PaymentCredentialEnrollmentBridge"* %47 to void (%"class.payments::PaymentCredentialEnrollmentBridge"*)***
  %51 = load void (%"class.payments::PaymentCredentialEnrollmentBridge"*)**, void (%"class.payments::PaymentCredentialEnrollmentBridge"*)*** %50, align 8
  %52 = getelementptr inbounds void (%"class.payments::PaymentCredentialEnrollmentBridge"*)*, void (%"class.payments::PaymentCredentialEnrollmentBridge"*)** %51, i64 3
  %53 = load void (%"class.payments::PaymentCredentialEnrollmentBridge"*)*, void (%"class.payments::PaymentCredentialEnrollmentBridge"*)** %52, align 8
  tail call void %53(%"class.payments::PaymentCredentialEnrollmentBridge"* nonnull %47) #6
  %54 = load %"class.payments::PaymentCredentialEnrollmentBridge"*, %"class.payments::PaymentCredentialEnrollmentBridge"** %46, align 8
  store %"class.payments::PaymentCredentialEnrollmentBridge"* null, %"class.payments::PaymentCredentialEnrollmentBridge"** %46, align 8
  %55 = icmp eq %"class.payments::PaymentCredentialEnrollmentBridge"* %54, null
  br i1 %55, label %61, label %56

56:                                               ; preds = %49
  %57 = bitcast %"class.payments::PaymentCredentialEnrollmentBridge"* %54 to void (%"class.payments::PaymentCredentialEnrollmentBridge"*)***
  %58 = load void (%"class.payments::PaymentCredentialEnrollmentBridge"*)**, void (%"class.payments::PaymentCredentialEnrollmentBridge"*)*** %57, align 8
  %59 = getelementptr inbounds void (%"class.payments::PaymentCredentialEnrollmentBridge"*)*, void (%"class.payments::PaymentCredentialEnrollmentBridge"*)** %58, i64 1
  %60 = load void (%"class.payments::PaymentCredentialEnrollmentBridge"*)*, void (%"class.payments::PaymentCredentialEnrollmentBridge"*)** %59, align 8
  tail call void %60(%"class.payments::PaymentCredentialEnrollmentBridge"* nonnull %54) #6
  br label %61

61:                                               ; preds = %56, %49, %45, %28, %24
  %62 = bitcast %"class.base::OnceCallback"* %3 to i8*
  call void @llvm.lifetime.start.p0i8(i64 8, i8* nonnull %62) #6
  %63 = bitcast %"class.base::OnceCallback"* %3 to i64*
  store i64 %10, i64* %63, align 8
  store %"class.base::internal::BindStateBase"* null, %"class.base::internal::BindStateBase"** %6, align 8
  %64 = getelementptr inbounds %"class.base::OnceCallback", %"class.base::OnceCallback"* %3, i64 0, i32 0
  %65 = inttoptr i64 %10 to %"class.base::internal::BindStateBase"*
  %66 = getelementptr inbounds %"class.base::internal::BindStateBase", %"class.base::internal::BindStateBase"* %65, i64 0, i32 1
  %67 = bitcast void ()** %66 to void (%"class.base::internal::BindStateBase"*, i1)**
  %68 = load void (%"class.base::internal::BindStateBase"*, i1)*, void (%"class.base::internal::BindStateBase"*, i1)** %67, align 8
  tail call void %68(%"class.base::internal::BindStateBase"* %65, i1 zeroext %1) #6
  call void @_ZN4base8internal12CallbackBaseD2Ev(%"class.base::internal::CallbackBase"* nonnull %64) #6
  call void @llvm.lifetime.end.p0i8(i64 8, i8* nonnull %62) #6
  br label %69

69:                                               ; preds = %2, %61
  call void @_ZN4base8internal12CallbackBaseD2Ev(%"class.base::internal::CallbackBase"* nonnull %12) #6
  call void @llvm.lifetime.end.p0i8(i64 8, i8* nonnull %5) #6
  ret void
}

; Function Attrs: nounwind ssp uwtable
define hidden void @_ZN8payments37PaymentCredentialEnrollmentController21ShowProcessingSpinnerEv(%"class.payments::PaymentCredentialEnrollmentController"* nocapture readonly) local_unnamed_addr #0 align 2 {
  %2 = getelementptr inbounds %"class.payments::PaymentCredentialEnrollmentController", %"class.payments::PaymentCredentialEnrollmentController"* %0, i64 0, i32 6, i32 0, i32 0, i32 0
  %3 = load %"class.payments::PaymentCredentialEnrollmentBridge"*, %"class.payments::PaymentCredentialEnrollmentBridge"** %2, align 8
  %4 = icmp eq %"class.payments::PaymentCredentialEnrollmentBridge"* %3, null
  br i1 %4, label %10, label %5

5:                                                ; preds = %1
  %6 = bitcast %"class.payments::PaymentCredentialEnrollmentBridge"* %3 to void (%"class.payments::PaymentCredentialEnrollmentBridge"*)***
  %7 = load void (%"class.payments::PaymentCredentialEnrollmentBridge"*)**, void (%"class.payments::PaymentCredentialEnrollmentBridge"*)*** %6, align 8
  %8 = getelementptr inbounds void (%"class.payments::PaymentCredentialEnrollmentBridge"*)*, void (%"class.payments::PaymentCredentialEnrollmentBridge"*)** %7, i64 4
  %9 = load void (%"class.payments::PaymentCredentialEnrollmentBridge"*)*, void (%"class.payments::PaymentCredentialEnrollmentBridge"*)** %8, align 8
  tail call void %9(%"class.payments::PaymentCredentialEnrollmentBridge"* nonnull %3) #6
  br label %10

10:                                               ; preds = %1, %5
  ret void
}

; Function Attrs: nounwind ssp uwtable
define hidden void @_ZN8payments37PaymentCredentialEnrollmentController11CloseDialogEv(%"class.payments::PaymentCredentialEnrollmentController"* nocapture) local_unnamed_addr #0 align 2 {
  %2 = getelementptr inbounds %"class.payments::PaymentCredentialEnrollmentController", %"class.payments::PaymentCredentialEnrollmentController"* %0, i64 0, i32 7
  %3 = load i8, i8* %2, align 8, !range !13
  %4 = icmp eq i8 %3, 0
  br i1 %4, label %5, label %10

5:                                                ; preds = %1
  %6 = getelementptr inbounds %"class.payments::PaymentCredentialEnrollmentController", %"class.payments::PaymentCredentialEnrollmentController"* %0, i64 0, i32 6, i32 0, i32 0, i32 0
  %7 = load %"class.payments::PaymentCredentialEnrollmentBridge"*, %"class.payments::PaymentCredentialEnrollmentBridge"** %6, align 8
  %8 = icmp eq %"class.payments::PaymentCredentialEnrollmentBridge"* %7, null
  br i1 %8, label %10, label %9

9:                                                ; preds = %5
  store i8 1, i8* %2, align 8
  tail call void @_ZN8payments24RecordEnrollDialogResultENS_43SecurePaymentConfirmationEnrollDialogResultE(i32 0) #6
  br label %10

10:                                               ; preds = %1, %5, %9
  %11 = getelementptr inbounds %"class.payments::PaymentCredentialEnrollmentController", %"class.payments::PaymentCredentialEnrollmentController"* %0, i64 0, i32 6, i32 0, i32 0, i32 0
  %12 = load %"class.payments::PaymentCredentialEnrollmentBridge"*, %"class.payments::PaymentCredentialEnrollmentBridge"** %11, align 8
  %13 = icmp eq %"class.payments::PaymentCredentialEnrollmentBridge"* %12, null
  br i1 %13, label %26, label %14

14:                                               ; preds = %10
  %15 = bitcast %"class.payments::PaymentCredentialEnrollmentBridge"* %12 to void (%"class.payments::PaymentCredentialEnrollmentBridge"*)***
  %16 = load void (%"class.payments::PaymentCredentialEnrollmentBridge"*)**, void (%"class.payments::PaymentCredentialEnrollmentBridge"*)*** %15, align 8
  %17 = getelementptr inbounds void (%"class.payments::PaymentCredentialEnrollmentBridge"*)*, void (%"class.payments::PaymentCredentialEnrollmentBridge"*)** %16, i64 3
  %18 = load void (%"class.payments::PaymentCredentialEnrollmentBridge"*)*, void (%"class.payments::PaymentCredentialEnrollmentBridge"*)** %17, align 8
  tail call void %18(%"class.payments::PaymentCredentialEnrollmentBridge"* nonnull %12) #6
  %19 = load %"class.payments::PaymentCredentialEnrollmentBridge"*, %"class.payments::PaymentCredentialEnrollmentBridge"** %11, align 8
  store %"class.payments::PaymentCredentialEnrollmentBridge"* null, %"class.payments::PaymentCredentialEnrollmentBridge"** %11, align 8
  %20 = icmp eq %"class.payments::PaymentCredentialEnrollmentBridge"* %19, null
  br i1 %20, label %26, label %21

21:                                               ; preds = %14
  %22 = bitcast %"class.payments::PaymentCredentialEnrollmentBridge"* %19 to void (%"class.payments::PaymentCredentialEnrollmentBridge"*)***
  %23 = load void (%"class.payments::PaymentCredentialEnrollmentBridge"*)**, void (%"class.payments::PaymentCredentialEnrollmentBridge"*)*** %22, align 8
  %24 = getelementptr inbounds void (%"class.payments::PaymentCredentialEnrollmentBridge"*)*, void (%"class.payments::PaymentCredentialEnrollmentBridge"*)** %23, i64 1
  %25 = load void (%"class.payments::PaymentCredentialEnrollmentBridge"*)*, void (%"class.payments::PaymentCredentialEnrollmentBridge"*)** %24, align 8
  tail call void %25(%"class.payments::PaymentCredentialEnrollmentBridge"* nonnull %19) #6
  br label %26

26:                                               ; preds = %10, %21, %14
  ret void
}

; Function Attrs: nounwind ssp uwtable
define hidden void @_ZN8payments37PaymentCredentialEnrollmentController22RecordFirstCloseReasonENS_43SecurePaymentConfirmationEnrollDialogResultE(%"class.payments::PaymentCredentialEnrollmentController"* nocapture, i32) local_unnamed_addr #0 align 2 {
  %3 = getelementptr inbounds %"class.payments::PaymentCredentialEnrollmentController", %"class.payments::PaymentCredentialEnrollmentController"* %0, i64 0, i32 7
  %4 = load i8, i8* %3, align 8, !range !13
  %5 = icmp eq i8 %4, 0
  br i1 %5, label %6, label %11

6:                                                ; preds = %2
  %7 = getelementptr inbounds %"class.payments::PaymentCredentialEnrollmentController", %"class.payments::PaymentCredentialEnrollmentController"* %0, i64 0, i32 6, i32 0, i32 0, i32 0
  %8 = load %"class.payments::PaymentCredentialEnrollmentBridge"*, %"class.payments::PaymentCredentialEnrollmentBridge"** %7, align 8
  %9 = icmp eq %"class.payments::PaymentCredentialEnrollmentBridge"* %8, null
  br i1 %9, label %11, label %10

10:                                               ; preds = %6
  store i8 1, i8* %3, align 8
  tail call void @_ZN8payments24RecordEnrollDialogResultENS_43SecurePaymentConfirmationEnrollDialogResultE(i32 %1) #6
  br label %11

11:                                               ; preds = %6, %2, %10
  ret void
}

; Function Attrs: nounwind ssp uwtable
define hidden %"class.payments::PaymentCredentialEnrollmentController::ScopedToken"* @_ZN8payments37PaymentCredentialEnrollmentController19GetTokenIfAvailableEv(%"class.payments::PaymentCredentialEnrollmentController"*) local_unnamed_addr #0 align 2 {
  %2 = alloca %"class.base::internal::WeakReference", align 8
  %3 = alloca %"class.base::WeakPtr", align 8
  %4 = getelementptr inbounds %"class.payments::PaymentCredentialEnrollmentController", %"class.payments::PaymentCredentialEnrollmentController"* %0, i64 0, i32 5
  %5 = getelementptr inbounds %"class.base::WeakPtr", %"class.base::WeakPtr"* %4, i64 0, i32 0, i32 0
  %6 = tail call zeroext i1 @_ZNK4base8internal13WeakReference7IsValidEv(%"class.base::internal::WeakReference"* %5) #6
  br i1 %6, label %7, label %12

7:                                                ; preds = %1
  %8 = getelementptr inbounds %"class.payments::PaymentCredentialEnrollmentController", %"class.payments::PaymentCredentialEnrollmentController"* %0, i64 0, i32 5, i32 0, i32 1
  %9 = bitcast i64* %8 to %"class.payments::PaymentCredentialEnrollmentController::ScopedToken"**
  %10 = load %"class.payments::PaymentCredentialEnrollmentController::ScopedToken"*, %"class.payments::PaymentCredentialEnrollmentController::ScopedToken"** %9, align 8
  %11 = icmp eq %"class.payments::PaymentCredentialEnrollmentController::ScopedToken"* %10, null
  br i1 %11, label %12, label %41

12:                                               ; preds = %7, %1
  %13 = tail call i8* @_Znwm(i64 16) #7
  %14 = bitcast i8* %13 to %"class.base::internal::WeakPtrFactoryBase"*
  %15 = ptrtoint i8* %13 to i64
  tail call void @_ZN4base8internal18WeakPtrFactoryBaseC2Em(%"class.base::internal::WeakPtrFactoryBase"* nonnull %14, i64 %15) #6
  %16 = bitcast %"class.base::WeakPtr"* %3 to i8*
  call void @llvm.lifetime.start.p0i8(i64 16, i8* nonnull %16) #6
  %17 = bitcast %"class.base::internal::WeakReference"* %2 to i8*
  call void @llvm.lifetime.start.p0i8(i64 8, i8* nonnull %17) #6, !noalias !14
  %18 = bitcast i8* %13 to %"class.base::internal::WeakReferenceOwner"*
  call void @_ZNK4base8internal18WeakReferenceOwner6GetRefEv(%"class.base::internal::WeakReference"* nonnull sret %2, %"class.base::internal::WeakReferenceOwner"* nonnull %18) #6, !noalias !14
  %19 = getelementptr inbounds i8, i8* %13, i64 8
  %20 = bitcast i8* %19 to i64*
  %21 = load i64, i64* %20, align 8, !noalias !14
  %22 = getelementptr inbounds %"class.base::WeakPtr", %"class.base::WeakPtr"* %3, i64 0, i32 0
  call void @_ZN4base8internal11WeakPtrBaseC2ERKNS0_13WeakReferenceEm(%"class.base::internal::WeakPtrBase"* nonnull %22, %"class.base::internal::WeakReference"* nonnull dereferenceable(8) %2, i64 %21) #6
  call void @_ZN4base8internal13WeakReferenceD1Ev(%"class.base::internal::WeakReference"* nonnull %2) #6
  call void @llvm.lifetime.end.p0i8(i64 8, i8* nonnull %17) #6, !noalias !14
  %23 = getelementptr inbounds %"class.base::WeakPtr", %"class.base::WeakPtr"* %3, i64 0, i32 0, i32 0, i32 0, i32 0
  %24 = bitcast %"class.base::WeakPtr"* %3 to i64*
  %25 = load i64, i64* %24, align 8
  store %"class.base::internal::WeakReference::Flag"* null, %"class.base::internal::WeakReference::Flag"** %23, align 8
  %26 = bitcast %"class.base::WeakPtr"* %4 to i64*
  %27 = getelementptr inbounds %"class.base::WeakPtr", %"class.base::WeakPtr"* %4, i64 0, i32 0, i32 0, i32 0, i32 0
  %28 = load %"class.base::internal::WeakReference::Flag"*, %"class.base::internal::WeakReference::Flag"** %27, align 8
  store i64 %25, i64* %26, align 8
  %29 = icmp eq %"class.base::internal::WeakReference::Flag"* %28, null
  br i1 %29, label %36, label %30

30:                                               ; preds = %12
  %31 = getelementptr inbounds %"class.base::internal::WeakReference::Flag", %"class.base::internal::WeakReference::Flag"* %28, i64 0, i32 0, i32 0, i32 0, i32 0, i32 0, i32 0, i32 0, i32 0, i32 0
  %32 = atomicrmw sub i32* %31, i32 1 acq_rel
  %33 = icmp eq i32 %32, 1
  br i1 %33, label %34, label %36

34:                                               ; preds = %30
  call void @_ZN4base8internal13WeakReference4FlagD1Ev(%"class.base::internal::WeakReference::Flag"* nonnull %28) #6
  %35 = bitcast %"class.base::internal::WeakReference::Flag"* %28 to i8*
  call void @_ZdlPv(i8* %35) #7
  br label %36

36:                                               ; preds = %34, %30, %12
  %37 = getelementptr inbounds %"class.base::WeakPtr", %"class.base::WeakPtr"* %3, i64 0, i32 0, i32 1
  %38 = load i64, i64* %37, align 8
  %39 = getelementptr inbounds %"class.payments::PaymentCredentialEnrollmentController", %"class.payments::PaymentCredentialEnrollmentController"* %0, i64 0, i32 5, i32 0, i32 1
  store i64 %38, i64* %39, align 8
  call void @_ZN4base8internal11WeakPtrBaseD2Ev(%"class.base::internal::WeakPtrBase"* nonnull %22) #6
  call void @llvm.lifetime.end.p0i8(i64 16, i8* nonnull %16) #6
  %40 = bitcast i8* %13 to %"class.payments::PaymentCredentialEnrollmentController::ScopedToken"*
  br label %41

41:                                               ; preds = %7, %36
  %42 = phi %"class.payments::PaymentCredentialEnrollmentController::ScopedToken"* [ %40, %36 ], [ null, %7 ]
  ret %"class.payments::PaymentCredentialEnrollmentController::ScopedToken"* %42
}

; Function Attrs: nounwind ssp uwtable
define hidden void @_ZN8payments37PaymentCredentialEnrollmentController10GetWeakPtrEv(%"class.base::WeakPtr.30"* noalias sret, %"class.payments::PaymentCredentialEnrollmentController"*) local_unnamed_addr #0 align 2 {
  %3 = alloca %"class.base::internal::WeakReference", align 8
  %4 = bitcast %"class.base::internal::WeakReference"* %3 to i8*
  call void @llvm.lifetime.start.p0i8(i64 8, i8* nonnull %4) #6, !noalias !19
  %5 = getelementptr inbounds %"class.payments::PaymentCredentialEnrollmentController", %"class.payments::PaymentCredentialEnrollmentController"* %1, i64 0, i32 8, i32 0, i32 0
  call void @_ZNK4base8internal18WeakReferenceOwner6GetRefEv(%"class.base::internal::WeakReference"* nonnull sret %3, %"class.base::internal::WeakReferenceOwner"* %5) #6, !noalias !19
  %6 = getelementptr inbounds %"class.payments::PaymentCredentialEnrollmentController", %"class.payments::PaymentCredentialEnrollmentController"* %1, i64 0, i32 8, i32 0, i32 1
  %7 = load i64, i64* %6, align 8, !noalias !19
  %8 = getelementptr inbounds %"class.base::WeakPtr.30", %"class.base::WeakPtr.30"* %0, i64 0, i32 0
  call void @_ZN4base8internal11WeakPtrBaseC2ERKNS0_13WeakReferenceEm(%"class.base::internal::WeakPtrBase"* %8, %"class.base::internal::WeakReference"* nonnull dereferenceable(8) %3, i64 %7) #6
  call void @_ZN4base8internal13WeakReferenceD1Ev(%"class.base::internal::WeakReference"* nonnull %3) #6
  call void @llvm.lifetime.end.p0i8(i64 8, i8* nonnull %4) #6, !noalias !19
  ret void
}

; Function Attrs: nounwind ssp uwtable
define hidden void @_ZN8payments37PaymentCredentialEnrollmentController18DidStartNavigationEPN7content16NavigationHandleE(%"class.payments::PaymentCredentialEnrollmentController"* nocapture, %"class.content::NavigationHandle"*) unnamed_addr #0 align 2 {
  %3 = bitcast %"class.content::NavigationHandle"* %1 to i1 (%"class.content::NavigationHandle"*)***
  %4 = load i1 (%"class.content::NavigationHandle"*)**, i1 (%"class.content::NavigationHandle"*)*** %3, align 8
  %5 = getelementptr inbounds i1 (%"class.content::NavigationHandle"*)*, i1 (%"class.content::NavigationHandle"*)** %4, i64 35
  %6 = load i1 (%"class.content::NavigationHandle"*)*, i1 (%"class.content::NavigationHandle"*)** %5, align 8
  %7 = tail call zeroext i1 %6(%"class.content::NavigationHandle"* %1) #6
  br i1 %7, label %54, label %8

8:                                                ; preds = %2
  %9 = load i1 (%"class.content::NavigationHandle"*)**, i1 (%"class.content::NavigationHandle"*)*** %3, align 8
  %10 = getelementptr inbounds i1 (%"class.content::NavigationHandle"*)*, i1 (%"class.content::NavigationHandle"*)** %9, i64 7
  %11 = load i1 (%"class.content::NavigationHandle"*)*, i1 (%"class.content::NavigationHandle"*)** %10, align 8
  %12 = tail call zeroext i1 %11(%"class.content::NavigationHandle"* %1) #6
  br i1 %12, label %29, label %13

13:                                               ; preds = %8
  %14 = bitcast %"class.content::NavigationHandle"* %1 to i64 (%"class.content::NavigationHandle"*)***
  %15 = load i64 (%"class.content::NavigationHandle"*)**, i64 (%"class.content::NavigationHandle"*)*** %14, align 8
  %16 = getelementptr inbounds i64 (%"class.content::NavigationHandle"*)*, i64 (%"class.content::NavigationHandle"*)** %15, i64 34
  %17 = load i64 (%"class.content::NavigationHandle"*)*, i64 (%"class.content::NavigationHandle"*)** %16, align 8
  %18 = tail call i64 %17(%"class.content::NavigationHandle"* %1) #6
  %19 = trunc i64 %18 to i32
  %20 = getelementptr inbounds %"class.payments::PaymentCredentialEnrollmentController", %"class.payments::PaymentCredentialEnrollmentController"* %0, i64 0, i32 2, i32 0
  %21 = load i32, i32* %20, align 4
  %22 = icmp eq i32 %21, %19
  br i1 %22, label %23, label %54

23:                                               ; preds = %13
  %24 = lshr i64 %18, 32
  %25 = trunc i64 %24 to i32
  %26 = getelementptr inbounds %"class.payments::PaymentCredentialEnrollmentController", %"class.payments::PaymentCredentialEnrollmentController"* %0, i64 0, i32 2, i32 1
  %27 = load i32, i32* %26, align 4
  %28 = icmp eq i32 %27, %25
  br i1 %28, label %29, label %54

29:                                               ; preds = %8, %23
  %30 = getelementptr inbounds %"class.payments::PaymentCredentialEnrollmentController", %"class.payments::PaymentCredentialEnrollmentController"* %0, i64 0, i32 7
  %31 = load i8, i8* %30, align 8, !range !13
  %32 = icmp eq i8 %31, 0
  br i1 %32, label %33, label %38

33:                                               ; preds = %29
  %34 = getelementptr inbounds %"class.payments::PaymentCredentialEnrollmentController", %"class.payments::PaymentCredentialEnrollmentController"* %0, i64 0, i32 6, i32 0, i32 0, i32 0
  %35 = load %"class.payments::PaymentCredentialEnrollmentBridge"*, %"class.payments::PaymentCredentialEnrollmentBridge"** %34, align 8
  %36 = icmp eq %"class.payments::PaymentCredentialEnrollmentBridge"* %35, null
  br i1 %36, label %38, label %37

37:                                               ; preds = %33
  store i8 1, i8* %30, align 8
  tail call void @_ZN8payments24RecordEnrollDialogResultENS_43SecurePaymentConfirmationEnrollDialogResultE(i32 0) #6
  br label %38

38:                                               ; preds = %37, %33, %29
  %39 = getelementptr inbounds %"class.payments::PaymentCredentialEnrollmentController", %"class.payments::PaymentCredentialEnrollmentController"* %0, i64 0, i32 6, i32 0, i32 0, i32 0
  %40 = load %"class.payments::PaymentCredentialEnrollmentBridge"*, %"class.payments::PaymentCredentialEnrollmentBridge"** %39, align 8
  %41 = icmp eq %"class.payments::PaymentCredentialEnrollmentBridge"* %40, null
  br i1 %41, label %54, label %42

42:                                               ; preds = %38
  %43 = bitcast %"class.payments::PaymentCredentialEnrollmentBridge"* %40 to void (%"class.payments::PaymentCredentialEnrollmentBridge"*)***
  %44 = load void (%"class.payments::PaymentCredentialEnrollmentBridge"*)**, void (%"class.payments::PaymentCredentialEnrollmentBridge"*)*** %43, align 8
  %45 = getelementptr inbounds void (%"class.payments::PaymentCredentialEnrollmentBridge"*)*, void (%"class.payments::PaymentCredentialEnrollmentBridge"*)** %44, i64 3
  %46 = load void (%"class.payments::PaymentCredentialEnrollmentBridge"*)*, void (%"class.payments::PaymentCredentialEnrollmentBridge"*)** %45, align 8
  tail call void %46(%"class.payments::PaymentCredentialEnrollmentBridge"* nonnull %40) #6
  %47 = load %"class.payments::PaymentCredentialEnrollmentBridge"*, %"class.payments::PaymentCredentialEnrollmentBridge"** %39, align 8
  store %"class.payments::PaymentCredentialEnrollmentBridge"* null, %"class.payments::PaymentCredentialEnrollmentBridge"** %39, align 8
  %48 = icmp eq %"class.payments::PaymentCredentialEnrollmentBridge"* %47, null
  br i1 %48, label %54, label %49

49:                                               ; preds = %42
  %50 = bitcast %"class.payments::PaymentCredentialEnrollmentBridge"* %47 to void (%"class.payments::PaymentCredentialEnrollmentBridge"*)***
  %51 = load void (%"class.payments::PaymentCredentialEnrollmentBridge"*)**, void (%"class.payments::PaymentCredentialEnrollmentBridge"*)*** %50, align 8
  %52 = getelementptr inbounds void (%"class.payments::PaymentCredentialEnrollmentBridge"*)*, void (%"class.payments::PaymentCredentialEnrollmentBridge"*)** %51, i64 1
  %53 = load void (%"class.payments::PaymentCredentialEnrollmentBridge"*)*, void (%"class.payments::PaymentCredentialEnrollmentBridge"*)** %52, align 8
  tail call void %53(%"class.payments::PaymentCredentialEnrollmentBridge"* nonnull %47) #6
  br label %54

54:                                               ; preds = %13, %2, %49, %42, %38, %23
  ret void
}

; Function Attrs: nounwind ssp uwtable
define hidden void @_ZN8payments37PaymentCredentialEnrollmentController18RenderFrameDeletedEPN7content15RenderFrameHostE(%"class.payments::PaymentCredentialEnrollmentController"*, %"class.content::RenderFrameHost"*) unnamed_addr #0 align 2 {
  %3 = getelementptr inbounds %"class.payments::PaymentCredentialEnrollmentController", %"class.payments::PaymentCredentialEnrollmentController"* %0, i64 0, i32 0
  %4 = tail call %"class.content::WebContents"* @_ZNK7content19WebContentsObserver12web_contentsEv(%"class.content::WebContentsObserver"* %3) #6
  %5 = bitcast %"class.content::WebContents"* %4 to %"class.content::RenderFrameHost"* (%"class.content::WebContents"*)***
  %6 = load %"class.content::RenderFrameHost"* (%"class.content::WebContents"*)**, %"class.content::RenderFrameHost"* (%"class.content::WebContents"*)*** %5, align 8
  %7 = getelementptr inbounds %"class.content::RenderFrameHost"* (%"class.content::WebContents"*)*, %"class.content::RenderFrameHost"* (%"class.content::WebContents"*)** %6, i64 10
  %8 = load %"class.content::RenderFrameHost"* (%"class.content::WebContents"*)*, %"class.content::RenderFrameHost"* (%"class.content::WebContents"*)** %7, align 8
  %9 = tail call %"class.content::RenderFrameHost"* %8(%"class.content::WebContents"* %4) #6
  %10 = icmp eq %"class.content::RenderFrameHost"* %9, %1
  br i1 %10, label %27, label %11

11:                                               ; preds = %2
  %12 = bitcast %"class.content::RenderFrameHost"* %1 to i64 (%"class.content::RenderFrameHost"*)***
  %13 = load i64 (%"class.content::RenderFrameHost"*)**, i64 (%"class.content::RenderFrameHost"*)*** %12, align 8
  %14 = getelementptr inbounds i64 (%"class.content::RenderFrameHost"*)*, i64 (%"class.content::RenderFrameHost"*)** %13, i64 15
  %15 = load i64 (%"class.content::RenderFrameHost"*)*, i64 (%"class.content::RenderFrameHost"*)** %14, align 8
  %16 = tail call i64 %15(%"class.content::RenderFrameHost"* %1) #6
  %17 = trunc i64 %16 to i32
  %18 = getelementptr inbounds %"class.payments::PaymentCredentialEnrollmentController", %"class.payments::PaymentCredentialEnrollmentController"* %0, i64 0, i32 2, i32 0
  %19 = load i32, i32* %18, align 4
  %20 = icmp eq i32 %19, %17
  br i1 %20, label %21, label %52

21:                                               ; preds = %11
  %22 = lshr i64 %16, 32
  %23 = trunc i64 %22 to i32
  %24 = getelementptr inbounds %"class.payments::PaymentCredentialEnrollmentController", %"class.payments::PaymentCredentialEnrollmentController"* %0, i64 0, i32 2, i32 1
  %25 = load i32, i32* %24, align 4
  %26 = icmp eq i32 %25, %23
  br i1 %26, label %27, label %52

27:                                               ; preds = %2, %21
  %28 = getelementptr inbounds %"class.payments::PaymentCredentialEnrollmentController", %"class.payments::PaymentCredentialEnrollmentController"* %0, i64 0, i32 7
  %29 = load i8, i8* %28, align 8, !range !13
  %30 = icmp eq i8 %29, 0
  br i1 %30, label %31, label %36

31:                                               ; preds = %27
  %32 = getelementptr inbounds %"class.payments::PaymentCredentialEnrollmentController", %"class.payments::PaymentCredentialEnrollmentController"* %0, i64 0, i32 6, i32 0, i32 0, i32 0
  %33 = load %"class.payments::PaymentCredentialEnrollmentBridge"*, %"class.payments::PaymentCredentialEnrollmentBridge"** %32, align 8
  %34 = icmp eq %"class.payments::PaymentCredentialEnrollmentBridge"* %33, null
  br i1 %34, label %36, label %35

35:                                               ; preds = %31
  store i8 1, i8* %28, align 8
  tail call void @_ZN8payments24RecordEnrollDialogResultENS_43SecurePaymentConfirmationEnrollDialogResultE(i32 0) #6
  br label %36

36:                                               ; preds = %35, %31, %27
  %37 = getelementptr inbounds %"class.payments::PaymentCredentialEnrollmentController", %"class.payments::PaymentCredentialEnrollmentController"* %0, i64 0, i32 6, i32 0, i32 0, i32 0
  %38 = load %"class.payments::PaymentCredentialEnrollmentBridge"*, %"class.payments::PaymentCredentialEnrollmentBridge"** %37, align 8
  %39 = icmp eq %"class.payments::PaymentCredentialEnrollmentBridge"* %38, null
  br i1 %39, label %52, label %40

40:                                               ; preds = %36
  %41 = bitcast %"class.payments::PaymentCredentialEnrollmentBridge"* %38 to void (%"class.payments::PaymentCredentialEnrollmentBridge"*)***
  %42 = load void (%"class.payments::PaymentCredentialEnrollmentBridge"*)**, void (%"class.payments::PaymentCredentialEnrollmentBridge"*)*** %41, align 8
  %43 = getelementptr inbounds void (%"class.payments::PaymentCredentialEnrollmentBridge"*)*, void (%"class.payments::PaymentCredentialEnrollmentBridge"*)** %42, i64 3
  %44 = load void (%"class.payments::PaymentCredentialEnrollmentBridge"*)*, void (%"class.payments::PaymentCredentialEnrollmentBridge"*)** %43, align 8
  tail call void %44(%"class.payments::PaymentCredentialEnrollmentBridge"* nonnull %38) #6
  %45 = load %"class.payments::PaymentCredentialEnrollmentBridge"*, %"class.payments::PaymentCredentialEnrollmentBridge"** %37, align 8
  store %"class.payments::PaymentCredentialEnrollmentBridge"* null, %"class.payments::PaymentCredentialEnrollmentBridge"** %37, align 8
  %46 = icmp eq %"class.payments::PaymentCredentialEnrollmentBridge"* %45, null
  br i1 %46, label %52, label %47

47:                                               ; preds = %40
  %48 = bitcast %"class.payments::PaymentCredentialEnrollmentBridge"* %45 to void (%"class.payments::PaymentCredentialEnrollmentBridge"*)***
  %49 = load void (%"class.payments::PaymentCredentialEnrollmentBridge"*)**, void (%"class.payments::PaymentCredentialEnrollmentBridge"*)*** %48, align 8
  %50 = getelementptr inbounds void (%"class.payments::PaymentCredentialEnrollmentBridge"*)*, void (%"class.payments::PaymentCredentialEnrollmentBridge"*)** %49, i64 1
  %51 = load void (%"class.payments::PaymentCredentialEnrollmentBridge"*)*, void (%"class.payments::PaymentCredentialEnrollmentBridge"*)** %50, align 8
  tail call void %51(%"class.payments::PaymentCredentialEnrollmentBridge"* nonnull %45) #6
  br label %52

52:                                               ; preds = %11, %47, %40, %36, %21
  ret void
}

declare void @_ZN8payments24RecordEnrollDialogResultENS_43SecurePaymentConfirmationEnrollDialogResultE(i32) local_unnamed_addr #1

declare zeroext i1 @_ZN7content19WebContentsObserver17OnMessageReceivedERKN3IPC7MessageE(%"class.content::WebContentsObserver"*, %"class.IPC::Message"* dereferenceable(56)) unnamed_addr #1

; Function Attrs: nounwind ssp uwtable
define linkonce_odr hidden void @_ZN3IPC8Listener18OnChannelConnectedEi(%"class.IPC::Listener"*, i32) unnamed_addr #0 comdat align 2 {
  ret void
}

; Function Attrs: nounwind ssp uwtable
define linkonce_odr hidden void @_ZN3IPC8Listener14OnChannelErrorEv(%"class.IPC::Listener"*) unnamed_addr #0 comdat align 2 {
  ret void
}

; Function Attrs: nounwind ssp uwtable
define linkonce_odr hidden void @_ZN3IPC8Listener20OnBadMessageReceivedERKNS_7MessageE(%"class.IPC::Listener"*, %"class.IPC::Message"* dereferenceable(56)) unnamed_addr #0 comdat align 2 {
  ret void
}

; Function Attrs: nounwind ssp uwtable
define linkonce_odr hidden void @_ZN3IPC8Listener28OnAssociatedInterfaceRequestERKNSt3__112basic_stringIcNS1_11char_traitsIcEENS1_9allocatorIcEEEEN4mojo29ScopedInterfaceEndpointHandleE(%"class.IPC::Listener"*, %"class.std::__1::basic_string.38"* dereferenceable(24), %"class.mojo::ScopedInterfaceEndpointHandle"*) unnamed_addr #0 comdat align 2 {
  ret void
}

; Function Attrs: nounwind ssp uwtable
define linkonce_odr hidden void @_ZN3IPC8Listener15OnChannelDeniedEv(%"class.IPC::Listener"*) unnamed_addr #0 comdat align 2 {
  ret void
}

; Function Attrs: nounwind ssp uwtable
define linkonce_odr hidden void @_ZN3IPC8Listener20OnChannelListenErrorEv(%"class.IPC::Listener"*) unnamed_addr #0 comdat align 2 {
  ret void
}

; Function Attrs: nounwind ssp uwtable
define linkonce_odr hidden void @_ZN7content19WebContentsObserver18RenderFrameCreatedEPNS_15RenderFrameHostE(%"class.content::WebContentsObserver"*, %"class.content::RenderFrameHost"*) unnamed_addr #0 comdat align 2 {
  ret void
}

; Function Attrs: nounwind ssp uwtable
define linkonce_odr hidden void @_ZN7content19WebContentsObserver22RenderFrameHostChangedEPNS_15RenderFrameHostES2_(%"class.content::WebContentsObserver"*, %"class.content::RenderFrameHost"*, %"class.content::RenderFrameHost"*) unnamed_addr #0 comdat align 2 {
  ret void
}

; Function Attrs: nounwind ssp uwtable
define linkonce_odr hidden void @_ZN7content19WebContentsObserver12FrameDeletedEi(%"class.content::WebContentsObserver"*, i32) unnamed_addr #0 comdat align 2 {
  ret void
}

; Function Attrs: nounwind ssp uwtable
define linkonce_odr hidden void @_ZN7content19WebContentsObserver27RenderFrameHostStateChangedEPNS_15RenderFrameHostENS1_14LifecycleStateES3_(%"class.content::WebContentsObserver"*, %"class.content::RenderFrameHost"*, i32, i32) unnamed_addr #0 comdat align 2 {
  ret void
}

; Function Attrs: nounwind ssp uwtable
define linkonce_odr hidden void @_ZN7content19WebContentsObserver20CaptureTargetChangedEv(%"class.content::WebContentsObserver"*) unnamed_addr #0 comdat align 2 {
  ret void
}

; Function Attrs: nounwind ssp uwtable
define linkonce_odr hidden void @_ZN7content19WebContentsObserver27OnCaptureHandleConfigUpdateERKN5blink5mojom19CaptureHandleConfigE(%"class.content::WebContentsObserver"*, %"class.blink::mojom::CaptureHandleConfig"*) unnamed_addr #0 comdat align 2 {
  ret void
}

; Function Attrs: nounwind ssp uwtable
define linkonce_odr hidden void @_ZN7content19WebContentsObserver15RenderViewReadyEv(%"class.content::WebContentsObserver"*) unnamed_addr #0 comdat align 2 {
  ret void
}

; Function Attrs: nounwind ssp uwtable
define linkonce_odr hidden void @_ZN7content19WebContentsObserver17RenderViewDeletedEPNS_14RenderViewHostE(%"class.content::WebContentsObserver"*, %"class.content::RenderViewHost"*) unnamed_addr #0 comdat align 2 {
  ret void
}

; Function Attrs: nounwind ssp uwtable
define linkonce_odr hidden void @_ZN7content19WebContentsObserver17RenderProcessGoneEN4base17TerminationStatusE(%"class.content::WebContentsObserver"*, i32) unnamed_addr #0 comdat align 2 {
  ret void
}

; Function Attrs: nounwind ssp uwtable
define linkonce_odr hidden void @_ZN7content19WebContentsObserver21RenderViewHostChangedEPNS_14RenderViewHostES2_(%"class.content::WebContentsObserver"*, %"class.content::RenderViewHost"*, %"class.content::RenderViewHost"*) unnamed_addr #0 comdat align 2 {
  ret void
}

; Function Attrs: nounwind ssp uwtable
define linkonce_odr hidden void @_ZN7content19WebContentsObserver22OnRendererUnresponsiveEPNS_17RenderProcessHostE(%"class.content::WebContentsObserver"*, %"class.content::RenderProcessHost"*) unnamed_addr #0 comdat align 2 {
  ret void
}

; Function Attrs: nounwind ssp uwtable
define linkonce_odr hidden void @_ZN7content19WebContentsObserver20OnRendererResponsiveEPNS_17RenderProcessHostE(%"class.content::WebContentsObserver"*, %"class.content::RenderProcessHost"*) unnamed_addr #0 comdat align 2 {
  ret void
}

; Function Attrs: nounwind ssp uwtable
define linkonce_odr hidden void @_ZN7content19WebContentsObserver21DidRedirectNavigationEPNS_16NavigationHandleE(%"class.content::WebContentsObserver"*, %"class.content::NavigationHandle"*) unnamed_addr #0 comdat align 2 {
  ret void
}

; Function Attrs: nounwind ssp uwtable
define linkonce_odr hidden void @_ZN7content19WebContentsObserver23ReadyToCommitNavigationEPNS_16NavigationHandleE(%"class.content::WebContentsObserver"*, %"class.content::NavigationHandle"*) unnamed_addr #0 comdat align 2 {
  ret void
}

; Function Attrs: nounwind ssp uwtable
define linkonce_odr hidden void @_ZN7content19WebContentsObserver19DidFinishNavigationEPNS_16NavigationHandleE(%"class.content::WebContentsObserver"*, %"class.content::NavigationHandle"*) unnamed_addr #0 comdat align 2 {
  ret void
}

; Function Attrs: nounwind ssp uwtable
define linkonce_odr hidden void @_ZN7content19WebContentsObserver17DidActivatePortalEPNS_11WebContentsEN4base9TimeTicksE(%"class.content::WebContentsObserver"*, %"class.content::WebContents"*, i64) unnamed_addr #0 comdat align 2 {
  ret void
}

; Function Attrs: nounwind ssp uwtable
define linkonce_odr hidden void @_ZN7content19WebContentsObserver15DidStartLoadingEv(%"class.content::WebContentsObserver"*) unnamed_addr #0 comdat align 2 {
  ret void
}

; Function Attrs: nounwind ssp uwtable
define linkonce_odr hidden void @_ZN7content19WebContentsObserver18DidReceiveResponseEv(%"class.content::WebContentsObserver"*) unnamed_addr #0 comdat align 2 {
  ret void
}

; Function Attrs: nounwind ssp uwtable
define linkonce_odr hidden void @_ZN7content19WebContentsObserver14DidStopLoadingEv(%"class.content::WebContentsObserver"*) unnamed_addr #0 comdat align 2 {
  ret void
}

; Function Attrs: nounwind ssp uwtable
define linkonce_odr hidden void @_ZN7content19WebContentsObserver19LoadProgressChangedEd(%"class.content::WebContentsObserver"*, double) unnamed_addr #0 comdat align 2 {
  ret void
}

; Function Attrs: nounwind ssp uwtable
define linkonce_odr hidden void @_ZN7content19WebContentsObserver28DocumentAvailableInMainFrameEPNS_15RenderFrameHostE(%"class.content::WebContentsObserver"*, %"class.content::RenderFrameHost"*) unnamed_addr #0 comdat align 2 {
  ret void
}

; Function Attrs: nounwind ssp uwtable
define linkonce_odr hidden void @_ZN7content19WebContentsObserver34DocumentOnLoadCompletedInMainFrameEPNS_15RenderFrameHostE(%"class.content::WebContentsObserver"*, %"class.content::RenderFrameHost"*) unnamed_addr #0 comdat align 2 {
  ret void
}

; Function Attrs: nounwind ssp uwtable
define linkonce_odr hidden void @_ZN7content19WebContentsObserver16DOMContentLoadedEPNS_15RenderFrameHostE(%"class.content::WebContentsObserver"*, %"class.content::RenderFrameHost"*) unnamed_addr #0 comdat align 2 {
  ret void
}

; Function Attrs: nounwind ssp uwtable
define linkonce_odr hidden void @_ZN7content19WebContentsObserver13DidFinishLoadEPNS_15RenderFrameHostERK4GURL(%"class.content::WebContentsObserver"*, %"class.content::RenderFrameHost"*, %class.GURL* dereferenceable(120)) unnamed_addr #0 comdat align 2 {
  ret void
}

; Function Attrs: nounwind ssp uwtable
define linkonce_odr hidden void @_ZN7content19WebContentsObserver11DidFailLoadEPNS_15RenderFrameHostERK4GURLi(%"class.content::WebContentsObserver"*, %"class.content::RenderFrameHost"*, %class.GURL* dereferenceable(120), i32) unnamed_addr #0 comdat align 2 {
  ret void
}

; Function Attrs: nounwind ssp uwtable
define linkonce_odr hidden void @_ZN7content19WebContentsObserver29DidChangeVisibleSecurityStateEv(%"class.content::WebContentsObserver"*) unnamed_addr #0 comdat align 2 {
  ret void
}

; Function Attrs: nounwind ssp uwtable
define linkonce_odr hidden void @_ZN7content19WebContentsObserver30DidLoadResourceFromMemoryCacheEPNS_15RenderFrameHostERK4GURLRKNSt3__112basic_stringIcNS6_11char_traitsIcEENS6_9allocatorIcEEEEN7network5mojom18RequestDestinationE(%"class.content::WebContentsObserver"*, %"class.content::RenderFrameHost"*, %class.GURL* dereferenceable(120), %"class.std::__1::basic_string.38"* dereferenceable(24), i32) unnamed_addr #0 comdat align 2 {
  ret void
}

; Function Attrs: nounwind ssp uwtable
define linkonce_odr hidden void @_ZN7content19WebContentsObserver20ResourceLoadCompleteEPNS_15RenderFrameHostERKNS_15GlobalRequestIDERKN5blink5mojom16ResourceLoadInfoE(%"class.content::WebContentsObserver"*, %"class.content::RenderFrameHost"*, %"struct.content::GlobalRequestID"* dereferenceable(8), %"class.blink::mojom::ResourceLoadInfo"*) unnamed_addr #0 comdat align 2 {
  ret void
}

; Function Attrs: nounwind ssp uwtable
define linkonce_odr hidden void @_ZN7content19WebContentsObserver17OnCookiesAccessedEPNS_15RenderFrameHostERKNS_19CookieAccessDetailsE(%"class.content::WebContentsObserver"*, %"class.content::RenderFrameHost"*, %"struct.content::CookieAccessDetails"* dereferenceable(280)) unnamed_addr #0 comdat align 2 {
  ret void
}

; Function Attrs: nounwind ssp uwtable
define linkonce_odr hidden void @_ZN7content19WebContentsObserver17OnCookiesAccessedEPNS_16NavigationHandleERKNS_19CookieAccessDetailsE(%"class.content::WebContentsObserver"*, %"class.content::NavigationHandle"*, %"struct.content::CookieAccessDetails"* dereferenceable(280)) unnamed_addr #0 comdat align 2 {
  ret void
}

; Function Attrs: nounwind ssp uwtable
define linkonce_odr hidden void @_ZN7content19WebContentsObserver24NavigationEntryCommittedERKNS_20LoadCommittedDetailsE(%"class.content::WebContentsObserver"*, %"struct.content::LoadCommittedDetails"*) unnamed_addr #0 comdat align 2 {
  ret void
}

; Function Attrs: nounwind ssp uwtable
define linkonce_odr hidden void @_ZN7content19WebContentsObserver20NavigationListPrunedERKNS_13PrunedDetailsE(%"class.content::WebContentsObserver"*, %"struct.content::PrunedDetails"*) unnamed_addr #0 comdat align 2 {
  ret void
}

; Function Attrs: nounwind ssp uwtable
define linkonce_odr hidden void @_ZN7content19WebContentsObserver24NavigationEntriesDeletedEv(%"class.content::WebContentsObserver"*) unnamed_addr #0 comdat align 2 {
  ret void
}

; Function Attrs: nounwind ssp uwtable
define linkonce_odr hidden void @_ZN7content19WebContentsObserver22NavigationEntryChangedERKNS_19EntryChangedDetailsE(%"class.content::WebContentsObserver"*, %"struct.content::EntryChangedDetails"*) unnamed_addr #0 comdat align 2 {
  ret void
}

; Function Attrs: nounwind ssp uwtable
define linkonce_odr hidden void @_ZN7content19WebContentsObserver19DidOpenRequestedURLEPNS_11WebContentsEPNS_15RenderFrameHostERK4GURLRKNS_8ReferrerE21WindowOpenDispositionN2ui14PageTransitionEbb(%"class.content::WebContentsObserver"*, %"class.content::WebContents"*, %"class.content::RenderFrameHost"*, %class.GURL* dereferenceable(120), %"struct.content::Referrer"* dereferenceable(128), i32, i32, i1 zeroext, i1 zeroext) unnamed_addr #0 comdat align 2 {
  ret void
}

; Function Attrs: nounwind ssp uwtable
define linkonce_odr hidden void @_ZN7content19WebContentsObserver29DidFirstVisuallyNonEmptyPaintEv(%"class.content::WebContentsObserver"*) unnamed_addr #0 comdat align 2 {
  ret void
}

; Function Attrs: nounwind ssp uwtable
define linkonce_odr hidden void @_ZN7content19WebContentsObserver17NavigationStoppedEv(%"class.content::WebContentsObserver"*) unnamed_addr #0 comdat align 2 {
  ret void
}

; Function Attrs: nounwind ssp uwtable
define linkonce_odr hidden void @_ZN7content19WebContentsObserver21DidGetUserInteractionERKN5blink13WebInputEventE(%"class.content::WebContentsObserver"*, %"class.blink::WebInputEvent"* dereferenceable(40)) unnamed_addr #0 comdat align 2 {
  ret void
}

; Function Attrs: nounwind ssp uwtable
define linkonce_odr hidden void @_ZN7content19WebContentsObserver20DidGetIgnoredUIEventEv(%"class.content::WebContentsObserver"*) unnamed_addr #0 comdat align 2 {
  ret void
}

; Function Attrs: nounwind ssp uwtable
define linkonce_odr hidden void @_ZN7content19WebContentsObserver19OnVisibilityChangedENS_10VisibilityE(%"class.content::WebContentsObserver"*, i32) unnamed_addr #0 comdat align 2 {
  ret void
}

; Function Attrs: nounwind ssp uwtable
define linkonce_odr hidden void @_ZN7content19WebContentsObserver19MainFrameWasResizedEb(%"class.content::WebContentsObserver"*, i1 zeroext) unnamed_addr #0 comdat align 2 {
  ret void
}

; Function Attrs: nounwind ssp uwtable
define linkonce_odr hidden void @_ZN7content19WebContentsObserver16FrameNameChangedEPNS_15RenderFrameHostERKNSt3__112basic_stringIcNS3_11char_traitsIcEENS3_9allocatorIcEEEE(%"class.content::WebContentsObserver"*, %"class.content::RenderFrameHost"*, %"class.std::__1::basic_string.38"* dereferenceable(24)) unnamed_addr #0 comdat align 2 {
  ret void
}

; Function Attrs: nounwind ssp uwtable
define linkonce_odr hidden void @_ZN7content19WebContentsObserver27FrameReceivedUserActivationEPNS_15RenderFrameHostE(%"class.content::WebContentsObserver"*, %"class.content::RenderFrameHost"*) unnamed_addr #0 comdat align 2 {
  ret void
}

; Function Attrs: nounwind ssp uwtable
define linkonce_odr hidden void @_ZN7content19WebContentsObserver24FrameDisplayStateChangedEPNS_15RenderFrameHostEb(%"class.content::WebContentsObserver"*, %"class.content::RenderFrameHost"*, i1 zeroext) unnamed_addr #0 comdat align 2 {
  ret void
}

; Function Attrs: nounwind ssp uwtable
define linkonce_odr hidden void @_ZN7content19WebContentsObserver16FrameSizeChangedEPNS_15RenderFrameHostERKN3gfx4SizeE(%"class.content::WebContentsObserver"*, %"class.content::RenderFrameHost"*, %"class.gfx::Size"* dereferenceable(8)) unnamed_addr #0 comdat align 2 {
  ret void
}

; Function Attrs: nounwind ssp uwtable
define linkonce_odr hidden void @_ZN7content19WebContentsObserver11TitleWasSetEPNS_15NavigationEntryE(%"class.content::WebContentsObserver"*, %"class.content::NavigationEntry"*) unnamed_addr #0 comdat align 2 {
  ret void
}

; Function Attrs: nounwind ssp uwtable
define linkonce_odr hidden void @_ZN7content19WebContentsObserver16AppCacheAccessedERK4GURLb(%"class.content::WebContentsObserver"*, %class.GURL* dereferenceable(120), i1 zeroext) unnamed_addr #0 comdat align 2 {
  ret void
}

; Function Attrs: nounwind ssp uwtable
define linkonce_odr hidden void @_ZN7content19WebContentsObserver21PepperInstanceCreatedEv(%"class.content::WebContentsObserver"*) unnamed_addr #0 comdat align 2 {
  ret void
}

; Function Attrs: nounwind ssp uwtable
define linkonce_odr hidden void @_ZN7content19WebContentsObserver21PepperInstanceDeletedEv(%"class.content::WebContentsObserver"*) unnamed_addr #0 comdat align 2 {
  ret void
}

; Function Attrs: nounwind ssp uwtable
define linkonce_odr hidden void @_ZN7content19WebContentsObserver18ViewportFitChangedEN5blink5mojom11ViewportFitE(%"class.content::WebContentsObserver"*, i32) unnamed_addr #0 comdat align 2 {
  ret void
}

; Function Attrs: nounwind ssp uwtable
define linkonce_odr hidden void @_ZN7content19WebContentsObserver13PluginCrashedERKN4base8FilePathEi(%"class.content::WebContentsObserver"*, %"class.base::FilePath"* dereferenceable(24), i32) unnamed_addr #0 comdat align 2 {
  ret void
}

; Function Attrs: nounwind ssp uwtable
define linkonce_odr hidden void @_ZN7content19WebContentsObserver23PluginHungStatusChangedEiRKN4base8FilePathEb(%"class.content::WebContentsObserver"*, i32, %"class.base::FilePath"* dereferenceable(24), i1 zeroext) unnamed_addr #0 comdat align 2 {
  ret void
}

; Function Attrs: nounwind ssp uwtable
define linkonce_odr hidden void @_ZN7content19WebContentsObserver23InnerWebContentsCreatedEPNS_11WebContentsE(%"class.content::WebContentsObserver"*, %"class.content::WebContents"*) unnamed_addr #0 comdat align 2 {
  ret void
}

; Function Attrs: nounwind ssp uwtable
define linkonce_odr hidden void @_ZN7content19WebContentsObserver24InnerWebContentsAttachedEPNS_11WebContentsEPNS_15RenderFrameHostEb(%"class.content::WebContentsObserver"*, %"class.content::WebContents"*, %"class.content::RenderFrameHost"*, i1 zeroext) unnamed_addr #0 comdat align 2 {
  ret void
}

; Function Attrs: nounwind ssp uwtable
define linkonce_odr hidden void @_ZN7content19WebContentsObserver24InnerWebContentsDetachedEPNS_11WebContentsE(%"class.content::WebContentsObserver"*, %"class.content::WebContents"*) unnamed_addr #0 comdat align 2 {
  ret void
}

; Function Attrs: nounwind ssp uwtable
define linkonce_odr hidden void @_ZN7content19WebContentsObserver24DidCloneToNewWebContentsEPNS_11WebContentsES2_(%"class.content::WebContentsObserver"*, %"class.content::WebContents"*, %"class.content::WebContents"*) unnamed_addr #0 comdat align 2 {
  ret void
}

; Function Attrs: nounwind ssp uwtable
define linkonce_odr hidden void @_ZN7content19WebContentsObserver20WebContentsDestroyedEv(%"class.content::WebContentsObserver"*) unnamed_addr #0 comdat align 2 {
  ret void
}

; Function Attrs: nounwind ssp uwtable
define linkonce_odr hidden void @_ZN7content19WebContentsObserver20UserAgentOverrideSetERKN5blink17UserAgentOverrideE(%"class.content::WebContentsObserver"*, %"struct.blink::UserAgentOverride"* dereferenceable(184)) unnamed_addr #0 comdat align 2 {
  ret void
}

; Function Attrs: nounwind ssp uwtable
define linkonce_odr hidden void @_ZN7content19WebContentsObserver19DidUpdateFaviconURLEPNS_15RenderFrameHostERKNSt3__16vectorIN4mojo9StructPtrIN5blink5mojom10FaviconURLEEENS3_9allocatorISA_EEEE(%"class.content::WebContentsObserver"*, %"class.content::RenderFrameHost"*, %"class.std::__1::vector.68"*) unnamed_addr #0 comdat align 2 {
  ret void
}

; Function Attrs: nounwind ssp uwtable
define linkonce_odr hidden void @_ZN7content19WebContentsObserver19OnAudioStateChangedEb(%"class.content::WebContentsObserver"*, i1 zeroext) unnamed_addr #0 comdat align 2 {
  ret void
}

; Function Attrs: nounwind ssp uwtable
define linkonce_odr hidden void @_ZN7content19WebContentsObserver24OnFrameAudioStateChangedEPNS_15RenderFrameHostEb(%"class.content::WebContentsObserver"*, %"class.content::RenderFrameHost"*, i1 zeroext) unnamed_addr #0 comdat align 2 {
  ret void
}

; Function Attrs: nounwind ssp uwtable
define linkonce_odr hidden void @_ZN7content19WebContentsObserver37OnIsConnectedToBluetoothDeviceChangedEb(%"class.content::WebContentsObserver"*, i1 zeroext) unnamed_addr #0 comdat align 2 {
  ret void
}

; Function Attrs: nounwind ssp uwtable
define linkonce_odr hidden void @_ZN7content19WebContentsObserver25DidUpdateAudioMutingStateEb(%"class.content::WebContentsObserver"*, i1 zeroext) unnamed_addr #0 comdat align 2 {
  ret void
}

; Function Attrs: nounwind ssp uwtable
define linkonce_odr hidden void @_ZN7content19WebContentsObserver29DidToggleFullscreenModeForTabEbb(%"class.content::WebContentsObserver"*, i1 zeroext, i1 zeroext) unnamed_addr #0 comdat align 2 {
  ret void
}

; Function Attrs: nounwind ssp uwtable
define linkonce_odr hidden void @_ZN7content19WebContentsObserver20DidAcquireFullscreenEPNS_15RenderFrameHostE(%"class.content::WebContentsObserver"*, %"class.content::RenderFrameHost"*) unnamed_addr #0 comdat align 2 {
  ret void
}

; Function Attrs: nounwind ssp uwtable
define linkonce_odr hidden void @_ZN7content19WebContentsObserver32DidChangeVerticalScrollDirectionEN3viz23VerticalScrollDirectionE(%"class.content::WebContentsObserver"*, i32) unnamed_addr #0 comdat align 2 {
  ret void
}

; Function Attrs: nounwind ssp uwtable
define linkonce_odr hidden void @_ZN7content19WebContentsObserver27BeforeFormRepostWarningShowEv(%"class.content::WebContentsObserver"*) unnamed_addr #0 comdat align 2 {
  ret void
}

; Function Attrs: nounwind ssp uwtable
define linkonce_odr hidden void @_ZN7content19WebContentsObserver17BeforeUnloadFiredEbRKN4base9TimeTicksE(%"class.content::WebContentsObserver"*, i1 zeroext, %"class.base::TimeTicks"* dereferenceable(8)) unnamed_addr #0 comdat align 2 {
  ret void
}

; Function Attrs: nounwind ssp uwtable
define linkonce_odr hidden void @_ZN7content19WebContentsObserver27BeforeUnloadDialogCancelledEv(%"class.content::WebContentsObserver"*) unnamed_addr #0 comdat align 2 {
  ret void
}

; Function Attrs: nounwind ssp uwtable
define linkonce_odr hidden void @_ZN7content19WebContentsObserver30AXTreeIDForMainFrameHasChangedEv(%"class.content::WebContentsObserver"*) unnamed_addr #0 comdat align 2 {
  ret void
}

; Function Attrs: nounwind ssp uwtable
define linkonce_odr hidden void @_ZN7content19WebContentsObserver26AccessibilityEventReceivedERKNS_26AXEventNotificationDetailsE(%"class.content::WebContentsObserver"*, %"struct.content::AXEventNotificationDetails"*) unnamed_addr #0 comdat align 2 {
  ret void
}

; Function Attrs: nounwind ssp uwtable
define linkonce_odr hidden void @_ZN7content19WebContentsObserver36AccessibilityLocationChangesReceivedERKNSt3__16vectorINS_35AXLocationChangeNotificationDetailsENS1_9allocatorIS3_EEEE(%"class.content::WebContentsObserver"*, %"class.std::__1::vector.69"*) unnamed_addr #0 comdat align 2 {
  ret void
}

; Function Attrs: nounwind ssp uwtable
define linkonce_odr hidden void @_ZN7content19WebContentsObserver19DidChangeThemeColorEv(%"class.content::WebContentsObserver"*) unnamed_addr #0 comdat align 2 {
  ret void
}

; Function Attrs: nounwind ssp uwtable
define linkonce_odr hidden void @_ZN7content19WebContentsObserver24OnBackgroundColorChangedEv(%"class.content::WebContentsObserver"*) unnamed_addr #0 comdat align 2 {
  ret void
}

; Function Attrs: nounwind ssp uwtable
define linkonce_odr hidden void @_ZN7content19WebContentsObserver24OnDidAddMessageToConsoleEPNS_15RenderFrameHostEN5blink5mojom19ConsoleMessageLevelERKNSt3__112basic_stringIDsNS6_11char_traitsIDsEENS6_9allocatorIDsEEEEiSE_RKN4absl8optionalISC_EE(%"class.content::WebContentsObserver"*, %"class.content::RenderFrameHost"*, i32, %"class.std::__1::basic_string"* dereferenceable(24), i32, %"class.std::__1::basic_string"* dereferenceable(24), %"class.absl::optional.70"*) unnamed_addr #0 comdat align 2 {
  ret void
}

; Function Attrs: nounwind ssp uwtable
define linkonce_odr hidden void @_ZN7content19WebContentsObserver19MediaStartedPlayingERKNS0_15MediaPlayerInfoERKNS_13MediaPlayerIdE(%"class.content::WebContentsObserver"*, %"struct.content::WebContentsObserver::MediaPlayerInfo"* dereferenceable(2), %"struct.content::MediaPlayerId"*) unnamed_addr #0 comdat align 2 {
  ret void
}

; Function Attrs: nounwind ssp uwtable
define linkonce_odr hidden void @_ZN7content19WebContentsObserver19MediaStoppedPlayingERKNS0_15MediaPlayerInfoERKNS_13MediaPlayerIdENS0_18MediaStoppedReasonE(%"class.content::WebContentsObserver"*, %"struct.content::WebContentsObserver::MediaPlayerInfo"* dereferenceable(2), %"struct.content::MediaPlayerId"*, i32) unnamed_addr #0 comdat align 2 {
  ret void
}

; Function Attrs: nounwind ssp uwtable
define linkonce_odr hidden void @_ZN7content19WebContentsObserver12MediaResizedERKN3gfx4SizeERKNS_13MediaPlayerIdE(%"class.content::WebContentsObserver"*, %"class.gfx::Size"* dereferenceable(8), %"struct.content::MediaPlayerId"*) unnamed_addr #0 comdat align 2 {
  ret void
}

; Function Attrs: nounwind ssp uwtable
define linkonce_odr hidden void @_ZN7content19WebContentsObserver33MediaEffectivelyFullscreenChangedEb(%"class.content::WebContentsObserver"*, i1 zeroext) unnamed_addr #0 comdat align 2 {
  ret void
}

; Function Attrs: nounwind ssp uwtable
define linkonce_odr hidden void @_ZN7content19WebContentsObserver28MediaPictureInPictureChangedEb(%"class.content::WebContentsObserver"*, i1 zeroext) unnamed_addr #0 comdat align 2 {
  ret void
}

; Function Attrs: nounwind ssp uwtable
define linkonce_odr hidden void @_ZN7content19WebContentsObserver23MediaMutedStatusChangedERKNS_13MediaPlayerIdEb(%"class.content::WebContentsObserver"*, %"struct.content::MediaPlayerId"*, i1 zeroext) unnamed_addr #0 comdat align 2 {
  ret void
}

; Function Attrs: nounwind ssp uwtable
define linkonce_odr hidden void @_ZN7content19WebContentsObserver20MediaBufferUnderflowERKNS_13MediaPlayerIdE(%"class.content::WebContentsObserver"*, %"struct.content::MediaPlayerId"*) unnamed_addr #0 comdat align 2 {
  ret void
}

; Function Attrs: nounwind ssp uwtable
define linkonce_odr hidden void @_ZN7content19WebContentsObserver15MediaPlayerSeekERKNS_13MediaPlayerIdE(%"class.content::WebContentsObserver"*, %"struct.content::MediaPlayerId"*) unnamed_addr #0 comdat align 2 {
  ret void
}

; Function Attrs: nounwind ssp uwtable
define linkonce_odr hidden void @_ZN7content19WebContentsObserver14MediaDestroyedERKNS_13MediaPlayerIdE(%"class.content::WebContentsObserver"*, %"struct.content::MediaPlayerId"*) unnamed_addr #0 comdat align 2 {
  ret void
}

; Function Attrs: nounwind ssp uwtable
define linkonce_odr hidden void @_ZN7content19WebContentsObserver24OnPageScaleFactorChangedEf(%"class.content::WebContentsObserver"*, float) unnamed_addr #0 comdat align 2 {
  ret void
}

; Function Attrs: nounwind ssp uwtable
define linkonce_odr hidden void @_ZN7content19WebContentsObserver7OnPasteEv(%"class.content::WebContentsObserver"*) unnamed_addr #0 comdat align 2 {
  ret void
}

declare zeroext i1 @_ZN7content19WebContentsObserver17OnMessageReceivedERKN3IPC7MessageEPNS_15RenderFrameHostE(%"class.content::WebContentsObserver"*, %"class.IPC::Message"* dereferenceable(56), %"class.content::RenderFrameHost"*) unnamed_addr #1

; Function Attrs: nounwind ssp uwtable
define linkonce_odr hidden void @_ZN7content19WebContentsObserver20OnWebContentsFocusedEPNS_16RenderWidgetHostE(%"class.content::WebContentsObserver"*, %"class.content::RenderWidgetHost"*) unnamed_addr #0 comdat align 2 {
  ret void
}

; Function Attrs: nounwind ssp uwtable
define linkonce_odr hidden void @_ZN7content19WebContentsObserver22OnWebContentsLostFocusEPNS_16RenderWidgetHostE(%"class.content::WebContentsObserver"*, %"class.content::RenderWidgetHost"*) unnamed_addr #0 comdat align 2 {
  ret void
}

; Function Attrs: nounwind ssp uwtable
define linkonce_odr hidden void @_ZN7content19WebContentsObserver20OnFocusChangedInPageEPNS_18FocusedNodeDetailsE(%"class.content::WebContentsObserver"*, %"struct.content::FocusedNodeDetails"*) unnamed_addr #0 comdat align 2 {
  ret void
}

; Function Attrs: nounwind ssp uwtable
define linkonce_odr hidden void @_ZN7content19WebContentsObserver23DidUpdateWebManifestURLEPNS_15RenderFrameHostERKN4absl8optionalI4GURLEE(%"class.content::WebContentsObserver"*, %"class.content::RenderFrameHost"*, %"class.absl::optional.71"* dereferenceable(128)) unnamed_addr #0 comdat align 2 {
  ret void
}

; Function Attrs: nounwind ssp uwtable
define linkonce_odr hidden void @_ZN7content19WebContentsObserver27OnInterfaceRequestFromFrameEPNS_15RenderFrameHostERKNSt3__112basic_stringIcNS3_11char_traitsIcEENS3_9allocatorIcEEEEPN4mojo16ScopedHandleBaseINSC_17MessagePipeHandleEEE(%"class.content::WebContentsObserver"*, %"class.content::RenderFrameHost"*, %"class.std::__1::basic_string.38"* dereferenceable(24), %"class.mojo::ScopedHandleBase"*) unnamed_addr #0 comdat align 2 {
  ret void
}

; Function Attrs: nounwind ssp uwtable
define linkonce_odr hidden void @_ZN7content19WebContentsObserver27AudioContextPlaybackStartedERKNSt3__14pairIPNS_15RenderFrameHostEiEE(%"class.content::WebContentsObserver"*, %"struct.std::__1::pair"*) unnamed_addr #0 comdat align 2 {
  ret void
}

; Function Attrs: nounwind ssp uwtable
define linkonce_odr hidden void @_ZN7content19WebContentsObserver27AudioContextPlaybackStoppedERKNSt3__14pairIPNS_15RenderFrameHostEiEE(%"class.content::WebContentsObserver"*, %"struct.std::__1::pair"*) unnamed_addr #0 comdat align 2 {
  ret void
}

; Function Attrs: nounwind ssp uwtable
define linkonce_odr hidden void @_ZN7content19WebContentsObserver23OnServiceWorkerAccessedEPNS_15RenderFrameHostERK4GURLNS_24AllowServiceWorkerResultE(%"class.content::WebContentsObserver"*, %"class.content::RenderFrameHost"*, %class.GURL* dereferenceable(120), i24) unnamed_addr #0 comdat align 2 {
  ret void
}

; Function Attrs: nounwind ssp uwtable
define linkonce_odr hidden void @_ZN7content19WebContentsObserver23OnServiceWorkerAccessedEPNS_16NavigationHandleERK4GURLNS_24AllowServiceWorkerResultE(%"class.content::WebContentsObserver"*, %"class.content::NavigationHandle"*, %class.GURL* dereferenceable(120), i24) unnamed_addr #0 comdat align 2 {
  ret void
}

declare void @_ZN4base16SupportsUserData4Data5CloneEv() unnamed_addr

declare void @_ZN4base8internal11WeakPtrBaseC2Ev(%"class.base::internal::WeakPtrBase"*) unnamed_addr #1

; Function Attrs: nounwind
declare dereferenceable(8) %"class.base::internal::CallbackBase"* @_ZN4base8internal12CallbackBaseaSEOS1_(%"class.base::internal::CallbackBase"*, %"class.base::internal::CallbackBase"* dereferenceable(8)) local_unnamed_addr #2

; Function Attrs: nounwind
declare void @_ZN4base8internal13WeakReference4FlagD1Ev(%"class.base::internal::WeakReference::Flag"*) unnamed_addr #2

declare void @_ZN4base8internal18WeakPtrFactoryBaseC2Em(%"class.base::internal::WeakPtrFactoryBase"*, i64) unnamed_addr #1

declare void @_ZNK4base8internal18WeakReferenceOwner6GetRefEv(%"class.base::internal::WeakReference"* sret, %"class.base::internal::WeakReferenceOwner"*) local_unnamed_addr #1

; Function Attrs: nounwind
declare void @_ZN4base8internal13WeakReferenceD1Ev(%"class.base::internal::WeakReference"*) unnamed_addr #2

declare void @_ZN4base8internal11WeakPtrBaseC2ERKNS0_13WeakReferenceEm(%"class.base::internal::WeakPtrBase"*, %"class.base::internal::WeakReference"* dereferenceable(8), i64) unnamed_addr #1

declare void @_ZN4base16SupportsUserData11SetUserDataEPKvNSt3__110unique_ptrINS0_4DataENS3_14default_deleteIS5_EEEE(%"class.base::SupportsUserData"*, i8*, %"class.base::SupportsUserData::Data"*) local_unnamed_addr #1

; Function Attrs: nobuiltin nofree
declare noalias nonnull i8* @_Znwm(i64) local_unnamed_addr #5

declare %"class.base::SupportsUserData::Data"* @_ZNK4base16SupportsUserData11GetUserDataEPKv(%"class.base::SupportsUserData"*, i8*) local_unnamed_addr #1

; Function Attrs: nounwind ssp uwtable
define linkonce_odr hidden void @_ZN4base8internal7InvokerINS0_9BindStateIMN8payments37PaymentCredentialEnrollmentControllerEFvbEJNS_7WeakPtrIS4_EEEEEFvbEE7RunOnceEPNS0_13BindStateBaseEb(%"class.base::internal::BindStateBase"*, i1 zeroext) #0 comdat align 2 {
  %3 = alloca %"class.logging::CheckError", align 8
  %4 = getelementptr inbounds %"class.base::internal::BindStateBase", %"class.base::internal::BindStateBase"* %0, i64 1
  %5 = getelementptr inbounds %"class.base::internal::BindStateBase", %"class.base::internal::BindStateBase"* %0, i64 1, i32 2
  %6 = bitcast void (%"class.base::internal::BindStateBase"*)** %5 to %"class.base::internal::WeakReference"*
  %7 = tail call zeroext i1 @_ZNK4base8internal13WeakReference7IsValidEv(%"class.base::internal::WeakReference"* %6) #6
  br i1 %7, label %8, label %43

8:                                                ; preds = %2
  %9 = getelementptr inbounds void (%"class.base::internal::BindStateBase"*)*, void (%"class.base::internal::BindStateBase"*)** %5, i64 1
  %10 = bitcast void (%"class.base::internal::BindStateBase"*)** %9 to %"class.payments::PaymentCredentialEnrollmentController"**
  %11 = load %"class.payments::PaymentCredentialEnrollmentController"*, %"class.payments::PaymentCredentialEnrollmentController"** %10, align 8
  %12 = icmp eq %"class.payments::PaymentCredentialEnrollmentController"* %11, null
  br i1 %12, label %43, label %13

13:                                               ; preds = %8
  %14 = bitcast %"class.base::internal::BindStateBase"* %4 to i64*
  %15 = load i64, i64* %14, align 8
  %16 = getelementptr inbounds %"class.base::internal::BindStateBase", %"class.base::internal::BindStateBase"* %0, i64 1, i32 1
  %17 = bitcast void ()** %16 to i64*
  %18 = load i64, i64* %17, align 8
  %19 = tail call zeroext i1 @_ZNK4base8internal13WeakReference7IsValidEv(%"class.base::internal::WeakReference"* %6) #6
  br i1 %19, label %23, label %20

20:                                               ; preds = %13
  %21 = bitcast %"class.logging::CheckError"* %3 to i8*
  call void @llvm.lifetime.start.p0i8(i64 8, i8* nonnull %21) #6
  call void @_ZN7logging10CheckError5CheckEPKciS2_(%"class.logging::CheckError"* nonnull sret %3, i8* getelementptr inbounds ([29 x i8], [29 x i8]* @.str, i64 0, i64 0), i32 251, i8* getelementptr inbounds ([15 x i8], [15 x i8]* @.str.1, i64 0, i64 0)) #6
  %22 = call dereferenceable(160) %"class.std::__1::basic_ostream"* @_ZN7logging10CheckError6streamEv(%"class.logging::CheckError"* nonnull %3) #6
  call void @_ZN7logging10CheckErrorD1Ev(%"class.logging::CheckError"* nonnull %3) #6
  call void @llvm.lifetime.end.p0i8(i64 8, i8* nonnull %21) #6
  br label %23

23:                                               ; preds = %20, %13
  %24 = call zeroext i1 @_ZNK4base8internal13WeakReference7IsValidEv(%"class.base::internal::WeakReference"* %6) #6
  %25 = bitcast void (%"class.base::internal::BindStateBase"*)** %9 to i8**
  %26 = load i8*, i8** %25, align 8
  %27 = select i1 %24, i8* %26, i8* null
  %28 = getelementptr inbounds i8, i8* %27, i64 %18
  %29 = bitcast i8* %28 to %"class.payments::PaymentCredentialEnrollmentController"*
  %30 = and i64 %15, 1
  %31 = icmp eq i64 %30, 0
  br i1 %31, label %39, label %32

32:                                               ; preds = %23
  %33 = bitcast i8* %28 to i8**
  %34 = load i8*, i8** %33, align 8
  %35 = add i64 %15, -1
  %36 = getelementptr i8, i8* %34, i64 %35
  %37 = bitcast i8* %36 to void (%"class.payments::PaymentCredentialEnrollmentController"*, i1)**
  %38 = load void (%"class.payments::PaymentCredentialEnrollmentController"*, i1)*, void (%"class.payments::PaymentCredentialEnrollmentController"*, i1)** %37, align 8
  br label %41

39:                                               ; preds = %23
  %40 = inttoptr i64 %15 to void (%"class.payments::PaymentCredentialEnrollmentController"*, i1)*
  br label %41

41:                                               ; preds = %39, %32
  %42 = phi void (%"class.payments::PaymentCredentialEnrollmentController"*, i1)* [ %38, %32 ], [ %40, %39 ]
  call void %42(%"class.payments::PaymentCredentialEnrollmentController"* %29, i1 zeroext %1) #6
  br label %43

43:                                               ; preds = %2, %8, %41
  ret void
}

declare zeroext i1 @_ZNK4base8internal13WeakReference7IsValidEv(%"class.base::internal::WeakReference"*) local_unnamed_addr #1

declare void @_ZN7logging10CheckError5CheckEPKciS2_(%"class.logging::CheckError"* sret, i8*, i32, i8*) local_unnamed_addr #1

declare dereferenceable(160) %"class.std::__1::basic_ostream"* @_ZN7logging10CheckError6streamEv(%"class.logging::CheckError"*) local_unnamed_addr #1

; Function Attrs: nounwind
declare void @_ZN7logging10CheckErrorD1Ev(%"class.logging::CheckError"*) unnamed_addr #2

; Function Attrs: nounwind ssp uwtable
define linkonce_odr hidden void @_ZN4base8internal9BindStateIMN8payments37PaymentCredentialEnrollmentControllerEFvbEJNS_7WeakPtrIS3_EEEE7DestroyEPKNS0_13BindStateBaseE(%"class.base::internal::BindStateBase"*) #0 comdat align 2 {
  %2 = icmp eq %"class.base::internal::BindStateBase"* %0, null
  br i1 %2, label %7, label %3

3:                                                ; preds = %1
  %4 = getelementptr inbounds %"class.base::internal::BindStateBase", %"class.base::internal::BindStateBase"* %0, i64 1, i32 2
  %5 = bitcast void (%"class.base::internal::BindStateBase"*)** %4 to %"class.base::internal::WeakPtrBase"*
  tail call void @_ZN4base8internal11WeakPtrBaseD2Ev(%"class.base::internal::WeakPtrBase"* %5) #6
  %6 = bitcast %"class.base::internal::BindStateBase"* %0 to i8*
  tail call void @_ZdlPv(i8* %6) #7
  br label %7

7:                                                ; preds = %3, %1
  ret void
}

; Function Attrs: nounwind ssp uwtable
define linkonce_odr hidden zeroext i1 @_ZN4base8internal23QueryCancellationTraitsINS0_9BindStateIMN8payments37PaymentCredentialEnrollmentControllerEFvbEJNS_7WeakPtrIS4_EEEEEEEbPKNS0_13BindStateBaseENSA_21CancellationQueryModeE(%"class.base::internal::BindStateBase"*, i32) #0 comdat {
  %3 = getelementptr inbounds %"class.base::internal::BindStateBase", %"class.base::internal::BindStateBase"* %0, i64 1, i32 2
  switch i32 %1, label %16 [
    i32 0, label %4
    i32 1, label %13
  ]

4:                                                ; preds = %2
  %5 = bitcast void (%"class.base::internal::BindStateBase"*)** %3 to %"class.base::internal::WeakReference"*
  %6 = tail call zeroext i1 @_ZNK4base8internal13WeakReference7IsValidEv(%"class.base::internal::WeakReference"* %5) #6
  %7 = getelementptr inbounds void (%"class.base::internal::BindStateBase"*)*, void (%"class.base::internal::BindStateBase"*)** %3, i64 1
  %8 = bitcast void (%"class.base::internal::BindStateBase"*)** %7 to %"class.payments::PaymentCredentialEnrollmentController"**
  %9 = load %"class.payments::PaymentCredentialEnrollmentController"*, %"class.payments::PaymentCredentialEnrollmentController"** %8, align 8
  %10 = icmp ne %"class.payments::PaymentCredentialEnrollmentController"* %9, null
  %11 = and i1 %6, %10
  %12 = xor i1 %11, true
  br label %16

13:                                               ; preds = %2
  %14 = bitcast void (%"class.base::internal::BindStateBase"*)** %3 to %"class.base::internal::WeakReference"*
  %15 = tail call zeroext i1 @_ZNK4base8internal13WeakReference10MaybeValidEv(%"class.base::internal::WeakReference"* %14) #6
  br label %16

16:                                               ; preds = %2, %4, %13
  %17 = phi i1 [ %15, %13 ], [ %12, %4 ], [ false, %2 ]
  ret i1 %17
}

declare void @_ZN4base8internal13BindStateBaseC2EPFvvEPFvPKS1_EPFbS5_NS1_21CancellationQueryModeEE(%"class.base::internal::BindStateBase"*, void ()*, void (%"class.base::internal::BindStateBase"*)*, i1 (%"class.base::internal::BindStateBase"*, i32)*) unnamed_addr #1

declare zeroext i1 @_ZNK4base8internal13WeakReference10MaybeValidEv(%"class.base::internal::WeakReference"*) local_unnamed_addr #1

; Function Attrs: nounwind
declare void @_ZN4base8internal13WeakReferenceC1EOS1_(%"class.base::internal::WeakReference"*, %"class.base::internal::WeakReference"* dereferenceable(8)) unnamed_addr #2

; Function Attrs: argmemonly nounwind
declare void @llvm.memset.p0i8.i64(i8* nocapture writeonly, i8, i64, i1 immarg) #4

attributes #0 = { nounwind ssp uwtable "correctly-rounded-divide-sqrt-fp-math"="false" "disable-tail-calls"="false" "less-precise-fpmad"="false" "min-legal-vector-width"="0" "no-frame-pointer-elim"="false" "no-frame-pointer-elim-non-leaf" "no-infs-fp-math"="false" "no-jump-tables"="false" "no-nans-fp-math"="false" "no-signed-zeros-fp-math"="false" "no-trapping-math"="false" "null-pointer-is-valid"="true" "stack-protector-buffer-size"="4" "target-cpu"="x86-64" "target-features"="+cx8,+fxsr,+mmx,+sse,+sse2,+sse3,+x87" "unsafe-fp-math"="false" "use-soft-float"="false" }
attributes #1 = { "correctly-rounded-divide-sqrt-fp-math"="false" "disable-tail-calls"="false" "less-precise-fpmad"="false" "no-frame-pointer-elim"="false" "no-frame-pointer-elim-non-leaf" "no-infs-fp-math"="false" "no-nans-fp-math"="false" "no-signed-zeros-fp-math"="false" "no-trapping-math"="false" "null-pointer-is-valid"="true" "stack-protector-buffer-size"="4" "target-cpu"="x86-64" "target-features"="+cx8,+fxsr,+mmx,+sse,+sse2,+sse3,+x87" "unsafe-fp-math"="false" "use-soft-float"="false" }
attributes #2 = { nounwind "correctly-rounded-divide-sqrt-fp-math"="false" "disable-tail-calls"="false" "less-precise-fpmad"="false" "no-frame-pointer-elim"="false" "no-frame-pointer-elim-non-leaf" "no-infs-fp-math"="false" "no-nans-fp-math"="false" "no-signed-zeros-fp-math"="false" "no-trapping-math"="false" "null-pointer-is-valid"="true" "stack-protector-buffer-size"="4" "target-cpu"="x86-64" "target-features"="+cx8,+fxsr,+mmx,+sse,+sse2,+sse3,+x87" "unsafe-fp-math"="false" "use-soft-float"="false" }
attributes #3 = { nobuiltin nounwind "correctly-rounded-divide-sqrt-fp-math"="false" "disable-tail-calls"="false" "less-precise-fpmad"="false" "no-frame-pointer-elim"="false" "no-frame-pointer-elim-non-leaf" "no-infs-fp-math"="false" "no-nans-fp-math"="false" "no-signed-zeros-fp-math"="false" "no-trapping-math"="false" "null-pointer-is-valid"="true" "stack-protector-buffer-size"="4" "target-cpu"="x86-64" "target-features"="+cx8,+fxsr,+mmx,+sse,+sse2,+sse3,+x87" "unsafe-fp-math"="false" "use-soft-float"="false" }
attributes #4 = { argmemonly nounwind }
attributes #5 = { nobuiltin nofree "correctly-rounded-divide-sqrt-fp-math"="false" "disable-tail-calls"="false" "less-precise-fpmad"="false" "no-frame-pointer-elim"="false" "no-frame-pointer-elim-non-leaf" "no-infs-fp-math"="false" "no-nans-fp-math"="false" "no-signed-zeros-fp-math"="false" "no-trapping-math"="false" "null-pointer-is-valid"="true" "stack-protector-buffer-size"="4" "target-cpu"="x86-64" "target-features"="+cx8,+fxsr,+mmx,+sse,+sse2,+sse3,+x87" "unsafe-fp-math"="false" "use-soft-float"="false" }
attributes #6 = { nounwind }
attributes #7 = { builtin nounwind }

!llvm.module.flags = !{!0, !1}

!0 = !{i32 1, !"wchar_size", i32 4}
!1 = !{i32 7, !"PIC Level", i32 2}
!2 = !{!3}
!3 = distinct !{!3, !4, !"_ZNK4base14WeakPtrFactoryIN8payments37PaymentCredentialEnrollmentController11ScopedTokenEE10GetWeakPtrEv: argument 0"}
!4 = distinct !{!4, !"_ZNK4base14WeakPtrFactoryIN8payments37PaymentCredentialEnrollmentController11ScopedTokenEE10GetWeakPtrEv"}
!5 = !{!6}
!6 = distinct !{!6, !7, !"_ZNK4base14WeakPtrFactoryIN8payments37PaymentCredentialEnrollmentControllerEE10GetWeakPtrEv: argument 0"}
!7 = distinct !{!7, !"_ZNK4base14WeakPtrFactoryIN8payments37PaymentCredentialEnrollmentControllerEE10GetWeakPtrEv"}
!8 = !{!9, !11}
!9 = distinct !{!9, !10, !"_ZN4base8internal8BindImplINS_12OnceCallbackEMN8payments37PaymentCredentialEnrollmentControllerEFvbEJNS_7WeakPtrIS4_EEEEEDcOT0_DpOT1_: argument 0"}
!10 = distinct !{!10, !"_ZN4base8internal8BindImplINS_12OnceCallbackEMN8payments37PaymentCredentialEnrollmentControllerEFvbEJNS_7WeakPtrIS4_EEEEEDcOT0_DpOT1_"}
!11 = distinct !{!11, !12, !"_ZN4base8BindOnceIMN8payments37PaymentCredentialEnrollmentControllerEFvbEJNS_7WeakPtrIS2_EEEEENS_12OnceCallbackINS_8internal14BindTypeHelperIT_JDpT0_EE14UnboundRunTypeEEEOSA_DpOSB_: argument 0"}
!12 = distinct !{!12, !"_ZN4base8BindOnceIMN8payments37PaymentCredentialEnrollmentControllerEFvbEJNS_7WeakPtrIS2_EEEEENS_12OnceCallbackINS_8internal14BindTypeHelperIT_JDpT0_EE14UnboundRunTypeEEEOSA_DpOSB_"}
!13 = !{i8 0, i8 2}
!14 = !{!15, !17}
!15 = distinct !{!15, !16, !"_ZNK4base14WeakPtrFactoryIN8payments37PaymentCredentialEnrollmentController11ScopedTokenEE10GetWeakPtrEv: argument 0"}
!16 = distinct !{!16, !"_ZNK4base14WeakPtrFactoryIN8payments37PaymentCredentialEnrollmentController11ScopedTokenEE10GetWeakPtrEv"}
!17 = distinct !{!17, !18, !"_ZN8payments37PaymentCredentialEnrollmentController11ScopedToken10GetWeakPtrEv: argument 0"}
!18 = distinct !{!18, !"_ZN8payments37PaymentCredentialEnrollmentController11ScopedToken10GetWeakPtrEv"}
!19 = !{!20}
!20 = distinct !{!20, !21, !"_ZNK4base14WeakPtrFactoryIN8payments37PaymentCredentialEnrollmentControllerEE10GetWeakPtrEv: argument 0"}
!21 = distinct !{!21, !"_ZNK4base14WeakPtrFactoryIN8payments37PaymentCredentialEnrollmentControllerEE10GetWeakPtrEv"}
