; ModuleID = '../../components/payments/core/payment_shipping_option.cc'
source_filename = "../../components/payments/core/payment_shipping_option.cc"
target datalayout = "e-m:e-i64:64-f80:128-n8:16:32:64-S128"
target triple = "x86_64-unknown-linux-gnu"

module asm ".symver exp, exp@GLIBC_2.2.5"
module asm ".symver exp2, exp2@GLIBC_2.2.5"
module asm ".symver exp2f, exp2f@GLIBC_2.2.5"
module asm ".symver expf, expf@GLIBC_2.2.5"
module asm ".symver lgamma, lgamma@GLIBC_2.2.5"
module asm ".symver lgammaf, lgammaf@GLIBC_2.2.5"
module asm ".symver lgammal, lgammal@GLIBC_2.2.5"
module asm ".symver log, log@GLIBC_2.2.5"
module asm ".symver log2, log2@GLIBC_2.2.5"
module asm ".symver log2f, log2f@GLIBC_2.2.5"
module asm ".symver logf, logf@GLIBC_2.2.5"
module asm ".symver pow, pow@GLIBC_2.2.5"
module asm ".symver powf, powf@GLIBC_2.2.5"

%"class.payments::PaymentShippingOption" = type <{ %"class.std::__1::basic_string", %"class.std::__1::basic_string", %"class.mojo::InlinedStructPtr", i8, [7 x i8] }>
%"class.std::__1::basic_string" = type { %"class.std::__1::__compressed_pair" }
%"class.std::__1::__compressed_pair" = type { %"struct.std::__1::__compressed_pair_elem" }
%"struct.std::__1::__compressed_pair_elem" = type { %"struct.std::__1::basic_string<char, std::__1::char_traits<char>, std::__1::allocator<char> >::__rep" }
%"struct.std::__1::basic_string<char, std::__1::char_traits<char>, std::__1::allocator<char> >::__rep" = type { %union.anon }
%union.anon = type { %"struct.std::__1::basic_string<char, std::__1::char_traits<char>, std::__1::allocator<char> >::__long" }
%"struct.std::__1::basic_string<char, std::__1::char_traits<char>, std::__1::allocator<char> >::__long" = type { i8*, i64, i64 }
%"class.mojo::InlinedStructPtr" = type <{ %"class.payments::mojom::PaymentCurrencyAmount", i32, [4 x i8] }>
%"class.payments::mojom::PaymentCurrencyAmount" = type { %"class.std::__1::basic_string", %"class.std::__1::basic_string" }
%"struct.std::__1::basic_string<char, std::__1::char_traits<char>, std::__1::allocator<char> >::__short" = type { [23 x i8], %struct.anon }
%struct.anon = type { i8 }
%"class.base::DictionaryValue" = type { %"class.base::Value" }
%"class.base::Value" = type { %"class.absl::variant" }
%"class.absl::variant" = type { %"class.absl::variant_internal::VariantCopyAssignBaseNontrivial" }
%"class.absl::variant_internal::VariantCopyAssignBaseNontrivial" = type { %"class.absl::variant_internal::VariantMoveAssignBaseNontrivial" }
%"class.absl::variant_internal::VariantMoveAssignBaseNontrivial" = type { %"class.absl::variant_internal::VariantCopyBaseNontrivial" }
%"class.absl::variant_internal::VariantCopyBaseNontrivial" = type { %"class.absl::variant_internal::VariantMoveBaseNontrivial" }
%"class.absl::variant_internal::VariantMoveBaseNontrivial" = type { %"class.absl::variant_internal::VariantStateBaseDestructorNontrivial" }
%"class.absl::variant_internal::VariantStateBaseDestructorNontrivial" = type { %"class.absl::variant_internal::VariantStateBase" }
%"class.absl::variant_internal::VariantStateBase" = type { %"union.absl::variant_internal::DestructibleUnionImpl", i64 }
%"union.absl::variant_internal::DestructibleUnionImpl" = type { %"union.absl::variant_internal::DestructibleUnionImpl.1" }
%"union.absl::variant_internal::DestructibleUnionImpl.1" = type { %"union.absl::variant_internal::DestructibleUnionImpl.2" }
%"union.absl::variant_internal::DestructibleUnionImpl.2" = type { %"union.absl::variant_internal::DestructibleUnionImpl.3" }
%"union.absl::variant_internal::DestructibleUnionImpl.3" = type { %"union.absl::variant_internal::DestructibleUnionImpl.4" }
%"union.absl::variant_internal::DestructibleUnionImpl.4" = type { %"class.std::__1::basic_string" }

$_ZNSt3__14swapIN8payments5mojom21PaymentCurrencyAmountEEENS_9enable_ifIXaasr21is_move_constructibleIT_EE5valuesr18is_move_assignableIS5_EE5valueEvE4typeERS5_S8_ = comdat any

$_ZNK8payments5mojom21PaymentCurrencyAmount6EqualsIS1_LPv0EEEbRKT_ = comdat any

$_ZNK8payments5mojom21PaymentCurrencyAmount5CloneIN4mojo16InlinedStructPtrIS1_EEEES5_v = comdat any

@_ZN8payments12_GLOBAL__N_124kPaymentShippingOptionIdE = internal constant [3 x i8] c"id\00", align 1
@_ZN8payments12_GLOBAL__N_127kPaymentShippingOptionLabelE = internal constant [6 x i8] c"label\00", align 1
@_ZN8payments12_GLOBAL__N_128kPaymentShippingOptionAmountE = internal constant [7 x i8] c"amount\00", align 1
@_ZN8payments12_GLOBAL__N_130kPaymentShippingOptionSelectedE = internal constant [9 x i8] c"selected\00", align 1

@_ZN8payments21PaymentShippingOptionC1Ev = hidden unnamed_addr alias void (%"class.payments::PaymentShippingOption"*), void (%"class.payments::PaymentShippingOption"*)* @_ZN8payments21PaymentShippingOptionC2Ev
@_ZN8payments21PaymentShippingOptionC1ERKS0_ = hidden unnamed_addr alias void (%"class.payments::PaymentShippingOption"*, %"class.payments::PaymentShippingOption"*), void (%"class.payments::PaymentShippingOption"*, %"class.payments::PaymentShippingOption"*)* @_ZN8payments21PaymentShippingOptionC2ERKS0_
@_ZN8payments21PaymentShippingOptionD1Ev = hidden unnamed_addr alias void (%"class.payments::PaymentShippingOption"*), void (%"class.payments::PaymentShippingOption"*)* @_ZN8payments21PaymentShippingOptionD2Ev

; Function Attrs: nounwind ssp uwtable
define hidden void @_ZN8payments21PaymentShippingOptionC2Ev(%"class.payments::PaymentShippingOption"*) unnamed_addr #0 align 2 {
  %2 = alloca %"class.mojo::InlinedStructPtr", align 8
  %3 = getelementptr inbounds %"class.payments::PaymentShippingOption", %"class.payments::PaymentShippingOption"* %0, i64 0, i32 2, i32 0
  %4 = bitcast %"class.payments::PaymentShippingOption"* %0 to i8*
  call void @llvm.memset.p0i8.i64(i8* align 8 %4, i8 0, i64 48, i1 false)
  tail call void @_ZN8payments5mojom21PaymentCurrencyAmountC1Ev(%"class.payments::mojom::PaymentCurrencyAmount"* %3) #7
  %5 = getelementptr inbounds %"class.payments::PaymentShippingOption", %"class.payments::PaymentShippingOption"* %0, i64 0, i32 2, i32 1
  store i32 0, i32* %5, align 8
  %6 = getelementptr inbounds %"class.payments::PaymentShippingOption", %"class.payments::PaymentShippingOption"* %0, i64 0, i32 3
  store i8 0, i8* %6, align 8
  %7 = bitcast %"class.mojo::InlinedStructPtr"* %2 to i8*
  call void @llvm.lifetime.start.p0i8(i64 56, i8* nonnull %7) #7
  %8 = getelementptr inbounds %"class.mojo::InlinedStructPtr", %"class.mojo::InlinedStructPtr"* %2, i64 0, i32 0
  call void @_ZN8payments5mojom21PaymentCurrencyAmountC1Ev(%"class.payments::mojom::PaymentCurrencyAmount"* nonnull %8) #7
  %9 = getelementptr inbounds %"class.mojo::InlinedStructPtr", %"class.mojo::InlinedStructPtr"* %2, i64 0, i32 1
  store i32 1, i32* %9, align 8, !alias.scope !2
  store i32 0, i32* %5, align 8
  call void @_ZN8payments5mojom21PaymentCurrencyAmountD1Ev(%"class.payments::mojom::PaymentCurrencyAmount"* %3) #7
  call void @_ZN8payments5mojom21PaymentCurrencyAmountC1Ev(%"class.payments::mojom::PaymentCurrencyAmount"* %3) #7
  call void @_ZNSt3__14swapIN8payments5mojom21PaymentCurrencyAmountEEENS_9enable_ifIXaasr21is_move_constructibleIT_EE5valuesr18is_move_assignableIS5_EE5valueEvE4typeERS5_S8_(%"class.payments::mojom::PaymentCurrencyAmount"* dereferenceable(48) %3, %"class.payments::mojom::PaymentCurrencyAmount"* nonnull dereferenceable(48) %8) #7
  %10 = load i32, i32* %5, align 4
  %11 = load i32, i32* %9, align 8
  store i32 %11, i32* %5, align 4
  store i32 %10, i32* %9, align 8
  call void @_ZN8payments5mojom21PaymentCurrencyAmountD1Ev(%"class.payments::mojom::PaymentCurrencyAmount"* nonnull %8) #7
  call void @llvm.lifetime.end.p0i8(i64 56, i8* nonnull %7) #7
  ret void
}

; Function Attrs: argmemonly nounwind
declare void @llvm.lifetime.start.p0i8(i64 immarg, i8* nocapture) #1

; Function Attrs: argmemonly nounwind
declare void @llvm.lifetime.end.p0i8(i64 immarg, i8* nocapture) #1

; Function Attrs: nounwind ssp uwtable
define hidden void @_ZN8payments21PaymentShippingOptionC2ERKS0_(%"class.payments::PaymentShippingOption"*, %"class.payments::PaymentShippingOption"* dereferenceable(112)) unnamed_addr #0 align 2 {
  %3 = getelementptr inbounds %"class.payments::PaymentShippingOption", %"class.payments::PaymentShippingOption"* %0, i64 0, i32 2, i32 0
  %4 = bitcast %"class.payments::PaymentShippingOption"* %0 to i8*
  call void @llvm.memset.p0i8.i64(i8* align 8 %4, i8 0, i64 48, i1 false)
  tail call void @_ZN8payments5mojom21PaymentCurrencyAmountC1Ev(%"class.payments::mojom::PaymentCurrencyAmount"* %3) #7
  %5 = getelementptr inbounds %"class.payments::PaymentShippingOption", %"class.payments::PaymentShippingOption"* %0, i64 0, i32 2, i32 1
  store i32 0, i32* %5, align 8
  %6 = tail call dereferenceable(112) %"class.payments::PaymentShippingOption"* @_ZN8payments21PaymentShippingOptionaSERKS0_(%"class.payments::PaymentShippingOption"* %0, %"class.payments::PaymentShippingOption"* dereferenceable(112) %1)
  ret void
}

; Function Attrs: nounwind ssp uwtable
define hidden dereferenceable(112) %"class.payments::PaymentShippingOption"* @_ZN8payments21PaymentShippingOptionaSERKS0_(%"class.payments::PaymentShippingOption"* returned, %"class.payments::PaymentShippingOption"* dereferenceable(112)) local_unnamed_addr #0 align 2 {
  %3 = alloca %"class.mojo::InlinedStructPtr", align 8
  %4 = getelementptr inbounds %"class.payments::PaymentShippingOption", %"class.payments::PaymentShippingOption"* %0, i64 0, i32 0
  %5 = icmp eq %"class.payments::PaymentShippingOption"* %0, %1
  br i1 %5, label %66, label %6

6:                                                ; preds = %2
  %7 = bitcast %"class.payments::PaymentShippingOption"* %0 to %"struct.std::__1::basic_string<char, std::__1::char_traits<char>, std::__1::allocator<char> >::__short"*
  %8 = getelementptr inbounds %"struct.std::__1::basic_string<char, std::__1::char_traits<char>, std::__1::allocator<char> >::__short", %"struct.std::__1::basic_string<char, std::__1::char_traits<char>, std::__1::allocator<char> >::__short"* %7, i64 0, i32 1, i32 0
  %9 = load i8, i8* %8, align 1
  %10 = icmp slt i8 %9, 0
  %11 = bitcast %"class.payments::PaymentShippingOption"* %1 to %"struct.std::__1::basic_string<char, std::__1::char_traits<char>, std::__1::allocator<char> >::__short"*
  %12 = getelementptr inbounds %"struct.std::__1::basic_string<char, std::__1::char_traits<char>, std::__1::allocator<char> >::__short", %"struct.std::__1::basic_string<char, std::__1::char_traits<char>, std::__1::allocator<char> >::__short"* %11, i64 0, i32 1, i32 0
  %13 = load i8, i8* %12, align 1
  %14 = icmp slt i8 %13, 0
  br i1 %10, label %25, label %15

15:                                               ; preds = %6
  br i1 %14, label %19, label %16

16:                                               ; preds = %15
  %17 = bitcast %"class.payments::PaymentShippingOption"* %0 to i8*
  %18 = bitcast %"class.payments::PaymentShippingOption"* %1 to i8*
  tail call void @llvm.memcpy.p0i8.p0i8.i64(i8* align 8 %17, i8* align 8 %18, i64 24, i1 false) #7
  br label %35

19:                                               ; preds = %15
  %20 = getelementptr inbounds %"class.payments::PaymentShippingOption", %"class.payments::PaymentShippingOption"* %1, i64 0, i32 0, i32 0, i32 0, i32 0, i32 0, i32 0, i32 0
  %21 = load i8*, i8** %20, align 8
  %22 = getelementptr inbounds %"class.payments::PaymentShippingOption", %"class.payments::PaymentShippingOption"* %1, i64 0, i32 0, i32 0, i32 0, i32 0, i32 0, i32 0, i32 1
  %23 = load i64, i64* %22, align 8
  %24 = tail call dereferenceable(24) %"class.std::__1::basic_string"* @_ZNSt3__112basic_stringIcNS_11char_traitsIcEENS_9allocatorIcEEE17__assign_no_aliasILb1EEERS5_PKcm(%"class.std::__1::basic_string"* %4, i8* %21, i64 %23) #7
  br label %35

25:                                               ; preds = %6
  %26 = getelementptr inbounds %"class.payments::PaymentShippingOption", %"class.payments::PaymentShippingOption"* %1, i64 0, i32 0, i32 0, i32 0, i32 0, i32 0, i32 0, i32 0
  %27 = load i8*, i8** %26, align 8
  %28 = getelementptr inbounds %"class.payments::PaymentShippingOption", %"class.payments::PaymentShippingOption"* %1, i64 0, i32 0, i32 0, i32 0, i32 0, i32 0, i32 0, i32 1
  %29 = load i64, i64* %28, align 8
  %30 = bitcast %"class.payments::PaymentShippingOption"* %1 to i8*
  %31 = zext i8 %13 to i64
  %32 = select i1 %14, i8* %27, i8* %30
  %33 = select i1 %14, i64 %29, i64 %31
  %34 = tail call dereferenceable(24) %"class.std::__1::basic_string"* @_ZNSt3__112basic_stringIcNS_11char_traitsIcEENS_9allocatorIcEEE17__assign_no_aliasILb0EEERS5_PKcm(%"class.std::__1::basic_string"* %4, i8* %32, i64 %33) #7
  br label %35

35:                                               ; preds = %16, %19, %25
  %36 = getelementptr inbounds %"class.payments::PaymentShippingOption", %"class.payments::PaymentShippingOption"* %1, i64 0, i32 1
  %37 = getelementptr inbounds %"class.payments::PaymentShippingOption", %"class.payments::PaymentShippingOption"* %0, i64 0, i32 1
  %38 = bitcast %"class.std::__1::basic_string"* %37 to %"struct.std::__1::basic_string<char, std::__1::char_traits<char>, std::__1::allocator<char> >::__short"*
  %39 = getelementptr inbounds %"struct.std::__1::basic_string<char, std::__1::char_traits<char>, std::__1::allocator<char> >::__short", %"struct.std::__1::basic_string<char, std::__1::char_traits<char>, std::__1::allocator<char> >::__short"* %38, i64 0, i32 1, i32 0
  %40 = load i8, i8* %39, align 1
  %41 = icmp slt i8 %40, 0
  %42 = bitcast %"class.std::__1::basic_string"* %36 to %"struct.std::__1::basic_string<char, std::__1::char_traits<char>, std::__1::allocator<char> >::__short"*
  %43 = getelementptr inbounds %"struct.std::__1::basic_string<char, std::__1::char_traits<char>, std::__1::allocator<char> >::__short", %"struct.std::__1::basic_string<char, std::__1::char_traits<char>, std::__1::allocator<char> >::__short"* %42, i64 0, i32 1, i32 0
  %44 = load i8, i8* %43, align 1
  %45 = icmp slt i8 %44, 0
  br i1 %41, label %56, label %46

46:                                               ; preds = %35
  br i1 %45, label %50, label %47

47:                                               ; preds = %46
  %48 = bitcast %"class.std::__1::basic_string"* %37 to i8*
  %49 = bitcast %"class.std::__1::basic_string"* %36 to i8*
  tail call void @llvm.memcpy.p0i8.p0i8.i64(i8* align 8 %48, i8* align 8 %49, i64 24, i1 false) #7
  br label %66

50:                                               ; preds = %46
  %51 = getelementptr inbounds %"class.std::__1::basic_string", %"class.std::__1::basic_string"* %36, i64 0, i32 0, i32 0, i32 0, i32 0, i32 0, i32 0
  %52 = load i8*, i8** %51, align 8
  %53 = getelementptr inbounds %"class.payments::PaymentShippingOption", %"class.payments::PaymentShippingOption"* %1, i64 0, i32 1, i32 0, i32 0, i32 0, i32 0, i32 0, i32 1
  %54 = load i64, i64* %53, align 8
  %55 = tail call dereferenceable(24) %"class.std::__1::basic_string"* @_ZNSt3__112basic_stringIcNS_11char_traitsIcEENS_9allocatorIcEEE17__assign_no_aliasILb1EEERS5_PKcm(%"class.std::__1::basic_string"* %37, i8* %52, i64 %54) #7
  br label %66

56:                                               ; preds = %35
  %57 = getelementptr inbounds %"class.std::__1::basic_string", %"class.std::__1::basic_string"* %36, i64 0, i32 0, i32 0, i32 0, i32 0, i32 0, i32 0
  %58 = load i8*, i8** %57, align 8
  %59 = getelementptr inbounds %"class.payments::PaymentShippingOption", %"class.payments::PaymentShippingOption"* %1, i64 0, i32 1, i32 0, i32 0, i32 0, i32 0, i32 0, i32 1
  %60 = load i64, i64* %59, align 8
  %61 = bitcast %"class.std::__1::basic_string"* %36 to i8*
  %62 = zext i8 %44 to i64
  %63 = select i1 %45, i8* %58, i8* %61
  %64 = select i1 %45, i64 %60, i64 %62
  %65 = tail call dereferenceable(24) %"class.std::__1::basic_string"* @_ZNSt3__112basic_stringIcNS_11char_traitsIcEENS_9allocatorIcEEE17__assign_no_aliasILb0EEERS5_PKcm(%"class.std::__1::basic_string"* %37, i8* %63, i64 %64) #7
  br label %66

66:                                               ; preds = %2, %47, %50, %56
  %67 = getelementptr inbounds %"class.payments::PaymentShippingOption", %"class.payments::PaymentShippingOption"* %1, i64 0, i32 2, i32 1
  %68 = load i32, i32* %67, align 8
  %69 = icmp eq i32 %68, 0
  br i1 %69, label %79, label %70

70:                                               ; preds = %66
  %71 = bitcast %"class.mojo::InlinedStructPtr"* %3 to i8*
  call void @llvm.lifetime.start.p0i8(i64 56, i8* nonnull %71) #7
  %72 = getelementptr inbounds %"class.payments::PaymentShippingOption", %"class.payments::PaymentShippingOption"* %1, i64 0, i32 2, i32 0
  call void @_ZNK8payments5mojom21PaymentCurrencyAmount5CloneIN4mojo16InlinedStructPtrIS1_EEEES5_v(%"class.mojo::InlinedStructPtr"* nonnull sret %3, %"class.payments::mojom::PaymentCurrencyAmount"* %72) #7
  %73 = getelementptr inbounds %"class.payments::PaymentShippingOption", %"class.payments::PaymentShippingOption"* %0, i64 0, i32 2, i32 1
  store i32 0, i32* %73, align 8
  %74 = getelementptr inbounds %"class.payments::PaymentShippingOption", %"class.payments::PaymentShippingOption"* %0, i64 0, i32 2, i32 0
  call void @_ZN8payments5mojom21PaymentCurrencyAmountD1Ev(%"class.payments::mojom::PaymentCurrencyAmount"* %74) #7
  call void @_ZN8payments5mojom21PaymentCurrencyAmountC1Ev(%"class.payments::mojom::PaymentCurrencyAmount"* %74) #7
  %75 = getelementptr inbounds %"class.mojo::InlinedStructPtr", %"class.mojo::InlinedStructPtr"* %3, i64 0, i32 0
  call void @_ZNSt3__14swapIN8payments5mojom21PaymentCurrencyAmountEEENS_9enable_ifIXaasr21is_move_constructibleIT_EE5valuesr18is_move_assignableIS5_EE5valueEvE4typeERS5_S8_(%"class.payments::mojom::PaymentCurrencyAmount"* dereferenceable(48) %74, %"class.payments::mojom::PaymentCurrencyAmount"* nonnull dereferenceable(48) %75) #7
  %76 = getelementptr inbounds %"class.mojo::InlinedStructPtr", %"class.mojo::InlinedStructPtr"* %3, i64 0, i32 1
  %77 = load i32, i32* %73, align 4
  %78 = load i32, i32* %76, align 8
  store i32 %78, i32* %73, align 4
  store i32 %77, i32* %76, align 8
  call void @_ZN8payments5mojom21PaymentCurrencyAmountD1Ev(%"class.payments::mojom::PaymentCurrencyAmount"* nonnull %75) #7
  call void @llvm.lifetime.end.p0i8(i64 56, i8* nonnull %71) #7
  br label %82

79:                                               ; preds = %66
  %80 = getelementptr inbounds %"class.payments::PaymentShippingOption", %"class.payments::PaymentShippingOption"* %0, i64 0, i32 2, i32 1
  store i32 0, i32* %80, align 8
  %81 = getelementptr inbounds %"class.payments::PaymentShippingOption", %"class.payments::PaymentShippingOption"* %0, i64 0, i32 2, i32 0
  tail call void @_ZN8payments5mojom21PaymentCurrencyAmountD1Ev(%"class.payments::mojom::PaymentCurrencyAmount"* %81) #7
  tail call void @_ZN8payments5mojom21PaymentCurrencyAmountC1Ev(%"class.payments::mojom::PaymentCurrencyAmount"* %81) #7
  br label %82

82:                                               ; preds = %79, %70
  %83 = getelementptr inbounds %"class.payments::PaymentShippingOption", %"class.payments::PaymentShippingOption"* %1, i64 0, i32 3
  %84 = load i8, i8* %83, align 8, !range !5
  %85 = getelementptr inbounds %"class.payments::PaymentShippingOption", %"class.payments::PaymentShippingOption"* %0, i64 0, i32 3
  store i8 %84, i8* %85, align 8
  ret %"class.payments::PaymentShippingOption"* %0
}

; Function Attrs: nounwind ssp uwtable
define hidden void @_ZN8payments21PaymentShippingOptionD2Ev(%"class.payments::PaymentShippingOption"*) unnamed_addr #0 align 2 {
  %2 = getelementptr inbounds %"class.payments::PaymentShippingOption", %"class.payments::PaymentShippingOption"* %0, i64 0, i32 2, i32 0
  tail call void @_ZN8payments5mojom21PaymentCurrencyAmountD1Ev(%"class.payments::mojom::PaymentCurrencyAmount"* %2) #7
  %3 = getelementptr inbounds %"class.payments::PaymentShippingOption", %"class.payments::PaymentShippingOption"* %0, i64 0, i32 1
  %4 = bitcast %"class.std::__1::basic_string"* %3 to %"struct.std::__1::basic_string<char, std::__1::char_traits<char>, std::__1::allocator<char> >::__short"*
  %5 = getelementptr inbounds %"struct.std::__1::basic_string<char, std::__1::char_traits<char>, std::__1::allocator<char> >::__short", %"struct.std::__1::basic_string<char, std::__1::char_traits<char>, std::__1::allocator<char> >::__short"* %4, i64 0, i32 1, i32 0
  %6 = load i8, i8* %5, align 1
  %7 = icmp slt i8 %6, 0
  br i1 %7, label %8, label %11

8:                                                ; preds = %1
  %9 = getelementptr inbounds %"class.std::__1::basic_string", %"class.std::__1::basic_string"* %3, i64 0, i32 0, i32 0, i32 0, i32 0, i32 0, i32 0
  %10 = load i8*, i8** %9, align 8
  tail call void @_ZdlPv(i8* %10) #8
  br label %11

11:                                               ; preds = %1, %8
  %12 = bitcast %"class.payments::PaymentShippingOption"* %0 to %"struct.std::__1::basic_string<char, std::__1::char_traits<char>, std::__1::allocator<char> >::__short"*
  %13 = getelementptr inbounds %"struct.std::__1::basic_string<char, std::__1::char_traits<char>, std::__1::allocator<char> >::__short", %"struct.std::__1::basic_string<char, std::__1::char_traits<char>, std::__1::allocator<char> >::__short"* %12, i64 0, i32 1, i32 0
  %14 = load i8, i8* %13, align 1
  %15 = icmp slt i8 %14, 0
  br i1 %15, label %16, label %19

16:                                               ; preds = %11
  %17 = getelementptr inbounds %"class.payments::PaymentShippingOption", %"class.payments::PaymentShippingOption"* %0, i64 0, i32 0, i32 0, i32 0, i32 0, i32 0, i32 0, i32 0
  %18 = load i8*, i8** %17, align 8
  tail call void @_ZdlPv(i8* %18) #8
  br label %19

19:                                               ; preds = %11, %16
  ret void
}

; Function Attrs: nounwind ssp uwtable
define hidden zeroext i1 @_ZNK8payments21PaymentShippingOptioneqERKS0_(%"class.payments::PaymentShippingOption"*, %"class.payments::PaymentShippingOption"* dereferenceable(112)) local_unnamed_addr #0 align 2 {
  %3 = bitcast %"class.payments::PaymentShippingOption"* %0 to %"struct.std::__1::basic_string<char, std::__1::char_traits<char>, std::__1::allocator<char> >::__short"*
  %4 = getelementptr inbounds %"struct.std::__1::basic_string<char, std::__1::char_traits<char>, std::__1::allocator<char> >::__short", %"struct.std::__1::basic_string<char, std::__1::char_traits<char>, std::__1::allocator<char> >::__short"* %3, i64 0, i32 1, i32 0
  %5 = load i8, i8* %4, align 1
  %6 = icmp slt i8 %5, 0
  %7 = getelementptr inbounds %"class.payments::PaymentShippingOption", %"class.payments::PaymentShippingOption"* %0, i64 0, i32 0, i32 0, i32 0, i32 0, i32 0, i32 0, i32 1
  %8 = load i64, i64* %7, align 8
  %9 = zext i8 %5 to i64
  %10 = select i1 %6, i64 %8, i64 %9
  %11 = bitcast %"class.payments::PaymentShippingOption"* %1 to %"struct.std::__1::basic_string<char, std::__1::char_traits<char>, std::__1::allocator<char> >::__short"*
  %12 = getelementptr inbounds %"struct.std::__1::basic_string<char, std::__1::char_traits<char>, std::__1::allocator<char> >::__short", %"struct.std::__1::basic_string<char, std::__1::char_traits<char>, std::__1::allocator<char> >::__short"* %11, i64 0, i32 1, i32 0
  %13 = load i8, i8* %12, align 1
  %14 = icmp slt i8 %13, 0
  %15 = getelementptr inbounds %"class.payments::PaymentShippingOption", %"class.payments::PaymentShippingOption"* %1, i64 0, i32 0, i32 0, i32 0, i32 0, i32 0, i32 0, i32 1
  %16 = load i64, i64* %15, align 8
  %17 = zext i8 %13 to i64
  %18 = select i1 %14, i64 %16, i64 %17
  %19 = icmp eq i64 %10, %18
  br i1 %19, label %20, label %125

20:                                               ; preds = %2
  %21 = getelementptr inbounds %"class.payments::PaymentShippingOption", %"class.payments::PaymentShippingOption"* %0, i64 0, i32 0, i32 0, i32 0, i32 0, i32 0, i32 0, i32 0
  %22 = load i8*, i8** %21, align 8
  %23 = bitcast %"class.payments::PaymentShippingOption"* %0 to i8*
  %24 = select i1 %6, i8* %22, i8* %23
  %25 = getelementptr inbounds %"class.payments::PaymentShippingOption", %"class.payments::PaymentShippingOption"* %1, i64 0, i32 0, i32 0, i32 0, i32 0, i32 0, i32 0, i32 0
  %26 = load i8*, i8** %25, align 8
  %27 = bitcast %"class.payments::PaymentShippingOption"* %1 to i8*
  %28 = select i1 %14, i8* %26, i8* %27
  %29 = icmp eq i64 %10, 0
  br i1 %6, label %36, label %30

30:                                               ; preds = %20
  br i1 %29, label %52, label %31

31:                                               ; preds = %30
  %32 = ptrtoint i8* %22 to i64
  %33 = trunc i64 %32 to i8
  %34 = load i8, i8* %28, align 1
  %35 = icmp eq i8 %34, %33
  br i1 %35, label %37, label %125

36:                                               ; preds = %20
  br i1 %29, label %52, label %49

37:                                               ; preds = %31, %44
  %38 = phi i64 [ %41, %44 ], [ %9, %31 ]
  %39 = phi i8* [ %42, %44 ], [ %23, %31 ]
  %40 = phi i8* [ %45, %44 ], [ %28, %31 ]
  %41 = add i64 %38, -1
  %42 = getelementptr inbounds i8, i8* %39, i64 1
  %43 = icmp eq i64 %41, 0
  br i1 %43, label %52, label %44

44:                                               ; preds = %37
  %45 = getelementptr inbounds i8, i8* %40, i64 1
  %46 = load i8, i8* %42, align 1
  %47 = load i8, i8* %45, align 1
  %48 = icmp eq i8 %46, %47
  br i1 %48, label %37, label %125

49:                                               ; preds = %36
  %50 = tail call i32 @bcmp(i8* %24, i8* %28, i64 %10) #7
  %51 = icmp eq i32 %50, 0
  br i1 %51, label %52, label %125

52:                                               ; preds = %37, %30, %36, %49
  %53 = getelementptr inbounds %"class.payments::PaymentShippingOption", %"class.payments::PaymentShippingOption"* %0, i64 0, i32 1
  %54 = getelementptr inbounds %"class.payments::PaymentShippingOption", %"class.payments::PaymentShippingOption"* %1, i64 0, i32 1
  %55 = bitcast %"class.std::__1::basic_string"* %53 to %"struct.std::__1::basic_string<char, std::__1::char_traits<char>, std::__1::allocator<char> >::__short"*
  %56 = getelementptr inbounds %"struct.std::__1::basic_string<char, std::__1::char_traits<char>, std::__1::allocator<char> >::__short", %"struct.std::__1::basic_string<char, std::__1::char_traits<char>, std::__1::allocator<char> >::__short"* %55, i64 0, i32 1, i32 0
  %57 = load i8, i8* %56, align 1
  %58 = icmp slt i8 %57, 0
  %59 = getelementptr inbounds %"class.payments::PaymentShippingOption", %"class.payments::PaymentShippingOption"* %0, i64 0, i32 1, i32 0, i32 0, i32 0, i32 0, i32 0, i32 1
  %60 = load i64, i64* %59, align 8
  %61 = zext i8 %57 to i64
  %62 = select i1 %58, i64 %60, i64 %61
  %63 = bitcast %"class.std::__1::basic_string"* %54 to %"struct.std::__1::basic_string<char, std::__1::char_traits<char>, std::__1::allocator<char> >::__short"*
  %64 = getelementptr inbounds %"struct.std::__1::basic_string<char, std::__1::char_traits<char>, std::__1::allocator<char> >::__short", %"struct.std::__1::basic_string<char, std::__1::char_traits<char>, std::__1::allocator<char> >::__short"* %63, i64 0, i32 1, i32 0
  %65 = load i8, i8* %64, align 1
  %66 = icmp slt i8 %65, 0
  %67 = getelementptr inbounds %"class.payments::PaymentShippingOption", %"class.payments::PaymentShippingOption"* %1, i64 0, i32 1, i32 0, i32 0, i32 0, i32 0, i32 0, i32 1
  %68 = load i64, i64* %67, align 8
  %69 = zext i8 %65 to i64
  %70 = select i1 %66, i64 %68, i64 %69
  %71 = icmp eq i64 %62, %70
  br i1 %71, label %72, label %125

72:                                               ; preds = %52
  %73 = getelementptr inbounds %"class.std::__1::basic_string", %"class.std::__1::basic_string"* %53, i64 0, i32 0, i32 0, i32 0, i32 0, i32 0, i32 0
  %74 = load i8*, i8** %73, align 8
  %75 = bitcast %"class.std::__1::basic_string"* %53 to i8*
  %76 = select i1 %58, i8* %74, i8* %75
  %77 = getelementptr inbounds %"class.std::__1::basic_string", %"class.std::__1::basic_string"* %54, i64 0, i32 0, i32 0, i32 0, i32 0, i32 0, i32 0
  %78 = load i8*, i8** %77, align 8
  %79 = bitcast %"class.std::__1::basic_string"* %54 to i8*
  %80 = select i1 %66, i8* %78, i8* %79
  %81 = icmp eq i64 %62, 0
  br i1 %58, label %88, label %82

82:                                               ; preds = %72
  br i1 %81, label %104, label %83

83:                                               ; preds = %82
  %84 = ptrtoint i8* %74 to i64
  %85 = trunc i64 %84 to i8
  %86 = load i8, i8* %80, align 1
  %87 = icmp eq i8 %86, %85
  br i1 %87, label %89, label %125

88:                                               ; preds = %72
  br i1 %81, label %104, label %101

89:                                               ; preds = %83, %96
  %90 = phi i64 [ %93, %96 ], [ %61, %83 ]
  %91 = phi i8* [ %94, %96 ], [ %75, %83 ]
  %92 = phi i8* [ %97, %96 ], [ %80, %83 ]
  %93 = add i64 %90, -1
  %94 = getelementptr inbounds i8, i8* %91, i64 1
  %95 = icmp eq i64 %93, 0
  br i1 %95, label %104, label %96

96:                                               ; preds = %89
  %97 = getelementptr inbounds i8, i8* %92, i64 1
  %98 = load i8, i8* %94, align 1
  %99 = load i8, i8* %97, align 1
  %100 = icmp eq i8 %98, %99
  br i1 %100, label %89, label %125

101:                                              ; preds = %88
  %102 = tail call i32 @bcmp(i8* %76, i8* %80, i64 %62) #7
  %103 = icmp eq i32 %102, 0
  br i1 %103, label %104, label %125

104:                                              ; preds = %89, %82, %88, %101
  %105 = getelementptr inbounds %"class.payments::PaymentShippingOption", %"class.payments::PaymentShippingOption"* %0, i64 0, i32 2, i32 1
  %106 = load i32, i32* %105, align 8
  %107 = icmp eq i32 %106, 0
  %108 = getelementptr inbounds %"class.payments::PaymentShippingOption", %"class.payments::PaymentShippingOption"* %1, i64 0, i32 2, i32 1
  %109 = load i32, i32* %108, align 8
  %110 = icmp eq i32 %109, 0
  %111 = or i1 %107, %110
  br i1 %111, label %116, label %112

112:                                              ; preds = %104
  %113 = getelementptr inbounds %"class.payments::PaymentShippingOption", %"class.payments::PaymentShippingOption"* %0, i64 0, i32 2, i32 0
  %114 = getelementptr inbounds %"class.payments::PaymentShippingOption", %"class.payments::PaymentShippingOption"* %1, i64 0, i32 2, i32 0
  %115 = tail call zeroext i1 @_ZNK8payments5mojom21PaymentCurrencyAmount6EqualsIS1_LPv0EEEbRKT_(%"class.payments::mojom::PaymentCurrencyAmount"* %113, %"class.payments::mojom::PaymentCurrencyAmount"* dereferenceable(48) %114) #7
  br i1 %115, label %119, label %125

116:                                              ; preds = %104
  %117 = or i32 %109, %106
  %118 = icmp eq i32 %117, 0
  br i1 %118, label %119, label %125

119:                                              ; preds = %112, %116
  %120 = getelementptr inbounds %"class.payments::PaymentShippingOption", %"class.payments::PaymentShippingOption"* %0, i64 0, i32 3
  %121 = load i8, i8* %120, align 8, !range !5
  %122 = getelementptr inbounds %"class.payments::PaymentShippingOption", %"class.payments::PaymentShippingOption"* %1, i64 0, i32 3
  %123 = load i8, i8* %122, align 8, !range !5
  %124 = icmp eq i8 %121, %123
  br label %125

125:                                              ; preds = %44, %96, %31, %83, %52, %2, %112, %119, %116, %101, %49
  %126 = phi i1 [ false, %116 ], [ false, %101 ], [ false, %49 ], [ %124, %119 ], [ false, %112 ], [ false, %2 ], [ false, %52 ], [ false, %83 ], [ false, %31 ], [ false, %96 ], [ false, %44 ]
  ret i1 %126
}

; Function Attrs: nounwind ssp uwtable
define hidden zeroext i1 @_ZNK8payments21PaymentShippingOptionneERKS0_(%"class.payments::PaymentShippingOption"*, %"class.payments::PaymentShippingOption"* dereferenceable(112)) local_unnamed_addr #0 align 2 {
  %3 = tail call zeroext i1 @_ZNK8payments21PaymentShippingOptioneqERKS0_(%"class.payments::PaymentShippingOption"* %0, %"class.payments::PaymentShippingOption"* dereferenceable(112) %1)
  %4 = xor i1 %3, true
  ret i1 %4
}

; Function Attrs: nounwind ssp uwtable
define hidden zeroext i1 @_ZN8payments21PaymentShippingOption19FromDictionaryValueERKN4base15DictionaryValueE(%"class.payments::PaymentShippingOption"*, %"class.base::DictionaryValue"* dereferenceable(32)) local_unnamed_addr #0 align 2 {
  %3 = alloca %"class.base::DictionaryValue"*, align 8
  %4 = alloca %"class.mojo::InlinedStructPtr", align 8
  %5 = getelementptr inbounds %"class.payments::PaymentShippingOption", %"class.payments::PaymentShippingOption"* %0, i64 0, i32 0
  %6 = tail call zeroext i1 @_ZNK4base15DictionaryValue9GetStringENS_16BasicStringPieceIcNSt3__111char_traitsIcEEEEPNS2_12basic_stringIcS4_NS2_9allocatorIcEEEE(%"class.base::DictionaryValue"* %1, i8* getelementptr inbounds ([3 x i8], [3 x i8]* @_ZN8payments12_GLOBAL__N_124kPaymentShippingOptionIdE, i64 0, i64 0), i64 2, %"class.std::__1::basic_string"* %5) #7
  br i1 %6, label %7, label %31

7:                                                ; preds = %2
  %8 = getelementptr inbounds %"class.payments::PaymentShippingOption", %"class.payments::PaymentShippingOption"* %0, i64 0, i32 1
  %9 = tail call zeroext i1 @_ZNK4base15DictionaryValue9GetStringENS_16BasicStringPieceIcNSt3__111char_traitsIcEEEEPNS2_12basic_stringIcS4_NS2_9allocatorIcEEEE(%"class.base::DictionaryValue"* %1, i8* getelementptr inbounds ([6 x i8], [6 x i8]* @_ZN8payments12_GLOBAL__N_127kPaymentShippingOptionLabelE, i64 0, i64 0), i64 5, %"class.std::__1::basic_string"* %8) #7
  br i1 %9, label %10, label %31

10:                                               ; preds = %7
  %11 = bitcast %"class.base::DictionaryValue"** %3 to i8*
  call void @llvm.lifetime.start.p0i8(i64 8, i8* nonnull %11) #7
  store %"class.base::DictionaryValue"* null, %"class.base::DictionaryValue"** %3, align 8
  %12 = call zeroext i1 @_ZNK4base15DictionaryValue13GetDictionaryENS_16BasicStringPieceIcNSt3__111char_traitsIcEEEEPPKS0_(%"class.base::DictionaryValue"* %1, i8* getelementptr inbounds ([7 x i8], [7 x i8]* @_ZN8payments12_GLOBAL__N_128kPaymentShippingOptionAmountE, i64 0, i64 0), i64 6, %"class.base::DictionaryValue"** nonnull %3) #7
  br i1 %12, label %13, label %29

13:                                               ; preds = %10
  %14 = bitcast %"class.mojo::InlinedStructPtr"* %4 to i8*
  call void @llvm.lifetime.start.p0i8(i64 56, i8* nonnull %14) #7
  %15 = getelementptr inbounds %"class.mojo::InlinedStructPtr", %"class.mojo::InlinedStructPtr"* %4, i64 0, i32 0
  call void @_ZN8payments5mojom21PaymentCurrencyAmountC1Ev(%"class.payments::mojom::PaymentCurrencyAmount"* nonnull %15) #7
  %16 = getelementptr inbounds %"class.mojo::InlinedStructPtr", %"class.mojo::InlinedStructPtr"* %4, i64 0, i32 1
  store i32 1, i32* %16, align 8, !alias.scope !6
  %17 = getelementptr inbounds %"class.payments::PaymentShippingOption", %"class.payments::PaymentShippingOption"* %0, i64 0, i32 2, i32 1
  store i32 0, i32* %17, align 8
  %18 = getelementptr inbounds %"class.payments::PaymentShippingOption", %"class.payments::PaymentShippingOption"* %0, i64 0, i32 2, i32 0
  call void @_ZN8payments5mojom21PaymentCurrencyAmountD1Ev(%"class.payments::mojom::PaymentCurrencyAmount"* %18) #7
  call void @_ZN8payments5mojom21PaymentCurrencyAmountC1Ev(%"class.payments::mojom::PaymentCurrencyAmount"* %18) #7
  call void @_ZNSt3__14swapIN8payments5mojom21PaymentCurrencyAmountEEENS_9enable_ifIXaasr21is_move_constructibleIT_EE5valuesr18is_move_assignableIS5_EE5valueEvE4typeERS5_S8_(%"class.payments::mojom::PaymentCurrencyAmount"* dereferenceable(48) %18, %"class.payments::mojom::PaymentCurrencyAmount"* nonnull dereferenceable(48) %15) #7
  %19 = load i32, i32* %17, align 4
  %20 = load i32, i32* %16, align 8
  store i32 %20, i32* %17, align 4
  store i32 %19, i32* %16, align 8
  call void @_ZN8payments5mojom21PaymentCurrencyAmountD1Ev(%"class.payments::mojom::PaymentCurrencyAmount"* nonnull %15) #7
  call void @llvm.lifetime.end.p0i8(i64 56, i8* nonnull %14) #7
  %21 = load %"class.base::DictionaryValue"*, %"class.base::DictionaryValue"** %3, align 8
  %22 = load i32, i32* %17, align 8
  %23 = icmp eq i32 %22, 0
  %24 = select i1 %23, %"class.payments::mojom::PaymentCurrencyAmount"* null, %"class.payments::mojom::PaymentCurrencyAmount"* %18
  %25 = call zeroext i1 @_ZN8payments40PaymentCurrencyAmountFromDictionaryValueERKN4base15DictionaryValueEPNS_5mojom21PaymentCurrencyAmountE(%"class.base::DictionaryValue"* dereferenceable(32) %21, %"class.payments::mojom::PaymentCurrencyAmount"* %24) #7
  br i1 %25, label %26, label %29

26:                                               ; preds = %13
  %27 = getelementptr inbounds %"class.payments::PaymentShippingOption", %"class.payments::PaymentShippingOption"* %0, i64 0, i32 3
  %28 = call zeroext i1 @_ZNK4base15DictionaryValue10GetBooleanENS_16BasicStringPieceIcNSt3__111char_traitsIcEEEEPb(%"class.base::DictionaryValue"* %1, i8* getelementptr inbounds ([9 x i8], [9 x i8]* @_ZN8payments12_GLOBAL__N_130kPaymentShippingOptionSelectedE, i64 0, i64 0), i64 8, i8* %27) #7
  br label %29

29:                                               ; preds = %13, %10, %26
  %30 = phi i1 [ true, %26 ], [ false, %10 ], [ false, %13 ]
  call void @llvm.lifetime.end.p0i8(i64 8, i8* nonnull %11) #7
  br label %31

31:                                               ; preds = %7, %2, %29
  %32 = phi i1 [ %30, %29 ], [ false, %2 ], [ false, %7 ]
  ret i1 %32
}

declare zeroext i1 @_ZNK4base15DictionaryValue9GetStringENS_16BasicStringPieceIcNSt3__111char_traitsIcEEEEPNS2_12basic_stringIcS4_NS2_9allocatorIcEEEE(%"class.base::DictionaryValue"*, i8*, i64, %"class.std::__1::basic_string"*) local_unnamed_addr #2

declare zeroext i1 @_ZNK4base15DictionaryValue13GetDictionaryENS_16BasicStringPieceIcNSt3__111char_traitsIcEEEEPPKS0_(%"class.base::DictionaryValue"*, i8*, i64, %"class.base::DictionaryValue"**) local_unnamed_addr #2

declare zeroext i1 @_ZN8payments40PaymentCurrencyAmountFromDictionaryValueERKN4base15DictionaryValueEPNS_5mojom21PaymentCurrencyAmountE(%"class.base::DictionaryValue"* dereferenceable(32), %"class.payments::mojom::PaymentCurrencyAmount"*) local_unnamed_addr #2

declare zeroext i1 @_ZNK4base15DictionaryValue10GetBooleanENS_16BasicStringPieceIcNSt3__111char_traitsIcEEEEPb(%"class.base::DictionaryValue"*, i8*, i64, i8*) local_unnamed_addr #2

declare void @_ZN8payments5mojom21PaymentCurrencyAmountC1Ev(%"class.payments::mojom::PaymentCurrencyAmount"*) unnamed_addr #2

; Function Attrs: nounwind
declare void @_ZN8payments5mojom21PaymentCurrencyAmountD1Ev(%"class.payments::mojom::PaymentCurrencyAmount"*) unnamed_addr #3

; Function Attrs: nobuiltin nounwind
declare void @_ZdlPv(i8*) local_unnamed_addr #4

; Function Attrs: inlinehint nounwind ssp uwtable
define linkonce_odr hidden void @_ZNSt3__14swapIN8payments5mojom21PaymentCurrencyAmountEEENS_9enable_ifIXaasr21is_move_constructibleIT_EE5valuesr18is_move_assignableIS5_EE5valueEvE4typeERS5_S8_(%"class.payments::mojom::PaymentCurrencyAmount"* dereferenceable(48), %"class.payments::mojom::PaymentCurrencyAmount"* dereferenceable(48)) local_unnamed_addr #5 comdat {
  %3 = alloca %"class.payments::mojom::PaymentCurrencyAmount", align 8
  %4 = bitcast %"class.payments::mojom::PaymentCurrencyAmount"* %3 to i8*
  call void @llvm.lifetime.start.p0i8(i64 48, i8* nonnull %4) #7
  %5 = getelementptr inbounds %"class.payments::mojom::PaymentCurrencyAmount", %"class.payments::mojom::PaymentCurrencyAmount"* %3, i64 0, i32 0, i32 0, i32 0, i32 0, i32 0, i32 0, i32 0
  %6 = getelementptr inbounds %"class.payments::mojom::PaymentCurrencyAmount", %"class.payments::mojom::PaymentCurrencyAmount"* %3, i64 0, i32 0, i32 0, i32 0, i32 0, i32 0, i32 0, i32 1
  %7 = getelementptr inbounds %"class.payments::mojom::PaymentCurrencyAmount", %"class.payments::mojom::PaymentCurrencyAmount"* %3, i64 0, i32 1, i32 0, i32 0, i32 0, i32 0, i32 0, i32 1
  %8 = bitcast %"class.payments::mojom::PaymentCurrencyAmount"* %0 to %"struct.std::__1::basic_string<char, std::__1::char_traits<char>, std::__1::allocator<char> >::__short"*
  %9 = getelementptr inbounds %"struct.std::__1::basic_string<char, std::__1::char_traits<char>, std::__1::allocator<char> >::__short", %"struct.std::__1::basic_string<char, std::__1::char_traits<char>, std::__1::allocator<char> >::__short"* %8, i64 0, i32 1, i32 0
  %10 = bitcast %"class.payments::mojom::PaymentCurrencyAmount"* %3 to i8*
  call void @llvm.memset.p0i8.i64(i8* nonnull align 8 %10, i8 -86, i64 48, i1 false)
  %11 = load i8, i8* %9, align 1
  %12 = icmp slt i8 %11, 0
  br i1 %12, label %15, label %13

13:                                               ; preds = %2
  %14 = bitcast %"class.payments::mojom::PaymentCurrencyAmount"* %0 to i8*
  call void @llvm.memcpy.p0i8.p0i8.i64(i8* nonnull align 8 %4, i8* align 8 %14, i64 24, i1 false) #7
  br label %21

15:                                               ; preds = %2
  %16 = getelementptr inbounds %"class.payments::mojom::PaymentCurrencyAmount", %"class.payments::mojom::PaymentCurrencyAmount"* %3, i64 0, i32 0
  %17 = getelementptr inbounds %"class.payments::mojom::PaymentCurrencyAmount", %"class.payments::mojom::PaymentCurrencyAmount"* %0, i64 0, i32 0, i32 0, i32 0, i32 0, i32 0, i32 0, i32 0
  %18 = load i8*, i8** %17, align 8
  %19 = getelementptr inbounds %"class.payments::mojom::PaymentCurrencyAmount", %"class.payments::mojom::PaymentCurrencyAmount"* %0, i64 0, i32 0, i32 0, i32 0, i32 0, i32 0, i32 0, i32 1
  %20 = load i64, i64* %19, align 8
  call void @_ZNSt3__112basic_stringIcNS_11char_traitsIcEENS_9allocatorIcEEE25__init_copy_ctor_externalEPKcm(%"class.std::__1::basic_string"* nonnull %16, i8* %18, i64 %20) #7
  br label %21

21:                                               ; preds = %15, %13
  %22 = getelementptr inbounds %"class.payments::mojom::PaymentCurrencyAmount", %"class.payments::mojom::PaymentCurrencyAmount"* %3, i64 0, i32 1
  %23 = getelementptr inbounds %"class.payments::mojom::PaymentCurrencyAmount", %"class.payments::mojom::PaymentCurrencyAmount"* %0, i64 0, i32 1
  %24 = bitcast %"class.std::__1::basic_string"* %23 to %"struct.std::__1::basic_string<char, std::__1::char_traits<char>, std::__1::allocator<char> >::__short"*
  %25 = getelementptr inbounds %"struct.std::__1::basic_string<char, std::__1::char_traits<char>, std::__1::allocator<char> >::__short", %"struct.std::__1::basic_string<char, std::__1::char_traits<char>, std::__1::allocator<char> >::__short"* %24, i64 0, i32 1, i32 0
  %26 = load i8, i8* %25, align 1
  %27 = icmp slt i8 %26, 0
  br i1 %27, label %31, label %28

28:                                               ; preds = %21
  %29 = bitcast %"class.std::__1::basic_string"* %22 to i8*
  %30 = bitcast %"class.std::__1::basic_string"* %23 to i8*
  call void @llvm.memcpy.p0i8.p0i8.i64(i8* align 8 %29, i8* align 8 %30, i64 24, i1 false) #7
  br label %36

31:                                               ; preds = %21
  %32 = getelementptr inbounds %"class.std::__1::basic_string", %"class.std::__1::basic_string"* %23, i64 0, i32 0, i32 0, i32 0, i32 0, i32 0, i32 0
  %33 = load i8*, i8** %32, align 8
  %34 = getelementptr inbounds %"class.payments::mojom::PaymentCurrencyAmount", %"class.payments::mojom::PaymentCurrencyAmount"* %0, i64 0, i32 1, i32 0, i32 0, i32 0, i32 0, i32 0, i32 1
  %35 = load i64, i64* %34, align 8
  call void @_ZNSt3__112basic_stringIcNS_11char_traitsIcEENS_9allocatorIcEEE25__init_copy_ctor_externalEPKcm(%"class.std::__1::basic_string"* %22, i8* %33, i64 %35) #7
  br label %36

36:                                               ; preds = %28, %31
  %37 = getelementptr inbounds %"class.payments::mojom::PaymentCurrencyAmount", %"class.payments::mojom::PaymentCurrencyAmount"* %0, i64 0, i32 0
  %38 = icmp eq %"class.payments::mojom::PaymentCurrencyAmount"* %0, %1
  br i1 %38, label %94, label %39

39:                                               ; preds = %36
  %40 = load i8, i8* %9, align 1
  %41 = icmp slt i8 %40, 0
  %42 = bitcast %"class.payments::mojom::PaymentCurrencyAmount"* %1 to %"struct.std::__1::basic_string<char, std::__1::char_traits<char>, std::__1::allocator<char> >::__short"*
  %43 = getelementptr inbounds %"struct.std::__1::basic_string<char, std::__1::char_traits<char>, std::__1::allocator<char> >::__short", %"struct.std::__1::basic_string<char, std::__1::char_traits<char>, std::__1::allocator<char> >::__short"* %42, i64 0, i32 1, i32 0
  %44 = load i8, i8* %43, align 1
  %45 = icmp slt i8 %44, 0
  br i1 %41, label %56, label %46

46:                                               ; preds = %39
  br i1 %45, label %50, label %47

47:                                               ; preds = %46
  %48 = bitcast %"class.payments::mojom::PaymentCurrencyAmount"* %0 to i8*
  %49 = bitcast %"class.payments::mojom::PaymentCurrencyAmount"* %1 to i8*
  call void @llvm.memcpy.p0i8.p0i8.i64(i8* align 8 %48, i8* align 8 %49, i64 24, i1 false) #7
  br label %66

50:                                               ; preds = %46
  %51 = getelementptr inbounds %"class.payments::mojom::PaymentCurrencyAmount", %"class.payments::mojom::PaymentCurrencyAmount"* %1, i64 0, i32 0, i32 0, i32 0, i32 0, i32 0, i32 0, i32 0
  %52 = load i8*, i8** %51, align 8
  %53 = getelementptr inbounds %"class.payments::mojom::PaymentCurrencyAmount", %"class.payments::mojom::PaymentCurrencyAmount"* %1, i64 0, i32 0, i32 0, i32 0, i32 0, i32 0, i32 0, i32 1
  %54 = load i64, i64* %53, align 8
  %55 = call dereferenceable(24) %"class.std::__1::basic_string"* @_ZNSt3__112basic_stringIcNS_11char_traitsIcEENS_9allocatorIcEEE17__assign_no_aliasILb1EEERS5_PKcm(%"class.std::__1::basic_string"* %37, i8* %52, i64 %54) #7
  br label %66

56:                                               ; preds = %39
  %57 = getelementptr inbounds %"class.payments::mojom::PaymentCurrencyAmount", %"class.payments::mojom::PaymentCurrencyAmount"* %1, i64 0, i32 0, i32 0, i32 0, i32 0, i32 0, i32 0, i32 0
  %58 = load i8*, i8** %57, align 8
  %59 = getelementptr inbounds %"class.payments::mojom::PaymentCurrencyAmount", %"class.payments::mojom::PaymentCurrencyAmount"* %1, i64 0, i32 0, i32 0, i32 0, i32 0, i32 0, i32 0, i32 1
  %60 = load i64, i64* %59, align 8
  %61 = bitcast %"class.payments::mojom::PaymentCurrencyAmount"* %1 to i8*
  %62 = zext i8 %44 to i64
  %63 = select i1 %45, i8* %58, i8* %61
  %64 = select i1 %45, i64 %60, i64 %62
  %65 = call dereferenceable(24) %"class.std::__1::basic_string"* @_ZNSt3__112basic_stringIcNS_11char_traitsIcEENS_9allocatorIcEEE17__assign_no_aliasILb0EEERS5_PKcm(%"class.std::__1::basic_string"* %37, i8* %63, i64 %64) #7
  br label %66

66:                                               ; preds = %56, %50, %47
  %67 = getelementptr inbounds %"class.payments::mojom::PaymentCurrencyAmount", %"class.payments::mojom::PaymentCurrencyAmount"* %1, i64 0, i32 1
  %68 = load i8, i8* %25, align 1
  %69 = icmp slt i8 %68, 0
  %70 = bitcast %"class.std::__1::basic_string"* %67 to %"struct.std::__1::basic_string<char, std::__1::char_traits<char>, std::__1::allocator<char> >::__short"*
  %71 = getelementptr inbounds %"struct.std::__1::basic_string<char, std::__1::char_traits<char>, std::__1::allocator<char> >::__short", %"struct.std::__1::basic_string<char, std::__1::char_traits<char>, std::__1::allocator<char> >::__short"* %70, i64 0, i32 1, i32 0
  %72 = load i8, i8* %71, align 1
  %73 = icmp slt i8 %72, 0
  br i1 %69, label %84, label %74

74:                                               ; preds = %66
  br i1 %73, label %78, label %75

75:                                               ; preds = %74
  %76 = bitcast %"class.std::__1::basic_string"* %23 to i8*
  %77 = bitcast %"class.std::__1::basic_string"* %67 to i8*
  call void @llvm.memcpy.p0i8.p0i8.i64(i8* align 8 %76, i8* align 8 %77, i64 24, i1 false) #7
  br label %94

78:                                               ; preds = %74
  %79 = getelementptr inbounds %"class.std::__1::basic_string", %"class.std::__1::basic_string"* %67, i64 0, i32 0, i32 0, i32 0, i32 0, i32 0, i32 0
  %80 = load i8*, i8** %79, align 8
  %81 = getelementptr inbounds %"class.payments::mojom::PaymentCurrencyAmount", %"class.payments::mojom::PaymentCurrencyAmount"* %1, i64 0, i32 1, i32 0, i32 0, i32 0, i32 0, i32 0, i32 1
  %82 = load i64, i64* %81, align 8
  %83 = call dereferenceable(24) %"class.std::__1::basic_string"* @_ZNSt3__112basic_stringIcNS_11char_traitsIcEENS_9allocatorIcEEE17__assign_no_aliasILb1EEERS5_PKcm(%"class.std::__1::basic_string"* %23, i8* %80, i64 %82) #7
  br label %94

84:                                               ; preds = %66
  %85 = getelementptr inbounds %"class.std::__1::basic_string", %"class.std::__1::basic_string"* %67, i64 0, i32 0, i32 0, i32 0, i32 0, i32 0, i32 0
  %86 = load i8*, i8** %85, align 8
  %87 = getelementptr inbounds %"class.payments::mojom::PaymentCurrencyAmount", %"class.payments::mojom::PaymentCurrencyAmount"* %1, i64 0, i32 1, i32 0, i32 0, i32 0, i32 0, i32 0, i32 1
  %88 = load i64, i64* %87, align 8
  %89 = bitcast %"class.std::__1::basic_string"* %67 to i8*
  %90 = zext i8 %72 to i64
  %91 = select i1 %73, i8* %86, i8* %89
  %92 = select i1 %73, i64 %88, i64 %90
  %93 = call dereferenceable(24) %"class.std::__1::basic_string"* @_ZNSt3__112basic_stringIcNS_11char_traitsIcEENS_9allocatorIcEEE17__assign_no_aliasILb0EEERS5_PKcm(%"class.std::__1::basic_string"* %23, i8* %91, i64 %92) #7
  br label %94

94:                                               ; preds = %36, %75, %78, %84
  %95 = getelementptr inbounds %"class.payments::mojom::PaymentCurrencyAmount", %"class.payments::mojom::PaymentCurrencyAmount"* %1, i64 0, i32 0
  %96 = icmp eq %"class.payments::mojom::PaymentCurrencyAmount"* %3, %1
  br i1 %96, label %148, label %97

97:                                               ; preds = %94
  %98 = bitcast %"class.payments::mojom::PaymentCurrencyAmount"* %1 to %"struct.std::__1::basic_string<char, std::__1::char_traits<char>, std::__1::allocator<char> >::__short"*
  %99 = getelementptr inbounds %"struct.std::__1::basic_string<char, std::__1::char_traits<char>, std::__1::allocator<char> >::__short", %"struct.std::__1::basic_string<char, std::__1::char_traits<char>, std::__1::allocator<char> >::__short"* %98, i64 0, i32 1, i32 0
  %100 = load i8, i8* %99, align 1
  %101 = icmp slt i8 %100, 0
  %102 = bitcast %"class.payments::mojom::PaymentCurrencyAmount"* %3 to %"struct.std::__1::basic_string<char, std::__1::char_traits<char>, std::__1::allocator<char> >::__short"*
  %103 = getelementptr inbounds %"struct.std::__1::basic_string<char, std::__1::char_traits<char>, std::__1::allocator<char> >::__short", %"struct.std::__1::basic_string<char, std::__1::char_traits<char>, std::__1::allocator<char> >::__short"* %102, i64 0, i32 1, i32 0
  %104 = load i8, i8* %103, align 1
  %105 = icmp slt i8 %104, 0
  br i1 %101, label %113, label %106

106:                                              ; preds = %97
  br i1 %105, label %109, label %107

107:                                              ; preds = %106
  %108 = bitcast %"class.payments::mojom::PaymentCurrencyAmount"* %1 to i8*
  call void @llvm.memcpy.p0i8.p0i8.i64(i8* align 8 %108, i8* nonnull align 8 %4, i64 24, i1 false) #7
  br label %120

109:                                              ; preds = %106
  %110 = load i8*, i8** %5, align 8
  %111 = load i64, i64* %6, align 8
  %112 = call dereferenceable(24) %"class.std::__1::basic_string"* @_ZNSt3__112basic_stringIcNS_11char_traitsIcEENS_9allocatorIcEEE17__assign_no_aliasILb1EEERS5_PKcm(%"class.std::__1::basic_string"* %95, i8* %110, i64 %111) #7
  br label %120

113:                                              ; preds = %97
  %114 = load i8*, i8** %5, align 8
  %115 = load i64, i64* %6, align 8
  %116 = zext i8 %104 to i64
  %117 = select i1 %105, i8* %114, i8* %4
  %118 = select i1 %105, i64 %115, i64 %116
  %119 = call dereferenceable(24) %"class.std::__1::basic_string"* @_ZNSt3__112basic_stringIcNS_11char_traitsIcEENS_9allocatorIcEEE17__assign_no_aliasILb0EEERS5_PKcm(%"class.std::__1::basic_string"* %95, i8* %117, i64 %118) #7
  br label %120

120:                                              ; preds = %113, %109, %107
  %121 = getelementptr inbounds %"class.payments::mojom::PaymentCurrencyAmount", %"class.payments::mojom::PaymentCurrencyAmount"* %1, i64 0, i32 1
  %122 = bitcast %"class.std::__1::basic_string"* %121 to %"struct.std::__1::basic_string<char, std::__1::char_traits<char>, std::__1::allocator<char> >::__short"*
  %123 = getelementptr inbounds %"struct.std::__1::basic_string<char, std::__1::char_traits<char>, std::__1::allocator<char> >::__short", %"struct.std::__1::basic_string<char, std::__1::char_traits<char>, std::__1::allocator<char> >::__short"* %122, i64 0, i32 1, i32 0
  %124 = load i8, i8* %123, align 1
  %125 = icmp slt i8 %124, 0
  %126 = bitcast %"class.std::__1::basic_string"* %22 to %"struct.std::__1::basic_string<char, std::__1::char_traits<char>, std::__1::allocator<char> >::__short"*
  %127 = getelementptr inbounds %"struct.std::__1::basic_string<char, std::__1::char_traits<char>, std::__1::allocator<char> >::__short", %"struct.std::__1::basic_string<char, std::__1::char_traits<char>, std::__1::allocator<char> >::__short"* %126, i64 0, i32 1, i32 0
  %128 = load i8, i8* %127, align 1
  %129 = icmp slt i8 %128, 0
  br i1 %125, label %139, label %130

130:                                              ; preds = %120
  br i1 %129, label %134, label %131

131:                                              ; preds = %130
  %132 = bitcast %"class.std::__1::basic_string"* %121 to i8*
  %133 = bitcast %"class.std::__1::basic_string"* %22 to i8*
  call void @llvm.memcpy.p0i8.p0i8.i64(i8* align 8 %132, i8* align 8 %133, i64 24, i1 false) #7
  br label %148

134:                                              ; preds = %130
  %135 = getelementptr inbounds %"class.std::__1::basic_string", %"class.std::__1::basic_string"* %22, i64 0, i32 0, i32 0, i32 0, i32 0, i32 0, i32 0
  %136 = load i8*, i8** %135, align 8
  %137 = load i64, i64* %7, align 8
  %138 = call dereferenceable(24) %"class.std::__1::basic_string"* @_ZNSt3__112basic_stringIcNS_11char_traitsIcEENS_9allocatorIcEEE17__assign_no_aliasILb1EEERS5_PKcm(%"class.std::__1::basic_string"* %121, i8* %136, i64 %137) #7
  br label %148

139:                                              ; preds = %120
  %140 = getelementptr inbounds %"class.std::__1::basic_string", %"class.std::__1::basic_string"* %22, i64 0, i32 0, i32 0, i32 0, i32 0, i32 0, i32 0
  %141 = load i8*, i8** %140, align 8
  %142 = load i64, i64* %7, align 8
  %143 = bitcast %"class.std::__1::basic_string"* %22 to i8*
  %144 = zext i8 %128 to i64
  %145 = select i1 %129, i8* %141, i8* %143
  %146 = select i1 %129, i64 %142, i64 %144
  %147 = call dereferenceable(24) %"class.std::__1::basic_string"* @_ZNSt3__112basic_stringIcNS_11char_traitsIcEENS_9allocatorIcEEE17__assign_no_aliasILb0EEERS5_PKcm(%"class.std::__1::basic_string"* %121, i8* %145, i64 %146) #7
  br label %148

148:                                              ; preds = %94, %131, %134, %139
  call void @_ZN8payments5mojom21PaymentCurrencyAmountD1Ev(%"class.payments::mojom::PaymentCurrencyAmount"* nonnull %3) #7
  call void @llvm.lifetime.end.p0i8(i64 48, i8* nonnull %4) #7
  ret void
}

; Function Attrs: argmemonly nounwind
declare void @llvm.memset.p0i8.i64(i8* nocapture writeonly, i8, i64, i1 immarg) #1

; Function Attrs: argmemonly nounwind
declare void @llvm.memcpy.p0i8.p0i8.i64(i8* nocapture writeonly, i8* nocapture readonly, i64, i1 immarg) #1

declare void @_ZNSt3__112basic_stringIcNS_11char_traitsIcEENS_9allocatorIcEEE25__init_copy_ctor_externalEPKcm(%"class.std::__1::basic_string"*, i8*, i64) local_unnamed_addr #2

; Function Attrs: nounwind ssp uwtable
define linkonce_odr hidden zeroext i1 @_ZNK8payments5mojom21PaymentCurrencyAmount6EqualsIS1_LPv0EEEbRKT_(%"class.payments::mojom::PaymentCurrencyAmount"*, %"class.payments::mojom::PaymentCurrencyAmount"* dereferenceable(48)) local_unnamed_addr #0 comdat align 2 {
  %3 = bitcast %"class.payments::mojom::PaymentCurrencyAmount"* %0 to %"struct.std::__1::basic_string<char, std::__1::char_traits<char>, std::__1::allocator<char> >::__short"*
  %4 = getelementptr inbounds %"struct.std::__1::basic_string<char, std::__1::char_traits<char>, std::__1::allocator<char> >::__short", %"struct.std::__1::basic_string<char, std::__1::char_traits<char>, std::__1::allocator<char> >::__short"* %3, i64 0, i32 1, i32 0
  %5 = load i8, i8* %4, align 1
  %6 = icmp slt i8 %5, 0
  %7 = getelementptr inbounds %"class.payments::mojom::PaymentCurrencyAmount", %"class.payments::mojom::PaymentCurrencyAmount"* %0, i64 0, i32 0, i32 0, i32 0, i32 0, i32 0, i32 0, i32 1
  %8 = load i64, i64* %7, align 8
  %9 = zext i8 %5 to i64
  %10 = select i1 %6, i64 %8, i64 %9
  %11 = bitcast %"class.payments::mojom::PaymentCurrencyAmount"* %1 to %"struct.std::__1::basic_string<char, std::__1::char_traits<char>, std::__1::allocator<char> >::__short"*
  %12 = getelementptr inbounds %"struct.std::__1::basic_string<char, std::__1::char_traits<char>, std::__1::allocator<char> >::__short", %"struct.std::__1::basic_string<char, std::__1::char_traits<char>, std::__1::allocator<char> >::__short"* %11, i64 0, i32 1, i32 0
  %13 = load i8, i8* %12, align 1
  %14 = icmp slt i8 %13, 0
  %15 = getelementptr inbounds %"class.payments::mojom::PaymentCurrencyAmount", %"class.payments::mojom::PaymentCurrencyAmount"* %1, i64 0, i32 0, i32 0, i32 0, i32 0, i32 0, i32 0, i32 1
  %16 = load i64, i64* %15, align 8
  %17 = zext i8 %13 to i64
  %18 = select i1 %14, i64 %16, i64 %17
  %19 = icmp eq i64 %10, %18
  br i1 %19, label %20, label %105

20:                                               ; preds = %2
  %21 = getelementptr inbounds %"class.payments::mojom::PaymentCurrencyAmount", %"class.payments::mojom::PaymentCurrencyAmount"* %0, i64 0, i32 0, i32 0, i32 0, i32 0, i32 0, i32 0, i32 0
  %22 = load i8*, i8** %21, align 8
  %23 = bitcast %"class.payments::mojom::PaymentCurrencyAmount"* %0 to i8*
  %24 = select i1 %6, i8* %22, i8* %23
  %25 = getelementptr inbounds %"class.payments::mojom::PaymentCurrencyAmount", %"class.payments::mojom::PaymentCurrencyAmount"* %1, i64 0, i32 0, i32 0, i32 0, i32 0, i32 0, i32 0, i32 0
  %26 = load i8*, i8** %25, align 8
  %27 = bitcast %"class.payments::mojom::PaymentCurrencyAmount"* %1 to i8*
  %28 = select i1 %14, i8* %26, i8* %27
  %29 = icmp eq i64 %10, 0
  br i1 %6, label %36, label %30

30:                                               ; preds = %20
  br i1 %29, label %52, label %31

31:                                               ; preds = %30
  %32 = ptrtoint i8* %22 to i64
  %33 = trunc i64 %32 to i8
  %34 = load i8, i8* %28, align 1
  %35 = icmp eq i8 %34, %33
  br i1 %35, label %37, label %105

36:                                               ; preds = %20
  br i1 %29, label %52, label %49

37:                                               ; preds = %31, %44
  %38 = phi i64 [ %41, %44 ], [ %9, %31 ]
  %39 = phi i8* [ %42, %44 ], [ %23, %31 ]
  %40 = phi i8* [ %45, %44 ], [ %28, %31 ]
  %41 = add i64 %38, -1
  %42 = getelementptr inbounds i8, i8* %39, i64 1
  %43 = icmp eq i64 %41, 0
  br i1 %43, label %52, label %44

44:                                               ; preds = %37
  %45 = getelementptr inbounds i8, i8* %40, i64 1
  %46 = load i8, i8* %42, align 1
  %47 = load i8, i8* %45, align 1
  %48 = icmp eq i8 %46, %47
  br i1 %48, label %37, label %105

49:                                               ; preds = %36
  %50 = tail call i32 @bcmp(i8* %24, i8* %28, i64 %10) #7
  %51 = icmp eq i32 %50, 0
  br i1 %51, label %52, label %105

52:                                               ; preds = %37, %30, %36, %49
  %53 = getelementptr inbounds %"class.payments::mojom::PaymentCurrencyAmount", %"class.payments::mojom::PaymentCurrencyAmount"* %0, i64 0, i32 1
  %54 = getelementptr inbounds %"class.payments::mojom::PaymentCurrencyAmount", %"class.payments::mojom::PaymentCurrencyAmount"* %1, i64 0, i32 1
  %55 = bitcast %"class.std::__1::basic_string"* %53 to %"struct.std::__1::basic_string<char, std::__1::char_traits<char>, std::__1::allocator<char> >::__short"*
  %56 = getelementptr inbounds %"struct.std::__1::basic_string<char, std::__1::char_traits<char>, std::__1::allocator<char> >::__short", %"struct.std::__1::basic_string<char, std::__1::char_traits<char>, std::__1::allocator<char> >::__short"* %55, i64 0, i32 1, i32 0
  %57 = load i8, i8* %56, align 1
  %58 = icmp slt i8 %57, 0
  %59 = getelementptr inbounds %"class.payments::mojom::PaymentCurrencyAmount", %"class.payments::mojom::PaymentCurrencyAmount"* %0, i64 0, i32 1, i32 0, i32 0, i32 0, i32 0, i32 0, i32 1
  %60 = load i64, i64* %59, align 8
  %61 = zext i8 %57 to i64
  %62 = select i1 %58, i64 %60, i64 %61
  %63 = bitcast %"class.std::__1::basic_string"* %54 to %"struct.std::__1::basic_string<char, std::__1::char_traits<char>, std::__1::allocator<char> >::__short"*
  %64 = getelementptr inbounds %"struct.std::__1::basic_string<char, std::__1::char_traits<char>, std::__1::allocator<char> >::__short", %"struct.std::__1::basic_string<char, std::__1::char_traits<char>, std::__1::allocator<char> >::__short"* %63, i64 0, i32 1, i32 0
  %65 = load i8, i8* %64, align 1
  %66 = icmp slt i8 %65, 0
  %67 = getelementptr inbounds %"class.payments::mojom::PaymentCurrencyAmount", %"class.payments::mojom::PaymentCurrencyAmount"* %1, i64 0, i32 1, i32 0, i32 0, i32 0, i32 0, i32 0, i32 1
  %68 = load i64, i64* %67, align 8
  %69 = zext i8 %65 to i64
  %70 = select i1 %66, i64 %68, i64 %69
  %71 = icmp eq i64 %62, %70
  br i1 %71, label %72, label %105

72:                                               ; preds = %52
  %73 = getelementptr inbounds %"class.std::__1::basic_string", %"class.std::__1::basic_string"* %53, i64 0, i32 0, i32 0, i32 0, i32 0, i32 0, i32 0
  %74 = load i8*, i8** %73, align 8
  %75 = bitcast %"class.std::__1::basic_string"* %53 to i8*
  %76 = select i1 %58, i8* %74, i8* %75
  %77 = getelementptr inbounds %"class.std::__1::basic_string", %"class.std::__1::basic_string"* %54, i64 0, i32 0, i32 0, i32 0, i32 0, i32 0, i32 0
  %78 = load i8*, i8** %77, align 8
  %79 = bitcast %"class.std::__1::basic_string"* %54 to i8*
  %80 = select i1 %66, i8* %78, i8* %79
  %81 = icmp eq i64 %62, 0
  br i1 %58, label %88, label %82

82:                                               ; preds = %72
  br i1 %81, label %104, label %83

83:                                               ; preds = %82
  %84 = ptrtoint i8* %74 to i64
  %85 = trunc i64 %84 to i8
  %86 = load i8, i8* %80, align 1
  %87 = icmp eq i8 %86, %85
  br i1 %87, label %89, label %105

88:                                               ; preds = %72
  br i1 %81, label %104, label %101

89:                                               ; preds = %83, %96
  %90 = phi i64 [ %93, %96 ], [ %61, %83 ]
  %91 = phi i8* [ %94, %96 ], [ %75, %83 ]
  %92 = phi i8* [ %97, %96 ], [ %80, %83 ]
  %93 = add i64 %90, -1
  %94 = getelementptr inbounds i8, i8* %91, i64 1
  %95 = icmp eq i64 %93, 0
  br i1 %95, label %104, label %96

96:                                               ; preds = %89
  %97 = getelementptr inbounds i8, i8* %92, i64 1
  %98 = load i8, i8* %94, align 1
  %99 = load i8, i8* %97, align 1
  %100 = icmp eq i8 %98, %99
  br i1 %100, label %89, label %105

101:                                              ; preds = %88
  %102 = tail call i32 @bcmp(i8* %76, i8* %80, i64 %62) #7
  %103 = icmp eq i32 %102, 0
  br i1 %103, label %104, label %105

104:                                              ; preds = %89, %82, %88, %101
  br label %105

105:                                              ; preds = %44, %96, %83, %52, %31, %2, %104, %101, %49
  %106 = phi i1 [ false, %49 ], [ true, %104 ], [ false, %101 ], [ false, %2 ], [ false, %31 ], [ false, %52 ], [ false, %83 ], [ false, %96 ], [ false, %44 ]
  ret i1 %106
}

declare dereferenceable(24) %"class.std::__1::basic_string"* @_ZNSt3__112basic_stringIcNS_11char_traitsIcEENS_9allocatorIcEEE17__assign_no_aliasILb1EEERS5_PKcm(%"class.std::__1::basic_string"*, i8*, i64) local_unnamed_addr #2

declare dereferenceable(24) %"class.std::__1::basic_string"* @_ZNSt3__112basic_stringIcNS_11char_traitsIcEENS_9allocatorIcEEE17__assign_no_aliasILb0EEERS5_PKcm(%"class.std::__1::basic_string"*, i8*, i64) local_unnamed_addr #2

; Function Attrs: nounwind ssp uwtable
define linkonce_odr hidden void @_ZNK8payments5mojom21PaymentCurrencyAmount5CloneIN4mojo16InlinedStructPtrIS1_EEEES5_v(%"class.mojo::InlinedStructPtr"* noalias sret, %"class.payments::mojom::PaymentCurrencyAmount"*) local_unnamed_addr #0 comdat align 2 {
  %3 = alloca %"class.std::__1::basic_string", align 8
  %4 = alloca %"class.std::__1::basic_string", align 8
  %5 = bitcast %"class.std::__1::basic_string"* %3 to i8*
  call void @llvm.lifetime.start.p0i8(i64 24, i8* nonnull %5) #7
  %6 = bitcast %"class.payments::mojom::PaymentCurrencyAmount"* %1 to %"struct.std::__1::basic_string<char, std::__1::char_traits<char>, std::__1::allocator<char> >::__short"*
  %7 = getelementptr inbounds %"struct.std::__1::basic_string<char, std::__1::char_traits<char>, std::__1::allocator<char> >::__short", %"struct.std::__1::basic_string<char, std::__1::char_traits<char>, std::__1::allocator<char> >::__short"* %6, i64 0, i32 1, i32 0
  %8 = load i8, i8* %7, align 1, !noalias !9
  %9 = icmp slt i8 %8, 0
  br i1 %9, label %12, label %10

10:                                               ; preds = %2
  %11 = bitcast %"class.payments::mojom::PaymentCurrencyAmount"* %1 to i8*
  call void @llvm.memcpy.p0i8.p0i8.i64(i8* nonnull align 8 %5, i8* align 8 %11, i64 24, i1 false) #7
  br label %17

12:                                               ; preds = %2
  %13 = getelementptr inbounds %"class.payments::mojom::PaymentCurrencyAmount", %"class.payments::mojom::PaymentCurrencyAmount"* %1, i64 0, i32 0, i32 0, i32 0, i32 0, i32 0, i32 0, i32 0
  %14 = load i8*, i8** %13, align 8, !noalias !9
  %15 = getelementptr inbounds %"class.payments::mojom::PaymentCurrencyAmount", %"class.payments::mojom::PaymentCurrencyAmount"* %1, i64 0, i32 0, i32 0, i32 0, i32 0, i32 0, i32 0, i32 1
  %16 = load i64, i64* %15, align 8, !noalias !9
  call void @_ZNSt3__112basic_stringIcNS_11char_traitsIcEENS_9allocatorIcEEE25__init_copy_ctor_externalEPKcm(%"class.std::__1::basic_string"* nonnull %3, i8* %14, i64 %16) #7
  br label %17

17:                                               ; preds = %10, %12
  %18 = bitcast %"class.std::__1::basic_string"* %4 to i8*
  call void @llvm.lifetime.start.p0i8(i64 24, i8* nonnull %18) #7
  %19 = getelementptr inbounds %"class.payments::mojom::PaymentCurrencyAmount", %"class.payments::mojom::PaymentCurrencyAmount"* %1, i64 0, i32 1
  %20 = bitcast %"class.std::__1::basic_string"* %19 to %"struct.std::__1::basic_string<char, std::__1::char_traits<char>, std::__1::allocator<char> >::__short"*
  %21 = getelementptr inbounds %"struct.std::__1::basic_string<char, std::__1::char_traits<char>, std::__1::allocator<char> >::__short", %"struct.std::__1::basic_string<char, std::__1::char_traits<char>, std::__1::allocator<char> >::__short"* %20, i64 0, i32 1, i32 0
  %22 = load i8, i8* %21, align 1, !noalias !14
  %23 = icmp slt i8 %22, 0
  br i1 %23, label %26, label %24

24:                                               ; preds = %17
  %25 = bitcast %"class.std::__1::basic_string"* %19 to i8*
  call void @llvm.memcpy.p0i8.p0i8.i64(i8* nonnull align 8 %18, i8* align 8 %25, i64 24, i1 false) #7
  br label %31

26:                                               ; preds = %17
  %27 = getelementptr inbounds %"class.std::__1::basic_string", %"class.std::__1::basic_string"* %19, i64 0, i32 0, i32 0, i32 0, i32 0, i32 0, i32 0
  %28 = load i8*, i8** %27, align 8, !noalias !14
  %29 = getelementptr inbounds %"class.payments::mojom::PaymentCurrencyAmount", %"class.payments::mojom::PaymentCurrencyAmount"* %1, i64 0, i32 1, i32 0, i32 0, i32 0, i32 0, i32 0, i32 1
  %30 = load i64, i64* %29, align 8, !noalias !14
  call void @_ZNSt3__112basic_stringIcNS_11char_traitsIcEENS_9allocatorIcEEE25__init_copy_ctor_externalEPKcm(%"class.std::__1::basic_string"* nonnull %4, i8* %28, i64 %30) #7
  br label %31

31:                                               ; preds = %24, %26
  %32 = getelementptr inbounds %"class.mojo::InlinedStructPtr", %"class.mojo::InlinedStructPtr"* %0, i64 0, i32 0
  call void @_ZN8payments5mojom21PaymentCurrencyAmountC1ERKNSt3__112basic_stringIcNS2_11char_traitsIcEENS2_9allocatorIcEEEESA_(%"class.payments::mojom::PaymentCurrencyAmount"* %32, %"class.std::__1::basic_string"* nonnull dereferenceable(24) %3, %"class.std::__1::basic_string"* nonnull dereferenceable(24) %4) #7
  %33 = getelementptr inbounds %"class.mojo::InlinedStructPtr", %"class.mojo::InlinedStructPtr"* %0, i64 0, i32 1
  store i32 1, i32* %33, align 8, !alias.scope !19
  %34 = bitcast %"class.std::__1::basic_string"* %4 to %"struct.std::__1::basic_string<char, std::__1::char_traits<char>, std::__1::allocator<char> >::__short"*
  %35 = getelementptr inbounds %"struct.std::__1::basic_string<char, std::__1::char_traits<char>, std::__1::allocator<char> >::__short", %"struct.std::__1::basic_string<char, std::__1::char_traits<char>, std::__1::allocator<char> >::__short"* %34, i64 0, i32 1, i32 0
  %36 = load i8, i8* %35, align 1
  %37 = icmp slt i8 %36, 0
  br i1 %37, label %38, label %41

38:                                               ; preds = %31
  %39 = getelementptr inbounds %"class.std::__1::basic_string", %"class.std::__1::basic_string"* %4, i64 0, i32 0, i32 0, i32 0, i32 0, i32 0, i32 0
  %40 = load i8*, i8** %39, align 8
  call void @_ZdlPv(i8* %40) #8
  br label %41

41:                                               ; preds = %31, %38
  call void @llvm.lifetime.end.p0i8(i64 24, i8* nonnull %18) #7
  %42 = bitcast %"class.std::__1::basic_string"* %3 to %"struct.std::__1::basic_string<char, std::__1::char_traits<char>, std::__1::allocator<char> >::__short"*
  %43 = getelementptr inbounds %"struct.std::__1::basic_string<char, std::__1::char_traits<char>, std::__1::allocator<char> >::__short", %"struct.std::__1::basic_string<char, std::__1::char_traits<char>, std::__1::allocator<char> >::__short"* %42, i64 0, i32 1, i32 0
  %44 = load i8, i8* %43, align 1
  %45 = icmp slt i8 %44, 0
  br i1 %45, label %46, label %49

46:                                               ; preds = %41
  %47 = getelementptr inbounds %"class.std::__1::basic_string", %"class.std::__1::basic_string"* %3, i64 0, i32 0, i32 0, i32 0, i32 0, i32 0, i32 0
  %48 = load i8*, i8** %47, align 8
  call void @_ZdlPv(i8* %48) #8
  br label %49

49:                                               ; preds = %41, %46
  call void @llvm.lifetime.end.p0i8(i64 24, i8* nonnull %5) #7
  ret void
}

declare void @_ZN8payments5mojom21PaymentCurrencyAmountC1ERKNSt3__112basic_stringIcNS2_11char_traitsIcEENS2_9allocatorIcEEEESA_(%"class.payments::mojom::PaymentCurrencyAmount"*, %"class.std::__1::basic_string"* dereferenceable(24), %"class.std::__1::basic_string"* dereferenceable(24)) unnamed_addr #2

; Function Attrs: nofree nounwind readonly
declare i32 @bcmp(i8* nocapture, i8* nocapture, i64) local_unnamed_addr #6

attributes #0 = { nounwind ssp uwtable "correctly-rounded-divide-sqrt-fp-math"="false" "disable-tail-calls"="false" "less-precise-fpmad"="false" "min-legal-vector-width"="0" "no-frame-pointer-elim"="false" "no-frame-pointer-elim-non-leaf" "no-infs-fp-math"="false" "no-jump-tables"="false" "no-nans-fp-math"="false" "no-signed-zeros-fp-math"="false" "no-trapping-math"="false" "null-pointer-is-valid"="true" "stack-protector-buffer-size"="4" "target-cpu"="x86-64" "target-features"="+cx8,+fxsr,+mmx,+sse,+sse2,+sse3,+x87" "unsafe-fp-math"="false" "use-soft-float"="false" }
attributes #1 = { argmemonly nounwind }
attributes #2 = { "correctly-rounded-divide-sqrt-fp-math"="false" "disable-tail-calls"="false" "less-precise-fpmad"="false" "no-frame-pointer-elim"="false" "no-frame-pointer-elim-non-leaf" "no-infs-fp-math"="false" "no-nans-fp-math"="false" "no-signed-zeros-fp-math"="false" "no-trapping-math"="false" "null-pointer-is-valid"="true" "stack-protector-buffer-size"="4" "target-cpu"="x86-64" "target-features"="+cx8,+fxsr,+mmx,+sse,+sse2,+sse3,+x87" "unsafe-fp-math"="false" "use-soft-float"="false" }
attributes #3 = { nounwind "correctly-rounded-divide-sqrt-fp-math"="false" "disable-tail-calls"="false" "less-precise-fpmad"="false" "no-frame-pointer-elim"="false" "no-frame-pointer-elim-non-leaf" "no-infs-fp-math"="false" "no-nans-fp-math"="false" "no-signed-zeros-fp-math"="false" "no-trapping-math"="false" "null-pointer-is-valid"="true" "stack-protector-buffer-size"="4" "target-cpu"="x86-64" "target-features"="+cx8,+fxsr,+mmx,+sse,+sse2,+sse3,+x87" "unsafe-fp-math"="false" "use-soft-float"="false" }
attributes #4 = { nobuiltin nounwind "correctly-rounded-divide-sqrt-fp-math"="false" "disable-tail-calls"="false" "less-precise-fpmad"="false" "no-frame-pointer-elim"="false" "no-frame-pointer-elim-non-leaf" "no-infs-fp-math"="false" "no-nans-fp-math"="false" "no-signed-zeros-fp-math"="false" "no-trapping-math"="false" "null-pointer-is-valid"="true" "stack-protector-buffer-size"="4" "target-cpu"="x86-64" "target-features"="+cx8,+fxsr,+mmx,+sse,+sse2,+sse3,+x87" "unsafe-fp-math"="false" "use-soft-float"="false" }
attributes #5 = { inlinehint nounwind ssp uwtable "correctly-rounded-divide-sqrt-fp-math"="false" "disable-tail-calls"="false" "less-precise-fpmad"="false" "min-legal-vector-width"="0" "no-frame-pointer-elim"="false" "no-frame-pointer-elim-non-leaf" "no-infs-fp-math"="false" "no-jump-tables"="false" "no-nans-fp-math"="false" "no-signed-zeros-fp-math"="false" "no-trapping-math"="false" "null-pointer-is-valid"="true" "stack-protector-buffer-size"="4" "target-cpu"="x86-64" "target-features"="+cx8,+fxsr,+mmx,+sse,+sse2,+sse3,+x87" "unsafe-fp-math"="false" "use-soft-float"="false" }
attributes #6 = { nofree nounwind readonly }
attributes #7 = { nounwind }
attributes #8 = { builtin nounwind }

!llvm.module.flags = !{!0, !1}

!0 = !{i32 1, !"wchar_size", i32 4}
!1 = !{i32 7, !"PIC Level", i32 2}
!2 = !{!3}
!3 = distinct !{!3, !4, !"_ZN8payments5mojom21PaymentCurrencyAmount3NewIJEEEN4mojo16InlinedStructPtrIS1_EEDpOT_: argument 0"}
!4 = distinct !{!4, !"_ZN8payments5mojom21PaymentCurrencyAmount3NewIJEEEN4mojo16InlinedStructPtrIS1_EEDpOT_"}
!5 = !{i8 0, i8 2}
!6 = !{!7}
!7 = distinct !{!7, !8, !"_ZN8payments5mojom21PaymentCurrencyAmount3NewIJEEEN4mojo16InlinedStructPtrIS1_EEDpOT_: argument 0"}
!8 = distinct !{!8, !"_ZN8payments5mojom21PaymentCurrencyAmount3NewIJEEEN4mojo16InlinedStructPtrIS1_EEDpOT_"}
!9 = !{!10, !12}
!10 = distinct !{!10, !11, !"_ZN4mojo11CloneTraitsINSt3__112basic_stringIcNS1_11char_traitsIcEENS1_9allocatorIcEEEELb0EE5CloneERKS7_: argument 0"}
!11 = distinct !{!11, !"_ZN4mojo11CloneTraitsINSt3__112basic_stringIcNS1_11char_traitsIcEENS1_9allocatorIcEEEELb0EE5CloneERKS7_"}
!12 = distinct !{!12, !13, !"_ZN4mojo5CloneINSt3__112basic_stringIcNS1_11char_traitsIcEENS1_9allocatorIcEEEEEET_RKS8_: argument 0"}
!13 = distinct !{!13, !"_ZN4mojo5CloneINSt3__112basic_stringIcNS1_11char_traitsIcEENS1_9allocatorIcEEEEEET_RKS8_"}
!14 = !{!15, !17}
!15 = distinct !{!15, !16, !"_ZN4mojo11CloneTraitsINSt3__112basic_stringIcNS1_11char_traitsIcEENS1_9allocatorIcEEEELb0EE5CloneERKS7_: argument 0"}
!16 = distinct !{!16, !"_ZN4mojo11CloneTraitsINSt3__112basic_stringIcNS1_11char_traitsIcEENS1_9allocatorIcEEEELb0EE5CloneERKS7_"}
!17 = distinct !{!17, !18, !"_ZN4mojo5CloneINSt3__112basic_stringIcNS1_11char_traitsIcEENS1_9allocatorIcEEEEEET_RKS8_: argument 0"}
!18 = distinct !{!18, !"_ZN4mojo5CloneINSt3__112basic_stringIcNS1_11char_traitsIcEENS1_9allocatorIcEEEEEET_RKS8_"}
!19 = !{!20}
!20 = distinct !{!20, !21, !"_ZN8payments5mojom21PaymentCurrencyAmount3NewIJNSt3__112basic_stringIcNS3_11char_traitsIcEENS3_9allocatorIcEEEES9_EEEN4mojo16InlinedStructPtrIS1_EEDpOT_: argument 0"}
!21 = distinct !{!21, !"_ZN8payments5mojom21PaymentCurrencyAmount3NewIJNSt3__112basic_stringIcNS3_11char_traitsIcEENS3_9allocatorIcEEEES9_EEEN4mojo16InlinedStructPtrIS1_EEDpOT_"}
