; ModuleID = '../../components/pdf/browser/pdf_web_contents_helper.cc'
source_filename = "../../components/pdf/browser/pdf_web_contents_helper.cc"
target datalayout = "e-m:e-i64:64-f80:128-n8:16:32:64-S128"
target triple = "x86_64-unknown-linux-gnu"

module asm ".symver exp, exp@GLIBC_2.2.5"
module asm ".symver exp2, exp2@GLIBC_2.2.5"
module asm ".symver exp2f, exp2f@GLIBC_2.2.5"
module asm ".symver expf, expf@GLIBC_2.2.5"
module asm ".symver lgamma, lgamma@GLIBC_2.2.5"
module asm ".symver lgammaf, lgammaf@GLIBC_2.2.5"
module asm ".symver lgammal, lgammal@GLIBC_2.2.5"
module asm ".symver log, log@GLIBC_2.2.5"
module asm ".symver log2, log2@GLIBC_2.2.5"
module asm ".symver log2f, log2f@GLIBC_2.2.5"
module asm ".symver logf, logf@GLIBC_2.2.5"
module asm ".symver pow, pow@GLIBC_2.2.5"
module asm ".symver powf, powf@GLIBC_2.2.5"

%"class.pdf::PDFWebContentsHelper" = type { %"class.content::WebContentsObserver", %"class.content::WebContentsUserData", %"class.pdf::mojom::PdfService", %"class.ui::TouchSelectionControllerClient", %"class.ui::TouchSelectionMenuClient", %"class.content::TouchSelectionControllerClientManager::Observer", %"class.content::WebContentsFrameReceiverSet", %"class.std::__1::unique_ptr", %"class.content::TouchSelectionControllerClientManager"*, %"class.gfx::PointF", i32, %"class.gfx::PointF", i32, i8, %"class.mojo::Remote" }
%"class.content::WebContentsObserver" = type { %"class.IPC::Listener", %"class.content::WebContents"* }
%"class.IPC::Listener" = type { i32 (...)** }
%"class.content::WebContentsUserData" = type { %"class.base::SupportsUserData::Data" }
%"class.base::SupportsUserData::Data" = type { i32 (...)** }
%"class.pdf::mojom::PdfService" = type { i32 (...)** }
%"class.ui::TouchSelectionControllerClient" = type { i32 (...)** }
%"class.ui::TouchSelectionMenuClient" = type { i32 (...)** }
%"class.content::TouchSelectionControllerClientManager::Observer" = type { %"class.base::CheckedObserver" }
%"class.base::CheckedObserver" = type { i32 (...)**, %"class.base::WeakPtrFactory" }
%"class.base::WeakPtrFactory" = type { %"class.base::internal::WeakPtrFactoryBase" }
%"class.base::internal::WeakPtrFactoryBase" = type { %"class.base::internal::WeakReferenceOwner", i64 }
%"class.base::internal::WeakReferenceOwner" = type { %class.scoped_refptr }
%class.scoped_refptr = type { %"class.base::internal::WeakReference::Flag"* }
%"class.base::internal::WeakReference::Flag" = type <{ %"class.base::RefCountedThreadSafe", %"class.base::AtomicFlag", [3 x i8] }>
%"class.base::RefCountedThreadSafe" = type { %"class.base::subtle::RefCountedThreadSafeBase" }
%"class.base::subtle::RefCountedThreadSafeBase" = type { %"class.base::AtomicRefCount" }
%"class.base::AtomicRefCount" = type { %"struct.std::__1::atomic" }
%"struct.std::__1::atomic" = type { %"struct.std::__1::__atomic_base" }
%"struct.std::__1::__atomic_base" = type { %"struct.std::__1::__atomic_base.7" }
%"struct.std::__1::__atomic_base.7" = type { %"struct.std::__1::__cxx_atomic_impl" }
%"struct.std::__1::__cxx_atomic_impl" = type { %"struct.std::__1::__cxx_atomic_base_impl" }
%"struct.std::__1::__cxx_atomic_base_impl" = type { i32 }
%"class.base::AtomicFlag" = type { %"struct.std::__1::atomic.8" }
%"struct.std::__1::atomic.8" = type { %"struct.std::__1::__atomic_base.9" }
%"struct.std::__1::__atomic_base.9" = type { %"struct.std::__1::__atomic_base.10" }
%"struct.std::__1::__atomic_base.10" = type { %"struct.std::__1::__cxx_atomic_impl.11" }
%"struct.std::__1::__cxx_atomic_impl.11" = type { %"struct.std::__1::__cxx_atomic_base_impl.12" }
%"struct.std::__1::__cxx_atomic_base_impl.12" = type { i8 }
%"class.content::WebContentsFrameReceiverSet" = type { %"class.content::WebContentsReceiverSet", %"class.content::WebContentsFrameReceiverSet<pdf::mojom::PdfService>::FrameInterfaceBinder", %"class.content::RenderFrameHost"* }
%"class.content::WebContentsReceiverSet" = type { %"class.base::OnceCallback", %"class.content::WebContentsReceiverSet::Binder"* }
%"class.base::OnceCallback" = type { %"class.base::internal::CallbackBase" }
%"class.base::internal::CallbackBase" = type { %class.scoped_refptr.13 }
%class.scoped_refptr.13 = type { %"class.base::internal::BindStateBase"* }
%"class.base::internal::BindStateBase" = type { %"class.base::RefCountedThreadSafe.14", void ()*, void (%"class.base::internal::BindStateBase"*)*, i1 (%"class.base::internal::BindStateBase"*, i32)* }
%"class.base::RefCountedThreadSafe.14" = type { %"class.base::subtle::RefCountedThreadSafeBase" }
%"class.content::WebContentsReceiverSet::Binder" = type { i32 (...)** }
%"class.content::WebContentsFrameReceiverSet<pdf::mojom::PdfService>::FrameInterfaceBinder" = type { %"class.content::WebContentsReceiverSet::Binder", %"class.content::WebContentsObserver", %"class.pdf::mojom::PdfService"*, %"class.mojo::ReceiverSetBase", %"class.std::__1::map.28" }
%"class.mojo::ReceiverSetBase" = type { %"class.mojo::ReceiverSetState" }
%"class.mojo::ReceiverSetState" = type { %"class.base::RepeatingCallback", %"class.base::RepeatingCallback.15", i64, %"class.std::__1::map.16", i8*, i64, %"class.base::WeakPtrFactory.27" }
%"class.base::RepeatingCallback" = type { %"class.base::internal::CallbackBaseCopyable" }
%"class.base::internal::CallbackBaseCopyable" = type { %"class.base::internal::CallbackBase" }
%"class.base::RepeatingCallback.15" = type { %"class.base::internal::CallbackBaseCopyable" }
%"class.std::__1::map.16" = type { %"class.std::__1::__tree.17" }
%"class.std::__1::__tree.17" = type { %"class.std::__1::__tree_end_node"*, %"class.std::__1::__compressed_pair.18", %"class.std::__1::__compressed_pair.22" }
%"class.std::__1::__tree_end_node" = type { %"class.std::__1::__tree_node_base"* }
%"class.std::__1::__tree_node_base" = type <{ %"class.std::__1::__tree_end_node", %"class.std::__1::__tree_node_base"*, %"class.std::__1::__tree_end_node"*, i8, [7 x i8] }>
%"class.std::__1::__compressed_pair.18" = type { %"struct.std::__1::__compressed_pair_elem" }
%"struct.std::__1::__compressed_pair_elem" = type { %"class.std::__1::__tree_end_node" }
%"class.std::__1::__compressed_pair.22" = type { %"struct.std::__1::__compressed_pair_elem.2" }
%"struct.std::__1::__compressed_pair_elem.2" = type { i64 }
%"class.base::WeakPtrFactory.27" = type { %"class.base::internal::WeakPtrFactoryBase" }
%"class.std::__1::map.28" = type { %"class.std::__1::__tree.29" }
%"class.std::__1::__tree.29" = type { %"class.std::__1::__tree_end_node"*, %"class.std::__1::__compressed_pair.30", %"class.std::__1::__compressed_pair.34" }
%"class.std::__1::__compressed_pair.30" = type { %"struct.std::__1::__compressed_pair_elem" }
%"class.std::__1::__compressed_pair.34" = type { %"struct.std::__1::__compressed_pair_elem.2" }
%"class.content::RenderFrameHost" = type { %"class.IPC::Listener", %"class.IPC::Sender" }
%"class.IPC::Sender" = type { i32 (...)** }
%"class.std::__1::unique_ptr" = type { %"class.std::__1::__compressed_pair.4" }
%"class.std::__1::__compressed_pair.4" = type { %"struct.std::__1::__compressed_pair_elem.5" }
%"struct.std::__1::__compressed_pair_elem.5" = type { %"class.pdf::PDFWebContentsHelperClient"* }
%"class.content::TouchSelectionControllerClientManager" = type { i32 (...)** }
%"class.gfx::PointF" = type { float, float }
%"class.mojo::Remote" = type { %"class.mojo::internal::InterfacePtrState" }
%"class.mojo::internal::InterfacePtrState" = type { %"class.mojo::internal::InterfacePtrStateBase.base", %"class.std::__1::unique_ptr.209" }
%"class.mojo::internal::InterfacePtrStateBase.base" = type <{ %class.scoped_refptr.39, %"class.std::__1::unique_ptr.162", %"class.mojo::ScopedHandleBase", [4 x i8], %class.scoped_refptr.41, i32 }>
%class.scoped_refptr.39 = type { %"class.mojo::internal::MultiplexRouter"* }
%"class.mojo::internal::MultiplexRouter" = type <{ %"class.mojo::MessageReceiver", %"class.mojo::AssociatedGroupController.base", [4 x i8], %"class.mojo::PipeControlMessageHandlerDelegate", i32, i8, [3 x i8], %class.scoped_refptr.41, %"class.mojo::MessageHeaderValidator"*, %"class.mojo::MessageDispatcher", %"class.mojo::Connector", %"class.mojo::ScopedHandleBase", [4 x i8], %"class.absl::optional.125", %"class.absl::optional.130", %"class.absl::optional.77", %"class.mojo::PipeControlMessageHandler", %"class.mojo::PipeControlMessageProxy", %"class.base::small_map", i32, [4 x i8], %"class.base::circular_deque", %"class.std::__1::map.153", i8, [7 x i8], %class.scoped_refptr.41, i8, i8, i8, i8, i8, [3 x i8] }>
%"class.mojo::MessageReceiver" = type { i32 (...)** }
%"class.mojo::AssociatedGroupController.base" = type <{ i32 (...)**, %"class.base::RefCountedThreadSafe.40" }>
%"class.base::RefCountedThreadSafe.40" = type { %"class.base::subtle::RefCountedThreadSafeBase" }
%"class.mojo::PipeControlMessageHandlerDelegate" = type { i32 (...)** }
%"class.mojo::MessageHeaderValidator" = type { %"class.mojo::MessageReceiver", %"class.std::__1::basic_string" }
%"class.std::__1::basic_string" = type { %"class.std::__1::__compressed_pair.43" }
%"class.std::__1::__compressed_pair.43" = type { %"struct.std::__1::__compressed_pair_elem.44" }
%"struct.std::__1::__compressed_pair_elem.44" = type { %"struct.std::__1::basic_string<char, std::__1::char_traits<char>, std::__1::allocator<char> >::__rep" }
%"struct.std::__1::basic_string<char, std::__1::char_traits<char>, std::__1::allocator<char> >::__rep" = type { %union.anon }
%union.anon = type { %"struct.std::__1::basic_string<char, std::__1::char_traits<char>, std::__1::allocator<char> >::__long" }
%"struct.std::__1::basic_string<char, std::__1::char_traits<char>, std::__1::allocator<char> >::__long" = type { i8*, i64, i64 }
%"class.mojo::MessageDispatcher" = type { %"class.mojo::MessageReceiver", %"class.std::__1::unique_ptr.48", %"class.std::__1::unique_ptr.54", %"class.mojo::MessageReceiver"*, %"class.base::WeakPtrFactory.60" }
%"class.std::__1::unique_ptr.48" = type { %"class.std::__1::__compressed_pair.49" }
%"class.std::__1::__compressed_pair.49" = type { %"struct.std::__1::__compressed_pair_elem.50" }
%"struct.std::__1::__compressed_pair_elem.50" = type { %"class.mojo::MessageReceiver"* }
%"class.std::__1::unique_ptr.54" = type { %"class.std::__1::__compressed_pair.55" }
%"class.std::__1::__compressed_pair.55" = type { %"struct.std::__1::__compressed_pair_elem.56" }
%"struct.std::__1::__compressed_pair_elem.56" = type { %"class.mojo::MessageFilter"* }
%"class.mojo::MessageFilter" = type { i32 (...)** }
%"class.base::WeakPtrFactory.60" = type { %"class.base::internal::WeakPtrFactoryBase" }
%"class.mojo::Connector" = type { %"class.mojo::MessageReceiver", %"class.base::OnceCallback", %"class.mojo::ScopedHandleBase", %"class.mojo::MessageReceiver"*, %class.scoped_refptr.41, %"class.std::__1::unique_ptr.61", %"class.absl::optional", %"struct.std::__1::atomic.73", i8, i8, i8, i8, i32, i32, %"class.absl::optional.77", %"class.std::__1::unique_ptr.82", i8, i64, %class.scoped_refptr.114, %"class.base::Lock", i8, i8*, %"class.mojo::Connector::RunLoopNestingObserver"*, i8, i64, %"class.mojo::ConnectionGroup::Ref", %"class.base::WeakPtr", %"class.base::WeakPtrFactory.124" }
%"class.std::__1::unique_ptr.61" = type { %"class.std::__1::__compressed_pair.62" }
%"class.std::__1::__compressed_pair.62" = type { %"struct.std::__1::__compressed_pair_elem.63" }
%"struct.std::__1::__compressed_pair_elem.63" = type { %"class.mojo::SimpleWatcher"* }
%"class.mojo::SimpleWatcher" = type { i32, %class.scoped_refptr.41, i8, %"class.mojo::ScopedHandleBase.64", %class.scoped_refptr.65, %"class.mojo::Handle", i32, %"class.base::RepeatingCallback.66", i8*, %"class.base::WeakPtrFactory.67" }
%"class.mojo::ScopedHandleBase.64" = type { %"class.mojo::TrapHandle" }
%"class.mojo::TrapHandle" = type { %"class.mojo::Handle" }
%class.scoped_refptr.65 = type { %"class.mojo::SimpleWatcher::Context"* }
%"class.mojo::SimpleWatcher::Context" = type opaque
%"class.mojo::Handle" = type { i32 }
%"class.base::RepeatingCallback.66" = type { %"class.base::internal::CallbackBaseCopyable" }
%"class.base::WeakPtrFactory.67" = type { %"class.base::internal::WeakPtrFactoryBase" }
%"class.absl::optional" = type { %"class.absl::optional_internal::optional_data" }
%"class.absl::optional_internal::optional_data" = type { %"class.absl::optional_internal::optional_data_base" }
%"class.absl::optional_internal::optional_data_base" = type { %"class.absl::optional_internal::optional_data_dtor_base" }
%"class.absl::optional_internal::optional_data_dtor_base" = type { i8, %union.anon.71 }
%union.anon.71 = type { %"class.mojo::HandleSignalTracker" }
%"class.mojo::HandleSignalTracker" = type { %"class.base::RepeatingCallback.72", %"struct.mojo::HandleSignalsState", %"class.mojo::SimpleWatcher", %"class.mojo::SimpleWatcher" }
%"class.base::RepeatingCallback.72" = type { %"class.base::internal::CallbackBaseCopyable" }
%"struct.mojo::HandleSignalsState" = type { %struct.MojoHandleSignalsState }
%struct.MojoHandleSignalsState = type { i32, i32 }
%"struct.std::__1::atomic.73" = type { %"struct.std::__1::__atomic_base.74" }
%"struct.std::__1::__atomic_base.74" = type { %"struct.std::__1::__cxx_atomic_impl.75" }
%"struct.std::__1::__cxx_atomic_impl.75" = type { %"struct.std::__1::__cxx_atomic_base_impl.76" }
%"struct.std::__1::__cxx_atomic_base_impl.76" = type { i8 }
%"class.std::__1::unique_ptr.82" = type { %"class.std::__1::__compressed_pair.83" }
%"class.std::__1::__compressed_pair.83" = type { %"struct.std::__1::__compressed_pair_elem.84" }
%"struct.std::__1::__compressed_pair_elem.84" = type { %"class.mojo::SyncHandleWatcher"* }
%"class.mojo::SyncHandleWatcher" = type { %"class.mojo::Handle", i32, %"class.base::RepeatingCallback.85", i8, i64, %class.scoped_refptr.86, %class.scoped_refptr.110 }
%"class.base::RepeatingCallback.85" = type { %"class.base::internal::CallbackBaseCopyable" }
%class.scoped_refptr.86 = type { %"class.mojo::SyncHandleRegistry"* }
%"class.mojo::SyncHandleRegistry" = type <{ %"class.base::RefCounted", [4 x i8], %"class.mojo::WaitSet", %"class.std::__1::map.88", %"class.std::__1::map.99", i8, [7 x i8] }>
%"class.base::RefCounted" = type { %"class.base::subtle::RefCountedBase" }
%"class.base::subtle::RefCountedBase" = type { i32 }
%"class.mojo::WaitSet" = type { %class.scoped_refptr.87 }
%class.scoped_refptr.87 = type { %"class.mojo::WaitSet::State"* }
%"class.mojo::WaitSet::State" = type opaque
%"class.std::__1::map.88" = type { %"class.std::__1::__tree.89" }
%"class.std::__1::__tree.89" = type { %"class.std::__1::__tree_end_node"*, %"class.std::__1::__compressed_pair.90", %"class.std::__1::__compressed_pair.94" }
%"class.std::__1::__compressed_pair.90" = type { %"struct.std::__1::__compressed_pair_elem" }
%"class.std::__1::__compressed_pair.94" = type { %"struct.std::__1::__compressed_pair_elem.2" }
%"class.std::__1::map.99" = type { %"class.std::__1::__tree.100" }
%"class.std::__1::__tree.100" = type { %"class.std::__1::__tree_end_node"*, %"class.std::__1::__compressed_pair.101", %"class.std::__1::__compressed_pair.105" }
%"class.std::__1::__compressed_pair.101" = type { %"struct.std::__1::__compressed_pair_elem" }
%"class.std::__1::__compressed_pair.105" = type { %"struct.std::__1::__compressed_pair_elem.2" }
%class.scoped_refptr.110 = type { %"class.base::RefCountedData"* }
%"class.base::RefCountedData" = type opaque
%class.scoped_refptr.114 = type { %"class.mojo::internal::MessageQuotaChecker"* }
%"class.mojo::internal::MessageQuotaChecker" = type <{ %"class.base::RefCountedThreadSafe.115", [4 x i8], %"struct.mojo::internal::MessageQuotaChecker::Configuration"*, %"class.base::TimeTicks", %"struct.std::__1::atomic.117", %"struct.std::__1::atomic.117", %"struct.std::__1::atomic.117", %"class.base::Lock", %"class.mojo::internal::MessageQuotaChecker::DecayingRateAverage", i64, i64, %"class.mojo::MessagePipeHandle", [4 x i8] }>
%"class.base::RefCountedThreadSafe.115" = type { %"class.base::subtle::RefCountedThreadSafeBase" }
%"struct.mojo::internal::MessageQuotaChecker::Configuration" = type { i8, i64, i64, i64, {}* }
%"class.base::TimeTicks" = type { %"class.base::time_internal::TimeBase" }
%"class.base::time_internal::TimeBase" = type { i64 }
%"struct.std::__1::atomic.117" = type { %"struct.std::__1::__atomic_base.118" }
%"struct.std::__1::__atomic_base.118" = type { %"struct.std::__1::__atomic_base.119" }
%"struct.std::__1::__atomic_base.119" = type { %"struct.std::__1::__cxx_atomic_impl.120" }
%"struct.std::__1::__cxx_atomic_impl.120" = type { %"struct.std::__1::__cxx_atomic_base_impl.121" }
%"struct.std::__1::__cxx_atomic_base_impl.121" = type { i64 }
%"class.mojo::internal::MessageQuotaChecker::DecayingRateAverage" = type { i64, i64, double }
%"class.mojo::MessagePipeHandle" = type { %"class.mojo::Handle" }
%"class.base::Lock" = type { %"class.base::internal::LockImpl" }
%"class.base::internal::LockImpl" = type { %union.pthread_mutex_t }
%union.pthread_mutex_t = type { %struct.__pthread_mutex_s }
%struct.__pthread_mutex_s = type { i32, i32, i32, i32, i32, i16, i16, %struct.__pthread_internal_list }
%struct.__pthread_internal_list = type { %struct.__pthread_internal_list*, %struct.__pthread_internal_list* }
%"class.mojo::Connector::RunLoopNestingObserver" = type opaque
%"class.mojo::ConnectionGroup::Ref" = type { i32, %class.scoped_refptr.122 }
%class.scoped_refptr.122 = type { %"class.mojo::ConnectionGroup"* }
%"class.mojo::ConnectionGroup" = type <{ i32 (...)**, %"class.base::RefCountedThreadSafe.215", [4 x i8], %"class.base::RepeatingCallback", %class.scoped_refptr.41, %"class.mojo::ConnectionGroup::Ref", %"struct.std::__1::atomic.216", [4 x i8] }>
%"class.base::RefCountedThreadSafe.215" = type { %"class.base::subtle::RefCountedThreadSafeBase" }
%"struct.std::__1::atomic.216" = type { %"struct.std::__1::__atomic_base.217" }
%"struct.std::__1::__atomic_base.217" = type { %"struct.std::__1::__atomic_base.218" }
%"struct.std::__1::__atomic_base.218" = type { %"struct.std::__1::__cxx_atomic_impl.219" }
%"struct.std::__1::__cxx_atomic_impl.219" = type { %"struct.std::__1::__cxx_atomic_base_impl.220" }
%"struct.std::__1::__cxx_atomic_base_impl.220" = type { i32 }
%"class.base::WeakPtr" = type { %"class.base::internal::WeakPtrBase" }
%"class.base::internal::WeakPtrBase" = type { %"class.base::internal::WeakReference", i64 }
%"class.base::internal::WeakReference" = type { %class.scoped_refptr.123 }
%class.scoped_refptr.123 = type { %"class.base::internal::WeakReference::Flag"* }
%"class.base::WeakPtrFactory.124" = type { %"class.base::internal::WeakPtrFactoryBase" }
%"class.absl::optional.125" = type { %"class.absl::optional_internal::optional_data.126" }
%"class.absl::optional_internal::optional_data.126" = type { %"class.absl::optional_internal::optional_data_base.127" }
%"class.absl::optional_internal::optional_data_base.127" = type { %"class.absl::optional_internal::optional_data_dtor_base.128" }
%"class.absl::optional_internal::optional_data_dtor_base.128" = type { i8, %union.anon.129 }
%union.anon.129 = type { %"class.mojo::SimpleWatcher" }
%"class.absl::optional.130" = type { %"class.absl::optional_internal::optional_data.131" }
%"class.absl::optional_internal::optional_data.131" = type { %"class.absl::optional_internal::optional_data_base.132" }
%"class.absl::optional_internal::optional_data_base.132" = type { %"class.absl::optional_internal::optional_data_dtor_base.133" }
%"class.absl::optional_internal::optional_data_dtor_base.133" = type { i8, [7 x i8], %union.anon.134 }
%union.anon.134 = type { %"struct.mojo::internal::MultiplexRouter::ExclusiveSyncWaitInfo" }
%"struct.mojo::internal::MultiplexRouter::ExclusiveSyncWaitInfo" = type <{ i32, [4 x i8], i64, i8, [7 x i8] }>
%"class.absl::optional.77" = type { %"class.absl::optional_internal::optional_data.78" }
%"class.absl::optional_internal::optional_data.78" = type { %"class.absl::optional_internal::optional_data_base.79" }
%"class.absl::optional_internal::optional_data_base.79" = type { %"class.absl::optional_internal::optional_data_dtor_base.80" }
%"class.absl::optional_internal::optional_data_dtor_base.80" = type { i8, %union.anon.81 }
%union.anon.81 = type { %"class.base::Lock" }
%"class.mojo::PipeControlMessageHandler" = type { %"class.mojo::MessageReceiver", %"class.std::__1::basic_string", %"class.mojo::PipeControlMessageHandlerDelegate"* }
%"class.mojo::PipeControlMessageProxy" = type { %"class.mojo::MessageReceiver"* }
%"class.base::small_map" = type { i64, %"class.base::internal::small_map_default_init", %union.anon.139 }
%"class.base::internal::small_map_default_init" = type { i8 }
%union.anon.139 = type { %"class.std::__1::map.141" }
%"class.std::__1::map.141" = type { %"class.std::__1::__tree.142" }
%"class.std::__1::__tree.142" = type { %"class.std::__1::__tree_end_node"*, %"class.std::__1::__compressed_pair.143", %"class.std::__1::__compressed_pair.147" }
%"class.std::__1::__compressed_pair.143" = type { %"struct.std::__1::__compressed_pair_elem" }
%"class.std::__1::__compressed_pair.147" = type { %"struct.std::__1::__compressed_pair_elem.2" }
%"class.base::circular_deque" = type { %"class.base::internal::VectorBuffer", i64, i64 }
%"class.base::internal::VectorBuffer" = type { %"class.std::__1::unique_ptr.152"*, i64 }
%"class.std::__1::unique_ptr.152" = type opaque
%"class.std::__1::map.153" = type { %"class.std::__1::__tree.154" }
%"class.std::__1::__tree.154" = type { %"class.std::__1::__tree_end_node"*, %"class.std::__1::__compressed_pair.155", %"class.std::__1::__compressed_pair.159" }
%"class.std::__1::__compressed_pair.155" = type { %"struct.std::__1::__compressed_pair_elem" }
%"class.std::__1::__compressed_pair.159" = type { %"struct.std::__1::__compressed_pair_elem.2" }
%"class.std::__1::unique_ptr.162" = type { %"class.std::__1::__compressed_pair.163" }
%"class.std::__1::__compressed_pair.163" = type { %"struct.std::__1::__compressed_pair_elem.164" }
%"struct.std::__1::__compressed_pair_elem.164" = type { %"class.mojo::InterfaceEndpointClient"* }
%"class.mojo::InterfaceEndpointClient" = type { %"class.mojo::MessageReceiverWithResponder", i8, %"class.base::RepeatingCallback", %"class.base::OnceCallback.165", %"class.absl::optional.166", %"class.absl::optional.171", %"class.mojo::ConnectionGroup::Ref", i32, %"class.mojo::ScopedInterfaceEndpointHandle", %"class.std::__1::unique_ptr.178", %"class.mojo::InterfaceEndpointController"*, %"class.mojo::MessageReceiverWithResponderStatus"*, %"class.mojo::InterfaceEndpointClient::HandleIncomingMessageThunk", %"class.mojo::MessageDispatcher", %"class.std::__1::map.186", %"class.std::__1::map.195", i64, %"class.base::OnceCallback", %"class.base::OnceCallback.204", i8, %class.scoped_refptr.41, %"class.mojo::internal::ControlMessageProxy", %"class.mojo::internal::ControlMessageHandler", i8*, %"class.base::WeakPtrFactory.205" }
%"class.mojo::MessageReceiverWithResponder" = type { %"class.mojo::MessageReceiver" }
%"class.base::OnceCallback.165" = type { %"class.base::internal::CallbackBase" }
%"class.absl::optional.166" = type { %"class.absl::optional_internal::optional_data.167" }
%"class.absl::optional_internal::optional_data.167" = type { %"class.absl::optional_internal::optional_data_base.168" }
%"class.absl::optional_internal::optional_data_base.168" = type { %"class.absl::optional_internal::optional_data_dtor_base.169" }
%"class.absl::optional_internal::optional_data_dtor_base.169" = type { i8, %union.anon.170 }
%union.anon.170 = type { %"class.base::TimeDelta" }
%"class.base::TimeDelta" = type { i64 }
%"class.absl::optional.171" = type { %"class.absl::optional_internal::optional_data.172" }
%"class.absl::optional_internal::optional_data.172" = type { %"class.absl::optional_internal::optional_data_base.173" }
%"class.absl::optional_internal::optional_data_base.173" = type { %"class.absl::optional_internal::optional_data_dtor_base.174" }
%"class.absl::optional_internal::optional_data_dtor_base.174" = type { i8, %union.anon.175 }
%union.anon.175 = type { %"class.base::OneShotTimer" }
%"class.base::OneShotTimer" = type { %"class.base::internal::TimerBase", %"class.base::OnceCallback" }
%"class.base::internal::TimerBase" = type { i32 (...)**, %class.scoped_refptr.41, %"class.base::SequenceCheckerDoNothing", %"class.base::internal::TaskDestructionDetector"*, %"class.base::Location", %"class.base::TimeDelta", %"class.base::TimeTicks", %"class.base::TimeTicks", %"class.base::TickClock"*, i8, %"class.base::WeakPtrFactory.176" }
%"class.base::SequenceCheckerDoNothing" = type { i8 }
%"class.base::internal::TaskDestructionDetector" = type opaque
%"class.base::Location" = type { i8*, i8*, i32, i8* }
%"class.base::TickClock" = type { i32 (...)** }
%"class.base::WeakPtrFactory.176" = type { %"class.base::internal::WeakPtrFactoryBase" }
%"class.mojo::ScopedInterfaceEndpointHandle" = type { %class.scoped_refptr.177 }
%class.scoped_refptr.177 = type { %"class.mojo::ScopedInterfaceEndpointHandle::State"* }
%"class.mojo::ScopedInterfaceEndpointHandle::State" = type opaque
%"class.std::__1::unique_ptr.178" = type { %"class.std::__1::__compressed_pair.179" }
%"class.std::__1::__compressed_pair.179" = type { %"struct.std::__1::__compressed_pair_elem.180" }
%"struct.std::__1::__compressed_pair_elem.180" = type { %"class.mojo::AssociatedGroup"* }
%"class.mojo::AssociatedGroup" = type { %"class.base::RepeatingCallback.181", %class.scoped_refptr.182 }
%"class.base::RepeatingCallback.181" = type { %"class.base::internal::CallbackBaseCopyable" }
%class.scoped_refptr.182 = type { %"class.mojo::AssociatedGroupController"* }
%"class.mojo::AssociatedGroupController" = type <{ i32 (...)**, %"class.base::RefCountedThreadSafe.40", [4 x i8] }>
%"class.mojo::InterfaceEndpointController" = type opaque
%"class.mojo::MessageReceiverWithResponderStatus" = type { %"class.mojo::MessageReceiver" }
%"class.mojo::InterfaceEndpointClient::HandleIncomingMessageThunk" = type { %"class.mojo::MessageReceiver", %"class.mojo::InterfaceEndpointClient"* }
%"class.std::__1::map.186" = type { %"class.std::__1::__tree.187" }
%"class.std::__1::__tree.187" = type { %"class.std::__1::__tree_end_node"*, %"class.std::__1::__compressed_pair.188", %"class.std::__1::__compressed_pair.192" }
%"class.std::__1::__compressed_pair.188" = type { %"struct.std::__1::__compressed_pair_elem" }
%"class.std::__1::__compressed_pair.192" = type { %"struct.std::__1::__compressed_pair_elem.2" }
%"class.std::__1::map.195" = type { %"class.std::__1::__tree.196" }
%"class.std::__1::__tree.196" = type { %"class.std::__1::__tree_end_node"*, %"class.std::__1::__compressed_pair.197", %"class.std::__1::__compressed_pair.201" }
%"class.std::__1::__compressed_pair.197" = type { %"struct.std::__1::__compressed_pair_elem" }
%"class.std::__1::__compressed_pair.201" = type { %"struct.std::__1::__compressed_pair_elem.2" }
%"class.base::OnceCallback.204" = type { %"class.base::internal::CallbackBase" }
%"class.mojo::internal::ControlMessageProxy" = type { %"class.mojo::InterfaceEndpointClient"*, i8, %"class.base::OnceCallback" }
%"class.mojo::internal::ControlMessageHandler" = type <{ %"class.mojo::MessageReceiverWithResponderStatus", %"class.mojo::InterfaceEndpointClient"*, i32, [4 x i8] }>
%"class.base::WeakPtrFactory.205" = type { %"class.base::internal::WeakPtrFactoryBase" }
%"class.mojo::ScopedHandleBase" = type { %"class.mojo::MessagePipeHandle" }
%class.scoped_refptr.41 = type { %"class.base::SequencedTaskRunner"* }
%"class.base::SequencedTaskRunner" = type { %"class.base::TaskRunner.base", [4 x i8] }
%"class.base::TaskRunner.base" = type <{ i32 (...)**, %"class.base::RefCountedThreadSafe.42" }>
%"class.base::RefCountedThreadSafe.42" = type { %"class.base::subtle::RefCountedThreadSafeBase" }
%"class.std::__1::unique_ptr.209" = type { %"class.std::__1::__compressed_pair.210" }
%"class.std::__1::__compressed_pair.210" = type { %"struct.std::__1::__compressed_pair_elem.211" }
%"struct.std::__1::__compressed_pair_elem.211" = type { %"class.pdf::mojom::PdfListenerProxy"* }
%"class.pdf::mojom::PdfListenerProxy" = type { %"class.pdf::mojom::PdfListener", %"class.mojo::MessageReceiverWithResponder"* }
%"class.pdf::mojom::PdfListener" = type { i32 (...)** }
%"class.content::WebContents" = type <{ %"class.content::PageNavigator", %"class.base::SupportsUserData.base", [7 x i8] }>
%"class.content::PageNavigator" = type { i32 (...)** }
%"class.base::SupportsUserData.base" = type <{ i32 (...)**, %"class.std::__1::map", %"class.base::SequenceCheckerDoNothing" }>
%"class.std::__1::map" = type { %"class.std::__1::__tree" }
%"class.std::__1::__tree" = type { %"class.std::__1::__tree_end_node"*, %"class.std::__1::__compressed_pair", %"class.std::__1::__compressed_pair.1" }
%"class.std::__1::__compressed_pair" = type { %"struct.std::__1::__compressed_pair_elem" }
%"class.std::__1::__compressed_pair.1" = type { %"struct.std::__1::__compressed_pair_elem.2" }
%"class.pdf::PDFWebContentsHelperClient" = type { i32 (...)** }
%"class.base::SupportsUserData" = type <{ i32 (...)**, %"class.std::__1::map", %"class.base::SequenceCheckerDoNothing", [7 x i8] }>
%"class.mojo::internal::InterfacePtrStateBase" = type <{ %class.scoped_refptr.39, %"class.std::__1::unique_ptr.162", %"class.mojo::ScopedHandleBase", [4 x i8], %class.scoped_refptr.41, i32, [4 x i8] }>
%"class.std::__1::__basic_string_common" = type { i8 }
%"struct.std::__1::basic_string<char, std::__1::char_traits<char>, std::__1::allocator<char> >::__short" = type { [23 x i8], %struct.anon }
%struct.anon = type { i8 }
%"class.ui::TouchSelectionController" = type <{ %"class.ui::TouchHandleClient", %"class.ui::LongPressDragSelectorClient", %"class.ui::TouchSelectionControllerClient"*, %"struct.ui::TouchSelectionController::Config", i32, %"class.gfx::SelectionBound", %"class.gfx::SelectionBound", i32, i32, i32, %"class.std::__1::unique_ptr.233", %"class.std::__1::unique_ptr.233", %"class.std::__1::unique_ptr.233", i8, i8, [6 x i8], %"class.ui::LongPressDragSelector", %"class.gfx::RectF", %"class.base::TimeTicks", i8, i8, i8, [5 x i8] }>
%"class.ui::TouchHandleClient" = type { %"class.ui::TouchSelectionDraggableClient" }
%"class.ui::TouchSelectionDraggableClient" = type { i32 (...)** }
%"class.ui::LongPressDragSelectorClient" = type { %"class.ui::TouchSelectionDraggableClient" }
%"struct.ui::TouchSelectionController::Config" = type <{ %"class.base::TimeDelta", float, i8, i8, i8, i8 }>
%"class.gfx::SelectionBound" = type <{ i32, %"class.gfx::PointF", %"class.gfx::PointF", %"class.gfx::PointF", %"class.gfx::PointF", %"class.gfx::Point", %"class.gfx::Point", i8, [3 x i8] }>
%"class.gfx::Point" = type { i32, i32 }
%"class.std::__1::unique_ptr.233" = type { %"class.std::__1::__compressed_pair.234" }
%"class.std::__1::__compressed_pair.234" = type { %"struct.std::__1::__compressed_pair_elem.235" }
%"struct.std::__1::__compressed_pair_elem.235" = type { %"class.ui::TouchHandle"* }
%"class.ui::TouchHandle" = type { %"class.ui::TouchSelectionDraggable", %"class.std::__1::unique_ptr.236", %"class.ui::TouchHandleClient"*, %"class.gfx::PointF", %"class.gfx::PointF", %"class.gfx::RectF", i32, i32, %"class.gfx::PointF", %"class.gfx::Vector2dF", %"class.base::TimeTicks", %"class.base::TimeTicks", %"class.gfx::PointF", float, i8, i8, i8, i8, i8, i8, i8, i8, float }
%"class.ui::TouchSelectionDraggable" = type { i32 (...)** }
%"class.std::__1::unique_ptr.236" = type { %"class.std::__1::__compressed_pair.237" }
%"class.std::__1::__compressed_pair.237" = type { %"struct.std::__1::__compressed_pair_elem.238" }
%"struct.std::__1::__compressed_pair_elem.238" = type { %"class.ui::TouchHandleDrawable"* }
%"class.ui::TouchHandleDrawable" = type { i32 (...)** }
%"class.gfx::Vector2dF" = type { float, float }
%"class.ui::LongPressDragSelector" = type <{ %"class.ui::TouchSelectionDraggable", %"class.ui::LongPressDragSelectorClient"*, i32, [4 x i8], %"class.base::TimeTicks", %"class.gfx::PointF", %"class.gfx::Vector2dF", %"class.gfx::PointF", i8, [7 x i8] }>
%"class.gfx::RectF" = type { %"class.gfx::PointF", %"class.gfx::SizeF" }
%"class.gfx::SizeF" = type { float, float }
%"class.std::__1::__tree_node" = type { %"class.std::__1::__tree_node_base.base", %"struct.std::__1::__value_type" }
%"class.std::__1::__tree_node_base.base" = type <{ %"class.std::__1::__tree_end_node", %"class.std::__1::__tree_node_base"*, %"class.std::__1::__tree_end_node"*, i8 }>
%"struct.std::__1::__value_type" = type { %"struct.std::__1::pair.298" }
%"struct.std::__1::pair.298" = type { %"class.content::RenderFrameHost"*, %"class.std::__1::vector.299" }
%"class.std::__1::vector.299" = type { %"class.std::__1::__vector_base.300" }
%"class.std::__1::__vector_base.300" = type { i64*, i64*, %"class.std::__1::__compressed_pair.301" }
%"class.std::__1::__compressed_pair.301" = type { %"struct.std::__1::__compressed_pair_elem.302" }
%"struct.std::__1::__compressed_pair_elem.302" = type { i64* }
%"class.mojo::PendingRemote" = type { %"struct.mojo::internal::PendingRemoteState" }
%"struct.mojo::internal::PendingRemoteState" = type { %"class.mojo::ScopedHandleBase", i32 }
%"class.content::RenderWidgetHostView" = type { i32 (...)** }
%"class.content::RenderWidgetHost" = type { i32 (...)** }
%"class.std::__1::basic_string.245" = type { %"class.std::__1::__compressed_pair.246" }
%"class.std::__1::__compressed_pair.246" = type { %"struct.std::__1::__compressed_pair_elem.247" }
%"struct.std::__1::__compressed_pair_elem.247" = type { %"struct.std::__1::basic_string<char16_t, std::__1::char_traits<char16_t>, std::__1::allocator<char16_t> >::__rep" }
%"struct.std::__1::basic_string<char16_t, std::__1::char_traits<char16_t>, std::__1::allocator<char16_t> >::__rep" = type { %union.anon.248 }
%union.anon.248 = type { %"struct.std::__1::basic_string<char16_t, std::__1::char_traits<char16_t>, std::__1::allocator<char16_t> >::__long" }
%"struct.std::__1::basic_string<char16_t, std::__1::char_traits<char16_t>, std::__1::allocator<char16_t> >::__long" = type { i16*, i64, i64 }
%class.GURL = type { %"class.std::__1::basic_string", i8, %"struct.url::Parsed", %"class.std::__1::unique_ptr.254" }
%"struct.url::Parsed" = type { %"struct.url::Component", %"struct.url::Component", %"struct.url::Component", %"struct.url::Component", %"struct.url::Component", %"struct.url::Component", %"struct.url::Component", %"struct.url::Component", i8, %"struct.url::Parsed"* }
%"struct.url::Component" = type { i32, i32 }
%"class.std::__1::unique_ptr.254" = type { %"class.std::__1::__compressed_pair.255" }
%"class.std::__1::__compressed_pair.255" = type { %"struct.std::__1::__compressed_pair_elem.256" }
%"struct.std::__1::__compressed_pair_elem.256" = type { %class.GURL* }
%"class.mojo::StructPtr" = type { %"class.std::__1::unique_ptr.260" }
%"class.std::__1::unique_ptr.260" = type { %"class.std::__1::__compressed_pair.261" }
%"class.std::__1::__compressed_pair.261" = type { %"struct.std::__1::__compressed_pair_elem.262" }
%"struct.std::__1::__compressed_pair_elem.262" = type { %"class.blink::mojom::Referrer"* }
%"class.blink::mojom::Referrer" = type <{ %class.GURL, i32, [4 x i8] }>
%"struct.content::Referrer" = type <{ %class.GURL, i32, [4 x i8] }>
%"class.IPC::Message" = type { %"class.base::Pickle", i8, %class.scoped_refptr.266 }
%"class.base::Pickle" = type { i32 (...)**, %"struct.base::Pickle::Header"*, i64, i64, i64 }
%"struct.base::Pickle::Header" = type { i32 }
%class.scoped_refptr.266 = type { %"class.IPC::MessageAttachmentSet"* }
%"class.IPC::MessageAttachmentSet" = type opaque
%"class.blink::mojom::CaptureHandleConfig" = type opaque
%"class.content::RenderViewHost" = type opaque
%"class.content::RenderProcessHost" = type opaque
%"class.content::NavigationHandle" = type { %"class.base::SupportsUserData.base", [7 x i8] }
%"struct.content::GlobalRequestID" = type { i32, i32 }
%"class.blink::mojom::ResourceLoadInfo" = type opaque
%"struct.content::CookieAccessDetails" = type <{ i32, [4 x i8], %class.GURL, %class.GURL, %"class.std::__1::vector", i8, [7 x i8] }>
%"class.std::__1::vector" = type { %"class.std::__1::__vector_base" }
%"class.std::__1::__vector_base" = type { %"class.net::CanonicalCookie"*, %"class.net::CanonicalCookie"*, %"class.std::__1::__compressed_pair.268" }
%"class.net::CanonicalCookie" = type { %"class.std::__1::basic_string", %"class.std::__1::basic_string", %"class.std::__1::basic_string", %"class.std::__1::basic_string", %"class.base::Time", %"class.base::Time", %"class.base::Time", i8, i8, i32, i32, i8, i32, i32 }
%"class.base::Time" = type { %"class.base::time_internal::TimeBase.267" }
%"class.base::time_internal::TimeBase.267" = type { i64 }
%"class.std::__1::__compressed_pair.268" = type { %"struct.std::__1::__compressed_pair_elem.269" }
%"struct.std::__1::__compressed_pair_elem.269" = type { %"class.net::CanonicalCookie"* }
%"struct.content::LoadCommittedDetails" = type opaque
%"struct.content::PrunedDetails" = type opaque
%"struct.content::EntryChangedDetails" = type opaque
%"class.blink::WebInputEvent" = type { i32 (...)**, float, %"class.gfx::Vector2dF", %"class.base::TimeTicks", i32, i32 }
%"class.gfx::Size" = type { i32, i32 }
%"class.content::NavigationEntry" = type opaque
%"class.base::FilePath" = type { %"class.std::__1::basic_string" }
%"struct.blink::UserAgentOverride" = type { %"class.std::__1::basic_string", %"class.absl::optional.273" }
%"class.absl::optional.273" = type { %"class.absl::optional_internal::optional_data.274" }
%"class.absl::optional_internal::optional_data.274" = type { %"class.absl::optional_internal::optional_data_base.275" }
%"class.absl::optional_internal::optional_data_base.275" = type { %"class.absl::optional_internal::optional_data_dtor_base.276" }
%"class.absl::optional_internal::optional_data_dtor_base.276" = type { i8, [7 x i8], %union.anon.277 }
%union.anon.277 = type { %"struct.blink::UserAgentMetadata" }
%"struct.blink::UserAgentMetadata" = type <{ %"class.std::__1::vector.278", %"class.std::__1::basic_string", %"class.std::__1::basic_string", %"class.std::__1::basic_string", %"class.std::__1::basic_string", %"class.std::__1::basic_string", i8, [7 x i8] }>
%"class.std::__1::vector.278" = type { %"class.std::__1::__vector_base.279" }
%"class.std::__1::__vector_base.279" = type { %"struct.blink::UserAgentBrandVersion"*, %"struct.blink::UserAgentBrandVersion"*, %"class.std::__1::__compressed_pair.280" }
%"struct.blink::UserAgentBrandVersion" = type { %"class.std::__1::basic_string", %"class.std::__1::basic_string" }
%"class.std::__1::__compressed_pair.280" = type { %"struct.std::__1::__compressed_pair_elem.281" }
%"struct.std::__1::__compressed_pair_elem.281" = type { %"struct.blink::UserAgentBrandVersion"* }
%"class.std::__1::vector.285" = type opaque
%"struct.content::AXEventNotificationDetails" = type opaque
%"class.std::__1::vector.286" = type opaque
%"class.absl::optional.287" = type { %"class.absl::optional_internal::optional_data.288" }
%"class.absl::optional_internal::optional_data.288" = type { %"class.absl::optional_internal::optional_data_base.289" }
%"class.absl::optional_internal::optional_data_base.289" = type { %"class.absl::optional_internal::optional_data_dtor_base.290" }
%"class.absl::optional_internal::optional_data_dtor_base.290" = type { i8, %union.anon.291 }
%union.anon.291 = type { %"class.std::__1::basic_string.245" }
%"struct.content::WebContentsObserver::MediaPlayerInfo" = type { i8, i8 }
%"struct.content::MediaPlayerId" = type opaque
%"struct.content::FocusedNodeDetails" = type opaque
%"class.absl::optional.292" = type { %"class.absl::optional_internal::optional_data.293" }
%"class.absl::optional_internal::optional_data.293" = type { %"class.absl::optional_internal::optional_data_base.294" }
%"class.absl::optional_internal::optional_data_base.294" = type { %"class.absl::optional_internal::optional_data_dtor_base.295" }
%"class.absl::optional_internal::optional_data_dtor_base.295" = type { i8, %union.anon.296 }
%union.anon.296 = type { %class.GURL }
%"struct.std::__1::pair.297" = type opaque
%"class.mojo::PendingAssociatedReceiver" = type { %"class.mojo::ScopedInterfaceEndpointHandle" }
%"class.std::__1::__vector_base_common" = type { i8 }
%"class.std::__1::__tree_node.357" = type { %"class.std::__1::__tree_node_base.base", %"struct.std::__1::__value_type.358" }
%"struct.std::__1::__value_type.358" = type { %"struct.std::__1::pair.359" }
%"struct.std::__1::pair.359" = type { i64, %"class.std::__1::unique_ptr.360" }
%"class.std::__1::unique_ptr.360" = type { %"class.std::__1::__compressed_pair.361" }
%"class.std::__1::__compressed_pair.361" = type { %"struct.std::__1::__compressed_pair_elem.362" }
%"struct.std::__1::__compressed_pair_elem.362" = type { %"class.mojo::ReceiverSetState::Entry"* }
%"class.mojo::ReceiverSetState::Entry" = type { %"class.mojo::ReceiverSetState"*, i64, %"class.std::__1::unique_ptr.306" }
%"class.std::__1::unique_ptr.306" = type { %"class.std::__1::__compressed_pair.307" }
%"class.std::__1::__compressed_pair.307" = type { %"struct.std::__1::__compressed_pair_elem.308" }
%"struct.std::__1::__compressed_pair_elem.308" = type { %"class.mojo::ReceiverSetState::ReceiverState"* }
%"class.mojo::ReceiverSetState::ReceiverState" = type { i32 (...)** }
%"class.mojo::AssociatedReceiver" = type { %"class.mojo::internal::AssociatedReceiverBase", %"class.pdf::mojom::PdfServiceStub", %"class.base::WeakPtrFactory.315" }
%"class.mojo::internal::AssociatedReceiverBase" = type { %"class.std::__1::unique_ptr.162" }
%"class.pdf::mojom::PdfServiceStub" = type { %"class.mojo::MessageReceiverWithResponderStatus", %"class.pdf::mojom::PdfService"* }
%"class.base::WeakPtrFactory.315" = type { %"class.base::internal::WeakPtrFactoryBase" }
%"class.mojo::ReceiverSetBase<mojo::AssociatedReceiver<pdf::mojom::PdfService, mojo::RawPtrImplRefTraits<pdf::mojom::PdfService> >, content::RenderFrameHost *>::ReceiverEntry" = type { %"class.mojo::ReceiverSetState::ReceiverState", %"class.mojo::AssociatedReceiver", %"class.content::RenderFrameHost"* }
%"class.base::TaskRunner" = type <{ i32 (...)**, %"class.base::RefCountedThreadSafe.42", [4 x i8] }>
%"class.mojo::Message" = type { %"class.mojo::ScopedHandleBase.319", %"class.mojo::internal::Buffer", %"class.std::__1::vector.320", %"class.std::__1::vector.328", %"class.mojo::ConnectionGroup::Ref"*, i8, i8, i8* }
%"class.mojo::ScopedHandleBase.319" = type { %"class.mojo::MessageHandle" }
%"class.mojo::MessageHandle" = type { i64 }
%"class.mojo::internal::Buffer" = type { %"class.mojo::MessageHandle", i64, i8*, i64, i64 }
%"class.std::__1::vector.320" = type { %"class.std::__1::__vector_base.321" }
%"class.std::__1::__vector_base.321" = type { %"class.mojo::ScopedHandleBase.322"*, %"class.mojo::ScopedHandleBase.322"*, %"class.std::__1::__compressed_pair.323" }
%"class.mojo::ScopedHandleBase.322" = type { %"class.mojo::Handle" }
%"class.std::__1::__compressed_pair.323" = type { %"struct.std::__1::__compressed_pair_elem.324" }
%"struct.std::__1::__compressed_pair_elem.324" = type { %"class.mojo::ScopedHandleBase.322"* }
%"class.std::__1::vector.328" = type { %"class.std::__1::__vector_base.329" }
%"class.std::__1::__vector_base.329" = type { %"class.mojo::ScopedInterfaceEndpointHandle"*, %"class.mojo::ScopedInterfaceEndpointHandle"*, %"class.std::__1::__compressed_pair.330" }
%"class.std::__1::__compressed_pair.330" = type { %"struct.std::__1::__compressed_pair_elem.331" }
%"struct.std::__1::__compressed_pair_elem.331" = type { %"class.mojo::ScopedInterfaceEndpointHandle"* }
%"class.mojo::MessageReceiverWithStatus" = type { %"class.mojo::MessageReceiver" }
%"class.mojo::PassThroughFilter" = type { %"class.mojo::MessageReceiver" }

$_ZN7content27WebContentsFrameReceiverSetIN3pdf5mojom10PdfServiceEEC2EPNS_11WebContentsEPS3_ = comdat any

$_ZN3IPC8Listener18OnChannelConnectedEi = comdat any

$_ZN3IPC8Listener14OnChannelErrorEv = comdat any

$_ZN3IPC8Listener20OnBadMessageReceivedERKNS_7MessageE = comdat any

$_ZN3IPC8Listener28OnAssociatedInterfaceRequestERKNSt3__112basic_stringIcNS1_11char_traitsIcEENS1_9allocatorIcEEEEN4mojo29ScopedInterfaceEndpointHandleE = comdat any

$_ZN3IPC8Listener15OnChannelDeniedEv = comdat any

$_ZN3IPC8Listener20OnChannelListenErrorEv = comdat any

$_ZN7content19WebContentsObserver18RenderFrameCreatedEPNS_15RenderFrameHostE = comdat any

$_ZN7content19WebContentsObserver18RenderFrameDeletedEPNS_15RenderFrameHostE = comdat any

$_ZN7content19WebContentsObserver22RenderFrameHostChangedEPNS_15RenderFrameHostES2_ = comdat any

$_ZN7content19WebContentsObserver12FrameDeletedEi = comdat any

$_ZN7content19WebContentsObserver27RenderFrameHostStateChangedEPNS_15RenderFrameHostENS1_14LifecycleStateES3_ = comdat any

$_ZN7content19WebContentsObserver20CaptureTargetChangedEv = comdat any

$_ZN7content19WebContentsObserver27OnCaptureHandleConfigUpdateERKN5blink5mojom19CaptureHandleConfigE = comdat any

$_ZN7content19WebContentsObserver15RenderViewReadyEv = comdat any

$_ZN7content19WebContentsObserver17RenderViewDeletedEPNS_14RenderViewHostE = comdat any

$_ZN7content19WebContentsObserver17RenderProcessGoneEN4base17TerminationStatusE = comdat any

$_ZN7content19WebContentsObserver21RenderViewHostChangedEPNS_14RenderViewHostES2_ = comdat any

$_ZN7content19WebContentsObserver22OnRendererUnresponsiveEPNS_17RenderProcessHostE = comdat any

$_ZN7content19WebContentsObserver20OnRendererResponsiveEPNS_17RenderProcessHostE = comdat any

$_ZN7content19WebContentsObserver18DidStartNavigationEPNS_16NavigationHandleE = comdat any

$_ZN7content19WebContentsObserver21DidRedirectNavigationEPNS_16NavigationHandleE = comdat any

$_ZN7content19WebContentsObserver23ReadyToCommitNavigationEPNS_16NavigationHandleE = comdat any

$_ZN7content19WebContentsObserver19DidFinishNavigationEPNS_16NavigationHandleE = comdat any

$_ZN7content19WebContentsObserver17DidActivatePortalEPNS_11WebContentsEN4base9TimeTicksE = comdat any

$_ZN7content19WebContentsObserver15DidStartLoadingEv = comdat any

$_ZN7content19WebContentsObserver18DidReceiveResponseEv = comdat any

$_ZN7content19WebContentsObserver14DidStopLoadingEv = comdat any

$_ZN7content19WebContentsObserver19LoadProgressChangedEd = comdat any

$_ZN7content19WebContentsObserver28DocumentAvailableInMainFrameEPNS_15RenderFrameHostE = comdat any

$_ZN7content19WebContentsObserver34DocumentOnLoadCompletedInMainFrameEPNS_15RenderFrameHostE = comdat any

$_ZN7content19WebContentsObserver16DOMContentLoadedEPNS_15RenderFrameHostE = comdat any

$_ZN7content19WebContentsObserver13DidFinishLoadEPNS_15RenderFrameHostERK4GURL = comdat any

$_ZN7content19WebContentsObserver11DidFailLoadEPNS_15RenderFrameHostERK4GURLi = comdat any

$_ZN7content19WebContentsObserver29DidChangeVisibleSecurityStateEv = comdat any

$_ZN7content19WebContentsObserver30DidLoadResourceFromMemoryCacheEPNS_15RenderFrameHostERK4GURLRKNSt3__112basic_stringIcNS6_11char_traitsIcEENS6_9allocatorIcEEEEN7network5mojom18RequestDestinationE = comdat any

$_ZN7content19WebContentsObserver20ResourceLoadCompleteEPNS_15RenderFrameHostERKNS_15GlobalRequestIDERKN5blink5mojom16ResourceLoadInfoE = comdat any

$_ZN7content19WebContentsObserver17OnCookiesAccessedEPNS_15RenderFrameHostERKNS_19CookieAccessDetailsE = comdat any

$_ZN7content19WebContentsObserver17OnCookiesAccessedEPNS_16NavigationHandleERKNS_19CookieAccessDetailsE = comdat any

$_ZN7content19WebContentsObserver24NavigationEntryCommittedERKNS_20LoadCommittedDetailsE = comdat any

$_ZN7content19WebContentsObserver20NavigationListPrunedERKNS_13PrunedDetailsE = comdat any

$_ZN7content19WebContentsObserver24NavigationEntriesDeletedEv = comdat any

$_ZN7content19WebContentsObserver22NavigationEntryChangedERKNS_19EntryChangedDetailsE = comdat any

$_ZN7content19WebContentsObserver19DidOpenRequestedURLEPNS_11WebContentsEPNS_15RenderFrameHostERK4GURLRKNS_8ReferrerE21WindowOpenDispositionN2ui14PageTransitionEbb = comdat any

$_ZN7content19WebContentsObserver29DidFirstVisuallyNonEmptyPaintEv = comdat any

$_ZN7content19WebContentsObserver17NavigationStoppedEv = comdat any

$_ZN7content19WebContentsObserver21DidGetUserInteractionERKN5blink13WebInputEventE = comdat any

$_ZN7content19WebContentsObserver20DidGetIgnoredUIEventEv = comdat any

$_ZN7content19WebContentsObserver19OnVisibilityChangedENS_10VisibilityE = comdat any

$_ZN7content19WebContentsObserver19MainFrameWasResizedEb = comdat any

$_ZN7content19WebContentsObserver16FrameNameChangedEPNS_15RenderFrameHostERKNSt3__112basic_stringIcNS3_11char_traitsIcEENS3_9allocatorIcEEEE = comdat any

$_ZN7content19WebContentsObserver27FrameReceivedUserActivationEPNS_15RenderFrameHostE = comdat any

$_ZN7content19WebContentsObserver24FrameDisplayStateChangedEPNS_15RenderFrameHostEb = comdat any

$_ZN7content19WebContentsObserver16FrameSizeChangedEPNS_15RenderFrameHostERKN3gfx4SizeE = comdat any

$_ZN7content19WebContentsObserver11TitleWasSetEPNS_15NavigationEntryE = comdat any

$_ZN7content19WebContentsObserver16AppCacheAccessedERK4GURLb = comdat any

$_ZN7content19WebContentsObserver21PepperInstanceCreatedEv = comdat any

$_ZN7content19WebContentsObserver21PepperInstanceDeletedEv = comdat any

$_ZN7content19WebContentsObserver18ViewportFitChangedEN5blink5mojom11ViewportFitE = comdat any

$_ZN7content19WebContentsObserver13PluginCrashedERKN4base8FilePathEi = comdat any

$_ZN7content19WebContentsObserver23PluginHungStatusChangedEiRKN4base8FilePathEb = comdat any

$_ZN7content19WebContentsObserver23InnerWebContentsCreatedEPNS_11WebContentsE = comdat any

$_ZN7content19WebContentsObserver24InnerWebContentsAttachedEPNS_11WebContentsEPNS_15RenderFrameHostEb = comdat any

$_ZN7content19WebContentsObserver24InnerWebContentsDetachedEPNS_11WebContentsE = comdat any

$_ZN7content19WebContentsObserver24DidCloneToNewWebContentsEPNS_11WebContentsES2_ = comdat any

$_ZN7content19WebContentsObserver20WebContentsDestroyedEv = comdat any

$_ZN7content19WebContentsObserver20UserAgentOverrideSetERKN5blink17UserAgentOverrideE = comdat any

$_ZN7content19WebContentsObserver19DidUpdateFaviconURLEPNS_15RenderFrameHostERKNSt3__16vectorIN4mojo9StructPtrIN5blink5mojom10FaviconURLEEENS3_9allocatorISA_EEEE = comdat any

$_ZN7content19WebContentsObserver19OnAudioStateChangedEb = comdat any

$_ZN7content19WebContentsObserver24OnFrameAudioStateChangedEPNS_15RenderFrameHostEb = comdat any

$_ZN7content19WebContentsObserver37OnIsConnectedToBluetoothDeviceChangedEb = comdat any

$_ZN7content19WebContentsObserver25DidUpdateAudioMutingStateEb = comdat any

$_ZN7content19WebContentsObserver29DidToggleFullscreenModeForTabEbb = comdat any

$_ZN7content19WebContentsObserver20DidAcquireFullscreenEPNS_15RenderFrameHostE = comdat any

$_ZN7content19WebContentsObserver32DidChangeVerticalScrollDirectionEN3viz23VerticalScrollDirectionE = comdat any

$_ZN7content19WebContentsObserver27BeforeFormRepostWarningShowEv = comdat any

$_ZN7content19WebContentsObserver17BeforeUnloadFiredEbRKN4base9TimeTicksE = comdat any

$_ZN7content19WebContentsObserver27BeforeUnloadDialogCancelledEv = comdat any

$_ZN7content19WebContentsObserver30AXTreeIDForMainFrameHasChangedEv = comdat any

$_ZN7content19WebContentsObserver26AccessibilityEventReceivedERKNS_26AXEventNotificationDetailsE = comdat any

$_ZN7content19WebContentsObserver36AccessibilityLocationChangesReceivedERKNSt3__16vectorINS_35AXLocationChangeNotificationDetailsENS1_9allocatorIS3_EEEE = comdat any

$_ZN7content19WebContentsObserver19DidChangeThemeColorEv = comdat any

$_ZN7content19WebContentsObserver24OnBackgroundColorChangedEv = comdat any

$_ZN7content19WebContentsObserver24OnDidAddMessageToConsoleEPNS_15RenderFrameHostEN5blink5mojom19ConsoleMessageLevelERKNSt3__112basic_stringIDsNS6_11char_traitsIDsEENS6_9allocatorIDsEEEEiSE_RKN4absl8optionalISC_EE = comdat any

$_ZN7content19WebContentsObserver19MediaStartedPlayingERKNS0_15MediaPlayerInfoERKNS_13MediaPlayerIdE = comdat any

$_ZN7content19WebContentsObserver19MediaStoppedPlayingERKNS0_15MediaPlayerInfoERKNS_13MediaPlayerIdENS0_18MediaStoppedReasonE = comdat any

$_ZN7content19WebContentsObserver12MediaResizedERKN3gfx4SizeERKNS_13MediaPlayerIdE = comdat any

$_ZN7content19WebContentsObserver33MediaEffectivelyFullscreenChangedEb = comdat any

$_ZN7content19WebContentsObserver28MediaPictureInPictureChangedEb = comdat any

$_ZN7content19WebContentsObserver23MediaMutedStatusChangedERKNS_13MediaPlayerIdEb = comdat any

$_ZN7content19WebContentsObserver20MediaBufferUnderflowERKNS_13MediaPlayerIdE = comdat any

$_ZN7content19WebContentsObserver15MediaPlayerSeekERKNS_13MediaPlayerIdE = comdat any

$_ZN7content19WebContentsObserver14MediaDestroyedERKNS_13MediaPlayerIdE = comdat any

$_ZN7content19WebContentsObserver24OnPageScaleFactorChangedEf = comdat any

$_ZN7content19WebContentsObserver7OnPasteEv = comdat any

$_ZN7content19WebContentsObserver20OnWebContentsFocusedEPNS_16RenderWidgetHostE = comdat any

$_ZN7content19WebContentsObserver22OnWebContentsLostFocusEPNS_16RenderWidgetHostE = comdat any

$_ZN7content19WebContentsObserver20OnFocusChangedInPageEPNS_18FocusedNodeDetailsE = comdat any

$_ZN7content19WebContentsObserver23DidUpdateWebManifestURLEPNS_15RenderFrameHostERKN4absl8optionalI4GURLEE = comdat any

$_ZN7content19WebContentsObserver27OnInterfaceRequestFromFrameEPNS_15RenderFrameHostERKNSt3__112basic_stringIcNS3_11char_traitsIcEENS3_9allocatorIcEEEEPN4mojo16ScopedHandleBaseINSC_17MessagePipeHandleEEE = comdat any

$_ZN7content19WebContentsObserver27AudioContextPlaybackStartedERKNSt3__14pairIPNS_15RenderFrameHostEiEE = comdat any

$_ZN7content19WebContentsObserver27AudioContextPlaybackStoppedERKNSt3__14pairIPNS_15RenderFrameHostEiEE = comdat any

$_ZN7content19WebContentsObserver23OnServiceWorkerAccessedEPNS_15RenderFrameHostERK4GURLNS_24AllowServiceWorkerResultE = comdat any

$_ZN7content19WebContentsObserver23OnServiceWorkerAccessedEPNS_16NavigationHandleERK4GURLNS_24AllowServiceWorkerResultE = comdat any

$_ZN3pdf20PDFWebContentsHelper15SetNeedsAnimateEv = comdat any

$_ZThn32_N3pdf20PDFWebContentsHelper15SetNeedsAnimateEv = comdat any

$_ZN2ui30TouchSelectionControllerClient29ShowTouchSelectionContextMenuERKN3gfx5PointE = comdat any

$_ZN4base16SupportsUserData4DataD2Ev = comdat any

$_ZN7content19WebContentsUserDataIN3pdf20PDFWebContentsHelperEED0Ev = comdat any

$_ZN3pdf5mojom10PdfServiceD2Ev = comdat any

$_ZN3pdf5mojom10PdfServiceD0Ev = comdat any

$_ZN2ui30TouchSelectionControllerClientD2Ev = comdat any

$_ZN2ui30TouchSelectionControllerClientD0Ev = comdat any

$_ZN2ui24TouchSelectionMenuClientD2Ev = comdat any

$_ZN2ui24TouchSelectionMenuClientD0Ev = comdat any

$_ZN7content27WebContentsFrameReceiverSetIN3pdf5mojom10PdfServiceEE20FrameInterfaceBinderD2Ev = comdat any

$_ZThn8_N7content27WebContentsFrameReceiverSetIN3pdf5mojom10PdfServiceEE20FrameInterfaceBinderD1Ev = comdat any

$_ZN7content27WebContentsFrameReceiverSetIN3pdf5mojom10PdfServiceEE20FrameInterfaceBinderD0Ev = comdat any

$_ZN7content27WebContentsFrameReceiverSetIN3pdf5mojom10PdfServiceEE20FrameInterfaceBinder18OnReceiverForFrameEPNS_15RenderFrameHostEN4mojo29ScopedInterfaceEndpointHandleE = comdat any

$_ZN7content27WebContentsFrameReceiverSetIN3pdf5mojom10PdfServiceEE20FrameInterfaceBinder17CloseAllReceiversEv = comdat any

$_ZN7content27WebContentsFrameReceiverSetIN3pdf5mojom10PdfServiceEE20FrameInterfaceBinder18RenderFrameDeletedEPNS_15RenderFrameHostE = comdat any

$_ZThn8_N7content27WebContentsFrameReceiverSetIN3pdf5mojom10PdfServiceEE20FrameInterfaceBinderD0Ev = comdat any

$_ZThn8_N7content27WebContentsFrameReceiverSetIN3pdf5mojom10PdfServiceEE20FrameInterfaceBinder18RenderFrameDeletedEPNS_15RenderFrameHostE = comdat any

$_ZNSt3__16__treeINS_12__value_typeIPN7content15RenderFrameHostENS_6vectorImNS_9allocatorImEEEEEENS_19__map_value_compareIS4_S9_NS_4lessIS4_EELb1EEENS6_IS9_EEE7destroyEPNS_11__tree_nodeIS9_PvEE = comdat any

$_ZN4mojo15ReceiverSetBaseINS_18AssociatedReceiverIN3pdf5mojom10PdfServiceENS_19RawPtrImplRefTraitsIS4_EEEEPN7content15RenderFrameHostEE7AddImplEPS4_NS_25PendingAssociatedReceiverIS4_EESA_13scoped_refptrIN4base19SequencedTaskRunnerEE = comdat any

$_ZN4mojo15ReceiverSetBaseINS_18AssociatedReceiverIN3pdf5mojom10PdfServiceENS_19RawPtrImplRefTraitsIS4_EEEEPN7content15RenderFrameHostEE13ReceiverEntryD2Ev = comdat any

$_ZN4mojo15ReceiverSetBaseINS_18AssociatedReceiverIN3pdf5mojom10PdfServiceENS_19RawPtrImplRefTraitsIS4_EEEEPN7content15RenderFrameHostEE13ReceiverEntryD0Ev = comdat any

$_ZNK4mojo15ReceiverSetBaseINS_18AssociatedReceiverIN3pdf5mojom10PdfServiceENS_19RawPtrImplRefTraitsIS4_EEEEPN7content15RenderFrameHostEE13ReceiverEntry10GetContextEv = comdat any

$_ZN4mojo15ReceiverSetBaseINS_18AssociatedReceiverIN3pdf5mojom10PdfServiceENS_19RawPtrImplRefTraitsIS4_EEEEPN7content15RenderFrameHostEE13ReceiverEntry20InstallDispatchHooksENSt3__110unique_ptrINS_13MessageFilterENSD_14default_deleteISF_EEEEN4base17RepeatingCallbackIFvjRKNSD_12basic_stringIcNSD_11char_traitsIcEENSD_9allocatorIcEEEEEEE = comdat any

$_ZN4mojo15ReceiverSetBaseINS_18AssociatedReceiverIN3pdf5mojom10PdfServiceENS_19RawPtrImplRefTraitsIS4_EEEEPN7content15RenderFrameHostEE13ReceiverEntry15FlushForTestingEv = comdat any

$_ZN4mojo18AssociatedReceiverIN3pdf5mojom10PdfServiceENS_19RawPtrImplRefTraitsIS3_EEE4BindENS_25PendingAssociatedReceiverIS3_EE13scoped_refptrIN4base19SequencedTaskRunnerEE = comdat any

$_ZN4mojo15MessageReceiverD2Ev = comdat any

$_ZN3pdf5mojom14PdfServiceStubIN4mojo19RawPtrImplRefTraitsINS0_10PdfServiceEEEED0Ev = comdat any

$_ZN3pdf5mojom14PdfServiceStubIN4mojo19RawPtrImplRefTraitsINS0_10PdfServiceEEEE6AcceptEPNS2_7MessageE = comdat any

$_ZN3pdf5mojom14PdfServiceStubIN4mojo19RawPtrImplRefTraitsINS0_10PdfServiceEEEE19AcceptWithResponderEPNS2_7MessageENSt3__110unique_ptrINS2_25MessageReceiverWithStatusENS9_14default_deleteISB_EEEE = comdat any

$_ZNSt3__127__tree_balance_after_insertIPNS_16__tree_node_baseIPvEEEEvT_S5_ = comdat any

$_ZNSt3__16__treeINS_12__value_typeImNS_10unique_ptrIN4mojo16ReceiverSetState5EntryENS_14default_deleteIS5_EEEEEENS_19__map_value_compareImS9_NS_4lessImEELb1EEENS_9allocatorIS9_EEE7destroyEPNS_11__tree_nodeIS9_PvEE = comdat any

$_ZNSt3__113__tree_removeIPNS_16__tree_node_baseIPvEEEEvT_S5_ = comdat any

$_ZN4mojo6RemoteIN3pdf5mojom11PdfListenerEE4BindENS_13PendingRemoteIS3_EE13scoped_refptrIN4base19SequencedTaskRunnerEE = comdat any

$_ZN4mojo8internal17InterfacePtrStateIN3pdf5mojom11PdfListenerEE25ConfigureProxyIfNecessaryEv = comdat any

$_ZTVN7content19WebContentsUserDataIN3pdf20PDFWebContentsHelperEEE = comdat any

$_ZTVN3pdf5mojom10PdfServiceE = comdat any

$_ZTVN2ui30TouchSelectionControllerClientE = comdat any

$_ZTVN2ui24TouchSelectionMenuClientE = comdat any

$_ZTVN7content27WebContentsFrameReceiverSetIN3pdf5mojom10PdfServiceEE20FrameInterfaceBinderE = comdat any

$_ZTVN4mojo15ReceiverSetBaseINS_18AssociatedReceiverIN3pdf5mojom10PdfServiceENS_19RawPtrImplRefTraitsIS4_EEEEPN7content15RenderFrameHostEE13ReceiverEntryE = comdat any

$_ZTVN3pdf5mojom14PdfServiceStubIN4mojo19RawPtrImplRefTraitsINS0_10PdfServiceEEEEE = comdat any

@_ZTVN3pdf20PDFWebContentsHelperE = hidden unnamed_addr constant { [130 x i8*], [5 x i8*], [10 x i8*], [14 x i8*], [9 x i8*], [5 x i8*] } { [130 x i8*] [i8* null, i8* null, i8* bitcast (i1 (%"class.content::WebContentsObserver"*, %"class.IPC::Message"*)* @_ZN7content19WebContentsObserver17OnMessageReceivedERKN3IPC7MessageE to i8*), i8* bitcast (void (%"class.IPC::Listener"*, i32)* @_ZN3IPC8Listener18OnChannelConnectedEi to i8*), i8* bitcast (void (%"class.IPC::Listener"*)* @_ZN3IPC8Listener14OnChannelErrorEv to i8*), i8* bitcast (void (%"class.IPC::Listener"*, %"class.IPC::Message"*)* @_ZN3IPC8Listener20OnBadMessageReceivedERKNS_7MessageE to i8*), i8* bitcast (void (%"class.IPC::Listener"*, %"class.std::__1::basic_string"*, %"class.mojo::ScopedInterfaceEndpointHandle"*)* @_ZN3IPC8Listener28OnAssociatedInterfaceRequestERKNSt3__112basic_stringIcNS1_11char_traitsIcEENS1_9allocatorIcEEEEN4mojo29ScopedInterfaceEndpointHandleE to i8*), i8* bitcast (void (%"class.IPC::Listener"*)* @_ZN3IPC8Listener15OnChannelDeniedEv to i8*), i8* bitcast (void (%"class.IPC::Listener"*)* @_ZN3IPC8Listener20OnChannelListenErrorEv to i8*), i8* bitcast (void (%"class.pdf::PDFWebContentsHelper"*)* @_ZN3pdf20PDFWebContentsHelperD2Ev to i8*), i8* bitcast (void (%"class.pdf::PDFWebContentsHelper"*)* @_ZN3pdf20PDFWebContentsHelperD0Ev to i8*), i8* bitcast (void (%"class.content::WebContentsObserver"*, %"class.content::RenderFrameHost"*)* @_ZN7content19WebContentsObserver18RenderFrameCreatedEPNS_15RenderFrameHostE to i8*), i8* bitcast (void (%"class.content::WebContentsObserver"*, %"class.content::RenderFrameHost"*)* @_ZN7content19WebContentsObserver18RenderFrameDeletedEPNS_15RenderFrameHostE to i8*), i8* bitcast (void (%"class.content::WebContentsObserver"*, %"class.content::RenderFrameHost"*, %"class.content::RenderFrameHost"*)* @_ZN7content19WebContentsObserver22RenderFrameHostChangedEPNS_15RenderFrameHostES2_ to i8*), i8* bitcast (void (%"class.content::WebContentsObserver"*, i32)* @_ZN7content19WebContentsObserver12FrameDeletedEi to i8*), i8* bitcast (void (%"class.content::WebContentsObserver"*, %"class.content::RenderFrameHost"*, i32, i32)* @_ZN7content19WebContentsObserver27RenderFrameHostStateChangedEPNS_15RenderFrameHostENS1_14LifecycleStateES3_ to i8*), i8* bitcast (void (%"class.content::WebContentsObserver"*)* @_ZN7content19WebContentsObserver20CaptureTargetChangedEv to i8*), i8* bitcast (void (%"class.content::WebContentsObserver"*, %"class.blink::mojom::CaptureHandleConfig"*)* @_ZN7content19WebContentsObserver27OnCaptureHandleConfigUpdateERKN5blink5mojom19CaptureHandleConfigE to i8*), i8* bitcast (void (%"class.content::WebContentsObserver"*)* @_ZN7content19WebContentsObserver15RenderViewReadyEv to i8*), i8* bitcast (void (%"class.content::WebContentsObserver"*, %"class.content::RenderViewHost"*)* @_ZN7content19WebContentsObserver17RenderViewDeletedEPNS_14RenderViewHostE to i8*), i8* bitcast (void (%"class.content::WebContentsObserver"*, i32)* @_ZN7content19WebContentsObserver17RenderProcessGoneEN4base17TerminationStatusE to i8*), i8* bitcast (void (%"class.content::WebContentsObserver"*, %"class.content::RenderViewHost"*, %"class.content::RenderViewHost"*)* @_ZN7content19WebContentsObserver21RenderViewHostChangedEPNS_14RenderViewHostES2_ to i8*), i8* bitcast (void (%"class.content::WebContentsObserver"*, %"class.content::RenderProcessHost"*)* @_ZN7content19WebContentsObserver22OnRendererUnresponsiveEPNS_17RenderProcessHostE to i8*), i8* bitcast (void (%"class.content::WebContentsObserver"*, %"class.content::RenderProcessHost"*)* @_ZN7content19WebContentsObserver20OnRendererResponsiveEPNS_17RenderProcessHostE to i8*), i8* bitcast (void (%"class.content::WebContentsObserver"*, %"class.content::NavigationHandle"*)* @_ZN7content19WebContentsObserver18DidStartNavigationEPNS_16NavigationHandleE to i8*), i8* bitcast (void (%"class.content::WebContentsObserver"*, %"class.content::NavigationHandle"*)* @_ZN7content19WebContentsObserver21DidRedirectNavigationEPNS_16NavigationHandleE to i8*), i8* bitcast (void (%"class.content::WebContentsObserver"*, %"class.content::NavigationHandle"*)* @_ZN7content19WebContentsObserver23ReadyToCommitNavigationEPNS_16NavigationHandleE to i8*), i8* bitcast (void (%"class.content::WebContentsObserver"*, %"class.content::NavigationHandle"*)* @_ZN7content19WebContentsObserver19DidFinishNavigationEPNS_16NavigationHandleE to i8*), i8* bitcast (void (%"class.content::WebContentsObserver"*, %"class.content::WebContents"*, i64)* @_ZN7content19WebContentsObserver17DidActivatePortalEPNS_11WebContentsEN4base9TimeTicksE to i8*), i8* bitcast (void (%"class.content::WebContentsObserver"*)* @_ZN7content19WebContentsObserver15DidStartLoadingEv to i8*), i8* bitcast (void (%"class.content::WebContentsObserver"*)* @_ZN7content19WebContentsObserver18DidReceiveResponseEv to i8*), i8* bitcast (void (%"class.content::WebContentsObserver"*)* @_ZN7content19WebContentsObserver14DidStopLoadingEv to i8*), i8* bitcast (void (%"class.content::WebContentsObserver"*, double)* @_ZN7content19WebContentsObserver19LoadProgressChangedEd to i8*), i8* bitcast (void (%"class.content::WebContentsObserver"*, %"class.content::RenderFrameHost"*)* @_ZN7content19WebContentsObserver28DocumentAvailableInMainFrameEPNS_15RenderFrameHostE to i8*), i8* bitcast (void (%"class.content::WebContentsObserver"*, %"class.content::RenderFrameHost"*)* @_ZN7content19WebContentsObserver34DocumentOnLoadCompletedInMainFrameEPNS_15RenderFrameHostE to i8*), i8* bitcast (void (%"class.content::WebContentsObserver"*, %"class.content::RenderFrameHost"*)* @_ZN7content19WebContentsObserver16DOMContentLoadedEPNS_15RenderFrameHostE to i8*), i8* bitcast (void (%"class.content::WebContentsObserver"*, %"class.content::RenderFrameHost"*, %class.GURL*)* @_ZN7content19WebContentsObserver13DidFinishLoadEPNS_15RenderFrameHostERK4GURL to i8*), i8* bitcast (void (%"class.content::WebContentsObserver"*, %"class.content::RenderFrameHost"*, %class.GURL*, i32)* @_ZN7content19WebContentsObserver11DidFailLoadEPNS_15RenderFrameHostERK4GURLi to i8*), i8* bitcast (void (%"class.content::WebContentsObserver"*)* @_ZN7content19WebContentsObserver29DidChangeVisibleSecurityStateEv to i8*), i8* bitcast (void (%"class.content::WebContentsObserver"*, %"class.content::RenderFrameHost"*, %class.GURL*, %"class.std::__1::basic_string"*, i32)* @_ZN7content19WebContentsObserver30DidLoadResourceFromMemoryCacheEPNS_15RenderFrameHostERK4GURLRKNSt3__112basic_stringIcNS6_11char_traitsIcEENS6_9allocatorIcEEEEN7network5mojom18RequestDestinationE to i8*), i8* bitcast (void (%"class.content::WebContentsObserver"*, %"class.content::RenderFrameHost"*, %"struct.content::GlobalRequestID"*, %"class.blink::mojom::ResourceLoadInfo"*)* @_ZN7content19WebContentsObserver20ResourceLoadCompleteEPNS_15RenderFrameHostERKNS_15GlobalRequestIDERKN5blink5mojom16ResourceLoadInfoE to i8*), i8* bitcast (void (%"class.content::WebContentsObserver"*, %"class.content::RenderFrameHost"*, %"struct.content::CookieAccessDetails"*)* @_ZN7content19WebContentsObserver17OnCookiesAccessedEPNS_15RenderFrameHostERKNS_19CookieAccessDetailsE to i8*), i8* bitcast (void (%"class.content::WebContentsObserver"*, %"class.content::NavigationHandle"*, %"struct.content::CookieAccessDetails"*)* @_ZN7content19WebContentsObserver17OnCookiesAccessedEPNS_16NavigationHandleERKNS_19CookieAccessDetailsE to i8*), i8* bitcast (void (%"class.content::WebContentsObserver"*, %"struct.content::LoadCommittedDetails"*)* @_ZN7content19WebContentsObserver24NavigationEntryCommittedERKNS_20LoadCommittedDetailsE to i8*), i8* bitcast (void (%"class.content::WebContentsObserver"*, %"struct.content::PrunedDetails"*)* @_ZN7content19WebContentsObserver20NavigationListPrunedERKNS_13PrunedDetailsE to i8*), i8* bitcast (void (%"class.content::WebContentsObserver"*)* @_ZN7content19WebContentsObserver24NavigationEntriesDeletedEv to i8*), i8* bitcast (void (%"class.content::WebContentsObserver"*, %"struct.content::EntryChangedDetails"*)* @_ZN7content19WebContentsObserver22NavigationEntryChangedERKNS_19EntryChangedDetailsE to i8*), i8* bitcast (void (%"class.content::WebContentsObserver"*, %"class.content::WebContents"*, %"class.content::RenderFrameHost"*, %class.GURL*, %"struct.content::Referrer"*, i32, i32, i1, i1)* @_ZN7content19WebContentsObserver19DidOpenRequestedURLEPNS_11WebContentsEPNS_15RenderFrameHostERK4GURLRKNS_8ReferrerE21WindowOpenDispositionN2ui14PageTransitionEbb to i8*), i8* bitcast (void (%"class.content::WebContentsObserver"*)* @_ZN7content19WebContentsObserver29DidFirstVisuallyNonEmptyPaintEv to i8*), i8* bitcast (void (%"class.content::WebContentsObserver"*)* @_ZN7content19WebContentsObserver17NavigationStoppedEv to i8*), i8* bitcast (void (%"class.content::WebContentsObserver"*, %"class.blink::WebInputEvent"*)* @_ZN7content19WebContentsObserver21DidGetUserInteractionERKN5blink13WebInputEventE to i8*), i8* bitcast (void (%"class.content::WebContentsObserver"*)* @_ZN7content19WebContentsObserver20DidGetIgnoredUIEventEv to i8*), i8* bitcast (void (%"class.content::WebContentsObserver"*, i32)* @_ZN7content19WebContentsObserver19OnVisibilityChangedENS_10VisibilityE to i8*), i8* bitcast (void (%"class.content::WebContentsObserver"*, i1)* @_ZN7content19WebContentsObserver19MainFrameWasResizedEb to i8*), i8* bitcast (void (%"class.content::WebContentsObserver"*, %"class.content::RenderFrameHost"*, %"class.std::__1::basic_string"*)* @_ZN7content19WebContentsObserver16FrameNameChangedEPNS_15RenderFrameHostERKNSt3__112basic_stringIcNS3_11char_traitsIcEENS3_9allocatorIcEEEE to i8*), i8* bitcast (void (%"class.content::WebContentsObserver"*, %"class.content::RenderFrameHost"*)* @_ZN7content19WebContentsObserver27FrameReceivedUserActivationEPNS_15RenderFrameHostE to i8*), i8* bitcast (void (%"class.content::WebContentsObserver"*, %"class.content::RenderFrameHost"*, i1)* @_ZN7content19WebContentsObserver24FrameDisplayStateChangedEPNS_15RenderFrameHostEb to i8*), i8* bitcast (void (%"class.content::WebContentsObserver"*, %"class.content::RenderFrameHost"*, %"class.gfx::Size"*)* @_ZN7content19WebContentsObserver16FrameSizeChangedEPNS_15RenderFrameHostERKN3gfx4SizeE to i8*), i8* bitcast (void (%"class.content::WebContentsObserver"*, %"class.content::NavigationEntry"*)* @_ZN7content19WebContentsObserver11TitleWasSetEPNS_15NavigationEntryE to i8*), i8* bitcast (void (%"class.content::WebContentsObserver"*, %class.GURL*, i1)* @_ZN7content19WebContentsObserver16AppCacheAccessedERK4GURLb to i8*), i8* bitcast (void (%"class.content::WebContentsObserver"*)* @_ZN7content19WebContentsObserver21PepperInstanceCreatedEv to i8*), i8* bitcast (void (%"class.content::WebContentsObserver"*)* @_ZN7content19WebContentsObserver21PepperInstanceDeletedEv to i8*), i8* bitcast (void (%"class.content::WebContentsObserver"*, i32)* @_ZN7content19WebContentsObserver18ViewportFitChangedEN5blink5mojom11ViewportFitE to i8*), i8* bitcast (void (%"class.content::WebContentsObserver"*, %"class.base::FilePath"*, i32)* @_ZN7content19WebContentsObserver13PluginCrashedERKN4base8FilePathEi to i8*), i8* bitcast (void (%"class.content::WebContentsObserver"*, i32, %"class.base::FilePath"*, i1)* @_ZN7content19WebContentsObserver23PluginHungStatusChangedEiRKN4base8FilePathEb to i8*), i8* bitcast (void (%"class.content::WebContentsObserver"*, %"class.content::WebContents"*)* @_ZN7content19WebContentsObserver23InnerWebContentsCreatedEPNS_11WebContentsE to i8*), i8* bitcast (void (%"class.content::WebContentsObserver"*, %"class.content::WebContents"*, %"class.content::RenderFrameHost"*, i1)* @_ZN7content19WebContentsObserver24InnerWebContentsAttachedEPNS_11WebContentsEPNS_15RenderFrameHostEb to i8*), i8* bitcast (void (%"class.content::WebContentsObserver"*, %"class.content::WebContents"*)* @_ZN7content19WebContentsObserver24InnerWebContentsDetachedEPNS_11WebContentsE to i8*), i8* bitcast (void (%"class.content::WebContentsObserver"*, %"class.content::WebContents"*, %"class.content::WebContents"*)* @_ZN7content19WebContentsObserver24DidCloneToNewWebContentsEPNS_11WebContentsES2_ to i8*), i8* bitcast (void (%"class.content::WebContentsObserver"*)* @_ZN7content19WebContentsObserver20WebContentsDestroyedEv to i8*), i8* bitcast (void (%"class.content::WebContentsObserver"*, %"struct.blink::UserAgentOverride"*)* @_ZN7content19WebContentsObserver20UserAgentOverrideSetERKN5blink17UserAgentOverrideE to i8*), i8* bitcast (void (%"class.content::WebContentsObserver"*, %"class.content::RenderFrameHost"*, %"class.std::__1::vector.285"*)* @_ZN7content19WebContentsObserver19DidUpdateFaviconURLEPNS_15RenderFrameHostERKNSt3__16vectorIN4mojo9StructPtrIN5blink5mojom10FaviconURLEEENS3_9allocatorISA_EEEE to i8*), i8* bitcast (void (%"class.content::WebContentsObserver"*, i1)* @_ZN7content19WebContentsObserver19OnAudioStateChangedEb to i8*), i8* bitcast (void (%"class.content::WebContentsObserver"*, %"class.content::RenderFrameHost"*, i1)* @_ZN7content19WebContentsObserver24OnFrameAudioStateChangedEPNS_15RenderFrameHostEb to i8*), i8* bitcast (void (%"class.content::WebContentsObserver"*, i1)* @_ZN7content19WebContentsObserver37OnIsConnectedToBluetoothDeviceChangedEb to i8*), i8* bitcast (void (%"class.content::WebContentsObserver"*, i1)* @_ZN7content19WebContentsObserver25DidUpdateAudioMutingStateEb to i8*), i8* bitcast (void (%"class.content::WebContentsObserver"*, i1, i1)* @_ZN7content19WebContentsObserver29DidToggleFullscreenModeForTabEbb to i8*), i8* bitcast (void (%"class.content::WebContentsObserver"*, %"class.content::RenderFrameHost"*)* @_ZN7content19WebContentsObserver20DidAcquireFullscreenEPNS_15RenderFrameHostE to i8*), i8* bitcast (void (%"class.content::WebContentsObserver"*, i32)* @_ZN7content19WebContentsObserver32DidChangeVerticalScrollDirectionEN3viz23VerticalScrollDirectionE to i8*), i8* bitcast (void (%"class.content::WebContentsObserver"*)* @_ZN7content19WebContentsObserver27BeforeFormRepostWarningShowEv to i8*), i8* bitcast (void (%"class.content::WebContentsObserver"*, i1, %"class.base::TimeTicks"*)* @_ZN7content19WebContentsObserver17BeforeUnloadFiredEbRKN4base9TimeTicksE to i8*), i8* bitcast (void (%"class.content::WebContentsObserver"*)* @_ZN7content19WebContentsObserver27BeforeUnloadDialogCancelledEv to i8*), i8* bitcast (void (%"class.content::WebContentsObserver"*)* @_ZN7content19WebContentsObserver30AXTreeIDForMainFrameHasChangedEv to i8*), i8* bitcast (void (%"class.content::WebContentsObserver"*, %"struct.content::AXEventNotificationDetails"*)* @_ZN7content19WebContentsObserver26AccessibilityEventReceivedERKNS_26AXEventNotificationDetailsE to i8*), i8* bitcast (void (%"class.content::WebContentsObserver"*, %"class.std::__1::vector.286"*)* @_ZN7content19WebContentsObserver36AccessibilityLocationChangesReceivedERKNSt3__16vectorINS_35AXLocationChangeNotificationDetailsENS1_9allocatorIS3_EEEE to i8*), i8* bitcast (void (%"class.content::WebContentsObserver"*)* @_ZN7content19WebContentsObserver19DidChangeThemeColorEv to i8*), i8* bitcast (void (%"class.content::WebContentsObserver"*)* @_ZN7content19WebContentsObserver24OnBackgroundColorChangedEv to i8*), i8* bitcast (void (%"class.content::WebContentsObserver"*, %"class.content::RenderFrameHost"*, i32, %"class.std::__1::basic_string.245"*, i32, %"class.std::__1::basic_string.245"*, %"class.absl::optional.287"*)* @_ZN7content19WebContentsObserver24OnDidAddMessageToConsoleEPNS_15RenderFrameHostEN5blink5mojom19ConsoleMessageLevelERKNSt3__112basic_stringIDsNS6_11char_traitsIDsEENS6_9allocatorIDsEEEEiSE_RKN4absl8optionalISC_EE to i8*), i8* bitcast (void (%"class.content::WebContentsObserver"*, %"struct.content::WebContentsObserver::MediaPlayerInfo"*, %"struct.content::MediaPlayerId"*)* @_ZN7content19WebContentsObserver19MediaStartedPlayingERKNS0_15MediaPlayerInfoERKNS_13MediaPlayerIdE to i8*), i8* bitcast (void (%"class.content::WebContentsObserver"*, %"struct.content::WebContentsObserver::MediaPlayerInfo"*, %"struct.content::MediaPlayerId"*, i32)* @_ZN7content19WebContentsObserver19MediaStoppedPlayingERKNS0_15MediaPlayerInfoERKNS_13MediaPlayerIdENS0_18MediaStoppedReasonE to i8*), i8* bitcast (void (%"class.content::WebContentsObserver"*, %"class.gfx::Size"*, %"struct.content::MediaPlayerId"*)* @_ZN7content19WebContentsObserver12MediaResizedERKN3gfx4SizeERKNS_13MediaPlayerIdE to i8*), i8* bitcast (void (%"class.content::WebContentsObserver"*, i1)* @_ZN7content19WebContentsObserver33MediaEffectivelyFullscreenChangedEb to i8*), i8* bitcast (void (%"class.content::WebContentsObserver"*, i1)* @_ZN7content19WebContentsObserver28MediaPictureInPictureChangedEb to i8*), i8* bitcast (void (%"class.content::WebContentsObserver"*, %"struct.content::MediaPlayerId"*, i1)* @_ZN7content19WebContentsObserver23MediaMutedStatusChangedERKNS_13MediaPlayerIdEb to i8*), i8* bitcast (void (%"class.content::WebContentsObserver"*, %"struct.content::MediaPlayerId"*)* @_ZN7content19WebContentsObserver20MediaBufferUnderflowERKNS_13MediaPlayerIdE to i8*), i8* bitcast (void (%"class.content::WebContentsObserver"*, %"struct.content::MediaPlayerId"*)* @_ZN7content19WebContentsObserver15MediaPlayerSeekERKNS_13MediaPlayerIdE to i8*), i8* bitcast (void (%"class.content::WebContentsObserver"*, %"struct.content::MediaPlayerId"*)* @_ZN7content19WebContentsObserver14MediaDestroyedERKNS_13MediaPlayerIdE to i8*), i8* bitcast (void (%"class.content::WebContentsObserver"*, float)* @_ZN7content19WebContentsObserver24OnPageScaleFactorChangedEf to i8*), i8* bitcast (void (%"class.content::WebContentsObserver"*)* @_ZN7content19WebContentsObserver7OnPasteEv to i8*), i8* bitcast (i1 (%"class.content::WebContentsObserver"*, %"class.IPC::Message"*, %"class.content::RenderFrameHost"*)* @_ZN7content19WebContentsObserver17OnMessageReceivedERKN3IPC7MessageEPNS_15RenderFrameHostE to i8*), i8* bitcast (void (%"class.content::WebContentsObserver"*, %"class.content::RenderWidgetHost"*)* @_ZN7content19WebContentsObserver20OnWebContentsFocusedEPNS_16RenderWidgetHostE to i8*), i8* bitcast (void (%"class.content::WebContentsObserver"*, %"class.content::RenderWidgetHost"*)* @_ZN7content19WebContentsObserver22OnWebContentsLostFocusEPNS_16RenderWidgetHostE to i8*), i8* bitcast (void (%"class.content::WebContentsObserver"*, %"struct.content::FocusedNodeDetails"*)* @_ZN7content19WebContentsObserver20OnFocusChangedInPageEPNS_18FocusedNodeDetailsE to i8*), i8* bitcast (void (%"class.content::WebContentsObserver"*, %"class.content::RenderFrameHost"*, %"class.absl::optional.292"*)* @_ZN7content19WebContentsObserver23DidUpdateWebManifestURLEPNS_15RenderFrameHostERKN4absl8optionalI4GURLEE to i8*), i8* bitcast (void (%"class.content::WebContentsObserver"*, %"class.content::RenderFrameHost"*, %"class.std::__1::basic_string"*, %"class.mojo::ScopedHandleBase"*)* @_ZN7content19WebContentsObserver27OnInterfaceRequestFromFrameEPNS_15RenderFrameHostERKNSt3__112basic_stringIcNS3_11char_traitsIcEENS3_9allocatorIcEEEEPN4mojo16ScopedHandleBaseINSC_17MessagePipeHandleEEE to i8*), i8* bitcast (void (%"class.content::WebContentsObserver"*, %"struct.std::__1::pair.297"*)* @_ZN7content19WebContentsObserver27AudioContextPlaybackStartedERKNSt3__14pairIPNS_15RenderFrameHostEiEE to i8*), i8* bitcast (void (%"class.content::WebContentsObserver"*, %"struct.std::__1::pair.297"*)* @_ZN7content19WebContentsObserver27AudioContextPlaybackStoppedERKNSt3__14pairIPNS_15RenderFrameHostEiEE to i8*), i8* bitcast (void (%"class.content::WebContentsObserver"*, %"class.content::RenderFrameHost"*, %class.GURL*, i24)* @_ZN7content19WebContentsObserver23OnServiceWorkerAccessedEPNS_15RenderFrameHostERK4GURLNS_24AllowServiceWorkerResultE to i8*), i8* bitcast (void (%"class.content::WebContentsObserver"*, %"class.content::NavigationHandle"*, %class.GURL*, i24)* @_ZN7content19WebContentsObserver23OnServiceWorkerAccessedEPNS_16NavigationHandleERK4GURLNS_24AllowServiceWorkerResultE to i8*), i8* bitcast (i1 (%"class.pdf::PDFWebContentsHelper"*)* @_ZNK3pdf20PDFWebContentsHelper17SupportsAnimationEv to i8*), i8* bitcast (void (%"class.pdf::PDFWebContentsHelper"*)* @_ZN3pdf20PDFWebContentsHelper15SetNeedsAnimateEv to i8*), i8* bitcast (void (%"class.pdf::PDFWebContentsHelper"*, %"class.gfx::PointF"*)* @_ZN3pdf20PDFWebContentsHelper9MoveCaretERKN3gfx6PointFE to i8*), i8* bitcast (void (%"class.pdf::PDFWebContentsHelper"*, %"class.gfx::PointF"*)* @_ZN3pdf20PDFWebContentsHelper24MoveRangeSelectionExtentERKN3gfx6PointFE to i8*), i8* bitcast (void (%"class.pdf::PDFWebContentsHelper"*, %"class.gfx::PointF"*, %"class.gfx::PointF"*)* @_ZN3pdf20PDFWebContentsHelper24SelectBetweenCoordinatesERKN3gfx6PointFES4_ to i8*), i8* bitcast (void (%"class.pdf::PDFWebContentsHelper"*, i32)* @_ZN3pdf20PDFWebContentsHelper16OnSelectionEventEN2ui18SelectionEventTypeE to i8*), i8* bitcast (void (%"class.pdf::PDFWebContentsHelper"*, i32, %"class.gfx::PointF"*)* @_ZN3pdf20PDFWebContentsHelper12OnDragUpdateEN2ui23TouchSelectionDraggable4TypeERKN3gfx6PointFE to i8*), i8* bitcast (%"class.ui::TouchHandleDrawable"* (%"class.pdf::PDFWebContentsHelper"*)* @_ZN3pdf20PDFWebContentsHelper14CreateDrawableEv to i8*), i8* bitcast (void (%"class.pdf::PDFWebContentsHelper"*)* @_ZN3pdf20PDFWebContentsHelper9DidScrollEv to i8*), i8* bitcast (i1 (%"class.pdf::PDFWebContentsHelper"*, i32)* @_ZNK3pdf20PDFWebContentsHelper18IsCommandIdEnabledEi to i8*), i8* bitcast (void (%"class.pdf::PDFWebContentsHelper"*, i32, i32)* @_ZN3pdf20PDFWebContentsHelper14ExecuteCommandEii to i8*), i8* bitcast (void (%"class.pdf::PDFWebContentsHelper"*)* @_ZN3pdf20PDFWebContentsHelper14RunContextMenuEv to i8*), i8* bitcast (i1 (%"class.pdf::PDFWebContentsHelper"*)* @_ZN3pdf20PDFWebContentsHelper19ShouldShowQuickMenuEv to i8*), i8* bitcast (void (%"class.std::__1::basic_string.245"*, %"class.pdf::PDFWebContentsHelper"*)* @_ZN3pdf20PDFWebContentsHelper15GetSelectedTextEv to i8*), i8* bitcast (void (%"class.pdf::PDFWebContentsHelper"*, %"class.content::TouchSelectionControllerClientManager"*)* @_ZN3pdf20PDFWebContentsHelper20OnManagerWillDestroyEPN7content37TouchSelectionControllerClientManagerE to i8*), i8* bitcast (void (%"class.pdf::PDFWebContentsHelper"*, %"class.mojo::PendingRemote"*)* @_ZN3pdf20PDFWebContentsHelper11SetListenerEN4mojo13PendingRemoteINS_5mojom11PdfListenerEEE to i8*), i8* bitcast (void (%"class.pdf::PDFWebContentsHelper"*)* @_ZN3pdf20PDFWebContentsHelper21HasUnsupportedFeatureEv to i8*), i8* bitcast (void (%"class.pdf::PDFWebContentsHelper"*, %class.GURL*, %"class.mojo::StructPtr"*)* @_ZN3pdf20PDFWebContentsHelper9SaveUrlAsERK4GURLN4mojo9StructPtrIN5blink5mojom8ReferrerEEE to i8*), i8* bitcast (void (%"class.pdf::PDFWebContentsHelper"*, i32)* @_ZN3pdf20PDFWebContentsHelper25UpdateContentRestrictionsEi to i8*), i8* bitcast (void (%"class.pdf::PDFWebContentsHelper"*, %"class.gfx::PointF"*, i32, %"class.gfx::PointF"*, i32)* @_ZN3pdf20PDFWebContentsHelper16SelectionChangedERKN3gfx6PointFEiS4_i to i8*), i8* bitcast (void (%"class.pdf::PDFWebContentsHelper"*, i1)* @_ZN3pdf20PDFWebContentsHelper16SetPluginCanSaveEb to i8*)], [5 x i8*] [i8* inttoptr (i64 -16 to i8*), i8* null, i8* bitcast (void (%"class.pdf::PDFWebContentsHelper"*)* @_ZThn16_N3pdf20PDFWebContentsHelperD1Ev to i8*), i8* bitcast (void (%"class.pdf::PDFWebContentsHelper"*)* @_ZThn16_N3pdf20PDFWebContentsHelperD0Ev to i8*), i8* bitcast (%"class.base::SupportsUserData::Data"* (%"class.base::SupportsUserData::Data"*)* @_ZN4base16SupportsUserData4Data5CloneEv to i8*)], [10 x i8*] [i8* inttoptr (i64 -24 to i8*), i8* null, i8* bitcast (void (%"class.pdf::PDFWebContentsHelper"*)* @_ZThn24_N3pdf20PDFWebContentsHelperD1Ev to i8*), i8* bitcast (void (%"class.pdf::PDFWebContentsHelper"*)* @_ZThn24_N3pdf20PDFWebContentsHelperD0Ev to i8*), i8* bitcast (void (%"class.pdf::PDFWebContentsHelper"*, %"class.mojo::PendingRemote"*)* @_ZThn24_N3pdf20PDFWebContentsHelper11SetListenerEN4mojo13PendingRemoteINS_5mojom11PdfListenerEEE to i8*), i8* bitcast (void (%"class.pdf::PDFWebContentsHelper"*, i32)* @_ZThn24_N3pdf20PDFWebContentsHelper25UpdateContentRestrictionsEi to i8*), i8* bitcast (void (%"class.pdf::PDFWebContentsHelper"*)* @_ZThn24_N3pdf20PDFWebContentsHelper21HasUnsupportedFeatureEv to i8*), i8* bitcast (void (%"class.pdf::PDFWebContentsHelper"*, %class.GURL*, %"class.mojo::StructPtr"*)* @_ZThn24_N3pdf20PDFWebContentsHelper9SaveUrlAsERK4GURLN4mojo9StructPtrIN5blink5mojom8ReferrerEEE to i8*), i8* bitcast (void (%"class.pdf::PDFWebContentsHelper"*, %"class.gfx::PointF"*, i32, %"class.gfx::PointF"*, i32)* @_ZThn24_N3pdf20PDFWebContentsHelper16SelectionChangedERKN3gfx6PointFEiS4_i to i8*), i8* bitcast (void (%"class.pdf::PDFWebContentsHelper"*, i1)* @_ZThn24_N3pdf20PDFWebContentsHelper16SetPluginCanSaveEb to i8*)], [14 x i8*] [i8* inttoptr (i64 -32 to i8*), i8* null, i8* bitcast (void (%"class.pdf::PDFWebContentsHelper"*)* @_ZThn32_N3pdf20PDFWebContentsHelperD1Ev to i8*), i8* bitcast (void (%"class.pdf::PDFWebContentsHelper"*)* @_ZThn32_N3pdf20PDFWebContentsHelperD0Ev to i8*), i8* bitcast (i1 (%"class.pdf::PDFWebContentsHelper"*)* @_ZThn32_NK3pdf20PDFWebContentsHelper17SupportsAnimationEv to i8*), i8* bitcast (void (%"class.pdf::PDFWebContentsHelper"*)* @_ZThn32_N3pdf20PDFWebContentsHelper15SetNeedsAnimateEv to i8*), i8* bitcast (void (%"class.pdf::PDFWebContentsHelper"*, %"class.gfx::PointF"*)* @_ZThn32_N3pdf20PDFWebContentsHelper9MoveCaretERKN3gfx6PointFE to i8*), i8* bitcast (void (%"class.pdf::PDFWebContentsHelper"*, %"class.gfx::PointF"*)* @_ZThn32_N3pdf20PDFWebContentsHelper24MoveRangeSelectionExtentERKN3gfx6PointFE to i8*), i8* bitcast (void (%"class.pdf::PDFWebContentsHelper"*, %"class.gfx::PointF"*, %"class.gfx::PointF"*)* @_ZThn32_N3pdf20PDFWebContentsHelper24SelectBetweenCoordinatesERKN3gfx6PointFES4_ to i8*), i8* bitcast (void (%"class.pdf::PDFWebContentsHelper"*, i32)* @_ZThn32_N3pdf20PDFWebContentsHelper16OnSelectionEventEN2ui18SelectionEventTypeE to i8*), i8* bitcast (void (%"class.pdf::PDFWebContentsHelper"*, i32, %"class.gfx::PointF"*)* @_ZThn32_N3pdf20PDFWebContentsHelper12OnDragUpdateEN2ui23TouchSelectionDraggable4TypeERKN3gfx6PointFE to i8*), i8* bitcast (%"class.ui::TouchHandleDrawable"* (%"class.pdf::PDFWebContentsHelper"*)* @_ZThn32_N3pdf20PDFWebContentsHelper14CreateDrawableEv to i8*), i8* bitcast (void (%"class.pdf::PDFWebContentsHelper"*)* @_ZThn32_N3pdf20PDFWebContentsHelper9DidScrollEv to i8*), i8* bitcast (void (%"class.ui::TouchSelectionControllerClient"*, %"class.gfx::Point"*)* @_ZN2ui30TouchSelectionControllerClient29ShowTouchSelectionContextMenuERKN3gfx5PointE to i8*)], [9 x i8*] [i8* inttoptr (i64 -40 to i8*), i8* null, i8* bitcast (void (%"class.pdf::PDFWebContentsHelper"*)* @_ZThn40_N3pdf20PDFWebContentsHelperD1Ev to i8*), i8* bitcast (void (%"class.pdf::PDFWebContentsHelper"*)* @_ZThn40_N3pdf20PDFWebContentsHelperD0Ev to i8*), i8* bitcast (i1 (%"class.pdf::PDFWebContentsHelper"*, i32)* @_ZThn40_NK3pdf20PDFWebContentsHelper18IsCommandIdEnabledEi to i8*), i8* bitcast (void (%"class.pdf::PDFWebContentsHelper"*, i32, i32)* @_ZThn40_N3pdf20PDFWebContentsHelper14ExecuteCommandEii to i8*), i8* bitcast (void (%"class.pdf::PDFWebContentsHelper"*)* @_ZThn40_N3pdf20PDFWebContentsHelper14RunContextMenuEv to i8*), i8* bitcast (i1 (%"class.pdf::PDFWebContentsHelper"*)* @_ZThn40_N3pdf20PDFWebContentsHelper19ShouldShowQuickMenuEv to i8*), i8* bitcast (void (%"class.std::__1::basic_string.245"*, %"class.pdf::PDFWebContentsHelper"*)* @_ZThn40_N3pdf20PDFWebContentsHelper15GetSelectedTextEv to i8*)], [5 x i8*] [i8* inttoptr (i64 -48 to i8*), i8* null, i8* bitcast (void (%"class.pdf::PDFWebContentsHelper"*)* @_ZThn48_N3pdf20PDFWebContentsHelperD1Ev to i8*), i8* bitcast (void (%"class.pdf::PDFWebContentsHelper"*)* @_ZThn48_N3pdf20PDFWebContentsHelperD0Ev to i8*), i8* bitcast (void (%"class.pdf::PDFWebContentsHelper"*, %"class.content::TouchSelectionControllerClientManager"*)* @_ZThn48_N3pdf20PDFWebContentsHelper20OnManagerWillDestroyEPN7content37TouchSelectionControllerClientManagerE to i8*)] }, align 8
@_ZN3pdf20PDFWebContentsHelper12kUserDataKeyE = hidden constant i32 0, align 4
@_ZTVN7content19WebContentsUserDataIN3pdf20PDFWebContentsHelperEEE = linkonce_odr hidden unnamed_addr constant { [5 x i8*] } { [5 x i8*] [i8* null, i8* null, i8* bitcast (void (%"class.base::SupportsUserData::Data"*)* @_ZN4base16SupportsUserData4DataD2Ev to i8*), i8* bitcast (void (%"class.content::WebContentsUserData"*)* @_ZN7content19WebContentsUserDataIN3pdf20PDFWebContentsHelperEED0Ev to i8*), i8* bitcast (%"class.base::SupportsUserData::Data"* (%"class.base::SupportsUserData::Data"*)* @_ZN4base16SupportsUserData4Data5CloneEv to i8*)] }, comdat, align 8
@_ZTVN3pdf5mojom10PdfServiceE = linkonce_odr hidden unnamed_addr constant { [10 x i8*] } { [10 x i8*] [i8* null, i8* null, i8* bitcast (void (%"class.pdf::mojom::PdfService"*)* @_ZN3pdf5mojom10PdfServiceD2Ev to i8*), i8* bitcast (void (%"class.pdf::mojom::PdfService"*)* @_ZN3pdf5mojom10PdfServiceD0Ev to i8*), i8* bitcast (void ()* @__cxa_pure_virtual to i8*), i8* bitcast (void ()* @__cxa_pure_virtual to i8*), i8* bitcast (void ()* @__cxa_pure_virtual to i8*), i8* bitcast (void ()* @__cxa_pure_virtual to i8*), i8* bitcast (void ()* @__cxa_pure_virtual to i8*), i8* bitcast (void ()* @__cxa_pure_virtual to i8*)] }, comdat, align 8
@_ZTVN2ui30TouchSelectionControllerClientE = linkonce_odr hidden unnamed_addr constant { [14 x i8*] } { [14 x i8*] [i8* null, i8* null, i8* bitcast (void (%"class.ui::TouchSelectionControllerClient"*)* @_ZN2ui30TouchSelectionControllerClientD2Ev to i8*), i8* bitcast (void (%"class.ui::TouchSelectionControllerClient"*)* @_ZN2ui30TouchSelectionControllerClientD0Ev to i8*), i8* bitcast (void ()* @__cxa_pure_virtual to i8*), i8* bitcast (void ()* @__cxa_pure_virtual to i8*), i8* bitcast (void ()* @__cxa_pure_virtual to i8*), i8* bitcast (void ()* @__cxa_pure_virtual to i8*), i8* bitcast (void ()* @__cxa_pure_virtual to i8*), i8* bitcast (void ()* @__cxa_pure_virtual to i8*), i8* bitcast (void ()* @__cxa_pure_virtual to i8*), i8* bitcast (void ()* @__cxa_pure_virtual to i8*), i8* bitcast (void ()* @__cxa_pure_virtual to i8*), i8* bitcast (void (%"class.ui::TouchSelectionControllerClient"*, %"class.gfx::Point"*)* @_ZN2ui30TouchSelectionControllerClient29ShowTouchSelectionContextMenuERKN3gfx5PointE to i8*)] }, comdat, align 8
@_ZTVN2ui24TouchSelectionMenuClientE = linkonce_odr hidden unnamed_addr constant { [9 x i8*] } { [9 x i8*] [i8* null, i8* null, i8* bitcast (void (%"class.ui::TouchSelectionMenuClient"*)* @_ZN2ui24TouchSelectionMenuClientD2Ev to i8*), i8* bitcast (void (%"class.ui::TouchSelectionMenuClient"*)* @_ZN2ui24TouchSelectionMenuClientD0Ev to i8*), i8* bitcast (void ()* @__cxa_pure_virtual to i8*), i8* bitcast (void ()* @__cxa_pure_virtual to i8*), i8* bitcast (void ()* @__cxa_pure_virtual to i8*), i8* bitcast (void ()* @__cxa_pure_virtual to i8*), i8* bitcast (void ()* @__cxa_pure_virtual to i8*)] }, comdat, align 8
@_ZTVN7content27WebContentsFrameReceiverSetIN3pdf5mojom10PdfServiceEE20FrameInterfaceBinderE = linkonce_odr hidden unnamed_addr constant { [7 x i8*], [109 x i8*] } { [7 x i8*] [i8* null, i8* null, i8* bitcast (void (%"class.content::WebContentsFrameReceiverSet<pdf::mojom::PdfService>::FrameInterfaceBinder"*)* @_ZN7content27WebContentsFrameReceiverSetIN3pdf5mojom10PdfServiceEE20FrameInterfaceBinderD2Ev to i8*), i8* bitcast (void (%"class.content::WebContentsFrameReceiverSet<pdf::mojom::PdfService>::FrameInterfaceBinder"*)* @_ZN7content27WebContentsFrameReceiverSetIN3pdf5mojom10PdfServiceEE20FrameInterfaceBinderD0Ev to i8*), i8* bitcast (void (%"class.content::WebContentsFrameReceiverSet<pdf::mojom::PdfService>::FrameInterfaceBinder"*, %"class.content::RenderFrameHost"*, %"class.mojo::ScopedInterfaceEndpointHandle"*)* @_ZN7content27WebContentsFrameReceiverSetIN3pdf5mojom10PdfServiceEE20FrameInterfaceBinder18OnReceiverForFrameEPNS_15RenderFrameHostEN4mojo29ScopedInterfaceEndpointHandleE to i8*), i8* bitcast (void (%"class.content::WebContentsFrameReceiverSet<pdf::mojom::PdfService>::FrameInterfaceBinder"*)* @_ZN7content27WebContentsFrameReceiverSetIN3pdf5mojom10PdfServiceEE20FrameInterfaceBinder17CloseAllReceiversEv to i8*), i8* bitcast (void (%"class.content::WebContentsFrameReceiverSet<pdf::mojom::PdfService>::FrameInterfaceBinder"*, %"class.content::RenderFrameHost"*)* @_ZN7content27WebContentsFrameReceiverSetIN3pdf5mojom10PdfServiceEE20FrameInterfaceBinder18RenderFrameDeletedEPNS_15RenderFrameHostE to i8*)], [109 x i8*] [i8* inttoptr (i64 -8 to i8*), i8* null, i8* bitcast (i1 (%"class.content::WebContentsObserver"*, %"class.IPC::Message"*)* @_ZN7content19WebContentsObserver17OnMessageReceivedERKN3IPC7MessageE to i8*), i8* bitcast (void (%"class.IPC::Listener"*, i32)* @_ZN3IPC8Listener18OnChannelConnectedEi to i8*), i8* bitcast (void (%"class.IPC::Listener"*)* @_ZN3IPC8Listener14OnChannelErrorEv to i8*), i8* bitcast (void (%"class.IPC::Listener"*, %"class.IPC::Message"*)* @_ZN3IPC8Listener20OnBadMessageReceivedERKNS_7MessageE to i8*), i8* bitcast (void (%"class.IPC::Listener"*, %"class.std::__1::basic_string"*, %"class.mojo::ScopedInterfaceEndpointHandle"*)* @_ZN3IPC8Listener28OnAssociatedInterfaceRequestERKNSt3__112basic_stringIcNS1_11char_traitsIcEENS1_9allocatorIcEEEEN4mojo29ScopedInterfaceEndpointHandleE to i8*), i8* bitcast (void (%"class.IPC::Listener"*)* @_ZN3IPC8Listener15OnChannelDeniedEv to i8*), i8* bitcast (void (%"class.IPC::Listener"*)* @_ZN3IPC8Listener20OnChannelListenErrorEv to i8*), i8* bitcast (void (%"class.content::WebContentsFrameReceiverSet<pdf::mojom::PdfService>::FrameInterfaceBinder"*)* @_ZThn8_N7content27WebContentsFrameReceiverSetIN3pdf5mojom10PdfServiceEE20FrameInterfaceBinderD1Ev to i8*), i8* bitcast (void (%"class.content::WebContentsFrameReceiverSet<pdf::mojom::PdfService>::FrameInterfaceBinder"*)* @_ZThn8_N7content27WebContentsFrameReceiverSetIN3pdf5mojom10PdfServiceEE20FrameInterfaceBinderD0Ev to i8*), i8* bitcast (void (%"class.content::WebContentsObserver"*, %"class.content::RenderFrameHost"*)* @_ZN7content19WebContentsObserver18RenderFrameCreatedEPNS_15RenderFrameHostE to i8*), i8* bitcast (void (%"class.content::WebContentsFrameReceiverSet<pdf::mojom::PdfService>::FrameInterfaceBinder"*, %"class.content::RenderFrameHost"*)* @_ZThn8_N7content27WebContentsFrameReceiverSetIN3pdf5mojom10PdfServiceEE20FrameInterfaceBinder18RenderFrameDeletedEPNS_15RenderFrameHostE to i8*), i8* bitcast (void (%"class.content::WebContentsObserver"*, %"class.content::RenderFrameHost"*, %"class.content::RenderFrameHost"*)* @_ZN7content19WebContentsObserver22RenderFrameHostChangedEPNS_15RenderFrameHostES2_ to i8*), i8* bitcast (void (%"class.content::WebContentsObserver"*, i32)* @_ZN7content19WebContentsObserver12FrameDeletedEi to i8*), i8* bitcast (void (%"class.content::WebContentsObserver"*, %"class.content::RenderFrameHost"*, i32, i32)* @_ZN7content19WebContentsObserver27RenderFrameHostStateChangedEPNS_15RenderFrameHostENS1_14LifecycleStateES3_ to i8*), i8* bitcast (void (%"class.content::WebContentsObserver"*)* @_ZN7content19WebContentsObserver20CaptureTargetChangedEv to i8*), i8* bitcast (void (%"class.content::WebContentsObserver"*, %"class.blink::mojom::CaptureHandleConfig"*)* @_ZN7content19WebContentsObserver27OnCaptureHandleConfigUpdateERKN5blink5mojom19CaptureHandleConfigE to i8*), i8* bitcast (void (%"class.content::WebContentsObserver"*)* @_ZN7content19WebContentsObserver15RenderViewReadyEv to i8*), i8* bitcast (void (%"class.content::WebContentsObserver"*, %"class.content::RenderViewHost"*)* @_ZN7content19WebContentsObserver17RenderViewDeletedEPNS_14RenderViewHostE to i8*), i8* bitcast (void (%"class.content::WebContentsObserver"*, i32)* @_ZN7content19WebContentsObserver17RenderProcessGoneEN4base17TerminationStatusE to i8*), i8* bitcast (void (%"class.content::WebContentsObserver"*, %"class.content::RenderViewHost"*, %"class.content::RenderViewHost"*)* @_ZN7content19WebContentsObserver21RenderViewHostChangedEPNS_14RenderViewHostES2_ to i8*), i8* bitcast (void (%"class.content::WebContentsObserver"*, %"class.content::RenderProcessHost"*)* @_ZN7content19WebContentsObserver22OnRendererUnresponsiveEPNS_17RenderProcessHostE to i8*), i8* bitcast (void (%"class.content::WebContentsObserver"*, %"class.content::RenderProcessHost"*)* @_ZN7content19WebContentsObserver20OnRendererResponsiveEPNS_17RenderProcessHostE to i8*), i8* bitcast (void (%"class.content::WebContentsObserver"*, %"class.content::NavigationHandle"*)* @_ZN7content19WebContentsObserver18DidStartNavigationEPNS_16NavigationHandleE to i8*), i8* bitcast (void (%"class.content::WebContentsObserver"*, %"class.content::NavigationHandle"*)* @_ZN7content19WebContentsObserver21DidRedirectNavigationEPNS_16NavigationHandleE to i8*), i8* bitcast (void (%"class.content::WebContentsObserver"*, %"class.content::NavigationHandle"*)* @_ZN7content19WebContentsObserver23ReadyToCommitNavigationEPNS_16NavigationHandleE to i8*), i8* bitcast (void (%"class.content::WebContentsObserver"*, %"class.content::NavigationHandle"*)* @_ZN7content19WebContentsObserver19DidFinishNavigationEPNS_16NavigationHandleE to i8*), i8* bitcast (void (%"class.content::WebContentsObserver"*, %"class.content::WebContents"*, i64)* @_ZN7content19WebContentsObserver17DidActivatePortalEPNS_11WebContentsEN4base9TimeTicksE to i8*), i8* bitcast (void (%"class.content::WebContentsObserver"*)* @_ZN7content19WebContentsObserver15DidStartLoadingEv to i8*), i8* bitcast (void (%"class.content::WebContentsObserver"*)* @_ZN7content19WebContentsObserver18DidReceiveResponseEv to i8*), i8* bitcast (void (%"class.content::WebContentsObserver"*)* @_ZN7content19WebContentsObserver14DidStopLoadingEv to i8*), i8* bitcast (void (%"class.content::WebContentsObserver"*, double)* @_ZN7content19WebContentsObserver19LoadProgressChangedEd to i8*), i8* bitcast (void (%"class.content::WebContentsObserver"*, %"class.content::RenderFrameHost"*)* @_ZN7content19WebContentsObserver28DocumentAvailableInMainFrameEPNS_15RenderFrameHostE to i8*), i8* bitcast (void (%"class.content::WebContentsObserver"*, %"class.content::RenderFrameHost"*)* @_ZN7content19WebContentsObserver34DocumentOnLoadCompletedInMainFrameEPNS_15RenderFrameHostE to i8*), i8* bitcast (void (%"class.content::WebContentsObserver"*, %"class.content::RenderFrameHost"*)* @_ZN7content19WebContentsObserver16DOMContentLoadedEPNS_15RenderFrameHostE to i8*), i8* bitcast (void (%"class.content::WebContentsObserver"*, %"class.content::RenderFrameHost"*, %class.GURL*)* @_ZN7content19WebContentsObserver13DidFinishLoadEPNS_15RenderFrameHostERK4GURL to i8*), i8* bitcast (void (%"class.content::WebContentsObserver"*, %"class.content::RenderFrameHost"*, %class.GURL*, i32)* @_ZN7content19WebContentsObserver11DidFailLoadEPNS_15RenderFrameHostERK4GURLi to i8*), i8* bitcast (void (%"class.content::WebContentsObserver"*)* @_ZN7content19WebContentsObserver29DidChangeVisibleSecurityStateEv to i8*), i8* bitcast (void (%"class.content::WebContentsObserver"*, %"class.content::RenderFrameHost"*, %class.GURL*, %"class.std::__1::basic_string"*, i32)* @_ZN7content19WebContentsObserver30DidLoadResourceFromMemoryCacheEPNS_15RenderFrameHostERK4GURLRKNSt3__112basic_stringIcNS6_11char_traitsIcEENS6_9allocatorIcEEEEN7network5mojom18RequestDestinationE to i8*), i8* bitcast (void (%"class.content::WebContentsObserver"*, %"class.content::RenderFrameHost"*, %"struct.content::GlobalRequestID"*, %"class.blink::mojom::ResourceLoadInfo"*)* @_ZN7content19WebContentsObserver20ResourceLoadCompleteEPNS_15RenderFrameHostERKNS_15GlobalRequestIDERKN5blink5mojom16ResourceLoadInfoE to i8*), i8* bitcast (void (%"class.content::WebContentsObserver"*, %"class.content::RenderFrameHost"*, %"struct.content::CookieAccessDetails"*)* @_ZN7content19WebContentsObserver17OnCookiesAccessedEPNS_15RenderFrameHostERKNS_19CookieAccessDetailsE to i8*), i8* bitcast (void (%"class.content::WebContentsObserver"*, %"class.content::NavigationHandle"*, %"struct.content::CookieAccessDetails"*)* @_ZN7content19WebContentsObserver17OnCookiesAccessedEPNS_16NavigationHandleERKNS_19CookieAccessDetailsE to i8*), i8* bitcast (void (%"class.content::WebContentsObserver"*, %"struct.content::LoadCommittedDetails"*)* @_ZN7content19WebContentsObserver24NavigationEntryCommittedERKNS_20LoadCommittedDetailsE to i8*), i8* bitcast (void (%"class.content::WebContentsObserver"*, %"struct.content::PrunedDetails"*)* @_ZN7content19WebContentsObserver20NavigationListPrunedERKNS_13PrunedDetailsE to i8*), i8* bitcast (void (%"class.content::WebContentsObserver"*)* @_ZN7content19WebContentsObserver24NavigationEntriesDeletedEv to i8*), i8* bitcast (void (%"class.content::WebContentsObserver"*, %"struct.content::EntryChangedDetails"*)* @_ZN7content19WebContentsObserver22NavigationEntryChangedERKNS_19EntryChangedDetailsE to i8*), i8* bitcast (void (%"class.content::WebContentsObserver"*, %"class.content::WebContents"*, %"class.content::RenderFrameHost"*, %class.GURL*, %"struct.content::Referrer"*, i32, i32, i1, i1)* @_ZN7content19WebContentsObserver19DidOpenRequestedURLEPNS_11WebContentsEPNS_15RenderFrameHostERK4GURLRKNS_8ReferrerE21WindowOpenDispositionN2ui14PageTransitionEbb to i8*), i8* bitcast (void (%"class.content::WebContentsObserver"*)* @_ZN7content19WebContentsObserver29DidFirstVisuallyNonEmptyPaintEv to i8*), i8* bitcast (void (%"class.content::WebContentsObserver"*)* @_ZN7content19WebContentsObserver17NavigationStoppedEv to i8*), i8* bitcast (void (%"class.content::WebContentsObserver"*, %"class.blink::WebInputEvent"*)* @_ZN7content19WebContentsObserver21DidGetUserInteractionERKN5blink13WebInputEventE to i8*), i8* bitcast (void (%"class.content::WebContentsObserver"*)* @_ZN7content19WebContentsObserver20DidGetIgnoredUIEventEv to i8*), i8* bitcast (void (%"class.content::WebContentsObserver"*, i32)* @_ZN7content19WebContentsObserver19OnVisibilityChangedENS_10VisibilityE to i8*), i8* bitcast (void (%"class.content::WebContentsObserver"*, i1)* @_ZN7content19WebContentsObserver19MainFrameWasResizedEb to i8*), i8* bitcast (void (%"class.content::WebContentsObserver"*, %"class.content::RenderFrameHost"*, %"class.std::__1::basic_string"*)* @_ZN7content19WebContentsObserver16FrameNameChangedEPNS_15RenderFrameHostERKNSt3__112basic_stringIcNS3_11char_traitsIcEENS3_9allocatorIcEEEE to i8*), i8* bitcast (void (%"class.content::WebContentsObserver"*, %"class.content::RenderFrameHost"*)* @_ZN7content19WebContentsObserver27FrameReceivedUserActivationEPNS_15RenderFrameHostE to i8*), i8* bitcast (void (%"class.content::WebContentsObserver"*, %"class.content::RenderFrameHost"*, i1)* @_ZN7content19WebContentsObserver24FrameDisplayStateChangedEPNS_15RenderFrameHostEb to i8*), i8* bitcast (void (%"class.content::WebContentsObserver"*, %"class.content::RenderFrameHost"*, %"class.gfx::Size"*)* @_ZN7content19WebContentsObserver16FrameSizeChangedEPNS_15RenderFrameHostERKN3gfx4SizeE to i8*), i8* bitcast (void (%"class.content::WebContentsObserver"*, %"class.content::NavigationEntry"*)* @_ZN7content19WebContentsObserver11TitleWasSetEPNS_15NavigationEntryE to i8*), i8* bitcast (void (%"class.content::WebContentsObserver"*, %class.GURL*, i1)* @_ZN7content19WebContentsObserver16AppCacheAccessedERK4GURLb to i8*), i8* bitcast (void (%"class.content::WebContentsObserver"*)* @_ZN7content19WebContentsObserver21PepperInstanceCreatedEv to i8*), i8* bitcast (void (%"class.content::WebContentsObserver"*)* @_ZN7content19WebContentsObserver21PepperInstanceDeletedEv to i8*), i8* bitcast (void (%"class.content::WebContentsObserver"*, i32)* @_ZN7content19WebContentsObserver18ViewportFitChangedEN5blink5mojom11ViewportFitE to i8*), i8* bitcast (void (%"class.content::WebContentsObserver"*, %"class.base::FilePath"*, i32)* @_ZN7content19WebContentsObserver13PluginCrashedERKN4base8FilePathEi to i8*), i8* bitcast (void (%"class.content::WebContentsObserver"*, i32, %"class.base::FilePath"*, i1)* @_ZN7content19WebContentsObserver23PluginHungStatusChangedEiRKN4base8FilePathEb to i8*), i8* bitcast (void (%"class.content::WebContentsObserver"*, %"class.content::WebContents"*)* @_ZN7content19WebContentsObserver23InnerWebContentsCreatedEPNS_11WebContentsE to i8*), i8* bitcast (void (%"class.content::WebContentsObserver"*, %"class.content::WebContents"*, %"class.content::RenderFrameHost"*, i1)* @_ZN7content19WebContentsObserver24InnerWebContentsAttachedEPNS_11WebContentsEPNS_15RenderFrameHostEb to i8*), i8* bitcast (void (%"class.content::WebContentsObserver"*, %"class.content::WebContents"*)* @_ZN7content19WebContentsObserver24InnerWebContentsDetachedEPNS_11WebContentsE to i8*), i8* bitcast (void (%"class.content::WebContentsObserver"*, %"class.content::WebContents"*, %"class.content::WebContents"*)* @_ZN7content19WebContentsObserver24DidCloneToNewWebContentsEPNS_11WebContentsES2_ to i8*), i8* bitcast (void (%"class.content::WebContentsObserver"*)* @_ZN7content19WebContentsObserver20WebContentsDestroyedEv to i8*), i8* bitcast (void (%"class.content::WebContentsObserver"*, %"struct.blink::UserAgentOverride"*)* @_ZN7content19WebContentsObserver20UserAgentOverrideSetERKN5blink17UserAgentOverrideE to i8*), i8* bitcast (void (%"class.content::WebContentsObserver"*, %"class.content::RenderFrameHost"*, %"class.std::__1::vector.285"*)* @_ZN7content19WebContentsObserver19DidUpdateFaviconURLEPNS_15RenderFrameHostERKNSt3__16vectorIN4mojo9StructPtrIN5blink5mojom10FaviconURLEEENS3_9allocatorISA_EEEE to i8*), i8* bitcast (void (%"class.content::WebContentsObserver"*, i1)* @_ZN7content19WebContentsObserver19OnAudioStateChangedEb to i8*), i8* bitcast (void (%"class.content::WebContentsObserver"*, %"class.content::RenderFrameHost"*, i1)* @_ZN7content19WebContentsObserver24OnFrameAudioStateChangedEPNS_15RenderFrameHostEb to i8*), i8* bitcast (void (%"class.content::WebContentsObserver"*, i1)* @_ZN7content19WebContentsObserver37OnIsConnectedToBluetoothDeviceChangedEb to i8*), i8* bitcast (void (%"class.content::WebContentsObserver"*, i1)* @_ZN7content19WebContentsObserver25DidUpdateAudioMutingStateEb to i8*), i8* bitcast (void (%"class.content::WebContentsObserver"*, i1, i1)* @_ZN7content19WebContentsObserver29DidToggleFullscreenModeForTabEbb to i8*), i8* bitcast (void (%"class.content::WebContentsObserver"*, %"class.content::RenderFrameHost"*)* @_ZN7content19WebContentsObserver20DidAcquireFullscreenEPNS_15RenderFrameHostE to i8*), i8* bitcast (void (%"class.content::WebContentsObserver"*, i32)* @_ZN7content19WebContentsObserver32DidChangeVerticalScrollDirectionEN3viz23VerticalScrollDirectionE to i8*), i8* bitcast (void (%"class.content::WebContentsObserver"*)* @_ZN7content19WebContentsObserver27BeforeFormRepostWarningShowEv to i8*), i8* bitcast (void (%"class.content::WebContentsObserver"*, i1, %"class.base::TimeTicks"*)* @_ZN7content19WebContentsObserver17BeforeUnloadFiredEbRKN4base9TimeTicksE to i8*), i8* bitcast (void (%"class.content::WebContentsObserver"*)* @_ZN7content19WebContentsObserver27BeforeUnloadDialogCancelledEv to i8*), i8* bitcast (void (%"class.content::WebContentsObserver"*)* @_ZN7content19WebContentsObserver30AXTreeIDForMainFrameHasChangedEv to i8*), i8* bitcast (void (%"class.content::WebContentsObserver"*, %"struct.content::AXEventNotificationDetails"*)* @_ZN7content19WebContentsObserver26AccessibilityEventReceivedERKNS_26AXEventNotificationDetailsE to i8*), i8* bitcast (void (%"class.content::WebContentsObserver"*, %"class.std::__1::vector.286"*)* @_ZN7content19WebContentsObserver36AccessibilityLocationChangesReceivedERKNSt3__16vectorINS_35AXLocationChangeNotificationDetailsENS1_9allocatorIS3_EEEE to i8*), i8* bitcast (void (%"class.content::WebContentsObserver"*)* @_ZN7content19WebContentsObserver19DidChangeThemeColorEv to i8*), i8* bitcast (void (%"class.content::WebContentsObserver"*)* @_ZN7content19WebContentsObserver24OnBackgroundColorChangedEv to i8*), i8* bitcast (void (%"class.content::WebContentsObserver"*, %"class.content::RenderFrameHost"*, i32, %"class.std::__1::basic_string.245"*, i32, %"class.std::__1::basic_string.245"*, %"class.absl::optional.287"*)* @_ZN7content19WebContentsObserver24OnDidAddMessageToConsoleEPNS_15RenderFrameHostEN5blink5mojom19ConsoleMessageLevelERKNSt3__112basic_stringIDsNS6_11char_traitsIDsEENS6_9allocatorIDsEEEEiSE_RKN4absl8optionalISC_EE to i8*), i8* bitcast (void (%"class.content::WebContentsObserver"*, %"struct.content::WebContentsObserver::MediaPlayerInfo"*, %"struct.content::MediaPlayerId"*)* @_ZN7content19WebContentsObserver19MediaStartedPlayingERKNS0_15MediaPlayerInfoERKNS_13MediaPlayerIdE to i8*), i8* bitcast (void (%"class.content::WebContentsObserver"*, %"struct.content::WebContentsObserver::MediaPlayerInfo"*, %"struct.content::MediaPlayerId"*, i32)* @_ZN7content19WebContentsObserver19MediaStoppedPlayingERKNS0_15MediaPlayerInfoERKNS_13MediaPlayerIdENS0_18MediaStoppedReasonE to i8*), i8* bitcast (void (%"class.content::WebContentsObserver"*, %"class.gfx::Size"*, %"struct.content::MediaPlayerId"*)* @_ZN7content19WebContentsObserver12MediaResizedERKN3gfx4SizeERKNS_13MediaPlayerIdE to i8*), i8* bitcast (void (%"class.content::WebContentsObserver"*, i1)* @_ZN7content19WebContentsObserver33MediaEffectivelyFullscreenChangedEb to i8*), i8* bitcast (void (%"class.content::WebContentsObserver"*, i1)* @_ZN7content19WebContentsObserver28MediaPictureInPictureChangedEb to i8*), i8* bitcast (void (%"class.content::WebContentsObserver"*, %"struct.content::MediaPlayerId"*, i1)* @_ZN7content19WebContentsObserver23MediaMutedStatusChangedERKNS_13MediaPlayerIdEb to i8*), i8* bitcast (void (%"class.content::WebContentsObserver"*, %"struct.content::MediaPlayerId"*)* @_ZN7content19WebContentsObserver20MediaBufferUnderflowERKNS_13MediaPlayerIdE to i8*), i8* bitcast (void (%"class.content::WebContentsObserver"*, %"struct.content::MediaPlayerId"*)* @_ZN7content19WebContentsObserver15MediaPlayerSeekERKNS_13MediaPlayerIdE to i8*), i8* bitcast (void (%"class.content::WebContentsObserver"*, %"struct.content::MediaPlayerId"*)* @_ZN7content19WebContentsObserver14MediaDestroyedERKNS_13MediaPlayerIdE to i8*), i8* bitcast (void (%"class.content::WebContentsObserver"*, float)* @_ZN7content19WebContentsObserver24OnPageScaleFactorChangedEf to i8*), i8* bitcast (void (%"class.content::WebContentsObserver"*)* @_ZN7content19WebContentsObserver7OnPasteEv to i8*), i8* bitcast (i1 (%"class.content::WebContentsObserver"*, %"class.IPC::Message"*, %"class.content::RenderFrameHost"*)* @_ZN7content19WebContentsObserver17OnMessageReceivedERKN3IPC7MessageEPNS_15RenderFrameHostE to i8*), i8* bitcast (void (%"class.content::WebContentsObserver"*, %"class.content::RenderWidgetHost"*)* @_ZN7content19WebContentsObserver20OnWebContentsFocusedEPNS_16RenderWidgetHostE to i8*), i8* bitcast (void (%"class.content::WebContentsObserver"*, %"class.content::RenderWidgetHost"*)* @_ZN7content19WebContentsObserver22OnWebContentsLostFocusEPNS_16RenderWidgetHostE to i8*), i8* bitcast (void (%"class.content::WebContentsObserver"*, %"struct.content::FocusedNodeDetails"*)* @_ZN7content19WebContentsObserver20OnFocusChangedInPageEPNS_18FocusedNodeDetailsE to i8*), i8* bitcast (void (%"class.content::WebContentsObserver"*, %"class.content::RenderFrameHost"*, %"class.absl::optional.292"*)* @_ZN7content19WebContentsObserver23DidUpdateWebManifestURLEPNS_15RenderFrameHostERKN4absl8optionalI4GURLEE to i8*), i8* bitcast (void (%"class.content::WebContentsObserver"*, %"class.content::RenderFrameHost"*, %"class.std::__1::basic_string"*, %"class.mojo::ScopedHandleBase"*)* @_ZN7content19WebContentsObserver27OnInterfaceRequestFromFrameEPNS_15RenderFrameHostERKNSt3__112basic_stringIcNS3_11char_traitsIcEENS3_9allocatorIcEEEEPN4mojo16ScopedHandleBaseINSC_17MessagePipeHandleEEE to i8*), i8* bitcast (void (%"class.content::WebContentsObserver"*, %"struct.std::__1::pair.297"*)* @_ZN7content19WebContentsObserver27AudioContextPlaybackStartedERKNSt3__14pairIPNS_15RenderFrameHostEiEE to i8*), i8* bitcast (void (%"class.content::WebContentsObserver"*, %"struct.std::__1::pair.297"*)* @_ZN7content19WebContentsObserver27AudioContextPlaybackStoppedERKNSt3__14pairIPNS_15RenderFrameHostEiEE to i8*), i8* bitcast (void (%"class.content::WebContentsObserver"*, %"class.content::RenderFrameHost"*, %class.GURL*, i24)* @_ZN7content19WebContentsObserver23OnServiceWorkerAccessedEPNS_15RenderFrameHostERK4GURLNS_24AllowServiceWorkerResultE to i8*), i8* bitcast (void (%"class.content::WebContentsObserver"*, %"class.content::NavigationHandle"*, %class.GURL*, i24)* @_ZN7content19WebContentsObserver23OnServiceWorkerAccessedEPNS_16NavigationHandleERK4GURLNS_24AllowServiceWorkerResultE to i8*)] }, comdat, align 8
@_ZTVN4mojo15ReceiverSetBaseINS_18AssociatedReceiverIN3pdf5mojom10PdfServiceENS_19RawPtrImplRefTraitsIS4_EEEEPN7content15RenderFrameHostEE13ReceiverEntryE = linkonce_odr hidden unnamed_addr constant { [7 x i8*] } { [7 x i8*] [i8* null, i8* null, i8* bitcast (void (%"class.mojo::ReceiverSetBase<mojo::AssociatedReceiver<pdf::mojom::PdfService, mojo::RawPtrImplRefTraits<pdf::mojom::PdfService> >, content::RenderFrameHost *>::ReceiverEntry"*)* @_ZN4mojo15ReceiverSetBaseINS_18AssociatedReceiverIN3pdf5mojom10PdfServiceENS_19RawPtrImplRefTraitsIS4_EEEEPN7content15RenderFrameHostEE13ReceiverEntryD2Ev to i8*), i8* bitcast (void (%"class.mojo::ReceiverSetBase<mojo::AssociatedReceiver<pdf::mojom::PdfService, mojo::RawPtrImplRefTraits<pdf::mojom::PdfService> >, content::RenderFrameHost *>::ReceiverEntry"*)* @_ZN4mojo15ReceiverSetBaseINS_18AssociatedReceiverIN3pdf5mojom10PdfServiceENS_19RawPtrImplRefTraitsIS4_EEEEPN7content15RenderFrameHostEE13ReceiverEntryD0Ev to i8*), i8* bitcast (i8* (%"class.mojo::ReceiverSetBase<mojo::AssociatedReceiver<pdf::mojom::PdfService, mojo::RawPtrImplRefTraits<pdf::mojom::PdfService> >, content::RenderFrameHost *>::ReceiverEntry"*)* @_ZNK4mojo15ReceiverSetBaseINS_18AssociatedReceiverIN3pdf5mojom10PdfServiceENS_19RawPtrImplRefTraitsIS4_EEEEPN7content15RenderFrameHostEE13ReceiverEntry10GetContextEv to i8*), i8* bitcast (void (%"class.mojo::ReceiverSetBase<mojo::AssociatedReceiver<pdf::mojom::PdfService, mojo::RawPtrImplRefTraits<pdf::mojom::PdfService> >, content::RenderFrameHost *>::ReceiverEntry"*, %"class.mojo::MessageFilter"*, %"class.base::RepeatingCallback.15"*)* @_ZN4mojo15ReceiverSetBaseINS_18AssociatedReceiverIN3pdf5mojom10PdfServiceENS_19RawPtrImplRefTraitsIS4_EEEEPN7content15RenderFrameHostEE13ReceiverEntry20InstallDispatchHooksENSt3__110unique_ptrINS_13MessageFilterENSD_14default_deleteISF_EEEEN4base17RepeatingCallbackIFvjRKNSD_12basic_stringIcNSD_11char_traitsIcEENSD_9allocatorIcEEEEEEE to i8*), i8* bitcast (void (%"class.mojo::ReceiverSetBase<mojo::AssociatedReceiver<pdf::mojom::PdfService, mojo::RawPtrImplRefTraits<pdf::mojom::PdfService> >, content::RenderFrameHost *>::ReceiverEntry"*)* @_ZN4mojo15ReceiverSetBaseINS_18AssociatedReceiverIN3pdf5mojom10PdfServiceENS_19RawPtrImplRefTraitsIS4_EEEEPN7content15RenderFrameHostEE13ReceiverEntry15FlushForTestingEv to i8*)] }, comdat, align 8
@_ZTVN3pdf5mojom14PdfServiceStubIN4mojo19RawPtrImplRefTraitsINS0_10PdfServiceEEEEE = linkonce_odr hidden unnamed_addr constant { [7 x i8*] } { [7 x i8*] [i8* null, i8* null, i8* bitcast (void (%"class.mojo::MessageReceiver"*)* @_ZN4mojo15MessageReceiverD2Ev to i8*), i8* bitcast (void (%"class.pdf::mojom::PdfServiceStub"*)* @_ZN3pdf5mojom14PdfServiceStubIN4mojo19RawPtrImplRefTraitsINS0_10PdfServiceEEEED0Ev to i8*), i8* bitcast (i1 (%"class.mojo::MessageReceiver"*)* @_ZN4mojo15MessageReceiver25PrefersSerializedMessagesEv to i8*), i8* bitcast (i1 (%"class.pdf::mojom::PdfServiceStub"*, %"class.mojo::Message"*)* @_ZN3pdf5mojom14PdfServiceStubIN4mojo19RawPtrImplRefTraitsINS0_10PdfServiceEEEE6AcceptEPNS2_7MessageE to i8*), i8* bitcast (i1 (%"class.pdf::mojom::PdfServiceStub"*, %"class.mojo::Message"*, %"class.mojo::MessageReceiverWithStatus"*)* @_ZN3pdf5mojom14PdfServiceStubIN4mojo19RawPtrImplRefTraitsINS0_10PdfServiceEEEE19AcceptWithResponderEPNS2_7MessageENSt3__110unique_ptrINS2_25MessageReceiverWithStatusENS9_14default_deleteISB_EEEE to i8*)] }, comdat, align 8
@_ZN3pdf5mojom10PdfService5Name_E = external constant [0 x i8], align 1
@_ZTVN3pdf5mojom26PdfServiceRequestValidatorE = external unnamed_addr constant { [6 x i8*] }, align 8
@_ZTVN7content22WebContentsReceiverSet6BinderE = external unnamed_addr constant { [6 x i8*] }, align 8
@_ZN3pdf5mojom11PdfListener5Name_E = external constant [0 x i8], align 1

@_ZN3pdf20PDFWebContentsHelperC1EPN7content11WebContentsENSt3__110unique_ptrINS_26PDFWebContentsHelperClientENS4_14default_deleteIS6_EEEE = hidden unnamed_addr alias void (%"class.pdf::PDFWebContentsHelper"*, %"class.content::WebContents"*, %"class.pdf::PDFWebContentsHelperClient"*), void (%"class.pdf::PDFWebContentsHelper"*, %"class.content::WebContents"*, %"class.pdf::PDFWebContentsHelperClient"*)* @_ZN3pdf20PDFWebContentsHelperC2EPN7content11WebContentsENSt3__110unique_ptrINS_26PDFWebContentsHelperClientENS4_14default_deleteIS6_EEEE
@_ZN3pdf20PDFWebContentsHelperD1Ev = hidden unnamed_addr alias void (%"class.pdf::PDFWebContentsHelper"*), void (%"class.pdf::PDFWebContentsHelper"*)* @_ZN3pdf20PDFWebContentsHelperD2Ev

; Function Attrs: nounwind ssp uwtable
define hidden void @_ZN3pdf20PDFWebContentsHelper30CreateForWebContentsWithClientEPN7content11WebContentsENSt3__110unique_ptrINS_26PDFWebContentsHelperClientENS4_14default_deleteIS6_EEEE(%"class.content::WebContents"*, %"class.pdf::PDFWebContentsHelperClient"*) local_unnamed_addr #0 align 2 {
  %3 = getelementptr inbounds %"class.content::WebContents", %"class.content::WebContents"* %0, i64 0, i32 1
  %4 = bitcast %"class.base::SupportsUserData.base"* %3 to %"class.base::SupportsUserData"*
  %5 = tail call %"class.base::SupportsUserData::Data"* @_ZNK4base16SupportsUserData11GetUserDataEPKv(%"class.base::SupportsUserData"* %4, i8* bitcast (i32* @_ZN3pdf20PDFWebContentsHelper12kUserDataKeyE to i8*)) #14
  %6 = icmp eq %"class.base::SupportsUserData::Data"* %5, null
  %7 = getelementptr inbounds %"class.base::SupportsUserData::Data", %"class.base::SupportsUserData::Data"* %5, i64 -2
  %8 = icmp eq %"class.base::SupportsUserData::Data"* %7, null
  %9 = or i1 %6, %8
  br i1 %9, label %10, label %36

10:                                               ; preds = %2
  %11 = ptrtoint %"class.pdf::PDFWebContentsHelperClient"* %1 to i64
  %12 = tail call i8* @_Znwm(i64 328) #15
  %13 = bitcast i8* %12 to %"class.content::WebContentsObserver"*
  tail call void @_ZN7content19WebContentsObserverC2EPNS_11WebContentsE(%"class.content::WebContentsObserver"* nonnull %13, %"class.content::WebContents"* %0) #14
  %14 = getelementptr inbounds i8, i8* %12, i64 16
  %15 = getelementptr inbounds i8, i8* %12, i64 24
  %16 = bitcast i8* %15 to %"class.pdf::mojom::PdfService"*
  %17 = bitcast i8* %14 to <2 x i32 (...)**>*
  store <2 x i32 (...)**> <i32 (...)** bitcast (i8** getelementptr inbounds ({ [5 x i8*] }, { [5 x i8*] }* @_ZTVN7content19WebContentsUserDataIN3pdf20PDFWebContentsHelperEEE, i64 0, inrange i32 0, i64 2) to i32 (...)**), i32 (...)** bitcast (i8** getelementptr inbounds ({ [10 x i8*] }, { [10 x i8*] }* @_ZTVN3pdf5mojom10PdfServiceE, i64 0, inrange i32 0, i64 2) to i32 (...)**)>, <2 x i32 (...)**>* %17, align 8
  %18 = getelementptr inbounds i8, i8* %12, i64 32
  %19 = bitcast i8* %18 to <2 x i32 (...)**>*
  store <2 x i32 (...)**> <i32 (...)** bitcast (i8** getelementptr inbounds ({ [14 x i8*] }, { [14 x i8*] }* @_ZTVN2ui30TouchSelectionControllerClientE, i64 0, inrange i32 0, i64 2) to i32 (...)**), i32 (...)** bitcast (i8** getelementptr inbounds ({ [9 x i8*] }, { [9 x i8*] }* @_ZTVN2ui24TouchSelectionMenuClientE, i64 0, inrange i32 0, i64 2) to i32 (...)**)>, <2 x i32 (...)**>* %19, align 8
  %20 = getelementptr inbounds i8, i8* %12, i64 48
  %21 = bitcast i8* %20 to %"class.base::CheckedObserver"*
  tail call void @_ZN4base15CheckedObserverC2Ev(%"class.base::CheckedObserver"* %21) #14
  %22 = bitcast i8* %20 to i32 (...)***
  %23 = bitcast i8* %12 to i32 (...)***
  store i32 (...)** bitcast (i8** getelementptr inbounds ({ [130 x i8*], [5 x i8*], [10 x i8*], [14 x i8*], [9 x i8*], [5 x i8*] }, { [130 x i8*], [5 x i8*], [10 x i8*], [14 x i8*], [9 x i8*], [5 x i8*] }* @_ZTVN3pdf20PDFWebContentsHelperE, i64 0, inrange i32 0, i64 2) to i32 (...)**), i32 (...)*** %23, align 8
  %24 = bitcast i8* %14 to <2 x i32 (...)**>*
  store <2 x i32 (...)**> <i32 (...)** bitcast (i8** getelementptr inbounds ({ [130 x i8*], [5 x i8*], [10 x i8*], [14 x i8*], [9 x i8*], [5 x i8*] }, { [130 x i8*], [5 x i8*], [10 x i8*], [14 x i8*], [9 x i8*], [5 x i8*] }* @_ZTVN3pdf20PDFWebContentsHelperE, i64 0, inrange i32 1, i64 2) to i32 (...)**), i32 (...)** bitcast (i8** getelementptr inbounds ({ [130 x i8*], [5 x i8*], [10 x i8*], [14 x i8*], [9 x i8*], [5 x i8*] }, { [130 x i8*], [5 x i8*], [10 x i8*], [14 x i8*], [9 x i8*], [5 x i8*] }* @_ZTVN3pdf20PDFWebContentsHelperE, i64 0, inrange i32 2, i64 2) to i32 (...)**)>, <2 x i32 (...)**>* %24, align 8
  %25 = bitcast i8* %18 to <2 x i32 (...)**>*
  store <2 x i32 (...)**> <i32 (...)** bitcast (i8** getelementptr inbounds ({ [130 x i8*], [5 x i8*], [10 x i8*], [14 x i8*], [9 x i8*], [5 x i8*] }, { [130 x i8*], [5 x i8*], [10 x i8*], [14 x i8*], [9 x i8*], [5 x i8*] }* @_ZTVN3pdf20PDFWebContentsHelperE, i64 0, inrange i32 3, i64 2) to i32 (...)**), i32 (...)** bitcast (i8** getelementptr inbounds ({ [130 x i8*], [5 x i8*], [10 x i8*], [14 x i8*], [9 x i8*], [5 x i8*] }, { [130 x i8*], [5 x i8*], [10 x i8*], [14 x i8*], [9 x i8*], [5 x i8*] }* @_ZTVN3pdf20PDFWebContentsHelperE, i64 0, inrange i32 4, i64 2) to i32 (...)**)>, <2 x i32 (...)**>* %25, align 8
  store i32 (...)** bitcast (i8** getelementptr inbounds ({ [130 x i8*], [5 x i8*], [10 x i8*], [14 x i8*], [9 x i8*], [5 x i8*] }, { [130 x i8*], [5 x i8*], [10 x i8*], [14 x i8*], [9 x i8*], [5 x i8*] }* @_ZTVN3pdf20PDFWebContentsHelperE, i64 0, inrange i32 5, i64 2) to i32 (...)**), i32 (...)*** %22, align 8
  %26 = getelementptr inbounds i8, i8* %12, i64 72
  %27 = bitcast i8* %26 to %"class.content::WebContentsFrameReceiverSet"*
  tail call void @_ZN7content27WebContentsFrameReceiverSetIN3pdf5mojom10PdfServiceEEC2EPNS_11WebContentsEPS3_(%"class.content::WebContentsFrameReceiverSet"* %27, %"class.content::WebContents"* %0, %"class.pdf::mojom::PdfService"* %16) #14
  %28 = getelementptr inbounds i8, i8* %12, i64 232
  %29 = bitcast i8* %28 to i64*
  store i64 %11, i64* %29, align 8
  %30 = getelementptr inbounds i8, i8* %12, i64 240
  %31 = getelementptr inbounds i8, i8* %12, i64 280
  %32 = bitcast i8* %31 to %"class.mojo::internal::InterfacePtrStateBase"*
  tail call void @llvm.memset.p0i8.i64(i8* align 8 %30, i8 0, i64 33, i1 false) #14
  tail call void @_ZN4mojo8internal21InterfacePtrStateBaseC2Ev(%"class.mojo::internal::InterfacePtrStateBase"* %32) #14
  %33 = getelementptr inbounds i8, i8* %12, i64 320
  %34 = bitcast i8* %33 to i64*
  store i64 0, i64* %34, align 8
  %35 = bitcast i8* %14 to %"class.base::SupportsUserData::Data"*
  tail call void @_ZN4base16SupportsUserData11SetUserDataEPKvNSt3__110unique_ptrINS0_4DataENS3_14default_deleteIS5_EEEE(%"class.base::SupportsUserData"* %4, i8* bitcast (i32* @_ZN3pdf20PDFWebContentsHelper12kUserDataKeyE to i8*), %"class.base::SupportsUserData::Data"* %35) #14
  br label %43

36:                                               ; preds = %2
  %37 = icmp eq %"class.pdf::PDFWebContentsHelperClient"* %1, null
  br i1 %37, label %43, label %38

38:                                               ; preds = %36
  %39 = bitcast %"class.pdf::PDFWebContentsHelperClient"* %1 to void (%"class.pdf::PDFWebContentsHelperClient"*)***
  %40 = load void (%"class.pdf::PDFWebContentsHelperClient"*)**, void (%"class.pdf::PDFWebContentsHelperClient"*)*** %39, align 8
  %41 = getelementptr inbounds void (%"class.pdf::PDFWebContentsHelperClient"*)*, void (%"class.pdf::PDFWebContentsHelperClient"*)** %40, i64 1
  %42 = load void (%"class.pdf::PDFWebContentsHelperClient"*)*, void (%"class.pdf::PDFWebContentsHelperClient"*)** %41, align 8
  tail call void %42(%"class.pdf::PDFWebContentsHelperClient"* nonnull %1) #14
  br label %43

43:                                               ; preds = %10, %36, %38
  ret void
}

declare void @_ZN4base16SupportsUserData11SetUserDataEPKvNSt3__110unique_ptrINS0_4DataENS3_14default_deleteIS5_EEEE(%"class.base::SupportsUserData"*, i8*, %"class.base::SupportsUserData::Data"*) local_unnamed_addr #1

; Function Attrs: argmemonly nounwind
declare void @llvm.lifetime.start.p0i8(i64 immarg, i8* nocapture) #2

; Function Attrs: nobuiltin nofree
declare noalias nonnull i8* @_Znwm(i64) local_unnamed_addr #3

; Function Attrs: argmemonly nounwind
declare void @llvm.lifetime.end.p0i8(i64 immarg, i8* nocapture) #2

; Function Attrs: nounwind ssp uwtable
define hidden void @_ZN3pdf20PDFWebContentsHelperC2EPN7content11WebContentsENSt3__110unique_ptrINS_26PDFWebContentsHelperClientENS4_14default_deleteIS6_EEEE(%"class.pdf::PDFWebContentsHelper"*, %"class.content::WebContents"*, %"class.pdf::PDFWebContentsHelperClient"*) unnamed_addr #0 align 2 {
  %4 = ptrtoint %"class.pdf::PDFWebContentsHelperClient"* %2 to i64
  %5 = getelementptr inbounds %"class.pdf::PDFWebContentsHelper", %"class.pdf::PDFWebContentsHelper"* %0, i64 0, i32 0
  tail call void @_ZN7content19WebContentsObserverC2EPNS_11WebContentsE(%"class.content::WebContentsObserver"* %5, %"class.content::WebContents"* %1) #14
  %6 = getelementptr inbounds %"class.pdf::PDFWebContentsHelper", %"class.pdf::PDFWebContentsHelper"* %0, i64 0, i32 1, i32 0, i32 0
  %7 = getelementptr inbounds %"class.pdf::PDFWebContentsHelper", %"class.pdf::PDFWebContentsHelper"* %0, i64 0, i32 2
  %8 = bitcast i32 (...)*** %6 to <2 x i32 (...)**>*
  store <2 x i32 (...)**> <i32 (...)** bitcast (i8** getelementptr inbounds ({ [5 x i8*] }, { [5 x i8*] }* @_ZTVN7content19WebContentsUserDataIN3pdf20PDFWebContentsHelperEEE, i64 0, inrange i32 0, i64 2) to i32 (...)**), i32 (...)** bitcast (i8** getelementptr inbounds ({ [10 x i8*] }, { [10 x i8*] }* @_ZTVN3pdf5mojom10PdfServiceE, i64 0, inrange i32 0, i64 2) to i32 (...)**)>, <2 x i32 (...)**>* %8, align 8
  %9 = getelementptr inbounds %"class.pdf::PDFWebContentsHelper", %"class.pdf::PDFWebContentsHelper"* %0, i64 0, i32 3, i32 0
  %10 = bitcast i32 (...)*** %9 to <2 x i32 (...)**>*
  store <2 x i32 (...)**> <i32 (...)** bitcast (i8** getelementptr inbounds ({ [14 x i8*] }, { [14 x i8*] }* @_ZTVN2ui30TouchSelectionControllerClientE, i64 0, inrange i32 0, i64 2) to i32 (...)**), i32 (...)** bitcast (i8** getelementptr inbounds ({ [9 x i8*] }, { [9 x i8*] }* @_ZTVN2ui24TouchSelectionMenuClientE, i64 0, inrange i32 0, i64 2) to i32 (...)**)>, <2 x i32 (...)**>* %10, align 8
  %11 = getelementptr inbounds %"class.pdf::PDFWebContentsHelper", %"class.pdf::PDFWebContentsHelper"* %0, i64 0, i32 5
  %12 = getelementptr inbounds %"class.content::TouchSelectionControllerClientManager::Observer", %"class.content::TouchSelectionControllerClientManager::Observer"* %11, i64 0, i32 0
  tail call void @_ZN4base15CheckedObserverC2Ev(%"class.base::CheckedObserver"* %12) #14
  %13 = getelementptr inbounds %"class.content::TouchSelectionControllerClientManager::Observer", %"class.content::TouchSelectionControllerClientManager::Observer"* %11, i64 0, i32 0, i32 0
  %14 = getelementptr inbounds %"class.pdf::PDFWebContentsHelper", %"class.pdf::PDFWebContentsHelper"* %0, i64 0, i32 0, i32 0, i32 0
  store i32 (...)** bitcast (i8** getelementptr inbounds ({ [130 x i8*], [5 x i8*], [10 x i8*], [14 x i8*], [9 x i8*], [5 x i8*] }, { [130 x i8*], [5 x i8*], [10 x i8*], [14 x i8*], [9 x i8*], [5 x i8*] }* @_ZTVN3pdf20PDFWebContentsHelperE, i64 0, inrange i32 0, i64 2) to i32 (...)**), i32 (...)*** %14, align 8
  %15 = bitcast i32 (...)*** %6 to <2 x i32 (...)**>*
  store <2 x i32 (...)**> <i32 (...)** bitcast (i8** getelementptr inbounds ({ [130 x i8*], [5 x i8*], [10 x i8*], [14 x i8*], [9 x i8*], [5 x i8*] }, { [130 x i8*], [5 x i8*], [10 x i8*], [14 x i8*], [9 x i8*], [5 x i8*] }* @_ZTVN3pdf20PDFWebContentsHelperE, i64 0, inrange i32 1, i64 2) to i32 (...)**), i32 (...)** bitcast (i8** getelementptr inbounds ({ [130 x i8*], [5 x i8*], [10 x i8*], [14 x i8*], [9 x i8*], [5 x i8*] }, { [130 x i8*], [5 x i8*], [10 x i8*], [14 x i8*], [9 x i8*], [5 x i8*] }* @_ZTVN3pdf20PDFWebContentsHelperE, i64 0, inrange i32 2, i64 2) to i32 (...)**)>, <2 x i32 (...)**>* %15, align 8
  %16 = bitcast i32 (...)*** %9 to <2 x i32 (...)**>*
  store <2 x i32 (...)**> <i32 (...)** bitcast (i8** getelementptr inbounds ({ [130 x i8*], [5 x i8*], [10 x i8*], [14 x i8*], [9 x i8*], [5 x i8*] }, { [130 x i8*], [5 x i8*], [10 x i8*], [14 x i8*], [9 x i8*], [5 x i8*] }* @_ZTVN3pdf20PDFWebContentsHelperE, i64 0, inrange i32 3, i64 2) to i32 (...)**), i32 (...)** bitcast (i8** getelementptr inbounds ({ [130 x i8*], [5 x i8*], [10 x i8*], [14 x i8*], [9 x i8*], [5 x i8*] }, { [130 x i8*], [5 x i8*], [10 x i8*], [14 x i8*], [9 x i8*], [5 x i8*] }* @_ZTVN3pdf20PDFWebContentsHelperE, i64 0, inrange i32 4, i64 2) to i32 (...)**)>, <2 x i32 (...)**>* %16, align 8
  store i32 (...)** bitcast (i8** getelementptr inbounds ({ [130 x i8*], [5 x i8*], [10 x i8*], [14 x i8*], [9 x i8*], [5 x i8*] }, { [130 x i8*], [5 x i8*], [10 x i8*], [14 x i8*], [9 x i8*], [5 x i8*] }* @_ZTVN3pdf20PDFWebContentsHelperE, i64 0, inrange i32 5, i64 2) to i32 (...)**), i32 (...)*** %13, align 8
  %17 = getelementptr inbounds %"class.pdf::PDFWebContentsHelper", %"class.pdf::PDFWebContentsHelper"* %0, i64 0, i32 6
  tail call void @_ZN7content27WebContentsFrameReceiverSetIN3pdf5mojom10PdfServiceEEC2EPNS_11WebContentsEPS3_(%"class.content::WebContentsFrameReceiverSet"* %17, %"class.content::WebContents"* %1, %"class.pdf::mojom::PdfService"* %7)
  %18 = getelementptr inbounds %"class.pdf::PDFWebContentsHelper", %"class.pdf::PDFWebContentsHelper"* %0, i64 0, i32 7
  %19 = bitcast %"class.std::__1::unique_ptr"* %18 to i64*
  store i64 %4, i64* %19, align 8
  %20 = getelementptr inbounds %"class.pdf::PDFWebContentsHelper", %"class.pdf::PDFWebContentsHelper"* %0, i64 0, i32 8
  %21 = getelementptr inbounds %"class.pdf::PDFWebContentsHelper", %"class.pdf::PDFWebContentsHelper"* %0, i64 0, i32 14
  %22 = bitcast %"class.mojo::Remote"* %21 to %"class.mojo::internal::InterfacePtrStateBase"*
  %23 = bitcast %"class.content::TouchSelectionControllerClientManager"** %20 to i8*
  call void @llvm.memset.p0i8.i64(i8* align 8 %23, i8 0, i64 33, i1 false)
  tail call void @_ZN4mojo8internal21InterfacePtrStateBaseC2Ev(%"class.mojo::internal::InterfacePtrStateBase"* %22) #14
  %24 = getelementptr inbounds %"class.pdf::PDFWebContentsHelper", %"class.pdf::PDFWebContentsHelper"* %0, i64 0, i32 14, i32 0, i32 1
  %25 = bitcast %"class.std::__1::unique_ptr.209"* %24 to i64*
  store i64 0, i64* %25, align 8
  ret void
}

declare void @_ZN7content19WebContentsObserverC2EPNS_11WebContentsE(%"class.content::WebContentsObserver"*, %"class.content::WebContents"*) unnamed_addr #1

; Function Attrs: nounwind ssp uwtable
define linkonce_odr hidden void @_ZN7content27WebContentsFrameReceiverSetIN3pdf5mojom10PdfServiceEEC2EPNS_11WebContentsEPS3_(%"class.content::WebContentsFrameReceiverSet"*, %"class.content::WebContents"*, %"class.pdf::mojom::PdfService"*) unnamed_addr #0 comdat align 2 {
  %4 = alloca %"class.std::__1::basic_string", align 8
  %5 = getelementptr inbounds %"class.content::WebContentsFrameReceiverSet", %"class.content::WebContentsFrameReceiverSet"* %0, i64 0, i32 0
  %6 = bitcast %"class.std::__1::basic_string"* %4 to i8*
  call void @llvm.lifetime.start.p0i8(i64 24, i8* nonnull %6) #14
  %7 = tail call i64 @strlen(i8* getelementptr inbounds ([0 x i8], [0 x i8]* @_ZN3pdf5mojom10PdfService5Name_E, i64 0, i64 0)) #14
  %8 = icmp ugt i64 %7, -17
  br i1 %8, label %9, label %11

9:                                                ; preds = %3
  %10 = bitcast %"class.std::__1::basic_string"* %4 to %"class.std::__1::__basic_string_common"*
  call void @_ZNKSt3__121__basic_string_commonILb1EE20__throw_length_errorEv(%"class.std::__1::__basic_string_common"* nonnull %10) #16
  unreachable

11:                                               ; preds = %3
  %12 = icmp ult i64 %7, 23
  br i1 %12, label %22, label %13

13:                                               ; preds = %11
  %14 = add nuw i64 %7, 16
  %15 = and i64 %14, -16
  %16 = tail call i8* @_Znwm(i64 %15) #15
  %17 = getelementptr inbounds %"class.std::__1::basic_string", %"class.std::__1::basic_string"* %4, i64 0, i32 0, i32 0, i32 0, i32 0, i32 0, i32 0
  store i8* %16, i8** %17, align 8
  %18 = or i64 %15, -9223372036854775808
  %19 = getelementptr inbounds %"class.std::__1::basic_string", %"class.std::__1::basic_string"* %4, i64 0, i32 0, i32 0, i32 0, i32 0, i32 0, i32 2
  store i64 %18, i64* %19, align 8
  %20 = getelementptr inbounds %"class.std::__1::basic_string", %"class.std::__1::basic_string"* %4, i64 0, i32 0, i32 0, i32 0, i32 0, i32 0, i32 1
  store i64 %7, i64* %20, align 8
  %21 = bitcast %"class.std::__1::basic_string"* %4 to %"struct.std::__1::basic_string<char, std::__1::char_traits<char>, std::__1::allocator<char> >::__short"*
  br label %27

22:                                               ; preds = %11
  %23 = trunc i64 %7 to i8
  %24 = bitcast %"class.std::__1::basic_string"* %4 to %"struct.std::__1::basic_string<char, std::__1::char_traits<char>, std::__1::allocator<char> >::__short"*
  %25 = getelementptr inbounds %"struct.std::__1::basic_string<char, std::__1::char_traits<char>, std::__1::allocator<char> >::__short", %"struct.std::__1::basic_string<char, std::__1::char_traits<char>, std::__1::allocator<char> >::__short"* %24, i64 0, i32 1, i32 0
  store i8 %23, i8* %25, align 1
  %26 = icmp eq i64 %7, 0
  br i1 %26, label %30, label %27

27:                                               ; preds = %22, %13
  %28 = phi %"struct.std::__1::basic_string<char, std::__1::char_traits<char>, std::__1::allocator<char> >::__short"* [ %24, %22 ], [ %21, %13 ]
  %29 = phi i8* [ %6, %22 ], [ %16, %13 ]
  call void @llvm.memcpy.p0i8.p0i8.i64(i8* nonnull align 1 %29, i8* align 1 getelementptr inbounds ([0 x i8], [0 x i8]* @_ZN3pdf5mojom10PdfService5Name_E, i64 0, i64 0), i64 %7, i1 false) #14
  br label %30

30:                                               ; preds = %22, %27
  %31 = phi %"struct.std::__1::basic_string<char, std::__1::char_traits<char>, std::__1::allocator<char> >::__short"* [ %24, %22 ], [ %28, %27 ]
  %32 = phi i8* [ %6, %22 ], [ %29, %27 ]
  %33 = getelementptr inbounds i8, i8* %32, i64 %7
  store i8 0, i8* %33, align 1
  call void @_ZN7content22WebContentsReceiverSetC2EPNS_11WebContentsERKNSt3__112basic_stringIcNS3_11char_traitsIcEENS3_9allocatorIcEEEE(%"class.content::WebContentsReceiverSet"* %5, %"class.content::WebContents"* %1, %"class.std::__1::basic_string"* nonnull dereferenceable(24) %4) #14
  %34 = getelementptr inbounds %"struct.std::__1::basic_string<char, std::__1::char_traits<char>, std::__1::allocator<char> >::__short", %"struct.std::__1::basic_string<char, std::__1::char_traits<char>, std::__1::allocator<char> >::__short"* %31, i64 0, i32 1, i32 0
  %35 = load i8, i8* %34, align 1
  %36 = icmp slt i8 %35, 0
  br i1 %36, label %37, label %40

37:                                               ; preds = %30
  %38 = getelementptr inbounds %"class.std::__1::basic_string", %"class.std::__1::basic_string"* %4, i64 0, i32 0, i32 0, i32 0, i32 0, i32 0, i32 0
  %39 = load i8*, i8** %38, align 8
  call void @_ZdlPv(i8* %39) #15
  br label %40

40:                                               ; preds = %30, %37
  call void @llvm.lifetime.end.p0i8(i64 24, i8* nonnull %6) #14
  %41 = getelementptr inbounds %"class.content::WebContentsFrameReceiverSet", %"class.content::WebContentsFrameReceiverSet"* %0, i64 0, i32 1
  %42 = getelementptr inbounds %"class.content::WebContentsFrameReceiverSet<pdf::mojom::PdfService>::FrameInterfaceBinder", %"class.content::WebContentsFrameReceiverSet<pdf::mojom::PdfService>::FrameInterfaceBinder"* %41, i64 0, i32 0, i32 0
  store i32 (...)** bitcast (i8** getelementptr inbounds ({ [6 x i8*] }, { [6 x i8*] }* @_ZTVN7content22WebContentsReceiverSet6BinderE, i64 0, inrange i32 0, i64 2) to i32 (...)**), i32 (...)*** %42, align 8
  %43 = getelementptr inbounds %"class.content::WebContentsFrameReceiverSet", %"class.content::WebContentsFrameReceiverSet"* %0, i64 0, i32 1, i32 1
  call void @_ZN7content19WebContentsObserverC2EPNS_11WebContentsE(%"class.content::WebContentsObserver"* %43, %"class.content::WebContents"* %1) #14
  %44 = bitcast %"class.content::WebContentsFrameReceiverSet<pdf::mojom::PdfService>::FrameInterfaceBinder"* %41 to <2 x i32 (...)**>*
  store <2 x i32 (...)**> <i32 (...)** bitcast (i8** getelementptr inbounds ({ [7 x i8*], [109 x i8*] }, { [7 x i8*], [109 x i8*] }* @_ZTVN7content27WebContentsFrameReceiverSetIN3pdf5mojom10PdfServiceEE20FrameInterfaceBinderE, i64 0, inrange i32 0, i64 2) to i32 (...)**), i32 (...)** bitcast (i8** getelementptr inbounds ({ [7 x i8*], [109 x i8*] }, { [7 x i8*], [109 x i8*] }* @_ZTVN7content27WebContentsFrameReceiverSetIN3pdf5mojom10PdfServiceEE20FrameInterfaceBinderE, i64 0, inrange i32 1, i64 2) to i32 (...)**)>, <2 x i32 (...)**>* %44, align 8
  %45 = getelementptr inbounds %"class.content::WebContentsFrameReceiverSet", %"class.content::WebContentsFrameReceiverSet"* %0, i64 0, i32 1, i32 2
  store %"class.pdf::mojom::PdfService"* %2, %"class.pdf::mojom::PdfService"** %45, align 8
  %46 = getelementptr inbounds %"class.content::WebContentsFrameReceiverSet", %"class.content::WebContentsFrameReceiverSet"* %0, i64 0, i32 1, i32 3, i32 0
  call void @_ZN4mojo16ReceiverSetStateC1Ev(%"class.mojo::ReceiverSetState"* %46) #14
  %47 = getelementptr inbounds %"class.content::WebContentsFrameReceiverSet", %"class.content::WebContentsFrameReceiverSet"* %0, i64 0, i32 1, i32 4, i32 0, i32 1, i32 0, i32 0, i32 0
  %48 = getelementptr inbounds %"class.content::WebContentsFrameReceiverSet", %"class.content::WebContentsFrameReceiverSet"* %0, i64 0, i32 1, i32 4, i32 0, i32 1, i32 0, i32 0
  %49 = getelementptr inbounds %"class.content::WebContentsFrameReceiverSet", %"class.content::WebContentsFrameReceiverSet"* %0, i64 0, i32 1, i32 4, i32 0, i32 0
  %50 = bitcast %"class.std::__1::__tree_node_base"** %47 to i8*
  call void @llvm.memset.p0i8.i64(i8* align 8 %50, i8 0, i64 16, i1 false) #14
  store %"class.std::__1::__tree_end_node"* %48, %"class.std::__1::__tree_end_node"** %49, align 8
  %51 = getelementptr inbounds %"class.content::WebContentsFrameReceiverSet", %"class.content::WebContentsFrameReceiverSet"* %0, i64 0, i32 2
  store %"class.content::RenderFrameHost"* null, %"class.content::RenderFrameHost"** %51, align 8
  %52 = getelementptr inbounds %"class.content::WebContentsFrameReceiverSet<pdf::mojom::PdfService>::FrameInterfaceBinder", %"class.content::WebContentsFrameReceiverSet<pdf::mojom::PdfService>::FrameInterfaceBinder"* %41, i64 0, i32 0
  %53 = getelementptr inbounds %"class.content::WebContentsFrameReceiverSet", %"class.content::WebContentsFrameReceiverSet"* %0, i64 0, i32 0, i32 1
  store %"class.content::WebContentsReceiverSet::Binder"* %52, %"class.content::WebContentsReceiverSet::Binder"** %53, align 8
  ret void
}

; Function Attrs: nounwind ssp uwtable
define hidden void @_ZN3pdf20PDFWebContentsHelperD2Ev(%"class.pdf::PDFWebContentsHelper"*) unnamed_addr #0 align 2 {
  %2 = getelementptr inbounds %"class.pdf::PDFWebContentsHelper", %"class.pdf::PDFWebContentsHelper"* %0, i64 0, i32 0, i32 0, i32 0
  store i32 (...)** bitcast (i8** getelementptr inbounds ({ [130 x i8*], [5 x i8*], [10 x i8*], [14 x i8*], [9 x i8*], [5 x i8*] }, { [130 x i8*], [5 x i8*], [10 x i8*], [14 x i8*], [9 x i8*], [5 x i8*] }* @_ZTVN3pdf20PDFWebContentsHelperE, i64 0, inrange i32 0, i64 2) to i32 (...)**), i32 (...)*** %2, align 8
  %3 = getelementptr inbounds %"class.pdf::PDFWebContentsHelper", %"class.pdf::PDFWebContentsHelper"* %0, i64 0, i32 1, i32 0, i32 0
  %4 = bitcast i32 (...)*** %3 to <2 x i32 (...)**>*
  store <2 x i32 (...)**> <i32 (...)** bitcast (i8** getelementptr inbounds ({ [130 x i8*], [5 x i8*], [10 x i8*], [14 x i8*], [9 x i8*], [5 x i8*] }, { [130 x i8*], [5 x i8*], [10 x i8*], [14 x i8*], [9 x i8*], [5 x i8*] }* @_ZTVN3pdf20PDFWebContentsHelperE, i64 0, inrange i32 1, i64 2) to i32 (...)**), i32 (...)** bitcast (i8** getelementptr inbounds ({ [130 x i8*], [5 x i8*], [10 x i8*], [14 x i8*], [9 x i8*], [5 x i8*] }, { [130 x i8*], [5 x i8*], [10 x i8*], [14 x i8*], [9 x i8*], [5 x i8*] }* @_ZTVN3pdf20PDFWebContentsHelperE, i64 0, inrange i32 2, i64 2) to i32 (...)**)>, <2 x i32 (...)**>* %4, align 8
  %5 = getelementptr inbounds %"class.pdf::PDFWebContentsHelper", %"class.pdf::PDFWebContentsHelper"* %0, i64 0, i32 3
  %6 = bitcast %"class.ui::TouchSelectionControllerClient"* %5 to <2 x i32 (...)**>*
  store <2 x i32 (...)**> <i32 (...)** bitcast (i8** getelementptr inbounds ({ [130 x i8*], [5 x i8*], [10 x i8*], [14 x i8*], [9 x i8*], [5 x i8*] }, { [130 x i8*], [5 x i8*], [10 x i8*], [14 x i8*], [9 x i8*], [5 x i8*] }* @_ZTVN3pdf20PDFWebContentsHelperE, i64 0, inrange i32 3, i64 2) to i32 (...)**), i32 (...)** bitcast (i8** getelementptr inbounds ({ [130 x i8*], [5 x i8*], [10 x i8*], [14 x i8*], [9 x i8*], [5 x i8*] }, { [130 x i8*], [5 x i8*], [10 x i8*], [14 x i8*], [9 x i8*], [5 x i8*] }* @_ZTVN3pdf20PDFWebContentsHelperE, i64 0, inrange i32 4, i64 2) to i32 (...)**)>, <2 x i32 (...)**>* %6, align 8
  %7 = getelementptr inbounds %"class.pdf::PDFWebContentsHelper", %"class.pdf::PDFWebContentsHelper"* %0, i64 0, i32 5
  %8 = getelementptr inbounds %"class.content::TouchSelectionControllerClientManager::Observer", %"class.content::TouchSelectionControllerClientManager::Observer"* %7, i64 0, i32 0, i32 0
  store i32 (...)** bitcast (i8** getelementptr inbounds ({ [130 x i8*], [5 x i8*], [10 x i8*], [14 x i8*], [9 x i8*], [5 x i8*] }, { [130 x i8*], [5 x i8*], [10 x i8*], [14 x i8*], [9 x i8*], [5 x i8*] }* @_ZTVN3pdf20PDFWebContentsHelperE, i64 0, inrange i32 5, i64 2) to i32 (...)**), i32 (...)*** %8, align 8
  %9 = getelementptr inbounds %"class.pdf::PDFWebContentsHelper", %"class.pdf::PDFWebContentsHelper"* %0, i64 0, i32 8
  %10 = load %"class.content::TouchSelectionControllerClientManager"*, %"class.content::TouchSelectionControllerClientManager"** %9, align 8
  %11 = icmp eq %"class.content::TouchSelectionControllerClientManager"* %10, null
  br i1 %11, label %31, label %12

12:                                               ; preds = %1
  %13 = bitcast %"class.content::TouchSelectionControllerClientManager"* %10 to %"class.ui::TouchSelectionController"* (%"class.content::TouchSelectionControllerClientManager"*)***
  %14 = load %"class.ui::TouchSelectionController"* (%"class.content::TouchSelectionControllerClientManager"*)**, %"class.ui::TouchSelectionController"* (%"class.content::TouchSelectionControllerClientManager"*)*** %13, align 8
  %15 = getelementptr inbounds %"class.ui::TouchSelectionController"* (%"class.content::TouchSelectionControllerClientManager"*)*, %"class.ui::TouchSelectionController"* (%"class.content::TouchSelectionControllerClientManager"*)** %14, i64 5
  %16 = load %"class.ui::TouchSelectionController"* (%"class.content::TouchSelectionControllerClientManager"*)*, %"class.ui::TouchSelectionController"* (%"class.content::TouchSelectionControllerClientManager"*)** %15, align 8
  %17 = tail call %"class.ui::TouchSelectionController"* %16(%"class.content::TouchSelectionControllerClientManager"* nonnull %10) #14
  %18 = icmp eq %"class.ui::TouchSelectionController"* %17, null
  br i1 %18, label %20, label %19

19:                                               ; preds = %12
  tail call void @_ZN2ui24TouchSelectionController35HideAndDisallowShowingAutomaticallyEv(%"class.ui::TouchSelectionController"* nonnull %17) #14
  br label %20

20:                                               ; preds = %12, %19
  %21 = load %"class.content::TouchSelectionControllerClientManager"*, %"class.content::TouchSelectionControllerClientManager"** %9, align 8
  %22 = bitcast %"class.content::TouchSelectionControllerClientManager"* %21 to void (%"class.content::TouchSelectionControllerClientManager"*, %"class.ui::TouchSelectionControllerClient"*)***
  %23 = load void (%"class.content::TouchSelectionControllerClientManager"*, %"class.ui::TouchSelectionControllerClient"*)**, void (%"class.content::TouchSelectionControllerClientManager"*, %"class.ui::TouchSelectionControllerClient"*)*** %22, align 8
  %24 = getelementptr inbounds void (%"class.content::TouchSelectionControllerClientManager"*, %"class.ui::TouchSelectionControllerClient"*)*, void (%"class.content::TouchSelectionControllerClientManager"*, %"class.ui::TouchSelectionControllerClient"*)** %23, i64 4
  %25 = load void (%"class.content::TouchSelectionControllerClientManager"*, %"class.ui::TouchSelectionControllerClient"*)*, void (%"class.content::TouchSelectionControllerClientManager"*, %"class.ui::TouchSelectionControllerClient"*)** %24, align 8
  tail call void %25(%"class.content::TouchSelectionControllerClientManager"* %21, %"class.ui::TouchSelectionControllerClient"* %5) #14
  %26 = load %"class.content::TouchSelectionControllerClientManager"*, %"class.content::TouchSelectionControllerClientManager"** %9, align 8
  %27 = bitcast %"class.content::TouchSelectionControllerClientManager"* %26 to void (%"class.content::TouchSelectionControllerClientManager"*, %"class.content::TouchSelectionControllerClientManager::Observer"*)***
  %28 = load void (%"class.content::TouchSelectionControllerClientManager"*, %"class.content::TouchSelectionControllerClientManager::Observer"*)**, void (%"class.content::TouchSelectionControllerClientManager"*, %"class.content::TouchSelectionControllerClientManager::Observer"*)*** %27, align 8
  %29 = getelementptr inbounds void (%"class.content::TouchSelectionControllerClientManager"*, %"class.content::TouchSelectionControllerClientManager::Observer"*)*, void (%"class.content::TouchSelectionControllerClientManager"*, %"class.content::TouchSelectionControllerClientManager::Observer"*)** %28, i64 7
  %30 = load void (%"class.content::TouchSelectionControllerClientManager"*, %"class.content::TouchSelectionControllerClientManager::Observer"*)*, void (%"class.content::TouchSelectionControllerClientManager"*, %"class.content::TouchSelectionControllerClientManager::Observer"*)** %29, align 8
  tail call void %30(%"class.content::TouchSelectionControllerClientManager"* %26, %"class.content::TouchSelectionControllerClientManager::Observer"* %7) #14
  br label %31

31:                                               ; preds = %1, %20
  %32 = getelementptr inbounds %"class.pdf::PDFWebContentsHelper", %"class.pdf::PDFWebContentsHelper"* %0, i64 0, i32 14
  %33 = getelementptr inbounds %"class.pdf::PDFWebContentsHelper", %"class.pdf::PDFWebContentsHelper"* %0, i64 0, i32 14, i32 0, i32 1, i32 0, i32 0, i32 0
  %34 = load %"class.pdf::mojom::PdfListenerProxy"*, %"class.pdf::mojom::PdfListenerProxy"** %33, align 8
  store %"class.pdf::mojom::PdfListenerProxy"* null, %"class.pdf::mojom::PdfListenerProxy"** %33, align 8
  %35 = icmp eq %"class.pdf::mojom::PdfListenerProxy"* %34, null
  br i1 %35, label %41, label %36

36:                                               ; preds = %31
  %37 = bitcast %"class.pdf::mojom::PdfListenerProxy"* %34 to void (%"class.pdf::mojom::PdfListenerProxy"*)***
  %38 = load void (%"class.pdf::mojom::PdfListenerProxy"*)**, void (%"class.pdf::mojom::PdfListenerProxy"*)*** %37, align 8
  %39 = getelementptr inbounds void (%"class.pdf::mojom::PdfListenerProxy"*)*, void (%"class.pdf::mojom::PdfListenerProxy"*)** %38, i64 1
  %40 = load void (%"class.pdf::mojom::PdfListenerProxy"*)*, void (%"class.pdf::mojom::PdfListenerProxy"*)** %39, align 8
  tail call void %40(%"class.pdf::mojom::PdfListenerProxy"* nonnull %34) #14
  br label %41

41:                                               ; preds = %31, %36
  %42 = bitcast %"class.mojo::Remote"* %32 to %"class.mojo::internal::InterfacePtrStateBase"*
  tail call void @_ZN4mojo8internal21InterfacePtrStateBaseD2Ev(%"class.mojo::internal::InterfacePtrStateBase"* %42) #14
  %43 = getelementptr inbounds %"class.pdf::PDFWebContentsHelper", %"class.pdf::PDFWebContentsHelper"* %0, i64 0, i32 7, i32 0, i32 0, i32 0
  %44 = load %"class.pdf::PDFWebContentsHelperClient"*, %"class.pdf::PDFWebContentsHelperClient"** %43, align 8
  store %"class.pdf::PDFWebContentsHelperClient"* null, %"class.pdf::PDFWebContentsHelperClient"** %43, align 8
  %45 = icmp eq %"class.pdf::PDFWebContentsHelperClient"* %44, null
  br i1 %45, label %51, label %46

46:                                               ; preds = %41
  %47 = bitcast %"class.pdf::PDFWebContentsHelperClient"* %44 to void (%"class.pdf::PDFWebContentsHelperClient"*)***
  %48 = load void (%"class.pdf::PDFWebContentsHelperClient"*)**, void (%"class.pdf::PDFWebContentsHelperClient"*)*** %47, align 8
  %49 = getelementptr inbounds void (%"class.pdf::PDFWebContentsHelperClient"*)*, void (%"class.pdf::PDFWebContentsHelperClient"*)** %48, i64 1
  %50 = load void (%"class.pdf::PDFWebContentsHelperClient"*)*, void (%"class.pdf::PDFWebContentsHelperClient"*)** %49, align 8
  tail call void %50(%"class.pdf::PDFWebContentsHelperClient"* nonnull %44) #14
  br label %51

51:                                               ; preds = %41, %46
  %52 = getelementptr inbounds %"class.pdf::PDFWebContentsHelper", %"class.pdf::PDFWebContentsHelper"* %0, i64 0, i32 6, i32 1, i32 0, i32 0
  %53 = getelementptr inbounds %"class.pdf::PDFWebContentsHelper", %"class.pdf::PDFWebContentsHelper"* %0, i64 0, i32 6, i32 1, i32 1
  %54 = bitcast i32 (...)*** %52 to <2 x i32 (...)**>*
  store <2 x i32 (...)**> <i32 (...)** bitcast (i8** getelementptr inbounds ({ [7 x i8*], [109 x i8*] }, { [7 x i8*], [109 x i8*] }* @_ZTVN7content27WebContentsFrameReceiverSetIN3pdf5mojom10PdfServiceEE20FrameInterfaceBinderE, i64 0, inrange i32 0, i64 2) to i32 (...)**), i32 (...)** bitcast (i8** getelementptr inbounds ({ [7 x i8*], [109 x i8*] }, { [7 x i8*], [109 x i8*] }* @_ZTVN7content27WebContentsFrameReceiverSetIN3pdf5mojom10PdfServiceEE20FrameInterfaceBinderE, i64 0, inrange i32 1, i64 2) to i32 (...)**)>, <2 x i32 (...)**>* %54, align 8
  %55 = getelementptr inbounds %"class.pdf::PDFWebContentsHelper", %"class.pdf::PDFWebContentsHelper"* %0, i64 0, i32 6, i32 1, i32 4, i32 0
  %56 = getelementptr inbounds %"class.pdf::PDFWebContentsHelper", %"class.pdf::PDFWebContentsHelper"* %0, i64 0, i32 6, i32 1, i32 4, i32 0, i32 1, i32 0, i32 0
  %57 = bitcast %"class.std::__1::__tree_end_node"* %56 to %"class.std::__1::__tree_node"**
  %58 = load %"class.std::__1::__tree_node"*, %"class.std::__1::__tree_node"** %57, align 8
  tail call void @_ZNSt3__16__treeINS_12__value_typeIPN7content15RenderFrameHostENS_6vectorImNS_9allocatorImEEEEEENS_19__map_value_compareIS4_S9_NS_4lessIS4_EELb1EEENS6_IS9_EEE7destroyEPNS_11__tree_nodeIS9_PvEE(%"class.std::__1::__tree.29"* %55, %"class.std::__1::__tree_node"* %58) #14
  %59 = getelementptr inbounds %"class.pdf::PDFWebContentsHelper", %"class.pdf::PDFWebContentsHelper"* %0, i64 0, i32 6, i32 1, i32 3, i32 0
  tail call void @_ZN4mojo16ReceiverSetStateD1Ev(%"class.mojo::ReceiverSetState"* %59) #14
  tail call void @_ZN7content19WebContentsObserverD2Ev(%"class.content::WebContentsObserver"* %53) #14
  %60 = getelementptr inbounds %"class.pdf::PDFWebContentsHelper", %"class.pdf::PDFWebContentsHelper"* %0, i64 0, i32 6, i32 0
  tail call void @_ZN7content22WebContentsReceiverSetD2Ev(%"class.content::WebContentsReceiverSet"* %60) #14
  %61 = getelementptr inbounds %"class.content::TouchSelectionControllerClientManager::Observer", %"class.content::TouchSelectionControllerClientManager::Observer"* %7, i64 0, i32 0
  tail call void @_ZN4base15CheckedObserverD2Ev(%"class.base::CheckedObserver"* %61) #14
  %62 = getelementptr inbounds %"class.pdf::PDFWebContentsHelper", %"class.pdf::PDFWebContentsHelper"* %0, i64 0, i32 0
  tail call void @_ZN7content19WebContentsObserverD2Ev(%"class.content::WebContentsObserver"* %62) #14
  ret void
}

declare void @_ZN2ui24TouchSelectionController35HideAndDisallowShowingAutomaticallyEv(%"class.ui::TouchSelectionController"*) local_unnamed_addr #1

; Function Attrs: nounwind
declare void @_ZN7content19WebContentsObserverD2Ev(%"class.content::WebContentsObserver"*) unnamed_addr #4

; Function Attrs: nounwind ssp uwtable
define hidden void @_ZThn16_N3pdf20PDFWebContentsHelperD1Ev(%"class.pdf::PDFWebContentsHelper"*) unnamed_addr #0 align 2 {
  %2 = getelementptr inbounds %"class.pdf::PDFWebContentsHelper", %"class.pdf::PDFWebContentsHelper"* %0, i64 -1, i32 14, i32 0, i32 0, i32 5
  %3 = bitcast i32* %2 to %"class.pdf::PDFWebContentsHelper"*
  tail call void @_ZN3pdf20PDFWebContentsHelperD2Ev(%"class.pdf::PDFWebContentsHelper"* %3) #14
  ret void
}

; Function Attrs: nounwind ssp uwtable
define hidden void @_ZThn24_N3pdf20PDFWebContentsHelperD1Ev(%"class.pdf::PDFWebContentsHelper"*) unnamed_addr #0 align 2 {
  %2 = getelementptr inbounds %"class.pdf::PDFWebContentsHelper", %"class.pdf::PDFWebContentsHelper"* %0, i64 -1, i32 14, i32 0, i32 0, i32 4
  %3 = bitcast %class.scoped_refptr.41* %2 to %"class.pdf::PDFWebContentsHelper"*
  tail call void @_ZN3pdf20PDFWebContentsHelperD2Ev(%"class.pdf::PDFWebContentsHelper"* %3) #14
  ret void
}

; Function Attrs: nounwind ssp uwtable
define hidden void @_ZThn32_N3pdf20PDFWebContentsHelperD1Ev(%"class.pdf::PDFWebContentsHelper"*) unnamed_addr #0 align 2 {
  %2 = getelementptr inbounds %"class.pdf::PDFWebContentsHelper", %"class.pdf::PDFWebContentsHelper"* %0, i64 -1, i32 14, i32 0, i32 0, i32 2
  %3 = bitcast %"class.mojo::ScopedHandleBase"* %2 to %"class.pdf::PDFWebContentsHelper"*
  tail call void @_ZN3pdf20PDFWebContentsHelperD2Ev(%"class.pdf::PDFWebContentsHelper"* %3) #14
  ret void
}

; Function Attrs: nounwind ssp uwtable
define hidden void @_ZThn40_N3pdf20PDFWebContentsHelperD1Ev(%"class.pdf::PDFWebContentsHelper"*) unnamed_addr #0 align 2 {
  %2 = getelementptr inbounds %"class.pdf::PDFWebContentsHelper", %"class.pdf::PDFWebContentsHelper"* %0, i64 -1, i32 14, i32 0, i32 0, i32 1
  %3 = bitcast %"class.std::__1::unique_ptr.162"* %2 to %"class.pdf::PDFWebContentsHelper"*
  tail call void @_ZN3pdf20PDFWebContentsHelperD2Ev(%"class.pdf::PDFWebContentsHelper"* %3) #14
  ret void
}

; Function Attrs: nounwind ssp uwtable
define hidden void @_ZThn48_N3pdf20PDFWebContentsHelperD1Ev(%"class.pdf::PDFWebContentsHelper"*) unnamed_addr #0 align 2 {
  %2 = getelementptr inbounds %"class.pdf::PDFWebContentsHelper", %"class.pdf::PDFWebContentsHelper"* %0, i64 -1, i32 14
  %3 = bitcast %"class.mojo::Remote"* %2 to %"class.pdf::PDFWebContentsHelper"*
  tail call void @_ZN3pdf20PDFWebContentsHelperD2Ev(%"class.pdf::PDFWebContentsHelper"* %3) #14
  ret void
}

; Function Attrs: nounwind ssp uwtable
define hidden void @_ZN3pdf20PDFWebContentsHelperD0Ev(%"class.pdf::PDFWebContentsHelper"*) unnamed_addr #0 align 2 {
  tail call void @_ZN3pdf20PDFWebContentsHelperD2Ev(%"class.pdf::PDFWebContentsHelper"* %0) #14
  %2 = bitcast %"class.pdf::PDFWebContentsHelper"* %0 to i8*
  tail call void @_ZdlPv(i8* %2) #15
  ret void
}

; Function Attrs: nobuiltin nounwind
declare void @_ZdlPv(i8*) local_unnamed_addr #5

; Function Attrs: nounwind ssp uwtable
define hidden void @_ZThn16_N3pdf20PDFWebContentsHelperD0Ev(%"class.pdf::PDFWebContentsHelper"*) unnamed_addr #0 align 2 {
  %2 = getelementptr inbounds %"class.pdf::PDFWebContentsHelper", %"class.pdf::PDFWebContentsHelper"* %0, i64 -1, i32 14, i32 0, i32 0, i32 5
  %3 = bitcast i32* %2 to %"class.pdf::PDFWebContentsHelper"*
  tail call void @_ZN3pdf20PDFWebContentsHelperD2Ev(%"class.pdf::PDFWebContentsHelper"* %3) #14
  %4 = bitcast i32* %2 to i8*
  tail call void @_ZdlPv(i8* %4) #15
  ret void
}

; Function Attrs: nounwind ssp uwtable
define hidden void @_ZThn24_N3pdf20PDFWebContentsHelperD0Ev(%"class.pdf::PDFWebContentsHelper"*) unnamed_addr #0 align 2 {
  %2 = getelementptr inbounds %"class.pdf::PDFWebContentsHelper", %"class.pdf::PDFWebContentsHelper"* %0, i64 -1, i32 14, i32 0, i32 0, i32 4
  %3 = bitcast %class.scoped_refptr.41* %2 to %"class.pdf::PDFWebContentsHelper"*
  tail call void @_ZN3pdf20PDFWebContentsHelperD2Ev(%"class.pdf::PDFWebContentsHelper"* %3) #14
  %4 = bitcast %class.scoped_refptr.41* %2 to i8*
  tail call void @_ZdlPv(i8* %4) #15
  ret void
}

; Function Attrs: nounwind ssp uwtable
define hidden void @_ZThn32_N3pdf20PDFWebContentsHelperD0Ev(%"class.pdf::PDFWebContentsHelper"*) unnamed_addr #0 align 2 {
  %2 = getelementptr inbounds %"class.pdf::PDFWebContentsHelper", %"class.pdf::PDFWebContentsHelper"* %0, i64 -1, i32 14, i32 0, i32 0, i32 2
  %3 = bitcast %"class.mojo::ScopedHandleBase"* %2 to %"class.pdf::PDFWebContentsHelper"*
  tail call void @_ZN3pdf20PDFWebContentsHelperD2Ev(%"class.pdf::PDFWebContentsHelper"* %3) #14
  %4 = bitcast %"class.mojo::ScopedHandleBase"* %2 to i8*
  tail call void @_ZdlPv(i8* %4) #15
  ret void
}

; Function Attrs: nounwind ssp uwtable
define hidden void @_ZThn40_N3pdf20PDFWebContentsHelperD0Ev(%"class.pdf::PDFWebContentsHelper"*) unnamed_addr #0 align 2 {
  %2 = getelementptr inbounds %"class.pdf::PDFWebContentsHelper", %"class.pdf::PDFWebContentsHelper"* %0, i64 -1, i32 14, i32 0, i32 0, i32 1
  %3 = bitcast %"class.std::__1::unique_ptr.162"* %2 to %"class.pdf::PDFWebContentsHelper"*
  tail call void @_ZN3pdf20PDFWebContentsHelperD2Ev(%"class.pdf::PDFWebContentsHelper"* %3) #14
  %4 = bitcast %"class.std::__1::unique_ptr.162"* %2 to i8*
  tail call void @_ZdlPv(i8* %4) #15
  ret void
}

; Function Attrs: nounwind ssp uwtable
define hidden void @_ZThn48_N3pdf20PDFWebContentsHelperD0Ev(%"class.pdf::PDFWebContentsHelper"*) unnamed_addr #0 align 2 {
  %2 = getelementptr inbounds %"class.pdf::PDFWebContentsHelper", %"class.pdf::PDFWebContentsHelper"* %0, i64 -1, i32 14
  %3 = bitcast %"class.mojo::Remote"* %2 to %"class.pdf::PDFWebContentsHelper"*
  tail call void @_ZN3pdf20PDFWebContentsHelperD2Ev(%"class.pdf::PDFWebContentsHelper"* %3) #14
  %4 = bitcast %"class.mojo::Remote"* %2 to i8*
  tail call void @_ZdlPv(i8* %4) #15
  ret void
}

; Function Attrs: nounwind ssp uwtable
define hidden void @_ZN3pdf20PDFWebContentsHelper11SetListenerEN4mojo13PendingRemoteINS_5mojom11PdfListenerEEE(%"class.pdf::PDFWebContentsHelper"*, %"class.mojo::PendingRemote"*) unnamed_addr #0 align 2 {
  %3 = alloca %"class.mojo::PendingRemote", align 4
  %4 = alloca %"class.mojo::internal::InterfacePtrState", align 8
  %5 = alloca %"class.mojo::PendingRemote", align 4
  %6 = getelementptr inbounds %"class.pdf::PDFWebContentsHelper", %"class.pdf::PDFWebContentsHelper"* %0, i64 0, i32 14
  %7 = bitcast %"class.mojo::internal::InterfacePtrState"* %4 to i8*
  call void @llvm.lifetime.start.p0i8(i64 48, i8* nonnull %7) #14
  call void @llvm.memset.p0i8.i64(i8* nonnull align 8 %7, i8 -86, i64 48, i1 false) #14
  %8 = bitcast %"class.mojo::internal::InterfacePtrState"* %4 to %"class.mojo::internal::InterfacePtrStateBase"*
  call void @_ZN4mojo8internal21InterfacePtrStateBaseC2Ev(%"class.mojo::internal::InterfacePtrStateBase"* nonnull %8) #14
  %9 = getelementptr inbounds %"class.mojo::internal::InterfacePtrState", %"class.mojo::internal::InterfacePtrState"* %4, i64 0, i32 1
  %10 = bitcast %"class.std::__1::unique_ptr.209"* %9 to i64*
  %11 = getelementptr inbounds %"class.pdf::PDFWebContentsHelper", %"class.pdf::PDFWebContentsHelper"* %0, i64 0, i32 14, i32 0, i32 1
  %12 = bitcast %"class.std::__1::unique_ptr.209"* %11 to i64*
  %13 = load i64, i64* %12, align 8
  store i64 %13, i64* %10, align 8
  store i64 0, i64* %12, align 8
  %14 = bitcast %"class.mojo::Remote"* %6 to %"class.mojo::internal::InterfacePtrStateBase"*
  call void @_ZN4mojo8internal21InterfacePtrStateBase4SwapEPS1_(%"class.mojo::internal::InterfacePtrStateBase"* %14, %"class.mojo::internal::InterfacePtrStateBase"* nonnull %8) #14
  %15 = getelementptr inbounds %"class.mojo::internal::InterfacePtrState", %"class.mojo::internal::InterfacePtrState"* %4, i64 0, i32 1, i32 0, i32 0, i32 0
  %16 = load %"class.pdf::mojom::PdfListenerProxy"*, %"class.pdf::mojom::PdfListenerProxy"** %15, align 8
  store %"class.pdf::mojom::PdfListenerProxy"* null, %"class.pdf::mojom::PdfListenerProxy"** %15, align 8
  %17 = icmp eq %"class.pdf::mojom::PdfListenerProxy"* %16, null
  br i1 %17, label %23, label %18

18:                                               ; preds = %2
  %19 = bitcast %"class.pdf::mojom::PdfListenerProxy"* %16 to void (%"class.pdf::mojom::PdfListenerProxy"*)***
  %20 = load void (%"class.pdf::mojom::PdfListenerProxy"*)**, void (%"class.pdf::mojom::PdfListenerProxy"*)*** %19, align 8
  %21 = getelementptr inbounds void (%"class.pdf::mojom::PdfListenerProxy"*)*, void (%"class.pdf::mojom::PdfListenerProxy"*)** %20, i64 1
  %22 = load void (%"class.pdf::mojom::PdfListenerProxy"*)*, void (%"class.pdf::mojom::PdfListenerProxy"*)** %21, align 8
  call void %22(%"class.pdf::mojom::PdfListenerProxy"* nonnull %16) #14
  br label %23

23:                                               ; preds = %2, %18
  call void @_ZN4mojo8internal21InterfacePtrStateBaseD2Ev(%"class.mojo::internal::InterfacePtrStateBase"* nonnull %8) #14
  call void @llvm.lifetime.end.p0i8(i64 48, i8* nonnull %7) #14
  %24 = getelementptr inbounds %"class.mojo::PendingRemote", %"class.mojo::PendingRemote"* %5, i64 0, i32 0
  %25 = getelementptr inbounds %"class.mojo::PendingRemote", %"class.mojo::PendingRemote"* %1, i64 0, i32 0
  call void @_ZN4mojo8internal18PendingRemoteStateC1EOS1_(%"struct.mojo::internal::PendingRemoteState"* nonnull %24, %"struct.mojo::internal::PendingRemoteState"* dereferenceable(8) %25) #14
  %26 = bitcast %"class.mojo::PendingRemote"* %3 to i8*
  call void @llvm.lifetime.start.p0i8(i64 8, i8* nonnull %26)
  %27 = getelementptr inbounds %"class.mojo::PendingRemote", %"class.mojo::PendingRemote"* %3, i64 0, i32 0
  call void @_ZN4mojo8internal18PendingRemoteStateC1EOS1_(%"struct.mojo::internal::PendingRemoteState"* nonnull %27, %"struct.mojo::internal::PendingRemoteState"* nonnull dereferenceable(8) %24) #14
  call void @_ZN4mojo6RemoteIN3pdf5mojom11PdfListenerEE4BindENS_13PendingRemoteIS3_EE13scoped_refptrIN4base19SequencedTaskRunnerEE(%"class.mojo::Remote"* %6, %"class.mojo::PendingRemote"* nonnull %3, %"class.base::SequencedTaskRunner"* null) #14
  call void @_ZN4mojo8internal18PendingRemoteStateD1Ev(%"struct.mojo::internal::PendingRemoteState"* nonnull %27) #14
  call void @llvm.lifetime.end.p0i8(i64 8, i8* nonnull %26)
  call void @_ZN4mojo8internal18PendingRemoteStateD1Ev(%"struct.mojo::internal::PendingRemoteState"* nonnull %24) #14
  ret void
}

; Function Attrs: nounwind ssp uwtable
define hidden void @_ZThn24_N3pdf20PDFWebContentsHelper11SetListenerEN4mojo13PendingRemoteINS_5mojom11PdfListenerEEE(%"class.pdf::PDFWebContentsHelper"*, %"class.mojo::PendingRemote"*) unnamed_addr #0 align 2 {
  %3 = getelementptr inbounds %"class.pdf::PDFWebContentsHelper", %"class.pdf::PDFWebContentsHelper"* %0, i64 -1, i32 14, i32 0, i32 0, i32 4
  %4 = bitcast %class.scoped_refptr.41* %3 to %"class.pdf::PDFWebContentsHelper"*
  tail call void @_ZN3pdf20PDFWebContentsHelper11SetListenerEN4mojo13PendingRemoteINS_5mojom11PdfListenerEEE(%"class.pdf::PDFWebContentsHelper"* %4, %"class.mojo::PendingRemote"* %1)
  ret void
}

; Function Attrs: nounwind ssp uwtable
define hidden <2 x float> @_ZNK3pdf20PDFWebContentsHelper13ConvertHelperERKN3gfx6PointFEf(%"class.pdf::PDFWebContentsHelper"*, %"class.gfx::PointF"* nocapture readonly dereferenceable(8), float) local_unnamed_addr #6 align 2 {
  %4 = alloca %"class.gfx::PointF", align 4
  %5 = getelementptr inbounds %"class.pdf::PDFWebContentsHelper", %"class.pdf::PDFWebContentsHelper"* %0, i64 0, i32 0
  %6 = tail call %"class.content::WebContents"* @_ZNK7content19WebContentsObserver12web_contentsEv(%"class.content::WebContentsObserver"* %5) #14
  %7 = bitcast %"class.content::WebContents"* %6 to %"class.content::RenderWidgetHostView"* (%"class.content::WebContents"*)***
  %8 = load %"class.content::RenderWidgetHostView"* (%"class.content::WebContents"*)**, %"class.content::RenderWidgetHostView"* (%"class.content::WebContents"*)*** %7, align 8
  %9 = getelementptr inbounds %"class.content::RenderWidgetHostView"* (%"class.content::WebContents"*)*, %"class.content::RenderWidgetHostView"* (%"class.content::WebContents"*)** %8, i64 20
  %10 = load %"class.content::RenderWidgetHostView"* (%"class.content::WebContents"*)*, %"class.content::RenderWidgetHostView"* (%"class.content::WebContents"*)** %9, align 8
  %11 = tail call %"class.content::RenderWidgetHostView"* %10(%"class.content::WebContents"* %6) #14
  %12 = icmp eq %"class.content::RenderWidgetHostView"* %11, null
  br i1 %12, label %25, label %13

13:                                               ; preds = %3
  %14 = bitcast %"class.gfx::PointF"* %4 to i8*
  call void @llvm.lifetime.start.p0i8(i64 8, i8* nonnull %14) #14
  %15 = getelementptr inbounds %"class.gfx::PointF", %"class.gfx::PointF"* %4, i64 0, i32 0
  store float 0.000000e+00, float* %15, align 4
  %16 = getelementptr inbounds %"class.gfx::PointF", %"class.gfx::PointF"* %4, i64 0, i32 1
  store float 0.000000e+00, float* %16, align 4
  %17 = bitcast %"class.content::RenderWidgetHostView"* %11 to <2 x float> (%"class.content::RenderWidgetHostView"*, %"class.gfx::PointF"*)***
  %18 = load <2 x float> (%"class.content::RenderWidgetHostView"*, %"class.gfx::PointF"*)**, <2 x float> (%"class.content::RenderWidgetHostView"*, %"class.gfx::PointF"*)*** %17, align 8
  %19 = getelementptr inbounds <2 x float> (%"class.content::RenderWidgetHostView"*, %"class.gfx::PointF"*)*, <2 x float> (%"class.content::RenderWidgetHostView"*, %"class.gfx::PointF"*)** %18, i64 9
  %20 = load <2 x float> (%"class.content::RenderWidgetHostView"*, %"class.gfx::PointF"*)*, <2 x float> (%"class.content::RenderWidgetHostView"*, %"class.gfx::PointF"*)** %19, align 8
  %21 = call <2 x float> %20(%"class.content::RenderWidgetHostView"* nonnull %11, %"class.gfx::PointF"* nonnull dereferenceable(8) %4) #14
  call void @llvm.lifetime.end.p0i8(i64 8, i8* nonnull %14) #14
  %22 = insertelement <2 x float> undef, float %2, i32 0
  %23 = shufflevector <2 x float> %22, <2 x float> undef, <2 x i32> zeroinitializer
  %24 = fmul <2 x float> %21, %23
  br label %25

25:                                               ; preds = %3, %13
  %26 = phi <2 x float> [ zeroinitializer, %3 ], [ %24, %13 ]
  %27 = bitcast %"class.gfx::PointF"* %1 to <2 x float>*
  %28 = load <2 x float>, <2 x float>* %27, align 4
  %29 = fadd <2 x float> %28, %26
  ret <2 x float> %29
}

declare %"class.content::WebContents"* @_ZNK7content19WebContentsObserver12web_contentsEv(%"class.content::WebContentsObserver"*) local_unnamed_addr #1

; Function Attrs: argmemonly nounwind
declare void @llvm.memcpy.p0i8.p0i8.i64(i8* nocapture writeonly, i8* nocapture readonly, i64, i1 immarg) #2

; Function Attrs: nounwind ssp uwtable
define hidden <2 x float> @_ZNK3pdf20PDFWebContentsHelper15ConvertFromRootERKN3gfx6PointFE(%"class.pdf::PDFWebContentsHelper"*, %"class.gfx::PointF"* nocapture readonly dereferenceable(8)) local_unnamed_addr #6 align 2 {
  %3 = alloca %"class.gfx::PointF", align 4
  %4 = getelementptr inbounds %"class.pdf::PDFWebContentsHelper", %"class.pdf::PDFWebContentsHelper"* %0, i64 0, i32 0
  %5 = tail call %"class.content::WebContents"* @_ZNK7content19WebContentsObserver12web_contentsEv(%"class.content::WebContentsObserver"* %4) #14
  %6 = bitcast %"class.content::WebContents"* %5 to %"class.content::RenderWidgetHostView"* (%"class.content::WebContents"*)***
  %7 = load %"class.content::RenderWidgetHostView"* (%"class.content::WebContents"*)**, %"class.content::RenderWidgetHostView"* (%"class.content::WebContents"*)*** %6, align 8
  %8 = getelementptr inbounds %"class.content::RenderWidgetHostView"* (%"class.content::WebContents"*)*, %"class.content::RenderWidgetHostView"* (%"class.content::WebContents"*)** %7, i64 20
  %9 = load %"class.content::RenderWidgetHostView"* (%"class.content::WebContents"*)*, %"class.content::RenderWidgetHostView"* (%"class.content::WebContents"*)** %8, align 8
  %10 = tail call %"class.content::RenderWidgetHostView"* %9(%"class.content::WebContents"* %5) #14
  %11 = icmp eq %"class.content::RenderWidgetHostView"* %10, null
  br i1 %11, label %22, label %12

12:                                               ; preds = %2
  %13 = bitcast %"class.gfx::PointF"* %3 to i8*
  call void @llvm.lifetime.start.p0i8(i64 8, i8* nonnull %13) #14
  %14 = getelementptr inbounds %"class.gfx::PointF", %"class.gfx::PointF"* %3, i64 0, i32 0
  store float 0.000000e+00, float* %14, align 4
  %15 = getelementptr inbounds %"class.gfx::PointF", %"class.gfx::PointF"* %3, i64 0, i32 1
  store float 0.000000e+00, float* %15, align 4
  %16 = bitcast %"class.content::RenderWidgetHostView"* %10 to <2 x float> (%"class.content::RenderWidgetHostView"*, %"class.gfx::PointF"*)***
  %17 = load <2 x float> (%"class.content::RenderWidgetHostView"*, %"class.gfx::PointF"*)**, <2 x float> (%"class.content::RenderWidgetHostView"*, %"class.gfx::PointF"*)*** %16, align 8
  %18 = getelementptr inbounds <2 x float> (%"class.content::RenderWidgetHostView"*, %"class.gfx::PointF"*)*, <2 x float> (%"class.content::RenderWidgetHostView"*, %"class.gfx::PointF"*)** %17, i64 9
  %19 = load <2 x float> (%"class.content::RenderWidgetHostView"*, %"class.gfx::PointF"*)*, <2 x float> (%"class.content::RenderWidgetHostView"*, %"class.gfx::PointF"*)** %18, align 8
  %20 = call <2 x float> %19(%"class.content::RenderWidgetHostView"* nonnull %10, %"class.gfx::PointF"* nonnull dereferenceable(8) %3) #14
  call void @llvm.lifetime.end.p0i8(i64 8, i8* nonnull %13) #14
  %21 = fsub <2 x float> <float -0.000000e+00, float -0.000000e+00>, %20
  br label %22

22:                                               ; preds = %2, %12
  %23 = phi <2 x float> [ zeroinitializer, %2 ], [ %21, %12 ]
  %24 = bitcast %"class.gfx::PointF"* %1 to <2 x float>*
  %25 = load <2 x float>, <2 x float>* %24, align 4
  %26 = fadd <2 x float> %25, %23
  ret <2 x float> %26
}

; Function Attrs: nounwind ssp uwtable
define hidden <2 x float> @_ZNK3pdf20PDFWebContentsHelper13ConvertToRootERKN3gfx6PointFE(%"class.pdf::PDFWebContentsHelper"*, %"class.gfx::PointF"* nocapture readonly dereferenceable(8)) local_unnamed_addr #6 align 2 {
  %3 = alloca %"class.gfx::PointF", align 4
  %4 = getelementptr inbounds %"class.pdf::PDFWebContentsHelper", %"class.pdf::PDFWebContentsHelper"* %0, i64 0, i32 0
  %5 = tail call %"class.content::WebContents"* @_ZNK7content19WebContentsObserver12web_contentsEv(%"class.content::WebContentsObserver"* %4) #14
  %6 = bitcast %"class.content::WebContents"* %5 to %"class.content::RenderWidgetHostView"* (%"class.content::WebContents"*)***
  %7 = load %"class.content::RenderWidgetHostView"* (%"class.content::WebContents"*)**, %"class.content::RenderWidgetHostView"* (%"class.content::WebContents"*)*** %6, align 8
  %8 = getelementptr inbounds %"class.content::RenderWidgetHostView"* (%"class.content::WebContents"*)*, %"class.content::RenderWidgetHostView"* (%"class.content::WebContents"*)** %7, i64 20
  %9 = load %"class.content::RenderWidgetHostView"* (%"class.content::WebContents"*)*, %"class.content::RenderWidgetHostView"* (%"class.content::WebContents"*)** %8, align 8
  %10 = tail call %"class.content::RenderWidgetHostView"* %9(%"class.content::WebContents"* %5) #14
  %11 = icmp eq %"class.content::RenderWidgetHostView"* %10, null
  br i1 %11, label %21, label %12

12:                                               ; preds = %2
  %13 = bitcast %"class.gfx::PointF"* %3 to i8*
  call void @llvm.lifetime.start.p0i8(i64 8, i8* nonnull %13) #14
  %14 = getelementptr inbounds %"class.gfx::PointF", %"class.gfx::PointF"* %3, i64 0, i32 0
  store float 0.000000e+00, float* %14, align 4
  %15 = getelementptr inbounds %"class.gfx::PointF", %"class.gfx::PointF"* %3, i64 0, i32 1
  store float 0.000000e+00, float* %15, align 4
  %16 = bitcast %"class.content::RenderWidgetHostView"* %10 to <2 x float> (%"class.content::RenderWidgetHostView"*, %"class.gfx::PointF"*)***
  %17 = load <2 x float> (%"class.content::RenderWidgetHostView"*, %"class.gfx::PointF"*)**, <2 x float> (%"class.content::RenderWidgetHostView"*, %"class.gfx::PointF"*)*** %16, align 8
  %18 = getelementptr inbounds <2 x float> (%"class.content::RenderWidgetHostView"*, %"class.gfx::PointF"*)*, <2 x float> (%"class.content::RenderWidgetHostView"*, %"class.gfx::PointF"*)** %17, i64 9
  %19 = load <2 x float> (%"class.content::RenderWidgetHostView"*, %"class.gfx::PointF"*)*, <2 x float> (%"class.content::RenderWidgetHostView"*, %"class.gfx::PointF"*)** %18, align 8
  %20 = call <2 x float> %19(%"class.content::RenderWidgetHostView"* nonnull %10, %"class.gfx::PointF"* nonnull dereferenceable(8) %3) #14
  call void @llvm.lifetime.end.p0i8(i64 8, i8* nonnull %13) #14
  br label %21

21:                                               ; preds = %2, %12
  %22 = phi <2 x float> [ zeroinitializer, %2 ], [ %20, %12 ]
  %23 = bitcast %"class.gfx::PointF"* %1 to <2 x float>*
  %24 = load <2 x float>, <2 x float>* %23, align 4
  %25 = fadd <2 x float> %24, %22
  ret <2 x float> %25
}

; Function Attrs: nounwind ssp uwtable
define hidden void @_ZN3pdf20PDFWebContentsHelper16SelectionChangedERKN3gfx6PointFEiS4_i(%"class.pdf::PDFWebContentsHelper"*, %"class.gfx::PointF"* nocapture readonly dereferenceable(8), i32, %"class.gfx::PointF"* nocapture readonly dereferenceable(8), i32) unnamed_addr #0 align 2 {
  %6 = getelementptr inbounds %"class.pdf::PDFWebContentsHelper", %"class.pdf::PDFWebContentsHelper"* %0, i64 0, i32 9
  %7 = bitcast %"class.gfx::PointF"* %1 to i64*
  %8 = bitcast %"class.gfx::PointF"* %6 to i64*
  %9 = load i64, i64* %7, align 4
  store i64 %9, i64* %8, align 8
  %10 = getelementptr inbounds %"class.pdf::PDFWebContentsHelper", %"class.pdf::PDFWebContentsHelper"* %0, i64 0, i32 10
  store i32 %2, i32* %10, align 8
  %11 = getelementptr inbounds %"class.pdf::PDFWebContentsHelper", %"class.pdf::PDFWebContentsHelper"* %0, i64 0, i32 11
  %12 = bitcast %"class.gfx::PointF"* %3 to i64*
  %13 = bitcast %"class.gfx::PointF"* %11 to i64*
  %14 = load i64, i64* %12, align 4
  store i64 %14, i64* %13, align 4
  %15 = getelementptr inbounds %"class.pdf::PDFWebContentsHelper", %"class.pdf::PDFWebContentsHelper"* %0, i64 0, i32 12
  store i32 %4, i32* %15, align 4
  %16 = bitcast %"class.pdf::PDFWebContentsHelper"* %0 to void (%"class.pdf::PDFWebContentsHelper"*)***
  %17 = load void (%"class.pdf::PDFWebContentsHelper"*)**, void (%"class.pdf::PDFWebContentsHelper"*)*** %16, align 8
  %18 = getelementptr inbounds void (%"class.pdf::PDFWebContentsHelper"*)*, void (%"class.pdf::PDFWebContentsHelper"*)** %17, i64 115
  %19 = load void (%"class.pdf::PDFWebContentsHelper"*)*, void (%"class.pdf::PDFWebContentsHelper"*)** %18, align 8
  tail call void %19(%"class.pdf::PDFWebContentsHelper"* %0) #14
  ret void
}

; Function Attrs: nounwind ssp uwtable
define hidden void @_ZThn24_N3pdf20PDFWebContentsHelper16SelectionChangedERKN3gfx6PointFEiS4_i(%"class.pdf::PDFWebContentsHelper"*, %"class.gfx::PointF"* nocapture readonly dereferenceable(8), i32, %"class.gfx::PointF"* nocapture readonly dereferenceable(8), i32) unnamed_addr #0 align 2 {
  %6 = getelementptr inbounds %"class.pdf::PDFWebContentsHelper", %"class.pdf::PDFWebContentsHelper"* %0, i64 -1, i32 14, i32 0, i32 0, i32 4
  %7 = bitcast %class.scoped_refptr.41* %6 to %"class.pdf::PDFWebContentsHelper"*
  %8 = getelementptr inbounds %class.scoped_refptr.41, %class.scoped_refptr.41* %6, i64 31
  %9 = bitcast %"class.gfx::PointF"* %1 to i64*
  %10 = bitcast %class.scoped_refptr.41* %8 to i64*
  %11 = load i64, i64* %9, align 4
  store i64 %11, i64* %10, align 8
  %12 = getelementptr inbounds %class.scoped_refptr.41, %class.scoped_refptr.41* %6, i64 32
  %13 = bitcast %class.scoped_refptr.41* %12 to i32*
  store i32 %2, i32* %13, align 8
  %14 = getelementptr inbounds %"class.pdf::PDFWebContentsHelper", %"class.pdf::PDFWebContentsHelper"* %7, i64 0, i32 11
  %15 = bitcast %"class.gfx::PointF"* %3 to i64*
  %16 = bitcast %"class.gfx::PointF"* %14 to i64*
  %17 = load i64, i64* %15, align 4
  store i64 %17, i64* %16, align 4
  %18 = getelementptr inbounds %"class.pdf::PDFWebContentsHelper", %"class.pdf::PDFWebContentsHelper"* %7, i64 0, i32 12
  store i32 %4, i32* %18, align 4
  %19 = bitcast %class.scoped_refptr.41* %6 to void (%"class.pdf::PDFWebContentsHelper"*)***
  %20 = load void (%"class.pdf::PDFWebContentsHelper"*)**, void (%"class.pdf::PDFWebContentsHelper"*)*** %19, align 8
  %21 = getelementptr inbounds void (%"class.pdf::PDFWebContentsHelper"*)*, void (%"class.pdf::PDFWebContentsHelper"*)** %20, i64 115
  %22 = load void (%"class.pdf::PDFWebContentsHelper"*)*, void (%"class.pdf::PDFWebContentsHelper"*)** %21, align 8
  tail call void %22(%"class.pdf::PDFWebContentsHelper"* %7) #14
  ret void
}

; Function Attrs: nounwind ssp uwtable
define hidden void @_ZN3pdf20PDFWebContentsHelper16SetPluginCanSaveEb(%"class.pdf::PDFWebContentsHelper"*, i1 zeroext) unnamed_addr #0 align 2 {
  %3 = getelementptr inbounds %"class.pdf::PDFWebContentsHelper", %"class.pdf::PDFWebContentsHelper"* %0, i64 0, i32 7, i32 0, i32 0, i32 0
  %4 = load %"class.pdf::PDFWebContentsHelperClient"*, %"class.pdf::PDFWebContentsHelperClient"** %3, align 8
  %5 = getelementptr inbounds %"class.pdf::PDFWebContentsHelper", %"class.pdf::PDFWebContentsHelper"* %0, i64 0, i32 0
  %6 = tail call %"class.content::WebContents"* @_ZNK7content19WebContentsObserver12web_contentsEv(%"class.content::WebContentsObserver"* %5) #14
  %7 = bitcast %"class.pdf::PDFWebContentsHelperClient"* %4 to void (%"class.pdf::PDFWebContentsHelperClient"*, %"class.content::WebContents"*, i1)***
  %8 = load void (%"class.pdf::PDFWebContentsHelperClient"*, %"class.content::WebContents"*, i1)**, void (%"class.pdf::PDFWebContentsHelperClient"*, %"class.content::WebContents"*, i1)*** %7, align 8
  %9 = getelementptr inbounds void (%"class.pdf::PDFWebContentsHelperClient"*, %"class.content::WebContents"*, i1)*, void (%"class.pdf::PDFWebContentsHelperClient"*, %"class.content::WebContents"*, i1)** %8, i64 5
  %10 = load void (%"class.pdf::PDFWebContentsHelperClient"*, %"class.content::WebContents"*, i1)*, void (%"class.pdf::PDFWebContentsHelperClient"*, %"class.content::WebContents"*, i1)** %9, align 8
  tail call void %10(%"class.pdf::PDFWebContentsHelperClient"* %4, %"class.content::WebContents"* %6, i1 zeroext %1) #14
  ret void
}

; Function Attrs: nounwind ssp uwtable
define hidden void @_ZThn24_N3pdf20PDFWebContentsHelper16SetPluginCanSaveEb(%"class.pdf::PDFWebContentsHelper"*, i1 zeroext) unnamed_addr #0 align 2 {
  %3 = getelementptr inbounds %"class.pdf::PDFWebContentsHelper", %"class.pdf::PDFWebContentsHelper"* %0, i64 -1, i32 14, i32 0, i32 0, i32 4
  %4 = getelementptr inbounds %class.scoped_refptr.41, %class.scoped_refptr.41* %3, i64 29
  %5 = bitcast %class.scoped_refptr.41* %4 to %"class.pdf::PDFWebContentsHelperClient"**
  %6 = load %"class.pdf::PDFWebContentsHelperClient"*, %"class.pdf::PDFWebContentsHelperClient"** %5, align 8
  %7 = bitcast %class.scoped_refptr.41* %3 to %"class.content::WebContentsObserver"*
  %8 = tail call %"class.content::WebContents"* @_ZNK7content19WebContentsObserver12web_contentsEv(%"class.content::WebContentsObserver"* %7) #14
  %9 = bitcast %"class.pdf::PDFWebContentsHelperClient"* %6 to void (%"class.pdf::PDFWebContentsHelperClient"*, %"class.content::WebContents"*, i1)***
  %10 = load void (%"class.pdf::PDFWebContentsHelperClient"*, %"class.content::WebContents"*, i1)**, void (%"class.pdf::PDFWebContentsHelperClient"*, %"class.content::WebContents"*, i1)*** %9, align 8
  %11 = getelementptr inbounds void (%"class.pdf::PDFWebContentsHelperClient"*, %"class.content::WebContents"*, i1)*, void (%"class.pdf::PDFWebContentsHelperClient"*, %"class.content::WebContents"*, i1)** %10, i64 5
  %12 = load void (%"class.pdf::PDFWebContentsHelperClient"*, %"class.content::WebContents"*, i1)*, void (%"class.pdf::PDFWebContentsHelperClient"*, %"class.content::WebContents"*, i1)** %11, align 8
  tail call void %12(%"class.pdf::PDFWebContentsHelperClient"* %6, %"class.content::WebContents"* %8, i1 zeroext %1) #14
  ret void
}

; Function Attrs: nounwind ssp uwtable
define hidden void @_ZN3pdf20PDFWebContentsHelper9DidScrollEv(%"class.pdf::PDFWebContentsHelper"*) unnamed_addr #6 align 2 {
  %2 = alloca %"class.gfx::PointF", align 4
  %3 = alloca %"class.gfx::PointF", align 4
  %4 = alloca %"class.gfx::PointF", align 4
  %5 = alloca %"class.gfx::PointF", align 4
  %6 = alloca %"class.gfx::SelectionBound", align 4
  %7 = alloca %"class.gfx::SelectionBound", align 4
  %8 = alloca <2 x float>, align 8
  %9 = bitcast <2 x float>* %8 to %"class.gfx::PointF"*
  %10 = alloca <2 x float>, align 8
  %11 = bitcast <2 x float>* %10 to %"class.gfx::PointF"*
  %12 = alloca <2 x float>, align 8
  %13 = bitcast <2 x float>* %12 to %"class.gfx::PointF"*
  %14 = alloca <2 x float>, align 8
  %15 = bitcast <2 x float>* %14 to %"class.gfx::PointF"*
  %16 = getelementptr inbounds %"class.pdf::PDFWebContentsHelper", %"class.pdf::PDFWebContentsHelper"* %0, i64 0, i32 8
  %17 = load %"class.content::TouchSelectionControllerClientManager"*, %"class.content::TouchSelectionControllerClientManager"** %16, align 8
  %18 = icmp eq %"class.content::TouchSelectionControllerClientManager"* %17, null
  br i1 %18, label %19, label %44

19:                                               ; preds = %1
  %20 = getelementptr inbounds %"class.pdf::PDFWebContentsHelper", %"class.pdf::PDFWebContentsHelper"* %0, i64 0, i32 0
  %21 = tail call %"class.content::WebContents"* @_ZNK7content19WebContentsObserver12web_contentsEv(%"class.content::WebContentsObserver"* %20) #14
  %22 = bitcast %"class.content::WebContents"* %21 to %"class.content::RenderWidgetHostView"* (%"class.content::WebContents"*)***
  %23 = load %"class.content::RenderWidgetHostView"* (%"class.content::WebContents"*)**, %"class.content::RenderWidgetHostView"* (%"class.content::WebContents"*)*** %22, align 8
  %24 = getelementptr inbounds %"class.content::RenderWidgetHostView"* (%"class.content::WebContents"*)*, %"class.content::RenderWidgetHostView"* (%"class.content::WebContents"*)** %23, i64 20
  %25 = load %"class.content::RenderWidgetHostView"* (%"class.content::WebContents"*)*, %"class.content::RenderWidgetHostView"* (%"class.content::WebContents"*)** %24, align 8
  %26 = tail call %"class.content::RenderWidgetHostView"* %25(%"class.content::WebContents"* %21) #14
  %27 = icmp eq %"class.content::RenderWidgetHostView"* %26, null
  br i1 %27, label %41, label %28

28:                                               ; preds = %19
  %29 = bitcast %"class.content::RenderWidgetHostView"* %26 to %"class.content::TouchSelectionControllerClientManager"* (%"class.content::RenderWidgetHostView"*)***
  %30 = load %"class.content::TouchSelectionControllerClientManager"* (%"class.content::RenderWidgetHostView"*)**, %"class.content::TouchSelectionControllerClientManager"* (%"class.content::RenderWidgetHostView"*)*** %29, align 8
  %31 = getelementptr inbounds %"class.content::TouchSelectionControllerClientManager"* (%"class.content::RenderWidgetHostView"*)*, %"class.content::TouchSelectionControllerClientManager"* (%"class.content::RenderWidgetHostView"*)** %30, i64 23
  %32 = load %"class.content::TouchSelectionControllerClientManager"* (%"class.content::RenderWidgetHostView"*)*, %"class.content::TouchSelectionControllerClientManager"* (%"class.content::RenderWidgetHostView"*)** %31, align 8
  %33 = tail call %"class.content::TouchSelectionControllerClientManager"* %32(%"class.content::RenderWidgetHostView"* nonnull %26) #14
  store %"class.content::TouchSelectionControllerClientManager"* %33, %"class.content::TouchSelectionControllerClientManager"** %16, align 8
  %34 = icmp eq %"class.content::TouchSelectionControllerClientManager"* %33, null
  br i1 %34, label %180, label %35

35:                                               ; preds = %28
  %36 = getelementptr inbounds %"class.pdf::PDFWebContentsHelper", %"class.pdf::PDFWebContentsHelper"* %0, i64 0, i32 5
  %37 = bitcast %"class.content::TouchSelectionControllerClientManager"* %33 to void (%"class.content::TouchSelectionControllerClientManager"*, %"class.content::TouchSelectionControllerClientManager::Observer"*)***
  %38 = load void (%"class.content::TouchSelectionControllerClientManager"*, %"class.content::TouchSelectionControllerClientManager::Observer"*)**, void (%"class.content::TouchSelectionControllerClientManager"*, %"class.content::TouchSelectionControllerClientManager::Observer"*)*** %37, align 8
  %39 = getelementptr inbounds void (%"class.content::TouchSelectionControllerClientManager"*, %"class.content::TouchSelectionControllerClientManager::Observer"*)*, void (%"class.content::TouchSelectionControllerClientManager"*, %"class.content::TouchSelectionControllerClientManager::Observer"*)** %38, i64 6
  %40 = load void (%"class.content::TouchSelectionControllerClientManager"*, %"class.content::TouchSelectionControllerClientManager::Observer"*)*, void (%"class.content::TouchSelectionControllerClientManager"*, %"class.content::TouchSelectionControllerClientManager::Observer"*)** %39, align 8
  tail call void %40(%"class.content::TouchSelectionControllerClientManager"* nonnull %33, %"class.content::TouchSelectionControllerClientManager::Observer"* %36) #14
  br label %41

41:                                               ; preds = %35, %19
  %42 = load %"class.content::TouchSelectionControllerClientManager"*, %"class.content::TouchSelectionControllerClientManager"** %16, align 8
  %43 = icmp eq %"class.content::TouchSelectionControllerClientManager"* %42, null
  br i1 %43, label %180, label %44

44:                                               ; preds = %1, %41
  %45 = bitcast %"class.gfx::SelectionBound"* %6 to i8*
  call void @llvm.lifetime.start.p0i8(i64 56, i8* nonnull %45) #14
  %46 = getelementptr inbounds %"class.gfx::SelectionBound", %"class.gfx::SelectionBound"* %6, i64 0, i32 0
  store i32 -1431655766, i32* %46, align 4
  %47 = getelementptr inbounds %"class.gfx::SelectionBound", %"class.gfx::SelectionBound"* %6, i64 0, i32 1, i32 0
  %48 = getelementptr inbounds %"class.gfx::SelectionBound", %"class.gfx::SelectionBound"* %6, i64 0, i32 5, i32 0
  %49 = bitcast float* %47 to i8*
  call void @llvm.memset.p0i8.i64(i8* align 4 %49, i8 -1, i64 32, i1 false)
  %50 = getelementptr inbounds %"class.gfx::SelectionBound", %"class.gfx::SelectionBound"* %6, i64 0, i32 7
  %51 = bitcast i32* %48 to i8*
  call void @llvm.memset.p0i8.i64(i8* align 4 %51, i8 -86, i64 20, i1 false)
  call void @_ZN3gfx14SelectionBoundC1Ev(%"class.gfx::SelectionBound"* nonnull %6) #14
  %52 = bitcast %"class.gfx::SelectionBound"* %7 to i8*
  call void @llvm.lifetime.start.p0i8(i64 56, i8* nonnull %52) #14
  %53 = getelementptr inbounds %"class.gfx::SelectionBound", %"class.gfx::SelectionBound"* %7, i64 0, i32 0
  store i32 -1431655766, i32* %53, align 4
  %54 = getelementptr inbounds %"class.gfx::SelectionBound", %"class.gfx::SelectionBound"* %7, i64 0, i32 1, i32 0
  %55 = getelementptr inbounds %"class.gfx::SelectionBound", %"class.gfx::SelectionBound"* %7, i64 0, i32 5, i32 0
  %56 = bitcast float* %54 to i8*
  call void @llvm.memset.p0i8.i64(i8* align 4 %56, i8 -1, i64 32, i1 false)
  %57 = getelementptr inbounds %"class.gfx::SelectionBound", %"class.gfx::SelectionBound"* %7, i64 0, i32 7
  %58 = bitcast i32* %55 to i8*
  call void @llvm.memset.p0i8.i64(i8* align 4 %58, i8 -86, i64 20, i1 false)
  call void @_ZN3gfx14SelectionBoundC1Ev(%"class.gfx::SelectionBound"* nonnull %7) #14
  %59 = bitcast <2 x float>* %8 to i8*
  call void @llvm.lifetime.start.p0i8(i64 8, i8* nonnull %59) #14
  %60 = getelementptr inbounds %"class.pdf::PDFWebContentsHelper", %"class.pdf::PDFWebContentsHelper"* %0, i64 0, i32 0
  %61 = call %"class.content::WebContents"* @_ZNK7content19WebContentsObserver12web_contentsEv(%"class.content::WebContentsObserver"* %60) #14
  %62 = bitcast %"class.content::WebContents"* %61 to %"class.content::RenderWidgetHostView"* (%"class.content::WebContents"*)***
  %63 = load %"class.content::RenderWidgetHostView"* (%"class.content::WebContents"*)**, %"class.content::RenderWidgetHostView"* (%"class.content::WebContents"*)*** %62, align 8
  %64 = getelementptr inbounds %"class.content::RenderWidgetHostView"* (%"class.content::WebContents"*)*, %"class.content::RenderWidgetHostView"* (%"class.content::WebContents"*)** %63, i64 20
  %65 = load %"class.content::RenderWidgetHostView"* (%"class.content::WebContents"*)*, %"class.content::RenderWidgetHostView"* (%"class.content::WebContents"*)** %64, align 8
  %66 = call %"class.content::RenderWidgetHostView"* %65(%"class.content::WebContents"* %61) #14
  %67 = icmp eq %"class.content::RenderWidgetHostView"* %66, null
  br i1 %67, label %77, label %68

68:                                               ; preds = %44
  %69 = bitcast %"class.gfx::PointF"* %5 to i8*
  call void @llvm.lifetime.start.p0i8(i64 8, i8* nonnull %69) #14
  %70 = getelementptr inbounds %"class.gfx::PointF", %"class.gfx::PointF"* %5, i64 0, i32 0
  store float 0.000000e+00, float* %70, align 4
  %71 = getelementptr inbounds %"class.gfx::PointF", %"class.gfx::PointF"* %5, i64 0, i32 1
  store float 0.000000e+00, float* %71, align 4
  %72 = bitcast %"class.content::RenderWidgetHostView"* %66 to <2 x float> (%"class.content::RenderWidgetHostView"*, %"class.gfx::PointF"*)***
  %73 = load <2 x float> (%"class.content::RenderWidgetHostView"*, %"class.gfx::PointF"*)**, <2 x float> (%"class.content::RenderWidgetHostView"*, %"class.gfx::PointF"*)*** %72, align 8
  %74 = getelementptr inbounds <2 x float> (%"class.content::RenderWidgetHostView"*, %"class.gfx::PointF"*)*, <2 x float> (%"class.content::RenderWidgetHostView"*, %"class.gfx::PointF"*)** %73, i64 9
  %75 = load <2 x float> (%"class.content::RenderWidgetHostView"*, %"class.gfx::PointF"*)*, <2 x float> (%"class.content::RenderWidgetHostView"*, %"class.gfx::PointF"*)** %74, align 8
  %76 = call <2 x float> %75(%"class.content::RenderWidgetHostView"* nonnull %66, %"class.gfx::PointF"* nonnull dereferenceable(8) %5) #14
  call void @llvm.lifetime.end.p0i8(i64 8, i8* nonnull %69) #14
  br label %77

77:                                               ; preds = %44, %68
  %78 = phi <2 x float> [ zeroinitializer, %44 ], [ %76, %68 ]
  %79 = getelementptr inbounds %"class.pdf::PDFWebContentsHelper", %"class.pdf::PDFWebContentsHelper"* %0, i64 0, i32 9, i32 0
  %80 = getelementptr inbounds %"class.pdf::PDFWebContentsHelper", %"class.pdf::PDFWebContentsHelper"* %0, i64 0, i32 9, i32 1
  %81 = bitcast float* %79 to <2 x float>*
  %82 = load <2 x float>, <2 x float>* %81, align 4
  %83 = fadd <2 x float> %82, %78
  store <2 x float> %83, <2 x float>* %8, align 8
  call void @_ZN3gfx14SelectionBound12SetEdgeStartERKNS_6PointFE(%"class.gfx::SelectionBound"* nonnull %6, %"class.gfx::PointF"* nonnull dereferenceable(8) %9) #14
  call void @llvm.lifetime.end.p0i8(i64 8, i8* nonnull %59) #14
  %84 = bitcast <2 x float>* %10 to i8*
  call void @llvm.lifetime.start.p0i8(i64 8, i8* nonnull %84) #14
  %85 = load float, float* %79, align 4
  %86 = load float, float* %80, align 4
  %87 = getelementptr inbounds %"class.pdf::PDFWebContentsHelper", %"class.pdf::PDFWebContentsHelper"* %0, i64 0, i32 10
  %88 = load i32, i32* %87, align 8
  %89 = sitofp i32 %88 to float
  %90 = fadd float %86, %89
  %91 = call %"class.content::WebContents"* @_ZNK7content19WebContentsObserver12web_contentsEv(%"class.content::WebContentsObserver"* %60) #14
  %92 = bitcast %"class.content::WebContents"* %91 to %"class.content::RenderWidgetHostView"* (%"class.content::WebContents"*)***
  %93 = load %"class.content::RenderWidgetHostView"* (%"class.content::WebContents"*)**, %"class.content::RenderWidgetHostView"* (%"class.content::WebContents"*)*** %92, align 8
  %94 = getelementptr inbounds %"class.content::RenderWidgetHostView"* (%"class.content::WebContents"*)*, %"class.content::RenderWidgetHostView"* (%"class.content::WebContents"*)** %93, i64 20
  %95 = load %"class.content::RenderWidgetHostView"* (%"class.content::WebContents"*)*, %"class.content::RenderWidgetHostView"* (%"class.content::WebContents"*)** %94, align 8
  %96 = call %"class.content::RenderWidgetHostView"* %95(%"class.content::WebContents"* %91) #14
  %97 = icmp eq %"class.content::RenderWidgetHostView"* %96, null
  br i1 %97, label %107, label %98

98:                                               ; preds = %77
  %99 = bitcast %"class.gfx::PointF"* %4 to i8*
  call void @llvm.lifetime.start.p0i8(i64 8, i8* nonnull %99) #14
  %100 = getelementptr inbounds %"class.gfx::PointF", %"class.gfx::PointF"* %4, i64 0, i32 0
  store float 0.000000e+00, float* %100, align 4
  %101 = getelementptr inbounds %"class.gfx::PointF", %"class.gfx::PointF"* %4, i64 0, i32 1
  store float 0.000000e+00, float* %101, align 4
  %102 = bitcast %"class.content::RenderWidgetHostView"* %96 to <2 x float> (%"class.content::RenderWidgetHostView"*, %"class.gfx::PointF"*)***
  %103 = load <2 x float> (%"class.content::RenderWidgetHostView"*, %"class.gfx::PointF"*)**, <2 x float> (%"class.content::RenderWidgetHostView"*, %"class.gfx::PointF"*)*** %102, align 8
  %104 = getelementptr inbounds <2 x float> (%"class.content::RenderWidgetHostView"*, %"class.gfx::PointF"*)*, <2 x float> (%"class.content::RenderWidgetHostView"*, %"class.gfx::PointF"*)** %103, i64 9
  %105 = load <2 x float> (%"class.content::RenderWidgetHostView"*, %"class.gfx::PointF"*)*, <2 x float> (%"class.content::RenderWidgetHostView"*, %"class.gfx::PointF"*)** %104, align 8
  %106 = call <2 x float> %105(%"class.content::RenderWidgetHostView"* nonnull %96, %"class.gfx::PointF"* nonnull dereferenceable(8) %4) #14
  call void @llvm.lifetime.end.p0i8(i64 8, i8* nonnull %99) #14
  br label %107

107:                                              ; preds = %77, %98
  %108 = phi <2 x float> [ zeroinitializer, %77 ], [ %106, %98 ]
  %109 = insertelement <2 x float> undef, float %85, i32 0
  %110 = insertelement <2 x float> %109, float %90, i32 1
  %111 = fadd <2 x float> %110, %108
  store <2 x float> %111, <2 x float>* %10, align 8
  call void @_ZN3gfx14SelectionBound10SetEdgeEndERKNS_6PointFE(%"class.gfx::SelectionBound"* nonnull %6, %"class.gfx::PointF"* nonnull dereferenceable(8) %11) #14
  call void @llvm.lifetime.end.p0i8(i64 8, i8* nonnull %84) #14
  %112 = bitcast <2 x float>* %12 to i8*
  call void @llvm.lifetime.start.p0i8(i64 8, i8* nonnull %112) #14
  %113 = call %"class.content::WebContents"* @_ZNK7content19WebContentsObserver12web_contentsEv(%"class.content::WebContentsObserver"* %60) #14
  %114 = bitcast %"class.content::WebContents"* %113 to %"class.content::RenderWidgetHostView"* (%"class.content::WebContents"*)***
  %115 = load %"class.content::RenderWidgetHostView"* (%"class.content::WebContents"*)**, %"class.content::RenderWidgetHostView"* (%"class.content::WebContents"*)*** %114, align 8
  %116 = getelementptr inbounds %"class.content::RenderWidgetHostView"* (%"class.content::WebContents"*)*, %"class.content::RenderWidgetHostView"* (%"class.content::WebContents"*)** %115, i64 20
  %117 = load %"class.content::RenderWidgetHostView"* (%"class.content::WebContents"*)*, %"class.content::RenderWidgetHostView"* (%"class.content::WebContents"*)** %116, align 8
  %118 = call %"class.content::RenderWidgetHostView"* %117(%"class.content::WebContents"* %113) #14
  %119 = icmp eq %"class.content::RenderWidgetHostView"* %118, null
  br i1 %119, label %129, label %120

120:                                              ; preds = %107
  %121 = bitcast %"class.gfx::PointF"* %3 to i8*
  call void @llvm.lifetime.start.p0i8(i64 8, i8* nonnull %121) #14
  %122 = getelementptr inbounds %"class.gfx::PointF", %"class.gfx::PointF"* %3, i64 0, i32 0
  store float 0.000000e+00, float* %122, align 4
  %123 = getelementptr inbounds %"class.gfx::PointF", %"class.gfx::PointF"* %3, i64 0, i32 1
  store float 0.000000e+00, float* %123, align 4
  %124 = bitcast %"class.content::RenderWidgetHostView"* %118 to <2 x float> (%"class.content::RenderWidgetHostView"*, %"class.gfx::PointF"*)***
  %125 = load <2 x float> (%"class.content::RenderWidgetHostView"*, %"class.gfx::PointF"*)**, <2 x float> (%"class.content::RenderWidgetHostView"*, %"class.gfx::PointF"*)*** %124, align 8
  %126 = getelementptr inbounds <2 x float> (%"class.content::RenderWidgetHostView"*, %"class.gfx::PointF"*)*, <2 x float> (%"class.content::RenderWidgetHostView"*, %"class.gfx::PointF"*)** %125, i64 9
  %127 = load <2 x float> (%"class.content::RenderWidgetHostView"*, %"class.gfx::PointF"*)*, <2 x float> (%"class.content::RenderWidgetHostView"*, %"class.gfx::PointF"*)** %126, align 8
  %128 = call <2 x float> %127(%"class.content::RenderWidgetHostView"* nonnull %118, %"class.gfx::PointF"* nonnull dereferenceable(8) %3) #14
  call void @llvm.lifetime.end.p0i8(i64 8, i8* nonnull %121) #14
  br label %129

129:                                              ; preds = %107, %120
  %130 = phi <2 x float> [ zeroinitializer, %107 ], [ %128, %120 ]
  %131 = getelementptr inbounds %"class.pdf::PDFWebContentsHelper", %"class.pdf::PDFWebContentsHelper"* %0, i64 0, i32 11, i32 0
  %132 = getelementptr inbounds %"class.pdf::PDFWebContentsHelper", %"class.pdf::PDFWebContentsHelper"* %0, i64 0, i32 11, i32 1
  %133 = bitcast float* %131 to <2 x float>*
  %134 = load <2 x float>, <2 x float>* %133, align 4
  %135 = fadd <2 x float> %134, %130
  store <2 x float> %135, <2 x float>* %12, align 8
  call void @_ZN3gfx14SelectionBound12SetEdgeStartERKNS_6PointFE(%"class.gfx::SelectionBound"* nonnull %7, %"class.gfx::PointF"* nonnull dereferenceable(8) %13) #14
  call void @llvm.lifetime.end.p0i8(i64 8, i8* nonnull %112) #14
  %136 = bitcast <2 x float>* %14 to i8*
  call void @llvm.lifetime.start.p0i8(i64 8, i8* nonnull %136) #14
  %137 = load float, float* %131, align 4
  %138 = load float, float* %132, align 4
  %139 = getelementptr inbounds %"class.pdf::PDFWebContentsHelper", %"class.pdf::PDFWebContentsHelper"* %0, i64 0, i32 12
  %140 = load i32, i32* %139, align 4
  %141 = sitofp i32 %140 to float
  %142 = fadd float %138, %141
  %143 = call %"class.content::WebContents"* @_ZNK7content19WebContentsObserver12web_contentsEv(%"class.content::WebContentsObserver"* %60) #14
  %144 = bitcast %"class.content::WebContents"* %143 to %"class.content::RenderWidgetHostView"* (%"class.content::WebContents"*)***
  %145 = load %"class.content::RenderWidgetHostView"* (%"class.content::WebContents"*)**, %"class.content::RenderWidgetHostView"* (%"class.content::WebContents"*)*** %144, align 8
  %146 = getelementptr inbounds %"class.content::RenderWidgetHostView"* (%"class.content::WebContents"*)*, %"class.content::RenderWidgetHostView"* (%"class.content::WebContents"*)** %145, i64 20
  %147 = load %"class.content::RenderWidgetHostView"* (%"class.content::WebContents"*)*, %"class.content::RenderWidgetHostView"* (%"class.content::WebContents"*)** %146, align 8
  %148 = call %"class.content::RenderWidgetHostView"* %147(%"class.content::WebContents"* %143) #14
  %149 = icmp eq %"class.content::RenderWidgetHostView"* %148, null
  br i1 %149, label %159, label %150

150:                                              ; preds = %129
  %151 = bitcast %"class.gfx::PointF"* %2 to i8*
  call void @llvm.lifetime.start.p0i8(i64 8, i8* nonnull %151) #14
  %152 = getelementptr inbounds %"class.gfx::PointF", %"class.gfx::PointF"* %2, i64 0, i32 0
  store float 0.000000e+00, float* %152, align 4
  %153 = getelementptr inbounds %"class.gfx::PointF", %"class.gfx::PointF"* %2, i64 0, i32 1
  store float 0.000000e+00, float* %153, align 4
  %154 = bitcast %"class.content::RenderWidgetHostView"* %148 to <2 x float> (%"class.content::RenderWidgetHostView"*, %"class.gfx::PointF"*)***
  %155 = load <2 x float> (%"class.content::RenderWidgetHostView"*, %"class.gfx::PointF"*)**, <2 x float> (%"class.content::RenderWidgetHostView"*, %"class.gfx::PointF"*)*** %154, align 8
  %156 = getelementptr inbounds <2 x float> (%"class.content::RenderWidgetHostView"*, %"class.gfx::PointF"*)*, <2 x float> (%"class.content::RenderWidgetHostView"*, %"class.gfx::PointF"*)** %155, i64 9
  %157 = load <2 x float> (%"class.content::RenderWidgetHostView"*, %"class.gfx::PointF"*)*, <2 x float> (%"class.content::RenderWidgetHostView"*, %"class.gfx::PointF"*)** %156, align 8
  %158 = call <2 x float> %157(%"class.content::RenderWidgetHostView"* nonnull %148, %"class.gfx::PointF"* nonnull dereferenceable(8) %2) #14
  call void @llvm.lifetime.end.p0i8(i64 8, i8* nonnull %151) #14
  br label %159

159:                                              ; preds = %129, %150
  %160 = phi <2 x float> [ zeroinitializer, %129 ], [ %158, %150 ]
  %161 = insertelement <2 x float> undef, float %137, i32 0
  %162 = insertelement <2 x float> %161, float %142, i32 1
  %163 = fadd <2 x float> %162, %160
  store <2 x float> %163, <2 x float>* %14, align 8
  call void @_ZN3gfx14SelectionBound10SetEdgeEndERKNS_6PointFE(%"class.gfx::SelectionBound"* nonnull %7, %"class.gfx::PointF"* nonnull dereferenceable(8) %15) #14
  call void @llvm.lifetime.end.p0i8(i64 8, i8* nonnull %136) #14
  %164 = getelementptr inbounds %"class.gfx::SelectionBound", %"class.gfx::SelectionBound"* %6, i64 0, i32 1
  %165 = getelementptr inbounds %"class.gfx::SelectionBound", %"class.gfx::SelectionBound"* %6, i64 0, i32 2
  call void @_ZN3gfx14SelectionBound14SetVisibleEdgeERKNS_6PointFES3_(%"class.gfx::SelectionBound"* nonnull %6, %"class.gfx::PointF"* dereferenceable(8) %164, %"class.gfx::PointF"* dereferenceable(8) %165) #14
  %166 = getelementptr inbounds %"class.gfx::SelectionBound", %"class.gfx::SelectionBound"* %7, i64 0, i32 1
  %167 = getelementptr inbounds %"class.gfx::SelectionBound", %"class.gfx::SelectionBound"* %7, i64 0, i32 2
  call void @_ZN3gfx14SelectionBound14SetVisibleEdgeERKNS_6PointFES3_(%"class.gfx::SelectionBound"* nonnull %7, %"class.gfx::PointF"* dereferenceable(8) %166, %"class.gfx::PointF"* dereferenceable(8) %167) #14
  %168 = call zeroext i1 @_ZN3gfxneERKNS_14SelectionBoundES2_(%"class.gfx::SelectionBound"* nonnull dereferenceable(56) %6, %"class.gfx::SelectionBound"* nonnull dereferenceable(56) %7) #14
  %169 = getelementptr inbounds %"class.pdf::PDFWebContentsHelper", %"class.pdf::PDFWebContentsHelper"* %0, i64 0, i32 13
  %170 = zext i1 %168 to i8
  store i8 %170, i8* %169, align 8
  store i8 %170, i8* %50, align 4
  store i8 %170, i8* %57, align 4
  %171 = select i1 %168, i32 0, i32 3
  store i32 %171, i32* %46, align 4
  %172 = select i1 %168, i32 1, i32 3
  store i32 %172, i32* %53, align 4
  %173 = load %"class.content::TouchSelectionControllerClientManager"*, %"class.content::TouchSelectionControllerClientManager"** %16, align 8
  %174 = getelementptr inbounds %"class.pdf::PDFWebContentsHelper", %"class.pdf::PDFWebContentsHelper"* %0, i64 0, i32 3
  %175 = getelementptr inbounds %"class.pdf::PDFWebContentsHelper", %"class.pdf::PDFWebContentsHelper"* %0, i64 0, i32 4
  %176 = bitcast %"class.content::TouchSelectionControllerClientManager"* %173 to void (%"class.content::TouchSelectionControllerClientManager"*, %"class.gfx::SelectionBound"*, %"class.gfx::SelectionBound"*, %"class.ui::TouchSelectionControllerClient"*, %"class.ui::TouchSelectionMenuClient"*)***
  %177 = load void (%"class.content::TouchSelectionControllerClientManager"*, %"class.gfx::SelectionBound"*, %"class.gfx::SelectionBound"*, %"class.ui::TouchSelectionControllerClient"*, %"class.ui::TouchSelectionMenuClient"*)**, void (%"class.content::TouchSelectionControllerClientManager"*, %"class.gfx::SelectionBound"*, %"class.gfx::SelectionBound"*, %"class.ui::TouchSelectionControllerClient"*, %"class.ui::TouchSelectionMenuClient"*)*** %176, align 8
  %178 = getelementptr inbounds void (%"class.content::TouchSelectionControllerClientManager"*, %"class.gfx::SelectionBound"*, %"class.gfx::SelectionBound"*, %"class.ui::TouchSelectionControllerClient"*, %"class.ui::TouchSelectionMenuClient"*)*, void (%"class.content::TouchSelectionControllerClientManager"*, %"class.gfx::SelectionBound"*, %"class.gfx::SelectionBound"*, %"class.ui::TouchSelectionControllerClient"*, %"class.ui::TouchSelectionMenuClient"*)** %177, i64 3
  %179 = load void (%"class.content::TouchSelectionControllerClientManager"*, %"class.gfx::SelectionBound"*, %"class.gfx::SelectionBound"*, %"class.ui::TouchSelectionControllerClient"*, %"class.ui::TouchSelectionMenuClient"*)*, void (%"class.content::TouchSelectionControllerClientManager"*, %"class.gfx::SelectionBound"*, %"class.gfx::SelectionBound"*, %"class.ui::TouchSelectionControllerClient"*, %"class.ui::TouchSelectionMenuClient"*)** %178, align 8
  call void %179(%"class.content::TouchSelectionControllerClientManager"* %173, %"class.gfx::SelectionBound"* nonnull dereferenceable(56) %6, %"class.gfx::SelectionBound"* nonnull dereferenceable(56) %7, %"class.ui::TouchSelectionControllerClient"* %174, %"class.ui::TouchSelectionMenuClient"* %175) #14
  call void @_ZN3gfx14SelectionBoundD1Ev(%"class.gfx::SelectionBound"* nonnull %7) #14
  call void @llvm.lifetime.end.p0i8(i64 56, i8* nonnull %52) #14
  call void @_ZN3gfx14SelectionBoundD1Ev(%"class.gfx::SelectionBound"* nonnull %6) #14
  call void @llvm.lifetime.end.p0i8(i64 56, i8* nonnull %45) #14
  br label %180

180:                                              ; preds = %28, %41, %159
  ret void
}

; Function Attrs: nounwind ssp uwtable
define hidden void @_ZN3pdf20PDFWebContentsHelper31InitTouchSelectionClientManagerEv(%"class.pdf::PDFWebContentsHelper"*) local_unnamed_addr #0 align 2 {
  %2 = getelementptr inbounds %"class.pdf::PDFWebContentsHelper", %"class.pdf::PDFWebContentsHelper"* %0, i64 0, i32 0
  %3 = tail call %"class.content::WebContents"* @_ZNK7content19WebContentsObserver12web_contentsEv(%"class.content::WebContentsObserver"* %2) #14
  %4 = bitcast %"class.content::WebContents"* %3 to %"class.content::RenderWidgetHostView"* (%"class.content::WebContents"*)***
  %5 = load %"class.content::RenderWidgetHostView"* (%"class.content::WebContents"*)**, %"class.content::RenderWidgetHostView"* (%"class.content::WebContents"*)*** %4, align 8
  %6 = getelementptr inbounds %"class.content::RenderWidgetHostView"* (%"class.content::WebContents"*)*, %"class.content::RenderWidgetHostView"* (%"class.content::WebContents"*)** %5, i64 20
  %7 = load %"class.content::RenderWidgetHostView"* (%"class.content::WebContents"*)*, %"class.content::RenderWidgetHostView"* (%"class.content::WebContents"*)** %6, align 8
  %8 = tail call %"class.content::RenderWidgetHostView"* %7(%"class.content::WebContents"* %3) #14
  %9 = icmp eq %"class.content::RenderWidgetHostView"* %8, null
  br i1 %9, label %24, label %10

10:                                               ; preds = %1
  %11 = bitcast %"class.content::RenderWidgetHostView"* %8 to %"class.content::TouchSelectionControllerClientManager"* (%"class.content::RenderWidgetHostView"*)***
  %12 = load %"class.content::TouchSelectionControllerClientManager"* (%"class.content::RenderWidgetHostView"*)**, %"class.content::TouchSelectionControllerClientManager"* (%"class.content::RenderWidgetHostView"*)*** %11, align 8
  %13 = getelementptr inbounds %"class.content::TouchSelectionControllerClientManager"* (%"class.content::RenderWidgetHostView"*)*, %"class.content::TouchSelectionControllerClientManager"* (%"class.content::RenderWidgetHostView"*)** %12, i64 23
  %14 = load %"class.content::TouchSelectionControllerClientManager"* (%"class.content::RenderWidgetHostView"*)*, %"class.content::TouchSelectionControllerClientManager"* (%"class.content::RenderWidgetHostView"*)** %13, align 8
  %15 = tail call %"class.content::TouchSelectionControllerClientManager"* %14(%"class.content::RenderWidgetHostView"* nonnull %8) #14
  %16 = getelementptr inbounds %"class.pdf::PDFWebContentsHelper", %"class.pdf::PDFWebContentsHelper"* %0, i64 0, i32 8
  store %"class.content::TouchSelectionControllerClientManager"* %15, %"class.content::TouchSelectionControllerClientManager"** %16, align 8
  %17 = icmp eq %"class.content::TouchSelectionControllerClientManager"* %15, null
  br i1 %17, label %24, label %18

18:                                               ; preds = %10
  %19 = getelementptr inbounds %"class.pdf::PDFWebContentsHelper", %"class.pdf::PDFWebContentsHelper"* %0, i64 0, i32 5
  %20 = bitcast %"class.content::TouchSelectionControllerClientManager"* %15 to void (%"class.content::TouchSelectionControllerClientManager"*, %"class.content::TouchSelectionControllerClientManager::Observer"*)***
  %21 = load void (%"class.content::TouchSelectionControllerClientManager"*, %"class.content::TouchSelectionControllerClientManager::Observer"*)**, void (%"class.content::TouchSelectionControllerClientManager"*, %"class.content::TouchSelectionControllerClientManager::Observer"*)*** %20, align 8
  %22 = getelementptr inbounds void (%"class.content::TouchSelectionControllerClientManager"*, %"class.content::TouchSelectionControllerClientManager::Observer"*)*, void (%"class.content::TouchSelectionControllerClientManager"*, %"class.content::TouchSelectionControllerClientManager::Observer"*)** %21, i64 6
  %23 = load void (%"class.content::TouchSelectionControllerClientManager"*, %"class.content::TouchSelectionControllerClientManager::Observer"*)*, void (%"class.content::TouchSelectionControllerClientManager"*, %"class.content::TouchSelectionControllerClientManager::Observer"*)** %22, align 8
  tail call void %23(%"class.content::TouchSelectionControllerClientManager"* nonnull %15, %"class.content::TouchSelectionControllerClientManager::Observer"* %19) #14
  br label %24

24:                                               ; preds = %10, %1, %18
  ret void
}

declare void @_ZN3gfx14SelectionBoundC1Ev(%"class.gfx::SelectionBound"*) unnamed_addr #1

declare void @_ZN3gfx14SelectionBound12SetEdgeStartERKNS_6PointFE(%"class.gfx::SelectionBound"*, %"class.gfx::PointF"* dereferenceable(8)) local_unnamed_addr #1

declare void @_ZN3gfx14SelectionBound10SetEdgeEndERKNS_6PointFE(%"class.gfx::SelectionBound"*, %"class.gfx::PointF"* dereferenceable(8)) local_unnamed_addr #1

declare void @_ZN3gfx14SelectionBound14SetVisibleEdgeERKNS_6PointFES3_(%"class.gfx::SelectionBound"*, %"class.gfx::PointF"* dereferenceable(8), %"class.gfx::PointF"* dereferenceable(8)) local_unnamed_addr #1

declare zeroext i1 @_ZN3gfxneERKNS_14SelectionBoundES2_(%"class.gfx::SelectionBound"* dereferenceable(56), %"class.gfx::SelectionBound"* dereferenceable(56)) local_unnamed_addr #1

; Function Attrs: nounwind
declare void @_ZN3gfx14SelectionBoundD1Ev(%"class.gfx::SelectionBound"*) unnamed_addr #4

; Function Attrs: nounwind ssp uwtable
define hidden void @_ZThn32_N3pdf20PDFWebContentsHelper9DidScrollEv(%"class.pdf::PDFWebContentsHelper"*) unnamed_addr #0 align 2 {
  %2 = getelementptr inbounds %"class.pdf::PDFWebContentsHelper", %"class.pdf::PDFWebContentsHelper"* %0, i64 -1, i32 14, i32 0, i32 0, i32 2
  %3 = bitcast %"class.mojo::ScopedHandleBase"* %2 to %"class.pdf::PDFWebContentsHelper"*
  tail call void @_ZN3pdf20PDFWebContentsHelper9DidScrollEv(%"class.pdf::PDFWebContentsHelper"* %3)
  ret void
}

; Function Attrs: norecurse nounwind readnone ssp uwtable
define hidden zeroext i1 @_ZNK3pdf20PDFWebContentsHelper17SupportsAnimationEv(%"class.pdf::PDFWebContentsHelper"* nocapture readnone) unnamed_addr #7 align 2 {
  ret i1 false
}

; Function Attrs: norecurse nounwind readnone ssp uwtable
define hidden zeroext i1 @_ZThn32_NK3pdf20PDFWebContentsHelper17SupportsAnimationEv(%"class.pdf::PDFWebContentsHelper"* nocapture readnone) unnamed_addr #7 align 2 {
  ret i1 false
}

; Function Attrs: nounwind ssp uwtable
define hidden void @_ZN3pdf20PDFWebContentsHelper9MoveCaretERKN3gfx6PointFE(%"class.pdf::PDFWebContentsHelper"*, %"class.gfx::PointF"* nocapture readonly dereferenceable(8)) unnamed_addr #6 align 2 {
  %3 = alloca %"class.gfx::PointF", align 4
  %4 = alloca <2 x float>, align 8
  %5 = getelementptr inbounds %"class.pdf::PDFWebContentsHelper", %"class.pdf::PDFWebContentsHelper"* %0, i64 0, i32 14, i32 0, i32 0, i32 2, i32 0, i32 0, i32 0
  %6 = load i32, i32* %5, align 4
  %7 = icmp eq i32 %6, 0
  br i1 %7, label %8, label %12

8:                                                ; preds = %2
  %9 = getelementptr inbounds %"class.pdf::PDFWebContentsHelper", %"class.pdf::PDFWebContentsHelper"* %0, i64 0, i32 14, i32 0, i32 0, i32 1, i32 0, i32 0, i32 0
  %10 = load %"class.mojo::InterfaceEndpointClient"*, %"class.mojo::InterfaceEndpointClient"** %9, align 8
  %11 = icmp eq %"class.mojo::InterfaceEndpointClient"* %10, null
  br i1 %11, label %41, label %12

12:                                               ; preds = %8, %2
  %13 = bitcast <2 x float>* %4 to %"class.gfx::PointF"*
  %14 = getelementptr inbounds %"class.pdf::PDFWebContentsHelper", %"class.pdf::PDFWebContentsHelper"* %0, i64 0, i32 14, i32 0
  tail call void @_ZN4mojo8internal17InterfacePtrStateIN3pdf5mojom11PdfListenerEE25ConfigureProxyIfNecessaryEv(%"class.mojo::internal::InterfacePtrState"* %14) #14
  %15 = getelementptr inbounds %"class.pdf::PDFWebContentsHelper", %"class.pdf::PDFWebContentsHelper"* %0, i64 0, i32 14, i32 0, i32 1, i32 0, i32 0, i32 0
  %16 = load %"class.pdf::mojom::PdfListenerProxy"*, %"class.pdf::mojom::PdfListenerProxy"** %15, align 8
  %17 = bitcast <2 x float>* %4 to i8*
  call void @llvm.lifetime.start.p0i8(i64 8, i8* nonnull %17) #14
  %18 = getelementptr inbounds %"class.pdf::PDFWebContentsHelper", %"class.pdf::PDFWebContentsHelper"* %0, i64 0, i32 0
  %19 = tail call %"class.content::WebContents"* @_ZNK7content19WebContentsObserver12web_contentsEv(%"class.content::WebContentsObserver"* %18) #14
  %20 = bitcast %"class.content::WebContents"* %19 to %"class.content::RenderWidgetHostView"* (%"class.content::WebContents"*)***
  %21 = load %"class.content::RenderWidgetHostView"* (%"class.content::WebContents"*)**, %"class.content::RenderWidgetHostView"* (%"class.content::WebContents"*)*** %20, align 8
  %22 = getelementptr inbounds %"class.content::RenderWidgetHostView"* (%"class.content::WebContents"*)*, %"class.content::RenderWidgetHostView"* (%"class.content::WebContents"*)** %21, i64 20
  %23 = load %"class.content::RenderWidgetHostView"* (%"class.content::WebContents"*)*, %"class.content::RenderWidgetHostView"* (%"class.content::WebContents"*)** %22, align 8
  %24 = tail call %"class.content::RenderWidgetHostView"* %23(%"class.content::WebContents"* %19) #14
  %25 = icmp eq %"class.content::RenderWidgetHostView"* %24, null
  br i1 %25, label %36, label %26

26:                                               ; preds = %12
  %27 = bitcast %"class.gfx::PointF"* %3 to i8*
  call void @llvm.lifetime.start.p0i8(i64 8, i8* nonnull %27) #14
  %28 = getelementptr inbounds %"class.gfx::PointF", %"class.gfx::PointF"* %3, i64 0, i32 0
  store float 0.000000e+00, float* %28, align 4
  %29 = getelementptr inbounds %"class.gfx::PointF", %"class.gfx::PointF"* %3, i64 0, i32 1
  store float 0.000000e+00, float* %29, align 4
  %30 = bitcast %"class.content::RenderWidgetHostView"* %24 to <2 x float> (%"class.content::RenderWidgetHostView"*, %"class.gfx::PointF"*)***
  %31 = load <2 x float> (%"class.content::RenderWidgetHostView"*, %"class.gfx::PointF"*)**, <2 x float> (%"class.content::RenderWidgetHostView"*, %"class.gfx::PointF"*)*** %30, align 8
  %32 = getelementptr inbounds <2 x float> (%"class.content::RenderWidgetHostView"*, %"class.gfx::PointF"*)*, <2 x float> (%"class.content::RenderWidgetHostView"*, %"class.gfx::PointF"*)** %31, i64 9
  %33 = load <2 x float> (%"class.content::RenderWidgetHostView"*, %"class.gfx::PointF"*)*, <2 x float> (%"class.content::RenderWidgetHostView"*, %"class.gfx::PointF"*)** %32, align 8
  %34 = call <2 x float> %33(%"class.content::RenderWidgetHostView"* nonnull %24, %"class.gfx::PointF"* nonnull dereferenceable(8) %3) #14
  call void @llvm.lifetime.end.p0i8(i64 8, i8* nonnull %27) #14
  %35 = fsub <2 x float> <float -0.000000e+00, float -0.000000e+00>, %34
  br label %36

36:                                               ; preds = %12, %26
  %37 = phi <2 x float> [ zeroinitializer, %12 ], [ %35, %26 ]
  %38 = bitcast %"class.gfx::PointF"* %1 to <2 x float>*
  %39 = load <2 x float>, <2 x float>* %38, align 4
  %40 = fadd <2 x float> %39, %37
  store <2 x float> %40, <2 x float>* %4, align 8
  call void @_ZN3pdf5mojom16PdfListenerProxy16SetCaretPositionERKN3gfx6PointFE(%"class.pdf::mojom::PdfListenerProxy"* %16, %"class.gfx::PointF"* nonnull dereferenceable(8) %13) #14
  call void @llvm.lifetime.end.p0i8(i64 8, i8* nonnull %17) #14
  br label %41

41:                                               ; preds = %8, %36
  ret void
}

declare void @_ZN3pdf5mojom16PdfListenerProxy16SetCaretPositionERKN3gfx6PointFE(%"class.pdf::mojom::PdfListenerProxy"*, %"class.gfx::PointF"* dereferenceable(8)) unnamed_addr #1

; Function Attrs: nounwind ssp uwtable
define hidden void @_ZThn32_N3pdf20PDFWebContentsHelper9MoveCaretERKN3gfx6PointFE(%"class.pdf::PDFWebContentsHelper"*, %"class.gfx::PointF"* nocapture readonly dereferenceable(8)) unnamed_addr #6 align 2 {
  %3 = alloca %"class.gfx::PointF", align 4
  %4 = alloca <2 x float>, align 8
  %5 = getelementptr inbounds %"class.pdf::PDFWebContentsHelper", %"class.pdf::PDFWebContentsHelper"* %0, i64 -1, i32 14, i32 0, i32 0, i32 2
  %6 = getelementptr inbounds %"class.mojo::ScopedHandleBase", %"class.mojo::ScopedHandleBase"* %5, i64 74, i32 0, i32 0, i32 0
  %7 = load i32, i32* %6, align 4
  %8 = icmp eq i32 %7, 0
  br i1 %8, label %9, label %14

9:                                                ; preds = %2
  %10 = getelementptr inbounds %"class.mojo::ScopedHandleBase", %"class.mojo::ScopedHandleBase"* %5, i64 72
  %11 = bitcast %"class.mojo::ScopedHandleBase"* %10 to %"class.mojo::InterfaceEndpointClient"**
  %12 = load %"class.mojo::InterfaceEndpointClient"*, %"class.mojo::InterfaceEndpointClient"** %11, align 8
  %13 = icmp eq %"class.mojo::InterfaceEndpointClient"* %12, null
  br i1 %13, label %45, label %14

14:                                               ; preds = %9, %2
  %15 = bitcast <2 x float>* %4 to %"class.gfx::PointF"*
  %16 = getelementptr inbounds %"class.mojo::ScopedHandleBase", %"class.mojo::ScopedHandleBase"* %5, i64 70
  %17 = bitcast %"class.mojo::ScopedHandleBase"* %16 to %"class.mojo::internal::InterfacePtrState"*
  tail call void @_ZN4mojo8internal17InterfacePtrStateIN3pdf5mojom11PdfListenerEE25ConfigureProxyIfNecessaryEv(%"class.mojo::internal::InterfacePtrState"* %17) #14
  %18 = getelementptr inbounds %"class.mojo::ScopedHandleBase", %"class.mojo::ScopedHandleBase"* %5, i64 80
  %19 = bitcast %"class.mojo::ScopedHandleBase"* %18 to %"class.pdf::mojom::PdfListenerProxy"**
  %20 = load %"class.pdf::mojom::PdfListenerProxy"*, %"class.pdf::mojom::PdfListenerProxy"** %19, align 8
  %21 = bitcast <2 x float>* %4 to i8*
  call void @llvm.lifetime.start.p0i8(i64 8, i8* nonnull %21) #14
  %22 = bitcast %"class.mojo::ScopedHandleBase"* %5 to %"class.content::WebContentsObserver"*
  %23 = tail call %"class.content::WebContents"* @_ZNK7content19WebContentsObserver12web_contentsEv(%"class.content::WebContentsObserver"* %22) #14
  %24 = bitcast %"class.content::WebContents"* %23 to %"class.content::RenderWidgetHostView"* (%"class.content::WebContents"*)***
  %25 = load %"class.content::RenderWidgetHostView"* (%"class.content::WebContents"*)**, %"class.content::RenderWidgetHostView"* (%"class.content::WebContents"*)*** %24, align 8
  %26 = getelementptr inbounds %"class.content::RenderWidgetHostView"* (%"class.content::WebContents"*)*, %"class.content::RenderWidgetHostView"* (%"class.content::WebContents"*)** %25, i64 20
  %27 = load %"class.content::RenderWidgetHostView"* (%"class.content::WebContents"*)*, %"class.content::RenderWidgetHostView"* (%"class.content::WebContents"*)** %26, align 8
  %28 = tail call %"class.content::RenderWidgetHostView"* %27(%"class.content::WebContents"* %23) #14
  %29 = icmp eq %"class.content::RenderWidgetHostView"* %28, null
  br i1 %29, label %40, label %30

30:                                               ; preds = %14
  %31 = bitcast %"class.gfx::PointF"* %3 to i8*
  call void @llvm.lifetime.start.p0i8(i64 8, i8* nonnull %31) #14
  %32 = getelementptr inbounds %"class.gfx::PointF", %"class.gfx::PointF"* %3, i64 0, i32 0
  store float 0.000000e+00, float* %32, align 4
  %33 = getelementptr inbounds %"class.gfx::PointF", %"class.gfx::PointF"* %3, i64 0, i32 1
  store float 0.000000e+00, float* %33, align 4
  %34 = bitcast %"class.content::RenderWidgetHostView"* %28 to <2 x float> (%"class.content::RenderWidgetHostView"*, %"class.gfx::PointF"*)***
  %35 = load <2 x float> (%"class.content::RenderWidgetHostView"*, %"class.gfx::PointF"*)**, <2 x float> (%"class.content::RenderWidgetHostView"*, %"class.gfx::PointF"*)*** %34, align 8
  %36 = getelementptr inbounds <2 x float> (%"class.content::RenderWidgetHostView"*, %"class.gfx::PointF"*)*, <2 x float> (%"class.content::RenderWidgetHostView"*, %"class.gfx::PointF"*)** %35, i64 9
  %37 = load <2 x float> (%"class.content::RenderWidgetHostView"*, %"class.gfx::PointF"*)*, <2 x float> (%"class.content::RenderWidgetHostView"*, %"class.gfx::PointF"*)** %36, align 8
  %38 = call <2 x float> %37(%"class.content::RenderWidgetHostView"* nonnull %28, %"class.gfx::PointF"* nonnull dereferenceable(8) %3) #14
  call void @llvm.lifetime.end.p0i8(i64 8, i8* nonnull %31) #14
  %39 = fsub <2 x float> <float -0.000000e+00, float -0.000000e+00>, %38
  br label %40

40:                                               ; preds = %30, %14
  %41 = phi <2 x float> [ zeroinitializer, %14 ], [ %39, %30 ]
  %42 = bitcast %"class.gfx::PointF"* %1 to <2 x float>*
  %43 = load <2 x float>, <2 x float>* %42, align 4
  %44 = fadd <2 x float> %43, %41
  store <2 x float> %44, <2 x float>* %4, align 8
  call void @_ZN3pdf5mojom16PdfListenerProxy16SetCaretPositionERKN3gfx6PointFE(%"class.pdf::mojom::PdfListenerProxy"* %20, %"class.gfx::PointF"* nonnull dereferenceable(8) %15) #14
  call void @llvm.lifetime.end.p0i8(i64 8, i8* nonnull %21) #14
  br label %45

45:                                               ; preds = %9, %40
  ret void
}

; Function Attrs: nounwind ssp uwtable
define hidden void @_ZN3pdf20PDFWebContentsHelper24MoveRangeSelectionExtentERKN3gfx6PointFE(%"class.pdf::PDFWebContentsHelper"*, %"class.gfx::PointF"* nocapture readonly dereferenceable(8)) unnamed_addr #6 align 2 {
  %3 = alloca %"class.gfx::PointF", align 4
  %4 = alloca <2 x float>, align 8
  %5 = getelementptr inbounds %"class.pdf::PDFWebContentsHelper", %"class.pdf::PDFWebContentsHelper"* %0, i64 0, i32 14, i32 0, i32 0, i32 2, i32 0, i32 0, i32 0
  %6 = load i32, i32* %5, align 4
  %7 = icmp eq i32 %6, 0
  br i1 %7, label %8, label %12

8:                                                ; preds = %2
  %9 = getelementptr inbounds %"class.pdf::PDFWebContentsHelper", %"class.pdf::PDFWebContentsHelper"* %0, i64 0, i32 14, i32 0, i32 0, i32 1, i32 0, i32 0, i32 0
  %10 = load %"class.mojo::InterfaceEndpointClient"*, %"class.mojo::InterfaceEndpointClient"** %9, align 8
  %11 = icmp eq %"class.mojo::InterfaceEndpointClient"* %10, null
  br i1 %11, label %41, label %12

12:                                               ; preds = %8, %2
  %13 = bitcast <2 x float>* %4 to %"class.gfx::PointF"*
  %14 = getelementptr inbounds %"class.pdf::PDFWebContentsHelper", %"class.pdf::PDFWebContentsHelper"* %0, i64 0, i32 14, i32 0
  tail call void @_ZN4mojo8internal17InterfacePtrStateIN3pdf5mojom11PdfListenerEE25ConfigureProxyIfNecessaryEv(%"class.mojo::internal::InterfacePtrState"* %14) #14
  %15 = getelementptr inbounds %"class.pdf::PDFWebContentsHelper", %"class.pdf::PDFWebContentsHelper"* %0, i64 0, i32 14, i32 0, i32 1, i32 0, i32 0, i32 0
  %16 = load %"class.pdf::mojom::PdfListenerProxy"*, %"class.pdf::mojom::PdfListenerProxy"** %15, align 8
  %17 = bitcast <2 x float>* %4 to i8*
  call void @llvm.lifetime.start.p0i8(i64 8, i8* nonnull %17) #14
  %18 = getelementptr inbounds %"class.pdf::PDFWebContentsHelper", %"class.pdf::PDFWebContentsHelper"* %0, i64 0, i32 0
  %19 = tail call %"class.content::WebContents"* @_ZNK7content19WebContentsObserver12web_contentsEv(%"class.content::WebContentsObserver"* %18) #14
  %20 = bitcast %"class.content::WebContents"* %19 to %"class.content::RenderWidgetHostView"* (%"class.content::WebContents"*)***
  %21 = load %"class.content::RenderWidgetHostView"* (%"class.content::WebContents"*)**, %"class.content::RenderWidgetHostView"* (%"class.content::WebContents"*)*** %20, align 8
  %22 = getelementptr inbounds %"class.content::RenderWidgetHostView"* (%"class.content::WebContents"*)*, %"class.content::RenderWidgetHostView"* (%"class.content::WebContents"*)** %21, i64 20
  %23 = load %"class.content::RenderWidgetHostView"* (%"class.content::WebContents"*)*, %"class.content::RenderWidgetHostView"* (%"class.content::WebContents"*)** %22, align 8
  %24 = tail call %"class.content::RenderWidgetHostView"* %23(%"class.content::WebContents"* %19) #14
  %25 = icmp eq %"class.content::RenderWidgetHostView"* %24, null
  br i1 %25, label %36, label %26

26:                                               ; preds = %12
  %27 = bitcast %"class.gfx::PointF"* %3 to i8*
  call void @llvm.lifetime.start.p0i8(i64 8, i8* nonnull %27) #14
  %28 = getelementptr inbounds %"class.gfx::PointF", %"class.gfx::PointF"* %3, i64 0, i32 0
  store float 0.000000e+00, float* %28, align 4
  %29 = getelementptr inbounds %"class.gfx::PointF", %"class.gfx::PointF"* %3, i64 0, i32 1
  store float 0.000000e+00, float* %29, align 4
  %30 = bitcast %"class.content::RenderWidgetHostView"* %24 to <2 x float> (%"class.content::RenderWidgetHostView"*, %"class.gfx::PointF"*)***
  %31 = load <2 x float> (%"class.content::RenderWidgetHostView"*, %"class.gfx::PointF"*)**, <2 x float> (%"class.content::RenderWidgetHostView"*, %"class.gfx::PointF"*)*** %30, align 8
  %32 = getelementptr inbounds <2 x float> (%"class.content::RenderWidgetHostView"*, %"class.gfx::PointF"*)*, <2 x float> (%"class.content::RenderWidgetHostView"*, %"class.gfx::PointF"*)** %31, i64 9
  %33 = load <2 x float> (%"class.content::RenderWidgetHostView"*, %"class.gfx::PointF"*)*, <2 x float> (%"class.content::RenderWidgetHostView"*, %"class.gfx::PointF"*)** %32, align 8
  %34 = call <2 x float> %33(%"class.content::RenderWidgetHostView"* nonnull %24, %"class.gfx::PointF"* nonnull dereferenceable(8) %3) #14
  call void @llvm.lifetime.end.p0i8(i64 8, i8* nonnull %27) #14
  %35 = fsub <2 x float> <float -0.000000e+00, float -0.000000e+00>, %34
  br label %36

36:                                               ; preds = %12, %26
  %37 = phi <2 x float> [ zeroinitializer, %12 ], [ %35, %26 ]
  %38 = bitcast %"class.gfx::PointF"* %1 to <2 x float>*
  %39 = load <2 x float>, <2 x float>* %38, align 4
  %40 = fadd <2 x float> %39, %37
  store <2 x float> %40, <2 x float>* %4, align 8
  call void @_ZN3pdf5mojom16PdfListenerProxy24MoveRangeSelectionExtentERKN3gfx6PointFE(%"class.pdf::mojom::PdfListenerProxy"* %16, %"class.gfx::PointF"* nonnull dereferenceable(8) %13) #14
  call void @llvm.lifetime.end.p0i8(i64 8, i8* nonnull %17) #14
  br label %41

41:                                               ; preds = %8, %36
  ret void
}

declare void @_ZN3pdf5mojom16PdfListenerProxy24MoveRangeSelectionExtentERKN3gfx6PointFE(%"class.pdf::mojom::PdfListenerProxy"*, %"class.gfx::PointF"* dereferenceable(8)) unnamed_addr #1

; Function Attrs: nounwind ssp uwtable
define hidden void @_ZThn32_N3pdf20PDFWebContentsHelper24MoveRangeSelectionExtentERKN3gfx6PointFE(%"class.pdf::PDFWebContentsHelper"*, %"class.gfx::PointF"* nocapture readonly dereferenceable(8)) unnamed_addr #6 align 2 {
  %3 = alloca %"class.gfx::PointF", align 4
  %4 = alloca <2 x float>, align 8
  %5 = getelementptr inbounds %"class.pdf::PDFWebContentsHelper", %"class.pdf::PDFWebContentsHelper"* %0, i64 -1, i32 14, i32 0, i32 0, i32 2
  %6 = getelementptr inbounds %"class.mojo::ScopedHandleBase", %"class.mojo::ScopedHandleBase"* %5, i64 74, i32 0, i32 0, i32 0
  %7 = load i32, i32* %6, align 4
  %8 = icmp eq i32 %7, 0
  br i1 %8, label %9, label %14

9:                                                ; preds = %2
  %10 = getelementptr inbounds %"class.mojo::ScopedHandleBase", %"class.mojo::ScopedHandleBase"* %5, i64 72
  %11 = bitcast %"class.mojo::ScopedHandleBase"* %10 to %"class.mojo::InterfaceEndpointClient"**
  %12 = load %"class.mojo::InterfaceEndpointClient"*, %"class.mojo::InterfaceEndpointClient"** %11, align 8
  %13 = icmp eq %"class.mojo::InterfaceEndpointClient"* %12, null
  br i1 %13, label %45, label %14

14:                                               ; preds = %9, %2
  %15 = bitcast <2 x float>* %4 to %"class.gfx::PointF"*
  %16 = getelementptr inbounds %"class.mojo::ScopedHandleBase", %"class.mojo::ScopedHandleBase"* %5, i64 70
  %17 = bitcast %"class.mojo::ScopedHandleBase"* %16 to %"class.mojo::internal::InterfacePtrState"*
  tail call void @_ZN4mojo8internal17InterfacePtrStateIN3pdf5mojom11PdfListenerEE25ConfigureProxyIfNecessaryEv(%"class.mojo::internal::InterfacePtrState"* %17) #14
  %18 = getelementptr inbounds %"class.mojo::ScopedHandleBase", %"class.mojo::ScopedHandleBase"* %5, i64 80
  %19 = bitcast %"class.mojo::ScopedHandleBase"* %18 to %"class.pdf::mojom::PdfListenerProxy"**
  %20 = load %"class.pdf::mojom::PdfListenerProxy"*, %"class.pdf::mojom::PdfListenerProxy"** %19, align 8
  %21 = bitcast <2 x float>* %4 to i8*
  call void @llvm.lifetime.start.p0i8(i64 8, i8* nonnull %21) #14
  %22 = bitcast %"class.mojo::ScopedHandleBase"* %5 to %"class.content::WebContentsObserver"*
  %23 = tail call %"class.content::WebContents"* @_ZNK7content19WebContentsObserver12web_contentsEv(%"class.content::WebContentsObserver"* %22) #14
  %24 = bitcast %"class.content::WebContents"* %23 to %"class.content::RenderWidgetHostView"* (%"class.content::WebContents"*)***
  %25 = load %"class.content::RenderWidgetHostView"* (%"class.content::WebContents"*)**, %"class.content::RenderWidgetHostView"* (%"class.content::WebContents"*)*** %24, align 8
  %26 = getelementptr inbounds %"class.content::RenderWidgetHostView"* (%"class.content::WebContents"*)*, %"class.content::RenderWidgetHostView"* (%"class.content::WebContents"*)** %25, i64 20
  %27 = load %"class.content::RenderWidgetHostView"* (%"class.content::WebContents"*)*, %"class.content::RenderWidgetHostView"* (%"class.content::WebContents"*)** %26, align 8
  %28 = tail call %"class.content::RenderWidgetHostView"* %27(%"class.content::WebContents"* %23) #14
  %29 = icmp eq %"class.content::RenderWidgetHostView"* %28, null
  br i1 %29, label %40, label %30

30:                                               ; preds = %14
  %31 = bitcast %"class.gfx::PointF"* %3 to i8*
  call void @llvm.lifetime.start.p0i8(i64 8, i8* nonnull %31) #14
  %32 = getelementptr inbounds %"class.gfx::PointF", %"class.gfx::PointF"* %3, i64 0, i32 0
  store float 0.000000e+00, float* %32, align 4
  %33 = getelementptr inbounds %"class.gfx::PointF", %"class.gfx::PointF"* %3, i64 0, i32 1
  store float 0.000000e+00, float* %33, align 4
  %34 = bitcast %"class.content::RenderWidgetHostView"* %28 to <2 x float> (%"class.content::RenderWidgetHostView"*, %"class.gfx::PointF"*)***
  %35 = load <2 x float> (%"class.content::RenderWidgetHostView"*, %"class.gfx::PointF"*)**, <2 x float> (%"class.content::RenderWidgetHostView"*, %"class.gfx::PointF"*)*** %34, align 8
  %36 = getelementptr inbounds <2 x float> (%"class.content::RenderWidgetHostView"*, %"class.gfx::PointF"*)*, <2 x float> (%"class.content::RenderWidgetHostView"*, %"class.gfx::PointF"*)** %35, i64 9
  %37 = load <2 x float> (%"class.content::RenderWidgetHostView"*, %"class.gfx::PointF"*)*, <2 x float> (%"class.content::RenderWidgetHostView"*, %"class.gfx::PointF"*)** %36, align 8
  %38 = call <2 x float> %37(%"class.content::RenderWidgetHostView"* nonnull %28, %"class.gfx::PointF"* nonnull dereferenceable(8) %3) #14
  call void @llvm.lifetime.end.p0i8(i64 8, i8* nonnull %31) #14
  %39 = fsub <2 x float> <float -0.000000e+00, float -0.000000e+00>, %38
  br label %40

40:                                               ; preds = %30, %14
  %41 = phi <2 x float> [ zeroinitializer, %14 ], [ %39, %30 ]
  %42 = bitcast %"class.gfx::PointF"* %1 to <2 x float>*
  %43 = load <2 x float>, <2 x float>* %42, align 4
  %44 = fadd <2 x float> %43, %41
  store <2 x float> %44, <2 x float>* %4, align 8
  call void @_ZN3pdf5mojom16PdfListenerProxy24MoveRangeSelectionExtentERKN3gfx6PointFE(%"class.pdf::mojom::PdfListenerProxy"* %20, %"class.gfx::PointF"* nonnull dereferenceable(8) %15) #14
  call void @llvm.lifetime.end.p0i8(i64 8, i8* nonnull %21) #14
  br label %45

45:                                               ; preds = %9, %40
  ret void
}

; Function Attrs: nounwind ssp uwtable
define hidden void @_ZN3pdf20PDFWebContentsHelper24SelectBetweenCoordinatesERKN3gfx6PointFES4_(%"class.pdf::PDFWebContentsHelper"*, %"class.gfx::PointF"* nocapture readonly dereferenceable(8), %"class.gfx::PointF"* nocapture readonly dereferenceable(8)) unnamed_addr #6 align 2 {
  %4 = alloca %"class.gfx::PointF", align 4
  %5 = alloca %"class.gfx::PointF", align 4
  %6 = alloca <2 x float>, align 8
  %7 = alloca <2 x float>, align 8
  %8 = getelementptr inbounds %"class.pdf::PDFWebContentsHelper", %"class.pdf::PDFWebContentsHelper"* %0, i64 0, i32 14, i32 0, i32 0, i32 2, i32 0, i32 0, i32 0
  %9 = load i32, i32* %8, align 4
  %10 = icmp eq i32 %9, 0
  br i1 %10, label %11, label %15

11:                                               ; preds = %3
  %12 = getelementptr inbounds %"class.pdf::PDFWebContentsHelper", %"class.pdf::PDFWebContentsHelper"* %0, i64 0, i32 14, i32 0, i32 0, i32 1, i32 0, i32 0, i32 0
  %13 = load %"class.mojo::InterfaceEndpointClient"*, %"class.mojo::InterfaceEndpointClient"** %12, align 8
  %14 = icmp eq %"class.mojo::InterfaceEndpointClient"* %13, null
  br i1 %14, label %68, label %15

15:                                               ; preds = %11, %3
  %16 = bitcast <2 x float>* %7 to %"class.gfx::PointF"*
  %17 = bitcast <2 x float>* %6 to %"class.gfx::PointF"*
  %18 = getelementptr inbounds %"class.pdf::PDFWebContentsHelper", %"class.pdf::PDFWebContentsHelper"* %0, i64 0, i32 14, i32 0
  tail call void @_ZN4mojo8internal17InterfacePtrStateIN3pdf5mojom11PdfListenerEE25ConfigureProxyIfNecessaryEv(%"class.mojo::internal::InterfacePtrState"* %18) #14
  %19 = getelementptr inbounds %"class.pdf::PDFWebContentsHelper", %"class.pdf::PDFWebContentsHelper"* %0, i64 0, i32 14, i32 0, i32 1, i32 0, i32 0, i32 0
  %20 = load %"class.pdf::mojom::PdfListenerProxy"*, %"class.pdf::mojom::PdfListenerProxy"** %19, align 8
  %21 = bitcast <2 x float>* %6 to i8*
  call void @llvm.lifetime.start.p0i8(i64 8, i8* nonnull %21) #14
  %22 = getelementptr inbounds %"class.pdf::PDFWebContentsHelper", %"class.pdf::PDFWebContentsHelper"* %0, i64 0, i32 0
  %23 = tail call %"class.content::WebContents"* @_ZNK7content19WebContentsObserver12web_contentsEv(%"class.content::WebContentsObserver"* %22) #14
  %24 = bitcast %"class.content::WebContents"* %23 to %"class.content::RenderWidgetHostView"* (%"class.content::WebContents"*)***
  %25 = load %"class.content::RenderWidgetHostView"* (%"class.content::WebContents"*)**, %"class.content::RenderWidgetHostView"* (%"class.content::WebContents"*)*** %24, align 8
  %26 = getelementptr inbounds %"class.content::RenderWidgetHostView"* (%"class.content::WebContents"*)*, %"class.content::RenderWidgetHostView"* (%"class.content::WebContents"*)** %25, i64 20
  %27 = load %"class.content::RenderWidgetHostView"* (%"class.content::WebContents"*)*, %"class.content::RenderWidgetHostView"* (%"class.content::WebContents"*)** %26, align 8
  %28 = tail call %"class.content::RenderWidgetHostView"* %27(%"class.content::WebContents"* %23) #14
  %29 = icmp eq %"class.content::RenderWidgetHostView"* %28, null
  br i1 %29, label %40, label %30

30:                                               ; preds = %15
  %31 = bitcast %"class.gfx::PointF"* %4 to i8*
  call void @llvm.lifetime.start.p0i8(i64 8, i8* nonnull %31) #14
  %32 = getelementptr inbounds %"class.gfx::PointF", %"class.gfx::PointF"* %4, i64 0, i32 0
  store float 0.000000e+00, float* %32, align 4
  %33 = getelementptr inbounds %"class.gfx::PointF", %"class.gfx::PointF"* %4, i64 0, i32 1
  store float 0.000000e+00, float* %33, align 4
  %34 = bitcast %"class.content::RenderWidgetHostView"* %28 to <2 x float> (%"class.content::RenderWidgetHostView"*, %"class.gfx::PointF"*)***
  %35 = load <2 x float> (%"class.content::RenderWidgetHostView"*, %"class.gfx::PointF"*)**, <2 x float> (%"class.content::RenderWidgetHostView"*, %"class.gfx::PointF"*)*** %34, align 8
  %36 = getelementptr inbounds <2 x float> (%"class.content::RenderWidgetHostView"*, %"class.gfx::PointF"*)*, <2 x float> (%"class.content::RenderWidgetHostView"*, %"class.gfx::PointF"*)** %35, i64 9
  %37 = load <2 x float> (%"class.content::RenderWidgetHostView"*, %"class.gfx::PointF"*)*, <2 x float> (%"class.content::RenderWidgetHostView"*, %"class.gfx::PointF"*)** %36, align 8
  %38 = call <2 x float> %37(%"class.content::RenderWidgetHostView"* nonnull %28, %"class.gfx::PointF"* nonnull dereferenceable(8) %4) #14
  call void @llvm.lifetime.end.p0i8(i64 8, i8* nonnull %31) #14
  %39 = fsub <2 x float> <float -0.000000e+00, float -0.000000e+00>, %38
  br label %40

40:                                               ; preds = %15, %30
  %41 = phi <2 x float> [ zeroinitializer, %15 ], [ %39, %30 ]
  %42 = bitcast %"class.gfx::PointF"* %1 to <2 x float>*
  %43 = load <2 x float>, <2 x float>* %42, align 4
  %44 = fadd <2 x float> %43, %41
  store <2 x float> %44, <2 x float>* %6, align 8
  %45 = bitcast <2 x float>* %7 to i8*
  call void @llvm.lifetime.start.p0i8(i64 8, i8* nonnull %45) #14
  %46 = call %"class.content::WebContents"* @_ZNK7content19WebContentsObserver12web_contentsEv(%"class.content::WebContentsObserver"* %22) #14
  %47 = bitcast %"class.content::WebContents"* %46 to %"class.content::RenderWidgetHostView"* (%"class.content::WebContents"*)***
  %48 = load %"class.content::RenderWidgetHostView"* (%"class.content::WebContents"*)**, %"class.content::RenderWidgetHostView"* (%"class.content::WebContents"*)*** %47, align 8
  %49 = getelementptr inbounds %"class.content::RenderWidgetHostView"* (%"class.content::WebContents"*)*, %"class.content::RenderWidgetHostView"* (%"class.content::WebContents"*)** %48, i64 20
  %50 = load %"class.content::RenderWidgetHostView"* (%"class.content::WebContents"*)*, %"class.content::RenderWidgetHostView"* (%"class.content::WebContents"*)** %49, align 8
  %51 = call %"class.content::RenderWidgetHostView"* %50(%"class.content::WebContents"* %46) #14
  %52 = icmp eq %"class.content::RenderWidgetHostView"* %51, null
  br i1 %52, label %63, label %53

53:                                               ; preds = %40
  %54 = bitcast %"class.gfx::PointF"* %5 to i8*
  call void @llvm.lifetime.start.p0i8(i64 8, i8* nonnull %54) #14
  %55 = getelementptr inbounds %"class.gfx::PointF", %"class.gfx::PointF"* %5, i64 0, i32 0
  store float 0.000000e+00, float* %55, align 4
  %56 = getelementptr inbounds %"class.gfx::PointF", %"class.gfx::PointF"* %5, i64 0, i32 1
  store float 0.000000e+00, float* %56, align 4
  %57 = bitcast %"class.content::RenderWidgetHostView"* %51 to <2 x float> (%"class.content::RenderWidgetHostView"*, %"class.gfx::PointF"*)***
  %58 = load <2 x float> (%"class.content::RenderWidgetHostView"*, %"class.gfx::PointF"*)**, <2 x float> (%"class.content::RenderWidgetHostView"*, %"class.gfx::PointF"*)*** %57, align 8
  %59 = getelementptr inbounds <2 x float> (%"class.content::RenderWidgetHostView"*, %"class.gfx::PointF"*)*, <2 x float> (%"class.content::RenderWidgetHostView"*, %"class.gfx::PointF"*)** %58, i64 9
  %60 = load <2 x float> (%"class.content::RenderWidgetHostView"*, %"class.gfx::PointF"*)*, <2 x float> (%"class.content::RenderWidgetHostView"*, %"class.gfx::PointF"*)** %59, align 8
  %61 = call <2 x float> %60(%"class.content::RenderWidgetHostView"* nonnull %51, %"class.gfx::PointF"* nonnull dereferenceable(8) %5) #14
  call void @llvm.lifetime.end.p0i8(i64 8, i8* nonnull %54) #14
  %62 = fsub <2 x float> <float -0.000000e+00, float -0.000000e+00>, %61
  br label %63

63:                                               ; preds = %40, %53
  %64 = phi <2 x float> [ zeroinitializer, %40 ], [ %62, %53 ]
  %65 = bitcast %"class.gfx::PointF"* %2 to <2 x float>*
  %66 = load <2 x float>, <2 x float>* %65, align 4
  %67 = fadd <2 x float> %66, %64
  store <2 x float> %67, <2 x float>* %7, align 8
  call void @_ZN3pdf5mojom16PdfListenerProxy18SetSelectionBoundsERKN3gfx6PointFES5_(%"class.pdf::mojom::PdfListenerProxy"* %20, %"class.gfx::PointF"* nonnull dereferenceable(8) %17, %"class.gfx::PointF"* nonnull dereferenceable(8) %16) #14
  call void @llvm.lifetime.end.p0i8(i64 8, i8* nonnull %45) #14
  call void @llvm.lifetime.end.p0i8(i64 8, i8* nonnull %21) #14
  br label %68

68:                                               ; preds = %11, %63
  ret void
}

declare void @_ZN3pdf5mojom16PdfListenerProxy18SetSelectionBoundsERKN3gfx6PointFES5_(%"class.pdf::mojom::PdfListenerProxy"*, %"class.gfx::PointF"* dereferenceable(8), %"class.gfx::PointF"* dereferenceable(8)) unnamed_addr #1

; Function Attrs: nounwind ssp uwtable
define hidden void @_ZThn32_N3pdf20PDFWebContentsHelper24SelectBetweenCoordinatesERKN3gfx6PointFES4_(%"class.pdf::PDFWebContentsHelper"*, %"class.gfx::PointF"* nocapture readonly dereferenceable(8), %"class.gfx::PointF"* nocapture readonly dereferenceable(8)) unnamed_addr #0 align 2 {
  %4 = getelementptr inbounds %"class.pdf::PDFWebContentsHelper", %"class.pdf::PDFWebContentsHelper"* %0, i64 -1, i32 14, i32 0, i32 0, i32 2
  %5 = bitcast %"class.mojo::ScopedHandleBase"* %4 to %"class.pdf::PDFWebContentsHelper"*
  tail call void @_ZN3pdf20PDFWebContentsHelper24SelectBetweenCoordinatesERKN3gfx6PointFES4_(%"class.pdf::PDFWebContentsHelper"* %5, %"class.gfx::PointF"* dereferenceable(8) %1, %"class.gfx::PointF"* dereferenceable(8) %2)
  ret void
}

; Function Attrs: norecurse nounwind readnone ssp uwtable
define hidden void @_ZN3pdf20PDFWebContentsHelper16OnSelectionEventEN2ui18SelectionEventTypeE(%"class.pdf::PDFWebContentsHelper"* nocapture, i32) unnamed_addr #7 align 2 {
  ret void
}

; Function Attrs: norecurse nounwind readnone ssp uwtable
define hidden void @_ZThn32_N3pdf20PDFWebContentsHelper16OnSelectionEventEN2ui18SelectionEventTypeE(%"class.pdf::PDFWebContentsHelper"* nocapture, i32) unnamed_addr #7 align 2 {
  ret void
}

; Function Attrs: norecurse nounwind readnone ssp uwtable
define hidden void @_ZN3pdf20PDFWebContentsHelper12OnDragUpdateEN2ui23TouchSelectionDraggable4TypeERKN3gfx6PointFE(%"class.pdf::PDFWebContentsHelper"* nocapture, i32, %"class.gfx::PointF"* nocapture dereferenceable(8)) unnamed_addr #7 align 2 {
  ret void
}

; Function Attrs: norecurse nounwind readnone ssp uwtable
define hidden void @_ZThn32_N3pdf20PDFWebContentsHelper12OnDragUpdateEN2ui23TouchSelectionDraggable4TypeERKN3gfx6PointFE(%"class.pdf::PDFWebContentsHelper"* nocapture, i32, %"class.gfx::PointF"* nocapture dereferenceable(8)) unnamed_addr #7 align 2 {
  ret void
}

; Function Attrs: norecurse nounwind readnone ssp uwtable
define hidden %"class.ui::TouchHandleDrawable"* @_ZN3pdf20PDFWebContentsHelper14CreateDrawableEv(%"class.pdf::PDFWebContentsHelper"* nocapture readnone) unnamed_addr #7 align 2 {
  ret %"class.ui::TouchHandleDrawable"* null
}

; Function Attrs: norecurse nounwind readnone ssp uwtable
define hidden noalias %"class.ui::TouchHandleDrawable"* @_ZThn32_N3pdf20PDFWebContentsHelper14CreateDrawableEv(%"class.pdf::PDFWebContentsHelper"* nocapture readnone) unnamed_addr #7 align 2 {
  ret %"class.ui::TouchHandleDrawable"* null
}

; Function Attrs: nounwind ssp uwtable
define hidden void @_ZN3pdf20PDFWebContentsHelper20OnManagerWillDestroyEPN7content37TouchSelectionControllerClientManagerE(%"class.pdf::PDFWebContentsHelper"*, %"class.content::TouchSelectionControllerClientManager"*) unnamed_addr #0 align 2 {
  %3 = getelementptr inbounds %"class.pdf::PDFWebContentsHelper", %"class.pdf::PDFWebContentsHelper"* %0, i64 0, i32 5
  %4 = bitcast %"class.content::TouchSelectionControllerClientManager"* %1 to void (%"class.content::TouchSelectionControllerClientManager"*, %"class.content::TouchSelectionControllerClientManager::Observer"*)***
  %5 = load void (%"class.content::TouchSelectionControllerClientManager"*, %"class.content::TouchSelectionControllerClientManager::Observer"*)**, void (%"class.content::TouchSelectionControllerClientManager"*, %"class.content::TouchSelectionControllerClientManager::Observer"*)*** %4, align 8
  %6 = getelementptr inbounds void (%"class.content::TouchSelectionControllerClientManager"*, %"class.content::TouchSelectionControllerClientManager::Observer"*)*, void (%"class.content::TouchSelectionControllerClientManager"*, %"class.content::TouchSelectionControllerClientManager::Observer"*)** %5, i64 7
  %7 = load void (%"class.content::TouchSelectionControllerClientManager"*, %"class.content::TouchSelectionControllerClientManager::Observer"*)*, void (%"class.content::TouchSelectionControllerClientManager"*, %"class.content::TouchSelectionControllerClientManager::Observer"*)** %6, align 8
  tail call void %7(%"class.content::TouchSelectionControllerClientManager"* %1, %"class.content::TouchSelectionControllerClientManager::Observer"* %3) #14
  %8 = getelementptr inbounds %"class.pdf::PDFWebContentsHelper", %"class.pdf::PDFWebContentsHelper"* %0, i64 0, i32 8
  store %"class.content::TouchSelectionControllerClientManager"* null, %"class.content::TouchSelectionControllerClientManager"** %8, align 8
  ret void
}

; Function Attrs: nounwind ssp uwtable
define hidden void @_ZThn48_N3pdf20PDFWebContentsHelper20OnManagerWillDestroyEPN7content37TouchSelectionControllerClientManagerE(%"class.pdf::PDFWebContentsHelper"*, %"class.content::TouchSelectionControllerClientManager"*) unnamed_addr #0 align 2 {
  %3 = getelementptr inbounds %"class.pdf::PDFWebContentsHelper", %"class.pdf::PDFWebContentsHelper"* %0, i64 -1, i32 14
  %4 = getelementptr inbounds %"class.mojo::Remote", %"class.mojo::Remote"* %3, i64 1
  %5 = bitcast %"class.mojo::Remote"* %4 to %"class.content::TouchSelectionControllerClientManager::Observer"*
  %6 = bitcast %"class.content::TouchSelectionControllerClientManager"* %1 to void (%"class.content::TouchSelectionControllerClientManager"*, %"class.content::TouchSelectionControllerClientManager::Observer"*)***
  %7 = load void (%"class.content::TouchSelectionControllerClientManager"*, %"class.content::TouchSelectionControllerClientManager::Observer"*)**, void (%"class.content::TouchSelectionControllerClientManager"*, %"class.content::TouchSelectionControllerClientManager::Observer"*)*** %6, align 8
  %8 = getelementptr inbounds void (%"class.content::TouchSelectionControllerClientManager"*, %"class.content::TouchSelectionControllerClientManager::Observer"*)*, void (%"class.content::TouchSelectionControllerClientManager"*, %"class.content::TouchSelectionControllerClientManager::Observer"*)** %7, i64 7
  %9 = load void (%"class.content::TouchSelectionControllerClientManager"*, %"class.content::TouchSelectionControllerClientManager::Observer"*)*, void (%"class.content::TouchSelectionControllerClientManager"*, %"class.content::TouchSelectionControllerClientManager::Observer"*)** %8, align 8
  tail call void %9(%"class.content::TouchSelectionControllerClientManager"* %1, %"class.content::TouchSelectionControllerClientManager::Observer"* %5) #14
  %10 = getelementptr inbounds %"class.mojo::Remote", %"class.mojo::Remote"* %3, i64 5
  %11 = bitcast %"class.mojo::Remote"* %10 to %"class.content::TouchSelectionControllerClientManager"**
  store %"class.content::TouchSelectionControllerClientManager"* null, %"class.content::TouchSelectionControllerClientManager"** %11, align 8
  ret void
}

; Function Attrs: norecurse nounwind readonly ssp uwtable
define hidden zeroext i1 @_ZNK3pdf20PDFWebContentsHelper18IsCommandIdEnabledEi(%"class.pdf::PDFWebContentsHelper"* nocapture readonly, i32) unnamed_addr #8 align 2 {
  %3 = icmp eq i32 %1, 2
  br i1 %3, label %4, label %8

4:                                                ; preds = %2
  %5 = getelementptr inbounds %"class.pdf::PDFWebContentsHelper", %"class.pdf::PDFWebContentsHelper"* %0, i64 0, i32 13
  %6 = load i8, i8* %5, align 8, !range !2
  %7 = icmp ne i8 %6, 0
  br label %8

8:                                                ; preds = %2, %4
  %9 = phi i1 [ %7, %4 ], [ false, %2 ]
  ret i1 %9
}

; Function Attrs: norecurse nounwind readonly ssp uwtable
define hidden zeroext i1 @_ZThn40_NK3pdf20PDFWebContentsHelper18IsCommandIdEnabledEi(%"class.pdf::PDFWebContentsHelper"* nocapture readonly, i32) unnamed_addr #8 align 2 {
  %3 = icmp eq i32 %1, 2
  br i1 %3, label %4, label %10

4:                                                ; preds = %2
  %5 = getelementptr inbounds %"class.pdf::PDFWebContentsHelper", %"class.pdf::PDFWebContentsHelper"* %0, i64 -1, i32 14, i32 0, i32 0, i32 1
  %6 = getelementptr inbounds %"class.std::__1::unique_ptr.162", %"class.std::__1::unique_ptr.162"* %5, i64 34
  %7 = bitcast %"class.std::__1::unique_ptr.162"* %6 to i8*
  %8 = load i8, i8* %7, align 8, !range !2
  %9 = icmp ne i8 %8, 0
  br label %10

10:                                               ; preds = %2, %4
  %11 = phi i1 [ %9, %4 ], [ false, %2 ]
  ret i1 %11
}

; Function Attrs: nounwind ssp uwtable
define hidden void @_ZN3pdf20PDFWebContentsHelper14ExecuteCommandEii(%"class.pdf::PDFWebContentsHelper"*, i32, i32) unnamed_addr #0 align 2 {
  %4 = icmp eq i32 %1, 2
  br i1 %4, label %5, label %12

5:                                                ; preds = %3
  %6 = getelementptr inbounds %"class.pdf::PDFWebContentsHelper", %"class.pdf::PDFWebContentsHelper"* %0, i64 0, i32 0
  %7 = tail call %"class.content::WebContents"* @_ZNK7content19WebContentsObserver12web_contentsEv(%"class.content::WebContentsObserver"* %6) #14
  %8 = bitcast %"class.content::WebContents"* %7 to void (%"class.content::WebContents"*)***
  %9 = load void (%"class.content::WebContents"*)**, void (%"class.content::WebContents"*)*** %8, align 8
  %10 = getelementptr inbounds void (%"class.content::WebContents"*)*, void (%"class.content::WebContents"*)** %9, i64 97
  %11 = load void (%"class.content::WebContents"*)*, void (%"class.content::WebContents"*)** %10, align 8
  tail call void %11(%"class.content::WebContents"* %7) #14
  br label %12

12:                                               ; preds = %3, %5
  ret void
}

; Function Attrs: nounwind ssp uwtable
define hidden void @_ZThn40_N3pdf20PDFWebContentsHelper14ExecuteCommandEii(%"class.pdf::PDFWebContentsHelper"*, i32, i32) unnamed_addr #0 align 2 {
  %4 = icmp eq i32 %1, 2
  br i1 %4, label %5, label %13

5:                                                ; preds = %3
  %6 = getelementptr inbounds %"class.pdf::PDFWebContentsHelper", %"class.pdf::PDFWebContentsHelper"* %0, i64 -1, i32 14, i32 0, i32 0, i32 1
  %7 = bitcast %"class.std::__1::unique_ptr.162"* %6 to %"class.content::WebContentsObserver"*
  %8 = tail call %"class.content::WebContents"* @_ZNK7content19WebContentsObserver12web_contentsEv(%"class.content::WebContentsObserver"* %7) #14
  %9 = bitcast %"class.content::WebContents"* %8 to void (%"class.content::WebContents"*)***
  %10 = load void (%"class.content::WebContents"*)**, void (%"class.content::WebContents"*)*** %9, align 8
  %11 = getelementptr inbounds void (%"class.content::WebContents"*)*, void (%"class.content::WebContents"*)** %10, i64 97
  %12 = load void (%"class.content::WebContents"*)*, void (%"class.content::WebContents"*)** %11, align 8
  tail call void %12(%"class.content::WebContents"* %8) #14
  br label %13

13:                                               ; preds = %3, %5
  ret void
}

; Function Attrs: nounwind ssp uwtable
define hidden void @_ZN3pdf20PDFWebContentsHelper14RunContextMenuEv(%"class.pdf::PDFWebContentsHelper"*) unnamed_addr #6 align 2 {
  %2 = alloca { <2 x float>, <2 x float> }, align 8
  %3 = bitcast { <2 x float>, <2 x float> }* %2 to %"class.gfx::RectF"*
  %4 = alloca %"class.gfx::PointF", align 4
  %5 = alloca %"class.gfx::PointF", align 4
  %6 = alloca i64, align 8
  %7 = bitcast i64* %6 to %"class.gfx::Point"*
  %8 = getelementptr inbounds %"class.pdf::PDFWebContentsHelper", %"class.pdf::PDFWebContentsHelper"* %0, i64 0, i32 0
  %9 = tail call %"class.content::WebContents"* @_ZNK7content19WebContentsObserver12web_contentsEv(%"class.content::WebContentsObserver"* %8) #14
  %10 = bitcast %"class.content::WebContents"* %9 to %"class.content::RenderWidgetHostView"* (%"class.content::WebContents"*)***
  %11 = load %"class.content::RenderWidgetHostView"* (%"class.content::WebContents"*)**, %"class.content::RenderWidgetHostView"* (%"class.content::WebContents"*)*** %10, align 8
  %12 = getelementptr inbounds %"class.content::RenderWidgetHostView"* (%"class.content::WebContents"*)*, %"class.content::RenderWidgetHostView"* (%"class.content::WebContents"*)** %11, i64 20
  %13 = load %"class.content::RenderWidgetHostView"* (%"class.content::WebContents"*)*, %"class.content::RenderWidgetHostView"* (%"class.content::WebContents"*)** %12, align 8
  %14 = tail call %"class.content::RenderWidgetHostView"* %13(%"class.content::WebContents"* %9) #14
  %15 = icmp eq %"class.content::RenderWidgetHostView"* %14, null
  br i1 %15, label %90, label %16

16:                                               ; preds = %1
  %17 = getelementptr inbounds %"class.pdf::PDFWebContentsHelper", %"class.pdf::PDFWebContentsHelper"* %0, i64 0, i32 8
  %18 = load %"class.content::TouchSelectionControllerClientManager"*, %"class.content::TouchSelectionControllerClientManager"** %17, align 8
  %19 = icmp eq %"class.content::TouchSelectionControllerClientManager"* %18, null
  br i1 %19, label %20, label %44

20:                                               ; preds = %16
  %21 = tail call %"class.content::WebContents"* @_ZNK7content19WebContentsObserver12web_contentsEv(%"class.content::WebContentsObserver"* %8) #14
  %22 = bitcast %"class.content::WebContents"* %21 to %"class.content::RenderWidgetHostView"* (%"class.content::WebContents"*)***
  %23 = load %"class.content::RenderWidgetHostView"* (%"class.content::WebContents"*)**, %"class.content::RenderWidgetHostView"* (%"class.content::WebContents"*)*** %22, align 8
  %24 = getelementptr inbounds %"class.content::RenderWidgetHostView"* (%"class.content::WebContents"*)*, %"class.content::RenderWidgetHostView"* (%"class.content::WebContents"*)** %23, i64 20
  %25 = load %"class.content::RenderWidgetHostView"* (%"class.content::WebContents"*)*, %"class.content::RenderWidgetHostView"* (%"class.content::WebContents"*)** %24, align 8
  %26 = tail call %"class.content::RenderWidgetHostView"* %25(%"class.content::WebContents"* %21) #14
  %27 = icmp eq %"class.content::RenderWidgetHostView"* %26, null
  br i1 %27, label %41, label %28

28:                                               ; preds = %20
  %29 = bitcast %"class.content::RenderWidgetHostView"* %26 to %"class.content::TouchSelectionControllerClientManager"* (%"class.content::RenderWidgetHostView"*)***
  %30 = load %"class.content::TouchSelectionControllerClientManager"* (%"class.content::RenderWidgetHostView"*)**, %"class.content::TouchSelectionControllerClientManager"* (%"class.content::RenderWidgetHostView"*)*** %29, align 8
  %31 = getelementptr inbounds %"class.content::TouchSelectionControllerClientManager"* (%"class.content::RenderWidgetHostView"*)*, %"class.content::TouchSelectionControllerClientManager"* (%"class.content::RenderWidgetHostView"*)** %30, i64 23
  %32 = load %"class.content::TouchSelectionControllerClientManager"* (%"class.content::RenderWidgetHostView"*)*, %"class.content::TouchSelectionControllerClientManager"* (%"class.content::RenderWidgetHostView"*)** %31, align 8
  %33 = tail call %"class.content::TouchSelectionControllerClientManager"* %32(%"class.content::RenderWidgetHostView"* nonnull %26) #14
  store %"class.content::TouchSelectionControllerClientManager"* %33, %"class.content::TouchSelectionControllerClientManager"** %17, align 8
  %34 = icmp eq %"class.content::TouchSelectionControllerClientManager"* %33, null
  br i1 %34, label %90, label %35

35:                                               ; preds = %28
  %36 = getelementptr inbounds %"class.pdf::PDFWebContentsHelper", %"class.pdf::PDFWebContentsHelper"* %0, i64 0, i32 5
  %37 = bitcast %"class.content::TouchSelectionControllerClientManager"* %33 to void (%"class.content::TouchSelectionControllerClientManager"*, %"class.content::TouchSelectionControllerClientManager::Observer"*)***
  %38 = load void (%"class.content::TouchSelectionControllerClientManager"*, %"class.content::TouchSelectionControllerClientManager::Observer"*)**, void (%"class.content::TouchSelectionControllerClientManager"*, %"class.content::TouchSelectionControllerClientManager::Observer"*)*** %37, align 8
  %39 = getelementptr inbounds void (%"class.content::TouchSelectionControllerClientManager"*, %"class.content::TouchSelectionControllerClientManager::Observer"*)*, void (%"class.content::TouchSelectionControllerClientManager"*, %"class.content::TouchSelectionControllerClientManager::Observer"*)** %38, i64 6
  %40 = load void (%"class.content::TouchSelectionControllerClientManager"*, %"class.content::TouchSelectionControllerClientManager::Observer"*)*, void (%"class.content::TouchSelectionControllerClientManager"*, %"class.content::TouchSelectionControllerClientManager::Observer"*)** %39, align 8
  tail call void %40(%"class.content::TouchSelectionControllerClientManager"* nonnull %33, %"class.content::TouchSelectionControllerClientManager::Observer"* %36) #14
  br label %41

41:                                               ; preds = %35, %20
  %42 = load %"class.content::TouchSelectionControllerClientManager"*, %"class.content::TouchSelectionControllerClientManager"** %17, align 8
  %43 = icmp eq %"class.content::TouchSelectionControllerClientManager"* %42, null
  br i1 %43, label %90, label %44

44:                                               ; preds = %16, %41
  %45 = phi %"class.content::TouchSelectionControllerClientManager"* [ %42, %41 ], [ %18, %16 ]
  %46 = bitcast %"class.content::TouchSelectionControllerClientManager"* %45 to %"class.ui::TouchSelectionController"* (%"class.content::TouchSelectionControllerClientManager"*)***
  %47 = load %"class.ui::TouchSelectionController"* (%"class.content::TouchSelectionControllerClientManager"*)**, %"class.ui::TouchSelectionController"* (%"class.content::TouchSelectionControllerClientManager"*)*** %46, align 8
  %48 = getelementptr inbounds %"class.ui::TouchSelectionController"* (%"class.content::TouchSelectionControllerClientManager"*)*, %"class.ui::TouchSelectionController"* (%"class.content::TouchSelectionControllerClientManager"*)** %47, i64 5
  %49 = load %"class.ui::TouchSelectionController"* (%"class.content::TouchSelectionControllerClientManager"*)*, %"class.ui::TouchSelectionController"* (%"class.content::TouchSelectionControllerClientManager"*)** %48, align 8
  %50 = tail call %"class.ui::TouchSelectionController"* %49(%"class.content::TouchSelectionControllerClientManager"* nonnull %45) #14
  %51 = bitcast { <2 x float>, <2 x float> }* %2 to i8*
  call void @llvm.lifetime.start.p0i8(i64 16, i8* nonnull %51) #14
  %52 = getelementptr inbounds %"class.gfx::RectF", %"class.gfx::RectF"* %3, i64 0, i32 0, i32 1
  %53 = tail call { <2 x float>, <2 x float> } @_ZNK2ui24TouchSelectionController27GetVisibleRectBetweenBoundsEv(%"class.ui::TouchSelectionController"* %50) #14
  %54 = getelementptr inbounds { <2 x float>, <2 x float> }, { <2 x float>, <2 x float> }* %2, i64 0, i32 0
  %55 = extractvalue { <2 x float>, <2 x float> } %53, 0
  store <2 x float> %55, <2 x float>* %54, align 8
  %56 = getelementptr inbounds { <2 x float>, <2 x float> }, { <2 x float>, <2 x float> }* %2, i64 0, i32 1
  %57 = extractvalue { <2 x float>, <2 x float> } %53, 1
  store <2 x float> %57, <2 x float>* %56, align 8
  %58 = bitcast %"class.gfx::PointF"* %4 to i8*
  call void @llvm.lifetime.start.p0i8(i64 8, i8* nonnull %58) #14
  %59 = getelementptr inbounds %"class.gfx::PointF", %"class.gfx::PointF"* %4, i64 0, i32 0
  %60 = getelementptr inbounds %"class.gfx::PointF", %"class.gfx::PointF"* %4, i64 0, i32 1
  %61 = call <2 x float> @_ZNK3gfx5RectF11CenterPointEv(%"class.gfx::RectF"* nonnull %3) #14
  %62 = extractelement <2 x float> %61, i32 0
  %63 = bitcast float* %52 to i32*
  %64 = load i32, i32* %63, align 4
  store float %62, float* %59, align 4
  %65 = bitcast float* %60 to i32*
  store i32 %64, i32* %65, align 4
  %66 = bitcast %"class.gfx::PointF"* %5 to i8*
  call void @llvm.lifetime.start.p0i8(i64 8, i8* nonnull %66) #14
  %67 = getelementptr inbounds %"class.gfx::PointF", %"class.gfx::PointF"* %5, i64 0, i32 0
  store float 0.000000e+00, float* %67, align 4
  %68 = getelementptr inbounds %"class.gfx::PointF", %"class.gfx::PointF"* %5, i64 0, i32 1
  store float 0.000000e+00, float* %68, align 4
  %69 = bitcast %"class.content::RenderWidgetHostView"* %14 to <2 x float> (%"class.content::RenderWidgetHostView"*, %"class.gfx::PointF"*)***
  %70 = load <2 x float> (%"class.content::RenderWidgetHostView"*, %"class.gfx::PointF"*)**, <2 x float> (%"class.content::RenderWidgetHostView"*, %"class.gfx::PointF"*)*** %69, align 8
  %71 = getelementptr inbounds <2 x float> (%"class.content::RenderWidgetHostView"*, %"class.gfx::PointF"*)*, <2 x float> (%"class.content::RenderWidgetHostView"*, %"class.gfx::PointF"*)** %70, i64 9
  %72 = load <2 x float> (%"class.content::RenderWidgetHostView"*, %"class.gfx::PointF"*)*, <2 x float> (%"class.content::RenderWidgetHostView"*, %"class.gfx::PointF"*)** %71, align 8
  %73 = call <2 x float> %72(%"class.content::RenderWidgetHostView"* nonnull %14, %"class.gfx::PointF"* nonnull dereferenceable(8) %5) #14
  call void @llvm.lifetime.end.p0i8(i64 8, i8* nonnull %66) #14
  %74 = extractelement <2 x float> %73, i32 0
  %75 = extractelement <2 x float> %73, i32 1
  %76 = fsub float %62, %74
  store float %76, float* %59, align 4
  %77 = bitcast i32 %64 to float
  %78 = fsub float %77, %75
  store float %78, float* %60, align 4
  %79 = bitcast %"class.content::RenderWidgetHostView"* %14 to %"class.content::RenderWidgetHost"* (%"class.content::RenderWidgetHostView"*)***
  %80 = load %"class.content::RenderWidgetHost"* (%"class.content::RenderWidgetHostView"*)**, %"class.content::RenderWidgetHost"* (%"class.content::RenderWidgetHostView"*)*** %79, align 8
  %81 = getelementptr inbounds %"class.content::RenderWidgetHost"* (%"class.content::RenderWidgetHostView"*)*, %"class.content::RenderWidgetHost"* (%"class.content::RenderWidgetHostView"*)** %80, i64 3
  %82 = load %"class.content::RenderWidgetHost"* (%"class.content::RenderWidgetHostView"*)*, %"class.content::RenderWidgetHost"* (%"class.content::RenderWidgetHostView"*)** %81, align 8
  %83 = call %"class.content::RenderWidgetHost"* %82(%"class.content::RenderWidgetHostView"* nonnull %14) #14
  %84 = bitcast i64* %6 to i8*
  call void @llvm.lifetime.start.p0i8(i64 8, i8* nonnull %84) #14
  %85 = call i64 @_ZN3gfx14ToRoundedPointERKNS_6PointFE(%"class.gfx::PointF"* nonnull dereferenceable(8) %4) #14
  store i64 %85, i64* %6, align 8
  %86 = bitcast %"class.content::RenderWidgetHost"* %83 to void (%"class.content::RenderWidgetHost"*, %"class.gfx::Point"*, i32)***
  %87 = load void (%"class.content::RenderWidgetHost"*, %"class.gfx::Point"*, i32)**, void (%"class.content::RenderWidgetHost"*, %"class.gfx::Point"*, i32)*** %86, align 8
  %88 = getelementptr inbounds void (%"class.content::RenderWidgetHost"*, %"class.gfx::Point"*, i32)*, void (%"class.content::RenderWidgetHost"*, %"class.gfx::Point"*, i32)** %87, i64 40
  %89 = load void (%"class.content::RenderWidgetHost"*, %"class.gfx::Point"*, i32)*, void (%"class.content::RenderWidgetHost"*, %"class.gfx::Point"*, i32)** %88, align 8
  call void %89(%"class.content::RenderWidgetHost"* %83, %"class.gfx::Point"* nonnull dereferenceable(8) %7, i32 4) #14
  call void @llvm.lifetime.end.p0i8(i64 8, i8* nonnull %84) #14
  call void @_ZN2ui24TouchSelectionController35HideAndDisallowShowingAutomaticallyEv(%"class.ui::TouchSelectionController"* %50) #14
  call void @llvm.lifetime.end.p0i8(i64 8, i8* nonnull %58) #14
  call void @llvm.lifetime.end.p0i8(i64 16, i8* nonnull %51) #14
  br label %90

90:                                               ; preds = %28, %41, %1, %44
  ret void
}

declare { <2 x float>, <2 x float> } @_ZNK2ui24TouchSelectionController27GetVisibleRectBetweenBoundsEv(%"class.ui::TouchSelectionController"*) local_unnamed_addr #1

declare <2 x float> @_ZNK3gfx5RectF11CenterPointEv(%"class.gfx::RectF"*) local_unnamed_addr #1

declare i64 @_ZN3gfx14ToRoundedPointERKNS_6PointFE(%"class.gfx::PointF"* dereferenceable(8)) local_unnamed_addr #1

; Function Attrs: nounwind ssp uwtable
define hidden void @_ZThn40_N3pdf20PDFWebContentsHelper14RunContextMenuEv(%"class.pdf::PDFWebContentsHelper"*) unnamed_addr #0 align 2 {
  %2 = getelementptr inbounds %"class.pdf::PDFWebContentsHelper", %"class.pdf::PDFWebContentsHelper"* %0, i64 -1, i32 14, i32 0, i32 0, i32 1
  %3 = bitcast %"class.std::__1::unique_ptr.162"* %2 to %"class.pdf::PDFWebContentsHelper"*
  tail call void @_ZN3pdf20PDFWebContentsHelper14RunContextMenuEv(%"class.pdf::PDFWebContentsHelper"* %3)
  ret void
}

; Function Attrs: norecurse nounwind readnone ssp uwtable
define hidden zeroext i1 @_ZN3pdf20PDFWebContentsHelper19ShouldShowQuickMenuEv(%"class.pdf::PDFWebContentsHelper"* nocapture readnone) unnamed_addr #7 align 2 {
  ret i1 false
}

; Function Attrs: norecurse nounwind readnone ssp uwtable
define hidden zeroext i1 @_ZThn40_N3pdf20PDFWebContentsHelper19ShouldShowQuickMenuEv(%"class.pdf::PDFWebContentsHelper"* nocapture readnone) unnamed_addr #7 align 2 {
  ret i1 false
}

; Function Attrs: nounwind ssp uwtable
define hidden void @_ZN3pdf20PDFWebContentsHelper15GetSelectedTextEv(%"class.std::__1::basic_string.245"* noalias nocapture sret, %"class.pdf::PDFWebContentsHelper"* nocapture readnone) unnamed_addr #0 align 2 {
  %3 = bitcast %"class.std::__1::basic_string.245"* %0 to i8*
  tail call void @llvm.memset.p0i8.i64(i8* align 8 %3, i8 0, i64 24, i1 false) #14
  ret void
}

; Function Attrs: nounwind ssp uwtable
define hidden void @_ZThn40_N3pdf20PDFWebContentsHelper15GetSelectedTextEv(%"class.std::__1::basic_string.245"* noalias nocapture sret, %"class.pdf::PDFWebContentsHelper"* nocapture readnone) unnamed_addr #0 align 2 {
  %3 = bitcast %"class.std::__1::basic_string.245"* %0 to i8*
  tail call void @llvm.memset.p0i8.i64(i8* align 8 %3, i8 0, i64 24, i1 false) #14, !alias.scope !3
  ret void
}

; Function Attrs: nounwind ssp uwtable
define hidden void @_ZN3pdf20PDFWebContentsHelper21HasUnsupportedFeatureEv(%"class.pdf::PDFWebContentsHelper"*) unnamed_addr #0 align 2 {
  %2 = getelementptr inbounds %"class.pdf::PDFWebContentsHelper", %"class.pdf::PDFWebContentsHelper"* %0, i64 0, i32 7, i32 0, i32 0, i32 0
  %3 = load %"class.pdf::PDFWebContentsHelperClient"*, %"class.pdf::PDFWebContentsHelperClient"** %2, align 8
  %4 = getelementptr inbounds %"class.pdf::PDFWebContentsHelper", %"class.pdf::PDFWebContentsHelper"* %0, i64 0, i32 0
  %5 = tail call %"class.content::WebContents"* @_ZNK7content19WebContentsObserver12web_contentsEv(%"class.content::WebContentsObserver"* %4) #14
  %6 = bitcast %"class.pdf::PDFWebContentsHelperClient"* %3 to void (%"class.pdf::PDFWebContentsHelperClient"*, %"class.content::WebContents"*)***
  %7 = load void (%"class.pdf::PDFWebContentsHelperClient"*, %"class.content::WebContents"*)**, void (%"class.pdf::PDFWebContentsHelperClient"*, %"class.content::WebContents"*)*** %6, align 8
  %8 = getelementptr inbounds void (%"class.pdf::PDFWebContentsHelperClient"*, %"class.content::WebContents"*)*, void (%"class.pdf::PDFWebContentsHelperClient"*, %"class.content::WebContents"*)** %7, i64 3
  %9 = load void (%"class.pdf::PDFWebContentsHelperClient"*, %"class.content::WebContents"*)*, void (%"class.pdf::PDFWebContentsHelperClient"*, %"class.content::WebContents"*)** %8, align 8
  tail call void %9(%"class.pdf::PDFWebContentsHelperClient"* %3, %"class.content::WebContents"* %5) #14
  ret void
}

; Function Attrs: nounwind ssp uwtable
define hidden void @_ZThn24_N3pdf20PDFWebContentsHelper21HasUnsupportedFeatureEv(%"class.pdf::PDFWebContentsHelper"*) unnamed_addr #0 align 2 {
  %2 = getelementptr inbounds %"class.pdf::PDFWebContentsHelper", %"class.pdf::PDFWebContentsHelper"* %0, i64 -1, i32 14, i32 0, i32 0, i32 4
  %3 = getelementptr inbounds %class.scoped_refptr.41, %class.scoped_refptr.41* %2, i64 29
  %4 = bitcast %class.scoped_refptr.41* %3 to %"class.pdf::PDFWebContentsHelperClient"**
  %5 = load %"class.pdf::PDFWebContentsHelperClient"*, %"class.pdf::PDFWebContentsHelperClient"** %4, align 8
  %6 = bitcast %class.scoped_refptr.41* %2 to %"class.content::WebContentsObserver"*
  %7 = tail call %"class.content::WebContents"* @_ZNK7content19WebContentsObserver12web_contentsEv(%"class.content::WebContentsObserver"* %6) #14
  %8 = bitcast %"class.pdf::PDFWebContentsHelperClient"* %5 to void (%"class.pdf::PDFWebContentsHelperClient"*, %"class.content::WebContents"*)***
  %9 = load void (%"class.pdf::PDFWebContentsHelperClient"*, %"class.content::WebContents"*)**, void (%"class.pdf::PDFWebContentsHelperClient"*, %"class.content::WebContents"*)*** %8, align 8
  %10 = getelementptr inbounds void (%"class.pdf::PDFWebContentsHelperClient"*, %"class.content::WebContents"*)*, void (%"class.pdf::PDFWebContentsHelperClient"*, %"class.content::WebContents"*)** %9, i64 3
  %11 = load void (%"class.pdf::PDFWebContentsHelperClient"*, %"class.content::WebContents"*)*, void (%"class.pdf::PDFWebContentsHelperClient"*, %"class.content::WebContents"*)** %10, align 8
  tail call void %11(%"class.pdf::PDFWebContentsHelperClient"* %5, %"class.content::WebContents"* %7) #14
  ret void
}

; Function Attrs: nounwind ssp uwtable
define hidden void @_ZN3pdf20PDFWebContentsHelper9SaveUrlAsERK4GURLN4mojo9StructPtrIN5blink5mojom8ReferrerEEE(%"class.pdf::PDFWebContentsHelper"*, %class.GURL* dereferenceable(120), %"class.mojo::StructPtr"*) unnamed_addr #0 align 2 {
  %4 = alloca %"struct.content::Referrer", align 8
  %5 = getelementptr inbounds %"class.pdf::PDFWebContentsHelper", %"class.pdf::PDFWebContentsHelper"* %0, i64 0, i32 7, i32 0, i32 0, i32 0
  %6 = load %"class.pdf::PDFWebContentsHelperClient"*, %"class.pdf::PDFWebContentsHelperClient"** %5, align 8
  %7 = getelementptr inbounds %"class.pdf::PDFWebContentsHelper", %"class.pdf::PDFWebContentsHelper"* %0, i64 0, i32 0
  %8 = tail call %"class.content::WebContents"* @_ZNK7content19WebContentsObserver12web_contentsEv(%"class.content::WebContentsObserver"* %7) #14
  %9 = bitcast %"class.pdf::PDFWebContentsHelperClient"* %6 to void (%"class.pdf::PDFWebContentsHelperClient"*, %"class.content::WebContents"*)***
  %10 = load void (%"class.pdf::PDFWebContentsHelperClient"*, %"class.content::WebContents"*)**, void (%"class.pdf::PDFWebContentsHelperClient"*, %"class.content::WebContents"*)*** %9, align 8
  %11 = getelementptr inbounds void (%"class.pdf::PDFWebContentsHelperClient"*, %"class.content::WebContents"*)*, void (%"class.pdf::PDFWebContentsHelperClient"*, %"class.content::WebContents"*)** %10, i64 4
  %12 = load void (%"class.pdf::PDFWebContentsHelperClient"*, %"class.content::WebContents"*)*, void (%"class.pdf::PDFWebContentsHelperClient"*, %"class.content::WebContents"*)** %11, align 8
  tail call void %12(%"class.pdf::PDFWebContentsHelperClient"* %6, %"class.content::WebContents"* %8) #14
  %13 = tail call %"class.content::WebContents"* @_ZNK7content19WebContentsObserver12web_contentsEv(%"class.content::WebContentsObserver"* %7) #14
  %14 = bitcast %"class.content::WebContents"* %13 to %"class.content::RenderFrameHost"* (%"class.content::WebContents"*)***
  %15 = load %"class.content::RenderFrameHost"* (%"class.content::WebContents"*)**, %"class.content::RenderFrameHost"* (%"class.content::WebContents"*)*** %14, align 8
  %16 = getelementptr inbounds %"class.content::RenderFrameHost"* (%"class.content::WebContents"*)*, %"class.content::RenderFrameHost"* (%"class.content::WebContents"*)** %15, i64 83
  %17 = load %"class.content::RenderFrameHost"* (%"class.content::WebContents"*)*, %"class.content::RenderFrameHost"* (%"class.content::WebContents"*)** %16, align 8
  %18 = tail call %"class.content::RenderFrameHost"* %17(%"class.content::WebContents"* %13) #14
  %19 = icmp eq %"class.content::RenderFrameHost"* %18, null
  br i1 %19, label %28, label %20

20:                                               ; preds = %3
  %21 = tail call %"class.content::WebContents"* @_ZNK7content19WebContentsObserver12web_contentsEv(%"class.content::WebContentsObserver"* %7) #14
  %22 = bitcast %"struct.content::Referrer"* %4 to i8*
  call void @llvm.lifetime.start.p0i8(i64 128, i8* nonnull %22) #14
  call void @_ZN4mojo13TypeConverterIN7content8ReferrerENS_9StructPtrIN5blink5mojom8ReferrerEEEE7ConvertERKS7_(%"struct.content::Referrer"* nonnull sret %4, %"class.mojo::StructPtr"* dereferenceable(8) %2) #14
  %23 = bitcast %"class.content::WebContents"* %21 to void (%"class.content::WebContents"*, %class.GURL*, %"struct.content::Referrer"*, %"class.content::RenderFrameHost"*)***
  %24 = load void (%"class.content::WebContents"*, %class.GURL*, %"struct.content::Referrer"*, %"class.content::RenderFrameHost"*)**, void (%"class.content::WebContents"*, %class.GURL*, %"struct.content::Referrer"*, %"class.content::RenderFrameHost"*)*** %23, align 8
  %25 = getelementptr inbounds void (%"class.content::WebContents"*, %class.GURL*, %"struct.content::Referrer"*, %"class.content::RenderFrameHost"*)*, void (%"class.content::WebContents"*, %class.GURL*, %"struct.content::Referrer"*, %"class.content::RenderFrameHost"*)** %24, i64 127
  %26 = load void (%"class.content::WebContents"*, %class.GURL*, %"struct.content::Referrer"*, %"class.content::RenderFrameHost"*)*, void (%"class.content::WebContents"*, %class.GURL*, %"struct.content::Referrer"*, %"class.content::RenderFrameHost"*)** %25, align 8
  call void %26(%"class.content::WebContents"* %21, %class.GURL* dereferenceable(120) %1, %"struct.content::Referrer"* nonnull dereferenceable(128) %4, %"class.content::RenderFrameHost"* nonnull %18) #14
  %27 = getelementptr inbounds %"struct.content::Referrer", %"struct.content::Referrer"* %4, i64 0, i32 0
  call void @_ZN4GURLD1Ev(%class.GURL* nonnull %27) #14
  call void @llvm.lifetime.end.p0i8(i64 128, i8* nonnull %22) #14
  br label %28

28:                                               ; preds = %3, %20
  ret void
}

; Function Attrs: nounwind ssp uwtable
define hidden void @_ZThn24_N3pdf20PDFWebContentsHelper9SaveUrlAsERK4GURLN4mojo9StructPtrIN5blink5mojom8ReferrerEEE(%"class.pdf::PDFWebContentsHelper"*, %class.GURL* dereferenceable(120), %"class.mojo::StructPtr"*) unnamed_addr #0 align 2 {
  %4 = getelementptr inbounds %"class.pdf::PDFWebContentsHelper", %"class.pdf::PDFWebContentsHelper"* %0, i64 -1, i32 14, i32 0, i32 0, i32 4
  %5 = bitcast %class.scoped_refptr.41* %4 to %"class.pdf::PDFWebContentsHelper"*
  tail call void @_ZN3pdf20PDFWebContentsHelper9SaveUrlAsERK4GURLN4mojo9StructPtrIN5blink5mojom8ReferrerEEE(%"class.pdf::PDFWebContentsHelper"* %5, %class.GURL* dereferenceable(120) %1, %"class.mojo::StructPtr"* %2)
  ret void
}

; Function Attrs: nounwind ssp uwtable
define hidden void @_ZN3pdf20PDFWebContentsHelper25UpdateContentRestrictionsEi(%"class.pdf::PDFWebContentsHelper"*, i32) unnamed_addr #0 align 2 {
  %3 = getelementptr inbounds %"class.pdf::PDFWebContentsHelper", %"class.pdf::PDFWebContentsHelper"* %0, i64 0, i32 7, i32 0, i32 0, i32 0
  %4 = load %"class.pdf::PDFWebContentsHelperClient"*, %"class.pdf::PDFWebContentsHelperClient"** %3, align 8
  %5 = getelementptr inbounds %"class.pdf::PDFWebContentsHelper", %"class.pdf::PDFWebContentsHelper"* %0, i64 0, i32 0
  %6 = tail call %"class.content::WebContents"* @_ZNK7content19WebContentsObserver12web_contentsEv(%"class.content::WebContentsObserver"* %5) #14
  %7 = bitcast %"class.pdf::PDFWebContentsHelperClient"* %4 to void (%"class.pdf::PDFWebContentsHelperClient"*, %"class.content::WebContents"*, i32)***
  %8 = load void (%"class.pdf::PDFWebContentsHelperClient"*, %"class.content::WebContents"*, i32)**, void (%"class.pdf::PDFWebContentsHelperClient"*, %"class.content::WebContents"*, i32)*** %7, align 8
  %9 = getelementptr inbounds void (%"class.pdf::PDFWebContentsHelperClient"*, %"class.content::WebContents"*, i32)*, void (%"class.pdf::PDFWebContentsHelperClient"*, %"class.content::WebContents"*, i32)** %8, i64 2
  %10 = load void (%"class.pdf::PDFWebContentsHelperClient"*, %"class.content::WebContents"*, i32)*, void (%"class.pdf::PDFWebContentsHelperClient"*, %"class.content::WebContents"*, i32)** %9, align 8
  tail call void %10(%"class.pdf::PDFWebContentsHelperClient"* %4, %"class.content::WebContents"* %6, i32 %1) #14
  ret void
}

; Function Attrs: nounwind ssp uwtable
define hidden void @_ZThn24_N3pdf20PDFWebContentsHelper25UpdateContentRestrictionsEi(%"class.pdf::PDFWebContentsHelper"*, i32) unnamed_addr #0 align 2 {
  %3 = getelementptr inbounds %"class.pdf::PDFWebContentsHelper", %"class.pdf::PDFWebContentsHelper"* %0, i64 -1, i32 14, i32 0, i32 0, i32 4
  %4 = getelementptr inbounds %class.scoped_refptr.41, %class.scoped_refptr.41* %3, i64 29
  %5 = bitcast %class.scoped_refptr.41* %4 to %"class.pdf::PDFWebContentsHelperClient"**
  %6 = load %"class.pdf::PDFWebContentsHelperClient"*, %"class.pdf::PDFWebContentsHelperClient"** %5, align 8
  %7 = bitcast %class.scoped_refptr.41* %3 to %"class.content::WebContentsObserver"*
  %8 = tail call %"class.content::WebContents"* @_ZNK7content19WebContentsObserver12web_contentsEv(%"class.content::WebContentsObserver"* %7) #14
  %9 = bitcast %"class.pdf::PDFWebContentsHelperClient"* %6 to void (%"class.pdf::PDFWebContentsHelperClient"*, %"class.content::WebContents"*, i32)***
  %10 = load void (%"class.pdf::PDFWebContentsHelperClient"*, %"class.content::WebContents"*, i32)**, void (%"class.pdf::PDFWebContentsHelperClient"*, %"class.content::WebContents"*, i32)*** %9, align 8
  %11 = getelementptr inbounds void (%"class.pdf::PDFWebContentsHelperClient"*, %"class.content::WebContents"*, i32)*, void (%"class.pdf::PDFWebContentsHelperClient"*, %"class.content::WebContents"*, i32)** %10, i64 2
  %12 = load void (%"class.pdf::PDFWebContentsHelperClient"*, %"class.content::WebContents"*, i32)*, void (%"class.pdf::PDFWebContentsHelperClient"*, %"class.content::WebContents"*, i32)** %11, align 8
  tail call void %12(%"class.pdf::PDFWebContentsHelperClient"* %6, %"class.content::WebContents"* %8, i32 %1) #14
  ret void
}

declare zeroext i1 @_ZN7content19WebContentsObserver17OnMessageReceivedERKN3IPC7MessageE(%"class.content::WebContentsObserver"*, %"class.IPC::Message"* dereferenceable(56)) unnamed_addr #1

; Function Attrs: nounwind ssp uwtable
define linkonce_odr hidden void @_ZN3IPC8Listener18OnChannelConnectedEi(%"class.IPC::Listener"*, i32) unnamed_addr #0 comdat align 2 {
  ret void
}

; Function Attrs: nounwind ssp uwtable
define linkonce_odr hidden void @_ZN3IPC8Listener14OnChannelErrorEv(%"class.IPC::Listener"*) unnamed_addr #0 comdat align 2 {
  ret void
}

; Function Attrs: nounwind ssp uwtable
define linkonce_odr hidden void @_ZN3IPC8Listener20OnBadMessageReceivedERKNS_7MessageE(%"class.IPC::Listener"*, %"class.IPC::Message"* dereferenceable(56)) unnamed_addr #0 comdat align 2 {
  ret void
}

; Function Attrs: nounwind ssp uwtable
define linkonce_odr hidden void @_ZN3IPC8Listener28OnAssociatedInterfaceRequestERKNSt3__112basic_stringIcNS1_11char_traitsIcEENS1_9allocatorIcEEEEN4mojo29ScopedInterfaceEndpointHandleE(%"class.IPC::Listener"*, %"class.std::__1::basic_string"* dereferenceable(24), %"class.mojo::ScopedInterfaceEndpointHandle"*) unnamed_addr #0 comdat align 2 {
  ret void
}

; Function Attrs: nounwind ssp uwtable
define linkonce_odr hidden void @_ZN3IPC8Listener15OnChannelDeniedEv(%"class.IPC::Listener"*) unnamed_addr #0 comdat align 2 {
  ret void
}

; Function Attrs: nounwind ssp uwtable
define linkonce_odr hidden void @_ZN3IPC8Listener20OnChannelListenErrorEv(%"class.IPC::Listener"*) unnamed_addr #0 comdat align 2 {
  ret void
}

; Function Attrs: nounwind ssp uwtable
define linkonce_odr hidden void @_ZN7content19WebContentsObserver18RenderFrameCreatedEPNS_15RenderFrameHostE(%"class.content::WebContentsObserver"*, %"class.content::RenderFrameHost"*) unnamed_addr #0 comdat align 2 {
  ret void
}

; Function Attrs: nounwind ssp uwtable
define linkonce_odr hidden void @_ZN7content19WebContentsObserver18RenderFrameDeletedEPNS_15RenderFrameHostE(%"class.content::WebContentsObserver"*, %"class.content::RenderFrameHost"*) unnamed_addr #0 comdat align 2 {
  ret void
}

; Function Attrs: nounwind ssp uwtable
define linkonce_odr hidden void @_ZN7content19WebContentsObserver22RenderFrameHostChangedEPNS_15RenderFrameHostES2_(%"class.content::WebContentsObserver"*, %"class.content::RenderFrameHost"*, %"class.content::RenderFrameHost"*) unnamed_addr #0 comdat align 2 {
  ret void
}

; Function Attrs: nounwind ssp uwtable
define linkonce_odr hidden void @_ZN7content19WebContentsObserver12FrameDeletedEi(%"class.content::WebContentsObserver"*, i32) unnamed_addr #0 comdat align 2 {
  ret void
}

; Function Attrs: nounwind ssp uwtable
define linkonce_odr hidden void @_ZN7content19WebContentsObserver27RenderFrameHostStateChangedEPNS_15RenderFrameHostENS1_14LifecycleStateES3_(%"class.content::WebContentsObserver"*, %"class.content::RenderFrameHost"*, i32, i32) unnamed_addr #0 comdat align 2 {
  ret void
}

; Function Attrs: nounwind ssp uwtable
define linkonce_odr hidden void @_ZN7content19WebContentsObserver20CaptureTargetChangedEv(%"class.content::WebContentsObserver"*) unnamed_addr #0 comdat align 2 {
  ret void
}

; Function Attrs: nounwind ssp uwtable
define linkonce_odr hidden void @_ZN7content19WebContentsObserver27OnCaptureHandleConfigUpdateERKN5blink5mojom19CaptureHandleConfigE(%"class.content::WebContentsObserver"*, %"class.blink::mojom::CaptureHandleConfig"*) unnamed_addr #0 comdat align 2 {
  ret void
}

; Function Attrs: nounwind ssp uwtable
define linkonce_odr hidden void @_ZN7content19WebContentsObserver15RenderViewReadyEv(%"class.content::WebContentsObserver"*) unnamed_addr #0 comdat align 2 {
  ret void
}

; Function Attrs: nounwind ssp uwtable
define linkonce_odr hidden void @_ZN7content19WebContentsObserver17RenderViewDeletedEPNS_14RenderViewHostE(%"class.content::WebContentsObserver"*, %"class.content::RenderViewHost"*) unnamed_addr #0 comdat align 2 {
  ret void
}

; Function Attrs: nounwind ssp uwtable
define linkonce_odr hidden void @_ZN7content19WebContentsObserver17RenderProcessGoneEN4base17TerminationStatusE(%"class.content::WebContentsObserver"*, i32) unnamed_addr #0 comdat align 2 {
  ret void
}

; Function Attrs: nounwind ssp uwtable
define linkonce_odr hidden void @_ZN7content19WebContentsObserver21RenderViewHostChangedEPNS_14RenderViewHostES2_(%"class.content::WebContentsObserver"*, %"class.content::RenderViewHost"*, %"class.content::RenderViewHost"*) unnamed_addr #0 comdat align 2 {
  ret void
}

; Function Attrs: nounwind ssp uwtable
define linkonce_odr hidden void @_ZN7content19WebContentsObserver22OnRendererUnresponsiveEPNS_17RenderProcessHostE(%"class.content::WebContentsObserver"*, %"class.content::RenderProcessHost"*) unnamed_addr #0 comdat align 2 {
  ret void
}

; Function Attrs: nounwind ssp uwtable
define linkonce_odr hidden void @_ZN7content19WebContentsObserver20OnRendererResponsiveEPNS_17RenderProcessHostE(%"class.content::WebContentsObserver"*, %"class.content::RenderProcessHost"*) unnamed_addr #0 comdat align 2 {
  ret void
}

; Function Attrs: nounwind ssp uwtable
define linkonce_odr hidden void @_ZN7content19WebContentsObserver18DidStartNavigationEPNS_16NavigationHandleE(%"class.content::WebContentsObserver"*, %"class.content::NavigationHandle"*) unnamed_addr #0 comdat align 2 {
  ret void
}

; Function Attrs: nounwind ssp uwtable
define linkonce_odr hidden void @_ZN7content19WebContentsObserver21DidRedirectNavigationEPNS_16NavigationHandleE(%"class.content::WebContentsObserver"*, %"class.content::NavigationHandle"*) unnamed_addr #0 comdat align 2 {
  ret void
}

; Function Attrs: nounwind ssp uwtable
define linkonce_odr hidden void @_ZN7content19WebContentsObserver23ReadyToCommitNavigationEPNS_16NavigationHandleE(%"class.content::WebContentsObserver"*, %"class.content::NavigationHandle"*) unnamed_addr #0 comdat align 2 {
  ret void
}

; Function Attrs: nounwind ssp uwtable
define linkonce_odr hidden void @_ZN7content19WebContentsObserver19DidFinishNavigationEPNS_16NavigationHandleE(%"class.content::WebContentsObserver"*, %"class.content::NavigationHandle"*) unnamed_addr #0 comdat align 2 {
  ret void
}

; Function Attrs: nounwind ssp uwtable
define linkonce_odr hidden void @_ZN7content19WebContentsObserver17DidActivatePortalEPNS_11WebContentsEN4base9TimeTicksE(%"class.content::WebContentsObserver"*, %"class.content::WebContents"*, i64) unnamed_addr #0 comdat align 2 {
  ret void
}

; Function Attrs: nounwind ssp uwtable
define linkonce_odr hidden void @_ZN7content19WebContentsObserver15DidStartLoadingEv(%"class.content::WebContentsObserver"*) unnamed_addr #0 comdat align 2 {
  ret void
}

; Function Attrs: nounwind ssp uwtable
define linkonce_odr hidden void @_ZN7content19WebContentsObserver18DidReceiveResponseEv(%"class.content::WebContentsObserver"*) unnamed_addr #0 comdat align 2 {
  ret void
}

; Function Attrs: nounwind ssp uwtable
define linkonce_odr hidden void @_ZN7content19WebContentsObserver14DidStopLoadingEv(%"class.content::WebContentsObserver"*) unnamed_addr #0 comdat align 2 {
  ret void
}

; Function Attrs: nounwind ssp uwtable
define linkonce_odr hidden void @_ZN7content19WebContentsObserver19LoadProgressChangedEd(%"class.content::WebContentsObserver"*, double) unnamed_addr #0 comdat align 2 {
  ret void
}

; Function Attrs: nounwind ssp uwtable
define linkonce_odr hidden void @_ZN7content19WebContentsObserver28DocumentAvailableInMainFrameEPNS_15RenderFrameHostE(%"class.content::WebContentsObserver"*, %"class.content::RenderFrameHost"*) unnamed_addr #0 comdat align 2 {
  ret void
}

; Function Attrs: nounwind ssp uwtable
define linkonce_odr hidden void @_ZN7content19WebContentsObserver34DocumentOnLoadCompletedInMainFrameEPNS_15RenderFrameHostE(%"class.content::WebContentsObserver"*, %"class.content::RenderFrameHost"*) unnamed_addr #0 comdat align 2 {
  ret void
}

; Function Attrs: nounwind ssp uwtable
define linkonce_odr hidden void @_ZN7content19WebContentsObserver16DOMContentLoadedEPNS_15RenderFrameHostE(%"class.content::WebContentsObserver"*, %"class.content::RenderFrameHost"*) unnamed_addr #0 comdat align 2 {
  ret void
}

; Function Attrs: nounwind ssp uwtable
define linkonce_odr hidden void @_ZN7content19WebContentsObserver13DidFinishLoadEPNS_15RenderFrameHostERK4GURL(%"class.content::WebContentsObserver"*, %"class.content::RenderFrameHost"*, %class.GURL* dereferenceable(120)) unnamed_addr #0 comdat align 2 {
  ret void
}

; Function Attrs: nounwind ssp uwtable
define linkonce_odr hidden void @_ZN7content19WebContentsObserver11DidFailLoadEPNS_15RenderFrameHostERK4GURLi(%"class.content::WebContentsObserver"*, %"class.content::RenderFrameHost"*, %class.GURL* dereferenceable(120), i32) unnamed_addr #0 comdat align 2 {
  ret void
}

; Function Attrs: nounwind ssp uwtable
define linkonce_odr hidden void @_ZN7content19WebContentsObserver29DidChangeVisibleSecurityStateEv(%"class.content::WebContentsObserver"*) unnamed_addr #0 comdat align 2 {
  ret void
}

; Function Attrs: nounwind ssp uwtable
define linkonce_odr hidden void @_ZN7content19WebContentsObserver30DidLoadResourceFromMemoryCacheEPNS_15RenderFrameHostERK4GURLRKNSt3__112basic_stringIcNS6_11char_traitsIcEENS6_9allocatorIcEEEEN7network5mojom18RequestDestinationE(%"class.content::WebContentsObserver"*, %"class.content::RenderFrameHost"*, %class.GURL* dereferenceable(120), %"class.std::__1::basic_string"* dereferenceable(24), i32) unnamed_addr #0 comdat align 2 {
  ret void
}

; Function Attrs: nounwind ssp uwtable
define linkonce_odr hidden void @_ZN7content19WebContentsObserver20ResourceLoadCompleteEPNS_15RenderFrameHostERKNS_15GlobalRequestIDERKN5blink5mojom16ResourceLoadInfoE(%"class.content::WebContentsObserver"*, %"class.content::RenderFrameHost"*, %"struct.content::GlobalRequestID"* dereferenceable(8), %"class.blink::mojom::ResourceLoadInfo"*) unnamed_addr #0 comdat align 2 {
  ret void
}

; Function Attrs: nounwind ssp uwtable
define linkonce_odr hidden void @_ZN7content19WebContentsObserver17OnCookiesAccessedEPNS_15RenderFrameHostERKNS_19CookieAccessDetailsE(%"class.content::WebContentsObserver"*, %"class.content::RenderFrameHost"*, %"struct.content::CookieAccessDetails"* dereferenceable(280)) unnamed_addr #0 comdat align 2 {
  ret void
}

; Function Attrs: nounwind ssp uwtable
define linkonce_odr hidden void @_ZN7content19WebContentsObserver17OnCookiesAccessedEPNS_16NavigationHandleERKNS_19CookieAccessDetailsE(%"class.content::WebContentsObserver"*, %"class.content::NavigationHandle"*, %"struct.content::CookieAccessDetails"* dereferenceable(280)) unnamed_addr #0 comdat align 2 {
  ret void
}

; Function Attrs: nounwind ssp uwtable
define linkonce_odr hidden void @_ZN7content19WebContentsObserver24NavigationEntryCommittedERKNS_20LoadCommittedDetailsE(%"class.content::WebContentsObserver"*, %"struct.content::LoadCommittedDetails"*) unnamed_addr #0 comdat align 2 {
  ret void
}

; Function Attrs: nounwind ssp uwtable
define linkonce_odr hidden void @_ZN7content19WebContentsObserver20NavigationListPrunedERKNS_13PrunedDetailsE(%"class.content::WebContentsObserver"*, %"struct.content::PrunedDetails"*) unnamed_addr #0 comdat align 2 {
  ret void
}

; Function Attrs: nounwind ssp uwtable
define linkonce_odr hidden void @_ZN7content19WebContentsObserver24NavigationEntriesDeletedEv(%"class.content::WebContentsObserver"*) unnamed_addr #0 comdat align 2 {
  ret void
}

; Function Attrs: nounwind ssp uwtable
define linkonce_odr hidden void @_ZN7content19WebContentsObserver22NavigationEntryChangedERKNS_19EntryChangedDetailsE(%"class.content::WebContentsObserver"*, %"struct.content::EntryChangedDetails"*) unnamed_addr #0 comdat align 2 {
  ret void
}

; Function Attrs: nounwind ssp uwtable
define linkonce_odr hidden void @_ZN7content19WebContentsObserver19DidOpenRequestedURLEPNS_11WebContentsEPNS_15RenderFrameHostERK4GURLRKNS_8ReferrerE21WindowOpenDispositionN2ui14PageTransitionEbb(%"class.content::WebContentsObserver"*, %"class.content::WebContents"*, %"class.content::RenderFrameHost"*, %class.GURL* dereferenceable(120), %"struct.content::Referrer"* dereferenceable(128), i32, i32, i1 zeroext, i1 zeroext) unnamed_addr #0 comdat align 2 {
  ret void
}

; Function Attrs: nounwind ssp uwtable
define linkonce_odr hidden void @_ZN7content19WebContentsObserver29DidFirstVisuallyNonEmptyPaintEv(%"class.content::WebContentsObserver"*) unnamed_addr #0 comdat align 2 {
  ret void
}

; Function Attrs: nounwind ssp uwtable
define linkonce_odr hidden void @_ZN7content19WebContentsObserver17NavigationStoppedEv(%"class.content::WebContentsObserver"*) unnamed_addr #0 comdat align 2 {
  ret void
}

; Function Attrs: nounwind ssp uwtable
define linkonce_odr hidden void @_ZN7content19WebContentsObserver21DidGetUserInteractionERKN5blink13WebInputEventE(%"class.content::WebContentsObserver"*, %"class.blink::WebInputEvent"* dereferenceable(40)) unnamed_addr #0 comdat align 2 {
  ret void
}

; Function Attrs: nounwind ssp uwtable
define linkonce_odr hidden void @_ZN7content19WebContentsObserver20DidGetIgnoredUIEventEv(%"class.content::WebContentsObserver"*) unnamed_addr #0 comdat align 2 {
  ret void
}

; Function Attrs: nounwind ssp uwtable
define linkonce_odr hidden void @_ZN7content19WebContentsObserver19OnVisibilityChangedENS_10VisibilityE(%"class.content::WebContentsObserver"*, i32) unnamed_addr #0 comdat align 2 {
  ret void
}

; Function Attrs: nounwind ssp uwtable
define linkonce_odr hidden void @_ZN7content19WebContentsObserver19MainFrameWasResizedEb(%"class.content::WebContentsObserver"*, i1 zeroext) unnamed_addr #0 comdat align 2 {
  ret void
}

; Function Attrs: nounwind ssp uwtable
define linkonce_odr hidden void @_ZN7content19WebContentsObserver16FrameNameChangedEPNS_15RenderFrameHostERKNSt3__112basic_stringIcNS3_11char_traitsIcEENS3_9allocatorIcEEEE(%"class.content::WebContentsObserver"*, %"class.content::RenderFrameHost"*, %"class.std::__1::basic_string"* dereferenceable(24)) unnamed_addr #0 comdat align 2 {
  ret void
}

; Function Attrs: nounwind ssp uwtable
define linkonce_odr hidden void @_ZN7content19WebContentsObserver27FrameReceivedUserActivationEPNS_15RenderFrameHostE(%"class.content::WebContentsObserver"*, %"class.content::RenderFrameHost"*) unnamed_addr #0 comdat align 2 {
  ret void
}

; Function Attrs: nounwind ssp uwtable
define linkonce_odr hidden void @_ZN7content19WebContentsObserver24FrameDisplayStateChangedEPNS_15RenderFrameHostEb(%"class.content::WebContentsObserver"*, %"class.content::RenderFrameHost"*, i1 zeroext) unnamed_addr #0 comdat align 2 {
  ret void
}

; Function Attrs: nounwind ssp uwtable
define linkonce_odr hidden void @_ZN7content19WebContentsObserver16FrameSizeChangedEPNS_15RenderFrameHostERKN3gfx4SizeE(%"class.content::WebContentsObserver"*, %"class.content::RenderFrameHost"*, %"class.gfx::Size"* dereferenceable(8)) unnamed_addr #0 comdat align 2 {
  ret void
}

; Function Attrs: nounwind ssp uwtable
define linkonce_odr hidden void @_ZN7content19WebContentsObserver11TitleWasSetEPNS_15NavigationEntryE(%"class.content::WebContentsObserver"*, %"class.content::NavigationEntry"*) unnamed_addr #0 comdat align 2 {
  ret void
}

; Function Attrs: nounwind ssp uwtable
define linkonce_odr hidden void @_ZN7content19WebContentsObserver16AppCacheAccessedERK4GURLb(%"class.content::WebContentsObserver"*, %class.GURL* dereferenceable(120), i1 zeroext) unnamed_addr #0 comdat align 2 {
  ret void
}

; Function Attrs: nounwind ssp uwtable
define linkonce_odr hidden void @_ZN7content19WebContentsObserver21PepperInstanceCreatedEv(%"class.content::WebContentsObserver"*) unnamed_addr #0 comdat align 2 {
  ret void
}

; Function Attrs: nounwind ssp uwtable
define linkonce_odr hidden void @_ZN7content19WebContentsObserver21PepperInstanceDeletedEv(%"class.content::WebContentsObserver"*) unnamed_addr #0 comdat align 2 {
  ret void
}

; Function Attrs: nounwind ssp uwtable
define linkonce_odr hidden void @_ZN7content19WebContentsObserver18ViewportFitChangedEN5blink5mojom11ViewportFitE(%"class.content::WebContentsObserver"*, i32) unnamed_addr #0 comdat align 2 {
  ret void
}

; Function Attrs: nounwind ssp uwtable
define linkonce_odr hidden void @_ZN7content19WebContentsObserver13PluginCrashedERKN4base8FilePathEi(%"class.content::WebContentsObserver"*, %"class.base::FilePath"* dereferenceable(24), i32) unnamed_addr #0 comdat align 2 {
  ret void
}

; Function Attrs: nounwind ssp uwtable
define linkonce_odr hidden void @_ZN7content19WebContentsObserver23PluginHungStatusChangedEiRKN4base8FilePathEb(%"class.content::WebContentsObserver"*, i32, %"class.base::FilePath"* dereferenceable(24), i1 zeroext) unnamed_addr #0 comdat align 2 {
  ret void
}

; Function Attrs: nounwind ssp uwtable
define linkonce_odr hidden void @_ZN7content19WebContentsObserver23InnerWebContentsCreatedEPNS_11WebContentsE(%"class.content::WebContentsObserver"*, %"class.content::WebContents"*) unnamed_addr #0 comdat align 2 {
  ret void
}

; Function Attrs: nounwind ssp uwtable
define linkonce_odr hidden void @_ZN7content19WebContentsObserver24InnerWebContentsAttachedEPNS_11WebContentsEPNS_15RenderFrameHostEb(%"class.content::WebContentsObserver"*, %"class.content::WebContents"*, %"class.content::RenderFrameHost"*, i1 zeroext) unnamed_addr #0 comdat align 2 {
  ret void
}

; Function Attrs: nounwind ssp uwtable
define linkonce_odr hidden void @_ZN7content19WebContentsObserver24InnerWebContentsDetachedEPNS_11WebContentsE(%"class.content::WebContentsObserver"*, %"class.content::WebContents"*) unnamed_addr #0 comdat align 2 {
  ret void
}

; Function Attrs: nounwind ssp uwtable
define linkonce_odr hidden void @_ZN7content19WebContentsObserver24DidCloneToNewWebContentsEPNS_11WebContentsES2_(%"class.content::WebContentsObserver"*, %"class.content::WebContents"*, %"class.content::WebContents"*) unnamed_addr #0 comdat align 2 {
  ret void
}

; Function Attrs: nounwind ssp uwtable
define linkonce_odr hidden void @_ZN7content19WebContentsObserver20WebContentsDestroyedEv(%"class.content::WebContentsObserver"*) unnamed_addr #0 comdat align 2 {
  ret void
}

; Function Attrs: nounwind ssp uwtable
define linkonce_odr hidden void @_ZN7content19WebContentsObserver20UserAgentOverrideSetERKN5blink17UserAgentOverrideE(%"class.content::WebContentsObserver"*, %"struct.blink::UserAgentOverride"* dereferenceable(184)) unnamed_addr #0 comdat align 2 {
  ret void
}

; Function Attrs: nounwind ssp uwtable
define linkonce_odr hidden void @_ZN7content19WebContentsObserver19DidUpdateFaviconURLEPNS_15RenderFrameHostERKNSt3__16vectorIN4mojo9StructPtrIN5blink5mojom10FaviconURLEEENS3_9allocatorISA_EEEE(%"class.content::WebContentsObserver"*, %"class.content::RenderFrameHost"*, %"class.std::__1::vector.285"*) unnamed_addr #0 comdat align 2 {
  ret void
}

; Function Attrs: nounwind ssp uwtable
define linkonce_odr hidden void @_ZN7content19WebContentsObserver19OnAudioStateChangedEb(%"class.content::WebContentsObserver"*, i1 zeroext) unnamed_addr #0 comdat align 2 {
  ret void
}

; Function Attrs: nounwind ssp uwtable
define linkonce_odr hidden void @_ZN7content19WebContentsObserver24OnFrameAudioStateChangedEPNS_15RenderFrameHostEb(%"class.content::WebContentsObserver"*, %"class.content::RenderFrameHost"*, i1 zeroext) unnamed_addr #0 comdat align 2 {
  ret void
}

; Function Attrs: nounwind ssp uwtable
define linkonce_odr hidden void @_ZN7content19WebContentsObserver37OnIsConnectedToBluetoothDeviceChangedEb(%"class.content::WebContentsObserver"*, i1 zeroext) unnamed_addr #0 comdat align 2 {
  ret void
}

; Function Attrs: nounwind ssp uwtable
define linkonce_odr hidden void @_ZN7content19WebContentsObserver25DidUpdateAudioMutingStateEb(%"class.content::WebContentsObserver"*, i1 zeroext) unnamed_addr #0 comdat align 2 {
  ret void
}

; Function Attrs: nounwind ssp uwtable
define linkonce_odr hidden void @_ZN7content19WebContentsObserver29DidToggleFullscreenModeForTabEbb(%"class.content::WebContentsObserver"*, i1 zeroext, i1 zeroext) unnamed_addr #0 comdat align 2 {
  ret void
}

; Function Attrs: nounwind ssp uwtable
define linkonce_odr hidden void @_ZN7content19WebContentsObserver20DidAcquireFullscreenEPNS_15RenderFrameHostE(%"class.content::WebContentsObserver"*, %"class.content::RenderFrameHost"*) unnamed_addr #0 comdat align 2 {
  ret void
}

; Function Attrs: nounwind ssp uwtable
define linkonce_odr hidden void @_ZN7content19WebContentsObserver32DidChangeVerticalScrollDirectionEN3viz23VerticalScrollDirectionE(%"class.content::WebContentsObserver"*, i32) unnamed_addr #0 comdat align 2 {
  ret void
}

; Function Attrs: nounwind ssp uwtable
define linkonce_odr hidden void @_ZN7content19WebContentsObserver27BeforeFormRepostWarningShowEv(%"class.content::WebContentsObserver"*) unnamed_addr #0 comdat align 2 {
  ret void
}

; Function Attrs: nounwind ssp uwtable
define linkonce_odr hidden void @_ZN7content19WebContentsObserver17BeforeUnloadFiredEbRKN4base9TimeTicksE(%"class.content::WebContentsObserver"*, i1 zeroext, %"class.base::TimeTicks"* dereferenceable(8)) unnamed_addr #0 comdat align 2 {
  ret void
}

; Function Attrs: nounwind ssp uwtable
define linkonce_odr hidden void @_ZN7content19WebContentsObserver27BeforeUnloadDialogCancelledEv(%"class.content::WebContentsObserver"*) unnamed_addr #0 comdat align 2 {
  ret void
}

; Function Attrs: nounwind ssp uwtable
define linkonce_odr hidden void @_ZN7content19WebContentsObserver30AXTreeIDForMainFrameHasChangedEv(%"class.content::WebContentsObserver"*) unnamed_addr #0 comdat align 2 {
  ret void
}

; Function Attrs: nounwind ssp uwtable
define linkonce_odr hidden void @_ZN7content19WebContentsObserver26AccessibilityEventReceivedERKNS_26AXEventNotificationDetailsE(%"class.content::WebContentsObserver"*, %"struct.content::AXEventNotificationDetails"*) unnamed_addr #0 comdat align 2 {
  ret void
}

; Function Attrs: nounwind ssp uwtable
define linkonce_odr hidden void @_ZN7content19WebContentsObserver36AccessibilityLocationChangesReceivedERKNSt3__16vectorINS_35AXLocationChangeNotificationDetailsENS1_9allocatorIS3_EEEE(%"class.content::WebContentsObserver"*, %"class.std::__1::vector.286"*) unnamed_addr #0 comdat align 2 {
  ret void
}

; Function Attrs: nounwind ssp uwtable
define linkonce_odr hidden void @_ZN7content19WebContentsObserver19DidChangeThemeColorEv(%"class.content::WebContentsObserver"*) unnamed_addr #0 comdat align 2 {
  ret void
}

; Function Attrs: nounwind ssp uwtable
define linkonce_odr hidden void @_ZN7content19WebContentsObserver24OnBackgroundColorChangedEv(%"class.content::WebContentsObserver"*) unnamed_addr #0 comdat align 2 {
  ret void
}

; Function Attrs: nounwind ssp uwtable
define linkonce_odr hidden void @_ZN7content19WebContentsObserver24OnDidAddMessageToConsoleEPNS_15RenderFrameHostEN5blink5mojom19ConsoleMessageLevelERKNSt3__112basic_stringIDsNS6_11char_traitsIDsEENS6_9allocatorIDsEEEEiSE_RKN4absl8optionalISC_EE(%"class.content::WebContentsObserver"*, %"class.content::RenderFrameHost"*, i32, %"class.std::__1::basic_string.245"* dereferenceable(24), i32, %"class.std::__1::basic_string.245"* dereferenceable(24), %"class.absl::optional.287"* dereferenceable(32)) unnamed_addr #0 comdat align 2 {
  ret void
}

; Function Attrs: nounwind ssp uwtable
define linkonce_odr hidden void @_ZN7content19WebContentsObserver19MediaStartedPlayingERKNS0_15MediaPlayerInfoERKNS_13MediaPlayerIdE(%"class.content::WebContentsObserver"*, %"struct.content::WebContentsObserver::MediaPlayerInfo"* dereferenceable(2), %"struct.content::MediaPlayerId"*) unnamed_addr #0 comdat align 2 {
  ret void
}

; Function Attrs: nounwind ssp uwtable
define linkonce_odr hidden void @_ZN7content19WebContentsObserver19MediaStoppedPlayingERKNS0_15MediaPlayerInfoERKNS_13MediaPlayerIdENS0_18MediaStoppedReasonE(%"class.content::WebContentsObserver"*, %"struct.content::WebContentsObserver::MediaPlayerInfo"* dereferenceable(2), %"struct.content::MediaPlayerId"*, i32) unnamed_addr #0 comdat align 2 {
  ret void
}

; Function Attrs: nounwind ssp uwtable
define linkonce_odr hidden void @_ZN7content19WebContentsObserver12MediaResizedERKN3gfx4SizeERKNS_13MediaPlayerIdE(%"class.content::WebContentsObserver"*, %"class.gfx::Size"* dereferenceable(8), %"struct.content::MediaPlayerId"*) unnamed_addr #0 comdat align 2 {
  ret void
}

; Function Attrs: nounwind ssp uwtable
define linkonce_odr hidden void @_ZN7content19WebContentsObserver33MediaEffectivelyFullscreenChangedEb(%"class.content::WebContentsObserver"*, i1 zeroext) unnamed_addr #0 comdat align 2 {
  ret void
}

; Function Attrs: nounwind ssp uwtable
define linkonce_odr hidden void @_ZN7content19WebContentsObserver28MediaPictureInPictureChangedEb(%"class.content::WebContentsObserver"*, i1 zeroext) unnamed_addr #0 comdat align 2 {
  ret void
}

; Function Attrs: nounwind ssp uwtable
define linkonce_odr hidden void @_ZN7content19WebContentsObserver23MediaMutedStatusChangedERKNS_13MediaPlayerIdEb(%"class.content::WebContentsObserver"*, %"struct.content::MediaPlayerId"*, i1 zeroext) unnamed_addr #0 comdat align 2 {
  ret void
}

; Function Attrs: nounwind ssp uwtable
define linkonce_odr hidden void @_ZN7content19WebContentsObserver20MediaBufferUnderflowERKNS_13MediaPlayerIdE(%"class.content::WebContentsObserver"*, %"struct.content::MediaPlayerId"*) unnamed_addr #0 comdat align 2 {
  ret void
}

; Function Attrs: nounwind ssp uwtable
define linkonce_odr hidden void @_ZN7content19WebContentsObserver15MediaPlayerSeekERKNS_13MediaPlayerIdE(%"class.content::WebContentsObserver"*, %"struct.content::MediaPlayerId"*) unnamed_addr #0 comdat align 2 {
  ret void
}

; Function Attrs: nounwind ssp uwtable
define linkonce_odr hidden void @_ZN7content19WebContentsObserver14MediaDestroyedERKNS_13MediaPlayerIdE(%"class.content::WebContentsObserver"*, %"struct.content::MediaPlayerId"*) unnamed_addr #0 comdat align 2 {
  ret void
}

; Function Attrs: nounwind ssp uwtable
define linkonce_odr hidden void @_ZN7content19WebContentsObserver24OnPageScaleFactorChangedEf(%"class.content::WebContentsObserver"*, float) unnamed_addr #0 comdat align 2 {
  ret void
}

; Function Attrs: nounwind ssp uwtable
define linkonce_odr hidden void @_ZN7content19WebContentsObserver7OnPasteEv(%"class.content::WebContentsObserver"*) unnamed_addr #0 comdat align 2 {
  ret void
}

declare zeroext i1 @_ZN7content19WebContentsObserver17OnMessageReceivedERKN3IPC7MessageEPNS_15RenderFrameHostE(%"class.content::WebContentsObserver"*, %"class.IPC::Message"* dereferenceable(56), %"class.content::RenderFrameHost"*) unnamed_addr #1

; Function Attrs: nounwind ssp uwtable
define linkonce_odr hidden void @_ZN7content19WebContentsObserver20OnWebContentsFocusedEPNS_16RenderWidgetHostE(%"class.content::WebContentsObserver"*, %"class.content::RenderWidgetHost"*) unnamed_addr #0 comdat align 2 {
  ret void
}

; Function Attrs: nounwind ssp uwtable
define linkonce_odr hidden void @_ZN7content19WebContentsObserver22OnWebContentsLostFocusEPNS_16RenderWidgetHostE(%"class.content::WebContentsObserver"*, %"class.content::RenderWidgetHost"*) unnamed_addr #0 comdat align 2 {
  ret void
}

; Function Attrs: nounwind ssp uwtable
define linkonce_odr hidden void @_ZN7content19WebContentsObserver20OnFocusChangedInPageEPNS_18FocusedNodeDetailsE(%"class.content::WebContentsObserver"*, %"struct.content::FocusedNodeDetails"*) unnamed_addr #0 comdat align 2 {
  ret void
}

; Function Attrs: nounwind ssp uwtable
define linkonce_odr hidden void @_ZN7content19WebContentsObserver23DidUpdateWebManifestURLEPNS_15RenderFrameHostERKN4absl8optionalI4GURLEE(%"class.content::WebContentsObserver"*, %"class.content::RenderFrameHost"*, %"class.absl::optional.292"* dereferenceable(128)) unnamed_addr #0 comdat align 2 {
  ret void
}

; Function Attrs: nounwind ssp uwtable
define linkonce_odr hidden void @_ZN7content19WebContentsObserver27OnInterfaceRequestFromFrameEPNS_15RenderFrameHostERKNSt3__112basic_stringIcNS3_11char_traitsIcEENS3_9allocatorIcEEEEPN4mojo16ScopedHandleBaseINSC_17MessagePipeHandleEEE(%"class.content::WebContentsObserver"*, %"class.content::RenderFrameHost"*, %"class.std::__1::basic_string"* dereferenceable(24), %"class.mojo::ScopedHandleBase"*) unnamed_addr #0 comdat align 2 {
  ret void
}

; Function Attrs: nounwind ssp uwtable
define linkonce_odr hidden void @_ZN7content19WebContentsObserver27AudioContextPlaybackStartedERKNSt3__14pairIPNS_15RenderFrameHostEiEE(%"class.content::WebContentsObserver"*, %"struct.std::__1::pair.297"*) unnamed_addr #0 comdat align 2 {
  ret void
}

; Function Attrs: nounwind ssp uwtable
define linkonce_odr hidden void @_ZN7content19WebContentsObserver27AudioContextPlaybackStoppedERKNSt3__14pairIPNS_15RenderFrameHostEiEE(%"class.content::WebContentsObserver"*, %"struct.std::__1::pair.297"*) unnamed_addr #0 comdat align 2 {
  ret void
}

; Function Attrs: nounwind ssp uwtable
define linkonce_odr hidden void @_ZN7content19WebContentsObserver23OnServiceWorkerAccessedEPNS_15RenderFrameHostERK4GURLNS_24AllowServiceWorkerResultE(%"class.content::WebContentsObserver"*, %"class.content::RenderFrameHost"*, %class.GURL* dereferenceable(120), i24) unnamed_addr #0 comdat align 2 {
  ret void
}

; Function Attrs: nounwind ssp uwtable
define linkonce_odr hidden void @_ZN7content19WebContentsObserver23OnServiceWorkerAccessedEPNS_16NavigationHandleERK4GURLNS_24AllowServiceWorkerResultE(%"class.content::WebContentsObserver"*, %"class.content::NavigationHandle"*, %class.GURL* dereferenceable(120), i24) unnamed_addr #0 comdat align 2 {
  ret void
}

; Function Attrs: nounwind ssp uwtable
define linkonce_odr hidden void @_ZN3pdf20PDFWebContentsHelper15SetNeedsAnimateEv(%"class.pdf::PDFWebContentsHelper"*) unnamed_addr #0 comdat align 2 {
  ret void
}

declare %"class.base::SupportsUserData::Data"* @_ZN4base16SupportsUserData4Data5CloneEv(%"class.base::SupportsUserData::Data"*) unnamed_addr #1

; Function Attrs: nounwind ssp uwtable
define linkonce_odr hidden void @_ZThn32_N3pdf20PDFWebContentsHelper15SetNeedsAnimateEv(%"class.pdf::PDFWebContentsHelper"*) unnamed_addr #0 comdat align 2 {
  ret void
}

; Function Attrs: nounwind ssp uwtable
define linkonce_odr hidden void @_ZN2ui30TouchSelectionControllerClient29ShowTouchSelectionContextMenuERKN3gfx5PointE(%"class.ui::TouchSelectionControllerClient"*, %"class.gfx::Point"* dereferenceable(8)) unnamed_addr #0 comdat align 2 {
  ret void
}

; Function Attrs: nounwind ssp uwtable
define linkonce_odr hidden void @_ZN4base16SupportsUserData4DataD2Ev(%"class.base::SupportsUserData::Data"*) unnamed_addr #0 comdat align 2 {
  ret void
}

; Function Attrs: inlinehint nounwind ssp uwtable
define linkonce_odr hidden void @_ZN7content19WebContentsUserDataIN3pdf20PDFWebContentsHelperEED0Ev(%"class.content::WebContentsUserData"*) unnamed_addr #9 comdat align 2 {
  %2 = bitcast %"class.content::WebContentsUserData"* %0 to i8*
  tail call void @_ZdlPv(i8* %2) #15
  ret void
}

; Function Attrs: nounwind ssp uwtable
define linkonce_odr hidden void @_ZN3pdf5mojom10PdfServiceD2Ev(%"class.pdf::mojom::PdfService"*) unnamed_addr #0 comdat align 2 {
  ret void
}

; Function Attrs: nounwind ssp uwtable
define linkonce_odr hidden void @_ZN3pdf5mojom10PdfServiceD0Ev(%"class.pdf::mojom::PdfService"*) unnamed_addr #0 comdat align 2 {
  tail call void @llvm.trap() #16
  unreachable
}

declare void @__cxa_pure_virtual() unnamed_addr

; Function Attrs: cold noreturn nounwind
declare void @llvm.trap() #10

; Function Attrs: nounwind ssp uwtable
define linkonce_odr hidden void @_ZN2ui30TouchSelectionControllerClientD2Ev(%"class.ui::TouchSelectionControllerClient"*) unnamed_addr #0 comdat align 2 {
  ret void
}

; Function Attrs: nounwind ssp uwtable
define linkonce_odr hidden void @_ZN2ui30TouchSelectionControllerClientD0Ev(%"class.ui::TouchSelectionControllerClient"*) unnamed_addr #0 comdat align 2 {
  tail call void @llvm.trap() #16
  unreachable
}

; Function Attrs: nounwind ssp uwtable
define linkonce_odr hidden void @_ZN2ui24TouchSelectionMenuClientD2Ev(%"class.ui::TouchSelectionMenuClient"*) unnamed_addr #0 comdat align 2 {
  ret void
}

; Function Attrs: nounwind ssp uwtable
define linkonce_odr hidden void @_ZN2ui24TouchSelectionMenuClientD0Ev(%"class.ui::TouchSelectionMenuClient"*) unnamed_addr #0 comdat align 2 {
  tail call void @llvm.trap() #16
  unreachable
}

declare void @_ZN4base15CheckedObserverC2Ev(%"class.base::CheckedObserver"*) unnamed_addr #1

; Function Attrs: nounwind
declare void @_ZN4base15CheckedObserverD2Ev(%"class.base::CheckedObserver"*) unnamed_addr #4

declare void @_ZN4mojo8internal21InterfacePtrStateBaseC2Ev(%"class.mojo::internal::InterfacePtrStateBase"*) unnamed_addr #1

; Function Attrs: nounwind
declare void @_ZN4mojo8internal21InterfacePtrStateBaseD2Ev(%"class.mojo::internal::InterfacePtrStateBase"*) unnamed_addr #4

; Function Attrs: nounwind ssp uwtable
define linkonce_odr hidden void @_ZN7content27WebContentsFrameReceiverSetIN3pdf5mojom10PdfServiceEE20FrameInterfaceBinderD2Ev(%"class.content::WebContentsFrameReceiverSet<pdf::mojom::PdfService>::FrameInterfaceBinder"*) unnamed_addr #0 comdat align 2 {
  %2 = getelementptr inbounds %"class.content::WebContentsFrameReceiverSet<pdf::mojom::PdfService>::FrameInterfaceBinder", %"class.content::WebContentsFrameReceiverSet<pdf::mojom::PdfService>::FrameInterfaceBinder"* %0, i64 0, i32 1
  %3 = bitcast %"class.content::WebContentsFrameReceiverSet<pdf::mojom::PdfService>::FrameInterfaceBinder"* %0 to <2 x i32 (...)**>*
  store <2 x i32 (...)**> <i32 (...)** bitcast (i8** getelementptr inbounds ({ [7 x i8*], [109 x i8*] }, { [7 x i8*], [109 x i8*] }* @_ZTVN7content27WebContentsFrameReceiverSetIN3pdf5mojom10PdfServiceEE20FrameInterfaceBinderE, i64 0, inrange i32 0, i64 2) to i32 (...)**), i32 (...)** bitcast (i8** getelementptr inbounds ({ [7 x i8*], [109 x i8*] }, { [7 x i8*], [109 x i8*] }* @_ZTVN7content27WebContentsFrameReceiverSetIN3pdf5mojom10PdfServiceEE20FrameInterfaceBinderE, i64 0, inrange i32 1, i64 2) to i32 (...)**)>, <2 x i32 (...)**>* %3, align 8
  %4 = getelementptr inbounds %"class.content::WebContentsFrameReceiverSet<pdf::mojom::PdfService>::FrameInterfaceBinder", %"class.content::WebContentsFrameReceiverSet<pdf::mojom::PdfService>::FrameInterfaceBinder"* %0, i64 0, i32 4, i32 0
  %5 = getelementptr inbounds %"class.content::WebContentsFrameReceiverSet<pdf::mojom::PdfService>::FrameInterfaceBinder", %"class.content::WebContentsFrameReceiverSet<pdf::mojom::PdfService>::FrameInterfaceBinder"* %0, i64 0, i32 4, i32 0, i32 1, i32 0, i32 0
  %6 = bitcast %"class.std::__1::__tree_end_node"* %5 to %"class.std::__1::__tree_node"**
  %7 = load %"class.std::__1::__tree_node"*, %"class.std::__1::__tree_node"** %6, align 8
  tail call void @_ZNSt3__16__treeINS_12__value_typeIPN7content15RenderFrameHostENS_6vectorImNS_9allocatorImEEEEEENS_19__map_value_compareIS4_S9_NS_4lessIS4_EELb1EEENS6_IS9_EEE7destroyEPNS_11__tree_nodeIS9_PvEE(%"class.std::__1::__tree.29"* %4, %"class.std::__1::__tree_node"* %7) #14
  %8 = getelementptr inbounds %"class.content::WebContentsFrameReceiverSet<pdf::mojom::PdfService>::FrameInterfaceBinder", %"class.content::WebContentsFrameReceiverSet<pdf::mojom::PdfService>::FrameInterfaceBinder"* %0, i64 0, i32 3, i32 0
  tail call void @_ZN4mojo16ReceiverSetStateD1Ev(%"class.mojo::ReceiverSetState"* %8) #14
  tail call void @_ZN7content19WebContentsObserverD2Ev(%"class.content::WebContentsObserver"* %2) #14
  ret void
}

; Function Attrs: nounwind
declare void @_ZN7content22WebContentsReceiverSetD2Ev(%"class.content::WebContentsReceiverSet"*) unnamed_addr #4

; Function Attrs: nounwind ssp uwtable
define linkonce_odr hidden void @_ZThn8_N7content27WebContentsFrameReceiverSetIN3pdf5mojom10PdfServiceEE20FrameInterfaceBinderD1Ev(%"class.content::WebContentsFrameReceiverSet<pdf::mojom::PdfService>::FrameInterfaceBinder"*) unnamed_addr #0 comdat align 2 {
  %2 = getelementptr inbounds %"class.content::WebContentsFrameReceiverSet<pdf::mojom::PdfService>::FrameInterfaceBinder", %"class.content::WebContentsFrameReceiverSet<pdf::mojom::PdfService>::FrameInterfaceBinder"* %0, i64 -1, i32 4, i32 0, i32 2
  %3 = getelementptr inbounds %"class.std::__1::__compressed_pair.34", %"class.std::__1::__compressed_pair.34"* %2, i64 1
  %4 = bitcast %"class.std::__1::__compressed_pair.34"* %3 to %"class.content::WebContentsObserver"*
  %5 = bitcast %"class.std::__1::__compressed_pair.34"* %2 to <2 x i32 (...)**>*
  store <2 x i32 (...)**> <i32 (...)** bitcast (i8** getelementptr inbounds ({ [7 x i8*], [109 x i8*] }, { [7 x i8*], [109 x i8*] }* @_ZTVN7content27WebContentsFrameReceiverSetIN3pdf5mojom10PdfServiceEE20FrameInterfaceBinderE, i64 0, inrange i32 0, i64 2) to i32 (...)**), i32 (...)** bitcast (i8** getelementptr inbounds ({ [7 x i8*], [109 x i8*] }, { [7 x i8*], [109 x i8*] }* @_ZTVN7content27WebContentsFrameReceiverSetIN3pdf5mojom10PdfServiceEE20FrameInterfaceBinderE, i64 0, inrange i32 1, i64 2) to i32 (...)**)>, <2 x i32 (...)**>* %5, align 8
  %6 = getelementptr inbounds %"class.std::__1::__compressed_pair.34", %"class.std::__1::__compressed_pair.34"* %2, i64 14
  %7 = bitcast %"class.std::__1::__compressed_pair.34"* %6 to %"class.std::__1::__tree.29"*
  %8 = getelementptr inbounds %"class.std::__1::__compressed_pair.34", %"class.std::__1::__compressed_pair.34"* %2, i64 15
  %9 = bitcast %"class.std::__1::__compressed_pair.34"* %8 to %"class.std::__1::__tree_node"**
  %10 = load %"class.std::__1::__tree_node"*, %"class.std::__1::__tree_node"** %9, align 8
  tail call void @_ZNSt3__16__treeINS_12__value_typeIPN7content15RenderFrameHostENS_6vectorImNS_9allocatorImEEEEEENS_19__map_value_compareIS4_S9_NS_4lessIS4_EELb1EEENS6_IS9_EEE7destroyEPNS_11__tree_nodeIS9_PvEE(%"class.std::__1::__tree.29"* %7, %"class.std::__1::__tree_node"* %10) #14
  %11 = getelementptr inbounds %"class.std::__1::__compressed_pair.34", %"class.std::__1::__compressed_pair.34"* %2, i64 4
  %12 = bitcast %"class.std::__1::__compressed_pair.34"* %11 to %"class.mojo::ReceiverSetState"*
  tail call void @_ZN4mojo16ReceiverSetStateD1Ev(%"class.mojo::ReceiverSetState"* %12) #14
  tail call void @_ZN7content19WebContentsObserverD2Ev(%"class.content::WebContentsObserver"* %4) #14
  ret void
}

; Function Attrs: nounwind ssp uwtable
define linkonce_odr hidden void @_ZN7content27WebContentsFrameReceiverSetIN3pdf5mojom10PdfServiceEE20FrameInterfaceBinderD0Ev(%"class.content::WebContentsFrameReceiverSet<pdf::mojom::PdfService>::FrameInterfaceBinder"*) unnamed_addr #0 comdat align 2 {
  %2 = getelementptr inbounds %"class.content::WebContentsFrameReceiverSet<pdf::mojom::PdfService>::FrameInterfaceBinder", %"class.content::WebContentsFrameReceiverSet<pdf::mojom::PdfService>::FrameInterfaceBinder"* %0, i64 0, i32 1
  %3 = bitcast %"class.content::WebContentsFrameReceiverSet<pdf::mojom::PdfService>::FrameInterfaceBinder"* %0 to <2 x i32 (...)**>*
  store <2 x i32 (...)**> <i32 (...)** bitcast (i8** getelementptr inbounds ({ [7 x i8*], [109 x i8*] }, { [7 x i8*], [109 x i8*] }* @_ZTVN7content27WebContentsFrameReceiverSetIN3pdf5mojom10PdfServiceEE20FrameInterfaceBinderE, i64 0, inrange i32 0, i64 2) to i32 (...)**), i32 (...)** bitcast (i8** getelementptr inbounds ({ [7 x i8*], [109 x i8*] }, { [7 x i8*], [109 x i8*] }* @_ZTVN7content27WebContentsFrameReceiverSetIN3pdf5mojom10PdfServiceEE20FrameInterfaceBinderE, i64 0, inrange i32 1, i64 2) to i32 (...)**)>, <2 x i32 (...)**>* %3, align 8
  %4 = getelementptr inbounds %"class.content::WebContentsFrameReceiverSet<pdf::mojom::PdfService>::FrameInterfaceBinder", %"class.content::WebContentsFrameReceiverSet<pdf::mojom::PdfService>::FrameInterfaceBinder"* %0, i64 0, i32 4, i32 0
  %5 = getelementptr inbounds %"class.content::WebContentsFrameReceiverSet<pdf::mojom::PdfService>::FrameInterfaceBinder", %"class.content::WebContentsFrameReceiverSet<pdf::mojom::PdfService>::FrameInterfaceBinder"* %0, i64 0, i32 4, i32 0, i32 1, i32 0, i32 0
  %6 = bitcast %"class.std::__1::__tree_end_node"* %5 to %"class.std::__1::__tree_node"**
  %7 = load %"class.std::__1::__tree_node"*, %"class.std::__1::__tree_node"** %6, align 8
  tail call void @_ZNSt3__16__treeINS_12__value_typeIPN7content15RenderFrameHostENS_6vectorImNS_9allocatorImEEEEEENS_19__map_value_compareIS4_S9_NS_4lessIS4_EELb1EEENS6_IS9_EEE7destroyEPNS_11__tree_nodeIS9_PvEE(%"class.std::__1::__tree.29"* %4, %"class.std::__1::__tree_node"* %7) #14
  %8 = getelementptr inbounds %"class.content::WebContentsFrameReceiverSet<pdf::mojom::PdfService>::FrameInterfaceBinder", %"class.content::WebContentsFrameReceiverSet<pdf::mojom::PdfService>::FrameInterfaceBinder"* %0, i64 0, i32 3, i32 0
  tail call void @_ZN4mojo16ReceiverSetStateD1Ev(%"class.mojo::ReceiverSetState"* %8) #14
  tail call void @_ZN7content19WebContentsObserverD2Ev(%"class.content::WebContentsObserver"* %2) #14
  %9 = bitcast %"class.content::WebContentsFrameReceiverSet<pdf::mojom::PdfService>::FrameInterfaceBinder"* %0 to i8*
  tail call void @_ZdlPv(i8* %9) #15
  ret void
}

; Function Attrs: nounwind ssp uwtable
define linkonce_odr hidden void @_ZN7content27WebContentsFrameReceiverSetIN3pdf5mojom10PdfServiceEE20FrameInterfaceBinder18OnReceiverForFrameEPNS_15RenderFrameHostEN4mojo29ScopedInterfaceEndpointHandleE(%"class.content::WebContentsFrameReceiverSet<pdf::mojom::PdfService>::FrameInterfaceBinder"*, %"class.content::RenderFrameHost"*, %"class.mojo::ScopedInterfaceEndpointHandle"*) unnamed_addr #0 comdat align 2 {
  %4 = alloca %"class.mojo::PendingAssociatedReceiver", align 8
  %5 = alloca %"class.mojo::PendingAssociatedReceiver", align 8
  %6 = alloca %"class.mojo::ScopedInterfaceEndpointHandle", align 8
  %7 = ptrtoint %"class.content::RenderFrameHost"* %1 to i64
  %8 = getelementptr inbounds %"class.content::WebContentsFrameReceiverSet<pdf::mojom::PdfService>::FrameInterfaceBinder", %"class.content::WebContentsFrameReceiverSet<pdf::mojom::PdfService>::FrameInterfaceBinder"* %0, i64 0, i32 3
  %9 = getelementptr inbounds %"class.content::WebContentsFrameReceiverSet<pdf::mojom::PdfService>::FrameInterfaceBinder", %"class.content::WebContentsFrameReceiverSet<pdf::mojom::PdfService>::FrameInterfaceBinder"* %0, i64 0, i32 2
  %10 = load %"class.pdf::mojom::PdfService"*, %"class.pdf::mojom::PdfService"** %9, align 8
  call void @_ZN4mojo29ScopedInterfaceEndpointHandleC1EOS0_(%"class.mojo::ScopedInterfaceEndpointHandle"* nonnull %6, %"class.mojo::ScopedInterfaceEndpointHandle"* dereferenceable(8) %2) #14
  %11 = getelementptr inbounds %"class.mojo::PendingAssociatedReceiver", %"class.mojo::PendingAssociatedReceiver"* %5, i64 0, i32 0
  call void @_ZN4mojo29ScopedInterfaceEndpointHandleC1EOS0_(%"class.mojo::ScopedInterfaceEndpointHandle"* nonnull %11, %"class.mojo::ScopedInterfaceEndpointHandle"* nonnull dereferenceable(8) %6) #14
  %12 = bitcast %"class.mojo::PendingAssociatedReceiver"* %4 to i8*
  call void @llvm.lifetime.start.p0i8(i64 8, i8* nonnull %12)
  %13 = getelementptr inbounds %"class.mojo::PendingAssociatedReceiver", %"class.mojo::PendingAssociatedReceiver"* %4, i64 0, i32 0
  call void @_ZN4mojo29ScopedInterfaceEndpointHandleC1EOS0_(%"class.mojo::ScopedInterfaceEndpointHandle"* nonnull %13, %"class.mojo::ScopedInterfaceEndpointHandle"* nonnull dereferenceable(8) %11) #14
  %14 = call i64 @_ZN4mojo15ReceiverSetBaseINS_18AssociatedReceiverIN3pdf5mojom10PdfServiceENS_19RawPtrImplRefTraitsIS4_EEEEPN7content15RenderFrameHostEE7AddImplEPS4_NS_25PendingAssociatedReceiverIS4_EESA_13scoped_refptrIN4base19SequencedTaskRunnerEE(%"class.mojo::ReceiverSetBase"* %8, %"class.pdf::mojom::PdfService"* %10, %"class.mojo::PendingAssociatedReceiver"* nonnull %4, %"class.content::RenderFrameHost"* %1, %"class.base::SequencedTaskRunner"* null) #14
  call void @_ZN4mojo29ScopedInterfaceEndpointHandleD1Ev(%"class.mojo::ScopedInterfaceEndpointHandle"* nonnull %13) #14
  call void @llvm.lifetime.end.p0i8(i64 8, i8* nonnull %12)
  call void @_ZN4mojo29ScopedInterfaceEndpointHandleD1Ev(%"class.mojo::ScopedInterfaceEndpointHandle"* nonnull %11) #14
  call void @_ZN4mojo29ScopedInterfaceEndpointHandleD1Ev(%"class.mojo::ScopedInterfaceEndpointHandle"* nonnull %6) #14
  %15 = getelementptr inbounds %"class.content::WebContentsFrameReceiverSet<pdf::mojom::PdfService>::FrameInterfaceBinder", %"class.content::WebContentsFrameReceiverSet<pdf::mojom::PdfService>::FrameInterfaceBinder"* %0, i64 0, i32 4
  %16 = getelementptr inbounds %"class.content::WebContentsFrameReceiverSet<pdf::mojom::PdfService>::FrameInterfaceBinder", %"class.content::WebContentsFrameReceiverSet<pdf::mojom::PdfService>::FrameInterfaceBinder"* %0, i64 0, i32 4, i32 0, i32 1, i32 0, i32 0
  %17 = bitcast %"class.std::__1::__tree_end_node"* %16 to %"class.std::__1::__tree_node"**
  %18 = load %"class.std::__1::__tree_node"*, %"class.std::__1::__tree_node"** %17, align 8
  %19 = icmp eq %"class.std::__1::__tree_node"* %18, null
  br i1 %19, label %48, label %20

20:                                               ; preds = %3
  %21 = getelementptr inbounds %"class.content::WebContentsFrameReceiverSet<pdf::mojom::PdfService>::FrameInterfaceBinder", %"class.content::WebContentsFrameReceiverSet<pdf::mojom::PdfService>::FrameInterfaceBinder"* %0, i64 0, i32 4, i32 0, i32 1, i32 0, i32 0, i32 0
  br label %22

22:                                               ; preds = %44, %20
  %23 = phi %"class.std::__1::__tree_node"* [ %47, %44 ], [ %18, %20 ]
  %24 = phi %"class.std::__1::__tree_node_base"** [ %46, %44 ], [ %21, %20 ]
  %25 = getelementptr inbounds %"class.std::__1::__tree_node", %"class.std::__1::__tree_node"* %23, i64 0, i32 1, i32 0, i32 0
  %26 = load %"class.content::RenderFrameHost"*, %"class.content::RenderFrameHost"** %25, align 8
  %27 = icmp ugt %"class.content::RenderFrameHost"* %26, %1
  br i1 %27, label %28, label %34

28:                                               ; preds = %22
  %29 = getelementptr inbounds %"class.std::__1::__tree_node", %"class.std::__1::__tree_node"* %23, i64 0, i32 0, i32 0, i32 0
  %30 = load %"class.std::__1::__tree_node_base"*, %"class.std::__1::__tree_node_base"** %29, align 8
  %31 = icmp eq %"class.std::__1::__tree_node_base"* %30, null
  br i1 %31, label %32, label %44

32:                                               ; preds = %28
  %33 = getelementptr inbounds %"class.std::__1::__tree_node", %"class.std::__1::__tree_node"* %23, i64 0, i32 0, i32 0
  br label %50

34:                                               ; preds = %22
  %35 = icmp ult %"class.content::RenderFrameHost"* %26, %1
  br i1 %35, label %36, label %42

36:                                               ; preds = %34
  %37 = getelementptr inbounds %"class.std::__1::__tree_node", %"class.std::__1::__tree_node"* %23, i64 0, i32 0, i32 1
  %38 = load %"class.std::__1::__tree_node_base"*, %"class.std::__1::__tree_node_base"** %37, align 8
  %39 = icmp eq %"class.std::__1::__tree_node_base"* %38, null
  br i1 %39, label %40, label %44

40:                                               ; preds = %36
  %41 = getelementptr inbounds %"class.std::__1::__tree_node", %"class.std::__1::__tree_node"* %23, i64 0, i32 0, i32 0
  br label %50

42:                                               ; preds = %34
  %43 = getelementptr inbounds %"class.std::__1::__tree_node", %"class.std::__1::__tree_node"* %23, i64 0, i32 0, i32 0
  br label %50

44:                                               ; preds = %36, %28
  %45 = phi %"class.std::__1::__tree_node_base"* [ %30, %28 ], [ %38, %36 ]
  %46 = phi %"class.std::__1::__tree_node_base"** [ %29, %28 ], [ %37, %36 ]
  %47 = bitcast %"class.std::__1::__tree_node_base"* %45 to %"class.std::__1::__tree_node"*
  br label %22

48:                                               ; preds = %3
  %49 = getelementptr inbounds %"class.std::__1::__tree_end_node", %"class.std::__1::__tree_end_node"* %16, i64 0, i32 0
  br label %50

50:                                               ; preds = %48, %42, %40, %32
  %51 = phi %"class.std::__1::__tree_end_node"* [ %16, %48 ], [ %33, %32 ], [ %41, %40 ], [ %43, %42 ]
  %52 = phi %"class.std::__1::__tree_node_base"** [ %49, %48 ], [ %29, %32 ], [ %37, %40 ], [ %24, %42 ]
  %53 = bitcast %"class.std::__1::__tree_node_base"** %52 to %"class.std::__1::__tree_node"**
  %54 = load %"class.std::__1::__tree_node"*, %"class.std::__1::__tree_node"** %53, align 8
  %55 = icmp eq %"class.std::__1::__tree_node"* %54, null
  br i1 %55, label %56, label %82

56:                                               ; preds = %50
  %57 = call i8* @_Znwm(i64 64) #15, !noalias !6
  %58 = getelementptr inbounds i8, i8* %57, i64 32
  %59 = bitcast i8* %58 to i64*
  store i64 %7, i64* %59, align 8, !noalias !6
  %60 = getelementptr inbounds i8, i8* %57, i64 40
  call void @llvm.memset.p0i8.i64(i8* align 8 %60, i8 0, i64 24, i1 false) #14, !noalias !6
  %61 = bitcast i8* %57 to %"class.std::__1::__tree_node"*
  %62 = bitcast i8* %57 to %"class.std::__1::__tree_node_base"*
  %63 = getelementptr inbounds i8, i8* %57, i64 16
  %64 = bitcast i8* %63 to %"class.std::__1::__tree_end_node"**
  call void @llvm.memset.p0i8.i64(i8* nonnull align 8 %57, i8 0, i64 16, i1 false) #14
  store %"class.std::__1::__tree_end_node"* %51, %"class.std::__1::__tree_end_node"** %64, align 8
  %65 = bitcast %"class.std::__1::__tree_node_base"** %52 to i8**
  store i8* %57, i8** %65, align 8
  %66 = getelementptr inbounds %"class.std::__1::map.28", %"class.std::__1::map.28"* %15, i64 0, i32 0, i32 0
  %67 = load %"class.std::__1::__tree_end_node"*, %"class.std::__1::__tree_end_node"** %66, align 8
  %68 = getelementptr inbounds %"class.std::__1::__tree_end_node", %"class.std::__1::__tree_end_node"* %67, i64 0, i32 0
  %69 = load %"class.std::__1::__tree_node_base"*, %"class.std::__1::__tree_node_base"** %68, align 8
  %70 = icmp eq %"class.std::__1::__tree_node_base"* %69, null
  br i1 %70, label %75, label %71

71:                                               ; preds = %56
  %72 = ptrtoint %"class.std::__1::__tree_node_base"* %69 to i64
  %73 = bitcast %"class.std::__1::map.28"* %15 to i64*
  store i64 %72, i64* %73, align 8
  %74 = load %"class.std::__1::__tree_node_base"*, %"class.std::__1::__tree_node_base"** %52, align 8
  br label %75

75:                                               ; preds = %71, %56
  %76 = phi %"class.std::__1::__tree_node_base"* [ %62, %56 ], [ %74, %71 ]
  %77 = getelementptr inbounds %"class.content::WebContentsFrameReceiverSet<pdf::mojom::PdfService>::FrameInterfaceBinder", %"class.content::WebContentsFrameReceiverSet<pdf::mojom::PdfService>::FrameInterfaceBinder"* %0, i64 0, i32 4, i32 0, i32 1, i32 0, i32 0, i32 0
  %78 = load %"class.std::__1::__tree_node_base"*, %"class.std::__1::__tree_node_base"** %77, align 8
  call void @_ZNSt3__127__tree_balance_after_insertIPNS_16__tree_node_baseIPvEEEEvT_S5_(%"class.std::__1::__tree_node_base"* %78, %"class.std::__1::__tree_node_base"* %76) #14
  %79 = getelementptr inbounds %"class.content::WebContentsFrameReceiverSet<pdf::mojom::PdfService>::FrameInterfaceBinder", %"class.content::WebContentsFrameReceiverSet<pdf::mojom::PdfService>::FrameInterfaceBinder"* %0, i64 0, i32 4, i32 0, i32 2, i32 0, i32 0
  %80 = load i64, i64* %79, align 8
  %81 = add i64 %80, 1
  store i64 %81, i64* %79, align 8
  br label %82

82:                                               ; preds = %50, %75
  %83 = phi %"class.std::__1::__tree_node"* [ %61, %75 ], [ %54, %50 ]
  %84 = getelementptr inbounds %"class.std::__1::__tree_node", %"class.std::__1::__tree_node"* %83, i64 0, i32 1, i32 0, i32 1
  %85 = getelementptr inbounds %"class.std::__1::__tree_node", %"class.std::__1::__tree_node"* %83, i64 0, i32 1, i32 0, i32 1, i32 0, i32 1
  %86 = load i64*, i64** %85, align 8
  %87 = getelementptr inbounds %"class.std::__1::__tree_node", %"class.std::__1::__tree_node"* %83, i64 0, i32 1, i32 0, i32 1, i32 0, i32 2, i32 0, i32 0
  %88 = load i64*, i64** %87, align 8
  %89 = icmp eq i64* %86, %88
  %90 = ptrtoint i64* %88 to i64
  br i1 %89, label %95, label %91

91:                                               ; preds = %82
  store i64 %14, i64* %86, align 8
  %92 = getelementptr inbounds i64, i64* %86, i64 1
  %93 = ptrtoint i64* %92 to i64
  %94 = bitcast i64** %85 to i64*
  store i64 %93, i64* %94, align 8
  br label %151

95:                                               ; preds = %82
  %96 = ptrtoint i64* %86 to i64
  %97 = bitcast i64** %85 to i64*
  %98 = bitcast %"class.std::__1::vector.299"* %84 to i64*
  %99 = load i64, i64* %98, align 8
  %100 = sub i64 %96, %99
  %101 = ashr exact i64 %100, 3
  %102 = add nsw i64 %101, 1
  %103 = icmp ugt i64 %102, 2305843009213693951
  br i1 %103, label %104, label %106

104:                                              ; preds = %95
  %105 = bitcast %"class.std::__1::vector.299"* %84 to %"class.std::__1::__vector_base_common"*
  call void @_ZNKSt3__120__vector_base_commonILb1EE20__throw_length_errorEv(%"class.std::__1::__vector_base_common"* %105) #16
  unreachable

106:                                              ; preds = %95
  %107 = bitcast i64** %87 to i64*
  %108 = sub i64 %90, %99
  %109 = ashr exact i64 %108, 3
  %110 = icmp ult i64 %109, 1152921504606846975
  br i1 %110, label %111, label %119

111:                                              ; preds = %106
  %112 = ashr exact i64 %108, 2
  %113 = icmp ult i64 %112, %102
  %114 = select i1 %113, i64 %102, i64 %112
  %115 = icmp eq i64 %114, 0
  br i1 %115, label %124, label %116

116:                                              ; preds = %111
  %117 = icmp ugt i64 %114, 2305843009213693951
  br i1 %117, label %118, label %119

118:                                              ; preds = %116
  call void @abort() #16
  unreachable

119:                                              ; preds = %116, %106
  %120 = phi i64 [ %114, %116 ], [ 2305843009213693951, %106 ]
  %121 = shl i64 %120, 3
  %122 = call i8* @_Znwm(i64 %121) #15
  %123 = bitcast i8* %122 to i64*
  br label %124

124:                                              ; preds = %119, %111
  %125 = phi i64 [ %120, %119 ], [ 0, %111 ]
  %126 = phi i64* [ %123, %119 ], [ null, %111 ]
  %127 = getelementptr inbounds i64, i64* %126, i64 %101
  %128 = getelementptr inbounds i64, i64* %126, i64 %125
  %129 = ptrtoint i64* %128 to i64
  store i64 %14, i64* %127, align 8
  %130 = getelementptr inbounds i64, i64* %127, i64 1
  %131 = ptrtoint i64* %130 to i64
  %132 = getelementptr inbounds %"class.std::__1::vector.299", %"class.std::__1::vector.299"* %84, i64 0, i32 0, i32 0
  %133 = load i64*, i64** %132, align 8
  %134 = load i64, i64* %97, align 8
  %135 = ptrtoint i64* %133 to i64
  %136 = sub i64 %134, %135
  %137 = ashr exact i64 %136, 3
  %138 = sub nsw i64 0, %137
  %139 = getelementptr inbounds i64, i64* %127, i64 %138
  %140 = ptrtoint i64* %139 to i64
  %141 = icmp sgt i64 %136, 0
  br i1 %141, label %142, label %146

142:                                              ; preds = %124
  %143 = bitcast i64* %139 to i8*
  %144 = bitcast i64* %133 to i8*
  call void @llvm.memcpy.p0i8.p0i8.i64(i8* align 8 %143, i8* align 8 %144, i64 %136, i1 false) #14
  %145 = load i64*, i64** %132, align 8
  br label %146

146:                                              ; preds = %142, %124
  %147 = phi i64* [ %133, %124 ], [ %145, %142 ]
  store i64 %140, i64* %98, align 8
  store i64 %131, i64* %97, align 8
  store i64 %129, i64* %107, align 8
  %148 = icmp eq i64* %147, null
  br i1 %148, label %151, label %149

149:                                              ; preds = %146
  %150 = bitcast i64* %147 to i8*
  call void @_ZdlPv(i8* %150) #15
  br label %151

151:                                              ; preds = %91, %146, %149
  ret void
}

; Function Attrs: nounwind ssp uwtable
define linkonce_odr hidden void @_ZN7content27WebContentsFrameReceiverSetIN3pdf5mojom10PdfServiceEE20FrameInterfaceBinder17CloseAllReceiversEv(%"class.content::WebContentsFrameReceiverSet<pdf::mojom::PdfService>::FrameInterfaceBinder"*) unnamed_addr #0 comdat align 2 {
  %2 = getelementptr inbounds %"class.content::WebContentsFrameReceiverSet<pdf::mojom::PdfService>::FrameInterfaceBinder", %"class.content::WebContentsFrameReceiverSet<pdf::mojom::PdfService>::FrameInterfaceBinder"* %0, i64 0, i32 3, i32 0, i32 3
  %3 = getelementptr inbounds %"class.std::__1::map.16", %"class.std::__1::map.16"* %2, i64 0, i32 0
  %4 = getelementptr inbounds %"class.content::WebContentsFrameReceiverSet<pdf::mojom::PdfService>::FrameInterfaceBinder", %"class.content::WebContentsFrameReceiverSet<pdf::mojom::PdfService>::FrameInterfaceBinder"* %0, i64 0, i32 3, i32 0, i32 3, i32 0, i32 1, i32 0, i32 0
  %5 = bitcast %"class.std::__1::__tree_end_node"* %4 to %"class.std::__1::__tree_node.357"**
  %6 = load %"class.std::__1::__tree_node.357"*, %"class.std::__1::__tree_node.357"** %5, align 8
  tail call void @_ZNSt3__16__treeINS_12__value_typeImNS_10unique_ptrIN4mojo16ReceiverSetState5EntryENS_14default_deleteIS5_EEEEEENS_19__map_value_compareImS9_NS_4lessImEELb1EEENS_9allocatorIS9_EEE7destroyEPNS_11__tree_nodeIS9_PvEE(%"class.std::__1::__tree.17"* %3, %"class.std::__1::__tree_node.357"* %6) #14
  %7 = getelementptr inbounds %"class.content::WebContentsFrameReceiverSet<pdf::mojom::PdfService>::FrameInterfaceBinder", %"class.content::WebContentsFrameReceiverSet<pdf::mojom::PdfService>::FrameInterfaceBinder"* %0, i64 0, i32 3, i32 0, i32 3, i32 0, i32 2, i32 0, i32 0
  store i64 0, i64* %7, align 8
  %8 = getelementptr inbounds %"class.std::__1::map.16", %"class.std::__1::map.16"* %2, i64 0, i32 0, i32 0
  store %"class.std::__1::__tree_end_node"* %4, %"class.std::__1::__tree_end_node"** %8, align 8
  %9 = getelementptr inbounds %"class.std::__1::__tree_end_node", %"class.std::__1::__tree_end_node"* %4, i64 0, i32 0
  store %"class.std::__1::__tree_node_base"* null, %"class.std::__1::__tree_node_base"** %9, align 8
  ret void
}

; Function Attrs: nounwind ssp uwtable
define linkonce_odr hidden void @_ZN7content27WebContentsFrameReceiverSetIN3pdf5mojom10PdfServiceEE20FrameInterfaceBinder18RenderFrameDeletedEPNS_15RenderFrameHostE(%"class.content::WebContentsFrameReceiverSet<pdf::mojom::PdfService>::FrameInterfaceBinder"*, %"class.content::RenderFrameHost"*) unnamed_addr #0 comdat align 2 {
  %3 = getelementptr inbounds %"class.content::WebContentsFrameReceiverSet<pdf::mojom::PdfService>::FrameInterfaceBinder", %"class.content::WebContentsFrameReceiverSet<pdf::mojom::PdfService>::FrameInterfaceBinder"* %0, i64 0, i32 4
  %4 = getelementptr inbounds %"class.content::WebContentsFrameReceiverSet<pdf::mojom::PdfService>::FrameInterfaceBinder", %"class.content::WebContentsFrameReceiverSet<pdf::mojom::PdfService>::FrameInterfaceBinder"* %0, i64 0, i32 4, i32 0, i32 1, i32 0, i32 0
  %5 = bitcast %"class.std::__1::__tree_end_node"* %4 to %"class.std::__1::__tree_node"**
  %6 = load %"class.std::__1::__tree_node"*, %"class.std::__1::__tree_node"** %5, align 8
  %7 = icmp eq %"class.std::__1::__tree_node"* %6, null
  br i1 %7, label %96, label %8

8:                                                ; preds = %2, %8
  %9 = phi %"class.std::__1::__tree_end_node"* [ %19, %8 ], [ %4, %2 ]
  %10 = phi %"class.std::__1::__tree_node"* [ %20, %8 ], [ %6, %2 ]
  %11 = getelementptr inbounds %"class.std::__1::__tree_node", %"class.std::__1::__tree_node"* %10, i64 0, i32 1, i32 0, i32 0
  %12 = load %"class.content::RenderFrameHost"*, %"class.content::RenderFrameHost"** %11, align 8
  %13 = icmp ult %"class.content::RenderFrameHost"* %12, %1
  %14 = getelementptr inbounds %"class.std::__1::__tree_node", %"class.std::__1::__tree_node"* %10, i64 0, i32 0, i32 1
  %15 = bitcast %"class.std::__1::__tree_node_base"** %14 to %"class.std::__1::__tree_node"**
  %16 = getelementptr inbounds %"class.std::__1::__tree_node", %"class.std::__1::__tree_node"* %10, i64 0, i32 0, i32 0
  %17 = bitcast %"class.std::__1::__tree_node"* %10 to %"class.std::__1::__tree_node"**
  %18 = select i1 %13, %"class.std::__1::__tree_node"** %15, %"class.std::__1::__tree_node"** %17
  %19 = select i1 %13, %"class.std::__1::__tree_end_node"* %9, %"class.std::__1::__tree_end_node"* %16
  %20 = load %"class.std::__1::__tree_node"*, %"class.std::__1::__tree_node"** %18, align 8
  %21 = icmp eq %"class.std::__1::__tree_node"* %20, null
  br i1 %21, label %22, label %8

22:                                               ; preds = %8
  %23 = icmp eq %"class.std::__1::__tree_end_node"* %19, %4
  br i1 %23, label %96, label %24

24:                                               ; preds = %22
  %25 = getelementptr inbounds %"class.std::__1::__tree_end_node", %"class.std::__1::__tree_end_node"* %19, i64 4
  %26 = bitcast %"class.std::__1::__tree_end_node"* %25 to %"class.content::RenderFrameHost"**
  %27 = load %"class.content::RenderFrameHost"*, %"class.content::RenderFrameHost"** %26, align 8
  %28 = icmp ugt %"class.content::RenderFrameHost"* %27, %1
  br i1 %28, label %96, label %29

29:                                               ; preds = %24
  %30 = getelementptr inbounds %"class.std::__1::__tree_end_node", %"class.std::__1::__tree_end_node"* %19, i64 5
  %31 = bitcast %"class.std::__1::__tree_end_node"* %30 to i64**
  %32 = load i64*, i64** %31, align 8
  %33 = getelementptr inbounds %"class.std::__1::__tree_end_node", %"class.std::__1::__tree_end_node"* %19, i64 6
  %34 = bitcast %"class.std::__1::__tree_end_node"* %33 to i64**
  %35 = load i64*, i64** %34, align 8
  %36 = icmp eq i64* %32, %35
  br i1 %36, label %39, label %37

37:                                               ; preds = %29
  %38 = getelementptr inbounds %"class.content::WebContentsFrameReceiverSet<pdf::mojom::PdfService>::FrameInterfaceBinder", %"class.content::WebContentsFrameReceiverSet<pdf::mojom::PdfService>::FrameInterfaceBinder"* %0, i64 0, i32 3, i32 0
  br label %90

39:                                               ; preds = %90, %29
  %40 = getelementptr inbounds %"class.std::__1::__tree_end_node", %"class.std::__1::__tree_end_node"* %19, i64 1, i32 0
  %41 = load %"class.std::__1::__tree_node_base"*, %"class.std::__1::__tree_node_base"** %40, align 8
  %42 = icmp eq %"class.std::__1::__tree_node_base"* %41, null
  br i1 %42, label %43, label %51

43:                                               ; preds = %39
  %44 = bitcast %"class.std::__1::__tree_end_node"* %19 to %"class.std::__1::__tree_node_base"*
  %45 = getelementptr inbounds %"class.std::__1::__tree_end_node", %"class.std::__1::__tree_end_node"* %19, i64 2
  %46 = bitcast %"class.std::__1::__tree_end_node"* %45 to %"class.std::__1::__tree_end_node"**
  %47 = load %"class.std::__1::__tree_end_node"*, %"class.std::__1::__tree_end_node"** %46, align 8
  %48 = getelementptr inbounds %"class.std::__1::__tree_end_node", %"class.std::__1::__tree_end_node"* %47, i64 0, i32 0
  %49 = load %"class.std::__1::__tree_node_base"*, %"class.std::__1::__tree_node_base"** %48, align 8
  %50 = icmp eq %"class.std::__1::__tree_node_base"* %49, %44
  br i1 %50, label %67, label %58

51:                                               ; preds = %39, %51
  %52 = phi %"class.std::__1::__tree_node_base"* [ %54, %51 ], [ %41, %39 ]
  %53 = getelementptr inbounds %"class.std::__1::__tree_node_base", %"class.std::__1::__tree_node_base"* %52, i64 0, i32 0, i32 0
  %54 = load %"class.std::__1::__tree_node_base"*, %"class.std::__1::__tree_node_base"** %53, align 8
  %55 = icmp eq %"class.std::__1::__tree_node_base"* %54, null
  br i1 %55, label %56, label %51

56:                                               ; preds = %51
  %57 = getelementptr inbounds %"class.std::__1::__tree_node_base", %"class.std::__1::__tree_node_base"* %52, i64 0, i32 0
  br label %67

58:                                               ; preds = %43, %58
  %59 = phi %"class.std::__1::__tree_end_node"** [ %62, %58 ], [ %46, %43 ]
  %60 = bitcast %"class.std::__1::__tree_end_node"** %59 to %"class.std::__1::__tree_node_base"**
  %61 = load %"class.std::__1::__tree_node_base"*, %"class.std::__1::__tree_node_base"** %60, align 8
  %62 = getelementptr inbounds %"class.std::__1::__tree_node_base", %"class.std::__1::__tree_node_base"* %61, i64 0, i32 2
  %63 = load %"class.std::__1::__tree_end_node"*, %"class.std::__1::__tree_end_node"** %62, align 8
  %64 = getelementptr inbounds %"class.std::__1::__tree_end_node", %"class.std::__1::__tree_end_node"* %63, i64 0, i32 0
  %65 = load %"class.std::__1::__tree_node_base"*, %"class.std::__1::__tree_node_base"** %64, align 8
  %66 = icmp eq %"class.std::__1::__tree_node_base"* %65, %61
  br i1 %66, label %67, label %58

67:                                               ; preds = %58, %56, %43
  %68 = phi %"class.std::__1::__tree_end_node"* [ %57, %56 ], [ %47, %43 ], [ %63, %58 ]
  %69 = getelementptr inbounds %"class.std::__1::map.28", %"class.std::__1::map.28"* %3, i64 0, i32 0, i32 0
  %70 = load %"class.std::__1::__tree_end_node"*, %"class.std::__1::__tree_end_node"** %69, align 8
  %71 = icmp eq %"class.std::__1::__tree_end_node"* %70, %19
  br i1 %71, label %72, label %75

72:                                               ; preds = %67
  %73 = ptrtoint %"class.std::__1::__tree_end_node"* %68 to i64
  %74 = bitcast %"class.std::__1::map.28"* %3 to i64*
  store i64 %73, i64* %74, align 8
  br label %75

75:                                               ; preds = %72, %67
  %76 = getelementptr inbounds %"class.content::WebContentsFrameReceiverSet<pdf::mojom::PdfService>::FrameInterfaceBinder", %"class.content::WebContentsFrameReceiverSet<pdf::mojom::PdfService>::FrameInterfaceBinder"* %0, i64 0, i32 4, i32 0, i32 2, i32 0, i32 0
  %77 = load i64, i64* %76, align 8
  %78 = add i64 %77, -1
  store i64 %78, i64* %76, align 8
  %79 = getelementptr inbounds %"class.content::WebContentsFrameReceiverSet<pdf::mojom::PdfService>::FrameInterfaceBinder", %"class.content::WebContentsFrameReceiverSet<pdf::mojom::PdfService>::FrameInterfaceBinder"* %0, i64 0, i32 4, i32 0, i32 1, i32 0, i32 0, i32 0
  %80 = load %"class.std::__1::__tree_node_base"*, %"class.std::__1::__tree_node_base"** %79, align 8
  %81 = bitcast %"class.std::__1::__tree_end_node"* %19 to %"class.std::__1::__tree_node_base"*
  tail call void @_ZNSt3__113__tree_removeIPNS_16__tree_node_baseIPvEEEEvT_S5_(%"class.std::__1::__tree_node_base"* %80, %"class.std::__1::__tree_node_base"* %81) #14
  %82 = load i64*, i64** %31, align 8
  %83 = icmp eq i64* %82, null
  br i1 %83, label %88, label %84

84:                                               ; preds = %75
  %85 = ptrtoint i64* %82 to i64
  %86 = bitcast %"class.std::__1::__tree_end_node"* %33 to i64*
  store i64 %85, i64* %86, align 8
  %87 = bitcast i64* %82 to i8*
  tail call void @_ZdlPv(i8* %87) #15
  br label %88

88:                                               ; preds = %75, %84
  %89 = bitcast %"class.std::__1::__tree_end_node"* %19 to i8*
  tail call void @_ZdlPv(i8* %89) #15
  br label %96

90:                                               ; preds = %37, %90
  %91 = phi i64* [ %32, %37 ], [ %94, %90 ]
  %92 = load i64, i64* %91, align 8
  %93 = tail call zeroext i1 @_ZN4mojo16ReceiverSetState6RemoveEm(%"class.mojo::ReceiverSetState"* %38, i64 %92) #14
  %94 = getelementptr inbounds i64, i64* %91, i64 1
  %95 = icmp eq i64* %94, %35
  br i1 %95, label %39, label %90

96:                                               ; preds = %24, %22, %2, %88
  ret void
}

; Function Attrs: nounwind ssp uwtable
define linkonce_odr hidden void @_ZThn8_N7content27WebContentsFrameReceiverSetIN3pdf5mojom10PdfServiceEE20FrameInterfaceBinderD0Ev(%"class.content::WebContentsFrameReceiverSet<pdf::mojom::PdfService>::FrameInterfaceBinder"*) unnamed_addr #0 comdat align 2 {
  %2 = getelementptr inbounds %"class.content::WebContentsFrameReceiverSet<pdf::mojom::PdfService>::FrameInterfaceBinder", %"class.content::WebContentsFrameReceiverSet<pdf::mojom::PdfService>::FrameInterfaceBinder"* %0, i64 -1, i32 4, i32 0, i32 2
  %3 = getelementptr inbounds %"class.std::__1::__compressed_pair.34", %"class.std::__1::__compressed_pair.34"* %2, i64 1
  %4 = bitcast %"class.std::__1::__compressed_pair.34"* %3 to %"class.content::WebContentsObserver"*
  %5 = bitcast %"class.std::__1::__compressed_pair.34"* %2 to <2 x i32 (...)**>*
  store <2 x i32 (...)**> <i32 (...)** bitcast (i8** getelementptr inbounds ({ [7 x i8*], [109 x i8*] }, { [7 x i8*], [109 x i8*] }* @_ZTVN7content27WebContentsFrameReceiverSetIN3pdf5mojom10PdfServiceEE20FrameInterfaceBinderE, i64 0, inrange i32 0, i64 2) to i32 (...)**), i32 (...)** bitcast (i8** getelementptr inbounds ({ [7 x i8*], [109 x i8*] }, { [7 x i8*], [109 x i8*] }* @_ZTVN7content27WebContentsFrameReceiverSetIN3pdf5mojom10PdfServiceEE20FrameInterfaceBinderE, i64 0, inrange i32 1, i64 2) to i32 (...)**)>, <2 x i32 (...)**>* %5, align 8
  %6 = getelementptr inbounds %"class.std::__1::__compressed_pair.34", %"class.std::__1::__compressed_pair.34"* %2, i64 14
  %7 = bitcast %"class.std::__1::__compressed_pair.34"* %6 to %"class.std::__1::__tree.29"*
  %8 = getelementptr inbounds %"class.std::__1::__compressed_pair.34", %"class.std::__1::__compressed_pair.34"* %2, i64 15
  %9 = bitcast %"class.std::__1::__compressed_pair.34"* %8 to %"class.std::__1::__tree_node"**
  %10 = load %"class.std::__1::__tree_node"*, %"class.std::__1::__tree_node"** %9, align 8
  tail call void @_ZNSt3__16__treeINS_12__value_typeIPN7content15RenderFrameHostENS_6vectorImNS_9allocatorImEEEEEENS_19__map_value_compareIS4_S9_NS_4lessIS4_EELb1EEENS6_IS9_EEE7destroyEPNS_11__tree_nodeIS9_PvEE(%"class.std::__1::__tree.29"* %7, %"class.std::__1::__tree_node"* %10) #14
  %11 = getelementptr inbounds %"class.std::__1::__compressed_pair.34", %"class.std::__1::__compressed_pair.34"* %2, i64 4
  %12 = bitcast %"class.std::__1::__compressed_pair.34"* %11 to %"class.mojo::ReceiverSetState"*
  tail call void @_ZN4mojo16ReceiverSetStateD1Ev(%"class.mojo::ReceiverSetState"* %12) #14
  tail call void @_ZN7content19WebContentsObserverD2Ev(%"class.content::WebContentsObserver"* %4) #14
  %13 = bitcast %"class.std::__1::__compressed_pair.34"* %2 to i8*
  tail call void @_ZdlPv(i8* %13) #15
  ret void
}

; Function Attrs: nounwind ssp uwtable
define linkonce_odr hidden void @_ZThn8_N7content27WebContentsFrameReceiverSetIN3pdf5mojom10PdfServiceEE20FrameInterfaceBinder18RenderFrameDeletedEPNS_15RenderFrameHostE(%"class.content::WebContentsFrameReceiverSet<pdf::mojom::PdfService>::FrameInterfaceBinder"*, %"class.content::RenderFrameHost"*) unnamed_addr #0 comdat align 2 {
  %3 = getelementptr inbounds %"class.content::WebContentsFrameReceiverSet<pdf::mojom::PdfService>::FrameInterfaceBinder", %"class.content::WebContentsFrameReceiverSet<pdf::mojom::PdfService>::FrameInterfaceBinder"* %0, i64 -1, i32 4, i32 0, i32 2
  %4 = bitcast %"class.std::__1::__compressed_pair.34"* %3 to %"class.content::WebContentsFrameReceiverSet<pdf::mojom::PdfService>::FrameInterfaceBinder"*
  tail call void @_ZN7content27WebContentsFrameReceiverSetIN3pdf5mojom10PdfServiceEE20FrameInterfaceBinder18RenderFrameDeletedEPNS_15RenderFrameHostE(%"class.content::WebContentsFrameReceiverSet<pdf::mojom::PdfService>::FrameInterfaceBinder"* %4, %"class.content::RenderFrameHost"* %1)
  ret void
}

; Function Attrs: nounwind ssp uwtable
define linkonce_odr hidden void @_ZNSt3__16__treeINS_12__value_typeIPN7content15RenderFrameHostENS_6vectorImNS_9allocatorImEEEEEENS_19__map_value_compareIS4_S9_NS_4lessIS4_EELb1EEENS6_IS9_EEE7destroyEPNS_11__tree_nodeIS9_PvEE(%"class.std::__1::__tree.29"*, %"class.std::__1::__tree_node"*) local_unnamed_addr #0 comdat align 2 {
  %3 = icmp eq %"class.std::__1::__tree_node"* %1, null
  br i1 %3, label %20, label %4

4:                                                ; preds = %2
  %5 = bitcast %"class.std::__1::__tree_node"* %1 to %"class.std::__1::__tree_node"**
  %6 = load %"class.std::__1::__tree_node"*, %"class.std::__1::__tree_node"** %5, align 8
  tail call void @_ZNSt3__16__treeINS_12__value_typeIPN7content15RenderFrameHostENS_6vectorImNS_9allocatorImEEEEEENS_19__map_value_compareIS4_S9_NS_4lessIS4_EELb1EEENS6_IS9_EEE7destroyEPNS_11__tree_nodeIS9_PvEE(%"class.std::__1::__tree.29"* %0, %"class.std::__1::__tree_node"* %6) #14
  %7 = getelementptr inbounds %"class.std::__1::__tree_node", %"class.std::__1::__tree_node"* %1, i64 0, i32 0, i32 1
  %8 = bitcast %"class.std::__1::__tree_node_base"** %7 to %"class.std::__1::__tree_node"**
  %9 = load %"class.std::__1::__tree_node"*, %"class.std::__1::__tree_node"** %8, align 8
  tail call void @_ZNSt3__16__treeINS_12__value_typeIPN7content15RenderFrameHostENS_6vectorImNS_9allocatorImEEEEEENS_19__map_value_compareIS4_S9_NS_4lessIS4_EELb1EEENS6_IS9_EEE7destroyEPNS_11__tree_nodeIS9_PvEE(%"class.std::__1::__tree.29"* %0, %"class.std::__1::__tree_node"* %9) #14
  %10 = getelementptr inbounds %"class.std::__1::__tree_node", %"class.std::__1::__tree_node"* %1, i64 0, i32 1, i32 0, i32 1, i32 0, i32 0
  %11 = load i64*, i64** %10, align 8
  %12 = icmp eq i64* %11, null
  br i1 %12, label %18, label %13

13:                                               ; preds = %4
  %14 = ptrtoint i64* %11 to i64
  %15 = getelementptr inbounds %"class.std::__1::__tree_node", %"class.std::__1::__tree_node"* %1, i64 0, i32 1, i32 0, i32 1, i32 0, i32 1
  %16 = bitcast i64** %15 to i64*
  store i64 %14, i64* %16, align 8
  %17 = bitcast i64* %11 to i8*
  tail call void @_ZdlPv(i8* %17) #15
  br label %18

18:                                               ; preds = %4, %13
  %19 = bitcast %"class.std::__1::__tree_node"* %1 to i8*
  tail call void @_ZdlPv(i8* %19) #15
  br label %20

20:                                               ; preds = %2, %18
  ret void
}

; Function Attrs: nounwind
declare void @_ZN4mojo16ReceiverSetStateD1Ev(%"class.mojo::ReceiverSetState"*) unnamed_addr #4

declare void @_ZN4mojo29ScopedInterfaceEndpointHandleC1EOS0_(%"class.mojo::ScopedInterfaceEndpointHandle"*, %"class.mojo::ScopedInterfaceEndpointHandle"* dereferenceable(8)) unnamed_addr #1

; Function Attrs: nounwind
declare void @_ZN4mojo29ScopedInterfaceEndpointHandleD1Ev(%"class.mojo::ScopedInterfaceEndpointHandle"*) unnamed_addr #4

; Function Attrs: nounwind ssp uwtable
define linkonce_odr hidden i64 @_ZN4mojo15ReceiverSetBaseINS_18AssociatedReceiverIN3pdf5mojom10PdfServiceENS_19RawPtrImplRefTraitsIS4_EEEEPN7content15RenderFrameHostEE7AddImplEPS4_NS_25PendingAssociatedReceiverIS4_EESA_13scoped_refptrIN4base19SequencedTaskRunnerEE(%"class.mojo::ReceiverSetBase"*, %"class.pdf::mojom::PdfService"*, %"class.mojo::PendingAssociatedReceiver"*, %"class.content::RenderFrameHost"*, %"class.base::SequencedTaskRunner"*) local_unnamed_addr #0 comdat align 2 {
  %6 = alloca %"class.mojo::PendingAssociatedReceiver", align 8
  %7 = alloca %"class.mojo::PendingAssociatedReceiver", align 8
  %8 = alloca %"class.mojo::PendingAssociatedReceiver", align 8
  %9 = ptrtoint %"class.pdf::mojom::PdfService"* %1 to i64
  %10 = ptrtoint %"class.content::RenderFrameHost"* %3 to i64
  %11 = getelementptr inbounds %"class.mojo::ReceiverSetBase", %"class.mojo::ReceiverSetBase"* %0, i64 0, i32 0
  %12 = bitcast %"class.mojo::PendingAssociatedReceiver"* %8 to i8*
  call void @llvm.lifetime.start.p0i8(i64 8, i8* nonnull %12)
  %13 = tail call i8* @_Znwm(i64 56) #15
  %14 = getelementptr inbounds %"class.mojo::PendingAssociatedReceiver", %"class.mojo::PendingAssociatedReceiver"* %8, i64 0, i32 0
  %15 = getelementptr inbounds %"class.mojo::PendingAssociatedReceiver", %"class.mojo::PendingAssociatedReceiver"* %2, i64 0, i32 0
  call void @_ZN4mojo29ScopedInterfaceEndpointHandleC1EOS0_(%"class.mojo::ScopedInterfaceEndpointHandle"* nonnull %14, %"class.mojo::ScopedInterfaceEndpointHandle"* dereferenceable(8) %15) #14
  %16 = bitcast %"class.mojo::PendingAssociatedReceiver"* %7 to i8*
  call void @llvm.lifetime.start.p0i8(i64 8, i8* nonnull %16) #14
  %17 = bitcast i8* %13 to i32 (...)***
  store i32 (...)** bitcast (i8** getelementptr inbounds ({ [7 x i8*] }, { [7 x i8*] }* @_ZTVN4mojo15ReceiverSetBaseINS_18AssociatedReceiverIN3pdf5mojom10PdfServiceENS_19RawPtrImplRefTraitsIS4_EEEEPN7content15RenderFrameHostEE13ReceiverEntryE, i64 0, inrange i32 0, i64 2) to i32 (...)**), i32 (...)*** %17, align 8
  %18 = getelementptr inbounds i8, i8* %13, i64 8
  %19 = bitcast i8* %18 to %"class.mojo::AssociatedReceiver"*
  %20 = getelementptr inbounds %"class.mojo::PendingAssociatedReceiver", %"class.mojo::PendingAssociatedReceiver"* %7, i64 0, i32 0
  call void @_ZN4mojo29ScopedInterfaceEndpointHandleC1EOS0_(%"class.mojo::ScopedInterfaceEndpointHandle"* nonnull %20, %"class.mojo::ScopedInterfaceEndpointHandle"* nonnull dereferenceable(8) %14) #14
  %21 = bitcast %"class.mojo::PendingAssociatedReceiver"* %6 to i8*
  call void @llvm.lifetime.start.p0i8(i64 8, i8* nonnull %21) #14
  %22 = bitcast i8* %18 to %"class.mojo::internal::AssociatedReceiverBase"*
  call void @_ZN4mojo8internal22AssociatedReceiverBaseC2Ev(%"class.mojo::internal::AssociatedReceiverBase"* %22) #14
  %23 = getelementptr inbounds i8, i8* %13, i64 16
  %24 = bitcast i8* %23 to i32 (...)***
  store i32 (...)** bitcast (i8** getelementptr inbounds ({ [7 x i8*] }, { [7 x i8*] }* @_ZTVN3pdf5mojom14PdfServiceStubIN4mojo19RawPtrImplRefTraitsINS0_10PdfServiceEEEEE, i64 0, inrange i32 0, i64 2) to i32 (...)**), i32 (...)*** %24, align 8
  %25 = getelementptr inbounds i8, i8* %13, i64 32
  %26 = bitcast i8* %25 to %"class.base::internal::WeakPtrFactoryBase"*
  %27 = ptrtoint i8* %18 to i64
  call void @_ZN4base8internal18WeakPtrFactoryBaseC2Em(%"class.base::internal::WeakPtrFactoryBase"* %26, i64 %27) #14
  %28 = getelementptr inbounds i8, i8* %13, i64 24
  %29 = bitcast i8* %28 to i64*
  store i64 %9, i64* %29, align 8
  %30 = getelementptr inbounds %"class.mojo::PendingAssociatedReceiver", %"class.mojo::PendingAssociatedReceiver"* %6, i64 0, i32 0
  call void @_ZN4mojo29ScopedInterfaceEndpointHandleC1EOS0_(%"class.mojo::ScopedInterfaceEndpointHandle"* nonnull %30, %"class.mojo::ScopedInterfaceEndpointHandle"* nonnull dereferenceable(8) %20) #14
  call void @_ZN4mojo18AssociatedReceiverIN3pdf5mojom10PdfServiceENS_19RawPtrImplRefTraitsIS3_EEE4BindENS_25PendingAssociatedReceiverIS3_EE13scoped_refptrIN4base19SequencedTaskRunnerEE(%"class.mojo::AssociatedReceiver"* %19, %"class.mojo::PendingAssociatedReceiver"* nonnull %6, %"class.base::SequencedTaskRunner"* %4) #14
  call void @_ZN4mojo29ScopedInterfaceEndpointHandleD1Ev(%"class.mojo::ScopedInterfaceEndpointHandle"* nonnull %30) #14
  call void @llvm.lifetime.end.p0i8(i64 8, i8* nonnull %21) #14
  call void @_ZN4mojo29ScopedInterfaceEndpointHandleD1Ev(%"class.mojo::ScopedInterfaceEndpointHandle"* nonnull %20) #14
  %31 = getelementptr inbounds i8, i8* %13, i64 48
  %32 = bitcast i8* %31 to i64*
  store i64 %10, i64* %32, align 8
  call void @llvm.lifetime.end.p0i8(i64 8, i8* nonnull %16) #14
  call void @_ZN4mojo29ScopedInterfaceEndpointHandleD1Ev(%"class.mojo::ScopedInterfaceEndpointHandle"* nonnull %14) #14
  call void @llvm.lifetime.end.p0i8(i64 8, i8* nonnull %12)
  %33 = bitcast i8* %13 to %"class.mojo::ReceiverSetState::ReceiverState"*
  %34 = call i64 @_ZN4mojo16ReceiverSetState3AddENSt3__110unique_ptrINS0_13ReceiverStateENS1_14default_deleteIS3_EEEE(%"class.mojo::ReceiverSetState"* %11, %"class.mojo::ReceiverSetState::ReceiverState"* nonnull %33) #14
  ret i64 %34
}

declare i64 @_ZN4mojo16ReceiverSetState3AddENSt3__110unique_ptrINS0_13ReceiverStateENS1_14default_deleteIS3_EEEE(%"class.mojo::ReceiverSetState"*, %"class.mojo::ReceiverSetState::ReceiverState"*) local_unnamed_addr #1

; Function Attrs: nounwind ssp uwtable
define linkonce_odr hidden void @_ZN4mojo15ReceiverSetBaseINS_18AssociatedReceiverIN3pdf5mojom10PdfServiceENS_19RawPtrImplRefTraitsIS4_EEEEPN7content15RenderFrameHostEE13ReceiverEntryD2Ev(%"class.mojo::ReceiverSetBase<mojo::AssociatedReceiver<pdf::mojom::PdfService, mojo::RawPtrImplRefTraits<pdf::mojom::PdfService> >, content::RenderFrameHost *>::ReceiverEntry"*) unnamed_addr #0 comdat align 2 {
  %2 = getelementptr inbounds %"class.mojo::ReceiverSetBase<mojo::AssociatedReceiver<pdf::mojom::PdfService, mojo::RawPtrImplRefTraits<pdf::mojom::PdfService> >, content::RenderFrameHost *>::ReceiverEntry", %"class.mojo::ReceiverSetBase<mojo::AssociatedReceiver<pdf::mojom::PdfService, mojo::RawPtrImplRefTraits<pdf::mojom::PdfService> >, content::RenderFrameHost *>::ReceiverEntry"* %0, i64 0, i32 0, i32 0
  store i32 (...)** bitcast (i8** getelementptr inbounds ({ [7 x i8*] }, { [7 x i8*] }* @_ZTVN4mojo15ReceiverSetBaseINS_18AssociatedReceiverIN3pdf5mojom10PdfServiceENS_19RawPtrImplRefTraitsIS4_EEEEPN7content15RenderFrameHostEE13ReceiverEntryE, i64 0, inrange i32 0, i64 2) to i32 (...)**), i32 (...)*** %2, align 8
  %3 = getelementptr inbounds %"class.mojo::ReceiverSetBase<mojo::AssociatedReceiver<pdf::mojom::PdfService, mojo::RawPtrImplRefTraits<pdf::mojom::PdfService> >, content::RenderFrameHost *>::ReceiverEntry", %"class.mojo::ReceiverSetBase<mojo::AssociatedReceiver<pdf::mojom::PdfService, mojo::RawPtrImplRefTraits<pdf::mojom::PdfService> >, content::RenderFrameHost *>::ReceiverEntry"* %0, i64 0, i32 1, i32 2, i32 0
  tail call void @_ZN4base8internal18WeakPtrFactoryBaseD2Ev(%"class.base::internal::WeakPtrFactoryBase"* %3) #14
  %4 = getelementptr inbounds %"class.mojo::ReceiverSetBase<mojo::AssociatedReceiver<pdf::mojom::PdfService, mojo::RawPtrImplRefTraits<pdf::mojom::PdfService> >, content::RenderFrameHost *>::ReceiverEntry", %"class.mojo::ReceiverSetBase<mojo::AssociatedReceiver<pdf::mojom::PdfService, mojo::RawPtrImplRefTraits<pdf::mojom::PdfService> >, content::RenderFrameHost *>::ReceiverEntry"* %0, i64 0, i32 1, i32 0
  tail call void @_ZN4mojo8internal22AssociatedReceiverBaseD2Ev(%"class.mojo::internal::AssociatedReceiverBase"* %4) #14
  ret void
}

; Function Attrs: nounwind ssp uwtable
define linkonce_odr hidden void @_ZN4mojo15ReceiverSetBaseINS_18AssociatedReceiverIN3pdf5mojom10PdfServiceENS_19RawPtrImplRefTraitsIS4_EEEEPN7content15RenderFrameHostEE13ReceiverEntryD0Ev(%"class.mojo::ReceiverSetBase<mojo::AssociatedReceiver<pdf::mojom::PdfService, mojo::RawPtrImplRefTraits<pdf::mojom::PdfService> >, content::RenderFrameHost *>::ReceiverEntry"*) unnamed_addr #0 comdat align 2 {
  %2 = getelementptr inbounds %"class.mojo::ReceiverSetBase<mojo::AssociatedReceiver<pdf::mojom::PdfService, mojo::RawPtrImplRefTraits<pdf::mojom::PdfService> >, content::RenderFrameHost *>::ReceiverEntry", %"class.mojo::ReceiverSetBase<mojo::AssociatedReceiver<pdf::mojom::PdfService, mojo::RawPtrImplRefTraits<pdf::mojom::PdfService> >, content::RenderFrameHost *>::ReceiverEntry"* %0, i64 0, i32 0, i32 0
  store i32 (...)** bitcast (i8** getelementptr inbounds ({ [7 x i8*] }, { [7 x i8*] }* @_ZTVN4mojo15ReceiverSetBaseINS_18AssociatedReceiverIN3pdf5mojom10PdfServiceENS_19RawPtrImplRefTraitsIS4_EEEEPN7content15RenderFrameHostEE13ReceiverEntryE, i64 0, inrange i32 0, i64 2) to i32 (...)**), i32 (...)*** %2, align 8
  %3 = getelementptr inbounds %"class.mojo::ReceiverSetBase<mojo::AssociatedReceiver<pdf::mojom::PdfService, mojo::RawPtrImplRefTraits<pdf::mojom::PdfService> >, content::RenderFrameHost *>::ReceiverEntry", %"class.mojo::ReceiverSetBase<mojo::AssociatedReceiver<pdf::mojom::PdfService, mojo::RawPtrImplRefTraits<pdf::mojom::PdfService> >, content::RenderFrameHost *>::ReceiverEntry"* %0, i64 0, i32 1, i32 2, i32 0
  tail call void @_ZN4base8internal18WeakPtrFactoryBaseD2Ev(%"class.base::internal::WeakPtrFactoryBase"* %3) #14
  %4 = getelementptr inbounds %"class.mojo::ReceiverSetBase<mojo::AssociatedReceiver<pdf::mojom::PdfService, mojo::RawPtrImplRefTraits<pdf::mojom::PdfService> >, content::RenderFrameHost *>::ReceiverEntry", %"class.mojo::ReceiverSetBase<mojo::AssociatedReceiver<pdf::mojom::PdfService, mojo::RawPtrImplRefTraits<pdf::mojom::PdfService> >, content::RenderFrameHost *>::ReceiverEntry"* %0, i64 0, i32 1, i32 0
  tail call void @_ZN4mojo8internal22AssociatedReceiverBaseD2Ev(%"class.mojo::internal::AssociatedReceiverBase"* %4) #14
  %5 = bitcast %"class.mojo::ReceiverSetBase<mojo::AssociatedReceiver<pdf::mojom::PdfService, mojo::RawPtrImplRefTraits<pdf::mojom::PdfService> >, content::RenderFrameHost *>::ReceiverEntry"* %0 to i8*
  tail call void @_ZdlPv(i8* %5) #15
  ret void
}

; Function Attrs: nounwind ssp uwtable
define linkonce_odr hidden i8* @_ZNK4mojo15ReceiverSetBaseINS_18AssociatedReceiverIN3pdf5mojom10PdfServiceENS_19RawPtrImplRefTraitsIS4_EEEEPN7content15RenderFrameHostEE13ReceiverEntry10GetContextEv(%"class.mojo::ReceiverSetBase<mojo::AssociatedReceiver<pdf::mojom::PdfService, mojo::RawPtrImplRefTraits<pdf::mojom::PdfService> >, content::RenderFrameHost *>::ReceiverEntry"*) unnamed_addr #0 comdat align 2 {
  %2 = getelementptr inbounds %"class.mojo::ReceiverSetBase<mojo::AssociatedReceiver<pdf::mojom::PdfService, mojo::RawPtrImplRefTraits<pdf::mojom::PdfService> >, content::RenderFrameHost *>::ReceiverEntry", %"class.mojo::ReceiverSetBase<mojo::AssociatedReceiver<pdf::mojom::PdfService, mojo::RawPtrImplRefTraits<pdf::mojom::PdfService> >, content::RenderFrameHost *>::ReceiverEntry"* %0, i64 0, i32 2
  %3 = bitcast %"class.content::RenderFrameHost"** %2 to i8*
  ret i8* %3
}

; Function Attrs: nounwind ssp uwtable
define linkonce_odr hidden void @_ZN4mojo15ReceiverSetBaseINS_18AssociatedReceiverIN3pdf5mojom10PdfServiceENS_19RawPtrImplRefTraitsIS4_EEEEPN7content15RenderFrameHostEE13ReceiverEntry20InstallDispatchHooksENSt3__110unique_ptrINS_13MessageFilterENSD_14default_deleteISF_EEEEN4base17RepeatingCallbackIFvjRKNSD_12basic_stringIcNSD_11char_traitsIcEENSD_9allocatorIcEEEEEEE(%"class.mojo::ReceiverSetBase<mojo::AssociatedReceiver<pdf::mojom::PdfService, mojo::RawPtrImplRefTraits<pdf::mojom::PdfService> >, content::RenderFrameHost *>::ReceiverEntry"*, %"class.mojo::MessageFilter"*, %"class.base::RepeatingCallback.15"*) unnamed_addr #0 comdat align 2 {
  %4 = alloca %"class.base::OnceCallback.204", align 8
  %5 = alloca %"class.base::RepeatingCallback.15", align 8
  %6 = getelementptr inbounds %"class.mojo::ReceiverSetBase<mojo::AssociatedReceiver<pdf::mojom::PdfService, mojo::RawPtrImplRefTraits<pdf::mojom::PdfService> >, content::RenderFrameHost *>::ReceiverEntry", %"class.mojo::ReceiverSetBase<mojo::AssociatedReceiver<pdf::mojom::PdfService, mojo::RawPtrImplRefTraits<pdf::mojom::PdfService> >, content::RenderFrameHost *>::ReceiverEntry"* %0, i64 0, i32 1, i32 0
  tail call void @_ZN4mojo8internal22AssociatedReceiverBase9SetFilterENSt3__110unique_ptrINS_13MessageFilterENS2_14default_deleteIS4_EEEE(%"class.mojo::internal::AssociatedReceiverBase"* %6, %"class.mojo::MessageFilter"* %1) #14
  %7 = getelementptr inbounds %"class.base::RepeatingCallback.15", %"class.base::RepeatingCallback.15"* %2, i64 0, i32 0, i32 0, i32 0, i32 0
  %8 = bitcast %"class.base::RepeatingCallback.15"* %2 to i64*
  %9 = load i64, i64* %8, align 8
  %10 = bitcast %"class.base::RepeatingCallback.15"* %5 to i64*
  store i64 %9, i64* %10, align 8
  store %"class.base::internal::BindStateBase"* null, %"class.base::internal::BindStateBase"** %7, align 8
  %11 = getelementptr inbounds %"class.base::OnceCallback.204", %"class.base::OnceCallback.204"* %4, i64 0, i32 0
  %12 = getelementptr inbounds %"class.base::RepeatingCallback.15", %"class.base::RepeatingCallback.15"* %5, i64 0, i32 0
  call void @_ZN4base8internal12CallbackBaseC2EONS0_20CallbackBaseCopyableE(%"class.base::internal::CallbackBase"* nonnull %11, %"class.base::internal::CallbackBaseCopyable"* nonnull dereferenceable(8) %12) #14
  call void @_ZN4mojo8internal22AssociatedReceiverBase34set_disconnect_with_reason_handlerEN4base12OnceCallbackIFvjRKNSt3__112basic_stringIcNS4_11char_traitsIcEENS4_9allocatorIcEEEEEEE(%"class.mojo::internal::AssociatedReceiverBase"* %6, %"class.base::OnceCallback.204"* nonnull %4) #14
  call void @_ZN4base8internal12CallbackBaseD2Ev(%"class.base::internal::CallbackBase"* nonnull %11) #14
  %13 = getelementptr inbounds %"class.base::RepeatingCallback.15", %"class.base::RepeatingCallback.15"* %5, i64 0, i32 0, i32 0
  call void @_ZN4base8internal12CallbackBaseD2Ev(%"class.base::internal::CallbackBase"* nonnull %13) #14
  ret void
}

; Function Attrs: nounwind ssp uwtable
define linkonce_odr hidden void @_ZN4mojo15ReceiverSetBaseINS_18AssociatedReceiverIN3pdf5mojom10PdfServiceENS_19RawPtrImplRefTraitsIS4_EEEEPN7content15RenderFrameHostEE13ReceiverEntry15FlushForTestingEv(%"class.mojo::ReceiverSetBase<mojo::AssociatedReceiver<pdf::mojom::PdfService, mojo::RawPtrImplRefTraits<pdf::mojom::PdfService> >, content::RenderFrameHost *>::ReceiverEntry"*) unnamed_addr #0 comdat align 2 {
  %2 = getelementptr inbounds %"class.mojo::ReceiverSetBase<mojo::AssociatedReceiver<pdf::mojom::PdfService, mojo::RawPtrImplRefTraits<pdf::mojom::PdfService> >, content::RenderFrameHost *>::ReceiverEntry", %"class.mojo::ReceiverSetBase<mojo::AssociatedReceiver<pdf::mojom::PdfService, mojo::RawPtrImplRefTraits<pdf::mojom::PdfService> >, content::RenderFrameHost *>::ReceiverEntry"* %0, i64 0, i32 1, i32 0
  tail call void @_ZN4mojo8internal22AssociatedReceiverBase15FlushForTestingEv(%"class.mojo::internal::AssociatedReceiverBase"* %2) #14
  ret void
}

; Function Attrs: nounwind ssp uwtable
define linkonce_odr hidden void @_ZN4mojo18AssociatedReceiverIN3pdf5mojom10PdfServiceENS_19RawPtrImplRefTraitsIS3_EEE4BindENS_25PendingAssociatedReceiverIS3_EE13scoped_refptrIN4base19SequencedTaskRunnerEE(%"class.mojo::AssociatedReceiver"*, %"class.mojo::PendingAssociatedReceiver"*, %"class.base::SequencedTaskRunner"*) local_unnamed_addr #0 comdat align 2 {
  %4 = alloca %"class.mojo::ScopedInterfaceEndpointHandle", align 8
  %5 = getelementptr inbounds %"class.mojo::PendingAssociatedReceiver", %"class.mojo::PendingAssociatedReceiver"* %1, i64 0, i32 0
  %6 = tail call zeroext i1 @_ZNK4mojo29ScopedInterfaceEndpointHandle8is_validEv(%"class.mojo::ScopedInterfaceEndpointHandle"* %5) #14
  %7 = getelementptr inbounds %"class.mojo::AssociatedReceiver", %"class.mojo::AssociatedReceiver"* %0, i64 0, i32 0
  br i1 %6, label %8, label %13

8:                                                ; preds = %3
  call void @_ZN4mojo29ScopedInterfaceEndpointHandleC1EOS0_(%"class.mojo::ScopedInterfaceEndpointHandle"* nonnull %4, %"class.mojo::ScopedInterfaceEndpointHandle"* dereferenceable(8) %5) #14
  %9 = getelementptr inbounds %"class.mojo::AssociatedReceiver", %"class.mojo::AssociatedReceiver"* %0, i64 0, i32 1, i32 0
  %10 = call i8* @_Znwm(i64 8) #15
  %11 = bitcast i8* %10 to i32 (...)***
  store i32 (...)** bitcast (i8** getelementptr inbounds ({ [6 x i8*] }, { [6 x i8*] }* @_ZTVN3pdf5mojom26PdfServiceRequestValidatorE, i64 0, inrange i32 0, i64 2) to i32 (...)**), i32 (...)*** %11, align 8
  %12 = bitcast i8* %10 to %"class.mojo::MessageReceiver"*
  call void @_ZN4mojo8internal22AssociatedReceiverBase8BindImplENS_29ScopedInterfaceEndpointHandleEPNS_34MessageReceiverWithResponderStatusENSt3__110unique_ptrINS_15MessageReceiverENS5_14default_deleteIS7_EEEEb13scoped_refptrIN4base19SequencedTaskRunnerEEjPKc(%"class.mojo::internal::AssociatedReceiverBase"* %7, %"class.mojo::ScopedInterfaceEndpointHandle"* nonnull %4, %"class.mojo::MessageReceiverWithResponderStatus"* %9, %"class.mojo::MessageReceiver"* nonnull %12, i1 zeroext false, %"class.base::SequencedTaskRunner"* %2, i32 0, i8* getelementptr inbounds ([0 x i8], [0 x i8]* @_ZN3pdf5mojom10PdfService5Name_E, i64 0, i64 0)) #14
  call void @_ZN4mojo29ScopedInterfaceEndpointHandleD1Ev(%"class.mojo::ScopedInterfaceEndpointHandle"* nonnull %4) #14
  br label %23

13:                                               ; preds = %3
  tail call void @_ZN4mojo8internal22AssociatedReceiverBase5resetEv(%"class.mojo::internal::AssociatedReceiverBase"* %7) #14
  %14 = icmp eq %"class.base::SequencedTaskRunner"* %2, null
  br i1 %14, label %23, label %15

15:                                               ; preds = %13
  %16 = getelementptr inbounds %"class.base::SequencedTaskRunner", %"class.base::SequencedTaskRunner"* %2, i64 0, i32 0, i32 1
  %17 = getelementptr inbounds %"class.base::RefCountedThreadSafe.42", %"class.base::RefCountedThreadSafe.42"* %16, i64 0, i32 0, i32 0, i32 0, i32 0, i32 0, i32 0, i32 0, i32 0
  %18 = atomicrmw sub i32* %17, i32 1 acq_rel
  %19 = icmp eq i32 %18, 1
  br i1 %19, label %20, label %23

20:                                               ; preds = %15
  %21 = getelementptr inbounds %"class.base::RefCountedThreadSafe.42", %"class.base::RefCountedThreadSafe.42"* %16, i64 -2
  %22 = bitcast %"class.base::RefCountedThreadSafe.42"* %21 to %"class.base::TaskRunner"*
  tail call void @_ZN4base16TaskRunnerTraits8DestructEPKNS_10TaskRunnerE(%"class.base::TaskRunner"* %22) #14
  br label %23

23:                                               ; preds = %8, %13, %15, %20
  ret void
}

declare void @_ZN4mojo8internal22AssociatedReceiverBaseC2Ev(%"class.mojo::internal::AssociatedReceiverBase"*) unnamed_addr #1

; Function Attrs: nounwind ssp uwtable
define linkonce_odr hidden void @_ZN4mojo15MessageReceiverD2Ev(%"class.mojo::MessageReceiver"*) unnamed_addr #0 comdat align 2 {
  ret void
}

; Function Attrs: nounwind ssp uwtable
define linkonce_odr hidden void @_ZN3pdf5mojom14PdfServiceStubIN4mojo19RawPtrImplRefTraitsINS0_10PdfServiceEEEED0Ev(%"class.pdf::mojom::PdfServiceStub"*) unnamed_addr #0 comdat align 2 {
  %2 = bitcast %"class.pdf::mojom::PdfServiceStub"* %0 to i8*
  tail call void @_ZdlPv(i8* %2) #15
  ret void
}

declare zeroext i1 @_ZN4mojo15MessageReceiver25PrefersSerializedMessagesEv(%"class.mojo::MessageReceiver"*) unnamed_addr #1

; Function Attrs: nounwind ssp uwtable
define linkonce_odr hidden zeroext i1 @_ZN3pdf5mojom14PdfServiceStubIN4mojo19RawPtrImplRefTraitsINS0_10PdfServiceEEEE6AcceptEPNS2_7MessageE(%"class.pdf::mojom::PdfServiceStub"*, %"class.mojo::Message"*) unnamed_addr #0 comdat align 2 {
  %3 = getelementptr inbounds %"class.pdf::mojom::PdfServiceStub", %"class.pdf::mojom::PdfServiceStub"* %0, i64 0, i32 1
  %4 = load %"class.pdf::mojom::PdfService"*, %"class.pdf::mojom::PdfService"** %3, align 8
  %5 = icmp eq %"class.pdf::mojom::PdfService"* %4, null
  br i1 %5, label %8, label %6

6:                                                ; preds = %2
  %7 = tail call zeroext i1 @_ZN3pdf5mojom22PdfServiceStubDispatch6AcceptEPNS0_10PdfServiceEPN4mojo7MessageE(%"class.pdf::mojom::PdfService"* nonnull %4, %"class.mojo::Message"* %1) #14
  br label %8

8:                                                ; preds = %2, %6
  %9 = phi i1 [ %7, %6 ], [ false, %2 ]
  ret i1 %9
}

; Function Attrs: nounwind ssp uwtable
define linkonce_odr hidden zeroext i1 @_ZN3pdf5mojom14PdfServiceStubIN4mojo19RawPtrImplRefTraitsINS0_10PdfServiceEEEE19AcceptWithResponderEPNS2_7MessageENSt3__110unique_ptrINS2_25MessageReceiverWithStatusENS9_14default_deleteISB_EEEE(%"class.pdf::mojom::PdfServiceStub"*, %"class.mojo::Message"*, %"class.mojo::MessageReceiverWithStatus"*) unnamed_addr #0 comdat align 2 {
  %4 = getelementptr inbounds %"class.pdf::mojom::PdfServiceStub", %"class.pdf::mojom::PdfServiceStub"* %0, i64 0, i32 1
  %5 = load %"class.pdf::mojom::PdfService"*, %"class.pdf::mojom::PdfService"** %4, align 8
  %6 = icmp eq %"class.pdf::mojom::PdfService"* %5, null
  br i1 %6, label %9, label %7

7:                                                ; preds = %3
  %8 = tail call zeroext i1 @_ZN3pdf5mojom22PdfServiceStubDispatch19AcceptWithResponderEPNS0_10PdfServiceEPN4mojo7MessageENSt3__110unique_ptrINS4_25MessageReceiverWithStatusENS7_14default_deleteIS9_EEEE(%"class.pdf::mojom::PdfService"* nonnull %5, %"class.mojo::Message"* %1, %"class.mojo::MessageReceiverWithStatus"* %2) #14
  br label %16

9:                                                ; preds = %3
  %10 = icmp eq %"class.mojo::MessageReceiverWithStatus"* %2, null
  br i1 %10, label %16, label %11

11:                                               ; preds = %9
  %12 = bitcast %"class.mojo::MessageReceiverWithStatus"* %2 to void (%"class.mojo::MessageReceiverWithStatus"*)***
  %13 = load void (%"class.mojo::MessageReceiverWithStatus"*)**, void (%"class.mojo::MessageReceiverWithStatus"*)*** %12, align 8
  %14 = getelementptr inbounds void (%"class.mojo::MessageReceiverWithStatus"*)*, void (%"class.mojo::MessageReceiverWithStatus"*)** %13, i64 1
  %15 = load void (%"class.mojo::MessageReceiverWithStatus"*)*, void (%"class.mojo::MessageReceiverWithStatus"*)** %14, align 8
  tail call void %15(%"class.mojo::MessageReceiverWithStatus"* nonnull %2) #14
  br label %16

16:                                               ; preds = %7, %9, %11
  %17 = phi i1 [ %8, %7 ], [ false, %9 ], [ false, %11 ]
  ret i1 %17
}

declare zeroext i1 @_ZN3pdf5mojom22PdfServiceStubDispatch6AcceptEPNS0_10PdfServiceEPN4mojo7MessageE(%"class.pdf::mojom::PdfService"*, %"class.mojo::Message"*) local_unnamed_addr #1

declare zeroext i1 @_ZN3pdf5mojom22PdfServiceStubDispatch19AcceptWithResponderEPNS0_10PdfServiceEPN4mojo7MessageENSt3__110unique_ptrINS4_25MessageReceiverWithStatusENS7_14default_deleteIS9_EEEE(%"class.pdf::mojom::PdfService"*, %"class.mojo::Message"*, %"class.mojo::MessageReceiverWithStatus"*) local_unnamed_addr #1

declare void @_ZN4base8internal18WeakPtrFactoryBaseC2Em(%"class.base::internal::WeakPtrFactoryBase"*, i64) unnamed_addr #1

declare void @_ZN4mojo8internal22AssociatedReceiverBase8BindImplENS_29ScopedInterfaceEndpointHandleEPNS_34MessageReceiverWithResponderStatusENSt3__110unique_ptrINS_15MessageReceiverENS5_14default_deleteIS7_EEEEb13scoped_refptrIN4base19SequencedTaskRunnerEEjPKc(%"class.mojo::internal::AssociatedReceiverBase"*, %"class.mojo::ScopedInterfaceEndpointHandle"*, %"class.mojo::MessageReceiverWithResponderStatus"*, %"class.mojo::MessageReceiver"*, i1 zeroext, %"class.base::SequencedTaskRunner"*, i32, i8*) local_unnamed_addr #1

; Function Attrs: argmemonly nounwind
declare void @llvm.memset.p0i8.i64(i8* nocapture writeonly, i8, i64, i1 immarg) #2

declare void @_ZN4mojo8internal22AssociatedReceiverBase5resetEv(%"class.mojo::internal::AssociatedReceiverBase"*) local_unnamed_addr #1

declare zeroext i1 @_ZNK4mojo29ScopedInterfaceEndpointHandle8is_validEv(%"class.mojo::ScopedInterfaceEndpointHandle"*) local_unnamed_addr #1

; Function Attrs: nounwind
declare void @_ZN4base8internal18WeakPtrFactoryBaseD2Ev(%"class.base::internal::WeakPtrFactoryBase"*) unnamed_addr #4

; Function Attrs: nounwind
declare void @_ZN4mojo8internal22AssociatedReceiverBaseD2Ev(%"class.mojo::internal::AssociatedReceiverBase"*) unnamed_addr #4

declare void @_ZN4mojo8internal22AssociatedReceiverBase9SetFilterENSt3__110unique_ptrINS_13MessageFilterENS2_14default_deleteIS4_EEEE(%"class.mojo::internal::AssociatedReceiverBase"*, %"class.mojo::MessageFilter"*) local_unnamed_addr #1

declare void @_ZN4mojo8internal22AssociatedReceiverBase34set_disconnect_with_reason_handlerEN4base12OnceCallbackIFvjRKNSt3__112basic_stringIcNS4_11char_traitsIcEENS4_9allocatorIcEEEEEEE(%"class.mojo::internal::AssociatedReceiverBase"*, %"class.base::OnceCallback.204"*) local_unnamed_addr #1

; Function Attrs: nounwind
declare void @_ZN4base8internal12CallbackBaseD2Ev(%"class.base::internal::CallbackBase"*) unnamed_addr #4

; Function Attrs: nounwind
declare void @_ZN4base8internal12CallbackBaseC2EONS0_20CallbackBaseCopyableE(%"class.base::internal::CallbackBase"*, %"class.base::internal::CallbackBaseCopyable"* dereferenceable(8)) unnamed_addr #4

declare void @_ZN4mojo8internal22AssociatedReceiverBase15FlushForTestingEv(%"class.mojo::internal::AssociatedReceiverBase"*) local_unnamed_addr #1

declare void @_ZN4base16TaskRunnerTraits8DestructEPKNS_10TaskRunnerE(%"class.base::TaskRunner"*) local_unnamed_addr #1

; Function Attrs: noreturn nounwind
declare void @abort() local_unnamed_addr #11

; Function Attrs: nounwind ssp uwtable
define linkonce_odr hidden void @_ZNSt3__127__tree_balance_after_insertIPNS_16__tree_node_baseIPvEEEEvT_S5_(%"class.std::__1::__tree_node_base"*, %"class.std::__1::__tree_node_base"*) local_unnamed_addr #0 comdat {
  %3 = icmp eq %"class.std::__1::__tree_node_base"* %1, %0
  %4 = getelementptr inbounds %"class.std::__1::__tree_node_base", %"class.std::__1::__tree_node_base"* %1, i64 0, i32 3
  %5 = zext i1 %3 to i8
  store i8 %5, i8* %4, align 8
  br i1 %3, label %156, label %6

6:                                                ; preds = %2, %149
  %7 = phi %"class.std::__1::__tree_node_base"* [ %20, %149 ], [ %1, %2 ]
  %8 = getelementptr inbounds %"class.std::__1::__tree_node_base", %"class.std::__1::__tree_node_base"* %7, i64 0, i32 2
  %9 = bitcast %"class.std::__1::__tree_end_node"** %8 to %"class.std::__1::__tree_node_base"**
  %10 = load %"class.std::__1::__tree_node_base"*, %"class.std::__1::__tree_node_base"** %9, align 8
  %11 = getelementptr inbounds %"class.std::__1::__tree_node_base", %"class.std::__1::__tree_node_base"* %10, i64 0, i32 3
  %12 = load i8, i8* %11, align 8, !range !2
  %13 = icmp eq i8 %12, 0
  br i1 %13, label %14, label %156

14:                                               ; preds = %6
  %15 = getelementptr inbounds %"class.std::__1::__tree_node_base", %"class.std::__1::__tree_node_base"* %10, i64 0, i32 2
  %16 = load %"class.std::__1::__tree_end_node"*, %"class.std::__1::__tree_end_node"** %15, align 8
  %17 = getelementptr inbounds %"class.std::__1::__tree_end_node", %"class.std::__1::__tree_end_node"* %16, i64 0, i32 0
  %18 = load %"class.std::__1::__tree_node_base"*, %"class.std::__1::__tree_node_base"** %17, align 8
  %19 = icmp eq %"class.std::__1::__tree_node_base"* %18, %10
  %20 = bitcast %"class.std::__1::__tree_end_node"* %16 to %"class.std::__1::__tree_node_base"*
  br i1 %19, label %21, label %87

21:                                               ; preds = %14
  %22 = getelementptr inbounds %"class.std::__1::__tree_end_node", %"class.std::__1::__tree_end_node"* %16, i64 1, i32 0
  %23 = load %"class.std::__1::__tree_node_base"*, %"class.std::__1::__tree_node_base"** %22, align 8
  %24 = icmp eq %"class.std::__1::__tree_node_base"* %23, null
  br i1 %24, label %29, label %25

25:                                               ; preds = %21
  %26 = getelementptr inbounds %"class.std::__1::__tree_node_base", %"class.std::__1::__tree_node_base"* %23, i64 0, i32 3
  %27 = load i8, i8* %26, align 8, !range !2
  %28 = icmp eq i8 %27, 0
  br i1 %28, label %149, label %29

29:                                               ; preds = %25, %21
  %30 = getelementptr inbounds %"class.std::__1::__tree_node_base", %"class.std::__1::__tree_node_base"* %10, i64 0, i32 2
  %31 = bitcast %"class.std::__1::__tree_end_node"* %16 to %"class.std::__1::__tree_node_base"*
  %32 = getelementptr inbounds %"class.std::__1::__tree_node_base", %"class.std::__1::__tree_node_base"* %10, i64 0, i32 0, i32 0
  %33 = load %"class.std::__1::__tree_node_base"*, %"class.std::__1::__tree_node_base"** %32, align 8
  %34 = icmp eq %"class.std::__1::__tree_node_base"* %33, %7
  br i1 %34, label %61, label %35

35:                                               ; preds = %29
  %36 = ptrtoint %"class.std::__1::__tree_end_node"* %16 to i64
  %37 = getelementptr inbounds %"class.std::__1::__tree_node_base", %"class.std::__1::__tree_node_base"* %10, i64 0, i32 1
  %38 = load %"class.std::__1::__tree_node_base"*, %"class.std::__1::__tree_node_base"** %37, align 8
  %39 = getelementptr inbounds %"class.std::__1::__tree_node_base", %"class.std::__1::__tree_node_base"* %38, i64 0, i32 0, i32 0
  %40 = load %"class.std::__1::__tree_node_base"*, %"class.std::__1::__tree_node_base"** %39, align 8
  store %"class.std::__1::__tree_node_base"* %40, %"class.std::__1::__tree_node_base"** %37, align 8
  %41 = icmp eq %"class.std::__1::__tree_node_base"* %40, null
  br i1 %41, label %47, label %42

42:                                               ; preds = %35
  %43 = getelementptr inbounds %"class.std::__1::__tree_node_base", %"class.std::__1::__tree_node_base"* %10, i64 0, i32 0
  %44 = getelementptr inbounds %"class.std::__1::__tree_node_base", %"class.std::__1::__tree_node_base"* %40, i64 0, i32 2
  store %"class.std::__1::__tree_end_node"* %43, %"class.std::__1::__tree_end_node"** %44, align 8
  %45 = bitcast %"class.std::__1::__tree_end_node"** %30 to i64*
  %46 = load i64, i64* %45, align 8
  br label %47

47:                                               ; preds = %35, %42
  %48 = phi i64 [ %46, %42 ], [ %36, %35 ]
  %49 = getelementptr inbounds %"class.std::__1::__tree_node_base", %"class.std::__1::__tree_node_base"* %38, i64 0, i32 2
  %50 = bitcast %"class.std::__1::__tree_end_node"** %49 to i64*
  store i64 %48, i64* %50, align 8
  %51 = load %"class.std::__1::__tree_end_node"*, %"class.std::__1::__tree_end_node"** %30, align 8
  %52 = getelementptr inbounds %"class.std::__1::__tree_end_node", %"class.std::__1::__tree_end_node"* %51, i64 0, i32 0
  %53 = load %"class.std::__1::__tree_node_base"*, %"class.std::__1::__tree_node_base"** %52, align 8
  %54 = icmp eq %"class.std::__1::__tree_node_base"* %53, %10
  %55 = getelementptr inbounds %"class.std::__1::__tree_end_node", %"class.std::__1::__tree_end_node"* %51, i64 1, i32 0
  %56 = select i1 %54, %"class.std::__1::__tree_node_base"** %52, %"class.std::__1::__tree_node_base"** %55
  store %"class.std::__1::__tree_node_base"* %38, %"class.std::__1::__tree_node_base"** %56, align 8
  store %"class.std::__1::__tree_node_base"* %10, %"class.std::__1::__tree_node_base"** %39, align 8
  %57 = getelementptr inbounds %"class.std::__1::__tree_node_base", %"class.std::__1::__tree_node_base"* %38, i64 0, i32 0
  store %"class.std::__1::__tree_end_node"* %57, %"class.std::__1::__tree_end_node"** %30, align 8
  %58 = getelementptr inbounds %"class.std::__1::__tree_node_base", %"class.std::__1::__tree_node_base"* %38, i64 0, i32 2
  %59 = bitcast %"class.std::__1::__tree_end_node"** %58 to %"class.std::__1::__tree_node_base"**
  %60 = load %"class.std::__1::__tree_node_base"*, %"class.std::__1::__tree_node_base"** %59, align 8
  br label %61

61:                                               ; preds = %47, %29
  %62 = phi %"class.std::__1::__tree_node_base"* [ %31, %29 ], [ %60, %47 ]
  %63 = phi %"class.std::__1::__tree_node_base"* [ %10, %29 ], [ %38, %47 ]
  %64 = getelementptr inbounds %"class.std::__1::__tree_node_base", %"class.std::__1::__tree_node_base"* %63, i64 0, i32 3
  store i8 1, i8* %64, align 8
  %65 = getelementptr inbounds %"class.std::__1::__tree_node_base", %"class.std::__1::__tree_node_base"* %62, i64 0, i32 3
  store i8 0, i8* %65, align 8
  %66 = getelementptr inbounds %"class.std::__1::__tree_node_base", %"class.std::__1::__tree_node_base"* %62, i64 0, i32 0, i32 0
  %67 = load %"class.std::__1::__tree_node_base"*, %"class.std::__1::__tree_node_base"** %66, align 8
  %68 = getelementptr inbounds %"class.std::__1::__tree_node_base", %"class.std::__1::__tree_node_base"* %67, i64 0, i32 1
  %69 = load %"class.std::__1::__tree_node_base"*, %"class.std::__1::__tree_node_base"** %68, align 8
  store %"class.std::__1::__tree_node_base"* %69, %"class.std::__1::__tree_node_base"** %66, align 8
  %70 = icmp eq %"class.std::__1::__tree_node_base"* %69, null
  br i1 %70, label %74, label %71

71:                                               ; preds = %61
  %72 = getelementptr inbounds %"class.std::__1::__tree_node_base", %"class.std::__1::__tree_node_base"* %62, i64 0, i32 0
  %73 = getelementptr inbounds %"class.std::__1::__tree_node_base", %"class.std::__1::__tree_node_base"* %69, i64 0, i32 2
  store %"class.std::__1::__tree_end_node"* %72, %"class.std::__1::__tree_end_node"** %73, align 8
  br label %74

74:                                               ; preds = %71, %61
  %75 = getelementptr inbounds %"class.std::__1::__tree_node_base", %"class.std::__1::__tree_node_base"* %62, i64 0, i32 2
  %76 = bitcast %"class.std::__1::__tree_end_node"** %75 to i64*
  %77 = load i64, i64* %76, align 8
  %78 = getelementptr inbounds %"class.std::__1::__tree_node_base", %"class.std::__1::__tree_node_base"* %67, i64 0, i32 2
  %79 = bitcast %"class.std::__1::__tree_end_node"** %78 to i64*
  store i64 %77, i64* %79, align 8
  %80 = load %"class.std::__1::__tree_end_node"*, %"class.std::__1::__tree_end_node"** %75, align 8
  %81 = getelementptr inbounds %"class.std::__1::__tree_end_node", %"class.std::__1::__tree_end_node"* %80, i64 0, i32 0
  %82 = load %"class.std::__1::__tree_node_base"*, %"class.std::__1::__tree_node_base"** %81, align 8
  %83 = icmp eq %"class.std::__1::__tree_node_base"* %82, %62
  %84 = getelementptr inbounds %"class.std::__1::__tree_end_node", %"class.std::__1::__tree_end_node"* %80, i64 1, i32 0
  %85 = select i1 %83, %"class.std::__1::__tree_node_base"** %81, %"class.std::__1::__tree_node_base"** %84
  store %"class.std::__1::__tree_node_base"* %67, %"class.std::__1::__tree_node_base"** %85, align 8
  store %"class.std::__1::__tree_node_base"* %62, %"class.std::__1::__tree_node_base"** %68, align 8
  %86 = getelementptr inbounds %"class.std::__1::__tree_node_base", %"class.std::__1::__tree_node_base"* %67, i64 0, i32 0
  store %"class.std::__1::__tree_end_node"* %86, %"class.std::__1::__tree_end_node"** %75, align 8
  br label %156

87:                                               ; preds = %14
  %88 = icmp eq %"class.std::__1::__tree_node_base"* %18, null
  br i1 %88, label %93, label %89

89:                                               ; preds = %87
  %90 = getelementptr inbounds %"class.std::__1::__tree_node_base", %"class.std::__1::__tree_node_base"* %18, i64 0, i32 3
  %91 = load i8, i8* %90, align 8, !range !2
  %92 = icmp eq i8 %91, 0
  br i1 %92, label %149, label %93

93:                                               ; preds = %89, %87
  %94 = getelementptr inbounds %"class.std::__1::__tree_node_base", %"class.std::__1::__tree_node_base"* %10, i64 0, i32 2
  %95 = bitcast %"class.std::__1::__tree_end_node"* %16 to %"class.std::__1::__tree_node_base"*
  %96 = getelementptr inbounds %"class.std::__1::__tree_node_base", %"class.std::__1::__tree_node_base"* %10, i64 0, i32 0, i32 0
  %97 = load %"class.std::__1::__tree_node_base"*, %"class.std::__1::__tree_node_base"** %96, align 8
  %98 = icmp eq %"class.std::__1::__tree_node_base"* %97, %7
  br i1 %98, label %99, label %123

99:                                               ; preds = %93
  %100 = ptrtoint %"class.std::__1::__tree_end_node"* %16 to i64
  %101 = getelementptr inbounds %"class.std::__1::__tree_node_base", %"class.std::__1::__tree_node_base"* %10, i64 0, i32 0, i32 0
  %102 = getelementptr inbounds %"class.std::__1::__tree_node_base", %"class.std::__1::__tree_node_base"* %7, i64 0, i32 1
  %103 = load %"class.std::__1::__tree_node_base"*, %"class.std::__1::__tree_node_base"** %102, align 8
  store %"class.std::__1::__tree_node_base"* %103, %"class.std::__1::__tree_node_base"** %101, align 8
  %104 = icmp eq %"class.std::__1::__tree_node_base"* %103, null
  br i1 %104, label %110, label %105

105:                                              ; preds = %99
  %106 = getelementptr inbounds %"class.std::__1::__tree_node_base", %"class.std::__1::__tree_node_base"* %10, i64 0, i32 0
  %107 = getelementptr inbounds %"class.std::__1::__tree_node_base", %"class.std::__1::__tree_node_base"* %103, i64 0, i32 2
  store %"class.std::__1::__tree_end_node"* %106, %"class.std::__1::__tree_end_node"** %107, align 8
  %108 = bitcast %"class.std::__1::__tree_end_node"** %94 to i64*
  %109 = load i64, i64* %108, align 8
  br label %110

110:                                              ; preds = %99, %105
  %111 = phi i64 [ %109, %105 ], [ %100, %99 ]
  %112 = bitcast %"class.std::__1::__tree_end_node"** %8 to i64*
  store i64 %111, i64* %112, align 8
  %113 = load %"class.std::__1::__tree_end_node"*, %"class.std::__1::__tree_end_node"** %94, align 8
  %114 = getelementptr inbounds %"class.std::__1::__tree_end_node", %"class.std::__1::__tree_end_node"* %113, i64 0, i32 0
  %115 = load %"class.std::__1::__tree_node_base"*, %"class.std::__1::__tree_node_base"** %114, align 8
  %116 = icmp eq %"class.std::__1::__tree_node_base"* %115, %10
  %117 = getelementptr inbounds %"class.std::__1::__tree_end_node", %"class.std::__1::__tree_end_node"* %113, i64 1, i32 0
  %118 = select i1 %116, %"class.std::__1::__tree_node_base"** %114, %"class.std::__1::__tree_node_base"** %117
  store %"class.std::__1::__tree_node_base"* %7, %"class.std::__1::__tree_node_base"** %118, align 8
  store %"class.std::__1::__tree_node_base"* %10, %"class.std::__1::__tree_node_base"** %102, align 8
  %119 = getelementptr inbounds %"class.std::__1::__tree_node_base", %"class.std::__1::__tree_node_base"* %7, i64 0, i32 0
  store %"class.std::__1::__tree_end_node"* %119, %"class.std::__1::__tree_end_node"** %94, align 8
  %120 = getelementptr inbounds %"class.std::__1::__tree_node_base", %"class.std::__1::__tree_node_base"* %7, i64 0, i32 2
  %121 = bitcast %"class.std::__1::__tree_end_node"** %120 to %"class.std::__1::__tree_node_base"**
  %122 = load %"class.std::__1::__tree_node_base"*, %"class.std::__1::__tree_node_base"** %121, align 8
  br label %123

123:                                              ; preds = %93, %110
  %124 = phi %"class.std::__1::__tree_node_base"* [ %122, %110 ], [ %95, %93 ]
  %125 = phi %"class.std::__1::__tree_node_base"* [ %7, %110 ], [ %10, %93 ]
  %126 = getelementptr inbounds %"class.std::__1::__tree_node_base", %"class.std::__1::__tree_node_base"* %125, i64 0, i32 3
  store i8 1, i8* %126, align 8
  %127 = getelementptr inbounds %"class.std::__1::__tree_node_base", %"class.std::__1::__tree_node_base"* %124, i64 0, i32 3
  store i8 0, i8* %127, align 8
  %128 = getelementptr inbounds %"class.std::__1::__tree_node_base", %"class.std::__1::__tree_node_base"* %124, i64 0, i32 1
  %129 = load %"class.std::__1::__tree_node_base"*, %"class.std::__1::__tree_node_base"** %128, align 8
  %130 = getelementptr inbounds %"class.std::__1::__tree_node_base", %"class.std::__1::__tree_node_base"* %129, i64 0, i32 0, i32 0
  %131 = load %"class.std::__1::__tree_node_base"*, %"class.std::__1::__tree_node_base"** %130, align 8
  store %"class.std::__1::__tree_node_base"* %131, %"class.std::__1::__tree_node_base"** %128, align 8
  %132 = icmp eq %"class.std::__1::__tree_node_base"* %131, null
  br i1 %132, label %136, label %133

133:                                              ; preds = %123
  %134 = getelementptr inbounds %"class.std::__1::__tree_node_base", %"class.std::__1::__tree_node_base"* %124, i64 0, i32 0
  %135 = getelementptr inbounds %"class.std::__1::__tree_node_base", %"class.std::__1::__tree_node_base"* %131, i64 0, i32 2
  store %"class.std::__1::__tree_end_node"* %134, %"class.std::__1::__tree_end_node"** %135, align 8
  br label %136

136:                                              ; preds = %133, %123
  %137 = getelementptr inbounds %"class.std::__1::__tree_node_base", %"class.std::__1::__tree_node_base"* %124, i64 0, i32 2
  %138 = bitcast %"class.std::__1::__tree_end_node"** %137 to i64*
  %139 = load i64, i64* %138, align 8
  %140 = getelementptr inbounds %"class.std::__1::__tree_node_base", %"class.std::__1::__tree_node_base"* %129, i64 0, i32 2
  %141 = bitcast %"class.std::__1::__tree_end_node"** %140 to i64*
  store i64 %139, i64* %141, align 8
  %142 = load %"class.std::__1::__tree_end_node"*, %"class.std::__1::__tree_end_node"** %137, align 8
  %143 = getelementptr inbounds %"class.std::__1::__tree_end_node", %"class.std::__1::__tree_end_node"* %142, i64 0, i32 0
  %144 = load %"class.std::__1::__tree_node_base"*, %"class.std::__1::__tree_node_base"** %143, align 8
  %145 = icmp eq %"class.std::__1::__tree_node_base"* %144, %124
  %146 = getelementptr inbounds %"class.std::__1::__tree_end_node", %"class.std::__1::__tree_end_node"* %142, i64 1, i32 0
  %147 = select i1 %145, %"class.std::__1::__tree_node_base"** %143, %"class.std::__1::__tree_node_base"** %146
  store %"class.std::__1::__tree_node_base"* %129, %"class.std::__1::__tree_node_base"** %147, align 8
  store %"class.std::__1::__tree_node_base"* %124, %"class.std::__1::__tree_node_base"** %130, align 8
  %148 = getelementptr inbounds %"class.std::__1::__tree_node_base", %"class.std::__1::__tree_node_base"* %129, i64 0, i32 0
  store %"class.std::__1::__tree_end_node"* %148, %"class.std::__1::__tree_end_node"** %137, align 8
  br label %156

149:                                              ; preds = %89, %25
  %150 = phi i8* [ %26, %25 ], [ %90, %89 ]
  store i8 1, i8* %11, align 8
  %151 = icmp eq %"class.std::__1::__tree_node_base"* %20, %0
  %152 = getelementptr inbounds %"class.std::__1::__tree_end_node", %"class.std::__1::__tree_end_node"* %16, i64 3
  %153 = bitcast %"class.std::__1::__tree_end_node"* %152 to i8*
  %154 = zext i1 %151 to i8
  store i8 %154, i8* %153, align 8
  store i8 1, i8* %150, align 8
  %155 = icmp eq %"class.std::__1::__tree_node_base"* %20, %0
  br i1 %155, label %156, label %6

156:                                              ; preds = %6, %149, %2, %136, %74
  ret void
}

; Function Attrs: noreturn
declare void @_ZNKSt3__120__vector_base_commonILb1EE20__throw_length_errorEv(%"class.std::__1::__vector_base_common"*) local_unnamed_addr #12

; Function Attrs: nounwind ssp uwtable
define linkonce_odr hidden void @_ZNSt3__16__treeINS_12__value_typeImNS_10unique_ptrIN4mojo16ReceiverSetState5EntryENS_14default_deleteIS5_EEEEEENS_19__map_value_compareImS9_NS_4lessImEELb1EEENS_9allocatorIS9_EEE7destroyEPNS_11__tree_nodeIS9_PvEE(%"class.std::__1::__tree.17"*, %"class.std::__1::__tree_node.357"*) local_unnamed_addr #0 comdat align 2 {
  %3 = icmp eq %"class.std::__1::__tree_node.357"* %1, null
  br i1 %3, label %17, label %4

4:                                                ; preds = %2
  %5 = bitcast %"class.std::__1::__tree_node.357"* %1 to %"class.std::__1::__tree_node.357"**
  %6 = load %"class.std::__1::__tree_node.357"*, %"class.std::__1::__tree_node.357"** %5, align 8
  tail call void @_ZNSt3__16__treeINS_12__value_typeImNS_10unique_ptrIN4mojo16ReceiverSetState5EntryENS_14default_deleteIS5_EEEEEENS_19__map_value_compareImS9_NS_4lessImEELb1EEENS_9allocatorIS9_EEE7destroyEPNS_11__tree_nodeIS9_PvEE(%"class.std::__1::__tree.17"* %0, %"class.std::__1::__tree_node.357"* %6) #14
  %7 = getelementptr inbounds %"class.std::__1::__tree_node.357", %"class.std::__1::__tree_node.357"* %1, i64 0, i32 0, i32 1
  %8 = bitcast %"class.std::__1::__tree_node_base"** %7 to %"class.std::__1::__tree_node.357"**
  %9 = load %"class.std::__1::__tree_node.357"*, %"class.std::__1::__tree_node.357"** %8, align 8
  tail call void @_ZNSt3__16__treeINS_12__value_typeImNS_10unique_ptrIN4mojo16ReceiverSetState5EntryENS_14default_deleteIS5_EEEEEENS_19__map_value_compareImS9_NS_4lessImEELb1EEENS_9allocatorIS9_EEE7destroyEPNS_11__tree_nodeIS9_PvEE(%"class.std::__1::__tree.17"* %0, %"class.std::__1::__tree_node.357"* %9) #14
  %10 = getelementptr inbounds %"class.std::__1::__tree_node.357", %"class.std::__1::__tree_node.357"* %1, i64 0, i32 1, i32 0, i32 1, i32 0, i32 0, i32 0
  %11 = load %"class.mojo::ReceiverSetState::Entry"*, %"class.mojo::ReceiverSetState::Entry"** %10, align 8
  store %"class.mojo::ReceiverSetState::Entry"* null, %"class.mojo::ReceiverSetState::Entry"** %10, align 8
  %12 = icmp eq %"class.mojo::ReceiverSetState::Entry"* %11, null
  br i1 %12, label %15, label %13

13:                                               ; preds = %4
  tail call void @_ZN4mojo16ReceiverSetState5EntryD1Ev(%"class.mojo::ReceiverSetState::Entry"* nonnull %11) #14
  %14 = bitcast %"class.mojo::ReceiverSetState::Entry"* %11 to i8*
  tail call void @_ZdlPv(i8* %14) #15
  br label %15

15:                                               ; preds = %4, %13
  %16 = bitcast %"class.std::__1::__tree_node.357"* %1 to i8*
  tail call void @_ZdlPv(i8* %16) #15
  br label %17

17:                                               ; preds = %2, %15
  ret void
}

; Function Attrs: nounwind
declare void @_ZN4mojo16ReceiverSetState5EntryD1Ev(%"class.mojo::ReceiverSetState::Entry"*) unnamed_addr #4

declare zeroext i1 @_ZN4mojo16ReceiverSetState6RemoveEm(%"class.mojo::ReceiverSetState"*, i64) local_unnamed_addr #1

; Function Attrs: nounwind ssp uwtable
define linkonce_odr hidden void @_ZNSt3__113__tree_removeIPNS_16__tree_node_baseIPvEEEEvT_S5_(%"class.std::__1::__tree_node_base"*, %"class.std::__1::__tree_node_base"*) local_unnamed_addr #0 comdat {
  %3 = getelementptr inbounds %"class.std::__1::__tree_node_base", %"class.std::__1::__tree_node_base"* %1, i64 0, i32 0, i32 0
  %4 = load %"class.std::__1::__tree_node_base"*, %"class.std::__1::__tree_node_base"** %3, align 8
  %5 = icmp eq %"class.std::__1::__tree_node_base"* %4, null
  br i1 %5, label %17, label %6

6:                                                ; preds = %2
  %7 = getelementptr inbounds %"class.std::__1::__tree_node_base", %"class.std::__1::__tree_node_base"* %1, i64 0, i32 1
  %8 = load %"class.std::__1::__tree_node_base"*, %"class.std::__1::__tree_node_base"** %7, align 8
  %9 = icmp eq %"class.std::__1::__tree_node_base"* %8, null
  br i1 %9, label %15, label %10

10:                                               ; preds = %6, %10
  %11 = phi %"class.std::__1::__tree_node_base"* [ %13, %10 ], [ %8, %6 ]
  %12 = getelementptr inbounds %"class.std::__1::__tree_node_base", %"class.std::__1::__tree_node_base"* %11, i64 0, i32 0, i32 0
  %13 = load %"class.std::__1::__tree_node_base"*, %"class.std::__1::__tree_node_base"** %12, align 8
  %14 = icmp eq %"class.std::__1::__tree_node_base"* %13, null
  br i1 %14, label %17, label %10

15:                                               ; preds = %6
  %16 = getelementptr inbounds %"class.std::__1::__tree_node_base", %"class.std::__1::__tree_node_base"* %1, i64 0, i32 0, i32 0
  br label %23

17:                                               ; preds = %10, %2
  %18 = phi %"class.std::__1::__tree_node_base"* [ %1, %2 ], [ %11, %10 ]
  %19 = getelementptr inbounds %"class.std::__1::__tree_node_base", %"class.std::__1::__tree_node_base"* %18, i64 0, i32 0, i32 0
  %20 = getelementptr inbounds %"class.std::__1::__tree_node_base", %"class.std::__1::__tree_node_base"* %18, i64 0, i32 1
  %21 = load %"class.std::__1::__tree_node_base"*, %"class.std::__1::__tree_node_base"** %20, align 8
  %22 = icmp eq %"class.std::__1::__tree_node_base"* %21, null
  br i1 %22, label %32, label %23

23:                                               ; preds = %15, %17
  %24 = phi %"class.std::__1::__tree_node_base"** [ %19, %17 ], [ %16, %15 ]
  %25 = phi %"class.std::__1::__tree_node_base"* [ %18, %17 ], [ %1, %15 ]
  %26 = phi %"class.std::__1::__tree_node_base"* [ %21, %17 ], [ %4, %15 ]
  %27 = getelementptr inbounds %"class.std::__1::__tree_node_base", %"class.std::__1::__tree_node_base"* %25, i64 0, i32 2
  %28 = bitcast %"class.std::__1::__tree_end_node"** %27 to i64*
  %29 = load i64, i64* %28, align 8
  %30 = getelementptr inbounds %"class.std::__1::__tree_node_base", %"class.std::__1::__tree_node_base"* %26, i64 0, i32 2
  %31 = bitcast %"class.std::__1::__tree_end_node"** %30 to i64*
  store i64 %29, i64* %31, align 8
  br label %32

32:                                               ; preds = %17, %23
  %33 = phi %"class.std::__1::__tree_node_base"** [ %24, %23 ], [ %19, %17 ]
  %34 = phi %"class.std::__1::__tree_node_base"* [ %25, %23 ], [ %18, %17 ]
  %35 = phi i1 [ true, %23 ], [ false, %17 ]
  %36 = phi %"class.std::__1::__tree_node_base"* [ %26, %23 ], [ null, %17 ]
  %37 = getelementptr inbounds %"class.std::__1::__tree_node_base", %"class.std::__1::__tree_node_base"* %34, i64 0, i32 2
  %38 = load %"class.std::__1::__tree_end_node"*, %"class.std::__1::__tree_end_node"** %37, align 8
  %39 = getelementptr inbounds %"class.std::__1::__tree_end_node", %"class.std::__1::__tree_end_node"* %38, i64 0, i32 0
  %40 = load %"class.std::__1::__tree_node_base"*, %"class.std::__1::__tree_node_base"** %39, align 8
  %41 = icmp eq %"class.std::__1::__tree_node_base"* %40, %34
  br i1 %41, label %42, label %48

42:                                               ; preds = %32
  store %"class.std::__1::__tree_node_base"* %36, %"class.std::__1::__tree_node_base"** %39, align 8
  %43 = icmp eq %"class.std::__1::__tree_node_base"* %34, %0
  br i1 %43, label %55, label %44

44:                                               ; preds = %42
  %45 = bitcast %"class.std::__1::__tree_end_node"** %37 to %"class.std::__1::__tree_node_base"**
  %46 = load %"class.std::__1::__tree_node_base"*, %"class.std::__1::__tree_node_base"** %45, align 8
  %47 = getelementptr inbounds %"class.std::__1::__tree_node_base", %"class.std::__1::__tree_node_base"* %46, i64 0, i32 1
  br label %52

48:                                               ; preds = %32
  %49 = getelementptr inbounds %"class.std::__1::__tree_end_node", %"class.std::__1::__tree_end_node"* %38, i64 1, i32 0
  store %"class.std::__1::__tree_node_base"* %36, %"class.std::__1::__tree_node_base"** %49, align 8
  %50 = load %"class.std::__1::__tree_end_node"*, %"class.std::__1::__tree_end_node"** %37, align 8
  %51 = getelementptr inbounds %"class.std::__1::__tree_end_node", %"class.std::__1::__tree_end_node"* %50, i64 0, i32 0
  br label %52

52:                                               ; preds = %48, %44
  %53 = phi %"class.std::__1::__tree_node_base"** [ %47, %44 ], [ %51, %48 ]
  %54 = load %"class.std::__1::__tree_node_base"*, %"class.std::__1::__tree_node_base"** %53, align 8
  br label %55

55:                                               ; preds = %52, %42
  %56 = phi %"class.std::__1::__tree_node_base"* [ %36, %42 ], [ %0, %52 ]
  %57 = phi %"class.std::__1::__tree_node_base"* [ null, %42 ], [ %54, %52 ]
  %58 = getelementptr inbounds %"class.std::__1::__tree_node_base", %"class.std::__1::__tree_node_base"* %34, i64 0, i32 3
  %59 = load i8, i8* %58, align 8, !range !2
  %60 = icmp ne i8 %59, 0
  %61 = icmp eq %"class.std::__1::__tree_node_base"* %34, %1
  br i1 %61, label %90, label %62

62:                                               ; preds = %55
  %63 = getelementptr inbounds %"class.std::__1::__tree_node_base", %"class.std::__1::__tree_node_base"* %1, i64 0, i32 2
  %64 = bitcast %"class.std::__1::__tree_end_node"** %63 to i64*
  %65 = load i64, i64* %64, align 8
  %66 = bitcast %"class.std::__1::__tree_end_node"** %37 to i64*
  store i64 %65, i64* %66, align 8
  %67 = load %"class.std::__1::__tree_end_node"*, %"class.std::__1::__tree_end_node"** %63, align 8
  %68 = getelementptr inbounds %"class.std::__1::__tree_end_node", %"class.std::__1::__tree_end_node"* %67, i64 0, i32 0
  %69 = load %"class.std::__1::__tree_node_base"*, %"class.std::__1::__tree_node_base"** %68, align 8
  %70 = icmp eq %"class.std::__1::__tree_node_base"* %69, %1
  %71 = inttoptr i64 %65 to %"class.std::__1::__tree_node_base"*
  %72 = getelementptr inbounds %"class.std::__1::__tree_node_base", %"class.std::__1::__tree_node_base"* %71, i64 0, i32 1
  %73 = inttoptr i64 %65 to %"class.std::__1::__tree_end_node"*
  %74 = getelementptr inbounds %"class.std::__1::__tree_end_node", %"class.std::__1::__tree_end_node"* %73, i64 0, i32 0
  %75 = select i1 %70, %"class.std::__1::__tree_node_base"** %74, %"class.std::__1::__tree_node_base"** %72
  store %"class.std::__1::__tree_node_base"* %34, %"class.std::__1::__tree_node_base"** %75, align 8
  %76 = load %"class.std::__1::__tree_node_base"*, %"class.std::__1::__tree_node_base"** %3, align 8
  store %"class.std::__1::__tree_node_base"* %76, %"class.std::__1::__tree_node_base"** %33, align 8
  %77 = getelementptr inbounds %"class.std::__1::__tree_node_base", %"class.std::__1::__tree_node_base"* %34, i64 0, i32 0
  %78 = getelementptr inbounds %"class.std::__1::__tree_node_base", %"class.std::__1::__tree_node_base"* %76, i64 0, i32 2
  store %"class.std::__1::__tree_end_node"* %77, %"class.std::__1::__tree_end_node"** %78, align 8
  %79 = getelementptr inbounds %"class.std::__1::__tree_node_base", %"class.std::__1::__tree_node_base"* %1, i64 0, i32 1
  %80 = load %"class.std::__1::__tree_node_base"*, %"class.std::__1::__tree_node_base"** %79, align 8
  %81 = getelementptr inbounds %"class.std::__1::__tree_node_base", %"class.std::__1::__tree_node_base"* %34, i64 0, i32 1
  store %"class.std::__1::__tree_node_base"* %80, %"class.std::__1::__tree_node_base"** %81, align 8
  %82 = icmp eq %"class.std::__1::__tree_node_base"* %80, null
  br i1 %82, label %85, label %83

83:                                               ; preds = %62
  %84 = getelementptr inbounds %"class.std::__1::__tree_node_base", %"class.std::__1::__tree_node_base"* %80, i64 0, i32 2
  store %"class.std::__1::__tree_end_node"* %77, %"class.std::__1::__tree_end_node"** %84, align 8
  br label %85

85:                                               ; preds = %62, %83
  %86 = getelementptr inbounds %"class.std::__1::__tree_node_base", %"class.std::__1::__tree_node_base"* %1, i64 0, i32 3
  %87 = load i8, i8* %86, align 8, !range !2
  store i8 %87, i8* %58, align 8
  %88 = icmp eq %"class.std::__1::__tree_node_base"* %56, %1
  %89 = select i1 %88, %"class.std::__1::__tree_node_base"* %34, %"class.std::__1::__tree_node_base"* %56
  br label %90

90:                                               ; preds = %85, %55
  %91 = phi %"class.std::__1::__tree_node_base"* [ %56, %55 ], [ %89, %85 ]
  %92 = icmp ne %"class.std::__1::__tree_node_base"* %91, null
  %93 = and i1 %60, %92
  br i1 %93, label %94, label %382

94:                                               ; preds = %90
  br i1 %35, label %95, label %97

95:                                               ; preds = %94
  %96 = getelementptr inbounds %"class.std::__1::__tree_node_base", %"class.std::__1::__tree_node_base"* %36, i64 0, i32 3
  store i8 1, i8* %96, align 8
  br label %382

97:                                               ; preds = %94, %371
  %98 = phi %"class.std::__1::__tree_node_base"* [ %373, %371 ], [ %91, %94 ]
  %99 = phi %"class.std::__1::__tree_node_base"* [ %381, %371 ], [ %57, %94 ]
  %100 = getelementptr inbounds %"class.std::__1::__tree_node_base", %"class.std::__1::__tree_node_base"* %99, i64 0, i32 2
  %101 = load %"class.std::__1::__tree_end_node"*, %"class.std::__1::__tree_end_node"** %100, align 8
  %102 = getelementptr inbounds %"class.std::__1::__tree_end_node", %"class.std::__1::__tree_end_node"* %101, i64 0, i32 0
  %103 = load %"class.std::__1::__tree_node_base"*, %"class.std::__1::__tree_node_base"** %102, align 8
  %104 = icmp eq %"class.std::__1::__tree_node_base"* %103, %99
  %105 = getelementptr inbounds %"class.std::__1::__tree_node_base", %"class.std::__1::__tree_node_base"* %99, i64 0, i32 3
  %106 = load i8, i8* %105, align 8, !range !2
  %107 = icmp ne i8 %106, 0
  br i1 %104, label %242, label %108

108:                                              ; preds = %97
  br i1 %107, label %141, label %109

109:                                              ; preds = %108
  store i8 1, i8* %105, align 8
  %110 = bitcast %"class.std::__1::__tree_end_node"** %100 to %"class.std::__1::__tree_node_base"**
  %111 = getelementptr inbounds %"class.std::__1::__tree_end_node", %"class.std::__1::__tree_end_node"* %101, i64 3
  %112 = bitcast %"class.std::__1::__tree_end_node"* %111 to i8*
  store i8 0, i8* %112, align 8
  %113 = load %"class.std::__1::__tree_node_base"*, %"class.std::__1::__tree_node_base"** %110, align 8
  %114 = getelementptr inbounds %"class.std::__1::__tree_node_base", %"class.std::__1::__tree_node_base"* %113, i64 0, i32 1
  %115 = load %"class.std::__1::__tree_node_base"*, %"class.std::__1::__tree_node_base"** %114, align 8
  %116 = getelementptr inbounds %"class.std::__1::__tree_node_base", %"class.std::__1::__tree_node_base"* %115, i64 0, i32 0, i32 0
  %117 = load %"class.std::__1::__tree_node_base"*, %"class.std::__1::__tree_node_base"** %116, align 8
  store %"class.std::__1::__tree_node_base"* %117, %"class.std::__1::__tree_node_base"** %114, align 8
  %118 = icmp eq %"class.std::__1::__tree_node_base"* %117, null
  br i1 %118, label %122, label %119

119:                                              ; preds = %109
  %120 = getelementptr inbounds %"class.std::__1::__tree_node_base", %"class.std::__1::__tree_node_base"* %113, i64 0, i32 0
  %121 = getelementptr inbounds %"class.std::__1::__tree_node_base", %"class.std::__1::__tree_node_base"* %117, i64 0, i32 2
  store %"class.std::__1::__tree_end_node"* %120, %"class.std::__1::__tree_end_node"** %121, align 8
  br label %122

122:                                              ; preds = %119, %109
  %123 = getelementptr inbounds %"class.std::__1::__tree_node_base", %"class.std::__1::__tree_node_base"* %113, i64 0, i32 2
  %124 = bitcast %"class.std::__1::__tree_end_node"** %123 to i64*
  %125 = load i64, i64* %124, align 8
  %126 = getelementptr inbounds %"class.std::__1::__tree_node_base", %"class.std::__1::__tree_node_base"* %115, i64 0, i32 2
  %127 = bitcast %"class.std::__1::__tree_end_node"** %126 to i64*
  store i64 %125, i64* %127, align 8
  %128 = load %"class.std::__1::__tree_end_node"*, %"class.std::__1::__tree_end_node"** %123, align 8
  %129 = getelementptr inbounds %"class.std::__1::__tree_end_node", %"class.std::__1::__tree_end_node"* %128, i64 0, i32 0
  %130 = load %"class.std::__1::__tree_node_base"*, %"class.std::__1::__tree_node_base"** %129, align 8
  %131 = icmp eq %"class.std::__1::__tree_node_base"* %130, %113
  %132 = getelementptr inbounds %"class.std::__1::__tree_end_node", %"class.std::__1::__tree_end_node"* %128, i64 1, i32 0
  %133 = select i1 %131, %"class.std::__1::__tree_node_base"** %129, %"class.std::__1::__tree_node_base"** %132
  store %"class.std::__1::__tree_node_base"* %115, %"class.std::__1::__tree_node_base"** %133, align 8
  store %"class.std::__1::__tree_node_base"* %113, %"class.std::__1::__tree_node_base"** %116, align 8
  %134 = getelementptr inbounds %"class.std::__1::__tree_node_base", %"class.std::__1::__tree_node_base"* %115, i64 0, i32 0
  store %"class.std::__1::__tree_end_node"* %134, %"class.std::__1::__tree_end_node"** %123, align 8
  %135 = getelementptr inbounds %"class.std::__1::__tree_node_base", %"class.std::__1::__tree_node_base"* %99, i64 0, i32 0, i32 0
  %136 = load %"class.std::__1::__tree_node_base"*, %"class.std::__1::__tree_node_base"** %135, align 8
  %137 = icmp eq %"class.std::__1::__tree_node_base"* %98, %136
  %138 = select i1 %137, %"class.std::__1::__tree_node_base"* %99, %"class.std::__1::__tree_node_base"* %98
  %139 = getelementptr inbounds %"class.std::__1::__tree_node_base", %"class.std::__1::__tree_node_base"* %136, i64 0, i32 1
  %140 = load %"class.std::__1::__tree_node_base"*, %"class.std::__1::__tree_node_base"** %139, align 8
  br label %141

141:                                              ; preds = %122, %108
  %142 = phi %"class.std::__1::__tree_node_base"* [ %98, %108 ], [ %138, %122 ]
  %143 = phi %"class.std::__1::__tree_node_base"* [ %99, %108 ], [ %140, %122 ]
  %144 = getelementptr inbounds %"class.std::__1::__tree_node_base", %"class.std::__1::__tree_node_base"* %143, i64 0, i32 0, i32 0
  %145 = load %"class.std::__1::__tree_node_base"*, %"class.std::__1::__tree_node_base"** %144, align 8
  %146 = icmp eq %"class.std::__1::__tree_node_base"* %145, null
  br i1 %146, label %151, label %147

147:                                              ; preds = %141
  %148 = getelementptr inbounds %"class.std::__1::__tree_node_base", %"class.std::__1::__tree_node_base"* %145, i64 0, i32 3
  %149 = load i8, i8* %148, align 8, !range !2
  %150 = icmp eq i8 %149, 0
  br i1 %150, label %172, label %151

151:                                              ; preds = %147, %141
  %152 = getelementptr inbounds %"class.std::__1::__tree_node_base", %"class.std::__1::__tree_node_base"* %143, i64 0, i32 1
  %153 = load %"class.std::__1::__tree_node_base"*, %"class.std::__1::__tree_node_base"** %152, align 8
  %154 = icmp eq %"class.std::__1::__tree_node_base"* %153, null
  br i1 %154, label %159, label %155

155:                                              ; preds = %151
  %156 = getelementptr inbounds %"class.std::__1::__tree_node_base", %"class.std::__1::__tree_node_base"* %153, i64 0, i32 3
  %157 = load i8, i8* %156, align 8, !range !2
  %158 = icmp eq i8 %157, 0
  br i1 %158, label %177, label %159

159:                                              ; preds = %155, %151
  %160 = getelementptr inbounds %"class.std::__1::__tree_node_base", %"class.std::__1::__tree_node_base"* %143, i64 0, i32 3
  store i8 0, i8* %160, align 8
  %161 = getelementptr inbounds %"class.std::__1::__tree_node_base", %"class.std::__1::__tree_node_base"* %143, i64 0, i32 2
  %162 = bitcast %"class.std::__1::__tree_end_node"** %161 to %"class.std::__1::__tree_node_base"**
  %163 = load %"class.std::__1::__tree_node_base"*, %"class.std::__1::__tree_node_base"** %162, align 8
  %164 = icmp eq %"class.std::__1::__tree_node_base"* %163, %142
  br i1 %164, label %169, label %165

165:                                              ; preds = %159
  %166 = getelementptr inbounds %"class.std::__1::__tree_node_base", %"class.std::__1::__tree_node_base"* %163, i64 0, i32 3
  %167 = load i8, i8* %166, align 8, !range !2
  %168 = icmp eq i8 %167, 0
  br i1 %168, label %169, label %371

169:                                              ; preds = %165, %159
  %170 = phi %"class.std::__1::__tree_node_base"* [ %163, %165 ], [ %142, %159 ]
  %171 = getelementptr inbounds %"class.std::__1::__tree_node_base", %"class.std::__1::__tree_node_base"* %170, i64 0, i32 3
  store i8 1, i8* %171, align 8
  br label %382

172:                                              ; preds = %147
  %173 = getelementptr inbounds %"class.std::__1::__tree_node_base", %"class.std::__1::__tree_node_base"* %143, i64 0, i32 0, i32 0
  %174 = getelementptr inbounds %"class.std::__1::__tree_node_base", %"class.std::__1::__tree_node_base"* %143, i64 0, i32 1
  %175 = load %"class.std::__1::__tree_node_base"*, %"class.std::__1::__tree_node_base"** %174, align 8
  %176 = icmp eq %"class.std::__1::__tree_node_base"* %175, null
  br i1 %176, label %185, label %179

177:                                              ; preds = %155
  %178 = getelementptr inbounds %"class.std::__1::__tree_node_base", %"class.std::__1::__tree_node_base"* %143, i64 0, i32 0, i32 0
  br label %179

179:                                              ; preds = %177, %172
  %180 = phi %"class.std::__1::__tree_node_base"** [ %173, %172 ], [ %178, %177 ]
  %181 = phi %"class.std::__1::__tree_node_base"* [ %175, %172 ], [ %153, %177 ]
  %182 = getelementptr inbounds %"class.std::__1::__tree_node_base", %"class.std::__1::__tree_node_base"* %181, i64 0, i32 3
  %183 = load i8, i8* %182, align 8, !range !2
  %184 = icmp eq i8 %183, 0
  br i1 %184, label %209, label %185

185:                                              ; preds = %179, %172
  %186 = phi %"class.std::__1::__tree_node_base"** [ %180, %179 ], [ %173, %172 ]
  %187 = getelementptr inbounds %"class.std::__1::__tree_node_base", %"class.std::__1::__tree_node_base"* %145, i64 0, i32 3
  store i8 1, i8* %187, align 8
  %188 = getelementptr inbounds %"class.std::__1::__tree_node_base", %"class.std::__1::__tree_node_base"* %143, i64 0, i32 3
  store i8 0, i8* %188, align 8
  %189 = load %"class.std::__1::__tree_node_base"*, %"class.std::__1::__tree_node_base"** %186, align 8
  %190 = getelementptr inbounds %"class.std::__1::__tree_node_base", %"class.std::__1::__tree_node_base"* %189, i64 0, i32 1
  %191 = load %"class.std::__1::__tree_node_base"*, %"class.std::__1::__tree_node_base"** %190, align 8
  store %"class.std::__1::__tree_node_base"* %191, %"class.std::__1::__tree_node_base"** %186, align 8
  %192 = icmp eq %"class.std::__1::__tree_node_base"* %191, null
  br i1 %192, label %196, label %193

193:                                              ; preds = %185
  %194 = getelementptr inbounds %"class.std::__1::__tree_node_base", %"class.std::__1::__tree_node_base"* %143, i64 0, i32 0
  %195 = getelementptr inbounds %"class.std::__1::__tree_node_base", %"class.std::__1::__tree_node_base"* %191, i64 0, i32 2
  store %"class.std::__1::__tree_end_node"* %194, %"class.std::__1::__tree_end_node"** %195, align 8
  br label %196

196:                                              ; preds = %193, %185
  %197 = getelementptr inbounds %"class.std::__1::__tree_node_base", %"class.std::__1::__tree_node_base"* %143, i64 0, i32 2
  %198 = bitcast %"class.std::__1::__tree_end_node"** %197 to i64*
  %199 = load i64, i64* %198, align 8
  %200 = getelementptr inbounds %"class.std::__1::__tree_node_base", %"class.std::__1::__tree_node_base"* %189, i64 0, i32 2
  %201 = bitcast %"class.std::__1::__tree_end_node"** %200 to i64*
  store i64 %199, i64* %201, align 8
  %202 = load %"class.std::__1::__tree_end_node"*, %"class.std::__1::__tree_end_node"** %197, align 8
  %203 = getelementptr inbounds %"class.std::__1::__tree_end_node", %"class.std::__1::__tree_end_node"* %202, i64 0, i32 0
  %204 = load %"class.std::__1::__tree_node_base"*, %"class.std::__1::__tree_node_base"** %203, align 8
  %205 = icmp eq %"class.std::__1::__tree_node_base"* %204, %143
  %206 = getelementptr inbounds %"class.std::__1::__tree_end_node", %"class.std::__1::__tree_end_node"* %202, i64 1, i32 0
  %207 = select i1 %205, %"class.std::__1::__tree_node_base"** %203, %"class.std::__1::__tree_node_base"** %206
  store %"class.std::__1::__tree_node_base"* %189, %"class.std::__1::__tree_node_base"** %207, align 8
  store %"class.std::__1::__tree_node_base"* %143, %"class.std::__1::__tree_node_base"** %190, align 8
  %208 = getelementptr inbounds %"class.std::__1::__tree_node_base", %"class.std::__1::__tree_node_base"* %189, i64 0, i32 0
  store %"class.std::__1::__tree_end_node"* %208, %"class.std::__1::__tree_end_node"** %197, align 8
  br label %209

209:                                              ; preds = %179, %196
  %210 = phi %"class.std::__1::__tree_node_base"* [ %189, %196 ], [ %143, %179 ]
  %211 = getelementptr inbounds %"class.std::__1::__tree_node_base", %"class.std::__1::__tree_node_base"* %210, i64 0, i32 2
  %212 = bitcast %"class.std::__1::__tree_end_node"** %211 to %"class.std::__1::__tree_node_base"**
  %213 = load %"class.std::__1::__tree_node_base"*, %"class.std::__1::__tree_node_base"** %212, align 8
  %214 = getelementptr inbounds %"class.std::__1::__tree_node_base", %"class.std::__1::__tree_node_base"* %213, i64 0, i32 3
  %215 = load i8, i8* %214, align 8, !range !2
  %216 = getelementptr inbounds %"class.std::__1::__tree_node_base", %"class.std::__1::__tree_node_base"* %210, i64 0, i32 3
  store i8 %215, i8* %216, align 8
  store i8 1, i8* %214, align 8
  %217 = getelementptr inbounds %"class.std::__1::__tree_node_base", %"class.std::__1::__tree_node_base"* %210, i64 0, i32 1
  %218 = load %"class.std::__1::__tree_node_base"*, %"class.std::__1::__tree_node_base"** %217, align 8
  %219 = getelementptr inbounds %"class.std::__1::__tree_node_base", %"class.std::__1::__tree_node_base"* %218, i64 0, i32 3
  store i8 1, i8* %219, align 8
  %220 = load %"class.std::__1::__tree_node_base"*, %"class.std::__1::__tree_node_base"** %212, align 8
  %221 = getelementptr inbounds %"class.std::__1::__tree_node_base", %"class.std::__1::__tree_node_base"* %220, i64 0, i32 1
  %222 = load %"class.std::__1::__tree_node_base"*, %"class.std::__1::__tree_node_base"** %221, align 8
  %223 = getelementptr inbounds %"class.std::__1::__tree_node_base", %"class.std::__1::__tree_node_base"* %222, i64 0, i32 0, i32 0
  %224 = load %"class.std::__1::__tree_node_base"*, %"class.std::__1::__tree_node_base"** %223, align 8
  store %"class.std::__1::__tree_node_base"* %224, %"class.std::__1::__tree_node_base"** %221, align 8
  %225 = icmp eq %"class.std::__1::__tree_node_base"* %224, null
  br i1 %225, label %229, label %226

226:                                              ; preds = %209
  %227 = getelementptr inbounds %"class.std::__1::__tree_node_base", %"class.std::__1::__tree_node_base"* %220, i64 0, i32 0
  %228 = getelementptr inbounds %"class.std::__1::__tree_node_base", %"class.std::__1::__tree_node_base"* %224, i64 0, i32 2
  store %"class.std::__1::__tree_end_node"* %227, %"class.std::__1::__tree_end_node"** %228, align 8
  br label %229

229:                                              ; preds = %226, %209
  %230 = getelementptr inbounds %"class.std::__1::__tree_node_base", %"class.std::__1::__tree_node_base"* %220, i64 0, i32 2
  %231 = bitcast %"class.std::__1::__tree_end_node"** %230 to i64*
  %232 = load i64, i64* %231, align 8
  %233 = getelementptr inbounds %"class.std::__1::__tree_node_base", %"class.std::__1::__tree_node_base"* %222, i64 0, i32 2
  %234 = bitcast %"class.std::__1::__tree_end_node"** %233 to i64*
  store i64 %232, i64* %234, align 8
  %235 = load %"class.std::__1::__tree_end_node"*, %"class.std::__1::__tree_end_node"** %230, align 8
  %236 = getelementptr inbounds %"class.std::__1::__tree_end_node", %"class.std::__1::__tree_end_node"* %235, i64 0, i32 0
  %237 = load %"class.std::__1::__tree_node_base"*, %"class.std::__1::__tree_node_base"** %236, align 8
  %238 = icmp eq %"class.std::__1::__tree_node_base"* %237, %220
  %239 = getelementptr inbounds %"class.std::__1::__tree_end_node", %"class.std::__1::__tree_end_node"* %235, i64 1, i32 0
  %240 = select i1 %238, %"class.std::__1::__tree_node_base"** %236, %"class.std::__1::__tree_node_base"** %239
  store %"class.std::__1::__tree_node_base"* %222, %"class.std::__1::__tree_node_base"** %240, align 8
  store %"class.std::__1::__tree_node_base"* %220, %"class.std::__1::__tree_node_base"** %223, align 8
  %241 = getelementptr inbounds %"class.std::__1::__tree_node_base", %"class.std::__1::__tree_node_base"* %222, i64 0, i32 0
  store %"class.std::__1::__tree_end_node"* %241, %"class.std::__1::__tree_end_node"** %230, align 8
  br label %382

242:                                              ; preds = %97
  br i1 %107, label %275, label %243

243:                                              ; preds = %242
  store i8 1, i8* %105, align 8
  %244 = bitcast %"class.std::__1::__tree_end_node"** %100 to %"class.std::__1::__tree_node_base"**
  %245 = getelementptr inbounds %"class.std::__1::__tree_end_node", %"class.std::__1::__tree_end_node"* %101, i64 3
  %246 = bitcast %"class.std::__1::__tree_end_node"* %245 to i8*
  store i8 0, i8* %246, align 8
  %247 = load %"class.std::__1::__tree_node_base"*, %"class.std::__1::__tree_node_base"** %244, align 8
  %248 = getelementptr inbounds %"class.std::__1::__tree_node_base", %"class.std::__1::__tree_node_base"* %247, i64 0, i32 0, i32 0
  %249 = load %"class.std::__1::__tree_node_base"*, %"class.std::__1::__tree_node_base"** %248, align 8
  %250 = getelementptr inbounds %"class.std::__1::__tree_node_base", %"class.std::__1::__tree_node_base"* %249, i64 0, i32 1
  %251 = load %"class.std::__1::__tree_node_base"*, %"class.std::__1::__tree_node_base"** %250, align 8
  store %"class.std::__1::__tree_node_base"* %251, %"class.std::__1::__tree_node_base"** %248, align 8
  %252 = icmp eq %"class.std::__1::__tree_node_base"* %251, null
  br i1 %252, label %256, label %253

253:                                              ; preds = %243
  %254 = getelementptr inbounds %"class.std::__1::__tree_node_base", %"class.std::__1::__tree_node_base"* %247, i64 0, i32 0
  %255 = getelementptr inbounds %"class.std::__1::__tree_node_base", %"class.std::__1::__tree_node_base"* %251, i64 0, i32 2
  store %"class.std::__1::__tree_end_node"* %254, %"class.std::__1::__tree_end_node"** %255, align 8
  br label %256

256:                                              ; preds = %253, %243
  %257 = getelementptr inbounds %"class.std::__1::__tree_node_base", %"class.std::__1::__tree_node_base"* %247, i64 0, i32 2
  %258 = bitcast %"class.std::__1::__tree_end_node"** %257 to i64*
  %259 = load i64, i64* %258, align 8
  %260 = getelementptr inbounds %"class.std::__1::__tree_node_base", %"class.std::__1::__tree_node_base"* %249, i64 0, i32 2
  %261 = bitcast %"class.std::__1::__tree_end_node"** %260 to i64*
  store i64 %259, i64* %261, align 8
  %262 = load %"class.std::__1::__tree_end_node"*, %"class.std::__1::__tree_end_node"** %257, align 8
  %263 = getelementptr inbounds %"class.std::__1::__tree_end_node", %"class.std::__1::__tree_end_node"* %262, i64 0, i32 0
  %264 = load %"class.std::__1::__tree_node_base"*, %"class.std::__1::__tree_node_base"** %263, align 8
  %265 = icmp eq %"class.std::__1::__tree_node_base"* %264, %247
  %266 = getelementptr inbounds %"class.std::__1::__tree_end_node", %"class.std::__1::__tree_end_node"* %262, i64 1, i32 0
  %267 = select i1 %265, %"class.std::__1::__tree_node_base"** %263, %"class.std::__1::__tree_node_base"** %266
  store %"class.std::__1::__tree_node_base"* %249, %"class.std::__1::__tree_node_base"** %267, align 8
  store %"class.std::__1::__tree_node_base"* %247, %"class.std::__1::__tree_node_base"** %250, align 8
  %268 = getelementptr inbounds %"class.std::__1::__tree_node_base", %"class.std::__1::__tree_node_base"* %249, i64 0, i32 0
  store %"class.std::__1::__tree_end_node"* %268, %"class.std::__1::__tree_end_node"** %257, align 8
  %269 = getelementptr inbounds %"class.std::__1::__tree_node_base", %"class.std::__1::__tree_node_base"* %99, i64 0, i32 1
  %270 = load %"class.std::__1::__tree_node_base"*, %"class.std::__1::__tree_node_base"** %269, align 8
  %271 = icmp eq %"class.std::__1::__tree_node_base"* %98, %270
  %272 = select i1 %271, %"class.std::__1::__tree_node_base"* %99, %"class.std::__1::__tree_node_base"* %98
  %273 = getelementptr inbounds %"class.std::__1::__tree_node_base", %"class.std::__1::__tree_node_base"* %270, i64 0, i32 0, i32 0
  %274 = load %"class.std::__1::__tree_node_base"*, %"class.std::__1::__tree_node_base"** %273, align 8
  br label %275

275:                                              ; preds = %256, %242
  %276 = phi %"class.std::__1::__tree_node_base"* [ %98, %242 ], [ %272, %256 ]
  %277 = phi %"class.std::__1::__tree_node_base"* [ %99, %242 ], [ %274, %256 ]
  %278 = getelementptr inbounds %"class.std::__1::__tree_node_base", %"class.std::__1::__tree_node_base"* %277, i64 0, i32 0, i32 0
  %279 = load %"class.std::__1::__tree_node_base"*, %"class.std::__1::__tree_node_base"** %278, align 8
  %280 = icmp eq %"class.std::__1::__tree_node_base"* %279, null
  br i1 %280, label %285, label %281

281:                                              ; preds = %275
  %282 = getelementptr inbounds %"class.std::__1::__tree_node_base", %"class.std::__1::__tree_node_base"* %279, i64 0, i32 3
  %283 = load i8, i8* %282, align 8, !range !2
  %284 = icmp eq i8 %283, 0
  br i1 %284, label %338, label %285

285:                                              ; preds = %281, %275
  %286 = getelementptr inbounds %"class.std::__1::__tree_node_base", %"class.std::__1::__tree_node_base"* %277, i64 0, i32 1
  %287 = load %"class.std::__1::__tree_node_base"*, %"class.std::__1::__tree_node_base"** %286, align 8
  %288 = icmp eq %"class.std::__1::__tree_node_base"* %287, null
  br i1 %288, label %293, label %289

289:                                              ; preds = %285
  %290 = getelementptr inbounds %"class.std::__1::__tree_node_base", %"class.std::__1::__tree_node_base"* %287, i64 0, i32 3
  %291 = load i8, i8* %290, align 8, !range !2
  %292 = icmp eq i8 %291, 0
  br i1 %292, label %305, label %293

293:                                              ; preds = %289, %285
  %294 = getelementptr inbounds %"class.std::__1::__tree_node_base", %"class.std::__1::__tree_node_base"* %277, i64 0, i32 3
  store i8 0, i8* %294, align 8
  %295 = getelementptr inbounds %"class.std::__1::__tree_node_base", %"class.std::__1::__tree_node_base"* %277, i64 0, i32 2
  %296 = bitcast %"class.std::__1::__tree_end_node"** %295 to %"class.std::__1::__tree_node_base"**
  %297 = load %"class.std::__1::__tree_node_base"*, %"class.std::__1::__tree_node_base"** %296, align 8
  %298 = getelementptr inbounds %"class.std::__1::__tree_node_base", %"class.std::__1::__tree_node_base"* %297, i64 0, i32 3
  %299 = load i8, i8* %298, align 8, !range !2
  %300 = icmp eq i8 %299, 0
  %301 = icmp eq %"class.std::__1::__tree_node_base"* %297, %276
  %302 = or i1 %301, %300
  br i1 %302, label %303, label %371

303:                                              ; preds = %293
  %304 = getelementptr inbounds %"class.std::__1::__tree_node_base", %"class.std::__1::__tree_node_base"* %297, i64 0, i32 3
  store i8 1, i8* %304, align 8
  br label %382

305:                                              ; preds = %289
  br i1 %280, label %313, label %306

306:                                              ; preds = %305
  %307 = getelementptr inbounds %"class.std::__1::__tree_node_base", %"class.std::__1::__tree_node_base"* %279, i64 0, i32 3
  %308 = load i8, i8* %307, align 8, !range !2
  %309 = icmp eq i8 %308, 0
  br i1 %309, label %338, label %310

310:                                              ; preds = %306
  %311 = getelementptr inbounds %"class.std::__1::__tree_node_base", %"class.std::__1::__tree_node_base"* %277, i64 0, i32 1
  %312 = load %"class.std::__1::__tree_node_base"*, %"class.std::__1::__tree_node_base"** %311, align 8
  br label %313

313:                                              ; preds = %310, %305
  %314 = phi %"class.std::__1::__tree_node_base"* [ %312, %310 ], [ %287, %305 ]
  %315 = getelementptr inbounds %"class.std::__1::__tree_node_base", %"class.std::__1::__tree_node_base"* %277, i64 0, i32 1
  %316 = getelementptr inbounds %"class.std::__1::__tree_node_base", %"class.std::__1::__tree_node_base"* %314, i64 0, i32 3
  store i8 1, i8* %316, align 8
  %317 = getelementptr inbounds %"class.std::__1::__tree_node_base", %"class.std::__1::__tree_node_base"* %277, i64 0, i32 3
  store i8 0, i8* %317, align 8
  %318 = load %"class.std::__1::__tree_node_base"*, %"class.std::__1::__tree_node_base"** %315, align 8
  %319 = getelementptr inbounds %"class.std::__1::__tree_node_base", %"class.std::__1::__tree_node_base"* %318, i64 0, i32 0, i32 0
  %320 = load %"class.std::__1::__tree_node_base"*, %"class.std::__1::__tree_node_base"** %319, align 8
  store %"class.std::__1::__tree_node_base"* %320, %"class.std::__1::__tree_node_base"** %315, align 8
  %321 = icmp eq %"class.std::__1::__tree_node_base"* %320, null
  br i1 %321, label %325, label %322

322:                                              ; preds = %313
  %323 = getelementptr inbounds %"class.std::__1::__tree_node_base", %"class.std::__1::__tree_node_base"* %277, i64 0, i32 0
  %324 = getelementptr inbounds %"class.std::__1::__tree_node_base", %"class.std::__1::__tree_node_base"* %320, i64 0, i32 2
  store %"class.std::__1::__tree_end_node"* %323, %"class.std::__1::__tree_end_node"** %324, align 8
  br label %325

325:                                              ; preds = %322, %313
  %326 = getelementptr inbounds %"class.std::__1::__tree_node_base", %"class.std::__1::__tree_node_base"* %277, i64 0, i32 2
  %327 = bitcast %"class.std::__1::__tree_end_node"** %326 to i64*
  %328 = load i64, i64* %327, align 8
  %329 = getelementptr inbounds %"class.std::__1::__tree_node_base", %"class.std::__1::__tree_node_base"* %318, i64 0, i32 2
  %330 = bitcast %"class.std::__1::__tree_end_node"** %329 to i64*
  store i64 %328, i64* %330, align 8
  %331 = load %"class.std::__1::__tree_end_node"*, %"class.std::__1::__tree_end_node"** %326, align 8
  %332 = getelementptr inbounds %"class.std::__1::__tree_end_node", %"class.std::__1::__tree_end_node"* %331, i64 0, i32 0
  %333 = load %"class.std::__1::__tree_node_base"*, %"class.std::__1::__tree_node_base"** %332, align 8
  %334 = icmp eq %"class.std::__1::__tree_node_base"* %333, %277
  %335 = getelementptr inbounds %"class.std::__1::__tree_end_node", %"class.std::__1::__tree_end_node"* %331, i64 1, i32 0
  %336 = select i1 %334, %"class.std::__1::__tree_node_base"** %332, %"class.std::__1::__tree_node_base"** %335
  store %"class.std::__1::__tree_node_base"* %318, %"class.std::__1::__tree_node_base"** %336, align 8
  store %"class.std::__1::__tree_node_base"* %277, %"class.std::__1::__tree_node_base"** %319, align 8
  %337 = getelementptr inbounds %"class.std::__1::__tree_node_base", %"class.std::__1::__tree_node_base"* %318, i64 0, i32 0
  store %"class.std::__1::__tree_end_node"* %337, %"class.std::__1::__tree_end_node"** %326, align 8
  br label %338

338:                                              ; preds = %281, %306, %325
  %339 = phi %"class.std::__1::__tree_node_base"* [ %318, %325 ], [ %277, %306 ], [ %277, %281 ]
  %340 = getelementptr inbounds %"class.std::__1::__tree_node_base", %"class.std::__1::__tree_node_base"* %339, i64 0, i32 2
  %341 = bitcast %"class.std::__1::__tree_end_node"** %340 to %"class.std::__1::__tree_node_base"**
  %342 = load %"class.std::__1::__tree_node_base"*, %"class.std::__1::__tree_node_base"** %341, align 8
  %343 = getelementptr inbounds %"class.std::__1::__tree_node_base", %"class.std::__1::__tree_node_base"* %342, i64 0, i32 3
  %344 = load i8, i8* %343, align 8, !range !2
  %345 = getelementptr inbounds %"class.std::__1::__tree_node_base", %"class.std::__1::__tree_node_base"* %339, i64 0, i32 3
  store i8 %344, i8* %345, align 8
  store i8 1, i8* %343, align 8
  %346 = getelementptr inbounds %"class.std::__1::__tree_node_base", %"class.std::__1::__tree_node_base"* %339, i64 0, i32 0, i32 0
  %347 = load %"class.std::__1::__tree_node_base"*, %"class.std::__1::__tree_node_base"** %346, align 8
  %348 = getelementptr inbounds %"class.std::__1::__tree_node_base", %"class.std::__1::__tree_node_base"* %347, i64 0, i32 3
  store i8 1, i8* %348, align 8
  %349 = load %"class.std::__1::__tree_node_base"*, %"class.std::__1::__tree_node_base"** %341, align 8
  %350 = getelementptr inbounds %"class.std::__1::__tree_node_base", %"class.std::__1::__tree_node_base"* %349, i64 0, i32 0, i32 0
  %351 = load %"class.std::__1::__tree_node_base"*, %"class.std::__1::__tree_node_base"** %350, align 8
  %352 = getelementptr inbounds %"class.std::__1::__tree_node_base", %"class.std::__1::__tree_node_base"* %351, i64 0, i32 1
  %353 = load %"class.std::__1::__tree_node_base"*, %"class.std::__1::__tree_node_base"** %352, align 8
  store %"class.std::__1::__tree_node_base"* %353, %"class.std::__1::__tree_node_base"** %350, align 8
  %354 = icmp eq %"class.std::__1::__tree_node_base"* %353, null
  br i1 %354, label %358, label %355

355:                                              ; preds = %338
  %356 = getelementptr inbounds %"class.std::__1::__tree_node_base", %"class.std::__1::__tree_node_base"* %349, i64 0, i32 0
  %357 = getelementptr inbounds %"class.std::__1::__tree_node_base", %"class.std::__1::__tree_node_base"* %353, i64 0, i32 2
  store %"class.std::__1::__tree_end_node"* %356, %"class.std::__1::__tree_end_node"** %357, align 8
  br label %358

358:                                              ; preds = %355, %338
  %359 = getelementptr inbounds %"class.std::__1::__tree_node_base", %"class.std::__1::__tree_node_base"* %349, i64 0, i32 2
  %360 = bitcast %"class.std::__1::__tree_end_node"** %359 to i64*
  %361 = load i64, i64* %360, align 8
  %362 = getelementptr inbounds %"class.std::__1::__tree_node_base", %"class.std::__1::__tree_node_base"* %351, i64 0, i32 2
  %363 = bitcast %"class.std::__1::__tree_end_node"** %362 to i64*
  store i64 %361, i64* %363, align 8
  %364 = load %"class.std::__1::__tree_end_node"*, %"class.std::__1::__tree_end_node"** %359, align 8
  %365 = getelementptr inbounds %"class.std::__1::__tree_end_node", %"class.std::__1::__tree_end_node"* %364, i64 0, i32 0
  %366 = load %"class.std::__1::__tree_node_base"*, %"class.std::__1::__tree_node_base"** %365, align 8
  %367 = icmp eq %"class.std::__1::__tree_node_base"* %366, %349
  %368 = getelementptr inbounds %"class.std::__1::__tree_end_node", %"class.std::__1::__tree_end_node"* %364, i64 1, i32 0
  %369 = select i1 %367, %"class.std::__1::__tree_node_base"** %365, %"class.std::__1::__tree_node_base"** %368
  store %"class.std::__1::__tree_node_base"* %351, %"class.std::__1::__tree_node_base"** %369, align 8
  store %"class.std::__1::__tree_node_base"* %349, %"class.std::__1::__tree_node_base"** %352, align 8
  %370 = getelementptr inbounds %"class.std::__1::__tree_node_base", %"class.std::__1::__tree_node_base"* %351, i64 0, i32 0
  store %"class.std::__1::__tree_end_node"* %370, %"class.std::__1::__tree_end_node"** %359, align 8
  br label %382

371:                                              ; preds = %293, %165
  %372 = phi %"class.std::__1::__tree_node_base"* [ %163, %165 ], [ %297, %293 ]
  %373 = phi %"class.std::__1::__tree_node_base"* [ %142, %165 ], [ %276, %293 ]
  %374 = getelementptr inbounds %"class.std::__1::__tree_node_base", %"class.std::__1::__tree_node_base"* %372, i64 0, i32 2
  %375 = load %"class.std::__1::__tree_end_node"*, %"class.std::__1::__tree_end_node"** %374, align 8
  %376 = getelementptr inbounds %"class.std::__1::__tree_end_node", %"class.std::__1::__tree_end_node"* %375, i64 0, i32 0
  %377 = load %"class.std::__1::__tree_node_base"*, %"class.std::__1::__tree_node_base"** %376, align 8
  %378 = icmp eq %"class.std::__1::__tree_node_base"* %377, %372
  %379 = getelementptr inbounds %"class.std::__1::__tree_end_node", %"class.std::__1::__tree_end_node"* %375, i64 1, i32 0
  %380 = select i1 %378, %"class.std::__1::__tree_node_base"** %379, %"class.std::__1::__tree_node_base"** %376
  %381 = load %"class.std::__1::__tree_node_base"*, %"class.std::__1::__tree_node_base"** %380, align 8
  br label %97

382:                                              ; preds = %95, %358, %303, %229, %169, %90
  ret void
}

; Function Attrs: nounwind
declare void @_ZN4mojo8internal18PendingRemoteStateC1EOS1_(%"struct.mojo::internal::PendingRemoteState"*, %"struct.mojo::internal::PendingRemoteState"* dereferenceable(8)) unnamed_addr #4

; Function Attrs: nounwind
declare void @_ZN4mojo8internal18PendingRemoteStateD1Ev(%"struct.mojo::internal::PendingRemoteState"*) unnamed_addr #4

; Function Attrs: nounwind
declare void @_ZN4GURLD1Ev(%class.GURL*) unnamed_addr #4

declare %"class.base::SupportsUserData::Data"* @_ZNK4base16SupportsUserData11GetUserDataEPKv(%"class.base::SupportsUserData"*, i8*) local_unnamed_addr #1

declare void @_ZN7content22WebContentsReceiverSetC2EPNS_11WebContentsERKNSt3__112basic_stringIcNS3_11char_traitsIcEENS3_9allocatorIcEEEE(%"class.content::WebContentsReceiverSet"*, %"class.content::WebContents"*, %"class.std::__1::basic_string"* dereferenceable(24)) unnamed_addr #1

; Function Attrs: noreturn
declare void @_ZNKSt3__121__basic_string_commonILb1EE20__throw_length_errorEv(%"class.std::__1::__basic_string_common"*) local_unnamed_addr #12

; Function Attrs: argmemonly nofree nounwind readonly
declare i64 @strlen(i8* nocapture) local_unnamed_addr #13

declare void @_ZN4mojo16ReceiverSetStateC1Ev(%"class.mojo::ReceiverSetState"*) unnamed_addr #1

declare void @_ZN4mojo8internal21InterfacePtrStateBase4SwapEPS1_(%"class.mojo::internal::InterfacePtrStateBase"*, %"class.mojo::internal::InterfacePtrStateBase"*) local_unnamed_addr #1

; Function Attrs: nounwind ssp uwtable
define linkonce_odr hidden void @_ZN4mojo6RemoteIN3pdf5mojom11PdfListenerEE4BindENS_13PendingRemoteIS3_EE13scoped_refptrIN4base19SequencedTaskRunnerEE(%"class.mojo::Remote"*, %"class.mojo::PendingRemote"*, %"class.base::SequencedTaskRunner"*) local_unnamed_addr #0 comdat align 2 {
  %4 = alloca %"class.mojo::internal::InterfacePtrState", align 8
  %5 = getelementptr inbounds %"class.mojo::PendingRemote", %"class.mojo::PendingRemote"* %1, i64 0, i32 0, i32 0, i32 0, i32 0, i32 0
  %6 = load i32, i32* %5, align 4
  %7 = icmp eq i32 %6, 0
  br i1 %7, label %8, label %25

8:                                                ; preds = %3
  %9 = bitcast %"class.mojo::internal::InterfacePtrState"* %4 to i8*
  call void @llvm.lifetime.start.p0i8(i64 48, i8* nonnull %9) #14
  call void @llvm.memset.p0i8.i64(i8* nonnull align 8 %9, i8 -86, i64 48, i1 false) #14
  %10 = bitcast %"class.mojo::internal::InterfacePtrState"* %4 to %"class.mojo::internal::InterfacePtrStateBase"*
  call void @_ZN4mojo8internal21InterfacePtrStateBaseC2Ev(%"class.mojo::internal::InterfacePtrStateBase"* nonnull %10) #14
  %11 = getelementptr inbounds %"class.mojo::internal::InterfacePtrState", %"class.mojo::internal::InterfacePtrState"* %4, i64 0, i32 1
  %12 = bitcast %"class.std::__1::unique_ptr.209"* %11 to i64*
  %13 = getelementptr inbounds %"class.mojo::Remote", %"class.mojo::Remote"* %0, i64 0, i32 0, i32 1
  %14 = bitcast %"class.std::__1::unique_ptr.209"* %13 to i64*
  %15 = load i64, i64* %14, align 8
  store i64 %15, i64* %12, align 8
  store i64 0, i64* %14, align 8
  %16 = bitcast %"class.mojo::Remote"* %0 to %"class.mojo::internal::InterfacePtrStateBase"*
  call void @_ZN4mojo8internal21InterfacePtrStateBase4SwapEPS1_(%"class.mojo::internal::InterfacePtrStateBase"* %16, %"class.mojo::internal::InterfacePtrStateBase"* nonnull %10) #14
  %17 = getelementptr inbounds %"class.mojo::internal::InterfacePtrState", %"class.mojo::internal::InterfacePtrState"* %4, i64 0, i32 1, i32 0, i32 0, i32 0
  %18 = load %"class.pdf::mojom::PdfListenerProxy"*, %"class.pdf::mojom::PdfListenerProxy"** %17, align 8
  store %"class.pdf::mojom::PdfListenerProxy"* null, %"class.pdf::mojom::PdfListenerProxy"** %17, align 8
  %19 = icmp eq %"class.pdf::mojom::PdfListenerProxy"* %18, null
  br i1 %19, label %29, label %20

20:                                               ; preds = %8
  %21 = bitcast %"class.pdf::mojom::PdfListenerProxy"* %18 to void (%"class.pdf::mojom::PdfListenerProxy"*)***
  %22 = load void (%"class.pdf::mojom::PdfListenerProxy"*)**, void (%"class.pdf::mojom::PdfListenerProxy"*)*** %21, align 8
  %23 = getelementptr inbounds void (%"class.pdf::mojom::PdfListenerProxy"*)*, void (%"class.pdf::mojom::PdfListenerProxy"*)** %22, i64 1
  %24 = load void (%"class.pdf::mojom::PdfListenerProxy"*)*, void (%"class.pdf::mojom::PdfListenerProxy"*)** %23, align 8
  call void %24(%"class.pdf::mojom::PdfListenerProxy"* nonnull %18) #14
  br label %29

25:                                               ; preds = %3
  %26 = getelementptr inbounds %"class.mojo::Remote", %"class.mojo::Remote"* %0, i64 0, i32 0
  %27 = getelementptr inbounds %"class.mojo::PendingRemote", %"class.mojo::PendingRemote"* %1, i64 0, i32 0
  %28 = bitcast %"class.mojo::Remote"* %0 to %"class.mojo::internal::InterfacePtrStateBase"*
  tail call void @_ZN4mojo8internal21InterfacePtrStateBase4BindEPNS0_18PendingRemoteStateE13scoped_refptrIN4base19SequencedTaskRunnerEE(%"class.mojo::internal::InterfacePtrStateBase"* %28, %"struct.mojo::internal::PendingRemoteState"* %27, %"class.base::SequencedTaskRunner"* %2) #14
  tail call void @_ZN4mojo8internal17InterfacePtrStateIN3pdf5mojom11PdfListenerEE25ConfigureProxyIfNecessaryEv(%"class.mojo::internal::InterfacePtrState"* %26) #14
  br label %39

29:                                               ; preds = %20, %8
  call void @_ZN4mojo8internal21InterfacePtrStateBaseD2Ev(%"class.mojo::internal::InterfacePtrStateBase"* nonnull %10) #14
  call void @llvm.lifetime.end.p0i8(i64 48, i8* nonnull %9) #14
  %30 = icmp eq %"class.base::SequencedTaskRunner"* %2, null
  br i1 %30, label %39, label %31

31:                                               ; preds = %29
  %32 = getelementptr inbounds %"class.base::SequencedTaskRunner", %"class.base::SequencedTaskRunner"* %2, i64 0, i32 0, i32 1
  %33 = getelementptr inbounds %"class.base::RefCountedThreadSafe.42", %"class.base::RefCountedThreadSafe.42"* %32, i64 0, i32 0, i32 0, i32 0, i32 0, i32 0, i32 0, i32 0, i32 0
  %34 = atomicrmw sub i32* %33, i32 1 acq_rel
  %35 = icmp eq i32 %34, 1
  br i1 %35, label %36, label %39

36:                                               ; preds = %31
  %37 = getelementptr inbounds %"class.base::RefCountedThreadSafe.42", %"class.base::RefCountedThreadSafe.42"* %32, i64 -2
  %38 = bitcast %"class.base::RefCountedThreadSafe.42"* %37 to %"class.base::TaskRunner"*
  call void @_ZN4base16TaskRunnerTraits8DestructEPKNS_10TaskRunnerE(%"class.base::TaskRunner"* %38) #14
  br label %39

39:                                               ; preds = %25, %29, %31, %36
  ret void
}

declare void @_ZN4mojo8internal21InterfacePtrStateBase4BindEPNS0_18PendingRemoteStateE13scoped_refptrIN4base19SequencedTaskRunnerEE(%"class.mojo::internal::InterfacePtrStateBase"*, %"struct.mojo::internal::PendingRemoteState"*, %"class.base::SequencedTaskRunner"*) local_unnamed_addr #1

; Function Attrs: nounwind ssp uwtable
define linkonce_odr hidden void @_ZN4mojo8internal17InterfacePtrStateIN3pdf5mojom11PdfListenerEE25ConfigureProxyIfNecessaryEv(%"class.mojo::internal::InterfacePtrState"*) local_unnamed_addr #0 comdat align 2 {
  %2 = getelementptr inbounds %"class.mojo::internal::InterfacePtrState", %"class.mojo::internal::InterfacePtrState"* %0, i64 0, i32 1
  %3 = getelementptr inbounds %"class.std::__1::unique_ptr.209", %"class.std::__1::unique_ptr.209"* %2, i64 0, i32 0, i32 0, i32 0
  %4 = load %"class.pdf::mojom::PdfListenerProxy"*, %"class.pdf::mojom::PdfListenerProxy"** %3, align 8
  %5 = icmp eq %"class.pdf::mojom::PdfListenerProxy"* %4, null
  br i1 %5, label %6, label %27

6:                                                ; preds = %1
  %7 = bitcast %"class.mojo::internal::InterfacePtrState"* %0 to %"class.mojo::internal::InterfacePtrStateBase"*
  %8 = tail call i8* @_Znwm(i64 8) #15
  %9 = bitcast i8* %8 to %"class.mojo::PassThroughFilter"*
  tail call void @_ZN4mojo17PassThroughFilterC1Ev(%"class.mojo::PassThroughFilter"* nonnull %9) #14
  %10 = bitcast i8* %8 to %"class.mojo::MessageReceiver"*
  %11 = tail call zeroext i1 @_ZN4mojo8internal21InterfacePtrStateBase24InitializeEndpointClientEbbbNSt3__110unique_ptrINS_15MessageReceiverENS2_14default_deleteIS4_EEEEPKc(%"class.mojo::internal::InterfacePtrStateBase"* %7, i1 zeroext false, i1 zeroext false, i1 zeroext false, %"class.mojo::MessageReceiver"* nonnull %10, i8* getelementptr inbounds ([0 x i8], [0 x i8]* @_ZN3pdf5mojom11PdfListener5Name_E, i64 0, i64 0)) #14
  br i1 %11, label %12, label %27

12:                                               ; preds = %6
  %13 = getelementptr inbounds %"class.mojo::internal::InterfacePtrState", %"class.mojo::internal::InterfacePtrState"* %0, i64 0, i32 0, i32 1, i32 0, i32 0, i32 0
  %14 = bitcast %"class.mojo::InterfaceEndpointClient"** %13 to %"class.mojo::MessageReceiverWithResponder"**
  %15 = load %"class.mojo::MessageReceiverWithResponder"*, %"class.mojo::MessageReceiverWithResponder"** %14, align 8
  %16 = tail call i8* @_Znwm(i64 16) #15
  %17 = bitcast i8* %16 to %"class.pdf::mojom::PdfListenerProxy"*
  tail call void @_ZN3pdf5mojom16PdfListenerProxyC1EPN4mojo28MessageReceiverWithResponderE(%"class.pdf::mojom::PdfListenerProxy"* nonnull %17, %"class.mojo::MessageReceiverWithResponder"* %15) #14
  %18 = ptrtoint i8* %16 to i64
  %19 = load %"class.pdf::mojom::PdfListenerProxy"*, %"class.pdf::mojom::PdfListenerProxy"** %3, align 8
  %20 = bitcast %"class.std::__1::unique_ptr.209"* %2 to i64*
  store i64 %18, i64* %20, align 8
  %21 = icmp eq %"class.pdf::mojom::PdfListenerProxy"* %19, null
  br i1 %21, label %27, label %22

22:                                               ; preds = %12
  %23 = bitcast %"class.pdf::mojom::PdfListenerProxy"* %19 to void (%"class.pdf::mojom::PdfListenerProxy"*)***
  %24 = load void (%"class.pdf::mojom::PdfListenerProxy"*)**, void (%"class.pdf::mojom::PdfListenerProxy"*)*** %23, align 8
  %25 = getelementptr inbounds void (%"class.pdf::mojom::PdfListenerProxy"*)*, void (%"class.pdf::mojom::PdfListenerProxy"*)** %24, i64 1
  %26 = load void (%"class.pdf::mojom::PdfListenerProxy"*)*, void (%"class.pdf::mojom::PdfListenerProxy"*)** %25, align 8
  tail call void %26(%"class.pdf::mojom::PdfListenerProxy"* nonnull %19) #14
  br label %27

27:                                               ; preds = %1, %12, %22, %6
  ret void
}

declare zeroext i1 @_ZN4mojo8internal21InterfacePtrStateBase24InitializeEndpointClientEbbbNSt3__110unique_ptrINS_15MessageReceiverENS2_14default_deleteIS4_EEEEPKc(%"class.mojo::internal::InterfacePtrStateBase"*, i1 zeroext, i1 zeroext, i1 zeroext, %"class.mojo::MessageReceiver"*, i8*) local_unnamed_addr #1

declare void @_ZN4mojo17PassThroughFilterC1Ev(%"class.mojo::PassThroughFilter"*) unnamed_addr #1

declare void @_ZN3pdf5mojom16PdfListenerProxyC1EPN4mojo28MessageReceiverWithResponderE(%"class.pdf::mojom::PdfListenerProxy"*, %"class.mojo::MessageReceiverWithResponder"*) unnamed_addr #1

declare void @_ZN4mojo13TypeConverterIN7content8ReferrerENS_9StructPtrIN5blink5mojom8ReferrerEEEE7ConvertERKS7_(%"struct.content::Referrer"* sret, %"class.mojo::StructPtr"* dereferenceable(8)) local_unnamed_addr #1

attributes #0 = { nounwind ssp uwtable "correctly-rounded-divide-sqrt-fp-math"="false" "disable-tail-calls"="false" "less-precise-fpmad"="false" "min-legal-vector-width"="0" "no-frame-pointer-elim"="false" "no-frame-pointer-elim-non-leaf" "no-infs-fp-math"="false" "no-jump-tables"="false" "no-nans-fp-math"="false" "no-signed-zeros-fp-math"="false" "no-trapping-math"="false" "null-pointer-is-valid"="true" "stack-protector-buffer-size"="4" "target-cpu"="x86-64" "target-features"="+cx8,+fxsr,+mmx,+sse,+sse2,+sse3,+x87" "unsafe-fp-math"="false" "use-soft-float"="false" }
attributes #1 = { "correctly-rounded-divide-sqrt-fp-math"="false" "disable-tail-calls"="false" "less-precise-fpmad"="false" "no-frame-pointer-elim"="false" "no-frame-pointer-elim-non-leaf" "no-infs-fp-math"="false" "no-nans-fp-math"="false" "no-signed-zeros-fp-math"="false" "no-trapping-math"="false" "null-pointer-is-valid"="true" "stack-protector-buffer-size"="4" "target-cpu"="x86-64" "target-features"="+cx8,+fxsr,+mmx,+sse,+sse2,+sse3,+x87" "unsafe-fp-math"="false" "use-soft-float"="false" }
attributes #2 = { argmemonly nounwind }
attributes #3 = { nobuiltin nofree "correctly-rounded-divide-sqrt-fp-math"="false" "disable-tail-calls"="false" "less-precise-fpmad"="false" "no-frame-pointer-elim"="false" "no-frame-pointer-elim-non-leaf" "no-infs-fp-math"="false" "no-nans-fp-math"="false" "no-signed-zeros-fp-math"="false" "no-trapping-math"="false" "null-pointer-is-valid"="true" "stack-protector-buffer-size"="4" "target-cpu"="x86-64" "target-features"="+cx8,+fxsr,+mmx,+sse,+sse2,+sse3,+x87" "unsafe-fp-math"="false" "use-soft-float"="false" }
attributes #4 = { nounwind "correctly-rounded-divide-sqrt-fp-math"="false" "disable-tail-calls"="false" "less-precise-fpmad"="false" "no-frame-pointer-elim"="false" "no-frame-pointer-elim-non-leaf" "no-infs-fp-math"="false" "no-nans-fp-math"="false" "no-signed-zeros-fp-math"="false" "no-trapping-math"="false" "null-pointer-is-valid"="true" "stack-protector-buffer-size"="4" "target-cpu"="x86-64" "target-features"="+cx8,+fxsr,+mmx,+sse,+sse2,+sse3,+x87" "unsafe-fp-math"="false" "use-soft-float"="false" }
attributes #5 = { nobuiltin nounwind "correctly-rounded-divide-sqrt-fp-math"="false" "disable-tail-calls"="false" "less-precise-fpmad"="false" "no-frame-pointer-elim"="false" "no-frame-pointer-elim-non-leaf" "no-infs-fp-math"="false" "no-nans-fp-math"="false" "no-signed-zeros-fp-math"="false" "no-trapping-math"="false" "null-pointer-is-valid"="true" "stack-protector-buffer-size"="4" "target-cpu"="x86-64" "target-features"="+cx8,+fxsr,+mmx,+sse,+sse2,+sse3,+x87" "unsafe-fp-math"="false" "use-soft-float"="false" }
attributes #6 = { nounwind ssp uwtable "correctly-rounded-divide-sqrt-fp-math"="false" "disable-tail-calls"="false" "less-precise-fpmad"="false" "min-legal-vector-width"="64" "no-frame-pointer-elim"="false" "no-frame-pointer-elim-non-leaf" "no-infs-fp-math"="false" "no-jump-tables"="false" "no-nans-fp-math"="false" "no-signed-zeros-fp-math"="false" "no-trapping-math"="false" "null-pointer-is-valid"="true" "stack-protector-buffer-size"="4" "target-cpu"="x86-64" "target-features"="+cx8,+fxsr,+mmx,+sse,+sse2,+sse3,+x87" "unsafe-fp-math"="false" "use-soft-float"="false" }
attributes #7 = { norecurse nounwind readnone ssp uwtable "correctly-rounded-divide-sqrt-fp-math"="false" "disable-tail-calls"="false" "less-precise-fpmad"="false" "min-legal-vector-width"="0" "no-frame-pointer-elim"="false" "no-frame-pointer-elim-non-leaf" "no-infs-fp-math"="false" "no-jump-tables"="false" "no-nans-fp-math"="false" "no-signed-zeros-fp-math"="false" "no-trapping-math"="false" "null-pointer-is-valid"="true" "stack-protector-buffer-size"="4" "target-cpu"="x86-64" "target-features"="+cx8,+fxsr,+mmx,+sse,+sse2,+sse3,+x87" "unsafe-fp-math"="false" "use-soft-float"="false" }
attributes #8 = { norecurse nounwind readonly ssp uwtable "correctly-rounded-divide-sqrt-fp-math"="false" "disable-tail-calls"="false" "less-precise-fpmad"="false" "min-legal-vector-width"="0" "no-frame-pointer-elim"="false" "no-frame-pointer-elim-non-leaf" "no-infs-fp-math"="false" "no-jump-tables"="false" "no-nans-fp-math"="false" "no-signed-zeros-fp-math"="false" "no-trapping-math"="false" "null-pointer-is-valid"="true" "stack-protector-buffer-size"="4" "target-cpu"="x86-64" "target-features"="+cx8,+fxsr,+mmx,+sse,+sse2,+sse3,+x87" "unsafe-fp-math"="false" "use-soft-float"="false" }
attributes #9 = { inlinehint nounwind ssp uwtable "correctly-rounded-divide-sqrt-fp-math"="false" "disable-tail-calls"="false" "less-precise-fpmad"="false" "min-legal-vector-width"="0" "no-frame-pointer-elim"="false" "no-frame-pointer-elim-non-leaf" "no-infs-fp-math"="false" "no-jump-tables"="false" "no-nans-fp-math"="false" "no-signed-zeros-fp-math"="false" "no-trapping-math"="false" "null-pointer-is-valid"="true" "stack-protector-buffer-size"="4" "target-cpu"="x86-64" "target-features"="+cx8,+fxsr,+mmx,+sse,+sse2,+sse3,+x87" "unsafe-fp-math"="false" "use-soft-float"="false" }
attributes #10 = { cold noreturn nounwind }
attributes #11 = { noreturn nounwind "correctly-rounded-divide-sqrt-fp-math"="false" "disable-tail-calls"="false" "less-precise-fpmad"="false" "no-frame-pointer-elim"="false" "no-frame-pointer-elim-non-leaf" "no-infs-fp-math"="false" "no-nans-fp-math"="false" "no-signed-zeros-fp-math"="false" "no-trapping-math"="false" "null-pointer-is-valid"="true" "stack-protector-buffer-size"="4" "target-cpu"="x86-64" "target-features"="+cx8,+fxsr,+mmx,+sse,+sse2,+sse3,+x87" "unsafe-fp-math"="false" "use-soft-float"="false" }
attributes #12 = { noreturn "correctly-rounded-divide-sqrt-fp-math"="false" "disable-tail-calls"="false" "less-precise-fpmad"="false" "no-frame-pointer-elim"="false" "no-frame-pointer-elim-non-leaf" "no-infs-fp-math"="false" "no-nans-fp-math"="false" "no-signed-zeros-fp-math"="false" "no-trapping-math"="false" "null-pointer-is-valid"="true" "stack-protector-buffer-size"="4" "target-cpu"="x86-64" "target-features"="+cx8,+fxsr,+mmx,+sse,+sse2,+sse3,+x87" "unsafe-fp-math"="false" "use-soft-float"="false" }
attributes #13 = { argmemonly nofree nounwind readonly "correctly-rounded-divide-sqrt-fp-math"="false" "disable-tail-calls"="false" "less-precise-fpmad"="false" "no-frame-pointer-elim"="false" "no-frame-pointer-elim-non-leaf" "no-infs-fp-math"="false" "no-nans-fp-math"="false" "no-signed-zeros-fp-math"="false" "no-trapping-math"="false" "null-pointer-is-valid"="true" "stack-protector-buffer-size"="4" "target-cpu"="x86-64" "target-features"="+cx8,+fxsr,+mmx,+sse,+sse2,+sse3,+x87" "unsafe-fp-math"="false" "use-soft-float"="false" }
attributes #14 = { nounwind }
attributes #15 = { builtin nounwind }
attributes #16 = { noreturn nounwind }

!llvm.module.flags = !{!0, !1}

!0 = !{i32 1, !"wchar_size", i32 4}
!1 = !{i32 7, !"PIC Level", i32 2}
!2 = !{i8 0, i8 2}
!3 = !{!4}
!4 = distinct !{!4, !5, !"_ZN3pdf20PDFWebContentsHelper15GetSelectedTextEv: argument 0"}
!5 = distinct !{!5, !"_ZN3pdf20PDFWebContentsHelper15GetSelectedTextEv"}
!6 = !{!7}
!7 = distinct !{!7, !8, !"_ZNSt3__16__treeINS_12__value_typeIPN7content15RenderFrameHostENS_6vectorImNS_9allocatorImEEEEEENS_19__map_value_compareIS4_S9_NS_4lessIS4_EELb1EEENS6_IS9_EEE16__construct_nodeIJRKNS_21piecewise_construct_tENS_5tupleIJRKS4_EEENSK_IJEEEEEENS_10unique_ptrINS_11__tree_nodeIS9_PvEENS_22__tree_node_destructorINS6_ISS_EEEEEEDpOT_: argument 0"}
!8 = distinct !{!8, !"_ZNSt3__16__treeINS_12__value_typeIPN7content15RenderFrameHostENS_6vectorImNS_9allocatorImEEEEEENS_19__map_value_compareIS4_S9_NS_4lessIS4_EELb1EEENS6_IS9_EEE16__construct_nodeIJRKNS_21piecewise_construct_tENS_5tupleIJRKS4_EEENSK_IJEEEEEENS_10unique_ptrINS_11__tree_nodeIS9_PvEENS_22__tree_node_destructorINS6_ISS_EEEEEEDpOT_"}
