; ModuleID = 'gen/third_party/perfetto/protos/perfetto/common/perf_events.pb.cc'
source_filename = "gen/third_party/perfetto/protos/perfetto/common/perf_events.pb.cc"
target datalayout = "e-m:e-i64:64-f80:128-n8:16:32:64-S128"
target triple = "x86_64-unknown-linux-gnu"

module asm ".symver exp, exp@GLIBC_2.2.5"
module asm ".symver exp2, exp2@GLIBC_2.2.5"
module asm ".symver exp2f, exp2f@GLIBC_2.2.5"
module asm ".symver expf, expf@GLIBC_2.2.5"
module asm ".symver lgamma, lgamma@GLIBC_2.2.5"
module asm ".symver lgammaf, lgammaf@GLIBC_2.2.5"
module asm ".symver lgammal, lgammal@GLIBC_2.2.5"
module asm ".symver log, log@GLIBC_2.2.5"
module asm ".symver log2, log2@GLIBC_2.2.5"
module asm ".symver log2f, log2f@GLIBC_2.2.5"
module asm ".symver logf, logf@GLIBC_2.2.5"
module asm ".symver pow, pow@GLIBC_2.2.5"
module asm ".symver powf, powf@GLIBC_2.2.5"

%"class.perfetto::protos::PerfEvents_TimebaseDefaultTypeInternal" = type { %"class.google::protobuf::internal::ExplicitlyConstructed" }
%"class.google::protobuf::internal::ExplicitlyConstructed" = type { %"union.google::protobuf::internal::ExplicitlyConstructed<perfetto::protos::PerfEvents_Timebase>::AlignedUnion" }
%"union.google::protobuf::internal::ExplicitlyConstructed<perfetto::protos::PerfEvents_Timebase>::AlignedUnion" = type { i64, [40 x i8] }
%"class.perfetto::protos::PerfEvents_TracepointDefaultTypeInternal" = type { %"class.google::protobuf::internal::ExplicitlyConstructed.0" }
%"class.google::protobuf::internal::ExplicitlyConstructed.0" = type { %"union.google::protobuf::internal::ExplicitlyConstructed<perfetto::protos::PerfEvents_Tracepoint>::AlignedUnion" }
%"union.google::protobuf::internal::ExplicitlyConstructed<perfetto::protos::PerfEvents_Tracepoint>::AlignedUnion" = type { i64, [32 x i8] }
%"class.perfetto::protos::PerfEventsDefaultTypeInternal" = type { %"class.google::protobuf::internal::ExplicitlyConstructed.1" }
%"class.google::protobuf::internal::ExplicitlyConstructed.1" = type { %"union.google::protobuf::internal::ExplicitlyConstructed<perfetto::protos::PerfEvents>::AlignedUnion" }
%"union.google::protobuf::internal::ExplicitlyConstructed<perfetto::protos::PerfEvents>::AlignedUnion" = type { i64, [16 x i8] }
%"struct.google::protobuf::internal::EnumEntry" = type <{ %"class.google::protobuf::StringPiece", i32, [4 x i8] }>
%"class.google::protobuf::StringPiece" = type { i8*, i64 }
%"class.google::protobuf::internal::ExplicitlyConstructed.5" = type { %"union.google::protobuf::internal::ExplicitlyConstructed<std::__1::basic_string<char, std::__1::char_traits<char>, std::__1::allocator<char> > >::AlignedUnion" }
%"union.google::protobuf::internal::ExplicitlyConstructed<std::__1::basic_string<char, std::__1::char_traits<char>, std::__1::allocator<char> > >::AlignedUnion" = type { i64, [16 x i8] }
%"class.perfetto::protos::PerfEvents_Timebase" = type <{ %"class.google::protobuf::MessageLite", %"union.perfetto::protos::PerfEvents_Timebase::IntervalUnion", %"union.perfetto::protos::PerfEvents_Timebase::EventUnion", %"class.google::protobuf::internal::CachedSize", [2 x i32], [4 x i8] }>
%"class.google::protobuf::MessageLite" = type { i32 (...)**, %"class.google::protobuf::internal::InternalMetadata" }
%"class.google::protobuf::internal::InternalMetadata" = type { i8* }
%"union.perfetto::protos::PerfEvents_Timebase::IntervalUnion" = type { i64 }
%"union.perfetto::protos::PerfEvents_Timebase::EventUnion" = type { %"class.perfetto::protos::PerfEvents_Tracepoint"* }
%"class.perfetto::protos::PerfEvents_Tracepoint" = type { %"class.google::protobuf::MessageLite", %"class.google::protobuf::internal::HasBits", %"class.google::protobuf::internal::CachedSize", %"struct.google::protobuf::internal::ArenaStringPtr", %"struct.google::protobuf::internal::ArenaStringPtr" }
%"class.google::protobuf::internal::HasBits" = type { [1 x i32] }
%"struct.google::protobuf::internal::ArenaStringPtr" = type { %"class.std::__1::basic_string"* }
%"class.std::__1::basic_string" = type { %"class.std::__1::__compressed_pair" }
%"class.std::__1::__compressed_pair" = type { %"struct.std::__1::__compressed_pair_elem" }
%"struct.std::__1::__compressed_pair_elem" = type { %"struct.std::__1::basic_string<char, std::__1::char_traits<char>, std::__1::allocator<char> >::__rep" }
%"struct.std::__1::basic_string<char, std::__1::char_traits<char>, std::__1::allocator<char> >::__rep" = type { %union.anon }
%union.anon = type { %"struct.std::__1::basic_string<char, std::__1::char_traits<char>, std::__1::allocator<char> >::__long" }
%"struct.std::__1::basic_string<char, std::__1::char_traits<char>, std::__1::allocator<char> >::__long" = type { i8*, i64, i64 }
%"class.google::protobuf::internal::CachedSize" = type { %"struct.std::__1::atomic" }
%"struct.std::__1::atomic" = type { %"struct.std::__1::__atomic_base" }
%"struct.std::__1::__atomic_base" = type { %"struct.std::__1::__atomic_base.2" }
%"struct.std::__1::__atomic_base.2" = type { %"struct.std::__1::__cxx_atomic_impl" }
%"struct.std::__1::__cxx_atomic_impl" = type { %"struct.std::__1::__cxx_atomic_base_impl" }
%"struct.std::__1::__cxx_atomic_base_impl" = type { i32 }
%"class.google::protobuf::Arena" = type { %"class.google::protobuf::internal::ArenaImpl", void (%"class.std::type_info"*, i64, i8*)*, void (%"class.google::protobuf::Arena"*, i8*, i64)*, void (%"class.google::protobuf::Arena"*, i8*, i64)*, i8* }
%"class.google::protobuf::internal::ArenaImpl" = type { %"struct.std::__1::atomic.6", %"struct.std::__1::atomic.6", %"struct.std::__1::atomic.10", %"class.google::protobuf::internal::ArenaImpl::Block"*, i64, %"struct.google::protobuf::internal::ArenaImpl::Options" }
%"struct.std::__1::atomic.6" = type { %"struct.std::__1::__atomic_base.7" }
%"struct.std::__1::__atomic_base.7" = type { %"struct.std::__1::__cxx_atomic_impl.8" }
%"struct.std::__1::__cxx_atomic_impl.8" = type { %"struct.std::__1::__cxx_atomic_base_impl.9" }
%"struct.std::__1::__cxx_atomic_base_impl.9" = type { %"class.google::protobuf::internal::ArenaImpl::SerialArena"* }
%"class.google::protobuf::internal::ArenaImpl::SerialArena" = type { %"class.google::protobuf::internal::ArenaImpl"*, i8*, %"class.google::protobuf::internal::ArenaImpl::Block"*, %"struct.google::protobuf::internal::ArenaImpl::CleanupChunk"*, %"class.google::protobuf::internal::ArenaImpl::SerialArena"*, i8*, i8*, %"struct.google::protobuf::internal::ArenaImpl::CleanupNode"*, %"struct.google::protobuf::internal::ArenaImpl::CleanupNode"* }
%"struct.google::protobuf::internal::ArenaImpl::CleanupChunk" = type { i64, %"struct.google::protobuf::internal::ArenaImpl::CleanupChunk"*, [1 x %"struct.google::protobuf::internal::ArenaImpl::CleanupNode"] }
%"struct.google::protobuf::internal::ArenaImpl::CleanupNode" = type { i8*, void (i8*)* }
%"struct.std::__1::atomic.10" = type { %"struct.std::__1::__atomic_base.11" }
%"struct.std::__1::__atomic_base.11" = type { %"struct.std::__1::__atomic_base.12" }
%"struct.std::__1::__atomic_base.12" = type { %"struct.std::__1::__cxx_atomic_impl.13" }
%"struct.std::__1::__cxx_atomic_impl.13" = type { %"struct.std::__1::__cxx_atomic_base_impl.14" }
%"struct.std::__1::__cxx_atomic_base_impl.14" = type { i64 }
%"class.google::protobuf::internal::ArenaImpl::Block" = type { %"class.google::protobuf::internal::ArenaImpl::Block"*, i64, i64 }
%"struct.google::protobuf::internal::ArenaImpl::Options" = type { i64, i64, i8*, i64, i8* (i64)*, void (i8*, i64)* }
%"class.std::type_info" = type { i32 (...)**, i8* }
%"class.perfetto::protos::PerfEvents" = type <{ %"class.google::protobuf::MessageLite", %"class.google::protobuf::internal::CachedSize", [4 x i8] }>
%"struct.google::protobuf::internal::SCCInfoBase" = type { %"struct.std::__1::atomic", i32, i32, void ()* }
%"struct.std::__1::basic_string<char, std::__1::char_traits<char>, std::__1::allocator<char> >::__short" = type { [23 x i8], %struct.anon }
%struct.anon = type { i8 }
%"struct.google::protobuf::internal::InternalMetadata::ContainerBase" = type { %"class.google::protobuf::Arena"* }
%"struct.google::protobuf::internal::InternalMetadata::Container" = type { %"struct.google::protobuf::internal::InternalMetadata::ContainerBase", %"class.std::__1::basic_string" }
%"class.google::protobuf::internal::ParseContext" = type { %"class.google::protobuf::internal::EpsCopyInputStream", i32, i32, %"struct.google::protobuf::internal::ParseContext::Data" }
%"class.google::protobuf::internal::EpsCopyInputStream" = type { i8*, i8*, i8*, i32, i32, %"class.google::protobuf::io::ZeroCopyInputStream"*, [32 x i8], i64, i32, i32 }
%"class.google::protobuf::io::ZeroCopyInputStream" = type { i32 (...)** }
%"struct.google::protobuf::internal::ParseContext::Data" = type { %"class.google::protobuf::DescriptorPool"*, %"class.google::protobuf::MessageFactory"* }
%"class.google::protobuf::DescriptorPool" = type opaque
%"class.google::protobuf::MessageFactory" = type opaque
%"class.google::protobuf::io::EpsCopyOutputStream" = type <{ i8*, i8*, [32 x i8], %"class.google::protobuf::io::ZeroCopyOutputStream"*, i8, i8, i8, [5 x i8] }>
%"class.google::protobuf::io::ZeroCopyOutputStream" = type { i32 (...)** }

$_ZN6google8protobuf8internal12ParseContext12ParseMessageIN8perfetto6protos21PerfEvents_TracepointEEEPKcPT_S8_ = comdat any

$_ZNK8perfetto6protos19PerfEvents_Timebase3NewEv = comdat any

$_ZNK8perfetto6protos19PerfEvents_Timebase3NewEPN6google8protobuf5ArenaE = comdat any

$_ZNK8perfetto6protos19PerfEvents_Timebase13GetCachedSizeEv = comdat any

$_ZNK6google8protobuf11MessageLite16InternalGetTableEv = comdat any

$_ZNK8perfetto6protos21PerfEvents_Tracepoint3NewEv = comdat any

$_ZNK8perfetto6protos21PerfEvents_Tracepoint3NewEPN6google8protobuf5ArenaE = comdat any

$_ZNK8perfetto6protos21PerfEvents_Tracepoint13GetCachedSizeEv = comdat any

$_ZNK8perfetto6protos10PerfEvents3NewEv = comdat any

$_ZNK8perfetto6protos10PerfEvents3NewEPN6google8protobuf5ArenaE = comdat any

$_ZNK8perfetto6protos10PerfEvents13GetCachedSizeEv = comdat any

$_ZN6google8protobuf8internal14ArenaStringPtr14CreateInstanceEPNS0_5ArenaEPKNSt3__112basic_stringIcNS5_11char_traitsIcEENS5_9allocatorIcEEEE = comdat any

$_ZN6google8protobuf8internal21arena_destruct_objectINSt3__112basic_stringIcNS3_11char_traitsIcEENS3_9allocatorIcEEEEEEvPv = comdat any

$_ZN6google8protobuf8internal16InternalMetadata27mutable_unknown_fields_slowINSt3__112basic_stringIcNS4_11char_traitsIcEENS4_9allocatorIcEEEEEEPT_v = comdat any

$_ZN6google8protobuf8internal21arena_destruct_objectINS1_16InternalMetadata9ContainerINSt3__112basic_stringIcNS5_11char_traitsIcEENS5_9allocatorIcEEEEEEEEvPv = comdat any

@_ZN8perfetto6protos38_PerfEvents_Timebase_default_instance_E = hidden global %"class.perfetto::protos::PerfEvents_TimebaseDefaultTypeInternal" zeroinitializer, align 8
@_ZN8perfetto6protos40_PerfEvents_Tracepoint_default_instance_E = hidden global %"class.perfetto::protos::PerfEvents_TracepointDefaultTypeInternal" zeroinitializer, align 8
@_ZN8perfetto6protos29_PerfEvents_default_instance_E = hidden global %"class.perfetto::protos::PerfEventsDefaultTypeInternal" zeroinitializer, align 8
@scc_info_PerfEvents_protos_2fperfetto_2fcommon_2fperf_5fevents_2eproto = hidden global { { { { i32 } }, i32, i32, void ()* }, [0 x i8*] } { { { { i32 } }, i32, i32, void ()* } { { { i32 } } { { i32 } { i32 -1 } }, i32 0, i32 0, void ()* @_ZL82InitDefaultsscc_info_PerfEvents_protos_2fperfetto_2fcommon_2fperf_5fevents_2eprotov }, [0 x i8*] zeroinitializer }, align 8
@scc_info_PerfEvents_Timebase_protos_2fperfetto_2fcommon_2fperf_5fevents_2eproto = hidden global { { { { i32 } }, i32, i32, void ()* }, [1 x i8*] } { { { { i32 } }, i32, i32, void ()* } { { { i32 } } { { i32 } { i32 -1 } }, i32 1, i32 0, void ()* @_ZL91InitDefaultsscc_info_PerfEvents_Timebase_protos_2fperfetto_2fcommon_2fperf_5fevents_2eprotov }, [1 x i8*] [i8* bitcast ({ { { { i32 } }, i32, i32, void ()* }, [0 x i8*] }* @scc_info_PerfEvents_Tracepoint_protos_2fperfetto_2fcommon_2fperf_5fevents_2eproto to i8*)] }, align 8
@scc_info_PerfEvents_Tracepoint_protos_2fperfetto_2fcommon_2fperf_5fevents_2eproto = hidden global { { { { i32 } }, i32, i32, void ()* }, [0 x i8*] } { { { { i32 } }, i32, i32, void ()* } { { { i32 } } { { i32 } { i32 -1 } }, i32 0, i32 0, void ()* @_ZL93InitDefaultsscc_info_PerfEvents_Tracepoint_protos_2fperfetto_2fcommon_2fperf_5fevents_2eprotov }, [0 x i8*] zeroinitializer }, align 8
@_ZN8perfetto6protosL26PerfEvents_Counter_entriesE = internal constant [5 x %"struct.google::protobuf::internal::EnumEntry"] [%"struct.google::protobuf::internal::EnumEntry" <{ %"class.google::protobuf::StringPiece" { i8* getelementptr inbounds ([70 x i8], [70 x i8]* @_ZN8perfetto6protosL24PerfEvents_Counter_namesE, i64 0, i64 0), i64 13 }, i32 10, [4 x i8] zeroinitializer }>, %"struct.google::protobuf::internal::EnumEntry" <{ %"class.google::protobuf::StringPiece" { i8* getelementptr inbounds ([70 x i8], [70 x i8]* @_ZN8perfetto6protosL24PerfEvents_Counter_namesE, i64 0, i64 13), i64 15 }, i32 11, [4 x i8] zeroinitializer }>, %"struct.google::protobuf::internal::EnumEntry" <{ %"class.google::protobuf::StringPiece" { i8* getelementptr inbounds ([70 x i8], [70 x i8]* @_ZN8perfetto6protosL24PerfEvents_Counter_namesE, i64 0, i64 28), i64 12 }, i32 1, [4 x i8] zeroinitializer }>, %"struct.google::protobuf::internal::EnumEntry" <{ %"class.google::protobuf::StringPiece" { i8* getelementptr inbounds ([70 x i8], [70 x i8]* @_ZN8perfetto6protosL24PerfEvents_Counter_namesE, i64 0, i64 40), i64 14 }, i32 2, [4 x i8] zeroinitializer }>, %"struct.google::protobuf::internal::EnumEntry" <{ %"class.google::protobuf::StringPiece" { i8* getelementptr inbounds ([70 x i8], [70 x i8]* @_ZN8perfetto6protosL24PerfEvents_Counter_namesE, i64 0, i64 54), i64 15 }, i32 0, [4 x i8] zeroinitializer }>], align 16
@_ZN8perfetto6protosL24PerfEvents_Counter_namesE = internal constant [70 x i8] c"HW_CPU_CYCLESHW_INSTRUCTIONSSW_CPU_CLOCKSW_PAGE_FAULTSUNKNOWN_COUNTER\00", align 16
@_ZZN8perfetto6protos23PerfEvents_Counter_NameENS0_18PerfEvents_CounterEE5dummy = internal global i8 0, align 1
@_ZGVZN8perfetto6protos23PerfEvents_Counter_NameENS0_18PerfEvents_CounterEE5dummy = internal global i64 0, align 8
@_ZN8perfetto6protosL36PerfEvents_Counter_entries_by_numberE = internal constant [5 x i32] [i32 4, i32 2, i32 3, i32 0, i32 1], align 16
@_ZN8perfetto6protosL26PerfEvents_Counter_stringsE = internal global [5 x %"class.google::protobuf::internal::ExplicitlyConstructed.5"] zeroinitializer, align 16
@_ZN8perfetto6protos10PerfEvents15UNKNOWN_COUNTERE = hidden local_unnamed_addr constant i32 0, align 4
@_ZN8perfetto6protos10PerfEvents12SW_CPU_CLOCKE = hidden local_unnamed_addr constant i32 1, align 4
@_ZN8perfetto6protos10PerfEvents14SW_PAGE_FAULTSE = hidden local_unnamed_addr constant i32 2, align 4
@_ZN8perfetto6protos10PerfEvents13HW_CPU_CYCLESE = hidden local_unnamed_addr constant i32 10, align 4
@_ZN8perfetto6protos10PerfEvents15HW_INSTRUCTIONSE = hidden local_unnamed_addr constant i32 11, align 4
@_ZN8perfetto6protos10PerfEvents11Counter_MINE = hidden local_unnamed_addr constant i32 0, align 4
@_ZN8perfetto6protos10PerfEvents11Counter_MAXE = hidden local_unnamed_addr constant i32 11, align 4
@_ZN8perfetto6protos10PerfEvents17Counter_ARRAYSIZEE = hidden local_unnamed_addr constant i32 12, align 4
@_ZTVN8perfetto6protos19PerfEvents_TimebaseE = hidden unnamed_addr constant { [16 x i8*] } { [16 x i8*] [i8* null, i8* null, i8* bitcast (void (%"class.perfetto::protos::PerfEvents_Timebase"*)* @_ZN8perfetto6protos19PerfEvents_TimebaseD2Ev to i8*), i8* bitcast (void (%"class.perfetto::protos::PerfEvents_Timebase"*)* @_ZN8perfetto6protos19PerfEvents_TimebaseD0Ev to i8*), i8* bitcast (void (%"class.std::__1::basic_string"*, %"class.perfetto::protos::PerfEvents_Timebase"*)* @_ZNK8perfetto6protos19PerfEvents_Timebase11GetTypeNameEv to i8*), i8* bitcast (%"class.perfetto::protos::PerfEvents_Timebase"* (%"class.perfetto::protos::PerfEvents_Timebase"*)* @_ZNK8perfetto6protos19PerfEvents_Timebase3NewEv to i8*), i8* bitcast (%"class.perfetto::protos::PerfEvents_Timebase"* (%"class.perfetto::protos::PerfEvents_Timebase"*, %"class.google::protobuf::Arena"*)* @_ZNK8perfetto6protos19PerfEvents_Timebase3NewEPN6google8protobuf5ArenaE to i8*), i8* bitcast (void (%"class.perfetto::protos::PerfEvents_Timebase"*)* @_ZN8perfetto6protos19PerfEvents_Timebase5ClearEv to i8*), i8* bitcast (i1 (%"class.perfetto::protos::PerfEvents_Timebase"*)* @_ZNK8perfetto6protos19PerfEvents_Timebase13IsInitializedEv to i8*), i8* bitcast (void (%"class.std::__1::basic_string"*, %"class.google::protobuf::MessageLite"*)* @_ZNK6google8protobuf11MessageLite25InitializationErrorStringEv to i8*), i8* bitcast (void (%"class.perfetto::protos::PerfEvents_Timebase"*, %"class.google::protobuf::MessageLite"*)* @_ZN8perfetto6protos19PerfEvents_Timebase21CheckTypeAndMergeFromERKN6google8protobuf11MessageLiteE to i8*), i8* bitcast (i64 (%"class.perfetto::protos::PerfEvents_Timebase"*)* @_ZNK8perfetto6protos19PerfEvents_Timebase12ByteSizeLongEv to i8*), i8* bitcast (i32 (%"class.perfetto::protos::PerfEvents_Timebase"*)* @_ZNK8perfetto6protos19PerfEvents_Timebase13GetCachedSizeEv to i8*), i8* bitcast (i8* (%"class.perfetto::protos::PerfEvents_Timebase"*, i8*, %"class.google::protobuf::internal::ParseContext"*)* @_ZN8perfetto6protos19PerfEvents_Timebase14_InternalParseEPKcPN6google8protobuf8internal12ParseContextE to i8*), i8* bitcast (i8* (%"class.perfetto::protos::PerfEvents_Timebase"*, i8*, %"class.google::protobuf::io::EpsCopyOutputStream"*)* @_ZNK8perfetto6protos19PerfEvents_Timebase18_InternalSerializeEPhPN6google8protobuf2io19EpsCopyOutputStreamE to i8*), i8* bitcast (i8* (%"class.google::protobuf::MessageLite"*)* @_ZNK6google8protobuf11MessageLite16InternalGetTableEv to i8*)] }, align 8
@.str = private unnamed_addr constant [66 x i8] c"gen/third_party/perfetto/protos/perfetto/common/perf_events.pb.cc\00", align 1
@.str.3 = private unnamed_addr constant [36 x i8] c"perfetto.protos.PerfEvents.Timebase\00", align 1
@_ZTVN8perfetto6protos21PerfEvents_TracepointE = hidden unnamed_addr constant { [16 x i8*] } { [16 x i8*] [i8* null, i8* null, i8* bitcast (void (%"class.perfetto::protos::PerfEvents_Tracepoint"*)* @_ZN8perfetto6protos21PerfEvents_TracepointD2Ev to i8*), i8* bitcast (void (%"class.perfetto::protos::PerfEvents_Tracepoint"*)* @_ZN8perfetto6protos21PerfEvents_TracepointD0Ev to i8*), i8* bitcast (void (%"class.std::__1::basic_string"*, %"class.perfetto::protos::PerfEvents_Tracepoint"*)* @_ZNK8perfetto6protos21PerfEvents_Tracepoint11GetTypeNameEv to i8*), i8* bitcast (%"class.perfetto::protos::PerfEvents_Tracepoint"* (%"class.perfetto::protos::PerfEvents_Tracepoint"*)* @_ZNK8perfetto6protos21PerfEvents_Tracepoint3NewEv to i8*), i8* bitcast (%"class.perfetto::protos::PerfEvents_Tracepoint"* (%"class.perfetto::protos::PerfEvents_Tracepoint"*, %"class.google::protobuf::Arena"*)* @_ZNK8perfetto6protos21PerfEvents_Tracepoint3NewEPN6google8protobuf5ArenaE to i8*), i8* bitcast (void (%"class.perfetto::protos::PerfEvents_Tracepoint"*)* @_ZN8perfetto6protos21PerfEvents_Tracepoint5ClearEv to i8*), i8* bitcast (i1 (%"class.perfetto::protos::PerfEvents_Tracepoint"*)* @_ZNK8perfetto6protos21PerfEvents_Tracepoint13IsInitializedEv to i8*), i8* bitcast (void (%"class.std::__1::basic_string"*, %"class.google::protobuf::MessageLite"*)* @_ZNK6google8protobuf11MessageLite25InitializationErrorStringEv to i8*), i8* bitcast (void (%"class.perfetto::protos::PerfEvents_Tracepoint"*, %"class.google::protobuf::MessageLite"*)* @_ZN8perfetto6protos21PerfEvents_Tracepoint21CheckTypeAndMergeFromERKN6google8protobuf11MessageLiteE to i8*), i8* bitcast (i64 (%"class.perfetto::protos::PerfEvents_Tracepoint"*)* @_ZNK8perfetto6protos21PerfEvents_Tracepoint12ByteSizeLongEv to i8*), i8* bitcast (i32 (%"class.perfetto::protos::PerfEvents_Tracepoint"*)* @_ZNK8perfetto6protos21PerfEvents_Tracepoint13GetCachedSizeEv to i8*), i8* bitcast (i8* (%"class.perfetto::protos::PerfEvents_Tracepoint"*, i8*, %"class.google::protobuf::internal::ParseContext"*)* @_ZN8perfetto6protos21PerfEvents_Tracepoint14_InternalParseEPKcPN6google8protobuf8internal12ParseContextE to i8*), i8* bitcast (i8* (%"class.perfetto::protos::PerfEvents_Tracepoint"*, i8*, %"class.google::protobuf::io::EpsCopyOutputStream"*)* @_ZNK8perfetto6protos21PerfEvents_Tracepoint18_InternalSerializeEPhPN6google8protobuf2io19EpsCopyOutputStreamE to i8*), i8* bitcast (i8* (%"class.google::protobuf::MessageLite"*)* @_ZNK6google8protobuf11MessageLite16InternalGetTableEv to i8*)] }, align 8
@.str.4 = private unnamed_addr constant [38 x i8] c"perfetto.protos.PerfEvents.Tracepoint\00", align 1
@_ZTVN8perfetto6protos10PerfEventsE = hidden unnamed_addr constant { [16 x i8*] } { [16 x i8*] [i8* null, i8* null, i8* bitcast (void (%"class.perfetto::protos::PerfEvents"*)* @_ZN8perfetto6protos10PerfEventsD2Ev to i8*), i8* bitcast (void (%"class.perfetto::protos::PerfEvents"*)* @_ZN8perfetto6protos10PerfEventsD0Ev to i8*), i8* bitcast (void (%"class.std::__1::basic_string"*, %"class.perfetto::protos::PerfEvents"*)* @_ZNK8perfetto6protos10PerfEvents11GetTypeNameEv to i8*), i8* bitcast (%"class.perfetto::protos::PerfEvents"* (%"class.perfetto::protos::PerfEvents"*)* @_ZNK8perfetto6protos10PerfEvents3NewEv to i8*), i8* bitcast (%"class.perfetto::protos::PerfEvents"* (%"class.perfetto::protos::PerfEvents"*, %"class.google::protobuf::Arena"*)* @_ZNK8perfetto6protos10PerfEvents3NewEPN6google8protobuf5ArenaE to i8*), i8* bitcast (void (%"class.perfetto::protos::PerfEvents"*)* @_ZN8perfetto6protos10PerfEvents5ClearEv to i8*), i8* bitcast (i1 (%"class.perfetto::protos::PerfEvents"*)* @_ZNK8perfetto6protos10PerfEvents13IsInitializedEv to i8*), i8* bitcast (void (%"class.std::__1::basic_string"*, %"class.google::protobuf::MessageLite"*)* @_ZNK6google8protobuf11MessageLite25InitializationErrorStringEv to i8*), i8* bitcast (void (%"class.perfetto::protos::PerfEvents"*, %"class.google::protobuf::MessageLite"*)* @_ZN8perfetto6protos10PerfEvents21CheckTypeAndMergeFromERKN6google8protobuf11MessageLiteE to i8*), i8* bitcast (i64 (%"class.perfetto::protos::PerfEvents"*)* @_ZNK8perfetto6protos10PerfEvents12ByteSizeLongEv to i8*), i8* bitcast (i32 (%"class.perfetto::protos::PerfEvents"*)* @_ZNK8perfetto6protos10PerfEvents13GetCachedSizeEv to i8*), i8* bitcast (i8* (%"class.perfetto::protos::PerfEvents"*, i8*, %"class.google::protobuf::internal::ParseContext"*)* @_ZN8perfetto6protos10PerfEvents14_InternalParseEPKcPN6google8protobuf8internal12ParseContextE to i8*), i8* bitcast (i8* (%"class.perfetto::protos::PerfEvents"*, i8*, %"class.google::protobuf::io::EpsCopyOutputStream"*)* @_ZNK8perfetto6protos10PerfEvents18_InternalSerializeEPhPN6google8protobuf2io19EpsCopyOutputStreamE to i8*), i8* bitcast (i8* (%"class.google::protobuf::MessageLite"*)* @_ZNK6google8protobuf11MessageLite16InternalGetTableEv to i8*)] }, align 8
@.str.5 = private unnamed_addr constant [27 x i8] c"perfetto.protos.PerfEvents\00", align 1
@_ZN6google8protobuf8internal26fixed_address_empty_stringE = external global %"class.google::protobuf::internal::ExplicitlyConstructed.5", align 8
@.str.12 = private unnamed_addr constant [25 x i8] c"size_t to int conversion\00", align 1
@llvm.global_ctors = appending global [0 x { i32, void ()*, i8* }] zeroinitializer

@_ZN8perfetto6protos19PerfEvents_TimebaseC1EPN6google8protobuf5ArenaE = hidden unnamed_addr alias void (%"class.perfetto::protos::PerfEvents_Timebase"*, %"class.google::protobuf::Arena"*), void (%"class.perfetto::protos::PerfEvents_Timebase"*, %"class.google::protobuf::Arena"*)* @_ZN8perfetto6protos19PerfEvents_TimebaseC2EPN6google8protobuf5ArenaE
@_ZN8perfetto6protos19PerfEvents_TimebaseC1ERKS1_ = hidden unnamed_addr alias void (%"class.perfetto::protos::PerfEvents_Timebase"*, %"class.perfetto::protos::PerfEvents_Timebase"*), void (%"class.perfetto::protos::PerfEvents_Timebase"*, %"class.perfetto::protos::PerfEvents_Timebase"*)* @_ZN8perfetto6protos19PerfEvents_TimebaseC2ERKS1_
@_ZN8perfetto6protos19PerfEvents_TimebaseD1Ev = hidden unnamed_addr alias void (%"class.perfetto::protos::PerfEvents_Timebase"*), void (%"class.perfetto::protos::PerfEvents_Timebase"*)* @_ZN8perfetto6protos19PerfEvents_TimebaseD2Ev
@_ZN8perfetto6protos21PerfEvents_TracepointC1EPN6google8protobuf5ArenaE = hidden unnamed_addr alias void (%"class.perfetto::protos::PerfEvents_Tracepoint"*, %"class.google::protobuf::Arena"*), void (%"class.perfetto::protos::PerfEvents_Tracepoint"*, %"class.google::protobuf::Arena"*)* @_ZN8perfetto6protos21PerfEvents_TracepointC2EPN6google8protobuf5ArenaE
@_ZN8perfetto6protos21PerfEvents_TracepointC1ERKS1_ = hidden unnamed_addr alias void (%"class.perfetto::protos::PerfEvents_Tracepoint"*, %"class.perfetto::protos::PerfEvents_Tracepoint"*), void (%"class.perfetto::protos::PerfEvents_Tracepoint"*, %"class.perfetto::protos::PerfEvents_Tracepoint"*)* @_ZN8perfetto6protos21PerfEvents_TracepointC2ERKS1_
@_ZN8perfetto6protos21PerfEvents_TracepointD1Ev = hidden unnamed_addr alias void (%"class.perfetto::protos::PerfEvents_Tracepoint"*), void (%"class.perfetto::protos::PerfEvents_Tracepoint"*)* @_ZN8perfetto6protos21PerfEvents_TracepointD2Ev
@_ZN8perfetto6protos10PerfEventsC1EPN6google8protobuf5ArenaE = hidden unnamed_addr alias void (%"class.perfetto::protos::PerfEvents"*, %"class.google::protobuf::Arena"*), void (%"class.perfetto::protos::PerfEvents"*, %"class.google::protobuf::Arena"*)* @_ZN8perfetto6protos10PerfEventsC2EPN6google8protobuf5ArenaE
@_ZN8perfetto6protos10PerfEventsC1ERKS1_ = hidden unnamed_addr alias void (%"class.perfetto::protos::PerfEvents"*, %"class.perfetto::protos::PerfEvents"*), void (%"class.perfetto::protos::PerfEvents"*, %"class.perfetto::protos::PerfEvents"*)* @_ZN8perfetto6protos10PerfEventsC2ERKS1_
@_ZN8perfetto6protos10PerfEventsD1Ev = hidden unnamed_addr alias void (%"class.perfetto::protos::PerfEvents"*), void (%"class.perfetto::protos::PerfEvents"*)* @_ZN8perfetto6protos10PerfEventsD2Ev

; Function Attrs: nounwind ssp uwtable
define internal void @_ZL82InitDefaultsscc_info_PerfEvents_protos_2fperfetto_2fcommon_2fperf_5fevents_2eprotov() #0 {
  tail call void @_ZN6google8protobuf8internal13VerifyVersionEiiPKc(i32 3013000, i32 3013000, i8* getelementptr inbounds ([66 x i8], [66 x i8]* @.str, i64 0, i64 0)) #13
  store %"class.google::protobuf::Arena"* null, %"class.google::protobuf::Arena"** bitcast (i8* getelementptr inbounds (%"class.perfetto::protos::PerfEventsDefaultTypeInternal", %"class.perfetto::protos::PerfEventsDefaultTypeInternal"* @_ZN8perfetto6protos29_PerfEvents_default_instance_E, i64 0, i32 0, i32 0, i32 1, i64 0) to %"class.google::protobuf::Arena"**), align 8
  store i32 (...)** bitcast (i8** getelementptr inbounds ({ [16 x i8*] }, { [16 x i8*] }* @_ZTVN8perfetto6protos10PerfEventsE, i64 0, inrange i32 0, i64 2) to i32 (...)**), i32 (...)*** bitcast (%"class.perfetto::protos::PerfEventsDefaultTypeInternal"* @_ZN8perfetto6protos29_PerfEvents_default_instance_E to i32 (...)***), align 8
  store i32 0, i32* bitcast (i8* getelementptr inbounds (%"class.perfetto::protos::PerfEventsDefaultTypeInternal", %"class.perfetto::protos::PerfEventsDefaultTypeInternal"* @_ZN8perfetto6protos29_PerfEvents_default_instance_E, i64 0, i32 0, i32 0, i32 1, i64 8) to i32*), align 8
  tail call void @_ZN6google8protobuf8internal13OnShutdownRunEPFvPKvES3_(void (i8*)* nonnull @_ZN6google8protobuf8internal14DestroyMessageEPKv, i8* bitcast (%"class.perfetto::protos::PerfEventsDefaultTypeInternal"* @_ZN8perfetto6protos29_PerfEvents_default_instance_E to i8*)) #13
  ret void
}

; Function Attrs: nounwind ssp uwtable
define internal void @_ZL91InitDefaultsscc_info_PerfEvents_Timebase_protos_2fperfetto_2fcommon_2fperf_5fevents_2eprotov() #0 {
  tail call void @_ZN6google8protobuf8internal13VerifyVersionEiiPKc(i32 3013000, i32 3013000, i8* getelementptr inbounds ([66 x i8], [66 x i8]* @.str, i64 0, i64 0)) #13
  store %"class.google::protobuf::Arena"* null, %"class.google::protobuf::Arena"** bitcast (i8* getelementptr inbounds (%"class.perfetto::protos::PerfEvents_TimebaseDefaultTypeInternal", %"class.perfetto::protos::PerfEvents_TimebaseDefaultTypeInternal"* @_ZN8perfetto6protos38_PerfEvents_Timebase_default_instance_E, i64 0, i32 0, i32 0, i32 1, i64 0) to %"class.google::protobuf::Arena"**), align 8
  store i32 (...)** bitcast (i8** getelementptr inbounds ({ [16 x i8*] }, { [16 x i8*] }* @_ZTVN8perfetto6protos19PerfEvents_TimebaseE, i64 0, inrange i32 0, i64 2) to i32 (...)**), i32 (...)*** bitcast (%"class.perfetto::protos::PerfEvents_TimebaseDefaultTypeInternal"* @_ZN8perfetto6protos38_PerfEvents_Timebase_default_instance_E to i32 (...)***), align 8
  store i32 0, i32* bitcast (i8* getelementptr inbounds (%"class.perfetto::protos::PerfEvents_TimebaseDefaultTypeInternal", %"class.perfetto::protos::PerfEvents_TimebaseDefaultTypeInternal"* @_ZN8perfetto6protos38_PerfEvents_Timebase_default_instance_E, i64 0, i32 0, i32 0, i32 1, i64 24) to i32*), align 8
  %1 = load atomic i32, i32* getelementptr inbounds ({ { { { i32 } }, i32, i32, void ()* }, [1 x i8*] }, { { { { i32 } }, i32, i32, void ()* }, [1 x i8*] }* @scc_info_PerfEvents_Timebase_protos_2fperfetto_2fcommon_2fperf_5fevents_2eproto, i64 0, i32 0, i32 0, i32 0, i32 0) acquire, align 8
  %2 = icmp eq i32 %1, 0
  br i1 %2, label %4, label %3, !prof !2

3:                                                ; preds = %0
  tail call void @_ZN6google8protobuf8internal11InitSCCImplEPNS1_11SCCInfoBaseE(%"struct.google::protobuf::internal::SCCInfoBase"* bitcast ({ { { { i32 } }, i32, i32, void ()* }, [1 x i8*] }* @scc_info_PerfEvents_Timebase_protos_2fperfetto_2fcommon_2fperf_5fevents_2eproto to %"struct.google::protobuf::internal::SCCInfoBase"*)) #13
  br label %4

4:                                                ; preds = %0, %3
  store i32 0, i32* bitcast (i8* getelementptr inbounds (%"class.perfetto::protos::PerfEvents_TimebaseDefaultTypeInternal", %"class.perfetto::protos::PerfEvents_TimebaseDefaultTypeInternal"* @_ZN8perfetto6protos38_PerfEvents_Timebase_default_instance_E, i64 0, i32 0, i32 0, i32 1, i64 28) to i32*), align 4
  store i32 0, i32* bitcast (i8* getelementptr inbounds (%"class.perfetto::protos::PerfEvents_TimebaseDefaultTypeInternal", %"class.perfetto::protos::PerfEvents_TimebaseDefaultTypeInternal"* @_ZN8perfetto6protos38_PerfEvents_Timebase_default_instance_E, i64 0, i32 0, i32 0, i32 1, i64 32) to i32*), align 8
  tail call void @_ZN6google8protobuf8internal13OnShutdownRunEPFvPKvES3_(void (i8*)* nonnull @_ZN6google8protobuf8internal14DestroyMessageEPKv, i8* bitcast (%"class.perfetto::protos::PerfEvents_TimebaseDefaultTypeInternal"* @_ZN8perfetto6protos38_PerfEvents_Timebase_default_instance_E to i8*)) #13
  ret void
}

; Function Attrs: nounwind ssp uwtable
define internal void @_ZL93InitDefaultsscc_info_PerfEvents_Tracepoint_protos_2fperfetto_2fcommon_2fperf_5fevents_2eprotov() #0 {
  tail call void @_ZN6google8protobuf8internal13VerifyVersionEiiPKc(i32 3013000, i32 3013000, i8* getelementptr inbounds ([66 x i8], [66 x i8]* @.str, i64 0, i64 0)) #13
  store %"class.google::protobuf::Arena"* null, %"class.google::protobuf::Arena"** bitcast (i8* getelementptr inbounds (%"class.perfetto::protos::PerfEvents_TracepointDefaultTypeInternal", %"class.perfetto::protos::PerfEvents_TracepointDefaultTypeInternal"* @_ZN8perfetto6protos40_PerfEvents_Tracepoint_default_instance_E, i64 0, i32 0, i32 0, i32 1, i64 0) to %"class.google::protobuf::Arena"**), align 8
  store i32 (...)** bitcast (i8** getelementptr inbounds ({ [16 x i8*] }, { [16 x i8*] }* @_ZTVN8perfetto6protos21PerfEvents_TracepointE, i64 0, inrange i32 0, i64 2) to i32 (...)**), i32 (...)*** bitcast (%"class.perfetto::protos::PerfEvents_TracepointDefaultTypeInternal"* @_ZN8perfetto6protos40_PerfEvents_Tracepoint_default_instance_E to i32 (...)***), align 8
  store i32 0, i32* bitcast (i8* getelementptr inbounds (%"class.perfetto::protos::PerfEvents_TracepointDefaultTypeInternal", %"class.perfetto::protos::PerfEvents_TracepointDefaultTypeInternal"* @_ZN8perfetto6protos40_PerfEvents_Tracepoint_default_instance_E, i64 0, i32 0, i32 0, i32 1, i64 8) to i32*), align 8
  store i32 0, i32* bitcast (i8* getelementptr inbounds (%"class.perfetto::protos::PerfEvents_TracepointDefaultTypeInternal", %"class.perfetto::protos::PerfEvents_TracepointDefaultTypeInternal"* @_ZN8perfetto6protos40_PerfEvents_Tracepoint_default_instance_E, i64 0, i32 0, i32 0, i32 1, i64 12) to i32*), align 4
  %1 = load atomic i32, i32* getelementptr inbounds ({ { { { i32 } }, i32, i32, void ()* }, [0 x i8*] }, { { { { i32 } }, i32, i32, void ()* }, [0 x i8*] }* @scc_info_PerfEvents_Tracepoint_protos_2fperfetto_2fcommon_2fperf_5fevents_2eproto, i64 0, i32 0, i32 0, i32 0, i32 0) acquire, align 8
  %2 = icmp eq i32 %1, 0
  br i1 %2, label %4, label %3, !prof !2

3:                                                ; preds = %0
  tail call void @_ZN6google8protobuf8internal11InitSCCImplEPNS1_11SCCInfoBaseE(%"struct.google::protobuf::internal::SCCInfoBase"* bitcast ({ { { { i32 } }, i32, i32, void ()* }, [0 x i8*] }* @scc_info_PerfEvents_Tracepoint_protos_2fperfetto_2fcommon_2fperf_5fevents_2eproto to %"struct.google::protobuf::internal::SCCInfoBase"*)) #13
  br label %4

4:                                                ; preds = %0, %3
  store <2 x %"class.std::__1::basic_string"*> <%"class.std::__1::basic_string"* bitcast (%"class.google::protobuf::internal::ExplicitlyConstructed.5"* @_ZN6google8protobuf8internal26fixed_address_empty_stringE to %"class.std::__1::basic_string"*), %"class.std::__1::basic_string"* bitcast (%"class.google::protobuf::internal::ExplicitlyConstructed.5"* @_ZN6google8protobuf8internal26fixed_address_empty_stringE to %"class.std::__1::basic_string"*)>, <2 x %"class.std::__1::basic_string"*>* bitcast (i8* getelementptr inbounds (%"class.perfetto::protos::PerfEvents_TracepointDefaultTypeInternal", %"class.perfetto::protos::PerfEvents_TracepointDefaultTypeInternal"* @_ZN8perfetto6protos40_PerfEvents_Tracepoint_default_instance_E, i64 0, i32 0, i32 0, i32 1, i64 16) to <2 x %"class.std::__1::basic_string"*>*), align 8
  tail call void @_ZN6google8protobuf8internal13OnShutdownRunEPFvPKvES3_(void (i8*)* nonnull @_ZN6google8protobuf8internal14DestroyMessageEPKv, i8* bitcast (%"class.perfetto::protos::PerfEvents_TracepointDefaultTypeInternal"* @_ZN8perfetto6protos40_PerfEvents_Tracepoint_default_instance_E to i8*)) #13
  ret void
}

; Function Attrs: norecurse nounwind readnone ssp uwtable
define hidden zeroext i1 @_ZN8perfetto6protos26PerfEvents_Counter_IsValidEi(i32) local_unnamed_addr #1 {
  %2 = icmp ult i32 %0, 12
  br i1 %2, label %3, label %8

3:                                                ; preds = %1
  %4 = trunc i32 %0 to i12
  %5 = lshr i12 -1017, %4
  %6 = and i12 %5, 1
  %7 = icmp ne i12 %6, 0
  ret i1 %7

8:                                                ; preds = %1
  ret i1 false
}

; Function Attrs: argmemonly nounwind
declare {}* @llvm.invariant.start.p0i8(i64 immarg, i8* nocapture) #2

; Function Attrs: nounwind ssp uwtable
define hidden dereferenceable(24) %"class.std::__1::basic_string"* @_ZN8perfetto6protos23PerfEvents_Counter_NameENS0_18PerfEvents_CounterE(i32) local_unnamed_addr #0 {
  %2 = load atomic i8, i8* bitcast (i64* @_ZGVZN8perfetto6protos23PerfEvents_Counter_NameENS0_18PerfEvents_CounterEE5dummy to i8*) acquire, align 8
  %3 = icmp eq i8 %2, 0
  br i1 %3, label %4, label %11, !prof !3

4:                                                ; preds = %1
  %5 = tail call i32 @__cxa_guard_acquire(i64* nonnull @_ZGVZN8perfetto6protos23PerfEvents_Counter_NameENS0_18PerfEvents_CounterEE5dummy) #13
  %6 = icmp eq i32 %5, 0
  br i1 %6, label %11, label %7

7:                                                ; preds = %4
  %8 = tail call zeroext i1 @_ZN6google8protobuf8internal21InitializeEnumStringsEPKNS1_9EnumEntryEPKimPNS1_21ExplicitlyConstructedINSt3__112basic_stringIcNS8_11char_traitsIcEENS8_9allocatorIcEEEEEE(%"struct.google::protobuf::internal::EnumEntry"* getelementptr inbounds ([5 x %"struct.google::protobuf::internal::EnumEntry"], [5 x %"struct.google::protobuf::internal::EnumEntry"]* @_ZN8perfetto6protosL26PerfEvents_Counter_entriesE, i64 0, i64 0), i32* getelementptr inbounds ([5 x i32], [5 x i32]* @_ZN8perfetto6protosL36PerfEvents_Counter_entries_by_numberE, i64 0, i64 0), i64 5, %"class.google::protobuf::internal::ExplicitlyConstructed.5"* getelementptr inbounds ([5 x %"class.google::protobuf::internal::ExplicitlyConstructed.5"], [5 x %"class.google::protobuf::internal::ExplicitlyConstructed.5"]* @_ZN8perfetto6protosL26PerfEvents_Counter_stringsE, i64 0, i64 0)) #13
  %9 = zext i1 %8 to i8
  store i8 %9, i8* @_ZZN8perfetto6protos23PerfEvents_Counter_NameENS0_18PerfEvents_CounterEE5dummy, align 1
  %10 = tail call {}* @llvm.invariant.start.p0i8(i64 1, i8* nonnull @_ZZN8perfetto6protos23PerfEvents_Counter_NameENS0_18PerfEvents_CounterEE5dummy)
  tail call void @__cxa_guard_release(i64* nonnull @_ZGVZN8perfetto6protos23PerfEvents_Counter_NameENS0_18PerfEvents_CounterEE5dummy) #13
  br label %11

11:                                               ; preds = %4, %7, %1
  %12 = tail call i32 @_ZN6google8protobuf8internal14LookUpEnumNameEPKNS1_9EnumEntryEPKimi(%"struct.google::protobuf::internal::EnumEntry"* getelementptr inbounds ([5 x %"struct.google::protobuf::internal::EnumEntry"], [5 x %"struct.google::protobuf::internal::EnumEntry"]* @_ZN8perfetto6protosL26PerfEvents_Counter_entriesE, i64 0, i64 0), i32* getelementptr inbounds ([5 x i32], [5 x i32]* @_ZN8perfetto6protosL36PerfEvents_Counter_entries_by_numberE, i64 0, i64 0), i64 5, i32 %0) #13
  %13 = icmp eq i32 %12, -1
  br i1 %13, label %14, label %16

14:                                               ; preds = %11
  %15 = tail call dereferenceable(24) %"class.std::__1::basic_string"* @_ZN6google8protobuf8internal14GetEmptyStringEv() #13
  br label %20

16:                                               ; preds = %11
  %17 = sext i32 %12 to i64
  %18 = getelementptr inbounds [5 x %"class.google::protobuf::internal::ExplicitlyConstructed.5"], [5 x %"class.google::protobuf::internal::ExplicitlyConstructed.5"]* @_ZN8perfetto6protosL26PerfEvents_Counter_stringsE, i64 0, i64 %17
  %19 = bitcast %"class.google::protobuf::internal::ExplicitlyConstructed.5"* %18 to %"class.std::__1::basic_string"*
  br label %20

20:                                               ; preds = %16, %14
  %21 = phi %"class.std::__1::basic_string"* [ %15, %14 ], [ %19, %16 ]
  ret %"class.std::__1::basic_string"* %21
}

; Function Attrs: nofree nounwind
declare i32 @__cxa_guard_acquire(i64*) local_unnamed_addr #3

declare zeroext i1 @_ZN6google8protobuf8internal21InitializeEnumStringsEPKNS1_9EnumEntryEPKimPNS1_21ExplicitlyConstructedINSt3__112basic_stringIcNS8_11char_traitsIcEENS8_9allocatorIcEEEEEE(%"struct.google::protobuf::internal::EnumEntry"*, i32*, i64, %"class.google::protobuf::internal::ExplicitlyConstructed.5"*) local_unnamed_addr #4

; Function Attrs: nofree nounwind
declare void @__cxa_guard_release(i64*) local_unnamed_addr #3

; Function Attrs: argmemonly nounwind
declare void @llvm.lifetime.start.p0i8(i64 immarg, i8* nocapture) #2

declare i32 @_ZN6google8protobuf8internal14LookUpEnumNameEPKNS1_9EnumEntryEPKimi(%"struct.google::protobuf::internal::EnumEntry"*, i32*, i64, i32) local_unnamed_addr #4

declare dereferenceable(24) %"class.std::__1::basic_string"* @_ZN6google8protobuf8internal14GetEmptyStringEv() local_unnamed_addr #4

; Function Attrs: argmemonly nounwind
declare void @llvm.lifetime.end.p0i8(i64 immarg, i8* nocapture) #2

; Function Attrs: nounwind ssp uwtable
define hidden zeroext i1 @_ZN8perfetto6protos24PerfEvents_Counter_ParseERKNSt3__112basic_stringIcNS1_11char_traitsIcEENS1_9allocatorIcEEEEPNS0_18PerfEvents_CounterE(%"class.std::__1::basic_string"* dereferenceable(24), i32* nocapture) local_unnamed_addr #0 {
  %3 = alloca i32, align 4
  %4 = bitcast i32* %3 to i8*
  call void @llvm.lifetime.start.p0i8(i64 4, i8* nonnull %4) #13
  store i32 -1431655766, i32* %3, align 4
  %5 = bitcast %"class.std::__1::basic_string"* %0 to %"struct.std::__1::basic_string<char, std::__1::char_traits<char>, std::__1::allocator<char> >::__short"*
  %6 = getelementptr inbounds %"struct.std::__1::basic_string<char, std::__1::char_traits<char>, std::__1::allocator<char> >::__short", %"struct.std::__1::basic_string<char, std::__1::char_traits<char>, std::__1::allocator<char> >::__short"* %5, i64 0, i32 1, i32 0
  %7 = load i8, i8* %6, align 1
  %8 = icmp slt i8 %7, 0
  %9 = getelementptr inbounds %"class.std::__1::basic_string", %"class.std::__1::basic_string"* %0, i64 0, i32 0, i32 0, i32 0, i32 0, i32 0, i32 0
  %10 = load i8*, i8** %9, align 8
  %11 = bitcast %"class.std::__1::basic_string"* %0 to i8*
  %12 = select i1 %8, i8* %10, i8* %11
  br i1 %8, label %15, label %13

13:                                               ; preds = %2
  %14 = zext i8 %7 to i64
  br label %20

15:                                               ; preds = %2
  %16 = getelementptr inbounds %"class.std::__1::basic_string", %"class.std::__1::basic_string"* %0, i64 0, i32 0, i32 0, i32 0, i32 0, i32 0, i32 1
  %17 = load i64, i64* %16, align 8
  %18 = icmp slt i64 %17, 0
  br i1 %18, label %19, label %20

19:                                               ; preds = %15
  tail call void @_ZN6google8protobuf11StringPiece18LogFatalSizeTooBigEmPKc(i64 %17, i8* getelementptr inbounds ([25 x i8], [25 x i8]* @.str.12, i64 0, i64 0)) #13
  br label %20

20:                                               ; preds = %13, %15, %19
  %21 = phi i64 [ %14, %13 ], [ %17, %15 ], [ %17, %19 ]
  %22 = call zeroext i1 @_ZN6google8protobuf8internal15LookUpEnumValueEPKNS1_9EnumEntryEmNS0_11StringPieceEPi(%"struct.google::protobuf::internal::EnumEntry"* getelementptr inbounds ([5 x %"struct.google::protobuf::internal::EnumEntry"], [5 x %"struct.google::protobuf::internal::EnumEntry"]* @_ZN8perfetto6protosL26PerfEvents_Counter_entriesE, i64 0, i64 0), i64 5, i8* %12, i64 %21, i32* nonnull %3) #13
  br i1 %22, label %23, label %25

23:                                               ; preds = %20
  %24 = load i32, i32* %3, align 4
  store i32 %24, i32* %1, align 4
  br label %25

25:                                               ; preds = %23, %20
  call void @llvm.lifetime.end.p0i8(i64 4, i8* nonnull %4) #13
  ret i1 %22
}

declare zeroext i1 @_ZN6google8protobuf8internal15LookUpEnumValueEPKNS1_9EnumEntryEmNS0_11StringPieceEPi(%"struct.google::protobuf::internal::EnumEntry"*, i64, i8*, i64, i32*) local_unnamed_addr #4

; Function Attrs: norecurse nounwind readonly ssp uwtable
define hidden dereferenceable(40) %"class.perfetto::protos::PerfEvents_Tracepoint"* @_ZN8perfetto6protos19PerfEvents_Timebase9_Internal10tracepointEPKS1_(%"class.perfetto::protos::PerfEvents_Timebase"* nocapture readonly) local_unnamed_addr #5 align 2 {
  %2 = getelementptr inbounds %"class.perfetto::protos::PerfEvents_Timebase", %"class.perfetto::protos::PerfEvents_Timebase"* %0, i64 0, i32 2, i32 0
  %3 = load %"class.perfetto::protos::PerfEvents_Tracepoint"*, %"class.perfetto::protos::PerfEvents_Tracepoint"** %2, align 8
  ret %"class.perfetto::protos::PerfEvents_Tracepoint"* %3
}

; Function Attrs: nounwind ssp uwtable
define hidden void @_ZN8perfetto6protos19PerfEvents_Timebase24set_allocated_tracepointEPNS0_21PerfEvents_TracepointE(%"class.perfetto::protos::PerfEvents_Timebase"* nocapture, %"class.perfetto::protos::PerfEvents_Tracepoint"*) local_unnamed_addr #0 align 2 {
  %3 = getelementptr inbounds %"class.perfetto::protos::PerfEvents_Timebase", %"class.perfetto::protos::PerfEvents_Timebase"* %0, i64 0, i32 0, i32 1
  %4 = bitcast %"class.google::protobuf::internal::InternalMetadata"* %3 to i64*
  %5 = load i64, i64* %4, align 8
  %6 = and i64 %5, 1
  %7 = icmp eq i64 %6, 0
  %8 = and i64 %5, -2
  br i1 %7, label %13, label %9, !prof !2

9:                                                ; preds = %2
  %10 = inttoptr i64 %8 to %"struct.google::protobuf::internal::InternalMetadata::ContainerBase"*
  %11 = getelementptr inbounds %"struct.google::protobuf::internal::InternalMetadata::ContainerBase", %"struct.google::protobuf::internal::InternalMetadata::ContainerBase"* %10, i64 0, i32 0
  %12 = load %"class.google::protobuf::Arena"*, %"class.google::protobuf::Arena"** %11, align 8
  br label %15

13:                                               ; preds = %2
  %14 = inttoptr i64 %8 to %"class.google::protobuf::Arena"*
  br label %15

15:                                               ; preds = %9, %13
  %16 = phi %"class.google::protobuf::Arena"* [ %12, %9 ], [ %14, %13 ]
  %17 = getelementptr inbounds %"class.perfetto::protos::PerfEvents_Timebase", %"class.perfetto::protos::PerfEvents_Timebase"* %0, i64 0, i32 4, i64 1
  %18 = load i32, i32* %17, align 4
  %19 = icmp eq i32 %18, 3
  br i1 %19, label %20, label %39

20:                                               ; preds = %15
  br i1 %7, label %25, label %21, !prof !2

21:                                               ; preds = %20
  %22 = inttoptr i64 %8 to %"struct.google::protobuf::internal::InternalMetadata::ContainerBase"*
  %23 = getelementptr inbounds %"struct.google::protobuf::internal::InternalMetadata::ContainerBase", %"struct.google::protobuf::internal::InternalMetadata::ContainerBase"* %22, i64 0, i32 0
  %24 = load %"class.google::protobuf::Arena"*, %"class.google::protobuf::Arena"** %23, align 8
  br label %27

25:                                               ; preds = %20
  %26 = inttoptr i64 %8 to %"class.google::protobuf::Arena"*
  br label %27

27:                                               ; preds = %25, %21
  %28 = phi %"class.google::protobuf::Arena"* [ %24, %21 ], [ %26, %25 ]
  %29 = icmp eq %"class.google::protobuf::Arena"* %28, null
  br i1 %29, label %30, label %39

30:                                               ; preds = %27
  %31 = getelementptr inbounds %"class.perfetto::protos::PerfEvents_Timebase", %"class.perfetto::protos::PerfEvents_Timebase"* %0, i64 0, i32 2, i32 0
  %32 = load %"class.perfetto::protos::PerfEvents_Tracepoint"*, %"class.perfetto::protos::PerfEvents_Tracepoint"** %31, align 8
  %33 = icmp eq %"class.perfetto::protos::PerfEvents_Tracepoint"* %32, null
  br i1 %33, label %39, label %34

34:                                               ; preds = %30
  %35 = bitcast %"class.perfetto::protos::PerfEvents_Tracepoint"* %32 to void (%"class.perfetto::protos::PerfEvents_Tracepoint"*)***
  %36 = load void (%"class.perfetto::protos::PerfEvents_Tracepoint"*)**, void (%"class.perfetto::protos::PerfEvents_Tracepoint"*)*** %35, align 8
  %37 = getelementptr inbounds void (%"class.perfetto::protos::PerfEvents_Tracepoint"*)*, void (%"class.perfetto::protos::PerfEvents_Tracepoint"*)** %36, i64 1
  %38 = load void (%"class.perfetto::protos::PerfEvents_Tracepoint"*)*, void (%"class.perfetto::protos::PerfEvents_Tracepoint"*)** %37, align 8
  tail call void %38(%"class.perfetto::protos::PerfEvents_Tracepoint"* nonnull %32) #13
  br label %39

39:                                               ; preds = %15, %27, %30, %34
  store i32 0, i32* %17, align 4
  %40 = icmp eq %"class.perfetto::protos::PerfEvents_Tracepoint"* %1, null
  br i1 %40, label %64, label %41

41:                                               ; preds = %39
  %42 = getelementptr inbounds %"class.perfetto::protos::PerfEvents_Tracepoint", %"class.perfetto::protos::PerfEvents_Tracepoint"* %1, i64 0, i32 0, i32 1
  %43 = bitcast %"class.google::protobuf::internal::InternalMetadata"* %42 to i64*
  %44 = load i64, i64* %43, align 8
  %45 = and i64 %44, 1
  %46 = icmp eq i64 %45, 0
  %47 = and i64 %44, -2
  br i1 %46, label %52, label %48, !prof !2

48:                                               ; preds = %41
  %49 = inttoptr i64 %47 to %"struct.google::protobuf::internal::InternalMetadata::ContainerBase"*
  %50 = getelementptr inbounds %"struct.google::protobuf::internal::InternalMetadata::ContainerBase", %"struct.google::protobuf::internal::InternalMetadata::ContainerBase"* %49, i64 0, i32 0
  %51 = load %"class.google::protobuf::Arena"*, %"class.google::protobuf::Arena"** %50, align 8
  br label %54

52:                                               ; preds = %41
  %53 = inttoptr i64 %47 to %"class.google::protobuf::Arena"*
  br label %54

54:                                               ; preds = %48, %52
  %55 = phi %"class.google::protobuf::Arena"* [ %51, %48 ], [ %53, %52 ]
  %56 = icmp eq %"class.google::protobuf::Arena"* %16, %55
  br i1 %56, label %61, label %57

57:                                               ; preds = %54
  %58 = getelementptr inbounds %"class.perfetto::protos::PerfEvents_Tracepoint", %"class.perfetto::protos::PerfEvents_Tracepoint"* %1, i64 0, i32 0
  %59 = tail call %"class.google::protobuf::MessageLite"* @_ZN6google8protobuf8internal23GetOwnedMessageInternalEPNS0_5ArenaEPNS0_11MessageLiteES3_(%"class.google::protobuf::Arena"* %16, %"class.google::protobuf::MessageLite"* %58, %"class.google::protobuf::Arena"* %55) #13
  %60 = bitcast %"class.google::protobuf::MessageLite"* %59 to %"class.perfetto::protos::PerfEvents_Tracepoint"*
  br label %61

61:                                               ; preds = %54, %57
  %62 = phi %"class.perfetto::protos::PerfEvents_Tracepoint"* [ %60, %57 ], [ %1, %54 ]
  store i32 3, i32* %17, align 4
  %63 = getelementptr inbounds %"class.perfetto::protos::PerfEvents_Timebase", %"class.perfetto::protos::PerfEvents_Timebase"* %0, i64 0, i32 2, i32 0
  store %"class.perfetto::protos::PerfEvents_Tracepoint"* %62, %"class.perfetto::protos::PerfEvents_Tracepoint"** %63, align 8
  br label %64

64:                                               ; preds = %39, %61
  ret void
}

; Function Attrs: nounwind ssp uwtable
define hidden void @_ZN8perfetto6protos19PerfEvents_Timebase11clear_eventEv(%"class.perfetto::protos::PerfEvents_Timebase"* nocapture) local_unnamed_addr #0 align 2 {
  %2 = getelementptr inbounds %"class.perfetto::protos::PerfEvents_Timebase", %"class.perfetto::protos::PerfEvents_Timebase"* %0, i64 0, i32 4, i64 1
  %3 = load i32, i32* %2, align 4
  %4 = icmp eq i32 %3, 3
  br i1 %4, label %5, label %30

5:                                                ; preds = %1
  %6 = getelementptr inbounds %"class.perfetto::protos::PerfEvents_Timebase", %"class.perfetto::protos::PerfEvents_Timebase"* %0, i64 0, i32 0, i32 1
  %7 = bitcast %"class.google::protobuf::internal::InternalMetadata"* %6 to i64*
  %8 = load i64, i64* %7, align 8
  %9 = and i64 %8, 1
  %10 = icmp eq i64 %9, 0
  %11 = and i64 %8, -2
  br i1 %10, label %16, label %12, !prof !2

12:                                               ; preds = %5
  %13 = inttoptr i64 %11 to %"struct.google::protobuf::internal::InternalMetadata::ContainerBase"*
  %14 = getelementptr inbounds %"struct.google::protobuf::internal::InternalMetadata::ContainerBase", %"struct.google::protobuf::internal::InternalMetadata::ContainerBase"* %13, i64 0, i32 0
  %15 = load %"class.google::protobuf::Arena"*, %"class.google::protobuf::Arena"** %14, align 8
  br label %18

16:                                               ; preds = %5
  %17 = inttoptr i64 %11 to %"class.google::protobuf::Arena"*
  br label %18

18:                                               ; preds = %12, %16
  %19 = phi %"class.google::protobuf::Arena"* [ %15, %12 ], [ %17, %16 ]
  %20 = icmp eq %"class.google::protobuf::Arena"* %19, null
  br i1 %20, label %21, label %30

21:                                               ; preds = %18
  %22 = getelementptr inbounds %"class.perfetto::protos::PerfEvents_Timebase", %"class.perfetto::protos::PerfEvents_Timebase"* %0, i64 0, i32 2, i32 0
  %23 = load %"class.perfetto::protos::PerfEvents_Tracepoint"*, %"class.perfetto::protos::PerfEvents_Tracepoint"** %22, align 8
  %24 = icmp eq %"class.perfetto::protos::PerfEvents_Tracepoint"* %23, null
  br i1 %24, label %30, label %25

25:                                               ; preds = %21
  %26 = bitcast %"class.perfetto::protos::PerfEvents_Tracepoint"* %23 to void (%"class.perfetto::protos::PerfEvents_Tracepoint"*)***
  %27 = load void (%"class.perfetto::protos::PerfEvents_Tracepoint"*)**, void (%"class.perfetto::protos::PerfEvents_Tracepoint"*)*** %26, align 8
  %28 = getelementptr inbounds void (%"class.perfetto::protos::PerfEvents_Tracepoint"*)*, void (%"class.perfetto::protos::PerfEvents_Tracepoint"*)** %27, i64 1
  %29 = load void (%"class.perfetto::protos::PerfEvents_Tracepoint"*)*, void (%"class.perfetto::protos::PerfEvents_Tracepoint"*)** %28, align 8
  tail call void %29(%"class.perfetto::protos::PerfEvents_Tracepoint"* nonnull %23) #13
  br label %30

30:                                               ; preds = %1, %18, %25, %21
  store i32 0, i32* %2, align 4
  ret void
}

; Function Attrs: nounwind ssp uwtable
define hidden void @_ZN8perfetto6protos19PerfEvents_TimebaseC2EPN6google8protobuf5ArenaE(%"class.perfetto::protos::PerfEvents_Timebase"* nocapture, %"class.google::protobuf::Arena"*) unnamed_addr #0 align 2 {
  %3 = getelementptr inbounds %"class.perfetto::protos::PerfEvents_Timebase", %"class.perfetto::protos::PerfEvents_Timebase"* %0, i64 0, i32 0, i32 0
  %4 = getelementptr inbounds %"class.perfetto::protos::PerfEvents_Timebase", %"class.perfetto::protos::PerfEvents_Timebase"* %0, i64 0, i32 0, i32 1
  %5 = bitcast %"class.google::protobuf::internal::InternalMetadata"* %4 to %"class.google::protobuf::Arena"**
  store %"class.google::protobuf::Arena"* %1, %"class.google::protobuf::Arena"** %5, align 8
  store i32 (...)** bitcast (i8** getelementptr inbounds ({ [16 x i8*] }, { [16 x i8*] }* @_ZTVN8perfetto6protos19PerfEvents_TimebaseE, i64 0, inrange i32 0, i64 2) to i32 (...)**), i32 (...)*** %3, align 8
  %6 = getelementptr inbounds %"class.perfetto::protos::PerfEvents_Timebase", %"class.perfetto::protos::PerfEvents_Timebase"* %0, i64 0, i32 3, i32 0, i32 0, i32 0, i32 0, i32 0, i32 0
  store i32 0, i32* %6, align 4
  %7 = load atomic i32, i32* getelementptr inbounds ({ { { { i32 } }, i32, i32, void ()* }, [1 x i8*] }, { { { { i32 } }, i32, i32, void ()* }, [1 x i8*] }* @scc_info_PerfEvents_Timebase_protos_2fperfetto_2fcommon_2fperf_5fevents_2eproto, i64 0, i32 0, i32 0, i32 0, i32 0) acquire, align 8
  %8 = icmp eq i32 %7, 0
  br i1 %8, label %10, label %9, !prof !2

9:                                                ; preds = %2
  tail call void @_ZN6google8protobuf8internal11InitSCCImplEPNS1_11SCCInfoBaseE(%"struct.google::protobuf::internal::SCCInfoBase"* bitcast ({ { { { i32 } }, i32, i32, void ()* }, [1 x i8*] }* @scc_info_PerfEvents_Timebase_protos_2fperfetto_2fcommon_2fperf_5fevents_2eproto to %"struct.google::protobuf::internal::SCCInfoBase"*)) #13
  br label %10

10:                                               ; preds = %2, %9
  %11 = getelementptr inbounds %"class.perfetto::protos::PerfEvents_Timebase", %"class.perfetto::protos::PerfEvents_Timebase"* %0, i64 0, i32 4, i64 0
  store i32 0, i32* %11, align 4
  %12 = getelementptr inbounds %"class.perfetto::protos::PerfEvents_Timebase", %"class.perfetto::protos::PerfEvents_Timebase"* %0, i64 0, i32 4, i64 1
  store i32 0, i32* %12, align 4
  ret void
}

; Function Attrs: nounwind ssp uwtable
define hidden void @_ZN8perfetto6protos19PerfEvents_TimebaseC2ERKS1_(%"class.perfetto::protos::PerfEvents_Timebase"*, %"class.perfetto::protos::PerfEvents_Timebase"* nocapture readonly dereferenceable(48)) unnamed_addr #0 align 2 {
  %3 = getelementptr inbounds %"class.perfetto::protos::PerfEvents_Timebase", %"class.perfetto::protos::PerfEvents_Timebase"* %0, i64 0, i32 0, i32 0
  %4 = getelementptr inbounds %"class.perfetto::protos::PerfEvents_Timebase", %"class.perfetto::protos::PerfEvents_Timebase"* %0, i64 0, i32 0, i32 1, i32 0
  store i8* null, i8** %4, align 8
  store i32 (...)** bitcast (i8** getelementptr inbounds ({ [16 x i8*] }, { [16 x i8*] }* @_ZTVN8perfetto6protos19PerfEvents_TimebaseE, i64 0, inrange i32 0, i64 2) to i32 (...)**), i32 (...)*** %3, align 8
  %5 = getelementptr inbounds %"class.perfetto::protos::PerfEvents_Timebase", %"class.perfetto::protos::PerfEvents_Timebase"* %0, i64 0, i32 3, i32 0, i32 0, i32 0, i32 0, i32 0, i32 0
  store i32 0, i32* %5, align 4
  %6 = getelementptr inbounds %"class.perfetto::protos::PerfEvents_Timebase", %"class.perfetto::protos::PerfEvents_Timebase"* %0, i64 0, i32 0, i32 1
  %7 = getelementptr inbounds %"class.perfetto::protos::PerfEvents_Timebase", %"class.perfetto::protos::PerfEvents_Timebase"* %1, i64 0, i32 0, i32 1
  %8 = bitcast %"class.google::protobuf::internal::InternalMetadata"* %7 to i64*
  %9 = load i64, i64* %8, align 8
  %10 = and i64 %9, 1
  %11 = icmp eq i64 %10, 0
  br i1 %11, label %30, label %12

12:                                               ; preds = %2
  %13 = and i64 %9, -2
  %14 = inttoptr i64 %13 to %"struct.google::protobuf::internal::InternalMetadata::Container"*
  %15 = getelementptr inbounds %"struct.google::protobuf::internal::InternalMetadata::Container", %"struct.google::protobuf::internal::InternalMetadata::Container"* %14, i64 0, i32 1
  %16 = tail call %"class.std::__1::basic_string"* @_ZN6google8protobuf8internal16InternalMetadata27mutable_unknown_fields_slowINSt3__112basic_stringIcNS4_11char_traitsIcEENS4_9allocatorIcEEEEEEPT_v(%"class.google::protobuf::internal::InternalMetadata"* %6) #13
  %17 = bitcast %"class.std::__1::basic_string"* %15 to %"struct.std::__1::basic_string<char, std::__1::char_traits<char>, std::__1::allocator<char> >::__short"*
  %18 = getelementptr inbounds %"struct.std::__1::basic_string<char, std::__1::char_traits<char>, std::__1::allocator<char> >::__short", %"struct.std::__1::basic_string<char, std::__1::char_traits<char>, std::__1::allocator<char> >::__short"* %17, i64 0, i32 1, i32 0
  %19 = load i8, i8* %18, align 1
  %20 = icmp slt i8 %19, 0
  %21 = getelementptr inbounds %"class.std::__1::basic_string", %"class.std::__1::basic_string"* %15, i64 0, i32 0, i32 0, i32 0, i32 0, i32 0, i32 0
  %22 = load i8*, i8** %21, align 8
  %23 = getelementptr inbounds %"struct.google::protobuf::internal::InternalMetadata::Container", %"struct.google::protobuf::internal::InternalMetadata::Container"* %14, i64 0, i32 1, i32 0, i32 0, i32 0, i32 0, i32 0, i32 1
  %24 = load i64, i64* %23, align 8
  %25 = bitcast %"class.std::__1::basic_string"* %15 to i8*
  %26 = zext i8 %19 to i64
  %27 = select i1 %20, i8* %22, i8* %25
  %28 = select i1 %20, i64 %24, i64 %26
  %29 = tail call dereferenceable(24) %"class.std::__1::basic_string"* @_ZNSt3__112basic_stringIcNS_11char_traitsIcEENS_9allocatorIcEEE6appendEPKcm(%"class.std::__1::basic_string"* %16, i8* %27, i64 %28) #13
  br label %30

30:                                               ; preds = %2, %12
  %31 = getelementptr inbounds %"class.perfetto::protos::PerfEvents_Timebase", %"class.perfetto::protos::PerfEvents_Timebase"* %0, i64 0, i32 4, i64 0
  store i32 0, i32* %31, align 4
  %32 = getelementptr inbounds %"class.perfetto::protos::PerfEvents_Timebase", %"class.perfetto::protos::PerfEvents_Timebase"* %1, i64 0, i32 4, i64 0
  %33 = load i32, i32* %32, align 4
  %34 = add i32 %33, -1
  %35 = icmp ult i32 %34, 2
  br i1 %35, label %36, label %40

36:                                               ; preds = %30
  %37 = getelementptr inbounds %"class.perfetto::protos::PerfEvents_Timebase", %"class.perfetto::protos::PerfEvents_Timebase"* %1, i64 0, i32 1, i32 0
  %38 = load i64, i64* %37, align 8
  store i32 %33, i32* %31, align 4
  %39 = getelementptr inbounds %"class.perfetto::protos::PerfEvents_Timebase", %"class.perfetto::protos::PerfEvents_Timebase"* %0, i64 0, i32 1, i32 0
  store i64 %38, i64* %39, align 8
  br label %40

40:                                               ; preds = %30, %36
  %41 = getelementptr inbounds %"class.perfetto::protos::PerfEvents_Timebase", %"class.perfetto::protos::PerfEvents_Timebase"* %0, i64 0, i32 4, i64 1
  store i32 0, i32* %41, align 4
  %42 = getelementptr inbounds %"class.perfetto::protos::PerfEvents_Timebase", %"class.perfetto::protos::PerfEvents_Timebase"* %1, i64 0, i32 4, i64 1
  %43 = load i32, i32* %42, align 4
  switch i32 %43, label %73 [
    i32 4, label %44
    i32 3, label %50
  ]

44:                                               ; preds = %40
  %45 = getelementptr inbounds %"class.perfetto::protos::PerfEvents_Timebase", %"class.perfetto::protos::PerfEvents_Timebase"* %1, i64 0, i32 2
  %46 = bitcast %"union.perfetto::protos::PerfEvents_Timebase::EventUnion"* %45 to i32*
  %47 = load i32, i32* %46, align 8
  store i32 4, i32* %41, align 4
  %48 = getelementptr inbounds %"class.perfetto::protos::PerfEvents_Timebase", %"class.perfetto::protos::PerfEvents_Timebase"* %0, i64 0, i32 2
  %49 = bitcast %"union.perfetto::protos::PerfEvents_Timebase::EventUnion"* %48 to i32*
  store i32 %47, i32* %49, align 8
  br label %73

50:                                               ; preds = %40
  store i32 3, i32* %41, align 4
  %51 = bitcast %"class.google::protobuf::internal::InternalMetadata"* %6 to i64*
  %52 = load i64, i64* %51, align 8
  %53 = and i64 %52, 1
  %54 = icmp eq i64 %53, 0
  %55 = and i64 %52, -2
  br i1 %54, label %60, label %56, !prof !2

56:                                               ; preds = %50
  %57 = inttoptr i64 %55 to %"struct.google::protobuf::internal::InternalMetadata::ContainerBase"*
  %58 = getelementptr inbounds %"struct.google::protobuf::internal::InternalMetadata::ContainerBase", %"struct.google::protobuf::internal::InternalMetadata::ContainerBase"* %57, i64 0, i32 0
  %59 = load %"class.google::protobuf::Arena"*, %"class.google::protobuf::Arena"** %58, align 8
  br label %62

60:                                               ; preds = %50
  %61 = inttoptr i64 %55 to %"class.google::protobuf::Arena"*
  br label %62

62:                                               ; preds = %56, %60
  %63 = phi %"class.google::protobuf::Arena"* [ %59, %56 ], [ %61, %60 ]
  %64 = tail call %"class.perfetto::protos::PerfEvents_Tracepoint"* @_ZN6google8protobuf5Arena18CreateMaybeMessageIN8perfetto6protos21PerfEvents_TracepointEJEEEPT_PS1_DpOT0_(%"class.google::protobuf::Arena"* %63) #13
  %65 = getelementptr inbounds %"class.perfetto::protos::PerfEvents_Timebase", %"class.perfetto::protos::PerfEvents_Timebase"* %0, i64 0, i32 2, i32 0
  store %"class.perfetto::protos::PerfEvents_Tracepoint"* %64, %"class.perfetto::protos::PerfEvents_Tracepoint"** %65, align 8
  %66 = load i32, i32* %42, align 4
  %67 = icmp eq i32 %66, 3
  br i1 %67, label %68, label %71

68:                                               ; preds = %62
  %69 = getelementptr inbounds %"class.perfetto::protos::PerfEvents_Timebase", %"class.perfetto::protos::PerfEvents_Timebase"* %1, i64 0, i32 2, i32 0
  %70 = load %"class.perfetto::protos::PerfEvents_Tracepoint"*, %"class.perfetto::protos::PerfEvents_Tracepoint"** %69, align 8
  br label %71

71:                                               ; preds = %62, %68
  %72 = phi %"class.perfetto::protos::PerfEvents_Tracepoint"* [ %70, %68 ], [ bitcast (%"class.perfetto::protos::PerfEvents_TracepointDefaultTypeInternal"* @_ZN8perfetto6protos40_PerfEvents_Tracepoint_default_instance_E to %"class.perfetto::protos::PerfEvents_Tracepoint"*), %62 ]
  tail call void @_ZN8perfetto6protos21PerfEvents_Tracepoint9MergeFromERKS1_(%"class.perfetto::protos::PerfEvents_Tracepoint"* %64, %"class.perfetto::protos::PerfEvents_Tracepoint"* dereferenceable(40) %72)
  br label %73

73:                                               ; preds = %40, %71, %44
  ret void
}

; Function Attrs: nounwind ssp uwtable
define hidden void @_ZN8perfetto6protos21PerfEvents_Tracepoint9MergeFromERKS1_(%"class.perfetto::protos::PerfEvents_Tracepoint"*, %"class.perfetto::protos::PerfEvents_Tracepoint"* nocapture readonly dereferenceable(40)) local_unnamed_addr #0 align 2 {
  %3 = getelementptr inbounds %"class.perfetto::protos::PerfEvents_Tracepoint", %"class.perfetto::protos::PerfEvents_Tracepoint"* %0, i64 0, i32 0, i32 1
  %4 = getelementptr inbounds %"class.perfetto::protos::PerfEvents_Tracepoint", %"class.perfetto::protos::PerfEvents_Tracepoint"* %1, i64 0, i32 0, i32 1
  %5 = bitcast %"class.google::protobuf::internal::InternalMetadata"* %4 to i64*
  %6 = load i64, i64* %5, align 8
  %7 = and i64 %6, 1
  %8 = icmp eq i64 %7, 0
  br i1 %8, label %38, label %9

9:                                                ; preds = %2
  %10 = and i64 %6, -2
  %11 = inttoptr i64 %10 to %"struct.google::protobuf::internal::InternalMetadata::Container"*
  %12 = getelementptr inbounds %"struct.google::protobuf::internal::InternalMetadata::Container", %"struct.google::protobuf::internal::InternalMetadata::Container"* %11, i64 0, i32 1
  %13 = bitcast %"class.google::protobuf::internal::InternalMetadata"* %3 to i64*
  %14 = load i64, i64* %13, align 8
  %15 = and i64 %14, 1
  %16 = icmp eq i64 %15, 0
  br i1 %16, label %21, label %17, !prof !4

17:                                               ; preds = %9
  %18 = and i64 %14, -2
  %19 = inttoptr i64 %18 to %"struct.google::protobuf::internal::InternalMetadata::Container"*
  %20 = getelementptr inbounds %"struct.google::protobuf::internal::InternalMetadata::Container", %"struct.google::protobuf::internal::InternalMetadata::Container"* %19, i64 0, i32 1
  br label %23

21:                                               ; preds = %9
  %22 = tail call %"class.std::__1::basic_string"* @_ZN6google8protobuf8internal16InternalMetadata27mutable_unknown_fields_slowINSt3__112basic_stringIcNS4_11char_traitsIcEENS4_9allocatorIcEEEEEEPT_v(%"class.google::protobuf::internal::InternalMetadata"* %3) #13
  br label %23

23:                                               ; preds = %21, %17
  %24 = phi %"class.std::__1::basic_string"* [ %20, %17 ], [ %22, %21 ]
  %25 = bitcast %"class.std::__1::basic_string"* %12 to %"struct.std::__1::basic_string<char, std::__1::char_traits<char>, std::__1::allocator<char> >::__short"*
  %26 = getelementptr inbounds %"struct.std::__1::basic_string<char, std::__1::char_traits<char>, std::__1::allocator<char> >::__short", %"struct.std::__1::basic_string<char, std::__1::char_traits<char>, std::__1::allocator<char> >::__short"* %25, i64 0, i32 1, i32 0
  %27 = load i8, i8* %26, align 1
  %28 = icmp slt i8 %27, 0
  %29 = getelementptr inbounds %"class.std::__1::basic_string", %"class.std::__1::basic_string"* %12, i64 0, i32 0, i32 0, i32 0, i32 0, i32 0, i32 0
  %30 = load i8*, i8** %29, align 8
  %31 = getelementptr inbounds %"struct.google::protobuf::internal::InternalMetadata::Container", %"struct.google::protobuf::internal::InternalMetadata::Container"* %11, i64 0, i32 1, i32 0, i32 0, i32 0, i32 0, i32 0, i32 1
  %32 = load i64, i64* %31, align 8
  %33 = bitcast %"class.std::__1::basic_string"* %12 to i8*
  %34 = zext i8 %27 to i64
  %35 = select i1 %28, i8* %30, i8* %33
  %36 = select i1 %28, i64 %32, i64 %34
  %37 = tail call dereferenceable(24) %"class.std::__1::basic_string"* @_ZNSt3__112basic_stringIcNS_11char_traitsIcEENS_9allocatorIcEEE6appendEPKcm(%"class.std::__1::basic_string"* %24, i8* %35, i64 %36) #13
  br label %38

38:                                               ; preds = %2, %23
  %39 = getelementptr inbounds %"class.perfetto::protos::PerfEvents_Tracepoint", %"class.perfetto::protos::PerfEvents_Tracepoint"* %1, i64 0, i32 1, i32 0, i64 0
  %40 = load i32, i32* %39, align 4
  %41 = and i32 %40, 3
  %42 = icmp eq i32 %41, 0
  br i1 %42, label %159, label %43

43:                                               ; preds = %38
  %44 = and i32 %40, 1
  %45 = icmp eq i32 %44, 0
  br i1 %45, label %101, label %46

46:                                               ; preds = %43
  %47 = getelementptr inbounds %"class.perfetto::protos::PerfEvents_Tracepoint", %"class.perfetto::protos::PerfEvents_Tracepoint"* %1, i64 0, i32 3, i32 0
  %48 = load %"class.std::__1::basic_string"*, %"class.std::__1::basic_string"** %47, align 8
  %49 = getelementptr inbounds %"class.perfetto::protos::PerfEvents_Tracepoint", %"class.perfetto::protos::PerfEvents_Tracepoint"* %0, i64 0, i32 1, i32 0, i64 0
  %50 = load i32, i32* %49, align 4
  %51 = or i32 %50, 1
  store i32 %51, i32* %49, align 4
  %52 = getelementptr inbounds %"class.perfetto::protos::PerfEvents_Tracepoint", %"class.perfetto::protos::PerfEvents_Tracepoint"* %0, i64 0, i32 3
  %53 = bitcast %"class.google::protobuf::internal::InternalMetadata"* %3 to i64*
  %54 = load i64, i64* %53, align 8
  %55 = and i64 %54, 1
  %56 = icmp eq i64 %55, 0
  %57 = and i64 %54, -2
  br i1 %56, label %62, label %58, !prof !2

58:                                               ; preds = %46
  %59 = inttoptr i64 %57 to %"struct.google::protobuf::internal::InternalMetadata::ContainerBase"*
  %60 = getelementptr inbounds %"struct.google::protobuf::internal::InternalMetadata::ContainerBase", %"struct.google::protobuf::internal::InternalMetadata::ContainerBase"* %59, i64 0, i32 0
  %61 = load %"class.google::protobuf::Arena"*, %"class.google::protobuf::Arena"** %60, align 8
  br label %64

62:                                               ; preds = %46
  %63 = inttoptr i64 %57 to %"class.google::protobuf::Arena"*
  br label %64

64:                                               ; preds = %62, %58
  %65 = phi %"class.google::protobuf::Arena"* [ %61, %58 ], [ %63, %62 ]
  %66 = getelementptr inbounds %"struct.google::protobuf::internal::ArenaStringPtr", %"struct.google::protobuf::internal::ArenaStringPtr"* %52, i64 0, i32 0
  %67 = load %"class.std::__1::basic_string"*, %"class.std::__1::basic_string"** %66, align 8
  %68 = icmp eq %"class.std::__1::basic_string"* %67, bitcast (%"class.google::protobuf::internal::ExplicitlyConstructed.5"* @_ZN6google8protobuf8internal26fixed_address_empty_stringE to %"class.std::__1::basic_string"*)
  br i1 %68, label %69, label %70

69:                                               ; preds = %64
  tail call void @_ZN6google8protobuf8internal14ArenaStringPtr14CreateInstanceEPNS0_5ArenaEPKNSt3__112basic_stringIcNS5_11char_traitsIcEENS5_9allocatorIcEEEE(%"struct.google::protobuf::internal::ArenaStringPtr"* %52, %"class.google::protobuf::Arena"* %65, %"class.std::__1::basic_string"* %48) #13
  br label %101

70:                                               ; preds = %64
  %71 = icmp eq %"class.std::__1::basic_string"* %67, %48
  br i1 %71, label %101, label %72

72:                                               ; preds = %70
  %73 = bitcast %"class.std::__1::basic_string"* %67 to %"struct.std::__1::basic_string<char, std::__1::char_traits<char>, std::__1::allocator<char> >::__short"*
  %74 = getelementptr inbounds %"struct.std::__1::basic_string<char, std::__1::char_traits<char>, std::__1::allocator<char> >::__short", %"struct.std::__1::basic_string<char, std::__1::char_traits<char>, std::__1::allocator<char> >::__short"* %73, i64 0, i32 1, i32 0
  %75 = load i8, i8* %74, align 1
  %76 = icmp slt i8 %75, 0
  %77 = bitcast %"class.std::__1::basic_string"* %48 to %"struct.std::__1::basic_string<char, std::__1::char_traits<char>, std::__1::allocator<char> >::__short"*
  %78 = getelementptr inbounds %"struct.std::__1::basic_string<char, std::__1::char_traits<char>, std::__1::allocator<char> >::__short", %"struct.std::__1::basic_string<char, std::__1::char_traits<char>, std::__1::allocator<char> >::__short"* %77, i64 0, i32 1, i32 0
  %79 = load i8, i8* %78, align 1
  %80 = icmp slt i8 %79, 0
  br i1 %76, label %91, label %81

81:                                               ; preds = %72
  br i1 %80, label %85, label %82

82:                                               ; preds = %81
  %83 = bitcast %"class.std::__1::basic_string"* %67 to i8*
  %84 = bitcast %"class.std::__1::basic_string"* %48 to i8*
  tail call void @llvm.memcpy.p0i8.p0i8.i64(i8* align 8 %83, i8* align 8 %84, i64 24, i1 false) #13
  br label %101

85:                                               ; preds = %81
  %86 = getelementptr inbounds %"class.std::__1::basic_string", %"class.std::__1::basic_string"* %48, i64 0, i32 0, i32 0, i32 0, i32 0, i32 0, i32 0
  %87 = load i8*, i8** %86, align 8
  %88 = getelementptr inbounds %"class.std::__1::basic_string", %"class.std::__1::basic_string"* %48, i64 0, i32 0, i32 0, i32 0, i32 0, i32 0, i32 1
  %89 = load i64, i64* %88, align 8
  %90 = tail call dereferenceable(24) %"class.std::__1::basic_string"* @_ZNSt3__112basic_stringIcNS_11char_traitsIcEENS_9allocatorIcEEE17__assign_no_aliasILb1EEERS5_PKcm(%"class.std::__1::basic_string"* %67, i8* %87, i64 %89) #13
  br label %101

91:                                               ; preds = %72
  %92 = getelementptr inbounds %"class.std::__1::basic_string", %"class.std::__1::basic_string"* %48, i64 0, i32 0, i32 0, i32 0, i32 0, i32 0, i32 0
  %93 = load i8*, i8** %92, align 8
  %94 = getelementptr inbounds %"class.std::__1::basic_string", %"class.std::__1::basic_string"* %48, i64 0, i32 0, i32 0, i32 0, i32 0, i32 0, i32 1
  %95 = load i64, i64* %94, align 8
  %96 = bitcast %"class.std::__1::basic_string"* %48 to i8*
  %97 = zext i8 %79 to i64
  %98 = select i1 %80, i8* %93, i8* %96
  %99 = select i1 %80, i64 %95, i64 %97
  %100 = tail call dereferenceable(24) %"class.std::__1::basic_string"* @_ZNSt3__112basic_stringIcNS_11char_traitsIcEENS_9allocatorIcEEE17__assign_no_aliasILb0EEERS5_PKcm(%"class.std::__1::basic_string"* %67, i8* %98, i64 %99) #13
  br label %101

101:                                              ; preds = %91, %85, %82, %70, %69, %43
  %102 = and i32 %40, 2
  %103 = icmp eq i32 %102, 0
  br i1 %103, label %159, label %104

104:                                              ; preds = %101
  %105 = getelementptr inbounds %"class.perfetto::protos::PerfEvents_Tracepoint", %"class.perfetto::protos::PerfEvents_Tracepoint"* %1, i64 0, i32 4, i32 0
  %106 = load %"class.std::__1::basic_string"*, %"class.std::__1::basic_string"** %105, align 8
  %107 = getelementptr inbounds %"class.perfetto::protos::PerfEvents_Tracepoint", %"class.perfetto::protos::PerfEvents_Tracepoint"* %0, i64 0, i32 1, i32 0, i64 0
  %108 = load i32, i32* %107, align 4
  %109 = or i32 %108, 2
  store i32 %109, i32* %107, align 4
  %110 = getelementptr inbounds %"class.perfetto::protos::PerfEvents_Tracepoint", %"class.perfetto::protos::PerfEvents_Tracepoint"* %0, i64 0, i32 4
  %111 = bitcast %"class.google::protobuf::internal::InternalMetadata"* %3 to i64*
  %112 = load i64, i64* %111, align 8
  %113 = and i64 %112, 1
  %114 = icmp eq i64 %113, 0
  %115 = and i64 %112, -2
  br i1 %114, label %120, label %116, !prof !2

116:                                              ; preds = %104
  %117 = inttoptr i64 %115 to %"struct.google::protobuf::internal::InternalMetadata::ContainerBase"*
  %118 = getelementptr inbounds %"struct.google::protobuf::internal::InternalMetadata::ContainerBase", %"struct.google::protobuf::internal::InternalMetadata::ContainerBase"* %117, i64 0, i32 0
  %119 = load %"class.google::protobuf::Arena"*, %"class.google::protobuf::Arena"** %118, align 8
  br label %122

120:                                              ; preds = %104
  %121 = inttoptr i64 %115 to %"class.google::protobuf::Arena"*
  br label %122

122:                                              ; preds = %120, %116
  %123 = phi %"class.google::protobuf::Arena"* [ %119, %116 ], [ %121, %120 ]
  %124 = getelementptr inbounds %"struct.google::protobuf::internal::ArenaStringPtr", %"struct.google::protobuf::internal::ArenaStringPtr"* %110, i64 0, i32 0
  %125 = load %"class.std::__1::basic_string"*, %"class.std::__1::basic_string"** %124, align 8
  %126 = icmp eq %"class.std::__1::basic_string"* %125, bitcast (%"class.google::protobuf::internal::ExplicitlyConstructed.5"* @_ZN6google8protobuf8internal26fixed_address_empty_stringE to %"class.std::__1::basic_string"*)
  br i1 %126, label %127, label %128

127:                                              ; preds = %122
  tail call void @_ZN6google8protobuf8internal14ArenaStringPtr14CreateInstanceEPNS0_5ArenaEPKNSt3__112basic_stringIcNS5_11char_traitsIcEENS5_9allocatorIcEEEE(%"struct.google::protobuf::internal::ArenaStringPtr"* %110, %"class.google::protobuf::Arena"* %123, %"class.std::__1::basic_string"* %106) #13
  br label %159

128:                                              ; preds = %122
  %129 = icmp eq %"class.std::__1::basic_string"* %125, %106
  br i1 %129, label %159, label %130

130:                                              ; preds = %128
  %131 = bitcast %"class.std::__1::basic_string"* %125 to %"struct.std::__1::basic_string<char, std::__1::char_traits<char>, std::__1::allocator<char> >::__short"*
  %132 = getelementptr inbounds %"struct.std::__1::basic_string<char, std::__1::char_traits<char>, std::__1::allocator<char> >::__short", %"struct.std::__1::basic_string<char, std::__1::char_traits<char>, std::__1::allocator<char> >::__short"* %131, i64 0, i32 1, i32 0
  %133 = load i8, i8* %132, align 1
  %134 = icmp slt i8 %133, 0
  %135 = bitcast %"class.std::__1::basic_string"* %106 to %"struct.std::__1::basic_string<char, std::__1::char_traits<char>, std::__1::allocator<char> >::__short"*
  %136 = getelementptr inbounds %"struct.std::__1::basic_string<char, std::__1::char_traits<char>, std::__1::allocator<char> >::__short", %"struct.std::__1::basic_string<char, std::__1::char_traits<char>, std::__1::allocator<char> >::__short"* %135, i64 0, i32 1, i32 0
  %137 = load i8, i8* %136, align 1
  %138 = icmp slt i8 %137, 0
  br i1 %134, label %149, label %139

139:                                              ; preds = %130
  br i1 %138, label %143, label %140

140:                                              ; preds = %139
  %141 = bitcast %"class.std::__1::basic_string"* %125 to i8*
  %142 = bitcast %"class.std::__1::basic_string"* %106 to i8*
  tail call void @llvm.memcpy.p0i8.p0i8.i64(i8* align 8 %141, i8* align 8 %142, i64 24, i1 false) #13
  br label %159

143:                                              ; preds = %139
  %144 = getelementptr inbounds %"class.std::__1::basic_string", %"class.std::__1::basic_string"* %106, i64 0, i32 0, i32 0, i32 0, i32 0, i32 0, i32 0
  %145 = load i8*, i8** %144, align 8
  %146 = getelementptr inbounds %"class.std::__1::basic_string", %"class.std::__1::basic_string"* %106, i64 0, i32 0, i32 0, i32 0, i32 0, i32 0, i32 1
  %147 = load i64, i64* %146, align 8
  %148 = tail call dereferenceable(24) %"class.std::__1::basic_string"* @_ZNSt3__112basic_stringIcNS_11char_traitsIcEENS_9allocatorIcEEE17__assign_no_aliasILb1EEERS5_PKcm(%"class.std::__1::basic_string"* %125, i8* %145, i64 %147) #13
  br label %159

149:                                              ; preds = %130
  %150 = getelementptr inbounds %"class.std::__1::basic_string", %"class.std::__1::basic_string"* %106, i64 0, i32 0, i32 0, i32 0, i32 0, i32 0, i32 0
  %151 = load i8*, i8** %150, align 8
  %152 = getelementptr inbounds %"class.std::__1::basic_string", %"class.std::__1::basic_string"* %106, i64 0, i32 0, i32 0, i32 0, i32 0, i32 0, i32 1
  %153 = load i64, i64* %152, align 8
  %154 = bitcast %"class.std::__1::basic_string"* %106 to i8*
  %155 = zext i8 %137 to i64
  %156 = select i1 %138, i8* %151, i8* %154
  %157 = select i1 %138, i64 %153, i64 %155
  %158 = tail call dereferenceable(24) %"class.std::__1::basic_string"* @_ZNSt3__112basic_stringIcNS_11char_traitsIcEENS_9allocatorIcEEE17__assign_no_aliasILb0EEERS5_PKcm(%"class.std::__1::basic_string"* %125, i8* %156, i64 %157) #13
  br label %159

159:                                              ; preds = %149, %143, %140, %128, %127, %101, %38
  ret void
}

; Function Attrs: nounwind ssp uwtable
define hidden void @_ZN8perfetto6protos19PerfEvents_TimebaseD2Ev(%"class.perfetto::protos::PerfEvents_Timebase"* nocapture) unnamed_addr #0 align 2 {
  %2 = getelementptr inbounds %"class.perfetto::protos::PerfEvents_Timebase", %"class.perfetto::protos::PerfEvents_Timebase"* %0, i64 0, i32 0, i32 0
  store i32 (...)** bitcast (i8** getelementptr inbounds ({ [16 x i8*] }, { [16 x i8*] }* @_ZTVN8perfetto6protos19PerfEvents_TimebaseE, i64 0, inrange i32 0, i64 2) to i32 (...)**), i32 (...)*** %2, align 8
  %3 = getelementptr inbounds %"class.perfetto::protos::PerfEvents_Timebase", %"class.perfetto::protos::PerfEvents_Timebase"* %0, i64 0, i32 4, i64 0
  %4 = load i32, i32* %3, align 4
  %5 = icmp eq i32 %4, 0
  br i1 %5, label %7, label %6

6:                                                ; preds = %1
  store i32 0, i32* %3, align 4
  br label %7

7:                                                ; preds = %6, %1
  %8 = getelementptr inbounds %"class.perfetto::protos::PerfEvents_Timebase", %"class.perfetto::protos::PerfEvents_Timebase"* %0, i64 0, i32 4, i64 1
  %9 = load i32, i32* %8, align 4
  switch i32 %9, label %35 [
    i32 0, label %36
    i32 3, label %10
  ]

10:                                               ; preds = %7
  %11 = getelementptr inbounds %"class.perfetto::protos::PerfEvents_Timebase", %"class.perfetto::protos::PerfEvents_Timebase"* %0, i64 0, i32 0, i32 1
  %12 = bitcast %"class.google::protobuf::internal::InternalMetadata"* %11 to i64*
  %13 = load i64, i64* %12, align 8
  %14 = and i64 %13, 1
  %15 = icmp eq i64 %14, 0
  %16 = and i64 %13, -2
  br i1 %15, label %21, label %17, !prof !2

17:                                               ; preds = %10
  %18 = inttoptr i64 %16 to %"struct.google::protobuf::internal::InternalMetadata::ContainerBase"*
  %19 = getelementptr inbounds %"struct.google::protobuf::internal::InternalMetadata::ContainerBase", %"struct.google::protobuf::internal::InternalMetadata::ContainerBase"* %18, i64 0, i32 0
  %20 = load %"class.google::protobuf::Arena"*, %"class.google::protobuf::Arena"** %19, align 8
  br label %23

21:                                               ; preds = %10
  %22 = inttoptr i64 %16 to %"class.google::protobuf::Arena"*
  br label %23

23:                                               ; preds = %21, %17
  %24 = phi %"class.google::protobuf::Arena"* [ %20, %17 ], [ %22, %21 ]
  %25 = icmp eq %"class.google::protobuf::Arena"* %24, null
  br i1 %25, label %26, label %35

26:                                               ; preds = %23
  %27 = getelementptr inbounds %"class.perfetto::protos::PerfEvents_Timebase", %"class.perfetto::protos::PerfEvents_Timebase"* %0, i64 0, i32 2, i32 0
  %28 = load %"class.perfetto::protos::PerfEvents_Tracepoint"*, %"class.perfetto::protos::PerfEvents_Tracepoint"** %27, align 8
  %29 = icmp eq %"class.perfetto::protos::PerfEvents_Tracepoint"* %28, null
  br i1 %29, label %35, label %30

30:                                               ; preds = %26
  %31 = bitcast %"class.perfetto::protos::PerfEvents_Tracepoint"* %28 to void (%"class.perfetto::protos::PerfEvents_Tracepoint"*)***
  %32 = load void (%"class.perfetto::protos::PerfEvents_Tracepoint"*)**, void (%"class.perfetto::protos::PerfEvents_Tracepoint"*)*** %31, align 8
  %33 = getelementptr inbounds void (%"class.perfetto::protos::PerfEvents_Tracepoint"*)*, void (%"class.perfetto::protos::PerfEvents_Tracepoint"*)** %32, i64 1
  %34 = load void (%"class.perfetto::protos::PerfEvents_Tracepoint"*)*, void (%"class.perfetto::protos::PerfEvents_Tracepoint"*)** %33, align 8
  tail call void %34(%"class.perfetto::protos::PerfEvents_Tracepoint"* nonnull %28) #13
  br label %35

35:                                               ; preds = %30, %26, %23, %7
  store i32 0, i32* %8, align 4
  br label %36

36:                                               ; preds = %7, %35
  %37 = getelementptr inbounds %"class.perfetto::protos::PerfEvents_Timebase", %"class.perfetto::protos::PerfEvents_Timebase"* %0, i64 0, i32 0, i32 1
  %38 = bitcast %"class.google::protobuf::internal::InternalMetadata"* %37 to i64*
  %39 = load i64, i64* %38, align 8
  %40 = and i64 %39, 1
  %41 = icmp eq i64 %40, 0
  br i1 %41, label %62, label %42

42:                                               ; preds = %36
  %43 = and i64 %39, -2
  %44 = inttoptr i64 %43 to %"struct.google::protobuf::internal::InternalMetadata::ContainerBase"*
  %45 = getelementptr inbounds %"struct.google::protobuf::internal::InternalMetadata::ContainerBase", %"struct.google::protobuf::internal::InternalMetadata::ContainerBase"* %44, i64 0, i32 0
  %46 = load %"class.google::protobuf::Arena"*, %"class.google::protobuf::Arena"** %45, align 8
  %47 = icmp ne %"class.google::protobuf::Arena"* %46, null
  %48 = icmp eq i64 %43, 0
  %49 = or i1 %48, %47
  br i1 %49, label %62, label %50

50:                                               ; preds = %42
  %51 = inttoptr i64 %43 to %"struct.google::protobuf::internal::InternalMetadata::Container"*
  %52 = getelementptr inbounds %"struct.google::protobuf::internal::InternalMetadata::Container", %"struct.google::protobuf::internal::InternalMetadata::Container"* %51, i64 0, i32 1
  %53 = bitcast %"class.std::__1::basic_string"* %52 to %"struct.std::__1::basic_string<char, std::__1::char_traits<char>, std::__1::allocator<char> >::__short"*
  %54 = getelementptr inbounds %"struct.std::__1::basic_string<char, std::__1::char_traits<char>, std::__1::allocator<char> >::__short", %"struct.std::__1::basic_string<char, std::__1::char_traits<char>, std::__1::allocator<char> >::__short"* %53, i64 0, i32 1, i32 0
  %55 = load i8, i8* %54, align 1
  %56 = icmp slt i8 %55, 0
  br i1 %56, label %57, label %60

57:                                               ; preds = %50
  %58 = getelementptr inbounds %"class.std::__1::basic_string", %"class.std::__1::basic_string"* %52, i64 0, i32 0, i32 0, i32 0, i32 0, i32 0, i32 0
  %59 = load i8*, i8** %58, align 8
  tail call void @_ZdlPv(i8* %59) #14
  br label %60

60:                                               ; preds = %57, %50
  %61 = inttoptr i64 %43 to i8*
  tail call void @_ZdlPv(i8* %61) #14
  br label %62

62:                                               ; preds = %36, %42, %60
  ret void
}

; Function Attrs: nounwind ssp uwtable
define hidden void @_ZN8perfetto6protos19PerfEvents_TimebaseD0Ev(%"class.perfetto::protos::PerfEvents_Timebase"*) unnamed_addr #0 align 2 {
  tail call void @_ZN8perfetto6protos19PerfEvents_TimebaseD2Ev(%"class.perfetto::protos::PerfEvents_Timebase"* %0) #13
  %2 = bitcast %"class.perfetto::protos::PerfEvents_Timebase"* %0 to i8*
  tail call void @_ZdlPv(i8* %2) #14
  ret void
}

; Function Attrs: nobuiltin nounwind
declare void @_ZdlPv(i8*) local_unnamed_addr #6

; Function Attrs: norecurse nounwind readnone ssp uwtable
define hidden void @_ZN8perfetto6protos19PerfEvents_Timebase9ArenaDtorEPv(i8* nocapture) local_unnamed_addr #1 align 2 {
  ret void
}

; Function Attrs: nofree norecurse nounwind ssp uwtable
define hidden void @_ZNK8perfetto6protos19PerfEvents_Timebase13SetCachedSizeEi(%"class.perfetto::protos::PerfEvents_Timebase"* nocapture, i32) local_unnamed_addr #7 align 2 {
  %3 = getelementptr inbounds %"class.perfetto::protos::PerfEvents_Timebase", %"class.perfetto::protos::PerfEvents_Timebase"* %0, i64 0, i32 3, i32 0, i32 0, i32 0, i32 0, i32 0, i32 0
  store atomic i32 %1, i32* %3 monotonic, align 4
  ret void
}

; Function Attrs: nounwind ssp uwtable
define hidden dereferenceable(48) %"class.perfetto::protos::PerfEvents_Timebase"* @_ZN8perfetto6protos19PerfEvents_Timebase16default_instanceEv() local_unnamed_addr #0 align 2 {
  %1 = load atomic i32, i32* getelementptr inbounds ({ { { { i32 } }, i32, i32, void ()* }, [1 x i8*] }, { { { { i32 } }, i32, i32, void ()* }, [1 x i8*] }* @scc_info_PerfEvents_Timebase_protos_2fperfetto_2fcommon_2fperf_5fevents_2eproto, i64 0, i32 0, i32 0, i32 0, i32 0) acquire, align 8
  %2 = icmp eq i32 %1, 0
  br i1 %2, label %4, label %3, !prof !2

3:                                                ; preds = %0
  tail call void @_ZN6google8protobuf8internal11InitSCCImplEPNS1_11SCCInfoBaseE(%"struct.google::protobuf::internal::SCCInfoBase"* bitcast ({ { { { i32 } }, i32, i32, void ()* }, [1 x i8*] }* @scc_info_PerfEvents_Timebase_protos_2fperfetto_2fcommon_2fperf_5fevents_2eproto to %"struct.google::protobuf::internal::SCCInfoBase"*)) #13
  br label %4

4:                                                ; preds = %0, %3
  ret %"class.perfetto::protos::PerfEvents_Timebase"* bitcast (%"class.perfetto::protos::PerfEvents_TimebaseDefaultTypeInternal"* @_ZN8perfetto6protos38_PerfEvents_Timebase_default_instance_E to %"class.perfetto::protos::PerfEvents_Timebase"*)
}

; Function Attrs: nofree norecurse nounwind ssp uwtable
define hidden void @_ZN8perfetto6protos19PerfEvents_Timebase14clear_intervalEv(%"class.perfetto::protos::PerfEvents_Timebase"* nocapture) local_unnamed_addr #7 align 2 {
  %2 = getelementptr inbounds %"class.perfetto::protos::PerfEvents_Timebase", %"class.perfetto::protos::PerfEvents_Timebase"* %0, i64 0, i32 4, i64 0
  store i32 0, i32* %2, align 4
  ret void
}

; Function Attrs: nounwind ssp uwtable
define hidden void @_ZN8perfetto6protos19PerfEvents_Timebase5ClearEv(%"class.perfetto::protos::PerfEvents_Timebase"* nocapture) unnamed_addr #0 align 2 {
  %2 = getelementptr inbounds %"class.perfetto::protos::PerfEvents_Timebase", %"class.perfetto::protos::PerfEvents_Timebase"* %0, i64 0, i32 4, i64 0
  store i32 0, i32* %2, align 4
  %3 = getelementptr inbounds %"class.perfetto::protos::PerfEvents_Timebase", %"class.perfetto::protos::PerfEvents_Timebase"* %0, i64 0, i32 4, i64 1
  %4 = load i32, i32* %3, align 4
  %5 = icmp eq i32 %4, 3
  br i1 %5, label %6, label %31

6:                                                ; preds = %1
  %7 = getelementptr inbounds %"class.perfetto::protos::PerfEvents_Timebase", %"class.perfetto::protos::PerfEvents_Timebase"* %0, i64 0, i32 0, i32 1
  %8 = bitcast %"class.google::protobuf::internal::InternalMetadata"* %7 to i64*
  %9 = load i64, i64* %8, align 8
  %10 = and i64 %9, 1
  %11 = icmp eq i64 %10, 0
  %12 = and i64 %9, -2
  br i1 %11, label %17, label %13, !prof !2

13:                                               ; preds = %6
  %14 = inttoptr i64 %12 to %"struct.google::protobuf::internal::InternalMetadata::ContainerBase"*
  %15 = getelementptr inbounds %"struct.google::protobuf::internal::InternalMetadata::ContainerBase", %"struct.google::protobuf::internal::InternalMetadata::ContainerBase"* %14, i64 0, i32 0
  %16 = load %"class.google::protobuf::Arena"*, %"class.google::protobuf::Arena"** %15, align 8
  br label %19

17:                                               ; preds = %6
  %18 = inttoptr i64 %12 to %"class.google::protobuf::Arena"*
  br label %19

19:                                               ; preds = %17, %13
  %20 = phi %"class.google::protobuf::Arena"* [ %16, %13 ], [ %18, %17 ]
  %21 = icmp eq %"class.google::protobuf::Arena"* %20, null
  br i1 %21, label %22, label %31

22:                                               ; preds = %19
  %23 = getelementptr inbounds %"class.perfetto::protos::PerfEvents_Timebase", %"class.perfetto::protos::PerfEvents_Timebase"* %0, i64 0, i32 2, i32 0
  %24 = load %"class.perfetto::protos::PerfEvents_Tracepoint"*, %"class.perfetto::protos::PerfEvents_Tracepoint"** %23, align 8
  %25 = icmp eq %"class.perfetto::protos::PerfEvents_Tracepoint"* %24, null
  br i1 %25, label %31, label %26

26:                                               ; preds = %22
  %27 = bitcast %"class.perfetto::protos::PerfEvents_Tracepoint"* %24 to void (%"class.perfetto::protos::PerfEvents_Tracepoint"*)***
  %28 = load void (%"class.perfetto::protos::PerfEvents_Tracepoint"*)**, void (%"class.perfetto::protos::PerfEvents_Tracepoint"*)*** %27, align 8
  %29 = getelementptr inbounds void (%"class.perfetto::protos::PerfEvents_Tracepoint"*)*, void (%"class.perfetto::protos::PerfEvents_Tracepoint"*)** %28, i64 1
  %30 = load void (%"class.perfetto::protos::PerfEvents_Tracepoint"*)*, void (%"class.perfetto::protos::PerfEvents_Tracepoint"*)** %29, align 8
  tail call void %30(%"class.perfetto::protos::PerfEvents_Tracepoint"* nonnull %24) #13
  br label %31

31:                                               ; preds = %1, %19, %22, %26
  store i32 0, i32* %3, align 4
  %32 = getelementptr inbounds %"class.perfetto::protos::PerfEvents_Timebase", %"class.perfetto::protos::PerfEvents_Timebase"* %0, i64 0, i32 0, i32 1
  %33 = bitcast %"class.google::protobuf::internal::InternalMetadata"* %32 to i64*
  %34 = load i64, i64* %33, align 8
  %35 = and i64 %34, 1
  %36 = icmp eq i64 %35, 0
  br i1 %36, label %51, label %37

37:                                               ; preds = %31
  %38 = and i64 %34, -2
  %39 = inttoptr i64 %38 to %"struct.google::protobuf::internal::InternalMetadata::Container"*
  %40 = getelementptr inbounds %"struct.google::protobuf::internal::InternalMetadata::Container", %"struct.google::protobuf::internal::InternalMetadata::Container"* %39, i64 0, i32 1
  %41 = bitcast %"class.std::__1::basic_string"* %40 to %"struct.std::__1::basic_string<char, std::__1::char_traits<char>, std::__1::allocator<char> >::__short"*
  %42 = getelementptr inbounds %"struct.std::__1::basic_string<char, std::__1::char_traits<char>, std::__1::allocator<char> >::__short", %"struct.std::__1::basic_string<char, std::__1::char_traits<char>, std::__1::allocator<char> >::__short"* %41, i64 0, i32 1, i32 0
  %43 = load i8, i8* %42, align 1
  %44 = icmp slt i8 %43, 0
  br i1 %44, label %45, label %49

45:                                               ; preds = %37
  %46 = getelementptr inbounds %"class.std::__1::basic_string", %"class.std::__1::basic_string"* %40, i64 0, i32 0, i32 0, i32 0, i32 0, i32 0, i32 0
  %47 = load i8*, i8** %46, align 8
  store i8 0, i8* %47, align 1
  %48 = getelementptr inbounds %"struct.google::protobuf::internal::InternalMetadata::Container", %"struct.google::protobuf::internal::InternalMetadata::Container"* %39, i64 0, i32 1, i32 0, i32 0, i32 0, i32 0, i32 0, i32 1
  store i64 0, i64* %48, align 8
  br label %51

49:                                               ; preds = %37
  %50 = bitcast %"class.std::__1::basic_string"* %40 to i8*
  store i8 0, i8* %50, align 2
  store i8 0, i8* %42, align 1
  br label %51

51:                                               ; preds = %31, %45, %49
  ret void
}

; Function Attrs: nounwind ssp uwtable
define hidden i8* @_ZN8perfetto6protos19PerfEvents_Timebase14_InternalParseEPKcPN6google8protobuf8internal12ParseContextE(%"class.perfetto::protos::PerfEvents_Timebase"*, i8*, %"class.google::protobuf::internal::ParseContext"*) unnamed_addr #0 align 2 {
  %4 = getelementptr inbounds %"class.google::protobuf::internal::ParseContext", %"class.google::protobuf::internal::ParseContext"* %2, i64 0, i32 0
  %5 = getelementptr inbounds %"class.google::protobuf::internal::ParseContext", %"class.google::protobuf::internal::ParseContext"* %2, i64 0, i32 2
  %6 = getelementptr inbounds %"class.google::protobuf::internal::ParseContext", %"class.google::protobuf::internal::ParseContext"* %2, i64 0, i32 0, i32 0
  %7 = getelementptr inbounds %"class.google::protobuf::internal::ParseContext", %"class.google::protobuf::internal::ParseContext"* %2, i64 0, i32 0, i32 1
  %8 = bitcast i8** %7 to i64*
  %9 = getelementptr inbounds %"class.google::protobuf::internal::ParseContext", %"class.google::protobuf::internal::ParseContext"* %2, i64 0, i32 0, i32 4
  %10 = getelementptr inbounds %"class.perfetto::protos::PerfEvents_Timebase", %"class.perfetto::protos::PerfEvents_Timebase"* %0, i64 0, i32 4, i64 1
  %11 = getelementptr inbounds %"class.perfetto::protos::PerfEvents_Timebase", %"class.perfetto::protos::PerfEvents_Timebase"* %0, i64 0, i32 0, i32 1
  %12 = bitcast %"class.google::protobuf::internal::InternalMetadata"* %11 to i64*
  %13 = getelementptr inbounds %"class.perfetto::protos::PerfEvents_Timebase", %"class.perfetto::protos::PerfEvents_Timebase"* %0, i64 0, i32 2, i32 0
  %14 = getelementptr inbounds %"class.perfetto::protos::PerfEvents_Timebase", %"class.perfetto::protos::PerfEvents_Timebase"* %0, i64 0, i32 2
  %15 = bitcast %"union.perfetto::protos::PerfEvents_Timebase::EventUnion"* %14 to i32*
  %16 = getelementptr inbounds %"class.perfetto::protos::PerfEvents_Timebase", %"class.perfetto::protos::PerfEvents_Timebase"* %0, i64 0, i32 4, i64 0
  %17 = getelementptr inbounds %"class.perfetto::protos::PerfEvents_Timebase", %"class.perfetto::protos::PerfEvents_Timebase"* %0, i64 0, i32 1, i32 0
  br label %18

18:                                               ; preds = %244, %3
  %19 = phi i8* [ %1, %3 ], [ %245, %244 ]
  %20 = load i32, i32* %5, align 4
  %21 = load i8*, i8** %6, align 8
  %22 = icmp ult i8* %19, %21
  br i1 %22, label %36, label %23, !prof !2

23:                                               ; preds = %18
  %24 = load i64, i64* %8, align 8
  %25 = ptrtoint i8* %19 to i64
  %26 = sub i64 %25, %24
  %27 = load i32, i32* %9, align 4
  %28 = sext i32 %27 to i64
  %29 = icmp eq i64 %26, %28
  br i1 %29, label %246, label %30

30:                                               ; preds = %23
  %31 = tail call { i8*, i8 } @_ZN6google8protobuf8internal18EpsCopyInputStream12DoneFallbackEPKci(%"class.google::protobuf::internal::EpsCopyInputStream"* %4, i8* %19, i32 %20) #13
  %32 = extractvalue { i8*, i8 } %31, 0
  %33 = extractvalue { i8*, i8 } %31, 1
  %34 = and i8 %33, 1
  %35 = icmp eq i8 %34, 0
  br i1 %35, label %36, label %246

36:                                               ; preds = %30, %18
  %37 = phi i8* [ %32, %30 ], [ %19, %18 ]
  %38 = load i8, i8* %37, align 1
  %39 = zext i8 %38 to i32
  %40 = icmp sgt i8 %38, -1
  %41 = getelementptr inbounds i8, i8* %37, i64 1
  br i1 %40, label %55, label %42

42:                                               ; preds = %36
  %43 = load i8, i8* %41, align 1
  %44 = zext i8 %43 to i32
  %45 = shl nuw nsw i32 %44, 7
  %46 = add nsw i32 %39, -128
  %47 = add nsw i32 %46, %45
  %48 = icmp sgt i8 %43, -1
  br i1 %48, label %49, label %51

49:                                               ; preds = %42
  %50 = getelementptr inbounds i8, i8* %37, i64 2
  br label %55

51:                                               ; preds = %42
  %52 = tail call { i8*, i32 } @_ZN6google8protobuf8internal15ReadTagFallbackEPKcj(i8* %37, i32 %47) #13
  %53 = extractvalue { i8*, i32 } %52, 0
  %54 = extractvalue { i8*, i32 } %52, 1
  br label %55

55:                                               ; preds = %36, %49, %51
  %56 = phi i32 [ %47, %49 ], [ %54, %51 ], [ %39, %36 ]
  %57 = phi i8* [ %50, %49 ], [ %53, %51 ], [ %41, %36 ]
  %58 = icmp eq i8* %57, null
  br i1 %58, label %246, label %59, !prof !4

59:                                               ; preds = %55
  %60 = lshr i32 %56, 3
  switch i32 %60, label %222 [
    i32 1, label %61
    i32 2, label %94
    i32 3, label %127
    i32 4, label %153
  ]

61:                                               ; preds = %59
  %62 = and i32 %56, 255
  %63 = icmp eq i32 %62, 8
  br i1 %63, label %64, label %222, !prof !2

64:                                               ; preds = %61
  %65 = load i8, i8* %57, align 1
  %66 = icmp slt i8 %65, 0
  br i1 %66, label %70, label %67

67:                                               ; preds = %64
  %68 = zext i8 %65 to i64
  %69 = getelementptr inbounds i8, i8* %57, i64 1
  br label %86

70:                                               ; preds = %64
  %71 = zext i8 %65 to i32
  %72 = getelementptr inbounds i8, i8* %57, i64 1
  %73 = load i8, i8* %72, align 1
  %74 = zext i8 %73 to i32
  %75 = shl nuw nsw i32 %74, 7
  %76 = add nsw i32 %71, -128
  %77 = add nuw nsw i32 %76, %75
  %78 = icmp slt i8 %73, 0
  br i1 %78, label %82, label %79

79:                                               ; preds = %70
  %80 = zext i32 %77 to i64
  %81 = getelementptr inbounds i8, i8* %57, i64 2
  br label %86

82:                                               ; preds = %70
  %83 = tail call { i8*, i64 } @_ZN6google8protobuf8internal17VarintParseSlow64EPKcj(i8* nonnull %57, i32 %77) #13
  %84 = extractvalue { i8*, i64 } %83, 0
  %85 = extractvalue { i8*, i64 } %83, 1
  br label %86

86:                                               ; preds = %67, %79, %82
  %87 = phi i64 [ %85, %82 ], [ %80, %79 ], [ %68, %67 ]
  %88 = phi i8* [ %84, %82 ], [ %81, %79 ], [ %69, %67 ]
  %89 = load i32, i32* %16, align 4
  %90 = icmp eq i32 %89, 1
  br i1 %90, label %92, label %91

91:                                               ; preds = %86
  store i32 1, i32* %16, align 4
  br label %92

92:                                               ; preds = %86, %91
  store i64 %87, i64* %17, align 8
  %93 = icmp eq i8* %88, null
  br i1 %93, label %246, label %244

94:                                               ; preds = %59
  %95 = and i32 %56, 255
  %96 = icmp eq i32 %95, 16
  br i1 %96, label %97, label %222, !prof !2

97:                                               ; preds = %94
  %98 = load i8, i8* %57, align 1
  %99 = icmp slt i8 %98, 0
  br i1 %99, label %103, label %100

100:                                              ; preds = %97
  %101 = zext i8 %98 to i64
  %102 = getelementptr inbounds i8, i8* %57, i64 1
  br label %119

103:                                              ; preds = %97
  %104 = zext i8 %98 to i32
  %105 = getelementptr inbounds i8, i8* %57, i64 1
  %106 = load i8, i8* %105, align 1
  %107 = zext i8 %106 to i32
  %108 = shl nuw nsw i32 %107, 7
  %109 = add nsw i32 %104, -128
  %110 = add nuw nsw i32 %109, %108
  %111 = icmp slt i8 %106, 0
  br i1 %111, label %115, label %112

112:                                              ; preds = %103
  %113 = zext i32 %110 to i64
  %114 = getelementptr inbounds i8, i8* %57, i64 2
  br label %119

115:                                              ; preds = %103
  %116 = tail call { i8*, i64 } @_ZN6google8protobuf8internal17VarintParseSlow64EPKcj(i8* nonnull %57, i32 %110) #13
  %117 = extractvalue { i8*, i64 } %116, 0
  %118 = extractvalue { i8*, i64 } %116, 1
  br label %119

119:                                              ; preds = %100, %112, %115
  %120 = phi i64 [ %118, %115 ], [ %113, %112 ], [ %101, %100 ]
  %121 = phi i8* [ %117, %115 ], [ %114, %112 ], [ %102, %100 ]
  %122 = load i32, i32* %16, align 4
  %123 = icmp eq i32 %122, 2
  br i1 %123, label %125, label %124

124:                                              ; preds = %119
  store i32 2, i32* %16, align 4
  br label %125

125:                                              ; preds = %119, %124
  store i64 %120, i64* %17, align 8
  %126 = icmp eq i8* %121, null
  br i1 %126, label %246, label %244

127:                                              ; preds = %59
  %128 = and i32 %56, 255
  %129 = icmp eq i32 %128, 26
  br i1 %129, label %130, label %222, !prof !2

130:                                              ; preds = %127
  %131 = load i32, i32* %10, align 4
  %132 = icmp eq i32 %131, 3
  br i1 %132, label %133, label %135

133:                                              ; preds = %130
  %134 = load %"class.perfetto::protos::PerfEvents_Tracepoint"*, %"class.perfetto::protos::PerfEvents_Tracepoint"** %13, align 8
  br label %149

135:                                              ; preds = %130
  store i32 3, i32* %10, align 4
  %136 = load i64, i64* %12, align 8
  %137 = and i64 %136, 1
  %138 = icmp eq i64 %137, 0
  %139 = and i64 %136, -2
  br i1 %138, label %144, label %140, !prof !2

140:                                              ; preds = %135
  %141 = inttoptr i64 %139 to %"struct.google::protobuf::internal::InternalMetadata::ContainerBase"*
  %142 = getelementptr inbounds %"struct.google::protobuf::internal::InternalMetadata::ContainerBase", %"struct.google::protobuf::internal::InternalMetadata::ContainerBase"* %141, i64 0, i32 0
  %143 = load %"class.google::protobuf::Arena"*, %"class.google::protobuf::Arena"** %142, align 8
  br label %146

144:                                              ; preds = %135
  %145 = inttoptr i64 %139 to %"class.google::protobuf::Arena"*
  br label %146

146:                                              ; preds = %144, %140
  %147 = phi %"class.google::protobuf::Arena"* [ %143, %140 ], [ %145, %144 ]
  %148 = tail call %"class.perfetto::protos::PerfEvents_Tracepoint"* @_ZN6google8protobuf5Arena18CreateMaybeMessageIN8perfetto6protos21PerfEvents_TracepointEJEEEPT_PS1_DpOT0_(%"class.google::protobuf::Arena"* %147) #13
  store %"class.perfetto::protos::PerfEvents_Tracepoint"* %148, %"class.perfetto::protos::PerfEvents_Tracepoint"** %13, align 8
  br label %149

149:                                              ; preds = %133, %146
  %150 = phi %"class.perfetto::protos::PerfEvents_Tracepoint"* [ %134, %133 ], [ %148, %146 ]
  %151 = tail call i8* @_ZN6google8protobuf8internal12ParseContext12ParseMessageIN8perfetto6protos21PerfEvents_TracepointEEEPKcPT_S8_(%"class.google::protobuf::internal::ParseContext"* %2, %"class.perfetto::protos::PerfEvents_Tracepoint"* %150, i8* nonnull %57)
  %152 = icmp eq i8* %151, null
  br i1 %152, label %246, label %244

153:                                              ; preds = %59
  %154 = and i32 %56, 255
  %155 = icmp eq i32 %154, 32
  br i1 %155, label %156, label %222, !prof !2

156:                                              ; preds = %153
  %157 = load i8, i8* %57, align 1
  %158 = icmp slt i8 %157, 0
  br i1 %158, label %162, label %159

159:                                              ; preds = %156
  %160 = zext i8 %157 to i64
  %161 = getelementptr inbounds i8, i8* %57, i64 1
  br label %178

162:                                              ; preds = %156
  %163 = zext i8 %157 to i32
  %164 = getelementptr inbounds i8, i8* %57, i64 1
  %165 = load i8, i8* %164, align 1
  %166 = zext i8 %165 to i32
  %167 = shl nuw nsw i32 %166, 7
  %168 = add nsw i32 %163, -128
  %169 = add nuw nsw i32 %168, %167
  %170 = icmp slt i8 %165, 0
  br i1 %170, label %174, label %171

171:                                              ; preds = %162
  %172 = zext i32 %169 to i64
  %173 = getelementptr inbounds i8, i8* %57, i64 2
  br label %178

174:                                              ; preds = %162
  %175 = tail call { i8*, i64 } @_ZN6google8protobuf8internal17VarintParseSlow64EPKcj(i8* nonnull %57, i32 %169) #13
  %176 = extractvalue { i8*, i64 } %175, 0
  %177 = extractvalue { i8*, i64 } %175, 1
  br label %178

178:                                              ; preds = %159, %171, %174
  %179 = phi i64 [ %177, %174 ], [ %172, %171 ], [ %160, %159 ]
  %180 = phi i8* [ %176, %174 ], [ %173, %171 ], [ %161, %159 ]
  %181 = icmp eq i8* %180, null
  br i1 %181, label %246, label %182, !prof !4

182:                                              ; preds = %178
  %183 = trunc i64 %179 to i32
  switch i32 %183, label %210 [
    i32 0, label %184
    i32 1, label %184
    i32 2, label %184
    i32 10, label %184
    i32 11, label %184
  ]

184:                                              ; preds = %182, %182, %182, %182, %182
  %185 = load i32, i32* %10, align 4
  switch i32 %185, label %208 [
    i32 4, label %209
    i32 3, label %186
  ]

186:                                              ; preds = %184
  %187 = load i64, i64* %12, align 8
  %188 = and i64 %187, 1
  %189 = icmp eq i64 %188, 0
  %190 = and i64 %187, -2
  br i1 %189, label %195, label %191, !prof !2

191:                                              ; preds = %186
  %192 = inttoptr i64 %190 to %"struct.google::protobuf::internal::InternalMetadata::ContainerBase"*
  %193 = getelementptr inbounds %"struct.google::protobuf::internal::InternalMetadata::ContainerBase", %"struct.google::protobuf::internal::InternalMetadata::ContainerBase"* %192, i64 0, i32 0
  %194 = load %"class.google::protobuf::Arena"*, %"class.google::protobuf::Arena"** %193, align 8
  br label %197

195:                                              ; preds = %186
  %196 = inttoptr i64 %190 to %"class.google::protobuf::Arena"*
  br label %197

197:                                              ; preds = %195, %191
  %198 = phi %"class.google::protobuf::Arena"* [ %194, %191 ], [ %196, %195 ]
  %199 = icmp eq %"class.google::protobuf::Arena"* %198, null
  br i1 %199, label %200, label %208

200:                                              ; preds = %197
  %201 = load %"class.perfetto::protos::PerfEvents_Tracepoint"*, %"class.perfetto::protos::PerfEvents_Tracepoint"** %13, align 8
  %202 = icmp eq %"class.perfetto::protos::PerfEvents_Tracepoint"* %201, null
  br i1 %202, label %208, label %203

203:                                              ; preds = %200
  %204 = bitcast %"class.perfetto::protos::PerfEvents_Tracepoint"* %201 to void (%"class.perfetto::protos::PerfEvents_Tracepoint"*)***
  %205 = load void (%"class.perfetto::protos::PerfEvents_Tracepoint"*)**, void (%"class.perfetto::protos::PerfEvents_Tracepoint"*)*** %204, align 8
  %206 = getelementptr inbounds void (%"class.perfetto::protos::PerfEvents_Tracepoint"*)*, void (%"class.perfetto::protos::PerfEvents_Tracepoint"*)** %205, i64 1
  %207 = load void (%"class.perfetto::protos::PerfEvents_Tracepoint"*)*, void (%"class.perfetto::protos::PerfEvents_Tracepoint"*)** %206, align 8
  tail call void %207(%"class.perfetto::protos::PerfEvents_Tracepoint"* nonnull %201) #13
  br label %208

208:                                              ; preds = %203, %200, %197, %184
  store i32 4, i32* %10, align 4
  br label %209

209:                                              ; preds = %184, %208
  store i32 %183, i32* %15, align 8
  br label %244

210:                                              ; preds = %182
  %211 = load i64, i64* %12, align 8
  %212 = and i64 %211, 1
  %213 = icmp eq i64 %212, 0
  br i1 %213, label %218, label %214, !prof !4

214:                                              ; preds = %210
  %215 = and i64 %211, -2
  %216 = inttoptr i64 %215 to %"struct.google::protobuf::internal::InternalMetadata::Container"*
  %217 = getelementptr inbounds %"struct.google::protobuf::internal::InternalMetadata::Container", %"struct.google::protobuf::internal::InternalMetadata::Container"* %216, i64 0, i32 1
  br label %220

218:                                              ; preds = %210
  %219 = tail call %"class.std::__1::basic_string"* @_ZN6google8protobuf8internal16InternalMetadata27mutable_unknown_fields_slowINSt3__112basic_stringIcNS4_11char_traitsIcEENS4_9allocatorIcEEEEEEPT_v(%"class.google::protobuf::internal::InternalMetadata"* %11) #13
  br label %220

220:                                              ; preds = %214, %218
  %221 = phi %"class.std::__1::basic_string"* [ %217, %214 ], [ %219, %218 ]
  tail call void @_ZN6google8protobuf8internal11WriteVarintEjmPNSt3__112basic_stringIcNS2_11char_traitsIcEENS2_9allocatorIcEEEE(i32 4, i64 %179, %"class.std::__1::basic_string"* %221) #13
  br label %244

222:                                              ; preds = %59, %153, %127, %94, %61
  %223 = and i32 %56, 7
  %224 = icmp eq i32 %223, 4
  %225 = icmp eq i32 %56, 0
  %226 = or i1 %225, %224
  br i1 %226, label %227, label %230

227:                                              ; preds = %222
  %228 = add i32 %56, -1
  %229 = getelementptr inbounds %"class.google::protobuf::internal::ParseContext", %"class.google::protobuf::internal::ParseContext"* %2, i64 0, i32 0, i32 8
  store i32 %228, i32* %229, align 8
  br label %246

230:                                              ; preds = %222
  %231 = load i64, i64* %12, align 8
  %232 = and i64 %231, 1
  %233 = icmp eq i64 %232, 0
  br i1 %233, label %238, label %234, !prof !4

234:                                              ; preds = %230
  %235 = and i64 %231, -2
  %236 = inttoptr i64 %235 to %"struct.google::protobuf::internal::InternalMetadata::Container"*
  %237 = getelementptr inbounds %"struct.google::protobuf::internal::InternalMetadata::Container", %"struct.google::protobuf::internal::InternalMetadata::Container"* %236, i64 0, i32 1
  br label %240

238:                                              ; preds = %230
  %239 = tail call %"class.std::__1::basic_string"* @_ZN6google8protobuf8internal16InternalMetadata27mutable_unknown_fields_slowINSt3__112basic_stringIcNS4_11char_traitsIcEENS4_9allocatorIcEEEEEEPT_v(%"class.google::protobuf::internal::InternalMetadata"* %11) #13
  br label %240

240:                                              ; preds = %234, %238
  %241 = phi %"class.std::__1::basic_string"* [ %237, %234 ], [ %239, %238 ]
  %242 = tail call i8* @_ZN6google8protobuf8internal17UnknownFieldParseEjPNSt3__112basic_stringIcNS2_11char_traitsIcEENS2_9allocatorIcEEEEPKcPNS1_12ParseContextE(i32 %56, %"class.std::__1::basic_string"* %241, i8* nonnull %57, %"class.google::protobuf::internal::ParseContext"* %2) #13
  %243 = icmp eq i8* %242, null
  br i1 %243, label %246, label %244

244:                                              ; preds = %240, %149, %125, %92, %220, %209
  %245 = phi i8* [ %242, %240 ], [ %151, %149 ], [ %121, %125 ], [ %88, %92 ], [ %180, %209 ], [ %180, %220 ]
  br label %18

246:                                              ; preds = %30, %240, %149, %125, %92, %23, %178, %55, %227
  %247 = phi i8* [ %57, %227 ], [ null, %240 ], [ null, %149 ], [ null, %125 ], [ null, %92 ], [ %19, %23 ], [ null, %178 ], [ null, %55 ], [ %32, %30 ]
  ret i8* %247
}

; Function Attrs: nounwind ssp uwtable
define linkonce_odr hidden i8* @_ZN6google8protobuf8internal12ParseContext12ParseMessageIN8perfetto6protos21PerfEvents_TracepointEEEPKcPT_S8_(%"class.google::protobuf::internal::ParseContext"*, %"class.perfetto::protos::PerfEvents_Tracepoint"*, i8*) local_unnamed_addr #0 comdat align 2 {
  %4 = load i8, i8* %2, align 1
  %5 = zext i8 %4 to i32
  %6 = icmp sgt i8 %4, -1
  br i1 %6, label %7, label %9

7:                                                ; preds = %3
  %8 = getelementptr inbounds i8, i8* %2, i64 1
  br label %13

9:                                                ; preds = %3
  %10 = tail call { i8*, i32 } @_ZN6google8protobuf8internal16ReadSizeFallbackEPKcj(i8* %2, i32 %5) #13
  %11 = extractvalue { i8*, i32 } %10, 0
  %12 = extractvalue { i8*, i32 } %10, 1
  br label %13

13:                                               ; preds = %7, %9
  %14 = phi i8* [ %11, %9 ], [ %8, %7 ]
  %15 = phi i32 [ %12, %9 ], [ %5, %7 ]
  %16 = icmp eq i8* %14, null
  br i1 %16, label %55, label %17

17:                                               ; preds = %13
  %18 = getelementptr inbounds %"class.google::protobuf::internal::ParseContext", %"class.google::protobuf::internal::ParseContext"* %0, i64 0, i32 0, i32 1
  %19 = bitcast i8** %18 to i64*
  %20 = load i64, i64* %19, align 8
  %21 = ptrtoint i8* %14 to i64
  %22 = sub i64 %21, %20
  %23 = trunc i64 %22 to i32
  %24 = add nsw i32 %15, %23
  %25 = inttoptr i64 %20 to i8*
  %26 = icmp slt i32 %24, 0
  %27 = select i1 %26, i32 %24, i32 0
  %28 = sext i32 %27 to i64
  %29 = getelementptr inbounds i8, i8* %25, i64 %28
  %30 = getelementptr inbounds %"class.google::protobuf::internal::ParseContext", %"class.google::protobuf::internal::ParseContext"* %0, i64 0, i32 0, i32 0
  store i8* %29, i8** %30, align 8
  %31 = getelementptr inbounds %"class.google::protobuf::internal::ParseContext", %"class.google::protobuf::internal::ParseContext"* %0, i64 0, i32 0, i32 4
  %32 = load i32, i32* %31, align 4
  store i32 %24, i32* %31, align 4
  %33 = sub nsw i32 %32, %24
  %34 = getelementptr inbounds %"class.google::protobuf::internal::ParseContext", %"class.google::protobuf::internal::ParseContext"* %0, i64 0, i32 1
  %35 = load i32, i32* %34, align 8
  %36 = add nsw i32 %35, -1
  store i32 %36, i32* %34, align 8
  %37 = icmp slt i32 %35, 1
  br i1 %37, label %55, label %38

38:                                               ; preds = %17
  %39 = tail call i8* @_ZN8perfetto6protos21PerfEvents_Tracepoint14_InternalParseEPKcPN6google8protobuf8internal12ParseContextE(%"class.perfetto::protos::PerfEvents_Tracepoint"* %1, i8* nonnull %14, %"class.google::protobuf::internal::ParseContext"* %0)
  %40 = icmp eq i8* %39, null
  br i1 %40, label %55, label %41, !prof !4

41:                                               ; preds = %38
  %42 = load i32, i32* %34, align 8
  %43 = add nsw i32 %42, 1
  store i32 %43, i32* %34, align 8
  %44 = getelementptr inbounds %"class.google::protobuf::internal::ParseContext", %"class.google::protobuf::internal::ParseContext"* %0, i64 0, i32 0, i32 8
  %45 = load i32, i32* %44, align 8
  %46 = icmp eq i32 %45, 0
  br i1 %46, label %47, label %55, !prof !2

47:                                               ; preds = %41
  %48 = load i32, i32* %31, align 4
  %49 = add nsw i32 %48, %33
  store i32 %49, i32* %31, align 4
  %50 = load i8*, i8** %18, align 8
  %51 = icmp slt i32 %49, 0
  %52 = select i1 %51, i32 %49, i32 0
  %53 = sext i32 %52 to i64
  %54 = getelementptr inbounds i8, i8* %50, i64 %53
  store i8* %54, i8** %30, align 8
  br label %55

55:                                               ; preds = %13, %38, %17, %41, %47
  %56 = phi i8* [ %39, %47 ], [ null, %41 ], [ null, %17 ], [ null, %38 ], [ null, %13 ]
  ret i8* %56
}

declare void @_ZN6google8protobuf8internal11WriteVarintEjmPNSt3__112basic_stringIcNS2_11char_traitsIcEENS2_9allocatorIcEEEE(i32, i64, %"class.std::__1::basic_string"*) local_unnamed_addr #4

declare i8* @_ZN6google8protobuf8internal17UnknownFieldParseEjPNSt3__112basic_stringIcNS2_11char_traitsIcEENS2_9allocatorIcEEEEPKcPNS1_12ParseContextE(i32, %"class.std::__1::basic_string"*, i8*, %"class.google::protobuf::internal::ParseContext"*) local_unnamed_addr #4

; Function Attrs: nounwind ssp uwtable
define hidden i8* @_ZNK8perfetto6protos19PerfEvents_Timebase18_InternalSerializeEPhPN6google8protobuf2io19EpsCopyOutputStreamE(%"class.perfetto::protos::PerfEvents_Timebase"* nocapture readonly, i8*, %"class.google::protobuf::io::EpsCopyOutputStream"*) unnamed_addr #0 align 2 {
  %4 = getelementptr inbounds %"class.perfetto::protos::PerfEvents_Timebase", %"class.perfetto::protos::PerfEvents_Timebase"* %0, i64 0, i32 4, i64 0
  %5 = load i32, i32* %4, align 4
  switch i32 %5, label %90 [
    i32 1, label %6
    i32 2, label %48
  ]

6:                                                ; preds = %3
  %7 = getelementptr inbounds %"class.google::protobuf::io::EpsCopyOutputStream", %"class.google::protobuf::io::EpsCopyOutputStream"* %2, i64 0, i32 0
  %8 = load i8*, i8** %7, align 8
  %9 = icmp ugt i8* %8, %1
  br i1 %9, label %16, label %10, !prof !2

10:                                               ; preds = %6
  %11 = tail call i8* @_ZN6google8protobuf2io19EpsCopyOutputStream19EnsureSpaceFallbackEPh(%"class.google::protobuf::io::EpsCopyOutputStream"* %2, i8* %1) #13
  %12 = load i32, i32* %4, align 4
  %13 = icmp eq i32 %12, 1
  br i1 %13, label %16, label %14

14:                                               ; preds = %10
  store i8 8, i8* %11, align 1
  %15 = getelementptr inbounds i8, i8* %11, i64 1
  br label %23

16:                                               ; preds = %6, %10
  %17 = phi i8* [ %11, %10 ], [ %1, %6 ]
  %18 = getelementptr inbounds %"class.perfetto::protos::PerfEvents_Timebase", %"class.perfetto::protos::PerfEvents_Timebase"* %0, i64 0, i32 1, i32 0
  %19 = load i64, i64* %18, align 8
  store i8 8, i8* %17, align 1
  %20 = getelementptr inbounds i8, i8* %17, i64 1
  %21 = icmp ult i64 %19, 128
  %22 = trunc i64 %19 to i8
  br i1 %21, label %23, label %27

23:                                               ; preds = %14, %16
  %24 = phi i8 [ 0, %14 ], [ %22, %16 ]
  %25 = phi i8* [ %15, %14 ], [ %20, %16 ]
  store i8 %24, i8* %25, align 1
  %26 = getelementptr inbounds i8, i8* %25, i64 1
  br label %90

27:                                               ; preds = %16
  %28 = or i8 %22, -128
  store i8 %28, i8* %20, align 1
  %29 = lshr i64 %19, 7
  %30 = icmp ult i64 %19, 16384
  br i1 %30, label %31, label %35

31:                                               ; preds = %27
  %32 = trunc i64 %29 to i8
  %33 = getelementptr inbounds i8, i8* %17, i64 2
  store i8 %32, i8* %33, align 1
  %34 = getelementptr inbounds i8, i8* %17, i64 3
  br label %90

35:                                               ; preds = %27
  %36 = getelementptr inbounds i8, i8* %17, i64 2
  br label %37

37:                                               ; preds = %37, %35
  %38 = phi i64 [ %29, %35 ], [ %42, %37 ]
  %39 = phi i8* [ %36, %35 ], [ %43, %37 ]
  %40 = trunc i64 %38 to i8
  %41 = or i8 %40, -128
  store i8 %41, i8* %39, align 1
  %42 = lshr i64 %38, 7
  %43 = getelementptr inbounds i8, i8* %39, i64 1
  %44 = icmp ugt i64 %38, 16383
  br i1 %44, label %37, label %45, !prof !4

45:                                               ; preds = %37
  %46 = trunc i64 %42 to i8
  %47 = getelementptr inbounds i8, i8* %39, i64 2
  store i8 %46, i8* %43, align 1
  br label %90

48:                                               ; preds = %3
  %49 = getelementptr inbounds %"class.google::protobuf::io::EpsCopyOutputStream", %"class.google::protobuf::io::EpsCopyOutputStream"* %2, i64 0, i32 0
  %50 = load i8*, i8** %49, align 8
  %51 = icmp ugt i8* %50, %1
  br i1 %51, label %58, label %52, !prof !2

52:                                               ; preds = %48
  %53 = tail call i8* @_ZN6google8protobuf2io19EpsCopyOutputStream19EnsureSpaceFallbackEPh(%"class.google::protobuf::io::EpsCopyOutputStream"* %2, i8* %1) #13
  %54 = load i32, i32* %4, align 4
  %55 = icmp eq i32 %54, 2
  br i1 %55, label %58, label %56

56:                                               ; preds = %52
  store i8 16, i8* %53, align 1
  %57 = getelementptr inbounds i8, i8* %53, i64 1
  br label %65

58:                                               ; preds = %48, %52
  %59 = phi i8* [ %53, %52 ], [ %1, %48 ]
  %60 = getelementptr inbounds %"class.perfetto::protos::PerfEvents_Timebase", %"class.perfetto::protos::PerfEvents_Timebase"* %0, i64 0, i32 1, i32 0
  %61 = load i64, i64* %60, align 8
  store i8 16, i8* %59, align 1
  %62 = getelementptr inbounds i8, i8* %59, i64 1
  %63 = icmp ult i64 %61, 128
  %64 = trunc i64 %61 to i8
  br i1 %63, label %65, label %69

65:                                               ; preds = %56, %58
  %66 = phi i8 [ 0, %56 ], [ %64, %58 ]
  %67 = phi i8* [ %57, %56 ], [ %62, %58 ]
  store i8 %66, i8* %67, align 1
  %68 = getelementptr inbounds i8, i8* %67, i64 1
  br label %90

69:                                               ; preds = %58
  %70 = or i8 %64, -128
  store i8 %70, i8* %62, align 1
  %71 = lshr i64 %61, 7
  %72 = icmp ult i64 %61, 16384
  br i1 %72, label %73, label %77

73:                                               ; preds = %69
  %74 = trunc i64 %71 to i8
  %75 = getelementptr inbounds i8, i8* %59, i64 2
  store i8 %74, i8* %75, align 1
  %76 = getelementptr inbounds i8, i8* %59, i64 3
  br label %90

77:                                               ; preds = %69
  %78 = getelementptr inbounds i8, i8* %59, i64 2
  br label %79

79:                                               ; preds = %79, %77
  %80 = phi i64 [ %71, %77 ], [ %84, %79 ]
  %81 = phi i8* [ %78, %77 ], [ %85, %79 ]
  %82 = trunc i64 %80 to i8
  %83 = or i8 %82, -128
  store i8 %83, i8* %81, align 1
  %84 = lshr i64 %80, 7
  %85 = getelementptr inbounds i8, i8* %81, i64 1
  %86 = icmp ugt i64 %80, 16383
  br i1 %86, label %79, label %87, !prof !4

87:                                               ; preds = %79
  %88 = trunc i64 %84 to i8
  %89 = getelementptr inbounds i8, i8* %81, i64 2
  store i8 %88, i8* %85, align 1
  br label %90

90:                                               ; preds = %87, %73, %65, %45, %31, %23, %3
  %91 = phi i8* [ %1, %3 ], [ %26, %23 ], [ %34, %31 ], [ %47, %45 ], [ %68, %65 ], [ %76, %73 ], [ %89, %87 ]
  %92 = getelementptr inbounds %"class.perfetto::protos::PerfEvents_Timebase", %"class.perfetto::protos::PerfEvents_Timebase"* %0, i64 0, i32 4, i64 1
  %93 = load i32, i32* %92, align 4
  switch i32 %93, label %179 [
    i32 3, label %94
    i32 4, label %135
  ]

94:                                               ; preds = %90
  %95 = getelementptr inbounds %"class.google::protobuf::io::EpsCopyOutputStream", %"class.google::protobuf::io::EpsCopyOutputStream"* %2, i64 0, i32 0
  %96 = load i8*, i8** %95, align 8
  %97 = icmp ugt i8* %96, %91
  br i1 %97, label %100, label %98, !prof !2

98:                                               ; preds = %94
  %99 = tail call i8* @_ZN6google8protobuf2io19EpsCopyOutputStream19EnsureSpaceFallbackEPh(%"class.google::protobuf::io::EpsCopyOutputStream"* %2, i8* %91) #13
  br label %100

100:                                              ; preds = %94, %98
  %101 = phi i8* [ %99, %98 ], [ %91, %94 ]
  %102 = getelementptr inbounds %"class.perfetto::protos::PerfEvents_Timebase", %"class.perfetto::protos::PerfEvents_Timebase"* %0, i64 0, i32 2, i32 0
  %103 = load %"class.perfetto::protos::PerfEvents_Tracepoint"*, %"class.perfetto::protos::PerfEvents_Tracepoint"** %102, align 8
  store i8 26, i8* %101, align 1
  %104 = getelementptr inbounds i8, i8* %101, i64 1
  %105 = getelementptr inbounds %"class.perfetto::protos::PerfEvents_Tracepoint", %"class.perfetto::protos::PerfEvents_Tracepoint"* %103, i64 0, i32 2, i32 0, i32 0, i32 0, i32 0, i32 0, i32 0
  %106 = load atomic i32, i32* %105 monotonic, align 4
  %107 = icmp ult i32 %106, 128
  %108 = trunc i32 %106 to i8
  br i1 %107, label %109, label %111

109:                                              ; preds = %100
  store i8 %108, i8* %104, align 1
  %110 = getelementptr inbounds i8, i8* %101, i64 2
  br label %132

111:                                              ; preds = %100
  %112 = or i8 %108, -128
  store i8 %112, i8* %104, align 1
  %113 = lshr i32 %106, 7
  %114 = icmp ult i32 %106, 16384
  br i1 %114, label %115, label %119

115:                                              ; preds = %111
  %116 = trunc i32 %113 to i8
  %117 = getelementptr inbounds i8, i8* %101, i64 2
  store i8 %116, i8* %117, align 1
  %118 = getelementptr inbounds i8, i8* %101, i64 3
  br label %132

119:                                              ; preds = %111
  %120 = getelementptr inbounds i8, i8* %101, i64 2
  br label %121

121:                                              ; preds = %121, %119
  %122 = phi i32 [ %113, %119 ], [ %126, %121 ]
  %123 = phi i8* [ %120, %119 ], [ %127, %121 ]
  %124 = trunc i32 %122 to i8
  %125 = or i8 %124, -128
  store i8 %125, i8* %123, align 1
  %126 = lshr i32 %122, 7
  %127 = getelementptr inbounds i8, i8* %123, i64 1
  %128 = icmp ugt i32 %122, 16383
  br i1 %128, label %121, label %129, !prof !4

129:                                              ; preds = %121
  %130 = trunc i32 %126 to i8
  %131 = getelementptr inbounds i8, i8* %123, i64 2
  store i8 %130, i8* %127, align 1
  br label %132

132:                                              ; preds = %109, %115, %129
  %133 = phi i8* [ %110, %109 ], [ %118, %115 ], [ %131, %129 ]
  %134 = tail call i8* @_ZNK8perfetto6protos21PerfEvents_Tracepoint18_InternalSerializeEPhPN6google8protobuf2io19EpsCopyOutputStreamE(%"class.perfetto::protos::PerfEvents_Tracepoint"* %103, i8* %133, %"class.google::protobuf::io::EpsCopyOutputStream"* %2) #13
  br label %179

135:                                              ; preds = %90
  %136 = getelementptr inbounds %"class.google::protobuf::io::EpsCopyOutputStream", %"class.google::protobuf::io::EpsCopyOutputStream"* %2, i64 0, i32 0
  %137 = load i8*, i8** %136, align 8
  %138 = icmp ugt i8* %137, %91
  br i1 %138, label %145, label %139, !prof !2

139:                                              ; preds = %135
  %140 = tail call i8* @_ZN6google8protobuf2io19EpsCopyOutputStream19EnsureSpaceFallbackEPh(%"class.google::protobuf::io::EpsCopyOutputStream"* %2, i8* %91) #13
  %141 = load i32, i32* %92, align 4
  %142 = icmp eq i32 %141, 4
  br i1 %142, label %145, label %143

143:                                              ; preds = %139
  store i8 32, i8* %140, align 1
  %144 = getelementptr inbounds i8, i8* %140, i64 1
  br label %153

145:                                              ; preds = %135, %139
  %146 = phi i8* [ %140, %139 ], [ %91, %135 ]
  %147 = getelementptr inbounds %"class.perfetto::protos::PerfEvents_Timebase", %"class.perfetto::protos::PerfEvents_Timebase"* %0, i64 0, i32 2
  %148 = bitcast %"union.perfetto::protos::PerfEvents_Timebase::EventUnion"* %147 to i32*
  %149 = load i32, i32* %148, align 8
  store i8 32, i8* %146, align 1
  %150 = getelementptr inbounds i8, i8* %146, i64 1
  %151 = icmp ult i32 %149, 128
  %152 = trunc i32 %149 to i8
  br i1 %151, label %153, label %157

153:                                              ; preds = %143, %145
  %154 = phi i8 [ 0, %143 ], [ %152, %145 ]
  %155 = phi i8* [ %144, %143 ], [ %150, %145 ]
  store i8 %154, i8* %155, align 1
  %156 = getelementptr inbounds i8, i8* %155, i64 1
  br label %179

157:                                              ; preds = %145
  %158 = sext i32 %149 to i64
  %159 = or i8 %152, -128
  store i8 %159, i8* %150, align 1
  %160 = lshr i64 %158, 7
  %161 = icmp ult i32 %149, 16384
  br i1 %161, label %162, label %166

162:                                              ; preds = %157
  %163 = trunc i64 %160 to i8
  %164 = getelementptr inbounds i8, i8* %146, i64 2
  store i8 %163, i8* %164, align 1
  %165 = getelementptr inbounds i8, i8* %146, i64 3
  br label %179

166:                                              ; preds = %157
  %167 = getelementptr inbounds i8, i8* %146, i64 2
  br label %168

168:                                              ; preds = %168, %166
  %169 = phi i64 [ %160, %166 ], [ %173, %168 ]
  %170 = phi i8* [ %167, %166 ], [ %174, %168 ]
  %171 = trunc i64 %169 to i8
  %172 = or i8 %171, -128
  store i8 %172, i8* %170, align 1
  %173 = lshr i64 %169, 7
  %174 = getelementptr inbounds i8, i8* %170, i64 1
  %175 = icmp ugt i64 %169, 16383
  br i1 %175, label %168, label %176, !prof !4

176:                                              ; preds = %168
  %177 = trunc i64 %173 to i8
  %178 = getelementptr inbounds i8, i8* %170, i64 2
  store i8 %177, i8* %174, align 1
  br label %179

179:                                              ; preds = %176, %162, %153, %90, %132
  %180 = phi i8* [ %91, %90 ], [ %134, %132 ], [ %156, %153 ], [ %165, %162 ], [ %178, %176 ]
  %181 = getelementptr inbounds %"class.perfetto::protos::PerfEvents_Timebase", %"class.perfetto::protos::PerfEvents_Timebase"* %0, i64 0, i32 0, i32 1
  %182 = bitcast %"class.google::protobuf::internal::InternalMetadata"* %181 to i64*
  %183 = load i64, i64* %182, align 8
  %184 = and i64 %183, 1
  %185 = icmp eq i64 %184, 0
  br i1 %185, label %217, label %186, !prof !2

186:                                              ; preds = %179
  %187 = and i64 %183, -2
  %188 = inttoptr i64 %187 to %"struct.google::protobuf::internal::InternalMetadata::Container"*
  %189 = getelementptr inbounds %"struct.google::protobuf::internal::InternalMetadata::Container", %"struct.google::protobuf::internal::InternalMetadata::Container"* %188, i64 0, i32 1
  %190 = bitcast %"class.std::__1::basic_string"* %189 to %"struct.std::__1::basic_string<char, std::__1::char_traits<char>, std::__1::allocator<char> >::__short"*
  %191 = getelementptr inbounds %"struct.std::__1::basic_string<char, std::__1::char_traits<char>, std::__1::allocator<char> >::__short", %"struct.std::__1::basic_string<char, std::__1::char_traits<char>, std::__1::allocator<char> >::__short"* %190, i64 0, i32 1, i32 0
  %192 = load i8, i8* %191, align 1
  %193 = icmp slt i8 %192, 0
  br i1 %193, label %194, label %199

194:                                              ; preds = %186
  %195 = getelementptr inbounds %"class.std::__1::basic_string", %"class.std::__1::basic_string"* %189, i64 0, i32 0, i32 0, i32 0, i32 0, i32 0, i32 0
  %196 = load i8*, i8** %195, align 8
  %197 = getelementptr inbounds %"struct.google::protobuf::internal::InternalMetadata::Container", %"struct.google::protobuf::internal::InternalMetadata::Container"* %188, i64 0, i32 1, i32 0, i32 0, i32 0, i32 0, i32 0, i32 1
  %198 = load i64, i64* %197, align 8
  br label %202

199:                                              ; preds = %186
  %200 = bitcast %"class.std::__1::basic_string"* %189 to i8*
  %201 = zext i8 %192 to i64
  br label %202

202:                                              ; preds = %194, %199
  %203 = phi i8* [ %196, %194 ], [ %200, %199 ]
  %204 = phi i64 [ %198, %194 ], [ %201, %199 ]
  %205 = bitcast %"class.google::protobuf::io::EpsCopyOutputStream"* %2 to i64*
  %206 = load i64, i64* %205, align 8
  %207 = ptrtoint i8* %180 to i64
  %208 = sub i64 %206, %207
  %209 = shl i64 %204, 32
  %210 = ashr exact i64 %209, 32
  %211 = icmp slt i64 %208, %210
  br i1 %211, label %212, label %215, !prof !4

212:                                              ; preds = %202
  %213 = trunc i64 %204 to i32
  %214 = tail call i8* @_ZN6google8protobuf2io19EpsCopyOutputStream16WriteRawFallbackEPKviPh(%"class.google::protobuf::io::EpsCopyOutputStream"* %2, i8* %203, i32 %213, i8* %180) #13
  br label %217

215:                                              ; preds = %202
  tail call void @llvm.memcpy.p0i8.p0i8.i64(i8* align 1 %180, i8* align 1 %203, i64 %210, i1 false) #13
  %216 = getelementptr inbounds i8, i8* %180, i64 %210
  br label %217

217:                                              ; preds = %179, %215, %212
  %218 = phi i8* [ %180, %179 ], [ %214, %212 ], [ %216, %215 ]
  ret i8* %218
}

; Function Attrs: nounwind ssp uwtable
define hidden i64 @_ZNK8perfetto6protos19PerfEvents_Timebase12ByteSizeLongEv(%"class.perfetto::protos::PerfEvents_Timebase"* nocapture) unnamed_addr #0 align 2 {
  %2 = getelementptr inbounds %"class.perfetto::protos::PerfEvents_Timebase", %"class.perfetto::protos::PerfEvents_Timebase"* %0, i64 0, i32 4, i64 0
  %3 = load i32, i32* %2, align 4
  %4 = add i32 %3, -1
  %5 = icmp ult i32 %4, 2
  br i1 %5, label %6, label %16

6:                                                ; preds = %1
  %7 = getelementptr inbounds %"class.perfetto::protos::PerfEvents_Timebase", %"class.perfetto::protos::PerfEvents_Timebase"* %0, i64 0, i32 1, i32 0
  %8 = load i64, i64* %7, align 8
  %9 = or i64 %8, 1
  %10 = tail call i64 @llvm.ctlz.i64(i64 %9, i1 true) #13, !range !5
  %11 = xor i64 %10, 63
  %12 = mul nuw nsw i64 %11, 9
  %13 = add nuw nsw i64 %12, 73
  %14 = lshr i64 %13, 6
  %15 = add nuw nsw i64 %14, 1
  br label %16

16:                                               ; preds = %1, %6
  %17 = phi i64 [ 0, %1 ], [ %15, %6 ]
  %18 = getelementptr inbounds %"class.perfetto::protos::PerfEvents_Timebase", %"class.perfetto::protos::PerfEvents_Timebase"* %0, i64 0, i32 4, i64 1
  %19 = load i32, i32* %18, align 4
  switch i32 %19, label %131 [
    i32 4, label %20
    i32 3, label %37
  ]

20:                                               ; preds = %16
  %21 = getelementptr inbounds %"class.perfetto::protos::PerfEvents_Timebase", %"class.perfetto::protos::PerfEvents_Timebase"* %0, i64 0, i32 2
  %22 = bitcast %"union.perfetto::protos::PerfEvents_Timebase::EventUnion"* %21 to i32*
  %23 = load i32, i32* %22, align 8
  %24 = icmp slt i32 %23, 0
  br i1 %24, label %34, label %25

25:                                               ; preds = %20
  %26 = or i32 %23, 1
  %27 = tail call i32 @llvm.ctlz.i32(i32 %26, i1 true) #13, !range !6
  %28 = xor i32 %27, 31
  %29 = mul nuw nsw i32 %28, 9
  %30 = add nuw nsw i32 %29, 73
  %31 = lshr i32 %30, 6
  %32 = add nuw nsw i32 %31, 1
  %33 = zext i32 %32 to i64
  br label %34

34:                                               ; preds = %20, %25
  %35 = phi i64 [ %33, %25 ], [ 11, %20 ]
  %36 = add nuw nsw i64 %35, %17
  br label %131

37:                                               ; preds = %16
  %38 = getelementptr inbounds %"class.perfetto::protos::PerfEvents_Timebase", %"class.perfetto::protos::PerfEvents_Timebase"* %0, i64 0, i32 2, i32 0
  %39 = load %"class.perfetto::protos::PerfEvents_Tracepoint"*, %"class.perfetto::protos::PerfEvents_Tracepoint"** %38, align 8
  %40 = getelementptr inbounds %"class.perfetto::protos::PerfEvents_Tracepoint", %"class.perfetto::protos::PerfEvents_Tracepoint"* %39, i64 0, i32 1, i32 0, i64 0
  %41 = load i32, i32* %40, align 4
  %42 = and i32 %41, 3
  %43 = icmp eq i32 %42, 0
  br i1 %43, label %94, label %44

44:                                               ; preds = %37
  %45 = and i32 %41, 1
  %46 = icmp eq i32 %45, 0
  br i1 %46, label %68, label %47

47:                                               ; preds = %44
  %48 = getelementptr inbounds %"class.perfetto::protos::PerfEvents_Tracepoint", %"class.perfetto::protos::PerfEvents_Tracepoint"* %39, i64 0, i32 3, i32 0
  %49 = load %"class.std::__1::basic_string"*, %"class.std::__1::basic_string"** %48, align 8
  %50 = bitcast %"class.std::__1::basic_string"* %49 to %"struct.std::__1::basic_string<char, std::__1::char_traits<char>, std::__1::allocator<char> >::__short"*
  %51 = getelementptr inbounds %"struct.std::__1::basic_string<char, std::__1::char_traits<char>, std::__1::allocator<char> >::__short", %"struct.std::__1::basic_string<char, std::__1::char_traits<char>, std::__1::allocator<char> >::__short"* %50, i64 0, i32 1, i32 0
  %52 = load i8, i8* %51, align 1
  %53 = icmp slt i8 %52, 0
  %54 = getelementptr inbounds %"class.std::__1::basic_string", %"class.std::__1::basic_string"* %49, i64 0, i32 0, i32 0, i32 0, i32 0, i32 0, i32 1
  %55 = load i64, i64* %54, align 8
  %56 = zext i8 %52 to i64
  %57 = select i1 %53, i64 %55, i64 %56
  %58 = trunc i64 %57 to i32
  %59 = or i32 %58, 1
  %60 = tail call i32 @llvm.ctlz.i32(i32 %59, i1 true) #13, !range !6
  %61 = xor i32 %60, 31
  %62 = mul nuw nsw i32 %61, 9
  %63 = add nuw nsw i32 %62, 73
  %64 = lshr i32 %63, 6
  %65 = zext i32 %64 to i64
  %66 = add i64 %57, 1
  %67 = add i64 %66, %65
  br label %68

68:                                               ; preds = %47, %44
  %69 = phi i64 [ %67, %47 ], [ 0, %44 ]
  %70 = and i32 %41, 2
  %71 = icmp eq i32 %70, 0
  br i1 %71, label %94, label %72

72:                                               ; preds = %68
  %73 = getelementptr inbounds %"class.perfetto::protos::PerfEvents_Tracepoint", %"class.perfetto::protos::PerfEvents_Tracepoint"* %39, i64 0, i32 4, i32 0
  %74 = load %"class.std::__1::basic_string"*, %"class.std::__1::basic_string"** %73, align 8
  %75 = bitcast %"class.std::__1::basic_string"* %74 to %"struct.std::__1::basic_string<char, std::__1::char_traits<char>, std::__1::allocator<char> >::__short"*
  %76 = getelementptr inbounds %"struct.std::__1::basic_string<char, std::__1::char_traits<char>, std::__1::allocator<char> >::__short", %"struct.std::__1::basic_string<char, std::__1::char_traits<char>, std::__1::allocator<char> >::__short"* %75, i64 0, i32 1, i32 0
  %77 = load i8, i8* %76, align 1
  %78 = icmp slt i8 %77, 0
  %79 = getelementptr inbounds %"class.std::__1::basic_string", %"class.std::__1::basic_string"* %74, i64 0, i32 0, i32 0, i32 0, i32 0, i32 0, i32 1
  %80 = load i64, i64* %79, align 8
  %81 = zext i8 %77 to i64
  %82 = select i1 %78, i64 %80, i64 %81
  %83 = trunc i64 %82 to i32
  %84 = or i32 %83, 1
  %85 = tail call i32 @llvm.ctlz.i32(i32 %84, i1 true) #13, !range !6
  %86 = xor i32 %85, 31
  %87 = mul nuw nsw i32 %86, 9
  %88 = add nuw nsw i32 %87, 73
  %89 = lshr i32 %88, 6
  %90 = zext i32 %89 to i64
  %91 = add i64 %69, 1
  %92 = add i64 %91, %82
  %93 = add i64 %92, %90
  br label %94

94:                                               ; preds = %72, %68, %37
  %95 = phi i64 [ %93, %72 ], [ %69, %68 ], [ 0, %37 ]
  %96 = getelementptr inbounds %"class.perfetto::protos::PerfEvents_Tracepoint", %"class.perfetto::protos::PerfEvents_Tracepoint"* %39, i64 0, i32 0, i32 1
  %97 = bitcast %"class.google::protobuf::internal::InternalMetadata"* %96 to i64*
  %98 = load i64, i64* %97, align 8
  %99 = and i64 %98, 1
  %100 = icmp eq i64 %99, 0
  br i1 %100, label %117, label %101, !prof !2

101:                                              ; preds = %94
  %102 = and i64 %98, -2
  %103 = inttoptr i64 %102 to %"struct.google::protobuf::internal::InternalMetadata::Container"*
  %104 = getelementptr inbounds %"struct.google::protobuf::internal::InternalMetadata::Container", %"struct.google::protobuf::internal::InternalMetadata::Container"* %103, i64 0, i32 1
  %105 = bitcast %"class.std::__1::basic_string"* %104 to %"struct.std::__1::basic_string<char, std::__1::char_traits<char>, std::__1::allocator<char> >::__short"*
  %106 = getelementptr inbounds %"struct.std::__1::basic_string<char, std::__1::char_traits<char>, std::__1::allocator<char> >::__short", %"struct.std::__1::basic_string<char, std::__1::char_traits<char>, std::__1::allocator<char> >::__short"* %105, i64 0, i32 1, i32 0
  %107 = load i8, i8* %106, align 1
  %108 = icmp slt i8 %107, 0
  br i1 %108, label %109, label %112

109:                                              ; preds = %101
  %110 = getelementptr inbounds %"struct.google::protobuf::internal::InternalMetadata::Container", %"struct.google::protobuf::internal::InternalMetadata::Container"* %103, i64 0, i32 1, i32 0, i32 0, i32 0, i32 0, i32 0, i32 1
  %111 = load i64, i64* %110, align 8
  br label %114

112:                                              ; preds = %101
  %113 = zext i8 %107 to i64
  br label %114

114:                                              ; preds = %112, %109
  %115 = phi i64 [ %111, %109 ], [ %113, %112 ]
  %116 = add i64 %115, %95
  br label %117

117:                                              ; preds = %94, %114
  %118 = phi i64 [ %116, %114 ], [ %95, %94 ]
  %119 = trunc i64 %118 to i32
  %120 = getelementptr inbounds %"class.perfetto::protos::PerfEvents_Tracepoint", %"class.perfetto::protos::PerfEvents_Tracepoint"* %39, i64 0, i32 2, i32 0, i32 0, i32 0, i32 0, i32 0, i32 0
  store atomic i32 %119, i32* %120 monotonic, align 4
  %121 = or i32 %119, 1
  %122 = tail call i32 @llvm.ctlz.i32(i32 %121, i1 true) #13, !range !6
  %123 = xor i32 %122, 31
  %124 = mul nuw nsw i32 %123, 9
  %125 = add nuw nsw i32 %124, 73
  %126 = lshr i32 %125, 6
  %127 = zext i32 %126 to i64
  %128 = add nuw nsw i64 %17, 1
  %129 = add i64 %128, %118
  %130 = add i64 %129, %127
  br label %131

131:                                              ; preds = %16, %117, %34
  %132 = phi i64 [ %17, %16 ], [ %130, %117 ], [ %36, %34 ]
  %133 = getelementptr inbounds %"class.perfetto::protos::PerfEvents_Timebase", %"class.perfetto::protos::PerfEvents_Timebase"* %0, i64 0, i32 0, i32 1
  %134 = bitcast %"class.google::protobuf::internal::InternalMetadata"* %133 to i64*
  %135 = load i64, i64* %134, align 8
  %136 = and i64 %135, 1
  %137 = icmp eq i64 %136, 0
  br i1 %137, label %154, label %138, !prof !2

138:                                              ; preds = %131
  %139 = and i64 %135, -2
  %140 = inttoptr i64 %139 to %"struct.google::protobuf::internal::InternalMetadata::Container"*
  %141 = getelementptr inbounds %"struct.google::protobuf::internal::InternalMetadata::Container", %"struct.google::protobuf::internal::InternalMetadata::Container"* %140, i64 0, i32 1
  %142 = bitcast %"class.std::__1::basic_string"* %141 to %"struct.std::__1::basic_string<char, std::__1::char_traits<char>, std::__1::allocator<char> >::__short"*
  %143 = getelementptr inbounds %"struct.std::__1::basic_string<char, std::__1::char_traits<char>, std::__1::allocator<char> >::__short", %"struct.std::__1::basic_string<char, std::__1::char_traits<char>, std::__1::allocator<char> >::__short"* %142, i64 0, i32 1, i32 0
  %144 = load i8, i8* %143, align 1
  %145 = icmp slt i8 %144, 0
  br i1 %145, label %146, label %149

146:                                              ; preds = %138
  %147 = getelementptr inbounds %"struct.google::protobuf::internal::InternalMetadata::Container", %"struct.google::protobuf::internal::InternalMetadata::Container"* %140, i64 0, i32 1, i32 0, i32 0, i32 0, i32 0, i32 0, i32 1
  %148 = load i64, i64* %147, align 8
  br label %151

149:                                              ; preds = %138
  %150 = zext i8 %144 to i64
  br label %151

151:                                              ; preds = %146, %149
  %152 = phi i64 [ %148, %146 ], [ %150, %149 ]
  %153 = add i64 %152, %132
  br label %154

154:                                              ; preds = %131, %151
  %155 = phi i64 [ %153, %151 ], [ %132, %131 ]
  %156 = trunc i64 %155 to i32
  %157 = getelementptr inbounds %"class.perfetto::protos::PerfEvents_Timebase", %"class.perfetto::protos::PerfEvents_Timebase"* %0, i64 0, i32 3, i32 0, i32 0, i32 0, i32 0, i32 0, i32 0
  store atomic i32 %156, i32* %157 monotonic, align 4
  ret i64 %155
}

; Function Attrs: nounwind ssp uwtable
define hidden void @_ZN8perfetto6protos19PerfEvents_Timebase21CheckTypeAndMergeFromERKN6google8protobuf11MessageLiteE(%"class.perfetto::protos::PerfEvents_Timebase"*, %"class.google::protobuf::MessageLite"* nocapture readonly dereferenceable(16)) unnamed_addr #0 align 2 {
  %3 = bitcast %"class.google::protobuf::MessageLite"* %1 to %"class.perfetto::protos::PerfEvents_Timebase"*
  tail call void @_ZN8perfetto6protos19PerfEvents_Timebase9MergeFromERKS1_(%"class.perfetto::protos::PerfEvents_Timebase"* %0, %"class.perfetto::protos::PerfEvents_Timebase"* dereferenceable(48) %3)
  ret void
}

; Function Attrs: nounwind ssp uwtable
define hidden void @_ZN8perfetto6protos19PerfEvents_Timebase9MergeFromERKS1_(%"class.perfetto::protos::PerfEvents_Timebase"*, %"class.perfetto::protos::PerfEvents_Timebase"* nocapture readonly dereferenceable(48)) local_unnamed_addr #0 align 2 {
  %3 = getelementptr inbounds %"class.perfetto::protos::PerfEvents_Timebase", %"class.perfetto::protos::PerfEvents_Timebase"* %0, i64 0, i32 0, i32 1
  %4 = getelementptr inbounds %"class.perfetto::protos::PerfEvents_Timebase", %"class.perfetto::protos::PerfEvents_Timebase"* %1, i64 0, i32 0, i32 1
  %5 = bitcast %"class.google::protobuf::internal::InternalMetadata"* %4 to i64*
  %6 = load i64, i64* %5, align 8
  %7 = and i64 %6, 1
  %8 = icmp eq i64 %7, 0
  br i1 %8, label %38, label %9

9:                                                ; preds = %2
  %10 = and i64 %6, -2
  %11 = inttoptr i64 %10 to %"struct.google::protobuf::internal::InternalMetadata::Container"*
  %12 = getelementptr inbounds %"struct.google::protobuf::internal::InternalMetadata::Container", %"struct.google::protobuf::internal::InternalMetadata::Container"* %11, i64 0, i32 1
  %13 = bitcast %"class.google::protobuf::internal::InternalMetadata"* %3 to i64*
  %14 = load i64, i64* %13, align 8
  %15 = and i64 %14, 1
  %16 = icmp eq i64 %15, 0
  br i1 %16, label %21, label %17, !prof !4

17:                                               ; preds = %9
  %18 = and i64 %14, -2
  %19 = inttoptr i64 %18 to %"struct.google::protobuf::internal::InternalMetadata::Container"*
  %20 = getelementptr inbounds %"struct.google::protobuf::internal::InternalMetadata::Container", %"struct.google::protobuf::internal::InternalMetadata::Container"* %19, i64 0, i32 1
  br label %23

21:                                               ; preds = %9
  %22 = tail call %"class.std::__1::basic_string"* @_ZN6google8protobuf8internal16InternalMetadata27mutable_unknown_fields_slowINSt3__112basic_stringIcNS4_11char_traitsIcEENS4_9allocatorIcEEEEEEPT_v(%"class.google::protobuf::internal::InternalMetadata"* %3) #13
  br label %23

23:                                               ; preds = %21, %17
  %24 = phi %"class.std::__1::basic_string"* [ %20, %17 ], [ %22, %21 ]
  %25 = bitcast %"class.std::__1::basic_string"* %12 to %"struct.std::__1::basic_string<char, std::__1::char_traits<char>, std::__1::allocator<char> >::__short"*
  %26 = getelementptr inbounds %"struct.std::__1::basic_string<char, std::__1::char_traits<char>, std::__1::allocator<char> >::__short", %"struct.std::__1::basic_string<char, std::__1::char_traits<char>, std::__1::allocator<char> >::__short"* %25, i64 0, i32 1, i32 0
  %27 = load i8, i8* %26, align 1
  %28 = icmp slt i8 %27, 0
  %29 = getelementptr inbounds %"class.std::__1::basic_string", %"class.std::__1::basic_string"* %12, i64 0, i32 0, i32 0, i32 0, i32 0, i32 0, i32 0
  %30 = load i8*, i8** %29, align 8
  %31 = getelementptr inbounds %"struct.google::protobuf::internal::InternalMetadata::Container", %"struct.google::protobuf::internal::InternalMetadata::Container"* %11, i64 0, i32 1, i32 0, i32 0, i32 0, i32 0, i32 0, i32 1
  %32 = load i64, i64* %31, align 8
  %33 = bitcast %"class.std::__1::basic_string"* %12 to i8*
  %34 = zext i8 %27 to i64
  %35 = select i1 %28, i8* %30, i8* %33
  %36 = select i1 %28, i64 %32, i64 %34
  %37 = tail call dereferenceable(24) %"class.std::__1::basic_string"* @_ZNSt3__112basic_stringIcNS_11char_traitsIcEENS_9allocatorIcEEE6appendEPKcm(%"class.std::__1::basic_string"* %24, i8* %35, i64 %36) #13
  br label %38

38:                                               ; preds = %2, %23
  %39 = getelementptr inbounds %"class.perfetto::protos::PerfEvents_Timebase", %"class.perfetto::protos::PerfEvents_Timebase"* %1, i64 0, i32 4, i64 0
  %40 = load i32, i32* %39, align 4
  switch i32 %40, label %58 [
    i32 2, label %41
    i32 1, label %48
  ]

41:                                               ; preds = %38
  %42 = getelementptr inbounds %"class.perfetto::protos::PerfEvents_Timebase", %"class.perfetto::protos::PerfEvents_Timebase"* %1, i64 0, i32 1, i32 0
  %43 = load i64, i64* %42, align 8
  %44 = getelementptr inbounds %"class.perfetto::protos::PerfEvents_Timebase", %"class.perfetto::protos::PerfEvents_Timebase"* %0, i64 0, i32 4, i64 0
  %45 = load i32, i32* %44, align 4
  %46 = icmp eq i32 %45, 2
  br i1 %46, label %55, label %47

47:                                               ; preds = %41
  store i32 2, i32* %44, align 4
  br label %55

48:                                               ; preds = %38
  %49 = getelementptr inbounds %"class.perfetto::protos::PerfEvents_Timebase", %"class.perfetto::protos::PerfEvents_Timebase"* %1, i64 0, i32 1, i32 0
  %50 = load i64, i64* %49, align 8
  %51 = getelementptr inbounds %"class.perfetto::protos::PerfEvents_Timebase", %"class.perfetto::protos::PerfEvents_Timebase"* %0, i64 0, i32 4, i64 0
  %52 = load i32, i32* %51, align 4
  %53 = icmp eq i32 %52, 1
  br i1 %53, label %55, label %54

54:                                               ; preds = %48
  store i32 1, i32* %51, align 4
  br label %55

55:                                               ; preds = %54, %48, %47, %41
  %56 = phi i64 [ %43, %41 ], [ %43, %47 ], [ %50, %48 ], [ %50, %54 ]
  %57 = getelementptr inbounds %"class.perfetto::protos::PerfEvents_Timebase", %"class.perfetto::protos::PerfEvents_Timebase"* %0, i64 0, i32 1, i32 0
  store i64 %56, i64* %57, align 8
  br label %58

58:                                               ; preds = %55, %38
  %59 = getelementptr inbounds %"class.perfetto::protos::PerfEvents_Timebase", %"class.perfetto::protos::PerfEvents_Timebase"* %1, i64 0, i32 4, i64 1
  %60 = load i32, i32* %59, align 4
  switch i32 %60, label %127 [
    i32 4, label %61
    i32 3, label %95
  ]

61:                                               ; preds = %58
  %62 = getelementptr inbounds %"class.perfetto::protos::PerfEvents_Timebase", %"class.perfetto::protos::PerfEvents_Timebase"* %1, i64 0, i32 2
  %63 = bitcast %"union.perfetto::protos::PerfEvents_Timebase::EventUnion"* %62 to i32*
  %64 = load i32, i32* %63, align 8
  %65 = getelementptr inbounds %"class.perfetto::protos::PerfEvents_Timebase", %"class.perfetto::protos::PerfEvents_Timebase"* %0, i64 0, i32 4, i64 1
  %66 = load i32, i32* %65, align 4
  switch i32 %66, label %91 [
    i32 4, label %92
    i32 3, label %67
  ]

67:                                               ; preds = %61
  %68 = bitcast %"class.google::protobuf::internal::InternalMetadata"* %3 to i64*
  %69 = load i64, i64* %68, align 8
  %70 = and i64 %69, 1
  %71 = icmp eq i64 %70, 0
  %72 = and i64 %69, -2
  br i1 %71, label %77, label %73, !prof !2

73:                                               ; preds = %67
  %74 = inttoptr i64 %72 to %"struct.google::protobuf::internal::InternalMetadata::ContainerBase"*
  %75 = getelementptr inbounds %"struct.google::protobuf::internal::InternalMetadata::ContainerBase", %"struct.google::protobuf::internal::InternalMetadata::ContainerBase"* %74, i64 0, i32 0
  %76 = load %"class.google::protobuf::Arena"*, %"class.google::protobuf::Arena"** %75, align 8
  br label %79

77:                                               ; preds = %67
  %78 = inttoptr i64 %72 to %"class.google::protobuf::Arena"*
  br label %79

79:                                               ; preds = %77, %73
  %80 = phi %"class.google::protobuf::Arena"* [ %76, %73 ], [ %78, %77 ]
  %81 = icmp eq %"class.google::protobuf::Arena"* %80, null
  br i1 %81, label %82, label %91

82:                                               ; preds = %79
  %83 = getelementptr inbounds %"class.perfetto::protos::PerfEvents_Timebase", %"class.perfetto::protos::PerfEvents_Timebase"* %0, i64 0, i32 2, i32 0
  %84 = load %"class.perfetto::protos::PerfEvents_Tracepoint"*, %"class.perfetto::protos::PerfEvents_Tracepoint"** %83, align 8
  %85 = icmp eq %"class.perfetto::protos::PerfEvents_Tracepoint"* %84, null
  br i1 %85, label %91, label %86

86:                                               ; preds = %82
  %87 = bitcast %"class.perfetto::protos::PerfEvents_Tracepoint"* %84 to void (%"class.perfetto::protos::PerfEvents_Tracepoint"*)***
  %88 = load void (%"class.perfetto::protos::PerfEvents_Tracepoint"*)**, void (%"class.perfetto::protos::PerfEvents_Tracepoint"*)*** %87, align 8
  %89 = getelementptr inbounds void (%"class.perfetto::protos::PerfEvents_Tracepoint"*)*, void (%"class.perfetto::protos::PerfEvents_Tracepoint"*)** %88, i64 1
  %90 = load void (%"class.perfetto::protos::PerfEvents_Tracepoint"*)*, void (%"class.perfetto::protos::PerfEvents_Tracepoint"*)** %89, align 8
  tail call void %90(%"class.perfetto::protos::PerfEvents_Tracepoint"* nonnull %84) #13
  br label %91

91:                                               ; preds = %86, %82, %79, %61
  store i32 4, i32* %65, align 4
  br label %92

92:                                               ; preds = %61, %91
  %93 = getelementptr inbounds %"class.perfetto::protos::PerfEvents_Timebase", %"class.perfetto::protos::PerfEvents_Timebase"* %0, i64 0, i32 2
  %94 = bitcast %"union.perfetto::protos::PerfEvents_Timebase::EventUnion"* %93 to i32*
  store i32 %64, i32* %94, align 8
  br label %127

95:                                               ; preds = %58
  %96 = getelementptr inbounds %"class.perfetto::protos::PerfEvents_Timebase", %"class.perfetto::protos::PerfEvents_Timebase"* %0, i64 0, i32 4, i64 1
  %97 = load i32, i32* %96, align 4
  %98 = icmp eq i32 %97, 3
  br i1 %98, label %99, label %102

99:                                               ; preds = %95
  %100 = getelementptr inbounds %"class.perfetto::protos::PerfEvents_Timebase", %"class.perfetto::protos::PerfEvents_Timebase"* %0, i64 0, i32 2, i32 0
  %101 = load %"class.perfetto::protos::PerfEvents_Tracepoint"*, %"class.perfetto::protos::PerfEvents_Tracepoint"** %100, align 8
  br label %120

102:                                              ; preds = %95
  store i32 3, i32* %96, align 4
  %103 = bitcast %"class.google::protobuf::internal::InternalMetadata"* %3 to i64*
  %104 = load i64, i64* %103, align 8
  %105 = and i64 %104, 1
  %106 = icmp eq i64 %105, 0
  %107 = and i64 %104, -2
  br i1 %106, label %112, label %108, !prof !2

108:                                              ; preds = %102
  %109 = inttoptr i64 %107 to %"struct.google::protobuf::internal::InternalMetadata::ContainerBase"*
  %110 = getelementptr inbounds %"struct.google::protobuf::internal::InternalMetadata::ContainerBase", %"struct.google::protobuf::internal::InternalMetadata::ContainerBase"* %109, i64 0, i32 0
  %111 = load %"class.google::protobuf::Arena"*, %"class.google::protobuf::Arena"** %110, align 8
  br label %114

112:                                              ; preds = %102
  %113 = inttoptr i64 %107 to %"class.google::protobuf::Arena"*
  br label %114

114:                                              ; preds = %108, %112
  %115 = phi %"class.google::protobuf::Arena"* [ %111, %108 ], [ %113, %112 ]
  %116 = tail call %"class.perfetto::protos::PerfEvents_Tracepoint"* @_ZN6google8protobuf5Arena18CreateMaybeMessageIN8perfetto6protos21PerfEvents_TracepointEJEEEPT_PS1_DpOT0_(%"class.google::protobuf::Arena"* %115) #13
  %117 = getelementptr inbounds %"class.perfetto::protos::PerfEvents_Timebase", %"class.perfetto::protos::PerfEvents_Timebase"* %0, i64 0, i32 2, i32 0
  store %"class.perfetto::protos::PerfEvents_Tracepoint"* %116, %"class.perfetto::protos::PerfEvents_Tracepoint"** %117, align 8
  %118 = load i32, i32* %59, align 4
  %119 = icmp eq i32 %118, 3
  br i1 %119, label %120, label %124

120:                                              ; preds = %99, %114
  %121 = phi %"class.perfetto::protos::PerfEvents_Tracepoint"* [ %101, %99 ], [ %116, %114 ]
  %122 = getelementptr inbounds %"class.perfetto::protos::PerfEvents_Timebase", %"class.perfetto::protos::PerfEvents_Timebase"* %1, i64 0, i32 2, i32 0
  %123 = load %"class.perfetto::protos::PerfEvents_Tracepoint"*, %"class.perfetto::protos::PerfEvents_Tracepoint"** %122, align 8
  br label %124

124:                                              ; preds = %114, %120
  %125 = phi %"class.perfetto::protos::PerfEvents_Tracepoint"* [ %121, %120 ], [ %116, %114 ]
  %126 = phi %"class.perfetto::protos::PerfEvents_Tracepoint"* [ %123, %120 ], [ bitcast (%"class.perfetto::protos::PerfEvents_TracepointDefaultTypeInternal"* @_ZN8perfetto6protos40_PerfEvents_Tracepoint_default_instance_E to %"class.perfetto::protos::PerfEvents_Tracepoint"*), %114 ]
  tail call void @_ZN8perfetto6protos21PerfEvents_Tracepoint9MergeFromERKS1_(%"class.perfetto::protos::PerfEvents_Tracepoint"* %125, %"class.perfetto::protos::PerfEvents_Tracepoint"* dereferenceable(40) %126)
  br label %127

127:                                              ; preds = %58, %124, %92
  ret void
}

; Function Attrs: nounwind ssp uwtable
define hidden void @_ZN8perfetto6protos19PerfEvents_Timebase8CopyFromERKS1_(%"class.perfetto::protos::PerfEvents_Timebase"*, %"class.perfetto::protos::PerfEvents_Timebase"* readonly dereferenceable(48)) local_unnamed_addr #0 align 2 {
  %3 = icmp eq %"class.perfetto::protos::PerfEvents_Timebase"* %1, %0
  br i1 %3, label %55, label %4

4:                                                ; preds = %2
  %5 = getelementptr inbounds %"class.perfetto::protos::PerfEvents_Timebase", %"class.perfetto::protos::PerfEvents_Timebase"* %0, i64 0, i32 4, i64 0
  store i32 0, i32* %5, align 4
  %6 = getelementptr inbounds %"class.perfetto::protos::PerfEvents_Timebase", %"class.perfetto::protos::PerfEvents_Timebase"* %0, i64 0, i32 4, i64 1
  %7 = load i32, i32* %6, align 4
  %8 = icmp eq i32 %7, 3
  br i1 %8, label %9, label %34

9:                                                ; preds = %4
  %10 = getelementptr inbounds %"class.perfetto::protos::PerfEvents_Timebase", %"class.perfetto::protos::PerfEvents_Timebase"* %0, i64 0, i32 0, i32 1
  %11 = bitcast %"class.google::protobuf::internal::InternalMetadata"* %10 to i64*
  %12 = load i64, i64* %11, align 8
  %13 = and i64 %12, 1
  %14 = icmp eq i64 %13, 0
  %15 = and i64 %12, -2
  br i1 %14, label %20, label %16, !prof !2

16:                                               ; preds = %9
  %17 = inttoptr i64 %15 to %"struct.google::protobuf::internal::InternalMetadata::ContainerBase"*
  %18 = getelementptr inbounds %"struct.google::protobuf::internal::InternalMetadata::ContainerBase", %"struct.google::protobuf::internal::InternalMetadata::ContainerBase"* %17, i64 0, i32 0
  %19 = load %"class.google::protobuf::Arena"*, %"class.google::protobuf::Arena"** %18, align 8
  br label %22

20:                                               ; preds = %9
  %21 = inttoptr i64 %15 to %"class.google::protobuf::Arena"*
  br label %22

22:                                               ; preds = %20, %16
  %23 = phi %"class.google::protobuf::Arena"* [ %19, %16 ], [ %21, %20 ]
  %24 = icmp eq %"class.google::protobuf::Arena"* %23, null
  br i1 %24, label %25, label %34

25:                                               ; preds = %22
  %26 = getelementptr inbounds %"class.perfetto::protos::PerfEvents_Timebase", %"class.perfetto::protos::PerfEvents_Timebase"* %0, i64 0, i32 2, i32 0
  %27 = load %"class.perfetto::protos::PerfEvents_Tracepoint"*, %"class.perfetto::protos::PerfEvents_Tracepoint"** %26, align 8
  %28 = icmp eq %"class.perfetto::protos::PerfEvents_Tracepoint"* %27, null
  br i1 %28, label %34, label %29

29:                                               ; preds = %25
  %30 = bitcast %"class.perfetto::protos::PerfEvents_Tracepoint"* %27 to void (%"class.perfetto::protos::PerfEvents_Tracepoint"*)***
  %31 = load void (%"class.perfetto::protos::PerfEvents_Tracepoint"*)**, void (%"class.perfetto::protos::PerfEvents_Tracepoint"*)*** %30, align 8
  %32 = getelementptr inbounds void (%"class.perfetto::protos::PerfEvents_Tracepoint"*)*, void (%"class.perfetto::protos::PerfEvents_Tracepoint"*)** %31, i64 1
  %33 = load void (%"class.perfetto::protos::PerfEvents_Tracepoint"*)*, void (%"class.perfetto::protos::PerfEvents_Tracepoint"*)** %32, align 8
  tail call void %33(%"class.perfetto::protos::PerfEvents_Tracepoint"* nonnull %27) #13
  br label %34

34:                                               ; preds = %4, %29, %25, %22
  store i32 0, i32* %6, align 4
  %35 = getelementptr inbounds %"class.perfetto::protos::PerfEvents_Timebase", %"class.perfetto::protos::PerfEvents_Timebase"* %0, i64 0, i32 0, i32 1
  %36 = bitcast %"class.google::protobuf::internal::InternalMetadata"* %35 to i64*
  %37 = load i64, i64* %36, align 8
  %38 = and i64 %37, 1
  %39 = icmp eq i64 %38, 0
  br i1 %39, label %54, label %40

40:                                               ; preds = %34
  %41 = and i64 %37, -2
  %42 = inttoptr i64 %41 to %"struct.google::protobuf::internal::InternalMetadata::Container"*
  %43 = getelementptr inbounds %"struct.google::protobuf::internal::InternalMetadata::Container", %"struct.google::protobuf::internal::InternalMetadata::Container"* %42, i64 0, i32 1
  %44 = bitcast %"class.std::__1::basic_string"* %43 to %"struct.std::__1::basic_string<char, std::__1::char_traits<char>, std::__1::allocator<char> >::__short"*
  %45 = getelementptr inbounds %"struct.std::__1::basic_string<char, std::__1::char_traits<char>, std::__1::allocator<char> >::__short", %"struct.std::__1::basic_string<char, std::__1::char_traits<char>, std::__1::allocator<char> >::__short"* %44, i64 0, i32 1, i32 0
  %46 = load i8, i8* %45, align 1
  %47 = icmp slt i8 %46, 0
  br i1 %47, label %48, label %52

48:                                               ; preds = %40
  %49 = getelementptr inbounds %"class.std::__1::basic_string", %"class.std::__1::basic_string"* %43, i64 0, i32 0, i32 0, i32 0, i32 0, i32 0, i32 0
  %50 = load i8*, i8** %49, align 8
  store i8 0, i8* %50, align 1
  %51 = getelementptr inbounds %"struct.google::protobuf::internal::InternalMetadata::Container", %"struct.google::protobuf::internal::InternalMetadata::Container"* %42, i64 0, i32 1, i32 0, i32 0, i32 0, i32 0, i32 0, i32 1
  store i64 0, i64* %51, align 8
  br label %54

52:                                               ; preds = %40
  %53 = bitcast %"class.std::__1::basic_string"* %43 to i8*
  store i8 0, i8* %53, align 2
  store i8 0, i8* %45, align 1
  br label %54

54:                                               ; preds = %34, %48, %52
  tail call void @_ZN8perfetto6protos19PerfEvents_Timebase9MergeFromERKS1_(%"class.perfetto::protos::PerfEvents_Timebase"* %0, %"class.perfetto::protos::PerfEvents_Timebase"* dereferenceable(48) %1)
  br label %55

55:                                               ; preds = %2, %54
  ret void
}

; Function Attrs: norecurse nounwind readnone ssp uwtable
define hidden zeroext i1 @_ZNK8perfetto6protos19PerfEvents_Timebase13IsInitializedEv(%"class.perfetto::protos::PerfEvents_Timebase"* nocapture readnone) unnamed_addr #1 align 2 {
  ret i1 true
}

; Function Attrs: nounwind ssp uwtable
define hidden void @_ZN8perfetto6protos19PerfEvents_Timebase12InternalSwapEPS1_(%"class.perfetto::protos::PerfEvents_Timebase"*, %"class.perfetto::protos::PerfEvents_Timebase"*) local_unnamed_addr #0 align 2 {
  %3 = getelementptr inbounds %"class.perfetto::protos::PerfEvents_Timebase", %"class.perfetto::protos::PerfEvents_Timebase"* %0, i64 0, i32 0, i32 1
  %4 = getelementptr inbounds %"class.perfetto::protos::PerfEvents_Timebase", %"class.perfetto::protos::PerfEvents_Timebase"* %1, i64 0, i32 0, i32 1
  %5 = bitcast %"class.google::protobuf::internal::InternalMetadata"* %3 to i64*
  %6 = load i64, i64* %5, align 8
  %7 = bitcast %"class.google::protobuf::internal::InternalMetadata"* %4 to i64*
  %8 = load i64, i64* %7, align 8
  %9 = or i64 %8, %6
  %10 = and i64 %9, 1
  %11 = icmp eq i64 %10, 0
  br i1 %11, label %43, label %12

12:                                               ; preds = %2
  %13 = and i64 %8, 1
  %14 = icmp eq i64 %13, 0
  br i1 %14, label %19, label %15, !prof !4

15:                                               ; preds = %12
  %16 = and i64 %8, -2
  %17 = inttoptr i64 %16 to %"struct.google::protobuf::internal::InternalMetadata::Container"*
  %18 = getelementptr inbounds %"struct.google::protobuf::internal::InternalMetadata::Container", %"struct.google::protobuf::internal::InternalMetadata::Container"* %17, i64 0, i32 1
  br label %22

19:                                               ; preds = %12
  %20 = tail call %"class.std::__1::basic_string"* @_ZN6google8protobuf8internal16InternalMetadata27mutable_unknown_fields_slowINSt3__112basic_stringIcNS4_11char_traitsIcEENS4_9allocatorIcEEEEEEPT_v(%"class.google::protobuf::internal::InternalMetadata"* %4) #13
  %21 = load i64, i64* %5, align 8
  br label %22

22:                                               ; preds = %19, %15
  %23 = phi i64 [ %6, %15 ], [ %21, %19 ]
  %24 = phi %"class.std::__1::basic_string"* [ %18, %15 ], [ %20, %19 ]
  %25 = and i64 %23, 1
  %26 = icmp eq i64 %25, 0
  br i1 %26, label %31, label %27, !prof !4

27:                                               ; preds = %22
  %28 = and i64 %23, -2
  %29 = inttoptr i64 %28 to %"struct.google::protobuf::internal::InternalMetadata::Container"*
  %30 = getelementptr inbounds %"struct.google::protobuf::internal::InternalMetadata::Container", %"struct.google::protobuf::internal::InternalMetadata::Container"* %29, i64 0, i32 1
  br label %33

31:                                               ; preds = %22
  %32 = tail call %"class.std::__1::basic_string"* @_ZN6google8protobuf8internal16InternalMetadata27mutable_unknown_fields_slowINSt3__112basic_stringIcNS4_11char_traitsIcEENS4_9allocatorIcEEEEEEPT_v(%"class.google::protobuf::internal::InternalMetadata"* %3) #13
  br label %33

33:                                               ; preds = %31, %27
  %34 = phi %"class.std::__1::basic_string"* [ %30, %27 ], [ %32, %31 ]
  %35 = bitcast %"class.std::__1::basic_string"* %34 to <2 x i64>*
  %36 = load <2 x i64>, <2 x i64>* %35, align 8
  %37 = getelementptr inbounds %"class.std::__1::basic_string", %"class.std::__1::basic_string"* %34, i64 0, i32 0, i32 0, i32 0, i32 0, i32 0, i32 2
  %38 = load i64, i64* %37, align 8
  %39 = bitcast %"class.std::__1::basic_string"* %34 to i8*
  %40 = bitcast %"class.std::__1::basic_string"* %24 to i8*
  tail call void @llvm.memcpy.p0i8.p0i8.i64(i8* align 8 %39, i8* align 8 %40, i64 24, i1 false) #13
  %41 = bitcast %"class.std::__1::basic_string"* %24 to <2 x i64>*
  store <2 x i64> %36, <2 x i64>* %41, align 8
  %42 = getelementptr inbounds %"class.std::__1::basic_string", %"class.std::__1::basic_string"* %24, i64 0, i32 0, i32 0, i32 0, i32 0, i32 0, i32 2
  store i64 %38, i64* %42, align 8
  br label %43

43:                                               ; preds = %2, %33
  %44 = getelementptr inbounds %"class.perfetto::protos::PerfEvents_Timebase", %"class.perfetto::protos::PerfEvents_Timebase"* %0, i64 0, i32 1, i32 0
  %45 = load i64, i64* %44, align 8
  %46 = getelementptr inbounds %"class.perfetto::protos::PerfEvents_Timebase", %"class.perfetto::protos::PerfEvents_Timebase"* %1, i64 0, i32 1, i32 0
  %47 = load i64, i64* %46, align 8
  store i64 %47, i64* %44, align 8
  store i64 %45, i64* %46, align 8
  %48 = getelementptr inbounds %"class.perfetto::protos::PerfEvents_Timebase", %"class.perfetto::protos::PerfEvents_Timebase"* %0, i64 0, i32 2
  %49 = getelementptr inbounds %"class.perfetto::protos::PerfEvents_Timebase", %"class.perfetto::protos::PerfEvents_Timebase"* %1, i64 0, i32 2
  %50 = bitcast %"union.perfetto::protos::PerfEvents_Timebase::EventUnion"* %48 to i64*
  %51 = load i64, i64* %50, align 8
  %52 = bitcast %"union.perfetto::protos::PerfEvents_Timebase::EventUnion"* %49 to i64*
  %53 = load i64, i64* %52, align 8
  store i64 %53, i64* %50, align 8
  store i64 %51, i64* %52, align 8
  %54 = getelementptr inbounds %"class.perfetto::protos::PerfEvents_Timebase", %"class.perfetto::protos::PerfEvents_Timebase"* %0, i64 0, i32 4, i64 0
  %55 = getelementptr inbounds %"class.perfetto::protos::PerfEvents_Timebase", %"class.perfetto::protos::PerfEvents_Timebase"* %1, i64 0, i32 4, i64 0
  %56 = load i32, i32* %54, align 4
  %57 = load i32, i32* %55, align 4
  store i32 %57, i32* %54, align 4
  store i32 %56, i32* %55, align 4
  %58 = getelementptr inbounds %"class.perfetto::protos::PerfEvents_Timebase", %"class.perfetto::protos::PerfEvents_Timebase"* %0, i64 0, i32 4, i64 1
  %59 = getelementptr inbounds %"class.perfetto::protos::PerfEvents_Timebase", %"class.perfetto::protos::PerfEvents_Timebase"* %1, i64 0, i32 4, i64 1
  %60 = load i32, i32* %58, align 4
  %61 = load i32, i32* %59, align 4
  store i32 %61, i32* %58, align 4
  store i32 %60, i32* %59, align 4
  ret void
}

; Function Attrs: nounwind ssp uwtable
define hidden void @_ZNK8perfetto6protos19PerfEvents_Timebase11GetTypeNameEv(%"class.std::__1::basic_string"* noalias sret, %"class.perfetto::protos::PerfEvents_Timebase"* nocapture readnone) unnamed_addr #0 align 2 {
  %3 = tail call i8* @_Znwm(i64 48) #14
  %4 = getelementptr inbounds %"class.std::__1::basic_string", %"class.std::__1::basic_string"* %0, i64 0, i32 0, i32 0, i32 0, i32 0, i32 0, i32 0
  store i8* %3, i8** %4, align 8
  %5 = getelementptr inbounds %"class.std::__1::basic_string", %"class.std::__1::basic_string"* %0, i64 0, i32 0, i32 0, i32 0, i32 0, i32 0, i32 1
  %6 = bitcast i64* %5 to <2 x i64>*
  store <2 x i64> <i64 35, i64 -9223372036854775760>, <2 x i64>* %6, align 8
  tail call void @llvm.memcpy.p0i8.p0i8.i64(i8* nonnull align 1 %3, i8* align 1 getelementptr inbounds ([36 x i8], [36 x i8]* @.str.3, i64 0, i64 0), i64 35, i1 false) #13
  %7 = getelementptr inbounds i8, i8* %3, i64 35
  store i8 0, i8* %7, align 1
  ret void
}

; Function Attrs: nounwind ssp uwtable
define hidden void @_ZN8perfetto6protos21PerfEvents_TracepointC2EPN6google8protobuf5ArenaE(%"class.perfetto::protos::PerfEvents_Tracepoint"* nocapture, %"class.google::protobuf::Arena"*) unnamed_addr #0 align 2 {
  %3 = getelementptr inbounds %"class.perfetto::protos::PerfEvents_Tracepoint", %"class.perfetto::protos::PerfEvents_Tracepoint"* %0, i64 0, i32 0, i32 0
  %4 = getelementptr inbounds %"class.perfetto::protos::PerfEvents_Tracepoint", %"class.perfetto::protos::PerfEvents_Tracepoint"* %0, i64 0, i32 0, i32 1
  %5 = bitcast %"class.google::protobuf::internal::InternalMetadata"* %4 to %"class.google::protobuf::Arena"**
  store %"class.google::protobuf::Arena"* %1, %"class.google::protobuf::Arena"** %5, align 8
  store i32 (...)** bitcast (i8** getelementptr inbounds ({ [16 x i8*] }, { [16 x i8*] }* @_ZTVN8perfetto6protos21PerfEvents_TracepointE, i64 0, inrange i32 0, i64 2) to i32 (...)**), i32 (...)*** %3, align 8
  %6 = getelementptr inbounds %"class.perfetto::protos::PerfEvents_Tracepoint", %"class.perfetto::protos::PerfEvents_Tracepoint"* %0, i64 0, i32 1, i32 0, i64 0
  store i32 0, i32* %6, align 4
  %7 = getelementptr inbounds %"class.perfetto::protos::PerfEvents_Tracepoint", %"class.perfetto::protos::PerfEvents_Tracepoint"* %0, i64 0, i32 2, i32 0, i32 0, i32 0, i32 0, i32 0, i32 0
  store i32 0, i32* %7, align 4
  %8 = load atomic i32, i32* getelementptr inbounds ({ { { { i32 } }, i32, i32, void ()* }, [0 x i8*] }, { { { { i32 } }, i32, i32, void ()* }, [0 x i8*] }* @scc_info_PerfEvents_Tracepoint_protos_2fperfetto_2fcommon_2fperf_5fevents_2eproto, i64 0, i32 0, i32 0, i32 0, i32 0) acquire, align 8
  %9 = icmp eq i32 %8, 0
  br i1 %9, label %11, label %10, !prof !2

10:                                               ; preds = %2
  tail call void @_ZN6google8protobuf8internal11InitSCCImplEPNS1_11SCCInfoBaseE(%"struct.google::protobuf::internal::SCCInfoBase"* bitcast ({ { { { i32 } }, i32, i32, void ()* }, [0 x i8*] }* @scc_info_PerfEvents_Tracepoint_protos_2fperfetto_2fcommon_2fperf_5fevents_2eproto to %"struct.google::protobuf::internal::SCCInfoBase"*)) #13
  br label %11

11:                                               ; preds = %2, %10
  %12 = getelementptr inbounds %"class.perfetto::protos::PerfEvents_Tracepoint", %"class.perfetto::protos::PerfEvents_Tracepoint"* %0, i64 0, i32 3, i32 0
  %13 = bitcast %"class.std::__1::basic_string"** %12 to <2 x %"class.std::__1::basic_string"*>*
  store <2 x %"class.std::__1::basic_string"*> <%"class.std::__1::basic_string"* bitcast (%"class.google::protobuf::internal::ExplicitlyConstructed.5"* @_ZN6google8protobuf8internal26fixed_address_empty_stringE to %"class.std::__1::basic_string"*), %"class.std::__1::basic_string"* bitcast (%"class.google::protobuf::internal::ExplicitlyConstructed.5"* @_ZN6google8protobuf8internal26fixed_address_empty_stringE to %"class.std::__1::basic_string"*)>, <2 x %"class.std::__1::basic_string"*>* %13, align 8
  ret void
}

; Function Attrs: nounwind ssp uwtable
define hidden void @_ZN8perfetto6protos21PerfEvents_TracepointC2ERKS1_(%"class.perfetto::protos::PerfEvents_Tracepoint"*, %"class.perfetto::protos::PerfEvents_Tracepoint"* nocapture readonly dereferenceable(40)) unnamed_addr #0 align 2 {
  %3 = getelementptr inbounds %"class.perfetto::protos::PerfEvents_Tracepoint", %"class.perfetto::protos::PerfEvents_Tracepoint"* %0, i64 0, i32 0, i32 0
  %4 = getelementptr inbounds %"class.perfetto::protos::PerfEvents_Tracepoint", %"class.perfetto::protos::PerfEvents_Tracepoint"* %0, i64 0, i32 0, i32 1, i32 0
  store i8* null, i8** %4, align 8
  store i32 (...)** bitcast (i8** getelementptr inbounds ({ [16 x i8*] }, { [16 x i8*] }* @_ZTVN8perfetto6protos21PerfEvents_TracepointE, i64 0, inrange i32 0, i64 2) to i32 (...)**), i32 (...)*** %3, align 8
  %5 = getelementptr inbounds %"class.perfetto::protos::PerfEvents_Tracepoint", %"class.perfetto::protos::PerfEvents_Tracepoint"* %1, i64 0, i32 1, i32 0, i64 0
  %6 = getelementptr inbounds %"class.perfetto::protos::PerfEvents_Tracepoint", %"class.perfetto::protos::PerfEvents_Tracepoint"* %0, i64 0, i32 1, i32 0, i64 0
  %7 = load i32, i32* %5, align 8
  store i32 %7, i32* %6, align 8
  %8 = getelementptr inbounds %"class.perfetto::protos::PerfEvents_Tracepoint", %"class.perfetto::protos::PerfEvents_Tracepoint"* %0, i64 0, i32 2, i32 0, i32 0, i32 0, i32 0, i32 0, i32 0
  store i32 0, i32* %8, align 4
  %9 = getelementptr inbounds %"class.perfetto::protos::PerfEvents_Tracepoint", %"class.perfetto::protos::PerfEvents_Tracepoint"* %0, i64 0, i32 0, i32 1
  %10 = getelementptr inbounds %"class.perfetto::protos::PerfEvents_Tracepoint", %"class.perfetto::protos::PerfEvents_Tracepoint"* %1, i64 0, i32 0, i32 1
  %11 = bitcast %"class.google::protobuf::internal::InternalMetadata"* %10 to i64*
  %12 = load i64, i64* %11, align 8
  %13 = and i64 %12, 1
  %14 = icmp eq i64 %13, 0
  br i1 %14, label %33, label %15

15:                                               ; preds = %2
  %16 = and i64 %12, -2
  %17 = inttoptr i64 %16 to %"struct.google::protobuf::internal::InternalMetadata::Container"*
  %18 = getelementptr inbounds %"struct.google::protobuf::internal::InternalMetadata::Container", %"struct.google::protobuf::internal::InternalMetadata::Container"* %17, i64 0, i32 1
  %19 = tail call %"class.std::__1::basic_string"* @_ZN6google8protobuf8internal16InternalMetadata27mutable_unknown_fields_slowINSt3__112basic_stringIcNS4_11char_traitsIcEENS4_9allocatorIcEEEEEEPT_v(%"class.google::protobuf::internal::InternalMetadata"* %9) #13
  %20 = bitcast %"class.std::__1::basic_string"* %18 to %"struct.std::__1::basic_string<char, std::__1::char_traits<char>, std::__1::allocator<char> >::__short"*
  %21 = getelementptr inbounds %"struct.std::__1::basic_string<char, std::__1::char_traits<char>, std::__1::allocator<char> >::__short", %"struct.std::__1::basic_string<char, std::__1::char_traits<char>, std::__1::allocator<char> >::__short"* %20, i64 0, i32 1, i32 0
  %22 = load i8, i8* %21, align 1
  %23 = icmp slt i8 %22, 0
  %24 = getelementptr inbounds %"class.std::__1::basic_string", %"class.std::__1::basic_string"* %18, i64 0, i32 0, i32 0, i32 0, i32 0, i32 0, i32 0
  %25 = load i8*, i8** %24, align 8
  %26 = getelementptr inbounds %"struct.google::protobuf::internal::InternalMetadata::Container", %"struct.google::protobuf::internal::InternalMetadata::Container"* %17, i64 0, i32 1, i32 0, i32 0, i32 0, i32 0, i32 0, i32 1
  %27 = load i64, i64* %26, align 8
  %28 = bitcast %"class.std::__1::basic_string"* %18 to i8*
  %29 = zext i8 %22 to i64
  %30 = select i1 %23, i8* %25, i8* %28
  %31 = select i1 %23, i64 %27, i64 %29
  %32 = tail call dereferenceable(24) %"class.std::__1::basic_string"* @_ZNSt3__112basic_stringIcNS_11char_traitsIcEENS_9allocatorIcEEE6appendEPKcm(%"class.std::__1::basic_string"* %19, i8* %30, i64 %31) #13
  br label %33

33:                                               ; preds = %2, %15
  %34 = getelementptr inbounds %"class.perfetto::protos::PerfEvents_Tracepoint", %"class.perfetto::protos::PerfEvents_Tracepoint"* %0, i64 0, i32 3
  %35 = getelementptr inbounds %"struct.google::protobuf::internal::ArenaStringPtr", %"struct.google::protobuf::internal::ArenaStringPtr"* %34, i64 0, i32 0
  store %"class.std::__1::basic_string"* bitcast (%"class.google::protobuf::internal::ExplicitlyConstructed.5"* @_ZN6google8protobuf8internal26fixed_address_empty_stringE to %"class.std::__1::basic_string"*), %"class.std::__1::basic_string"** %35, align 8
  %36 = load i32, i32* %5, align 4
  %37 = and i32 %36, 1
  %38 = icmp eq i32 %37, 0
  br i1 %38, label %55, label %39

39:                                               ; preds = %33
  %40 = getelementptr inbounds %"class.perfetto::protos::PerfEvents_Tracepoint", %"class.perfetto::protos::PerfEvents_Tracepoint"* %1, i64 0, i32 3, i32 0
  %41 = load %"class.std::__1::basic_string"*, %"class.std::__1::basic_string"** %40, align 8
  %42 = bitcast %"class.google::protobuf::internal::InternalMetadata"* %9 to i64*
  %43 = load i64, i64* %42, align 8
  %44 = and i64 %43, 1
  %45 = icmp eq i64 %44, 0
  %46 = and i64 %43, -2
  br i1 %45, label %51, label %47, !prof !2

47:                                               ; preds = %39
  %48 = inttoptr i64 %46 to %"struct.google::protobuf::internal::InternalMetadata::ContainerBase"*
  %49 = getelementptr inbounds %"struct.google::protobuf::internal::InternalMetadata::ContainerBase", %"struct.google::protobuf::internal::InternalMetadata::ContainerBase"* %48, i64 0, i32 0
  %50 = load %"class.google::protobuf::Arena"*, %"class.google::protobuf::Arena"** %49, align 8
  br label %53

51:                                               ; preds = %39
  %52 = inttoptr i64 %46 to %"class.google::protobuf::Arena"*
  br label %53

53:                                               ; preds = %47, %51
  %54 = phi %"class.google::protobuf::Arena"* [ %50, %47 ], [ %52, %51 ]
  tail call void @_ZN6google8protobuf8internal14ArenaStringPtr14CreateInstanceEPNS0_5ArenaEPKNSt3__112basic_stringIcNS5_11char_traitsIcEENS5_9allocatorIcEEEE(%"struct.google::protobuf::internal::ArenaStringPtr"* %34, %"class.google::protobuf::Arena"* %54, %"class.std::__1::basic_string"* %41) #13
  br label %55

55:                                               ; preds = %33, %53
  %56 = getelementptr inbounds %"class.perfetto::protos::PerfEvents_Tracepoint", %"class.perfetto::protos::PerfEvents_Tracepoint"* %0, i64 0, i32 4
  %57 = getelementptr inbounds %"struct.google::protobuf::internal::ArenaStringPtr", %"struct.google::protobuf::internal::ArenaStringPtr"* %56, i64 0, i32 0
  store %"class.std::__1::basic_string"* bitcast (%"class.google::protobuf::internal::ExplicitlyConstructed.5"* @_ZN6google8protobuf8internal26fixed_address_empty_stringE to %"class.std::__1::basic_string"*), %"class.std::__1::basic_string"** %57, align 8
  %58 = load i32, i32* %5, align 4
  %59 = and i32 %58, 2
  %60 = icmp eq i32 %59, 0
  br i1 %60, label %77, label %61

61:                                               ; preds = %55
  %62 = getelementptr inbounds %"class.perfetto::protos::PerfEvents_Tracepoint", %"class.perfetto::protos::PerfEvents_Tracepoint"* %1, i64 0, i32 4, i32 0
  %63 = load %"class.std::__1::basic_string"*, %"class.std::__1::basic_string"** %62, align 8
  %64 = bitcast %"class.google::protobuf::internal::InternalMetadata"* %9 to i64*
  %65 = load i64, i64* %64, align 8
  %66 = and i64 %65, 1
  %67 = icmp eq i64 %66, 0
  %68 = and i64 %65, -2
  br i1 %67, label %73, label %69, !prof !2

69:                                               ; preds = %61
  %70 = inttoptr i64 %68 to %"struct.google::protobuf::internal::InternalMetadata::ContainerBase"*
  %71 = getelementptr inbounds %"struct.google::protobuf::internal::InternalMetadata::ContainerBase", %"struct.google::protobuf::internal::InternalMetadata::ContainerBase"* %70, i64 0, i32 0
  %72 = load %"class.google::protobuf::Arena"*, %"class.google::protobuf::Arena"** %71, align 8
  br label %75

73:                                               ; preds = %61
  %74 = inttoptr i64 %68 to %"class.google::protobuf::Arena"*
  br label %75

75:                                               ; preds = %69, %73
  %76 = phi %"class.google::protobuf::Arena"* [ %72, %69 ], [ %74, %73 ]
  tail call void @_ZN6google8protobuf8internal14ArenaStringPtr14CreateInstanceEPNS0_5ArenaEPKNSt3__112basic_stringIcNS5_11char_traitsIcEENS5_9allocatorIcEEEE(%"struct.google::protobuf::internal::ArenaStringPtr"* %56, %"class.google::protobuf::Arena"* %76, %"class.std::__1::basic_string"* %63) #13
  br label %77

77:                                               ; preds = %55, %75
  ret void
}

; Function Attrs: argmemonly nounwind
declare void @llvm.memcpy.p0i8.p0i8.i64(i8* nocapture writeonly, i8* nocapture readonly, i64, i1 immarg) #2

; Function Attrs: nounwind ssp uwtable
define hidden void @_ZN8perfetto6protos21PerfEvents_TracepointD2Ev(%"class.perfetto::protos::PerfEvents_Tracepoint"*) unnamed_addr #0 align 2 {
  %2 = getelementptr inbounds %"class.perfetto::protos::PerfEvents_Tracepoint", %"class.perfetto::protos::PerfEvents_Tracepoint"* %0, i64 0, i32 0, i32 0
  store i32 (...)** bitcast (i8** getelementptr inbounds ({ [16 x i8*] }, { [16 x i8*] }* @_ZTVN8perfetto6protos21PerfEvents_TracepointE, i64 0, inrange i32 0, i64 2) to i32 (...)**), i32 (...)*** %2, align 8
  %3 = getelementptr inbounds %"class.perfetto::protos::PerfEvents_Tracepoint", %"class.perfetto::protos::PerfEvents_Tracepoint"* %0, i64 0, i32 3
  tail call void @_ZN6google8protobuf8internal14ArenaStringPtr14DestroyNoArenaEPKNSt3__112basic_stringIcNS3_11char_traitsIcEENS3_9allocatorIcEEEE(%"struct.google::protobuf::internal::ArenaStringPtr"* %3, %"class.std::__1::basic_string"* bitcast (%"class.google::protobuf::internal::ExplicitlyConstructed.5"* @_ZN6google8protobuf8internal26fixed_address_empty_stringE to %"class.std::__1::basic_string"*)) #13
  %4 = getelementptr inbounds %"class.perfetto::protos::PerfEvents_Tracepoint", %"class.perfetto::protos::PerfEvents_Tracepoint"* %0, i64 0, i32 4
  tail call void @_ZN6google8protobuf8internal14ArenaStringPtr14DestroyNoArenaEPKNSt3__112basic_stringIcNS3_11char_traitsIcEENS3_9allocatorIcEEEE(%"struct.google::protobuf::internal::ArenaStringPtr"* %4, %"class.std::__1::basic_string"* bitcast (%"class.google::protobuf::internal::ExplicitlyConstructed.5"* @_ZN6google8protobuf8internal26fixed_address_empty_stringE to %"class.std::__1::basic_string"*)) #13
  %5 = getelementptr inbounds %"class.perfetto::protos::PerfEvents_Tracepoint", %"class.perfetto::protos::PerfEvents_Tracepoint"* %0, i64 0, i32 0, i32 1
  %6 = bitcast %"class.google::protobuf::internal::InternalMetadata"* %5 to i64*
  %7 = load i64, i64* %6, align 8
  %8 = and i64 %7, 1
  %9 = icmp eq i64 %8, 0
  br i1 %9, label %30, label %10

10:                                               ; preds = %1
  %11 = and i64 %7, -2
  %12 = inttoptr i64 %11 to %"struct.google::protobuf::internal::InternalMetadata::ContainerBase"*
  %13 = getelementptr inbounds %"struct.google::protobuf::internal::InternalMetadata::ContainerBase", %"struct.google::protobuf::internal::InternalMetadata::ContainerBase"* %12, i64 0, i32 0
  %14 = load %"class.google::protobuf::Arena"*, %"class.google::protobuf::Arena"** %13, align 8
  %15 = icmp ne %"class.google::protobuf::Arena"* %14, null
  %16 = icmp eq i64 %11, 0
  %17 = or i1 %16, %15
  br i1 %17, label %30, label %18

18:                                               ; preds = %10
  %19 = inttoptr i64 %11 to %"struct.google::protobuf::internal::InternalMetadata::Container"*
  %20 = getelementptr inbounds %"struct.google::protobuf::internal::InternalMetadata::Container", %"struct.google::protobuf::internal::InternalMetadata::Container"* %19, i64 0, i32 1
  %21 = bitcast %"class.std::__1::basic_string"* %20 to %"struct.std::__1::basic_string<char, std::__1::char_traits<char>, std::__1::allocator<char> >::__short"*
  %22 = getelementptr inbounds %"struct.std::__1::basic_string<char, std::__1::char_traits<char>, std::__1::allocator<char> >::__short", %"struct.std::__1::basic_string<char, std::__1::char_traits<char>, std::__1::allocator<char> >::__short"* %21, i64 0, i32 1, i32 0
  %23 = load i8, i8* %22, align 1
  %24 = icmp slt i8 %23, 0
  br i1 %24, label %25, label %28

25:                                               ; preds = %18
  %26 = getelementptr inbounds %"class.std::__1::basic_string", %"class.std::__1::basic_string"* %20, i64 0, i32 0, i32 0, i32 0, i32 0, i32 0, i32 0
  %27 = load i8*, i8** %26, align 8
  tail call void @_ZdlPv(i8* %27) #14
  br label %28

28:                                               ; preds = %25, %18
  %29 = inttoptr i64 %11 to i8*
  tail call void @_ZdlPv(i8* %29) #14
  br label %30

30:                                               ; preds = %1, %10, %28
  ret void
}

; Function Attrs: nounwind ssp uwtable
define hidden void @_ZN8perfetto6protos21PerfEvents_TracepointD0Ev(%"class.perfetto::protos::PerfEvents_Tracepoint"*) unnamed_addr #0 align 2 {
  %2 = getelementptr inbounds %"class.perfetto::protos::PerfEvents_Tracepoint", %"class.perfetto::protos::PerfEvents_Tracepoint"* %0, i64 0, i32 0, i32 0
  store i32 (...)** bitcast (i8** getelementptr inbounds ({ [16 x i8*] }, { [16 x i8*] }* @_ZTVN8perfetto6protos21PerfEvents_TracepointE, i64 0, inrange i32 0, i64 2) to i32 (...)**), i32 (...)*** %2, align 8
  %3 = getelementptr inbounds %"class.perfetto::protos::PerfEvents_Tracepoint", %"class.perfetto::protos::PerfEvents_Tracepoint"* %0, i64 0, i32 3
  tail call void @_ZN6google8protobuf8internal14ArenaStringPtr14DestroyNoArenaEPKNSt3__112basic_stringIcNS3_11char_traitsIcEENS3_9allocatorIcEEEE(%"struct.google::protobuf::internal::ArenaStringPtr"* %3, %"class.std::__1::basic_string"* bitcast (%"class.google::protobuf::internal::ExplicitlyConstructed.5"* @_ZN6google8protobuf8internal26fixed_address_empty_stringE to %"class.std::__1::basic_string"*)) #13
  %4 = getelementptr inbounds %"class.perfetto::protos::PerfEvents_Tracepoint", %"class.perfetto::protos::PerfEvents_Tracepoint"* %0, i64 0, i32 4
  tail call void @_ZN6google8protobuf8internal14ArenaStringPtr14DestroyNoArenaEPKNSt3__112basic_stringIcNS3_11char_traitsIcEENS3_9allocatorIcEEEE(%"struct.google::protobuf::internal::ArenaStringPtr"* %4, %"class.std::__1::basic_string"* bitcast (%"class.google::protobuf::internal::ExplicitlyConstructed.5"* @_ZN6google8protobuf8internal26fixed_address_empty_stringE to %"class.std::__1::basic_string"*)) #13
  %5 = getelementptr inbounds %"class.perfetto::protos::PerfEvents_Tracepoint", %"class.perfetto::protos::PerfEvents_Tracepoint"* %0, i64 0, i32 0, i32 1
  %6 = bitcast %"class.google::protobuf::internal::InternalMetadata"* %5 to i64*
  %7 = load i64, i64* %6, align 8
  %8 = and i64 %7, 1
  %9 = icmp eq i64 %8, 0
  br i1 %9, label %30, label %10

10:                                               ; preds = %1
  %11 = and i64 %7, -2
  %12 = inttoptr i64 %11 to %"struct.google::protobuf::internal::InternalMetadata::ContainerBase"*
  %13 = getelementptr inbounds %"struct.google::protobuf::internal::InternalMetadata::ContainerBase", %"struct.google::protobuf::internal::InternalMetadata::ContainerBase"* %12, i64 0, i32 0
  %14 = load %"class.google::protobuf::Arena"*, %"class.google::protobuf::Arena"** %13, align 8
  %15 = icmp ne %"class.google::protobuf::Arena"* %14, null
  %16 = icmp eq i64 %11, 0
  %17 = or i1 %16, %15
  br i1 %17, label %30, label %18

18:                                               ; preds = %10
  %19 = inttoptr i64 %11 to %"struct.google::protobuf::internal::InternalMetadata::Container"*
  %20 = getelementptr inbounds %"struct.google::protobuf::internal::InternalMetadata::Container", %"struct.google::protobuf::internal::InternalMetadata::Container"* %19, i64 0, i32 1
  %21 = bitcast %"class.std::__1::basic_string"* %20 to %"struct.std::__1::basic_string<char, std::__1::char_traits<char>, std::__1::allocator<char> >::__short"*
  %22 = getelementptr inbounds %"struct.std::__1::basic_string<char, std::__1::char_traits<char>, std::__1::allocator<char> >::__short", %"struct.std::__1::basic_string<char, std::__1::char_traits<char>, std::__1::allocator<char> >::__short"* %21, i64 0, i32 1, i32 0
  %23 = load i8, i8* %22, align 1
  %24 = icmp slt i8 %23, 0
  br i1 %24, label %25, label %28

25:                                               ; preds = %18
  %26 = getelementptr inbounds %"class.std::__1::basic_string", %"class.std::__1::basic_string"* %20, i64 0, i32 0, i32 0, i32 0, i32 0, i32 0, i32 0
  %27 = load i8*, i8** %26, align 8
  tail call void @_ZdlPv(i8* %27) #14
  br label %28

28:                                               ; preds = %25, %18
  %29 = inttoptr i64 %11 to i8*
  tail call void @_ZdlPv(i8* %29) #14
  br label %30

30:                                               ; preds = %1, %10, %28
  %31 = bitcast %"class.perfetto::protos::PerfEvents_Tracepoint"* %0 to i8*
  tail call void @_ZdlPv(i8* %31) #14
  ret void
}

; Function Attrs: norecurse nounwind readnone ssp uwtable
define hidden void @_ZN8perfetto6protos21PerfEvents_Tracepoint9ArenaDtorEPv(i8* nocapture) local_unnamed_addr #1 align 2 {
  ret void
}

; Function Attrs: nofree norecurse nounwind ssp uwtable
define hidden void @_ZNK8perfetto6protos21PerfEvents_Tracepoint13SetCachedSizeEi(%"class.perfetto::protos::PerfEvents_Tracepoint"* nocapture, i32) local_unnamed_addr #7 align 2 {
  %3 = getelementptr inbounds %"class.perfetto::protos::PerfEvents_Tracepoint", %"class.perfetto::protos::PerfEvents_Tracepoint"* %0, i64 0, i32 2, i32 0, i32 0, i32 0, i32 0, i32 0, i32 0
  store atomic i32 %1, i32* %3 monotonic, align 4
  ret void
}

; Function Attrs: nounwind ssp uwtable
define hidden dereferenceable(40) %"class.perfetto::protos::PerfEvents_Tracepoint"* @_ZN8perfetto6protos21PerfEvents_Tracepoint16default_instanceEv() local_unnamed_addr #0 align 2 {
  %1 = load atomic i32, i32* getelementptr inbounds ({ { { { i32 } }, i32, i32, void ()* }, [0 x i8*] }, { { { { i32 } }, i32, i32, void ()* }, [0 x i8*] }* @scc_info_PerfEvents_Tracepoint_protos_2fperfetto_2fcommon_2fperf_5fevents_2eproto, i64 0, i32 0, i32 0, i32 0, i32 0) acquire, align 8
  %2 = icmp eq i32 %1, 0
  br i1 %2, label %4, label %3, !prof !2

3:                                                ; preds = %0
  tail call void @_ZN6google8protobuf8internal11InitSCCImplEPNS1_11SCCInfoBaseE(%"struct.google::protobuf::internal::SCCInfoBase"* bitcast ({ { { { i32 } }, i32, i32, void ()* }, [0 x i8*] }* @scc_info_PerfEvents_Tracepoint_protos_2fperfetto_2fcommon_2fperf_5fevents_2eproto to %"struct.google::protobuf::internal::SCCInfoBase"*)) #13
  br label %4

4:                                                ; preds = %0, %3
  ret %"class.perfetto::protos::PerfEvents_Tracepoint"* bitcast (%"class.perfetto::protos::PerfEvents_TracepointDefaultTypeInternal"* @_ZN8perfetto6protos40_PerfEvents_Tracepoint_default_instance_E to %"class.perfetto::protos::PerfEvents_Tracepoint"*)
}

; Function Attrs: nofree norecurse nounwind ssp uwtable
define hidden void @_ZN8perfetto6protos21PerfEvents_Tracepoint5ClearEv(%"class.perfetto::protos::PerfEvents_Tracepoint"* nocapture) unnamed_addr #7 align 2 {
  %2 = getelementptr inbounds %"class.perfetto::protos::PerfEvents_Tracepoint", %"class.perfetto::protos::PerfEvents_Tracepoint"* %0, i64 0, i32 1, i32 0, i64 0
  %3 = load i32, i32* %2, align 4
  %4 = and i32 %3, 3
  %5 = icmp eq i32 %4, 0
  br i1 %5, label %38, label %6

6:                                                ; preds = %1
  %7 = and i32 %3, 1
  %8 = icmp eq i32 %7, 0
  br i1 %8, label %22, label %9

9:                                                ; preds = %6
  %10 = getelementptr inbounds %"class.perfetto::protos::PerfEvents_Tracepoint", %"class.perfetto::protos::PerfEvents_Tracepoint"* %0, i64 0, i32 3, i32 0
  %11 = load %"class.std::__1::basic_string"*, %"class.std::__1::basic_string"** %10, align 8
  %12 = bitcast %"class.std::__1::basic_string"* %11 to %"struct.std::__1::basic_string<char, std::__1::char_traits<char>, std::__1::allocator<char> >::__short"*
  %13 = getelementptr inbounds %"struct.std::__1::basic_string<char, std::__1::char_traits<char>, std::__1::allocator<char> >::__short", %"struct.std::__1::basic_string<char, std::__1::char_traits<char>, std::__1::allocator<char> >::__short"* %12, i64 0, i32 1, i32 0
  %14 = load i8, i8* %13, align 1
  %15 = icmp slt i8 %14, 0
  br i1 %15, label %16, label %20

16:                                               ; preds = %9
  %17 = getelementptr inbounds %"class.std::__1::basic_string", %"class.std::__1::basic_string"* %11, i64 0, i32 0, i32 0, i32 0, i32 0, i32 0, i32 0
  %18 = load i8*, i8** %17, align 8
  store i8 0, i8* %18, align 1
  %19 = getelementptr inbounds %"class.std::__1::basic_string", %"class.std::__1::basic_string"* %11, i64 0, i32 0, i32 0, i32 0, i32 0, i32 0, i32 1
  store i64 0, i64* %19, align 8
  br label %22

20:                                               ; preds = %9
  %21 = bitcast %"class.std::__1::basic_string"* %11 to i8*
  store i8 0, i8* %21, align 1
  store i8 0, i8* %13, align 1
  br label %22

22:                                               ; preds = %20, %16, %6
  %23 = and i32 %3, 2
  %24 = icmp eq i32 %23, 0
  br i1 %24, label %38, label %25

25:                                               ; preds = %22
  %26 = getelementptr inbounds %"class.perfetto::protos::PerfEvents_Tracepoint", %"class.perfetto::protos::PerfEvents_Tracepoint"* %0, i64 0, i32 4, i32 0
  %27 = load %"class.std::__1::basic_string"*, %"class.std::__1::basic_string"** %26, align 8
  %28 = bitcast %"class.std::__1::basic_string"* %27 to %"struct.std::__1::basic_string<char, std::__1::char_traits<char>, std::__1::allocator<char> >::__short"*
  %29 = getelementptr inbounds %"struct.std::__1::basic_string<char, std::__1::char_traits<char>, std::__1::allocator<char> >::__short", %"struct.std::__1::basic_string<char, std::__1::char_traits<char>, std::__1::allocator<char> >::__short"* %28, i64 0, i32 1, i32 0
  %30 = load i8, i8* %29, align 1
  %31 = icmp slt i8 %30, 0
  br i1 %31, label %32, label %36

32:                                               ; preds = %25
  %33 = getelementptr inbounds %"class.std::__1::basic_string", %"class.std::__1::basic_string"* %27, i64 0, i32 0, i32 0, i32 0, i32 0, i32 0, i32 0
  %34 = load i8*, i8** %33, align 8
  store i8 0, i8* %34, align 1
  %35 = getelementptr inbounds %"class.std::__1::basic_string", %"class.std::__1::basic_string"* %27, i64 0, i32 0, i32 0, i32 0, i32 0, i32 0, i32 1
  store i64 0, i64* %35, align 8
  br label %38

36:                                               ; preds = %25
  %37 = bitcast %"class.std::__1::basic_string"* %27 to i8*
  store i8 0, i8* %37, align 1
  store i8 0, i8* %29, align 1
  br label %38

38:                                               ; preds = %36, %32, %22, %1
  store i32 0, i32* %2, align 4
  %39 = getelementptr inbounds %"class.perfetto::protos::PerfEvents_Tracepoint", %"class.perfetto::protos::PerfEvents_Tracepoint"* %0, i64 0, i32 0, i32 1
  %40 = bitcast %"class.google::protobuf::internal::InternalMetadata"* %39 to i64*
  %41 = load i64, i64* %40, align 8
  %42 = and i64 %41, 1
  %43 = icmp eq i64 %42, 0
  br i1 %43, label %58, label %44

44:                                               ; preds = %38
  %45 = and i64 %41, -2
  %46 = inttoptr i64 %45 to %"struct.google::protobuf::internal::InternalMetadata::Container"*
  %47 = getelementptr inbounds %"struct.google::protobuf::internal::InternalMetadata::Container", %"struct.google::protobuf::internal::InternalMetadata::Container"* %46, i64 0, i32 1
  %48 = bitcast %"class.std::__1::basic_string"* %47 to %"struct.std::__1::basic_string<char, std::__1::char_traits<char>, std::__1::allocator<char> >::__short"*
  %49 = getelementptr inbounds %"struct.std::__1::basic_string<char, std::__1::char_traits<char>, std::__1::allocator<char> >::__short", %"struct.std::__1::basic_string<char, std::__1::char_traits<char>, std::__1::allocator<char> >::__short"* %48, i64 0, i32 1, i32 0
  %50 = load i8, i8* %49, align 1
  %51 = icmp slt i8 %50, 0
  br i1 %51, label %52, label %56

52:                                               ; preds = %44
  %53 = getelementptr inbounds %"class.std::__1::basic_string", %"class.std::__1::basic_string"* %47, i64 0, i32 0, i32 0, i32 0, i32 0, i32 0, i32 0
  %54 = load i8*, i8** %53, align 8
  store i8 0, i8* %54, align 1
  %55 = getelementptr inbounds %"struct.google::protobuf::internal::InternalMetadata::Container", %"struct.google::protobuf::internal::InternalMetadata::Container"* %46, i64 0, i32 1, i32 0, i32 0, i32 0, i32 0, i32 0, i32 1
  store i64 0, i64* %55, align 8
  br label %58

56:                                               ; preds = %44
  %57 = bitcast %"class.std::__1::basic_string"* %47 to i8*
  store i8 0, i8* %57, align 2
  store i8 0, i8* %49, align 1
  br label %58

58:                                               ; preds = %38, %52, %56
  ret void
}

; Function Attrs: nounwind ssp uwtable
define hidden i8* @_ZN8perfetto6protos21PerfEvents_Tracepoint14_InternalParseEPKcPN6google8protobuf8internal12ParseContextE(%"class.perfetto::protos::PerfEvents_Tracepoint"*, i8*, %"class.google::protobuf::internal::ParseContext"*) unnamed_addr #0 align 2 {
  %4 = getelementptr inbounds %"class.google::protobuf::internal::ParseContext", %"class.google::protobuf::internal::ParseContext"* %2, i64 0, i32 0
  %5 = getelementptr inbounds %"class.google::protobuf::internal::ParseContext", %"class.google::protobuf::internal::ParseContext"* %2, i64 0, i32 2
  %6 = getelementptr inbounds %"class.google::protobuf::internal::ParseContext", %"class.google::protobuf::internal::ParseContext"* %2, i64 0, i32 0, i32 0
  %7 = getelementptr inbounds %"class.google::protobuf::internal::ParseContext", %"class.google::protobuf::internal::ParseContext"* %2, i64 0, i32 0, i32 1
  %8 = bitcast i8** %7 to i64*
  %9 = getelementptr inbounds %"class.google::protobuf::internal::ParseContext", %"class.google::protobuf::internal::ParseContext"* %2, i64 0, i32 0, i32 4
  %10 = getelementptr inbounds %"class.perfetto::protos::PerfEvents_Tracepoint", %"class.perfetto::protos::PerfEvents_Tracepoint"* %0, i64 0, i32 1, i32 0, i64 0
  %11 = getelementptr inbounds %"class.perfetto::protos::PerfEvents_Tracepoint", %"class.perfetto::protos::PerfEvents_Tracepoint"* %0, i64 0, i32 4
  %12 = getelementptr inbounds %"class.perfetto::protos::PerfEvents_Tracepoint", %"class.perfetto::protos::PerfEvents_Tracepoint"* %0, i64 0, i32 0, i32 1
  %13 = bitcast %"class.google::protobuf::internal::InternalMetadata"* %12 to i64*
  %14 = getelementptr inbounds %"struct.google::protobuf::internal::ArenaStringPtr", %"struct.google::protobuf::internal::ArenaStringPtr"* %11, i64 0, i32 0
  %15 = getelementptr inbounds %"class.perfetto::protos::PerfEvents_Tracepoint", %"class.perfetto::protos::PerfEvents_Tracepoint"* %0, i64 0, i32 3
  %16 = getelementptr inbounds %"struct.google::protobuf::internal::ArenaStringPtr", %"struct.google::protobuf::internal::ArenaStringPtr"* %15, i64 0, i32 0
  br label %17

17:                                               ; preds = %112, %3
  %18 = phi i8* [ %1, %3 ], [ %113, %112 ]
  %19 = load i32, i32* %5, align 4
  %20 = load i8*, i8** %6, align 8
  %21 = icmp ult i8* %18, %20
  br i1 %21, label %35, label %22, !prof !2

22:                                               ; preds = %17
  %23 = load i64, i64* %8, align 8
  %24 = ptrtoint i8* %18 to i64
  %25 = sub i64 %24, %23
  %26 = load i32, i32* %9, align 4
  %27 = sext i32 %26 to i64
  %28 = icmp eq i64 %25, %27
  br i1 %28, label %136, label %29

29:                                               ; preds = %22
  %30 = tail call { i8*, i8 } @_ZN6google8protobuf8internal18EpsCopyInputStream12DoneFallbackEPKci(%"class.google::protobuf::internal::EpsCopyInputStream"* %4, i8* %18, i32 %19) #13
  %31 = extractvalue { i8*, i8 } %30, 0
  %32 = extractvalue { i8*, i8 } %30, 1
  %33 = and i8 %32, 1
  %34 = icmp eq i8 %33, 0
  br i1 %34, label %35, label %136

35:                                               ; preds = %29, %17
  %36 = phi i8* [ %31, %29 ], [ %18, %17 ]
  %37 = load i8, i8* %36, align 1
  %38 = zext i8 %37 to i32
  %39 = icmp sgt i8 %37, -1
  %40 = getelementptr inbounds i8, i8* %36, i64 1
  br i1 %39, label %54, label %41

41:                                               ; preds = %35
  %42 = load i8, i8* %40, align 1
  %43 = zext i8 %42 to i32
  %44 = shl nuw nsw i32 %43, 7
  %45 = add nsw i32 %38, -128
  %46 = add nsw i32 %45, %44
  %47 = icmp sgt i8 %42, -1
  br i1 %47, label %48, label %50

48:                                               ; preds = %41
  %49 = getelementptr inbounds i8, i8* %36, i64 2
  br label %54

50:                                               ; preds = %41
  %51 = tail call { i8*, i32 } @_ZN6google8protobuf8internal15ReadTagFallbackEPKcj(i8* %36, i32 %46) #13
  %52 = extractvalue { i8*, i32 } %51, 0
  %53 = extractvalue { i8*, i32 } %51, 1
  br label %54

54:                                               ; preds = %35, %48, %50
  %55 = phi i32 [ %46, %48 ], [ %53, %50 ], [ %38, %35 ]
  %56 = phi i8* [ %49, %48 ], [ %52, %50 ], [ %40, %35 ]
  %57 = icmp eq i8* %56, null
  br i1 %57, label %136, label %58, !prof !4

58:                                               ; preds = %54
  %59 = lshr i32 %55, 3
  switch i32 %59, label %114 [
    i32 1, label %60
    i32 2, label %86
  ]

60:                                               ; preds = %58
  %61 = and i32 %55, 255
  %62 = icmp eq i32 %61, 10
  br i1 %62, label %63, label %114, !prof !2

63:                                               ; preds = %60
  %64 = load i32, i32* %10, align 4
  %65 = or i32 %64, 1
  store i32 %65, i32* %10, align 4
  %66 = load i64, i64* %13, align 8
  %67 = and i64 %66, 1
  %68 = icmp eq i64 %67, 0
  %69 = and i64 %66, -2
  br i1 %68, label %74, label %70, !prof !2

70:                                               ; preds = %63
  %71 = inttoptr i64 %69 to %"struct.google::protobuf::internal::InternalMetadata::ContainerBase"*
  %72 = getelementptr inbounds %"struct.google::protobuf::internal::InternalMetadata::ContainerBase", %"struct.google::protobuf::internal::InternalMetadata::ContainerBase"* %71, i64 0, i32 0
  %73 = load %"class.google::protobuf::Arena"*, %"class.google::protobuf::Arena"** %72, align 8
  br label %76

74:                                               ; preds = %63
  %75 = inttoptr i64 %69 to %"class.google::protobuf::Arena"*
  br label %76

76:                                               ; preds = %74, %70
  %77 = phi %"class.google::protobuf::Arena"* [ %73, %70 ], [ %75, %74 ]
  %78 = load %"class.std::__1::basic_string"*, %"class.std::__1::basic_string"** %16, align 8
  %79 = icmp eq %"class.std::__1::basic_string"* %78, bitcast (%"class.google::protobuf::internal::ExplicitlyConstructed.5"* @_ZN6google8protobuf8internal26fixed_address_empty_stringE to %"class.std::__1::basic_string"*)
  br i1 %79, label %80, label %82

80:                                               ; preds = %76
  tail call void @_ZN6google8protobuf8internal14ArenaStringPtr14CreateInstanceEPNS0_5ArenaEPKNSt3__112basic_stringIcNS5_11char_traitsIcEENS5_9allocatorIcEEEE(%"struct.google::protobuf::internal::ArenaStringPtr"* %15, %"class.google::protobuf::Arena"* %77, %"class.std::__1::basic_string"* bitcast (%"class.google::protobuf::internal::ExplicitlyConstructed.5"* @_ZN6google8protobuf8internal26fixed_address_empty_stringE to %"class.std::__1::basic_string"*)) #13
  %81 = load %"class.std::__1::basic_string"*, %"class.std::__1::basic_string"** %16, align 8
  br label %82

82:                                               ; preds = %76, %80
  %83 = phi %"class.std::__1::basic_string"* [ %81, %80 ], [ %78, %76 ]
  %84 = tail call i8* @_ZN6google8protobuf8internal24InlineGreedyStringParserEPNSt3__112basic_stringIcNS2_11char_traitsIcEENS2_9allocatorIcEEEEPKcPNS1_12ParseContextE(%"class.std::__1::basic_string"* %83, i8* nonnull %56, %"class.google::protobuf::internal::ParseContext"* %2) #13
  %85 = icmp eq i8* %84, null
  br i1 %85, label %136, label %112

86:                                               ; preds = %58
  %87 = and i32 %55, 255
  %88 = icmp eq i32 %87, 18
  br i1 %88, label %89, label %114, !prof !2

89:                                               ; preds = %86
  %90 = load i32, i32* %10, align 4
  %91 = or i32 %90, 2
  store i32 %91, i32* %10, align 4
  %92 = load i64, i64* %13, align 8
  %93 = and i64 %92, 1
  %94 = icmp eq i64 %93, 0
  %95 = and i64 %92, -2
  br i1 %94, label %100, label %96, !prof !2

96:                                               ; preds = %89
  %97 = inttoptr i64 %95 to %"struct.google::protobuf::internal::InternalMetadata::ContainerBase"*
  %98 = getelementptr inbounds %"struct.google::protobuf::internal::InternalMetadata::ContainerBase", %"struct.google::protobuf::internal::InternalMetadata::ContainerBase"* %97, i64 0, i32 0
  %99 = load %"class.google::protobuf::Arena"*, %"class.google::protobuf::Arena"** %98, align 8
  br label %102

100:                                              ; preds = %89
  %101 = inttoptr i64 %95 to %"class.google::protobuf::Arena"*
  br label %102

102:                                              ; preds = %100, %96
  %103 = phi %"class.google::protobuf::Arena"* [ %99, %96 ], [ %101, %100 ]
  %104 = load %"class.std::__1::basic_string"*, %"class.std::__1::basic_string"** %14, align 8
  %105 = icmp eq %"class.std::__1::basic_string"* %104, bitcast (%"class.google::protobuf::internal::ExplicitlyConstructed.5"* @_ZN6google8protobuf8internal26fixed_address_empty_stringE to %"class.std::__1::basic_string"*)
  br i1 %105, label %106, label %108

106:                                              ; preds = %102
  tail call void @_ZN6google8protobuf8internal14ArenaStringPtr14CreateInstanceEPNS0_5ArenaEPKNSt3__112basic_stringIcNS5_11char_traitsIcEENS5_9allocatorIcEEEE(%"struct.google::protobuf::internal::ArenaStringPtr"* %11, %"class.google::protobuf::Arena"* %103, %"class.std::__1::basic_string"* bitcast (%"class.google::protobuf::internal::ExplicitlyConstructed.5"* @_ZN6google8protobuf8internal26fixed_address_empty_stringE to %"class.std::__1::basic_string"*)) #13
  %107 = load %"class.std::__1::basic_string"*, %"class.std::__1::basic_string"** %14, align 8
  br label %108

108:                                              ; preds = %102, %106
  %109 = phi %"class.std::__1::basic_string"* [ %107, %106 ], [ %104, %102 ]
  %110 = tail call i8* @_ZN6google8protobuf8internal24InlineGreedyStringParserEPNSt3__112basic_stringIcNS2_11char_traitsIcEENS2_9allocatorIcEEEEPKcPNS1_12ParseContextE(%"class.std::__1::basic_string"* %109, i8* nonnull %56, %"class.google::protobuf::internal::ParseContext"* %2) #13
  %111 = icmp eq i8* %110, null
  br i1 %111, label %136, label %112

112:                                              ; preds = %108, %82, %132
  %113 = phi i8* [ %134, %132 ], [ %84, %82 ], [ %110, %108 ]
  br label %17

114:                                              ; preds = %58, %86, %60
  %115 = and i32 %55, 7
  %116 = icmp eq i32 %115, 4
  %117 = icmp eq i32 %55, 0
  %118 = or i1 %117, %116
  br i1 %118, label %119, label %122

119:                                              ; preds = %114
  %120 = add i32 %55, -1
  %121 = getelementptr inbounds %"class.google::protobuf::internal::ParseContext", %"class.google::protobuf::internal::ParseContext"* %2, i64 0, i32 0, i32 8
  store i32 %120, i32* %121, align 8
  br label %136

122:                                              ; preds = %114
  %123 = load i64, i64* %13, align 8
  %124 = and i64 %123, 1
  %125 = icmp eq i64 %124, 0
  br i1 %125, label %130, label %126, !prof !4

126:                                              ; preds = %122
  %127 = and i64 %123, -2
  %128 = inttoptr i64 %127 to %"struct.google::protobuf::internal::InternalMetadata::Container"*
  %129 = getelementptr inbounds %"struct.google::protobuf::internal::InternalMetadata::Container", %"struct.google::protobuf::internal::InternalMetadata::Container"* %128, i64 0, i32 1
  br label %132

130:                                              ; preds = %122
  %131 = tail call %"class.std::__1::basic_string"* @_ZN6google8protobuf8internal16InternalMetadata27mutable_unknown_fields_slowINSt3__112basic_stringIcNS4_11char_traitsIcEENS4_9allocatorIcEEEEEEPT_v(%"class.google::protobuf::internal::InternalMetadata"* %12) #13
  br label %132

132:                                              ; preds = %126, %130
  %133 = phi %"class.std::__1::basic_string"* [ %129, %126 ], [ %131, %130 ]
  %134 = tail call i8* @_ZN6google8protobuf8internal17UnknownFieldParseEjPNSt3__112basic_stringIcNS2_11char_traitsIcEENS2_9allocatorIcEEEEPKcPNS1_12ParseContextE(i32 %55, %"class.std::__1::basic_string"* %133, i8* nonnull %56, %"class.google::protobuf::internal::ParseContext"* %2) #13
  %135 = icmp eq i8* %134, null
  br i1 %135, label %136, label %112

136:                                              ; preds = %108, %82, %22, %132, %54, %29, %119
  %137 = phi i8* [ %56, %119 ], [ null, %108 ], [ null, %82 ], [ null, %54 ], [ null, %132 ], [ %18, %22 ], [ %31, %29 ]
  ret i8* %137
}

declare i8* @_ZN6google8protobuf8internal24InlineGreedyStringParserEPNSt3__112basic_stringIcNS2_11char_traitsIcEENS2_9allocatorIcEEEEPKcPNS1_12ParseContextE(%"class.std::__1::basic_string"*, i8*, %"class.google::protobuf::internal::ParseContext"*) local_unnamed_addr #4

; Function Attrs: nounwind ssp uwtable
define hidden i8* @_ZNK8perfetto6protos21PerfEvents_Tracepoint18_InternalSerializeEPhPN6google8protobuf2io19EpsCopyOutputStreamE(%"class.perfetto::protos::PerfEvents_Tracepoint"* nocapture readonly, i8*, %"class.google::protobuf::io::EpsCopyOutputStream"*) unnamed_addr #0 align 2 {
  %4 = getelementptr inbounds %"class.perfetto::protos::PerfEvents_Tracepoint", %"class.perfetto::protos::PerfEvents_Tracepoint"* %0, i64 0, i32 1, i32 0, i64 0
  %5 = load i32, i32* %4, align 4
  %6 = and i32 %5, 1
  %7 = icmp eq i32 %6, 0
  br i1 %7, label %42, label %8

8:                                                ; preds = %3
  %9 = getelementptr inbounds %"class.perfetto::protos::PerfEvents_Tracepoint", %"class.perfetto::protos::PerfEvents_Tracepoint"* %0, i64 0, i32 3, i32 0
  %10 = load %"class.std::__1::basic_string"*, %"class.std::__1::basic_string"** %9, align 8
  %11 = bitcast %"class.std::__1::basic_string"* %10 to %"struct.std::__1::basic_string<char, std::__1::char_traits<char>, std::__1::allocator<char> >::__short"*
  %12 = getelementptr inbounds %"struct.std::__1::basic_string<char, std::__1::char_traits<char>, std::__1::allocator<char> >::__short", %"struct.std::__1::basic_string<char, std::__1::char_traits<char>, std::__1::allocator<char> >::__short"* %11, i64 0, i32 1, i32 0
  %13 = load i8, i8* %12, align 1
  %14 = icmp slt i8 %13, 0
  br i1 %14, label %17, label %15

15:                                               ; preds = %8
  %16 = zext i8 %13 to i64
  br label %21

17:                                               ; preds = %8
  %18 = getelementptr inbounds %"class.std::__1::basic_string", %"class.std::__1::basic_string"* %10, i64 0, i32 0, i32 0, i32 0, i32 0, i32 0, i32 1
  %19 = load i64, i64* %18, align 8
  %20 = icmp sgt i64 %19, 127
  br i1 %20, label %29, label %21, !prof !4

21:                                               ; preds = %17, %15
  %22 = phi i64 [ %16, %15 ], [ %19, %17 ]
  %23 = bitcast %"class.google::protobuf::io::EpsCopyOutputStream"* %2 to i64*
  %24 = load i64, i64* %23, align 8
  %25 = ptrtoint i8* %1 to i64
  %26 = sub i64 14, %25
  %27 = add i64 %26, %24
  %28 = icmp slt i64 %27, %22
  br i1 %28, label %29, label %31, !prof !4

29:                                               ; preds = %21, %17
  %30 = tail call i8* @_ZN6google8protobuf2io19EpsCopyOutputStream30WriteStringMaybeAliasedOutlineEjRKNSt3__112basic_stringIcNS3_11char_traitsIcEENS3_9allocatorIcEEEEPh(%"class.google::protobuf::io::EpsCopyOutputStream"* %2, i32 1, %"class.std::__1::basic_string"* dereferenceable(24) %10, i8* %1) #13
  br label %42

31:                                               ; preds = %21
  store i8 10, i8* %1, align 1
  %32 = getelementptr inbounds i8, i8* %1, i64 1
  %33 = trunc i64 %22 to i8
  %34 = getelementptr inbounds i8, i8* %1, i64 2
  store i8 %33, i8* %32, align 1
  %35 = load i8, i8* %12, align 1
  %36 = icmp slt i8 %35, 0
  %37 = getelementptr inbounds %"class.std::__1::basic_string", %"class.std::__1::basic_string"* %10, i64 0, i32 0, i32 0, i32 0, i32 0, i32 0, i32 0
  %38 = load i8*, i8** %37, align 8
  %39 = bitcast %"class.std::__1::basic_string"* %10 to i8*
  %40 = select i1 %36, i8* %38, i8* %39
  tail call void @llvm.memcpy.p0i8.p0i8.i64(i8* align 1 %34, i8* align 1 %40, i64 %22, i1 false) #13
  %41 = getelementptr inbounds i8, i8* %34, i64 %22
  br label %42

42:                                               ; preds = %31, %29, %3
  %43 = phi i8* [ %1, %3 ], [ %30, %29 ], [ %41, %31 ]
  %44 = and i32 %5, 2
  %45 = icmp eq i32 %44, 0
  br i1 %45, label %80, label %46

46:                                               ; preds = %42
  %47 = getelementptr inbounds %"class.perfetto::protos::PerfEvents_Tracepoint", %"class.perfetto::protos::PerfEvents_Tracepoint"* %0, i64 0, i32 4, i32 0
  %48 = load %"class.std::__1::basic_string"*, %"class.std::__1::basic_string"** %47, align 8
  %49 = bitcast %"class.std::__1::basic_string"* %48 to %"struct.std::__1::basic_string<char, std::__1::char_traits<char>, std::__1::allocator<char> >::__short"*
  %50 = getelementptr inbounds %"struct.std::__1::basic_string<char, std::__1::char_traits<char>, std::__1::allocator<char> >::__short", %"struct.std::__1::basic_string<char, std::__1::char_traits<char>, std::__1::allocator<char> >::__short"* %49, i64 0, i32 1, i32 0
  %51 = load i8, i8* %50, align 1
  %52 = icmp slt i8 %51, 0
  br i1 %52, label %55, label %53

53:                                               ; preds = %46
  %54 = zext i8 %51 to i64
  br label %59

55:                                               ; preds = %46
  %56 = getelementptr inbounds %"class.std::__1::basic_string", %"class.std::__1::basic_string"* %48, i64 0, i32 0, i32 0, i32 0, i32 0, i32 0, i32 1
  %57 = load i64, i64* %56, align 8
  %58 = icmp sgt i64 %57, 127
  br i1 %58, label %67, label %59, !prof !4

59:                                               ; preds = %55, %53
  %60 = phi i64 [ %54, %53 ], [ %57, %55 ]
  %61 = bitcast %"class.google::protobuf::io::EpsCopyOutputStream"* %2 to i64*
  %62 = load i64, i64* %61, align 8
  %63 = ptrtoint i8* %43 to i64
  %64 = sub i64 14, %63
  %65 = add i64 %64, %62
  %66 = icmp slt i64 %65, %60
  br i1 %66, label %67, label %69, !prof !4

67:                                               ; preds = %59, %55
  %68 = tail call i8* @_ZN6google8protobuf2io19EpsCopyOutputStream30WriteStringMaybeAliasedOutlineEjRKNSt3__112basic_stringIcNS3_11char_traitsIcEENS3_9allocatorIcEEEEPh(%"class.google::protobuf::io::EpsCopyOutputStream"* %2, i32 2, %"class.std::__1::basic_string"* dereferenceable(24) %48, i8* %43) #13
  br label %80

69:                                               ; preds = %59
  store i8 18, i8* %43, align 1
  %70 = getelementptr inbounds i8, i8* %43, i64 1
  %71 = trunc i64 %60 to i8
  %72 = getelementptr inbounds i8, i8* %43, i64 2
  store i8 %71, i8* %70, align 1
  %73 = load i8, i8* %50, align 1
  %74 = icmp slt i8 %73, 0
  %75 = getelementptr inbounds %"class.std::__1::basic_string", %"class.std::__1::basic_string"* %48, i64 0, i32 0, i32 0, i32 0, i32 0, i32 0, i32 0
  %76 = load i8*, i8** %75, align 8
  %77 = bitcast %"class.std::__1::basic_string"* %48 to i8*
  %78 = select i1 %74, i8* %76, i8* %77
  tail call void @llvm.memcpy.p0i8.p0i8.i64(i8* align 1 %72, i8* align 1 %78, i64 %60, i1 false) #13
  %79 = getelementptr inbounds i8, i8* %72, i64 %60
  br label %80

80:                                               ; preds = %69, %67, %42
  %81 = phi i8* [ %43, %42 ], [ %68, %67 ], [ %79, %69 ]
  %82 = getelementptr inbounds %"class.perfetto::protos::PerfEvents_Tracepoint", %"class.perfetto::protos::PerfEvents_Tracepoint"* %0, i64 0, i32 0, i32 1
  %83 = bitcast %"class.google::protobuf::internal::InternalMetadata"* %82 to i64*
  %84 = load i64, i64* %83, align 8
  %85 = and i64 %84, 1
  %86 = icmp eq i64 %85, 0
  br i1 %86, label %118, label %87, !prof !2

87:                                               ; preds = %80
  %88 = and i64 %84, -2
  %89 = inttoptr i64 %88 to %"struct.google::protobuf::internal::InternalMetadata::Container"*
  %90 = getelementptr inbounds %"struct.google::protobuf::internal::InternalMetadata::Container", %"struct.google::protobuf::internal::InternalMetadata::Container"* %89, i64 0, i32 1
  %91 = bitcast %"class.std::__1::basic_string"* %90 to %"struct.std::__1::basic_string<char, std::__1::char_traits<char>, std::__1::allocator<char> >::__short"*
  %92 = getelementptr inbounds %"struct.std::__1::basic_string<char, std::__1::char_traits<char>, std::__1::allocator<char> >::__short", %"struct.std::__1::basic_string<char, std::__1::char_traits<char>, std::__1::allocator<char> >::__short"* %91, i64 0, i32 1, i32 0
  %93 = load i8, i8* %92, align 1
  %94 = icmp slt i8 %93, 0
  br i1 %94, label %95, label %100

95:                                               ; preds = %87
  %96 = getelementptr inbounds %"class.std::__1::basic_string", %"class.std::__1::basic_string"* %90, i64 0, i32 0, i32 0, i32 0, i32 0, i32 0, i32 0
  %97 = load i8*, i8** %96, align 8
  %98 = getelementptr inbounds %"struct.google::protobuf::internal::InternalMetadata::Container", %"struct.google::protobuf::internal::InternalMetadata::Container"* %89, i64 0, i32 1, i32 0, i32 0, i32 0, i32 0, i32 0, i32 1
  %99 = load i64, i64* %98, align 8
  br label %103

100:                                              ; preds = %87
  %101 = bitcast %"class.std::__1::basic_string"* %90 to i8*
  %102 = zext i8 %93 to i64
  br label %103

103:                                              ; preds = %95, %100
  %104 = phi i8* [ %97, %95 ], [ %101, %100 ]
  %105 = phi i64 [ %99, %95 ], [ %102, %100 ]
  %106 = bitcast %"class.google::protobuf::io::EpsCopyOutputStream"* %2 to i64*
  %107 = load i64, i64* %106, align 8
  %108 = ptrtoint i8* %81 to i64
  %109 = sub i64 %107, %108
  %110 = shl i64 %105, 32
  %111 = ashr exact i64 %110, 32
  %112 = icmp slt i64 %109, %111
  br i1 %112, label %113, label %116, !prof !4

113:                                              ; preds = %103
  %114 = trunc i64 %105 to i32
  %115 = tail call i8* @_ZN6google8protobuf2io19EpsCopyOutputStream16WriteRawFallbackEPKviPh(%"class.google::protobuf::io::EpsCopyOutputStream"* %2, i8* %104, i32 %114, i8* %81) #13
  br label %118

116:                                              ; preds = %103
  tail call void @llvm.memcpy.p0i8.p0i8.i64(i8* align 1 %81, i8* align 1 %104, i64 %111, i1 false) #13
  %117 = getelementptr inbounds i8, i8* %81, i64 %111
  br label %118

118:                                              ; preds = %80, %116, %113
  %119 = phi i8* [ %81, %80 ], [ %115, %113 ], [ %117, %116 ]
  ret i8* %119
}

; Function Attrs: nounwind ssp uwtable
define hidden i64 @_ZNK8perfetto6protos21PerfEvents_Tracepoint12ByteSizeLongEv(%"class.perfetto::protos::PerfEvents_Tracepoint"* nocapture) unnamed_addr #0 align 2 {
  %2 = getelementptr inbounds %"class.perfetto::protos::PerfEvents_Tracepoint", %"class.perfetto::protos::PerfEvents_Tracepoint"* %0, i64 0, i32 1, i32 0, i64 0
  %3 = load i32, i32* %2, align 4
  %4 = and i32 %3, 3
  %5 = icmp eq i32 %4, 0
  br i1 %5, label %56, label %6

6:                                                ; preds = %1
  %7 = and i32 %3, 1
  %8 = icmp eq i32 %7, 0
  br i1 %8, label %30, label %9

9:                                                ; preds = %6
  %10 = getelementptr inbounds %"class.perfetto::protos::PerfEvents_Tracepoint", %"class.perfetto::protos::PerfEvents_Tracepoint"* %0, i64 0, i32 3, i32 0
  %11 = load %"class.std::__1::basic_string"*, %"class.std::__1::basic_string"** %10, align 8
  %12 = bitcast %"class.std::__1::basic_string"* %11 to %"struct.std::__1::basic_string<char, std::__1::char_traits<char>, std::__1::allocator<char> >::__short"*
  %13 = getelementptr inbounds %"struct.std::__1::basic_string<char, std::__1::char_traits<char>, std::__1::allocator<char> >::__short", %"struct.std::__1::basic_string<char, std::__1::char_traits<char>, std::__1::allocator<char> >::__short"* %12, i64 0, i32 1, i32 0
  %14 = load i8, i8* %13, align 1
  %15 = icmp slt i8 %14, 0
  %16 = getelementptr inbounds %"class.std::__1::basic_string", %"class.std::__1::basic_string"* %11, i64 0, i32 0, i32 0, i32 0, i32 0, i32 0, i32 1
  %17 = load i64, i64* %16, align 8
  %18 = zext i8 %14 to i64
  %19 = select i1 %15, i64 %17, i64 %18
  %20 = trunc i64 %19 to i32
  %21 = or i32 %20, 1
  %22 = tail call i32 @llvm.ctlz.i32(i32 %21, i1 true) #13, !range !6
  %23 = xor i32 %22, 31
  %24 = mul nuw nsw i32 %23, 9
  %25 = add nuw nsw i32 %24, 73
  %26 = lshr i32 %25, 6
  %27 = zext i32 %26 to i64
  %28 = add i64 %19, 1
  %29 = add i64 %28, %27
  br label %30

30:                                               ; preds = %6, %9
  %31 = phi i64 [ %29, %9 ], [ 0, %6 ]
  %32 = and i32 %3, 2
  %33 = icmp eq i32 %32, 0
  br i1 %33, label %56, label %34

34:                                               ; preds = %30
  %35 = getelementptr inbounds %"class.perfetto::protos::PerfEvents_Tracepoint", %"class.perfetto::protos::PerfEvents_Tracepoint"* %0, i64 0, i32 4, i32 0
  %36 = load %"class.std::__1::basic_string"*, %"class.std::__1::basic_string"** %35, align 8
  %37 = bitcast %"class.std::__1::basic_string"* %36 to %"struct.std::__1::basic_string<char, std::__1::char_traits<char>, std::__1::allocator<char> >::__short"*
  %38 = getelementptr inbounds %"struct.std::__1::basic_string<char, std::__1::char_traits<char>, std::__1::allocator<char> >::__short", %"struct.std::__1::basic_string<char, std::__1::char_traits<char>, std::__1::allocator<char> >::__short"* %37, i64 0, i32 1, i32 0
  %39 = load i8, i8* %38, align 1
  %40 = icmp slt i8 %39, 0
  %41 = getelementptr inbounds %"class.std::__1::basic_string", %"class.std::__1::basic_string"* %36, i64 0, i32 0, i32 0, i32 0, i32 0, i32 0, i32 1
  %42 = load i64, i64* %41, align 8
  %43 = zext i8 %39 to i64
  %44 = select i1 %40, i64 %42, i64 %43
  %45 = trunc i64 %44 to i32
  %46 = or i32 %45, 1
  %47 = tail call i32 @llvm.ctlz.i32(i32 %46, i1 true) #13, !range !6
  %48 = xor i32 %47, 31
  %49 = mul nuw nsw i32 %48, 9
  %50 = add nuw nsw i32 %49, 73
  %51 = lshr i32 %50, 6
  %52 = zext i32 %51 to i64
  %53 = add i64 %31, 1
  %54 = add i64 %53, %44
  %55 = add i64 %54, %52
  br label %56

56:                                               ; preds = %30, %1, %34
  %57 = phi i64 [ %55, %34 ], [ %31, %30 ], [ 0, %1 ]
  %58 = getelementptr inbounds %"class.perfetto::protos::PerfEvents_Tracepoint", %"class.perfetto::protos::PerfEvents_Tracepoint"* %0, i64 0, i32 0, i32 1
  %59 = bitcast %"class.google::protobuf::internal::InternalMetadata"* %58 to i64*
  %60 = load i64, i64* %59, align 8
  %61 = and i64 %60, 1
  %62 = icmp eq i64 %61, 0
  br i1 %62, label %79, label %63, !prof !2

63:                                               ; preds = %56
  %64 = and i64 %60, -2
  %65 = inttoptr i64 %64 to %"struct.google::protobuf::internal::InternalMetadata::Container"*
  %66 = getelementptr inbounds %"struct.google::protobuf::internal::InternalMetadata::Container", %"struct.google::protobuf::internal::InternalMetadata::Container"* %65, i64 0, i32 1
  %67 = bitcast %"class.std::__1::basic_string"* %66 to %"struct.std::__1::basic_string<char, std::__1::char_traits<char>, std::__1::allocator<char> >::__short"*
  %68 = getelementptr inbounds %"struct.std::__1::basic_string<char, std::__1::char_traits<char>, std::__1::allocator<char> >::__short", %"struct.std::__1::basic_string<char, std::__1::char_traits<char>, std::__1::allocator<char> >::__short"* %67, i64 0, i32 1, i32 0
  %69 = load i8, i8* %68, align 1
  %70 = icmp slt i8 %69, 0
  br i1 %70, label %71, label %74

71:                                               ; preds = %63
  %72 = getelementptr inbounds %"struct.google::protobuf::internal::InternalMetadata::Container", %"struct.google::protobuf::internal::InternalMetadata::Container"* %65, i64 0, i32 1, i32 0, i32 0, i32 0, i32 0, i32 0, i32 1
  %73 = load i64, i64* %72, align 8
  br label %76

74:                                               ; preds = %63
  %75 = zext i8 %69 to i64
  br label %76

76:                                               ; preds = %71, %74
  %77 = phi i64 [ %73, %71 ], [ %75, %74 ]
  %78 = add i64 %77, %57
  br label %79

79:                                               ; preds = %56, %76
  %80 = phi i64 [ %78, %76 ], [ %57, %56 ]
  %81 = trunc i64 %80 to i32
  %82 = getelementptr inbounds %"class.perfetto::protos::PerfEvents_Tracepoint", %"class.perfetto::protos::PerfEvents_Tracepoint"* %0, i64 0, i32 2, i32 0, i32 0, i32 0, i32 0, i32 0, i32 0
  store atomic i32 %81, i32* %82 monotonic, align 4
  ret i64 %80
}

; Function Attrs: nounwind ssp uwtable
define hidden void @_ZN8perfetto6protos21PerfEvents_Tracepoint21CheckTypeAndMergeFromERKN6google8protobuf11MessageLiteE(%"class.perfetto::protos::PerfEvents_Tracepoint"*, %"class.google::protobuf::MessageLite"* nocapture readonly dereferenceable(16)) unnamed_addr #0 align 2 {
  %3 = bitcast %"class.google::protobuf::MessageLite"* %1 to %"class.perfetto::protos::PerfEvents_Tracepoint"*
  tail call void @_ZN8perfetto6protos21PerfEvents_Tracepoint9MergeFromERKS1_(%"class.perfetto::protos::PerfEvents_Tracepoint"* %0, %"class.perfetto::protos::PerfEvents_Tracepoint"* dereferenceable(40) %3)
  ret void
}

; Function Attrs: nounwind ssp uwtable
define hidden void @_ZN8perfetto6protos21PerfEvents_Tracepoint8CopyFromERKS1_(%"class.perfetto::protos::PerfEvents_Tracepoint"*, %"class.perfetto::protos::PerfEvents_Tracepoint"* readonly dereferenceable(40)) local_unnamed_addr #0 align 2 {
  %3 = icmp eq %"class.perfetto::protos::PerfEvents_Tracepoint"* %1, %0
  br i1 %3, label %62, label %4

4:                                                ; preds = %2
  %5 = getelementptr inbounds %"class.perfetto::protos::PerfEvents_Tracepoint", %"class.perfetto::protos::PerfEvents_Tracepoint"* %0, i64 0, i32 1, i32 0, i64 0
  %6 = load i32, i32* %5, align 4
  %7 = and i32 %6, 3
  %8 = icmp eq i32 %7, 0
  br i1 %8, label %41, label %9

9:                                                ; preds = %4
  %10 = and i32 %6, 1
  %11 = icmp eq i32 %10, 0
  br i1 %11, label %25, label %12

12:                                               ; preds = %9
  %13 = getelementptr inbounds %"class.perfetto::protos::PerfEvents_Tracepoint", %"class.perfetto::protos::PerfEvents_Tracepoint"* %0, i64 0, i32 3, i32 0
  %14 = load %"class.std::__1::basic_string"*, %"class.std::__1::basic_string"** %13, align 8
  %15 = bitcast %"class.std::__1::basic_string"* %14 to %"struct.std::__1::basic_string<char, std::__1::char_traits<char>, std::__1::allocator<char> >::__short"*
  %16 = getelementptr inbounds %"struct.std::__1::basic_string<char, std::__1::char_traits<char>, std::__1::allocator<char> >::__short", %"struct.std::__1::basic_string<char, std::__1::char_traits<char>, std::__1::allocator<char> >::__short"* %15, i64 0, i32 1, i32 0
  %17 = load i8, i8* %16, align 1
  %18 = icmp slt i8 %17, 0
  br i1 %18, label %19, label %23

19:                                               ; preds = %12
  %20 = getelementptr inbounds %"class.std::__1::basic_string", %"class.std::__1::basic_string"* %14, i64 0, i32 0, i32 0, i32 0, i32 0, i32 0, i32 0
  %21 = load i8*, i8** %20, align 8
  store i8 0, i8* %21, align 1
  %22 = getelementptr inbounds %"class.std::__1::basic_string", %"class.std::__1::basic_string"* %14, i64 0, i32 0, i32 0, i32 0, i32 0, i32 0, i32 1
  store i64 0, i64* %22, align 8
  br label %25

23:                                               ; preds = %12
  %24 = bitcast %"class.std::__1::basic_string"* %14 to i8*
  store i8 0, i8* %24, align 1
  store i8 0, i8* %16, align 1
  br label %25

25:                                               ; preds = %23, %19, %9
  %26 = and i32 %6, 2
  %27 = icmp eq i32 %26, 0
  br i1 %27, label %41, label %28

28:                                               ; preds = %25
  %29 = getelementptr inbounds %"class.perfetto::protos::PerfEvents_Tracepoint", %"class.perfetto::protos::PerfEvents_Tracepoint"* %0, i64 0, i32 4, i32 0
  %30 = load %"class.std::__1::basic_string"*, %"class.std::__1::basic_string"** %29, align 8
  %31 = bitcast %"class.std::__1::basic_string"* %30 to %"struct.std::__1::basic_string<char, std::__1::char_traits<char>, std::__1::allocator<char> >::__short"*
  %32 = getelementptr inbounds %"struct.std::__1::basic_string<char, std::__1::char_traits<char>, std::__1::allocator<char> >::__short", %"struct.std::__1::basic_string<char, std::__1::char_traits<char>, std::__1::allocator<char> >::__short"* %31, i64 0, i32 1, i32 0
  %33 = load i8, i8* %32, align 1
  %34 = icmp slt i8 %33, 0
  br i1 %34, label %35, label %39

35:                                               ; preds = %28
  %36 = getelementptr inbounds %"class.std::__1::basic_string", %"class.std::__1::basic_string"* %30, i64 0, i32 0, i32 0, i32 0, i32 0, i32 0, i32 0
  %37 = load i8*, i8** %36, align 8
  store i8 0, i8* %37, align 1
  %38 = getelementptr inbounds %"class.std::__1::basic_string", %"class.std::__1::basic_string"* %30, i64 0, i32 0, i32 0, i32 0, i32 0, i32 0, i32 1
  store i64 0, i64* %38, align 8
  br label %41

39:                                               ; preds = %28
  %40 = bitcast %"class.std::__1::basic_string"* %30 to i8*
  store i8 0, i8* %40, align 1
  store i8 0, i8* %32, align 1
  br label %41

41:                                               ; preds = %39, %35, %25, %4
  store i32 0, i32* %5, align 4
  %42 = getelementptr inbounds %"class.perfetto::protos::PerfEvents_Tracepoint", %"class.perfetto::protos::PerfEvents_Tracepoint"* %0, i64 0, i32 0, i32 1
  %43 = bitcast %"class.google::protobuf::internal::InternalMetadata"* %42 to i64*
  %44 = load i64, i64* %43, align 8
  %45 = and i64 %44, 1
  %46 = icmp eq i64 %45, 0
  br i1 %46, label %61, label %47

47:                                               ; preds = %41
  %48 = and i64 %44, -2
  %49 = inttoptr i64 %48 to %"struct.google::protobuf::internal::InternalMetadata::Container"*
  %50 = getelementptr inbounds %"struct.google::protobuf::internal::InternalMetadata::Container", %"struct.google::protobuf::internal::InternalMetadata::Container"* %49, i64 0, i32 1
  %51 = bitcast %"class.std::__1::basic_string"* %50 to %"struct.std::__1::basic_string<char, std::__1::char_traits<char>, std::__1::allocator<char> >::__short"*
  %52 = getelementptr inbounds %"struct.std::__1::basic_string<char, std::__1::char_traits<char>, std::__1::allocator<char> >::__short", %"struct.std::__1::basic_string<char, std::__1::char_traits<char>, std::__1::allocator<char> >::__short"* %51, i64 0, i32 1, i32 0
  %53 = load i8, i8* %52, align 1
  %54 = icmp slt i8 %53, 0
  br i1 %54, label %55, label %59

55:                                               ; preds = %47
  %56 = getelementptr inbounds %"class.std::__1::basic_string", %"class.std::__1::basic_string"* %50, i64 0, i32 0, i32 0, i32 0, i32 0, i32 0, i32 0
  %57 = load i8*, i8** %56, align 8
  store i8 0, i8* %57, align 1
  %58 = getelementptr inbounds %"struct.google::protobuf::internal::InternalMetadata::Container", %"struct.google::protobuf::internal::InternalMetadata::Container"* %49, i64 0, i32 1, i32 0, i32 0, i32 0, i32 0, i32 0, i32 1
  store i64 0, i64* %58, align 8
  br label %61

59:                                               ; preds = %47
  %60 = bitcast %"class.std::__1::basic_string"* %50 to i8*
  store i8 0, i8* %60, align 2
  store i8 0, i8* %52, align 1
  br label %61

61:                                               ; preds = %41, %55, %59
  tail call void @_ZN8perfetto6protos21PerfEvents_Tracepoint9MergeFromERKS1_(%"class.perfetto::protos::PerfEvents_Tracepoint"* %0, %"class.perfetto::protos::PerfEvents_Tracepoint"* dereferenceable(40) %1)
  br label %62

62:                                               ; preds = %2, %61
  ret void
}

; Function Attrs: norecurse nounwind readnone ssp uwtable
define hidden zeroext i1 @_ZNK8perfetto6protos21PerfEvents_Tracepoint13IsInitializedEv(%"class.perfetto::protos::PerfEvents_Tracepoint"* nocapture readnone) unnamed_addr #1 align 2 {
  ret i1 true
}

; Function Attrs: nounwind ssp uwtable
define hidden void @_ZN8perfetto6protos21PerfEvents_Tracepoint12InternalSwapEPS1_(%"class.perfetto::protos::PerfEvents_Tracepoint"*, %"class.perfetto::protos::PerfEvents_Tracepoint"*) local_unnamed_addr #0 align 2 {
  %3 = getelementptr inbounds %"class.perfetto::protos::PerfEvents_Tracepoint", %"class.perfetto::protos::PerfEvents_Tracepoint"* %0, i64 0, i32 0, i32 1
  %4 = getelementptr inbounds %"class.perfetto::protos::PerfEvents_Tracepoint", %"class.perfetto::protos::PerfEvents_Tracepoint"* %1, i64 0, i32 0, i32 1
  %5 = bitcast %"class.google::protobuf::internal::InternalMetadata"* %3 to i64*
  %6 = load i64, i64* %5, align 8
  %7 = bitcast %"class.google::protobuf::internal::InternalMetadata"* %4 to i64*
  %8 = load i64, i64* %7, align 8
  %9 = or i64 %8, %6
  %10 = and i64 %9, 1
  %11 = icmp eq i64 %10, 0
  br i1 %11, label %43, label %12

12:                                               ; preds = %2
  %13 = and i64 %8, 1
  %14 = icmp eq i64 %13, 0
  br i1 %14, label %19, label %15, !prof !4

15:                                               ; preds = %12
  %16 = and i64 %8, -2
  %17 = inttoptr i64 %16 to %"struct.google::protobuf::internal::InternalMetadata::Container"*
  %18 = getelementptr inbounds %"struct.google::protobuf::internal::InternalMetadata::Container", %"struct.google::protobuf::internal::InternalMetadata::Container"* %17, i64 0, i32 1
  br label %22

19:                                               ; preds = %12
  %20 = tail call %"class.std::__1::basic_string"* @_ZN6google8protobuf8internal16InternalMetadata27mutable_unknown_fields_slowINSt3__112basic_stringIcNS4_11char_traitsIcEENS4_9allocatorIcEEEEEEPT_v(%"class.google::protobuf::internal::InternalMetadata"* %4) #13
  %21 = load i64, i64* %5, align 8
  br label %22

22:                                               ; preds = %19, %15
  %23 = phi i64 [ %6, %15 ], [ %21, %19 ]
  %24 = phi %"class.std::__1::basic_string"* [ %18, %15 ], [ %20, %19 ]
  %25 = and i64 %23, 1
  %26 = icmp eq i64 %25, 0
  br i1 %26, label %31, label %27, !prof !4

27:                                               ; preds = %22
  %28 = and i64 %23, -2
  %29 = inttoptr i64 %28 to %"struct.google::protobuf::internal::InternalMetadata::Container"*
  %30 = getelementptr inbounds %"struct.google::protobuf::internal::InternalMetadata::Container", %"struct.google::protobuf::internal::InternalMetadata::Container"* %29, i64 0, i32 1
  br label %33

31:                                               ; preds = %22
  %32 = tail call %"class.std::__1::basic_string"* @_ZN6google8protobuf8internal16InternalMetadata27mutable_unknown_fields_slowINSt3__112basic_stringIcNS4_11char_traitsIcEENS4_9allocatorIcEEEEEEPT_v(%"class.google::protobuf::internal::InternalMetadata"* %3) #13
  br label %33

33:                                               ; preds = %31, %27
  %34 = phi %"class.std::__1::basic_string"* [ %30, %27 ], [ %32, %31 ]
  %35 = bitcast %"class.std::__1::basic_string"* %34 to <2 x i64>*
  %36 = load <2 x i64>, <2 x i64>* %35, align 8
  %37 = getelementptr inbounds %"class.std::__1::basic_string", %"class.std::__1::basic_string"* %34, i64 0, i32 0, i32 0, i32 0, i32 0, i32 0, i32 2
  %38 = load i64, i64* %37, align 8
  %39 = bitcast %"class.std::__1::basic_string"* %34 to i8*
  %40 = bitcast %"class.std::__1::basic_string"* %24 to i8*
  tail call void @llvm.memcpy.p0i8.p0i8.i64(i8* align 8 %39, i8* align 8 %40, i64 24, i1 false) #13
  %41 = bitcast %"class.std::__1::basic_string"* %24 to <2 x i64>*
  store <2 x i64> %36, <2 x i64>* %41, align 8
  %42 = getelementptr inbounds %"class.std::__1::basic_string", %"class.std::__1::basic_string"* %24, i64 0, i32 0, i32 0, i32 0, i32 0, i32 0, i32 2
  store i64 %38, i64* %42, align 8
  br label %43

43:                                               ; preds = %2, %33
  %44 = getelementptr inbounds %"class.perfetto::protos::PerfEvents_Tracepoint", %"class.perfetto::protos::PerfEvents_Tracepoint"* %0, i64 0, i32 1, i32 0, i64 0
  %45 = getelementptr inbounds %"class.perfetto::protos::PerfEvents_Tracepoint", %"class.perfetto::protos::PerfEvents_Tracepoint"* %1, i64 0, i32 1, i32 0, i64 0
  %46 = load i32, i32* %44, align 4
  %47 = load i32, i32* %45, align 4
  store i32 %47, i32* %44, align 4
  store i32 %46, i32* %45, align 4
  %48 = getelementptr inbounds %"class.perfetto::protos::PerfEvents_Tracepoint", %"class.perfetto::protos::PerfEvents_Tracepoint"* %0, i64 0, i32 3
  %49 = getelementptr inbounds %"class.perfetto::protos::PerfEvents_Tracepoint", %"class.perfetto::protos::PerfEvents_Tracepoint"* %1, i64 0, i32 3
  %50 = bitcast %"struct.google::protobuf::internal::ArenaStringPtr"* %48 to i64*
  %51 = load i64, i64* %50, align 8
  %52 = bitcast %"struct.google::protobuf::internal::ArenaStringPtr"* %49 to i64*
  %53 = load i64, i64* %52, align 8
  store i64 %53, i64* %50, align 8
  store i64 %51, i64* %52, align 8
  %54 = getelementptr inbounds %"class.perfetto::protos::PerfEvents_Tracepoint", %"class.perfetto::protos::PerfEvents_Tracepoint"* %0, i64 0, i32 4
  %55 = getelementptr inbounds %"class.perfetto::protos::PerfEvents_Tracepoint", %"class.perfetto::protos::PerfEvents_Tracepoint"* %1, i64 0, i32 4
  %56 = bitcast %"struct.google::protobuf::internal::ArenaStringPtr"* %54 to i64*
  %57 = load i64, i64* %56, align 8
  %58 = bitcast %"struct.google::protobuf::internal::ArenaStringPtr"* %55 to i64*
  %59 = load i64, i64* %58, align 8
  store i64 %59, i64* %56, align 8
  store i64 %57, i64* %58, align 8
  ret void
}

; Function Attrs: nounwind ssp uwtable
define hidden void @_ZNK8perfetto6protos21PerfEvents_Tracepoint11GetTypeNameEv(%"class.std::__1::basic_string"* noalias sret, %"class.perfetto::protos::PerfEvents_Tracepoint"* nocapture readnone) unnamed_addr #0 align 2 {
  %3 = tail call i8* @_Znwm(i64 48) #14
  %4 = getelementptr inbounds %"class.std::__1::basic_string", %"class.std::__1::basic_string"* %0, i64 0, i32 0, i32 0, i32 0, i32 0, i32 0, i32 0
  store i8* %3, i8** %4, align 8
  %5 = getelementptr inbounds %"class.std::__1::basic_string", %"class.std::__1::basic_string"* %0, i64 0, i32 0, i32 0, i32 0, i32 0, i32 0, i32 1
  %6 = bitcast i64* %5 to <2 x i64>*
  store <2 x i64> <i64 37, i64 -9223372036854775760>, <2 x i64>* %6, align 8
  tail call void @llvm.memcpy.p0i8.p0i8.i64(i8* nonnull align 1 %3, i8* align 1 getelementptr inbounds ([38 x i8], [38 x i8]* @.str.4, i64 0, i64 0), i64 37, i1 false) #13
  %7 = getelementptr inbounds i8, i8* %3, i64 37
  store i8 0, i8* %7, align 1
  ret void
}

; Function Attrs: nofree norecurse nounwind ssp uwtable writeonly
define hidden void @_ZN8perfetto6protos10PerfEventsC2EPN6google8protobuf5ArenaE(%"class.perfetto::protos::PerfEvents"* nocapture, %"class.google::protobuf::Arena"*) unnamed_addr #8 align 2 {
  %3 = getelementptr inbounds %"class.perfetto::protos::PerfEvents", %"class.perfetto::protos::PerfEvents"* %0, i64 0, i32 0, i32 0
  %4 = getelementptr inbounds %"class.perfetto::protos::PerfEvents", %"class.perfetto::protos::PerfEvents"* %0, i64 0, i32 0, i32 1
  %5 = bitcast %"class.google::protobuf::internal::InternalMetadata"* %4 to %"class.google::protobuf::Arena"**
  store %"class.google::protobuf::Arena"* %1, %"class.google::protobuf::Arena"** %5, align 8
  store i32 (...)** bitcast (i8** getelementptr inbounds ({ [16 x i8*] }, { [16 x i8*] }* @_ZTVN8perfetto6protos10PerfEventsE, i64 0, inrange i32 0, i64 2) to i32 (...)**), i32 (...)*** %3, align 8
  %6 = getelementptr inbounds %"class.perfetto::protos::PerfEvents", %"class.perfetto::protos::PerfEvents"* %0, i64 0, i32 1, i32 0, i32 0, i32 0, i32 0, i32 0, i32 0
  store i32 0, i32* %6, align 4
  ret void
}

; Function Attrs: nounwind ssp uwtable
define hidden void @_ZN8perfetto6protos10PerfEventsC2ERKS1_(%"class.perfetto::protos::PerfEvents"*, %"class.perfetto::protos::PerfEvents"* nocapture readonly dereferenceable(24)) unnamed_addr #0 align 2 {
  %3 = getelementptr inbounds %"class.perfetto::protos::PerfEvents", %"class.perfetto::protos::PerfEvents"* %0, i64 0, i32 0, i32 0
  %4 = getelementptr inbounds %"class.perfetto::protos::PerfEvents", %"class.perfetto::protos::PerfEvents"* %0, i64 0, i32 0, i32 1, i32 0
  store i8* null, i8** %4, align 8
  store i32 (...)** bitcast (i8** getelementptr inbounds ({ [16 x i8*] }, { [16 x i8*] }* @_ZTVN8perfetto6protos10PerfEventsE, i64 0, inrange i32 0, i64 2) to i32 (...)**), i32 (...)*** %3, align 8
  %5 = getelementptr inbounds %"class.perfetto::protos::PerfEvents", %"class.perfetto::protos::PerfEvents"* %0, i64 0, i32 1, i32 0, i32 0, i32 0, i32 0, i32 0, i32 0
  store i32 0, i32* %5, align 4
  %6 = getelementptr inbounds %"class.perfetto::protos::PerfEvents", %"class.perfetto::protos::PerfEvents"* %1, i64 0, i32 0, i32 1
  %7 = bitcast %"class.google::protobuf::internal::InternalMetadata"* %6 to i64*
  %8 = load i64, i64* %7, align 8
  %9 = and i64 %8, 1
  %10 = icmp eq i64 %9, 0
  br i1 %10, label %30, label %11

11:                                               ; preds = %2
  %12 = getelementptr inbounds %"class.perfetto::protos::PerfEvents", %"class.perfetto::protos::PerfEvents"* %0, i64 0, i32 0, i32 1
  %13 = and i64 %8, -2
  %14 = inttoptr i64 %13 to %"struct.google::protobuf::internal::InternalMetadata::Container"*
  %15 = getelementptr inbounds %"struct.google::protobuf::internal::InternalMetadata::Container", %"struct.google::protobuf::internal::InternalMetadata::Container"* %14, i64 0, i32 1
  %16 = tail call %"class.std::__1::basic_string"* @_ZN6google8protobuf8internal16InternalMetadata27mutable_unknown_fields_slowINSt3__112basic_stringIcNS4_11char_traitsIcEENS4_9allocatorIcEEEEEEPT_v(%"class.google::protobuf::internal::InternalMetadata"* %12) #13
  %17 = bitcast %"class.std::__1::basic_string"* %15 to %"struct.std::__1::basic_string<char, std::__1::char_traits<char>, std::__1::allocator<char> >::__short"*
  %18 = getelementptr inbounds %"struct.std::__1::basic_string<char, std::__1::char_traits<char>, std::__1::allocator<char> >::__short", %"struct.std::__1::basic_string<char, std::__1::char_traits<char>, std::__1::allocator<char> >::__short"* %17, i64 0, i32 1, i32 0
  %19 = load i8, i8* %18, align 1
  %20 = icmp slt i8 %19, 0
  %21 = getelementptr inbounds %"class.std::__1::basic_string", %"class.std::__1::basic_string"* %15, i64 0, i32 0, i32 0, i32 0, i32 0, i32 0, i32 0
  %22 = load i8*, i8** %21, align 8
  %23 = getelementptr inbounds %"struct.google::protobuf::internal::InternalMetadata::Container", %"struct.google::protobuf::internal::InternalMetadata::Container"* %14, i64 0, i32 1, i32 0, i32 0, i32 0, i32 0, i32 0, i32 1
  %24 = load i64, i64* %23, align 8
  %25 = bitcast %"class.std::__1::basic_string"* %15 to i8*
  %26 = zext i8 %19 to i64
  %27 = select i1 %20, i8* %22, i8* %25
  %28 = select i1 %20, i64 %24, i64 %26
  %29 = tail call dereferenceable(24) %"class.std::__1::basic_string"* @_ZNSt3__112basic_stringIcNS_11char_traitsIcEENS_9allocatorIcEEE6appendEPKcm(%"class.std::__1::basic_string"* %16, i8* %27, i64 %28) #13
  br label %30

30:                                               ; preds = %2, %11
  ret void
}

; Function Attrs: nounwind ssp uwtable
define hidden void @_ZN8perfetto6protos10PerfEventsD2Ev(%"class.perfetto::protos::PerfEvents"* nocapture) unnamed_addr #0 align 2 {
  %2 = getelementptr inbounds %"class.perfetto::protos::PerfEvents", %"class.perfetto::protos::PerfEvents"* %0, i64 0, i32 0, i32 0
  store i32 (...)** bitcast (i8** getelementptr inbounds ({ [16 x i8*] }, { [16 x i8*] }* @_ZTVN8perfetto6protos10PerfEventsE, i64 0, inrange i32 0, i64 2) to i32 (...)**), i32 (...)*** %2, align 8
  %3 = getelementptr inbounds %"class.perfetto::protos::PerfEvents", %"class.perfetto::protos::PerfEvents"* %0, i64 0, i32 0, i32 1
  %4 = bitcast %"class.google::protobuf::internal::InternalMetadata"* %3 to i64*
  %5 = load i64, i64* %4, align 8
  %6 = and i64 %5, 1
  %7 = icmp eq i64 %6, 0
  br i1 %7, label %28, label %8

8:                                                ; preds = %1
  %9 = and i64 %5, -2
  %10 = inttoptr i64 %9 to %"struct.google::protobuf::internal::InternalMetadata::ContainerBase"*
  %11 = getelementptr inbounds %"struct.google::protobuf::internal::InternalMetadata::ContainerBase", %"struct.google::protobuf::internal::InternalMetadata::ContainerBase"* %10, i64 0, i32 0
  %12 = load %"class.google::protobuf::Arena"*, %"class.google::protobuf::Arena"** %11, align 8
  %13 = icmp ne %"class.google::protobuf::Arena"* %12, null
  %14 = icmp eq i64 %9, 0
  %15 = or i1 %14, %13
  br i1 %15, label %28, label %16

16:                                               ; preds = %8
  %17 = inttoptr i64 %9 to %"struct.google::protobuf::internal::InternalMetadata::Container"*
  %18 = getelementptr inbounds %"struct.google::protobuf::internal::InternalMetadata::Container", %"struct.google::protobuf::internal::InternalMetadata::Container"* %17, i64 0, i32 1
  %19 = bitcast %"class.std::__1::basic_string"* %18 to %"struct.std::__1::basic_string<char, std::__1::char_traits<char>, std::__1::allocator<char> >::__short"*
  %20 = getelementptr inbounds %"struct.std::__1::basic_string<char, std::__1::char_traits<char>, std::__1::allocator<char> >::__short", %"struct.std::__1::basic_string<char, std::__1::char_traits<char>, std::__1::allocator<char> >::__short"* %19, i64 0, i32 1, i32 0
  %21 = load i8, i8* %20, align 1
  %22 = icmp slt i8 %21, 0
  br i1 %22, label %23, label %26

23:                                               ; preds = %16
  %24 = getelementptr inbounds %"class.std::__1::basic_string", %"class.std::__1::basic_string"* %18, i64 0, i32 0, i32 0, i32 0, i32 0, i32 0, i32 0
  %25 = load i8*, i8** %24, align 8
  tail call void @_ZdlPv(i8* %25) #14
  br label %26

26:                                               ; preds = %23, %16
  %27 = inttoptr i64 %9 to i8*
  tail call void @_ZdlPv(i8* %27) #14
  br label %28

28:                                               ; preds = %1, %8, %26
  ret void
}

; Function Attrs: nounwind ssp uwtable
define hidden void @_ZN8perfetto6protos10PerfEventsD0Ev(%"class.perfetto::protos::PerfEvents"*) unnamed_addr #0 align 2 {
  %2 = getelementptr inbounds %"class.perfetto::protos::PerfEvents", %"class.perfetto::protos::PerfEvents"* %0, i64 0, i32 0, i32 0
  store i32 (...)** bitcast (i8** getelementptr inbounds ({ [16 x i8*] }, { [16 x i8*] }* @_ZTVN8perfetto6protos10PerfEventsE, i64 0, inrange i32 0, i64 2) to i32 (...)**), i32 (...)*** %2, align 8
  %3 = getelementptr inbounds %"class.perfetto::protos::PerfEvents", %"class.perfetto::protos::PerfEvents"* %0, i64 0, i32 0, i32 1
  %4 = bitcast %"class.google::protobuf::internal::InternalMetadata"* %3 to i64*
  %5 = load i64, i64* %4, align 8
  %6 = and i64 %5, 1
  %7 = icmp eq i64 %6, 0
  br i1 %7, label %28, label %8

8:                                                ; preds = %1
  %9 = and i64 %5, -2
  %10 = inttoptr i64 %9 to %"struct.google::protobuf::internal::InternalMetadata::ContainerBase"*
  %11 = getelementptr inbounds %"struct.google::protobuf::internal::InternalMetadata::ContainerBase", %"struct.google::protobuf::internal::InternalMetadata::ContainerBase"* %10, i64 0, i32 0
  %12 = load %"class.google::protobuf::Arena"*, %"class.google::protobuf::Arena"** %11, align 8
