; ModuleID = '../../third_party/libphonenumber/dist/cpp/src/phonenumbers/phonenumbermatcher.cc'
source_filename = "../../third_party/libphonenumber/dist/cpp/src/phonenumbers/phonenumbermatcher.cc"
target datalayout = "e-m:e-i64:64-f80:128-n8:16:32:64-S128"
target triple = "x86_64-unknown-linux-gnu"

module asm ".symver exp, exp@GLIBC_2.2.5"
module asm ".symver exp2, exp2@GLIBC_2.2.5"
module asm ".symver exp2f, exp2f@GLIBC_2.2.5"
module asm ".symver expf, expf@GLIBC_2.2.5"
module asm ".symver lgamma, lgamma@GLIBC_2.2.5"
module asm ".symver lgammaf, lgammaf@GLIBC_2.2.5"
module asm ".symver lgammal, lgammal@GLIBC_2.2.5"
module asm ".symver log, log@GLIBC_2.2.5"
module asm ".symver log2, log2@GLIBC_2.2.5"
module asm ".symver log2f, log2f@GLIBC_2.2.5"
module asm ".symver logf, logf@GLIBC_2.2.5"
module asm ".symver pow, pow@GLIBC_2.2.5"
module asm ".symver powf, powf@GLIBC_2.2.5"

%"class.google::protobuf::internal::ExplicitlyConstructed" = type { %"union.google::protobuf::internal::ExplicitlyConstructed<std::__1::basic_string<char, std::__1::char_traits<char>, std::__1::allocator<char> > >::AlignedUnion" }
%"union.google::protobuf::internal::ExplicitlyConstructed<std::__1::basic_string<char, std::__1::char_traits<char>, std::__1::allocator<char> > >::AlignedUnion" = type { i64, [16 x i8] }
%"class.i18n::phonenumbers::Logger" = type <{ i32 (...)**, i32, [4 x i8] }>
%"class.i18n::phonenumbers::PhoneNumberMatcherRegExps" = type { %"class.i18n::phonenumbers::Singleton", %"class.std::__1::basic_string", %"class.std::__1::basic_string", %"class.std::__1::basic_string", %"class.std::__1::basic_string", %"class.std::__1::basic_string", %"class.std::__1::basic_string", %"class.std::__1::basic_string", %"class.std::__1::basic_string", i32, %"class.std::__1::basic_string", %"class.std::__1::basic_string", %"class.std::__1::basic_string", %"class.std::__1::basic_string", %"class.std::__1::basic_string", %"class.i18n::phonenumbers::scoped_ptr", %"class.i18n::phonenumbers::scoped_ptr", %"class.i18n::phonenumbers::RegExpCache", %"class.i18n::phonenumbers::scoped_ptr.5", %"class.i18n::phonenumbers::scoped_ptr.5", %"class.i18n::phonenumbers::scoped_ptr.5", %"class.i18n::phonenumbers::scoped_ptr.5", %"class.i18n::phonenumbers::scoped_ptr.5", %"class.i18n::phonenumbers::scoped_ptr.9", %"class.i18n::phonenumbers::scoped_ptr.5", %"class.i18n::phonenumbers::scoped_ptr.5", %"class.i18n::phonenumbers::scoped_ptr.5", %"class.i18n::phonenumbers::scoped_ptr.5" }
%"class.i18n::phonenumbers::Singleton" = type { i32 (...)** }
%"class.std::__1::basic_string" = type { %"class.std::__1::__compressed_pair" }
%"class.std::__1::__compressed_pair" = type { %"struct.std::__1::__compressed_pair_elem" }
%"struct.std::__1::__compressed_pair_elem" = type { %"struct.std::__1::basic_string<char, std::__1::char_traits<char>, std::__1::allocator<char> >::__rep" }
%"struct.std::__1::basic_string<char, std::__1::char_traits<char>, std::__1::allocator<char> >::__rep" = type { %union.anon }
%union.anon = type { %"struct.std::__1::basic_string<char, std::__1::char_traits<char>, std::__1::allocator<char> >::__long" }
%"struct.std::__1::basic_string<char, std::__1::char_traits<char>, std::__1::allocator<char> >::__long" = type { i8*, i64, i64 }
%"class.i18n::phonenumbers::scoped_ptr" = type { %"class.i18n::phonenumbers::scoped_ptr_impl" }
%"class.i18n::phonenumbers::scoped_ptr_impl" = type { %"struct.i18n::phonenumbers::scoped_ptr_impl<const i18n::phonenumbers::AbstractRegExpFactory, i18n::phonenumbers::DefaultDeleter<const i18n::phonenumbers::AbstractRegExpFactory> >::Data" }
%"struct.i18n::phonenumbers::scoped_ptr_impl<const i18n::phonenumbers::AbstractRegExpFactory, i18n::phonenumbers::DefaultDeleter<const i18n::phonenumbers::AbstractRegExpFactory> >::Data" = type { %"class.i18n::phonenumbers::AbstractRegExpFactory"* }
%"class.i18n::phonenumbers::AbstractRegExpFactory" = type { i32 (...)** }
%"class.i18n::phonenumbers::RegExpCache" = type { %"class.i18n::phonenumbers::AbstractRegExpFactory"*, %"class.i18n::phonenumbers::Lock", %"class.i18n::phonenumbers::scoped_ptr.1" }
%"class.i18n::phonenumbers::Lock" = type { %"class.std::__1::mutex" }
%"class.std::__1::mutex" = type { %union.pthread_mutex_t }
%union.pthread_mutex_t = type { %struct.__pthread_mutex_s }
%struct.__pthread_mutex_s = type { i32, i32, i32, i32, i32, i16, i16, %struct.__pthread_internal_list }
%struct.__pthread_internal_list = type { %struct.__pthread_internal_list*, %struct.__pthread_internal_list* }
%"class.i18n::phonenumbers::scoped_ptr.1" = type { %"class.i18n::phonenumbers::scoped_ptr_impl.2" }
%"class.i18n::phonenumbers::scoped_ptr_impl.2" = type { %"struct.i18n::phonenumbers::scoped_ptr_impl<std::__1::map<std::__1::basic_string<char, std::__1::char_traits<char>, std::__1::allocator<char> >, const i18n::phonenumbers::RegExp *, std::__1::less<std::__1::basic_string<char, std::__1::char_traits<char>, std::__1::allocator<char> > >, std::__1::allocator<std::__1::pair<const std::__1::basic_string<char, std::__1::char_traits<char>, std::__1::allocator<char> >, const i18n::phonenumbers::RegExp *> > >, i18n::phonenumbers::DefaultDeleter<std::__1::map<std::__1::basic_string<char, std::__1::char_traits<char>, std::__1::allocator<char> >, const i18n::phonenumbers::RegExp *, std::__1::less<std::__1::basic_string<char, std::__1::char_traits<char>, std::__1::allocator<char> > >, std::__1::allocator<std::__1::pair<const std::__1::basic_string<char, std::__1::char_traits<char>, std::__1::allocator<char> >, const i18n::phonenumbers::RegExp *> > > > >::Data" }
%"struct.i18n::phonenumbers::scoped_ptr_impl<std::__1::map<std::__1::basic_string<char, std::__1::char_traits<char>, std::__1::allocator<char> >, const i18n::phonenumbers::RegExp *, std::__1::less<std::__1::basic_string<char, std::__1::char_traits<char>, std::__1::allocator<char> > >, std::__1::allocator<std::__1::pair<const std::__1::basic_string<char, std::__1::char_traits<char>, std::__1::allocator<char> >, const i18n::phonenumbers::RegExp *> > >, i18n::phonenumbers::DefaultDeleter<std::__1::map<std::__1::basic_string<char, std::__1::char_traits<char>, std::__1::allocator<char> >, const i18n::phonenumbers::RegExp *, std::__1::less<std::__1::basic_string<char, std::__1::char_traits<char>, std::__1::allocator<char> > >, std::__1::allocator<std::__1::pair<const std::__1::basic_string<char, std::__1::char_traits<char>, std::__1::allocator<char> >, const i18n::phonenumbers::RegExp *> > > > >::Data" = type { %"class.std::__1::map"* }
%"class.std::__1::map" = type opaque
%"class.i18n::phonenumbers::scoped_ptr.9" = type { %"class.i18n::phonenumbers::scoped_ptr_impl.10" }
%"class.i18n::phonenumbers::scoped_ptr_impl.10" = type { %"struct.i18n::phonenumbers::scoped_ptr_impl<std::__1::vector<const i18n::phonenumbers::RegExp *, std::__1::allocator<const i18n::phonenumbers::RegExp *> >, i18n::phonenumbers::DefaultDeleter<std::__1::vector<const i18n::phonenumbers::RegExp *, std::__1::allocator<const i18n::phonenumbers::RegExp *> > > >::Data" }
%"struct.i18n::phonenumbers::scoped_ptr_impl<std::__1::vector<const i18n::phonenumbers::RegExp *, std::__1::allocator<const i18n::phonenumbers::RegExp *> >, i18n::phonenumbers::DefaultDeleter<std::__1::vector<const i18n::phonenumbers::RegExp *, std::__1::allocator<const i18n::phonenumbers::RegExp *> > > >::Data" = type { %"class.std::__1::vector"* }
%"class.std::__1::vector" = type { %"class.std::__1::__vector_base" }
%"class.std::__1::__vector_base" = type { %"class.i18n::phonenumbers::RegExp"**, %"class.i18n::phonenumbers::RegExp"**, %"class.std::__1::__compressed_pair.13" }
%"class.i18n::phonenumbers::RegExp" = type { i32 (...)** }
%"class.std::__1::__compressed_pair.13" = type { %"struct.std::__1::__compressed_pair_elem.14" }
%"struct.std::__1::__compressed_pair_elem.14" = type { %"class.i18n::phonenumbers::RegExp"** }
%"class.i18n::phonenumbers::scoped_ptr.5" = type { %"class.i18n::phonenumbers::scoped_ptr_impl.6" }
%"class.i18n::phonenumbers::scoped_ptr_impl.6" = type { %"struct.i18n::phonenumbers::scoped_ptr_impl<const i18n::phonenumbers::RegExp, i18n::phonenumbers::DefaultDeleter<const i18n::phonenumbers::RegExp> >::Data" }
%"struct.i18n::phonenumbers::scoped_ptr_impl<const i18n::phonenumbers::RegExp, i18n::phonenumbers::DefaultDeleter<const i18n::phonenumbers::RegExp> >::Data" = type { %"class.i18n::phonenumbers::RegExp"* }
%"class.i18n::phonenumbers::AlternateFormats" = type { %"class.i18n::phonenumbers::Singleton.18", %"class.i18n::phonenumbers::PhoneMetadataCollection", %"class.std::__1::map.29" }
%"class.i18n::phonenumbers::Singleton.18" = type { i32 (...)** }
%"class.i18n::phonenumbers::PhoneMetadataCollection" = type <{ %"class.google::protobuf::MessageLite", %"class.google::protobuf::RepeatedPtrField", %"class.google::protobuf::internal::CachedSize", [4 x i8] }>
%"class.google::protobuf::MessageLite" = type { i32 (...)**, %"class.google::protobuf::internal::InternalMetadata" }
%"class.google::protobuf::internal::InternalMetadata" = type { i8* }
%"class.google::protobuf::RepeatedPtrField" = type { %"class.google::protobuf::internal::RepeatedPtrFieldBase" }
%"class.google::protobuf::internal::RepeatedPtrFieldBase" = type { %"class.google::protobuf::Arena"*, i32, i32, %"struct.google::protobuf::internal::RepeatedPtrFieldBase::Rep"* }
%"class.google::protobuf::Arena" = type { %"class.google::protobuf::internal::ArenaImpl", void (%"class.std::type_info"*, i64, i8*)*, void (%"class.google::protobuf::Arena"*, i8*, i64)*, void (%"class.google::protobuf::Arena"*, i8*, i64)*, i8* }
%"class.google::protobuf::internal::ArenaImpl" = type { %"struct.std::__1::atomic", %"struct.std::__1::atomic", %"struct.std::__1::atomic.19", %"class.google::protobuf::internal::ArenaImpl::Block"*, i64, %"struct.google::protobuf::internal::ArenaImpl::Options" }
%"struct.std::__1::atomic" = type { %"struct.std::__1::__atomic_base" }
%"struct.std::__1::__atomic_base" = type { %"struct.std::__1::__cxx_atomic_impl" }
%"struct.std::__1::__cxx_atomic_impl" = type { %"struct.std::__1::__cxx_atomic_base_impl" }
%"struct.std::__1::__cxx_atomic_base_impl" = type { %"class.google::protobuf::internal::ArenaImpl::SerialArena"* }
%"class.google::protobuf::internal::ArenaImpl::SerialArena" = type { %"class.google::protobuf::internal::ArenaImpl"*, i8*, %"class.google::protobuf::internal::ArenaImpl::Block"*, %"struct.google::protobuf::internal::ArenaImpl::CleanupChunk"*, %"class.google::protobuf::internal::ArenaImpl::SerialArena"*, i8*, i8*, %"struct.google::protobuf::internal::ArenaImpl::CleanupNode"*, %"struct.google::protobuf::internal::ArenaImpl::CleanupNode"* }
%"struct.google::protobuf::internal::ArenaImpl::CleanupChunk" = type { i64, %"struct.google::protobuf::internal::ArenaImpl::CleanupChunk"*, [1 x %"struct.google::protobuf::internal::ArenaImpl::CleanupNode"] }
%"struct.google::protobuf::internal::ArenaImpl::CleanupNode" = type { i8*, void (i8*)* }
%"struct.std::__1::atomic.19" = type { %"struct.std::__1::__atomic_base.20" }
%"struct.std::__1::__atomic_base.20" = type { %"struct.std::__1::__atomic_base.21" }
%"struct.std::__1::__atomic_base.21" = type { %"struct.std::__1::__cxx_atomic_impl.22" }
%"struct.std::__1::__cxx_atomic_impl.22" = type { %"struct.std::__1::__cxx_atomic_base_impl.23" }
%"struct.std::__1::__cxx_atomic_base_impl.23" = type { i64 }
%"class.google::protobuf::internal::ArenaImpl::Block" = type { %"class.google::protobuf::internal::ArenaImpl::Block"*, i64, i64 }
%"struct.google::protobuf::internal::ArenaImpl::Options" = type { i64, i64, i8*, i64, i8* (i64)*, void (i8*, i64)* }
%"class.std::type_info" = type { i32 (...)**, i8* }
%"struct.google::protobuf::internal::RepeatedPtrFieldBase::Rep" = type { i32, [268435454 x i8*] }
%"class.google::protobuf::internal::CachedSize" = type { %"struct.std::__1::atomic.24" }
%"struct.std::__1::atomic.24" = type { %"struct.std::__1::__atomic_base.25" }
%"struct.std::__1::__atomic_base.25" = type { %"struct.std::__1::__atomic_base.26" }
%"struct.std::__1::__atomic_base.26" = type { %"struct.std::__1::__cxx_atomic_impl.27" }
%"struct.std::__1::__cxx_atomic_impl.27" = type { %"struct.std::__1::__cxx_atomic_base_impl.28" }
%"struct.std::__1::__cxx_atomic_base_impl.28" = type { i32 }
%"class.std::__1::map.29" = type { %"class.std::__1::__tree" }
%"class.std::__1::__tree" = type { %"class.std::__1::__tree_end_node"*, %"class.std::__1::__compressed_pair.30", %"class.std::__1::__compressed_pair.35" }
%"class.std::__1::__tree_end_node" = type { %"class.std::__1::__tree_node_base"* }
%"class.std::__1::__tree_node_base" = type <{ %"class.std::__1::__tree_end_node", %"class.std::__1::__tree_node_base"*, %"class.std::__1::__tree_end_node"*, i8, [7 x i8] }>
%"class.std::__1::__compressed_pair.30" = type { %"struct.std::__1::__compressed_pair_elem.31" }
%"struct.std::__1::__compressed_pair_elem.31" = type { %"class.std::__1::__tree_end_node" }
%"class.std::__1::__compressed_pair.35" = type { %"struct.std::__1::__compressed_pair_elem.36" }
%"struct.std::__1::__compressed_pair_elem.36" = type { i64 }
%"class.std::__1::locale::id" = type <{ %"struct.std::__1::once_flag", i32, [4 x i8] }>
%"struct.std::__1::once_flag" = type { i64 }
%"class.i18n::phonenumbers::PhoneNumberMatcher" = type <{ %"class.i18n::phonenumbers::PhoneNumberMatcherRegExps"*, %"class.i18n::phonenumbers::AlternateFormats"*, %"class.i18n::phonenumbers::PhoneNumberUtil"*, %"class.std::__1::basic_string", %"class.std::__1::basic_string", i32, i32, i32, [4 x i8], %"class.i18n::phonenumbers::scoped_ptr.70", i32, [4 x i8] }>
%"class.i18n::phonenumbers::scoped_ptr.70" = type { %"class.i18n::phonenumbers::scoped_ptr_impl.71" }
%"class.i18n::phonenumbers::scoped_ptr_impl.71" = type { %"struct.i18n::phonenumbers::scoped_ptr_impl<i18n::phonenumbers::PhoneNumberMatch, i18n::phonenumbers::DefaultDeleter<i18n::phonenumbers::PhoneNumberMatch> >::Data" }
%"struct.i18n::phonenumbers::scoped_ptr_impl<i18n::phonenumbers::PhoneNumberMatch, i18n::phonenumbers::DefaultDeleter<i18n::phonenumbers::PhoneNumberMatch> >::Data" = type { %"class.i18n::phonenumbers::PhoneNumberMatch"* }
%"class.i18n::phonenumbers::PhoneNumberMatch" = type { i32, %"class.std::__1::basic_string", %"class.i18n::phonenumbers::PhoneNumber" }
%"class.i18n::phonenumbers::PhoneNumber" = type { %"class.google::protobuf::MessageLite", %"class.google::protobuf::internal::HasBits", %"class.google::protobuf::internal::CachedSize", %"struct.google::protobuf::internal::ArenaStringPtr", %"struct.google::protobuf::internal::ArenaStringPtr", %"struct.google::protobuf::internal::ArenaStringPtr", i64, i32, i8, i32, i32 }
%"class.google::protobuf::internal::HasBits" = type { [1 x i32] }
%"struct.google::protobuf::internal::ArenaStringPtr" = type { %"class.std::__1::basic_string"* }
%"class.i18n::phonenumbers::PhoneNumberUtil" = type { %"class.i18n::phonenumbers::Singleton.38", %"class.i18n::phonenumbers::scoped_ptr.39", %"class.i18n::phonenumbers::scoped_ptr.43", %"class.i18n::phonenumbers::scoped_ptr.47", %"class.i18n::phonenumbers::scoped_ptr.51", %"class.i18n::phonenumbers::scoped_ptr.56", %"class.i18n::phonenumbers::scoped_ptr.60", %"class.i18n::phonenumbers::scoped_ptr.65" }
%"class.i18n::phonenumbers::Singleton.38" = type { i32 (...)** }
%"class.i18n::phonenumbers::scoped_ptr.39" = type { %"class.i18n::phonenumbers::scoped_ptr_impl.40" }
%"class.i18n::phonenumbers::scoped_ptr_impl.40" = type { %"struct.i18n::phonenumbers::scoped_ptr_impl<i18n::phonenumbers::Logger, i18n::phonenumbers::DefaultDeleter<i18n::phonenumbers::Logger> >::Data" }
%"struct.i18n::phonenumbers::scoped_ptr_impl<i18n::phonenumbers::Logger, i18n::phonenumbers::DefaultDeleter<i18n::phonenumbers::Logger> >::Data" = type { %"class.i18n::phonenumbers::Logger"* }
%"class.i18n::phonenumbers::scoped_ptr.43" = type { %"class.i18n::phonenumbers::scoped_ptr_impl.44" }
%"class.i18n::phonenumbers::scoped_ptr_impl.44" = type { %"struct.i18n::phonenumbers::scoped_ptr_impl<i18n::phonenumbers::MatcherApi, i18n::phonenumbers::DefaultDeleter<i18n::phonenumbers::MatcherApi> >::Data" }
%"struct.i18n::phonenumbers::scoped_ptr_impl<i18n::phonenumbers::MatcherApi, i18n::phonenumbers::DefaultDeleter<i18n::phonenumbers::MatcherApi> >::Data" = type { %"class.i18n::phonenumbers::MatcherApi"* }
%"class.i18n::phonenumbers::MatcherApi" = type opaque
%"class.i18n::phonenumbers::scoped_ptr.47" = type { %"class.i18n::phonenumbers::scoped_ptr_impl.48" }
%"class.i18n::phonenumbers::scoped_ptr_impl.48" = type { %"struct.i18n::phonenumbers::scoped_ptr_impl<i18n::phonenumbers::PhoneNumberRegExpsAndMappings, i18n::phonenumbers::DefaultDeleter<i18n::phonenumbers::PhoneNumberRegExpsAndMappings> >::Data" }
%"struct.i18n::phonenumbers::scoped_ptr_impl<i18n::phonenumbers::PhoneNumberRegExpsAndMappings, i18n::phonenumbers::DefaultDeleter<i18n::phonenumbers::PhoneNumberRegExpsAndMappings> >::Data" = type { %"class.i18n::phonenumbers::PhoneNumberRegExpsAndMappings"* }
%"class.i18n::phonenumbers::PhoneNumberRegExpsAndMappings" = type opaque
%"class.i18n::phonenumbers::scoped_ptr.51" = type { %"class.i18n::phonenumbers::scoped_ptr_impl.52" }
%"class.i18n::phonenumbers::scoped_ptr_impl.52" = type { %"struct.i18n::phonenumbers::scoped_ptr_impl<std::__1::vector<std::__1::pair<int, std::__1::list<std::__1::basic_string<char, std::__1::char_traits<char>, std::__1::allocator<char> >, std::__1::allocator<std::__1::basic_string<char, std::__1::char_traits<char>, std::__1::allocator<char> > > > *>, std::__1::allocator<std::__1::pair<int, std::__1::list<std::__1::basic_string<char, std::__1::char_traits<char>, std::__1::allocator<char> >, std::__1::allocator<std::__1::basic_string<char, std::__1::char_traits<char>, std::__1::allocator<char> > > > *> > >, i18n::phonenumbers::DefaultDeleter<std::__1::vector<std::__1::pair<int, std::__1::list<std::__1::basic_string<char, std::__1::char_traits<char>, std::__1::allocator<char> >, std::__1::allocator<std::__1::basic_string<char, std::__1::char_traits<char>, std::__1::allocator<char> > > > *>, std::__1::allocator<std::__1::pair<int, std::__1::list<std::__1::basic_string<char, std::__1::char_traits<char>, std::__1::allocator<char> >, std::__1::allocator<std::__1::basic_string<char, std::__1::char_traits<char>, std::__1::allocator<char> > > > *> > > > >::Data" }
%"struct.i18n::phonenumbers::scoped_ptr_impl<std::__1::vector<std::__1::pair<int, std::__1::list<std::__1::basic_string<char, std::__1::char_traits<char>, std::__1::allocator<char> >, std::__1::allocator<std::__1::basic_string<char, std::__1::char_traits<char>, std::__1::allocator<char> > > > *>, std::__1::allocator<std::__1::pair<int, std::__1::list<std::__1::basic_string<char, std::__1::char_traits<char>, std::__1::allocator<char> >, std::__1::allocator<std::__1::basic_string<char, std::__1::char_traits<char>, std::__1::allocator<char> > > > *> > >, i18n::phonenumbers::DefaultDeleter<std::__1::vector<std::__1::pair<int, std::__1::list<std::__1::basic_string<char, std::__1::char_traits<char>, std::__1::allocator<char> >, std::__1::allocator<std::__1::basic_string<char, std::__1::char_traits<char>, std::__1::allocator<char> > > > *>, std::__1::allocator<std::__1::pair<int, std::__1::list<std::__1::basic_string<char, std::__1::char_traits<char>, std::__1::allocator<char> >, std::__1::allocator<std::__1::basic_string<char, std::__1::char_traits<char>, std::__1::allocator<char> > > > *> > > > >::Data" = type { %"class.std::__1::vector.55"* }
%"class.std::__1::vector.55" = type opaque
%"class.i18n::phonenumbers::scoped_ptr.56" = type { %"class.i18n::phonenumbers::scoped_ptr_impl.57" }
%"class.i18n::phonenumbers::scoped_ptr_impl.57" = type { %"struct.i18n::phonenumbers::scoped_ptr_impl<std::__1::set<std::__1::basic_string<char, std::__1::char_traits<char>, std::__1::allocator<char> >, std::__1::less<std::__1::basic_string<char, std::__1::char_traits<char>, std::__1::allocator<char> > >, std::__1::allocator<std::__1::basic_string<char, std::__1::char_traits<char>, std::__1::allocator<char> > > >, i18n::phonenumbers::DefaultDeleter<std::__1::set<std::__1::basic_string<char, std::__1::char_traits<char>, std::__1::allocator<char> >, std::__1::less<std::__1::basic_string<char, std::__1::char_traits<char>, std::__1::allocator<char> > >, std::__1::allocator<std::__1::basic_string<char, std::__1::char_traits<char>, std::__1::allocator<char> > > > > >::Data" }
%"struct.i18n::phonenumbers::scoped_ptr_impl<std::__1::set<std::__1::basic_string<char, std::__1::char_traits<char>, std::__1::allocator<char> >, std::__1::less<std::__1::basic_string<char, std::__1::char_traits<char>, std::__1::allocator<char> > >, std::__1::allocator<std::__1::basic_string<char, std::__1::char_traits<char>, std::__1::allocator<char> > > >, i18n::phonenumbers::DefaultDeleter<std::__1::set<std::__1::basic_string<char, std::__1::char_traits<char>, std::__1::allocator<char> >, std::__1::less<std::__1::basic_string<char, std::__1::char_traits<char>, std::__1::allocator<char> > >, std::__1::allocator<std::__1::basic_string<char, std::__1::char_traits<char>, std::__1::allocator<char> > > > > >::Data" = type { %"class.std::__1::set"* }
%"class.std::__1::set" = type opaque
%"class.i18n::phonenumbers::scoped_ptr.60" = type { %"class.i18n::phonenumbers::scoped_ptr_impl.61" }
%"class.i18n::phonenumbers::scoped_ptr_impl.61" = type { %"struct.i18n::phonenumbers::scoped_ptr_impl<std::__1::map<std::__1::basic_string<char, std::__1::char_traits<char>, std::__1::allocator<char> >, i18n::phonenumbers::PhoneMetadata, std::__1::less<std::__1::basic_string<char, std::__1::char_traits<char>, std::__1::allocator<char> > >, std::__1::allocator<std::__1::pair<const std::__1::basic_string<char, std::__1::char_traits<char>, std::__1::allocator<char> >, i18n::phonenumbers::PhoneMetadata> > >, i18n::phonenumbers::DefaultDeleter<std::__1::map<std::__1::basic_string<char, std::__1::char_traits<char>, std::__1::allocator<char> >, i18n::phonenumbers::PhoneMetadata, std::__1::less<std::__1::basic_string<char, std::__1::char_traits<char>, std::__1::allocator<char> > >, std::__1::allocator<std::__1::pair<const std::__1::basic_string<char, std::__1::char_traits<char>, std::__1::allocator<char> >, i18n::phonenumbers::PhoneMetadata> > > > >::Data" }
%"struct.i18n::phonenumbers::scoped_ptr_impl<std::__1::map<std::__1::basic_string<char, std::__1::char_traits<char>, std::__1::allocator<char> >, i18n::phonenumbers::PhoneMetadata, std::__1::less<std::__1::basic_string<char, std::__1::char_traits<char>, std::__1::allocator<char> > >, std::__1::allocator<std::__1::pair<const std::__1::basic_string<char, std::__1::char_traits<char>, std::__1::allocator<char> >, i18n::phonenumbers::PhoneMetadata> > >, i18n::phonenumbers::DefaultDeleter<std::__1::map<std::__1::basic_string<char, std::__1::char_traits<char>, std::__1::allocator<char> >, i18n::phonenumbers::PhoneMetadata, std::__1::less<std::__1::basic_string<char, std::__1::char_traits<char>, std::__1::allocator<char> > >, std::__1::allocator<std::__1::pair<const std::__1::basic_string<char, std::__1::char_traits<char>, std::__1::allocator<char> >, i18n::phonenumbers::PhoneMetadata> > > > >::Data" = type { %"class.std::__1::map.64"* }
%"class.std::__1::map.64" = type opaque
%"class.i18n::phonenumbers::scoped_ptr.65" = type { %"class.i18n::phonenumbers::scoped_ptr_impl.66" }
%"class.i18n::phonenumbers::scoped_ptr_impl.66" = type { %"struct.i18n::phonenumbers::scoped_ptr_impl<std::__1::map<int, i18n::phonenumbers::PhoneMetadata, std::__1::less<int>, std::__1::allocator<std::__1::pair<const int, i18n::phonenumbers::PhoneMetadata> > >, i18n::phonenumbers::DefaultDeleter<std::__1::map<int, i18n::phonenumbers::PhoneMetadata, std::__1::less<int>, std::__1::allocator<std::__1::pair<const int, i18n::phonenumbers::PhoneMetadata> > > > >::Data" }
%"struct.i18n::phonenumbers::scoped_ptr_impl<std::__1::map<int, i18n::phonenumbers::PhoneMetadata, std::__1::less<int>, std::__1::allocator<std::__1::pair<const int, i18n::phonenumbers::PhoneMetadata> > >, i18n::phonenumbers::DefaultDeleter<std::__1::map<int, i18n::phonenumbers::PhoneMetadata, std::__1::less<int>, std::__1::allocator<std::__1::pair<const int, i18n::phonenumbers::PhoneMetadata> > > > >::Data" = type { %"class.std::__1::map.69"* }
%"class.std::__1::map.69" = type opaque
%"struct.std::__1::basic_string<char, std::__1::char_traits<char>, std::__1::allocator<char> >::__short" = type { [23 x i8], %struct.anon }
%struct.anon = type { i8 }
%"class.i18n::phonenumbers::RegExpInput" = type { i32 (...)** }
%"class.i18n::phonenumbers::LoggerHandler" = type { %"class.i18n::phonenumbers::Logger"* }
%"class.std::__1::vector.78" = type { %"class.std::__1::__vector_base.79" }
%"class.std::__1::__vector_base.79" = type { %"class.std::__1::basic_string"*, %"class.std::__1::basic_string"*, %"class.std::__1::__compressed_pair.80" }
%"class.std::__1::__compressed_pair.80" = type { %"struct.std::__1::__compressed_pair_elem.81" }
%"struct.std::__1::__compressed_pair_elem.81" = type { %"class.std::__1::basic_string"* }
%"class.i18n::phonenumbers::ResultCallback4" = type { i32 (...)** }
%"class.std::__1::allocator" = type { i8 }
%"class.i18n::phonenumbers::PhoneMetadata" = type { %"class.google::protobuf::MessageLite", %"class.google::protobuf::internal::HasBits", %"class.google::protobuf::internal::CachedSize", %"class.google::protobuf::RepeatedPtrField.86", %"class.google::protobuf::RepeatedPtrField.86", %"struct.google::protobuf::internal::ArenaStringPtr", %"struct.google::protobuf::internal::ArenaStringPtr", %"struct.google::protobuf::internal::ArenaStringPtr", %"struct.google::protobuf::internal::ArenaStringPtr", %"struct.google::protobuf::internal::ArenaStringPtr", %"struct.google::protobuf::internal::ArenaStringPtr", %"struct.google::protobuf::internal::ArenaStringPtr", %"struct.google::protobuf::internal::ArenaStringPtr", %"class.i18n::phonenumbers::PhoneNumberDesc"*, %"class.i18n::phonenumbers::PhoneNumberDesc"*, %"class.i18n::phonenumbers::PhoneNumberDesc"*, %"class.i18n::phonenumbers::PhoneNumberDesc"*, %"class.i18n::phonenumbers::PhoneNumberDesc"*, %"class.i18n::phonenumbers::PhoneNumberDesc"*, %"class.i18n::phonenumbers::PhoneNumberDesc"*, %"class.i18n::phonenumbers::PhoneNumberDesc"*, %"class.i18n::phonenumbers::PhoneNumberDesc"*, %"class.i18n::phonenumbers::PhoneNumberDesc"*, %"class.i18n::phonenumbers::PhoneNumberDesc"*, %"class.i18n::phonenumbers::PhoneNumberDesc"*, %"class.i18n::phonenumbers::PhoneNumberDesc"*, %"class.i18n::phonenumbers::PhoneNumberDesc"*, %"class.i18n::phonenumbers::PhoneNumberDesc"*, %"class.i18n::phonenumbers::PhoneNumberDesc"*, %"class.i18n::phonenumbers::PhoneNumberDesc"*, i32, i8, i8, i8, i8 }
%"class.google::protobuf::RepeatedPtrField.86" = type { %"class.google::protobuf::internal::RepeatedPtrFieldBase" }
%"class.i18n::phonenumbers::PhoneNumberDesc" = type { %"class.google::protobuf::MessageLite", %"class.google::protobuf::internal::HasBits", %"class.google::protobuf::internal::CachedSize", %"class.google::protobuf::RepeatedField", %"class.google::protobuf::RepeatedField", %"struct.google::protobuf::internal::ArenaStringPtr", %"struct.google::protobuf::internal::ArenaStringPtr" }
%"class.google::protobuf::RepeatedField" = type { i32, i32, i8* }
%"class.i18n::phonenumbers::NumberFormat" = type <{ %"class.google::protobuf::MessageLite", %"class.google::protobuf::internal::HasBits", %"class.google::protobuf::internal::CachedSize", %"class.google::protobuf::RepeatedPtrField.87", %"struct.google::protobuf::internal::ArenaStringPtr", %"struct.google::protobuf::internal::ArenaStringPtr", %"struct.google::protobuf::internal::ArenaStringPtr", %"struct.google::protobuf::internal::ArenaStringPtr", i8, [7 x i8] }>
%"class.google::protobuf::RepeatedPtrField.87" = type { %"class.google::protobuf::internal::RepeatedPtrFieldBase" }
%"class.std::__1::__vector_base_common" = type { i8 }
%"class.std::__1::__tree_node" = type { %"class.std::__1::__tree_node_base.base", %"struct.std::__1::__value_type" }
%"class.std::__1::__tree_node_base.base" = type <{ %"class.std::__1::__tree_end_node", %"class.std::__1::__tree_node_base"*, %"class.std::__1::__tree_end_node"*, i8 }>
%"struct.std::__1::__value_type" = type { %"struct.std::__1::pair" }
%"struct.std::__1::pair" = type { i32, %"class.i18n::phonenumbers::PhoneMetadata"* }
%"class.std::__1::__basic_string_common" = type { i8 }
%"class.i18n::phonenumbers::UnicodeText" = type { %"class.i18n::phonenumbers::UnicodeText::Repr" }
%"class.i18n::phonenumbers::UnicodeText::Repr" = type <{ i8*, i32, i32, i8, [7 x i8] }>
%"class.i18n::phonenumbers::UnicodeText::const_iterator" = type { i8* }
%"class.i18n::phonenumbers::StringHolder" = type { %"class.std::__1::basic_string", %"class.std::__1::basic_string"*, i8*, i64 }
%"class.i18n::phonenumbers::FunctionCallback4" = type { %"class.i18n::phonenumbers::ResultCallback4", i1 (%"class.i18n::phonenumbers::PhoneNumberUtil"*, %"class.i18n::phonenumbers::PhoneNumber"*, %"class.std::__1::basic_string"*, %"class.std::__1::vector.78"*)* }
%"class.i18n::phonenumbers::ConstMethodCallback4" = type { %"class.i18n::phonenumbers::ResultCallback4", %"class.i18n::phonenumbers::PhoneNumberMatcher"*, { i64, i64 } }
%"class.std::__1::basic_stringstream" = type { %"class.std::__1::basic_iostream.base", %"class.std::__1::basic_stringbuf", %"class.std::__1::basic_ios.base" }
%"class.std::__1::basic_iostream.base" = type { %"class.std::__1::basic_istream.base", %"class.std::__1::basic_ostream.base" }
%"class.std::__1::basic_istream.base" = type { i32 (...)**, i64 }
%"class.std::__1::basic_ostream.base" = type { i32 (...)** }
%"class.std::__1::basic_stringbuf" = type <{ %"class.std::__1::basic_streambuf", %"class.std::__1::basic_string", i8*, i32, [4 x i8] }>
%"class.std::__1::basic_streambuf" = type { i32 (...)**, %"class.std::__1::locale", i8*, i8*, i8*, i8*, i8*, i8* }
%"class.std::__1::locale" = type { %"class.std::__1::locale::__imp"* }
%"class.std::__1::locale::__imp" = type opaque
%"class.std::__1::basic_ios.base" = type <{ %"class.std::__1::ios_base", %"class.std::__1::basic_ostream"*, i32 }>
%"class.std::__1::ios_base" = type { i32 (...)**, i32, i64, i64, i32, i32, i8*, i8*, void (i32, %"class.std::__1::ios_base"*, i32)**, i32*, i64, i64, i64*, i64, i64, i8**, i64, i64 }
%"class.std::__1::basic_ostream" = type { i32 (...)**, %"class.std::__1::basic_ios.base" }
%"class.std::__1::basic_istream" = type { i32 (...)**, i64, %"class.std::__1::basic_ios.base" }
%"class.std::__1::basic_iostream" = type { %"class.std::__1::basic_istream.base", %"class.std::__1::basic_ostream.base", %"class.std::__1::basic_ios.base" }
%"class.std::__1::basic_ios" = type <{ %"class.std::__1::ios_base", %"class.std::__1::basic_ostream"*, i32, [4 x i8] }>
%"class.std::__1::basic_istream<char, std::__1::char_traits<char> >::sentry" = type { i8 }
%"class.std::__1::locale::facet" = type { %"class.std::__1::__shared_count" }
%"class.std::__1::__shared_count" = type { i32 (...)**, i64 }

$_ZN4i18n12phonenumbers13LoggerHandlerlsIA57_cEERS1_RKT_ = comdat any

$_ZN4i18n12phonenumbers13NormalizeUTF822NormalizeDecimalDigitsERKNSt3__112basic_stringIcNS2_11char_traitsIcEENS2_9allocatorIcEEEE = comdat any

$_ZN4i18n12phonenumbers9SingletonINS0_25PhoneNumberMatcherRegExpsEE4InitEv = comdat any

$_ZN4i18n12phonenumbers25PhoneNumberMatcherRegExpsC2Ev = comdat any

$_ZN4i18n12phonenumbers25PhoneNumberMatcherRegExpsD2Ev = comdat any

$_ZN4i18n12phonenumbers25PhoneNumberMatcherRegExpsD0Ev = comdat any

$_ZN4i18n12phonenumbers9SingletonINS0_16AlternateFormatsEE4InitEv = comdat any

$_ZN4i18n12phonenumbers16AlternateFormatsC2Ev = comdat any

$_ZN4i18n12phonenumbers13LoggerHandlerlsIA38_cEERS1_RKT_ = comdat any

$_ZN4i18n12phonenumbers16AlternateFormatsD2Ev = comdat any

$_ZN4i18n12phonenumbers16AlternateFormatsD0Ev = comdat any

$_ZN4i18n12phonenumbers13LoggerHandlerlsIA29_cEERS1_RKT_ = comdat any

$_ZNSt3__127__tree_balance_after_insertIPNS_16__tree_node_baseIPvEEEEvT_S5_ = comdat any

$_ZNSt3__16__treeINS_12__value_typeIiPKN4i18n12phonenumbers13PhoneMetadataEEENS_19__map_value_compareIiS7_NS_4lessIiEELb1EEENS_9allocatorIS7_EEE7destroyEPNS_11__tree_nodeIS7_PvEE = comdat any

$_ZN4i18n12phonenumbers15ResultCallback4IbRKNS0_15PhoneNumberUtilERKNS0_11PhoneNumberERKNSt3__112basic_stringIcNS8_11char_traitsIcEENS8_9allocatorIcEEEERKNS8_6vectorISE_NSC_ISE_EEEEED2Ev = comdat any

$_ZN4i18n12phonenumbers17FunctionCallback4IbRKNS0_15PhoneNumberUtilERKNS0_11PhoneNumberERKNSt3__112basic_stringIcNS8_11char_traitsIcEENS8_9allocatorIcEEEERKNS8_6vectorISE_NSC_ISE_EEEEED0Ev = comdat any

$_ZN4i18n12phonenumbers17FunctionCallback4IbRKNS0_15PhoneNumberUtilERKNS0_11PhoneNumberERKNSt3__112basic_stringIcNS8_11char_traitsIcEENS8_9allocatorIcEEEERKNS8_6vectorISE_NSC_ISE_EEEEE3RunES4_S7_SG_SL_ = comdat any

$_ZN4i18n12phonenumbers20ConstMethodCallback4INS0_18PhoneNumberMatcherEbRKNS0_15PhoneNumberUtilERKNS0_11PhoneNumberERKNSt3__112basic_stringIcNS9_11char_traitsIcEENS9_9allocatorIcEEEERKNS9_6vectorISF_NSD_ISF_EEEEED0Ev = comdat any

$_ZN4i18n12phonenumbers20ConstMethodCallback4INS0_18PhoneNumberMatcherEbRKNS0_15PhoneNumberUtilERKNS0_11PhoneNumberERKNSt3__112basic_stringIcNS9_11char_traitsIcEENS9_9allocatorIcEEEERKNS9_6vectorISF_NSD_ISF_EEEEE3RunES5_S8_SH_SM_ = comdat any

$_ZN4i18n12phonenumbers15ConvertToStringIiE6DoWorkEi = comdat any

$_ZNSt3__1rsIcNS_11char_traitsIcEENS_9allocatorIcEEEERNS_13basic_istreamIT_T0_EES9_RNS_12basic_stringIS6_S7_T1_EE = comdat any

$_ZNSt3__16vectorINS_12basic_stringIcNS_11char_traitsIcEENS_9allocatorIcEEEENS4_IS6_EEE21__push_back_slow_pathIRKS6_EEvOT_ = comdat any

$_ZN4i18n12phonenumbers9SingletonINS0_25PhoneNumberMatcherRegExpsEE13once_control_E = comdat any

$_ZN4i18n12phonenumbers9SingletonINS0_25PhoneNumberMatcherRegExpsEE9instance_E = comdat any

$_ZTVN4i18n12phonenumbers25PhoneNumberMatcherRegExpsE = comdat any

$_ZN4i18n12phonenumbers9SingletonINS0_16AlternateFormatsEE13once_control_E = comdat any

$_ZN4i18n12phonenumbers9SingletonINS0_16AlternateFormatsEE9instance_E = comdat any

$_ZTVN4i18n12phonenumbers16AlternateFormatsE = comdat any

$_ZTVN4i18n12phonenumbers17FunctionCallback4IbRKNS0_15PhoneNumberUtilERKNS0_11PhoneNumberERKNSt3__112basic_stringIcNS8_11char_traitsIcEENS8_9allocatorIcEEEERKNS8_6vectorISE_NSC_ISE_EEEEEE = comdat any

$_ZTVN4i18n12phonenumbers20ConstMethodCallback4INS0_18PhoneNumberMatcherEbRKNS0_15PhoneNumberUtilERKNS0_11PhoneNumberERKNSt3__112basic_stringIcNS9_11char_traitsIcEENS9_9allocatorIcEEEERKNS9_6vectorISF_NSD_ISF_EEEEEE = comdat any

@.str = private unnamed_addr constant [57 x i8] c"No implementation defined for verification for leniency \00", align 1
@_ZN4i18n12phonenumbers6UniLibL11kUTF8LenTblE = internal unnamed_addr constant [256 x i8] c"\01\01\01\01\01\01\01\01\01\01\01\01\01\01\01\01\01\01\01\01\01\01\01\01\01\01\01\01\01\01\01\01\01\01\01\01\01\01\01\01\01\01\01\01\01\01\01\01\01\01\01\01\01\01\01\01\01\01\01\01\01\01\01\01\01\01\01\01\01\01\01\01\01\01\01\01\01\01\01\01\01\01\01\01\01\01\01\01\01\01\01\01\01\01\01\01\01\01\01\01\01\01\01\01\01\01\01\01\01\01\01\01\01\01\01\01\01\01\01\01\01\01\01\01\01\01\01\01\01\01\01\01\01\01\01\01\01\01\01\01\01\01\01\01\01\01\01\01\01\01\01\01\01\01\01\01\01\01\01\01\01\01\01\01\01\01\01\01\01\01\01\01\01\01\01\01\01\01\01\01\01\01\01\01\01\01\01\01\01\01\01\01\02\02\02\02\02\02\02\02\02\02\02\02\02\02\02\02\02\02\02\02\02\02\02\02\02\02\02\02\02\02\02\02\03\03\03\03\03\03\03\03\03\03\03\03\03\03\03\03\04\04\04\04\04\04\04\04\04\04\04\04\04\04\04\04", align 16
@_ZN6google8protobuf8internal26fixed_address_empty_stringE = external global %"class.google::protobuf::internal::ExplicitlyConstructed", align 8
@_ZN4i18n12phonenumbers6Logger5impl_E = external local_unnamed_addr global %"class.i18n::phonenumbers::Logger"*, align 8
@_ZN4i18n12phonenumbers9SingletonINS0_25PhoneNumberMatcherRegExpsEE13once_control_E = linkonce_odr hidden global i32 0, comdat, align 4
@_ZN4i18n12phonenumbers9SingletonINS0_25PhoneNumberMatcherRegExpsEE9instance_E = linkonce_odr hidden local_unnamed_addr global %"class.i18n::phonenumbers::PhoneNumberMatcherRegExps"* null, comdat, align 8
@_ZTVN4i18n12phonenumbers25PhoneNumberMatcherRegExpsE = linkonce_odr hidden unnamed_addr constant { [4 x i8*] } { [4 x i8*] [i8* null, i8* null, i8* bitcast (void (%"class.i18n::phonenumbers::PhoneNumberMatcherRegExps"*)* @_ZN4i18n12phonenumbers25PhoneNumberMatcherRegExpsD2Ev to i8*), i8* bitcast (void (%"class.i18n::phonenumbers::PhoneNumberMatcherRegExps"*)* @_ZN4i18n12phonenumbers25PhoneNumberMatcherRegExpsD0Ev to i8*)] }, comdat, align 8
@.str.8 = private unnamed_addr constant [10 x i8] c"(\5C[\EF\BC\88\EF\BC\BB\00", align 1
@.str.9 = private unnamed_addr constant [10 x i8] c")\5C]\EF\BC\89\EF\BC\BD\00", align 1
@.str.10 = private unnamed_addr constant [3 x i8] c"[^\00", align 1
@.str.11 = private unnamed_addr constant [2 x i8] c"]\00", align 1
@.str.12 = private unnamed_addr constant [5 x i8] c"(?:[\00", align 1
@.str.13 = private unnamed_addr constant [4 x i8] c"])?\00", align 1
@.str.14 = private unnamed_addr constant [4 x i8] c"(?:\00", align 1
@.str.15 = private unnamed_addr constant [3 x i8] c"+[\00", align 1
@.str.16 = private unnamed_addr constant [2 x i8] c"+\00", align 1
@.str.17 = private unnamed_addr constant [2 x i8] c"[\00", align 1
@.str.18 = private unnamed_addr constant [3 x i8] c"])\00", align 1
@_ZN4i18n12phonenumbers15PhoneNumberUtil17kValidPunctuationE = external constant [0 x i8], align 1
@.str.19 = private unnamed_addr constant [7 x i8] c"\5Cp{Nd}\00", align 1
@_ZN4i18n12phonenumbers15PhoneNumberUtil10kPlusCharsE = external constant [0 x i8], align 1
@.str.20 = private unnamed_addr constant [33 x i8] c"\5Cd{1,5}-+\5Cd{1,5}\5Cs{0,4}\5C(\5Cd{1,4}\00", align 1
@.str.21 = private unnamed_addr constant [63 x i8] c"(?:(?:[0-3]?\5Cd/[01]?\5Cd)|(?:[01]?\5Cd/[0-3]?\5Cd))/(?:[12]\5Cd)?\5Cd{2}\00", align 1
@.str.22 = private unnamed_addr constant [43 x i8] c"[12]\5Cd{3}[-/]?[01]\5Cd[-/]?[0-3]\5Cd +[0-2]\5Cd$\00", align 1
@.str.24 = private unnamed_addr constant [2 x i8] c"*\00", align 1
@_ZN4i18n12phonenumbers15PhoneNumberUtil29kCaptureUpToSecondNumberStartE = external constant [0 x i8], align 1
@.str.25 = private unnamed_addr constant [6 x i8] c"(\5Cd+)\00", align 1
@.str.26 = private unnamed_addr constant [5 x i8] c"((?:\00", align 1
@.str.27 = private unnamed_addr constant [2 x i8] c")\00", align 1
@.str.28 = private unnamed_addr constant [8 x i8] c"(?i)(?:\00", align 1
@.str.29 = private unnamed_addr constant [4 x i8] c")?)\00", align 1
@.str.30 = private unnamed_addr constant [7 x i8] c"/+(.*)\00", align 1
@.str.31 = private unnamed_addr constant [10 x i8] c"(\5C([^(]*)\00", align 1
@.str.32 = private unnamed_addr constant [28 x i8] c"(?:\5Cp{Z}-|-\5Cp{Z})\5Cp{Z}*(.+)\00", align 1
@.str.33 = private unnamed_addr constant [23 x i8] c"[\E2\80\92-\E2\80\95\EF\BC\8D]\5Cp{Z}*(.+)\00", align 1
@.str.34 = private unnamed_addr constant [17 x i8] c"\5C.+\5Cp{Z}*([^.]+)\00", align 1
@.str.35 = private unnamed_addr constant [15 x i8] c"\5Cp{Z}+(\5CP{Z}+)\00", align 1
@.str.36 = private unnamed_addr constant [2 x i8] c"{\00", align 1
@.str.37 = private unnamed_addr constant [2 x i8] c",\00", align 1
@.str.38 = private unnamed_addr constant [2 x i8] c"}\00", align 1
@_ZTVN4i18n12phonenumbers16ICURegExpFactoryE = external unnamed_addr constant { [6 x i8*] }, align 8
@_ZN4i18n12phonenumbers9SingletonINS0_16AlternateFormatsEE13once_control_E = linkonce_odr hidden global i32 0, comdat, align 4
@_ZN4i18n12phonenumbers9SingletonINS0_16AlternateFormatsEE9instance_E = linkonce_odr hidden local_unnamed_addr global %"class.i18n::phonenumbers::AlternateFormats"* null, comdat, align 8
@_ZTVN4i18n12phonenumbers16AlternateFormatsE = linkonce_odr hidden unnamed_addr constant { [4 x i8*] } { [4 x i8*] [i8* null, i8* null, i8* bitcast (void (%"class.i18n::phonenumbers::AlternateFormats"*)* @_ZN4i18n12phonenumbers16AlternateFormatsD2Ev to i8*), i8* bitcast (void (%"class.i18n::phonenumbers::AlternateFormats"*)* @_ZN4i18n12phonenumbers16AlternateFormatsD0Ev to i8*)] }, comdat, align 8
@.str.39 = private unnamed_addr constant [38 x i8] c"Could not parse compiled-in metadata.\00", align 1
@.str.40 = private unnamed_addr constant [29 x i8] c"Could not parse binary data.\00", align 1
@_ZTVN4i18n12phonenumbers17FunctionCallback4IbRKNS0_15PhoneNumberUtilERKNS0_11PhoneNumberERKNSt3__112basic_stringIcNS8_11char_traitsIcEENS8_9allocatorIcEEEERKNS8_6vectorISE_NSC_ISE_EEEEEE = linkonce_odr hidden unnamed_addr constant { [5 x i8*] } { [5 x i8*] [i8* null, i8* null, i8* bitcast (void (%"class.i18n::phonenumbers::ResultCallback4"*)* @_ZN4i18n12phonenumbers15ResultCallback4IbRKNS0_15PhoneNumberUtilERKNS0_11PhoneNumberERKNSt3__112basic_stringIcNS8_11char_traitsIcEENS8_9allocatorIcEEEERKNS8_6vectorISE_NSC_ISE_EEEEED2Ev to i8*), i8* bitcast (void (%"class.i18n::phonenumbers::FunctionCallback4"*)* @_ZN4i18n12phonenumbers17FunctionCallback4IbRKNS0_15PhoneNumberUtilERKNS0_11PhoneNumberERKNSt3__112basic_stringIcNS8_11char_traitsIcEENS8_9allocatorIcEEEERKNS8_6vectorISE_NSC_ISE_EEEEED0Ev to i8*), i8* bitcast (i1 (%"class.i18n::phonenumbers::FunctionCallback4"*, %"class.i18n::phonenumbers::PhoneNumberUtil"*, %"class.i18n::phonenumbers::PhoneNumber"*, %"class.std::__1::basic_string"*, %"class.std::__1::vector.78"*)* @_ZN4i18n12phonenumbers17FunctionCallback4IbRKNS0_15PhoneNumberUtilERKNS0_11PhoneNumberERKNSt3__112basic_stringIcNS8_11char_traitsIcEENS8_9allocatorIcEEEERKNS8_6vectorISE_NSC_ISE_EEEEE3RunES4_S7_SG_SL_ to i8*)] }, comdat, align 8
@_ZTVN4i18n12phonenumbers20ConstMethodCallback4INS0_18PhoneNumberMatcherEbRKNS0_15PhoneNumberUtilERKNS0_11PhoneNumberERKNSt3__112basic_stringIcNS9_11char_traitsIcEENS9_9allocatorIcEEEERKNS9_6vectorISF_NSD_ISF_EEEEEE = linkonce_odr hidden unnamed_addr constant { [5 x i8*] } { [5 x i8*] [i8* null, i8* null, i8* bitcast (void (%"class.i18n::phonenumbers::ResultCallback4"*)* @_ZN4i18n12phonenumbers15ResultCallback4IbRKNS0_15PhoneNumberUtilERKNS0_11PhoneNumberERKNSt3__112basic_stringIcNS8_11char_traitsIcEENS8_9allocatorIcEEEERKNS8_6vectorISE_NSC_ISE_EEEEED2Ev to i8*), i8* bitcast (void (%"class.i18n::phonenumbers::ConstMethodCallback4"*)* @_ZN4i18n12phonenumbers20ConstMethodCallback4INS0_18PhoneNumberMatcherEbRKNS0_15PhoneNumberUtilERKNS0_11PhoneNumberERKNSt3__112basic_stringIcNS9_11char_traitsIcEENS9_9allocatorIcEEEERKNS9_6vectorISF_NSD_ISF_EEEEED0Ev to i8*), i8* bitcast (i1 (%"class.i18n::phonenumbers::ConstMethodCallback4"*, %"class.i18n::phonenumbers::PhoneNumberUtil"*, %"class.i18n::phonenumbers::PhoneNumber"*, %"class.std::__1::basic_string"*, %"class.std::__1::vector.78"*)* @_ZN4i18n12phonenumbers20ConstMethodCallback4INS0_18PhoneNumberMatcherEbRKNS0_15PhoneNumberUtilERKNS0_11PhoneNumberERKNSt3__112basic_stringIcNS9_11char_traitsIcEENS9_9allocatorIcEEEERKNS9_6vectorISF_NSD_ISF_EEEEE3RunES5_S8_SH_SM_ to i8*)] }, comdat, align 8
@_ZTVNSt3__118basic_stringstreamIcNS_11char_traitsIcEENS_9allocatorIcEEEE = external unnamed_addr constant { [5 x i8*], [5 x i8*], [5 x i8*] }, align 8
@_ZTTNSt3__118basic_stringstreamIcNS_11char_traitsIcEENS_9allocatorIcEEEE = external unnamed_addr constant [10 x i8*], align 8
@_ZTVNSt3__115basic_stringbufIcNS_11char_traitsIcEENS_9allocatorIcEEEE = external unnamed_addr constant { [16 x i8*] }, align 8
@_ZNSt3__15ctypeIcE2idE = external global %"class.std::__1::locale::id", align 8

@_ZN4i18n12phonenumbers18PhoneNumberMatcherC1ERKNS0_15PhoneNumberUtilERKNSt3__112basic_stringIcNS5_11char_traitsIcEENS5_9allocatorIcEEEESD_NS1_8LeniencyEi = hidden unnamed_addr alias void (%"class.i18n::phonenumbers::PhoneNumberMatcher"*, %"class.i18n::phonenumbers::PhoneNumberUtil"*, %"class.std::__1::basic_string"*, %"class.std::__1::basic_string"*, i32, i32), void (%"class.i18n::phonenumbers::PhoneNumberMatcher"*, %"class.i18n::phonenumbers::PhoneNumberUtil"*, %"class.std::__1::basic_string"*, %"class.std::__1::basic_string"*, i32, i32)* @_ZN4i18n12phonenumbers18PhoneNumberMatcherC2ERKNS0_15PhoneNumberUtilERKNSt3__112basic_stringIcNS5_11char_traitsIcEENS5_9allocatorIcEEEESD_NS1_8LeniencyEi
@_ZN4i18n12phonenumbers18PhoneNumberMatcherC1ERKNSt3__112basic_stringIcNS2_11char_traitsIcEENS2_9allocatorIcEEEESA_ = hidden unnamed_addr alias void (%"class.i18n::phonenumbers::PhoneNumberMatcher"*, %"class.std::__1::basic_string"*, %"class.std::__1::basic_string"*), void (%"class.i18n::phonenumbers::PhoneNumberMatcher"*, %"class.std::__1::basic_string"*, %"class.std::__1::basic_string"*)* @_ZN4i18n12phonenumbers18PhoneNumberMatcherC2ERKNSt3__112basic_stringIcNS2_11char_traitsIcEENS2_9allocatorIcEEEESA_
@_ZN4i18n12phonenumbers18PhoneNumberMatcherD1Ev = hidden unnamed_addr alias void (%"class.i18n::phonenumbers::PhoneNumberMatcher"*), void (%"class.i18n::phonenumbers::PhoneNumberMatcher"*)* @_ZN4i18n12phonenumbers18PhoneNumberMatcherD2Ev

; Function Attrs: nounwind ssp uwtable
define hidden void @_ZN4i18n12phonenumbers18PhoneNumberMatcherC2ERKNS0_15PhoneNumberUtilERKNSt3__112basic_stringIcNS5_11char_traitsIcEENS5_9allocatorIcEEEESD_NS1_8LeniencyEi(%"class.i18n::phonenumbers::PhoneNumberMatcher"*, %"class.i18n::phonenumbers::PhoneNumberUtil"* dereferenceable(64), %"class.std::__1::basic_string"* nocapture readonly dereferenceable(24), %"class.std::__1::basic_string"* nocapture readonly dereferenceable(24), i32, i32) unnamed_addr #0 align 2 {
  %7 = tail call i32 @pthread_once(i32* nonnull @_ZN4i18n12phonenumbers9SingletonINS0_25PhoneNumberMatcherRegExpsEE13once_control_E, void ()* nonnull @_ZN4i18n12phonenumbers9SingletonINS0_25PhoneNumberMatcherRegExpsEE4InitEv) #12
  %8 = load i64, i64* bitcast (%"class.i18n::phonenumbers::PhoneNumberMatcherRegExps"** @_ZN4i18n12phonenumbers9SingletonINS0_25PhoneNumberMatcherRegExpsEE9instance_E to i64*), align 8
  %9 = bitcast %"class.i18n::phonenumbers::PhoneNumberMatcher"* %0 to i64*
  store i64 %8, i64* %9, align 8
  %10 = getelementptr inbounds %"class.i18n::phonenumbers::PhoneNumberMatcher", %"class.i18n::phonenumbers::PhoneNumberMatcher"* %0, i64 0, i32 1
  %11 = tail call i32 @pthread_once(i32* nonnull @_ZN4i18n12phonenumbers9SingletonINS0_16AlternateFormatsEE13once_control_E, void ()* nonnull @_ZN4i18n12phonenumbers9SingletonINS0_16AlternateFormatsEE4InitEv) #12
  %12 = load i64, i64* bitcast (%"class.i18n::phonenumbers::AlternateFormats"** @_ZN4i18n12phonenumbers9SingletonINS0_16AlternateFormatsEE9instance_E to i64*), align 8
  %13 = bitcast %"class.i18n::phonenumbers::AlternateFormats"** %10 to i64*
  store i64 %12, i64* %13, align 8
  %14 = getelementptr inbounds %"class.i18n::phonenumbers::PhoneNumberMatcher", %"class.i18n::phonenumbers::PhoneNumberMatcher"* %0, i64 0, i32 2
  store %"class.i18n::phonenumbers::PhoneNumberUtil"* %1, %"class.i18n::phonenumbers::PhoneNumberUtil"** %14, align 8
  %15 = getelementptr inbounds %"class.i18n::phonenumbers::PhoneNumberMatcher", %"class.i18n::phonenumbers::PhoneNumberMatcher"* %0, i64 0, i32 3
  %16 = bitcast %"class.std::__1::basic_string"* %2 to %"struct.std::__1::basic_string<char, std::__1::char_traits<char>, std::__1::allocator<char> >::__short"*
  %17 = getelementptr inbounds %"struct.std::__1::basic_string<char, std::__1::char_traits<char>, std::__1::allocator<char> >::__short", %"struct.std::__1::basic_string<char, std::__1::char_traits<char>, std::__1::allocator<char> >::__short"* %16, i64 0, i32 1, i32 0
  %18 = load i8, i8* %17, align 1
  %19 = icmp slt i8 %18, 0
  br i1 %19, label %23, label %20

20:                                               ; preds = %6
  %21 = bitcast %"class.std::__1::basic_string"* %15 to i8*
  %22 = bitcast %"class.std::__1::basic_string"* %2 to i8*
  tail call void @llvm.memcpy.p0i8.p0i8.i64(i8* align 8 %21, i8* align 8 %22, i64 24, i1 false) #12
  br label %28

23:                                               ; preds = %6
  %24 = getelementptr inbounds %"class.std::__1::basic_string", %"class.std::__1::basic_string"* %2, i64 0, i32 0, i32 0, i32 0, i32 0, i32 0, i32 0
  %25 = load i8*, i8** %24, align 8
  %26 = getelementptr inbounds %"class.std::__1::basic_string", %"class.std::__1::basic_string"* %2, i64 0, i32 0, i32 0, i32 0, i32 0, i32 0, i32 1
  %27 = load i64, i64* %26, align 8
  tail call void @_ZNSt3__112basic_stringIcNS_11char_traitsIcEENS_9allocatorIcEEE25__init_copy_ctor_externalEPKcm(%"class.std::__1::basic_string"* %15, i8* %25, i64 %27) #12
  br label %28

28:                                               ; preds = %20, %23
  %29 = getelementptr inbounds %"class.i18n::phonenumbers::PhoneNumberMatcher", %"class.i18n::phonenumbers::PhoneNumberMatcher"* %0, i64 0, i32 4
  %30 = bitcast %"class.std::__1::basic_string"* %3 to %"struct.std::__1::basic_string<char, std::__1::char_traits<char>, std::__1::allocator<char> >::__short"*
  %31 = getelementptr inbounds %"struct.std::__1::basic_string<char, std::__1::char_traits<char>, std::__1::allocator<char> >::__short", %"struct.std::__1::basic_string<char, std::__1::char_traits<char>, std::__1::allocator<char> >::__short"* %30, i64 0, i32 1, i32 0
  %32 = load i8, i8* %31, align 1
  %33 = icmp slt i8 %32, 0
  br i1 %33, label %37, label %34

34:                                               ; preds = %28
  %35 = bitcast %"class.std::__1::basic_string"* %29 to i8*
  %36 = bitcast %"class.std::__1::basic_string"* %3 to i8*
  tail call void @llvm.memcpy.p0i8.p0i8.i64(i8* align 8 %35, i8* align 8 %36, i64 24, i1 false) #12
  br label %42

37:                                               ; preds = %28
  %38 = getelementptr inbounds %"class.std::__1::basic_string", %"class.std::__1::basic_string"* %3, i64 0, i32 0, i32 0, i32 0, i32 0, i32 0, i32 0
  %39 = load i8*, i8** %38, align 8
  %40 = getelementptr inbounds %"class.std::__1::basic_string", %"class.std::__1::basic_string"* %3, i64 0, i32 0, i32 0, i32 0, i32 0, i32 0, i32 1
  %41 = load i64, i64* %40, align 8
  tail call void @_ZNSt3__112basic_stringIcNS_11char_traitsIcEENS_9allocatorIcEEE25__init_copy_ctor_externalEPKcm(%"class.std::__1::basic_string"* %29, i8* %39, i64 %41) #12
  br label %42

42:                                               ; preds = %34, %37
  %43 = getelementptr inbounds %"class.i18n::phonenumbers::PhoneNumberMatcher", %"class.i18n::phonenumbers::PhoneNumberMatcher"* %0, i64 0, i32 5
  store i32 %4, i32* %43, align 8
  %44 = getelementptr inbounds %"class.i18n::phonenumbers::PhoneNumberMatcher", %"class.i18n::phonenumbers::PhoneNumberMatcher"* %0, i64 0, i32 6
  store i32 %5, i32* %44, align 4
  %45 = getelementptr inbounds %"class.i18n::phonenumbers::PhoneNumberMatcher", %"class.i18n::phonenumbers::PhoneNumberMatcher"* %0, i64 0, i32 7
  store i32 0, i32* %45, align 8
  %46 = getelementptr inbounds %"class.i18n::phonenumbers::PhoneNumberMatcher", %"class.i18n::phonenumbers::PhoneNumberMatcher"* %0, i64 0, i32 9, i32 0, i32 0, i32 0
  store %"class.i18n::phonenumbers::PhoneNumberMatch"* null, %"class.i18n::phonenumbers::PhoneNumberMatch"** %46, align 8
  %47 = getelementptr inbounds %"class.i18n::phonenumbers::PhoneNumberMatcher", %"class.i18n::phonenumbers::PhoneNumberMatcher"* %0, i64 0, i32 10
  store i32 0, i32* %47, align 8
  ret void
}

; Function Attrs: nounwind ssp uwtable
define hidden void @_ZN4i18n12phonenumbers18PhoneNumberMatcherC2ERKNSt3__112basic_stringIcNS2_11char_traitsIcEENS2_9allocatorIcEEEESA_(%"class.i18n::phonenumbers::PhoneNumberMatcher"*, %"class.std::__1::basic_string"* nocapture readonly dereferenceable(24), %"class.std::__1::basic_string"* nocapture readonly dereferenceable(24)) unnamed_addr #0 align 2 {
  %4 = tail call i32 @pthread_once(i32* nonnull @_ZN4i18n12phonenumbers9SingletonINS0_25PhoneNumberMatcherRegExpsEE13once_control_E, void ()* nonnull @_ZN4i18n12phonenumbers9SingletonINS0_25PhoneNumberMatcherRegExpsEE4InitEv) #12
  %5 = load i64, i64* bitcast (%"class.i18n::phonenumbers::PhoneNumberMatcherRegExps"** @_ZN4i18n12phonenumbers9SingletonINS0_25PhoneNumberMatcherRegExpsEE9instance_E to i64*), align 8
  %6 = bitcast %"class.i18n::phonenumbers::PhoneNumberMatcher"* %0 to i64*
  store i64 %5, i64* %6, align 8
  %7 = getelementptr inbounds %"class.i18n::phonenumbers::PhoneNumberMatcher", %"class.i18n::phonenumbers::PhoneNumberMatcher"* %0, i64 0, i32 1
  store %"class.i18n::phonenumbers::AlternateFormats"* null, %"class.i18n::phonenumbers::AlternateFormats"** %7, align 8
  %8 = getelementptr inbounds %"class.i18n::phonenumbers::PhoneNumberMatcher", %"class.i18n::phonenumbers::PhoneNumberMatcher"* %0, i64 0, i32 2
  %9 = tail call %"class.i18n::phonenumbers::PhoneNumberUtil"* @_ZN4i18n12phonenumbers15PhoneNumberUtil11GetInstanceEv() #12
  store %"class.i18n::phonenumbers::PhoneNumberUtil"* %9, %"class.i18n::phonenumbers::PhoneNumberUtil"** %8, align 8
  %10 = getelementptr inbounds %"class.i18n::phonenumbers::PhoneNumberMatcher", %"class.i18n::phonenumbers::PhoneNumberMatcher"* %0, i64 0, i32 3
  %11 = bitcast %"class.std::__1::basic_string"* %1 to %"struct.std::__1::basic_string<char, std::__1::char_traits<char>, std::__1::allocator<char> >::__short"*
  %12 = getelementptr inbounds %"struct.std::__1::basic_string<char, std::__1::char_traits<char>, std::__1::allocator<char> >::__short", %"struct.std::__1::basic_string<char, std::__1::char_traits<char>, std::__1::allocator<char> >::__short"* %11, i64 0, i32 1, i32 0
  %13 = load i8, i8* %12, align 1
  %14 = icmp slt i8 %13, 0
  br i1 %14, label %18, label %15

15:                                               ; preds = %3
  %16 = bitcast %"class.std::__1::basic_string"* %10 to i8*
  %17 = bitcast %"class.std::__1::basic_string"* %1 to i8*
  tail call void @llvm.memcpy.p0i8.p0i8.i64(i8* align 8 %16, i8* align 8 %17, i64 24, i1 false) #12
  br label %23

18:                                               ; preds = %3
  %19 = getelementptr inbounds %"class.std::__1::basic_string", %"class.std::__1::basic_string"* %1, i64 0, i32 0, i32 0, i32 0, i32 0, i32 0, i32 0
  %20 = load i8*, i8** %19, align 8
  %21 = getelementptr inbounds %"class.std::__1::basic_string", %"class.std::__1::basic_string"* %1, i64 0, i32 0, i32 0, i32 0, i32 0, i32 0, i32 1
  %22 = load i64, i64* %21, align 8
  tail call void @_ZNSt3__112basic_stringIcNS_11char_traitsIcEENS_9allocatorIcEEE25__init_copy_ctor_externalEPKcm(%"class.std::__1::basic_string"* %10, i8* %20, i64 %22) #12
  br label %23

23:                                               ; preds = %15, %18
  %24 = getelementptr inbounds %"class.i18n::phonenumbers::PhoneNumberMatcher", %"class.i18n::phonenumbers::PhoneNumberMatcher"* %0, i64 0, i32 4
  %25 = bitcast %"class.std::__1::basic_string"* %2 to %"struct.std::__1::basic_string<char, std::__1::char_traits<char>, std::__1::allocator<char> >::__short"*
  %26 = getelementptr inbounds %"struct.std::__1::basic_string<char, std::__1::char_traits<char>, std::__1::allocator<char> >::__short", %"struct.std::__1::basic_string<char, std::__1::char_traits<char>, std::__1::allocator<char> >::__short"* %25, i64 0, i32 1, i32 0
  %27 = load i8, i8* %26, align 1
  %28 = icmp slt i8 %27, 0
  br i1 %28, label %32, label %29

29:                                               ; preds = %23
  %30 = bitcast %"class.std::__1::basic_string"* %24 to i8*
  %31 = bitcast %"class.std::__1::basic_string"* %2 to i8*
  tail call void @llvm.memcpy.p0i8.p0i8.i64(i8* align 8 %30, i8* align 8 %31, i64 24, i1 false) #12
  br label %37

32:                                               ; preds = %23
  %33 = getelementptr inbounds %"class.std::__1::basic_string", %"class.std::__1::basic_string"* %2, i64 0, i32 0, i32 0, i32 0, i32 0, i32 0, i32 0
  %34 = load i8*, i8** %33, align 8
  %35 = getelementptr inbounds %"class.std::__1::basic_string", %"class.std::__1::basic_string"* %2, i64 0, i32 0, i32 0, i32 0, i32 0, i32 0, i32 1
  %36 = load i64, i64* %35, align 8
  tail call void @_ZNSt3__112basic_stringIcNS_11char_traitsIcEENS_9allocatorIcEEE25__init_copy_ctor_externalEPKcm(%"class.std::__1::basic_string"* %24, i8* %34, i64 %36) #12
  br label %37

37:                                               ; preds = %29, %32
  %38 = getelementptr inbounds %"class.i18n::phonenumbers::PhoneNumberMatcher", %"class.i18n::phonenumbers::PhoneNumberMatcher"* %0, i64 0, i32 5
  store i32 1, i32* %38, align 8
  %39 = getelementptr inbounds %"class.i18n::phonenumbers::PhoneNumberMatcher", %"class.i18n::phonenumbers::PhoneNumberMatcher"* %0, i64 0, i32 6
  store i32 2147483647, i32* %39, align 4
  %40 = getelementptr inbounds %"class.i18n::phonenumbers::PhoneNumberMatcher", %"class.i18n::phonenumbers::PhoneNumberMatcher"* %0, i64 0, i32 7
  store i32 0, i32* %40, align 8
  %41 = getelementptr inbounds %"class.i18n::phonenumbers::PhoneNumberMatcher", %"class.i18n::phonenumbers::PhoneNumberMatcher"* %0, i64 0, i32 9, i32 0, i32 0, i32 0
  store %"class.i18n::phonenumbers::PhoneNumberMatch"* null, %"class.i18n::phonenumbers::PhoneNumberMatch"** %41, align 8
  %42 = getelementptr inbounds %"class.i18n::phonenumbers::PhoneNumberMatcher", %"class.i18n::phonenumbers::PhoneNumberMatcher"* %0, i64 0, i32 10
  store i32 0, i32* %42, align 8
  ret void
}

declare %"class.i18n::phonenumbers::PhoneNumberUtil"* @_ZN4i18n12phonenumbers15PhoneNumberUtil11GetInstanceEv() local_unnamed_addr #1

; Function Attrs: nounwind ssp uwtable
define hidden void @_ZN4i18n12phonenumbers18PhoneNumberMatcherD2Ev(%"class.i18n::phonenumbers::PhoneNumberMatcher"* nocapture readonly) unnamed_addr #0 align 2 {
  %2 = getelementptr inbounds %"class.i18n::phonenumbers::PhoneNumberMatcher", %"class.i18n::phonenumbers::PhoneNumberMatcher"* %0, i64 0, i32 9, i32 0, i32 0, i32 0
  %3 = load %"class.i18n::phonenumbers::PhoneNumberMatch"*, %"class.i18n::phonenumbers::PhoneNumberMatch"** %2, align 8
  %4 = icmp eq %"class.i18n::phonenumbers::PhoneNumberMatch"* %3, null
  br i1 %4, label %17, label %5

5:                                                ; preds = %1
  %6 = getelementptr inbounds %"class.i18n::phonenumbers::PhoneNumberMatch", %"class.i18n::phonenumbers::PhoneNumberMatch"* %3, i64 0, i32 2
  tail call void @_ZN4i18n12phonenumbers11PhoneNumberD1Ev(%"class.i18n::phonenumbers::PhoneNumber"* %6) #12
  %7 = getelementptr inbounds %"class.i18n::phonenumbers::PhoneNumberMatch", %"class.i18n::phonenumbers::PhoneNumberMatch"* %3, i64 0, i32 1
  %8 = bitcast %"class.std::__1::basic_string"* %7 to %"struct.std::__1::basic_string<char, std::__1::char_traits<char>, std::__1::allocator<char> >::__short"*
  %9 = getelementptr inbounds %"struct.std::__1::basic_string<char, std::__1::char_traits<char>, std::__1::allocator<char> >::__short", %"struct.std::__1::basic_string<char, std::__1::char_traits<char>, std::__1::allocator<char> >::__short"* %8, i64 0, i32 1, i32 0
  %10 = load i8, i8* %9, align 1
  %11 = icmp slt i8 %10, 0
  br i1 %11, label %12, label %15

12:                                               ; preds = %5
  %13 = getelementptr inbounds %"class.std::__1::basic_string", %"class.std::__1::basic_string"* %7, i64 0, i32 0, i32 0, i32 0, i32 0, i32 0, i32 0
  %14 = load i8*, i8** %13, align 8
  tail call void @_ZdlPv(i8* %14) #13
  br label %15

15:                                               ; preds = %12, %5
  %16 = bitcast %"class.i18n::phonenumbers::PhoneNumberMatch"* %3 to i8*
  tail call void @_ZdlPv(i8* %16) #13
  br label %17

17:                                               ; preds = %1, %15
  %18 = getelementptr inbounds %"class.i18n::phonenumbers::PhoneNumberMatcher", %"class.i18n::phonenumbers::PhoneNumberMatcher"* %0, i64 0, i32 4
  %19 = bitcast %"class.std::__1::basic_string"* %18 to %"struct.std::__1::basic_string<char, std::__1::char_traits<char>, std::__1::allocator<char> >::__short"*
  %20 = getelementptr inbounds %"struct.std::__1::basic_string<char, std::__1::char_traits<char>, std::__1::allocator<char> >::__short", %"struct.std::__1::basic_string<char, std::__1::char_traits<char>, std::__1::allocator<char> >::__short"* %19, i64 0, i32 1, i32 0
  %21 = load i8, i8* %20, align 1
  %22 = icmp slt i8 %21, 0
  br i1 %22, label %23, label %26

23:                                               ; preds = %17
  %24 = getelementptr inbounds %"class.std::__1::basic_string", %"class.std::__1::basic_string"* %18, i64 0, i32 0, i32 0, i32 0, i32 0, i32 0, i32 0
  %25 = load i8*, i8** %24, align 8
  tail call void @_ZdlPv(i8* %25) #13
  br label %26

26:                                               ; preds = %17, %23
  %27 = getelementptr inbounds %"class.i18n::phonenumbers::PhoneNumberMatcher", %"class.i18n::phonenumbers::PhoneNumberMatcher"* %0, i64 0, i32 3
  %28 = bitcast %"class.std::__1::basic_string"* %27 to %"struct.std::__1::basic_string<char, std::__1::char_traits<char>, std::__1::allocator<char> >::__short"*
  %29 = getelementptr inbounds %"struct.std::__1::basic_string<char, std::__1::char_traits<char>, std::__1::allocator<char> >::__short", %"struct.std::__1::basic_string<char, std::__1::char_traits<char>, std::__1::allocator<char> >::__short"* %28, i64 0, i32 1, i32 0
  %30 = load i8, i8* %29, align 1
  %31 = icmp slt i8 %30, 0
  br i1 %31, label %32, label %35

32:                                               ; preds = %26
  %33 = getelementptr inbounds %"class.std::__1::basic_string", %"class.std::__1::basic_string"* %27, i64 0, i32 0, i32 0, i32 0, i32 0, i32 0, i32 0
  %34 = load i8*, i8** %33, align 8
  tail call void @_ZdlPv(i8* %34) #13
  br label %35

35:                                               ; preds = %26, %32
  ret void
}

; Function Attrs: nounwind ssp uwtable
define hidden zeroext i1 @_ZN4i18n12phonenumbers18PhoneNumberMatcher13IsLatinLetterEi(i32) local_unnamed_addr #0 align 2 {
  %2 = tail call signext i8 @u_isalpha_69(i32 %0) #12
  %3 = icmp eq i8 %2, 0
  br i1 %3, label %4, label %7

4:                                                ; preds = %1
  %5 = tail call signext i8 @u_charType_69(i32 %0) #12
  %6 = icmp eq i8 %5, 6
  br i1 %6, label %7, label %16

7:                                                ; preds = %4, %1
  %8 = tail call i32 @ublock_getCode_69(i32 %0) #12
  %9 = add i32 %8, -1
  %10 = icmp ult i32 %9, 38
  br i1 %10, label %11, label %16

11:                                               ; preds = %7
  %12 = zext i32 %9 to i38
  %13 = lshr i38 -137438953393, %12
  %14 = and i38 %13, 1
  %15 = icmp ne i38 %14, 0
  ret i1 %15

16:                                               ; preds = %7, %4
  ret i1 false
}

declare signext i8 @u_isalpha_69(i32) local_unnamed_addr #1

declare signext i8 @u_charType_69(i32) local_unnamed_addr #1

; Function Attrs: argmemonly nounwind
declare void @llvm.lifetime.start.p0i8(i64 immarg, i8* nocapture) #2

declare i32 @ublock_getCode_69(i32) local_unnamed_addr #1

; Function Attrs: argmemonly nounwind
declare void @llvm.lifetime.end.p0i8(i64 immarg, i8* nocapture) #2

; Function Attrs: nounwind ssp uwtable
define hidden zeroext i1 @_ZN4i18n12phonenumbers18PhoneNumberMatcher14ParseAndVerifyERKNSt3__112basic_stringIcNS2_11char_traitsIcEENS2_9allocatorIcEEEEiPNS0_16PhoneNumberMatchE(%"class.i18n::phonenumbers::PhoneNumberMatcher"*, %"class.std::__1::basic_string"* dereferenceable(24), i32, %"class.i18n::phonenumbers::PhoneNumberMatch"*) local_unnamed_addr #0 align 2 {
  %5 = alloca i32, align 4
  %6 = alloca i32, align 4
  %7 = alloca %"class.i18n::phonenumbers::PhoneNumber", align 8
  %8 = getelementptr inbounds %"class.i18n::phonenumbers::PhoneNumberMatcher", %"class.i18n::phonenumbers::PhoneNumberMatcher"* %0, i64 0, i32 0
  %9 = load %"class.i18n::phonenumbers::PhoneNumberMatcherRegExps"*, %"class.i18n::phonenumbers::PhoneNumberMatcherRegExps"** %8, align 8
  %10 = getelementptr inbounds %"class.i18n::phonenumbers::PhoneNumberMatcherRegExps", %"class.i18n::phonenumbers::PhoneNumberMatcherRegExps"* %9, i64 0, i32 22, i32 0, i32 0, i32 0
  %11 = load %"class.i18n::phonenumbers::RegExp"*, %"class.i18n::phonenumbers::RegExp"** %10, align 8
  %12 = bitcast %"class.i18n::phonenumbers::RegExp"* %11 to i1 (%"class.i18n::phonenumbers::RegExp"*, %"class.std::__1::basic_string"*, i1, %"class.std::__1::basic_string"*)***
  %13 = load i1 (%"class.i18n::phonenumbers::RegExp"*, %"class.std::__1::basic_string"*, i1, %"class.std::__1::basic_string"*)**, i1 (%"class.i18n::phonenumbers::RegExp"*, %"class.std::__1::basic_string"*, i1, %"class.std::__1::basic_string"*)*** %12, align 8
  %14 = getelementptr inbounds i1 (%"class.i18n::phonenumbers::RegExp"*, %"class.std::__1::basic_string"*, i1, %"class.std::__1::basic_string"*)*, i1 (%"class.i18n::phonenumbers::RegExp"*, %"class.std::__1::basic_string"*, i1, %"class.std::__1::basic_string"*)** %13, i64 3
  %15 = load i1 (%"class.i18n::phonenumbers::RegExp"*, %"class.std::__1::basic_string"*, i1, %"class.std::__1::basic_string"*)*, i1 (%"class.i18n::phonenumbers::RegExp"*, %"class.std::__1::basic_string"*, i1, %"class.std::__1::basic_string"*)** %14, align 8
  %16 = tail call zeroext i1 %15(%"class.i18n::phonenumbers::RegExp"* %11, %"class.std::__1::basic_string"* dereferenceable(24) %1, i1 zeroext true, %"class.std::__1::basic_string"* null) #12
  br i1 %16, label %17, label %205

17:                                               ; preds = %4
  %18 = load %"class.i18n::phonenumbers::PhoneNumberMatcherRegExps"*, %"class.i18n::phonenumbers::PhoneNumberMatcherRegExps"** %8, align 8
  %19 = getelementptr inbounds %"class.i18n::phonenumbers::PhoneNumberMatcherRegExps", %"class.i18n::phonenumbers::PhoneNumberMatcherRegExps"* %18, i64 0, i32 18, i32 0, i32 0, i32 0
  %20 = load %"class.i18n::phonenumbers::RegExp"*, %"class.i18n::phonenumbers::RegExp"** %19, align 8
  %21 = bitcast %"class.i18n::phonenumbers::RegExp"* %20 to i1 (%"class.i18n::phonenumbers::RegExp"*, %"class.std::__1::basic_string"*, i1, %"class.std::__1::basic_string"*)***
  %22 = load i1 (%"class.i18n::phonenumbers::RegExp"*, %"class.std::__1::basic_string"*, i1, %"class.std::__1::basic_string"*)**, i1 (%"class.i18n::phonenumbers::RegExp"*, %"class.std::__1::basic_string"*, i1, %"class.std::__1::basic_string"*)*** %21, align 8
  %23 = getelementptr inbounds i1 (%"class.i18n::phonenumbers::RegExp"*, %"class.std::__1::basic_string"*, i1, %"class.std::__1::basic_string"*)*, i1 (%"class.i18n::phonenumbers::RegExp"*, %"class.std::__1::basic_string"*, i1, %"class.std::__1::basic_string"*)** %22, i64 3
  %24 = load i1 (%"class.i18n::phonenumbers::RegExp"*, %"class.std::__1::basic_string"*, i1, %"class.std::__1::basic_string"*)*, i1 (%"class.i18n::phonenumbers::RegExp"*, %"class.std::__1::basic_string"*, i1, %"class.std::__1::basic_string"*)** %23, align 8
  %25 = tail call zeroext i1 %24(%"class.i18n::phonenumbers::RegExp"* %20, %"class.std::__1::basic_string"* dereferenceable(24) %1, i1 zeroext false, %"class.std::__1::basic_string"* null) #12
  br i1 %25, label %205, label %26

26:                                               ; preds = %17
  %27 = getelementptr inbounds %"class.i18n::phonenumbers::PhoneNumberMatcher", %"class.i18n::phonenumbers::PhoneNumberMatcher"* %0, i64 0, i32 5
  %28 = load i32, i32* %27, align 8
  %29 = icmp sgt i32 %28, 0
  br i1 %29, label %30, label %154

30:                                               ; preds = %26
  %31 = load %"class.i18n::phonenumbers::PhoneNumberMatcherRegExps"*, %"class.i18n::phonenumbers::PhoneNumberMatcherRegExps"** %8, align 8
  %32 = getelementptr inbounds %"class.i18n::phonenumbers::PhoneNumberMatcherRegExps", %"class.i18n::phonenumbers::PhoneNumberMatcherRegExps"* %31, i64 0, i32 16, i32 0, i32 0, i32 0
  %33 = load %"class.i18n::phonenumbers::AbstractRegExpFactory"*, %"class.i18n::phonenumbers::AbstractRegExpFactory"** %32, align 8
  %34 = bitcast %"class.i18n::phonenumbers::AbstractRegExpFactory"* %33 to %"class.i18n::phonenumbers::RegExpInput"* (%"class.i18n::phonenumbers::AbstractRegExpFactory"*, %"class.std::__1::basic_string"*)***
  %35 = load %"class.i18n::phonenumbers::RegExpInput"* (%"class.i18n::phonenumbers::AbstractRegExpFactory"*, %"class.std::__1::basic_string"*)**, %"class.i18n::phonenumbers::RegExpInput"* (%"class.i18n::phonenumbers::AbstractRegExpFactory"*, %"class.std::__1::basic_string"*)*** %34, align 8
  %36 = getelementptr inbounds %"class.i18n::phonenumbers::RegExpInput"* (%"class.i18n::phonenumbers::AbstractRegExpFactory"*, %"class.std::__1::basic_string"*)*, %"class.i18n::phonenumbers::RegExpInput"* (%"class.i18n::phonenumbers::AbstractRegExpFactory"*, %"class.std::__1::basic_string"*)** %35, i64 2
  %37 = load %"class.i18n::phonenumbers::RegExpInput"* (%"class.i18n::phonenumbers::AbstractRegExpFactory"*, %"class.std::__1::basic_string"*)*, %"class.i18n::phonenumbers::RegExpInput"* (%"class.i18n::phonenumbers::AbstractRegExpFactory"*, %"class.std::__1::basic_string"*)** %36, align 8
  %38 = tail call %"class.i18n::phonenumbers::RegExpInput"* %37(%"class.i18n::phonenumbers::AbstractRegExpFactory"* %33, %"class.std::__1::basic_string"* dereferenceable(24) %1) #12
  %39 = icmp sgt i32 %2, 0
  br i1 %39, label %40, label %88

40:                                               ; preds = %30
  %41 = load %"class.i18n::phonenumbers::PhoneNumberMatcherRegExps"*, %"class.i18n::phonenumbers::PhoneNumberMatcherRegExps"** %8, align 8
  %42 = getelementptr inbounds %"class.i18n::phonenumbers::PhoneNumberMatcherRegExps", %"class.i18n::phonenumbers::PhoneNumberMatcherRegExps"* %41, i64 0, i32 26, i32 0, i32 0, i32 0
  %43 = load %"class.i18n::phonenumbers::RegExp"*, %"class.i18n::phonenumbers::RegExp"** %42, align 8
  %44 = bitcast %"class.i18n::phonenumbers::RegExp"* %43 to i1 (%"class.i18n::phonenumbers::RegExp"*, %"class.i18n::phonenumbers::RegExpInput"*, i1, %"class.std::__1::basic_string"*, %"class.std::__1::basic_string"*, %"class.std::__1::basic_string"*)***
  %45 = load i1 (%"class.i18n::phonenumbers::RegExp"*, %"class.i18n::phonenumbers::RegExpInput"*, i1, %"class.std::__1::basic_string"*, %"class.std::__1::basic_string"*, %"class.std::__1::basic_string"*)**, i1 (%"class.i18n::phonenumbers::RegExp"*, %"class.i18n::phonenumbers::RegExpInput"*, i1, %"class.std::__1::basic_string"*, %"class.std::__1::basic_string"*, %"class.std::__1::basic_string"*)*** %44, align 8
  %46 = getelementptr inbounds i1 (%"class.i18n::phonenumbers::RegExp"*, %"class.i18n::phonenumbers::RegExpInput"*, i1, %"class.std::__1::basic_string"*, %"class.std::__1::basic_string"*, %"class.std::__1::basic_string"*)*, i1 (%"class.i18n::phonenumbers::RegExp"*, %"class.i18n::phonenumbers::RegExpInput"*, i1, %"class.std::__1::basic_string"*, %"class.std::__1::basic_string"*, %"class.std::__1::basic_string"*)** %45, i64 2
  %47 = load i1 (%"class.i18n::phonenumbers::RegExp"*, %"class.i18n::phonenumbers::RegExpInput"*, i1, %"class.std::__1::basic_string"*, %"class.std::__1::basic_string"*, %"class.std::__1::basic_string"*)*, i1 (%"class.i18n::phonenumbers::RegExp"*, %"class.i18n::phonenumbers::RegExpInput"*, i1, %"class.std::__1::basic_string"*, %"class.std::__1::basic_string"*, %"class.std::__1::basic_string"*)** %46, align 8
  %48 = tail call zeroext i1 %47(%"class.i18n::phonenumbers::RegExp"* %43, %"class.i18n::phonenumbers::RegExpInput"* %38, i1 zeroext true, %"class.std::__1::basic_string"* null, %"class.std::__1::basic_string"* null, %"class.std::__1::basic_string"* null) #12
  br i1 %48, label %88, label %49

49:                                               ; preds = %40
  %50 = getelementptr inbounds %"class.i18n::phonenumbers::PhoneNumberMatcher", %"class.i18n::phonenumbers::PhoneNumberMatcher"* %0, i64 0, i32 3
  %51 = bitcast %"class.std::__1::basic_string"* %50 to %"struct.std::__1::basic_string<char, std::__1::char_traits<char>, std::__1::allocator<char> >::__short"*
  %52 = getelementptr inbounds %"struct.std::__1::basic_string<char, std::__1::char_traits<char>, std::__1::allocator<char> >::__short", %"struct.std::__1::basic_string<char, std::__1::char_traits<char>, std::__1::allocator<char> >::__short"* %51, i64 0, i32 1, i32 0
  %53 = load i8, i8* %52, align 1
  %54 = icmp slt i8 %53, 0
  br i1 %54, label %55, label %58

55:                                               ; preds = %49
  %56 = getelementptr inbounds %"class.std::__1::basic_string", %"class.std::__1::basic_string"* %50, i64 0, i32 0, i32 0, i32 0, i32 0, i32 0, i32 0
  %57 = load i8*, i8** %56, align 8
  br label %60

58:                                               ; preds = %49
  %59 = bitcast %"class.std::__1::basic_string"* %50 to i8*
  br label %60

60:                                               ; preds = %55, %58
  %61 = phi i8* [ %57, %55 ], [ %59, %58 ]
  %62 = sext i32 %2 to i64
  %63 = getelementptr inbounds i8, i8* %61, i64 %62
  br label %64

64:                                               ; preds = %67, %60
  %65 = phi i8* [ %63, %60 ], [ %68, %67 ]
  %66 = icmp ugt i8* %65, %61
  br i1 %66, label %67, label %71

67:                                               ; preds = %64
  %68 = getelementptr inbounds i8, i8* %65, i64 -1
  %69 = load i8, i8* %68, align 1
  %70 = icmp slt i8 %69, -64
  br i1 %70, label %64, label %71

71:                                               ; preds = %64, %67
  %72 = phi i8* [ %68, %67 ], [ %65, %64 ]
  %73 = bitcast i32* %5 to i8*
  call void @llvm.lifetime.start.p0i8(i64 4, i8* nonnull %73) #12
  store i32 -1431655766, i32* %5, align 4
  %74 = call i32 @chartorune(i32* nonnull %5, i8* %72) #12
  %75 = load i32, i32* %5, align 4
  call void @llvm.lifetime.end.p0i8(i64 4, i8* nonnull %73) #12
  %76 = icmp eq i32 %75, 37
  br i1 %76, label %144, label %77

77:                                               ; preds = %71
  %78 = call signext i8 @u_charType_69(i32 %75) #12
  %79 = icmp eq i8 %78, 25
  br i1 %79, label %144, label %80

80:                                               ; preds = %77
  %81 = call signext i8 @u_isalpha_69(i32 %75) #12
  %82 = icmp eq i8 %81, 0
  br i1 %82, label %83, label %86

83:                                               ; preds = %80
  %84 = call signext i8 @u_charType_69(i32 %75) #12
  %85 = icmp eq i8 %84, 6
  br i1 %85, label %86, label %88

86:                                               ; preds = %83, %80
  %87 = call i32 @ublock_getCode_69(i32 %75) #12
  switch i32 %87, label %88 [
    i32 38, label %144
    i32 4, label %144
    i32 3, label %144
    i32 2, label %144
    i32 1, label %144
    i32 7, label %144
  ]

88:                                               ; preds = %86, %83, %40, %30
  %89 = sext i32 %2 to i64
  %90 = bitcast %"class.std::__1::basic_string"* %1 to %"struct.std::__1::basic_string<char, std::__1::char_traits<char>, std::__1::allocator<char> >::__short"*
  %91 = getelementptr inbounds %"struct.std::__1::basic_string<char, std::__1::char_traits<char>, std::__1::allocator<char> >::__short", %"struct.std::__1::basic_string<char, std::__1::char_traits<char>, std::__1::allocator<char> >::__short"* %90, i64 0, i32 1, i32 0
  %92 = load i8, i8* %91, align 1
  %93 = icmp slt i8 %92, 0
  %94 = getelementptr inbounds %"class.std::__1::basic_string", %"class.std::__1::basic_string"* %1, i64 0, i32 0, i32 0, i32 0, i32 0, i32 0, i32 1
  %95 = load i64, i64* %94, align 8
  %96 = zext i8 %92 to i64
  %97 = select i1 %93, i64 %95, i64 %96
  %98 = add i64 %97, %89
  %99 = getelementptr inbounds %"class.i18n::phonenumbers::PhoneNumberMatcher", %"class.i18n::phonenumbers::PhoneNumberMatcher"* %0, i64 0, i32 3
  %100 = bitcast %"class.std::__1::basic_string"* %99 to %"struct.std::__1::basic_string<char, std::__1::char_traits<char>, std::__1::allocator<char> >::__short"*
  %101 = getelementptr inbounds %"struct.std::__1::basic_string<char, std::__1::char_traits<char>, std::__1::allocator<char> >::__short", %"struct.std::__1::basic_string<char, std::__1::char_traits<char>, std::__1::allocator<char> >::__short"* %100, i64 0, i32 1, i32 0
  %102 = load i8, i8* %101, align 1
  %103 = icmp slt i8 %102, 0
  br i1 %103, label %104, label %107

104:                                              ; preds = %88
  %105 = getelementptr inbounds %"class.i18n::phonenumbers::PhoneNumberMatcher", %"class.i18n::phonenumbers::PhoneNumberMatcher"* %0, i64 0, i32 3, i32 0, i32 0, i32 0, i32 0, i32 0, i32 1
  %106 = load i64, i64* %105, align 8
  br label %109

107:                                              ; preds = %88
  %108 = zext i8 %102 to i64
  br label %109

109:                                              ; preds = %104, %107
  %110 = phi i64 [ %106, %104 ], [ %108, %107 ]
  %111 = icmp ult i64 %98, %110
  br i1 %111, label %112, label %144

112:                                              ; preds = %109
  br i1 %103, label %113, label %116

113:                                              ; preds = %112
  %114 = getelementptr inbounds %"class.std::__1::basic_string", %"class.std::__1::basic_string"* %99, i64 0, i32 0, i32 0, i32 0, i32 0, i32 0, i32 0
  %115 = load i8*, i8** %114, align 8
  br label %118

116:                                              ; preds = %112
  %117 = bitcast %"class.std::__1::basic_string"* %99 to i8*
  br label %118

118:                                              ; preds = %113, %116
  %119 = phi i8* [ %115, %113 ], [ %117, %116 ]
  %120 = getelementptr inbounds i8, i8* %119, i64 %98
  %121 = getelementptr inbounds i8, i8* %120, i64 -1
  %122 = load i8, i8* %121, align 1
  %123 = zext i8 %122 to i64
  %124 = getelementptr inbounds [256 x i8], [256 x i8]* @_ZN4i18n12phonenumbers6UniLibL11kUTF8LenTblE, i64 0, i64 %123
  %125 = load i8, i8* %124, align 1
  %126 = zext i8 %125 to i64
  %127 = getelementptr inbounds i8, i8* %121, i64 %126
  %128 = bitcast i32* %6 to i8*
  call void @llvm.lifetime.start.p0i8(i64 4, i8* nonnull %128) #12
  store i32 -1431655766, i32* %6, align 4
  %129 = call i32 @chartorune(i32* nonnull %6, i8* %127) #12
  %130 = load i32, i32* %6, align 4
  call void @llvm.lifetime.end.p0i8(i64 4, i8* nonnull %128) #12
  %131 = icmp eq i32 %130, 37
  br i1 %131, label %143, label %132

132:                                              ; preds = %118
  %133 = call signext i8 @u_charType_69(i32 %130) #12
  %134 = icmp eq i8 %133, 25
  br i1 %134, label %143, label %135

135:                                              ; preds = %132
  %136 = call signext i8 @u_isalpha_69(i32 %130) #12
  %137 = icmp eq i8 %136, 0
  br i1 %137, label %138, label %141

138:                                              ; preds = %135
  %139 = call signext i8 @u_charType_69(i32 %130) #12
  %140 = icmp eq i8 %139, 6
  br i1 %140, label %141, label %144

141:                                              ; preds = %138, %135
  %142 = call i32 @ublock_getCode_69(i32 %130) #12
  switch i32 %142, label %144 [
    i32 38, label %143
    i32 4, label %143
    i32 3, label %143
    i32 2, label %143
    i32 1, label %143
    i32 7, label %143
  ]

143:                                              ; preds = %132, %141, %141, %141, %141, %141, %141, %118
  br label %144

144:                                              ; preds = %141, %71, %86, %86, %86, %86, %86, %86, %77, %109, %138, %143
  %145 = phi i32 [ 1, %143 ], [ 0, %138 ], [ 0, %109 ], [ 1, %77 ], [ 1, %86 ], [ 1, %86 ], [ 1, %86 ], [ 1, %86 ], [ 1, %86 ], [ 1, %86 ], [ 1, %71 ], [ 0, %141 ]
  %146 = icmp eq %"class.i18n::phonenumbers::RegExpInput"* %38, null
  br i1 %146, label %152, label %147

147:                                              ; preds = %144
  %148 = bitcast %"class.i18n::phonenumbers::RegExpInput"* %38 to void (%"class.i18n::phonenumbers::RegExpInput"*)***
  %149 = load void (%"class.i18n::phonenumbers::RegExpInput"*)**, void (%"class.i18n::phonenumbers::RegExpInput"*)*** %148, align 8
  %150 = getelementptr inbounds void (%"class.i18n::phonenumbers::RegExpInput"*)*, void (%"class.i18n::phonenumbers::RegExpInput"*)** %149, i64 1
  %151 = load void (%"class.i18n::phonenumbers::RegExpInput"*)*, void (%"class.i18n::phonenumbers::RegExpInput"*)** %150, align 8
  call void %151(%"class.i18n::phonenumbers::RegExpInput"* nonnull %38) #12
  br label %152

152:                                              ; preds = %144, %147
  %153 = icmp eq i32 %145, 0
  br i1 %153, label %154, label %205

154:                                              ; preds = %152, %26
  %155 = bitcast %"class.i18n::phonenumbers::PhoneNumber"* %7 to i8*
  call void @llvm.lifetime.start.p0i8(i64 72, i8* nonnull %155) #12
  call void @llvm.memset.p0i8.i64(i8* nonnull align 8 %155, i8 -86, i64 72, i1 false)
  call void @_ZN4i18n12phonenumbers11PhoneNumberC2EPN6google8protobuf5ArenaE(%"class.i18n::phonenumbers::PhoneNumber"* nonnull %7, %"class.google::protobuf::Arena"* null) #12
  %156 = getelementptr inbounds %"class.i18n::phonenumbers::PhoneNumberMatcher", %"class.i18n::phonenumbers::PhoneNumberMatcher"* %0, i64 0, i32 2
  %157 = load %"class.i18n::phonenumbers::PhoneNumberUtil"*, %"class.i18n::phonenumbers::PhoneNumberUtil"** %156, align 8
  %158 = getelementptr inbounds %"class.i18n::phonenumbers::PhoneNumberMatcher", %"class.i18n::phonenumbers::PhoneNumberMatcher"* %0, i64 0, i32 4
  %159 = call i32 @_ZNK4i18n12phonenumbers15PhoneNumberUtil20ParseAndKeepRawInputERKNSt3__112basic_stringIcNS2_11char_traitsIcEENS2_9allocatorIcEEEESA_PNS0_11PhoneNumberE(%"class.i18n::phonenumbers::PhoneNumberUtil"* %157, %"class.std::__1::basic_string"* dereferenceable(24) %1, %"class.std::__1::basic_string"* dereferenceable(24) %158, %"class.i18n::phonenumbers::PhoneNumber"* nonnull %7) #12
  %160 = icmp eq i32 %159, 0
  br i1 %160, label %161, label %203

161:                                              ; preds = %154
  %162 = load i32, i32* %27, align 8
  %163 = call zeroext i1 @_ZNK4i18n12phonenumbers18PhoneNumberMatcher25VerifyAccordingToLeniencyENS1_8LeniencyERKNS0_11PhoneNumberERKNSt3__112basic_stringIcNS6_11char_traitsIcEENS6_9allocatorIcEEEE(%"class.i18n::phonenumbers::PhoneNumberMatcher"* %0, i32 %162, %"class.i18n::phonenumbers::PhoneNumber"* nonnull dereferenceable(72) %7, %"class.std::__1::basic_string"* dereferenceable(24) %1)
  br i1 %163, label %164, label %203

164:                                              ; preds = %161
  call void @_ZN4i18n12phonenumbers16PhoneNumberMatch9set_startEi(%"class.i18n::phonenumbers::PhoneNumberMatch"* %3, i32 %2) #12
  call void @_ZN4i18n12phonenumbers16PhoneNumberMatch14set_raw_stringERKNSt3__112basic_stringIcNS2_11char_traitsIcEENS2_9allocatorIcEEEE(%"class.i18n::phonenumbers::PhoneNumberMatch"* %3, %"class.std::__1::basic_string"* dereferenceable(24) %1) #12
  %165 = getelementptr inbounds %"class.i18n::phonenumbers::PhoneNumber", %"class.i18n::phonenumbers::PhoneNumber"* %7, i64 0, i32 9
  store i32 0, i32* %165, align 8
  %166 = getelementptr inbounds %"class.i18n::phonenumbers::PhoneNumber", %"class.i18n::phonenumbers::PhoneNumber"* %7, i64 0, i32 1, i32 0, i64 0
  %167 = load i32, i32* %166, align 8
  %168 = and i32 %167, -65
  store i32 %168, i32* %166, align 8
  %169 = getelementptr inbounds %"class.i18n::phonenumbers::PhoneNumber", %"class.i18n::phonenumbers::PhoneNumber"* %7, i64 0, i32 5, i32 0
  %170 = load %"class.std::__1::basic_string"*, %"class.std::__1::basic_string"** %169, align 8
  %171 = icmp eq %"class.std::__1::basic_string"* %170, bitcast (%"class.google::protobuf::internal::ExplicitlyConstructed"* @_ZN6google8protobuf8internal26fixed_address_empty_stringE to %"class.std::__1::basic_string"*)
  br i1 %171, label %183, label %172

172:                                              ; preds = %164
  %173 = bitcast %"class.std::__1::basic_string"* %170 to %"struct.std::__1::basic_string<char, std::__1::char_traits<char>, std::__1::allocator<char> >::__short"*
  %174 = getelementptr inbounds %"struct.std::__1::basic_string<char, std::__1::char_traits<char>, std::__1::allocator<char> >::__short", %"struct.std::__1::basic_string<char, std::__1::char_traits<char>, std::__1::allocator<char> >::__short"* %173, i64 0, i32 1, i32 0
  %175 = load i8, i8* %174, align 1
  %176 = icmp slt i8 %175, 0
  br i1 %176, label %177, label %181

177:                                              ; preds = %172
  %178 = getelementptr inbounds %"class.std::__1::basic_string", %"class.std::__1::basic_string"* %170, i64 0, i32 0, i32 0, i32 0, i32 0, i32 0, i32 0
  %179 = load i8*, i8** %178, align 8
  store i8 0, i8* %179, align 1
  %180 = getelementptr inbounds %"class.std::__1::basic_string", %"class.std::__1::basic_string"* %170, i64 0, i32 0, i32 0, i32 0, i32 0, i32 0, i32 1
  store i64 0, i64* %180, align 8
  br label %183

181:                                              ; preds = %172
  %182 = bitcast %"class.std::__1::basic_string"* %170 to i8*
  store i8 0, i8* %182, align 1
  store i8 0, i8* %174, align 1
  br label %183

183:                                              ; preds = %164, %177, %181
  %184 = load i32, i32* %166, align 8
  %185 = and i32 %184, -5
  store i32 %185, i32* %166, align 8
  %186 = getelementptr inbounds %"class.i18n::phonenumbers::PhoneNumber", %"class.i18n::phonenumbers::PhoneNumber"* %7, i64 0, i32 4, i32 0
  %187 = load %"class.std::__1::basic_string"*, %"class.std::__1::basic_string"** %186, align 8
  %188 = icmp eq %"class.std::__1::basic_string"* %187, bitcast (%"class.google::protobuf::internal::ExplicitlyConstructed"* @_ZN6google8protobuf8internal26fixed_address_empty_stringE to %"class.std::__1::basic_string"*)
  br i1 %188, label %200, label %189

189:                                              ; preds = %183
  %190 = bitcast %"class.std::__1::basic_string"* %187 to %"struct.std::__1::basic_string<char, std::__1::char_traits<char>, std::__1::allocator<char> >::__short"*
  %191 = getelementptr inbounds %"struct.std::__1::basic_string<char, std::__1::char_traits<char>, std::__1::allocator<char> >::__short", %"struct.std::__1::basic_string<char, std::__1::char_traits<char>, std::__1::allocator<char> >::__short"* %190, i64 0, i32 1, i32 0
  %192 = load i8, i8* %191, align 1
  %193 = icmp slt i8 %192, 0
  br i1 %193, label %194, label %198

194:                                              ; preds = %189
  %195 = getelementptr inbounds %"class.std::__1::basic_string", %"class.std::__1::basic_string"* %187, i64 0, i32 0, i32 0, i32 0, i32 0, i32 0, i32 0
  %196 = load i8*, i8** %195, align 8
  store i8 0, i8* %196, align 1
  %197 = getelementptr inbounds %"class.std::__1::basic_string", %"class.std::__1::basic_string"* %187, i64 0, i32 0, i32 0, i32 0, i32 0, i32 0, i32 1
  store i64 0, i64* %197, align 8
  br label %200

198:                                              ; preds = %189
  %199 = bitcast %"class.std::__1::basic_string"* %187 to i8*
  store i8 0, i8* %199, align 1
  store i8 0, i8* %191, align 1
  br label %200

200:                                              ; preds = %183, %194, %198
  %201 = load i32, i32* %166, align 8
  %202 = and i32 %201, -3
  store i32 %202, i32* %166, align 8
  call void @_ZN4i18n12phonenumbers16PhoneNumberMatch10set_numberERKNS0_11PhoneNumberE(%"class.i18n::phonenumbers::PhoneNumberMatch"* %3, %"class.i18n::phonenumbers::PhoneNumber"* nonnull dereferenceable(72) %7) #12
  br label %203

203:                                              ; preds = %161, %154, %200
  %204 = phi i1 [ true, %200 ], [ false, %154 ], [ false, %161 ]
  call void @_ZN4i18n12phonenumbers11PhoneNumberD1Ev(%"class.i18n::phonenumbers::PhoneNumber"* nonnull %7) #12
  call void @llvm.lifetime.end.p0i8(i64 72, i8* nonnull %155) #12
  br label %205

205:                                              ; preds = %4, %17, %152, %203
  %206 = phi i1 [ %204, %203 ], [ false, %152 ], [ false, %17 ], [ false, %4 ]
  ret i1 %206
}

; Function Attrs: argmemonly nounwind
declare void @llvm.memset.p0i8.i64(i8* nocapture writeonly, i8, i64, i1 immarg) #2

declare i32 @_ZNK4i18n12phonenumbers15PhoneNumberUtil20ParseAndKeepRawInputERKNSt3__112basic_stringIcNS2_11char_traitsIcEENS2_9allocatorIcEEEESA_PNS0_11PhoneNumberE(%"class.i18n::phonenumbers::PhoneNumberUtil"*, %"class.std::__1::basic_string"* dereferenceable(24), %"class.std::__1::basic_string"* dereferenceable(24), %"class.i18n::phonenumbers::PhoneNumber"*) local_unnamed_addr #1

; Function Attrs: nounwind ssp uwtable
define hidden zeroext i1 @_ZNK4i18n12phonenumbers18PhoneNumberMatcher25VerifyAccordingToLeniencyENS1_8LeniencyERKNS0_11PhoneNumberERKNSt3__112basic_stringIcNS6_11char_traitsIcEENS6_9allocatorIcEEEE(%"class.i18n::phonenumbers::PhoneNumberMatcher"*, i32, %"class.i18n::phonenumbers::PhoneNumber"* dereferenceable(72), %"class.std::__1::basic_string"* dereferenceable(24)) local_unnamed_addr #0 align 2 {
  %5 = alloca %"class.std::__1::basic_string", align 8
  %6 = alloca %"class.std::__1::basic_string", align 8
  %7 = alloca %"class.i18n::phonenumbers::LoggerHandler", align 8
  switch i32 %1, label %69 [
    i32 0, label %8
    i32 1, label %12
    i32 2, label %21
    i32 3, label %44
  ]

8:                                                ; preds = %4
  %9 = getelementptr inbounds %"class.i18n::phonenumbers::PhoneNumberMatcher", %"class.i18n::phonenumbers::PhoneNumberMatcher"* %0, i64 0, i32 2
  %10 = load %"class.i18n::phonenumbers::PhoneNumberUtil"*, %"class.i18n::phonenumbers::PhoneNumberUtil"** %9, align 8
  %11 = tail call zeroext i1 @_ZNK4i18n12phonenumbers15PhoneNumberUtil16IsPossibleNumberERKNS0_11PhoneNumberE(%"class.i18n::phonenumbers::PhoneNumberUtil"* %10, %"class.i18n::phonenumbers::PhoneNumber"* dereferenceable(72) %2) #12
  br label %120

12:                                               ; preds = %4
  %13 = getelementptr inbounds %"class.i18n::phonenumbers::PhoneNumberMatcher", %"class.i18n::phonenumbers::PhoneNumberMatcher"* %0, i64 0, i32 2
  %14 = load %"class.i18n::phonenumbers::PhoneNumberUtil"*, %"class.i18n::phonenumbers::PhoneNumberUtil"** %13, align 8
  %15 = tail call zeroext i1 @_ZNK4i18n12phonenumbers15PhoneNumberUtil13IsValidNumberERKNS0_11PhoneNumberE(%"class.i18n::phonenumbers::PhoneNumberUtil"* %14, %"class.i18n::phonenumbers::PhoneNumber"* dereferenceable(72) %2) #12
  br i1 %15, label %16, label %120

16:                                               ; preds = %12
  %17 = load %"class.i18n::phonenumbers::PhoneNumberUtil"*, %"class.i18n::phonenumbers::PhoneNumberUtil"** %13, align 8
  %18 = tail call fastcc zeroext i1 @_ZN4i18n12phonenumbers12_GLOBAL__N_123ContainsOnlyValidXCharsERKNS0_11PhoneNumberERKNSt3__112basic_stringIcNS5_11char_traitsIcEENS5_9allocatorIcEEEERKNS0_15PhoneNumberUtilE(%"class.i18n::phonenumbers::PhoneNumber"* dereferenceable(72) %2, %"class.std::__1::basic_string"* dereferenceable(24) %3, %"class.i18n::phonenumbers::PhoneNumberUtil"* dereferenceable(64) %17)
  br i1 %18, label %19, label %120

19:                                               ; preds = %16
  %20 = tail call zeroext i1 @_ZNK4i18n12phonenumbers18PhoneNumberMatcher33IsNationalPrefixPresentIfRequiredERKNS0_11PhoneNumberE(%"class.i18n::phonenumbers::PhoneNumberMatcher"* %0, %"class.i18n::phonenumbers::PhoneNumber"* dereferenceable(72) %2)
  br label %120

21:                                               ; preds = %4
  %22 = getelementptr inbounds %"class.i18n::phonenumbers::PhoneNumberMatcher", %"class.i18n::phonenumbers::PhoneNumberMatcher"* %0, i64 0, i32 2
  %23 = load %"class.i18n::phonenumbers::PhoneNumberUtil"*, %"class.i18n::phonenumbers::PhoneNumberUtil"** %22, align 8
  %24 = tail call zeroext i1 @_ZNK4i18n12phonenumbers15PhoneNumberUtil13IsValidNumberERKNS0_11PhoneNumberE(%"class.i18n::phonenumbers::PhoneNumberUtil"* %23, %"class.i18n::phonenumbers::PhoneNumber"* dereferenceable(72) %2) #12
  br i1 %24, label %25, label %120

25:                                               ; preds = %21
  %26 = load %"class.i18n::phonenumbers::PhoneNumberUtil"*, %"class.i18n::phonenumbers::PhoneNumberUtil"** %22, align 8
  %27 = tail call fastcc zeroext i1 @_ZN4i18n12phonenumbers12_GLOBAL__N_123ContainsOnlyValidXCharsERKNS0_11PhoneNumberERKNSt3__112basic_stringIcNS5_11char_traitsIcEENS5_9allocatorIcEEEERKNS0_15PhoneNumberUtilE(%"class.i18n::phonenumbers::PhoneNumber"* dereferenceable(72) %2, %"class.std::__1::basic_string"* dereferenceable(24) %3, %"class.i18n::phonenumbers::PhoneNumberUtil"* dereferenceable(64) %26)
  br i1 %27, label %28, label %120

28:                                               ; preds = %25
  %29 = load %"class.i18n::phonenumbers::PhoneNumberUtil"*, %"class.i18n::phonenumbers::PhoneNumberUtil"** %22, align 8
  %30 = tail call zeroext i1 @_ZN4i18n12phonenumbers18PhoneNumberMatcher40ContainsMoreThanOneSlashInNationalNumberERKNS0_11PhoneNumberERKNSt3__112basic_stringIcNS5_11char_traitsIcEENS5_9allocatorIcEEEERKNS0_15PhoneNumberUtilE(%"class.i18n::phonenumbers::PhoneNumber"* dereferenceable(72) %2, %"class.std::__1::basic_string"* dereferenceable(24) %3, %"class.i18n::phonenumbers::PhoneNumberUtil"* dereferenceable(64) %29)
  br i1 %30, label %120, label %31

31:                                               ; preds = %28
  %32 = tail call zeroext i1 @_ZNK4i18n12phonenumbers18PhoneNumberMatcher33IsNationalPrefixPresentIfRequiredERKNS0_11PhoneNumberE(%"class.i18n::phonenumbers::PhoneNumberMatcher"* %0, %"class.i18n::phonenumbers::PhoneNumber"* dereferenceable(72) %2)
  br i1 %32, label %33, label %120

33:                                               ; preds = %31
  %34 = tail call i8* @_Znwm(i64 16) #13
  %35 = bitcast i8* %34 to i32 (...)***
  store i32 (...)** bitcast (i8** getelementptr inbounds ({ [5 x i8*] }, { [5 x i8*] }* @_ZTVN4i18n12phonenumbers17FunctionCallback4IbRKNS0_15PhoneNumberUtilERKNS0_11PhoneNumberERKNSt3__112basic_stringIcNS8_11char_traitsIcEENS8_9allocatorIcEEEERKNS8_6vectorISE_NSC_ISE_EEEEEE, i64 0, inrange i32 0, i64 2) to i32 (...)**), i32 (...)*** %35, align 8
  %36 = getelementptr inbounds i8, i8* %34, i64 8
  %37 = bitcast i8* %36 to i1 (%"class.i18n::phonenumbers::PhoneNumberUtil"*, %"class.i18n::phonenumbers::PhoneNumber"*, %"class.std::__1::basic_string"*, %"class.std::__1::vector.78"*)**
  store i1 (%"class.i18n::phonenumbers::PhoneNumberUtil"*, %"class.i18n::phonenumbers::PhoneNumber"*, %"class.std::__1::basic_string"*, %"class.std::__1::vector.78"*)* @_ZN4i18n12phonenumbers12_GLOBAL__N_128AllNumberGroupsRemainGroupedERKNS0_15PhoneNumberUtilERKNS0_11PhoneNumberERKNSt3__112basic_stringIcNS8_11char_traitsIcEENS8_9allocatorIcEEEERKNS8_6vectorISE_NSC_ISE_EEEE, i1 (%"class.i18n::phonenumbers::PhoneNumberUtil"*, %"class.i18n::phonenumbers::PhoneNumber"*, %"class.std::__1::basic_string"*, %"class.std::__1::vector.78"*)** %37, align 8
  %38 = bitcast i8* %34 to %"class.i18n::phonenumbers::ResultCallback4"*
  %39 = tail call zeroext i1 @_ZNK4i18n12phonenumbers18PhoneNumberMatcher26CheckNumberGroupingIsValidERKNS0_11PhoneNumberERKNSt3__112basic_stringIcNS5_11char_traitsIcEENS5_9allocatorIcEEEEPNS0_15ResultCallback4IbRKNS0_15PhoneNumberUtilES4_SD_RKNS5_6vectorISB_NS9_ISB_EEEEEE(%"class.i18n::phonenumbers::PhoneNumberMatcher"* %0, %"class.i18n::phonenumbers::PhoneNumber"* dereferenceable(72) %2, %"class.std::__1::basic_string"* dereferenceable(24) %3, %"class.i18n::phonenumbers::ResultCallback4"* nonnull %38)
  %40 = bitcast i8* %34 to void (%"class.i18n::phonenumbers::ResultCallback4"*)***
  %41 = load void (%"class.i18n::phonenumbers::ResultCallback4"*)**, void (%"class.i18n::phonenumbers::ResultCallback4"*)*** %40, align 8
  %42 = getelementptr inbounds void (%"class.i18n::phonenumbers::ResultCallback4"*)*, void (%"class.i18n::phonenumbers::ResultCallback4"*)** %41, i64 1
  %43 = load void (%"class.i18n::phonenumbers::ResultCallback4"*)*, void (%"class.i18n::phonenumbers::ResultCallback4"*)** %42, align 8
  tail call void %43(%"class.i18n::phonenumbers::ResultCallback4"* nonnull %38) #12
  br label %120

44:                                               ; preds = %4
  %45 = getelementptr inbounds %"class.i18n::phonenumbers::PhoneNumberMatcher", %"class.i18n::phonenumbers::PhoneNumberMatcher"* %0, i64 0, i32 2
  %46 = load %"class.i18n::phonenumbers::PhoneNumberUtil"*, %"class.i18n::phonenumbers::PhoneNumberUtil"** %45, align 8
  %47 = tail call zeroext i1 @_ZNK4i18n12phonenumbers15PhoneNumberUtil13IsValidNumberERKNS0_11PhoneNumberE(%"class.i18n::phonenumbers::PhoneNumberUtil"* %46, %"class.i18n::phonenumbers::PhoneNumber"* dereferenceable(72) %2) #12
  br i1 %47, label %48, label %120

48:                                               ; preds = %44
  %49 = load %"class.i18n::phonenumbers::PhoneNumberUtil"*, %"class.i18n::phonenumbers::PhoneNumberUtil"** %45, align 8
  %50 = tail call fastcc zeroext i1 @_ZN4i18n12phonenumbers12_GLOBAL__N_123ContainsOnlyValidXCharsERKNS0_11PhoneNumberERKNSt3__112basic_stringIcNS5_11char_traitsIcEENS5_9allocatorIcEEEERKNS0_15PhoneNumberUtilE(%"class.i18n::phonenumbers::PhoneNumber"* dereferenceable(72) %2, %"class.std::__1::basic_string"* dereferenceable(24) %3, %"class.i18n::phonenumbers::PhoneNumberUtil"* dereferenceable(64) %49)
  br i1 %50, label %51, label %120

51:                                               ; preds = %48
  %52 = load %"class.i18n::phonenumbers::PhoneNumberUtil"*, %"class.i18n::phonenumbers::PhoneNumberUtil"** %45, align 8
  %53 = tail call zeroext i1 @_ZN4i18n12phonenumbers18PhoneNumberMatcher40ContainsMoreThanOneSlashInNationalNumberERKNS0_11PhoneNumberERKNSt3__112basic_stringIcNS5_11char_traitsIcEENS5_9allocatorIcEEEERKNS0_15PhoneNumberUtilE(%"class.i18n::phonenumbers::PhoneNumber"* dereferenceable(72) %2, %"class.std::__1::basic_string"* dereferenceable(24) %3, %"class.i18n::phonenumbers::PhoneNumberUtil"* dereferenceable(64) %52)
  br i1 %53, label %120, label %54

54:                                               ; preds = %51
  %55 = tail call zeroext i1 @_ZNK4i18n12phonenumbers18PhoneNumberMatcher33IsNationalPrefixPresentIfRequiredERKNS0_11PhoneNumberE(%"class.i18n::phonenumbers::PhoneNumberMatcher"* %0, %"class.i18n::phonenumbers::PhoneNumber"* dereferenceable(72) %2)
  br i1 %55, label %56, label %120

56:                                               ; preds = %54
  %57 = tail call i8* @_Znwm(i64 32) #13
  %58 = bitcast i8* %57 to i32 (...)***
  store i32 (...)** bitcast (i8** getelementptr inbounds ({ [5 x i8*] }, { [5 x i8*] }* @_ZTVN4i18n12phonenumbers20ConstMethodCallback4INS0_18PhoneNumberMatcherEbRKNS0_15PhoneNumberUtilERKNS0_11PhoneNumberERKNSt3__112basic_stringIcNS9_11char_traitsIcEENS9_9allocatorIcEEEERKNS9_6vectorISF_NSD_ISF_EEEEEE, i64 0, inrange i32 0, i64 2) to i32 (...)**), i32 (...)*** %58, align 8
  %59 = getelementptr inbounds i8, i8* %57, i64 8
  %60 = bitcast i8* %59 to %"class.i18n::phonenumbers::PhoneNumberMatcher"**
  store %"class.i18n::phonenumbers::PhoneNumberMatcher"* %0, %"class.i18n::phonenumbers::PhoneNumberMatcher"** %60, align 8
  %61 = getelementptr inbounds i8, i8* %57, i64 16
  %62 = bitcast i8* %61 to <2 x i64>*
  store <2 x i64> <i64 ptrtoint (i1 (%"class.i18n::phonenumbers::PhoneNumberMatcher"*, %"class.i18n::phonenumbers::PhoneNumberUtil"*, %"class.i18n::phonenumbers::PhoneNumber"*, %"class.std::__1::basic_string"*, %"class.std::__1::vector.78"*)* @_ZNK4i18n12phonenumbers18PhoneNumberMatcher32AllNumberGroupsAreExactlyPresentERKNS0_15PhoneNumberUtilERKNS0_11PhoneNumberERKNSt3__112basic_stringIcNS8_11char_traitsIcEENS8_9allocatorIcEEEERKNS8_6vectorISE_NSC_ISE_EEEE to i64), i64 0>, <2 x i64>* %62, align 8
  %63 = bitcast i8* %57 to %"class.i18n::phonenumbers::ResultCallback4"*
  %64 = tail call zeroext i1 @_ZNK4i18n12phonenumbers18PhoneNumberMatcher26CheckNumberGroupingIsValidERKNS0_11PhoneNumberERKNSt3__112basic_stringIcNS5_11char_traitsIcEENS5_9allocatorIcEEEEPNS0_15ResultCallback4IbRKNS0_15PhoneNumberUtilES4_SD_RKNS5_6vectorISB_NS9_ISB_EEEEEE(%"class.i18n::phonenumbers::PhoneNumberMatcher"* %0, %"class.i18n::phonenumbers::PhoneNumber"* dereferenceable(72) %2, %"class.std::__1::basic_string"* dereferenceable(24) %3, %"class.i18n::phonenumbers::ResultCallback4"* nonnull %63)
  %65 = bitcast i8* %57 to void (%"class.i18n::phonenumbers::ResultCallback4"*)***
  %66 = load void (%"class.i18n::phonenumbers::ResultCallback4"*)**, void (%"class.i18n::phonenumbers::ResultCallback4"*)*** %65, align 8
  %67 = getelementptr inbounds void (%"class.i18n::phonenumbers::ResultCallback4"*)*, void (%"class.i18n::phonenumbers::ResultCallback4"*)** %66, i64 1
  %68 = load void (%"class.i18n::phonenumbers::ResultCallback4"*)*, void (%"class.i18n::phonenumbers::ResultCallback4"*)** %67, align 8
  tail call void %68(%"class.i18n::phonenumbers::ResultCallback4"* nonnull %63) #12
  br label %120

69:                                               ; preds = %4
  %70 = bitcast %"class.i18n::phonenumbers::LoggerHandler"* %7 to i8*
  call void @llvm.lifetime.start.p0i8(i64 8, i8* nonnull %70) #12
  %71 = load %"class.i18n::phonenumbers::Logger"*, %"class.i18n::phonenumbers::Logger"** @_ZN4i18n12phonenumbers6Logger5impl_E, align 8, !noalias !2
  %72 = getelementptr inbounds %"class.i18n::phonenumbers::Logger", %"class.i18n::phonenumbers::Logger"* %71, i64 0, i32 1
  %73 = load i32, i32* %72, align 8, !noalias !2
  %74 = icmp slt i32 %73, 2
  br i1 %74, label %80, label %75

75:                                               ; preds = %69
  %76 = bitcast %"class.i18n::phonenumbers::Logger"* %71 to void (%"class.i18n::phonenumbers::Logger"*)***
  %77 = load void (%"class.i18n::phonenumbers::Logger"*)**, void (%"class.i18n::phonenumbers::Logger"*)*** %76, align 8, !noalias !2
  %78 = getelementptr inbounds void (%"class.i18n::phonenumbers::Logger"*)*, void (%"class.i18n::phonenumbers::Logger"*)** %77, i64 2
  %79 = load void (%"class.i18n::phonenumbers::Logger"*)*, void (%"class.i18n::phonenumbers::Logger"*)** %78, align 8, !noalias !2
  tail call void %79(%"class.i18n::phonenumbers::Logger"* %71) #12, !noalias !2
  br label %80

80:                                               ; preds = %69, %75
  %81 = phi %"class.i18n::phonenumbers::Logger"* [ %71, %75 ], [ null, %69 ]
  %82 = getelementptr inbounds %"class.i18n::phonenumbers::LoggerHandler", %"class.i18n::phonenumbers::LoggerHandler"* %7, i64 0, i32 0
  store %"class.i18n::phonenumbers::Logger"* %81, %"class.i18n::phonenumbers::Logger"** %82, align 8, !alias.scope !2
  %83 = call dereferenceable(8) %"class.i18n::phonenumbers::LoggerHandler"* @_ZN4i18n12phonenumbers13LoggerHandlerlsIA57_cEERS1_RKT_(%"class.i18n::phonenumbers::LoggerHandler"* nonnull %7, [57 x i8]* nonnull dereferenceable(57) @.str)
  %84 = getelementptr inbounds %"class.i18n::phonenumbers::LoggerHandler", %"class.i18n::phonenumbers::LoggerHandler"* %83, i64 0, i32 0
  %85 = load %"class.i18n::phonenumbers::Logger"*, %"class.i18n::phonenumbers::Logger"** %84, align 8
  %86 = icmp eq %"class.i18n::phonenumbers::Logger"* %85, null
  br i1 %86, label %101, label %87

87:                                               ; preds = %80
  %88 = bitcast %"class.std::__1::basic_string"* %6 to i8*
  call void @llvm.lifetime.start.p0i8(i64 24, i8* nonnull %88) #12
  call void @_ZN4i18n12phonenumbers15ConvertToStringIiE6DoWorkEi(%"class.std::__1::basic_string"* nonnull sret %6, i32 %1) #12
  %89 = bitcast %"class.i18n::phonenumbers::Logger"* %85 to void (%"class.i18n::phonenumbers::Logger"*, %"class.std::__1::basic_string"*)***
  %90 = load void (%"class.i18n::phonenumbers::Logger"*, %"class.std::__1::basic_string"*)**, void (%"class.i18n::phonenumbers::Logger"*, %"class.std::__1::basic_string"*)*** %89, align 8
  %91 = getelementptr inbounds void (%"class.i18n::phonenumbers::Logger"*, %"class.std::__1::basic_string"*)*, void (%"class.i18n::phonenumbers::Logger"*, %"class.std::__1::basic_string"*)** %90, i64 3
  %92 = load void (%"class.i18n::phonenumbers::Logger"*, %"class.std::__1::basic_string"*)*, void (%"class.i18n::phonenumbers::Logger"*, %"class.std::__1::basic_string"*)** %91, align 8
  call void %92(%"class.i18n::phonenumbers::Logger"* nonnull %85, %"class.std::__1::basic_string"* nonnull dereferenceable(24) %6) #12
  %93 = bitcast %"class.std::__1::basic_string"* %6 to %"struct.std::__1::basic_string<char, std::__1::char_traits<char>, std::__1::allocator<char> >::__short"*
  %94 = getelementptr inbounds %"struct.std::__1::basic_string<char, std::__1::char_traits<char>, std::__1::allocator<char> >::__short", %"struct.std::__1::basic_string<char, std::__1::char_traits<char>, std::__1::allocator<char> >::__short"* %93, i64 0, i32 1, i32 0
  %95 = load i8, i8* %94, align 1
  %96 = icmp slt i8 %95, 0
  br i1 %96, label %97, label %100

97:                                               ; preds = %87
  %98 = getelementptr inbounds %"class.std::__1::basic_string", %"class.std::__1::basic_string"* %6, i64 0, i32 0, i32 0, i32 0, i32 0, i32 0, i32 0
  %99 = load i8*, i8** %98, align 8
  call void @_ZdlPv(i8* %99) #13
  br label %100

100:                                              ; preds = %97, %87
  call void @llvm.lifetime.end.p0i8(i64 24, i8* nonnull %88) #12
  br label %101

101:                                              ; preds = %80, %100
  %102 = load %"class.i18n::phonenumbers::Logger"*, %"class.i18n::phonenumbers::Logger"** %82, align 8
  %103 = icmp eq %"class.i18n::phonenumbers::Logger"* %102, null
  br i1 %103, label %119, label %104

104:                                              ; preds = %101
  %105 = bitcast %"class.std::__1::basic_string"* %5 to i8*
  call void @llvm.lifetime.start.p0i8(i64 24, i8* nonnull %105) #12
  %106 = bitcast %"class.std::__1::basic_string"* %5 to %"struct.std::__1::basic_string<char, std::__1::char_traits<char>, std::__1::allocator<char> >::__short"*
  %107 = getelementptr inbounds %"struct.std::__1::basic_string<char, std::__1::char_traits<char>, std::__1::allocator<char> >::__short", %"struct.std::__1::basic_string<char, std::__1::char_traits<char>, std::__1::allocator<char> >::__short"* %106, i64 0, i32 1, i32 0
  store i8 1, i8* %107, align 1
  store i8 10, i8* %105, align 8
  %108 = getelementptr inbounds i8, i8* %105, i64 1
  store i8 0, i8* %108, align 1
  %109 = bitcast %"class.i18n::phonenumbers::Logger"* %102 to void (%"class.i18n::phonenumbers::Logger"*, %"class.std::__1::basic_string"*)***
  %110 = load void (%"class.i18n::phonenumbers::Logger"*, %"class.std::__1::basic_string"*)**, void (%"class.i18n::phonenumbers::Logger"*, %"class.std::__1::basic_string"*)*** %109, align 8
  %111 = getelementptr inbounds void (%"class.i18n::phonenumbers::Logger"*, %"class.std::__1::basic_string"*)*, void (%"class.i18n::phonenumbers::Logger"*, %"class.std::__1::basic_string"*)** %110, i64 3
  %112 = load void (%"class.i18n::phonenumbers::Logger"*, %"class.std::__1::basic_string"*)*, void (%"class.i18n::phonenumbers::Logger"*, %"class.std::__1::basic_string"*)** %111, align 8
  call void %112(%"class.i18n::phonenumbers::Logger"* nonnull %102, %"class.std::__1::basic_string"* nonnull dereferenceable(24) %5) #12
  %113 = load i8, i8* %107, align 1
  %114 = icmp slt i8 %113, 0
  br i1 %114, label %115, label %118

115:                                              ; preds = %104
  %116 = getelementptr inbounds %"class.std::__1::basic_string", %"class.std::__1::basic_string"* %5, i64 0, i32 0, i32 0, i32 0, i32 0, i32 0, i32 0
  %117 = load i8*, i8** %116, align 8
  call void @_ZdlPv(i8* %117) #13
  br label %118

118:                                              ; preds = %115, %104
  call void @llvm.lifetime.end.p0i8(i64 24, i8* nonnull %105) #12
  br label %119

119:                                              ; preds = %101, %118
  call void @llvm.lifetime.end.p0i8(i64 8, i8* nonnull %70) #12
  br label %120

120:                                              ; preds = %56, %44, %48, %51, %54, %33, %21, %25, %28, %31, %12, %16, %119, %19, %8
  %121 = phi i1 [ false, %119 ], [ %20, %19 ], [ %11, %8 ], [ false, %16 ], [ false, %12 ], [ false, %31 ], [ false, %28 ], [ false, %25 ], [ false, %21 ], [ %39, %33 ], [ false, %54 ], [ false, %51 ], [ false, %48 ], [ false, %44 ], [ %64, %56 ]
  ret i1 %121
}

declare void @_ZN4i18n12phonenumbers16PhoneNumberMatch9set_startEi(%"class.i18n::phonenumbers::PhoneNumberMatch"*, i32) local_unnamed_addr #1

declare void @_ZN4i18n12phonenumbers16PhoneNumberMatch14set_raw_stringERKNSt3__112basic_stringIcNS2_11char_traitsIcEENS2_9allocatorIcEEEE(%"class.i18n::phonenumbers::PhoneNumberMatch"*, %"class.std::__1::basic_string"* dereferenceable(24)) local_unnamed_addr #1

declare void @_ZN4i18n12phonenumbers16PhoneNumberMatch10set_numberERKNS0_11PhoneNumberE(%"class.i18n::phonenumbers::PhoneNumberMatch"*, %"class.i18n::phonenumbers::PhoneNumber"* dereferenceable(72)) local_unnamed_addr #1

; Function Attrs: nounwind
declare void @_ZN4i18n12phonenumbers11PhoneNumberD1Ev(%"class.i18n::phonenumbers::PhoneNumber"*) unnamed_addr #3

declare zeroext i1 @_ZNK4i18n12phonenumbers15PhoneNumberUtil16IsPossibleNumberERKNS0_11PhoneNumberE(%"class.i18n::phonenumbers::PhoneNumberUtil"*, %"class.i18n::phonenumbers::PhoneNumber"* dereferenceable(72)) local_unnamed_addr #1

declare zeroext i1 @_ZNK4i18n12phonenumbers15PhoneNumberUtil13IsValidNumberERKNS0_11PhoneNumberE(%"class.i18n::phonenumbers::PhoneNumberUtil"*, %"class.i18n::phonenumbers::PhoneNumber"* dereferenceable(72)) local_unnamed_addr #1

; Function Attrs: nounwind ssp uwtable
define internal fastcc zeroext i1 @_ZN4i18n12phonenumbers12_GLOBAL__N_123ContainsOnlyValidXCharsERKNS0_11PhoneNumberERKNSt3__112basic_stringIcNS5_11char_traitsIcEENS5_9allocatorIcEEEERKNS0_15PhoneNumberUtilE(%"class.i18n::phonenumbers::PhoneNumber"* dereferenceable(72), %"class.std::__1::basic_string"* dereferenceable(24), %"class.i18n::phonenumbers::PhoneNumberUtil"* dereferenceable(64)) unnamed_addr #0 {
  %4 = alloca %"class.std::__1::basic_string", align 8
  %5 = alloca %"class.std::__1::basic_string", align 8
  %6 = bitcast %"class.std::__1::basic_string"* %1 to %"struct.std::__1::basic_string<char, std::__1::char_traits<char>, std::__1::allocator<char> >::__short"*
  %7 = getelementptr inbounds %"struct.std::__1::basic_string<char, std::__1::char_traits<char>, std::__1::allocator<char> >::__short", %"struct.std::__1::basic_string<char, std::__1::char_traits<char>, std::__1::allocator<char> >::__short"* %6, i64 0, i32 1, i32 0
  %8 = load i8, i8* %7, align 1
  %9 = icmp slt i8 %8, 0
  %10 = getelementptr inbounds %"class.std::__1::basic_string", %"class.std::__1::basic_string"* %1, i64 0, i32 0, i32 0, i32 0, i32 0, i32 0, i32 0
  %11 = load i8*, i8** %10, align 8
  %12 = getelementptr inbounds %"class.std::__1::basic_string", %"class.std::__1::basic_string"* %1, i64 0, i32 0, i32 0, i32 0, i32 0, i32 0, i32 1
  %13 = load i64, i64* %12, align 8
  %14 = bitcast %"class.std::__1::basic_string"* %1 to i8*
  %15 = zext i8 %8 to i64
  %16 = select i1 %9, i8* %11, i8* %14
  %17 = select i1 %9, i64 %13, i64 %15
  %18 = icmp eq i64 %17, 0
  br i1 %18, label %154, label %19

19:                                               ; preds = %3
  %20 = getelementptr inbounds i8, i8* %16, i64 %17
  br label %21

21:                                               ; preds = %159, %19
  %22 = phi i8* [ %16, %19 ], [ %160, %159 ]
  %23 = load i8, i8* %22, align 1
  switch i8 %23, label %159 [
    i8 120, label %24
    i8 88, label %24
  ]

24:                                               ; preds = %21, %21
  %25 = icmp eq i8* %22, %20
  %26 = ptrtoint i8* %22 to i64
  %27 = ptrtoint i8* %16 to i64
  %28 = sub i64 %26, %27
  %29 = icmp eq i64 %28, -1
  %30 = or i1 %25, %29
  br i1 %30, label %154, label %31

31:                                               ; preds = %24
  %32 = bitcast %"class.std::__1::basic_string"* %4 to i8*
  %33 = bitcast %"class.std::__1::basic_string"* %1 to %"class.std::__1::allocator"*
  %34 = bitcast %"class.std::__1::basic_string"* %4 to %"struct.std::__1::basic_string<char, std::__1::char_traits<char>, std::__1::allocator<char> >::__short"*
  %35 = getelementptr inbounds %"struct.std::__1::basic_string<char, std::__1::char_traits<char>, std::__1::allocator<char> >::__short", %"struct.std::__1::basic_string<char, std::__1::char_traits<char>, std::__1::allocator<char> >::__short"* %34, i64 0, i32 1, i32 0
  %36 = getelementptr inbounds %"class.std::__1::basic_string", %"class.std::__1::basic_string"* %4, i64 0, i32 0, i32 0, i32 0, i32 0, i32 0, i32 0
  %37 = bitcast %"class.std::__1::basic_string"* %5 to i8*
  %38 = getelementptr inbounds %"class.std::__1::basic_string", %"class.std::__1::basic_string"* %5, i64 0, i32 0, i32 0, i32 0, i32 0, i32 0, i32 0
  %39 = getelementptr inbounds %"class.std::__1::basic_string", %"class.std::__1::basic_string"* %5, i64 0, i32 0, i32 0, i32 0, i32 0, i32 0, i32 1
  %40 = getelementptr inbounds %"class.i18n::phonenumbers::PhoneNumber", %"class.i18n::phonenumbers::PhoneNumber"* %0, i64 0, i32 3, i32 0
  %41 = bitcast %"class.std::__1::basic_string"* %5 to %"struct.std::__1::basic_string<char, std::__1::char_traits<char>, std::__1::allocator<char> >::__short"*
  %42 = getelementptr inbounds %"struct.std::__1::basic_string<char, std::__1::char_traits<char>, std::__1::allocator<char> >::__short", %"struct.std::__1::basic_string<char, std::__1::char_traits<char>, std::__1::allocator<char> >::__short"* %41, i64 0, i32 1, i32 0
  %43 = bitcast %"class.std::__1::basic_string"* %5 to i8*
  br label %44

44:                                               ; preds = %147, %31
  %45 = phi i8* [ %11, %31 ], [ %135, %147 ]
  %46 = phi i64 [ %13, %31 ], [ %136, %147 ]
  %47 = phi i8 [ %8, %31 ], [ %133, %147 ]
  %48 = phi i64 [ %28, %31 ], [ %151, %147 ]
  %49 = icmp slt i8 %47, 0
  %50 = zext i8 %47 to i64
  %51 = select i1 %49, i64 %46, i64 %50
  %52 = add i64 %51, -1
  %53 = icmp ult i64 %48, %52
  br i1 %53, label %54, label %154

54:                                               ; preds = %44
  %55 = add nuw i64 %48, 1
  %56 = select i1 %49, i8* %45, i8* %14
  %57 = getelementptr inbounds i8, i8* %56, i64 %55
  %58 = load i8, i8* %57, align 1
  switch i8 %58, label %70 [
    i8 120, label %59
    i8 88, label %59
  ]

59:                                               ; preds = %54, %54
  call void @llvm.lifetime.start.p0i8(i64 24, i8* nonnull %32) #12
  %60 = sub i64 %51, %55
  call void @_ZNSt3__112basic_stringIcNS_11char_traitsIcEENS_9allocatorIcEEEC1ERKS5_mmRKS4_(%"class.std::__1::basic_string"* nonnull %4, %"class.std::__1::basic_string"* dereferenceable(24) %1, i64 %55, i64 %60, %"class.std::__1::allocator"* dereferenceable(1) %33) #12
  %61 = call i32 @_ZNK4i18n12phonenumbers15PhoneNumberUtil26IsNumberMatchWithOneStringERKNS0_11PhoneNumberERKNSt3__112basic_stringIcNS5_11char_traitsIcEENS5_9allocatorIcEEEE(%"class.i18n::phonenumbers::PhoneNumberUtil"* %2, %"class.i18n::phonenumbers::PhoneNumber"* dereferenceable(72) %0, %"class.std::__1::basic_string"* nonnull dereferenceable(24) %4) #12
  %62 = icmp eq i32 %61, 3
  %63 = load i8, i8* %35, align 1
  %64 = icmp slt i8 %63, 0
  br i1 %64, label %65, label %67

65:                                               ; preds = %59
  %66 = load i8*, i8** %36, align 8
  call void @_ZdlPv(i8* %66) #13
  br label %67

67:                                               ; preds = %59, %65
  call void @llvm.lifetime.end.p0i8(i64 24, i8* nonnull %32) #12
  br i1 %62, label %68, label %154

68:                                               ; preds = %67
  %69 = add i64 %48, 2
  br label %131

70:                                               ; preds = %54
  call void @llvm.lifetime.start.p0i8(i64 24, i8* nonnull %37) #12
  %71 = sub i64 %51, %48
  call void @llvm.memset.p0i8.i64(i8* nonnull align 8 %43, i8 -86, i64 24, i1 false)
  call void @_ZNSt3__112basic_stringIcNS_11char_traitsIcEENS_9allocatorIcEEEC1ERKS5_mmRKS4_(%"class.std::__1::basic_string"* nonnull %5, %"class.std::__1::basic_string"* dereferenceable(24) %1, i64 %48, i64 %71, %"class.std::__1::allocator"* dereferenceable(1) %33) #12
  call void @_ZNK4i18n12phonenumbers15PhoneNumberUtil19NormalizeDigitsOnlyEPNSt3__112basic_stringIcNS2_11char_traitsIcEENS2_9allocatorIcEEEE(%"class.i18n::phonenumbers::PhoneNumberUtil"* %2, %"class.std::__1::basic_string"* nonnull %5) #12
  %72 = load %"class.std::__1::basic_string"*, %"class.std::__1::basic_string"** %40, align 8
  %73 = load i8, i8* %42, align 1
  %74 = icmp slt i8 %73, 0
  %75 = load i64, i64* %39, align 8
  %76 = zext i8 %73 to i64
  %77 = select i1 %74, i64 %75, i64 %76
  %78 = bitcast %"class.std::__1::basic_string"* %72 to %"struct.std::__1::basic_string<char, std::__1::char_traits<char>, std::__1::allocator<char> >::__short"*
  %79 = getelementptr inbounds %"struct.std::__1::basic_string<char, std::__1::char_traits<char>, std::__1::allocator<char> >::__short", %"struct.std::__1::basic_string<char, std::__1::char_traits<char>, std::__1::allocator<char> >::__short"* %78, i64 0, i32 1, i32 0
  %80 = load i8, i8* %79, align 1
  %81 = icmp slt i8 %80, 0
  %82 = getelementptr inbounds %"class.std::__1::basic_string", %"class.std::__1::basic_string"* %72, i64 0, i32 0, i32 0, i32 0, i32 0, i32 0, i32 1
  %83 = load i64, i64* %82, align 8
  %84 = zext i8 %80 to i64
  %85 = select i1 %81, i64 %83, i64 %84
  %86 = icmp eq i64 %77, %85
  br i1 %86, label %87, label %121

87:                                               ; preds = %70
  %88 = load i8*, i8** %38, align 8
  %89 = select i1 %74, i8* %88, i8* %37
  %90 = getelementptr inbounds %"class.std::__1::basic_string", %"class.std::__1::basic_string"* %72, i64 0, i32 0, i32 0, i32 0, i32 0, i32 0, i32 0
  %91 = load i8*, i8** %90, align 8
  %92 = bitcast %"class.std::__1::basic_string"* %72 to i8*
  %93 = select i1 %81, i8* %91, i8* %92
  %94 = icmp eq i64 %77, 0
  br i1 %74, label %103, label %95

95:                                               ; preds = %87
  br i1 %94, label %102, label %96

96:                                               ; preds = %95
  %97 = ptrtoint i8* %88 to i64
  %98 = trunc i64 %97 to i8
  %99 = load i8, i8* %93, align 1
  %100 = icmp eq i8 %99, %98
  br i1 %100, label %104, label %101

101:                                              ; preds = %96
  call void @llvm.lifetime.end.p0i8(i64 24, i8* nonnull %37) #12
  br label %154

102:                                              ; preds = %95
  call void @llvm.lifetime.end.p0i8(i64 24, i8* nonnull %37) #12
  br label %131

103:                                              ; preds = %87
  br i1 %94, label %119, label %116

104:                                              ; preds = %96, %111
  %105 = phi i64 [ %108, %111 ], [ %76, %96 ]
  %106 = phi i8* [ %109, %111 ], [ %37, %96 ]
  %107 = phi i8* [ %112, %111 ], [ %93, %96 ]
  %108 = add i64 %105, -1
  %109 = getelementptr inbounds i8, i8* %106, i64 1
  %110 = icmp eq i64 %108, 0
  br i1 %110, label %121, label %111

111:                                              ; preds = %104
  %112 = getelementptr inbounds i8, i8* %107, i64 1
  %113 = load i8, i8* %109, align 1
  %114 = load i8, i8* %112, align 1
  %115 = icmp eq i8 %113, %114
  br i1 %115, label %104, label %121

116:                                              ; preds = %103
  %117 = call i32 @bcmp(i8* %89, i8* %93, i64 %77) #12
  %118 = icmp eq i32 %117, 0
  br i1 %118, label %125, label %119

119:                                              ; preds = %116, %103
  %120 = phi i32 [ 1, %116 ], [ 0, %103 ]
  br label %125

121:                                              ; preds = %104, %111, %70
  %122 = phi i32 [ 1, %70 ], [ 0, %104 ], [ 1, %111 ]
  br i1 %74, label %123, label %128

123:                                              ; preds = %121
  %124 = load i8*, i8** %38, align 8
  br label %125

125:                                              ; preds = %123, %116, %119
  %126 = phi i8* [ %124, %123 ], [ %88, %116 ], [ %88, %119 ]
  %127 = phi i32 [ %122, %123 ], [ 0, %116 ], [ %120, %119 ]
  call void @_ZdlPv(i8* %126) #13
  br label %128

128:                                              ; preds = %121, %125
  %129 = phi i32 [ %122, %121 ], [ %127, %125 ]
  call void @llvm.lifetime.end.p0i8(i64 24, i8* nonnull %37) #12
  %130 = icmp eq i32 %129, 0
  br i1 %130, label %131, label %154

131:                                              ; preds = %68, %102, %128
  %132 = phi i64 [ %69, %68 ], [ %55, %102 ], [ %55, %128 ]
  %133 = load i8, i8* %7, align 1
  %134 = icmp slt i8 %133, 0
  %135 = load i8*, i8** %10, align 8
  %136 = load i64, i64* %12, align 8
  %137 = zext i8 %133 to i64
  %138 = select i1 %134, i8* %135, i8* %14
  %139 = select i1 %134, i64 %136, i64 %137
  %140 = icmp ugt i64 %139, %132
  br i1 %140, label %141, label %154

141:                                              ; preds = %131
  %142 = getelementptr inbounds i8, i8* %138, i64 %132
  %143 = getelementptr inbounds i8, i8* %138, i64 %139
  br label %144

144:                                              ; preds = %156, %141
  %145 = phi i8* [ %142, %141 ], [ %157, %156 ]
  %146 = load i8, i8* %145, align 1
  switch i8 %146, label %156 [
    i8 120, label %147
    i8 88, label %147
  ]

147:                                              ; preds = %144, %144
  %148 = icmp eq i8* %145, %143
  %149 = ptrtoint i8* %145 to i64
  %150 = ptrtoint i8* %138 to i64
  %151 = sub i64 %149, %150
  %152 = icmp eq i64 %151, -1
  %153 = or i1 %148, %152
  br i1 %153, label %154, label %44

154:                                              ; preds = %159, %147, %131, %44, %128, %67, %156, %24, %3, %101
  %155 = phi i1 [ false, %101 ], [ true, %3 ], [ true, %24 ], [ true, %156 ], [ true, %147 ], [ true, %131 ], [ false, %67 ], [ false, %128 ], [ true, %44 ], [ true, %159 ]
  ret i1 %155

156:                                              ; preds = %144
  %157 = getelementptr inbounds i8, i8* %145, i64 1
  %158 = icmp eq i8* %157, %143
  br i1 %158, label %154, label %144

159:                                              ; preds = %21
  %160 = getelementptr inbounds i8, i8* %22, i64 1
  %161 = icmp eq i8* %160, %20
  br i1 %161, label %154, label %21
}

; Function Attrs: nounwind ssp uwtable
define hidden zeroext i1 @_ZNK4i18n12phonenumbers18PhoneNumberMatcher33IsNationalPrefixPresentIfRequiredERKNS0_11PhoneNumberE(%"class.i18n::phonenumbers::PhoneNumberMatcher"* nocapture readonly, %"class.i18n::phonenumbers::PhoneNumber"* dereferenceable(72)) local_unnamed_addr #0 align 2 {
  %3 = alloca %"class.std::__1::basic_string", align 8
  %4 = alloca %"class.std::__1::basic_string", align 8
  %5 = alloca %"class.std::__1::basic_string", align 8
  %6 = getelementptr inbounds %"class.i18n::phonenumbers::PhoneNumber", %"class.i18n::phonenumbers::PhoneNumber"* %1, i64 0, i32 9
  %7 = load i32, i32* %6, align 8
  %8 = icmp eq i32 %7, 20
  br i1 %8, label %9, label %95

9:                                                ; preds = %2
  %10 = bitcast %"class.std::__1::basic_string"* %3 to i8*
  call void @llvm.lifetime.start.p0i8(i64 24, i8* nonnull %10) #12
  %11 = getelementptr inbounds %"class.std::__1::basic_string", %"class.std::__1::basic_string"* %3, i64 0, i32 0, i32 0, i32 0, i32 0, i32 0, i32 0
  call void @llvm.memset.p0i8.i64(i8* nonnull align 8 %10, i8 0, i64 24, i1 false) #12
  %12 = getelementptr inbounds %"class.i18n::phonenumbers::PhoneNumberMatcher", %"class.i18n::phonenumbers::PhoneNumberMatcher"* %0, i64 0, i32 2
  %13 = load %"class.i18n::phonenumbers::PhoneNumberUtil"*, %"class.i18n::phonenumbers::PhoneNumberUtil"** %12, align 8
  %14 = getelementptr inbounds %"class.i18n::phonenumbers::PhoneNumber", %"class.i18n::phonenumbers::PhoneNumber"* %1, i64 0, i32 7
  %15 = load i32, i32* %14, align 8
  call void @_ZNK4i18n12phonenumbers15PhoneNumberUtil27GetRegionCodeForCountryCodeEiPNSt3__112basic_stringIcNS2_11char_traitsIcEENS2_9allocatorIcEEEE(%"class.i18n::phonenumbers::PhoneNumberUtil"* %13, i32 %15, %"class.std::__1::basic_string"* nonnull %3) #12
  %16 = load %"class.i18n::phonenumbers::PhoneNumberUtil"*, %"class.i18n::phonenumbers::PhoneNumberUtil"** %12, align 8
  %17 = call %"class.i18n::phonenumbers::PhoneMetadata"* @_ZNK4i18n12phonenumbers15PhoneNumberUtil20GetMetadataForRegionERKNSt3__112basic_stringIcNS2_11char_traitsIcEENS2_9allocatorIcEEEE(%"class.i18n::phonenumbers::PhoneNumberUtil"* %16, %"class.std::__1::basic_string"* nonnull dereferenceable(24) %3) #12
  %18 = icmp eq %"class.i18n::phonenumbers::PhoneMetadata"* %17, null
  br i1 %18, label %86, label %19

19:                                               ; preds = %9
  %20 = bitcast %"class.std::__1::basic_string"* %4 to i8*
  call void @llvm.lifetime.start.p0i8(i64 24, i8* nonnull %20) #12
  %21 = getelementptr inbounds %"class.std::__1::basic_string", %"class.std::__1::basic_string"* %4, i64 0, i32 0, i32 0, i32 0, i32 0, i32 0, i32 0
  call void @llvm.memset.p0i8.i64(i8* nonnull align 8 %20, i8 0, i64 24, i1 false) #12
  %22 = load %"class.i18n::phonenumbers::PhoneNumberUtil"*, %"class.i18n::phonenumbers::PhoneNumberUtil"** %12, align 8
  call void @_ZNK4i18n12phonenumbers15PhoneNumberUtil28GetNationalSignificantNumberERKNS0_11PhoneNumberEPNSt3__112basic_stringIcNS5_11char_traitsIcEENS5_9allocatorIcEEEE(%"class.i18n::phonenumbers::PhoneNumberUtil"* %22, %"class.i18n::phonenumbers::PhoneNumber"* dereferenceable(72) %1, %"class.std::__1::basic_string"* nonnull %4) #12
  %23 = load %"class.i18n::phonenumbers::PhoneNumberUtil"*, %"class.i18n::phonenumbers::PhoneNumberUtil"** %12, align 8
  %24 = getelementptr inbounds %"class.i18n::phonenumbers::PhoneMetadata", %"class.i18n::phonenumbers::PhoneMetadata"* %17, i64 0, i32 3
  %25 = call %"class.i18n::phonenumbers::NumberFormat"* @_ZNK4i18n12phonenumbers15PhoneNumberUtil32ChooseFormattingPatternForNumberERKN6google8protobuf16RepeatedPtrFieldINS0_12NumberFormatEEERKNSt3__112basic_stringIcNS9_11char_traitsIcEENS9_9allocatorIcEEEE(%"class.i18n::phonenumbers::PhoneNumberUtil"* %23, %"class.google::protobuf::RepeatedPtrField.86"* dereferenceable(24) %24, %"class.std::__1::basic_string"* nonnull dereferenceable(24) %4) #12
  %26 = icmp eq %"class.i18n::phonenumbers::NumberFormat"* %25, null
  br i1 %26, label %77, label %27

27:                                               ; preds = %19
  %28 = getelementptr inbounds %"class.i18n::phonenumbers::NumberFormat", %"class.i18n::phonenumbers::NumberFormat"* %25, i64 0, i32 6, i32 0
  %29 = load %"class.std::__1::basic_string"*, %"class.std::__1::basic_string"** %28, align 8
  %30 = bitcast %"class.std::__1::basic_string"* %29 to %"struct.std::__1::basic_string<char, std::__1::char_traits<char>, std::__1::allocator<char> >::__short"*
  %31 = getelementptr inbounds %"struct.std::__1::basic_string<char, std::__1::char_traits<char>, std::__1::allocator<char> >::__short", %"struct.std::__1::basic_string<char, std::__1::char_traits<char>, std::__1::allocator<char> >::__short"* %30, i64 0, i32 1, i32 0
  %32 = load i8, i8* %31, align 1
  %33 = icmp slt i8 %32, 0
  br i1 %33, label %34, label %37

34:                                               ; preds = %27
  %35 = getelementptr inbounds %"class.std::__1::basic_string", %"class.std::__1::basic_string"* %29, i64 0, i32 0, i32 0, i32 0, i32 0, i32 0, i32 1
  %36 = load i64, i64* %35, align 8
  br label %39

37:                                               ; preds = %27
  %38 = zext i8 %32 to i64
  br label %39

39:                                               ; preds = %34, %37
  %40 = phi i64 [ %36, %34 ], [ %38, %37 ]
  %41 = icmp eq i64 %40, 0
  br i1 %41, label %77, label %42

42:                                               ; preds = %39
  %43 = getelementptr inbounds %"class.i18n::phonenumbers::NumberFormat", %"class.i18n::phonenumbers::NumberFormat"* %25, i64 0, i32 8
  %44 = load i8, i8* %43, align 8, !range !5
  %45 = icmp eq i8 %44, 0
  br i1 %45, label %46, label %77

46:                                               ; preds = %42
  %47 = load %"class.i18n::phonenumbers::PhoneNumberUtil"*, %"class.i18n::phonenumbers::PhoneNumberUtil"** %12, align 8
  %48 = call zeroext i1 @_ZNK4i18n12phonenumbers15PhoneNumberUtil31FormattingRuleHasFirstGroupOnlyERKNSt3__112basic_stringIcNS2_11char_traitsIcEENS2_9allocatorIcEEEE(%"class.i18n::phonenumbers::PhoneNumberUtil"* %47, %"class.std::__1::basic_string"* dereferenceable(24) %29) #12
  br i1 %48, label %77, label %49

49:                                               ; preds = %46
  %50 = bitcast %"class.std::__1::basic_string"* %5 to i8*
  call void @llvm.lifetime.start.p0i8(i64 24, i8* nonnull %50) #12
  %51 = getelementptr inbounds %"class.std::__1::basic_string", %"class.std::__1::basic_string"* %5, i64 0, i32 0, i32 0, i32 0, i32 0, i32 0, i32 0
  %52 = getelementptr inbounds %"class.i18n::phonenumbers::PhoneNumber", %"class.i18n::phonenumbers::PhoneNumber"* %1, i64 0, i32 4, i32 0
  %53 = bitcast %"class.std::__1::basic_string"* %5 to i8*
  call void @llvm.memset.p0i8.i64(i8* nonnull align 8 %53, i8 -86, i64 24, i1 false)
  %54 = load %"class.std::__1::basic_string"*, %"class.std::__1::basic_string"** %52, align 8
  %55 = bitcast %"class.std::__1::basic_string"* %54 to %"struct.std::__1::basic_string<char, std::__1::char_traits<char>, std::__1::allocator<char> >::__short"*
  %56 = getelementptr inbounds %"struct.std::__1::basic_string<char, std::__1::char_traits<char>, std::__1::allocator<char> >::__short", %"struct.std::__1::basic_string<char, std::__1::char_traits<char>, std::__1::allocator<char> >::__short"* %55, i64 0, i32 1, i32 0
  %57 = load i8, i8* %56, align 1
  %58 = icmp slt i8 %57, 0
  br i1 %58, label %61, label %59

59:                                               ; preds = %49
  %60 = bitcast %"class.std::__1::basic_string"* %54 to i8*
  call void @llvm.memcpy.p0i8.p0i8.i64(i8* nonnull align 8 %50, i8* align 8 %60, i64 24, i1 false) #12
  br label %66

61:                                               ; preds = %49
  %62 = getelementptr inbounds %"class.std::__1::basic_string", %"class.std::__1::basic_string"* %54, i64 0, i32 0, i32 0, i32 0, i32 0, i32 0, i32 0
  %63 = load i8*, i8** %62, align 8
  %64 = getelementptr inbounds %"class.std::__1::basic_string", %"class.std::__1::basic_string"* %54, i64 0, i32 0, i32 0, i32 0, i32 0, i32 0, i32 1
  %65 = load i64, i64* %64, align 8
  call void @_ZNSt3__112basic_stringIcNS_11char_traitsIcEENS_9allocatorIcEEE25__init_copy_ctor_externalEPKcm(%"class.std::__1::basic_string"* nonnull %5, i8* %63, i64 %65) #12
  br label %66

66:                                               ; preds = %59, %61
  %67 = load %"class.i18n::phonenumbers::PhoneNumberUtil"*, %"class.i18n::phonenumbers::PhoneNumberUtil"** %12, align 8
  call void @_ZNK4i18n12phonenumbers15PhoneNumberUtil19NormalizeDigitsOnlyEPNSt3__112basic_stringIcNS2_11char_traitsIcEENS2_9allocatorIcEEEE(%"class.i18n::phonenumbers::PhoneNumberUtil"* %67, %"class.std::__1::basic_string"* nonnull %5) #12
  %68 = load %"class.i18n::phonenumbers::PhoneNumberUtil"*, %"class.i18n::phonenumbers::PhoneNumberUtil"** %12, align 8
  %69 = call zeroext i1 @_ZNK4i18n12phonenumbers15PhoneNumberUtil38MaybeStripNationalPrefixAndCarrierCodeERKNS0_13PhoneMetadataEPNSt3__112basic_stringIcNS5_11char_traitsIcEENS5_9allocatorIcEEEESC_(%"class.i18n::phonenumbers::PhoneNumberUtil"* %68, %"class.i18n::phonenumbers::PhoneMetadata"* nonnull dereferenceable(280) %17, %"class.std::__1::basic_string"* nonnull %5, %"class.std::__1::basic_string"* null) #12
  %70 = bitcast %"class.std::__1::basic_string"* %5 to %"struct.std::__1::basic_string<char, std::__1::char_traits<char>, std::__1::allocator<char> >::__short"*
  %71 = getelementptr inbounds %"struct.std::__1::basic_string<char, std::__1::char_traits<char>, std::__1::allocator<char> >::__short", %"struct.std::__1::basic_string<char, std::__1::char_traits<char>, std::__1::allocator<char> >::__short"* %70, i64 0, i32 1, i32 0
  %72 = load i8, i8* %71, align 1
  %73 = icmp slt i8 %72, 0
  br i1 %73, label %74, label %76

74:                                               ; preds = %66
  %75 = load i8*, i8** %51, align 8
  call void @_ZdlPv(i8* %75) #13
  br label %76

76:                                               ; preds = %66, %74
  call void @llvm.lifetime.end.p0i8(i64 24, i8* nonnull %50) #12
  br label %77

77:                                               ; preds = %42, %39, %19, %46, %76
  %78 = phi i1 [ %69, %76 ], [ true, %42 ], [ true, %46 ], [ true, %19 ], [ true, %39 ]
  %79 = bitcast %"class.std::__1::basic_string"* %4 to %"struct.std::__1::basic_string<char, std::__1::char_traits<char>, std::__1::allocator<char> >::__short"*
  %80 = getelementptr inbounds %"struct.std::__1::basic_string<char, std::__1::char_traits<char>, std::__1::allocator<char> >::__short", %"struct.std::__1::basic_string<char, std::__1::char_traits<char>, std::__1::allocator<char> >::__short"* %79, i64 0, i32 1, i32 0
  %81 = load i8, i8* %80, align 1
  %82 = icmp slt i8 %81, 0
  br i1 %82, label %83, label %85

83:                                               ; preds = %77
  %84 = load i8*, i8** %21, align 8
  call void @_ZdlPv(i8* %84) #13
  br label %85

85:                                               ; preds = %77, %83
  call void @llvm.lifetime.end.p0i8(i64 24, i8* nonnull %20) #12
  br label %86

86:                                               ; preds = %9, %85
  %87 = phi i1 [ %78, %85 ], [ true, %9 ]
  %88 = bitcast %"class.std::__1::basic_string"* %3 to %"struct.std::__1::basic_string<char, std::__1::char_traits<char>, std::__1::allocator<char> >::__short"*
  %89 = getelementptr inbounds %"struct.std::__1::basic_string<char, std::__1::char_traits<char>, std::__1::allocator<char> >::__short", %"struct.std::__1::basic_string<char, std::__1::char_traits<char>, std::__1::allocator<char> >::__short"* %88, i64 0, i32 1, i32 0
  %90 = load i8, i8* %89, align 1
  %91 = icmp slt i8 %90, 0
  br i1 %91, label %92, label %94

92:                                               ; preds = %86
  %93 = load i8*, i8** %11, align 8
  call void @_ZdlPv(i8* %93) #13
  br label %94

94:                                               ; preds = %86, %92
  call void @llvm.lifetime.end.p0i8(i64 24, i8* nonnull %10) #12
  br label %95

95:                                               ; preds = %2, %94
  %96 = phi i1 [ %87, %94 ], [ true, %2 ]
  ret i1 %96
}

; Function Attrs: nounwind ssp uwtable
define hidden zeroext i1 @_ZN4i18n12phonenumbers18PhoneNumberMatcher40ContainsMoreThanOneSlashInNationalNumberERKNS0_11PhoneNumberERKNSt3__112basic_stringIcNS5_11char_traitsIcEENS5_9allocatorIcEEEERKNS0_15PhoneNumberUtilE(%"class.i18n::phonenumbers::PhoneNumber"* nocapture readonly dereferenceable(72), %"class.std::__1::basic_string"* dereferenceable(24), %"class.i18n::phonenumbers::PhoneNumberUtil"* dereferenceable(64)) local_unnamed_addr #0 align 2 {
  %4 = alloca %"class.std::__1::basic_string", align 8
  %5 = alloca %"class.std::__1::basic_string", align 8
  %6 = tail call i64 @_ZNKSt3__112basic_stringIcNS_11char_traitsIcEENS_9allocatorIcEEE4findEcm(%"class.std::__1::basic_string"* %1, i8 signext 47, i64 0) #12
  %7 = icmp eq i64 %6, -1
  br i1 %7, label %88, label %8

8:                                                ; preds = %3
  %9 = add nuw i64 %6, 1
  %10 = tail call i64 @_ZNKSt3__112basic_stringIcNS_11char_traitsIcEENS_9allocatorIcEEE4findEcm(%"class.std::__1::basic_string"* %1, i8 signext 47, i64 %9) #12
  %11 = icmp eq i64 %10, -1
  br i1 %11, label %88, label %12

12:                                               ; preds = %8
  %13 = getelementptr inbounds %"class.i18n::phonenumbers::PhoneNumber", %"class.i18n::phonenumbers::PhoneNumber"* %0, i64 0, i32 9
  %14 = load i32, i32* %13, align 8
  switch i32 %14, label %87 [
    i32 1, label %15
    i32 10, label %15
  ]

15:                                               ; preds = %12, %12
  %16 = bitcast %"class.std::__1::basic_string"* %4 to i8*
  call void @llvm.lifetime.start.p0i8(i64 24, i8* nonnull %16) #12
  %17 = getelementptr inbounds %"class.std::__1::basic_string", %"class.std::__1::basic_string"* %4, i64 0, i32 0, i32 0, i32 0, i32 0, i32 0, i32 0
  %18 = getelementptr inbounds %"class.std::__1::basic_string", %"class.std::__1::basic_string"* %4, i64 0, i32 0, i32 0, i32 0, i32 0, i32 0, i32 1
  %19 = bitcast %"class.std::__1::basic_string"* %1 to %"class.std::__1::allocator"*
  %20 = bitcast %"class.std::__1::basic_string"* %4 to i8*
  call void @llvm.memset.p0i8.i64(i8* nonnull align 8 %20, i8 -86, i64 24, i1 false)
  call void @_ZNSt3__112basic_stringIcNS_11char_traitsIcEENS_9allocatorIcEEEC1ERKS5_mmRKS4_(%"class.std::__1::basic_string"* nonnull %4, %"class.std::__1::basic_string"* dereferenceable(24) %1, i64 0, i64 %6, %"class.std::__1::allocator"* dereferenceable(1) %19) #12
  call void @_ZNK4i18n12phonenumbers15PhoneNumberUtil19NormalizeDigitsOnlyEPNSt3__112basic_stringIcNS2_11char_traitsIcEENS2_9allocatorIcEEEE(%"class.i18n::phonenumbers::PhoneNumberUtil"* %2, %"class.std::__1::basic_string"* nonnull %4) #12
  %21 = bitcast %"class.std::__1::basic_string"* %5 to i8*
  call void @llvm.lifetime.start.p0i8(i64 24, i8* nonnull %21) #12
  %22 = getelementptr inbounds %"class.i18n::phonenumbers::PhoneNumber", %"class.i18n::phonenumbers::PhoneNumber"* %0, i64 0, i32 7
  %23 = load i32, i32* %22, align 8
  call void @_ZN4i18n12phonenumbers10SimpleItoaEi(%"class.std::__1::basic_string"* nonnull sret %5, i32 %23) #12
  %24 = bitcast %"class.std::__1::basic_string"* %4 to %"struct.std::__1::basic_string<char, std::__1::char_traits<char>, std::__1::allocator<char> >::__short"*
  %25 = getelementptr inbounds %"struct.std::__1::basic_string<char, std::__1::char_traits<char>, std::__1::allocator<char> >::__short", %"struct.std::__1::basic_string<char, std::__1::char_traits<char>, std::__1::allocator<char> >::__short"* %24, i64 0, i32 1, i32 0
  %26 = load i8, i8* %25, align 1
  %27 = icmp slt i8 %26, 0
  %28 = load i64, i64* %18, align 8
  %29 = zext i8 %26 to i64
  %30 = select i1 %27, i64 %28, i64 %29
  %31 = bitcast %"class.std::__1::basic_string"* %5 to %"struct.std::__1::basic_string<char, std::__1::char_traits<char>, std::__1::allocator<char> >::__short"*
  %32 = getelementptr inbounds %"struct.std::__1::basic_string<char, std::__1::char_traits<char>, std::__1::allocator<char> >::__short", %"struct.std::__1::basic_string<char, std::__1::char_traits<char>, std::__1::allocator<char> >::__short"* %31, i64 0, i32 1, i32 0
  %33 = load i8, i8* %32, align 1
  %34 = icmp slt i8 %33, 0
  %35 = getelementptr inbounds %"class.std::__1::basic_string", %"class.std::__1::basic_string"* %5, i64 0, i32 0, i32 0, i32 0, i32 0, i32 0, i32 1
  %36 = load i64, i64* %35, align 8
  %37 = zext i8 %33 to i64
  %38 = select i1 %34, i64 %36, i64 %37
  %39 = icmp eq i64 %30, %38
  br i1 %39, label %40, label %69

40:                                               ; preds = %15
  %41 = load i8*, i8** %17, align 8
  %42 = select i1 %27, i8* %41, i8* %16
  %43 = getelementptr inbounds %"class.std::__1::basic_string", %"class.std::__1::basic_string"* %5, i64 0, i32 0, i32 0, i32 0, i32 0, i32 0, i32 0
  %44 = load i8*, i8** %43, align 8
  %45 = select i1 %34, i8* %44, i8* %21
  %46 = icmp eq i64 %30, 0
  br i1 %27, label %53, label %47

47:                                               ; preds = %40
  br i1 %46, label %69, label %48

48:                                               ; preds = %47
  %49 = ptrtoint i8* %41 to i64
  %50 = trunc i64 %49 to i8
  %51 = load i8, i8* %45, align 1
  %52 = icmp eq i8 %51, %50
  br i1 %52, label %57, label %69

53:                                               ; preds = %40
  br i1 %46, label %69, label %54

54:                                               ; preds = %53
  %55 = call i32 @bcmp(i8* %42, i8* %45, i64 %30) #12
  %56 = icmp eq i32 %55, 0
  br label %69

57:                                               ; preds = %48, %64
  %58 = phi i64 [ %61, %64 ], [ %29, %48 ]
  %59 = phi i8* [ %62, %64 ], [ %16, %48 ]
  %60 = phi i8* [ %65, %64 ], [ %45, %48 ]
  %61 = add i64 %58, -1
  %62 = getelementptr inbounds i8, i8* %59, i64 1
  %63 = icmp eq i64 %61, 0
  br i1 %63, label %69, label %64

64:                                               ; preds = %57
  %65 = getelementptr inbounds i8, i8* %60, i64 1
  %66 = load i8, i8* %62, align 1
  %67 = load i8, i8* %65, align 1
  %68 = icmp eq i8 %66, %67
  br i1 %68, label %57, label %69

69:                                               ; preds = %57, %64, %48, %15, %47, %53, %54
  %70 = phi i1 [ false, %15 ], [ %56, %54 ], [ true, %53 ], [ true, %47 ], [ false, %48 ], [ false, %64 ], [ true, %57 ]
  br i1 %34, label %71, label %74

71:                                               ; preds = %69
  %72 = getelementptr inbounds %"class.std::__1::basic_string", %"class.std::__1::basic_string"* %5, i64 0, i32 0, i32 0, i32 0, i32 0, i32 0, i32 0
  %73 = load i8*, i8** %72, align 8
  call void @_ZdlPv(i8* %73) #13
  br label %74

74:                                               ; preds = %69, %71
  call void @llvm.lifetime.end.p0i8(i64 24, i8* nonnull %21) #12
  br i1 %70, label %75, label %79

75:                                               ; preds = %74
  %76 = add i64 %10, 1
  %77 = call i64 @_ZNKSt3__112basic_stringIcNS_11char_traitsIcEENS_9allocatorIcEEE4findEcm(%"class.std::__1::basic_string"* %1, i8 signext 47, i64 %76) #12
  %78 = icmp ne i64 %77, -1
  br label %79

79:                                               ; preds = %74, %75
  %80 = phi i1 [ %78, %75 ], [ undef, %74 ]
  %81 = phi i1 [ false, %75 ], [ true, %74 ]
  %82 = load i8, i8* %25, align 1
  %83 = icmp slt i8 %82, 0
  br i1 %83, label %84, label %86

84:                                               ; preds = %79
  %85 = load i8*, i8** %17, align 8
  call void @_ZdlPv(i8* %85) #13
  br label %86

86:                                               ; preds = %79, %84
  call void @llvm.lifetime.end.p0i8(i64 24, i8* nonnull %16) #12
  br i1 %81, label %87, label %88

87:                                               ; preds = %12, %86
  br label %88

88:                                               ; preds = %87, %86, %8, %3
  %89 = phi i1 [ false, %3 ], [ true, %87 ], [ %80, %86 ], [ false, %8 ]
  ret i1 %89
}

; Function Attrs: nounwind ssp uwtable
define internal zeroext i1 @_ZN4i18n12phonenumbers12_GLOBAL__N_128AllNumberGroupsRemainGroupedERKNS0_15PhoneNumberUtilERKNS0_11PhoneNumberERKNSt3__112basic_stringIcNS8_11char_traitsIcEENS8_9allocatorIcEEEERKNS8_6vectorISE_NSC_ISE_EEEE(%"class.i18n::phonenumbers::PhoneNumberUtil"* dereferenceable(64), %"class.i18n::phonenumbers::PhoneNumber"* dereferenceable(72), %"class.std::__1::basic_string"* dereferenceable(24), %"class.std::__1::vector.78"* dereferenceable(24)) #0 {
  %5 = alloca %"class.std::__1::basic_string", align 8
  %6 = alloca %"class.std::__1::basic_string", align 8
  %7 = alloca %"class.std::__1::basic_string", align 8
  %8 = alloca %"class.std::__1::basic_string", align 8
  %9 = alloca %"class.std::__1::basic_string", align 8
  %10 = alloca %"class.std::__1::basic_string", align 8
  %11 = getelementptr inbounds %"class.i18n::phonenumbers::PhoneNumber", %"class.i18n::phonenumbers::PhoneNumber"* %1, i64 0, i32 9
  %12 = load i32, i32* %11, align 8
  %13 = icmp eq i32 %12, 20
  br i1 %13, label %82, label %14

14:                                               ; preds = %4
  %15 = bitcast %"class.std::__1::basic_string"* %5 to i8*
  call void @llvm.lifetime.start.p0i8(i64 24, i8* nonnull %15) #12
  %16 = getelementptr inbounds %"class.std::__1::basic_string", %"class.std::__1::basic_string"* %5, i64 0, i32 0, i32 0, i32 0, i32 0, i32 0, i32 0
  %17 = getelementptr inbounds %"class.std::__1::basic_string", %"class.std::__1::basic_string"* %5, i64 0, i32 0, i32 0, i32 0, i32 0, i32 0, i32 1
  %18 = getelementptr inbounds %"class.i18n::phonenumbers::PhoneNumber", %"class.i18n::phonenumbers::PhoneNumber"* %1, i64 0, i32 7
  %19 = bitcast %"class.std::__1::basic_string"* %5 to i8*
  call void @llvm.memset.p0i8.i64(i8* nonnull align 8 %19, i8 -86, i64 24, i1 false)
  %20 = load i32, i32* %18, align 8
  call void @_ZN4i18n12phonenumbers10SimpleItoaEi(%"class.std::__1::basic_string"* nonnull sret %5, i32 %20) #12
  %21 = bitcast %"class.std::__1::basic_string"* %2 to %"struct.std::__1::basic_string<char, std::__1::char_traits<char>, std::__1::allocator<char> >::__short"*
  %22 = getelementptr inbounds %"struct.std::__1::basic_string<char, std::__1::char_traits<char>, std::__1::allocator<char> >::__short", %"struct.std::__1::basic_string<char, std::__1::char_traits<char>, std::__1::allocator<char> >::__short"* %21, i64 0, i32 1, i32 0
  %23 = load i8, i8* %22, align 1
  %24 = icmp slt i8 %23, 0
  %25 = getelementptr inbounds %"class.std::__1::basic_string", %"class.std::__1::basic_string"* %2, i64 0, i32 0, i32 0, i32 0, i32 0, i32 0, i32 0
  %26 = load i8*, i8** %25, align 8
  %27 = bitcast %"class.std::__1::basic_string"* %2 to i8*
  %28 = select i1 %24, i8* %26, i8* %27
  %29 = bitcast %"class.std::__1::basic_string"* %5 to %"struct.std::__1::basic_string<char, std::__1::char_traits<char>, std::__1::allocator<char> >::__short"*
  %30 = getelementptr inbounds %"struct.std::__1::basic_string<char, std::__1::char_traits<char>, std::__1::allocator<char> >::__short", %"struct.std::__1::basic_string<char, std::__1::char_traits<char>, std::__1::allocator<char> >::__short"* %29, i64 0, i32 1, i32 0
  %31 = load i8, i8* %30, align 1
  %32 = icmp slt i8 %31, 0
  %33 = load i8*, i8** %16, align 8
  %34 = load i64, i64* %17, align 8
  %35 = zext i8 %31 to i64
  %36 = select i1 %32, i8* %33, i8* %15
  %37 = select i1 %32, i64 %34, i64 %35
  %38 = icmp eq i64 %37, 0
  br i1 %38, label %76, label %39

39:                                               ; preds = %14
  %40 = getelementptr inbounds %"class.std::__1::basic_string", %"class.std::__1::basic_string"* %2, i64 0, i32 0, i32 0, i32 0, i32 0, i32 0, i32 1
  %41 = load i64, i64* %40, align 8
  %42 = zext i8 %23 to i64
  %43 = select i1 %24, i64 %41, i64 %42
  %44 = getelementptr inbounds i8, i8* %28, i64 %43
  %45 = ptrtoint i8* %44 to i64
  %46 = ptrtoint i8* %28 to i64
  %47 = icmp slt i64 %43, %37
  br i1 %47, label %70, label %48

48:                                               ; preds = %39
  %49 = load i8, i8* %36, align 1
  %50 = zext i8 %49 to i32
  br label %51

51:                                               ; preds = %65, %48
  %52 = phi i64 [ %68, %65 ], [ %43, %48 ]
  %53 = phi i8* [ %66, %65 ], [ %28, %48 ]
  %54 = sub nsw i64 %52, %37
  %55 = add nsw i64 %54, 1
  %56 = icmp eq i64 %55, 0
  br i1 %56, label %70, label %57

57:                                               ; preds = %51
  %58 = call i8* @memchr(i8* %53, i32 %50, i64 %55) #12
  %59 = icmp eq i8* %58, null
  br i1 %59, label %70, label %60

60:                                               ; preds = %57
  %61 = call i32 @bcmp(i8* nonnull %58, i8* %36, i64 %37) #12
  %62 = icmp eq i32 %61, 0
  br i1 %62, label %63, label %65

63:                                               ; preds = %60
  %64 = ptrtoint i8* %58 to i64
  br label %70

65:                                               ; preds = %60
  %66 = getelementptr inbounds i8, i8* %58, i64 1
  %67 = ptrtoint i8* %66 to i64
  %68 = sub i64 %45, %67
  %69 = icmp slt i64 %68, %37
  br i1 %69, label %70, label %51

70:                                               ; preds = %65, %57, %51, %63, %39
  %71 = phi i64 [ %45, %39 ], [ %64, %63 ], [ %45, %51 ], [ %45, %57 ], [ %45, %65 ]
  %72 = phi i8* [ %44, %39 ], [ %58, %63 ], [ %44, %51 ], [ %44, %57 ], [ %44, %65 ]
  %73 = icmp eq i8* %72, %44
  %74 = sub i64 %71, %46
  %75 = select i1 %73, i64 -1, i64 %74
  br label %76

76:                                               ; preds = %14, %70
  %77 = phi i64 [ 0, %14 ], [ %75, %70 ]
  br i1 %32, label %78, label %79

78:                                               ; preds = %76
  call void @_ZdlPv(i8* %33) #13
  br label %79

79:                                               ; preds = %76, %78
  %80 = phi i64 [ %34, %78 ], [ %35, %76 ]
  %81 = add i64 %80, %77
  call void @llvm.lifetime.end.p0i8(i64 24, i8* nonnull %15) #12
  br label %82

82:                                               ; preds = %4, %79
  %83 = phi i64 [ %81, %79 ], [ 0, %4 ]
  %84 = getelementptr inbounds %"class.std::__1::vector.78", %"class.std::__1::vector.78"* %3, i64 0, i32 0, i32 1
  %85 = bitcast %"class.std::__1::basic_string"** %84 to i64*
  %86 = load i64, i64* %85, align 8
  %87 = bitcast %"class.std::__1::vector.78"* %3 to i64*
  %88 = load i64, i64* %87, align 8
  %89 = icmp eq i64 %86, %88
  br i1 %89, label %90, label %92

90:                                               ; preds = %82
  %91 = bitcast %"class.std::__1::basic_string"* %2 to %"class.std::__1::allocator"*
  br label %257

92:                                               ; preds = %82
  %93 = bitcast %"class.std::__1::basic_string"* %2 to %"struct.std::__1::basic_string<char, std::__1::char_traits<char>, std::__1::allocator<char> >::__short"*
  %94 = getelementptr inbounds %"struct.std::__1::basic_string<char, std::__1::char_traits<char>, std::__1::allocator<char> >::__short", %"struct.std::__1::basic_string<char, std::__1::char_traits<char>, std::__1::allocator<char> >::__short"* %93, i64 0, i32 1, i32 0
  %95 = getelementptr inbounds %"class.std::__1::basic_string", %"class.std::__1::basic_string"* %2, i64 0, i32 0, i32 0, i32 0, i32 0, i32 0, i32 0
  %96 = getelementptr inbounds %"class.std::__1::basic_string", %"class.std::__1::basic_string"* %2, i64 0, i32 0, i32 0, i32 0, i32 0, i32 0, i32 1
  %97 = bitcast %"class.std::__1::basic_string"* %2 to i8*
  %98 = bitcast %"class.std::__1::basic_string"* %6 to i8*
  %99 = getelementptr inbounds %"class.std::__1::basic_string", %"class.std::__1::basic_string"* %6, i64 0, i32 0, i32 0, i32 0, i32 0, i32 0, i32 0
  %100 = getelementptr inbounds %"class.i18n::phonenumbers::PhoneNumber", %"class.i18n::phonenumbers::PhoneNumber"* %1, i64 0, i32 7
  %101 = bitcast %"class.std::__1::basic_string"* %7 to i8*
  %102 = getelementptr inbounds %"class.std::__1::basic_string", %"class.std::__1::basic_string"* %7, i64 0, i32 0, i32 0, i32 0, i32 0, i32 0, i32 0
  %103 = getelementptr inbounds %"class.std::__1::basic_string", %"class.std::__1::basic_string"* %7, i64 0, i32 0, i32 0, i32 0, i32 0, i32 0, i32 1
  %104 = bitcast %"class.std::__1::basic_string"* %7 to %"struct.std::__1::basic_string<char, std::__1::char_traits<char>, std::__1::allocator<char> >::__short"*
  %105 = getelementptr inbounds %"struct.std::__1::basic_string<char, std::__1::char_traits<char>, std::__1::allocator<char> >::__short", %"struct.std::__1::basic_string<char, std::__1::char_traits<char>, std::__1::allocator<char> >::__short"* %104, i64 0, i32 1, i32 0
  %106 = bitcast %"class.std::__1::basic_string"* %8 to i8*
  %107 = getelementptr inbounds %"class.std::__1::basic_string", %"class.std::__1::basic_string"* %8, i64 0, i32 0, i32 0, i32 0, i32 0, i32 0, i32 0
  %108 = bitcast %"class.std::__1::basic_string"* %9 to i8*
  %109 = bitcast %"class.std::__1::basic_string"* %2 to %"class.std::__1::allocator"*
  %110 = bitcast %"class.std::__1::basic_string"* %9 to %"struct.std::__1::basic_string<char, std::__1::char_traits<char>, std::__1::allocator<char> >::__short"*
  %111 = getelementptr inbounds %"struct.std::__1::basic_string<char, std::__1::char_traits<char>, std::__1::allocator<char> >::__short", %"struct.std::__1::basic_string<char, std::__1::char_traits<char>, std::__1::allocator<char> >::__short"* %110, i64 0, i32 1, i32 0
  %112 = getelementptr inbounds %"class.std::__1::basic_string", %"class.std::__1::basic_string"* %9, i64 0, i32 0, i32 0, i32 0, i32 0, i32 0, i32 0
  %113 = bitcast %"class.std::__1::basic_string"* %8 to %"struct.std::__1::basic_string<char, std::__1::char_traits<char>, std::__1::allocator<char> >::__short"*
  %114 = getelementptr inbounds %"struct.std::__1::basic_string<char, std::__1::char_traits<char>, std::__1::allocator<char> >::__short", %"struct.std::__1::basic_string<char, std::__1::char_traits<char>, std::__1::allocator<char> >::__short"* %113, i64 0, i32 1, i32 0
  %115 = bitcast %"class.std::__1::basic_string"* %6 to %"struct.std::__1::basic_string<char, std::__1::char_traits<char>, std::__1::allocator<char> >::__short"*
  %116 = getelementptr inbounds %"struct.std::__1::basic_string<char, std::__1::char_traits<char>, std::__1::allocator<char> >::__short", %"struct.std::__1::basic_string<char, std::__1::char_traits<char>, std::__1::allocator<char> >::__short"* %115, i64 0, i32 1, i32 0
  br label %117

117:                                              ; preds = %92, %249
  %118 = phi i64 [ %88, %92 ], [ %250, %249 ]
  %119 = phi i64 [ %86, %92 ], [ %251, %249 ]
  %120 = phi i64 [ 0, %92 ], [ %253, %249 ]
  %121 = phi i64 [ %83, %92 ], [ %183, %249 ]
  %122 = phi i1 [ undef, %92 ], [ %252, %249 ]
  %123 = inttoptr i64 %118 to %"class.std::__1::basic_string"*
  %124 = getelementptr inbounds %"class.std::__1::basic_string", %"class.std::__1::basic_string"* %123, i64 %120
  %125 = load i8, i8* %94, align 1
  %126 = icmp slt i8 %125, 0
  %127 = load i8*, i8** %95, align 8
  %128 = load i64, i64* %96, align 8
  %129 = zext i8 %125 to i64
  %130 = select i1 %126, i8* %127, i8* %97
  %131 = select i1 %126, i64 %128, i64 %129
  %132 = bitcast %"class.std::__1::basic_string"* %124 to %"struct.std::__1::basic_string<char, std::__1::char_traits<char>, std::__1::allocator<char> >::__short"*
  %133 = getelementptr inbounds %"struct.std::__1::basic_string<char, std::__1::char_traits<char>, std::__1::allocator<char> >::__short", %"struct.std::__1::basic_string<char, std::__1::char_traits<char>, std::__1::allocator<char> >::__short"* %132, i64 0, i32 1, i32 0
  %134 = load i8, i8* %133, align 1
  %135 = icmp slt i8 %134, 0
  %136 = getelementptr inbounds %"class.std::__1::basic_string", %"class.std::__1::basic_string"* %124, i64 0, i32 0, i32 0, i32 0, i32 0, i32 0, i32 0
  %137 = load i8*, i8** %136, align 8
  %138 = getelementptr inbounds %"class.std::__1::basic_string", %"class.std::__1::basic_string"* %123, i64 %120, i32 0, i32 0, i32 0, i32 0, i32 0, i32 1
  %139 = load i64, i64* %138, align 8
  %140 = bitcast %"class.std::__1::basic_string"* %124 to i8*
  %141 = zext i8 %134 to i64
  %142 = select i1 %135, i8* %137, i8* %140
  %143 = select i1 %135, i64 %139, i64 %141
  %144 = icmp ult i64 %131, %121
  br i1 %144, label %325, label %145

145:                                              ; preds = %117
  %146 = icmp eq i64 %143, 0
  br i1 %146, label %179, label %147

147:                                              ; preds = %145
  %148 = getelementptr inbounds i8, i8* %130, i64 %121
  %149 = getelementptr inbounds i8, i8* %130, i64 %131
  %150 = ptrtoint i8* %149 to i64
  %151 = ptrtoint i8* %148 to i64
  %152 = sub i64 %150, %151
  %153 = icmp slt i64 %152, %143
  br i1 %153, label %325, label %154

154:                                              ; preds = %147
  %155 = load i8, i8* %142, align 1
  %156 = zext i8 %155 to i32
  br label %157

157:                                              ; preds = %169, %154
  %158 = phi i64 [ %172, %169 ], [ %152, %154 ]
  %159 = phi i8* [ %170, %169 ], [ %148, %154 ]
  %160 = sub nsw i64 %158, %143
  %161 = add nsw i64 %160, 1
  %162 = icmp eq i64 %161, 0
  br i1 %162, label %325, label %163

163:                                              ; preds = %157
  %164 = call i8* @memchr(i8* %159, i32 %156, i64 %161) #12
  %165 = icmp eq i8* %164, null
  br i1 %165, label %325, label %166

166:                                              ; preds = %163
  %167 = call i32 @bcmp(i8* nonnull %164, i8* %142, i64 %143) #12
  %168 = icmp eq i32 %167, 0
  br i1 %168, label %174, label %169

169:                                              ; preds = %166
  %170 = getelementptr inbounds i8, i8* %164, i64 1
  %171 = ptrtoint i8* %170 to i64
  %172 = sub i64 %150, %171
  %173 = icmp slt i64 %172, %143
  br i1 %173, label %325, label %157

174:                                              ; preds = %166
  %175 = ptrtoint i8* %164 to i64
  %176 = icmp eq i8* %164, %149
  %177 = ptrtoint i8* %130 to i64
  %178 = sub i64 %175, %177
  br i1 %176, label %325, label %179

179:                                              ; preds = %174, %145
  %180 = phi i64 [ %121, %145 ], [ %178, %174 ]
  %181 = icmp eq i64 %180, -1
  br i1 %181, label %325, label %182

182:                                              ; preds = %179
  %183 = add i64 %180, %143
  %184 = icmp eq i64 %120, 0
  %185 = icmp ult i64 %183, %131
  %186 = and i1 %184, %185
  br i1 %186, label %187, label %249

187:                                              ; preds = %182
  call void @llvm.lifetime.start.p0i8(i64 24, i8* nonnull %98) #12
  call void @llvm.memset.p0i8.i64(i8* nonnull align 8 %98, i8 0, i64 24, i1 false) #12
  %188 = load i32, i32* %100, align 8
  call void @_ZNK4i18n12phonenumbers15PhoneNumberUtil27GetRegionCodeForCountryCodeEiPNSt3__112basic_stringIcNS2_11char_traitsIcEENS2_9allocatorIcEEEE(%"class.i18n::phonenumbers::PhoneNumberUtil"* %0, i32 %188, %"class.std::__1::basic_string"* nonnull %6) #12
  call void @llvm.lifetime.start.p0i8(i64 24, i8* nonnull %101) #12
  call void @llvm.memset.p0i8.i64(i8* nonnull align 8 %101, i8 0, i64 24, i1 false) #12
  call void @_ZNK4i18n12phonenumbers15PhoneNumberUtil21GetNddPrefixForRegionERKNSt3__112basic_stringIcNS2_11char_traitsIcEENS2_9allocatorIcEEEEbPS8_(%"class.i18n::phonenumbers::PhoneNumberUtil"* %0, %"class.std::__1::basic_string"* nonnull dereferenceable(24) %6, i1 zeroext true, %"class.std::__1::basic_string"* nonnull %7) #12
  %189 = load i8, i8* %105, align 1
  %190 = icmp slt i8 %189, 0
  %191 = load i64, i64* %103, align 8
  %192 = zext i8 %189 to i64
  %193 = select i1 %190, i64 %191, i64 %192
  %194 = icmp eq i64 %193, 0
  br i1 %194, label %232, label %195

195:                                              ; preds = %187
  %196 = call dereferenceable(1) i8* @_ZNKSt3__112basic_stringIcNS_11char_traitsIcEENS_9allocatorIcEEE2atEm(%"class.std::__1::basic_string"* %2, i64 %183) #12
  %197 = load i8, i8* %196, align 1
  %198 = sext i8 %197 to i32
  %199 = add nsw i32 %198, -48
  %200 = icmp ult i32 %199, 10
  br i1 %200, label %201, label %232

201:                                              ; preds = %195
  call void @llvm.lifetime.start.p0i8(i64 24, i8* nonnull %106) #12
  call void @llvm.memset.p0i8.i64(i8* nonnull align 8 %106, i8 0, i64 24, i1 false) #12
  call void @_ZNK4i18n12phonenumbers15PhoneNumberUtil28GetNationalSignificantNumberERKNS0_11PhoneNumberEPNSt3__112basic_stringIcNS5_11char_traitsIcEENS5_9allocatorIcEEEE(%"class.i18n::phonenumbers::PhoneNumberUtil"* %0, %"class.i18n::phonenumbers::PhoneNumber"* dereferenceable(72) %1, %"class.std::__1::basic_string"* nonnull %8) #12
  call void @llvm.lifetime.start.p0i8(i64 24, i8* nonnull %108) #12
  %202 = load i64, i64* %85, align 8
  %203 = load i64, i64* %87, align 8
  %204 = icmp eq i64 %202, %203
  br i1 %204, label %205, label %207

205:                                              ; preds = %201
  %206 = bitcast %"class.std::__1::vector.78"* %3 to %"class.std::__1::__vector_base_common"*
  call void @_ZNKSt3__120__vector_base_commonILb1EE20__throw_out_of_rangeEv(%"class.std::__1::__vector_base_common"* %206) #14
  unreachable

207:                                              ; preds = %201
  %208 = inttoptr i64 %203 to %"struct.std::__1::basic_string<char, std::__1::char_traits<char>, std::__1::allocator<char> >::__short"*
  %209 = getelementptr inbounds %"struct.std::__1::basic_string<char, std::__1::char_traits<char>, std::__1::allocator<char> >::__short", %"struct.std::__1::basic_string<char, std::__1::char_traits<char>, std::__1::allocator<char> >::__short"* %208, i64 0, i32 1, i32 0
  %210 = load i8, i8* %209, align 1
  %211 = icmp slt i8 %210, 0
  br i1 %211, label %212, label %216

212:                                              ; preds = %207
  %213 = inttoptr i64 %203 to %"class.std::__1::basic_string"*
  %214 = getelementptr inbounds %"class.std::__1::basic_string", %"class.std::__1::basic_string"* %213, i64 0, i32 0, i32 0, i32 0, i32 0, i32 0, i32 1
  %215 = load i64, i64* %214, align 8
  br label %218

216:                                              ; preds = %207
  %217 = zext i8 %210 to i64
  br label %218

218:                                              ; preds = %212, %216
  %219 = phi i64 [ %215, %212 ], [ %217, %216 ]
  %220 = sub i64 %183, %219
  call void @_ZNSt3__112basic_stringIcNS_11char_traitsIcEENS_9allocatorIcEEEC1ERKS5_mmRKS4_(%"class.std::__1::basic_string"* nonnull %9, %"class.std::__1::basic_string"* dereferenceable(24) %2, i64 %220, i64 -1, %"class.std::__1::allocator"* dereferenceable(1) %109) #12
  %221 = call zeroext i1 @_ZN4i18n12phonenumbers15HasPrefixStringERKNSt3__112basic_stringIcNS1_11char_traitsIcEENS1_9allocatorIcEEEES9_(%"class.std::__1::basic_string"* nonnull dereferenceable(24) %9, %"class.std::__1::basic_string"* nonnull dereferenceable(24) %8) #12
  %222 = load i8, i8* %111, align 1
  %223 = icmp slt i8 %222, 0
  br i1 %223, label %224, label %226

224:                                              ; preds = %218
  %225 = load i8*, i8** %112, align 8
  call void @_ZdlPv(i8* %225) #13
  br label %226

226:                                              ; preds = %218, %224
  call void @llvm.lifetime.end.p0i8(i64 24, i8* nonnull %108) #12
  %227 = load i8, i8* %114, align 1
  %228 = icmp slt i8 %227, 0
  br i1 %228, label %229, label %231

229:                                              ; preds = %226
  %230 = load i8*, i8** %107, align 8
  call void @_ZdlPv(i8* %230) #13
  br label %231

231:                                              ; preds = %226, %229
  call void @llvm.lifetime.end.p0i8(i64 24, i8* nonnull %106) #12
  br label %232

232:                                              ; preds = %187, %195, %231
  %233 = phi i1 [ %221, %231 ], [ %122, %195 ], [ %122, %187 ]
  %234 = phi i32 [ 1, %231 ], [ 0, %195 ], [ 0, %187 ]
  %235 = load i8, i8* %105, align 1
  %236 = icmp slt i8 %235, 0
  br i1 %236, label %237, label %239

237:                                              ; preds = %232
  %238 = load i8*, i8** %102, align 8
  call void @_ZdlPv(i8* %238) #13
  br label %239

239:                                              ; preds = %232, %237
  call void @llvm.lifetime.end.p0i8(i64 24, i8* nonnull %101) #12
  %240 = load i8, i8* %116, align 1
  %241 = icmp slt i8 %240, 0
  br i1 %241, label %242, label %244

242:                                              ; preds = %239
  %243 = load i8*, i8** %99, align 8
  call void @_ZdlPv(i8* %243) #13
  br label %244

244:                                              ; preds = %239, %242
  call void @llvm.lifetime.end.p0i8(i64 24, i8* nonnull %98) #12
  %245 = icmp eq i32 %234, 0
  br i1 %245, label %246, label %325

246:                                              ; preds = %244
  %247 = load i64, i64* %85, align 8
  %248 = load i64, i64* %87, align 8
  br label %249

249:                                              ; preds = %246, %182
  %250 = phi i64 [ %248, %246 ], [ %118, %182 ]
  %251 = phi i64 [ %247, %246 ], [ %119, %182 ]
  %252 = phi i1 [ %233, %246 ], [ %122, %182 ]
  %253 = add nuw i64 %120, 1
  %254 = sub i64 %251, %250
  %255 = sdiv exact i64 %254, 24
  %256 = icmp ult i64 %253, %255
  br i1 %256, label %117, label %257

257:                                              ; preds = %249, %90
  %258 = phi %"class.std::__1::allocator"* [ %91, %90 ], [ %109, %249 ]
  %259 = phi i64 [ %83, %90 ], [ %183, %249 ]
  %260 = bitcast %"class.std::__1::basic_string"* %10 to i8*
  call void @llvm.lifetime.start.p0i8(i64 24, i8* nonnull %260) #12
  call void @_ZNSt3__112basic_stringIcNS_11char_traitsIcEENS_9allocatorIcEEEC1ERKS5_mmRKS4_(%"class.std::__1::basic_string"* nonnull %10, %"class.std::__1::basic_string"* dereferenceable(24) %2, i64 %259, i64 -1, %"class.std::__1::allocator"* dereferenceable(1) %258) #12
  %261 = getelementptr inbounds %"class.i18n::phonenumbers::PhoneNumber", %"class.i18n::phonenumbers::PhoneNumber"* %1, i64 0, i32 3, i32 0
  %262 = load %"class.std::__1::basic_string"*, %"class.std::__1::basic_string"** %261, align 8
  %263 = bitcast %"class.std::__1::basic_string"* %10 to %"struct.std::__1::basic_string<char, std::__1::char_traits<char>, std::__1::allocator<char> >::__short"*
  %264 = getelementptr inbounds %"struct.std::__1::basic_string<char, std::__1::char_traits<char>, std::__1::allocator<char> >::__short", %"struct.std::__1::basic_string<char, std::__1::char_traits<char>, std::__1::allocator<char> >::__short"* %263, i64 0, i32 1, i32 0
  %265 = load i8, i8* %264, align 1
  %266 = icmp slt i8 %265, 0
  %267 = getelementptr inbounds %"class.std::__1::basic_string", %"class.std::__1::basic_string"* %10, i64 0, i32 0, i32 0, i32 0, i32 0, i32 0, i32 0
  %268 = load i8*, i8** %267, align 8
  %269 = select i1 %266, i8* %268, i8* %260
  %270 = bitcast %"class.std::__1::basic_string"* %262 to %"struct.std::__1::basic_string<char, std::__1::char_traits<char>, std::__1::allocator<char> >::__short"*
  %271 = getelementptr inbounds %"struct.std::__1::basic_string<char, std::__1::char_traits<char>, std::__1::allocator<char> >::__short", %"struct.std::__1::basic_string<char, std::__1::char_traits<char>, std::__1::allocator<char> >::__short"* %270, i64 0, i32 1, i32 0
  %272 = load i8, i8* %271, align 1
  %273 = icmp slt i8 %272, 0
  %274 = getelementptr inbounds %"class.std::__1::basic_string", %"class.std::__1::basic_string"* %262, i64 0, i32 0, i32 0, i32 0, i32 0, i32 0, i32 0
  %275 = load i8*, i8** %274, align 8
  %276 = getelementptr inbounds %"class.std::__1::basic_string", %"class.std::__1::basic_string"* %262, i64 0, i32 0, i32 0, i32 0, i32 0, i32 0, i32 1
  %277 = load i64, i64* %276, align 8
  %278 = bitcast %"class.std::__1::basic_string"* %262 to i8*
  %279 = zext i8 %272 to i64
  %280 = select i1 %273, i8* %275, i8* %278
  %281 = select i1 %273, i64 %277, i64 %279
  %282 = icmp eq i64 %281, 0
  br i1 %282, label %321, label %283

283:                                              ; preds = %257
  %284 = getelementptr inbounds %"class.std::__1::basic_string", %"class.std::__1::basic_string"* %10, i64 0, i32 0, i32 0, i32 0, i32 0, i32 0, i32 1
  %285 = load i64, i64* %284, align 8
  %286 = zext i8 %265 to i64
  %287 = select i1 %266, i64 %285, i64 %286
  %288 = getelementptr inbounds i8, i8* %269, i64 %287
  %289 = ptrtoint i8* %288 to i64
  %290 = ptrtoint i8* %269 to i64
  %291 = icmp slt i64 %287, %281
  br i1 %291, label %314, label %292

292:                                              ; preds = %283
  %293 = load i8, i8* %280, align 1
  %294 = zext i8 %293 to i32
  br label %295

295:                                              ; preds = %309, %292
  %296 = phi i64 [ %312, %309 ], [ %287, %292 ]
  %297 = phi i8* [ %310, %309 ], [ %269, %292 ]
  %298 = sub nsw i64 %296, %281
  %299 = add nsw i64 %298, 1
  %300 = icmp eq i64 %299, 0
  br i1 %300, label %314, label %301

301:                                              ; preds = %295
  %302 = call i8* @memchr(i8* %297, i32 %294, i64 %299) #12
  %303 = icmp eq i8* %302, null
  br i1 %303, label %314, label %304

304:                                              ; preds = %301
  %305 = call i32 @bcmp(i8* nonnull %302, i8* %280, i64 %281) #12
  %306 = icmp eq i32 %305, 0
  br i1 %306, label %307, label %309

307:                                              ; preds = %304
  %308 = ptrtoint i8* %302 to i64
  br label %314

309:                                              ; preds = %304
  %310 = getelementptr inbounds i8, i8* %302, i64 1
  %311 = ptrtoint i8* %310 to i64
  %312 = sub i64 %289, %311
  %313 = icmp slt i64 %312, %281
  br i1 %313, label %314, label %295

314:                                              ; preds = %309, %301, %295, %307, %283
  %315 = phi i64 [ %289, %283 ], [ %308, %307 ], [ %289, %295 ], [ %289, %301 ], [ %289, %309 ]
  %316 = phi i8* [ %288, %283 ], [ %302, %307 ], [ %288, %295 ], [ %288, %301 ], [ %288, %309 ]
  %317 = icmp ne i8* %316, %288
  %318 = sub i64 %315, %290
  %319 = icmp ne i64 %318, -1
  %320 = and i1 %319, %317
  br label %321

321:                                              ; preds = %257, %314
  %322 = phi i1 [ true, %257 ], [ %320, %314 ]
  br i1 %266, label %323, label %324

323:                                              ; preds = %321
  call void @_ZdlPv(i8* %268) #13
  br label %324

324:                                              ; preds = %321, %323
  call void @llvm.lifetime.end.p0i8(i64 24, i8* nonnull %260) #12
  br label %325

325:                                              ; preds = %147, %174, %117, %179, %244, %169, %163, %157, %324
  %326 = phi i1 [ %322, %324 ], [ false, %157 ], [ false, %163 ], [ false, %169 ], [ false, %147 ], [ false, %174 ], [ false, %117 ], [ %233, %244 ], [ false, %179 ]
  ret i1 %326
}

; Function Attrs: nounwind ssp uwtable
define hidden zeroext i1 @_ZNK4i18n12phonenumbers18PhoneNumberMatcher26CheckNumberGroupingIsValidERKNS0_11PhoneNumberERKNSt3__112basic_stringIcNS5_11char_traitsIcEENS5_9allocatorIcEEEEPNS0_15ResultCallback4IbRKNS0_15PhoneNumberUtilES4_SD_RKNS5_6vectorISB_NS9_ISB_EEEEEE(%"class.i18n::phonenumbers::PhoneNumberMatcher"* nocapture readonly, %"class.i18n::phonenumbers::PhoneNumber"* dereferenceable(72), %"class.std::__1::basic_string"* dereferenceable(24), %"class.i18n::phonenumbers::ResultCallback4"*) local_unnamed_addr #0 align 2 {
  %5 = alloca %"class.std::__1::basic_string", align 8
  %6 = alloca %"class.std::__1::vector.78", align 8
  %7 = alloca %"class.std::__1::basic_string", align 8
  %8 = bitcast %"class.std::__1::basic_string"* %5 to i8*
  call void @llvm.lifetime.start.p0i8(i64 24, i8* nonnull %8) #12
  %9 = getelementptr inbounds %"class.std::__1::basic_string", %"class.std::__1::basic_string"* %5, i64 0, i32 0, i32 0, i32 0, i32 0, i32 0, i32 0
  %10 = bitcast %"class.std::__1::basic_string"* %5 to i8*
  call void @llvm.memset.p0i8.i64(i8* nonnull align 8 %10, i8 -86, i64 24, i1 false)
  call void @_ZN4i18n12phonenumbers13NormalizeUTF822NormalizeDecimalDigitsERKNSt3__112basic_stringIcNS2_11char_traitsIcEENS2_9allocatorIcEEEE(%"class.std::__1::basic_string"* nonnull sret %5, %"class.std::__1::basic_string"* dereferenceable(24) %2)
  %11 = bitcast %"class.std::__1::vector.78"* %6 to i8*
  call void @llvm.lifetime.start.p0i8(i64 24, i8* nonnull %11) #12
  %12 = getelementptr inbounds %"class.std::__1::vector.78", %"class.std::__1::vector.78"* %6, i64 0, i32 0, i32 0
  %13 = getelementptr inbounds %"class.std::__1::vector.78", %"class.std::__1::vector.78"* %6, i64 0, i32 0, i32 1
  call void @llvm.memset.p0i8.i64(i8* nonnull align 8 %11, i8 0, i64 24, i1 false) #12
  call void @_ZNK4i18n12phonenumbers18PhoneNumberMatcher23GetNationalNumberGroupsERKNS0_11PhoneNumberEPNSt3__16vectorINS5_12basic_stringIcNS5_11char_traitsIcEENS5_9allocatorIcEEEENSA_ISC_EEEE(%"class.i18n::phonenumbers::PhoneNumberMatcher"* %0, %"class.i18n::phonenumbers::PhoneNumber"* dereferenceable(72) %1, %"class.std::__1::vector.78"* nonnull %6)
  %14 = getelementptr inbounds %"class.i18n::phonenumbers::PhoneNumberMatcher", %"class.i18n::phonenumbers::PhoneNumberMatcher"* %0, i64 0, i32 2
  %15 = load %"class.i18n::phonenumbers::PhoneNumberUtil"*, %"class.i18n::phonenumbers::PhoneNumberUtil"** %14, align 8
  %16 = bitcast %"class.i18n::phonenumbers::ResultCallback4"* %3 to i1 (%"class.i18n::phonenumbers::ResultCallback4"*, %"class.i18n::phonenumbers::PhoneNumberUtil"*, %"class.i18n::phonenumbers::PhoneNumber"*, %"class.std::__1::basic_string"*, %"class.std::__1::vector.78"*)***
  %17 = load i1 (%"class.i18n::phonenumbers::ResultCallback4"*, %"class.i18n::phonenumbers::PhoneNumberUtil"*, %"class.i18n::phonenumbers::PhoneNumber"*, %"class.std::__1::basic_string"*, %"class.std::__1::vector.78"*)**, i1 (%"class.i18n::phonenumbers::ResultCallback4"*, %"class.i18n::phonenumbers::PhoneNumberUtil"*, %"class.i18n::phonenumbers::PhoneNumber"*, %"class.std::__1::basic_string"*, %"class.std::__1::vector.78"*)*** %16, align 8
  %18 = getelementptr inbounds i1 (%"class.i18n::phonenumbers::ResultCallback4"*, %"class.i18n::phonenumbers::PhoneNumberUtil"*, %"class.i18n::phonenumbers::PhoneNumber"*, %"class.std::__1::basic_string"*, %"class.std::__1::vector.78"*)*, i1 (%"class.i18n::phonenumbers::ResultCallback4"*, %"class.i18n::phonenumbers::PhoneNumberUtil"*, %"class.i18n::phonenumbers::PhoneNumber"*, %"class.std::__1::basic_string"*, %"class.std::__1::vector.78"*)** %17, i64 2
  %19 = load i1 (%"class.i18n::phonenumbers::ResultCallback4"*, %"class.i18n::phonenumbers::PhoneNumberUtil"*, %"class.i18n::phonenumbers::PhoneNumber"*, %"class.std::__1::basic_string"*, %"class.std::__1::vector.78"*)*, i1 (%"class.i18n::phonenumbers::ResultCallback4"*, %"class.i18n::phonenumbers::PhoneNumberUtil"*, %"class.i18n::phonenumbers::PhoneNumber"*, %"class.std::__1::basic_string"*, %"class.std::__1::vector.78"*)** %18, align 8
  %20 = call zeroext i1 %19(%"class.i18n::phonenumbers::ResultCallback4"* %3, %"class.i18n::phonenumbers::PhoneNumberUtil"* dereferenceable(64) %15, %"class.i18n::phonenumbers::PhoneNumber"* dereferenceable(72) %1, %"class.std::__1::basic_string"* nonnull dereferenceable(24) %5, %"class.std::__1::vector.78"* nonnull dereferenceable(24) %6) #12
  br i1 %20, label %150, label %21

21:                                               ; preds = %4
  %22 = getelementptr inbounds %"class.i18n::phonenumbers::PhoneNumberMatcher", %"class.i18n::phonenumbers::PhoneNumberMatcher"* %0, i64 0, i32 1
  %23 = load %"class.i18n::phonenumbers::AlternateFormats"*, %"class.i18n::phonenumbers::AlternateFormats"** %22, align 8
  %24 = getelementptr inbounds %"class.i18n::phonenumbers::PhoneNumber", %"class.i18n::phonenumbers::PhoneNumber"* %1, i64 0, i32 7
  %25 = load i32, i32* %24, align 8
  %26 = getelementptr inbounds %"class.i18n::phonenumbers::AlternateFormats", %"class.i18n::phonenumbers::AlternateFormats"* %23, i64 0, i32 2, i32 0, i32 1, i32 0, i32 0
  %27 = bitcast %"class.std::__1::__tree_end_node"* %26 to %"class.std::__1::__tree_node"**
  %28 = load %"class.std::__1::__tree_node"*, %"class.std::__1::__tree_node"** %27, align 8
  %29 = icmp eq %"class.std::__1::__tree_node"* %28, null
  br i1 %29, label %149, label %30

30:                                               ; preds = %21, %30
  %31 = phi %"class.std::__1::__tree_end_node"* [ %41, %30 ], [ %26, %21 ]
  %32 = phi %"class.std::__1::__tree_node"* [ %42, %30 ], [ %28, %21 ]
  %33 = getelementptr inbounds %"class.std::__1::__tree_node", %"class.std::__1::__tree_node"* %32, i64 0, i32 1, i32 0, i32 0
  %34 = load i32, i32* %33, align 4
  %35 = icmp slt i32 %34, %25
  %36 = getelementptr inbounds %"class.std::__1::__tree_node", %"class.std::__1::__tree_node"* %32, i64 0, i32 0, i32 1
  %37 = bitcast %"class.std::__1::__tree_node_base"** %36 to %"class.std::__1::__tree_node"**
  %38 = getelementptr inbounds %"class.std::__1::__tree_node", %"class.std::__1::__tree_node"* %32, i64 0, i32 0, i32 0
  %39 = bitcast %"class.std::__1::__tree_node"* %32 to %"class.std::__1::__tree_node"**
  %40 = select i1 %35, %"class.std::__1::__tree_node"** %37, %"class.std::__1::__tree_node"** %39
  %41 = select i1 %35, %"class.std::__1::__tree_end_node"* %31, %"class.std::__1::__tree_end_node"* %38
  %42 = load %"class.std::__1::__tree_node"*, %"class.std::__1::__tree_node"** %40, align 8
  %43 = icmp eq %"class.std::__1::__tree_node"* %42, null
  br i1 %43, label %44, label %30

44:                                               ; preds = %30
  %45 = icmp eq %"class.std::__1::__tree_end_node"* %41, %26
  br i1 %45, label %149, label %46

46:                                               ; preds = %44
  %47 = getelementptr inbounds %"class.std::__1::__tree_end_node", %"class.std::__1::__tree_end_node"* %41, i64 4
  %48 = bitcast %"class.std::__1::__tree_end_node"* %47 to i32*
  %49 = load i32, i32* %48, align 4
  %50 = icmp sgt i32 %49, %25
  br i1 %50, label %149, label %51

51:                                               ; preds = %46
  %52 = getelementptr inbounds %"class.std::__1::__tree_end_node", %"class.std::__1::__tree_end_node"* %41, i64 5
  %53 = bitcast %"class.std::__1::__tree_end_node"* %52 to %"class.i18n::phonenumbers::PhoneMetadata"**
  %54 = load %"class.i18n::phonenumbers::PhoneMetadata"*, %"class.i18n::phonenumbers::PhoneMetadata"** %53, align 8
  %55 = icmp eq %"class.i18n::phonenumbers::PhoneMetadata"* %54, null
  br i1 %55, label %149, label %56

56:                                               ; preds = %51
  %57 = bitcast %"class.std::__1::basic_string"* %7 to i8*
  call void @llvm.lifetime.start.p0i8(i64 24, i8* nonnull %57) #12
  %58 = getelementptr inbounds %"class.std::__1::basic_string", %"class.std::__1::basic_string"* %7, i64 0, i32 0, i32 0, i32 0, i32 0, i32 0, i32 0
  call void @llvm.memset.p0i8.i64(i8* nonnull align 8 %57, i8 0, i64 24, i1 false) #12
  %59 = load %"class.i18n::phonenumbers::PhoneNumberUtil"*, %"class.i18n::phonenumbers::PhoneNumberUtil"** %14, align 8
  call void @_ZNK4i18n12phonenumbers15PhoneNumberUtil28GetNationalSignificantNumberERKNS0_11PhoneNumberEPNSt3__112basic_stringIcNS5_11char_traitsIcEENS5_9allocatorIcEEEE(%"class.i18n::phonenumbers::PhoneNumberUtil"* %59, %"class.i18n::phonenumbers::PhoneNumber"* dereferenceable(72) %1, %"class.std::__1::basic_string"* nonnull %7) #12
  %60 = getelementptr inbounds %"class.i18n::phonenumbers::PhoneMetadata", %"class.i18n::phonenumbers::PhoneMetadata"* %54, i64 0, i32 3, i32 0, i32 3
  %61 = load %"struct.google::protobuf::internal::RepeatedPtrFieldBase::Rep"*, %"struct.google::protobuf::internal::RepeatedPtrFieldBase::Rep"** %60, align 8
  %62 = getelementptr inbounds %"class.i18n::phonenumbers::PhoneMetadata", %"class.i18n::phonenumbers::PhoneMetadata"* %54, i64 0, i32 3, i32 0, i32 1
  %63 = load i32, i32* %62, align 8
  %64 = icmp eq i32 %63, 0
  br i1 %64, label %140, label %65

65:                                               ; preds = %56
  %66 = icmp eq %"struct.google::protobuf::internal::RepeatedPtrFieldBase::Rep"* %61, null
  %67 = getelementptr inbounds %"struct.google::protobuf::internal::RepeatedPtrFieldBase::Rep", %"struct.google::protobuf::internal::RepeatedPtrFieldBase::Rep"* %61, i64 0, i32 1, i64 0
  %68 = select i1 %66, i8** null, i8** %67
  %69 = getelementptr inbounds %"class.i18n::phonenumbers::PhoneNumberMatcher", %"class.i18n::phonenumbers::PhoneNumberMatcher"* %0, i64 0, i32 0
  br label %70

70:                                               ; preds = %65, %130
  %71 = phi i8** [ %68, %65 ], [ %131, %130 ]
  %72 = bitcast i8** %71 to %"class.i18n::phonenumbers::NumberFormat"**
  %73 = load %"class.i18n::phonenumbers::NumberFormat"*, %"class.i18n::phonenumbers::NumberFormat"** %72, align 8
  %74 = getelementptr inbounds %"class.i18n::phonenumbers::NumberFormat", %"class.i18n::phonenumbers::NumberFormat"* %73, i64 0, i32 3, i32 0, i32 1
  %75 = load i32, i32* %74, align 8
  %76 = icmp sgt i32 %75, 0
  br i1 %76, label %77, label %107

77:                                               ; preds = %70
  %78 = load %"class.i18n::phonenumbers::PhoneNumberMatcherRegExps"*, %"class.i18n::phonenumbers::PhoneNumberMatcherRegExps"** %69, align 8
  %79 = getelementptr inbounds %"class.i18n::phonenumbers::PhoneNumberMatcherRegExps", %"class.i18n::phonenumbers::PhoneNumberMatcherRegExps"* %78, i64 0, i32 16, i32 0, i32 0, i32 0
  %80 = load %"class.i18n::phonenumbers::AbstractRegExpFactory"*, %"class.i18n::phonenumbers::AbstractRegExpFactory"** %79, align 8
  %81 = bitcast %"class.i18n::phonenumbers::AbstractRegExpFactory"* %80 to %"class.i18n::phonenumbers::RegExpInput"* (%"class.i18n::phonenumbers::AbstractRegExpFactory"*, %"class.std::__1::basic_string"*)***
  %82 = load %"class.i18n::phonenumbers::RegExpInput"* (%"class.i18n::phonenumbers::AbstractRegExpFactory"*, %"class.std::__1::basic_string"*)**, %"class.i18n::phonenumbers::RegExpInput"* (%"class.i18n::phonenumbers::AbstractRegExpFactory"*, %"class.std::__1::basic_string"*)*** %81, align 8
  %83 = getelementptr inbounds %"class.i18n::phonenumbers::RegExpInput"* (%"class.i18n::phonenumbers::AbstractRegExpFactory"*, %"class.std::__1::basic_string"*)*, %"class.i18n::phonenumbers::RegExpInput"* (%"class.i18n::phonenumbers::AbstractRegExpFactory"*, %"class.std::__1::basic_string"*)** %82, i64 2
  %84 = load %"class.i18n::phonenumbers::RegExpInput"* (%"class.i18n::phonenumbers::AbstractRegExpFactory"*, %"class.std::__1::basic_string"*)*, %"class.i18n::phonenumbers::RegExpInput"* (%"class.i18n::phonenumbers::AbstractRegExpFactory"*, %"class.std::__1::basic_string"*)** %83, align 8
  %85 = call %"class.i18n::phonenumbers::RegExpInput"* %84(%"class.i18n::phonenumbers::AbstractRegExpFactory"* %80, %"class.std::__1::basic_string"* nonnull dereferenceable(24) %7) #12
  %86 = load %"class.i18n::phonenumbers::PhoneNumberMatcherRegExps"*, %"class.i18n::phonenumbers::PhoneNumberMatcherRegExps"** %69, align 8
  %87 = getelementptr inbounds %"class.i18n::phonenumbers::PhoneNumberMatcherRegExps", %"class.i18n::phonenumbers::PhoneNumberMatcherRegExps"* %86, i64 0, i32 17
  %88 = load %"class.i18n::phonenumbers::NumberFormat"*, %"class.i18n::phonenumbers::NumberFormat"** %72, align 8
  %89 = getelementptr inbounds %"class.i18n::phonenumbers::NumberFormat", %"class.i18n::phonenumbers::NumberFormat"* %88, i64 0, i32 3, i32 0, i32 3
  %90 = load %"struct.google::protobuf::internal::RepeatedPtrFieldBase::Rep"*, %"struct.google::protobuf::internal::RepeatedPtrFieldBase::Rep"** %89, align 8
  %91 = getelementptr inbounds %"struct.google::protobuf::internal::RepeatedPtrFieldBase::Rep", %"struct.google::protobuf::internal::RepeatedPtrFieldBase::Rep"* %90, i64 0, i32 1, i64 0
  %92 = bitcast i8** %91 to %"class.std::__1::basic_string"**
  %93 = load %"class.std::__1::basic_string"*, %"class.std::__1::basic_string"** %92, align 8
  %94 = call dereferenceable(8) %"class.i18n::phonenumbers::RegExp"* @_ZN4i18n12phonenumbers11RegExpCache9GetRegExpERKNSt3__112basic_stringIcNS2_11char_traitsIcEENS2_9allocatorIcEEEE(%"class.i18n::phonenumbers::RegExpCache"* %87, %"class.std::__1::basic_string"* dereferenceable(24) %93) #12
  %95 = bitcast %"class.i18n::phonenumbers::RegExp"* %94 to i1 (%"class.i18n::phonenumbers::RegExp"*, %"class.i18n::phonenumbers::RegExpInput"*, i1, %"class.std::__1::basic_string"*, %"class.std::__1::basic_string"*, %"class.std::__1::basic_string"*)***
  %96 = load i1 (%"class.i18n::phonenumbers::RegExp"*, %"class.i18n::phonenumbers::RegExpInput"*, i1, %"class.std::__1::basic_string"*, %"class.std::__1::basic_string"*, %"class.std::__1::basic_string"*)**, i1 (%"class.i18n::phonenumbers::RegExp"*, %"class.i18n::phonenumbers::RegExpInput"*, i1, %"class.std::__1::basic_string"*, %"class.std::__1::basic_string"*, %"class.std::__1::basic_string"*)*** %95, align 8
  %97 = getelementptr inbounds i1 (%"class.i18n::phonenumbers::RegExp"*, %"class.i18n::phonenumbers::RegExpInput"*, i1, %"class.std::__1::basic_string"*, %"class.std::__1::basic_string"*, %"class.std::__1::basic_string"*)*, i1 (%"class.i18n::phonenumbers::RegExp"*, %"class.i18n::phonenumbers::RegExpInput"*, i1, %"class.std::__1::basic_string"*, %"class.std::__1::basic_string"*, %"class.std::__1::basic_string"*)** %96, i64 2
  %98 = load i1 (%"class.i18n::phonenumbers::RegExp"*, %"class.i18n::phonenumbers::RegExpInput"*, i1, %"class.std::__1::basic_string"*, %"class.std::__1::basic_string"*, %"class.std::__1::basic_string"*)*, i1 (%"class.i18n::phonenumbers::RegExp"*, %"class.i18n::phonenumbers::RegExpInput"*, i1, %"class.std::__1::basic_string"*, %"class.std::__1::basic_string"*, %"class.std::__1::basic_string"*)** %97, align 8
  %99 = call zeroext i1 %98(%"class.i18n::phonenumbers::RegExp"* %94, %"class.i18n::phonenumbers::RegExpInput"* %85, i1 zeroext true, %"class.std::__1::basic_string"* null, %"class.std::__1::basic_string"* null, %"class.std::__1::basic_string"* null) #12
  %100 = icmp eq %"class.i18n::phonenumbers::RegExpInput"* %85, null
  br i1 %100, label %106, label %101

101:                                              ; preds = %77
  %102 = bitcast %"class.i18n::phonenumbers::RegExpInput"* %85 to void (%"class.i18n::phonenumbers::RegExpInput"*)***
  %103 = load void (%"class.i18n::phonenumbers::RegExpInput"*)**, void (%"class.i18n::phonenumbers::RegExpInput"*)*** %102, align 8
  %104 = getelementptr inbounds void (%"class.i18n::phonenumbers::RegExpInput"*)*, void (%"class.i18n::phonenumbers::RegExpInput"*)** %103, i64 1
  %105 = load void (%"class.i18n::phonenumbers::RegExpInput"*)*, void (%"class.i18n::phonenumbers::RegExpInput"*)** %104, align 8
  call void %105(%"class.i18n::phonenumbers::RegExpInput"* nonnull %85) #12
  br label %106

106:                                              ; preds = %77, %101
  br i1 %99, label %107, label %130

107:                                              ; preds = %106, %70
  %108 = load %"class.std::__1::basic_string"*, %"class.std::__1::basic_string"** %12, align 8
  %109 = load %"class.std::__1::basic_string"*, %"class.std::__1::basic_string"** %13, align 8
  %110 = icmp eq %"class.std::__1::basic_string"* %109, %108
  br i1 %110, label %123, label %111

111:                                              ; preds = %107, %121
  %112 = phi %"class.std::__1::basic_string"* [ %113, %121 ], [ %109, %107 ]
  %113 = getelementptr inbounds %"class.std::__1::basic_string", %"class.std::__1::basic_string"* %112, i64 -1
  %114 = bitcast %"class.std::__1::basic_string"* %113 to %"struct.std::__1::basic_string<char, std::__1::char_traits<char>, std::__1::allocator<char> >::__short"*
  %115 = getelementptr inbounds %"struct.std::__1::basic_string<char, std::__1::char_traits<char>, std::__1::allocator<char> >::__short", %"struct.std::__1::basic_string<char, std::__1::char_traits<char>, std::__1::allocator<char> >::__short"* %114, i64 0, i32 1, i32 0
  %116 = load i8, i8* %115, align 1
  %117 = icmp slt i8 %116, 0
  br i1 %117, label %118, label %121

118:                                              ; preds = %111
  %119 = getelementptr inbounds %"class.std::__1::basic_string", %"class.std::__1::basic_string"* %113, i64 0, i32 0, i32 0, i32 0, i32 0, i32 0, i32 0
  %120 = load i8*, i8** %119, align 8
  call void @_ZdlPv(i8* %120) #13
  br label %121

121:                                              ; preds = %118, %111
  %122 = icmp eq %"class.std::__1::basic_string"* %113, %108
  br i1 %122, label %123, label %111

123:                                              ; preds = %121, %107
  store %"class.std::__1::basic_string"* %108, %"class.std::__1::basic_string"** %13, align 8
  %124 = load %"class.i18n::phonenumbers::NumberFormat"*, %"class.i18n::phonenumbers::NumberFormat"** %72, align 8
  call void @_ZNK4i18n12phonenumbers18PhoneNumberMatcher33GetNationalNumberGroupsForPatternERKNS0_11PhoneNumberEPKNS0_12NumberFormatEPNSt3__16vectorINS8_12basic_stringIcNS8_11char_traitsIcEENS8_9allocatorIcEEEENSD_ISF_EEEE(%"class.i18n::phonenumbers::PhoneNumberMatcher"* %0, %"class.i18n::phonenumbers::PhoneNumber"* dereferenceable(72) %1, %"class.i18n::phonenumbers::NumberFormat"* %124, %"class.std::__1::vector.78"* nonnull %6)
  %125 = load %"class.i18n::phonenumbers::PhoneNumberUtil"*, %"class.i18n::phonenumbers::PhoneNumberUtil"** %14, align 8
  %126 = load i1 (%"class.i18n::phonenumbers::ResultCallback4"*, %"class.i18n::phonenumbers::PhoneNumberUtil"*, %"class.i18n::phonenumbers::PhoneNumber"*, %"class.std::__1::basic_string"*, %"class.std::__1::vector.78"*)**, i1 (%"class.i18n::phonenumbers::ResultCallback4"*, %"class.i18n::phonenumbers::PhoneNumberUtil"*, %"class.i18n::phonenumbers::PhoneNumber"*, %"class.std::__1::basic_string"*, %"class.std::__1::vector.78"*)*** %16, align 8
  %127 = getelementptr inbounds i1 (%"class.i18n::phonenumbers::ResultCallback4"*, %"class.i18n::phonenumbers::PhoneNumberUtil"*, %"class.i18n::phonenumbers::PhoneNumber"*, %"class.std::__1::basic_string"*, %"class.std::__1::vector.78"*)*, i1 (%"class.i18n::phonenumbers::ResultCallback4"*, %"class.i18n::phonenumbers::PhoneNumberUtil"*, %"class.i18n::phonenumbers::PhoneNumber"*, %"class.std::__1::basic_string"*, %"class.std::__1::vector.78"*)** %126, i64 2
  %128 = load i1 (%"class.i18n::phonenumbers::ResultCallback4"*, %"class.i18n::phonenumbers::PhoneNumberUtil"*, %"class.i18n::phonenumbers::PhoneNumber"*, %"class.std::__1::basic_string"*, %"class.std::__1::vector.78"*)*, i1 (%"class.i18n::phonenumbers::ResultCallback4"*, %"class.i18n::phonenumbers::PhoneNumberUtil"*, %"class.i18n::phonenumbers::PhoneNumber"*, %"class.std::__1::basic_string"*, %"class.std::__1::vector.78"*)** %127, align 8
  %129 = call zeroext i1 %128(%"class.i18n::phonenumbers::ResultCallback4"* %3, %"class.i18n::phonenumbers::PhoneNumberUtil"* dereferenceable(64) %125, %"class.i18n::phonenumbers::PhoneNumber"* dereferenceable(72) %1, %"class.std::__1::basic_string"* nonnull dereferenceable(24) %5, %"class.std::__1::vector.78"* nonnull dereferenceable(24) %6) #12
  br i1 %129, label %140, label %130

130:                                              ; preds = %123, %106
  %131 = getelementptr inbounds i8*, i8** %71, i64 1
  %132 = load %"struct.google::protobuf::internal::RepeatedPtrFieldBase::Rep"*, %"struct.google::protobuf::internal::RepeatedPtrFieldBase::Rep"** %60, align 8
  %133 = icmp eq %"struct.google::protobuf::internal::RepeatedPtrFieldBase::Rep"* %132, null
  %134 = getelementptr inbounds %"struct.google::protobuf::internal::RepeatedPtrFieldBase::Rep", %"struct.google::protobuf::internal::RepeatedPtrFieldBase::Rep"* %132, i64 0, i32 1, i64 0
  %135 = select i1 %133, i8** null, i8** %134
  %136 = load i32, i32* %62, align 8
  %137 = sext i32 %136 to i64
  %138 = getelementptr inbounds i8*, i8** %135, i64 %137
  %139 = icmp eq i8** %131, %138
  br i1 %139, label %140, label %70

140:                                              ; preds = %123, %130, %56
  %141 = phi i1 [ true, %56 ], [ true, %130 ], [ false, %123 ]
  %142 = bitcast %"class.std::__1::basic_string"* %7 to %"struct.std::__1::basic_string<char, std::__1::char_traits<char>, std::__1::allocator<char> >::__short"*
  %143 = getelementptr inbounds %"struct.std::__1::basic_string<char, std::__1::char_traits<char>, std::__1::allocator<char> >::__short", %"struct.std::__1::basic_string<char, std::__1::char_traits<char>, std::__1::allocator<char> >::__short"* %142, i64 0, i32 1, i32 0
  %144 = load i8, i8* %143, align 1
  %145 = icmp slt i8 %144, 0
  br i1 %145, label %146, label %148

146:                                              ; preds = %140
  %147 = load i8*, i8** %58, align 8
  call void @_ZdlPv(i8* %147) #13
  br label %148

148:                                              ; preds = %140, %146
  call void @llvm.lifetime.end.p0i8(i64 24, i8* nonnull %57) #12
  br i1 %141, label %149, label %150

149:                                              ; preds = %46, %44, %21, %51, %148
  br label %150

150:                                              ; preds = %149, %148, %4
  %151 = phi i1 [ true, %4 ], [ false, %149 ], [ true, %148 ]
  %152 = load %"class.std::__1::basic_string"*, %"class.std::__1::basic_string"** %12, align 8
  %153 = icmp eq %"class.std::__1::basic_string"* %152, null
  br i1 %153, label %175, label %154

154:                                              ; preds = %150
  %155 = bitcast %"class.std::__1::basic_string"* %152 to i8*
  %156 = load %"class.std::__1::basic_string"*, %"class.std::__1::basic_string"** %13, align 8
  %157 = icmp eq %"class.std::__1::basic_string"* %156, %152
  br i1 %157, label %173, label %158

158:                                              ; preds = %154, %168
  %159 = phi %"class.std::__1::basic_string"* [ %160, %168 ], [ %156, %154 ]
  %160 = getelementptr inbounds %"class.std::__1::basic_string", %"class.std::__1::basic_string"* %159, i64 -1
  %161 = bitcast %"class.std::__1::basic_string"* %160 to %"struct.std::__1::basic_string<char, std::__1::char_traits<char>, std::__1::allocator<char> >::__short"*
  %162 = getelementptr inbounds %"struct.std::__1::basic_string<char, std::__1::char_traits<char>, std::__1::allocator<char> >::__short", %"struct.std::__1::basic_string<char, std::__1::char_traits<char>, std::__1::allocator<char> >::__short"* %161, i64 0, i32 1, i32 0
  %163 = load i8, i8* %162, align 1
  %164 = icmp slt i8 %163, 0
  br i1 %164, label %165, label %168

165:                                              ; preds = %158
  %166 = getelementptr inbounds %"class.std::__1::basic_string", %"class.std::__1::basic_string"* %160, i64 0, i32 0, i32 0, i32 0, i32 0, i32 0, i32 0
  %167 = load i8*, i8** %166, align 8
  call void @_ZdlPv(i8* %167) #13
  br label %168

168:                                              ; preds = %165, %158
  %169 = icmp eq %"class.std::__1::basic_string"* %160, %152
  br i1 %169, label %170, label %158

170:                                              ; preds = %168
  %171 = bitcast %"class.std::__1::vector.78"* %6 to i8**
  %172 = load i8*, i8** %171, align 8
  br label %173

173:                                              ; preds = %170, %154
  %174 = phi i8* [ %172, %170 ], [ %155, %154 ]
  store %"class.std::__1::basic_string"* %152, %"class.std::__1::basic_string"** %13, align 8
  call void @_ZdlPv(i8* %174) #13
  br label %175

175:                                              ; preds = %150, %173
  call void @llvm.lifetime.end.p0i8(i64 24, i8* nonnull %11) #12
  %176 = bitcast %"class.std::__1::basic_string"* %5 to %"struct.std::__1::basic_string<char, std::__1::char_traits<char>, std::__1::allocator<char> >::__short"*
  %177 = getelementptr inbounds %"struct.std::__1::basic_string<char, std::__1::char_traits<char>, std::__1::allocator<char> >::__short", %"struct.std::__1::basic_string<char, std::__1::char_traits<char>, std::__1::allocator<char> >::__short"* %176, i64 0, i32 1, i32 0
  %178 = load i8, i8* %177, align 1
  %179 = icmp slt i8 %178, 0
  br i1 %179, label %180, label %182

180:                                              ; preds = %175
  %181 = load i8*, i8** %9, align 8
  call void @_ZdlPv(i8* %181) #13
  br label %182

182:                                              ; preds = %175, %180
  call void @llvm.lifetime.end.p0i8(i64 24, i8* nonnull %8) #12
  ret i1 %151
}

; Function Attrs: nounwind ssp uwtable
define hidden zeroext i1 @_ZNK4i18n12phonenumbers18PhoneNumberMatcher32AllNumberGroupsAreExactlyPresentERKNS0_15PhoneNumberUtilERKNS0_11PhoneNumberERKNSt3__112basic_stringIcNS8_11char_traitsIcEENS8_9allocatorIcEEEERKNS8_6vectorISE_NSC_ISE_EEEE(%"class.i18n::phonenumbers::PhoneNumberMatcher"* nocapture readonly, %"class.i18n::phonenumbers::PhoneNumberUtil"* dereferenceable(64), %"class.i18n::phonenumbers::PhoneNumber"* dereferenceable(72), %"class.std::__1::basic_string"* dereferenceable(24), %"class.std::__1::vector.78"* dereferenceable(24)) #0 align 2 {
  %6 = alloca %"class.std::__1::vector.78", align 8
  %7 = alloca %"class.std::__1::basic_string", align 8
  %8 = alloca %"class.std::__1::basic_string", align 8
  %9 = getelementptr inbounds %"class.i18n::phonenumbers::PhoneNumberMatcher", %"class.i18n::phonenumbers::PhoneNumberMatcher"* %0, i64 0, i32 0
  %10 = load %"class.i18n::phonenumbers::PhoneNumberMatcherRegExps"*, %"class.i18n::phonenumbers::PhoneNumberMatcherRegExps"** %9, align 8
  %11 = getelementptr inbounds %"class.i18n::phonenumbers::PhoneNumberMatcherRegExps", %"class.i18n::phonenumbers::PhoneNumberMatcherRegExps"* %10, i64 0, i32 16, i32 0, i32 0, i32 0
  %12 = load %"class.i18n::phonenumbers::AbstractRegExpFactory"*, %"class.i18n::phonenumbers::AbstractRegExpFactory"** %11, align 8
  %13 = bitcast %"class.i18n::phonenumbers::AbstractRegExpFactory"* %12 to %"class.i18n::phonenumbers::RegExpInput"* (%"class.i18n::phonenumbers::AbstractRegExpFactory"*, %"class.std::__1::basic_string"*)***
  %14 = load %"class.i18n::phonenumbers::RegExpInput"* (%"class.i18n::phonenumbers::AbstractRegExpFactory"*, %"class.std::__1::basic_string"*)**, %"class.i18n::phonenumbers::RegExpInput"* (%"class.i18n::phonenumbers::AbstractRegExpFactory"*, %"class.std::__1::basic_string"*)*** %13, align 8
  %15 = getelementptr inbounds %"class.i18n::phonenumbers::RegExpInput"* (%"class.i18n::phonenumbers::AbstractRegExpFactory"*, %"class.std::__1::basic_string"*)*, %"class.i18n::phonenumbers::RegExpInput"* (%"class.i18n::phonenumbers::AbstractRegExpFactory"*, %"class.std::__1::basic_string"*)** %14, i64 2
  %16 = load %"class.i18n::phonenumbers::RegExpInput"* (%"class.i18n::phonenumbers::AbstractRegExpFactory"*, %"class.std::__1::basic_string"*)*, %"class.i18n::phonenumbers::RegExpInput"* (%"class.i18n::phonenumbers::AbstractRegExpFactory"*, %"class.std::__1::basic_string"*)** %15, align 8
  %17 = tail call %"class.i18n::phonenumbers::RegExpInput"* %16(%"class.i18n::phonenumbers::AbstractRegExpFactory"* %12, %"class.std::__1::basic_string"* dereferenceable(24) %3) #12
  %18 = bitcast %"class.std::__1::vector.78"* %6 to i8*
  call void @llvm.lifetime.start.p0i8(i64 24, i8* nonnull %18) #12
  %19 = getelementptr inbounds %"class.std::__1::vector.78", %"class.std::__1::vector.78"* %6, i64 0, i32 0, i32 0
  %20 = getelementptr inbounds %"class.std::__1::vector.78", %"class.std::__1::vector.78"* %6, i64 0, i32 0, i32 1
  %21 = getelementptr inbounds %"class.std::__1::vector.78", %"class.std::__1::vector.78"* %6, i64 0, i32 0, i32 2, i32 0, i32 0
  call void @llvm.memset.p0i8.i64(i8* nonnull align 8 %18, i8 0, i64 24, i1 false) #12
  %22 = bitcast %"class.std::__1::basic_string"* %7 to i8*
  call void @llvm.lifetime.start.p0i8(i64 24, i8* nonnull %22) #12
  %23 = getelementptr inbounds %"class.std::__1::basic_string", %"class.std::__1::basic_string"* %7, i64 0, i32 0, i32 0, i32 0, i32 0, i32 0, i32 0
  %24 = getelementptr inbounds %"class.std::__1::basic_string", %"class.std::__1::basic_string"* %7, i64 0, i32 0, i32 0, i32 0, i32 0, i32 0, i32 1
  call void @llvm.memset.p0i8.i64(i8* nonnull align 8 %22, i8 0, i64 24, i1 false) #12
  %25 = load %"class.i18n::phonenumbers::PhoneNumberMatcherRegExps"*, %"class.i18n::phonenumbers::PhoneNumberMatcherRegExps"** %9, align 8
  %26 = getelementptr inbounds %"class.i18n::phonenumbers::PhoneNumberMatcherRegExps", %"class.i18n::phonenumbers::PhoneNumberMatcherRegExps"* %25, i64 0, i32 25, i32 0, i32 0, i32 0
  %27 = load %"class.i18n::phonenumbers::RegExp"*, %"class.i18n::phonenumbers::RegExp"** %26, align 8
  %28 = bitcast %"class.i18n::phonenumbers::RegExp"* %27 to i1 (%"class.i18n::phonenumbers::RegExp"*, %"class.i18n::phonenumbers::RegExpInput"*, i1, %"class.std::__1::basic_string"*, %"class.std::__1::basic_string"*, %"class.std::__1::basic_string"*)***
  %29 = load i1 (%"class.i18n::phonenumbers::RegExp"*, %"class.i18n::phonenumbers::RegExpInput"*, i1, %"class.std::__1::basic_string"*, %"class.std::__1::basic_string"*, %"class.std::__1::basic_string"*)**, i1 (%"class.i18n::phonenumbers::RegExp"*, %"class.i18n::phonenumbers::RegExpInput"*, i1, %"class.std::__1::basic_string"*, %"class.std::__1::basic_string"*, %"class.std::__1::basic_string"*)*** %28, align 8
  %30 = getelementptr inbounds i1 (%"class.i18n::phonenumbers::RegExp"*, %"class.i18n::phonenumbers::RegExpInput"*, i1, %"class.std::__1::basic_string"*, %"class.std::__1::basic_string"*, %"class.std::__1::basic_string"*)*, i1 (%"class.i18n::phonenumbers::RegExp"*, %"class.i18n::phonenumbers::RegExpInput"*, i1, %"class.std::__1::basic_string"*, %"class.std::__1::basic_string"*, %"class.std::__1::basic_string"*)** %29, i64 2
  %31 = load i1 (%"class.i18n::phonenumbers::RegExp"*, %"class.i18n::phonenumbers::RegExpInput"*, i1, %"class.std::__1::basic_string"*, %"class.std::__1::basic_string"*, %"class.std::__1::basic_string"*)*, i1 (%"class.i18n::phonenumbers::RegExp"*, %"class.i18n::phonenumbers::RegExpInput"*, i1, %"class.std::__1::basic_string"*, %"class.std::__1::basic_string"*, %"class.std::__1::basic_string"*)** %30, align 8
  %32 = call zeroext i1 %31(%"class.i18n::phonenumbers::RegExp"* %27, %"class.i18n::phonenumbers::RegExpInput"* %17, i1 zeroext false, %"class.std::__1::basic_string"* nonnull %7, %"class.std::__1::basic_string"* null, %"class.std::__1::basic_string"* null) #12
  br i1 %32, label %36, label %33

33:                                               ; preds = %5
  %34 = bitcast %"class.std::__1::basic_string"** %20 to i64*
  %35 = bitcast %"class.std::__1::vector.78"* %6 to i64*
  br label %73

36:                                               ; preds = %5
  %37 = bitcast %"class.std::__1::basic_string"* %7 to %"struct.std::__1::basic_string<char, std::__1::char_traits<char>, std::__1::allocator<char> >::__short"*
  %38 = getelementptr inbounds %"struct.std::__1::basic_string<char, std::__1::char_traits<char>, std::__1::allocator<char> >::__short", %"struct.std::__1::basic_string<char, std::__1::char_traits<char>, std::__1::allocator<char> >::__short"* %37, i64 0, i32 1, i32 0
  %39 = bitcast %"class.std::__1::basic_string"** %20 to i64*
  br label %40

40:                                               ; preds = %65, %36
  %41 = phi %"class.std::__1::basic_string"* [ %68, %65 ], [ null, %36 ]
  %42 = phi i8* [ %67, %65 ], [ null, %36 ]
  %43 = phi %"class.std::__1::basic_string"* [ %66, %65 ], [ null, %36 ]
  %44 = icmp eq %"class.std::__1::basic_string"* %43, %41
  br i1 %44, label %55, label %45

45:                                               ; preds = %40
  %46 = load i8, i8* %38, align 1
  %47 = icmp slt i8 %46, 0
  br i1 %47, label %49, label %48

48:                                               ; preds = %45
  call void @llvm.memcpy.p0i8.p0i8.i64(i8* align 8 %42, i8* nonnull align 8 %22, i64 24, i1 false) #12
  br label %52

49:                                               ; preds = %45
  %50 = load i8*, i8** %23, align 8
  %51 = load i64, i64* %24, align 8
  call void @_ZNSt3__112basic_stringIcNS_11char_traitsIcEENS_9allocatorIcEEE25__init_copy_ctor_externalEPKcm(%"class.std::__1::basic_string"* %43, i8* %50, i64 %51) #12
  br label %52

52:                                               ; preds = %49, %48
  %53 = getelementptr inbounds %"class.std::__1::basic_string", %"class.std::__1::basic_string"* %43, i64 1
  %54 = ptrtoint %"class.std::__1::basic_string"* %53 to i64
  store i64 %54, i64* %39, align 8
  br label %56

55:                                               ; preds = %40
  call void @_ZNSt3__16vectorINS_12basic_stringIcNS_11char_traitsIcEENS_9allocatorIcEEEENS4_IS6_EEE21__push_back_slow_pathIRKS6_EEvOT_(%"class.std::__1::vector.78"* nonnull %6, %"class.std::__1::basic_string"* nonnull dereferenceable(24) %7) #12
  br label %56

56:                                               ; preds = %52, %55
  %57 = load %"class.i18n::phonenumbers::PhoneNumberMatcherRegExps"*, %"class.i18n::phonenumbers::PhoneNumberMatcherRegExps"** %9, align 8
  %58 = getelementptr inbounds %"class.i18n::phonenumbers::PhoneNumberMatcherRegExps", %"class.i18n::phonenumbers::PhoneNumberMatcherRegExps"* %57, i64 0, i32 25, i32 0, i32 0, i32 0
  %59 = load %"class.i18n::phonenumbers::RegExp"*, %"class.i18n::phonenumbers::RegExp"** %58, align 8
  %60 = bitcast %"class.i18n::phonenumbers::RegExp"* %59 to i1 (%"class.i18n::phonenumbers::RegExp"*, %"class.i18n::phonenumbers::RegExpInput"*, i1, %"class.std::__1::basic_string"*, %"class.std::__1::basic_string"*, %"class.std::__1::basic_string"*)***
  %61 = load i1 (%"class.i18n::phonenumbers::RegExp"*, %"class.i18n::phonenumbers::RegExpInput"*, i1, %"class.std::__1::basic_string"*, %"class.std::__1::basic_string"*, %"class.std::__1::basic_string"*)**, i1 (%"class.i18n::phonenumbers::RegExp"*, %"class.i18n::phonenumbers::RegExpInput"*, i1, %"class.std::__1::basic_string"*, %"class.std::__1::basic_string"*, %"class.std::__1::basic_string"*)*** %60, align 8
  %62 = getelementptr inbounds i1 (%"class.i18n::phonenumbers::RegExp"*, %"class.i18n::phonenumbers::RegExpInput"*, i1, %"class.std::__1::basic_string"*, %"class.std::__1::basic_string"*, %"class.std::__1::basic_string"*)*, i1 (%"class.i18n::phonenumbers::RegExp"*, %"class.i18n::phonenumbers::RegExpInput"*, i1, %"class.std::__1::basic_string"*, %"class.std::__1::basic_string"*, %"class.std::__1::basic_string"*)** %61, i64 2
  %63 = load i1 (%"class.i18n::phonenumbers::RegExp"*, %"class.i18n::phonenumbers::RegExpInput"*, i1, %"class.std::__1::basic_string"*, %"class.std::__1::basic_string"*, %"class.std::__1::basic_string"*)*, i1 (%"class.i18n::phonenumbers::RegExp"*, %"class.i18n::phonenumbers::RegExpInput"*, i1, %"class.std::__1::basic_string"*, %"class.std::__1::basic_string"*, %"class.std::__1::basic_string"*)** %62, align 8
  %64 = call zeroext i1 %63(%"class.i18n::phonenumbers::RegExp"* %59, %"class.i18n::phonenumbers::RegExpInput"* %17, i1 zeroext false, %"class.std::__1::basic_string"* nonnull %7, %"class.std::__1::basic_string"* null, %"class.std::__1::basic_string"* null) #12
  br i1 %64, label %65, label %69

65:                                               ; preds = %56
  %66 = load %"class.std::__1::basic_string"*, %"class.std::__1::basic_string"** %20, align 8
  %67 = bitcast %"class.std::__1::basic_string"* %66 to i8*
  %68 = load %"class.std::__1::basic_string"*, %"class.std::__1::basic_string"** %21, align 8
  br label %40

69:                                               ; preds = %56
  %70 = load i64, i64* %39, align 8
  %71 = bitcast %"class.std::__1::vector.78"* %6 to i64*
  %72 = load i64, i64* %71, align 8
  br label %73

73:                                               ; preds = %33, %69
  %74 = phi i64* [ %35, %33 ], [ %71, %69 ]
  %75 = phi i64* [ %34, %33 ], [ %39, %69 ]
  %76 = phi i64 [ 0, %33 ], [ %72, %69 ]
  %77 = phi i64 [ 0, %33 ], [ %70, %69 ]
  %78 = getelementptr inbounds %"class.i18n::phonenumbers::PhoneNumber", %"class.i18n::phonenumbers::PhoneNumber"* %2, i64 0, i32 1, i32 0, i64 0
  %79 = load i32, i32* %78, align 4
  %80 = and i32 %79, 1
  %81 = icmp eq i32 %80, 0
  %82 = sub i64 %77, %76
  %83 = sdiv exact i64 %82, 24
  %84 = select i1 %81, i64 4294967295, i64 4294967294
  %85 = add nsw i64 %83, %84
  %86 = trunc i64 %85 to i32
  %87 = bitcast %"class.std::__1::basic_string"* %8 to i8*
  call void @llvm.lifetime.start.p0i8(i64 24, i8* nonnull %87) #12
  %88 = getelementptr inbounds %"class.std::__1::basic_string", %"class.std::__1::basic_string"* %8, i64 0, i32 0, i32 0, i32 0, i32 0, i32 0, i32 0
  %89 = getelementptr inbounds %"class.std::__1::basic_string", %"class.std::__1::basic_string"* %8, i64 0, i32 0, i32 0, i32 0, i32 0, i32 0, i32 1
  call void @llvm.memset.p0i8.i64(i8* nonnull align 8 %87, i8 0, i64 24, i1 false) #12
  call void @_ZNK4i18n12phonenumbers15PhoneNumberUtil28GetNationalSignificantNumberERKNS0_11PhoneNumberEPNSt3__112basic_stringIcNS5_11char_traitsIcEENS5_9allocatorIcEEEE(%"class.i18n::phonenumbers::PhoneNumberUtil"* %1, %"class.i18n::phonenumbers::PhoneNumber"* dereferenceable(72) %2, %"class.std::__1::basic_string"* nonnull %8) #12
  %90 = load i64, i64* %75, align 8
  %91 = load i64, i64* %74, align 8
  %92 = sub i64 %90, %91
  %93 = sdiv exact i64 %92, 24
  %94 = icmp eq i64 %92, 24
  br i1 %94, label %95, label %97

95:                                               ; preds = %73
  %96 = bitcast %"class.std::__1::basic_string"* %8 to %"struct.std::__1::basic_string<char, std::__1::char_traits<char>, std::__1::allocator<char> >::__short"*
  br label %265

97:                                               ; preds = %73
  %98 = shl i64 %85, 32
  %99 = ashr exact i64 %98, 32
  %100 = icmp ugt i64 %93, %99
  br i1 %100, label %103, label %101

101:                                              ; preds = %97
  %102 = bitcast %"class.std::__1::vector.78"* %6 to %"class.std::__1::__vector_base_common"*
  call void @_ZNKSt3__120__vector_base_commonILb1EE20__throw_out_of_rangeEv(%"class.std::__1::__vector_base_common"* nonnull %102) #14
  unreachable

103:                                              ; preds = %97
  %104 = inttoptr i64 %91 to %"class.std::__1::basic_string"*
  %105 = getelementptr inbounds %"class.std::__1::basic_string", %"class.std::__1::basic_string"* %104, i64 %99
  %106 = bitcast %"class.std::__1::basic_string"* %105 to %"struct.std::__1::basic_string<char, std::__1::char_traits<char>, std::__1::allocator<char> >::__short"*
  %107 = getelementptr inbounds %"struct.std::__1::basic_string<char, std::__1::char_traits<char>, std::__1::allocator<char> >::__short", %"struct.std::__1::basic_string<char, std::__1::char_traits<char>, std::__1::allocator<char> >::__short"* %106, i64 0, i32 1, i32 0
  %108 = load i8, i8* %107, align 1
  %109 = icmp slt i8 %108, 0
  br i1 %109, label %110, label %115

110:                                              ; preds = %103
  %111 = getelementptr inbounds %"class.std::__1::basic_string", %"class.std::__1::basic_string"* %105, i64 0, i32 0, i32 0, i32 0, i32 0, i32 0, i32 0
  %112 = load i8*, i8** %111, align 8
  %113 = getelementptr inbounds %"class.std::__1::basic_string", %"class.std::__1::basic_string"* %104, i64 %99, i32 0, i32 0, i32 0, i32 0, i32 0, i32 1
  %114 = load i64, i64* %113, align 8
  br label %118

115:                                              ; preds = %103
  %116 = bitcast %"class.std::__1::basic_string"* %105 to i8*
  %117 = zext i8 %108 to i64
  br label %118

118:                                              ; preds = %115, %110
  %119 = phi i8* [ %112, %110 ], [ %116, %115 ]
  %120 = phi i64 [ %114, %110 ], [ %117, %115 ]
  %121 = bitcast %"class.std::__1::basic_string"* %8 to %"struct.std::__1::basic_string<char, std::__1::char_traits<char>, std::__1::allocator<char> >::__short"*
  %122 = getelementptr inbounds %"struct.std::__1::basic_string<char, std::__1::char_traits<char>, std::__1::allocator<char> >::__short", %"struct.std::__1::basic_string<char, std::__1::char_traits<char>, std::__1::allocator<char> >::__short"* %121, i64 0, i32 1, i32 0
  %123 = load i8, i8* %122, align 1
  %124 = icmp slt i8 %123, 0
  %125 = load i8*, i8** %88, align 8
  %126 = load i64, i64* %89, align 8
  %127 = zext i8 %123 to i64
  %128 = select i1 %124, i8* %125, i8* %87
  %129 = select i1 %124, i64 %126, i64 %127
  %130 = icmp eq i64 %129, 0
  br i1 %130, label %265, label %131

131:                                              ; preds = %118
  %132 = getelementptr inbounds i8, i8* %119, i64 %120
  %133 = ptrtoint i8* %132 to i64
  %134 = ptrtoint i8* %119 to i64
  %135 = icmp slt i64 %120, %129
  br i1 %135, label %162, label %136

136:                                              ; preds = %131
  %137 = load i8, i8* %128, align 1
  %138 = zext i8 %137 to i32
  br label %139

139:                                              ; preds = %151, %136
  %140 = phi i64 [ %154, %151 ], [ %120, %136 ]
  %141 = phi i8* [ %152, %151 ], [ %119, %136 ]
  %142 = sub nsw i64 %140, %129
  %143 = add nsw i64 %142, 1
  %144 = icmp eq i64 %143, 0
  br i1 %144, label %162, label %145

145:                                              ; preds = %139
  %146 = call i8* @memchr(i8* %141, i32 %138, i64 %143) #12
  %147 = icmp eq i8* %146, null
  br i1 %147, label %162, label %148

148:                                              ; preds = %145
  %149 = call i32 @bcmp(i8* nonnull %146, i8* %128, i64 %129) #12
  %150 = icmp eq i32 %149, 0
  br i1 %150, label %156, label %151

151:                                              ; preds = %148
  %152 = getelementptr inbounds i8, i8* %146, i64 1
  %153 = ptrtoint i8* %152 to i64
  %154 = sub i64 %133, %153
  %155 = icmp slt i64 %154, %129
  br i1 %155, label %162, label %139

156:                                              ; preds = %148
  %157 = ptrtoint i8* %146 to i64
  %158 = icmp eq i8* %146, %132
  %159 = sub i64 %157, %134
  %160 = icmp eq i64 %159, -1
  %161 = or i1 %158, %160
  br i1 %161, label %162, label %265

162:                                              ; preds = %151, %145, %139, %131, %156
  %163 = getelementptr inbounds %"class.std::__1::vector.78", %"class.std::__1::vector.78"* %4, i64 0, i32 0, i32 1
  %164 = bitcast %"class.std::__1::basic_string"** %163 to i64*
  %165 = load i64, i64* %164, align 8
  %166 = bitcast %"class.std::__1::vector.78"* %4 to i64*
  %167 = load i64, i64* %166, align 8
  %168 = sub i64 %165, %167
  %169 = sdiv exact i64 %168, 24
  %170 = trunc i64 %169 to i32
  %171 = add i32 %170, -1
  %172 = icmp sgt i32 %171, 0
  %173 = icmp sgt i32 %86, -1
  %174 = and i1 %173, %172
  br i1 %174, label %175, label %248

175:                                              ; preds = %162
  %176 = inttoptr i64 %167 to %"class.std::__1::basic_string"*
  %177 = shl i64 %85, 32
  %178 = ashr exact i64 %177, 32
  br label %179

179:                                              ; preds = %175, %242
  %180 = phi i64 [ %178, %175 ], [ %243, %242 ]
  %181 = phi i32 [ %171, %175 ], [ %244, %242 ]
  %182 = icmp ugt i64 %93, %180
  br i1 %182, label %185, label %183

183:                                              ; preds = %179
  %184 = bitcast %"class.std::__1::vector.78"* %6 to %"class.std::__1::__vector_base_common"*
  call void @_ZNKSt3__120__vector_base_commonILb1EE20__throw_out_of_rangeEv(%"class.std::__1::__vector_base_common"* nonnull %184) #14
  unreachable

185:                                              ; preds = %179
  %186 = getelementptr inbounds %"class.std::__1::basic_string", %"class.std::__1::basic_string"* %104, i64 %180
  %187 = sext i32 %181 to i64
  %188 = icmp ugt i64 %169, %187
  br i1 %188, label %191, label %189

189:                                              ; preds = %185
  %190 = bitcast %"class.std::__1::vector.78"* %4 to %"class.std::__1::__vector_base_common"*
  call void @_ZNKSt3__120__vector_base_commonILb1EE20__throw_out_of_rangeEv(%"class.std::__1::__vector_base_common"* %190) #14
  unreachable

191:                                              ; preds = %185
  %192 = getelementptr inbounds %"class.std::__1::basic_string", %"class.std::__1::basic_string"* %176, i64 %187
  %193 = bitcast %"class.std::__1::basic_string"* %186 to %"struct.std::__1::basic_string<char, std::__1::char_traits<char>, std::__1::allocator<char> >::__short"*
  %194 = getelementptr inbounds %"struct.std::__1::basic_string<char, std::__1::char_traits<char>, std::__1::allocator<char> >::__short", %"struct.std::__1::basic_string<char, std::__1::char_traits<char>, std::__1::allocator<char> >::__short"* %193, i64 0, i32 1, i32 0
  %195 = load i8, i8* %194, align 1
  %196 = icmp slt i8 %195, 0
  %197 = getelementptr inbounds %"class.std::__1::basic_string", %"class.std::__1::basic_string"* %104, i64 %180, i32 0, i32 0, i32 0, i32 0, i32 0, i32 1
  %198 = load i64, i64* %197, align 8
  %199 = zext i8 %195 to i64
  %200 = select i1 %196, i64 %198, i64 %199
  %201 = bitcast %"class.std::__1::basic_string"* %192 to %"struct.std::__1::basic_string<char, std::__1::char_traits<char>, std::__1::allocator<char> >::__short"*
  %202 = getelementptr inbounds %"struct.std::__1::basic_string<char, std::__1::char_traits<char>, std::__1::allocator<char> >::__short", %"struct.std::__1::basic_string<char, std::__1::char_traits<char>, std::__1::allocator<char> >::__short"* %201, i64 0, i32 1, i32 0
  %203 = load i8, i8* %202, align 1
  %204 = icmp slt i8 %203, 0
  %205 = getelementptr inbounds %"class.std::__1::basic_string", %"class.std::__1::basic_string"* %176, i64 %187, i32 0, i32 0, i32 0, i32 0, i32 0, i32 1
  %206 = load i64, i64* %205, align 8
  %207 = zext i8 %203 to i64
  %208 = select i1 %204, i64 %206, i64 %207
  %209 = icmp eq i64 %200, %208
  br i1 %209, label %210, label %265

210:                                              ; preds = %191
  %211 = getelementptr inbounds %"class.std::__1::basic_string", %"class.std::__1::basic_string"* %186, i64 0, i32 0, i32 0, i32 0, i32 0, i32 0, i32 0
  %212 = load i8*, i8** %211, align 8
  %213 = bitcast %"class.std::__1::basic_string"* %186 to i8*
  %214 = select i1 %196, i8* %212, i8* %213
  %215 = getelementptr inbounds %"class.std::__1::basic_string", %"class.std::__1::basic_string"* %192, i64 0, i32 0, i32 0, i32 0, i32 0, i32 0, i32 0
  %216 = load i8*, i8** %215, align 8
  %217 = bitcast %"class.std::__1::basic_string"* %192 to i8*
  %218 = select i1 %204, i8* %216, i8* %217
  %219 = icmp eq i64 %200, 0
  br i1 %196, label %226, label %220

220:                                              ; preds = %210
  br i1 %219, label %242, label %221

221:                                              ; preds = %220
  %222 = ptrtoint i8* %212 to i64
  %223 = trunc i64 %222 to i8
  %224 = load i8, i8* %218, align 1
  %225 = icmp eq i8 %224, %223
  br i1 %225, label %227, label %265

226:                                              ; preds = %210
  br i1 %219, label %242, label %239

227:                                              ; preds = %221, %234
  %228 = phi i64 [ %231, %234 ], [ %199, %221 ]
  %229 = phi i8* [ %232, %234 ], [ %213, %221 ]
  %230 = phi i8* [ %235, %234 ], [ %218, %221 ]
  %231 = add i64 %228, -1
  %232 = getelementptr inbounds i8, i8* %229, i64 1
  %233 = icmp eq i64 %231, 0
  br i1 %233, label %242, label %234

234:                                              ; preds = %227
  %235 = getelementptr inbounds i8, i8* %230, i64 1
  %236 = load i8, i8* %232, align 1
  %237 = load i8, i8* %235, align 1
  %238 = icmp eq i8 %236, %237
  br i1 %238, label %227, label %265

239:                                              ; preds = %226
  %240 = call i32 @bcmp(i8* %214, i8* %218, i64 %200) #12
  %241 = icmp eq i32 %240, 0
  br i1 %241, label %242, label %265

242:                                              ; preds = %227, %239, %220, %226
  %243 = add nsw i64 %180, -1
  %244 = add i32 %181, -1
  %245 = icmp sgt i32 %244, 0
  %246 = icmp sgt i64 %180, 0
  %247 = and i1 %246, %245
  br i1 %247, label %179, label %248

248:                                              ; preds = %242, %162
  %249 = phi i64 [ %85, %162 ], [ %243, %242 ]
  %250 = phi i1 [ %173, %162 ], [ %246, %242 ]
  br i1 %250, label %251, label %265

251:                                              ; preds = %248
  %252 = shl i64 %249, 32
  %253 = ashr exact i64 %252, 32
  %254 = icmp ugt i64 %93, %253
  br i1 %254, label %257, label %255

255:                                              ; preds = %251
  %256 = bitcast %"class.std::__1::vector.78"* %6 to %"class.std::__1::__vector_base_common"*
  call void @_ZNKSt3__120__vector_base_commonILb1EE20__throw_out_of_rangeEv(%"class.std::__1::__vector_base_common"* nonnull %256) #14
  unreachable

257:                                              ; preds = %251
  %258 = icmp eq i64 %168, 0
  br i1 %258, label %259, label %261

259:                                              ; preds = %257
  %260 = bitcast %"class.std::__1::vector.78"* %4 to %"class.std::__1::__vector_base_common"*
  call void @_ZNKSt3__120__vector_base_commonILb1EE20__throw_out_of_rangeEv(%"class.std::__1::__vector_base_common"* %260) #14
  unreachable

261:                                              ; preds = %257
  %262 = getelementptr inbounds %"class.std::__1::basic_string", %"class.std::__1::basic_string"* %104, i64 %253
  %263 = inttoptr i64 %167 to %"class.std::__1::basic_string"*
  %264 = call zeroext i1 @_ZN4i18n12phonenumbers15HasSuffixStringERKNSt3__112basic_stringIcNS1_11char_traitsIcEENS1_9allocatorIcEEEES9_(%"class.std::__1::basic_string"* dereferenceable(24) %262, %"class.std::__1::basic_string"* dereferenceable(24) %263) #12
  br label %265

265:                                              ; preds = %239, %191, %221, %234, %95, %156, %118, %248, %261
  %266 = phi %"struct.std::__1::basic_string<char, std::__1::char_traits<char>, std::__1::allocator<char> >::__short"* [ %96, %95 ], [ %121, %156 ], [ %121, %118 ], [ %121, %248 ], [ %121, %261 ], [ %121, %234 ], [ %121, %221 ], [ %121, %191 ], [ %121, %239 ]
  %267 = phi i1 [ true, %95 ], [ true, %156 ], [ true, %118 ], [ false, %248 ], [ %264, %261 ], [ false, %234 ], [ false, %221 ], [ false, %191 ], [ false, %239 ]
  %268 = getelementptr inbounds %"struct.std::__1::basic_string<char, std::__1::char_traits<char>, std::__1::allocator<char> >::__short", %"struct.std::__1::basic_string<char, std::__1::char_traits<char>, std::__1::allocator<char> >::__short"* %266, i64 0, i32 1, i32 0
  %269 = load i8, i8* %268, align 1
  %270 = icmp slt i8 %269, 0
  br i1 %270, label %271, label %273

271:                                              ; preds = %265
  %272 = load i8*, i8** %88, align 8
  call void @_ZdlPv(i8* %272) #13
  br label %273

273:                                              ; preds = %265, %271
  call void @llvm.lifetime.end.p0i8(i64 24, i8* nonnull %87) #12
  %274 = bitcast %"class.std::__1::basic_string"* %7 to %"struct.std::__1::basic_string<char, std::__1::char_traits<char>, std::__1::allocator<char> >::__short"*
  %275 = getelementptr inbounds %"struct.std::__1::basic_string<char, std::__1::char_traits<char>, std::__1::allocator<char> >::__short", %"struct.std::__1::basic_string<char, std::__1::char_traits<char>, std::__1::allocator<char> >::__short"* %274, i64 0, i32 1, i32 0
  %276 = load i8, i8* %275, align 1
  %277 = icmp slt i8 %276, 0
  br i1 %277, label %278, label %280

278:                                              ; preds = %273
  %279 = load i8*, i8** %23, align 8
  call void @_ZdlPv(i8* %279) #13
  br label %280

280:                                              ; preds = %273, %278
  call void @llvm.lifetime.end.p0i8(i64 24, i8* nonnull %22) #12
  %281 = load %"class.std::__1::basic_string"*, %"class.std::__1::basic_string"** %19, align 8
  %282 = icmp eq %"class.std::__1::basic_string"* %281, null
  br i1 %282, label %304, label %283

283:                                              ; preds = %280
  %284 = bitcast %"class.std::__1::basic_string"* %281 to i8*
  %285 = load %"class.std::__1::basic_string"*, %"class.std::__1::basic_string"** %20, align 8
  %286 = icmp eq %"class.std::__1::basic_string"* %285, %281
  br i1 %286, label %302, label %287

287:                                              ; preds = %283, %297
  %288 = phi %"class.std::__1::basic_string"* [ %289, %297 ], [ %285, %283 ]
  %289 = getelementptr inbounds %"class.std::__1::basic_string", %"class.std::__1::basic_string"* %288, i64 -1
  %290 = bitcast %"class.std::__1::basic_string"* %289 to %"struct.std::__1::basic_string<char, std::__1::char_traits<char>, std::__1::allocator<char> >::__short"*
  %291 = getelementptr inbounds %"struct.std::__1::basic_string<char, std::__1::char_traits<char>, std::__1::allocator<char> >::__short", %"struct.std::__1::basic_string<char, std::__1::char_traits<char>, std::__1::allocator<char> >::__short"* %290, i64 0, i32 1, i32 0
  %292 = load i8, i8* %291, align 1
  %293 = icmp slt i8 %292, 0
  br i1 %293, label %294, label %297

294:                                              ; preds = %287
  %295 = getelementptr inbounds %"class.std::__1::basic_string", %"class.std::__1::basic_string"* %289, i64 0, i32 0, i32 0, i32 0, i32 0, i32 0, i32 0
  %296 = load i8*, i8** %295, align 8
  call void @_ZdlPv(i8* %296) #13
  br label %297

297:                                              ; preds = %294, %287
  %298 = icmp eq %"class.std::__1::basic_string"* %289, %281
  br i1 %298, label %299, label %287

299:                                              ; preds = %297
  %300 = bitcast %"class.std::__1::vector.78"* %6 to i8**
  %301 = load i8*, i8** %300, align 8
  br label %302

302:                                              ; preds = %299, %283
  %303 = phi i8* [ %301, %299 ], [ %284, %283 ]
  store %"class.std::__1::basic_string"* %281, %"class.std::__1::basic_string"** %20, align 8
  call void @_ZdlPv(i8* %303) #13
  br label %304

304:                                              ; preds = %280, %302
  call void @llvm.lifetime.end.p0i8(i64 24, i8* nonnull %18) #12
  %305 = icmp eq %"class.i18n::phonenumbers::RegExpInput"* %17, null
  br i1 %305, label %311, label %306

306:                                              ; preds = %304
  %307 = bitcast %"class.i18n::phonenumbers::RegExpInput"* %17 to void (%"class.i18n::phonenumbers::RegExpInput"*)***
  %308 = load void (%"class.i18n::phonenumbers::RegExpInput"*)**, void (%"class.i18n::phonenumbers::RegExpInput"*)*** %307, align 8
  %309 = getelementptr inbounds void (%"class.i18n::phonenumbers::RegExpInput"*)*, void (%"class.i18n::phonenumbers::RegExpInput"*)** %308, i64 1
  %310 = load void (%"class.i18n::phonenumbers::RegExpInput"*)*, void (%"class.i18n::phonenumbers::RegExpInput"*)** %309, align 8
  call void %310(%"class.i18n::phonenumbers::RegExpInput"* nonnull %17) #12
  br label %311

311:                                              ; preds = %304, %306
  ret i1 %267
}

; Function Attrs: nounwind ssp uwtable
define linkonce_odr hidden dereferenceable(8) %"class.i18n::phonenumbers::LoggerHandler"* @_ZN4i18n12phonenumbers13LoggerHandlerlsIA57_cEERS1_RKT_(%"class.i18n::phonenumbers::LoggerHandler"*, [57 x i8]* dereferenceable(57)) local_unnamed_addr #0 comdat align 2 {
  %3 = alloca %"class.std::__1::basic_string", align 8
  %4 = getelementptr inbounds %"class.i18n::phonenumbers::LoggerHandler", %"class.i18n::phonenumbers::LoggerHandler"* %0, i64 0, i32 0
  %5 = load %"class.i18n::phonenumbers::Logger"*, %"class.i18n::phonenumbers::Logger"** %4, align 8
  %6 = icmp eq %"class.i18n::phonenumbers::Logger"* %5, null
  br i1 %6, label %48, label %7

7:                                                ; preds = %2
  %8 = bitcast %"class.std::__1::basic_string"* %3 to i8*
  call void @llvm.lifetime.start.p0i8(i64 24, i8* nonnull %8) #12
  %9 = getelementptr inbounds [57 x i8], [57 x i8]* %1, i64 0, i64 0
  %10 = tail call i64 @strlen(i8* %9) #12, !noalias !6
  %11 = icmp ugt i64 %10, -17
  br i1 %11, label %12, label %14

12:                                               ; preds = %7
  %13 = bitcast %"class.std::__1::basic_string"* %3 to %"class.std::__1::__basic_string_common"*
  call void @_ZNKSt3__121__basic_string_commonILb1EE20__throw_length_errorEv(%"class.std::__1::__basic_string_common"* nonnull %13) #14
  unreachable

14:                                               ; preds = %7
  %15 = icmp ult i64 %10, 23
  br i1 %15, label %25, label %16

16:                                               ; preds = %14
  %17 = add nuw i64 %10, 16
  %18 = and i64 %17, -16
  %19 = tail call i8* @_Znwm(i64 %18) #13
  %20 = getelementptr inbounds %"class.std::__1::basic_string", %"class.std::__1::basic_string"* %3, i64 0, i32 0, i32 0, i32 0, i32 0, i32 0, i32 0
  store i8* %19, i8** %20, align 8, !alias.scope !6
  %21 = or i64 %18, -9223372036854775808
  %22 = getelementptr inbounds %"class.std::__1::basic_string", %"class.std::__1::basic_string"* %3, i64 0, i32 0, i32 0, i32 0, i32 0, i32 0, i32 2
  store i64 %21, i64* %22, align 8, !alias.scope !6
  %23 = getelementptr inbounds %"class.std::__1::basic_string", %"class.std::__1::basic_string"* %3, i64 0, i32 0, i32 0, i32 0, i32 0, i32 0, i32 1
  store i64 %10, i64* %23, align 8, !alias.scope !6
  %24 = bitcast %"class.std::__1::basic_string"* %3 to %"struct.std::__1::basic_string<char, std::__1::char_traits<char>, std::__1::allocator<char> >::__short"*
  br label %30

25:                                               ; preds = %14
  %26 = trunc i64 %10 to i8
  %27 = bitcast %"class.std::__1::basic_string"* %3 to %"struct.std::__1::basic_string<char, std::__1::char_traits<char>, std::__1::allocator<char> >::__short"*
  %28 = getelementptr inbounds %"struct.std::__1::basic_string<char, std::__1::char_traits<char>, std::__1::allocator<char> >::__short", %"struct.std::__1::basic_string<char, std::__1::char_traits<char>, std::__1::allocator<char> >::__short"* %27, i64 0, i32 1, i32 0
  store i8 %26, i8* %28, align 1, !alias.scope !6
  %29 = icmp eq i64 %10, 0
  br i1 %29, label %33, label %30

30:                                               ; preds = %25, %16
  %31 = phi %"struct.std::__1::basic_string<char, std::__1::char_traits<char>, std::__1::allocator<char> >::__short"* [ %27, %25 ], [ %24, %16 ]
  %32 = phi i8* [ %8, %25 ], [ %19, %16 ]
  call void @llvm.memcpy.p0i8.p0i8.i64(i8* nonnull align 1 %32, i8* align 1 %9, i64 %10, i1 false) #12
  br label %33

33:                                               ; preds = %25, %30
  %34 = phi %"struct.std::__1::basic_string<char, std::__1::char_traits<char>, std::__1::allocator<char> >::__short"* [ %27, %25 ], [ %31, %30 ]
  %35 = phi i8* [ %8, %25 ], [ %32, %30 ]
  %36 = getelementptr inbounds i8, i8* %35, i64 %10
  store i8 0, i8* %36, align 1
  %37 = bitcast %"class.i18n::phonenumbers::Logger"* %5 to void (%"class.i18n::phonenumbers::Logger"*, %"class.std::__1::basic_string"*)***
  %38 = load void (%"class.i18n::phonenumbers::Logger"*, %"class.std::__1::basic_string"*)**, void (%"class.i18n::phonenumbers::Logger"*, %"class.std::__1::basic_string"*)*** %37, align 8
  %39 = getelementptr inbounds void (%"class.i18n::phonenumbers::Logger"*, %"class.std::__1::basic_string"*)*, void (%"class.i18n::phonenumbers::Logger"*, %"class.std::__1::basic_string"*)** %38, i64 3
  %40 = load void (%"class.i18n::phonenumbers::Logger"*, %"class.std::__1::basic_string"*)*, void (%"class.i18n::phonenumbers::Logger"*, %"class.std::__1::basic_string"*)** %39, align 8
  call void %40(%"class.i18n::phonenumbers::Logger"* nonnull %5, %"class.std::__1::basic_string"* nonnull dereferenceable(24) %3) #12
  %41 = getelementptr inbounds %"struct.std::__1::basic_string<char, std::__1::char_traits<char>, std::__1::allocator<char> >::__short", %"struct.std::__1::basic_string<char, std::__1::char_traits<char>, std::__1::allocator<char> >::__short"* %34, i64 0, i32 1, i32 0
  %42 = load i8, i8* %41, align 1
  %43 = icmp slt i8 %42, 0
  br i1 %43, label %44, label %47

44:                                               ; preds = %33
  %45 = getelementptr inbounds %"class.std::__1::basic_string", %"class.std::__1::basic_string"* %3, i64 0, i32 0, i32 0, i32 0, i32 0, i32 0, i32 0
  %46 = load i8*, i8** %45, align 8
  call void @_ZdlPv(i8* %46) #13
  br label %47

47:                                               ; preds = %33, %44
  call void @llvm.lifetime.end.p0i8(i64 24, i8* nonnull %8) #12
  br label %48

48:                                               ; preds = %2, %47
  ret %"class.i18n::phonenumbers::LoggerHandler"* %0
}

; Function Attrs: nounwind ssp uwtable
define hidden zeroext i1 @_ZN4i18n12phonenumbers18PhoneNumberMatcher17ExtractInnerMatchERKNSt3__112basic_stringIcNS2_11char_traitsIcEENS2_9allocatorIcEEEEiPNS0_16PhoneNumberMatchE(%"class.i18n::phonenumbers::PhoneNumberMatcher"*, %"class.std::__1::basic_string"* dereferenceable(24), i32, %"class.i18n::phonenumbers::PhoneNumberMatch"*) local_unnamed_addr #0 align 2 {
  %5 = alloca %"class.std::__1::basic_string", align 8
  %6 = alloca %"class.std::__1::basic_string", align 8
  %7 = alloca %"class.std::__1::basic_string", align 8
  %8 = getelementptr inbounds %"class.i18n::phonenumbers::PhoneNumberMatcher", %"class.i18n::phonenumbers::PhoneNumberMatcher"* %0, i64 0, i32 0
  %9 = load %"class.i18n::phonenumbers::PhoneNumberMatcherRegExps"*, %"class.i18n::phonenumbers::PhoneNumberMatcherRegExps"** %8, align 8
  %10 = getelementptr inbounds %"class.i18n::phonenumbers::PhoneNumberMatcherRegExps", %"class.i18n::phonenumbers::PhoneNumberMatcherRegExps"* %9, i64 0, i32 23, i32 0, i32 0, i32 0
  %11 = bitcast %"class.std::__1::vector"** %10 to %"class.i18n::phonenumbers::RegExp"****
  %12 = load %"class.i18n::phonenumbers::RegExp"***, %"class.i18n::phonenumbers::RegExp"**** %11, align 8
  %13 = load %"class.i18n::phonenumbers::RegExp"**, %"class.i18n::phonenumbers::RegExp"*** %12, align 8
  %14 = getelementptr inbounds %"class.i18n::phonenumbers::RegExp"**, %"class.i18n::phonenumbers::RegExp"*** %12, i64 1
  %15 = load %"class.i18n::phonenumbers::RegExp"**, %"class.i18n::phonenumbers::RegExp"*** %14, align 8
  %16 = icmp eq %"class.i18n::phonenumbers::RegExp"** %13, %15
  br i1 %16, label %142, label %17

17:                                               ; preds = %4
  %18 = bitcast %"class.std::__1::basic_string"* %5 to i8*
  %19 = getelementptr inbounds %"class.std::__1::basic_string", %"class.std::__1::basic_string"* %5, i64 0, i32 0, i32 0, i32 0, i32 0, i32 0, i32 0
  %20 = getelementptr inbounds %"class.std::__1::basic_string", %"class.std::__1::basic_string"* %5, i64 0, i32 0, i32 0, i32 0, i32 0, i32 0, i32 1
  %21 = getelementptr inbounds %"class.i18n::phonenumbers::PhoneNumberMatcher", %"class.i18n::phonenumbers::PhoneNumberMatcher"* %0, i64 0, i32 6
  %22 = bitcast %"class.std::__1::basic_string"* %1 to %"struct.std::__1::basic_string<char, std::__1::char_traits<char>, std::__1::allocator<char> >::__short"*
  %23 = getelementptr inbounds %"struct.std::__1::basic_string<char, std::__1::char_traits<char>, std::__1::allocator<char> >::__short", %"struct.std::__1::basic_string<char, std::__1::char_traits<char>, std::__1::allocator<char> >::__short"* %22, i64 0, i32 1, i32 0
  %24 = getelementptr inbounds %"class.std::__1::basic_string", %"class.std::__1::basic_string"* %1, i64 0, i32 0, i32 0, i32 0, i32 0, i32 0, i32 1
  %25 = bitcast %"class.std::__1::basic_string"* %6 to i8*
  %26 = bitcast %"class.std::__1::basic_string"* %6 to %"struct.std::__1::basic_string<char, std::__1::char_traits<char>, std::__1::allocator<char> >::__short"*
  %27 = getelementptr inbounds %"struct.std::__1::basic_string<char, std::__1::char_traits<char>, std::__1::allocator<char> >::__short", %"struct.std::__1::basic_string<char, std::__1::char_traits<char>, std::__1::allocator<char> >::__short"* %26, i64 0, i32 1, i32 0
  %28 = getelementptr inbounds %"class.std::__1::basic_string", %"class.std::__1::basic_string"* %6, i64 0, i32 0, i32 0, i32 0, i32 0, i32 0, i32 1
  %29 = bitcast %"class.std::__1::basic_string"* %5 to %"struct.std::__1::basic_string<char, std::__1::char_traits<char>, std::__1::allocator<char> >::__short"*
  %30 = getelementptr inbounds %"struct.std::__1::basic_string<char, std::__1::char_traits<char>, std::__1::allocator<char> >::__short", %"struct.std::__1::basic_string<char, std::__1::char_traits<char>, std::__1::allocator<char> >::__short"* %29, i64 0, i32 1, i32 0
  %31 = getelementptr inbounds %"class.std::__1::basic_string", %"class.std::__1::basic_string"* %6, i64 0, i32 0, i32 0, i32 0, i32 0, i32 0, i32 0
  %32 = bitcast %"class.std::__1::basic_string"* %7 to i8*
  %33 = getelementptr inbounds %"class.std::__1::basic_string", %"class.std::__1::basic_string"* %7, i64 0, i32 0, i32 0, i32 0, i32 0, i32 0, i32 0
  %34 = bitcast %"class.std::__1::basic_string"* %1 to %"class.std::__1::allocator"*
  %35 = getelementptr inbounds %"class.i18n::phonenumbers::PhoneNumberMatcher", %"class.i18n::phonenumbers::PhoneNumberMatcher"* %0, i64 0, i32 2
  %36 = bitcast %"class.std::__1::basic_string"* %7 to %"struct.std::__1::basic_string<char, std::__1::char_traits<char>, std::__1::allocator<char> >::__short"*
  %37 = getelementptr inbounds %"struct.std::__1::basic_string<char, std::__1::char_traits<char>, std::__1::allocator<char> >::__short", %"struct.std::__1::basic_string<char, std::__1::char_traits<char>, std::__1::allocator<char> >::__short"* %36, i64 0, i32 1, i32 0
  %38 = bitcast %"class.std::__1::basic_string"* %7 to i8*
  br label %46

39:                                               ; preds = %139
  %40 = load %"class.i18n::phonenumbers::PhoneNumberMatcherRegExps"*, %"class.i18n::phonenumbers::PhoneNumberMatcherRegExps"** %8, align 8
  %41 = getelementptr inbounds %"class.i18n::phonenumbers::PhoneNumberMatcherRegExps", %"class.i18n::phonenumbers::PhoneNumberMatcherRegExps"* %40, i64 0, i32 23, i32 0, i32 0, i32 0
  %42 = load %"class.std::__1::vector"*, %"class.std::__1::vector"** %41, align 8
  %43 = getelementptr inbounds %"class.std::__1::vector", %"class.std::__1::vector"* %42, i64 0, i32 0, i32 1
  %44 = load %"class.i18n::phonenumbers::RegExp"**, %"class.i18n::phonenumbers::RegExp"*** %43, align 8
  %45 = icmp eq %"class.i18n::phonenumbers::RegExp"** %141, %44
  br i1 %45, label %142, label %46

46:                                               ; preds = %17, %39
  %47 = phi %"class.i18n::phonenumbers::PhoneNumberMatcherRegExps"* [ %9, %17 ], [ %40, %39 ]
  %48 = phi %"class.i18n::phonenumbers::RegExp"** [ %13, %17 ], [ %141, %39 ]
  %49 = getelementptr inbounds %"class.i18n::phonenumbers::PhoneNumberMatcherRegExps", %"class.i18n::phonenumbers::PhoneNumberMatcherRegExps"* %47, i64 0, i32 16, i32 0, i32 0, i32 0
  %50 = load %"class.i18n::phonenumbers::AbstractRegExpFactory"*, %"class.i18n::phonenumbers::AbstractRegExpFactory"** %49, align 8
  %51 = bitcast %"class.i18n::phonenumbers::AbstractRegExpFactory"* %50 to %"class.i18n::phonenumbers::RegExpInput"* (%"class.i18n::phonenumbers::AbstractRegExpFactory"*, %"class.std::__1::basic_string"*)***
  %52 = load %"class.i18n::phonenumbers::RegExpInput"* (%"class.i18n::phonenumbers::AbstractRegExpFactory"*, %"class.std::__1::basic_string"*)**, %"class.i18n::phonenumbers::RegExpInput"* (%"class.i18n::phonenumbers::AbstractRegExpFactory"*, %"class.std::__1::basic_string"*)*** %51, align 8
  %53 = getelementptr inbounds %"class.i18n::phonenumbers::RegExpInput"* (%"class.i18n::phonenumbers::AbstractRegExpFactory"*, %"class.std::__1::basic_string"*)*, %"class.i18n::phonenumbers::RegExpInput"* (%"class.i18n::phonenumbers::AbstractRegExpFactory"*, %"class.std::__1::basic_string"*)** %52, i64 2
  %54 = load %"class.i18n::phonenumbers::RegExpInput"* (%"class.i18n::phonenumbers::AbstractRegExpFactory"*, %"class.std::__1::basic_string"*)*, %"class.i18n::phonenumbers::RegExpInput"* (%"class.i18n::phonenumbers::AbstractRegExpFactory"*, %"class.std::__1::basic_string"*)** %53, align 8
  %55 = call %"class.i18n::phonenumbers::RegExpInput"* %54(%"class.i18n::phonenumbers::AbstractRegExpFactory"* %50, %"class.std::__1::basic_string"* dereferenceable(24) %1) #12
  call void @llvm.lifetime.start.p0i8(i64 24, i8* nonnull %18) #12
  call void @llvm.memset.p0i8.i64(i8* nonnull align 8 %18, i8 0, i64 24, i1 false) #12
  %56 = load %"class.i18n::phonenumbers::RegExp"*, %"class.i18n::phonenumbers::RegExp"** %48, align 8
  %57 = bitcast %"class.i18n::phonenumbers::RegExp"* %56 to i1 (%"class.i18n::phonenumbers::RegExp"*, %"class.i18n::phonenumbers::RegExpInput"*, i1, %"class.std::__1::basic_string"*, %"class.std::__1::basic_string"*, %"class.std::__1::basic_string"*)***
  %58 = load i1 (%"class.i18n::phonenumbers::RegExp"*, %"class.i18n::phonenumbers::RegExpInput"*, i1, %"class.std::__1::basic_string"*, %"class.std::__1::basic_string"*, %"class.std::__1::basic_string"*)**, i1 (%"class.i18n::phonenumbers::RegExp"*, %"class.i18n::phonenumbers::RegExpInput"*, i1, %"class.std::__1::basic_string"*, %"class.std::__1::basic_string"*, %"class.std::__1::basic_string"*)*** %57, align 8
  %59 = getelementptr inbounds i1 (%"class.i18n::phonenumbers::RegExp"*, %"class.i18n::phonenumbers::RegExpInput"*, i1, %"class.std::__1::basic_string"*, %"class.std::__1::basic_string"*, %"class.std::__1::basic_string"*)*, i1 (%"class.i18n::phonenumbers::RegExp"*, %"class.i18n::phonenumbers::RegExpInput"*, i1, %"class.std::__1::basic_string"*, %"class.std::__1::basic_string"*, %"class.std::__1::basic_string"*)** %58, i64 2
  %60 = load i1 (%"class.i18n::phonenumbers::RegExp"*, %"class.i18n::phonenumbers::RegExpInput"*, i1, %"class.std::__1::basic_string"*, %"class.std::__1::basic_string"*, %"class.std::__1::basic_string"*)*, i1 (%"class.i18n::phonenumbers::RegExp"*, %"class.i18n::phonenumbers::RegExpInput"*, i1, %"class.std::__1::basic_string"*, %"class.std::__1::basic_string"*, %"class.std::__1::basic_string"*)** %59, align 8
  %61 = call zeroext i1 %60(%"class.i18n::phonenumbers::RegExp"* %56, %"class.i18n::phonenumbers::RegExpInput"* %55, i1 zeroext false, %"class.std::__1::basic_string"* nonnull %5, %"class.std::__1::basic_string"* null, %"class.std::__1::basic_string"* null) #12
  br i1 %61, label %62, label %126

62:                                               ; preds = %46
  %63 = bitcast %"class.i18n::phonenumbers::RegExpInput"* %55 to void (%"class.std::__1::basic_string"*, %"class.i18n::phonenumbers::RegExpInput"*)***
  br label %64

64:                                               ; preds = %62, %117
  %65 = phi i8 [ 1, %62 ], [ %113, %117 ]
  %66 = load i32, i32* %21, align 4
  %67 = icmp sgt i32 %66, 0
  br i1 %67, label %68, label %126

68:                                               ; preds = %64
  %69 = load i8, i8* %23, align 1
  %70 = icmp slt i8 %69, 0
  %71 = load i64, i64* %24, align 8
  %72 = zext i8 %69 to i64
  %73 = select i1 %70, i64 %71, i64 %72
  call void @llvm.lifetime.start.p0i8(i64 24, i8* nonnull %25) #12
  %74 = load void (%"class.std::__1::basic_string"*, %"class.i18n::phonenumbers::RegExpInput"*)**, void (%"class.std::__1::basic_string"*, %"class.i18n::phonenumbers::RegExpInput"*)*** %63, align 8
  %75 = getelementptr inbounds void (%"class.std::__1::basic_string"*, %"class.i18n::phonenumbers::RegExpInput"*)*, void (%"class.std::__1::basic_string"*, %"class.i18n::phonenumbers::RegExpInput"*)** %74, i64 2
  %76 = load void (%"class.std::__1::basic_string"*, %"class.i18n::phonenumbers::RegExpInput"*)*, void (%"class.std::__1::basic_string"*, %"class.i18n::phonenumbers::RegExpInput"*)** %75, align 8
  call void %76(%"class.std::__1::basic_string"* nonnull sret %6, %"class.i18n::phonenumbers::RegExpInput"* %55) #12
  %77 = load i8, i8* %27, align 1
  %78 = icmp slt i8 %77, 0
  %79 = load i64, i64* %28, align 8
  %80 = zext i8 %77 to i64
  %81 = select i1 %78, i64 %79, i64 %80
  %82 = sub i64 %73, %81
  %83 = load i8, i8* %30, align 1
  %84 = icmp slt i8 %83, 0
  %85 = load i64, i64* %20, align 8
  %86 = zext i8 %83 to i64
  %87 = select i1 %84, i64 %85, i64 %86
  %88 = sub i64 %82, %87
  %89 = trunc i64 %88 to i32
  br i1 %78, label %90, label %92

90:                                               ; preds = %68
  %91 = load i8*, i8** %31, align 8
  call void @_ZdlPv(i8* %91) #13
  br label %92

92:                                               ; preds = %68, %90
  call void @llvm.lifetime.end.p0i8(i64 24, i8* nonnull %25) #12
  %93 = and i8 %65, 1
  %94 = icmp eq i8 %93, 0
  br i1 %94, label %112, label %95

95:                                               ; preds = %92
  call void @llvm.lifetime.start.p0i8(i64 24, i8* nonnull %32) #12
  %96 = shl i64 %88, 32
  %97 = ashr exact i64 %96, 32
  call void @llvm.memset.p0i8.i64(i8* nonnull align 8 %38, i8 -86, i64 24, i1 false)
  call void @_ZNSt3__112basic_stringIcNS_11char_traitsIcEENS_9allocatorIcEEEC1ERKS5_mmRKS4_(%"class.std::__1::basic_string"* nonnull %7, %"class.std::__1::basic_string"* dereferenceable(24) %1, i64 0, i64 %97, %"class.std::__1::allocator"* dereferenceable(1) %34) #12
  %98 = load %"class.i18n::phonenumbers::PhoneNumberUtil"*, %"class.i18n::phonenumbers::PhoneNumberUtil"** %35, align 8
  call void @_ZNK4i18n12phonenumbers15PhoneNumberUtil20TrimUnwantedEndCharsEPNSt3__112basic_stringIcNS2_11char_traitsIcEENS2_9allocatorIcEEEE(%"class.i18n::phonenumbers::PhoneNumberUtil"* %98, %"class.std::__1::basic_string"* nonnull %7) #12
  %99 = call zeroext i1 @_ZN4i18n12phonenumbers18PhoneNumberMatcher14ParseAndVerifyERKNSt3__112basic_stringIcNS2_11char_traitsIcEENS2_9allocatorIcEEEEiPNS0_16PhoneNumberMatchE(%"class.i18n::phonenumbers::PhoneNumberMatcher"* %0, %"class.std::__1::basic_string"* nonnull dereferenceable(24) %7, i32 %2, %"class.i18n::phonenumbers::PhoneNumberMatch"* %3)
  br i1 %99, label %103, label %100

100:                                              ; preds = %95
  %101 = load i32, i32* %21, align 4
  %102 = add nsw i32 %101, -1
  store i32 %102, i32* %21, align 4
  br label %103

103:                                              ; preds = %95, %100
  %104 = phi i8 [ 0, %100 ], [ %65, %95 ]
  %105 = phi i32 [ 0, %100 ], [ 1, %95 ]
  %106 = load i8, i8* %37, align 1
  %107 = icmp slt i8 %106, 0
  br i1 %107, label %108, label %110

108:                                              ; preds = %103
  %109 = load i8*, i8** %33, align 8
  call void @_ZdlPv(i8* %109) #13
  br label %110

110:                                              ; preds = %103, %108
  call void @llvm.lifetime.end.p0i8(i64 24, i8* nonnull %32) #12
  %111 = icmp eq i32 %105, 0
  br i1 %111, label %112, label %126

112:                                              ; preds = %92, %110
  %113 = phi i8 [ %104, %110 ], [ %65, %92 ]
  %114 = load %"class.i18n::phonenumbers::PhoneNumberUtil"*, %"class.i18n::phonenumbers::PhoneNumberUtil"** %35, align 8
  call void @_ZNK4i18n12phonenumbers15PhoneNumberUtil20TrimUnwantedEndCharsEPNSt3__112basic_stringIcNS2_11char_traitsIcEENS2_9allocatorIcEEEE(%"class.i18n::phonenumbers::PhoneNumberUtil"* %114, %"class.std::__1::basic_string"* nonnull %5) #12
  %115 = add nsw i32 %89, %2
  %116 = call zeroext i1 @_ZN4i18n12phonenumbers18PhoneNumberMatcher14ParseAndVerifyERKNSt3__112basic_stringIcNS2_11char_traitsIcEENS2_9allocatorIcEEEEiPNS0_16PhoneNumberMatchE(%"class.i18n::phonenumbers::PhoneNumberMatcher"* %0, %"class.std::__1::basic_string"* nonnull dereferenceable(24) %5, i32 %115, %"class.i18n::phonenumbers::PhoneNumberMatch"* %3)
  br i1 %116, label %126, label %117

117:                                              ; preds = %112
  %118 = load i32, i32* %21, align 4
  %119 = add nsw i32 %118, -1
  store i32 %119, i32* %21, align 4
  %120 = load %"class.i18n::phonenumbers::RegExp"*, %"class.i18n::phonenumbers::RegExp"** %48, align 8
  %121 = bitcast %"class.i18n::phonenumbers::RegExp"* %120 to i1 (%"class.i18n::phonenumbers::RegExp"*, %"class.i18n::phonenumbers::RegExpInput"*, i1, %"class.std::__1::basic_string"*, %"class.std::__1::basic_string"*, %"class.std::__1::basic_string"*)***
  %122 = load i1 (%"class.i18n::phonenumbers::RegExp"*, %"class.i18n::phonenumbers::RegExpInput"*, i1, %"class.std::__1::basic_string"*, %"class.std::__1::basic_string"*, %"class.std::__1::basic_string"*)**, i1 (%"class.i18n::phonenumbers::RegExp"*, %"class.i18n::phonenumbers::RegExpInput"*, i1, %"class.std::__1::basic_string"*, %"class.std::__1::basic_string"*, %"class.std::__1::basic_string"*)*** %121, align 8
  %123 = getelementptr inbounds i1 (%"class.i18n::phonenumbers::RegExp"*, %"class.i18n::phonenumbers::RegExpInput"*, i1, %"class.std::__1::basic_string"*, %"class.std::__1::basic_string"*, %"class.std::__1::basic_string"*)*, i1 (%"class.i18n::phonenumbers::RegExp"*, %"class.i18n::phonenumbers::RegExpInput"*, i1, %"class.std::__1::basic_string"*, %"class.std::__1::basic_string"*, %"class.std::__1::basic_string"*)** %122, i64 2
  %124 = load i1 (%"class.i18n::phonenumbers::RegExp"*, %"class.i18n::phonenumbers::RegExpInput"*, i1, %"class.std::__1::basic_string"*, %"class.std::__1::basic_string"*, %"class.std::__1::basic_string"*)*, i1 (%"class.i18n::phonenumbers::RegExp"*, %"class.i18n::phonenumbers::RegExpInput"*, i1, %"class.std::__1::basic_string"*, %"class.std::__1::basic_string"*, %"class.std::__1::basic_string"*)** %123, align 8
  %125 = call zeroext i1 %124(%"class.i18n::phonenumbers::RegExp"* %120, %"class.i18n::phonenumbers::RegExpInput"* %55, i1 zeroext false, %"class.std::__1::basic_string"* nonnull %5, %"class.std::__1::basic_string"* null, %"class.std::__1::basic_string"* null) #12
  br i1 %125, label %64, label %126

126:                                              ; preds = %117, %64, %110, %112, %46
  %127 = phi i32 [ 0, %46 ], [ 1, %112 ], [ 1, %110 ], [ 0, %64 ], [ 0, %117 ]
  %128 = load i8, i8* %30, align 1
  %129 = icmp slt i8 %128, 0
  br i1 %129, label %130, label %132

130:                                              ; preds = %126
  %131 = load i8*, i8** %19, align 8
  call void @_ZdlPv(i8* %131) #13
  br label %132

132:                                              ; preds = %126, %130
  call void @llvm.lifetime.end.p0i8(i64 24, i8* nonnull %18) #12
  %133 = icmp eq %"class.i18n::phonenumbers::RegExpInput"* %55, null
  br i1 %133, label %139, label %134

134:                                              ; preds = %132
  %135 = bitcast %"class.i18n::phonenumbers::RegExpInput"* %55 to void (%"class.i18n::phonenumbers::RegExpInput"*)***
  %136 = load void (%"class.i18n::phonenumbers::RegExpInput"*)**, void (%"class.i18n::phonenumbers::RegExpInput"*)*** %135, align 8
  %137 = getelementptr inbounds void (%"class.i18n::phonenumbers::RegExpInput"*)*, void (%"class.i18n::phonenumbers::RegExpInput"*)** %136, i64 1
  %138 = load void (%"class.i18n::phonenumbers::RegExpInput"*)*, void (%"class.i18n::phonenumbers::RegExpInput"*)** %137, align 8
  call void %138(%"class.i18n::phonenumbers::RegExpInput"* nonnull %55) #12
  br label %139

139:                                              ; preds = %132, %134
  %140 = icmp eq i32 %127, 0
  %141 = getelementptr inbounds %"class.i18n::phonenumbers::RegExp"*, %"class.i18n::phonenumbers::RegExp"** %48, i64 1
  br i1 %140, label %39, label %142

142:                                              ; preds = %139, %39, %4
  %143 = phi i1 [ false, %4 ], [ false, %39 ], [ true, %139 ]
  ret i1 %143
}

declare void @_ZNK4i18n12phonenumbers15PhoneNumberUtil20TrimUnwantedEndCharsEPNSt3__112basic_stringIcNS2_11char_traitsIcEENS2_9allocatorIcEEEE(%"class.i18n::phonenumbers::PhoneNumberUtil"*, %"class.std::__1::basic_string"*) local_unnamed_addr #1

; Function Attrs: nounwind ssp uwtable
define hidden zeroext i1 @_ZN4i18n12phonenumbers18PhoneNumberMatcher12ExtractMatchERKNSt3__112basic_stringIcNS2_11char_traitsIcEENS2_9allocatorIcEEEEiPNS0_16PhoneNumberMatchE(%"class.i18n::phonenumbers::PhoneNumberMatcher"*, %"class.std::__1::basic_string"* dereferenceable(24), i32, %"class.i18n::phonenumbers::PhoneNumberMatch"*) local_unnamed_addr #0 align 2 {
  %5 = alloca %"class.std::__1::basic_string", align 8
  %6 = getelementptr inbounds %"class.i18n::phonenumbers::PhoneNumberMatcher", %"class.i18n::phonenumbers::PhoneNumberMatcher"* %0, i64 0, i32 0
  %7 = load %"class.i18n::phonenumbers::PhoneNumberMatcherRegExps"*, %"class.i18n::phonenumbers::PhoneNumberMatcherRegExps"** %6, align 8
  %8 = getelementptr inbounds %"class.i18n::phonenumbers::PhoneNumberMatcherRegExps", %"class.i18n::phonenumbers::PhoneNumberMatcherRegExps"* %7, i64 0, i32 19, i32 0, i32 0, i32 0
  %9 = load %"class.i18n::phonenumbers::RegExp"*, %"class.i18n::phonenumbers::RegExp"** %8, align 8
