; ModuleID = '../../chrome/browser/vr/platform_ui_input_delegate.cc'
source_filename = "../../chrome/browser/vr/platform_ui_input_delegate.cc"
target datalayout = "e-m:e-i64:64-f80:128-n8:16:32:64-S128"
target triple = "x86_64-unknown-linux-gnu"

module asm ".symver exp, exp@GLIBC_2.2.5"
module asm ".symver exp2, exp2@GLIBC_2.2.5"
module asm ".symver exp2f, exp2f@GLIBC_2.2.5"
module asm ".symver expf, expf@GLIBC_2.2.5"
module asm ".symver lgamma, lgamma@GLIBC_2.2.5"
module asm ".symver lgammaf, lgammaf@GLIBC_2.2.5"
module asm ".symver lgammal, lgammal@GLIBC_2.2.5"
module asm ".symver log, log@GLIBC_2.2.5"
module asm ".symver log2, log2@GLIBC_2.2.5"
module asm ".symver log2f, log2f@GLIBC_2.2.5"
module asm ".symver logf, logf@GLIBC_2.2.5"
module asm ".symver pow, pow@GLIBC_2.2.5"
module asm ".symver powf, powf@GLIBC_2.2.5"

%"class.vr::PlatformUiInputDelegate" = type { i32 (...)**, %"class.gfx::Size", %"class.vr::PlatformInputHandler"* }
%"class.gfx::Size" = type { i32, i32 }
%"class.vr::PlatformInputHandler" = type { i32 (...)** }
%"class.gfx::PointF" = type { float, float }
%"class.vr::InputEvent" = type { i32 (...)**, %struct.anon, i32, %"class.base::TimeTicks", %"class.gfx::PointF" }
%struct.anon = type { float, float }
%"class.base::TimeTicks" = type { %"class.base::time_internal::TimeBase" }
%"class.base::time_internal::TimeBase" = type { i64 }

@_ZTVN2vr23PlatformUiInputDelegateE = hidden unnamed_addr constant { [12 x i8*] } { [12 x i8*] [i8* null, i8* null, i8* bitcast (void (%"class.vr::PlatformUiInputDelegate"*)* @_ZN2vr23PlatformUiInputDelegateD2Ev to i8*), i8* bitcast (void (%"class.vr::PlatformUiInputDelegate"*)* @_ZN2vr23PlatformUiInputDelegateD0Ev to i8*), i8* bitcast (void (%"class.vr::PlatformUiInputDelegate"*, %"class.gfx::PointF"*, i64)* @_ZN2vr23PlatformUiInputDelegate12OnHoverEnterERKN3gfx6PointFEN4base9TimeTicksE to i8*), i8* bitcast (void (%"class.vr::PlatformUiInputDelegate"*, i64)* @_ZN2vr23PlatformUiInputDelegate12OnHoverLeaveEN4base9TimeTicksE to i8*), i8* bitcast (void (%"class.vr::PlatformUiInputDelegate"*, %"class.gfx::PointF"*, i64)* @_ZN2vr23PlatformUiInputDelegate11OnHoverMoveERKN3gfx6PointFEN4base9TimeTicksE to i8*), i8* bitcast (void (%"class.vr::PlatformUiInputDelegate"*, %"class.gfx::PointF"*, i64)* @_ZN2vr23PlatformUiInputDelegate12OnButtonDownERKN3gfx6PointFEN4base9TimeTicksE to i8*), i8* bitcast (void (%"class.vr::PlatformUiInputDelegate"*, %"class.gfx::PointF"*, i64)* @_ZN2vr23PlatformUiInputDelegate10OnButtonUpERKN3gfx6PointFEN4base9TimeTicksE to i8*), i8* bitcast (void (%"class.vr::PlatformUiInputDelegate"*, %"class.gfx::PointF"*, i64)* @_ZN2vr23PlatformUiInputDelegate11OnTouchMoveERKN3gfx6PointFEN4base9TimeTicksE to i8*), i8* bitcast (void (%"class.vr::PlatformUiInputDelegate"*, %"class.vr::InputEvent"*, %"class.gfx::PointF"*)* @_ZN2vr23PlatformUiInputDelegate12OnInputEventENSt3__110unique_ptrINS_10InputEventENS1_14default_deleteIS3_EEEERKN3gfx6PointFE to i8*), i8* bitcast (void (%"class.vr::PlatformUiInputDelegate"*, %"class.vr::InputEvent"*)* @_ZN2vr23PlatformUiInputDelegate19SendGestureToTargetENSt3__110unique_ptrINS_10InputEventENS1_14default_deleteIS3_EEEE to i8*)] }, align 8

@_ZN2vr23PlatformUiInputDelegateC1Ev = hidden unnamed_addr alias void (%"class.vr::PlatformUiInputDelegate"*), void (%"class.vr::PlatformUiInputDelegate"*)* @_ZN2vr23PlatformUiInputDelegateC2Ev
@_ZN2vr23PlatformUiInputDelegateC1EPNS_20PlatformInputHandlerE = hidden unnamed_addr alias void (%"class.vr::PlatformUiInputDelegate"*, %"class.vr::PlatformInputHandler"*), void (%"class.vr::PlatformUiInputDelegate"*, %"class.vr::PlatformInputHandler"*)* @_ZN2vr23PlatformUiInputDelegateC2EPNS_20PlatformInputHandlerE
@_ZN2vr23PlatformUiInputDelegateD1Ev = hidden unnamed_addr alias void (%"class.vr::PlatformUiInputDelegate"*), void (%"class.vr::PlatformUiInputDelegate"*)* @_ZN2vr23PlatformUiInputDelegateD2Ev

; Function Attrs: nofree norecurse nounwind ssp uwtable writeonly
define hidden void @_ZN2vr23PlatformUiInputDelegateC2Ev(%"class.vr::PlatformUiInputDelegate"* nocapture) unnamed_addr #0 align 2 {
  %2 = getelementptr inbounds %"class.vr::PlatformUiInputDelegate", %"class.vr::PlatformUiInputDelegate"* %0, i64 0, i32 0
  store i32 (...)** bitcast (i8** getelementptr inbounds ({ [12 x i8*] }, { [12 x i8*] }* @_ZTVN2vr23PlatformUiInputDelegateE, i64 0, inrange i32 0, i64 2) to i32 (...)**), i32 (...)*** %2, align 8
  %3 = getelementptr inbounds %"class.vr::PlatformUiInputDelegate", %"class.vr::PlatformUiInputDelegate"* %0, i64 0, i32 1, i32 0
  %4 = bitcast i32* %3 to i8*
  call void @llvm.memset.p0i8.i64(i8* align 4 %4, i8 0, i64 16, i1 false)
  ret void
}

; Function Attrs: nofree norecurse nounwind ssp uwtable writeonly
define hidden void @_ZN2vr23PlatformUiInputDelegateC2EPNS_20PlatformInputHandlerE(%"class.vr::PlatformUiInputDelegate"* nocapture, %"class.vr::PlatformInputHandler"*) unnamed_addr #0 align 2 {
  %3 = getelementptr inbounds %"class.vr::PlatformUiInputDelegate", %"class.vr::PlatformUiInputDelegate"* %0, i64 0, i32 0
  store i32 (...)** bitcast (i8** getelementptr inbounds ({ [12 x i8*] }, { [12 x i8*] }* @_ZTVN2vr23PlatformUiInputDelegateE, i64 0, inrange i32 0, i64 2) to i32 (...)**), i32 (...)*** %3, align 8
  %4 = getelementptr inbounds %"class.vr::PlatformUiInputDelegate", %"class.vr::PlatformUiInputDelegate"* %0, i64 0, i32 1, i32 0
  store i32 0, i32* %4, align 4
  %5 = getelementptr inbounds %"class.vr::PlatformUiInputDelegate", %"class.vr::PlatformUiInputDelegate"* %0, i64 0, i32 1, i32 1
  store i32 0, i32* %5, align 4
  %6 = getelementptr inbounds %"class.vr::PlatformUiInputDelegate", %"class.vr::PlatformUiInputDelegate"* %0, i64 0, i32 2
  store %"class.vr::PlatformInputHandler"* %1, %"class.vr::PlatformInputHandler"** %6, align 8
  ret void
}

; Function Attrs: norecurse nounwind readnone ssp uwtable
define hidden void @_ZN2vr23PlatformUiInputDelegateD2Ev(%"class.vr::PlatformUiInputDelegate"* nocapture) unnamed_addr #1 align 2 {
  ret void
}

; Function Attrs: nounwind ssp uwtable
define hidden void @_ZN2vr23PlatformUiInputDelegateD0Ev(%"class.vr::PlatformUiInputDelegate"*) unnamed_addr #2 align 2 {
  %2 = bitcast %"class.vr::PlatformUiInputDelegate"* %0 to i8*
  tail call void @_ZdlPv(i8* %2) #9
  ret void
}

; Function Attrs: nobuiltin nounwind
declare void @_ZdlPv(i8*) local_unnamed_addr #3

; Function Attrs: nounwind ssp uwtable
define hidden void @_ZN2vr23PlatformUiInputDelegate12OnHoverEnterERKN3gfx6PointFEN4base9TimeTicksE(%"class.vr::PlatformUiInputDelegate"*, %"class.gfx::PointF"* nocapture readonly dereferenceable(8), i64) unnamed_addr #2 align 2 {
  %4 = getelementptr inbounds %"class.vr::PlatformUiInputDelegate", %"class.vr::PlatformUiInputDelegate"* %0, i64 0, i32 1, i32 0
  %5 = load i32, i32* %4, align 4
  %6 = sitofp i32 %5 to float
  %7 = getelementptr inbounds %"class.gfx::PointF", %"class.gfx::PointF"* %1, i64 0, i32 0
  %8 = load float, float* %7, align 4
  %9 = fmul float %8, %6
  %10 = fptosi float %9 to i32
  %11 = getelementptr inbounds %"class.vr::PlatformUiInputDelegate", %"class.vr::PlatformUiInputDelegate"* %0, i64 0, i32 1, i32 1
  %12 = load i32, i32* %11, align 4
  %13 = sitofp i32 %12 to float
  %14 = getelementptr inbounds %"class.gfx::PointF", %"class.gfx::PointF"* %1, i64 0, i32 1
  %15 = load float, float* %14, align 4
  %16 = fmul float %15, %13
  %17 = fptosi float %16 to i32
  %18 = tail call i8* @_Znwm(i64 40) #9
  %19 = bitcast i8* %18 to %"class.vr::InputEvent"*
  tail call void @_ZN2vr10InputEventC1ENS0_4TypeE(%"class.vr::InputEvent"* nonnull %19, i32 0) #10
  %20 = getelementptr inbounds i8, i8* %18, i64 24
  %21 = bitcast i8* %20 to i64*
  store i64 %2, i64* %21, align 8
  %22 = sitofp i32 %10 to float
  %23 = sitofp i32 %17 to float
  %24 = getelementptr inbounds i8, i8* %18, i64 32
  %25 = bitcast i8* %24 to float*
  store float %22, float* %25, align 8
  %26 = getelementptr inbounds i8, i8* %18, i64 36
  %27 = bitcast i8* %26 to float*
  store float %23, float* %27, align 4
  %28 = bitcast %"class.vr::PlatformUiInputDelegate"* %0 to void (%"class.vr::PlatformUiInputDelegate"*, %"class.vr::InputEvent"*)***
  %29 = load void (%"class.vr::PlatformUiInputDelegate"*, %"class.vr::InputEvent"*)**, void (%"class.vr::PlatformUiInputDelegate"*, %"class.vr::InputEvent"*)*** %28, align 8
  %30 = getelementptr inbounds void (%"class.vr::PlatformUiInputDelegate"*, %"class.vr::InputEvent"*)*, void (%"class.vr::PlatformUiInputDelegate"*, %"class.vr::InputEvent"*)** %29, i64 9
  %31 = load void (%"class.vr::PlatformUiInputDelegate"*, %"class.vr::InputEvent"*)*, void (%"class.vr::PlatformUiInputDelegate"*, %"class.vr::InputEvent"*)** %30, align 8
  tail call void %31(%"class.vr::PlatformUiInputDelegate"* %0, %"class.vr::InputEvent"* nonnull %19) #10
  ret void
}

; Function Attrs: nounwind ssp uwtable
define hidden %"class.vr::InputEvent"* @_ZNK2vr23PlatformUiInputDelegate14MakeInputEventENS_10InputEvent4TypeERKN3gfx6PointFEN4base9TimeTicksE(%"class.vr::PlatformUiInputDelegate"* nocapture readonly, i32, %"class.gfx::PointF"* nocapture readonly dereferenceable(8), i64) local_unnamed_addr #2 align 2 {
  %5 = getelementptr inbounds %"class.vr::PlatformUiInputDelegate", %"class.vr::PlatformUiInputDelegate"* %0, i64 0, i32 1, i32 0
  %6 = load i32, i32* %5, align 4
  %7 = sitofp i32 %6 to float
  %8 = getelementptr inbounds %"class.gfx::PointF", %"class.gfx::PointF"* %2, i64 0, i32 0
  %9 = load float, float* %8, align 4
  %10 = fmul float %9, %7
  %11 = fptosi float %10 to i32
  %12 = getelementptr inbounds %"class.vr::PlatformUiInputDelegate", %"class.vr::PlatformUiInputDelegate"* %0, i64 0, i32 1, i32 1
  %13 = load i32, i32* %12, align 4
  %14 = sitofp i32 %13 to float
  %15 = getelementptr inbounds %"class.gfx::PointF", %"class.gfx::PointF"* %2, i64 0, i32 1
  %16 = load float, float* %15, align 4
  %17 = fmul float %16, %14
  %18 = fptosi float %17 to i32
  %19 = tail call i8* @_Znwm(i64 40) #9
  %20 = bitcast i8* %19 to %"class.vr::InputEvent"*
  tail call void @_ZN2vr10InputEventC1ENS0_4TypeE(%"class.vr::InputEvent"* nonnull %20, i32 %1) #10
  %21 = getelementptr inbounds i8, i8* %19, i64 24
  %22 = bitcast i8* %21 to i64*
  store i64 %3, i64* %22, align 8
  %23 = sitofp i32 %11 to float
  %24 = sitofp i32 %18 to float
  %25 = getelementptr inbounds i8, i8* %19, i64 32
  %26 = bitcast i8* %25 to float*
  store float %23, float* %26, align 8
  %27 = getelementptr inbounds i8, i8* %19, i64 36
  %28 = bitcast i8* %27 to float*
  store float %24, float* %28, align 4
  ret %"class.vr::InputEvent"* %20
}

; Function Attrs: nounwind ssp uwtable
define hidden void @_ZN2vr23PlatformUiInputDelegate12OnHoverLeaveEN4base9TimeTicksE(%"class.vr::PlatformUiInputDelegate"*, i64) unnamed_addr #2 align 2 {
  %3 = getelementptr inbounds %"class.vr::PlatformUiInputDelegate", %"class.vr::PlatformUiInputDelegate"* %0, i64 0, i32 1, i32 0
  %4 = load i32, i32* %3, align 4
  %5 = sitofp i32 %4 to float
  %6 = fmul float %5, -5.000000e-01
  %7 = fptosi float %6 to i32
  %8 = getelementptr inbounds %"class.vr::PlatformUiInputDelegate", %"class.vr::PlatformUiInputDelegate"* %0, i64 0, i32 1, i32 1
  %9 = load i32, i32* %8, align 4
  %10 = sitofp i32 %9 to float
  %11 = fmul float %10, -5.000000e-01
  %12 = fptosi float %11 to i32
  %13 = tail call i8* @_Znwm(i64 40) #9
  %14 = bitcast i8* %13 to %"class.vr::InputEvent"*
  tail call void @_ZN2vr10InputEventC1ENS0_4TypeE(%"class.vr::InputEvent"* nonnull %14, i32 1) #10
  %15 = getelementptr inbounds i8, i8* %13, i64 24
  %16 = bitcast i8* %15 to i64*
  store i64 %1, i64* %16, align 8
  %17 = sitofp i32 %7 to float
  %18 = sitofp i32 %12 to float
  %19 = getelementptr inbounds i8, i8* %13, i64 32
  %20 = bitcast i8* %19 to float*
  store float %17, float* %20, align 8
  %21 = getelementptr inbounds i8, i8* %13, i64 36
  %22 = bitcast i8* %21 to float*
  store float %18, float* %22, align 4
  %23 = bitcast %"class.vr::PlatformUiInputDelegate"* %0 to void (%"class.vr::PlatformUiInputDelegate"*, %"class.vr::InputEvent"*)***
  %24 = load void (%"class.vr::PlatformUiInputDelegate"*, %"class.vr::InputEvent"*)**, void (%"class.vr::PlatformUiInputDelegate"*, %"class.vr::InputEvent"*)*** %23, align 8
  %25 = getelementptr inbounds void (%"class.vr::PlatformUiInputDelegate"*, %"class.vr::InputEvent"*)*, void (%"class.vr::PlatformUiInputDelegate"*, %"class.vr::InputEvent"*)** %24, i64 9
  %26 = load void (%"class.vr::PlatformUiInputDelegate"*, %"class.vr::InputEvent"*)*, void (%"class.vr::PlatformUiInputDelegate"*, %"class.vr::InputEvent"*)** %25, align 8
  tail call void %26(%"class.vr::PlatformUiInputDelegate"* %0, %"class.vr::InputEvent"* nonnull %14) #10
  ret void
}

; Function Attrs: nounwind ssp uwtable
define hidden void @_ZN2vr23PlatformUiInputDelegate11OnHoverMoveERKN3gfx6PointFEN4base9TimeTicksE(%"class.vr::PlatformUiInputDelegate"*, %"class.gfx::PointF"* nocapture readonly dereferenceable(8), i64) unnamed_addr #2 align 2 {
  %4 = getelementptr inbounds %"class.vr::PlatformUiInputDelegate", %"class.vr::PlatformUiInputDelegate"* %0, i64 0, i32 1, i32 0
  %5 = load i32, i32* %4, align 4
  %6 = sitofp i32 %5 to float
  %7 = getelementptr inbounds %"class.gfx::PointF", %"class.gfx::PointF"* %1, i64 0, i32 0
  %8 = load float, float* %7, align 4
  %9 = fmul float %8, %6
  %10 = fptosi float %9 to i32
  %11 = getelementptr inbounds %"class.vr::PlatformUiInputDelegate", %"class.vr::PlatformUiInputDelegate"* %0, i64 0, i32 1, i32 1
  %12 = load i32, i32* %11, align 4
  %13 = sitofp i32 %12 to float
  %14 = getelementptr inbounds %"class.gfx::PointF", %"class.gfx::PointF"* %1, i64 0, i32 1
  %15 = load float, float* %14, align 4
  %16 = fmul float %15, %13
  %17 = fptosi float %16 to i32
  %18 = tail call i8* @_Znwm(i64 40) #9
  %19 = bitcast i8* %18 to %"class.vr::InputEvent"*
  tail call void @_ZN2vr10InputEventC1ENS0_4TypeE(%"class.vr::InputEvent"* nonnull %19, i32 2) #10
  %20 = getelementptr inbounds i8, i8* %18, i64 24
  %21 = bitcast i8* %20 to i64*
  store i64 %2, i64* %21, align 8
  %22 = sitofp i32 %10 to float
  %23 = sitofp i32 %17 to float
  %24 = getelementptr inbounds i8, i8* %18, i64 32
  %25 = bitcast i8* %24 to float*
  store float %22, float* %25, align 8
  %26 = getelementptr inbounds i8, i8* %18, i64 36
  %27 = bitcast i8* %26 to float*
  store float %23, float* %27, align 4
  %28 = bitcast %"class.vr::PlatformUiInputDelegate"* %0 to void (%"class.vr::PlatformUiInputDelegate"*, %"class.vr::InputEvent"*)***
  %29 = load void (%"class.vr::PlatformUiInputDelegate"*, %"class.vr::InputEvent"*)**, void (%"class.vr::PlatformUiInputDelegate"*, %"class.vr::InputEvent"*)*** %28, align 8
  %30 = getelementptr inbounds void (%"class.vr::PlatformUiInputDelegate"*, %"class.vr::InputEvent"*)*, void (%"class.vr::PlatformUiInputDelegate"*, %"class.vr::InputEvent"*)** %29, i64 9
  %31 = load void (%"class.vr::PlatformUiInputDelegate"*, %"class.vr::InputEvent"*)*, void (%"class.vr::PlatformUiInputDelegate"*, %"class.vr::InputEvent"*)** %30, align 8
  tail call void %31(%"class.vr::PlatformUiInputDelegate"* %0, %"class.vr::InputEvent"* nonnull %19) #10
  ret void
}

; Function Attrs: nounwind ssp uwtable
define hidden void @_ZN2vr23PlatformUiInputDelegate12OnButtonDownERKN3gfx6PointFEN4base9TimeTicksE(%"class.vr::PlatformUiInputDelegate"*, %"class.gfx::PointF"* nocapture readonly dereferenceable(8), i64) unnamed_addr #2 align 2 {
  %4 = getelementptr inbounds %"class.vr::PlatformUiInputDelegate", %"class.vr::PlatformUiInputDelegate"* %0, i64 0, i32 1, i32 0
  %5 = load i32, i32* %4, align 4
  %6 = sitofp i32 %5 to float
  %7 = getelementptr inbounds %"class.gfx::PointF", %"class.gfx::PointF"* %1, i64 0, i32 0
  %8 = load float, float* %7, align 4
  %9 = fmul float %8, %6
  %10 = fptosi float %9 to i32
  %11 = getelementptr inbounds %"class.vr::PlatformUiInputDelegate", %"class.vr::PlatformUiInputDelegate"* %0, i64 0, i32 1, i32 1
  %12 = load i32, i32* %11, align 4
  %13 = sitofp i32 %12 to float
  %14 = getelementptr inbounds %"class.gfx::PointF", %"class.gfx::PointF"* %1, i64 0, i32 1
  %15 = load float, float* %14, align 4
  %16 = fmul float %15, %13
  %17 = fptosi float %16 to i32
  %18 = tail call i8* @_Znwm(i64 40) #9
  %19 = bitcast i8* %18 to %"class.vr::InputEvent"*
  tail call void @_ZN2vr10InputEventC1ENS0_4TypeE(%"class.vr::InputEvent"* nonnull %19, i32 3) #10
  %20 = getelementptr inbounds i8, i8* %18, i64 24
  %21 = bitcast i8* %20 to i64*
  store i64 %2, i64* %21, align 8
  %22 = sitofp i32 %10 to float
  %23 = sitofp i32 %17 to float
  %24 = getelementptr inbounds i8, i8* %18, i64 32
  %25 = bitcast i8* %24 to float*
  store float %22, float* %25, align 8
  %26 = getelementptr inbounds i8, i8* %18, i64 36
  %27 = bitcast i8* %26 to float*
  store float %23, float* %27, align 4
  %28 = bitcast %"class.vr::PlatformUiInputDelegate"* %0 to void (%"class.vr::PlatformUiInputDelegate"*, %"class.vr::InputEvent"*)***
  %29 = load void (%"class.vr::PlatformUiInputDelegate"*, %"class.vr::InputEvent"*)**, void (%"class.vr::PlatformUiInputDelegate"*, %"class.vr::InputEvent"*)*** %28, align 8
  %30 = getelementptr inbounds void (%"class.vr::PlatformUiInputDelegate"*, %"class.vr::InputEvent"*)*, void (%"class.vr::PlatformUiInputDelegate"*, %"class.vr::InputEvent"*)** %29, i64 9
  %31 = load void (%"class.vr::PlatformUiInputDelegate"*, %"class.vr::InputEvent"*)*, void (%"class.vr::PlatformUiInputDelegate"*, %"class.vr::InputEvent"*)** %30, align 8
  tail call void %31(%"class.vr::PlatformUiInputDelegate"* %0, %"class.vr::InputEvent"* nonnull %19) #10
  ret void
}

; Function Attrs: nounwind ssp uwtable
define hidden void @_ZN2vr23PlatformUiInputDelegate10OnButtonUpERKN3gfx6PointFEN4base9TimeTicksE(%"class.vr::PlatformUiInputDelegate"*, %"class.gfx::PointF"* nocapture readonly dereferenceable(8), i64) unnamed_addr #2 align 2 {
  %4 = getelementptr inbounds %"class.vr::PlatformUiInputDelegate", %"class.vr::PlatformUiInputDelegate"* %0, i64 0, i32 1, i32 0
  %5 = load i32, i32* %4, align 4
  %6 = sitofp i32 %5 to float
  %7 = getelementptr inbounds %"class.gfx::PointF", %"class.gfx::PointF"* %1, i64 0, i32 0
  %8 = load float, float* %7, align 4
  %9 = fmul float %8, %6
  %10 = fptosi float %9 to i32
  %11 = getelementptr inbounds %"class.vr::PlatformUiInputDelegate", %"class.vr::PlatformUiInputDelegate"* %0, i64 0, i32 1, i32 1
  %12 = load i32, i32* %11, align 4
  %13 = sitofp i32 %12 to float
  %14 = getelementptr inbounds %"class.gfx::PointF", %"class.gfx::PointF"* %1, i64 0, i32 1
  %15 = load float, float* %14, align 4
  %16 = fmul float %15, %13
  %17 = fptosi float %16 to i32
  %18 = tail call i8* @_Znwm(i64 40) #9
  %19 = bitcast i8* %18 to %"class.vr::InputEvent"*
  tail call void @_ZN2vr10InputEventC1ENS0_4TypeE(%"class.vr::InputEvent"* nonnull %19, i32 4) #10
  %20 = getelementptr inbounds i8, i8* %18, i64 24
  %21 = bitcast i8* %20 to i64*
  store i64 %2, i64* %21, align 8
  %22 = sitofp i32 %10 to float
  %23 = sitofp i32 %17 to float
  %24 = getelementptr inbounds i8, i8* %18, i64 32
  %25 = bitcast i8* %24 to float*
  store float %22, float* %25, align 8
  %26 = getelementptr inbounds i8, i8* %18, i64 36
  %27 = bitcast i8* %26 to float*
  store float %23, float* %27, align 4
  %28 = bitcast %"class.vr::PlatformUiInputDelegate"* %0 to void (%"class.vr::PlatformUiInputDelegate"*, %"class.vr::InputEvent"*)***
  %29 = load void (%"class.vr::PlatformUiInputDelegate"*, %"class.vr::InputEvent"*)**, void (%"class.vr::PlatformUiInputDelegate"*, %"class.vr::InputEvent"*)*** %28, align 8
  %30 = getelementptr inbounds void (%"class.vr::PlatformUiInputDelegate"*, %"class.vr::InputEvent"*)*, void (%"class.vr::PlatformUiInputDelegate"*, %"class.vr::InputEvent"*)** %29, i64 9
  %31 = load void (%"class.vr::PlatformUiInputDelegate"*, %"class.vr::InputEvent"*)*, void (%"class.vr::PlatformUiInputDelegate"*, %"class.vr::InputEvent"*)** %30, align 8
  tail call void %31(%"class.vr::PlatformUiInputDelegate"* %0, %"class.vr::InputEvent"* nonnull %19) #10
  ret void
}

; Function Attrs: nounwind ssp uwtable
define hidden void @_ZN2vr23PlatformUiInputDelegate11OnTouchMoveERKN3gfx6PointFEN4base9TimeTicksE(%"class.vr::PlatformUiInputDelegate"*, %"class.gfx::PointF"* nocapture readonly dereferenceable(8), i64) unnamed_addr #2 align 2 {
  %4 = getelementptr inbounds %"class.vr::PlatformUiInputDelegate", %"class.vr::PlatformUiInputDelegate"* %0, i64 0, i32 1, i32 0
  %5 = load i32, i32* %4, align 4
  %6 = sitofp i32 %5 to float
  %7 = getelementptr inbounds %"class.gfx::PointF", %"class.gfx::PointF"* %1, i64 0, i32 0
  %8 = load float, float* %7, align 4
  %9 = fmul float %8, %6
  %10 = fptosi float %9 to i32
  %11 = getelementptr inbounds %"class.vr::PlatformUiInputDelegate", %"class.vr::PlatformUiInputDelegate"* %0, i64 0, i32 1, i32 1
  %12 = load i32, i32* %11, align 4
  %13 = sitofp i32 %12 to float
  %14 = getelementptr inbounds %"class.gfx::PointF", %"class.gfx::PointF"* %1, i64 0, i32 1
  %15 = load float, float* %14, align 4
  %16 = fmul float %15, %13
  %17 = fptosi float %16 to i32
  %18 = tail call i8* @_Znwm(i64 40) #9
  %19 = bitcast i8* %18 to %"class.vr::InputEvent"*
  tail call void @_ZN2vr10InputEventC1ENS0_4TypeE(%"class.vr::InputEvent"* nonnull %19, i32 5) #10
  %20 = getelementptr inbounds i8, i8* %18, i64 24
  %21 = bitcast i8* %20 to i64*
  store i64 %2, i64* %21, align 8
  %22 = sitofp i32 %10 to float
  %23 = sitofp i32 %17 to float
  %24 = getelementptr inbounds i8, i8* %18, i64 32
  %25 = bitcast i8* %24 to float*
  store float %22, float* %25, align 8
  %26 = getelementptr inbounds i8, i8* %18, i64 36
  %27 = bitcast i8* %26 to float*
  store float %23, float* %27, align 4
  %28 = bitcast %"class.vr::PlatformUiInputDelegate"* %0 to void (%"class.vr::PlatformUiInputDelegate"*, %"class.vr::InputEvent"*)***
  %29 = load void (%"class.vr::PlatformUiInputDelegate"*, %"class.vr::InputEvent"*)**, void (%"class.vr::PlatformUiInputDelegate"*, %"class.vr::InputEvent"*)*** %28, align 8
  %30 = getelementptr inbounds void (%"class.vr::PlatformUiInputDelegate"*, %"class.vr::InputEvent"*)*, void (%"class.vr::PlatformUiInputDelegate"*, %"class.vr::InputEvent"*)** %29, i64 9
  %31 = load void (%"class.vr::PlatformUiInputDelegate"*, %"class.vr::InputEvent"*)*, void (%"class.vr::PlatformUiInputDelegate"*, %"class.vr::InputEvent"*)** %30, align 8
  tail call void %31(%"class.vr::PlatformUiInputDelegate"* %0, %"class.vr::InputEvent"* nonnull %19) #10
  ret void
}

; Function Attrs: nounwind ssp uwtable
define hidden void @_ZN2vr23PlatformUiInputDelegate12OnInputEventENSt3__110unique_ptrINS_10InputEventENS1_14default_deleteIS3_EEEERKN3gfx6PointFE(%"class.vr::PlatformUiInputDelegate"*, %"class.vr::InputEvent"*, %"class.gfx::PointF"* dereferenceable(8)) unnamed_addr #4 align 2 {
  %4 = getelementptr inbounds %"class.vr::PlatformUiInputDelegate", %"class.vr::PlatformUiInputDelegate"* %0, i64 0, i32 1, i32 0
  %5 = load i32, i32* %4, align 4
  %6 = sitofp i32 %5 to float
  %7 = getelementptr inbounds %"class.vr::PlatformUiInputDelegate", %"class.vr::PlatformUiInputDelegate"* %0, i64 0, i32 1, i32 1
  %8 = load i32, i32* %7, align 4
  %9 = sitofp i32 %8 to float
  %10 = tail call <2 x float> @_ZN3gfx10ScalePointERKNS_6PointFEff(%"class.gfx::PointF"* dereferenceable(8) %2, float %6, float %9) #10
  %11 = getelementptr inbounds %"class.vr::InputEvent", %"class.vr::InputEvent"* %1, i64 0, i32 4
  %12 = bitcast %"class.gfx::PointF"* %11 to <2 x float>*
  store <2 x float> %10, <2 x float>* %12, align 8
  %13 = bitcast %"class.vr::PlatformUiInputDelegate"* %0 to void (%"class.vr::PlatformUiInputDelegate"*, %"class.vr::InputEvent"*)***
  %14 = load void (%"class.vr::PlatformUiInputDelegate"*, %"class.vr::InputEvent"*)**, void (%"class.vr::PlatformUiInputDelegate"*, %"class.vr::InputEvent"*)*** %13, align 8
  %15 = getelementptr inbounds void (%"class.vr::PlatformUiInputDelegate"*, %"class.vr::InputEvent"*)*, void (%"class.vr::PlatformUiInputDelegate"*, %"class.vr::InputEvent"*)** %14, i64 9
  %16 = load void (%"class.vr::PlatformUiInputDelegate"*, %"class.vr::InputEvent"*)*, void (%"class.vr::PlatformUiInputDelegate"*, %"class.vr::InputEvent"*)** %15, align 8
  tail call void %16(%"class.vr::PlatformUiInputDelegate"* %0, %"class.vr::InputEvent"* %1) #10
  ret void
}

; Function Attrs: nounwind ssp uwtable
define hidden void @_ZN2vr23PlatformUiInputDelegate13UpdateGestureERKN3gfx6PointFEPNS_10InputEventE(%"class.vr::PlatformUiInputDelegate"* nocapture readonly, %"class.gfx::PointF"* dereferenceable(8), %"class.vr::InputEvent"* nocapture) local_unnamed_addr #4 align 2 {
  %4 = getelementptr inbounds %"class.vr::PlatformUiInputDelegate", %"class.vr::PlatformUiInputDelegate"* %0, i64 0, i32 1, i32 0
  %5 = load i32, i32* %4, align 4
  %6 = sitofp i32 %5 to float
  %7 = getelementptr inbounds %"class.vr::PlatformUiInputDelegate", %"class.vr::PlatformUiInputDelegate"* %0, i64 0, i32 1, i32 1
  %8 = load i32, i32* %7, align 4
  %9 = sitofp i32 %8 to float
  %10 = tail call <2 x float> @_ZN3gfx10ScalePointERKNS_6PointFEff(%"class.gfx::PointF"* dereferenceable(8) %1, float %6, float %9) #10
  %11 = getelementptr inbounds %"class.vr::InputEvent", %"class.vr::InputEvent"* %2, i64 0, i32 4
  %12 = bitcast %"class.gfx::PointF"* %11 to <2 x float>*
  store <2 x float> %10, <2 x float>* %12, align 8
  ret void
}

declare <2 x float> @_ZN3gfx10ScalePointERKNS_6PointFEff(%"class.gfx::PointF"* dereferenceable(8), float, float) local_unnamed_addr #5

; Function Attrs: nounwind ssp uwtable
define hidden void @_ZN2vr23PlatformUiInputDelegate19SendGestureToTargetENSt3__110unique_ptrINS_10InputEventENS1_14default_deleteIS3_EEEE(%"class.vr::PlatformUiInputDelegate"* nocapture readonly, %"class.vr::InputEvent"*) unnamed_addr #2 align 2 {
  %3 = icmp eq %"class.vr::InputEvent"* %1, null
  br i1 %3, label %18, label %4

4:                                                ; preds = %2
  %5 = getelementptr inbounds %"class.vr::PlatformUiInputDelegate", %"class.vr::PlatformUiInputDelegate"* %0, i64 0, i32 2
  %6 = load %"class.vr::PlatformInputHandler"*, %"class.vr::PlatformInputHandler"** %5, align 8
  %7 = icmp eq %"class.vr::PlatformInputHandler"* %6, null
  br i1 %7, label %13, label %8

8:                                                ; preds = %4
  %9 = bitcast %"class.vr::PlatformInputHandler"* %6 to void (%"class.vr::PlatformInputHandler"*, %"class.vr::InputEvent"*)***
  %10 = load void (%"class.vr::PlatformInputHandler"*, %"class.vr::InputEvent"*)**, void (%"class.vr::PlatformInputHandler"*, %"class.vr::InputEvent"*)*** %9, align 8
  %11 = getelementptr inbounds void (%"class.vr::PlatformInputHandler"*, %"class.vr::InputEvent"*)*, void (%"class.vr::PlatformInputHandler"*, %"class.vr::InputEvent"*)** %10, i64 2
  %12 = load void (%"class.vr::PlatformInputHandler"*, %"class.vr::InputEvent"*)*, void (%"class.vr::PlatformInputHandler"*, %"class.vr::InputEvent"*)** %11, align 8
  tail call void %12(%"class.vr::PlatformInputHandler"* nonnull %6, %"class.vr::InputEvent"* nonnull %1) #10
  br label %18

13:                                               ; preds = %4
  %14 = bitcast %"class.vr::InputEvent"* %1 to void (%"class.vr::InputEvent"*)***
  %15 = load void (%"class.vr::InputEvent"*)**, void (%"class.vr::InputEvent"*)*** %14, align 8
  %16 = getelementptr inbounds void (%"class.vr::InputEvent"*)*, void (%"class.vr::InputEvent"*)** %15, i64 1
  %17 = load void (%"class.vr::InputEvent"*)*, void (%"class.vr::InputEvent"*)** %16, align 8
  tail call void %17(%"class.vr::InputEvent"* nonnull %1) #10
  br label %18

18:                                               ; preds = %2, %8, %13
  ret void
}

; Function Attrs: norecurse nounwind readonly ssp uwtable
define hidden i64 @_ZNK2vr23PlatformUiInputDelegate17CalculateLocationERKN3gfx6PointFE(%"class.vr::PlatformUiInputDelegate"* nocapture readonly, %"class.gfx::PointF"* nocapture readonly dereferenceable(8)) local_unnamed_addr #6 align 2 {
  %3 = getelementptr inbounds %"class.vr::PlatformUiInputDelegate", %"class.vr::PlatformUiInputDelegate"* %0, i64 0, i32 1, i32 0
  %4 = load i32, i32* %3, align 4
  %5 = sitofp i32 %4 to float
  %6 = getelementptr inbounds %"class.gfx::PointF", %"class.gfx::PointF"* %1, i64 0, i32 0
  %7 = load float, float* %6, align 4
  %8 = fmul float %7, %5
  %9 = fptosi float %8 to i32
  %10 = getelementptr inbounds %"class.vr::PlatformUiInputDelegate", %"class.vr::PlatformUiInputDelegate"* %0, i64 0, i32 1, i32 1
  %11 = load i32, i32* %10, align 4
  %12 = sitofp i32 %11 to float
  %13 = getelementptr inbounds %"class.gfx::PointF", %"class.gfx::PointF"* %1, i64 0, i32 1
  %14 = load float, float* %13, align 4
  %15 = fmul float %14, %12
  %16 = fptosi float %15 to i32
  %17 = zext i32 %16 to i64
  %18 = shl nuw i64 %17, 32
  %19 = zext i32 %9 to i64
  %20 = or i64 %18, %19
  ret i64 %20
}

; Function Attrs: nobuiltin nofree
declare noalias nonnull i8* @_Znwm(i64) local_unnamed_addr #7

declare void @_ZN2vr10InputEventC1ENS0_4TypeE(%"class.vr::InputEvent"*, i32) unnamed_addr #5

; Function Attrs: argmemonly nounwind
declare void @llvm.memset.p0i8.i64(i8* nocapture writeonly, i8, i64, i1 immarg) #8

attributes #0 = { nofree norecurse nounwind ssp uwtable writeonly "correctly-rounded-divide-sqrt-fp-math"="false" "disable-tail-calls"="false" "less-precise-fpmad"="false" "min-legal-vector-width"="0" "no-frame-pointer-elim"="false" "no-frame-pointer-elim-non-leaf" "no-infs-fp-math"="false" "no-jump-tables"="false" "no-nans-fp-math"="false" "no-signed-zeros-fp-math"="false" "no-trapping-math"="false" "null-pointer-is-valid"="true" "stack-protector-buffer-size"="4" "target-cpu"="x86-64" "target-features"="+cx8,+fxsr,+mmx,+sse,+sse2,+sse3,+x87" "unsafe-fp-math"="false" "use-soft-float"="false" }
attributes #1 = { norecurse nounwind readnone ssp uwtable "correctly-rounded-divide-sqrt-fp-math"="false" "disable-tail-calls"="false" "less-precise-fpmad"="false" "min-legal-vector-width"="0" "no-frame-pointer-elim"="false" "no-frame-pointer-elim-non-leaf" "no-infs-fp-math"="false" "no-jump-tables"="false" "no-nans-fp-math"="false" "no-signed-zeros-fp-math"="false" "no-trapping-math"="false" "null-pointer-is-valid"="true" "stack-protector-buffer-size"="4" "target-cpu"="x86-64" "target-features"="+cx8,+fxsr,+mmx,+sse,+sse2,+sse3,+x87" "unsafe-fp-math"="false" "use-soft-float"="false" }
attributes #2 = { nounwind ssp uwtable "correctly-rounded-divide-sqrt-fp-math"="false" "disable-tail-calls"="false" "less-precise-fpmad"="false" "min-legal-vector-width"="0" "no-frame-pointer-elim"="false" "no-frame-pointer-elim-non-leaf" "no-infs-fp-math"="false" "no-jump-tables"="false" "no-nans-fp-math"="false" "no-signed-zeros-fp-math"="false" "no-trapping-math"="false" "null-pointer-is-valid"="true" "stack-protector-buffer-size"="4" "target-cpu"="x86-64" "target-features"="+cx8,+fxsr,+mmx,+sse,+sse2,+sse3,+x87" "unsafe-fp-math"="false" "use-soft-float"="false" }
attributes #3 = { nobuiltin nounwind "correctly-rounded-divide-sqrt-fp-math"="false" "disable-tail-calls"="false" "less-precise-fpmad"="false" "no-frame-pointer-elim"="false" "no-frame-pointer-elim-non-leaf" "no-infs-fp-math"="false" "no-nans-fp-math"="false" "no-signed-zeros-fp-math"="false" "no-trapping-math"="false" "null-pointer-is-valid"="true" "stack-protector-buffer-size"="4" "target-cpu"="x86-64" "target-features"="+cx8,+fxsr,+mmx,+sse,+sse2,+sse3,+x87" "unsafe-fp-math"="false" "use-soft-float"="false" }
attributes #4 = { nounwind ssp uwtable "correctly-rounded-divide-sqrt-fp-math"="false" "disable-tail-calls"="false" "less-precise-fpmad"="false" "min-legal-vector-width"="64" "no-frame-pointer-elim"="false" "no-frame-pointer-elim-non-leaf" "no-infs-fp-math"="false" "no-jump-tables"="false" "no-nans-fp-math"="false" "no-signed-zeros-fp-math"="false" "no-trapping-math"="false" "null-pointer-is-valid"="true" "stack-protector-buffer-size"="4" "target-cpu"="x86-64" "target-features"="+cx8,+fxsr,+mmx,+sse,+sse2,+sse3,+x87" "unsafe-fp-math"="false" "use-soft-float"="false" }
attributes #5 = { "correctly-rounded-divide-sqrt-fp-math"="false" "disable-tail-calls"="false" "less-precise-fpmad"="false" "no-frame-pointer-elim"="false" "no-frame-pointer-elim-non-leaf" "no-infs-fp-math"="false" "no-nans-fp-math"="false" "no-signed-zeros-fp-math"="false" "no-trapping-math"="false" "null-pointer-is-valid"="true" "stack-protector-buffer-size"="4" "target-cpu"="x86-64" "target-features"="+cx8,+fxsr,+mmx,+sse,+sse2,+sse3,+x87" "unsafe-fp-math"="false" "use-soft-float"="false" }
attributes #6 = { norecurse nounwind readonly ssp uwtable "correctly-rounded-divide-sqrt-fp-math"="false" "disable-tail-calls"="false" "less-precise-fpmad"="false" "min-legal-vector-width"="0" "no-frame-pointer-elim"="false" "no-frame-pointer-elim-non-leaf" "no-infs-fp-math"="false" "no-jump-tables"="false" "no-nans-fp-math"="false" "no-signed-zeros-fp-math"="false" "no-trapping-math"="false" "null-pointer-is-valid"="true" "stack-protector-buffer-size"="4" "target-cpu"="x86-64" "target-features"="+cx8,+fxsr,+mmx,+sse,+sse2,+sse3,+x87" "unsafe-fp-math"="false" "use-soft-float"="false" }
attributes #7 = { nobuiltin nofree "correctly-rounded-divide-sqrt-fp-math"="false" "disable-tail-calls"="false" "less-precise-fpmad"="false" "no-frame-pointer-elim"="false" "no-frame-pointer-elim-non-leaf" "no-infs-fp-math"="false" "no-nans-fp-math"="false" "no-signed-zeros-fp-math"="false" "no-trapping-math"="false" "null-pointer-is-valid"="true" "stack-protector-buffer-size"="4" "target-cpu"="x86-64" "target-features"="+cx8,+fxsr,+mmx,+sse,+sse2,+sse3,+x87" "unsafe-fp-math"="false" "use-soft-float"="false" }
attributes #8 = { argmemonly nounwind }
attributes #9 = { builtin nounwind }
attributes #10 = { nounwind }

!llvm.module.flags = !{!0, !1}

!0 = !{i32 1, !"wchar_size", i32 4}
!1 = !{i32 7, !"PIC Level", i32 2}
