; ModuleID = '../../chrome/browser/ui/webui/policy/policy_ui.cc'
source_filename = "../../chrome/browser/ui/webui/policy/policy_ui.cc"
target datalayout = "e-m:e-i64:64-f80:128-n8:16:32:64-S128"
target triple = "x86_64-unknown-linux-gnu"

module asm ".symver exp, exp@GLIBC_2.2.5"
module asm ".symver exp2, exp2@GLIBC_2.2.5"
module asm ".symver exp2f, exp2f@GLIBC_2.2.5"
module asm ".symver expf, expf@GLIBC_2.2.5"
module asm ".symver lgamma, lgamma@GLIBC_2.2.5"
module asm ".symver lgammaf, lgammaf@GLIBC_2.2.5"
module asm ".symver lgammal, lgammal@GLIBC_2.2.5"
module asm ".symver log, log@GLIBC_2.2.5"
module asm ".symver log2, log2@GLIBC_2.2.5"
module asm ".symver log2f, log2f@GLIBC_2.2.5"
module asm ".symver logf, logf@GLIBC_2.2.5"
module asm ".symver pow, pow@GLIBC_2.2.5"
module asm ".symver powf, powf@GLIBC_2.2.5"

%"struct.webui::LocalizedString" = type { i8*, i32 }
%class.PolicyUI = type { %"class.content::WebUIController" }
%"class.content::WebUIController" = type { i32 (...)**, %"class.content::WebUI"* }
%"class.content::WebUI" = type { i32 (...)** }
%"class.std::__1::basic_string" = type { %"class.std::__1::__compressed_pair.10" }
%"class.std::__1::__compressed_pair.10" = type { %"struct.std::__1::__compressed_pair_elem.11" }
%"struct.std::__1::__compressed_pair_elem.11" = type { %"struct.std::__1::basic_string<char, std::__1::char_traits<char>, std::__1::allocator<char> >::__rep" }
%"struct.std::__1::basic_string<char, std::__1::char_traits<char>, std::__1::allocator<char> >::__rep" = type { %union.anon }
%union.anon = type { %"struct.std::__1::basic_string<char, std::__1::char_traits<char>, std::__1::allocator<char> >::__long" }
%"struct.std::__1::basic_string<char, std::__1::char_traits<char>, std::__1::allocator<char> >::__long" = type { i8*, i64, i64 }
%class.PolicyUIHandler = type { %"class.content::WebUIMessageHandler", %"class.extensions::ExtensionRegistryObserver", %"class.policy::PolicyService::Observer", %"class.policy::SchemaRegistry::Observer", %"class.ui::SelectFileDialog::Listener", %"class.std::__1::basic_string", %class.scoped_refptr.13, %"class.std::__1::unique_ptr.21", %"class.std::__1::unique_ptr.21", %"class.std::__1::unique_ptr.21", %"class.std::__1::unique_ptr.21", %"class.std::__1::unique_ptr.27", %"class.base::WeakPtrFactory.33" }
%"class.content::WebUIMessageHandler" = type { i32 (...)**, i8, %"class.content::WebUI"* }
%"class.extensions::ExtensionRegistryObserver" = type { i32 (...)** }
%"class.policy::PolicyService::Observer" = type { %"class.base::CheckedObserver" }
%"class.base::CheckedObserver" = type { i32 (...)**, %"class.base::WeakPtrFactory" }
%"class.base::WeakPtrFactory" = type { %"class.base::internal::WeakPtrFactoryBase" }
%"class.base::internal::WeakPtrFactoryBase" = type { %"class.base::internal::WeakReferenceOwner", i64 }
%"class.base::internal::WeakReferenceOwner" = type { %class.scoped_refptr }
%class.scoped_refptr = type { %"class.base::internal::WeakReference::Flag"* }
%"class.base::internal::WeakReference::Flag" = type <{ %"class.base::RefCountedThreadSafe", %"class.base::AtomicFlag", [3 x i8] }>
%"class.base::RefCountedThreadSafe" = type { %"class.base::subtle::RefCountedThreadSafeBase" }
%"class.base::subtle::RefCountedThreadSafeBase" = type { %"class.base::AtomicRefCount" }
%"class.base::AtomicRefCount" = type { %"struct.std::__1::atomic" }
%"struct.std::__1::atomic" = type { %"struct.std::__1::__atomic_base" }
%"struct.std::__1::__atomic_base" = type { %"struct.std::__1::__atomic_base.4" }
%"struct.std::__1::__atomic_base.4" = type { %"struct.std::__1::__cxx_atomic_impl" }
%"struct.std::__1::__cxx_atomic_impl" = type { %"struct.std::__1::__cxx_atomic_base_impl" }
%"struct.std::__1::__cxx_atomic_base_impl" = type { i32 }
%"class.base::AtomicFlag" = type { %"struct.std::__1::atomic.5" }
%"struct.std::__1::atomic.5" = type { %"struct.std::__1::__atomic_base.6" }
%"struct.std::__1::__atomic_base.6" = type { %"struct.std::__1::__atomic_base.7" }
%"struct.std::__1::__atomic_base.7" = type { %"struct.std::__1::__cxx_atomic_impl.8" }
%"struct.std::__1::__cxx_atomic_impl.8" = type { %"struct.std::__1::__cxx_atomic_base_impl.9" }
%"struct.std::__1::__cxx_atomic_base_impl.9" = type { i8 }
%"class.policy::SchemaRegistry::Observer" = type { i32 (...)** }
%"class.ui::SelectFileDialog::Listener" = type { i32 (...)** }
%class.scoped_refptr.13 = type { %"class.ui::SelectFileDialog"* }
%"class.ui::SelectFileDialog" = type { %"class.ui::BaseShellDialog", %"class.base::RefCountedThreadSafe.14", %"class.ui::SelectFileDialog::Listener"*, %"class.std::__1::unique_ptr.15" }
%"class.ui::BaseShellDialog" = type { i32 (...)** }
%"class.base::RefCountedThreadSafe.14" = type { %"class.base::subtle::RefCountedThreadSafeBase" }
%"class.std::__1::unique_ptr.15" = type { %"class.std::__1::__compressed_pair.16" }
%"class.std::__1::__compressed_pair.16" = type { %"struct.std::__1::__compressed_pair_elem.17" }
%"struct.std::__1::__compressed_pair_elem.17" = type { %"class.ui::SelectFilePolicy"* }
%"class.ui::SelectFilePolicy" = type opaque
%"class.std::__1::unique_ptr.21" = type { %"class.std::__1::__compressed_pair.22" }
%"class.std::__1::__compressed_pair.22" = type { %"struct.std::__1::__compressed_pair_elem.23" }
%"struct.std::__1::__compressed_pair_elem.23" = type { %"class.policy::PolicyStatusProvider"* }
%"class.policy::PolicyStatusProvider" = type opaque
%"class.std::__1::unique_ptr.27" = type { %"class.std::__1::__compressed_pair.28" }
%"class.std::__1::__compressed_pair.28" = type { %"struct.std::__1::__compressed_pair_elem.29" }
%"struct.std::__1::__compressed_pair_elem.29" = type { %class.PrefChangeRegistrar* }
%class.PrefChangeRegistrar = type opaque
%"class.base::WeakPtrFactory.33" = type { %"class.base::internal::WeakPtrFactoryBase" }
%class.Profile = type { %"class.content::BrowserContext", %"class.std::__1::unique_ptr.51", i8, i8, i32, %"class.base::ObserverList", %"class.std::__1::unique_ptr.63" }
%"class.content::BrowserContext" = type { %"class.base::SupportsUserData.base", %"class.std::__1::unique_ptr.45" }
%"class.base::SupportsUserData.base" = type <{ i32 (...)**, %"class.std::__1::map", %"class.base::SequenceCheckerDoNothing" }>
%"class.std::__1::map" = type { %"class.std::__1::__tree" }
%"class.std::__1::__tree" = type { %"class.std::__1::__tree_end_node"*, %"class.std::__1::__compressed_pair.37", %"class.std::__1::__compressed_pair.42" }
%"class.std::__1::__tree_end_node" = type { %"class.std::__1::__tree_node_base"* }
%"class.std::__1::__tree_node_base" = type opaque
%"class.std::__1::__compressed_pair.37" = type { %"struct.std::__1::__compressed_pair_elem.38" }
%"struct.std::__1::__compressed_pair_elem.38" = type { %"class.std::__1::__tree_end_node" }
%"class.std::__1::__compressed_pair.42" = type { %"struct.std::__1::__compressed_pair_elem.43" }
%"struct.std::__1::__compressed_pair_elem.43" = type { i64 }
%"class.base::SequenceCheckerDoNothing" = type { i8 }
%"class.std::__1::unique_ptr.45" = type { %"class.std::__1::__compressed_pair.46" }
%"class.std::__1::__compressed_pair.46" = type { %"struct.std::__1::__compressed_pair_elem.47" }
%"struct.std::__1::__compressed_pair_elem.47" = type { %"class.content::BrowserContext::Impl"* }
%"class.content::BrowserContext::Impl" = type opaque
%"class.std::__1::unique_ptr.51" = type { %"class.std::__1::__compressed_pair.52" }
%"class.std::__1::__compressed_pair.52" = type { %"struct.std::__1::__compressed_pair_elem.53" }
%"struct.std::__1::__compressed_pair_elem.53" = type { %"class.content::ResourceContext"* }
%"class.content::ResourceContext" = type opaque
%"class.base::ObserverList" = type <{ %"class.std::__1::vector", %"class.base::LinkedList", i64, i32, [4 x i8] }>
%"class.std::__1::vector" = type { %"class.std::__1::__vector_base" }
%"class.std::__1::__vector_base" = type { %"class.base::internal::CheckedObserverAdapter"*, %"class.base::internal::CheckedObserverAdapter"*, %"class.std::__1::__compressed_pair.58" }
%"class.base::internal::CheckedObserverAdapter" = type { %"class.base::WeakPtr" }
%"class.base::WeakPtr" = type { %"class.base::internal::WeakPtrBase" }
%"class.base::internal::WeakPtrBase" = type { %"class.base::internal::WeakReference", i64 }
%"class.base::internal::WeakReference" = type { %class.scoped_refptr.57 }
%class.scoped_refptr.57 = type { %"class.base::internal::WeakReference::Flag"* }
%"class.std::__1::__compressed_pair.58" = type { %"struct.std::__1::__compressed_pair_elem.59" }
%"struct.std::__1::__compressed_pair_elem.59" = type { %"class.base::internal::CheckedObserverAdapter"* }
%"class.base::LinkedList" = type { %"class.base::LinkNode" }
%"class.base::LinkNode" = type { %"class.base::internal::LinkNodeBase" }
%"class.base::internal::LinkNodeBase" = type { %"class.base::internal::LinkNodeBase"*, %"class.base::internal::LinkNodeBase"* }
%"class.std::__1::unique_ptr.63" = type { %"class.std::__1::__compressed_pair.64" }
%"class.std::__1::__compressed_pair.64" = type { %"struct.std::__1::__compressed_pair_elem.65" }
%"struct.std::__1::__compressed_pair_elem.65" = type { %"class.variations::VariationsClient"* }
%"class.variations::VariationsClient" = type opaque
%"class.std::__1::__basic_string_common" = type { i8 }
%"struct.std::__1::basic_string<char, std::__1::char_traits<char>, std::__1::allocator<char> >::__short" = type { [23 x i8], %struct.anon }
%struct.anon = type { i8 }
%"class.content::WebUIDataSource" = type { i32 (...)** }
%class.GURL = type { %"class.std::__1::basic_string", i8, %"struct.url::Parsed", %"class.std::__1::unique_ptr.69" }
%"struct.url::Parsed" = type { %"struct.url::Component", %"struct.url::Component", %"struct.url::Component", %"struct.url::Component", %"struct.url::Component", %"struct.url::Component", %"struct.url::Component", %"struct.url::Component", i8, %"struct.url::Parsed"* }
%"struct.url::Component" = type { i32, i32 }
%"class.std::__1::unique_ptr.69" = type { %"class.std::__1::__compressed_pair.70" }
%"class.std::__1::__compressed_pair.70" = type { %"struct.std::__1::__compressed_pair_elem.71" }
%"struct.std::__1::__compressed_pair_elem.71" = type { %class.GURL* }
%"class.base::ListValue" = type { %"class.base::Value" }
%"class.base::Value" = type { %"class.absl::variant" }
%"class.absl::variant" = type { %"class.absl::variant_internal::VariantCopyAssignBaseNontrivial" }
%"class.absl::variant_internal::VariantCopyAssignBaseNontrivial" = type { %"class.absl::variant_internal::VariantMoveAssignBaseNontrivial" }
%"class.absl::variant_internal::VariantMoveAssignBaseNontrivial" = type { %"class.absl::variant_internal::VariantCopyBaseNontrivial" }
%"class.absl::variant_internal::VariantCopyBaseNontrivial" = type { %"class.absl::variant_internal::VariantMoveBaseNontrivial" }
%"class.absl::variant_internal::VariantMoveBaseNontrivial" = type { %"class.absl::variant_internal::VariantStateBaseDestructorNontrivial" }
%"class.absl::variant_internal::VariantStateBaseDestructorNontrivial" = type { %"class.absl::variant_internal::VariantStateBase" }
%"class.absl::variant_internal::VariantStateBase" = type { %"union.absl::variant_internal::DestructibleUnionImpl", i64 }
%"union.absl::variant_internal::DestructibleUnionImpl" = type { %"union.absl::variant_internal::DestructibleUnionImpl.75" }
%"union.absl::variant_internal::DestructibleUnionImpl.75" = type { %"union.absl::variant_internal::DestructibleUnionImpl.76" }
%"union.absl::variant_internal::DestructibleUnionImpl.76" = type { %"union.absl::variant_internal::DestructibleUnionImpl.77" }
%"union.absl::variant_internal::DestructibleUnionImpl.77" = type { %"union.absl::variant_internal::DestructibleUnionImpl.78" }
%"union.absl::variant_internal::DestructibleUnionImpl.78" = type { %"class.std::__1::basic_string" }
%"class.content::RenderFrameHost" = type opaque

$_ZN7content15WebUIController18RenderFrameCreatedEPNS_15RenderFrameHostE = comdat any

@_ZTV8PolicyUI = hidden unnamed_addr constant { [8 x i8*] } { [8 x i8*] [i8* null, i8* null, i8* bitcast (void (%class.PolicyUI*)* @_ZN8PolicyUID2Ev to i8*), i8* bitcast (void (%class.PolicyUI*)* @_ZN8PolicyUID0Ev to i8*), i8* bitcast (i1 (%"class.content::WebUIController"*, %class.GURL*, %"class.std::__1::basic_string"*, %"class.base::ListValue"*)* @_ZN7content15WebUIController26OverrideHandleWebUIMessageERK4GURLRKNSt3__112basic_stringIcNS4_11char_traitsIcEENS4_9allocatorIcEEEERKN4base9ListValueE to i8*), i8* bitcast (void (%"class.content::WebUIController"*, %"class.content::RenderFrameHost"*)* @_ZN7content15WebUIController18RenderFrameCreatedEPNS_15RenderFrameHostE to i8*), i8* bitcast (i1 (%"class.content::WebUIController"*)* @_ZN7content15WebUIController33IsJavascriptErrorReportingEnabledEv to i8*), i8* bitcast (i8* (%"class.content::WebUIController"*)* @_ZN7content15WebUIController7GetTypeEv to i8*)] }, align 8
@_ZN6chrome19kChromeUIPolicyHostE = external constant [0 x i8], align 1
@_ZZN12_GLOBAL__N_124CreatePolicyUIHtmlSourceEvE8kStrings = internal constant [42 x %"struct.webui::LocalizedString"] [%"struct.webui::LocalizedString" { i8* getelementptr inbounds ([17 x i8], [17 x i8]* @.str, i32 0, i32 0), i32 20448 }, %"struct.webui::LocalizedString" { i8* getelementptr inbounds ([19 x i8], [19 x i8]* @.str.1, i32 0, i32 0), i32 20355 }, %"struct.webui::LocalizedString" { i8* getelementptr inbounds ([18 x i8], [18 x i8]* @.str.2, i32 0, i32 0), i32 20351 }, %"struct.webui::LocalizedString" { i8* getelementptr inbounds ([19 x i8], [19 x i8]* @.str.3, i32 0, i32 0), i32 20425 }, %"struct.webui::LocalizedString" { i8* getelementptr inbounds ([16 x i8], [16 x i8]* @.str.4, i32 0, i32 0), i32 20441 }, %"struct.webui::LocalizedString" { i8* getelementptr inbounds ([15 x i8], [15 x i8]* @.str.5, i32 0, i32 0), i32 20442 }, %"struct.webui::LocalizedString" { i8* getelementptr inbounds ([13 x i8], [13 x i8]* @.str.6, i32 0, i32 0), i32 20368 }, %"struct.webui::LocalizedString" { i8* getelementptr inbounds ([14 x i8], [14 x i8]* @.str.7, i32 0, i32 0), i32 20367 }, %"struct.webui::LocalizedString" { i8* getelementptr inbounds ([20 x i8], [20 x i8]* @.str.8, i32 0, i32 0), i32 20370 }, %"struct.webui::LocalizedString" { i8* getelementptr inbounds ([12 x i8], [12 x i8]* @.str.9, i32 0, i32 0), i32 20366 }, %"struct.webui::LocalizedString" { i8* getelementptr inbounds ([18 x i8], [18 x i8]* @.str.10, i32 0, i32 0), i32 20440 }, %"struct.webui::LocalizedString" { i8* getelementptr inbounds ([14 x i8], [14 x i8]* @.str.11, i32 0, i32 0), i32 20369 }, %"struct.webui::LocalizedString" { i8* getelementptr inbounds ([29 x i8], [29 x i8]* @.str.12, i32 0, i32 0), i32 20361 }, %"struct.webui::LocalizedString" { i8* getelementptr inbounds ([34 x i8], [34 x i8]* @.str.13, i32 0, i32 0), i32 20364 }, %"struct.webui::LocalizedString" { i8* getelementptr inbounds ([28 x i8], [28 x i8]* @.str.14, i32 0, i32 0), i32 20362 }, %"struct.webui::LocalizedString" { i8* getelementptr inbounds ([32 x i8], [32 x i8]* @.str.15, i32 0, i32 0), i32 20363 }, %"struct.webui::LocalizedString" { i8* getelementptr inbounds ([22 x i8], [22 x i8]* @.str.16, i32 0, i32 0), i32 20443 }, %"struct.webui::LocalizedString" { i8* getelementptr inbounds ([18 x i8], [18 x i8]* @.str.17, i32 0, i32 0), i32 20375 }, %"struct.webui::LocalizedString" { i8* getelementptr inbounds ([21 x i8], [21 x i8]* @.str.18, i32 0, i32 0), i32 20379 }, %"struct.webui::LocalizedString" { i8* getelementptr inbounds ([12 x i8], [12 x i8]* @.str.19, i32 0, i32 0), i32 20390 }, %"struct.webui::LocalizedString" { i8* getelementptr inbounds ([26 x i8], [26 x i8]* @.str.20, i32 0, i32 0), i32 20372 }, %"struct.webui::LocalizedString" { i8* getelementptr inbounds ([14 x i8], [14 x i8]* @.str.21, i32 0, i32 0), i32 20365 }, %"struct.webui::LocalizedString" { i8* getelementptr inbounds ([15 x i8], [15 x i8]* @.str.22, i32 0, i32 0), i32 20371 }, %"struct.webui::LocalizedString" { i8* getelementptr inbounds ([13 x i8], [13 x i8]* @.str.23, i32 0, i32 0), i32 20389 }, %"struct.webui::LocalizedString" { i8* getelementptr inbounds ([14 x i8], [14 x i8]* @.str.24, i32 0, i32 0), i32 20393 }, %"struct.webui::LocalizedString" { i8* getelementptr inbounds ([15 x i8], [15 x i8]* @.str.25, i32 0, i32 0), i32 20444 }, %"struct.webui::LocalizedString" { i8* getelementptr inbounds ([18 x i8], [18 x i8]* @.str.26, i32 0, i32 0), i32 20445 }, %"struct.webui::LocalizedString" { i8* getelementptr inbounds ([16 x i8], [16 x i8]* @.str.27, i32 0, i32 0), i32 20447 }, %"struct.webui::LocalizedString" { i8* getelementptr inbounds ([16 x i8], [16 x i8]* @.str.28, i32 0, i32 0), i32 20377 }, %"struct.webui::LocalizedString" { i8* getelementptr inbounds ([15 x i8], [15 x i8]* @.str.29, i32 0, i32 0), i32 20376 }, %"struct.webui::LocalizedString" { i8* getelementptr inbounds ([16 x i8], [16 x i8]* @.str.30, i32 0, i32 0), i32 20403 }, %"struct.webui::LocalizedString" { i8* getelementptr inbounds ([15 x i8], [15 x i8]* @.str.31, i32 0, i32 0), i32 20352 }, %"struct.webui::LocalizedString" { i8* getelementptr inbounds ([19 x i8], [19 x i8]* @.str.32, i32 0, i32 0), i32 20424 }, %"struct.webui::LocalizedString" { i8* getelementptr inbounds ([9 x i8], [9 x i8]* @.str.33, i32 0, i32 0), i32 20402 }, %"struct.webui::LocalizedString" { i8* getelementptr inbounds ([9 x i8], [9 x i8]* @.str.34, i32 0, i32 0), i32 20401 }, %"struct.webui::LocalizedString" { i8* getelementptr inbounds ([10 x i8], [10 x i8]* @.str.35, i32 0, i32 0), i32 20392 }, %"struct.webui::LocalizedString" { i8* getelementptr inbounds ([14 x i8], [14 x i8]* @.str.36, i32 0, i32 0), i32 20446 }, %"struct.webui::LocalizedString" { i8* getelementptr inbounds ([7 x i8], [7 x i8]* @.str.37, i32 0, i32 0), i32 20356 }, %"struct.webui::LocalizedString" { i8* getelementptr inbounds ([13 x i8], [13 x i8]* @.str.38, i32 0, i32 0), i32 20357 }, %"struct.webui::LocalizedString" { i8* getelementptr inbounds ([14 x i8], [14 x i8]* @.str.39, i32 0, i32 0), i32 20359 }, %"struct.webui::LocalizedString" { i8* getelementptr inbounds ([11 x i8], [11 x i8]* @.str.40, i32 0, i32 0), i32 20358 }, %"struct.webui::LocalizedString" { i8* getelementptr inbounds ([34 x i8], [34 x i8]* @.str.41, i32 0, i32 0), i32 20373 }], align 16
@.str = private unnamed_addr constant [17 x i8] c"copyPoliciesJSON\00", align 1
@.str.1 = private unnamed_addr constant [19 x i8] c"exportPoliciesJSON\00", align 1
@.str.2 = private unnamed_addr constant [18 x i8] c"filterPlaceholder\00", align 1
@.str.3 = private unnamed_addr constant [19 x i8] c"hideExpandedStatus\00", align 1
@.str.4 = private unnamed_addr constant [16 x i8] c"isAffiliatedYes\00", align 1
@.str.5 = private unnamed_addr constant [15 x i8] c"isAffiliatedNo\00", align 1
@.str.6 = private unnamed_addr constant [13 x i8] c"labelAssetId\00", align 1
@.str.7 = private unnamed_addr constant [14 x i8] c"labelClientId\00", align 1
@.str.8 = private unnamed_addr constant [20 x i8] c"labelDirectoryApiId\00", align 1
@.str.9 = private unnamed_addr constant [12 x i8] c"labelGaiaId\00", align 1
@.str.10 = private unnamed_addr constant [18 x i8] c"labelIsAffiliated\00", align 1
@.str.11 = private unnamed_addr constant [14 x i8] c"labelLocation\00", align 1
@.str.12 = private unnamed_addr constant [29 x i8] c"labelMachineEnrollmentDomain\00", align 1
@.str.13 = private unnamed_addr constant [34 x i8] c"labelMachineEnrollmentMachineName\00", align 1
@.str.14 = private unnamed_addr constant [28 x i8] c"labelMachineEnrollmentToken\00", align 1
@.str.15 = private unnamed_addr constant [32 x i8] c"labelMachineEntrollmentDeviceId\00", align 1
@.str.16 = private unnamed_addr constant [22 x i8] c"labelIsOffHoursActive\00", align 1
@.str.17 = private unnamed_addr constant [18 x i8] c"labelPoliciesPush\00", align 1
@.str.18 = private unnamed_addr constant [21 x i8] c"labelRefreshInterval\00", align 1
@.str.19 = private unnamed_addr constant [12 x i8] c"labelStatus\00", align 1
@.str.20 = private unnamed_addr constant [26 x i8] c"labelTimeSinceLastRefresh\00", align 1
@.str.21 = private unnamed_addr constant [14 x i8] c"labelUsername\00", align 1
@.str.22 = private unnamed_addr constant [15 x i8] c"labelManagedBy\00", align 1
@.str.23 = private unnamed_addr constant [13 x i8] c"labelVersion\00", align 1
@.str.24 = private unnamed_addr constant [14 x i8] c"noPoliciesSet\00", align 1
@.str.25 = private unnamed_addr constant [15 x i8] c"offHoursActive\00", align 1
@.str.26 = private unnamed_addr constant [18 x i8] c"offHoursNotActive\00", align 1
@.str.27 = private unnamed_addr constant [16 x i8] c"policyCopyValue\00", align 1
@.str.28 = private unnamed_addr constant [16 x i8] c"policiesPushOff\00", align 1
@.str.29 = private unnamed_addr constant [15 x i8] c"policiesPushOn\00", align 1
@.str.30 = private unnamed_addr constant [16 x i8] c"policyLearnMore\00", align 1
@.str.31 = private unnamed_addr constant [15 x i8] c"reloadPolicies\00", align 1
@.str.32 = private unnamed_addr constant [19 x i8] c"showExpandedStatus\00", align 1
@.str.33 = private unnamed_addr constant [9 x i8] c"showLess\00", align 1
@.str.34 = private unnamed_addr constant [9 x i8] c"showMore\00", align 1
@.str.35 = private unnamed_addr constant [10 x i8] c"showUnset\00", align 1
@.str.36 = private unnamed_addr constant [14 x i8] c"signinProfile\00", align 1
@.str.37 = private unnamed_addr constant [7 x i8] c"status\00", align 1
@.str.38 = private unnamed_addr constant [13 x i8] c"statusDevice\00", align 1
@.str.39 = private unnamed_addr constant [14 x i8] c"statusMachine\00", align 1
@.str.40 = private unnamed_addr constant [11 x i8] c"statusUser\00", align 1
@.str.41 = private unnamed_addr constant [34 x i8] c"labelLastCloudReportSentTimestamp\00", align 1
@.str.42 = private unnamed_addr constant [11 x i8] c"policy.css\00", align 1
@.str.43 = private unnamed_addr constant [15 x i8] c"policy_base.js\00", align 1
@.str.44 = private unnamed_addr constant [10 x i8] c"policy.js\00", align 1

@_ZN8PolicyUIC1EPN7content5WebUIE = hidden unnamed_addr alias void (%class.PolicyUI*, %"class.content::WebUI"*), void (%class.PolicyUI*, %"class.content::WebUI"*)* @_ZN8PolicyUIC2EPN7content5WebUIE
@_ZN8PolicyUID1Ev = hidden unnamed_addr alias void (%class.PolicyUI*), void (%class.PolicyUI*)* @_ZN8PolicyUID2Ev

; Function Attrs: nounwind ssp uwtable
define hidden void @_ZN8PolicyUIC2EPN7content5WebUIE(%class.PolicyUI* nocapture, %"class.content::WebUI"*) unnamed_addr #0 align 2 {
  %3 = alloca %"class.std::__1::basic_string", align 8
  %4 = getelementptr inbounds %class.PolicyUI, %class.PolicyUI* %0, i64 0, i32 0, i32 0
  %5 = getelementptr inbounds %class.PolicyUI, %class.PolicyUI* %0, i64 0, i32 0, i32 1
  store %"class.content::WebUI"* %1, %"class.content::WebUI"** %5, align 8
  store i32 (...)** bitcast (i8** getelementptr inbounds ({ [8 x i8*] }, { [8 x i8*] }* @_ZTV8PolicyUI, i64 0, inrange i32 0, i64 2) to i32 (...)**), i32 (...)*** %4, align 8
  %6 = tail call i8* @_Znwm(i64 160) #8
  %7 = bitcast i8* %6 to %class.PolicyUIHandler*
  tail call void @_ZN15PolicyUIHandlerC1Ev(%class.PolicyUIHandler* nonnull %7) #9
  %8 = bitcast i8* %6 to %"class.content::WebUIMessageHandler"*
  %9 = bitcast %"class.content::WebUI"* %1 to void (%"class.content::WebUI"*, %"class.content::WebUIMessageHandler"*)***
  %10 = load void (%"class.content::WebUI"*, %"class.content::WebUIMessageHandler"*)**, void (%"class.content::WebUI"*, %"class.content::WebUIMessageHandler"*)*** %9, align 8
  %11 = getelementptr inbounds void (%"class.content::WebUI"*, %"class.content::WebUIMessageHandler"*)*, void (%"class.content::WebUI"*, %"class.content::WebUIMessageHandler"*)** %10, i64 12
  %12 = load void (%"class.content::WebUI"*, %"class.content::WebUIMessageHandler"*)*, void (%"class.content::WebUI"*, %"class.content::WebUIMessageHandler"*)** %11, align 8
  tail call void %12(%"class.content::WebUI"* %1, %"class.content::WebUIMessageHandler"* nonnull %8) #9
  %13 = tail call %class.Profile* @_ZN7Profile9FromWebUIEPN7content5WebUIE(%"class.content::WebUI"* %1) #9
  %14 = getelementptr inbounds %class.Profile, %class.Profile* %13, i64 0, i32 0
  %15 = bitcast %"class.std::__1::basic_string"* %3 to i8*
  call void @llvm.lifetime.start.p0i8(i64 24, i8* nonnull %15) #9
  %16 = tail call i64 @strlen(i8* getelementptr inbounds ([0 x i8], [0 x i8]* @_ZN6chrome19kChromeUIPolicyHostE, i64 0, i64 0)) #9
  %17 = icmp ugt i64 %16, -17
  br i1 %17, label %18, label %20

18:                                               ; preds = %2
  %19 = bitcast %"class.std::__1::basic_string"* %3 to %"class.std::__1::__basic_string_common"*
  call void @_ZNKSt3__121__basic_string_commonILb1EE20__throw_length_errorEv(%"class.std::__1::__basic_string_common"* nonnull %19) #10
  unreachable

20:                                               ; preds = %2
  %21 = icmp ult i64 %16, 23
  br i1 %21, label %31, label %22

22:                                               ; preds = %20
  %23 = add nuw i64 %16, 16
  %24 = and i64 %23, -16
  %25 = tail call i8* @_Znwm(i64 %24) #8
  %26 = getelementptr inbounds %"class.std::__1::basic_string", %"class.std::__1::basic_string"* %3, i64 0, i32 0, i32 0, i32 0, i32 0, i32 0, i32 0
  store i8* %25, i8** %26, align 8
  %27 = or i64 %24, -9223372036854775808
  %28 = getelementptr inbounds %"class.std::__1::basic_string", %"class.std::__1::basic_string"* %3, i64 0, i32 0, i32 0, i32 0, i32 0, i32 0, i32 2
  store i64 %27, i64* %28, align 8
  %29 = getelementptr inbounds %"class.std::__1::basic_string", %"class.std::__1::basic_string"* %3, i64 0, i32 0, i32 0, i32 0, i32 0, i32 0, i32 1
  store i64 %16, i64* %29, align 8
  %30 = bitcast %"class.std::__1::basic_string"* %3 to %"struct.std::__1::basic_string<char, std::__1::char_traits<char>, std::__1::allocator<char> >::__short"*
  br label %36

31:                                               ; preds = %20
  %32 = trunc i64 %16 to i8
  %33 = bitcast %"class.std::__1::basic_string"* %3 to %"struct.std::__1::basic_string<char, std::__1::char_traits<char>, std::__1::allocator<char> >::__short"*
  %34 = getelementptr inbounds %"struct.std::__1::basic_string<char, std::__1::char_traits<char>, std::__1::allocator<char> >::__short", %"struct.std::__1::basic_string<char, std::__1::char_traits<char>, std::__1::allocator<char> >::__short"* %33, i64 0, i32 1, i32 0
  store i8 %32, i8* %34, align 1
  %35 = icmp eq i64 %16, 0
  br i1 %35, label %39, label %36

36:                                               ; preds = %31, %22
  %37 = phi %"struct.std::__1::basic_string<char, std::__1::char_traits<char>, std::__1::allocator<char> >::__short"* [ %33, %31 ], [ %30, %22 ]
  %38 = phi i8* [ %15, %31 ], [ %25, %22 ]
  call void @llvm.memcpy.p0i8.p0i8.i64(i8* nonnull align 1 %38, i8* align 1 getelementptr inbounds ([0 x i8], [0 x i8]* @_ZN6chrome19kChromeUIPolicyHostE, i64 0, i64 0), i64 %16, i1 false) #9
  br label %39

39:                                               ; preds = %36, %31
  %40 = phi %"struct.std::__1::basic_string<char, std::__1::char_traits<char>, std::__1::allocator<char> >::__short"* [ %33, %31 ], [ %37, %36 ]
  %41 = phi i8* [ %15, %31 ], [ %38, %36 ]
  %42 = getelementptr inbounds i8, i8* %41, i64 %16
  store i8 0, i8* %42, align 1
  %43 = call %"class.content::WebUIDataSource"* @_ZN7content15WebUIDataSource6CreateERKNSt3__112basic_stringIcNS1_11char_traitsIcEENS1_9allocatorIcEEEE(%"class.std::__1::basic_string"* nonnull dereferenceable(24) %3) #9
  %44 = getelementptr inbounds %"struct.std::__1::basic_string<char, std::__1::char_traits<char>, std::__1::allocator<char> >::__short", %"struct.std::__1::basic_string<char, std::__1::char_traits<char>, std::__1::allocator<char> >::__short"* %40, i64 0, i32 1, i32 0
  %45 = load i8, i8* %44, align 1
  %46 = icmp slt i8 %45, 0
  br i1 %46, label %47, label %50

47:                                               ; preds = %39
  %48 = getelementptr inbounds %"class.std::__1::basic_string", %"class.std::__1::basic_string"* %3, i64 0, i32 0, i32 0, i32 0, i32 0, i32 0, i32 0
  %49 = load i8*, i8** %48, align 8
  call void @_ZdlPv(i8* %49) #8
  br label %50

50:                                               ; preds = %39, %47
  call void @llvm.lifetime.end.p0i8(i64 24, i8* nonnull %15) #9
  call void @_ZN15PolicyUIHandler33AddCommonLocalizedStringsToSourceEPN7content15WebUIDataSourceE(%"class.content::WebUIDataSource"* %43) #9
  %51 = bitcast %"class.content::WebUIDataSource"* %43 to void (%"class.content::WebUIDataSource"*, i64, %"struct.webui::LocalizedString"*)***
  %52 = load void (%"class.content::WebUIDataSource"*, i64, %"struct.webui::LocalizedString"*)**, void (%"class.content::WebUIDataSource"*, i64, %"struct.webui::LocalizedString"*)*** %51, align 8
  %53 = getelementptr inbounds void (%"class.content::WebUIDataSource"*, i64, %"struct.webui::LocalizedString"*)*, void (%"class.content::WebUIDataSource"*, i64, %"struct.webui::LocalizedString"*)** %52, i64 5
  %54 = load void (%"class.content::WebUIDataSource"*, i64, %"struct.webui::LocalizedString"*)*, void (%"class.content::WebUIDataSource"*, i64, %"struct.webui::LocalizedString"*)** %53, align 8
  call void %54(%"class.content::WebUIDataSource"* %43, i64 42, %"struct.webui::LocalizedString"* getelementptr inbounds ([42 x %"struct.webui::LocalizedString"], [42 x %"struct.webui::LocalizedString"]* @_ZZN12_GLOBAL__N_124CreatePolicyUIHtmlSourceEvE8kStrings, i64 0, i64 0)) #9
  %55 = bitcast %"class.content::WebUIDataSource"* %43 to void (%"class.content::WebUIDataSource"*, i8*, i64, i32)***
  %56 = load void (%"class.content::WebUIDataSource"*, i8*, i64, i32)**, void (%"class.content::WebUIDataSource"*, i8*, i64, i32)*** %55, align 8
  %57 = getelementptr inbounds void (%"class.content::WebUIDataSource"*, i8*, i64, i32)*, void (%"class.content::WebUIDataSource"*, i8*, i64, i32)** %56, i64 11
  %58 = load void (%"class.content::WebUIDataSource"*, i8*, i64, i32)*, void (%"class.content::WebUIDataSource"*, i8*, i64, i32)** %57, align 8
  call void %58(%"class.content::WebUIDataSource"* %43, i8* getelementptr inbounds ([11 x i8], [11 x i8]* @.str.42, i64 0, i64 0), i64 10, i32 16506) #9
  %59 = load void (%"class.content::WebUIDataSource"*, i8*, i64, i32)**, void (%"class.content::WebUIDataSource"*, i8*, i64, i32)*** %55, align 8
  %60 = getelementptr inbounds void (%"class.content::WebUIDataSource"*, i8*, i64, i32)*, void (%"class.content::WebUIDataSource"*, i8*, i64, i32)** %59, i64 11
  %61 = load void (%"class.content::WebUIDataSource"*, i8*, i64, i32)*, void (%"class.content::WebUIDataSource"*, i8*, i64, i32)** %60, align 8
  call void %61(%"class.content::WebUIDataSource"* %43, i8* getelementptr inbounds ([15 x i8], [15 x i8]* @.str.43, i64 0, i64 0), i64 14, i32 16508) #9
  %62 = load void (%"class.content::WebUIDataSource"*, i8*, i64, i32)**, void (%"class.content::WebUIDataSource"*, i8*, i64, i32)*** %55, align 8
  %63 = getelementptr inbounds void (%"class.content::WebUIDataSource"*, i8*, i64, i32)*, void (%"class.content::WebUIDataSource"*, i8*, i64, i32)** %62, i64 11
  %64 = load void (%"class.content::WebUIDataSource"*, i8*, i64, i32)*, void (%"class.content::WebUIDataSource"*, i8*, i64, i32)** %63, align 8
  call void %64(%"class.content::WebUIDataSource"* %43, i8* getelementptr inbounds ([10 x i8], [10 x i8]* @.str.44, i64 0, i64 0), i64 9, i32 16509) #9
  %65 = bitcast %"class.content::WebUIDataSource"* %43 to void (%"class.content::WebUIDataSource"*, i32)***
  %66 = load void (%"class.content::WebUIDataSource"*, i32)**, void (%"class.content::WebUIDataSource"*, i32)*** %65, align 8
  %67 = getelementptr inbounds void (%"class.content::WebUIDataSource"*, i32)*, void (%"class.content::WebUIDataSource"*, i32)** %66, i64 13
  %68 = load void (%"class.content::WebUIDataSource"*, i32)*, void (%"class.content::WebUIDataSource"*, i32)** %67, align 8
  call void %68(%"class.content::WebUIDataSource"* %43, i32 16507) #9
  call void @_ZN7content15WebUIDataSource3AddEPNS_14BrowserContextEPS0_(%"class.content::BrowserContext"* %14, %"class.content::WebUIDataSource"* %43) #9
  ret void
}

; Function Attrs: argmemonly nounwind
declare void @llvm.lifetime.start.p0i8(i64 immarg, i8* nocapture) #1

; Function Attrs: argmemonly nounwind
declare void @llvm.lifetime.end.p0i8(i64 immarg, i8* nocapture) #1

declare void @_ZN7content15WebUIDataSource3AddEPNS_14BrowserContextEPS0_(%"class.content::BrowserContext"*, %"class.content::WebUIDataSource"*) local_unnamed_addr #2

declare %class.Profile* @_ZN7Profile9FromWebUIEPN7content5WebUIE(%"class.content::WebUI"*) local_unnamed_addr #2

; Function Attrs: norecurse nounwind readnone ssp uwtable
define hidden void @_ZN8PolicyUID2Ev(%class.PolicyUI* nocapture) unnamed_addr #3 align 2 {
  ret void
}

; Function Attrs: nounwind ssp uwtable
define hidden void @_ZN8PolicyUID0Ev(%class.PolicyUI*) unnamed_addr #0 align 2 {
  %2 = bitcast %class.PolicyUI* %0 to i8*
  tail call void @_ZdlPv(i8* %2) #8
  ret void
}

; Function Attrs: nobuiltin nounwind
declare void @_ZdlPv(i8*) local_unnamed_addr #4

declare zeroext i1 @_ZN7content15WebUIController26OverrideHandleWebUIMessageERK4GURLRKNSt3__112basic_stringIcNS4_11char_traitsIcEENS4_9allocatorIcEEEERKN4base9ListValueE(%"class.content::WebUIController"*, %class.GURL* dereferenceable(120), %"class.std::__1::basic_string"* dereferenceable(24), %"class.base::ListValue"* dereferenceable(32)) unnamed_addr #2

; Function Attrs: nounwind ssp uwtable
define linkonce_odr hidden void @_ZN7content15WebUIController18RenderFrameCreatedEPNS_15RenderFrameHostE(%"class.content::WebUIController"*, %"class.content::RenderFrameHost"*) unnamed_addr #0 comdat align 2 {
  ret void
}

declare zeroext i1 @_ZN7content15WebUIController33IsJavascriptErrorReportingEnabledEv(%"class.content::WebUIController"*) unnamed_addr #2

declare i8* @_ZN7content15WebUIController7GetTypeEv(%"class.content::WebUIController"*) unnamed_addr #2

declare %"class.content::WebUIDataSource"* @_ZN7content15WebUIDataSource6CreateERKNSt3__112basic_stringIcNS1_11char_traitsIcEENS1_9allocatorIcEEEE(%"class.std::__1::basic_string"* dereferenceable(24)) local_unnamed_addr #2

declare void @_ZN15PolicyUIHandler33AddCommonLocalizedStringsToSourceEPN7content15WebUIDataSourceE(%"class.content::WebUIDataSource"*) local_unnamed_addr #2

; Function Attrs: noreturn
declare void @_ZNKSt3__121__basic_string_commonILb1EE20__throw_length_errorEv(%"class.std::__1::__basic_string_common"*) local_unnamed_addr #5

; Function Attrs: nobuiltin nofree
declare noalias nonnull i8* @_Znwm(i64) local_unnamed_addr #6

; Function Attrs: argmemonly nounwind
declare void @llvm.memcpy.p0i8.p0i8.i64(i8* nocapture writeonly, i8* nocapture readonly, i64, i1 immarg) #1

; Function Attrs: argmemonly nofree nounwind readonly
declare i64 @strlen(i8* nocapture) local_unnamed_addr #7

declare void @_ZN15PolicyUIHandlerC1Ev(%class.PolicyUIHandler*) unnamed_addr #2

attributes #0 = { nounwind ssp uwtable "correctly-rounded-divide-sqrt-fp-math"="false" "disable-tail-calls"="false" "less-precise-fpmad"="false" "min-legal-vector-width"="0" "no-frame-pointer-elim"="false" "no-frame-pointer-elim-non-leaf" "no-infs-fp-math"="false" "no-jump-tables"="false" "no-nans-fp-math"="false" "no-signed-zeros-fp-math"="false" "no-trapping-math"="false" "null-pointer-is-valid"="true" "stack-protector-buffer-size"="4" "target-cpu"="x86-64" "target-features"="+cx8,+fxsr,+mmx,+sse,+sse2,+sse3,+x87" "unsafe-fp-math"="false" "use-soft-float"="false" }
attributes #1 = { argmemonly nounwind }
attributes #2 = { "correctly-rounded-divide-sqrt-fp-math"="false" "disable-tail-calls"="false" "less-precise-fpmad"="false" "no-frame-pointer-elim"="false" "no-frame-pointer-elim-non-leaf" "no-infs-fp-math"="false" "no-nans-fp-math"="false" "no-signed-zeros-fp-math"="false" "no-trapping-math"="false" "null-pointer-is-valid"="true" "stack-protector-buffer-size"="4" "target-cpu"="x86-64" "target-features"="+cx8,+fxsr,+mmx,+sse,+sse2,+sse3,+x87" "unsafe-fp-math"="false" "use-soft-float"="false" }
attributes #3 = { norecurse nounwind readnone ssp uwtable "correctly-rounded-divide-sqrt-fp-math"="false" "disable-tail-calls"="false" "less-precise-fpmad"="false" "min-legal-vector-width"="0" "no-frame-pointer-elim"="false" "no-frame-pointer-elim-non-leaf" "no-infs-fp-math"="false" "no-jump-tables"="false" "no-nans-fp-math"="false" "no-signed-zeros-fp-math"="false" "no-trapping-math"="false" "null-pointer-is-valid"="true" "stack-protector-buffer-size"="4" "target-cpu"="x86-64" "target-features"="+cx8,+fxsr,+mmx,+sse,+sse2,+sse3,+x87" "unsafe-fp-math"="false" "use-soft-float"="false" }
attributes #4 = { nobuiltin nounwind "correctly-rounded-divide-sqrt-fp-math"="false" "disable-tail-calls"="false" "less-precise-fpmad"="false" "no-frame-pointer-elim"="false" "no-frame-pointer-elim-non-leaf" "no-infs-fp-math"="false" "no-nans-fp-math"="false" "no-signed-zeros-fp-math"="false" "no-trapping-math"="false" "null-pointer-is-valid"="true" "stack-protector-buffer-size"="4" "target-cpu"="x86-64" "target-features"="+cx8,+fxsr,+mmx,+sse,+sse2,+sse3,+x87" "unsafe-fp-math"="false" "use-soft-float"="false" }
attributes #5 = { noreturn "correctly-rounded-divide-sqrt-fp-math"="false" "disable-tail-calls"="false" "less-precise-fpmad"="false" "no-frame-pointer-elim"="false" "no-frame-pointer-elim-non-leaf" "no-infs-fp-math"="false" "no-nans-fp-math"="false" "no-signed-zeros-fp-math"="false" "no-trapping-math"="false" "null-pointer-is-valid"="true" "stack-protector-buffer-size"="4" "target-cpu"="x86-64" "target-features"="+cx8,+fxsr,+mmx,+sse,+sse2,+sse3,+x87" "unsafe-fp-math"="false" "use-soft-float"="false" }
attributes #6 = { nobuiltin nofree "correctly-rounded-divide-sqrt-fp-math"="false" "disable-tail-calls"="false" "less-precise-fpmad"="false" "no-frame-pointer-elim"="false" "no-frame-pointer-elim-non-leaf" "no-infs-fp-math"="false" "no-nans-fp-math"="false" "no-signed-zeros-fp-math"="false" "no-trapping-math"="false" "null-pointer-is-valid"="true" "stack-protector-buffer-size"="4" "target-cpu"="x86-64" "target-features"="+cx8,+fxsr,+mmx,+sse,+sse2,+sse3,+x87" "unsafe-fp-math"="false" "use-soft-float"="false" }
attributes #7 = { argmemonly nofree nounwind readonly "correctly-rounded-divide-sqrt-fp-math"="false" "disable-tail-calls"="false" "less-precise-fpmad"="false" "no-frame-pointer-elim"="false" "no-frame-pointer-elim-non-leaf" "no-infs-fp-math"="false" "no-nans-fp-math"="false" "no-signed-zeros-fp-math"="false" "no-trapping-math"="false" "null-pointer-is-valid"="true" "stack-protector-buffer-size"="4" "target-cpu"="x86-64" "target-features"="+cx8,+fxsr,+mmx,+sse,+sse2,+sse3,+x87" "unsafe-fp-math"="false" "use-soft-float"="false" }
attributes #8 = { builtin nounwind }
attributes #9 = { nounwind }
attributes #10 = { noreturn nounwind }

!llvm.module.flags = !{!0, !1}

!0 = !{i32 1, !"wchar_size", i32 4}
!1 = !{i32 7, !"PIC Level", i32 2}
