; ModuleID = 'gen/components/policy/policy_constants.cc'
source_filename = "gen/components/policy/policy_constants.cc"
target datalayout = "e-m:e-i64:64-f80:128-n8:16:32:64-S128"
target triple = "x86_64-unknown-linux-gnu"

module asm ".symver exp, exp@GLIBC_2.2.5"
module asm ".symver exp2, exp2@GLIBC_2.2.5"
module asm ".symver exp2f, exp2f@GLIBC_2.2.5"
module asm ".symver expf, expf@GLIBC_2.2.5"
module asm ".symver lgamma, lgamma@GLIBC_2.2.5"
module asm ".symver lgammaf, lgammaf@GLIBC_2.2.5"
module asm ".symver lgammal, lgammal@GLIBC_2.2.5"
module asm ".symver log, log@GLIBC_2.2.5"
module asm ".symver log2, log2@GLIBC_2.2.5"
module asm ".symver log2f, log2f@GLIBC_2.2.5"
module asm ".symver logf, logf@GLIBC_2.2.5"
module asm ".symver pow, pow@GLIBC_2.2.5"
module asm ".symver powf, powf@GLIBC_2.2.5"

%"struct.policy::internal::SchemaData" = type { %"struct.policy::internal::SchemaNode"*, %"struct.policy::internal::PropertyNode"*, %"struct.policy::internal::PropertiesNode"*, %"union.policy::internal::RestrictionNode"*, i8**, i32*, i8**, i32 }
%"struct.policy::internal::SchemaNode" = type { i8, i16, i8, i8 }
%"struct.policy::internal::PropertyNode" = type { i8*, i16 }
%"struct.policy::internal::PropertiesNode" = type { i16, i16, i16, i16, i16, i16 }
%"union.policy::internal::RestrictionNode" = type { %"struct.policy::internal::RestrictionNode::EnumerationRestriction" }
%"struct.policy::internal::RestrictionNode::EnumerationRestriction" = type { i32, i32 }
%"struct.policy::PolicyDetails" = type { i8, i16, i32, [3 x i8] }
%"struct.policy::AtomicGroup" = type { i16, i8*, i8** }
%"struct.policy::BooleanPolicyAccess" = type { i8*, i8, { i64, i64 }, { i64, i64 } }
%"struct.policy::IntegerPolicyAccess" = type { i8*, i8, { i64, i64 }, { i64, i64 } }
%"struct.policy::StringPolicyAccess" = type { i8*, i8, { i64, i64 }, { i64, i64 }, i32 }
%"struct.policy::StringListPolicyAccess" = type { i8*, i8, { i64, i64 }, { i64, i64 } }
%"class.enterprise_management::BooleanPolicyProtoDefaultTypeInternal" = type opaque
%"class.enterprise_management::IntegerPolicyProtoDefaultTypeInternal" = type opaque
%"class.enterprise_management::StringPolicyProtoDefaultTypeInternal" = type opaque
%"class.enterprise_management::StringListPolicyProtoDefaultTypeInternal" = type opaque
%"class.std::__1::basic_string" = type { %"class.std::__1::__compressed_pair" }
%"class.std::__1::__compressed_pair" = type { %"struct.std::__1::__compressed_pair_elem" }
%"struct.std::__1::__compressed_pair_elem" = type { %"struct.std::__1::basic_string<char, std::__1::char_traits<char>, std::__1::allocator<char> >::__rep" }
%"struct.std::__1::basic_string<char, std::__1::char_traits<char>, std::__1::allocator<char> >::__rep" = type { %union.anon }
%union.anon = type { %"struct.std::__1::basic_string<char, std::__1::char_traits<char>, std::__1::allocator<char> >::__long" }
%"struct.std::__1::basic_string<char, std::__1::char_traits<char>, std::__1::allocator<char> >::__long" = type { i8*, i64, i64 }
%"class.logging::CheckOpResult" = type { i8* }
%"class.logging::CheckError" = type { %"class.logging::LogMessage"* }
%"class.logging::LogMessage" = type opaque
%"struct.std::__1::basic_string<char, std::__1::char_traits<char>, std::__1::allocator<char> >::__short" = type { [23 x i8], %struct.anon }
%struct.anon = type { i8 }
%"class.std::__1::basic_ostream" = type { i32 (...)**, %"class.std::__1::basic_ios.base" }
%"class.std::__1::basic_ios.base" = type <{ %"class.std::__1::ios_base", %"class.std::__1::basic_ostream"*, i32 }>
%"class.std::__1::ios_base" = type { i32 (...)**, i32, i64, i64, i32, i32, i8*, i8*, void (i32, %"class.std::__1::ios_base"*, i32)**, i32*, i64, i64, i64*, i64, i64, i8**, i64, i64 }
%"class.enterprise_management::CloudPolicySettings" = type { %"class.google::protobuf::MessageLite", %"class.google::protobuf::internal::HasBits", %"class.google::protobuf::internal::CachedSize", %"class.enterprise_management::StringPolicyProto"*, %"class.enterprise_management::BooleanPolicyProto"*, %"class.enterprise_management::BooleanPolicyProto"*, %"class.enterprise_management::BooleanPolicyProto"*, %"class.enterprise_management::BooleanPolicyProto"*, %"class.enterprise_management::BooleanPolicyProto"*, %"class.enterprise_management::BooleanPolicyProto"*, %"class.enterprise_management::BooleanPolicyProto"*, %"class.enterprise_management::BooleanPolicyProto"*, %"class.enterprise_management::BooleanPolicyProto"*, %"class.enterprise_management::BooleanPolicyProto"*, %"class.enterprise_management::BooleanPolicyProto"*, %"class.enterprise_management::BooleanPolicyProto"*, %"class.enterprise_management::BooleanPolicyProto"*, %"class.enterprise_management::BooleanPolicyProto"*, %"class.enterprise_management::StringPolicyProto"*, %"class.enterprise_management::IntegerPolicyProto"*, %"class.enterprise_management::StringPolicyProto"*, %"class.enterprise_management::StringPolicyProto"*, %"class.enterprise_management::StringPolicyProto"*, %"class.enterprise_management::StringPolicyProto"*, %"class.enterprise_management::BooleanPolicyProto"*, %"class.enterprise_management::BooleanPolicyProto"*, %"class.enterprise_management::StringPolicyProto"*, %"class.enterprise_management::StringPolicyProto"*, %"class.enterprise_management::StringPolicyProto"*, %"class.enterprise_management::StringListPolicyProto"*, %"class.enterprise_management::StringListPolicyProto"*, %"class.enterprise_management::StringListPolicyProto"*, %"class.enterprise_management::BooleanPolicyProto"*, %"class.enterprise_management::BooleanPolicyProto"*, %"class.enterprise_management::IntegerPolicyProto"*, %"class.enterprise_management::StringListPolicyProto"*, %"class.enterprise_management::BooleanPolicyProto"*, %"class.enterprise_management::BooleanPolicyProto"*, %"class.enterprise_management::StringPolicyProto"*, %"class.enterprise_management::StringPolicyProto"*, %"class.enterprise_management::StringPolicyProto"*, %"class.enterprise_management::StringPolicyProto"*, %"class.enterprise_management::StringPolicyProto"*, %"class.enterprise_management::StringListPolicyProto"*, %"class.enterprise_management::IntegerPolicyProto"*, %"class.enterprise_management::IntegerPolicyProto"*, %"class.enterprise_management::IntegerPolicyProto"*, %"class.enterprise_management::IntegerPolicyProto"*, %"class.enterprise_management::IntegerPolicyProto"*, %"class.enterprise_management::IntegerPolicyProto"*, %"class.enterprise_management::BooleanPolicyProto"*, %"class.enterprise_management::IntegerPolicyProto"*, %"class.enterprise_management::StringPolicyProto"*, %"class.enterprise_management::StringListPolicyProto"*, %"class.enterprise_management::StringListPolicyProto"*, %"class.enterprise_management::StringListPolicyProto"*, %"class.enterprise_management::StringListPolicyProto"*, %"class.enterprise_management::StringListPolicyProto"*, %"class.enterprise_management::StringListPolicyProto"*, %"class.enterprise_management::StringListPolicyProto"*, %"class.enterprise_management::StringListPolicyProto"*, %"class.enterprise_management::StringListPolicyProto"*, %"class.enterprise_management::BooleanPolicyProto"*, %"class.enterprise_management::BooleanPolicyProto"*, %"class.enterprise_management::BooleanPolicyProto"*, %"class.enterprise_management::BooleanPolicyProto"*, %"class.enterprise_management::StringListPolicyProto"*, %"class.enterprise_management::StringPolicyProto"*, %"class.enterprise_management::BooleanPolicyProto"*, %"class.enterprise_management::IntegerPolicyProto"*, %"class.enterprise_management::IntegerPolicyProto"*, %"class.enterprise_management::BooleanPolicyProto"*, %"class.enterprise_management::BooleanPolicyProto"*, %"class.enterprise_management::BooleanPolicyProto"*, %"class.enterprise_management::BooleanPolicyProto"*, %"class.enterprise_management::BooleanPolicyProto"*, %"class.enterprise_management::BooleanPolicyProto"*, %"class.enterprise_management::StringListPolicyProto"*, %"class.enterprise_management::StringListPolicyProto"*, %"class.enterprise_management::StringListPolicyProto"*, %"class.enterprise_management::StringListPolicyProto"*, %"class.enterprise_management::StringListPolicyProto"*, %"class.enterprise_management::BooleanPolicyProto"*, %"class.enterprise_management::IntegerPolicyProto"*, %"class.enterprise_management::StringPolicyProto"*, %"class.enterprise_management::BooleanPolicyProto"*, %"class.enterprise_management::BooleanPolicyProto"*, %"class.enterprise_management::BooleanPolicyProto"*, %"class.enterprise_management::StringPolicyProto"*, %"class.enterprise_management::StringListPolicyProto"*, %"class.enterprise_management::IntegerPolicyProto"*, %"class.enterprise_management::BooleanPolicyProto"*, %"class.enterprise_management::BooleanPolicyProto"*, %"class.enterprise_management::BooleanPolicyProto"*, %"class.enterprise_management::StringPolicyProto"*, %"class.enterprise_management::BooleanPolicyProto"*, %"class.enterprise_management::BooleanPolicyProto"*, %"class.enterprise_management::StringListPolicyProto"*, %"class.enterprise_management::BooleanPolicyProto"*, %"class.enterprise_management::BooleanPolicyProto"*, %"class.enterprise_management::BooleanPolicyProto"*, %"class.enterprise_management::StringListPolicyProto"*, %"class.enterprise_management::BooleanPolicyProto"*, %"class.enterprise_management::BooleanPolicyProto"*, %"class.enterprise_management::BooleanPolicyProto"*, %"class.enterprise_management::StringPolicyProto"*, %"class.enterprise_management::StringListPolicyProto"*, %"class.enterprise_management::StringListPolicyProto"*, %"class.enterprise_management::StringPolicyProto"*, %"class.enterprise_management::IntegerPolicyProto"*, %"class.enterprise_management::StringPolicyProto"*, %"class.enterprise_management::StringPolicyProto"*, %"class.enterprise_management::StringPolicyProto"*, %"class.enterprise_management::StringPolicyProto"*, %"class.enterprise_management::BooleanPolicyProto"*, %"class.enterprise_management::BooleanPolicyProto"*, %"class.enterprise_management::StringPolicyProto"*, %"class.enterprise_management::BooleanPolicyProto"*, %"class.enterprise_management::BooleanPolicyProto"*, %"class.enterprise_management::StringListPolicyProto"*, %"class.enterprise_management::StringListPolicyProto"*, %"class.enterprise_management::BooleanPolicyProto"*, %"class.enterprise_management::BooleanPolicyProto"*, %"class.enterprise_management::BooleanPolicyProto"*, %"class.enterprise_management::BooleanPolicyProto"*, %"class.enterprise_management::StringPolicyProto"*, %"class.enterprise_management::BooleanPolicyProto"*, %"class.enterprise_management::StringPolicyProto"*, %"class.enterprise_management::IntegerPolicyProto"*, %"class.enterprise_management::BooleanPolicyProto"*, %"class.enterprise_management::BooleanPolicyProto"*, %"class.enterprise_management::BooleanPolicyProto"*, %"class.enterprise_management::StringPolicyProto"*, %"class.enterprise_management::StringPolicyProto"*, %"class.enterprise_management::BooleanPolicyProto"*, %"class.enterprise_management::BooleanPolicyProto"*, %"class.enterprise_management::BooleanPolicyProto"*, %"class.enterprise_management::StringPolicyProto"*, %"class.enterprise_management::StringPolicyProto"*, %"class.enterprise_management::StringPolicyProto"*, %"class.enterprise_management::BooleanPolicyProto"*, %"class.enterprise_management::BooleanPolicyProto"*, %"class.enterprise_management::BooleanPolicyProto"*, %"class.enterprise_management::StringPolicyProto"*, %"class.enterprise_management::BooleanPolicyProto"*, %"class.enterprise_management::StringPolicyProto"*, %"class.enterprise_management::IntegerPolicyProto"*, %"class.enterprise_management::BooleanPolicyProto"*, %"class.enterprise_management::BooleanPolicyProto"*, %"class.enterprise_management::StringPolicyProto"*, %"class.enterprise_management::BooleanPolicyProto"*, %"class.enterprise_management::StringListPolicyProto"*, %"class.enterprise_management::StringPolicyProto"*, %"class.enterprise_management::BooleanPolicyProto"*, %"class.enterprise_management::BooleanPolicyProto"*, %"class.enterprise_management::IntegerPolicyProto"*, %"class.enterprise_management::BooleanPolicyProto"*, %"class.enterprise_management::StringPolicyProto"*, %"class.enterprise_management::StringPolicyProto"*, %"class.enterprise_management::BooleanPolicyProto"*, %"class.enterprise_management::StringListPolicyProto"*, %"class.enterprise_management::StringListPolicyProto"*, %"class.enterprise_management::BooleanPolicyProto"*, %"class.enterprise_management::IntegerPolicyProto"*, %"class.enterprise_management::BooleanPolicyProto"*, %"class.enterprise_management::BooleanPolicyProto"*, %"class.enterprise_management::BooleanPolicyProto"*, %"class.enterprise_management::BooleanPolicyProto"*, %"class.enterprise_management::BooleanPolicyProto"*, %"class.enterprise_management::StringPolicyProto"*, %"class.enterprise_management::BooleanPolicyProto"*, %"class.enterprise_management::StringListPolicyProto"*, %"class.enterprise_management::StringPolicyProto"*, %"class.enterprise_management::StringListPolicyProto"*, %"class.enterprise_management::BooleanPolicyProto"*, %"class.enterprise_management::StringListPolicyProto"*, %"class.enterprise_management::BooleanPolicyProto"*, %"class.enterprise_management::IntegerPolicyProto"*, %"class.enterprise_management::IntegerPolicyProto"*, %"class.enterprise_management::IntegerPolicyProto"*, %"class.enterprise_management::IntegerPolicyProto"*, %"class.enterprise_management::StringListPolicyProto"*, %"class.enterprise_management::StringListPolicyProto"*, %"class.enterprise_management::StringPolicyProto"*, %"class.enterprise_management::BooleanPolicyProto"*, %"class.enterprise_management::BooleanPolicyProto"*, %"class.enterprise_management::StringListPolicyProto"*, %"class.enterprise_management::IntegerPolicyProto"*, %"class.enterprise_management::StringListPolicyProto"*, %"class.enterprise_management::StringListPolicyProto"*, %"class.enterprise_management::BooleanPolicyProto"*, %"class.enterprise_management::StringListPolicyProto"*, %"class.enterprise_management::StringListPolicyProto"*, %"class.enterprise_management::IntegerPolicyProto"*, %"class.enterprise_management::BooleanPolicyProto"*, %"class.enterprise_management::IntegerPolicyProto"*, %"class.enterprise_management::StringListPolicyProto"*, %"class.enterprise_management::BooleanPolicyProto"*, %"class.enterprise_management::BooleanPolicyProto"*, %"class.enterprise_management::BooleanPolicyProto"*, %"class.enterprise_management::StringListPolicyProto"*, %"class.enterprise_management::StringPolicyProto"*, %"class.enterprise_management::BooleanPolicyProto"*, %"class.enterprise_management::BooleanPolicyProto"*, %"class.enterprise_management::BooleanPolicyProto"*, %"class.enterprise_management::BooleanPolicyProto"*, %"class.enterprise_management::StringPolicyProto"*, %"class.enterprise_management::BooleanPolicyProto"*, %"class.enterprise_management::BooleanPolicyProto"*, %"class.enterprise_management::StringPolicyProto"*, %"class.enterprise_management::IntegerPolicyProto"*, %"class.enterprise_management::BooleanPolicyProto"*, %"class.enterprise_management::StringPolicyProto"*, %"class.enterprise_management::StringListPolicyProto"*, %"class.enterprise_management::StringListPolicyProto"*, %"class.enterprise_management::StringListPolicyProto"*, %"class.enterprise_management::BooleanPolicyProto"*, %"class.enterprise_management::BooleanPolicyProto"*, %"class.enterprise_management::StringPolicyProto"*, %"class.enterprise_management::StringPolicyProto"*, %"class.enterprise_management::BooleanPolicyProto"*, %"class.enterprise_management::BooleanPolicyProto"*, %"class.enterprise_management::IntegerPolicyProto"*, %"class.enterprise_management::BooleanPolicyProto"*, %"class.enterprise_management::BooleanPolicyProto"*, %"class.enterprise_management::StringListPolicyProto"*, %"class.enterprise_management::BooleanPolicyProto"*, %"class.enterprise_management::StringListPolicyProto"*, %"class.enterprise_management::StringPolicyProto"*, %"class.enterprise_management::StringListPolicyProto"*, %"class.enterprise_management::BooleanPolicyProto"*, %"class.enterprise_management::BooleanPolicyProto"*, %"class.enterprise_management::BooleanPolicyProto"*, %"class.enterprise_management::BooleanPolicyProto"*, %"class.enterprise_management::StringPolicyProto"*, %"class.enterprise_management::BooleanPolicyProto"*, %"class.enterprise_management::StringListPolicyProto"*, %"class.enterprise_management::BooleanPolicyProto"*, %"class.enterprise_management::BooleanPolicyProto"*, %"class.enterprise_management::BooleanPolicyProto"*, %"class.enterprise_management::StringPolicyProto"*, %"class.enterprise_management::StringPolicyProto"*, %"class.enterprise_management::IntegerPolicyProto"*, %"class.enterprise_management::StringListPolicyProto"*, %"class.enterprise_management::BooleanPolicyProto"*, %"class.enterprise_management::BooleanPolicyProto"*, %"class.enterprise_management::IntegerPolicyProto"*, %"class.enterprise_management::StringListPolicyProto"*, %"class.enterprise_management::StringListPolicyProto"*, %"class.enterprise_management::BooleanPolicyProto"*, %"class.enterprise_management::StringListPolicyProto"*, %"class.enterprise_management::StringPolicyProto"*, %"class.enterprise_management::BooleanPolicyProto"*, %"class.enterprise_management::BooleanPolicyProto"*, %"class.enterprise_management::StringListPolicyProto"*, %"class.enterprise_management::StringListPolicyProto"*, %"class.enterprise_management::IntegerPolicyProto"*, %"class.enterprise_management::BooleanPolicyProto"*, %"class.enterprise_management::BooleanPolicyProto"*, %"class.enterprise_management::BooleanPolicyProto"*, %"class.enterprise_management::BooleanPolicyProto"*, %"class.enterprise_management::IntegerPolicyProto"*, %"class.enterprise_management::BooleanPolicyProto"*, %"class.enterprise_management::IntegerPolicyProto"*, %"class.enterprise_management::BooleanPolicyProto"*, %"class.enterprise_management::IntegerPolicyProto"*, %"class.enterprise_management::BooleanPolicyProto"*, %"class.enterprise_management::BooleanPolicyProto"*, %"class.enterprise_management::StringPolicyProto"*, %"class.enterprise_management::StringPolicyProto"*, %"class.enterprise_management::StringPolicyProto"*, %"class.enterprise_management::StringPolicyProto"*, %"class.enterprise_management::StringListPolicyProto"*, %"class.enterprise_management::BooleanPolicyProto"*, %"class.enterprise_management::BooleanPolicyProto"*, %"class.enterprise_management::StringListPolicyProto"*, %"class.enterprise_management::StringListPolicyProto"*, %"class.enterprise_management::BooleanPolicyProto"*, %"class.enterprise_management::BooleanPolicyProto"*, %"class.enterprise_management::StringPolicyProto"*, %"class.enterprise_management::BooleanPolicyProto"*, %"class.enterprise_management::IntegerPolicyProto"*, %"class.enterprise_management::StringListPolicyProto"*, %"class.enterprise_management::StringListPolicyProto"*, %"class.enterprise_management::StringListPolicyProto"*, %"class.enterprise_management::StringListPolicyProto"*, %"class.enterprise_management::BooleanPolicyProto"*, %"class.enterprise_management::StringListPolicyProto"*, %"class.enterprise_management::StringListPolicyProto"*, %"class.enterprise_management::StringListPolicyProto"*, %"class.enterprise_management::StringListPolicyProto"*, %"class.enterprise_management::StringPolicyProto"*, %"class.enterprise_management::StringPolicyProto"*, %"class.enterprise_management::BooleanPolicyProto"*, %"class.enterprise_management::StringListPolicyProto"*, %"class.enterprise_management::IntegerPolicyProto"*, %"class.enterprise_management::StringListPolicyProto"*, %"class.enterprise_management::StringListPolicyProto"*, %"class.enterprise_management::IntegerPolicyProto"*, %"class.enterprise_management::StringListPolicyProto"*, %"class.enterprise_management::StringListPolicyProto"*, %"class.enterprise_management::BooleanPolicyProto"*, %"class.enterprise_management::StringListPolicyProto"*, %"class.enterprise_management::IntegerPolicyProto"*, %"class.enterprise_management::IntegerPolicyProto"*, %"class.enterprise_management::StringListPolicyProto"*, %"class.enterprise_management::StringListPolicyProto"*, %"class.enterprise_management::StringListPolicyProto"*, %"class.enterprise_management::StringListPolicyProto"*, %"class.enterprise_management::StringListPolicyProto"*, %"class.enterprise_management::BooleanPolicyProto"*, %"class.enterprise_management::BooleanPolicyProto"*, %"class.enterprise_management::StringPolicyProto"*, %"class.enterprise_management::IntegerPolicyProto"*, %"class.enterprise_management::BooleanPolicyProto"*, %"class.enterprise_management::BooleanPolicyProto"*, %"class.enterprise_management::BooleanPolicyProto"*, %"class.enterprise_management::BooleanPolicyProto"*, %"class.enterprise_management::StringListPolicyProto"*, %"class.enterprise_management::IntegerPolicyProto"*, %"class.enterprise_management::BooleanPolicyProto"*, %"class.enterprise_management::BooleanPolicyProto"*, %"class.enterprise_management::StringPolicyProto"*, %"class.enterprise_management::IntegerPolicyProto"*, %"class.enterprise_management::BooleanPolicyProto"*, %"class.enterprise_management::BooleanPolicyProto"*, %"class.enterprise_management::StringListPolicyProto"*, %"class.enterprise_management::StringPolicyProto"*, %"class.enterprise_management::StringPolicyProto"*, %"class.enterprise_management::StringListPolicyProto"*, %"class.enterprise_management::IntegerPolicyProto"*, %"class.enterprise_management::BooleanPolicyProto"*, %"class.enterprise_management::BooleanPolicyProto"*, %"class.enterprise_management::BooleanPolicyProto"*, %"class.enterprise_management::StringListPolicyProto"*, %"class.enterprise_management::StringPolicyProto"*, %"class.enterprise_management::StringListPolicyProto"*, %"class.enterprise_management::StringPolicyProto"*, %"class.enterprise_management::BooleanPolicyProto"*, %"class.enterprise_management::IntegerPolicyProto"*, %"class.enterprise_management::StringPolicyProto"*, %"class.enterprise_management::IntegerPolicyProto"*, %"class.enterprise_management::StringListPolicyProto"*, %"class.enterprise_management::StringListPolicyProto"*, %"class.enterprise_management::StringListPolicyProto"*, %"class.enterprise_management::BooleanPolicyProto"*, %"class.enterprise_management::StringPolicyProto"*, %"class.enterprise_management::BooleanPolicyProto"*, %"class.enterprise_management::BooleanPolicyProto"*, %"class.enterprise_management::BooleanPolicyProto"*, %"class.enterprise_management::StringPolicyProto"*, %"class.enterprise_management::BooleanPolicyProto"* }
%"class.google::protobuf::MessageLite" = type { i32 (...)**, %"class.google::protobuf::internal::InternalMetadata" }
%"class.google::protobuf::internal::InternalMetadata" = type { i8* }
%"class.google::protobuf::internal::HasBits" = type { [11 x i32] }
%"class.google::protobuf::internal::CachedSize" = type { %"struct.std::__1::atomic" }
%"struct.std::__1::atomic" = type { %"struct.std::__1::__atomic_base" }
%"struct.std::__1::__atomic_base" = type { %"struct.std::__1::__atomic_base.1" }
%"struct.std::__1::__atomic_base.1" = type { %"struct.std::__1::__cxx_atomic_impl" }
%"struct.std::__1::__cxx_atomic_impl" = type { %"struct.std::__1::__cxx_atomic_base_impl" }
%"struct.std::__1::__cxx_atomic_base_impl" = type { i32 }
%"class.enterprise_management::IntegerPolicyProto" = type { %"class.google::protobuf::MessageLite", %"class.google::protobuf::internal::HasBits.2", %"class.google::protobuf::internal::CachedSize", %"class.enterprise_management::PolicyOptions"*, i64 }
%"class.google::protobuf::internal::HasBits.2" = type { [1 x i32] }
%"class.enterprise_management::PolicyOptions" = type <{ %"class.google::protobuf::MessageLite", %"class.google::protobuf::internal::HasBits.2", %"class.google::protobuf::internal::CachedSize", i32, [4 x i8] }>
%"class.enterprise_management::StringListPolicyProto" = type { %"class.google::protobuf::MessageLite", %"class.google::protobuf::internal::HasBits.2", %"class.google::protobuf::internal::CachedSize", %"class.enterprise_management::PolicyOptions"*, %"class.enterprise_management::StringList"* }
%"class.enterprise_management::StringList" = type <{ %"class.google::protobuf::MessageLite", %"class.google::protobuf::RepeatedPtrField", %"class.google::protobuf::internal::CachedSize", [4 x i8] }>
%"class.google::protobuf::RepeatedPtrField" = type { %"class.google::protobuf::internal::RepeatedPtrFieldBase" }
%"class.google::protobuf::internal::RepeatedPtrFieldBase" = type { %"class.google::protobuf::Arena"*, i32, i32, %"struct.google::protobuf::internal::RepeatedPtrFieldBase::Rep"* }
%"class.google::protobuf::Arena" = type { %"class.google::protobuf::internal::ArenaImpl", void (%"class.std::type_info"*, i64, i8*)*, void (%"class.google::protobuf::Arena"*, i8*, i64)*, void (%"class.google::protobuf::Arena"*, i8*, i64)*, i8* }
%"class.google::protobuf::internal::ArenaImpl" = type { %"struct.std::__1::atomic.3", %"struct.std::__1::atomic.3", %"struct.std::__1::atomic.7", %"class.google::protobuf::internal::ArenaImpl::Block"*, i64, %"struct.google::protobuf::internal::ArenaImpl::Options" }
%"struct.std::__1::atomic.3" = type { %"struct.std::__1::__atomic_base.4" }
%"struct.std::__1::__atomic_base.4" = type { %"struct.std::__1::__cxx_atomic_impl.5" }
%"struct.std::__1::__cxx_atomic_impl.5" = type { %"struct.std::__1::__cxx_atomic_base_impl.6" }
%"struct.std::__1::__cxx_atomic_base_impl.6" = type { %"class.google::protobuf::internal::ArenaImpl::SerialArena"* }
%"class.google::protobuf::internal::ArenaImpl::SerialArena" = type { %"class.google::protobuf::internal::ArenaImpl"*, i8*, %"class.google::protobuf::internal::ArenaImpl::Block"*, %"struct.google::protobuf::internal::ArenaImpl::CleanupChunk"*, %"class.google::protobuf::internal::ArenaImpl::SerialArena"*, i8*, i8*, %"struct.google::protobuf::internal::ArenaImpl::CleanupNode"*, %"struct.google::protobuf::internal::ArenaImpl::CleanupNode"* }
%"struct.google::protobuf::internal::ArenaImpl::CleanupChunk" = type { i64, %"struct.google::protobuf::internal::ArenaImpl::CleanupChunk"*, [1 x %"struct.google::protobuf::internal::ArenaImpl::CleanupNode"] }
%"struct.google::protobuf::internal::ArenaImpl::CleanupNode" = type { i8*, void (i8*)* }
%"struct.std::__1::atomic.7" = type { %"struct.std::__1::__atomic_base.8" }
%"struct.std::__1::__atomic_base.8" = type { %"struct.std::__1::__atomic_base.9" }
%"struct.std::__1::__atomic_base.9" = type { %"struct.std::__1::__cxx_atomic_impl.10" }
%"struct.std::__1::__cxx_atomic_impl.10" = type { %"struct.std::__1::__cxx_atomic_base_impl.11" }
%"struct.std::__1::__cxx_atomic_base_impl.11" = type { i64 }
%"class.google::protobuf::internal::ArenaImpl::Block" = type { %"class.google::protobuf::internal::ArenaImpl::Block"*, i64, i64 }
%"struct.google::protobuf::internal::ArenaImpl::Options" = type { i64, i64, i8*, i64, i8* (i64)*, void (i8*, i64)* }
%"class.std::type_info" = type { i32 (...)**, i8* }
%"struct.google::protobuf::internal::RepeatedPtrFieldBase::Rep" = type { i32, [268435454 x i8*] }
%"class.enterprise_management::StringPolicyProto" = type { %"class.google::protobuf::MessageLite", %"class.google::protobuf::internal::HasBits.2", %"class.google::protobuf::internal::CachedSize", %"struct.google::protobuf::internal::ArenaStringPtr", %"class.enterprise_management::PolicyOptions"* }
%"struct.google::protobuf::internal::ArenaStringPtr" = type { %"class.std::__1::basic_string"* }
%"class.enterprise_management::BooleanPolicyProto" = type <{ %"class.google::protobuf::MessageLite", %"class.google::protobuf::internal::HasBits.2", %"class.google::protobuf::internal::CachedSize", %"class.enterprise_management::PolicyOptions"*, i8, [7 x i8] }>

$_ZNK21enterprise_management19CloudPolicySettings40has_abusiveexperienceinterventionenforceEv = comdat any

$_ZNK21enterprise_management19CloudPolicySettings36abusiveexperienceinterventionenforceEv = comdat any

$_ZNK21enterprise_management19CloudPolicySettings35has_accessibilityimagelabelsenabledEv = comdat any

$_ZNK21enterprise_management19CloudPolicySettings31accessibilityimagelabelsenabledEv = comdat any

$_ZNK21enterprise_management19CloudPolicySettings34has_additionaldnsquerytypesenabledEv = comdat any

$_ZNK21enterprise_management19CloudPolicySettings30additionaldnsquerytypesenabledEv = comdat any

$_ZNK21enterprise_management19CloudPolicySettings29has_advancedprotectionallowedEv = comdat any

$_ZNK21enterprise_management19CloudPolicySettings25advancedprotectionallowedEv = comdat any

$_ZNK21enterprise_management19CloudPolicySettings30has_allowcrossoriginauthpromptEv = comdat any

$_ZNK21enterprise_management19CloudPolicySettings26allowcrossoriginauthpromptEv = comdat any

$_ZNK21enterprise_management19CloudPolicySettings31has_allowdeletingbrowserhistoryEv = comdat any

$_ZNK21enterprise_management19CloudPolicySettings27allowdeletingbrowserhistoryEv = comdat any

$_ZNK21enterprise_management19CloudPolicySettings26has_allowdinosaureastereggEv = comdat any

$_ZNK21enterprise_management19CloudPolicySettings22allowdinosaureastereggEv = comdat any

$_ZNK21enterprise_management19CloudPolicySettings29has_allowfileselectiondialogsEv = comdat any

$_ZNK21enterprise_management19CloudPolicySettings25allowfileselectiondialogsEv = comdat any

$_ZNK21enterprise_management19CloudPolicySettings28has_allownativenotificationsEv = comdat any

$_ZNK21enterprise_management19CloudPolicySettings24allownativenotificationsEv = comdat any

$_ZNK21enterprise_management19CloudPolicySettings31has_allowsyncxhrinpagedismissalEv = comdat any

$_ZNK21enterprise_management19CloudPolicySettings27allowsyncxhrinpagedismissalEv = comdat any

$_ZNK21enterprise_management19CloudPolicySettings28has_allowsystemnotificationsEv = comdat any

$_ZNK21enterprise_management19CloudPolicySettings24allowsystemnotificationsEv = comdat any

$_ZNK21enterprise_management19CloudPolicySettings30has_alternateerrorpagesenabledEv = comdat any

$_ZNK21enterprise_management19CloudPolicySettings26alternateerrorpagesenabledEv = comdat any

$_ZNK21enterprise_management19CloudPolicySettings27has_alwaysopenpdfexternallyEv = comdat any

$_ZNK21enterprise_management19CloudPolicySettings23alwaysopenpdfexternallyEv = comdat any

$_ZNK21enterprise_management19CloudPolicySettings24has_appcacheforceenabledEv = comdat any

$_ZNK21enterprise_management19CloudPolicySettings20appcacheforceenabledEv = comdat any

$_ZNK21enterprise_management19CloudPolicySettings23has_audiocaptureallowedEv = comdat any

$_ZNK21enterprise_management19CloudPolicySettings19audiocaptureallowedEv = comdat any

$_ZNK21enterprise_management19CloudPolicySettings23has_audiosandboxenabledEv = comdat any

$_ZNK21enterprise_management19CloudPolicySettings19audiosandboxenabledEv = comdat any

$_ZNK21enterprise_management19CloudPolicySettings36has_authnegotiatedelegatebykdcpolicyEv = comdat any

$_ZNK21enterprise_management19CloudPolicySettings32authnegotiatedelegatebykdcpolicyEv = comdat any

$_ZNK21enterprise_management19CloudPolicySettings19has_autofillenabledEv = comdat any

$_ZNK21enterprise_management19CloudPolicySettings15autofillenabledEv = comdat any

$_ZNK21enterprise_management19CloudPolicySettings26has_autofilladdressenabledEv = comdat any

$_ZNK21enterprise_management19CloudPolicySettings22autofilladdressenabledEv = comdat any

$_ZNK21enterprise_management19CloudPolicySettings29has_autofillcreditcardenabledEv = comdat any

$_ZNK21enterprise_management19CloudPolicySettings25autofillcreditcardenabledEv = comdat any

$_ZNK21enterprise_management19CloudPolicySettings19has_autoplayallowedEv = comdat any

$_ZNK21enterprise_management19CloudPolicySettings15autoplayallowedEv = comdat any

$_ZNK21enterprise_management19CloudPolicySettings25has_backgroundmodeenabledEv = comdat any

$_ZNK21enterprise_management19CloudPolicySettings21backgroundmodeenabledEv = comdat any

$_ZNK21enterprise_management19CloudPolicySettings28has_basicauthoverhttpenabledEv = comdat any

$_ZNK21enterprise_management19CloudPolicySettings24basicauthoverhttpenabledEv = comdat any

$_ZNK21enterprise_management19CloudPolicySettings27has_blockexternalextensionsEv = comdat any

$_ZNK21enterprise_management19CloudPolicySettings23blockexternalextensionsEv = comdat any

$_ZNK21enterprise_management19CloudPolicySettings26has_blockthirdpartycookiesEv = comdat any

$_ZNK21enterprise_management19CloudPolicySettings22blockthirdpartycookiesEv = comdat any

$_ZNK21enterprise_management19CloudPolicySettings22has_bookmarkbarenabledEv = comdat any

$_ZNK21enterprise_management19CloudPolicySettings18bookmarkbarenabledEv = comdat any

$_ZNK21enterprise_management19CloudPolicySettings27has_browseraddpersonenabledEv = comdat any

$_ZNK21enterprise_management19CloudPolicySettings23browseraddpersonenabledEv = comdat any

$_ZNK21enterprise_management19CloudPolicySettings27has_browserguestmodeenabledEv = comdat any

$_ZNK21enterprise_management19CloudPolicySettings23browserguestmodeenabledEv = comdat any

$_ZNK21enterprise_management19CloudPolicySettings28has_browserguestmodeenforcedEv = comdat any

$_ZNK21enterprise_management19CloudPolicySettings24browserguestmodeenforcedEv = comdat any

$_ZNK21enterprise_management19CloudPolicySettings22has_browserlabsenabledEv = comdat any

$_ZNK21enterprise_management19CloudPolicySettings18browserlabsenabledEv = comdat any

$_ZNK21enterprise_management19CloudPolicySettings36has_browsernetworktimequeriesenabledEv = comdat any

$_ZNK21enterprise_management19CloudPolicySettings32browsernetworktimequeriesenabledEv = comdat any

$_ZNK21enterprise_management19CloudPolicySettings26has_browserswitcherenabledEv = comdat any

$_ZNK21enterprise_management19CloudPolicySettings22browserswitcherenabledEv = comdat any

$_ZNK21enterprise_management19CloudPolicySettings36has_browserswitcherkeeplastchrometabEv = comdat any

$_ZNK21enterprise_management19CloudPolicySettings32browserswitcherkeeplastchrometabEv = comdat any

$_ZNK21enterprise_management19CloudPolicySettings27has_builtindnsclientenabledEv = comdat any

$_ZNK21enterprise_management19CloudPolicySettings23builtindnsclientenabledEv = comdat any

$_ZNK21enterprise_management19CloudPolicySettings17has_cecpq2enabledEv = comdat any

$_ZNK21enterprise_management19CloudPolicySettings13cecpq2enabledEv = comdat any

$_ZNK21enterprise_management19CloudPolicySettings22has_clicktocallenabledEv = comdat any

$_ZNK21enterprise_management19CloudPolicySettings18clicktocallenabledEv = comdat any

$_ZNK21enterprise_management19CloudPolicySettings32has_cloudextensionrequestenabledEv = comdat any

$_ZNK21enterprise_management19CloudPolicySettings28cloudextensionrequestenabledEv = comdat any

$_ZNK21enterprise_management19CloudPolicySettings38has_cloudmanagementenrollmentmandatoryEv = comdat any

$_ZNK21enterprise_management19CloudPolicySettings34cloudmanagementenrollmentmandatoryEv = comdat any

$_ZNK21enterprise_management19CloudPolicySettings38has_cloudpolicyoverridesplatformpolicyEv = comdat any

$_ZNK21enterprise_management19CloudPolicySettings34cloudpolicyoverridesplatformpolicyEv = comdat any

$_ZNK21enterprise_management19CloudPolicySettings26has_cloudprintproxyenabledEv = comdat any

$_ZNK21enterprise_management19CloudPolicySettings22cloudprintproxyenabledEv = comdat any

$_ZNK21enterprise_management19CloudPolicySettings27has_cloudprintsubmitenabledEv = comdat any

$_ZNK21enterprise_management19CloudPolicySettings23cloudprintsubmitenabledEv = comdat any

$_ZNK21enterprise_management19CloudPolicySettings25has_cloudreportingenabledEv = comdat any

$_ZNK21enterprise_management19CloudPolicySettings21cloudreportingenabledEv = comdat any

$_ZNK21enterprise_management19CloudPolicySettings24has_clouduserpolicymergeEv = comdat any

$_ZNK21enterprise_management19CloudPolicySettings20clouduserpolicymergeEv = comdat any

$_ZNK21enterprise_management19CloudPolicySettings42has_commandlineflagsecuritywarningsenabledEv = comdat any

$_ZNK21enterprise_management19CloudPolicySettings38commandlineflagsecuritywarningsenabledEv = comdat any

$_ZNK21enterprise_management19CloudPolicySettings27has_componentupdatesenabledEv = comdat any

$_ZNK21enterprise_management19CloudPolicySettings23componentupdatesenabledEv = comdat any

$_ZNK21enterprise_management19CloudPolicySettings32has_dnsinterceptionchecksenabledEv = comdat any

$_ZNK21enterprise_management19CloudPolicySettings28dnsinterceptionchecksenabledEv = comdat any

$_ZNK21enterprise_management19CloudPolicySettings32has_defaultbrowsersettingenabledEv = comdat any

$_ZNK21enterprise_management19CloudPolicySettings28defaultbrowsersettingenabledEv = comdat any

$_ZNK21enterprise_management19CloudPolicySettings49has_defaultsearchprovidercontextmenuaccessallowedEv = comdat any

$_ZNK21enterprise_management19CloudPolicySettings45defaultsearchprovidercontextmenuaccessallowedEv = comdat any

$_ZNK21enterprise_management19CloudPolicySettings32has_defaultsearchproviderenabledEv = comdat any

$_ZNK21enterprise_management19CloudPolicySettings28defaultsearchproviderenabledEv = comdat any

$_ZNK21enterprise_management19CloudPolicySettings26has_developertoolsdisabledEv = comdat any

$_ZNK21enterprise_management19CloudPolicySettings22developertoolsdisabledEv = comdat any

$_ZNK21enterprise_management19CloudPolicySettings17has_disable3dapisEv = comdat any

$_ZNK21enterprise_management19CloudPolicySettings13disable3dapisEv = comdat any

$_ZNK21enterprise_management19CloudPolicySettings35has_disableauthnegotiatecnamelookupEv = comdat any

$_ZNK21enterprise_management19CloudPolicySettings31disableauthnegotiatecnamelookupEv = comdat any

$_ZNK21enterprise_management19CloudPolicySettings23has_disableprintpreviewEv = comdat any

$_ZNK21enterprise_management19CloudPolicySettings19disableprintpreviewEv = comdat any

$_ZNK21enterprise_management19CloudPolicySettings36has_disablesafebrowsingproceedanywayEv = comdat any

$_ZNK21enterprise_management19CloudPolicySettings32disablesafebrowsingproceedanywayEv = comdat any

$_ZNK21enterprise_management19CloudPolicySettings22has_disablescreenshotsEv = comdat any

$_ZNK21enterprise_management19CloudPolicySettings18disablescreenshotsEv = comdat any

$_ZNK21enterprise_management19CloudPolicySettings24has_editbookmarksenabledEv = comdat any

$_ZNK21enterprise_management19CloudPolicySettings20editbookmarksenabledEv = comdat any

$_ZNK21enterprise_management19CloudPolicySettings27has_enableauthnegotiateportEv = comdat any

$_ZNK21enterprise_management19CloudPolicySettings23enableauthnegotiateportEv = comdat any

$_ZNK21enterprise_management19CloudPolicySettings34has_enabledeprecatedprivetprintingEv = comdat any

$_ZNK21enterprise_management19CloudPolicySettings30enabledeprecatedprivetprintingEv = comdat any

$_ZNK21enterprise_management19CloudPolicySettings21has_enablemediarouterEv = comdat any

$_ZNK21enterprise_management19CloudPolicySettings17enablemediarouterEv = comdat any

$_ZNK21enterprise_management19CloudPolicySettings32has_enableonlinerevocationchecksEv = comdat any

$_ZNK21enterprise_management19CloudPolicySettings28enableonlinerevocationchecksEv = comdat any

$_ZNK21enterprise_management19CloudPolicySettings40has_enterprisehardwareplatformapienabledEv = comdat any

$_ZNK21enterprise_management19CloudPolicySettings36enterprisehardwareplatformapienabledEv = comdat any

$_ZNK21enterprise_management19CloudPolicySettings48has_externalprotocoldialogshowalwaysopencheckboxEv = comdat any

$_ZNK21enterprise_management19CloudPolicySettings44externalprotocoldialogshowalwaysopencheckboxEv = comdat any

$_ZNK21enterprise_management19CloudPolicySettings26has_forceephemeralprofilesEv = comdat any

$_ZNK21enterprise_management19CloudPolicySettings22forceephemeralprofilesEv = comdat any

$_ZNK21enterprise_management19CloudPolicySettings25has_forcegooglesafesearchEv = comdat any

$_ZNK21enterprise_management19CloudPolicySettings21forcegooglesafesearchEv = comdat any

$_ZNK21enterprise_management19CloudPolicySettings19has_forcesafesearchEv = comdat any

$_ZNK21enterprise_management19CloudPolicySettings15forcesafesearchEv = comdat any

$_ZNK21enterprise_management19CloudPolicySettings26has_forceyoutubesafetymodeEv = comdat any

$_ZNK21enterprise_management19CloudPolicySettings22forceyoutubesafetymodeEv = comdat any

$_ZNK21enterprise_management19CloudPolicySettings21has_fullscreenallowedEv = comdat any

$_ZNK21enterprise_management19CloudPolicySettings17fullscreenallowedEv = comdat any

$_ZNK21enterprise_management19CloudPolicySettings37has_globallyscopehttpauthcacheenabledEv = comdat any

$_ZNK21enterprise_management19CloudPolicySettings33globallyscopehttpauthcacheenabledEv = comdat any

$_ZNK21enterprise_management19CloudPolicySettings35has_hardwareaccelerationmodeenabledEv = comdat any

$_ZNK21enterprise_management19CloudPolicySettings31hardwareaccelerationmodeenabledEv = comdat any

$_ZNK21enterprise_management19CloudPolicySettings20has_hidewebstoreiconEv = comdat any

$_ZNK21enterprise_management19CloudPolicySettings16hidewebstoreiconEv = comdat any

$_ZNK21enterprise_management19CloudPolicySettings24has_homepageisnewtabpageEv = comdat any

$_ZNK21enterprise_management19CloudPolicySettings20homepageisnewtabpageEv = comdat any

$_ZNK21enterprise_management19CloudPolicySettings26has_importautofillformdataEv = comdat any

$_ZNK21enterprise_management19CloudPolicySettings22importautofillformdataEv = comdat any

$_ZNK21enterprise_management19CloudPolicySettings19has_importbookmarksEv = comdat any

$_ZNK21enterprise_management19CloudPolicySettings15importbookmarksEv = comdat any

$_ZNK21enterprise_management19CloudPolicySettings17has_importhistoryEv = comdat any

$_ZNK21enterprise_management19CloudPolicySettings13importhistoryEv = comdat any

$_ZNK21enterprise_management19CloudPolicySettings18has_importhomepageEv = comdat any

$_ZNK21enterprise_management19CloudPolicySettings14importhomepageEv = comdat any

$_ZNK21enterprise_management19CloudPolicySettings24has_importsavedpasswordsEv = comdat any

$_ZNK21enterprise_management19CloudPolicySettings20importsavedpasswordsEv = comdat any

$_ZNK21enterprise_management19CloudPolicySettings22has_importsearchengineEv = comdat any

$_ZNK21enterprise_management19CloudPolicySettings18importsearchengineEv = comdat any

$_ZNK21enterprise_management19CloudPolicySettings20has_incognitoenabledEv = comdat any

$_ZNK21enterprise_management19CloudPolicySettings16incognitoenabledEv = comdat any

$_ZNK21enterprise_management19CloudPolicySettings32has_insecureformswarningsenabledEv = comdat any

$_ZNK21enterprise_management19CloudPolicySettings28insecureformswarningsenabledEv = comdat any

$_ZNK21enterprise_management19CloudPolicySettings41has_insecureprivatenetworkrequestsallowedEv = comdat any

$_ZNK21enterprise_management19CloudPolicySettings37insecureprivatenetworkrequestsallowedEv = comdat any

$_ZNK21enterprise_management19CloudPolicySettings36has_intensivewakeupthrottlingenabledEv = comdat any

$_ZNK21enterprise_management19CloudPolicySettings32intensivewakeupthrottlingenabledEv = comdat any

$_ZNK21enterprise_management19CloudPolicySettings21has_javascriptenabledEv = comdat any

$_ZNK21enterprise_management19CloudPolicySettings17javascriptenabledEv = comdat any

$_ZNK21enterprise_management19CloudPolicySettings34has_lacrossecondaryprofilesallowedEv = comdat any

$_ZNK21enterprise_management19CloudPolicySettings30lacrossecondaryprofilesallowedEv = comdat any

$_ZNK21enterprise_management19CloudPolicySettings31has_lockiconinaddressbarenabledEv = comdat any

$_ZNK21enterprise_management19CloudPolicySettings27lockiconinaddressbarenabledEv = comdat any

$_ZNK21enterprise_management19CloudPolicySettings31has_mediarecommendationsenabledEv = comdat any

$_ZNK21enterprise_management19CloudPolicySettings27mediarecommendationsenabledEv = comdat any

$_ZNK21enterprise_management19CloudPolicySettings30has_mediaroutercastallowallipsEv = comdat any

$_ZNK21enterprise_management19CloudPolicySettings26mediaroutercastallowallipsEv = comdat any

$_ZNK21enterprise_management19CloudPolicySettings27has_metricsreportingenabledEv = comdat any

$_ZNK21enterprise_management19CloudPolicySettings23metricsreportingenabledEv = comdat any

$_ZNK21enterprise_management19CloudPolicySettings19has_ntpcardsvisibleEv = comdat any

$_ZNK21enterprise_management19CloudPolicySettings15ntpcardsvisibleEv = comdat any

$_ZNK21enterprise_management19CloudPolicySettings30has_ntpcustombackgroundenabledEv = comdat any

$_ZNK21enterprise_management19CloudPolicySettings26ntpcustombackgroundenabledEv = comdat any

$_ZNK21enterprise_management19CloudPolicySettings33has_nativemessaginguserlevelhostsEv = comdat any

$_ZNK21enterprise_management19CloudPolicySettings29nativemessaginguserlevelhostsEv = comdat any

$_ZNK21enterprise_management19CloudPolicySettings17has_ntlmv2enabledEv = comdat any

$_ZNK21enterprise_management19CloudPolicySettings13ntlmv2enabledEv = comdat any

$_ZNK21enterprise_management19CloudPolicySettings32has_passwordleakdetectionenabledEv = comdat any

$_ZNK21enterprise_management19CloudPolicySettings28passwordleakdetectionenabledEv = comdat any

$_ZNK21enterprise_management19CloudPolicySettings26has_passwordmanagerenabledEv = comdat any

$_ZNK21enterprise_management19CloudPolicySettings22passwordmanagerenabledEv = comdat any

$_ZNK21enterprise_management19CloudPolicySettings29has_paymentmethodqueryenabledEv = comdat any

$_ZNK21enterprise_management19CloudPolicySettings25paymentmethodqueryenabledEv = comdat any

$_ZNK21enterprise_management19CloudPolicySettings29has_policyatomicgroupsenabledEv = comdat any

$_ZNK21enterprise_management19CloudPolicySettings25policyatomicgroupsenabledEv = comdat any

$_ZNK21enterprise_management19CloudPolicySettings21has_printheaderfooterEv = comdat any

$_ZNK21enterprise_management19CloudPolicySettings17printheaderfooterEv = comdat any

$_ZNK21enterprise_management19CloudPolicySettings39has_printpreviewusesystemdefaultprinterEv = comdat any

$_ZNK21enterprise_management19CloudPolicySettings35printpreviewusesystemdefaultprinterEv = comdat any

$_ZNK21enterprise_management19CloudPolicySettings19has_printingenabledEv = comdat any

$_ZNK21enterprise_management19CloudPolicySettings15printingenabledEv = comdat any

$_ZNK21enterprise_management19CloudPolicySettings26has_promotionaltabsenabledEv = comdat any

$_ZNK21enterprise_management19CloudPolicySettings22promotionaltabsenabledEv = comdat any

$_ZNK21enterprise_management19CloudPolicySettings29has_promptfordownloadlocationEv = comdat any

$_ZNK21enterprise_management19CloudPolicySettings25promptfordownloadlocationEv = comdat any

$_ZNK21enterprise_management19CloudPolicySettings15has_quicallowedEv = comdat any

$_ZNK21enterprise_management19CloudPolicySettings11quicallowedEv = comdat any

$_ZNK21enterprise_management19CloudPolicySettings38has_remoteaccesshostallowclientpairingEv = comdat any

$_ZNK21enterprise_management19CloudPolicySettings34remoteaccesshostallowclientpairingEv = comdat any

$_ZNK21enterprise_management19CloudPolicySettings37has_remoteaccesshostallowfiletransferEv = comdat any

$_ZNK21enterprise_management19CloudPolicySettings33remoteaccesshostallowfiletransferEv = comdat any

$_ZNK21enterprise_management19CloudPolicySettings35has_remoteaccesshostallowgnubbyauthEv = comdat any

$_ZNK21enterprise_management19CloudPolicySettings31remoteaccesshostallowgnubbyauthEv = comdat any

$_ZNK21enterprise_management19CloudPolicySettings42has_remoteaccesshostallowrelayedconnectionEv = comdat any

$_ZNK21enterprise_management19CloudPolicySettings38remoteaccesshostallowrelayedconnectionEv = comdat any

$_ZNK21enterprise_management19CloudPolicySettings48has_remoteaccesshostallowremoteaccessconnectionsEv = comdat any

$_ZNK21enterprise_management19CloudPolicySettings44remoteaccesshostallowremoteaccessconnectionsEv = comdat any

$_ZNK21enterprise_management19CloudPolicySettings39has_remoteaccesshostenableuserinterfaceEv = comdat any

$_ZNK21enterprise_management19CloudPolicySettings35remoteaccesshostenableuserinterfaceEv = comdat any

$_ZNK21enterprise_management19CloudPolicySettings37has_remoteaccesshostfirewalltraversalEv = comdat any

$_ZNK21enterprise_management19CloudPolicySettings33remoteaccesshostfirewalltraversalEv = comdat any

$_ZNK21enterprise_management19CloudPolicySettings33has_remoteaccesshostmatchusernameEv = comdat any

$_ZNK21enterprise_management19CloudPolicySettings29remoteaccesshostmatchusernameEv = comdat any

$_ZNK21enterprise_management19CloudPolicySettings34has_remoteaccesshostrequirecurtainEv = comdat any

$_ZNK21enterprise_management19CloudPolicySettings30remoteaccesshostrequirecurtainEv = comdat any

$_ZNK21enterprise_management19CloudPolicySettings34has_reportextensionsandpluginsdataEv = comdat any

$_ZNK21enterprise_management19CloudPolicySettings30reportextensionsandpluginsdataEv = comdat any

$_ZNK21enterprise_management19CloudPolicySettings23has_reportmachineiddataEv = comdat any

$_ZNK21enterprise_management19CloudPolicySettings19reportmachineiddataEv = comdat any

$_ZNK21enterprise_management19CloudPolicySettings20has_reportpolicydataEv = comdat any

$_ZNK21enterprise_management19CloudPolicySettings16reportpolicydataEv = comdat any

$_ZNK21enterprise_management19CloudPolicySettings20has_reportuseriddataEv = comdat any

$_ZNK21enterprise_management19CloudPolicySettings16reportuseriddataEv = comdat any

$_ZNK21enterprise_management19CloudPolicySettings21has_reportversiondataEv = comdat any

$_ZNK21enterprise_management19CloudPolicySettings17reportversiondataEv = comdat any

$_ZNK21enterprise_management19CloudPolicySettings48has_requireonlinerevocationchecksforlocalanchorsEv = comdat any

$_ZNK21enterprise_management19CloudPolicySettings44requireonlinerevocationchecksforlocalanchorsEv = comdat any

$_ZNK21enterprise_management19CloudPolicySettings32has_roamingprofilesupportenabledEv = comdat any

$_ZNK21enterprise_management19CloudPolicySettings28roamingprofilesupportenabledEv = comdat any

$_ZNK21enterprise_management19CloudPolicySettings27has_sslerroroverrideallowedEv = comdat any

$_ZNK21enterprise_management19CloudPolicySettings23sslerroroverrideallowedEv = comdat any

$_ZNK21enterprise_management19CloudPolicySettings23has_safebrowsingenabledEv = comdat any

$_ZNK21enterprise_management19CloudPolicySettings19safebrowsingenabledEv = comdat any

$_ZNK21enterprise_management19CloudPolicySettings40has_safebrowsingextendedreportingenabledEv = comdat any

$_ZNK21enterprise_management19CloudPolicySettings36safebrowsingextendedreportingenabledEv = comdat any

$_ZNK21enterprise_management19CloudPolicySettings32has_savingbrowserhistorydisabledEv = comdat any

$_ZNK21enterprise_management19CloudPolicySettings28savingbrowserhistorydisabledEv = comdat any

$_ZNK21enterprise_management19CloudPolicySettings24has_screencaptureallowedEv = comdat any

$_ZNK21enterprise_management19CloudPolicySettings20screencaptureallowedEv = comdat any

$_ZNK21enterprise_management19CloudPolicySettings31has_scrolltotextfragmentenabledEv = comdat any

$_ZNK21enterprise_management19CloudPolicySettings27scrolltotextfragmentenabledEv = comdat any

$_ZNK21enterprise_management19CloudPolicySettings24has_searchsuggestenabledEv = comdat any

$_ZNK21enterprise_management19CloudPolicySettings20searchsuggestenabledEv = comdat any

$_ZNK21enterprise_management19CloudPolicySettings46has_sharedarraybufferunrestrictedaccessallowedEv = comdat any

$_ZNK21enterprise_management19CloudPolicySettings42sharedarraybufferunrestrictedaccessallowedEv = comdat any

$_ZNK21enterprise_management19CloudPolicySettings26has_sharedclipboardenabledEv = comdat any

$_ZNK21enterprise_management19CloudPolicySettings22sharedclipboardenabledEv = comdat any

$_ZNK21enterprise_management19CloudPolicySettings33has_showappsshortcutinbookmarkbarEv = comdat any

$_ZNK21enterprise_management19CloudPolicySettings29showappsshortcutinbookmarkbarEv = comdat any

$_ZNK21enterprise_management19CloudPolicySettings25has_showcasticonintoolbarEv = comdat any

$_ZNK21enterprise_management19CloudPolicySettings21showcasticonintoolbarEv = comdat any

$_ZNK21enterprise_management19CloudPolicySettings28has_showfullurlsinaddressbarEv = comdat any

$_ZNK21enterprise_management19CloudPolicySettings24showfullurlsinaddressbarEv = comdat any

$_ZNK21enterprise_management19CloudPolicySettings18has_showhomebuttonEv = comdat any

$_ZNK21enterprise_management19CloudPolicySettings14showhomebuttonEv = comdat any

$_ZNK21enterprise_management19CloudPolicySettings29has_signedhttpexchangeenabledEv = comdat any

$_ZNK21enterprise_management19CloudPolicySettings25signedhttpexchangeenabledEv = comdat any

$_ZNK21enterprise_management19CloudPolicySettings17has_signinallowedEv = comdat any

$_ZNK21enterprise_management19CloudPolicySettings13signinallowedEv = comdat any

$_ZNK21enterprise_management19CloudPolicySettings29has_signininterceptionenabledEv = comdat any

$_ZNK21enterprise_management19CloudPolicySettings25signininterceptionenabledEv = comdat any

$_ZNK21enterprise_management19CloudPolicySettings18has_siteperprocessEv = comdat any

$_ZNK21enterprise_management19CloudPolicySettings14siteperprocessEv = comdat any

$_ZNK21enterprise_management19CloudPolicySettings28has_spellcheckserviceenabledEv = comdat any

$_ZNK21enterprise_management19CloudPolicySettings24spellcheckserviceenabledEv = comdat any

$_ZNK21enterprise_management19CloudPolicySettings21has_spellcheckenabledEv = comdat any

$_ZNK21enterprise_management19CloudPolicySettings17spellcheckenabledEv = comdat any

$_ZNK21enterprise_management19CloudPolicySettings40has_strictermixedcontenttreatmentenabledEv = comdat any

$_ZNK21enterprise_management19CloudPolicySettings36strictermixedcontenttreatmentenabledEv = comdat any

$_ZNK21enterprise_management19CloudPolicySettings42has_suppressdifferentoriginsubframedialogsEv = comdat any

$_ZNK21enterprise_management19CloudPolicySettings38suppressdifferentoriginsubframedialogsEv = comdat any

$_ZNK21enterprise_management19CloudPolicySettings32has_suppressunsupportedoswarningEv = comdat any

$_ZNK21enterprise_management19CloudPolicySettings28suppressunsupportedoswarningEv = comdat any

$_ZNK21enterprise_management19CloudPolicySettings16has_syncdisabledEv = comdat any

$_ZNK21enterprise_management19CloudPolicySettings12syncdisabledEv = comdat any

$_ZNK21enterprise_management19CloudPolicySettings30has_targetblankimpliesnoopenerEv = comdat any

$_ZNK21enterprise_management19CloudPolicySettings26targetblankimpliesnoopenerEv = comdat any

$_ZNK21enterprise_management19CloudPolicySettings32has_taskmanagerendprocessenabledEv = comdat any

$_ZNK21enterprise_management19CloudPolicySettings28taskmanagerendprocessenabledEv = comdat any

$_ZNK21enterprise_management19CloudPolicySettings20has_translateenabledEv = comdat any

$_ZNK21enterprise_management19CloudPolicySettings16translateenabledEv = comdat any

$_ZNK21enterprise_management19CloudPolicySettings20has_tripledesenabledEv = comdat any

$_ZNK21enterprise_management19CloudPolicySettings16tripledesenabledEv = comdat any

$_ZNK21enterprise_management19CloudPolicySettings43has_urlkeyedanonymizeddatacollectionenabledEv = comdat any

$_ZNK21enterprise_management19CloudPolicySettings39urlkeyedanonymizeddatacollectionenabledEv = comdat any

$_ZNK21enterprise_management19CloudPolicySettings31has_useragentclienthintsenabledEv = comdat any

$_ZNK21enterprise_management19CloudPolicySettings27useragentclienthintsenabledEv = comdat any

$_ZNK21enterprise_management19CloudPolicySettings23has_userfeedbackallowedEv = comdat any

$_ZNK21enterprise_management19CloudPolicySettings19userfeedbackallowedEv = comdat any

$_ZNK21enterprise_management19CloudPolicySettings23has_videocaptureallowedEv = comdat any

$_ZNK21enterprise_management19CloudPolicySettings19videocaptureallowedEv = comdat any

$_ZNK21enterprise_management19CloudPolicySettings25has_wpadquickcheckenabledEv = comdat any

$_ZNK21enterprise_management19CloudPolicySettings21wpadquickcheckenabledEv = comdat any

$_ZNK21enterprise_management19CloudPolicySettings33has_webrtcallowlegacytlsprotocolsEv = comdat any

$_ZNK21enterprise_management19CloudPolicySettings29webrtcallowlegacytlsprotocolsEv = comdat any

$_ZNK21enterprise_management19CloudPolicySettings35has_webrtceventlogcollectionallowedEv = comdat any

$_ZNK21enterprise_management19CloudPolicySettings31webrtceventlogcollectionallowedEv = comdat any

$_ZNK21enterprise_management19CloudPolicySettings34has_adssettingforintrusiveadssitesEv = comdat any

$_ZNK21enterprise_management19CloudPolicySettings30adssettingforintrusiveadssitesEv = comdat any

$_ZNK21enterprise_management19CloudPolicySettings46has_ambientauthenticationinprivatemodesenabledEv = comdat any

$_ZNK21enterprise_management19CloudPolicySettings42ambientauthenticationinprivatemodesenabledEv = comdat any

$_ZNK21enterprise_management19CloudPolicySettings17has_browsersigninEv = comdat any

$_ZNK21enterprise_management19CloudPolicySettings13browsersigninEv = comdat any

$_ZNK21enterprise_management19CloudPolicySettings24has_browserswitcherdelayEv = comdat any

$_ZNK21enterprise_management19CloudPolicySettings20browserswitcherdelayEv = comdat any

$_ZNK21enterprise_management19CloudPolicySettings20has_chromevariationsEv = comdat any

$_ZNK21enterprise_management19CloudPolicySettings16chromevariationsEv = comdat any

$_ZNK21enterprise_management19CloudPolicySettings25has_defaultcookiessettingEv = comdat any

$_ZNK21enterprise_management19CloudPolicySettings21defaultcookiessettingEv = comdat any

$_ZNK21enterprise_management19CloudPolicySettings35has_defaultfilehandlingguardsettingEv = comdat any

$_ZNK21enterprise_management19CloudPolicySettings31defaultfilehandlingguardsettingEv = comdat any

$_ZNK21enterprise_management19CloudPolicySettings37has_defaultfilesystemreadguardsettingEv = comdat any

$_ZNK21enterprise_management19CloudPolicySettings33defaultfilesystemreadguardsettingEv = comdat any

$_ZNK21enterprise_management19CloudPolicySettings38has_defaultfilesystemwriteguardsettingEv = comdat any

$_ZNK21enterprise_management19CloudPolicySettings34defaultfilesystemwriteguardsettingEv = comdat any

$_ZNK21enterprise_management19CloudPolicySettings29has_defaultgeolocationsettingEv = comdat any

$_ZNK21enterprise_management19CloudPolicySettings25defaultgeolocationsettingEv = comdat any

$_ZNK21enterprise_management19CloudPolicySettings24has_defaultimagessettingEv = comdat any

$_ZNK21enterprise_management19CloudPolicySettings20defaultimagessettingEv = comdat any

$_ZNK21enterprise_management19CloudPolicySettings33has_defaultinsecurecontentsettingEv = comdat any

$_ZNK21enterprise_management19CloudPolicySettings29defaultinsecurecontentsettingEv = comdat any

$_ZNK21enterprise_management19CloudPolicySettings28has_defaultjavascriptsettingEv = comdat any

$_ZNK21enterprise_management19CloudPolicySettings24defaultjavascriptsettingEv = comdat any

$_ZNK21enterprise_management19CloudPolicySettings29has_defaultmediastreamsettingEv = comdat any

$_ZNK21enterprise_management19CloudPolicySettings25defaultmediastreamsettingEv = comdat any

$_ZNK21enterprise_management19CloudPolicySettings31has_defaultnotificationssettingEv = comdat any

$_ZNK21enterprise_management19CloudPolicySettings27defaultnotificationssettingEv = comdat any

$_ZNK21enterprise_management19CloudPolicySettings24has_defaultpopupssettingEv = comdat any

$_ZNK21enterprise_management19CloudPolicySettings20defaultpopupssettingEv = comdat any

$_ZNK21enterprise_management19CloudPolicySettings25has_defaultsensorssettingEv = comdat any

$_ZNK21enterprise_management19CloudPolicySettings21defaultsensorssettingEv = comdat any

$_ZNK21enterprise_management19CloudPolicySettings29has_defaultserialguardsettingEv = comdat any

$_ZNK21enterprise_management19CloudPolicySettings25defaultserialguardsettingEv = comdat any

$_ZNK21enterprise_management19CloudPolicySettings35has_defaultwebbluetoothguardsettingEv = comdat any

$_ZNK21enterprise_management19CloudPolicySettings31defaultwebbluetoothguardsettingEv = comdat any

$_ZNK21enterprise_management19CloudPolicySettings29has_defaultwebusbguardsettingEv = comdat any

$_ZNK21enterprise_management19CloudPolicySettings25defaultwebusbguardsettingEv = comdat any

$_ZNK21enterprise_management19CloudPolicySettings30has_developertoolsavailabilityEv = comdat any

$_ZNK21enterprise_management19CloudPolicySettings26developertoolsavailabilityEv = comdat any

$_ZNK21enterprise_management19CloudPolicySettings17has_diskcachesizeEv = comdat any

$_ZNK21enterprise_management19CloudPolicySettings13diskcachesizeEv = comdat any

$_ZNK21enterprise_management19CloudPolicySettings24has_downloadrestrictionsEv = comdat any

$_ZNK21enterprise_management19CloudPolicySettings20downloadrestrictionsEv = comdat any

$_ZNK21enterprise_management19CloudPolicySettings34has_enterpriserealtimeurlcheckmodeEv = comdat any

$_ZNK21enterprise_management19CloudPolicySettings30enterpriserealtimeurlcheckmodeEv = comdat any

$_ZNK21enterprise_management19CloudPolicySettings43has_fetchkeepalivedurationsecondsonshutdownEv = comdat any

$_ZNK21enterprise_management19CloudPolicySettings39fetchkeepalivedurationsecondsonshutdownEv = comdat any

$_ZNK21enterprise_management19CloudPolicySettings24has_forceyoutuberestrictEv = comdat any

$_ZNK21enterprise_management19CloudPolicySettings20forceyoutuberestrictEv = comdat any

$_ZNK21enterprise_management19CloudPolicySettings16has_headlessmodeEv = comdat any

$_ZNK21enterprise_management19CloudPolicySettings12headlessmodeEv = comdat any

$_ZNK21enterprise_management19CloudPolicySettings29has_incognitomodeavailabilityEv = comdat any

$_ZNK21enterprise_management19CloudPolicySettings25incognitomodeavailabilityEv = comdat any

$_ZNK21enterprise_management19CloudPolicySettings28has_intranetredirectbehaviorEv = comdat any

$_ZNK21enterprise_management19CloudPolicySettings24intranetredirectbehaviorEv = comdat any

$_ZNK21enterprise_management19CloudPolicySettings39has_legacysamesitecookiebehaviorenabledEv = comdat any

$_ZNK21enterprise_management19CloudPolicySettings35legacysamesitecookiebehaviorenabledEv = comdat any

$_ZNK21enterprise_management19CloudPolicySettings26has_maxconnectionsperproxyEv = comdat any

$_ZNK21enterprise_management19CloudPolicySettings22maxconnectionsperproxyEv = comdat any

$_ZNK21enterprise_management19CloudPolicySettings29has_maxinvalidationfetchdelayEv = comdat any

$_ZNK21enterprise_management19CloudPolicySettings25maxinvalidationfetchdelayEv = comdat any

$_ZNK21enterprise_management19CloudPolicySettings28has_networkpredictionoptionsEv = comdat any

$_ZNK21enterprise_management19CloudPolicySettings24networkpredictionoptionsEv = comdat any

$_ZNK21enterprise_management19CloudPolicySettings36has_passwordprotectionwarningtriggerEv = comdat any

$_ZNK21enterprise_management19CloudPolicySettings32passwordprotectionwarningtriggerEv = comdat any

$_ZNK21enterprise_management19CloudPolicySettings21has_policyrefreshrateEv = comdat any

$_ZNK21enterprise_management19CloudPolicySettings17policyrefreshrateEv = comdat any

$_ZNK21enterprise_management19CloudPolicySettings38has_profilepickeronstartupavailabilityEv = comdat any

$_ZNK21enterprise_management19CloudPolicySettings34profilepickeronstartupavailabilityEv = comdat any

$_ZNK21enterprise_management19CloudPolicySettings19has_proxyservermodeEv = comdat any

$_ZNK21enterprise_management19CloudPolicySettings15proxyservermodeEv = comdat any

$_ZNK21enterprise_management19CloudPolicySettings24has_relaunchnotificationEv = comdat any

$_ZNK21enterprise_management19CloudPolicySettings20relaunchnotificationEv = comdat any

$_ZNK21enterprise_management19CloudPolicySettings30has_relaunchnotificationperiodEv = comdat any

$_ZNK21enterprise_management19CloudPolicySettings26relaunchnotificationperiodEv = comdat any

$_ZNK21enterprise_management19CloudPolicySettings49has_remoteaccesshostmaximumsessiondurationminutesEv = comdat any

$_ZNK21enterprise_management19CloudPolicySettings45remoteaccesshostmaximumsessiondurationminutesEv = comdat any

$_ZNK21enterprise_management19CloudPolicySettings20has_restoreonstartupEv = comdat any

$_ZNK21enterprise_management19CloudPolicySettings16restoreonstartupEv = comdat any

$_ZNK21enterprise_management19CloudPolicySettings31has_safebrowsingprotectionlevelEv = comdat any

$_ZNK21enterprise_management19CloudPolicySettings27safebrowsingprotectionlevelEv = comdat any

$_ZNK21enterprise_management19CloudPolicySettings27has_safesitesfilterbehaviorEv = comdat any

$_ZNK21enterprise_management19CloudPolicySettings23safesitesfilterbehaviorEv = comdat any

$_ZNK21enterprise_management19CloudPolicySettings34has_userdatasnapshotretentionlimitEv = comdat any

$_ZNK21enterprise_management19CloudPolicySettings30userdatasnapshotretentionlimitEv = comdat any

$_ZNK21enterprise_management19CloudPolicySettings25has_alloweddomainsforappsEv = comdat any

$_ZNK21enterprise_management19CloudPolicySettings21alloweddomainsforappsEv = comdat any

$_ZNK21enterprise_management19CloudPolicySettings26has_alternativebrowserpathEv = comdat any

$_ZNK21enterprise_management19CloudPolicySettings22alternativebrowserpathEv = comdat any

$_ZNK21enterprise_management19CloudPolicySettings34has_authnegotiatedelegateallowlistEv = comdat any

$_ZNK21enterprise_management19CloudPolicySettings30authnegotiatedelegateallowlistEv = comdat any

$_ZNK21enterprise_management19CloudPolicySettings34has_authnegotiatedelegatewhitelistEv = comdat any

$_ZNK21enterprise_management19CloudPolicySettings30authnegotiatedelegatewhitelistEv = comdat any

$_ZNK21enterprise_management19CloudPolicySettings15has_authschemesEv = comdat any

$_ZNK21enterprise_management19CloudPolicySettings11authschemesEv = comdat any

$_ZNK21enterprise_management19CloudPolicySettings23has_authserverallowlistEv = comdat any

$_ZNK21enterprise_management19CloudPolicySettings19authserverallowlistEv = comdat any

$_ZNK21enterprise_management19CloudPolicySettings23has_authserverwhitelistEv = comdat any

$_ZNK21enterprise_management19CloudPolicySettings19authserverwhitelistEv = comdat any

$_ZNK21enterprise_management19CloudPolicySettings34has_autolaunchprotocolsfromoriginsEv = comdat any

$_ZNK21enterprise_management19CloudPolicySettings30autolaunchprotocolsfromoriginsEv = comdat any

$_ZNK21enterprise_management19CloudPolicySettings38has_browserswitcherexternalgreylisturlEv = comdat any

$_ZNK21enterprise_management19CloudPolicySettings34browserswitcherexternalgreylisturlEv = comdat any

$_ZNK21enterprise_management19CloudPolicySettings38has_browserswitcherexternalsitelisturlEv = comdat any

$_ZNK21enterprise_management19CloudPolicySettings34browserswitcherexternalsitelisturlEv = comdat any

$_ZNK21enterprise_management19CloudPolicySettings21has_browserthemecolorEv = comdat any

$_ZNK21enterprise_management19CloudPolicySettings17browserthemecolorEv = comdat any

$_ZNK21enterprise_management19CloudPolicySettings24has_browsingdatalifetimeEv = comdat any

$_ZNK21enterprise_management19CloudPolicySettings20browsingdatalifetimeEv = comdat any

$_ZNK21enterprise_management19CloudPolicySettings34has_cloudmanagementenrollmenttokenEv = comdat any

$_ZNK21enterprise_management19CloudPolicySettings30cloudmanagementenrollmenttokenEv = comdat any

$_ZNK21enterprise_management19CloudPolicySettings28has_defaultdownloaddirectoryEv = comdat any

$_ZNK21enterprise_management19CloudPolicySettings24defaultdownloaddirectoryEv = comdat any

$_ZNK21enterprise_management19CloudPolicySettings27has_defaultprinterselectionEv = comdat any

$_ZNK21enterprise_management19CloudPolicySettings23defaultprinterselectionEv = comdat any

$_ZNK21enterprise_management19CloudPolicySettings32has_defaultsearchprovidericonurlEv = comdat any

$_ZNK21enterprise_management19CloudPolicySettings28defaultsearchprovidericonurlEv = comdat any

$_ZNK21enterprise_management19CloudPolicySettings33has_defaultsearchproviderimageurlEv = comdat any

$_ZNK21enterprise_management19CloudPolicySettings29defaultsearchproviderimageurlEv = comdat any

$_ZNK21enterprise_management19CloudPolicySettings43has_defaultsearchproviderimageurlpostparamsEv = comdat any

$_ZNK21enterprise_management19CloudPolicySettings39defaultsearchproviderimageurlpostparamsEv = comdat any

$_ZNK21enterprise_management19CloudPolicySettings32has_defaultsearchproviderkeywordEv = comdat any

$_ZNK21enterprise_management19CloudPolicySettings28defaultsearchproviderkeywordEv = comdat any

$_ZNK21enterprise_management19CloudPolicySettings29has_defaultsearchprovidernameEv = comdat any

$_ZNK21enterprise_management19CloudPolicySettings25defaultsearchprovidernameEv = comdat any

$_ZNK21enterprise_management19CloudPolicySettings34has_defaultsearchprovidernewtaburlEv = comdat any

$_ZNK21enterprise_management19CloudPolicySettings30defaultsearchprovidernewtaburlEv = comdat any

$_ZNK21enterprise_management19CloudPolicySettings34has_defaultsearchprovidersearchurlEv = comdat any

$_ZNK21enterprise_management19CloudPolicySettings30defaultsearchprovidersearchurlEv = comdat any

$_ZNK21enterprise_management19CloudPolicySettings44has_defaultsearchprovidersearchurlpostparamsEv = comdat any

$_ZNK21enterprise_management19CloudPolicySettings40defaultsearchprovidersearchurlpostparamsEv = comdat any

$_ZNK21enterprise_management19CloudPolicySettings35has_defaultsearchprovidersuggesturlEv = comdat any

$_ZNK21enterprise_management19CloudPolicySettings31defaultsearchprovidersuggesturlEv = comdat any

$_ZNK21enterprise_management19CloudPolicySettings45has_defaultsearchprovidersuggesturlpostparamsEv = comdat any

$_ZNK21enterprise_management19CloudPolicySettings41defaultsearchprovidersuggesturlpostparamsEv = comdat any

$_ZNK21enterprise_management19CloudPolicySettings16has_diskcachedirEv = comdat any

$_ZNK21enterprise_management19CloudPolicySettings12diskcachedirEv = comdat any

$_ZNK21enterprise_management19CloudPolicySettings20has_dnsoverhttpsmodeEv = comdat any

$_ZNK21enterprise_management19CloudPolicySettings16dnsoverhttpsmodeEv = comdat any

$_ZNK21enterprise_management19CloudPolicySettings25has_dnsoverhttpstemplatesEv = comdat any

$_ZNK21enterprise_management19CloudPolicySettings21dnsoverhttpstemplatesEv = comdat any

$_ZNK21enterprise_management19CloudPolicySettings21has_downloaddirectoryEv = comdat any

$_ZNK21enterprise_management19CloudPolicySettings17downloaddirectoryEv = comdat any

$_ZNK21enterprise_management19CloudPolicySettings21has_extensionsettingsEv = comdat any

$_ZNK21enterprise_management19CloudPolicySettings17extensionsettingsEv = comdat any

$_ZNK21enterprise_management19CloudPolicySettings21has_gssapilibrarynameEv = comdat any

$_ZNK21enterprise_management19CloudPolicySettings17gssapilibrarynameEv = comdat any

$_ZNK21enterprise_management19CloudPolicySettings20has_homepagelocationEv = comdat any

$_ZNK21enterprise_management19CloudPolicySettings16homepagelocationEv = comdat any

$_ZNK21enterprise_management19CloudPolicySettings18has_isolateoriginsEv = comdat any

$_ZNK21enterprise_management19CloudPolicySettings14isolateoriginsEv = comdat any

$_ZNK21enterprise_management19CloudPolicySettings36has_managedaccountssigninrestrictionEv = comdat any

$_ZNK21enterprise_management19CloudPolicySettings32managedaccountssigninrestrictionEv = comdat any

$_ZNK21enterprise_management19CloudPolicySettings20has_managedbookmarksEv = comdat any

$_ZNK21enterprise_management19CloudPolicySettings16managedbookmarksEv = comdat any

$_ZNK21enterprise_management19CloudPolicySettings33has_managedconfigurationperoriginEv = comdat any

$_ZNK21enterprise_management19CloudPolicySettings29managedconfigurationperoriginEv = comdat any

$_ZNK21enterprise_management19CloudPolicySettings22has_newtabpagelocationEv = comdat any

$_ZNK21enterprise_management19CloudPolicySettings18newtabpagelocationEv = comdat any

$_ZNK21enterprise_management19CloudPolicySettings38has_onbulkdataentryenterpriseconnectorEv = comdat any

$_ZNK21enterprise_management19CloudPolicySettings34onbulkdataentryenterpriseconnectorEv = comdat any

$_ZNK21enterprise_management19CloudPolicySettings37has_onfileattachedenterpriseconnectorEv = comdat any

$_ZNK21enterprise_management19CloudPolicySettings33onfileattachedenterpriseconnectorEv = comdat any

$_ZNK21enterprise_management19CloudPolicySettings39has_onfiledownloadedenterpriseconnectorEv = comdat any

$_ZNK21enterprise_management19CloudPolicySettings35onfiledownloadedenterpriseconnectorEv = comdat any

$_ZNK21enterprise_management19CloudPolicySettings38has_onsecurityevententerpriseconnectorEv = comdat any

$_ZNK21enterprise_management19CloudPolicySettings34onsecurityevententerpriseconnectorEv = comdat any

$_ZNK21enterprise_management19CloudPolicySettings39has_passwordprotectionchangepasswordurlEv = comdat any

$_ZNK21enterprise_management19CloudPolicySettings35passwordprotectionchangepasswordurlEv = comdat any

$_ZNK21enterprise_management19CloudPolicySettings42has_printingallowedbackgroundgraphicsmodesEv = comdat any

$_ZNK21enterprise_management19CloudPolicySettings38printingallowedbackgroundgraphicsmodesEv = comdat any

$_ZNK21enterprise_management19CloudPolicySettings37has_printingbackgroundgraphicsdefaultEv = comdat any

$_ZNK21enterprise_management19CloudPolicySettings33printingbackgroundgraphicsdefaultEv = comdat any

$_ZNK21enterprise_management19CloudPolicySettings28has_printingpapersizedefaultEv = comdat any

$_ZNK21enterprise_management19CloudPolicySettings24printingpapersizedefaultEv = comdat any

$_ZNK21enterprise_management19CloudPolicySettings19has_proxybypasslistEv = comdat any

$_ZNK21enterprise_management19CloudPolicySettings15proxybypasslistEv = comdat any

$_ZNK21enterprise_management19CloudPolicySettings13has_proxymodeEv = comdat any

$_ZNK21enterprise_management19CloudPolicySettings9proxymodeEv = comdat any

$_ZNK21enterprise_management19CloudPolicySettings15has_proxypacurlEv = comdat any

$_ZNK21enterprise_management19CloudPolicySettings11proxypacurlEv = comdat any

$_ZNK21enterprise_management19CloudPolicySettings15has_proxyserverEv = comdat any

$_ZNK21enterprise_management19CloudPolicySettings11proxyserverEv = comdat any

$_ZNK21enterprise_management19CloudPolicySettings17has_proxysettingsEv = comdat any

$_ZNK21enterprise_management19CloudPolicySettings13proxysettingsEv = comdat any

$_ZNK21enterprise_management19CloudPolicySettings30has_registeredprotocolhandlersEv = comdat any

$_ZNK21enterprise_management19CloudPolicySettings26registeredprotocolhandlersEv = comdat any

$_ZNK21enterprise_management19CloudPolicySettings18has_relaunchwindowEv = comdat any

$_ZNK21enterprise_management19CloudPolicySettings14relaunchwindowEv = comdat any

$_ZNK21enterprise_management19CloudPolicySettings32has_remoteaccesshostclientdomainEv = comdat any

$_ZNK21enterprise_management19CloudPolicySettings28remoteaccesshostclientdomainEv = comdat any

$_ZNK21enterprise_management19CloudPolicySettings26has_remoteaccesshostdomainEv = comdat any

$_ZNK21enterprise_management19CloudPolicySettings22remoteaccesshostdomainEv = comdat any

$_ZNK21enterprise_management19CloudPolicySettings28has_remoteaccesshosttokenurlEv = comdat any

$_ZNK21enterprise_management19CloudPolicySettings24remoteaccesshosttokenurlEv = comdat any

$_ZNK21enterprise_management19CloudPolicySettings52has_remoteaccesshosttokenvalidationcertificateissuerEv = comdat any

$_ZNK21enterprise_management19CloudPolicySettings48remoteaccesshosttokenvalidationcertificateissuerEv = comdat any

$_ZNK21enterprise_management19CloudPolicySettings38has_remoteaccesshosttokenvalidationurlEv = comdat any

$_ZNK21enterprise_management19CloudPolicySettings34remoteaccesshosttokenvalidationurlEv = comdat any

$_ZNK21enterprise_management19CloudPolicySettings32has_remoteaccesshostudpportrangeEv = comdat any

$_ZNK21enterprise_management19CloudPolicySettings28remoteaccesshostudpportrangeEv = comdat any

$_ZNK21enterprise_management19CloudPolicySettings27has_restrictsignintopatternEv = comdat any

$_ZNK21enterprise_management19CloudPolicySettings23restrictsignintopatternEv = comdat any

$_ZNK21enterprise_management19CloudPolicySettings26has_roamingprofilelocationEv = comdat any

$_ZNK21enterprise_management19CloudPolicySettings22roamingprofilelocationEv = comdat any

$_ZNK21enterprise_management19CloudPolicySettings17has_sslversionminEv = comdat any

$_ZNK21enterprise_management19CloudPolicySettings13sslversionminEv = comdat any

$_ZNK21enterprise_management19CloudPolicySettings42has_senddownloadtocloudenterpriseconnectorEv = comdat any

$_ZNK21enterprise_management19CloudPolicySettings38senddownloadtocloudenterpriseconnectorEv = comdat any

$_ZNK21enterprise_management19CloudPolicySettings32has_serialallowusbdevicesforurlsEv = comdat any

$_ZNK21enterprise_management19CloudPolicySettings28serialallowusbdevicesforurlsEv = comdat any

$_ZNK21enterprise_management19CloudPolicySettings31has_variationsrestrictparameterEv = comdat any

$_ZNK21enterprise_management19CloudPolicySettings27variationsrestrictparameterEv = comdat any

$_ZNK21enterprise_management19CloudPolicySettings26has_webappinstallforcelistEv = comdat any

$_ZNK21enterprise_management19CloudPolicySettings22webappinstallforcelistEv = comdat any

$_ZNK21enterprise_management19CloudPolicySettings18has_webappsettingsEv = comdat any

$_ZNK21enterprise_management19CloudPolicySettings14webappsettingsEv = comdat any

$_ZNK21enterprise_management19CloudPolicySettings20has_webrtciphandlingEv = comdat any

$_ZNK21enterprise_management19CloudPolicySettings16webrtciphandlingEv = comdat any

$_ZNK21enterprise_management19CloudPolicySettings22has_webrtcudpportrangeEv = comdat any

$_ZNK21enterprise_management19CloudPolicySettings18webrtcudpportrangeEv = comdat any

$_ZNK21enterprise_management19CloudPolicySettings29has_webusballowdevicesforurlsEv = comdat any

$_ZNK21enterprise_management19CloudPolicySettings25webusballowdevicesforurlsEv = comdat any

$_ZNK21enterprise_management19CloudPolicySettings32has_alternativebrowserparametersEv = comdat any

$_ZNK21enterprise_management19CloudPolicySettings28alternativebrowserparametersEv = comdat any

$_ZNK21enterprise_management19CloudPolicySettings27has_audiocaptureallowedurlsEv = comdat any

$_ZNK21enterprise_management19CloudPolicySettings23audiocaptureallowedurlsEv = comdat any

$_ZNK21enterprise_management19CloudPolicySettings26has_autoopenallowedforurlsEv = comdat any

$_ZNK21enterprise_management19CloudPolicySettings22autoopenallowedforurlsEv = comdat any

$_ZNK21enterprise_management19CloudPolicySettings21has_autoopenfiletypesEv = comdat any

$_ZNK21enterprise_management19CloudPolicySettings17autoopenfiletypesEv = comdat any

$_ZNK21enterprise_management19CloudPolicySettings32has_autoselectcertificateforurlsEv = comdat any

$_ZNK21enterprise_management19CloudPolicySettings28autoselectcertificateforurlsEv = comdat any

$_ZNK21enterprise_management19CloudPolicySettings21has_autoplayallowlistEv = comdat any

$_ZNK21enterprise_management19CloudPolicySettings17autoplayallowlistEv = comdat any

$_ZNK21enterprise_management19CloudPolicySettings21has_autoplaywhitelistEv = comdat any

$_ZNK21enterprise_management19CloudPolicySettings17autoplaywhitelistEv = comdat any

$_ZNK21enterprise_management19CloudPolicySettings30has_browserswitcherurlgreylistEv = comdat any

$_ZNK21enterprise_management19CloudPolicySettings26browserswitcherurlgreylistEv = comdat any

$_ZNK21enterprise_management19CloudPolicySettings26has_browserswitcherurllistEv = comdat any

$_ZNK21enterprise_management19CloudPolicySettings22browserswitcherurllistEv = comdat any

$_ZNK21enterprise_management19CloudPolicySettings52has_certificatetransparencyenforcementdisabledforcasEv = comdat any

$_ZNK21enterprise_management19CloudPolicySettings48certificatetransparencyenforcementdisabledforcasEv = comdat any

$_ZNK21enterprise_management19CloudPolicySettings58has_certificatetransparencyenforcementdisabledforlegacycasEv = comdat any

$_ZNK21enterprise_management19CloudPolicySettings54certificatetransparencyenforcementdisabledforlegacycasEv = comdat any

$_ZNK21enterprise_management19CloudPolicySettings53has_certificatetransparencyenforcementdisabledforurlsEv = comdat any

$_ZNK21enterprise_management19CloudPolicySettings49certificatetransparencyenforcementdisabledforurlsEv = comdat any

$_ZNK21enterprise_management19CloudPolicySettings31has_clearbrowsingdataonexitlistEv = comdat any

$_ZNK21enterprise_management19CloudPolicySettings27clearbrowsingdataonexitlistEv = comdat any

$_ZNK21enterprise_management19CloudPolicySettings55has_coalesceh2connectionswithclientcertificatesforhostsEv = comdat any

$_ZNK21enterprise_management19CloudPolicySettings51coalesceh2connectionswithclientcertificatesforhostsEv = comdat any

$_ZNK21enterprise_management19CloudPolicySettings38has_contextawareaccesssignalsallowlistEv = comdat any

$_ZNK21enterprise_management19CloudPolicySettings34contextawareaccesssignalsallowlistEv = comdat any

$_ZNK21enterprise_management19CloudPolicySettings25has_cookiesallowedforurlsEv = comdat any

$_ZNK21enterprise_management19CloudPolicySettings21cookiesallowedforurlsEv = comdat any

$_ZNK21enterprise_management19CloudPolicySettings25has_cookiesblockedforurlsEv = comdat any

$_ZNK21enterprise_management19CloudPolicySettings21cookiesblockedforurlsEv = comdat any

$_ZNK21enterprise_management19CloudPolicySettings29has_cookiessessiononlyforurlsEv = comdat any

$_ZNK21enterprise_management19CloudPolicySettings25cookiessessiononlyforurlsEv = comdat any

$_ZNK21enterprise_management19CloudPolicySettings38has_defaultsearchprovideralternateurlsEv = comdat any

$_ZNK21enterprise_management19CloudPolicySettings34defaultsearchprovideralternateurlsEv = comdat any

$_ZNK21enterprise_management19CloudPolicySettings34has_defaultsearchproviderencodingsEv = comdat any

$_ZNK21enterprise_management19CloudPolicySettings30defaultsearchproviderencodingsEv = comdat any

$_ZNK21enterprise_management19CloudPolicySettings19has_disabledschemesEv = comdat any

$_ZNK21enterprise_management19CloudPolicySettings15disabledschemesEv = comdat any

$_ZNK21enterprise_management19CloudPolicySettings30has_enableexperimentalpoliciesEv = comdat any

$_ZNK21enterprise_management19CloudPolicySettings26enableexperimentalpoliciesEv = comdat any

$_ZNK21enterprise_management19CloudPolicySettings33has_explicitlyallowednetworkportsEv = comdat any

$_ZNK21enterprise_management19CloudPolicySettings29explicitlyallowednetworkportsEv = comdat any

$_ZNK21enterprise_management19CloudPolicySettings25has_extensionallowedtypesEv = comdat any

$_ZNK21enterprise_management19CloudPolicySettings21extensionallowedtypesEv = comdat any

$_ZNK21enterprise_management19CloudPolicySettings29has_extensioninstallallowlistEv = comdat any

$_ZNK21enterprise_management19CloudPolicySettings25extensioninstallallowlistEv = comdat any

$_ZNK21enterprise_management19CloudPolicySettings29has_extensioninstallblacklistEv = comdat any

$_ZNK21enterprise_management19CloudPolicySettings25extensioninstallblacklistEv = comdat any

$_ZNK21enterprise_management19CloudPolicySettings29has_extensioninstallblocklistEv = comdat any

$_ZNK21enterprise_management19CloudPolicySettings25extensioninstallblocklistEv = comdat any

$_ZNK21enterprise_management19CloudPolicySettings29has_extensioninstallforcelistEv = comdat any

$_ZNK21enterprise_management19CloudPolicySettings25extensioninstallforcelistEv = comdat any

$_ZNK21enterprise_management19CloudPolicySettings27has_extensioninstallsourcesEv = comdat any

$_ZNK21enterprise_management19CloudPolicySettings23extensioninstallsourcesEv = comdat any

$_ZNK21enterprise_management19CloudPolicySettings29has_extensioninstallwhitelistEv = comdat any

$_ZNK21enterprise_management19CloudPolicySettings25extensioninstallwhitelistEv = comdat any

$_ZNK21enterprise_management19CloudPolicySettings30has_filehandlingallowedforurlsEv = comdat any

$_ZNK21enterprise_management19CloudPolicySettings26filehandlingallowedforurlsEv = comdat any

$_ZNK21enterprise_management19CloudPolicySettings30has_filehandlingblockedforurlsEv = comdat any

$_ZNK21enterprise_management19CloudPolicySettings26filehandlingblockedforurlsEv = comdat any

$_ZNK21enterprise_management19CloudPolicySettings28has_filesystemreadaskforurlsEv = comdat any

$_ZNK21enterprise_management19CloudPolicySettings24filesystemreadaskforurlsEv = comdat any

$_ZNK21enterprise_management19CloudPolicySettings32has_filesystemreadblockedforurlsEv = comdat any

$_ZNK21enterprise_management19CloudPolicySettings28filesystemreadblockedforurlsEv = comdat any

$_ZNK21enterprise_management19CloudPolicySettings29has_filesystemwriteaskforurlsEv = comdat any

$_ZNK21enterprise_management19CloudPolicySettings25filesystemwriteaskforurlsEv = comdat any

$_ZNK21enterprise_management19CloudPolicySettings33has_filesystemwriteblockedforurlsEv = comdat any

$_ZNK21enterprise_management19CloudPolicySettings29filesystemwriteblockedforurlsEv = comdat any

$_ZNK21enterprise_management19CloudPolicySettings19has_forcedlanguagesEv = comdat any

$_ZNK21enterprise_management19CloudPolicySettings15forcedlanguagesEv = comdat any

$_ZNK21enterprise_management19CloudPolicySettings24has_hstspolicybypasslistEv = comdat any

$_ZNK21enterprise_management19CloudPolicySettings20hstspolicybypasslistEv = comdat any

$_ZNK21enterprise_management19CloudPolicySettings24has_imagesallowedforurlsEv = comdat any

$_ZNK21enterprise_management19CloudPolicySettings20imagesallowedforurlsEv = comdat any

$_ZNK21enterprise_management19CloudPolicySettings24has_imagesblockedforurlsEv = comdat any

$_ZNK21enterprise_management19CloudPolicySettings20imagesblockedforurlsEv = comdat any

$_ZNK21enterprise_management19CloudPolicySettings33has_insecurecontentallowedforurlsEv = comdat any

$_ZNK21enterprise_management19CloudPolicySettings29insecurecontentallowedforurlsEv = comdat any

$_ZNK21enterprise_management19CloudPolicySettings33has_insecurecontentblockedforurlsEv = comdat any

$_ZNK21enterprise_management19CloudPolicySettings29insecurecontentblockedforurlsEv = comdat any

$_ZNK21enterprise_management19CloudPolicySettings48has_insecureprivatenetworkrequestsallowedforurlsEv = comdat any

$_ZNK21enterprise_management19CloudPolicySettings44insecureprivatenetworkrequestsallowedforurlsEv = comdat any

$_ZNK21enterprise_management19CloudPolicySettings28has_javascriptallowedforurlsEv = comdat any

$_ZNK21enterprise_management19CloudPolicySettings24javascriptallowedforurlsEv = comdat any

$_ZNK21enterprise_management19CloudPolicySettings28has_javascriptblockedforurlsEv = comdat any

$_ZNK21enterprise_management19CloudPolicySettings24javascriptblockedforurlsEv = comdat any

$_ZNK21enterprise_management19CloudPolicySettings52has_legacysamesitecookiebehaviorenabledfordomainlistEv = comdat any

$_ZNK21enterprise_management19CloudPolicySettings48legacysamesitecookiebehaviorenabledfordomainlistEv = comdat any

$_ZNK21enterprise_management19CloudPolicySettings36has_lookalikewarningallowlistdomainsEv = comdat any

$_ZNK21enterprise_management19CloudPolicySettings32lookalikewarningallowlistdomainsEv = comdat any

$_ZNK21enterprise_management19CloudPolicySettings28has_nativemessagingallowlistEv = comdat any

$_ZNK21enterprise_management19CloudPolicySettings24nativemessagingallowlistEv = comdat any

$_ZNK21enterprise_management19CloudPolicySettings28has_nativemessagingblacklistEv = comdat any

$_ZNK21enterprise_management19CloudPolicySettings24nativemessagingblacklistEv = comdat any

$_ZNK21enterprise_management19CloudPolicySettings28has_nativemessagingblocklistEv = comdat any

$_ZNK21enterprise_management19CloudPolicySettings24nativemessagingblocklistEv = comdat any

$_ZNK21enterprise_management19CloudPolicySettings28has_nativemessagingwhitelistEv = comdat any

$_ZNK21enterprise_management19CloudPolicySettings24nativemessagingwhitelistEv = comdat any

$_ZNK21enterprise_management19CloudPolicySettings31has_notificationsallowedforurlsEv = comdat any

$_ZNK21enterprise_management19CloudPolicySettings27notificationsallowedforurlsEv = comdat any

$_ZNK21enterprise_management19CloudPolicySettings31has_notificationsblockedforurlsEv = comdat any

$_ZNK21enterprise_management19CloudPolicySettings27notificationsblockedforurlsEv = comdat any

$_ZNK21enterprise_management19CloudPolicySettings48has_overridesecurityrestrictionsoninsecureoriginEv = comdat any

$_ZNK21enterprise_management19CloudPolicySettings44overridesecurityrestrictionsoninsecureoriginEv = comdat any

$_ZNK21enterprise_management19CloudPolicySettings31has_passwordprotectionloginurlsEv = comdat any

$_ZNK21enterprise_management19CloudPolicySettings27passwordprotectionloginurlsEv = comdat any

$_ZNK21enterprise_management19CloudPolicySettings43has_policydictionarymultiplesourcemergelistEv = comdat any

$_ZNK21enterprise_management19CloudPolicySettings39policydictionarymultiplesourcemergelistEv = comdat any

$_ZNK21enterprise_management19CloudPolicySettings37has_policylistmultiplesourcemergelistEv = comdat any

$_ZNK21enterprise_management19CloudPolicySettings33policylistmultiplesourcemergelistEv = comdat any

$_ZNK21enterprise_management19CloudPolicySettings24has_popupsallowedforurlsEv = comdat any

$_ZNK21enterprise_management19CloudPolicySettings20popupsallowedforurlsEv = comdat any

$_ZNK21enterprise_management19CloudPolicySettings24has_popupsblockedforurlsEv = comdat any

$_ZNK21enterprise_management19CloudPolicySettings20popupsblockedforurlsEv = comdat any

$_ZNK21enterprise_management19CloudPolicySettings23has_printertypedenylistEv = comdat any

$_ZNK21enterprise_management19CloudPolicySettings19printertypedenylistEv = comdat any

$_ZNK21enterprise_management19CloudPolicySettings36has_remoteaccesshostclientdomainlistEv = comdat any

$_ZNK21enterprise_management19CloudPolicySettings32remoteaccesshostclientdomainlistEv = comdat any

$_ZNK21enterprise_management19CloudPolicySettings30has_remoteaccesshostdomainlistEv = comdat any

$_ZNK21enterprise_management19CloudPolicySettings26remoteaccesshostdomainlistEv = comdat any

$_ZNK21enterprise_management19CloudPolicySettings24has_restoreonstartupurlsEv = comdat any

$_ZNK21enterprise_management19CloudPolicySettings20restoreonstartupurlsEv = comdat any

$_ZNK21enterprise_management19CloudPolicySettings37has_sslerroroverrideallowedfororiginsEv = comdat any

$_ZNK21enterprise_management19CloudPolicySettings33sslerroroverrideallowedfororiginsEv = comdat any

$_ZNK21enterprise_management19CloudPolicySettings32has_safebrowsingallowlistdomainsEv = comdat any

$_ZNK21enterprise_management19CloudPolicySettings28safebrowsingallowlistdomainsEv = comdat any

$_ZNK21enterprise_management19CloudPolicySettings32has_safebrowsingwhitelistdomainsEv = comdat any

$_ZNK21enterprise_management19CloudPolicySettings28safebrowsingwhitelistdomainsEv = comdat any

$_ZNK21enterprise_management19CloudPolicySettings32has_securitykeypermitattestationEv = comdat any

$_ZNK21enterprise_management19CloudPolicySettings28securitykeypermitattestationEv = comdat any

$_ZNK21enterprise_management19CloudPolicySettings25has_sensorsallowedforurlsEv = comdat any

$_ZNK21enterprise_management19CloudPolicySettings21sensorsallowedforurlsEv = comdat any

$_ZNK21enterprise_management19CloudPolicySettings25has_sensorsblockedforurlsEv = comdat any

$_ZNK21enterprise_management19CloudPolicySettings21sensorsblockedforurlsEv = comdat any

$_ZNK21enterprise_management19CloudPolicySettings30has_serialallowallportsforurlsEv = comdat any

$_ZNK21enterprise_management19CloudPolicySettings26serialallowallportsforurlsEv = comdat any

$_ZNK21enterprise_management19CloudPolicySettings20has_serialaskforurlsEv = comdat any

$_ZNK21enterprise_management19CloudPolicySettings16serialaskforurlsEv = comdat any

$_ZNK21enterprise_management19CloudPolicySettings24has_serialblockedforurlsEv = comdat any

$_ZNK21enterprise_management19CloudPolicySettings20serialblockedforurlsEv = comdat any

$_ZNK21enterprise_management19CloudPolicySettings22has_spellchecklanguageEv = comdat any

$_ZNK21enterprise_management19CloudPolicySettings18spellchecklanguageEv = comdat any

$_ZNK21enterprise_management19CloudPolicySettings31has_spellchecklanguageblacklistEv = comdat any

$_ZNK21enterprise_management19CloudPolicySettings27spellchecklanguageblacklistEv = comdat any

$_ZNK21enterprise_management19CloudPolicySettings31has_spellchecklanguageblocklistEv = comdat any

$_ZNK21enterprise_management19CloudPolicySettings27spellchecklanguageblocklistEv = comdat any

$_ZNK21enterprise_management19CloudPolicySettings25has_synctypeslistdisabledEv = comdat any

$_ZNK21enterprise_management19CloudPolicySettings21synctypeslistdisabledEv = comdat any

$_ZNK21enterprise_management19CloudPolicySettings16has_urlallowlistEv = comdat any

$_ZNK21enterprise_management19CloudPolicySettings12urlallowlistEv = comdat any

$_ZNK21enterprise_management19CloudPolicySettings16has_urlblacklistEv = comdat any

$_ZNK21enterprise_management19CloudPolicySettings12urlblacklistEv = comdat any

$_ZNK21enterprise_management19CloudPolicySettings16has_urlblocklistEv = comdat any

$_ZNK21enterprise_management19CloudPolicySettings12urlblocklistEv = comdat any

$_ZNK21enterprise_management19CloudPolicySettings16has_urlwhitelistEv = comdat any

$_ZNK21enterprise_management19CloudPolicySettings12urlwhitelistEv = comdat any

$_ZNK21enterprise_management19CloudPolicySettings39has_unsafelytreatinsecureoriginassecureEv = comdat any

$_ZNK21enterprise_management19CloudPolicySettings35unsafelytreatinsecureoriginassecureEv = comdat any

$_ZNK21enterprise_management19CloudPolicySettings27has_videocaptureallowedurlsEv = comdat any

$_ZNK21enterprise_management19CloudPolicySettings23videocaptureallowedurlsEv = comdat any

$_ZNK21enterprise_management19CloudPolicySettings29has_webrtclocalipsallowedurlsEv = comdat any

$_ZNK21enterprise_management19CloudPolicySettings25webrtclocalipsallowedurlsEv = comdat any

$_ZNK21enterprise_management19CloudPolicySettings20has_webusbaskforurlsEv = comdat any

$_ZNK21enterprise_management19CloudPolicySettings16webusbaskforurlsEv = comdat any

$_ZNK21enterprise_management19CloudPolicySettings24has_webusbblockedforurlsEv = comdat any

$_ZNK21enterprise_management19CloudPolicySettings20webusbblockedforurlsEv = comdat any

@_ZZN6policy19GetChromeSchemaDataEvE17kChromeSchemaData = internal constant %"struct.policy::internal::SchemaData" { %"struct.policy::internal::SchemaNode"* getelementptr inbounds ([132 x %"struct.policy::internal::SchemaNode"], [132 x %"struct.policy::internal::SchemaNode"]* @_ZN6policyL8kSchemasE, i32 0, i32 0), %"struct.policy::internal::PropertyNode"* getelementptr inbounds ([487 x %"struct.policy::internal::PropertyNode"], [487 x %"struct.policy::internal::PropertyNode"]* @_ZN6policyL14kPropertyNodesE, i32 0, i32 0), %"struct.policy::internal::PropertiesNode"* getelementptr inbounds ([45 x %"struct.policy::internal::PropertiesNode"], [45 x %"struct.policy::internal::PropertiesNode"]* @_ZN6policyL11kPropertiesE, i32 0, i32 0), %"union.policy::internal::RestrictionNode"* getelementptr inbounds ([46 x %"union.policy::internal::RestrictionNode"], [46 x %"union.policy::internal::RestrictionNode"]* @_ZN6policyL17kRestrictionNodesE, i32 0, i32 0), i8** getelementptr inbounds ([20 x i8*], [20 x i8*]* @_ZN6policyL19kRequiredPropertiesE, i32 0, i32 0), i32* getelementptr inbounds ([6 x i32], [6 x i32]* @_ZN6policyL20kIntegerEnumerationsE, i32 0, i32 0), i8** getelementptr inbounds ([226 x i8*], [226 x i8*]* @_ZN6policyL19kStringEnumerationsE, i32 0, i32 0), i32 125 }, align 8
@_ZN6policyL8kSchemasE = internal constant [132 x %"struct.policy::internal::SchemaNode"] [%"struct.policy::internal::SchemaNode" { i8 6, i16 39, i8 0, i8 0 }, %"struct.policy::internal::SchemaNode" { i8 1, i16 -1, i8 0, i8 0 }, %"struct.policy::internal::SchemaNode" { i8 2, i16 0, i8 0, i8 0 }, %"struct.policy::internal::SchemaNode" { i8 4, i16 -1, i8 0, i8 0 }, %"struct.policy::internal::SchemaNode" { i8 7, i16 3, i8 0, i8 0 }, %"struct.policy::internal::SchemaNode" { i8 2, i16 1, i8 0, i8 0 }, %"struct.policy::internal::SchemaNode" { i8 6, i16 0, i8 0, i8 0 }, %"struct.policy::internal::SchemaNode" { i8 7, i16 6, i8 0, i8 0 }, %"struct.policy::internal::SchemaNode" { i8 2, i16 2, i8 0, i8 0 }, %"struct.policy::internal::SchemaNode" { i8 2, i16 -1, i8 0, i8 0 }, %"struct.policy::internal::SchemaNode" { i8 6, i16 1, i8 0, i8 0 }, %"struct.policy::internal::SchemaNode" { i8 4, i16 3, i8 0, i8 0 }, %"struct.policy::internal::SchemaNode" { i8 7, i16 11, i8 0, i8 0 }, %"struct.policy::internal::SchemaNode" { i8 2, i16 4, i8 0, i8 0 }, %"struct.policy::internal::SchemaNode" { i8 7, i16 10, i8 0, i8 0 }, %"struct.policy::internal::SchemaNode" { i8 4, i16 5, i8 0, i8 0 }, %"struct.policy::internal::SchemaNode" { i8 7, i16 15, i8 0, i8 0 }, %"struct.policy::internal::SchemaNode" { i8 2, i16 6, i8 0, i8 0 }, %"struct.policy::internal::SchemaNode" { i8 2, i16 7, i8 0, i8 0 }, %"struct.policy::internal::SchemaNode" { i8 2, i16 8, i8 0, i8 0 }, %"struct.policy::internal::SchemaNode" { i8 4, i16 9, i8 0, i8 0 }, %"struct.policy::internal::SchemaNode" { i8 2, i16 10, i8 0, i8 0 }, %"struct.policy::internal::SchemaNode" { i8 2, i16 11, i8 0, i8 0 }, %"struct.policy::internal::SchemaNode" { i8 4, i16 12, i8 0, i8 0 }, %"struct.policy::internal::SchemaNode" { i8 7, i16 23, i8 0, i8 0 }, %"struct.policy::internal::SchemaNode" { i8 4, i16 13, i8 0, i8 0 }, %"struct.policy::internal::SchemaNode" { i8 7, i16 25, i8 0, i8 0 }, %"struct.policy::internal::SchemaNode" { i8 6, i16 5, i8 0, i8 0 }, %"struct.policy::internal::SchemaNode" { i8 6, i16 2, i8 0, i8 0 }, %"struct.policy::internal::SchemaNode" { i8 4, i16 14, i8 0, i8 0 }, %"struct.policy::internal::SchemaNode" { i8 6, i16 3, i8 0, i8 0 }, %"struct.policy::internal::SchemaNode" { i8 4, i16 15, i8 0, i8 0 }, %"struct.policy::internal::SchemaNode" { i8 6, i16 4, i8 0, i8 0 }, %"struct.policy::internal::SchemaNode" { i8 4, i16 16, i8 0, i8 0 }, %"struct.policy::internal::SchemaNode" { i8 7, i16 33, i8 0, i8 0 }, %"struct.policy::internal::SchemaNode" { i8 4, i16 17, i8 0, i8 0 }, %"struct.policy::internal::SchemaNode" { i8 4, i16 18, i8 0, i8 0 }, %"struct.policy::internal::SchemaNode" { i8 4, i16 19, i8 0, i8 0 }, %"struct.policy::internal::SchemaNode" { i8 2, i16 20, i8 0, i8 0 }, %"struct.policy::internal::SchemaNode" { i8 4, i16 21, i8 0, i8 0 }, %"struct.policy::internal::SchemaNode" { i8 7, i16 39, i8 0, i8 0 }, %"struct.policy::internal::SchemaNode" { i8 4, i16 22, i8 0, i8 0 }, %"struct.policy::internal::SchemaNode" { i8 6, i16 6, i8 0, i8 0 }, %"struct.policy::internal::SchemaNode" { i8 7, i16 42, i8 0, i8 0 }, %"struct.policy::internal::SchemaNode" { i8 7, i16 42, i8 0, i8 0 }, %"struct.policy::internal::SchemaNode" { i8 6, i16 7, i8 0, i8 0 }, %"struct.policy::internal::SchemaNode" { i8 7, i16 45, i8 0, i8 0 }, %"struct.policy::internal::SchemaNode" { i8 2, i16 23, i8 0, i8 0 }, %"struct.policy::internal::SchemaNode" { i8 6, i16 11, i8 0, i8 0 }, %"struct.policy::internal::SchemaNode" { i8 6, i16 8, i8 0, i8 0 }, %"struct.policy::internal::SchemaNode" { i8 7, i16 49, i8 0, i8 0 }, %"struct.policy::internal::SchemaNode" { i8 6, i16 9, i8 0, i8 0 }, %"struct.policy::internal::SchemaNode" { i8 7, i16 51, i8 0, i8 0 }, %"struct.policy::internal::SchemaNode" { i8 6, i16 10, i8 0, i8 0 }, %"struct.policy::internal::SchemaNode" { i8 7, i16 53, i8 0, i8 0 }, %"struct.policy::internal::SchemaNode" { i8 2, i16 24, i8 0, i8 0 }, %"struct.policy::internal::SchemaNode" { i8 7, i16 48, i8 0, i8 0 }, %"struct.policy::internal::SchemaNode" { i8 6, i16 15, i8 0, i8 0 }, %"struct.policy::internal::SchemaNode" { i8 6, i16 12, i8 0, i8 0 }, %"struct.policy::internal::SchemaNode" { i8 7, i16 58, i8 0, i8 0 }, %"struct.policy::internal::SchemaNode" { i8 6, i16 13, i8 0, i8 0 }, %"struct.policy::internal::SchemaNode" { i8 7, i16 60, i8 0, i8 0 }, %"struct.policy::internal::SchemaNode" { i8 6, i16 14, i8 0, i8 0 }, %"struct.policy::internal::SchemaNode" { i8 7, i16 62, i8 0, i8 0 }, %"struct.policy::internal::SchemaNode" { i8 7, i16 57, i8 0, i8 0 }, %"struct.policy::internal::SchemaNode" { i8 6, i16 19, i8 0, i8 0 }, %"struct.policy::internal::SchemaNode" { i8 6, i16 16, i8 0, i8 0 }, %"struct.policy::internal::SchemaNode" { i8 7, i16 66, i8 0, i8 0 }, %"struct.policy::internal::SchemaNode" { i8 6, i16 17, i8 0, i8 0 }, %"struct.policy::internal::SchemaNode" { i8 7, i16 68, i8 0, i8 0 }, %"struct.policy::internal::SchemaNode" { i8 6, i16 18, i8 0, i8 0 }, %"struct.policy::internal::SchemaNode" { i8 7, i16 70, i8 0, i8 0 }, %"struct.policy::internal::SchemaNode" { i8 7, i16 65, i8 0, i8 0 }, %"struct.policy::internal::SchemaNode" { i8 6, i16 20, i8 0, i8 0 }, %"struct.policy::internal::SchemaNode" { i8 7, i16 73, i8 0, i8 0 }, %"struct.policy::internal::SchemaNode" { i8 4, i16 25, i8 0, i8 0 }, %"struct.policy::internal::SchemaNode" { i8 7, i16 75, i8 0, i8 0 }, %"struct.policy::internal::SchemaNode" { i8 2, i16 26, i8 0, i8 0 }, %"struct.policy::internal::SchemaNode" { i8 4, i16 27, i8 0, i8 0 }, %"struct.policy::internal::SchemaNode" { i8 7, i16 78, i8 0, i8 0 }, %"struct.policy::internal::SchemaNode" { i8 4, i16 28, i8 0, i8 0 }, %"struct.policy::internal::SchemaNode" { i8 4, i16 29, i8 0, i8 0 }, %"struct.policy::internal::SchemaNode" { i8 6, i16 22, i8 0, i8 0 }, %"struct.policy::internal::SchemaNode" { i8 6, i16 21, i8 0, i8 0 }, %"struct.policy::internal::SchemaNode" { i8 4, i16 30, i8 0, i8 0 }, %"struct.policy::internal::SchemaNode" { i8 4, i16 31, i8 0, i8 0 }, %"struct.policy::internal::SchemaNode" { i8 6, i16 23, i8 0, i8 0 }, %"struct.policy::internal::SchemaNode" { i8 4, i16 32, i8 0, i8 0 }, %"struct.policy::internal::SchemaNode" { i8 6, i16 24, i8 0, i8 0 }, %"struct.policy::internal::SchemaNode" { i8 7, i16 88, i8 0, i8 0 }, %"struct.policy::internal::SchemaNode" { i8 2, i16 33, i8 0, i8 0 }, %"struct.policy::internal::SchemaNode" { i8 6, i16 27, i8 0, i8 0 }, %"struct.policy::internal::SchemaNode" { i8 6, i16 26, i8 0, i8 0 }, %"struct.policy::internal::SchemaNode" { i8 2, i16 34, i8 0, i8 0 }, %"struct.policy::internal::SchemaNode" { i8 6, i16 25, i8 0, i8 0 }, %"struct.policy::internal::SchemaNode" { i8 2, i16 35, i8 0, i8 0 }, %"struct.policy::internal::SchemaNode" { i8 2, i16 36, i8 0, i8 0 }, %"struct.policy::internal::SchemaNode" { i8 7, i16 92, i8 0, i8 0 }, %"struct.policy::internal::SchemaNode" { i8 2, i16 37, i8 0, i8 0 }, %"struct.policy::internal::SchemaNode" { i8 2, i16 38, i8 0, i8 0 }, %"struct.policy::internal::SchemaNode" { i8 4, i16 39, i8 0, i8 0 }, %"struct.policy::internal::SchemaNode" { i8 6, i16 30, i8 0, i8 0 }, %"struct.policy::internal::SchemaNode" { i8 6, i16 28, i8 0, i8 0 }, %"struct.policy::internal::SchemaNode" { i8 7, i16 102, i8 0, i8 0 }, %"struct.policy::internal::SchemaNode" { i8 6, i16 29, i8 0, i8 0 }, %"struct.policy::internal::SchemaNode" { i8 7, i16 104, i8 0, i8 0 }, %"struct.policy::internal::SchemaNode" { i8 7, i16 101, i8 0, i8 0 }, %"struct.policy::internal::SchemaNode" { i8 6, i16 32, i8 0, i8 0 }, %"struct.policy::internal::SchemaNode" { i8 6, i16 31, i8 0, i8 0 }, %"struct.policy::internal::SchemaNode" { i8 2, i16 40, i8 0, i8 0 }, %"struct.policy::internal::SchemaNode" { i8 7, i16 108, i8 0, i8 0 }, %"struct.policy::internal::SchemaNode" { i8 7, i16 107, i8 0, i8 0 }, %"struct.policy::internal::SchemaNode" { i8 6, i16 33, i8 0, i8 0 }, %"struct.policy::internal::SchemaNode" { i8 4, i16 41, i8 0, i8 0 }, %"struct.policy::internal::SchemaNode" { i8 7, i16 112, i8 0, i8 0 }, %"struct.policy::internal::SchemaNode" { i8 6, i16 36, i8 0, i8 0 }, %"struct.policy::internal::SchemaNode" { i8 6, i16 34, i8 0, i8 0 }, %"struct.policy::internal::SchemaNode" { i8 4, i16 42, i8 0, i8 0 }, %"struct.policy::internal::SchemaNode" { i8 6, i16 35, i8 0, i8 0 }, %"struct.policy::internal::SchemaNode" { i8 4, i16 43, i8 0, i8 0 }, %"struct.policy::internal::SchemaNode" { i8 4, i16 44, i8 0, i8 0 }, %"struct.policy::internal::SchemaNode" { i8 6, i16 38, i8 0, i8 0 }, %"struct.policy::internal::SchemaNode" { i8 6, i16 37, i8 0, i8 0 }, %"struct.policy::internal::SchemaNode" { i8 7, i16 122, i8 0, i8 0 }, %"struct.policy::internal::SchemaNode" { i8 7, i16 121, i8 0, i8 0 }, %"struct.policy::internal::SchemaNode" { i8 6, i16 44, i8 0, i8 0 }, %"struct.policy::internal::SchemaNode" { i8 6, i16 42, i8 0, i8 0 }, %"struct.policy::internal::SchemaNode" { i8 6, i16 41, i8 0, i8 0 }, %"struct.policy::internal::SchemaNode" { i8 6, i16 40, i8 0, i8 0 }, %"struct.policy::internal::SchemaNode" { i8 7, i16 126, i8 0, i8 0 }, %"struct.policy::internal::SchemaNode" { i8 6, i16 43, i8 0, i8 0 }, %"struct.policy::internal::SchemaNode" { i8 4, i16 45, i8 0, i8 0 }], align 16
@_ZN6policyL14kPropertyNodesE = internal constant [487 x %"struct.policy::internal::PropertyNode"] [%"struct.policy::internal::PropertyNode" { i8* getelementptr inbounds ([16 x i8], [16 x i8]* @.str.2, i32 0, i32 0), i16 4 }, %"struct.policy::internal::PropertyNode" { i8* getelementptr inbounds ([9 x i8], [9 x i8]* @.str.3, i32 0, i32 0), i16 3 }, %"struct.policy::internal::PropertyNode" { i8* getelementptr inbounds ([11 x i8], [11 x i8]* @.str.4, i32 0, i32 0), i16 12 }, %"struct.policy::internal::PropertyNode" { i8* getelementptr inbounds ([22 x i8], [22 x i8]* @.str.5, i32 0, i32 0), i16 13 }, %"struct.policy::internal::PropertyNode" { i8* getelementptr inbounds ([14 x i8], [14 x i8]* @.str.6, i32 0, i32 0), i16 26 }, %"struct.policy::internal::PropertyNode" { i8* getelementptr inbounds ([24 x i8], [24 x i8]* @.str.7, i32 0, i32 0), i16 3 }, %"struct.policy::internal::PropertyNode" { i8* getelementptr inbounds ([20 x i8], [20 x i8]* @.str.8, i32 0, i32 0), i16 34 }, %"struct.policy::internal::PropertyNode" { i8* getelementptr inbounds ([16 x i8], [16 x i8]* @.str.9, i32 0, i32 0), i16 4 }, %"struct.policy::internal::PropertyNode" { i8* getelementptr inbounds ([18 x i8], [18 x i8]* @.str.10, i32 0, i32 0), i16 29 }, %"struct.policy::internal::PropertyNode" { i8* getelementptr inbounds ([22 x i8], [22 x i8]* @.str.11, i32 0, i32 0), i16 4 }, %"struct.policy::internal::PropertyNode" { i8* getelementptr inbounds ([22 x i8], [22 x i8]* @.str.12, i32 0, i32 0), i16 4 }, %"struct.policy::internal::PropertyNode" { i8* getelementptr inbounds ([20 x i8], [20 x i8]* @.str.13, i32 0, i32 0), i16 34 }, %"struct.policy::internal::PropertyNode" { i8* getelementptr inbounds ([20 x i8], [20 x i8]* @.str.8, i32 0, i32 0), i16 34 }, %"struct.policy::internal::PropertyNode" { i8* getelementptr inbounds ([18 x i8], [18 x i8]* @.str.10, i32 0, i32 0), i16 31 }, %"struct.policy::internal::PropertyNode" { i8* getelementptr inbounds ([20 x i8], [20 x i8]* @.str.13, i32 0, i32 0), i16 34 }, %"struct.policy::internal::PropertyNode" { i8* getelementptr inbounds ([24 x i8], [24 x i8]* @.str.7, i32 0, i32 0), i16 3 }, %"struct.policy::internal::PropertyNode" { i8* getelementptr inbounds ([20 x i8], [20 x i8]* @.str.8, i32 0, i32 0), i16 34 }, %"struct.policy::internal::PropertyNode" { i8* getelementptr inbounds ([18 x i8], [18 x i8]* @.str.10, i32 0, i32 0), i16 35 }, %"struct.policy::internal::PropertyNode" { i8* getelementptr inbounds ([25 x i8], [25 x i8]* @.str.14, i32 0, i32 0), i16 36 }, %"struct.policy::internal::PropertyNode" { i8* getelementptr inbounds ([20 x i8], [20 x i8]* @.str.15, i32 0, i32 0), i16 1 }, %"struct.policy::internal::PropertyNode" { i8* getelementptr inbounds ([22 x i8], [22 x i8]* @.str.11, i32 0, i32 0), i16 4 }, %"struct.policy::internal::PropertyNode" { i8* getelementptr inbounds ([22 x i8], [22 x i8]* @.str.12, i32 0, i32 0), i16 4 }, %"struct.policy::internal::PropertyNode" { i8* getelementptr inbounds ([12 x i8], [12 x i8]* @.str.16, i32 0, i32 0), i16 37 }, %"struct.policy::internal::PropertyNode" { i8* getelementptr inbounds ([11 x i8], [11 x i8]* @.str.17, i32 0, i32 0), i16 3 }, %"struct.policy::internal::PropertyNode" { i8* getelementptr inbounds ([2 x i8], [2 x i8]* @.str.18, i32 0, i32 0), i16 28 }, %"struct.policy::internal::PropertyNode" { i8* getelementptr inbounds ([13 x i8], [13 x i8]* @.str.19, i32 0, i32 0), i16 30 }, %"struct.policy::internal::PropertyNode" { i8* getelementptr inbounds ([29 x i8], [29 x i8]* @.str.20, i32 0, i32 0), i16 32 }, %"struct.policy::internal::PropertyNode" { i8* getelementptr inbounds ([9 x i8], [9 x i8]* @.str.21, i32 0, i32 0), i16 43 }, %"struct.policy::internal::PropertyNode" { i8* getelementptr inbounds ([5 x i8], [5 x i8]* @.str.22, i32 0, i32 0), i16 3 }, %"struct.policy::internal::PropertyNode" { i8* getelementptr inbounds ([14 x i8], [14 x i8]* @.str.23, i32 0, i32 0), i16 3 }, %"struct.policy::internal::PropertyNode" { i8* getelementptr inbounds ([4 x i8], [4 x i8]* @.str.24, i32 0, i32 0), i16 3 }, %"struct.policy::internal::PropertyNode" { i8* getelementptr inbounds ([27 x i8], [27 x i8]* @.str.25, i32 0, i32 0), i16 3 }, %"struct.policy::internal::PropertyNode" { i8* getelementptr inbounds ([26 x i8], [26 x i8]* @.str.26, i32 0, i32 0), i16 3 }, %"struct.policy::internal::PropertyNode" { i8* getelementptr inbounds ([7 x i8], [7 x i8]* @.str.27, i32 0, i32 0), i16 3 }, %"struct.policy::internal::PropertyNode" { i8* getelementptr inbounds ([9 x i8], [9 x i8]* @.str.28, i32 0, i32 0), i16 3 }, %"struct.policy::internal::PropertyNode" { i8* getelementptr inbounds ([15 x i8], [15 x i8]* @.str.29, i32 0, i32 0), i16 3 }, %"struct.policy::internal::PropertyNode" { i8* getelementptr inbounds ([8 x i8], [8 x i8]* @.str.30, i32 0, i32 0), i16 3 }, %"struct.policy::internal::PropertyNode" { i8* getelementptr inbounds ([4 x i8], [4 x i8]* @.str.31, i32 0, i32 0), i16 3 }, %"struct.policy::internal::PropertyNode" { i8* getelementptr inbounds ([5 x i8], [5 x i8]* @.str.32, i32 0, i32 0), i16 4 }, %"struct.policy::internal::PropertyNode" { i8* getelementptr inbounds ([9 x i8], [9 x i8]* @.str.33, i32 0, i32 0), i16 4 }, %"struct.policy::internal::PropertyNode" { i8* getelementptr inbounds ([5 x i8], [5 x i8]* @.str.32, i32 0, i32 0), i16 4 }, %"struct.policy::internal::PropertyNode" { i8* getelementptr inbounds ([9 x i8], [9 x i8]* @.str.33, i32 0, i32 0), i16 4 }, %"struct.policy::internal::PropertyNode" { i8* getelementptr inbounds ([20 x i8], [20 x i8]* @.str.34, i32 0, i32 0), i16 9 }, %"struct.policy::internal::PropertyNode" { i8* getelementptr inbounds ([16 x i8], [16 x i8]* @.str.35, i32 0, i32 0), i16 50 }, %"struct.policy::internal::PropertyNode" { i8* getelementptr inbounds ([8 x i8], [8 x i8]* @.str.36, i32 0, i32 0), i16 52 }, %"struct.policy::internal::PropertyNode" { i8* getelementptr inbounds ([7 x i8], [7 x i8]* @.str.37, i32 0, i32 0), i16 54 }, %"struct.policy::internal::PropertyNode" { i8* getelementptr inbounds ([18 x i8], [18 x i8]* @.str.38, i32 0, i32 0), i16 55 }, %"struct.policy::internal::PropertyNode" { i8* getelementptr inbounds ([27 x i8], [27 x i8]* @.str.39, i32 0, i32 0), i16 4 }, %"struct.policy::internal::PropertyNode" { i8* getelementptr inbounds ([17 x i8], [17 x i8]* @.str.40, i32 0, i32 0), i16 3 }, %"struct.policy::internal::PropertyNode" { i8* getelementptr inbounds ([9 x i8], [9 x i8]* @.str.28, i32 0, i32 0), i16 3 }, %"struct.policy::internal::PropertyNode" { i8* getelementptr inbounds ([15 x i8], [15 x i8]* @.str.29, i32 0, i32 0), i16 3 }, %"struct.policy::internal::PropertyNode" { i8* getelementptr inbounds ([8 x i8], [8 x i8]* @.str.30, i32 0, i32 0), i16 3 }, %"struct.policy::internal::PropertyNode" { i8* getelementptr inbounds ([4 x i8], [4 x i8]* @.str.31, i32 0, i32 0), i16 3 }, %"struct.policy::internal::PropertyNode" { i8* getelementptr inbounds ([5 x i8], [5 x i8]* @.str.32, i32 0, i32 0), i16 4 }, %"struct.policy::internal::PropertyNode" { i8* getelementptr inbounds ([9 x i8], [9 x i8]* @.str.33, i32 0, i32 0), i16 4 }, %"struct.policy::internal::PropertyNode" { i8* getelementptr inbounds ([5 x i8], [5 x i8]* @.str.32, i32 0, i32 0), i16 4 }, %"struct.policy::internal::PropertyNode" { i8* getelementptr inbounds ([9 x i8], [9 x i8]* @.str.33, i32 0, i32 0), i16 4 }, %"struct.policy::internal::PropertyNode" { i8* getelementptr inbounds ([18 x i8], [18 x i8]* @.str.41, i32 0, i32 0), i16 1 }, %"struct.policy::internal::PropertyNode" { i8* getelementptr inbounds ([25 x i8], [25 x i8]* @.str.42, i32 0, i32 0), i16 1 }, %"struct.policy::internal::PropertyNode" { i8* getelementptr inbounds ([20 x i8], [20 x i8]* @.str.34, i32 0, i32 0), i16 9 }, %"struct.policy::internal::PropertyNode" { i8* getelementptr inbounds ([16 x i8], [16 x i8]* @.str.35, i32 0, i32 0), i16 59 }, %"struct.policy::internal::PropertyNode" { i8* getelementptr inbounds ([8 x i8], [8 x i8]* @.str.36, i32 0, i32 0), i16 61 }, %"struct.policy::internal::PropertyNode" { i8* getelementptr inbounds ([7 x i8], [7 x i8]* @.str.37, i32 0, i32 0), i16 63 }, %"struct.policy::internal::PropertyNode" { i8* getelementptr inbounds ([27 x i8], [27 x i8]* @.str.39, i32 0, i32 0), i16 4 }, %"struct.policy::internal::PropertyNode" { i8* getelementptr inbounds ([17 x i8], [17 x i8]* @.str.40, i32 0, i32 0), i16 3 }, %"struct.policy::internal::PropertyNode" { i8* getelementptr inbounds ([9 x i8], [9 x i8]* @.str.28, i32 0, i32 0), i16 3 }, %"struct.policy::internal::PropertyNode" { i8* getelementptr inbounds ([15 x i8], [15 x i8]* @.str.29, i32 0, i32 0), i16 3 }, %"struct.policy::internal::PropertyNode" { i8* getelementptr inbounds ([8 x i8], [8 x i8]* @.str.30, i32 0, i32 0), i16 3 }, %"struct.policy::internal::PropertyNode" { i8* getelementptr inbounds ([4 x i8], [4 x i8]* @.str.31, i32 0, i32 0), i16 3 }, %"struct.policy::internal::PropertyNode" { i8* getelementptr inbounds ([5 x i8], [5 x i8]* @.str.32, i32 0, i32 0), i16 4 }, %"struct.policy::internal::PropertyNode" { i8* getelementptr inbounds ([9 x i8], [9 x i8]* @.str.33, i32 0, i32 0), i16 4 }, %"struct.policy::internal::PropertyNode" { i8* getelementptr inbounds ([5 x i8], [5 x i8]* @.str.32, i32 0, i32 0), i16 4 }, %"struct.policy::internal::PropertyNode" { i8* getelementptr inbounds ([9 x i8], [9 x i8]* @.str.33, i32 0, i32 0), i16 4 }, %"struct.policy::internal::PropertyNode" { i8* getelementptr inbounds ([18 x i8], [18 x i8]* @.str.41, i32 0, i32 0), i16 1 }, %"struct.policy::internal::PropertyNode" { i8* getelementptr inbounds ([25 x i8], [25 x i8]* @.str.42, i32 0, i32 0), i16 1 }, %"struct.policy::internal::PropertyNode" { i8* getelementptr inbounds ([20 x i8], [20 x i8]* @.str.34, i32 0, i32 0), i16 9 }, %"struct.policy::internal::PropertyNode" { i8* getelementptr inbounds ([16 x i8], [16 x i8]* @.str.35, i32 0, i32 0), i16 67 }, %"struct.policy::internal::PropertyNode" { i8* getelementptr inbounds ([8 x i8], [8 x i8]* @.str.36, i32 0, i32 0), i16 69 }, %"struct.policy::internal::PropertyNode" { i8* getelementptr inbounds ([7 x i8], [7 x i8]* @.str.37, i32 0, i32 0), i16 71 }, %"struct.policy::internal::PropertyNode" { i8* getelementptr inbounds ([27 x i8], [27 x i8]* @.str.39, i32 0, i32 0), i16 4 }, %"struct.policy::internal::PropertyNode" { i8* getelementptr inbounds ([17 x i8], [17 x i8]* @.str.40, i32 0, i32 0), i16 3 }, %"struct.policy::internal::PropertyNode" { i8* getelementptr inbounds ([20 x i8], [20 x i8]* @.str.43, i32 0, i32 0), i16 4 }, %"struct.policy::internal::PropertyNode" { i8* getelementptr inbounds ([17 x i8], [17 x i8]* @.str.40, i32 0, i32 0), i16 3 }, %"struct.policy::internal::PropertyNode" { i8* getelementptr inbounds ([7 x i8], [7 x i8]* @.str.44, i32 0, i32 0), i16 9 }, %"struct.policy::internal::PropertyNode" { i8* getelementptr inbounds ([6 x i8], [6 x i8]* @.str.45, i32 0, i32 0), i16 9 }, %"struct.policy::internal::PropertyNode" { i8* getelementptr inbounds ([12 x i8], [12 x i8]* @.str.46, i32 0, i32 0), i16 83 }, %"struct.policy::internal::PropertyNode" { i8* getelementptr inbounds ([5 x i8], [5 x i8]* @.str.22, i32 0, i32 0), i16 84 }, %"struct.policy::internal::PropertyNode" { i8* getelementptr inbounds ([16 x i8], [16 x i8]* @_ZN6policy3key16kProxyBypassListE, i32 0, i32 0), i16 3 }, %"struct.policy::internal::PropertyNode" { i8* getelementptr inbounds ([10 x i8], [10 x i8]* @_ZN6policy3key10kProxyModeE, i32 0, i32 0), i16 87 }, %"struct.policy::internal::PropertyNode" { i8* getelementptr inbounds ([12 x i8], [12 x i8]* @_ZN6policy3key12kProxyPacUrlE, i32 0, i32 0), i16 3 }, %"struct.policy::internal::PropertyNode" { i8* getelementptr inbounds ([12 x i8], [12 x i8]* @_ZN6policy3key12kProxyServerE, i32 0, i32 0), i16 3 }, %"struct.policy::internal::PropertyNode" { i8* getelementptr inbounds ([16 x i8], [16 x i8]* @_ZN6policy3key16kProxyServerModeE, i32 0, i32 0), i16 5 }, %"struct.policy::internal::PropertyNode" { i8* getelementptr inbounds ([8 x i8], [8 x i8]* @.str.47, i32 0, i32 0), i16 1 }, %"struct.policy::internal::PropertyNode" { i8* getelementptr inbounds ([9 x i8], [9 x i8]* @.str.3, i32 0, i32 0), i16 3 }, %"struct.policy::internal::PropertyNode" { i8* getelementptr inbounds ([4 x i8], [4 x i8]* @.str.24, i32 0, i32 0), i16 3 }, %"struct.policy::internal::PropertyNode" { i8* getelementptr inbounds ([5 x i8], [5 x i8]* @.str.48, i32 0, i32 0), i16 95 }, %"struct.policy::internal::PropertyNode" { i8* getelementptr inbounds ([7 x i8], [7 x i8]* @.str.49, i32 0, i32 0), i16 96 }, %"struct.policy::internal::PropertyNode" { i8* getelementptr inbounds ([14 x i8], [14 x i8]* @.str.50, i32 0, i32 0), i16 93 }, %"struct.policy::internal::PropertyNode" { i8* getelementptr inbounds ([6 x i8], [6 x i8]* @.str.51, i32 0, i32 0), i16 94 }, %"struct.policy::internal::PropertyNode" { i8* getelementptr inbounds ([8 x i8], [8 x i8]* @.str.52, i32 0, i32 0), i16 97 }, %"struct.policy::internal::PropertyNode" { i8* getelementptr inbounds ([11 x i8], [11 x i8]* @.str.53, i32 0, i32 0), i16 4 }, %"struct.policy::internal::PropertyNode" { i8* getelementptr inbounds ([9 x i8], [9 x i8]* @.str.33, i32 0, i32 0), i16 4 }, %"struct.policy::internal::PropertyNode" { i8* getelementptr inbounds ([11 x i8], [11 x i8]* @.str.53, i32 0, i32 0), i16 4 }, %"struct.policy::internal::PropertyNode" { i8* getelementptr inbounds ([9 x i8], [9 x i8]* @.str.33, i32 0, i32 0), i16 4 }, %"struct.policy::internal::PropertyNode" { i8* getelementptr inbounds ([8 x i8], [8 x i8]* @.str.36, i32 0, i32 0), i16 103 }, %"struct.policy::internal::PropertyNode" { i8* getelementptr inbounds ([7 x i8], [7 x i8]* @.str.54, i32 0, i32 0), i16 3 }, %"struct.policy::internal::PropertyNode" { i8* getelementptr inbounds ([7 x i8], [7 x i8]* @.str.37, i32 0, i32 0), i16 105 }, %"struct.policy::internal::PropertyNode" { i8* getelementptr inbounds ([14 x i8], [14 x i8]* @.str.55, i32 0, i32 0), i16 3 }, %"struct.policy::internal::PropertyNode" { i8* getelementptr inbounds ([17 x i8], [17 x i8]* @.str.40, i32 0, i32 0), i16 3 }, %"struct.policy::internal::PropertyNode" { i8* getelementptr inbounds ([11 x i8], [11 x i8]* @.str.56, i32 0, i32 0), i16 109 }, %"struct.policy::internal::PropertyNode" { i8* getelementptr inbounds ([10 x i8], [10 x i8]* @.str.57, i32 0, i32 0), i16 109 }, %"struct.policy::internal::PropertyNode" { i8* getelementptr inbounds ([8 x i8], [8 x i8]* @.str.58, i32 0, i32 0), i16 110 }, %"struct.policy::internal::PropertyNode" { i8* getelementptr inbounds ([5 x i8], [5 x i8]* @.str.59, i32 0, i32 0), i16 4 }, %"struct.policy::internal::PropertyNode" { i8* getelementptr inbounds ([24 x i8], [24 x i8]* @.str.60, i32 0, i32 0), i16 1 }, %"struct.policy::internal::PropertyNode" { i8* getelementptr inbounds ([25 x i8], [25 x i8]* @.str.61, i32 0, i32 0), i16 113 }, %"struct.policy::internal::PropertyNode" { i8* getelementptr inbounds ([18 x i8], [18 x i8]* @.str.62, i32 0, i32 0), i16 3 }, %"struct.policy::internal::PropertyNode" { i8* getelementptr inbounds ([4 x i8], [4 x i8]* @.str.24, i32 0, i32 0), i16 3 }, %"struct.policy::internal::PropertyNode" { i8* getelementptr inbounds ([16 x i8], [16 x i8]* @.str.63, i32 0, i32 0), i16 117 }, %"struct.policy::internal::PropertyNode" { i8* getelementptr inbounds ([16 x i8], [16 x i8]* @.str.63, i32 0, i32 0), i16 119 }, %"struct.policy::internal::PropertyNode" { i8* getelementptr inbounds ([2 x i8], [2 x i8]* @.str.18, i32 0, i32 0), i16 116 }, %"struct.policy::internal::PropertyNode" { i8* getelementptr inbounds ([5 x i8], [5 x i8]* @.str.64, i32 0, i32 0), i16 118 }, %"struct.policy::internal::PropertyNode" { i8* getelementptr inbounds ([11 x i8], [11 x i8]* @.str.56, i32 0, i32 0), i16 109 }, %"struct.policy::internal::PropertyNode" { i8* getelementptr inbounds ([10 x i8], [10 x i8]* @.str.57, i32 0, i32 0), i16 109 }, %"struct.policy::internal::PropertyNode" { i8* getelementptr inbounds ([8 x i8], [8 x i8]* @.str.58, i32 0, i32 0), i16 123 }, %"struct.policy::internal::PropertyNode" { i8* getelementptr inbounds ([5 x i8], [5 x i8]* @.str.59, i32 0, i32 0), i16 4 }, %"struct.policy::internal::PropertyNode" { i8* getelementptr inbounds ([37 x i8], [37 x i8]* @_ZN6policy3key37kAbusiveExperienceInterventionEnforceE, i32 0, i32 0), i16 1 }, %"struct.policy::internal::PropertyNode" { i8* getelementptr inbounds ([32 x i8], [32 x i8]* @_ZN6policy3key32kAccessibilityImageLabelsEnabledE, i32 0, i32 0), i16 1 }, %"struct.policy::internal::PropertyNode" { i8* getelementptr inbounds ([31 x i8], [31 x i8]* @_ZN6policy3key31kAdditionalDnsQueryTypesEnabledE, i32 0, i32 0), i16 1 }, %"struct.policy::internal::PropertyNode" { i8* getelementptr inbounds ([31 x i8], [31 x i8]* @_ZN6policy3key31kAdsSettingForIntrusiveAdsSitesE, i32 0, i32 0), i16 2 }, %"struct.policy::internal::PropertyNode" { i8* getelementptr inbounds ([26 x i8], [26 x i8]* @_ZN6policy3key26kAdvancedProtectionAllowedE, i32 0, i32 0), i16 1 }, %"struct.policy::internal::PropertyNode" { i8* getelementptr inbounds ([27 x i8], [27 x i8]* @_ZN6policy3key27kAllowCrossOriginAuthPromptE, i32 0, i32 0), i16 1 }, %"struct.policy::internal::PropertyNode" { i8* getelementptr inbounds ([28 x i8], [28 x i8]* @_ZN6policy3key28kAllowDeletingBrowserHistoryE, i32 0, i32 0), i16 1 }, %"struct.policy::internal::PropertyNode" { i8* getelementptr inbounds ([23 x i8], [23 x i8]* @_ZN6policy3key23kAllowDinosaurEasterEggE, i32 0, i32 0), i16 1 }, %"struct.policy::internal::PropertyNode" { i8* getelementptr inbounds ([26 x i8], [26 x i8]* @_ZN6policy3key26kAllowFileSelectionDialogsE, i32 0, i32 0), i16 1 }, %"struct.policy::internal::PropertyNode" { i8* getelementptr inbounds ([25 x i8], [25 x i8]* @_ZN6policy3key25kAllowNativeNotificationsE, i32 0, i32 0), i16 1 }, %"struct.policy::internal::PropertyNode" { i8* getelementptr inbounds ([28 x i8], [28 x i8]* @_ZN6policy3key28kAllowSyncXHRInPageDismissalE, i32 0, i32 0), i16 1 }, %"struct.policy::internal::PropertyNode" { i8* getelementptr inbounds ([25 x i8], [25 x i8]* @_ZN6policy3key25kAllowSystemNotificationsE, i32 0, i32 0), i16 1 }, %"struct.policy::internal::PropertyNode" { i8* getelementptr inbounds ([22 x i8], [22 x i8]* @_ZN6policy3key22kAllowedDomainsForAppsE, i32 0, i32 0), i16 3 }, %"struct.policy::internal::PropertyNode" { i8* getelementptr inbounds ([27 x i8], [27 x i8]* @_ZN6policy3key27kAlternateErrorPagesEnabledE, i32 0, i32 0), i16 1 }, %"struct.policy::internal::PropertyNode" { i8* getelementptr inbounds ([29 x i8], [29 x i8]* @_ZN6policy3key29kAlternativeBrowserParametersE, i32 0, i32 0), i16 4 }, %"struct.policy::internal::PropertyNode" { i8* getelementptr inbounds ([23 x i8], [23 x i8]* @_ZN6policy3key23kAlternativeBrowserPathE, i32 0, i32 0), i16 3 }, %"struct.policy::internal::PropertyNode" { i8* getelementptr inbounds ([24 x i8], [24 x i8]* @_ZN6policy3key24kAlwaysOpenPdfExternallyE, i32 0, i32 0), i16 1 }, %"struct.policy::internal::PropertyNode" { i8* getelementptr inbounds ([43 x i8], [43 x i8]* @_ZN6policy3key43kAmbientAuthenticationInPrivateModesEnabledE, i32 0, i32 0), i16 5 }, %"struct.policy::internal::PropertyNode" { i8* getelementptr inbounds ([21 x i8], [21 x i8]* @_ZN6policy3key21kAppCacheForceEnabledE, i32 0, i32 0), i16 1 }, %"struct.policy::internal::PropertyNode" { i8* getelementptr inbounds ([20 x i8], [20 x i8]* @_ZN6policy3key20kAudioCaptureAllowedE, i32 0, i32 0), i16 1 }, %"struct.policy::internal::PropertyNode" { i8* getelementptr inbounds ([24 x i8], [24 x i8]* @_ZN6policy3key24kAudioCaptureAllowedUrlsE, i32 0, i32 0), i16 4 }, %"struct.policy::internal::PropertyNode" { i8* getelementptr inbounds ([20 x i8], [20 x i8]* @_ZN6policy3key20kAudioSandboxEnabledE, i32 0, i32 0), i16 1 }, %"struct.policy::internal::PropertyNode" { i8* getelementptr inbounds ([31 x i8], [31 x i8]* @_ZN6policy3key31kAuthNegotiateDelegateAllowlistE, i32 0, i32 0), i16 3 }, %"struct.policy::internal::PropertyNode" { i8* getelementptr inbounds ([33 x i8], [33 x i8]* @_ZN6policy3key33kAuthNegotiateDelegateByKdcPolicyE, i32 0, i32 0), i16 1 }, %"struct.policy::internal::PropertyNode" { i8* getelementptr inbounds ([31 x i8], [31 x i8]* @_ZN6policy3key31kAuthNegotiateDelegateWhitelistE, i32 0, i32 0), i16 3 }, %"struct.policy::internal::PropertyNode" { i8* getelementptr inbounds ([12 x i8], [12 x i8]* @_ZN6policy3key12kAuthSchemesE, i32 0, i32 0), i16 3 }, %"struct.policy::internal::PropertyNode" { i8* getelementptr inbounds ([20 x i8], [20 x i8]* @_ZN6policy3key20kAuthServerAllowlistE, i32 0, i32 0), i16 3 }, %"struct.policy::internal::PropertyNode" { i8* getelementptr inbounds ([20 x i8], [20 x i8]* @_ZN6policy3key20kAuthServerWhitelistE, i32 0, i32 0), i16 3 }, %"struct.policy::internal::PropertyNode" { i8* getelementptr inbounds ([16 x i8], [16 x i8]* @_ZN6policy3key16kAutoFillEnabledE, i32 0, i32 0), i16 1 }, %"struct.policy::internal::PropertyNode" { i8* getelementptr inbounds ([31 x i8], [31 x i8]* @_ZN6policy3key31kAutoLaunchProtocolsFromOriginsE, i32 0, i32 0), i16 7 }, %"struct.policy::internal::PropertyNode" { i8* getelementptr inbounds ([23 x i8], [23 x i8]* @_ZN6policy3key23kAutoOpenAllowedForURLsE, i32 0, i32 0), i16 4 }, %"struct.policy::internal::PropertyNode" { i8* getelementptr inbounds ([18 x i8], [18 x i8]* @_ZN6policy3key18kAutoOpenFileTypesE, i32 0, i32 0), i16 4 }, %"struct.policy::internal::PropertyNode" { i8* getelementptr inbounds ([29 x i8], [29 x i8]* @_ZN6policy3key29kAutoSelectCertificateForUrlsE, i32 0, i32 0), i16 4 }, %"struct.policy::internal::PropertyNode" { i8* getelementptr inbounds ([23 x i8], [23 x i8]* @_ZN6policy3key23kAutofillAddressEnabledE, i32 0, i32 0), i16 1 }, %"struct.policy::internal::PropertyNode" { i8* getelementptr inbounds ([26 x i8], [26 x i8]* @_ZN6policy3key26kAutofillCreditCardEnabledE, i32 0, i32 0), i16 1 }, %"struct.policy::internal::PropertyNode" { i8* getelementptr inbounds ([16 x i8], [16 x i8]* @_ZN6policy3key16kAutoplayAllowedE, i32 0, i32 0), i16 1 }, %"struct.policy::internal::PropertyNode" { i8* getelementptr inbounds ([18 x i8], [18 x i8]* @_ZN6policy3key18kAutoplayAllowlistE, i32 0, i32 0), i16 4 }, %"struct.policy::internal::PropertyNode" { i8* getelementptr inbounds ([18 x i8], [18 x i8]* @_ZN6policy3key18kAutoplayWhitelistE, i32 0, i32 0), i16 4 }, %"struct.policy::internal::PropertyNode" { i8* getelementptr inbounds ([22 x i8], [22 x i8]* @_ZN6policy3key22kBackgroundModeEnabledE, i32 0, i32 0), i16 1 }, %"struct.policy::internal::PropertyNode" { i8* getelementptr inbounds ([25 x i8], [25 x i8]* @_ZN6policy3key25kBasicAuthOverHttpEnabledE, i32 0, i32 0), i16 1 }, %"struct.policy::internal::PropertyNode" { i8* getelementptr inbounds ([24 x i8], [24 x i8]* @_ZN6policy3key24kBlockExternalExtensionsE, i32 0, i32 0), i16 1 }, %"struct.policy::internal::PropertyNode" { i8* getelementptr inbounds ([23 x i8], [23 x i8]* @_ZN6policy3key23kBlockThirdPartyCookiesE, i32 0, i32 0), i16 1 }, %"struct.policy::internal::PropertyNode" { i8* getelementptr inbounds ([19 x i8], [19 x i8]* @_ZN6policy3key19kBookmarkBarEnabledE, i32 0, i32 0), i16 1 }, %"struct.policy::internal::PropertyNode" { i8* getelementptr inbounds ([24 x i8], [24 x i8]* @_ZN6policy3key24kBrowserAddPersonEnabledE, i32 0, i32 0), i16 1 }, %"struct.policy::internal::PropertyNode" { i8* getelementptr inbounds ([24 x i8], [24 x i8]* @_ZN6policy3key24kBrowserGuestModeEnabledE, i32 0, i32 0), i16 1 }, %"struct.policy::internal::PropertyNode" { i8* getelementptr inbounds ([25 x i8], [25 x i8]* @_ZN6policy3key25kBrowserGuestModeEnforcedE, i32 0, i32 0), i16 1 }, %"struct.policy::internal::PropertyNode" { i8* getelementptr inbounds ([19 x i8], [19 x i8]* @_ZN6policy3key19kBrowserLabsEnabledE, i32 0, i32 0), i16 1 }, %"struct.policy::internal::PropertyNode" { i8* getelementptr inbounds ([33 x i8], [33 x i8]* @_ZN6policy3key33kBrowserNetworkTimeQueriesEnabledE, i32 0, i32 0), i16 1 }, %"struct.policy::internal::PropertyNode" { i8* getelementptr inbounds ([14 x i8], [14 x i8]* @_ZN6policy3key14kBrowserSigninE, i32 0, i32 0), i16 8 }, %"struct.policy::internal::PropertyNode" { i8* getelementptr inbounds ([21 x i8], [21 x i8]* @_ZN6policy3key21kBrowserSwitcherDelayE, i32 0, i32 0), i16 9 }, %"struct.policy::internal::PropertyNode" { i8* getelementptr inbounds ([23 x i8], [23 x i8]* @_ZN6policy3key23kBrowserSwitcherEnabledE, i32 0, i32 0), i16 1 }, %"struct.policy::internal::PropertyNode" { i8* getelementptr inbounds ([35 x i8], [35 x i8]* @_ZN6policy3key35kBrowserSwitcherExternalGreylistUrlE, i32 0, i32 0), i16 3 }, %"struct.policy::internal::PropertyNode" { i8* getelementptr inbounds ([35 x i8], [35 x i8]* @_ZN6policy3key35kBrowserSwitcherExternalSitelistUrlE, i32 0, i32 0), i16 3 }, %"struct.policy::internal::PropertyNode" { i8* getelementptr inbounds ([33 x i8], [33 x i8]* @_ZN6policy3key33kBrowserSwitcherKeepLastChromeTabE, i32 0, i32 0), i16 1 }, %"struct.policy::internal::PropertyNode" { i8* getelementptr inbounds ([27 x i8], [27 x i8]* @_ZN6policy3key27kBrowserSwitcherUrlGreylistE, i32 0, i32 0), i16 4 }, %"struct.policy::internal::PropertyNode" { i8* getelementptr inbounds ([23 x i8], [23 x i8]* @_ZN6policy3key23kBrowserSwitcherUrlListE, i32 0, i32 0), i16 4 }, %"struct.policy::internal::PropertyNode" { i8* getelementptr inbounds ([18 x i8], [18 x i8]* @_ZN6policy3key18kBrowserThemeColorE, i32 0, i32 0), i16 3 }, %"struct.policy::internal::PropertyNode" { i8* getelementptr inbounds ([21 x i8], [21 x i8]* @_ZN6policy3key21kBrowsingDataLifetimeE, i32 0, i32 0), i16 14 }, %"struct.policy::internal::PropertyNode" { i8* getelementptr inbounds ([24 x i8], [24 x i8]* @_ZN6policy3key24kBuiltInDnsClientEnabledE, i32 0, i32 0), i16 1 }, %"struct.policy::internal::PropertyNode" { i8* getelementptr inbounds ([14 x i8], [14 x i8]* @_ZN6policy3key14kCECPQ2EnabledE, i32 0, i32 0), i16 1 }, %"struct.policy::internal::PropertyNode" { i8* getelementptr inbounds ([49 x i8], [49 x i8]* @_ZN6policy3key49kCertificateTransparencyEnforcementDisabledForCasE, i32 0, i32 0), i16 4 }, %"struct.policy::internal::PropertyNode" { i8* getelementptr inbounds ([55 x i8], [55 x i8]* @_ZN6policy3key55kCertificateTransparencyEnforcementDisabledForLegacyCasE, i32 0, i32 0), i16 4 }, %"struct.policy::internal::PropertyNode" { i8* getelementptr inbounds ([50 x i8], [50 x i8]* @_ZN6policy3key50kCertificateTransparencyEnforcementDisabledForUrlsE, i32 0, i32 0), i16 4 }, %"struct.policy::internal::PropertyNode" { i8* getelementptr inbounds ([17 x i8], [17 x i8]* @_ZN6policy3key17kChromeVariationsE, i32 0, i32 0), i16 8 }, %"struct.policy::internal::PropertyNode" { i8* getelementptr inbounds ([28 x i8], [28 x i8]* @_ZN6policy3key28kClearBrowsingDataOnExitListE, i32 0, i32 0), i16 16 }, %"struct.policy::internal::PropertyNode" { i8* getelementptr inbounds ([19 x i8], [19 x i8]* @_ZN6policy3key19kClickToCallEnabledE, i32 0, i32 0), i16 1 }, %"struct.policy::internal::PropertyNode" { i8* getelementptr inbounds ([29 x i8], [29 x i8]* @_ZN6policy3key29kCloudExtensionRequestEnabledE, i32 0, i32 0), i16 1 }, %"struct.policy::internal::PropertyNode" { i8* getelementptr inbounds ([35 x i8], [35 x i8]* @_ZN6policy3key35kCloudManagementEnrollmentMandatoryE, i32 0, i32 0), i16 1 }, %"struct.policy::internal::PropertyNode" { i8* getelementptr inbounds ([31 x i8], [31 x i8]* @_ZN6policy3key31kCloudManagementEnrollmentTokenE, i32 0, i32 0), i16 3 }, %"struct.policy::internal::PropertyNode" { i8* getelementptr inbounds ([35 x i8], [35 x i8]* @_ZN6policy3key35kCloudPolicyOverridesPlatformPolicyE, i32 0, i32 0), i16 1 }, %"struct.policy::internal::PropertyNode" { i8* getelementptr inbounds ([23 x i8], [23 x i8]* @_ZN6policy3key23kCloudPrintProxyEnabledE, i32 0, i32 0), i16 1 }, %"struct.policy::internal::PropertyNode" { i8* getelementptr inbounds ([24 x i8], [24 x i8]* @_ZN6policy3key24kCloudPrintSubmitEnabledE, i32 0, i32 0), i16 1 }, %"struct.policy::internal::PropertyNode" { i8* getelementptr inbounds ([22 x i8], [22 x i8]* @_ZN6policy3key22kCloudReportingEnabledE, i32 0, i32 0), i16 1 }, %"struct.policy::internal::PropertyNode" { i8* getelementptr inbounds ([21 x i8], [21 x i8]* @_ZN6policy3key21kCloudUserPolicyMergeE, i32 0, i32 0), i16 1 }, %"struct.policy::internal::PropertyNode" { i8* getelementptr inbounds ([52 x i8], [52 x i8]* @_ZN6policy3key52kCoalesceH2ConnectionsWithClientCertificatesForHostsE, i32 0, i32 0), i16 4 }, %"struct.policy::internal::PropertyNode" { i8* getelementptr inbounds ([39 x i8], [39 x i8]* @_ZN6policy3key39kCommandLineFlagSecurityWarningsEnabledE, i32 0, i32 0), i16 1 }, %"struct.policy::internal::PropertyNode" { i8* getelementptr inbounds ([24 x i8], [24 x i8]* @_ZN6policy3key24kComponentUpdatesEnabledE, i32 0, i32 0), i16 1 }, %"struct.policy::internal::PropertyNode" { i8* getelementptr inbounds ([35 x i8], [35 x i8]* @_ZN6policy3key35kContextAwareAccessSignalsAllowlistE, i32 0, i32 0), i16 4 }, %"struct.policy::internal::PropertyNode" { i8* getelementptr inbounds ([22 x i8], [22 x i8]* @_ZN6policy3key22kCookiesAllowedForUrlsE, i32 0, i32 0), i16 4 }, %"struct.policy::internal::PropertyNode" { i8* getelementptr inbounds ([22 x i8], [22 x i8]* @_ZN6policy3key22kCookiesBlockedForUrlsE, i32 0, i32 0), i16 4 }, %"struct.policy::internal::PropertyNode" { i8* getelementptr inbounds ([26 x i8], [26 x i8]* @_ZN6policy3key26kCookiesSessionOnlyForUrlsE, i32 0, i32 0), i16 4 }, %"struct.policy::internal::PropertyNode" { i8* getelementptr inbounds ([29 x i8], [29 x i8]* @_ZN6policy3key29kDNSInterceptionChecksEnabledE, i32 0, i32 0), i16 1 }, %"struct.policy::internal::PropertyNode" { i8* getelementptr inbounds ([29 x i8], [29 x i8]* @_ZN6policy3key29kDefaultBrowserSettingEnabledE, i32 0, i32 0), i16 1 }, %"struct.policy::internal::PropertyNode" { i8* getelementptr inbounds ([22 x i8], [22 x i8]* @_ZN6policy3key22kDefaultCookiesSettingE, i32 0, i32 0), i16 17 }, %"struct.policy::internal::PropertyNode" { i8* getelementptr inbounds ([25 x i8], [25 x i8]* @_ZN6policy3key25kDefaultDownloadDirectoryE, i32 0, i32 0), i16 3 }, %"struct.policy::internal::PropertyNode" { i8* getelementptr inbounds ([32 x i8], [32 x i8]* @_ZN6policy3key32kDefaultFileHandlingGuardSettingE, i32 0, i32 0), i16 18 }, %"struct.policy::internal::PropertyNode" { i8* getelementptr inbounds ([34 x i8], [34 x i8]* @_ZN6policy3key34kDefaultFileSystemReadGuardSettingE, i32 0, i32 0), i16 18 }, %"struct.policy::internal::PropertyNode" { i8* getelementptr inbounds ([35 x i8], [35 x i8]* @_ZN6policy3key35kDefaultFileSystemWriteGuardSettingE, i32 0, i32 0), i16 18 }, %"struct.policy::internal::PropertyNode" { i8* getelementptr inbounds ([26 x i8], [26 x i8]* @_ZN6policy3key26kDefaultGeolocationSettingE, i32 0, i32 0), i16 19 }, %"struct.policy::internal::PropertyNode" { i8* getelementptr inbounds ([21 x i8], [21 x i8]* @_ZN6policy3key21kDefaultImagesSettingE, i32 0, i32 0), i16 2 }, %"struct.policy::internal::PropertyNode" { i8* getelementptr inbounds ([30 x i8], [30 x i8]* @_ZN6policy3key30kDefaultInsecureContentSettingE, i32 0, i32 0), i16 18 }, %"struct.policy::internal::PropertyNode" { i8* getelementptr inbounds ([25 x i8], [25 x i8]* @_ZN6policy3key25kDefaultJavaScriptSettingE, i32 0, i32 0), i16 2 }, %"struct.policy::internal::PropertyNode" { i8* getelementptr inbounds ([26 x i8], [26 x i8]* @_ZN6policy3key26kDefaultMediaStreamSettingE, i32 0, i32 0), i16 18 }, %"struct.policy::internal::PropertyNode" { i8* getelementptr inbounds ([28 x i8], [28 x i8]* @_ZN6policy3key28kDefaultNotificationsSettingE, i32 0, i32 0), i16 19 }, %"struct.policy::internal::PropertyNode" { i8* getelementptr inbounds ([21 x i8], [21 x i8]* @_ZN6policy3key21kDefaultPopupsSettingE, i32 0, i32 0), i16 2 }, %"struct.policy::internal::PropertyNode" { i8* getelementptr inbounds ([24 x i8], [24 x i8]* @_ZN6policy3key24kDefaultPrinterSelectionE, i32 0, i32 0), i16 3 }, %"struct.policy::internal::PropertyNode" { i8* getelementptr inbounds ([35 x i8], [35 x i8]* @_ZN6policy3key35kDefaultSearchProviderAlternateURLsE, i32 0, i32 0), i16 4 }, %"struct.policy::internal::PropertyNode" { i8* getelementptr inbounds ([46 x i8], [46 x i8]* @_ZN6policy3key46kDefaultSearchProviderContextMenuAccessAllowedE, i32 0, i32 0), i16 1 }, %"struct.policy::internal::PropertyNode" { i8* getelementptr inbounds ([29 x i8], [29 x i8]* @_ZN6policy3key29kDefaultSearchProviderEnabledE, i32 0, i32 0), i16 1 }, %"struct.policy::internal::PropertyNode" { i8* getelementptr inbounds ([31 x i8], [31 x i8]* @_ZN6policy3key31kDefaultSearchProviderEncodingsE, i32 0, i32 0), i16 4 }, %"struct.policy::internal::PropertyNode" { i8* getelementptr inbounds ([29 x i8], [29 x i8]* @_ZN6policy3key29kDefaultSearchProviderIconURLE, i32 0, i32 0), i16 3 }, %"struct.policy::internal::PropertyNode" { i8* getelementptr inbounds ([30 x i8], [30 x i8]* @_ZN6policy3key30kDefaultSearchProviderImageURLE, i32 0, i32 0), i16 3 }, %"struct.policy::internal::PropertyNode" { i8* getelementptr inbounds ([40 x i8], [40 x i8]* @_ZN6policy3key40kDefaultSearchProviderImageURLPostParamsE, i32 0, i32 0), i16 3 }, %"struct.policy::internal::PropertyNode" { i8* getelementptr inbounds ([29 x i8], [29 x i8]* @_ZN6policy3key29kDefaultSearchProviderKeywordE, i32 0, i32 0), i16 3 }, %"struct.policy::internal::PropertyNode" { i8* getelementptr inbounds ([26 x i8], [26 x i8]* @_ZN6policy3key26kDefaultSearchProviderNameE, i32 0, i32 0), i16 3 }, %"struct.policy::internal::PropertyNode" { i8* getelementptr inbounds ([31 x i8], [31 x i8]* @_ZN6policy3key31kDefaultSearchProviderNewTabURLE, i32 0, i32 0), i16 3 }, %"struct.policy::internal::PropertyNode" { i8* getelementptr inbounds ([31 x i8], [31 x i8]* @_ZN6policy3key31kDefaultSearchProviderSearchURLE, i32 0, i32 0), i16 3 }, %"struct.policy::internal::PropertyNode" { i8* getelementptr inbounds ([41 x i8], [41 x i8]* @_ZN6policy3key41kDefaultSearchProviderSearchURLPostParamsE, i32 0, i32 0), i16 3 }, %"struct.policy::internal::PropertyNode" { i8* getelementptr inbounds ([32 x i8], [32 x i8]* @_ZN6policy3key32kDefaultSearchProviderSuggestURLE, i32 0, i32 0), i16 3 }, %"struct.policy::internal::PropertyNode" { i8* getelementptr inbounds ([42 x i8], [42 x i8]* @_ZN6policy3key42kDefaultSearchProviderSuggestURLPostParamsE, i32 0, i32 0), i16 3 }, %"struct.policy::internal::PropertyNode" { i8* getelementptr inbounds ([22 x i8], [22 x i8]* @_ZN6policy3key22kDefaultSensorsSettingE, i32 0, i32 0), i16 2 }, %"struct.policy::internal::PropertyNode" { i8* getelementptr inbounds ([26 x i8], [26 x i8]* @_ZN6policy3key26kDefaultSerialGuardSettingE, i32 0, i32 0), i16 18 }, %"struct.policy::internal::PropertyNode" { i8* getelementptr inbounds ([32 x i8], [32 x i8]* @_ZN6policy3key32kDefaultWebBluetoothGuardSettingE, i32 0, i32 0), i16 18 }, %"struct.policy::internal::PropertyNode" { i8* getelementptr inbounds ([26 x i8], [26 x i8]* @_ZN6policy3key26kDefaultWebUsbGuardSettingE, i32 0, i32 0), i16 18 }, %"struct.policy::internal::PropertyNode" { i8* getelementptr inbounds ([27 x i8], [27 x i8]* @_ZN6policy3key27kDeveloperToolsAvailabilityE, i32 0, i32 0), i16 8 }, %"struct.policy::internal::PropertyNode" { i8* getelementptr inbounds ([23 x i8], [23 x i8]* @_ZN6policy3key23kDeveloperToolsDisabledE, i32 0, i32 0), i16 1 }, %"struct.policy::internal::PropertyNode" { i8* getelementptr inbounds ([14 x i8], [14 x i8]* @_ZN6policy3key14kDisable3DAPIsE, i32 0, i32 0), i16 1 }, %"struct.policy::internal::PropertyNode" { i8* getelementptr inbounds ([32 x i8], [32 x i8]* @_ZN6policy3key32kDisableAuthNegotiateCnameLookupE, i32 0, i32 0), i16 1 }, %"struct.policy::internal::PropertyNode" { i8* getelementptr inbounds ([20 x i8], [20 x i8]* @_ZN6policy3key20kDisablePrintPreviewE, i32 0, i32 0), i16 1 }, %"struct.policy::internal::PropertyNode" { i8* getelementptr inbounds ([33 x i8], [33 x i8]* @_ZN6policy3key33kDisableSafeBrowsingProceedAnywayE, i32 0, i32 0), i16 1 }, %"struct.policy::internal::PropertyNode" { i8* getelementptr inbounds ([19 x i8], [19 x i8]* @_ZN6policy3key19kDisableScreenshotsE, i32 0, i32 0), i16 1 }, %"struct.policy::internal::PropertyNode" { i8* getelementptr inbounds ([16 x i8], [16 x i8]* @_ZN6policy3key16kDisabledSchemesE, i32 0, i32 0), i16 4 }, %"struct.policy::internal::PropertyNode" { i8* getelementptr inbounds ([13 x i8], [13 x i8]* @_ZN6policy3key13kDiskCacheDirE, i32 0, i32 0), i16 3 }, %"struct.policy::internal::PropertyNode" { i8* getelementptr inbounds ([14 x i8], [14 x i8]* @_ZN6policy3key14kDiskCacheSizeE, i32 0, i32 0), i16 9 }, %"struct.policy::internal::PropertyNode" { i8* getelementptr inbounds ([17 x i8], [17 x i8]* @_ZN6policy3key17kDnsOverHttpsModeE, i32 0, i32 0), i16 20 }, %"struct.policy::internal::PropertyNode" { i8* getelementptr inbounds ([22 x i8], [22 x i8]* @_ZN6policy3key22kDnsOverHttpsTemplatesE, i32 0, i32 0), i16 3 }, %"struct.policy::internal::PropertyNode" { i8* getelementptr inbounds ([18 x i8], [18 x i8]* @_ZN6policy3key18kDownloadDirectoryE, i32 0, i32 0), i16 3 }, %"struct.policy::internal::PropertyNode" { i8* getelementptr inbounds ([21 x i8], [21 x i8]* @_ZN6policy3key21kDownloadRestrictionsE, i32 0, i32 0), i16 21 }, %"struct.policy::internal::PropertyNode" { i8* getelementptr inbounds ([21 x i8], [21 x i8]* @_ZN6policy3key21kEditBookmarksEnabledE, i32 0, i32 0), i16 1 }, %"struct.policy::internal::PropertyNode" { i8* getelementptr inbounds ([24 x i8], [24 x i8]* @_ZN6policy3key24kEnableAuthNegotiatePortE, i32 0, i32 0), i16 1 }, %"struct.policy::internal::PropertyNode" { i8* getelementptr inbounds ([31 x i8], [31 x i8]* @_ZN6policy3key31kEnableDeprecatedPrivetPrintingE, i32 0, i32 0), i16 1 }, %"struct.policy::internal::PropertyNode" { i8* getelementptr inbounds ([27 x i8], [27 x i8]* @_ZN6policy3key27kEnableExperimentalPoliciesE, i32 0, i32 0), i16 4 }, %"struct.policy::internal::PropertyNode" { i8* getelementptr inbounds ([18 x i8], [18 x i8]* @_ZN6policy3key18kEnableMediaRouterE, i32 0, i32 0), i16 1 }, %"struct.policy::internal::PropertyNode" { i8* getelementptr inbounds ([29 x i8], [29 x i8]* @_ZN6policy3key29kEnableOnlineRevocationChecksE, i32 0, i32 0), i16 1 }, %"struct.policy::internal::PropertyNode" { i8* getelementptr inbounds ([37 x i8], [37 x i8]* @_ZN6policy3key37kEnterpriseHardwarePlatformAPIEnabledE, i32 0, i32 0), i16 1 }, %"struct.policy::internal::PropertyNode" { i8* getelementptr inbounds ([31 x i8], [31 x i8]* @_ZN6policy3key31kEnterpriseRealTimeUrlCheckModeE, i32 0, i32 0), i16 22 }, %"struct.policy::internal::PropertyNode" { i8* getelementptr inbounds ([30 x i8], [30 x i8]* @_ZN6policy3key30kExplicitlyAllowedNetworkPortsE, i32 0, i32 0), i16 24 }, %"struct.policy::internal::PropertyNode" { i8* getelementptr inbounds ([22 x i8], [22 x i8]* @_ZN6policy3key22kExtensionAllowedTypesE, i32 0, i32 0), i16 26 }, %"struct.policy::internal::PropertyNode" { i8* getelementptr inbounds ([26 x i8], [26 x i8]* @_ZN6policy3key26kExtensionInstallAllowlistE, i32 0, i32 0), i16 4 }, %"struct.policy::internal::PropertyNode" { i8* getelementptr inbounds ([26 x i8], [26 x i8]* @_ZN6policy3key26kExtensionInstallBlacklistE, i32 0, i32 0), i16 4 }, %"struct.policy::internal::PropertyNode" { i8* getelementptr inbounds ([26 x i8], [26 x i8]* @_ZN6policy3key26kExtensionInstallBlocklistE, i32 0, i32 0), i16 4 }, %"struct.policy::internal::PropertyNode" { i8* getelementptr inbounds ([26 x i8], [26 x i8]* @_ZN6policy3key26kExtensionInstallForcelistE, i32 0, i32 0), i16 4 }, %"struct.policy::internal::PropertyNode" { i8* getelementptr inbounds ([24 x i8], [24 x i8]* @_ZN6policy3key24kExtensionInstallSourcesE, i32 0, i32 0), i16 4 }, %"struct.policy::internal::PropertyNode" { i8* getelementptr inbounds ([26 x i8], [26 x i8]* @_ZN6policy3key26kExtensionInstallWhitelistE, i32 0, i32 0), i16 4 }, %"struct.policy::internal::PropertyNode" { i8* getelementptr inbounds ([18 x i8], [18 x i8]* @_ZN6policy3key18kExtensionSettingsE, i32 0, i32 0), i16 27 }, %"struct.policy::internal::PropertyNode" { i8* getelementptr inbounds ([45 x i8], [45 x i8]* @_ZN6policy3key45kExternalProtocolDialogShowAlwaysOpenCheckboxE, i32 0, i32 0), i16 1 }, %"struct.policy::internal::PropertyNode" { i8* getelementptr inbounds ([40 x i8], [40 x i8]* @_ZN6policy3key40kFetchKeepaliveDurationSecondsOnShutdownE, i32 0, i32 0), i16 38 }, %"struct.policy::internal::PropertyNode" { i8* getelementptr inbounds ([27 x i8], [27 x i8]* @_ZN6policy3key27kFileHandlingAllowedForUrlsE, i32 0, i32 0), i16 4 }, %"struct.policy::internal::PropertyNode" { i8* getelementptr inbounds ([27 x i8], [27 x i8]* @_ZN6policy3key27kFileHandlingBlockedForUrlsE, i32 0, i32 0), i16 4 }, %"struct.policy::internal::PropertyNode" { i8* getelementptr inbounds ([25 x i8], [25 x i8]* @_ZN6policy3key25kFileSystemReadAskForUrlsE, i32 0, i32 0), i16 4 }, %"struct.policy::internal::PropertyNode" { i8* getelementptr inbounds ([29 x i8], [29 x i8]* @_ZN6policy3key29kFileSystemReadBlockedForUrlsE, i32 0, i32 0), i16 4 }, %"struct.policy::internal::PropertyNode" { i8* getelementptr inbounds ([26 x i8], [26 x i8]* @_ZN6policy3key26kFileSystemWriteAskForUrlsE, i32 0, i32 0), i16 4 }, %"struct.policy::internal::PropertyNode" { i8* getelementptr inbounds ([30 x i8], [30 x i8]* @_ZN6policy3key30kFileSystemWriteBlockedForUrlsE, i32 0, i32 0), i16 4 }, %"struct.policy::internal::PropertyNode" { i8* getelementptr inbounds ([23 x i8], [23 x i8]* @_ZN6policy3key23kForceEphemeralProfilesE, i32 0, i32 0), i16 1 }, %"struct.policy::internal::PropertyNode" { i8* getelementptr inbounds ([22 x i8], [22 x i8]* @_ZN6policy3key22kForceGoogleSafeSearchE, i32 0, i32 0), i16 1 }, %"struct.policy::internal::PropertyNode" { i8* getelementptr inbounds ([16 x i8], [16 x i8]* @_ZN6policy3key16kForceSafeSearchE, i32 0, i32 0), i16 1 }, %"struct.policy::internal::PropertyNode" { i8* getelementptr inbounds ([21 x i8], [21 x i8]* @_ZN6policy3key21kForceYouTubeRestrictE, i32 0, i32 0), i16 8 }, %"struct.policy::internal::PropertyNode" { i8* getelementptr inbounds ([23 x i8], [23 x i8]* @_ZN6policy3key23kForceYouTubeSafetyModeE, i32 0, i32 0), i16 1 }, %"struct.policy::internal::PropertyNode" { i8* getelementptr inbounds ([16 x i8], [16 x i8]* @_ZN6policy3key16kForcedLanguagesE, i32 0, i32 0), i16 4 }, %"struct.policy::internal::PropertyNode" { i8* getelementptr inbounds ([18 x i8], [18 x i8]* @_ZN6policy3key18kFullscreenAllowedE, i32 0, i32 0), i16 1 }, %"struct.policy::internal::PropertyNode" { i8* getelementptr inbounds ([18 x i8], [18 x i8]* @_ZN6policy3key18kGSSAPILibraryNameE, i32 0, i32 0), i16 3 }, %"struct.policy::internal::PropertyNode" { i8* getelementptr inbounds ([34 x i8], [34 x i8]* @_ZN6policy3key34kGloballyScopeHTTPAuthCacheEnabledE, i32 0, i32 0), i16 1 }, %"struct.policy::internal::PropertyNode" { i8* getelementptr inbounds ([21 x i8], [21 x i8]* @_ZN6policy3key21kHSTSPolicyBypassListE, i32 0, i32 0), i16 40 }, %"struct.policy::internal::PropertyNode" { i8* getelementptr inbounds ([32 x i8], [32 x i8]* @_ZN6policy3key32kHardwareAccelerationModeEnabledE, i32 0, i32 0), i16 1 }, %"struct.policy::internal::PropertyNode" { i8* getelementptr inbounds ([13 x i8], [13 x i8]* @_ZN6policy3key13kHeadlessModeE, i32 0, i32 0), i16 2 }, %"struct.policy::internal::PropertyNode" { i8* getelementptr inbounds ([17 x i8], [17 x i8]* @_ZN6policy3key17kHideWebStoreIconE, i32 0, i32 0), i16 1 }, %"struct.policy::internal::PropertyNode" { i8* getelementptr inbounds ([21 x i8], [21 x i8]* @_ZN6policy3key21kHomepageIsNewTabPageE, i32 0, i32 0), i16 1 }, %"struct.policy::internal::PropertyNode" { i8* getelementptr inbounds ([17 x i8], [17 x i8]* @_ZN6policy3key17kHomepageLocationE, i32 0, i32 0), i16 3 }, %"struct.policy::internal::PropertyNode" { i8* getelementptr inbounds ([21 x i8], [21 x i8]* @_ZN6policy3key21kImagesAllowedForUrlsE, i32 0, i32 0), i16 4 }, %"struct.policy::internal::PropertyNode" { i8* getelementptr inbounds ([21 x i8], [21 x i8]* @_ZN6policy3key21kImagesBlockedForUrlsE, i32 0, i32 0), i16 4 }, %"struct.policy::internal::PropertyNode" { i8* getelementptr inbounds ([23 x i8], [23 x i8]* @_ZN6policy3key23kImportAutofillFormDataE, i32 0, i32 0), i16 1 }, %"struct.policy::internal::PropertyNode" { i8* getelementptr inbounds ([16 x i8], [16 x i8]* @_ZN6policy3key16kImportBookmarksE, i32 0, i32 0), i16 1 }, %"struct.policy::internal::PropertyNode" { i8* getelementptr inbounds ([14 x i8], [14 x i8]* @_ZN6policy3key14kImportHistoryE, i32 0, i32 0), i16 1 }, %"struct.policy::internal::PropertyNode" { i8* getelementptr inbounds ([15 x i8], [15 x i8]* @_ZN6policy3key15kImportHomepageE, i32 0, i32 0), i16 1 }, %"struct.policy::internal::PropertyNode" { i8* getelementptr inbounds ([21 x i8], [21 x i8]* @_ZN6policy3key21kImportSavedPasswordsE, i32 0, i32 0), i16 1 }, %"struct.policy::internal::PropertyNode" { i8* getelementptr inbounds ([19 x i8], [19 x i8]* @_ZN6policy3key19kImportSearchEngineE, i32 0, i32 0), i16 1 }, %"struct.policy::internal::PropertyNode" { i8* getelementptr inbounds ([17 x i8], [17 x i8]* @_ZN6policy3key17kIncognitoEnabledE, i32 0, i32 0), i16 1 }, %"struct.policy::internal::PropertyNode" { i8* getelementptr inbounds ([26 x i8], [26 x i8]* @_ZN6policy3key26kIncognitoModeAvailabilityE, i32 0, i32 0), i16 8 }, %"struct.policy::internal::PropertyNode" { i8* getelementptr inbounds ([30 x i8], [30 x i8]* @_ZN6policy3key30kInsecureContentAllowedForUrlsE, i32 0, i32 0), i16 4 }, %"struct.policy::internal::PropertyNode" { i8* getelementptr inbounds ([30 x i8], [30 x i8]* @_ZN6policy3key30kInsecureContentBlockedForUrlsE, i32 0, i32 0), i16 4 }, %"struct.policy::internal::PropertyNode" { i8* getelementptr inbounds ([29 x i8], [29 x i8]* @_ZN6policy3key29kInsecureFormsWarningsEnabledE, i32 0, i32 0), i16 1 }, %"struct.policy::internal::PropertyNode" { i8* getelementptr inbounds ([38 x i8], [38 x i8]* @_ZN6policy3key38kInsecurePrivateNetworkRequestsAllowedE, i32 0, i32 0), i16 1 }, %"struct.policy::internal::PropertyNode" { i8* getelementptr inbounds ([45 x i8], [45 x i8]* @_ZN6policy3key45kInsecurePrivateNetworkRequestsAllowedForUrlsE, i32 0, i32 0), i16 4 }, %"struct.policy::internal::PropertyNode" { i8* getelementptr inbounds ([33 x i8], [33 x i8]* @_ZN6policy3key33kIntensiveWakeUpThrottlingEnabledE, i32 0, i32 0), i16 1 }, %"struct.policy::internal::PropertyNode" { i8* getelementptr inbounds ([25 x i8], [25 x i8]* @_ZN6policy3key25kIntranetRedirectBehaviorE, i32 0, i32 0), i16 5 }, %"struct.policy::internal::PropertyNode" { i8* getelementptr inbounds ([15 x i8], [15 x i8]* @_ZN6policy3key15kIsolateOriginsE, i32 0, i32 0), i16 3 }, %"struct.policy::internal::PropertyNode" { i8* getelementptr inbounds ([25 x i8], [25 x i8]* @_ZN6policy3key25kJavaScriptAllowedForUrlsE, i32 0, i32 0), i16 4 }, %"struct.policy::internal::PropertyNode" { i8* getelementptr inbounds ([25 x i8], [25 x i8]* @_ZN6policy3key25kJavaScriptBlockedForUrlsE, i32 0, i32 0), i16 4 }, %"struct.policy::internal::PropertyNode" { i8* getelementptr inbounds ([18 x i8], [18 x i8]* @_ZN6policy3key18kJavascriptEnabledE, i32 0, i32 0), i16 1 }, %"struct.policy::internal::PropertyNode" { i8* getelementptr inbounds ([31 x i8], [31 x i8]* @_ZN6policy3key31kLacrosSecondaryProfilesAllowedE, i32 0, i32 0), i16 1 }, %"struct.policy::internal::PropertyNode" { i8* getelementptr inbounds ([36 x i8], [36 x i8]* @_ZN6policy3key36kLegacySameSiteCookieBehaviorEnabledE, i32 0, i32 0), i16 2 }, %"struct.policy::internal::PropertyNode" { i8* getelementptr inbounds ([49 x i8], [49 x i8]* @_ZN6policy3key49kLegacySameSiteCookieBehaviorEnabledForDomainListE, i32 0, i32 0), i16 4 }, %"struct.policy::internal::PropertyNode" { i8* getelementptr inbounds ([28 x i8], [28 x i8]* @_ZN6policy3key28kLockIconInAddressBarEnabledE, i32 0, i32 0), i16 1 }, %"struct.policy::internal::PropertyNode" { i8* getelementptr inbounds ([33 x i8], [33 x i8]* @_ZN6policy3key33kLookalikeWarningAllowlistDomainsE, i32 0, i32 0), i16 4 }, %"struct.policy::internal::PropertyNode" { i8* getelementptr inbounds ([33 x i8], [33 x i8]* @_ZN6policy3key33kManagedAccountsSigninRestrictionE, i32 0, i32 0), i16 41 }, %"struct.policy::internal::PropertyNode" { i8* getelementptr inbounds ([17 x i8], [17 x i8]* @_ZN6policy3key17kManagedBookmarksE, i32 0, i32 0), i16 44 }, %"struct.policy::internal::PropertyNode" { i8* getelementptr inbounds ([30 x i8], [30 x i8]* @_ZN6policy3key30kManagedConfigurationPerOriginE, i32 0, i32 0), i16 46 }, %"struct.policy::internal::PropertyNode" { i8* getelementptr inbounds ([23 x i8], [23 x i8]* @_ZN6policy3key23kMaxConnectionsPerProxyE, i32 0, i32 0), i16 9 }, %"struct.policy::internal::PropertyNode" { i8* getelementptr inbounds ([26 x i8], [26 x i8]* @_ZN6policy3key26kMaxInvalidationFetchDelayE, i32 0, i32 0), i16 47 }, %"struct.policy::internal::PropertyNode" { i8* getelementptr inbounds ([28 x i8], [28 x i8]* @_ZN6policy3key28kMediaRecommendationsEnabledE, i32 0, i32 0), i16 1 }, %"struct.policy::internal::PropertyNode" { i8* getelementptr inbounds ([27 x i8], [27 x i8]* @_ZN6policy3key27kMediaRouterCastAllowAllIPsE, i32 0, i32 0), i16 1 }, %"struct.policy::internal::PropertyNode" { i8* getelementptr inbounds ([24 x i8], [24 x i8]* @_ZN6policy3key24kMetricsReportingEnabledE, i32 0, i32 0), i16 1 }, %"struct.policy::internal::PropertyNode" { i8* getelementptr inbounds ([16 x i8], [16 x i8]* @_ZN6policy3key16kNTPCardsVisibleE, i32 0, i32 0), i16 1 }, %"struct.policy::internal::PropertyNode" { i8* getelementptr inbounds ([27 x i8], [27 x i8]* @_ZN6policy3key27kNTPCustomBackgroundEnabledE, i32 0, i32 0), i16 1 }, %"struct.policy::internal::PropertyNode" { i8* getelementptr inbounds ([25 x i8], [25 x i8]* @_ZN6policy3key25kNativeMessagingAllowlistE, i32 0, i32 0), i16 4 }, %"struct.policy::internal::PropertyNode" { i8* getelementptr inbounds ([25 x i8], [25 x i8]* @_ZN6policy3key25kNativeMessagingBlacklistE, i32 0, i32 0), i16 4 }, %"struct.policy::internal::PropertyNode" { i8* getelementptr inbounds ([25 x i8], [25 x i8]* @_ZN6policy3key25kNativeMessagingBlocklistE, i32 0, i32 0), i16 4 }, %"struct.policy::internal::PropertyNode" { i8* getelementptr inbounds ([30 x i8], [30 x i8]* @_ZN6policy3key30kNativeMessagingUserLevelHostsE, i32 0, i32 0), i16 1 }, %"struct.policy::internal::PropertyNode" { i8* getelementptr inbounds ([25 x i8], [25 x i8]* @_ZN6policy3key25kNativeMessagingWhitelistE, i32 0, i32 0), i16 4 }, %"struct.policy::internal::PropertyNode" { i8* getelementptr inbounds ([25 x i8], [25 x i8]* @_ZN6policy3key25kNetworkPredictionOptionsE, i32 0, i32 0), i16 8 }, %"struct.policy::internal::PropertyNode" { i8* getelementptr inbounds ([19 x i8], [19 x i8]* @_ZN6policy3key19kNewTabPageLocationE, i32 0, i32 0), i16 3 }, %"struct.policy::internal::PropertyNode" { i8* getelementptr inbounds ([28 x i8], [28 x i8]* @_ZN6policy3key28kNotificationsAllowedForUrlsE, i32 0, i32 0), i16 4 }, %"struct.policy::internal::PropertyNode" { i8* getelementptr inbounds ([28 x i8], [28 x i8]* @_ZN6policy3key28kNotificationsBlockedForUrlsE, i32 0, i32 0), i16 4 }, %"struct.policy::internal::PropertyNode" { i8* getelementptr inbounds ([14 x i8], [14 x i8]* @_ZN6policy3key14kNtlmV2EnabledE, i32 0, i32 0), i16 1 }, %"struct.policy::internal::PropertyNode" { i8* getelementptr inbounds ([35 x i8], [35 x i8]* @_ZN6policy3key35kOnBulkDataEntryEnterpriseConnectorE, i32 0, i32 0), i16 56 }, %"struct.policy::internal::PropertyNode" { i8* getelementptr inbounds ([34 x i8], [34 x i8]* @_ZN6policy3key34kOnFileAttachedEnterpriseConnectorE, i32 0, i32 0), i16 64 }, %"struct.policy::internal::PropertyNode" { i8* getelementptr inbounds ([36 x i8], [36 x i8]* @_ZN6policy3key36kOnFileDownloadedEnterpriseConnectorE, i32 0, i32 0), i16 72 }, %"struct.policy::internal::PropertyNode" { i8* getelementptr inbounds ([35 x i8], [35 x i8]* @_ZN6policy3key35kOnSecurityEventEnterpriseConnectorE, i32 0, i32 0), i16 74 }, %"struct.policy::internal::PropertyNode" { i8* getelementptr inbounds ([45 x i8], [45 x i8]* @_ZN6policy3key45kOverrideSecurityRestrictionsOnInsecureOriginE, i32 0, i32 0), i16 4 }, %"struct.policy::internal::PropertyNode" { i8* getelementptr inbounds ([29 x i8], [29 x i8]* @_ZN6policy3key29kPasswordLeakDetectionEnabledE, i32 0, i32 0), i16 1 }, %"struct.policy::internal::PropertyNode" { i8* getelementptr inbounds ([23 x i8], [23 x i8]* @_ZN6policy3key23kPasswordManagerEnabledE, i32 0, i32 0), i16 1 }, %"struct.policy::internal::PropertyNode" { i8* getelementptr inbounds ([36 x i8], [36 x i8]* @_ZN6policy3key36kPasswordProtectionChangePasswordURLE, i32 0, i32 0), i16 3 }, %"struct.policy::internal::PropertyNode" { i8* getelementptr inbounds ([28 x i8], [28 x i8]* @_ZN6policy3key28kPasswordProtectionLoginURLsE, i32 0, i32 0), i16 4 }, %"struct.policy::internal::PropertyNode" { i8* getelementptr inbounds ([33 x i8], [33 x i8]* @_ZN6policy3key33kPasswordProtectionWarningTriggerE, i32 0, i32 0), i16 8 }, %"struct.policy::internal::PropertyNode" { i8* getelementptr inbounds ([26 x i8], [26 x i8]* @_ZN6policy3key26kPaymentMethodQueryEnabledE, i32 0, i32 0), i16 1 }, %"struct.policy::internal::PropertyNode" { i8* getelementptr inbounds ([26 x i8], [26 x i8]* @_ZN6policy3key26kPolicyAtomicGroupsEnabledE, i32 0, i32 0), i16 1 }, %"struct.policy::internal::PropertyNode" { i8* getelementptr inbounds ([40 x i8], [40 x i8]* @_ZN6policy3key40kPolicyDictionaryMultipleSourceMergeListE, i32 0, i32 0), i16 76 }, %"struct.policy::internal::PropertyNode" { i8* getelementptr inbounds ([34 x i8], [34 x i8]* @_ZN6policy3key34kPolicyListMultipleSourceMergeListE, i32 0, i32 0), i16 4 }, %"struct.policy::internal::PropertyNode" { i8* getelementptr inbounds ([18 x i8], [18 x i8]* @_ZN6policy3key18kPolicyRefreshRateE, i32 0, i32 0), i16 77 }, %"struct.policy::internal::PropertyNode" { i8* getelementptr inbounds ([21 x i8], [21 x i8]* @_ZN6policy3key21kPopupsAllowedForUrlsE, i32 0, i32 0), i16 4 }, %"struct.policy::internal::PropertyNode" { i8* getelementptr inbounds ([21 x i8], [21 x i8]* @_ZN6policy3key21kPopupsBlockedForUrlsE, i32 0, i32 0), i16 4 }, %"struct.policy::internal::PropertyNode" { i8* getelementptr inbounds ([18 x i8], [18 x i8]* @_ZN6policy3key18kPrintHeaderFooterE, i32 0, i32 0), i16 1 }, %"struct.policy::internal::PropertyNode" { i8* getelementptr inbounds ([36 x i8], [36 x i8]* @_ZN6policy3key36kPrintPreviewUseSystemDefaultPrinterE, i32 0, i32 0), i16 1 }, %"struct.policy::internal::PropertyNode" { i8* getelementptr inbounds ([20 x i8], [20 x i8]* @_ZN6policy3key20kPrinterTypeDenyListE, i32 0, i32 0), i16 79 }, %"struct.policy::internal::PropertyNode" { i8* getelementptr inbounds ([39 x i8], [39 x i8]* @_ZN6policy3key39kPrintingAllowedBackgroundGraphicsModesE, i32 0, i32 0), i16 80 }, %"struct.policy::internal::PropertyNode" { i8* getelementptr inbounds ([34 x i8], [34 x i8]* @_ZN6policy3key34kPrintingBackgroundGraphicsDefaultE, i32 0, i32 0), i16 81 }, %"struct.policy::internal::PropertyNode" { i8* getelementptr inbounds ([16 x i8], [16 x i8]* @_ZN6policy3key16kPrintingEnabledE, i32 0, i32 0), i16 1 }, %"struct.policy::internal::PropertyNode" { i8* getelementptr inbounds ([25 x i8], [25 x i8]* @_ZN6policy3key25kPrintingPaperSizeDefaultE, i32 0, i32 0), i16 82 }, %"struct.policy::internal::PropertyNode" { i8* getelementptr inbounds ([35 x i8], [35 x i8]* @_ZN6policy3key35kProfilePickerOnStartupAvailabilityE, i32 0, i32 0), i16 8 }, %"struct.policy::internal::PropertyNode" { i8* getelementptr inbounds ([23 x i8], [23 x i8]* @_ZN6policy3key23kPromotionalTabsEnabledE, i32 0, i32 0), i16 1 }, %"struct.policy::internal::PropertyNode" { i8* getelementptr inbounds ([26 x i8], [26 x i8]* @_ZN6policy3key26kPromptForDownloadLocationE, i32 0, i32 0), i16 1 }, %"struct.policy::internal::PropertyNode" { i8* getelementptr inbounds ([16 x i8], [16 x i8]* @_ZN6policy3key16kProxyBypassListE, i32 0, i32 0), i16 3 }, %"struct.policy::internal::PropertyNode" { i8* getelementptr inbounds ([10 x i8], [10 x i8]* @_ZN6policy3key10kProxyModeE, i32 0, i32 0), i16 85 }, %"struct.policy::internal::PropertyNode" { i8* getelementptr inbounds ([12 x i8], [12 x i8]* @_ZN6policy3key12kProxyPacUrlE, i32 0, i32 0), i16 3 }, %"struct.policy::internal::PropertyNode" { i8* getelementptr inbounds ([12 x i8], [12 x i8]* @_ZN6policy3key12kProxyServerE, i32 0, i32 0), i16 3 }, %"struct.policy::internal::PropertyNode" { i8* getelementptr inbounds ([16 x i8], [16 x i8]* @_ZN6policy3key16kProxyServerModeE, i32 0, i32 0), i16 5 }, %"struct.policy::internal::PropertyNode" { i8* getelementptr inbounds ([14 x i8], [14 x i8]* @_ZN6policy3key14kProxySettingsE, i32 0, i32 0), i16 86 }, %"struct.policy::internal::PropertyNode" { i8* getelementptr inbounds ([12 x i8], [12 x i8]* @_ZN6policy3key12kQuicAllowedE, i32 0, i32 0), i16 1 }, %"struct.policy::internal::PropertyNode" { i8* getelementptr inbounds ([27 x i8], [27 x i8]* @_ZN6policy3key27kRegisteredProtocolHandlersE, i32 0, i32 0), i16 89 }, %"struct.policy::internal::PropertyNode" { i8* getelementptr inbounds ([21 x i8], [21 x i8]* @_ZN6policy3key21kRelaunchNotificationE, i32 0, i32 0), i16 2 }, %"struct.policy::internal::PropertyNode" { i8* getelementptr inbounds ([27 x i8], [27 x i8]* @_ZN6policy3key27kRelaunchNotificationPeriodE, i32 0, i32 0), i16 90 }, %"struct.policy::internal::PropertyNode" { i8* getelementptr inbounds ([15 x i8], [15 x i8]* @_ZN6policy3key15kRelaunchWindowE, i32 0, i32 0), i16 91 }, %"struct.policy::internal::PropertyNode" { i8* getelementptr inbounds ([35 x i8], [35 x i8]* @_ZN6policy3key35kRemoteAccessHostAllowClientPairingE, i32 0, i32 0), i16 1 }, %"struct.policy::internal::PropertyNode" { i8* getelementptr inbounds ([34 x i8], [34 x i8]* @_ZN6policy3key34kRemoteAccessHostAllowFileTransferE, i32 0, i32 0), i16 1 }, %"struct.policy::internal::PropertyNode" { i8* getelementptr inbounds ([32 x i8], [32 x i8]* @_ZN6policy3key32kRemoteAccessHostAllowGnubbyAuthE, i32 0, i32 0), i16 1 }, %"struct.policy::internal::PropertyNode" { i8* getelementptr inbounds ([39 x i8], [39 x i8]* @_ZN6policy3key39kRemoteAccessHostAllowRelayedConnectionE, i32 0, i32 0), i16 1 }, %"struct.policy::internal::PropertyNode" { i8* getelementptr inbounds ([45 x i8], [45 x i8]* @_ZN6policy3key45kRemoteAccessHostAllowRemoteAccessConnectionsE, i32 0, i32 0), i16 1 }, %"struct.policy::internal::PropertyNode" { i8* getelementptr inbounds ([29 x i8], [29 x i8]* @_ZN6policy3key29kRemoteAccessHostClientDomainE, i32 0, i32 0), i16 3 }, %"struct.policy::internal::PropertyNode" { i8* getelementptr inbounds ([33 x i8], [33 x i8]* @_ZN6policy3key33kRemoteAccessHostClientDomainListE, i32 0, i32 0), i16 4 }, %"struct.policy::internal::PropertyNode" { i8* getelementptr inbounds ([23 x i8], [23 x i8]* @_ZN6policy3key23kRemoteAccessHostDomainE, i32 0, i32 0), i16 3 }, %"struct.policy::internal::PropertyNode" { i8* getelementptr inbounds ([27 x i8], [27 x i8]* @_ZN6policy3key27kRemoteAccessHostDomainListE, i32 0, i32 0), i16 4 }, %"struct.policy::internal::PropertyNode" { i8* getelementptr inbounds ([36 x i8], [36 x i8]* @_ZN6policy3key36kRemoteAccessHostEnableUserInterfaceE, i32 0, i32 0), i16 1 }, %"struct.policy::internal::PropertyNode" { i8* getelementptr inbounds ([34 x i8], [34 x i8]* @_ZN6policy3key34kRemoteAccessHostFirewallTraversalE, i32 0, i32 0), i16 1 }, %"struct.policy::internal::PropertyNode" { i8* getelementptr inbounds ([30 x i8], [30 x i8]* @_ZN6policy3key30kRemoteAccessHostMatchUsernameE, i32 0, i32 0), i16 1 }, %"struct.policy::internal::PropertyNode" { i8* getelementptr inbounds ([46 x i8], [46 x i8]* @_ZN6policy3key46kRemoteAccessHostMaximumSessionDurationMinutesE, i32 0, i32 0), i16 98 }, %"struct.policy::internal::PropertyNode" { i8* getelementptr inbounds ([31 x i8], [31 x i8]* @_ZN6policy3key31kRemoteAccessHostRequireCurtainE, i32 0, i32 0), i16 1 }, %"struct.policy::internal::PropertyNode" { i8* getelementptr inbounds ([25 x i8], [25 x i8]* @_ZN6policy3key25kRemoteAccessHostTokenUrlE, i32 0, i32 0), i16 3 }, %"struct.policy::internal::PropertyNode" { i8* getelementptr inbounds ([49 x i8], [49 x i8]* @_ZN6policy3key49kRemoteAccessHostTokenValidationCertificateIssuerE, i32 0, i32 0), i16 3 }, %"struct.policy::internal::PropertyNode" { i8* getelementptr inbounds ([35 x i8], [35 x i8]* @_ZN6policy3key35kRemoteAccessHostTokenValidationUrlE, i32 0, i32 0), i16 3 }, %"struct.policy::internal::PropertyNode" { i8* getelementptr inbounds ([29 x i8], [29 x i8]* @_ZN6policy3key29kRemoteAccessHostUdpPortRangeE, i32 0, i32 0), i16 3 }, %"struct.policy::internal::PropertyNode" { i8* getelementptr inbounds ([31 x i8], [31 x i8]* @_ZN6policy3key31kReportExtensionsAndPluginsDataE, i32 0, i32 0), i16 1 }, %"struct.policy::internal::PropertyNode" { i8* getelementptr inbounds ([20 x i8], [20 x i8]* @_ZN6policy3key20kReportMachineIDDataE, i32 0, i32 0), i16 1 }, %"struct.policy::internal::PropertyNode" { i8* getelementptr inbounds ([17 x i8], [17 x i8]* @_ZN6policy3key17kReportPolicyDataE, i32 0, i32 0), i16 1 }, %"struct.policy::internal::PropertyNode" { i8* getelementptr inbounds ([17 x i8], [17 x i8]* @_ZN6policy3key17kReportUserIDDataE, i32 0, i32 0), i16 1 }, %"struct.policy::internal::PropertyNode" { i8* getelementptr inbounds ([18 x i8], [18 x i8]* @_ZN6policy3key18kReportVersionDataE, i32 0, i32 0), i16 1 }, %"struct.policy::internal::PropertyNode" { i8* getelementptr inbounds ([45 x i8], [45 x i8]* @_ZN6policy3key45kRequireOnlineRevocationChecksForLocalAnchorsE, i32 0, i32 0), i16 1 }, %"struct.policy::internal::PropertyNode" { i8* getelementptr inbounds ([17 x i8], [17 x i8]* @_ZN6policy3key17kRestoreOnStartupE, i32 0, i32 0), i16 99 }, %"struct.policy::internal::PropertyNode" { i8* getelementptr inbounds ([21 x i8], [21 x i8]* @_ZN6policy3key21kRestoreOnStartupURLsE, i32 0, i32 0), i16 4 }, %"struct.policy::internal::PropertyNode" { i8* getelementptr inbounds ([24 x i8], [24 x i8]* @_ZN6policy3key24kRestrictSigninToPatternE, i32 0, i32 0), i16 3 }, %"struct.policy::internal::PropertyNode" { i8* getelementptr inbounds ([23 x i8], [23 x i8]* @_ZN6policy3key23kRoamingProfileLocationE, i32 0, i32 0), i16 3 }, %"struct.policy::internal::PropertyNode" { i8* getelementptr inbounds ([29 x i8], [29 x i8]* @_ZN6policy3key29kRoamingProfileSupportEnabledE, i32 0, i32 0), i16 1 }, %"struct.policy::internal::PropertyNode" { i8* getelementptr inbounds ([24 x i8], [24 x i8]* @_ZN6policy3key24kSSLErrorOverrideAllowedE, i32 0, i32 0), i16 1 }, %"struct.policy::internal::PropertyNode" { i8* getelementptr inbounds ([34 x i8], [34 x i8]* @_ZN6policy3key34kSSLErrorOverrideAllowedForOriginsE, i32 0, i32 0), i16 4 }, %"struct.policy::internal::PropertyNode" { i8* getelementptr inbounds ([14 x i8], [14 x i8]* @_ZN6policy3key14kSSLVersionMinE, i32 0, i32 0), i16 100 }, %"struct.policy::internal::PropertyNode" { i8* getelementptr inbounds ([29 x i8], [29 x i8]* @_ZN6policy3key29kSafeBrowsingAllowlistDomainsE, i32 0, i32 0), i16 4 }, %"struct.policy::internal::PropertyNode" { i8* getelementptr inbounds ([20 x i8], [20 x i8]* @_ZN6policy3key20kSafeBrowsingEnabledE, i32 0, i32 0), i16 1 }, %"struct.policy::internal::PropertyNode" { i8* getelementptr inbounds ([37 x i8], [37 x i8]* @_ZN6policy3key37kSafeBrowsingExtendedReportingEnabledE, i32 0, i32 0), i16 1 }, %"struct.policy::internal::PropertyNode" { i8* getelementptr inbounds ([28 x i8], [28 x i8]* @_ZN6policy3key28kSafeBrowsingProtectionLevelE, i32 0, i32 0), i16 8 }, %"struct.policy::internal::PropertyNode" { i8* getelementptr inbounds ([29 x i8], [29 x i8]* @_ZN6policy3key29kSafeBrowsingWhitelistDomainsE, i32 0, i32 0), i16 4 }, %"struct.policy::internal::PropertyNode" { i8* getelementptr inbounds ([24 x i8], [24 x i8]* @_ZN6policy3key24kSafeSitesFilterBehaviorE, i32 0, i32 0), i16 22 }, %"struct.policy::internal::PropertyNode" { i8* getelementptr inbounds ([29 x i8], [29 x i8]* @_ZN6policy3key29kSavingBrowserHistoryDisabledE, i32 0, i32 0), i16 1 }, %"struct.policy::internal::PropertyNode" { i8* getelementptr inbounds ([21 x i8], [21 x i8]* @_ZN6policy3key21kScreenCaptureAllowedE, i32 0, i32 0), i16 1 }, %"struct.policy::internal::PropertyNode" { i8* getelementptr inbounds ([28 x i8], [28 x i8]* @_ZN6policy3key28kScrollToTextFragmentEnabledE, i32 0, i32 0), i16 1 }, %"struct.policy::internal::PropertyNode" { i8* getelementptr inbounds ([21 x i8], [21 x i8]* @_ZN6policy3key21kSearchSuggestEnabledE, i32 0, i32 0), i16 1 }, %"struct.policy::internal::PropertyNode" { i8* getelementptr inbounds ([29 x i8], [29 x i8]* @_ZN6policy3key29kSecurityKeyPermitAttestationE, i32 0, i32 0), i16 4 }, %"struct.policy::internal::PropertyNode" { i8* getelementptr inbounds ([39 x i8], [39 x i8]* @_ZN6policy3key39kSendDownloadToCloudEnterpriseConnectorE, i32 0, i32 0), i16 106 }, %"struct.policy::internal::PropertyNode" { i8* getelementptr inbounds ([22 x i8], [22 x i8]* @_ZN6policy3key22kSensorsAllowedForUrlsE, i32 0, i32 0), i16 4 }, %"struct.policy::internal::PropertyNode" { i8* getelementptr inbounds ([22 x i8], [22 x i8]* @_ZN6policy3key22kSensorsBlockedForUrlsE, i32 0, i32 0), i16 4 }, %"struct.policy::internal::PropertyNode" { i8* getelementptr inbounds ([27 x i8], [27 x i8]* @_ZN6policy3key27kSerialAllowAllPortsForUrlsE, i32 0, i32 0), i16 4 }, %"struct.policy::internal::PropertyNode" { i8* getelementptr inbounds ([29 x i8], [29 x i8]* @_ZN6policy3key29kSerialAllowUsbDevicesForUrlsE, i32 0, i32 0), i16 111 }, %"struct.policy::internal::PropertyNode" { i8* getelementptr inbounds ([17 x i8], [17 x i8]* @_ZN6policy3key17kSerialAskForUrlsE, i32 0, i32 0), i16 4 }, %"struct.policy::internal::PropertyNode" { i8* getelementptr inbounds ([21 x i8], [21 x i8]* @_ZN6policy3key21kSerialBlockedForUrlsE, i32 0, i32 0), i16 4 }, %"struct.policy::internal::PropertyNode" { i8* getelementptr inbounds ([43 x i8], [43 x i8]* @_ZN6policy3key43kSharedArrayBufferUnrestrictedAccessAllowedE, i32 0, i32 0), i16 1 }, %"struct.policy::internal::PropertyNode" { i8* getelementptr inbounds ([23 x i8], [23 x i8]* @_ZN6policy3key23kSharedClipboardEnabledE, i32 0, i32 0), i16 1 }, %"struct.policy::internal::PropertyNode" { i8* getelementptr inbounds ([30 x i8], [30 x i8]* @_ZN6policy3key30kShowAppsShortcutInBookmarkBarE, i32 0, i32 0), i16 1 }, %"struct.policy::internal::PropertyNode" { i8* getelementptr inbounds ([22 x i8], [22 x i8]* @_ZN6policy3key22kShowCastIconInToolbarE, i32 0, i32 0), i16 1 }, %"struct.policy::internal::PropertyNode" { i8* getelementptr inbounds ([25 x i8], [25 x i8]* @_ZN6policy3key25kShowFullUrlsInAddressBarE, i32 0, i32 0), i16 1 }, %"struct.policy::internal::PropertyNode" { i8* getelementptr inbounds ([15 x i8], [15 x i8]* @_ZN6policy3key15kShowHomeButtonE, i32 0, i32 0), i16 1 }, %"struct.policy::internal::PropertyNode" { i8* getelementptr inbounds ([26 x i8], [26 x i8]* @_ZN6policy3key26kSignedHTTPExchangeEnabledE, i32 0, i32 0), i16 1 }, %"struct.policy::internal::PropertyNode" { i8* getelementptr inbounds ([14 x i8], [14 x i8]* @_ZN6policy3key14kSigninAllowedE, i32 0, i32 0), i16 1 }, %"struct.policy::internal::PropertyNode" { i8* getelementptr inbounds ([26 x i8], [26 x i8]* @_ZN6policy3key26kSigninInterceptionEnabledE, i32 0, i32 0), i16 1 }, %"struct.policy::internal::PropertyNode" { i8* getelementptr inbounds ([15 x i8], [15 x i8]* @_ZN6policy3key15kSitePerProcessE, i32 0, i32 0), i16 1 }, %"struct.policy::internal::PropertyNode" { i8* getelementptr inbounds ([25 x i8], [25 x i8]* @_ZN6policy3key25kSpellCheckServiceEnabledE, i32 0, i32 0), i16 1 }, %"struct.policy::internal::PropertyNode" { i8* getelementptr inbounds ([18 x i8], [18 x i8]* @_ZN6policy3key18kSpellcheckEnabledE, i32 0, i32 0), i16 1 }, %"struct.policy::internal::PropertyNode" { i8* getelementptr inbounds ([19 x i8], [19 x i8]* @_ZN6policy3key19kSpellcheckLanguageE, i32 0, i32 0), i16 4 }, %"struct.policy::internal::PropertyNode" { i8* getelementptr inbounds ([28 x i8], [28 x i8]* @_ZN6policy3key28kSpellcheckLanguageBlacklistE, i32 0, i32 0), i16 4 }, %"struct.policy::internal::PropertyNode" { i8* getelementptr inbounds ([28 x i8], [28 x i8]* @_ZN6policy3key28kSpellcheckLanguageBlocklistE, i32 0, i32 0), i16 4 }, %"struct.policy::internal::PropertyNode" { i8* getelementptr inbounds ([37 x i8], [37 x i8]* @_ZN6policy3key37kStricterMixedContentTreatmentEnabledE, i32 0, i32 0), i16 1 }, %"struct.policy::internal::PropertyNode" { i8* getelementptr inbounds ([39 x i8], [39 x i8]* @_ZN6policy3key39kSuppressDifferentOriginSubframeDialogsE, i32 0, i32 0), i16 1 }, %"struct.policy::internal::PropertyNode" { i8* getelementptr inbounds ([29 x i8], [29 x i8]* @_ZN6policy3key29kSuppressUnsupportedOSWarningE, i32 0, i32 0), i16 1 }, %"struct.policy::internal::PropertyNode" { i8* getelementptr inbounds ([13 x i8], [13 x i8]* @_ZN6policy3key13kSyncDisabledE, i32 0, i32 0), i16 1 }, %"struct.policy::internal::PropertyNode" { i8* getelementptr inbounds ([22 x i8], [22 x i8]* @_ZN6policy3key22kSyncTypesListDisabledE, i32 0, i32 0), i16 4 }, %"struct.policy::internal::PropertyNode" { i8* getelementptr inbounds ([27 x i8], [27 x i8]* @_ZN6policy3key27kTargetBlankImpliesNoOpenerE, i32 0, i32 0), i16 1 }, %"struct.policy::internal::PropertyNode" { i8* getelementptr inbounds ([29 x i8], [29 x i8]* @_ZN6policy3key29kTaskManagerEndProcessEnabledE, i32 0, i32 0), i16 1 }, %"struct.policy::internal::PropertyNode" { i8* getelementptr inbounds ([17 x i8], [17 x i8]* @_ZN6policy3key17kTranslateEnabledE, i32 0, i32 0), i16 1 }, %"struct.policy::internal::PropertyNode" { i8* getelementptr inbounds ([17 x i8], [17 x i8]* @_ZN6policy3key17kTripleDESEnabledE, i32 0, i32 0), i16 1 }, %"struct.policy::internal::PropertyNode" { i8* getelementptr inbounds ([13 x i8], [13 x i8]* @_ZN6policy3key13kURLAllowlistE, i32 0, i32 0), i16 4 }, %"struct.policy::internal::PropertyNode" { i8* getelementptr inbounds ([13 x i8], [13 x i8]* @_ZN6policy3key13kURLBlacklistE, i32 0, i32 0), i16 4 }, %"struct.policy::internal::PropertyNode" { i8* getelementptr inbounds ([13 x i8], [13 x i8]* @_ZN6policy3key13kURLBlocklistE, i32 0, i32 0), i16 4 }, %"struct.policy::internal::PropertyNode" { i8* getelementptr inbounds ([13 x i8], [13 x i8]* @_ZN6policy3key13kURLWhitelistE, i32 0, i32 0), i16 4 }, %"struct.policy::internal::PropertyNode" { i8* getelementptr inbounds ([36 x i8], [36 x i8]* @_ZN6policy3key36kUnsafelyTreatInsecureOriginAsSecureE, i32 0, i32 0), i16 4 }, %"struct.policy::internal::PropertyNode" { i8* getelementptr inbounds ([40 x i8], [40 x i8]* @_ZN6policy3key40kUrlKeyedAnonymizedDataCollectionEnabledE, i32 0, i32 0), i16 1 }, %"struct.policy::internal::PropertyNode" { i8* getelementptr inbounds ([28 x i8], [28 x i8]* @_ZN6policy3key28kUserAgentClientHintsEnabledE, i32 0, i32 0), i16 1 }, %"struct.policy::internal::PropertyNode" { i8* getelementptr inbounds ([31 x i8], [31 x i8]* @_ZN6policy3key31kUserDataSnapshotRetentionLimitE, i32 0, i32 0), i16 55 }, %"struct.policy::internal::PropertyNode" { i8* getelementptr inbounds ([20 x i8], [20 x i8]* @_ZN6policy3key20kUserFeedbackAllowedE, i32 0, i32 0), i16 1 }, %"struct.policy::internal::PropertyNode" { i8* getelementptr inbounds ([28 x i8], [28 x i8]* @_ZN6policy3key28kVariationsRestrictParameterE, i32 0, i32 0), i16 3 }, %"struct.policy::internal::PropertyNode" { i8* getelementptr inbounds ([20 x i8], [20 x i8]* @_ZN6policy3key20kVideoCaptureAllowedE, i32 0, i32 0), i16 1 }, %"struct.policy::internal::PropertyNode" { i8* getelementptr inbounds ([24 x i8], [24 x i8]* @_ZN6policy3key24kVideoCaptureAllowedUrlsE, i32 0, i32 0), i16 4 }, %"struct.policy::internal::PropertyNode" { i8* getelementptr inbounds ([22 x i8], [22 x i8]* @_ZN6policy3key22kWPADQuickCheckEnabledE, i32 0, i32 0), i16 1 }, %"struct.policy::internal::PropertyNode" { i8* getelementptr inbounds ([23 x i8], [23 x i8]* @_ZN6policy3key23kWebAppInstallForceListE, i32 0, i32 0), i16 114 }, %"struct.policy::internal::PropertyNode" { i8* getelementptr inbounds ([15 x i8], [15 x i8]* @_ZN6policy3key15kWebAppSettingsE, i32 0, i32 0), i16 115 }, %"struct.policy::internal::PropertyNode" { i8* getelementptr inbounds ([30 x i8], [30 x i8]* @_ZN6policy3key30kWebRtcAllowLegacyTLSProtocolsE, i32 0, i32 0), i16 1 }, %"struct.policy::internal::PropertyNode" { i8* getelementptr inbounds ([32 x i8], [32 x i8]* @_ZN6policy3key32kWebRtcEventLogCollectionAllowedE, i32 0, i32 0), i16 1 }, %"struct.policy::internal::PropertyNode" { i8* getelementptr inbounds ([17 x i8], [17 x i8]* @_ZN6policy3key17kWebRtcIPHandlingE, i32 0, i32 0), i16 120 }, %"struct.policy::internal::PropertyNode" { i8* getelementptr inbounds ([26 x i8], [26 x i8]* @_ZN6policy3key26kWebRtcLocalIpsAllowedUrlsE, i32 0, i32 0), i16 4 }, %"struct.policy::internal::PropertyNode" { i8* getelementptr inbounds ([19 x i8], [19 x i8]* @_ZN6policy3key19kWebRtcUdpPortRangeE, i32 0, i32 0), i16 3 }, %"struct.policy::internal::PropertyNode" { i8* getelementptr inbounds ([26 x i8], [26 x i8]* @_ZN6policy3key26kWebUsbAllowDevicesForUrlsE, i32 0, i32 0), i16 124 }, %"struct.policy::internal::PropertyNode" { i8* getelementptr inbounds ([17 x i8], [17 x i8]* @_ZN6policy3key17kWebUsbAskForUrlsE, i32 0, i32 0), i16 4 }, %"struct.policy::internal::PropertyNode" { i8* getelementptr inbounds ([21 x i8], [21 x i8]* @_ZN6policy3key21kWebUsbBlockedForUrlsE, i32 0, i32 0), i16 4 }, %"struct.policy::internal::PropertyNode" { i8* getelementptr inbounds ([3 x i8], [3 x i8]* @.str.65, i32 0, i32 0), i16 3 }, %"struct.policy::internal::PropertyNode" { i8* getelementptr inbounds ([2 x i8], [2 x i8]* @.str.66, i32 0, i32 0), i16 3 }, %"struct.policy::internal::PropertyNode" { i8* getelementptr inbounds ([2 x i8], [2 x i8]* @.str.67, i32 0, i32 0), i16 3 }, %"struct.policy::internal::PropertyNode" { i8* getelementptr inbounds ([3 x i8], [3 x i8]* @.str.68, i32 0, i32 0), i16 3 }, %"struct.policy::internal::PropertyNode" { i8* getelementptr inbounds ([7 x i8], [7 x i8]* @.str.69, i32 0, i32 0), i16 128 }, %"struct.policy::internal::PropertyNode" { i8* getelementptr inbounds ([8 x i8], [8 x i8]* @.str.70, i32 0, i32 0), i16 128 }, %"struct.policy::internal::PropertyNode" { i8* getelementptr inbounds ([7 x i8], [7 x i8]* @.str.71, i32 0, i32 0), i16 127 }, %"struct.policy::internal::PropertyNode" { i8* getelementptr inbounds ([8 x i8], [8 x i8]* @.str.72, i32 0, i32 0), i16 3 }, %"struct.policy::internal::PropertyNode" { i8* getelementptr inbounds ([10 x i8], [10 x i8]* @.str.73, i32 0, i32 0), i16 3 }, %"struct.policy::internal::PropertyNode" { i8* getelementptr inbounds ([5 x i8], [5 x i8]* @.str.74, i32 0, i32 0), i16 131 }, %"struct.policy::internal::PropertyNode" { i8* getelementptr inbounds ([12 x i8], [12 x i8]* @.str.75, i32 0, i32 0), i16 3 }, %"struct.policy::internal::PropertyNode" { i8* getelementptr inbounds ([29 x i8], [29 x i8]* @_ZN6policy3key29kAutoSelectCertificateForUrlsE, i32 0, i32 0), i16 129 }, %"struct.policy::internal::PropertyNode" { i8* getelementptr inbounds ([24 x i8], [24 x i8]* @_ZN6policy3key24kDefaultPrinterSelectionE, i32 0, i32 0), i16 130 }], align 16
@_ZN6policyL11kPropertiesE = internal constant [45 x %"struct.policy::internal::PropertiesNode"] [%"struct.policy::internal::PropertiesNode" { i16 0, i16 2, i16 2, i16 0, i16 2, i16 -1 }, %"struct.policy::internal::PropertiesNode" { i16 2, i16 4, i16 4, i16 2, i16 2, i16 -1 }, %"struct.policy::internal::PropertiesNode" { i16 4, i16 11, i16 11, i16 2, i16 2, i16 -1 }, %"struct.policy::internal::PropertiesNode" { i16 11, i16 14, i16 14, i16 2, i16 2, i16 -1 }, %"struct.policy::internal::PropertiesNode" { i16 14, i16 24, i16 24, i16 2, i16 2, i16 -1 }, %"struct.policy::internal::PropertiesNode" { i16 24, i16 25, i16 27, i16 2, i16 2, i16 -1 }, %"struct.policy::internal::PropertiesNode" { i16 27, i16 31, i16 31, i16 2, i16 2, i16 -1 }, %"struct.policy::internal::PropertiesNode" { i16 31, i16 34, i16 34, i16 2, i16 5, i16 -1 }, %"struct.policy::internal::PropertiesNode" { i16 34, i16 38, i16 38, i16 5, i16 5, i16 -1 }, %"struct.policy::internal::PropertiesNode" { i16 38, i16 40, i16 40, i16 5, i16 5, i16 -1 }, %"struct.policy::internal::PropertiesNode" { i16 40, i16 42, i16 42, i16 5, i16 5, i16 -1 }, %"struct.policy::internal::PropertiesNode" { i16 42, i16 49, i16 49, i16 5, i16 5, i16 -1 }, %"struct.policy::internal::PropertiesNode" { i16 49, i16 53, i16 53, i16 5, i16 5, i16 -1 }, %"struct.policy::internal::PropertiesNode" { i16 53, i16 55, i16 55, i16 5, i16 5, i16 -1 }, %"struct.policy::internal::PropertiesNode" { i16 55, i16 57, i16 57, i16 5, i16 5, i16 -1 }, %"struct.policy::internal::PropertiesNode" { i16 57, i16 65, i16 65, i16 5, i16 5, i16 -1 }, %"struct.policy::internal::PropertiesNode" { i16 65, i16 69, i16 69, i16 5, i16 5, i16 -1 }, %"struct.policy::internal::PropertiesNode" { i16 69, i16 71, i16 71, i16 5, i16 5, i16 -1 }, %"struct.policy::internal::PropertiesNode" { i16 71, i16 73, i16 73, i16 5, i16 5, i16 -1 }, %"struct.policy::internal::PropertiesNode" { i16 73, i16 81, i16 81, i16 5, i16 5, i16 -1 }, %"struct.policy::internal::PropertiesNode" { i16 81, i16 83, i16 83, i16 5, i16 5, i16 -1 }, %"struct.policy::internal::PropertiesNode" { i16 83, i16 85, i16 85, i16 5, i16 7, i16 -1 }, %"struct.policy::internal::PropertiesNode" { i16 85, i16 87, i16 87, i16 7, i16 8, i16 -1 }, %"struct.policy::internal::PropertiesNode" { i16 87, i16 92, i16 92, i16 8, i16 8, i16 -1 }, %"struct.policy::internal::PropertiesNode" { i16 92, i16 95, i16 95, i16 8, i16 10, i16 -1 }, %"struct.policy::internal::PropertiesNode" { i16 95, i16 97, i16 97, i16 10, i16 12, i16 -1 }, %"struct.policy::internal::PropertiesNode" { i16 97, i16 99, i16 99, i16 12, i16 14, i16 -1 }, %"struct.policy::internal::PropertiesNode" { i16 99, i16 100, i16 100, i16 14, i16 14, i16 -1 }, %"struct.policy::internal::PropertiesNode" { i16 100, i16 102, i16 102, i16 14, i16 14, i16 -1 }, %"struct.policy::internal::PropertiesNode" { i16 102, i16 104, i16 104, i16 14, i16 14, i16 -1 }, %"struct.policy::internal::PropertiesNode" { i16 104, i16 109, i16 109, i16 14, i16 14, i16 -1 }, %"struct.policy::internal::PropertiesNode" { i16 109, i16 111, i16 111, i16 14, i16 15, i16 -1 }, %"struct.policy::internal::PropertiesNode" { i16 111, i16 113, i16 113, i16 15, i16 17, i16 -1 }, %"struct.policy::internal::PropertiesNode" { i16 113, i16 117, i16 117, i16 17, i16 18, i16 -1 }, %"struct.policy::internal::PropertiesNode" { i16 117, i16 118, i16 118, i16 18, i16 18, i16 -1 }, %"struct.policy::internal::PropertiesNode" { i16 118, i16 119, i16 119, i16 18, i16 18, i16 -1 }, %"struct.policy::internal::PropertiesNode" { i16 119, i16 120, i16 121, i16 18, i16 18, i16 -1 }, %"struct.policy::internal::PropertiesNode" { i16 121, i16 123, i16 123, i16 18, i16 18, i16 -1 }, %"struct.policy::internal::PropertiesNode" { i16 123, i16 125, i16 125, i16 18, i16 20, i16 -1 }, %"struct.policy::internal::PropertiesNode" { i16 125, i16 474, i16 474, i16 20, i16 20, i16 -1 }, %"struct.policy::internal::PropertiesNode" { i16 474, i16 478, i16 478, i16 20, i16 20, i16 -1 }, %"struct.policy::internal::PropertiesNode" { i16 478, i16 480, i16 480, i16 20, i16 20, i16 -1 }, %"struct.policy::internal::PropertiesNode" { i16 480, i16 482, i16 482, i16 20, i16 20, i16 -1 }, %"struct.policy::internal::PropertiesNode" { i16 482, i16 485, i16 485, i16 20, i16 20, i16 -1 }, %"struct.policy::internal::PropertiesNode" { i16 485, i16 487, i16 487, i16 20, i16 20, i16 -1 }], align 16
@_ZN6policyL17kRestrictionNodesE = internal constant [46 x %"union.policy::internal::RestrictionNode"] [%"union.policy::internal::RestrictionNode" { %"struct.policy::internal::RestrictionNode::EnumerationRestriction" { i32 2, i32 1 } }, %"union.policy::internal::RestrictionNode" { %"struct.policy::internal::RestrictionNode::EnumerationRestriction" { i32 3, i32 0 } }, %"union.policy::internal::RestrictionNode" { %"struct.policy::internal::RestrictionNode::EnumerationRestriction" { i32 2, i32 0 } }, %"union.policy::internal::RestrictionNode" { %"struct.policy::internal::RestrictionNode::EnumerationRestriction" { i32 0, i32 8 } }, %"union.policy::internal::RestrictionNode" { %"struct.policy::internal::RestrictionNode::EnumerationRestriction" { i32 2147483647, i32 1 } }, %"union.policy::internal::RestrictionNode" { %"struct.policy::internal::RestrictionNode::EnumerationRestriction" { i32 8, i32 16 } }, %"union.policy::internal::RestrictionNode" { %"struct.policy::internal::RestrictionNode::EnumerationRestriction" { i32 0, i32 3 } }, %"union.policy::internal::RestrictionNode" { %"struct.policy::internal::RestrictionNode::EnumerationRestriction" { i32 3, i32 2 } }, %"union.policy::internal::RestrictionNode" { %"struct.policy::internal::RestrictionNode::EnumerationRestriction" { i32 3, i32 1 } }, %"union.policy::internal::RestrictionNode" { %"struct.policy::internal::RestrictionNode::EnumerationRestriction" { i32 16, i32 19 } }, %"union.policy::internal::RestrictionNode" { %"struct.policy::internal::RestrictionNode::EnumerationRestriction" { i32 4, i32 0 } }, %"union.policy::internal::RestrictionNode" { %"struct.policy::internal::RestrictionNode::EnumerationRestriction" { i32 1, i32 0 } }, %"union.policy::internal::RestrictionNode" { %"struct.policy::internal::RestrictionNode::EnumerationRestriction" { i32 19, i32 22 } }, %"union.policy::internal::RestrictionNode" { %"struct.policy::internal::RestrictionNode::EnumerationRestriction" { i32 22, i32 28 } }, %"union.policy::internal::RestrictionNode" { %"struct.policy::internal::RestrictionNode::EnumerationRestriction" { i32 28, i32 31 } }, %"union.policy::internal::RestrictionNode" { %"struct.policy::internal::RestrictionNode::EnumerationRestriction" { i32 31, i32 34 } }, %"union.policy::internal::RestrictionNode" { %"struct.policy::internal::RestrictionNode::EnumerationRestriction" { i32 34, i32 34 } }, %"union.policy::internal::RestrictionNode" { %"struct.policy::internal::RestrictionNode::EnumerationRestriction" { i32 35, i32 40 } }, %"union.policy::internal::RestrictionNode" { %"struct.policy::internal::RestrictionNode::EnumerationRestriction" { i32 40, i32 40 } }, %"union.policy::internal::RestrictionNode" { %"struct.policy::internal::RestrictionNode::EnumerationRestriction" { i32 41, i32 43 } }, %"union.policy::internal::RestrictionNode" { %"struct.policy::internal::RestrictionNode::EnumerationRestriction" { i32 5, i32 0 } }, %"union.policy::internal::RestrictionNode" { %"struct.policy::internal::RestrictionNode::EnumerationRestriction" { i32 43, i32 43 } }, %"union.policy::internal::RestrictionNode" { %"struct.policy::internal::RestrictionNode::EnumerationRestriction" { i32 44, i32 48 } }, %"union.policy::internal::RestrictionNode" { %"struct.policy::internal::RestrictionNode::EnumerationRestriction" { i32 300000, i32 1000 } }, %"union.policy::internal::RestrictionNode" { %"struct.policy::internal::RestrictionNode::EnumerationRestriction" { i32 2147483647, i32 0 } }, %"union.policy::internal::RestrictionNode" { %"struct.policy::internal::RestrictionNode::EnumerationRestriction" { i32 48, i32 55 } }, %"union.policy::internal::RestrictionNode" { %"struct.policy::internal::RestrictionNode::EnumerationRestriction" { i32 86400000, i32 1800000 } }, %"union.policy::internal::RestrictionNode" { %"struct.policy::internal::RestrictionNode::EnumerationRestriction" { i32 55, i32 60 } }, %"union.policy::internal::RestrictionNode" { %"struct.policy::internal::RestrictionNode::EnumerationRestriction" { i32 60, i32 63 } }, %"union.policy::internal::RestrictionNode" { %"struct.policy::internal::RestrictionNode::EnumerationRestriction" { i32 63, i32 65 } }, %"union.policy::internal::RestrictionNode" { %"struct.policy::internal::RestrictionNode::EnumerationRestriction" { i32 65, i32 200 } }, %"union.policy::internal::RestrictionNode" { %"struct.policy::internal::RestrictionNode::EnumerationRestriction" { i32 200, i32 205 } }, %"union.policy::internal::RestrictionNode" { %"struct.policy::internal::RestrictionNode::EnumerationRestriction" { i32 205, i32 210 } }, %"union.policy::internal::RestrictionNode" { %"struct.policy::internal::RestrictionNode::EnumerationRestriction" { i32 2147483647, i32 3600000 } }, %"union.policy::internal::RestrictionNode" { %"struct.policy::internal::RestrictionNode::EnumerationRestriction" { i32 1440, i32 1 } }, %"union.policy::internal::RestrictionNode" { %"struct.policy::internal::RestrictionNode::EnumerationRestriction" { i32 23, i32 0 } }, %"union.policy::internal::RestrictionNode" { %"struct.policy::internal::RestrictionNode::EnumerationRestriction" { i32 59, i32 0 } }, %"union.policy::internal::RestrictionNode" { %"struct.policy::internal::RestrictionNode::EnumerationRestriction" { i32 10080, i32 30 } }, %"union.policy::internal::RestrictionNode" { %"struct.policy::internal::RestrictionNode::EnumerationRestriction" { i32 3, i32 6 } }, %"union.policy::internal::RestrictionNode" { %"struct.policy::internal::RestrictionNode::EnumerationRestriction" { i32 210, i32 213 } }, %"union.policy::internal::RestrictionNode" { %"struct.policy::internal::RestrictionNode::EnumerationRestriction" { i32 65535, i32 0 } }, %"union.policy::internal::RestrictionNode" { %"struct.policy::internal::RestrictionNode::EnumerationRestriction" { i32 213, i32 215 } }, %"union.policy::internal::RestrictionNode" { %"struct.policy::internal::RestrictionNode::EnumerationRestriction" { i32 215, i32 217 } }, %"union.policy::internal::RestrictionNode" { %"struct.policy::internal::RestrictionNode::EnumerationRestriction" { i32 217, i32 220 } }, %"union.policy::internal::RestrictionNode" { %"struct.policy::internal::RestrictionNode::EnumerationRestriction" { i32 220, i32 224 } }, %"union.policy::internal::RestrictionNode" { %"struct.policy::internal::RestrictionNode::EnumerationRestriction" { i32 224, i32 226 } }], align 16
@_ZN6policyL19kRequiredPropertiesE = internal constant [20 x i8*] [i8* getelementptr inbounds ([9 x i8], [9 x i8]* @.str.3, i32 0, i32 0), i8* getelementptr inbounds ([16 x i8], [16 x i8]* @.str.2, i32 0, i32 0), i8* getelementptr inbounds ([7 x i8], [7 x i8]* @.str.27, i32 0, i32 0), i8* getelementptr inbounds ([26 x i8], [26 x i8]* @.str.26, i32 0, i32 0), i8* getelementptr inbounds ([27 x i8], [27 x i8]* @.str.25, i32 0, i32 0), i8* getelementptr inbounds ([6 x i8], [6 x i8]* @.str.45, i32 0, i32 0), i8* getelementptr inbounds ([7 x i8], [7 x i8]* @.str.44, i32 0, i32 0), i8* getelementptr inbounds ([5 x i8], [5 x i8]* @.str.22, i32 0, i32 0), i8* getelementptr inbounds ([9 x i8], [9 x i8]* @.str.3, i32 0, i32 0), i8* getelementptr inbounds ([4 x i8], [4 x i8]* @.str.24, i32 0, i32 0), i8* getelementptr inbounds ([5 x i8], [5 x i8]* @.str.48, i32 0, i32 0), i8* getelementptr inbounds ([7 x i8], [7 x i8]* @.str.49, i32 0, i32 0), i8* getelementptr inbounds ([6 x i8], [6 x i8]* @.str.51, i32 0, i32 0), i8* getelementptr inbounds ([14 x i8], [14 x i8]* @.str.50, i32 0, i32 0), i8* getelementptr inbounds ([10 x i8], [10 x i8]* @.str.57, i32 0, i32 0), i8* getelementptr inbounds ([8 x i8], [8 x i8]* @.str.58, i32 0, i32 0), i8* getelementptr inbounds ([5 x i8], [5 x i8]* @.str.59, i32 0, i32 0), i8* getelementptr inbounds ([4 x i8], [4 x i8]* @.str.24, i32 0, i32 0), i8* getelementptr inbounds ([8 x i8], [8 x i8]* @.str.58, i32 0, i32 0), i8* getelementptr inbounds ([5 x i8], [5 x i8]* @.str.59, i32 0, i32 0)], align 16
@_ZN6policyL20kIntegerEnumerationsE = internal constant [6 x i32] [i32 1, i32 2, i32 4, i32 1, i32 4, i32 5], align 16
@_ZN6policyL19kStringEnumerationsE = internal constant [226 x i8*] [i8* getelementptr inbounds ([17 x i8], [17 x i8]* @.str.76, i32 0, i32 0), i8* getelementptr inbounds ([17 x i8], [17 x i8]* @.str.77, i32 0, i32 0), i8* getelementptr inbounds ([28 x i8], [28 x i8]* @.str.78, i32 0, i32 0), i8* getelementptr inbounds ([24 x i8], [24 x i8]* @.str.79, i32 0, i32 0), i8* getelementptr inbounds ([16 x i8], [16 x i8]* @.str.80, i32 0, i32 0), i8* getelementptr inbounds ([9 x i8], [9 x i8]* @.str.81, i32 0, i32 0), i8* getelementptr inbounds ([14 x i8], [14 x i8]* @.str.82, i32 0, i32 0), i8* getelementptr inbounds ([16 x i8], [16 x i8]* @.str.83, i32 0, i32 0), i8* getelementptr inbounds ([17 x i8], [17 x i8]* @.str.76, i32 0, i32 0), i8* getelementptr inbounds ([17 x i8], [17 x i8]* @.str.77, i32 0, i32 0), i8* getelementptr inbounds ([28 x i8], [28 x i8]* @.str.78, i32 0, i32 0), i8* getelementptr inbounds ([24 x i8], [24 x i8]* @.str.79, i32 0, i32 0), i8* getelementptr inbounds ([16 x i8], [16 x i8]* @.str.80, i32 0, i32 0), i8* getelementptr inbounds ([9 x i8], [9 x i8]* @.str.81, i32 0, i32 0), i8* getelementptr inbounds ([14 x i8], [14 x i8]* @.str.82, i32 0, i32 0), i8* getelementptr inbounds ([16 x i8], [16 x i8]* @.str.83, i32 0, i32 0), i8* getelementptr inbounds ([4 x i8], [4 x i8]* @.str.84, i32 0, i32 0), i8* getelementptr inbounds ([10 x i8], [10 x i8]* @.str.85, i32 0, i32 0), i8* getelementptr inbounds ([7 x i8], [7 x i8]* @.str.86, i32 0, i32 0), i8* getelementptr inbounds ([4 x i8], [4 x i8]* @.str.87, i32 0, i32 0), i8* getelementptr inbounds ([6 x i8], [6 x i8]* @.str.88, i32 0, i32 0), i8* getelementptr inbounds ([5 x i8], [5 x i8]* @.str.89, i32 0, i32 0), i8* getelementptr inbounds ([10 x i8], [10 x i8]* @.str.90, i32 0, i32 0), i8* getelementptr inbounds ([6 x i8], [6 x i8]* @.str.91, i32 0, i32 0), i8* getelementptr inbounds ([12 x i8], [12 x i8]* @.str.92, i32 0, i32 0), i8* getelementptr inbounds ([11 x i8], [11 x i8]* @.str.93, i32 0, i32 0), i8* getelementptr inbounds ([20 x i8], [20 x i8]* @.str.94, i32 0, i32 0), i8* getelementptr inbounds ([13 x i8], [13 x i8]* @.str.95, i32 0, i32 0), i8* getelementptr inbounds ([8 x i8], [8 x i8]* @.str.96, i32 0, i32 0), i8* getelementptr inbounds ([8 x i8], [8 x i8]* @.str.97, i32 0, i32 0), i8* getelementptr inbounds ([8 x i8], [8 x i8]* @.str.98, i32 0, i32 0), i8* getelementptr inbounds ([8 x i8], [8 x i8]* @.str.96, i32 0, i32 0), i8* getelementptr inbounds ([8 x i8], [8 x i8]* @.str.97, i32 0, i32 0), i8* getelementptr inbounds ([8 x i8], [8 x i8]* @.str.98, i32 0, i32 0), i8* getelementptr inbounds ([21 x i8], [21 x i8]* @.str.99, i32 0, i32 0), i8* getelementptr inbounds ([8 x i8], [8 x i8]* @.str.96, i32 0, i32 0), i8* getelementptr inbounds ([8 x i8], [8 x i8]* @.str.97, i32 0, i32 0), i8* getelementptr inbounds ([16 x i8], [16 x i8]* @.str.100, i32 0, i32 0), i8* getelementptr inbounds ([17 x i8], [17 x i8]* @.str.101, i32 0, i32 0), i8* getelementptr inbounds ([8 x i8], [8 x i8]* @.str.98, i32 0, i32 0), i8* getelementptr inbounds ([21 x i8], [21 x i8]* @.str.102, i32 0, i32 0), i8* getelementptr inbounds ([13 x i8], [13 x i8]* @.str.103, i32 0, i32 0), i8* getelementptr inbounds ([17 x i8], [17 x i8]* @.str.104, i32 0, i32 0), i8* getelementptr inbounds ([13 x i8], [13 x i8]* @.str.105, i32 0, i32 0), i8* getelementptr inbounds ([16 x i8], [16 x i8]* @.str.106, i32 0, i32 0), i8* getelementptr inbounds ([23 x i8], [23 x i8]* @.str.107, i32 0, i32 0), i8* getelementptr inbounds ([18 x i8], [18 x i8]* @.str.108, i32 0, i32 0), i8* getelementptr inbounds ([5 x i8], [5 x i8]* @.str.109, i32 0, i32 0), i8* getelementptr inbounds ([30 x i8], [30 x i8]* @.str.110, i32 0, i32 0), i8* getelementptr inbounds ([18 x i8], [18 x i8]* @_ZN6policy3key18kExtensionSettingsE, i32 0, i32 0), i8* getelementptr inbounds ([33 x i8], [33 x i8]* @_ZN6policy3key33kDeviceLoginScreenPowerManagementE, i32 0, i32 0), i8* getelementptr inbounds ([15 x i8], [15 x i8]* @_ZN6policy3key15kKeyPermissionsE, i32 0, i32 0), i8* getelementptr inbounds ([28 x i8], [28 x i8]* @_ZN6policy3key28kPowerManagementIdleSettingsE, i32 0, i32 0), i8* getelementptr inbounds ([24 x i8], [24 x i8]* @_ZN6policy3key24kScreenBrightnessPercentE, i32 0, i32 0), i8* getelementptr inbounds ([17 x i8], [17 x i8]* @_ZN6policy3key17kScreenLockDelaysE, i32 0, i32 0), i8* getelementptr inbounds ([7 x i8], [7 x i8]* @.str.111, i32 0, i32 0), i8* getelementptr inbounds ([10 x i8], [10 x i8]* @.str.90, i32 0, i32 0), i8* getelementptr inbounds ([4 x i8], [4 x i8]* @.str.112, i32 0, i32 0), i8* getelementptr inbounds ([6 x i8], [6 x i8]* @.str.113, i32 0, i32 0), i8* getelementptr inbounds ([6 x i8], [6 x i8]* @.str.114, i32 0, i32 0), i8* getelementptr inbounds ([4 x i8], [4 x i8]* @.str.115, i32 0, i32 0), i8* getelementptr inbounds ([8 x i8], [8 x i8]* @.str.116, i32 0, i32 0), i8* getelementptr inbounds ([9 x i8], [9 x i8]* @.str.117, i32 0, i32 0), i8* getelementptr inbounds ([8 x i8], [8 x i8]* @.str.116, i32 0, i32 0), i8* getelementptr inbounds ([9 x i8], [9 x i8]* @.str.117, i32 0, i32 0), i8* getelementptr inbounds ([7 x i8], [7 x i8]* @.str.118, i32 0, i32 0), i8* getelementptr inbounds ([15 x i8], [15 x i8]* @.str.119, i32 0, i32 0), i8* getelementptr inbounds ([20 x i8], [20 x i8]* @.str.120, i32 0, i32 0), i8* getelementptr inbounds ([18 x i8], [18 x i8]* @.str.121, i32 0, i32 0), i8* getelementptr inbounds ([16 x i8], [16 x i8]* @.str.122, i32 0, i32 0), i8* getelementptr inbounds ([17 x i8], [17 x i8]* @.str.123, i32 0, i32 0), i8* getelementptr inbounds ([17 x i8], [17 x i8]* @.str.124, i32 0, i32 0), i8* getelementptr inbounds ([17 x i8], [17 x i8]* @.str.125, i32 0, i32 0), i8* getelementptr inbounds ([27 x i8], [27 x i8]* @.str.126, i32 0, i32 0), i8* getelementptr inbounds ([21 x i8], [21 x i8]* @.str.127, i32 0, i32 0), i8* getelementptr inbounds ([17 x i8], [17 x i8]* @.str.128, i32 0, i32 0), i8* getelementptr inbounds ([23 x i8], [23 x i8]* @.str.129, i32 0, i32 0), i8* getelementptr inbounds ([17 x i8], [17 x i8]* @.str.130, i32 0, i32 0), i8* getelementptr inbounds ([17 x i8], [17 x i8]* @.str.131, i32 0, i32 0), i8* getelementptr inbounds ([16 x i8], [16 x i8]* @.str.132, i32 0, i32 0), i8* getelementptr inbounds ([15 x i8], [15 x i8]* @.str.133, i32 0, i32 0), i8* getelementptr inbounds ([15 x i8], [15 x i8]* @.str.134, i32 0, i32 0), i8* getelementptr inbounds ([19 x i8], [19 x i8]* @.str.135, i32 0, i32 0), i8* getelementptr inbounds ([16 x i8], [16 x i8]* @.str.136, i32 0, i32 0), i8* getelementptr inbounds ([18 x i8], [18 x i8]* @.str.137, i32 0, i32 0), i8* getelementptr inbounds ([17 x i8], [17 x i8]* @.str.138, i32 0, i32 0), i8* getelementptr inbounds ([17 x i8], [17 x i8]* @.str.139, i32 0, i32 0), i8* getelementptr inbounds ([17 x i8], [17 x i8]* @.str.140, i32 0, i32 0), i8* getelementptr inbounds ([23 x i8], [23 x i8]* @.str.141, i32 0, i32 0), i8* getelementptr inbounds ([17 x i8], [17 x i8]* @.str.142, i32 0, i32 0), i8* getelementptr inbounds ([17 x i8], [17 x i8]* @.str.143, i32 0, i32 0), i8* getelementptr inbounds ([19 x i8], [19 x i8]* @.str.144, i32 0, i32 0), i8* getelementptr inbounds ([16 x i8], [16 x i8]* @.str.145, i32 0, i32 0), i8* getelementptr inbounds ([15 x i8], [15 x i8]* @.str.146, i32 0, i32 0), i8* getelementptr inbounds ([15 x i8], [15 x i8]* @.str.147, i32 0, i32 0), i8* getelementptr inbounds ([18 x i8], [18 x i8]* @.str.148, i32 0, i32 0), i8* getelementptr inbounds ([16 x i8], [16 x i8]* @.str.149, i32 0, i32 0), i8* getelementptr inbounds ([17 x i8], [17 x i8]* @.str.150, i32 0, i32 0), i8* getelementptr inbounds ([17 x i8], [17 x i8]* @.str.151, i32 0, i32 0), i8* getelementptr inbounds ([17 x i8], [17 x i8]* @.str.152, i32 0, i32 0), i8* getelementptr inbounds ([17 x i8], [17 x i8]* @.str.153, i32 0, i32 0), i8* getelementptr inbounds ([17 x i8], [17 x i8]* @.str.154, i32 0, i32 0), i8* getelementptr inbounds ([17 x i8], [17 x i8]* @.str.155, i32 0, i32 0), i8* getelementptr inbounds ([19 x i8], [19 x i8]* @.str.156, i32 0, i32 0), i8* getelementptr inbounds ([16 x i8], [16 x i8]* @.str.157, i32 0, i32 0), i8* getelementptr inbounds ([18 x i8], [18 x i8]* @.str.158, i32 0, i32 0), i8* getelementptr inbounds ([15 x i8], [15 x i8]* @.str.159, i32 0, i32 0), i8* getelementptr inbounds ([15 x i8], [15 x i8]* @.str.160, i32 0, i32 0), i8* getelementptr inbounds ([17 x i8], [17 x i8]* @.str.161, i32 0, i32 0), i8* getelementptr inbounds ([19 x i8], [19 x i8]* @.str.162, i32 0, i32 0), i8* getelementptr inbounds ([22 x i8], [22 x i8]* @.str.163, i32 0, i32 0), i8* getelementptr inbounds ([20 x i8], [20 x i8]* @.str.164, i32 0, i32 0), i8* getelementptr inbounds ([19 x i8], [19 x i8]* @.str.165, i32 0, i32 0), i8* getelementptr inbounds ([21 x i8], [21 x i8]* @.str.166, i32 0, i32 0), i8* getelementptr inbounds ([21 x i8], [21 x i8]* @.str.167, i32 0, i32 0), i8* getelementptr inbounds ([20 x i8], [20 x i8]* @.str.168, i32 0, i32 0), i8* getelementptr inbounds ([21 x i8], [21 x i8]* @.str.169, i32 0, i32 0), i8* getelementptr inbounds ([19 x i8], [19 x i8]* @.str.170, i32 0, i32 0), i8* getelementptr inbounds ([17 x i8], [17 x i8]* @.str.171, i32 0, i32 0), i8* getelementptr inbounds ([17 x i8], [17 x i8]* @.str.172, i32 0, i32 0), i8* getelementptr inbounds ([17 x i8], [17 x i8]* @.str.173, i32 0, i32 0), i8* getelementptr inbounds ([17 x i8], [17 x i8]* @.str.174, i32 0, i32 0), i8* getelementptr inbounds ([17 x i8], [17 x i8]* @.str.175, i32 0, i32 0), i8* getelementptr inbounds ([17 x i8], [17 x i8]* @.str.176, i32 0, i32 0), i8* getelementptr inbounds ([17 x i8], [17 x i8]* @.str.177, i32 0, i32 0), i8* getelementptr inbounds ([13 x i8], [13 x i8]* @.str.178, i32 0, i32 0), i8* getelementptr inbounds ([13 x i8], [13 x i8]* @.str.179, i32 0, i32 0), i8* getelementptr inbounds ([13 x i8], [13 x i8]* @.str.180, i32 0, i32 0), i8* getelementptr inbounds ([15 x i8], [15 x i8]* @.str.181, i32 0, i32 0), i8* getelementptr inbounds ([19 x i8], [19 x i8]* @.str.182, i32 0, i32 0), i8* getelementptr inbounds ([17 x i8], [17 x i8]* @.str.183, i32 0, i32 0), i8* getelementptr inbounds ([18 x i8], [18 x i8]* @.str.184, i32 0, i32 0), i8* getelementptr inbounds ([18 x i8], [18 x i8]* @.str.185, i32 0, i32 0), i8* getelementptr inbounds ([18 x i8], [18 x i8]* @.str.186, i32 0, i32 0), i8* getelementptr inbounds ([18 x i8], [18 x i8]* @.str.187, i32 0, i32 0), i8* getelementptr inbounds ([21 x i8], [21 x i8]* @.str.188, i32 0, i32 0), i8* getelementptr inbounds ([16 x i8], [16 x i8]* @.str.189, i32 0, i32 0), i8* getelementptr inbounds ([13 x i8], [13 x i8]* @.str.190, i32 0, i32 0), i8* getelementptr inbounds ([13 x i8], [13 x i8]* @.str.191, i32 0, i32 0), i8* getelementptr inbounds ([13 x i8], [13 x i8]* @.str.192, i32 0, i32 0), i8* getelementptr inbounds ([15 x i8], [15 x i8]* @.str.193, i32 0, i32 0), i8* getelementptr inbounds ([19 x i8], [19 x i8]* @.str.194, i32 0, i32 0), i8* getelementptr inbounds ([13 x i8], [13 x i8]* @.str.195, i32 0, i32 0), i8* getelementptr inbounds ([24 x i8], [24 x i8]* @.str.196, i32 0, i32 0), i8* getelementptr inbounds ([26 x i8], [26 x i8]* @.str.197, i32 0, i32 0), i8* getelementptr inbounds ([21 x i8], [21 x i8]* @.str.198, i32 0, i32 0), i8* getelementptr inbounds ([21 x i8], [21 x i8]* @.str.199, i32 0, i32 0), i8* getelementptr inbounds ([22 x i8], [22 x i8]* @.str.200, i32 0, i32 0), i8* getelementptr inbounds ([19 x i8], [19 x i8]* @.str.201, i32 0, i32 0), i8* getelementptr inbounds ([23 x i8], [23 x i8]* @.str.202, i32 0, i32 0), i8* getelementptr inbounds ([19 x i8], [19 x i8]* @.str.203, i32 0, i32 0), i8* getelementptr inbounds ([19 x i8], [19 x i8]* @.str.204, i32 0, i32 0), i8* getelementptr inbounds ([21 x i8], [21 x i8]* @.str.205, i32 0, i32 0), i8* getelementptr inbounds ([18 x i8], [18 x i8]* @.str.206, i32 0, i32 0), i8* getelementptr inbounds ([24 x i8], [24 x i8]* @.str.207, i32 0, i32 0), i8* getelementptr inbounds ([18 x i8], [18 x i8]* @.str.208, i32 0, i32 0), i8* getelementptr inbounds ([25 x i8], [25 x i8]* @.str.209, i32 0, i32 0), i8* getelementptr inbounds ([27 x i8], [27 x i8]* @.str.210, i32 0, i32 0), i8* getelementptr inbounds ([19 x i8], [19 x i8]* @.str.211, i32 0, i32 0), i8* getelementptr inbounds ([25 x i8], [25 x i8]* @.str.212, i32 0, i32 0), i8* getelementptr inbounds ([26 x i8], [26 x i8]* @.str.213, i32 0, i32 0), i8* getelementptr inbounds ([23 x i8], [23 x i8]* @.str.214, i32 0, i32 0), i8* getelementptr inbounds ([22 x i8], [22 x i8]* @.str.215, i32 0, i32 0), i8* getelementptr inbounds ([24 x i8], [24 x i8]* @.str.216, i32 0, i32 0), i8* getelementptr inbounds ([21 x i8], [21 x i8]* @.str.217, i32 0, i32 0), i8* getelementptr inbounds ([19 x i8], [19 x i8]* @.str.218, i32 0, i32 0), i8* getelementptr inbounds ([23 x i8], [23 x i8]* @.str.219, i32 0, i32 0), i8* getelementptr inbounds ([24 x i8], [24 x i8]* @.str.220, i32 0, i32 0), i8* getelementptr inbounds ([22 x i8], [22 x i8]* @.str.221, i32 0, i32 0), i8* getelementptr inbounds ([20 x i8], [20 x i8]* @.str.222, i32 0, i32 0), i8* getelementptr inbounds ([21 x i8], [21 x i8]* @.str.223, i32 0, i32 0), i8* getelementptr inbounds ([26 x i8], [26 x i8]* @.str.224, i32 0, i32 0), i8* getelementptr inbounds ([23 x i8], [23 x i8]* @.str.225, i32 0, i32 0), i8* getelementptr inbounds ([20 x i8], [20 x i8]* @.str.226, i32 0, i32 0), i8* getelementptr inbounds ([21 x i8], [21 x i8]* @.str.227, i32 0, i32 0), i8* getelementptr inbounds ([25 x i8], [25 x i8]* @.str.228, i32 0, i32 0), i8* getelementptr inbounds ([17 x i8], [17 x i8]* @.str.229, i32 0, i32 0), i8* getelementptr inbounds ([18 x i8], [18 x i8]* @.str.230, i32 0, i32 0), i8* getelementptr inbounds ([16 x i8], [16 x i8]* @.str.231, i32 0, i32 0), i8* getelementptr inbounds ([16 x i8], [16 x i8]* @.str.232, i32 0, i32 0), i8* getelementptr inbounds ([17 x i8], [17 x i8]* @.str.233, i32 0, i32 0), i8* getelementptr inbounds ([16 x i8], [16 x i8]* @.str.234, i32 0, i32 0), i8* getelementptr inbounds ([16 x i8], [16 x i8]* @.str.235, i32 0, i32 0), i8* getelementptr inbounds ([16 x i8], [16 x i8]* @.str.236, i32 0, i32 0), i8* getelementptr inbounds ([16 x i8], [16 x i8]* @.str.237, i32 0, i32 0), i8* getelementptr inbounds ([16 x i8], [16 x i8]* @.str.238, i32 0, i32 0), i8* getelementptr inbounds ([16 x i8], [16 x i8]* @.str.239, i32 0, i32 0), i8* getelementptr inbounds ([21 x i8], [21 x i8]* @.str.240, i32 0, i32 0), i8* getelementptr inbounds ([20 x i8], [20 x i8]* @.str.241, i32 0, i32 0), i8* getelementptr inbounds ([19 x i8], [19 x i8]* @.str.242, i32 0, i32 0), i8* getelementptr inbounds ([18 x i8], [18 x i8]* @.str.243, i32 0, i32 0), i8* getelementptr inbounds ([17 x i8], [17 x i8]* @.str.244, i32 0, i32 0), i8* getelementptr inbounds ([17 x i8], [17 x i8]* @.str.245, i32 0, i32 0), i8* getelementptr inbounds ([17 x i8], [17 x i8]* @.str.246, i32 0, i32 0), i8* getelementptr inbounds ([17 x i8], [17 x i8]* @.str.247, i32 0, i32 0), i8* getelementptr inbounds ([17 x i8], [17 x i8]* @.str.248, i32 0, i32 0), i8* getelementptr inbounds ([16 x i8], [16 x i8]* @.str.249, i32 0, i32 0), i8* getelementptr inbounds ([15 x i8], [15 x i8]* @.str.250, i32 0, i32 0), i8* getelementptr inbounds ([15 x i8], [15 x i8]* @.str.251, i32 0, i32 0), i8* getelementptr inbounds ([16 x i8], [16 x i8]* @.str.252, i32 0, i32 0), i8* getelementptr inbounds ([7 x i8], [7 x i8]* @.str.253, i32 0, i32 0), i8* getelementptr inbounds ([12 x i8], [12 x i8]* @.str.254, i32 0, i32 0), i8* getelementptr inbounds ([11 x i8], [11 x i8]* @.str.255, i32 0, i32 0), i8* getelementptr inbounds ([14 x i8], [14 x i8]* @.str.256, i32 0, i32 0), i8* getelementptr inbounds ([7 x i8], [7 x i8]* @.str.257, i32 0, i32 0), i8* getelementptr inbounds ([7 x i8], [7 x i8]* @.str.253, i32 0, i32 0), i8* getelementptr inbounds ([12 x i8], [12 x i8]* @.str.254, i32 0, i32 0), i8* getelementptr inbounds ([11 x i8], [11 x i8]* @.str.255, i32 0, i32 0), i8* getelementptr inbounds ([14 x i8], [14 x i8]* @.str.256, i32 0, i32 0), i8* getelementptr inbounds ([7 x i8], [7 x i8]* @.str.257, i32 0, i32 0), i8* getelementptr inbounds ([5 x i8], [5 x i8]* @.str.258, i32 0, i32 0), i8* getelementptr inbounds ([7 x i8], [7 x i8]* @.str.259, i32 0, i32 0), i8* getelementptr inbounds ([7 x i8], [7 x i8]* @.str.260, i32 0, i32 0), i8* getelementptr inbounds ([4 x i8], [4 x i8]* @.str.261, i32 0, i32 0), i8* getelementptr inbounds ([7 x i8], [7 x i8]* @.str.262, i32 0, i32 0), i8* getelementptr inbounds ([8 x i8], [8 x i8]* @.str.97, i32 0, i32 0), i8* getelementptr inbounds ([8 x i8], [8 x i8]* @.str.96, i32 0, i32 0), i8* getelementptr inbounds ([8 x i8], [8 x i8]* @.str.97, i32 0, i32 0), i8* getelementptr inbounds ([8 x i8], [8 x i8]* @.str.96, i32 0, i32 0), i8* getelementptr inbounds ([13 x i8], [13 x i8]* @.str.263, i32 0, i32 0), i8* getelementptr inbounds ([8 x i8], [8 x i8]* @.str.47, i32 0, i32 0), i8* getelementptr inbounds ([38 x i8], [38 x i8]* @.str.264, i32 0, i32 0), i8* getelementptr inbounds ([30 x i8], [30 x i8]* @.str.265, i32 0, i32 0), i8* getelementptr inbounds ([24 x i8], [24 x i8]* @.str.266, i32 0, i32 0), i8* getelementptr inbounds ([6 x i8], [6 x i8]* @.str.113, i32 0, i32 0), i8* getelementptr inbounds ([6 x i8], [6 x i8]* @.str.114, i32 0, i32 0)], align 16
@_ZN6policyL20kChromePolicyDetailsE = internal constant [349 x %"struct.policy::PolicyDetails"] [%"struct.policy::PolicyDetails" { i8 0, i16 404, i32 0, [3 x i8] c"\08\08\08" }, %"struct.policy::PolicyDetails" { i8 0, i16 703, i32 0, [3 x i8] c"\06\08\08" }, %"struct.policy::PolicyDetails" { i8 0, i16 857, i32 0, [3 x i8] c"\08\08\08" }, %"struct.policy::PolicyDetails" { i8 0, i16 409, i32 0, [3 x i8] c"\08\08\08" }, %"struct.policy::PolicyDetails" { i8 0, i16 685, i32 0, [3 x i8] c"\08\08\08" }, %"struct.policy::PolicyDetails" { i8 0, i16 89, i32 0, [3 x i8] c"\02\08\08" }, %"struct.policy::PolicyDetails" { i8 0, i16 187, i32 0, [3 x i8] c"\05\03\08" }, %"struct.policy::PolicyDetails" { i8 0, i16 309, i32 0, [3 x i8] c"\08\08\08" }, %"struct.policy::PolicyDetails" { i8 0, i16 84, i32 0, [3 x i8] c"\08\08\08" }, %"struct.policy::PolicyDetails" { i8 1, i16 678, i32 0, [3 x i8] c"\08\08\08" }, %"struct.policy::PolicyDetails" { i8 0, i16 604, i32 0, [3 x i8] c"\08\08\08" }, %"struct.policy::PolicyDetails" { i8 0, i16 828, i32 0, [3 x i8] c"\08\08\08" }, %"struct.policy::PolicyDetails" { i8 0, i16 331, i32 0, [3 x i8] c"\04\08\08" }, %"struct.policy::PolicyDetails" { i8 0, i16 5, i32 0, [3 x i8] c"\08\08\08" }, %"struct.policy::PolicyDetails" { i8 0, i16 495, i32 0, [3 x i8] c"\08\08\08" }, %"struct.policy::PolicyDetails" { i8 0, i16 494, i32 0, [3 x i8] c"\08\08\08" }, %"struct.policy::PolicyDetails" { i8 0, i16 347, i32 0, [3 x i8] c"\08\08\08" }, %"struct.policy::PolicyDetails" { i8 0, i16 650, i32 0, [3 x i8] c"\08\08\08" }, %"struct.policy::PolicyDetails" { i8 0, i16 704, i32 0, [3 x i8] c"\08\08\08" }, %"struct.policy::PolicyDetails" { i8 0, i16 160, i32 0, [3 x i8] c"\08\08\08" }, %"struct.policy::PolicyDetails" { i8 0, i16 208, i32 0, [3 x i8] c"\02\08\08" }, %"struct.policy::PolicyDetails" { i8 0, i16 627, i32 0, [3 x i8] c"\01\08\08" }, %"struct.policy::PolicyDetails" { i8 0, i16 746, i32 0, [3 x i8] c"\08\08\08" }, %"struct.policy::PolicyDetails" { i8 0, i16 528, i32 0, [3 x i8] c"\02\08\08" }, %"struct.policy::PolicyDetails" { i8 1, i16 30, i32 0, [3 x i8] c"\08\08\08" }, %"struct.policy::PolicyDetails" { i8 0, i16 26, i32 0, [3 x i8] c"\08\08\08" }, %"struct.policy::PolicyDetails" { i8 0, i16 747, i32 0, [3 x i8] c"\08\08\08" }, %"struct.policy::PolicyDetails" { i8 1, i16 29, i32 0, [3 x i8] c"\08\08\08" }, %"struct.policy::PolicyDetails" { i8 1, i16 18, i32 0, [3 x i8] c"\08\08\08" }, %"struct.policy::PolicyDetails" { i8 0, i16 722, i32 0, [3 x i8] c"\08\08\08" }, %"struct.policy::PolicyDetails" { i8 0, i16 707, i32 0, [3 x i8] c"\08\08\08" }, %"struct.policy::PolicyDetails" { i8 0, i16 700, i32 0, [3 x i8] c"\08\08\08" }, %"struct.policy::PolicyDetails" { i8 0, i16 102, i32 0, [3 x i8] c"\02\08\08" }, %"struct.policy::PolicyDetails" { i8 0, i16 459, i32 0, [3 x i8] c"\08\08\08" }, %"struct.policy::PolicyDetails" { i8 0, i16 392, i32 0, [3 x i8] c"\08\08\08" }, %"struct.policy::PolicyDetails" { i8 0, i16 430, i32 0, [3 x i8] c"\08\08\08" }, %"struct.policy::PolicyDetails" { i8 0, i16 742, i32 0, [3 x i8] c"\08\08\08" }, %"struct.policy::PolicyDetails" { i8 1, i16 431, i32 0, [3 x i8] c"\08\08\08" }, %"struct.policy::PolicyDetails" { i8 0, i16 138, i32 0, [3 x i8] c"\01\08\08" }, %"struct.policy::PolicyDetails" { i8 0, i16 806, i32 0, [3 x i8] c"\08\08\08" }, %"struct.policy::PolicyDetails" { i8 0, i16 637, i32 0, [3 x i8] c"\08\08\08" }, %"struct.policy::PolicyDetails" { i8 0, i16 39, i32 0, [3 x i8] c"\08\08\08" }, %"struct.policy::PolicyDetails" { i8 0, i16 82, i32 0, [3 x i8] c"\08\08\08" }, %"struct.policy::PolicyDetails" { i8 0, i16 276, i32 0, [3 x i8] c"\08\08\08" }, %"struct.policy::PolicyDetails" { i8 0, i16 275, i32 0, [3 x i8] c"\08\08\08" }, %"struct.policy::PolicyDetails" { i8 0, i16 574, i32 0, [3 x i8] c"\08\08\08" }, %"struct.policy::PolicyDetails" { i8 0, i16 816, i32 0, [3 x i8] c"\06\08\08" }, %"struct.policy::PolicyDetails" { i8 0, i16 370, i32 0, [3 x i8] c"\08\08\08" }, %"struct.policy::PolicyDetails" { i8 0, i16 487, i32 0, [3 x i8] c"\08\08\08" }, %"struct.policy::PolicyDetails" { i8 0, i16 524, i32 0, [3 x i8] c"\08\08\08" }, %"struct.policy::PolicyDetails" { i8 0, i16 517, i32 0, [3 x i8] c"\08\08\08" }, %"struct.policy::PolicyDetails" { i8 0, i16 564, i32 0, [3 x i8] c"\08\08\08" }, %"struct.policy::PolicyDetails" { i8 0, i16 511, i32 0, [3 x i8] c"\08\08\08" }, %"struct.policy::PolicyDetails" { i8 0, i16 519, i32 0, [3 x i8] c"\08\08\08" }, %"struct.policy::PolicyDetails" { i8 0, i16 497, i32 0, [3 x i8] c"\08\08\08" }, %"struct.policy::PolicyDetails" { i8 0, i16 496, i32 0, [3 x i8] c"\08\08\08" }, %"struct.policy::PolicyDetails" { i8 0, i16 840, i32 0, [3 x i8] c"\08\08\08" }, %"struct.policy::PolicyDetails" { i8 0, i16 791, i32 0, [3 x i8] c"\08\08\08" }, %"struct.policy::PolicyDetails" { i8 0, i16 165, i32 0, [3 x i8] c"\08\08\08" }, %"struct.policy::PolicyDetails" { i8 0, i16 841, i32 0, [3 x i8] c"\01\08\08" }, %"struct.policy::PolicyDetails" { i8 0, i16 435, i32 0, [3 x i8] c"\01\08\08" }, %"struct.policy::PolicyDetails" { i8 0, i16 436, i32 0, [3 x i8] c"\01\08\08" }, %"struct.policy::PolicyDetails" { i8 0, i16 335, i32 0, [3 x i8] c"\01\08\08" }, %"struct.policy::PolicyDetails" { i8 0, i16 663, i32 0, [3 x i8] c"\08\08\08" }, %"struct.policy::PolicyDetails" { i8 0, i16 809, i32 0, [3 x i8] c"\08\08\08" }, %"struct.policy::PolicyDetails" { i8 0, i16 645, i32 0, [3 x i8] c"\08\08\08" }, %"struct.policy::PolicyDetails" { i8 0, i16 608, i32 0, [3 x i8] c"\03\06\08" }, %"struct.policy::PolicyDetails" { i8 0, i16 505, i32 0, [3 x i8] c"\08\08\08" }, %"struct.policy::PolicyDetails" { i8 0, i16 510, i32 0, [3 x i8] c"\08\08\08" }, %"struct.policy::PolicyDetails" { i8 0, i16 381, i32 0, [3 x i8] c"\08\08\08" }, %"struct.policy::PolicyDetails" { i8 0, i16 13, i32 0, [3 x i8] c"\08\08\08" }, %"struct.policy::PolicyDetails" { i8 0, i16 109, i32 0, [3 x i8] c"\08\08\08" }, %"struct.policy::PolicyDetails" { i8 0, i16 493, i32 0, [3 x i8] c"\03\06\08" }, %"struct.policy::PolicyDetails" { i8 0, i16 859, i32 0, [3 x i8] c"\08\08\08" }, %"struct.policy::PolicyDetails" { i8 0, i16 466, i32 0, [3 x i8] c"\08\08\08" }, %"struct.policy::PolicyDetails" { i8 0, i16 566, i32 0, [3 x i8] c"\01\08\08" }, %"struct.policy::PolicyDetails" { i8 0, i16 342, i32 0, [3 x i8] c"\08\08\08" }, %"struct.policy::PolicyDetails" { i8 2, i16 826, i32 0, [3 x i8] c"\08\08\08" }, %"struct.policy::PolicyDetails" { i8 0, i16 77, i32 0, [3 x i8] c"\08\08\08" }, %"struct.policy::PolicyDetails" { i8 0, i16 67, i32 0, [3 x i8] c"\08\08\08" }, %"struct.policy::PolicyDetails" { i8 0, i16 68, i32 0, [3 x i8] c"\08\08\08" }, %"struct.policy::PolicyDetails" { i8 0, i16 654, i32 0, [3 x i8] c"\08\08\08" }, %"struct.policy::PolicyDetails" { i8 0, i16 3, i32 0, [3 x i8] c"\08\08\08" }, %"struct.policy::PolicyDetails" { i8 0, i16 48, i32 0, [3 x i8] c"\08\08\08" }, %"struct.policy::PolicyDetails" { i8 0, i16 401, i32 0, [3 x i8] c"\05\08\08" }, %"struct.policy::PolicyDetails" { i8 0, i16 845, i32 0, [3 x i8] c"\02\08\08" }, %"struct.policy::PolicyDetails" { i8 0, i16 773, i32 0, [3 x i8] c"\02\08\08" }, %"struct.policy::PolicyDetails" { i8 0, i16 774, i32 0, [3 x i8] c"\02\08\08" }, %"struct.policy::PolicyDetails" { i8 0, i16 54, i32 0, [3 x i8] c"\02\08\08" }, %"struct.policy::PolicyDetails" { i8 0, i16 49, i32 0, [3 x i8] c"\08\08\08" }, %"struct.policy::PolicyDetails" { i8 0, i16 633, i32 0, [3 x i8] c"\08\08\08" }, %"struct.policy::PolicyDetails" { i8 0, i16 50, i32 0, [3 x i8] c"\08\08\08" }, %"struct.policy::PolicyDetails" { i8 1, i16 149, i32 0, [3 x i8] c"\02\08\08" }, %"struct.policy::PolicyDetails" { i8 0, i16 53, i32 0, [3 x i8] c"\08\08\08" }, %"struct.policy::PolicyDetails" { i8 0, i16 52, i32 0, [3 x i8] c"\08\08\08" }, %"struct.policy::PolicyDetails" { i8 0, i16 308, i32 0, [3 x i8] c"\08\08\08" }, %"struct.policy::PolicyDetails" { i8 0, i16 161, i32 0, [3 x i8] c"\08\08\08" }, %"struct.policy::PolicyDetails" { i8 0, i16 715, i32 0, [3 x i8] c"\08\08\08" }, %"struct.policy::PolicyDetails" { i8 0, i16 40, i32 0, [3 x i8] c"\08\08\08" }, %"struct.policy::PolicyDetails" { i8 0, i16 47, i32 0, [3 x i8] c"\08\08\08" }, %"struct.policy::PolicyDetails" { i8 0, i16 46, i32 0, [3 x i8] c"\08\08\08" }, %"struct.policy::PolicyDetails" { i8 0, i16 229, i32 0, [3 x i8] c"\08\08\08" }, %"struct.policy::PolicyDetails" { i8 0, i16 233, i32 0, [3 x i8] c"\08\08\08" }, %"struct.policy::PolicyDetails" { i8 0, i16 42, i32 0, [3 x i8] c"\08\08\08" }, %"struct.policy::PolicyDetails" { i8 0, i16 41, i32 0, [3 x i8] c"\02\08\08" }, %"struct.policy::PolicyDetails" { i8 0, i16 237, i32 0, [3 x i8] c"\08\08\08" }, %"struct.policy::PolicyDetails" { i8 0, i16 43, i32 0, [3 x i8] c"\02\08\08" }, %"struct.policy::PolicyDetails" { i8 0, i16 230, i32 0, [3 x i8] c"\08\08\08" }, %"struct.policy::PolicyDetails" { i8 0, i16 44, i32 0, [3 x i8] c"\08\08\08" }, %"struct.policy::PolicyDetails" { i8 0, i16 231, i32 0, [3 x i8] c"\08\08\08" }, %"struct.policy::PolicyDetails" { i8 0, i16 754, i32 0, [3 x i8] c"\08\08\08" }, %"struct.policy::PolicyDetails" { i8 0, i16 751, i32 0, [3 x i8] c"\02\08\08" }, %"struct.policy::PolicyDetails" { i8 0, i16 320, i32 0, [3 x i8] c"\02\08\08" }, %"struct.policy::PolicyDetails" { i8 0, i16 434, i32 0, [3 x i8] c"\02\08\08" }, %"struct.policy::PolicyDetails" { i8 0, i16 443, i32 0, [3 x i8] c"\08\08\08" }, %"struct.policy::PolicyDetails" { i8 1, i16 36, i32 0, [3 x i8] c"\08\08\08" }, %"struct.policy::PolicyDetails" { i8 0, i16 55, i32 0, [3 x i8] c"\08\08\08" }, %"struct.policy::PolicyDetails" { i8 0, i16 27, i32 0, [3 x i8] c"\08\08\08" }, %"struct.policy::PolicyDetails" { i8 0, i16 117, i32 0, [3 x i8] c"\08\08\08" }, %"struct.policy::PolicyDetails" { i8 0, i16 150, i32 0, [3 x i8] c"\08\08\08" }, %"struct.policy::PolicyDetails" { i8 0, i16 153, i32 0, [3 x i8] c"\08\08\08" }, %"struct.policy::PolicyDetails" { i8 1, i16 85, i32 0, [3 x i8] c"\08\08\08" }, %"struct.policy::PolicyDetails" { i8 0, i16 88, i32 0, [3 x i8] c"\08\08\08" }, %"struct.policy::PolicyDetails" { i8 0, i16 110, i32 0, [3 x i8] c"\08\08\08" }, %"struct.policy::PolicyDetails" { i8 0, i16 582, i32 0, [3 x i8] c"\08\08\08" }, %"struct.policy::PolicyDetails" { i8 0, i16 642, i32 0, [3 x i8] c"\08\08\08" }, %"struct.policy::PolicyDetails" { i8 0, i16 64, i32 0, [3 x i8] c"\05\08\08" }, %"struct.policy::PolicyDetails" { i8 0, i16 371, i32 0, [3 x i8] c"\05\08\08" }, %"struct.policy::PolicyDetails" { i8 0, i16 83, i32 0, [3 x i8] c"\08\08\08" }, %"struct.policy::PolicyDetails" { i8 0, i16 28, i32 0, [3 x i8] c"\08\08\08" }, %"struct.policy::PolicyDetails" { i8 0, i16 815, i32 0, [3 x i8] c"\08\08\08" }, %"struct.policy::PolicyDetails" { i8 0, i16 711, i32 0, [3 x i8] c"\08\08\08" }, %"struct.policy::PolicyDetails" { i8 0, i16 333, i32 0, [3 x i8] c"\08\08\08" }, %"struct.policy::PolicyDetails" { i8 0, i16 129, i32 0, [3 x i8] c"\02\08\08" }, %"struct.policy::PolicyDetails" { i8 0, i16 483, i32 0, [3 x i8] c"\08\08\08" }, %"struct.policy::PolicyDetails" { i8 0, i16 728, i32 0, [3 x i8] c"\08\08\08" }, %"struct.policy::PolicyDetails" { i8 0, i16 849, i32 0, [3 x i8] c"\01\02\05" }, %"struct.policy::PolicyDetails" { i8 0, i16 168, i32 0, [3 x i8] c"\08\08\08" }, %"struct.policy::PolicyDetails" { i8 0, i16 738, i32 0, [3 x i8] c"\08\08\08" }, %"struct.policy::PolicyDetails" { i8 1, i16 32, i32 0, [3 x i8] c"\08\08\08" }, %"struct.policy::PolicyDetails" { i8 0, i16 740, i32 0, [3 x i8] c"\08\08\08" }, %"struct.policy::PolicyDetails" { i8 0, i16 34, i32 0, [3 x i8] c"\00\08\08" }, %"struct.policy::PolicyDetails" { i8 0, i16 148, i32 0, [3 x i8] c"\00\01\08" }, %"struct.policy::PolicyDetails" { i8 1, i16 33, i32 0, [3 x i8] c"\08\08\08" }, %"struct.policy::PolicyDetails" { i8 0, i16 278, i32 0, [3 x i8] c"\08\08\08" }, %"struct.policy::PolicyDetails" { i8 0, i16 632, i32 0, [3 x i8] c"\08\08\08" }, %"struct.policy::PolicyDetails" { i8 0, i16 827, i32 0, [3 x i8] c"\08\08\08" }, %"struct.policy::PolicyDetails" { i8 0, i16 846, i32 0, [3 x i8] c"\02\08\08" }, %"struct.policy::PolicyDetails" { i8 0, i16 847, i32 0, [3 x i8] c"\08\08\08" }, %"struct.policy::PolicyDetails" { i8 0, i16 775, i32 0, [3 x i8] c"\02\08\08" }, %"struct.policy::PolicyDetails" { i8 0, i16 776, i32 0, [3 x i8] c"\08\08\08" }, %"struct.policy::PolicyDetails" { i8 0, i16 777, i32 0, [3 x i8] c"\02\08\08" }, %"struct.policy::PolicyDetails" { i8 0, i16 778, i32 0, [3 x i8] c"\08\08\08" }, %"struct.policy::PolicyDetails" { i8 0, i16 245, i32 0, [3 x i8] c"\08\08\08" }, %"struct.policy::PolicyDetails" { i8 0, i16 282, i32 0, [3 x i8] c"\04\08\08" }, %"struct.policy::PolicyDetails" { i8 1, i16 162, i32 0, [3 x i8] c"\04\08\08" }, %"struct.policy::PolicyDetails" { i8 0, i16 348, i32 0, [3 x i8] c"\04\08\08" }, %"struct.policy::PolicyDetails" { i8 1, i16 283, i32 0, [3 x i8] c"\04\08\08" }, %"struct.policy::PolicyDetails" { i8 0, i16 839, i32 0, [3 x i8] c"\08\08\08" }, %"struct.policy::PolicyDetails" { i8 0, i16 240, i32 0, [3 x i8] c"\08\08\08" }, %"struct.policy::PolicyDetails" { i8 0, i16 31, i32 0, [3 x i8] c"\08\08\08" }, %"struct.policy::PolicyDetails" { i8 0, i16 643, i32 0, [3 x i8] c"\08\08\08" }, %"struct.policy::PolicyDetails" { i8 0, i16 601, i32 0, [3 x i8] c"\01\08\08" }, %"struct.policy::PolicyDetails" { i8 0, i16 304, i32 0, [3 x i8] c"\08\08\08" }, %"struct.policy::PolicyDetails" { i8 0, i16 842, i32 0, [3 x i8] c"\08\08\08" }, %"struct.policy::PolicyDetails" { i8 0, i16 189, i32 0, [3 x i8] c"\08\08\08" }, %"struct.policy::PolicyDetails" { i8 0, i16 2, i32 0, [3 x i8] c"\08\08\08" }, %"struct.policy::PolicyDetails" { i8 0, i16 1, i32 0, [3 x i8] c"\08\08\08" }, %"struct.policy::PolicyDetails" { i8 0, i16 69, i32 0, [3 x i8] c"\08\08\08" }, %"struct.policy::PolicyDetails" { i8 0, i16 70, i32 0, [3 x i8] c"\08\08\08" }, %"struct.policy::PolicyDetails" { i8 0, i16 277, i32 0, [3 x i8] c"\05\08\08" }, %"struct.policy::PolicyDetails" { i8 0, i16 97, i32 0, [3 x i8] c"\05\08\08" }, %"struct.policy::PolicyDetails" { i8 0, i16 98, i32 0, [3 x i8] c"\05\08\08" }, %"struct.policy::PolicyDetails" { i8 0, i16 99, i32 0, [3 x i8] c"\05\08\08" }, %"struct.policy::PolicyDetails" { i8 0, i16 101, i32 0, [3 x i8] c"\05\08\08" }, %"struct.policy::PolicyDetails" { i8 0, i16 100, i32 0, [3 x i8] c"\05\08\08" }, %"struct.policy::PolicyDetails" { i8 1, i16 10, i32 0, [3 x i8] c"\08\08\08" }, %"struct.policy::PolicyDetails" { i8 0, i16 93, i32 0, [3 x i8] c"\04\08\08" }, %"struct.policy::PolicyDetails" { i8 0, i16 634, i32 0, [3 x i8] c"\08\08\08" }, %"struct.policy::PolicyDetails" { i8 0, i16 635, i32 0, [3 x i8] c"\08\08\08" }, %"struct.policy::PolicyDetails" { i8 0, i16 748, i32 0, [3 x i8] c"\08\08\08" }, %"struct.policy::PolicyDetails" { i8 2, i16 766, i32 0, [3 x i8] c"\01\08\08" }, %"struct.policy::PolicyDetails" { i8 2, i16 767, i32 0, [3 x i8] c"\01\08\08" }, %"struct.policy::PolicyDetails" { i8 0, i16 713, i32 0, [3 x i8] c"\08\08\08" }, %"struct.policy::PolicyDetails" { i8 0, i16 792, i32 0, [3 x i8] c"\08\08\08" }, %"struct.policy::PolicyDetails" { i8 0, i16 398, i32 0, [3 x i8] c"\01\08\08" }, %"struct.policy::PolicyDetails" { i8 0, i16 71, i32 0, [3 x i8] c"\08\08\08" }, %"struct.policy::PolicyDetails" { i8 0, i16 72, i32 0, [3 x i8] c"\08\08\08" }, %"struct.policy::PolicyDetails" { i8 1, i16 9, i32 0, [3 x i8] c"\08\08\08" }, %"struct.policy::PolicyDetails" { i8 0, i16 832, i32 0, [3 x i8] c"\08\08\08" }, %"struct.policy::PolicyDetails" { i8 0, i16 623, i32 0, [3 x i8] c"\08\08\08" }, %"struct.policy::PolicyDetails" { i8 0, i16 624, i32 0, [3 x i8] c"\08\08\08" }, %"struct.policy::PolicyDetails" { i8 2, i16 861, i32 0, [3 x i8] c"\08\08\08" }, %"struct.policy::PolicyDetails" { i8 0, i16 782, i32 0, [3 x i8] c"\01\02\08" }, %"struct.policy::PolicyDetails" { i8 2, i16 860, i32 0, [3 x i8] c"\08\08\08" }, %"struct.policy::PolicyDetails" { i8 0, i16 227, i32 0, [3 x i8] c"\08\08\08" }, %"struct.policy::PolicyDetails" { i8 0, i16 813, i32 0, [3 x i8] c"\08\08\08" }, %"struct.policy::PolicyDetails" { i8 0, i16 92, i32 0, [3 x i8] c"\08\08\08" }, %"struct.policy::PolicyDetails" { i8 0, i16 228, i32 0, [3 x i8] c"\08\08\08" }, %"struct.policy::PolicyDetails" { i8 0, i16 788, i32 0, [3 x i8] c"\08\08\08" }, %"struct.policy::PolicyDetails" { i8 0, i16 437, i32 0, [3 x i8] c"\08\08\08" }, %"struct.policy::PolicyDetails" { i8 0, i16 15, i32 0, [3 x i8] c"\06\08\08" }, %"struct.policy::PolicyDetails" { i8 0, i16 805, i32 0, [3 x i8] c"\08\08\08" }, %"struct.policy::PolicyDetails" { i8 0, i16 653, i32 0, [3 x i8] c"\08\08\08" }, %"struct.policy::PolicyDetails" { i8 0, i16 745, i32 0, [3 x i8] c"\08\08\08" }, %"struct.policy::PolicyDetails" { i8 1, i16 251, i32 0, [3 x i8] c"\08\08\08" }, %"struct.policy::PolicyDetails" { i8 0, i16 744, i32 0, [3 x i8] c"\08\08\08" }, %"struct.policy::PolicyDetails" { i8 0, i16 253, i32 0, [3 x i8] c"\08\08\08" }, %"struct.policy::PolicyDetails" { i8 1, i16 252, i32 0, [3 x i8] c"\08\08\08" }, %"struct.policy::PolicyDetails" { i8 0, i16 273, i32 0, [3 x i8] c"\08\08\08" }, %"struct.policy::PolicyDetails" { i8 0, i16 360, i32 0, [3 x i8] c"\08\08\08" }, %"struct.policy::PolicyDetails" { i8 0, i16 105, i32 0, [3 x i8] c"\08\08\08" }, %"struct.policy::PolicyDetails" { i8 0, i16 106, i32 0, [3 x i8] c"\08\08\08" }, %"struct.policy::PolicyDetails" { i8 0, i16 393, i32 0, [3 x i8] c"\02\08\08" }, %"struct.policy::PolicyDetails" { i8 0, i16 697, i32 0, [3 x i8] c"\08\08\08" }, %"struct.policy::PolicyDetails" { i8 0, i16 693, i32 0, [3 x i8] c"\08\08\08" }, %"struct.policy::PolicyDetails" { i8 0, i16 696, i32 0, [3 x i8] c"\08\08\08" }, %"struct.policy::PolicyDetails" { i8 0, i16 699, i32 0, [3 x i8] c"\08\08\08" }, %"struct.policy::PolicyDetails" { i8 0, i16 457, i32 0, [3 x i8] c"\01\08\08" }, %"struct.policy::PolicyDetails" { i8 0, i16 580, i32 0, [3 x i8] c"\06\08\08" }, %"struct.policy::PolicyDetails" { i8 0, i16 16, i32 0, [3 x i8] c"\08\08\08" }, %"struct.policy::PolicyDetails" { i8 0, i16 424, i32 0, [3 x i8] c"\08\08\08" }, %"struct.policy::PolicyDetails" { i8 0, i16 423, i32 0, [3 x i8] c"\08\08\08" }, %"struct.policy::PolicyDetails" { i8 0, i16 411, i32 0, [3 x i8] c"\08\08\08" }, %"struct.policy::PolicyDetails" { i8 0, i16 651, i32 0, [3 x i8] c"\08\08\08" }, %"struct.policy::PolicyDetails" { i8 0, i16 584, i32 0, [3 x i8] c"\08\08\08" }, %"struct.policy::PolicyDetails" { i8 0, i16 565, i32 0, [3 x i8] c"\08\08\08" }, %"struct.policy::PolicyDetails" { i8 0, i16 554, i32 0, [3 x i8] c"\08\08\08" }, %"struct.policy::PolicyDetails" { i8 0, i16 56, i32 0, [3 x i8] c"\08\08\08" }, %"struct.policy::PolicyDetails" { i8 0, i16 75, i32 0, [3 x i8] c"\08\08\08" }, %"struct.policy::PolicyDetails" { i8 0, i16 76, i32 0, [3 x i8] c"\08\08\08" }, %"struct.policy::PolicyDetails" { i8 0, i16 480, i32 0, [3 x i8] c"\08\08\08" }, %"struct.policy::PolicyDetails" { i8 0, i16 373, i32 0, [3 x i8] c"\08\08\08" }, %"struct.policy::PolicyDetails" { i8 0, i16 647, i32 0, [3 x i8] c"\08\08\08" }, %"struct.policy::PolicyDetails" { i8 0, i16 621, i32 0, [3 x i8] c"\08\08\08" }, %"struct.policy::PolicyDetails" { i8 0, i16 622, i32 0, [3 x i8] c"\08\08\08" }, %"struct.policy::PolicyDetails" { i8 0, i16 12, i32 0, [3 x i8] c"\08\08\08" }, %"struct.policy::PolicyDetails" { i8 0, i16 479, i32 0, [3 x i8] c"\08\08\08" }, %"struct.policy::PolicyDetails" { i8 0, i16 810, i32 0, [3 x i8] c"\08\08\08" }, %"struct.policy::PolicyDetails" { i8 0, i16 454, i32 0, [3 x i8] c"\08\08\08" }, %"struct.policy::PolicyDetails" { i8 0, i16 395, i32 0, [3 x i8] c"\08\08\08" }, %"struct.policy::PolicyDetails" { i8 1, i16 25, i32 0, [3 x i8] c"\08\08\08" }, %"struct.policy::PolicyDetails" { i8 1, i16 21, i32 0, [3 x i8] c"\08\08\08" }, %"struct.policy::PolicyDetails" { i8 1, i16 24, i32 0, [3 x i8] c"\08\08\08" }, %"struct.policy::PolicyDetails" { i8 1, i16 23, i32 0, [3 x i8] c"\08\08\08" }, %"struct.policy::PolicyDetails" { i8 1, i16 22, i32 0, [3 x i8] c"\08\08\08" }, %"struct.policy::PolicyDetails" { i8 0, i16 116, i32 0, [3 x i8] c"\01\08\08" }, %"struct.policy::PolicyDetails" { i8 0, i16 301, i32 0, [3 x i8] c"\08\08\08" }, %"struct.policy::PolicyDetails" { i8 0, i16 268, i32 0, [3 x i8] c"\08\08\08" }, %"struct.policy::PolicyDetails" { i8 0, i16 419, i32 0, [3 x i8] c"\08\08\08" }, %"struct.policy::PolicyDetails" { i8 0, i16 420, i32 0, [3 x i8] c"\08\08\08" }, %"struct.policy::PolicyDetails" { i8 2, i16 854, i32 0, [3 x i8] c"\08\08\08" }, %"struct.policy::PolicyDetails" { i8 0, i16 234, i32 0, [3 x i8] c"\08\08\08" }, %"struct.policy::PolicyDetails" { i8 0, i16 534, i32 0, [3 x i8] c"\08\08\08" }, %"struct.policy::PolicyDetails" { i8 0, i16 257, i32 0, [3 x i8] c"\08\08\08" }, %"struct.policy::PolicyDetails" { i8 0, i16 263, i32 0, [3 x i8] c"\08\08\08" }, %"struct.policy::PolicyDetails" { i8 0, i16 812, i32 0, [3 x i8] c"\08\08\08" }, %"struct.policy::PolicyDetails" { i8 1, i16 316, i32 0, [3 x i8] c"\08\08\08" }, %"struct.policy::PolicyDetails" { i8 0, i16 369, i32 0, [3 x i8] c"\08\08\08" }, %"struct.policy::PolicyDetails" { i8 1, i16 154, i32 0, [3 x i8] c"\08\08\08" }, %"struct.policy::PolicyDetails" { i8 0, i16 368, i32 0, [3 x i8] c"\08\08\08" }, %"struct.policy::PolicyDetails" { i8 0, i16 803, i32 0, [3 x i8] c"\08\08\08" }, %"struct.policy::PolicyDetails" { i8 0, i16 95, i32 0, [3 x i8] c"\08\08\08" }, %"struct.policy::PolicyDetails" { i8 0, i16 285, i32 0, [3 x i8] c"\08\08\08" }, %"struct.policy::PolicyDetails" { i8 0, i16 814, i32 0, [3 x i8] c"\08\08\08" }, %"struct.policy::PolicyDetails" { i8 0, i16 157, i32 0, [3 x i8] c"\01\08\08" }, %"struct.policy::PolicyDetails" { i8 0, i16 286, i32 0, [3 x i8] c"\02\08\08" }, %"struct.policy::PolicyDetails" { i8 0, i16 288, i32 0, [3 x i8] c"\08\08\08" }, %"struct.policy::PolicyDetails" { i8 0, i16 287, i32 0, [3 x i8] c"\02\08\08" }, %"struct.policy::PolicyDetails" { i8 0, i16 264, i32 0, [3 x i8] c"\08\08\08" }, %"struct.policy::PolicyDetails" { i8 2, i16 499, i32 0, [3 x i8] c"\03\08\08" }, %"struct.policy::PolicyDetails" { i8 2, i16 472, i32 0, [3 x i8] c"\03\08\08" }, %"struct.policy::PolicyDetails" { i8 2, i16 471, i32 0, [3 x i8] c"\03\08\08" }, %"struct.policy::PolicyDetails" { i8 2, i16 473, i32 0, [3 x i8] c"\03\08\08" }, %"struct.policy::PolicyDetails" { i8 2, i16 470, i32 0, [3 x i8] c"\03\08\08" }, %"struct.policy::PolicyDetails" { i8 0, i16 235, i32 0, [3 x i8] c"\08\08\08" }, %"struct.policy::PolicyDetails" { i8 0, i16 37, i32 0, [3 x i8] c"\08\08\08" }, %"struct.policy::PolicyDetails" { i8 0, i16 38, i32 0, [3 x i8] c"\08\08\08" }, %"struct.policy::PolicyDetails" { i8 0, i16 147, i32 0, [3 x i8] c"\08\08\08" }, %"struct.policy::PolicyDetails" { i8 0, i16 359, i32 0, [3 x i8] c"\05\08\08" }, %"struct.policy::PolicyDetails" { i8 0, i16 358, i32 0, [3 x i8] c"\05\08\08" }, %"struct.policy::PolicyDetails" { i8 0, i16 300, i32 0, [3 x i8] c"\08\08\08" }, %"struct.policy::PolicyDetails" { i8 0, i16 819, i32 0, [3 x i8] c"\08\08\08" }, %"struct.policy::PolicyDetails" { i8 0, i16 279, i32 0, [3 x i8] c"\08\08\08" }, %"struct.policy::PolicyDetails" { i8 0, i16 732, i32 0, [3 x i8] c"\08\08\08" }, %"struct.policy::PolicyDetails" { i8 1, i16 14, i32 0, [3 x i8] c"\01\08\08" }, %"struct.policy::PolicyDetails" { i8 0, i16 429, i32 0, [3 x i8] c"\06\08\08" }, %"struct.policy::PolicyDetails" { i8 0, i16 684, i32 0, [3 x i8] c"\01\08\08" }, %"struct.policy::PolicyDetails" { i8 1, i16 422, i32 0, [3 x i8] c"\08\08\08" }, %"struct.policy::PolicyDetails" { i8 0, i16 455, i32 0, [3 x i8] c"\04\06\08" }, %"struct.policy::PolicyDetails" { i8 0, i16 11, i32 0, [3 x i8] c"\08\08\08" }, %"struct.policy::PolicyDetails" { i8 0, i16 666, i32 0, [3 x i8] c"\08\08\08" }, %"struct.policy::PolicyDetails" { i8 0, i16 687, i32 0, [3 x i8] c"\08\08\08" }, %"struct.policy::PolicyDetails" { i8 0, i16 6, i32 0, [3 x i8] c"\08\08\08" }, %"struct.policy::PolicyDetails" { i8 0, i16 402, i32 0, [3 x i8] c"\02\08\08" }, %"struct.policy::PolicyDetails" { i8 2, i16 822, i32 0, [3 x i8] c"\08\08\08" }, %"struct.policy::PolicyDetails" { i8 0, i16 755, i32 0, [3 x i8] c"\08\08\08" }, %"struct.policy::PolicyDetails" { i8 0, i16 756, i32 0, [3 x i8] c"\08\08\08" }, %"struct.policy::PolicyDetails" { i8 2, i16 837, i32 0, [3 x i8] c"\08\08\08" }, %"struct.policy::PolicyDetails" { i8 2, i16 838, i32 0, [3 x i8] c"\02\08\08" }, %"struct.policy::PolicyDetails" { i8 0, i16 752, i32 0, [3 x i8] c"\02\08\08" }, %"struct.policy::PolicyDetails" { i8 0, i16 753, i32 0, [3 x i8] c"\08\08\08" }, %"struct.policy::PolicyDetails" { i8 0, i16 852, i32 0, [3 x i8] c"\01\08\08" }, %"struct.policy::PolicyDetails" { i8 0, i16 610, i32 0, [3 x i8] c"\08\08\08" }, %"struct.policy::PolicyDetails" { i8 0, i16 267, i32 0, [3 x i8] c"\08\08\08" }, %"struct.policy::PolicyDetails" { i8 0, i16 362, i32 0, [3 x i8] c"\08\08\08" }, %"struct.policy::PolicyDetails" { i8 0, i16 739, i32 0, [3 x i8] c"\08\08\08" }, %"struct.policy::PolicyDetails" { i8 0, i16 35, i32 0, [3 x i8] c"\08\08\08" }, %"struct.policy::PolicyDetails" { i8 0, i16 542, i32 0, [3 x i8] c"\04\08\08" }, %"struct.policy::PolicyDetails" { i8 1, i16 190, i32 0, [3 x i8] c"\08\08\08" }, %"struct.policy::PolicyDetails" { i8 0, i16 811, i32 0, [3 x i8] c"\08\08\08" }, %"struct.policy::PolicyDetails" { i8 0, i16 399, i32 0, [3 x i8] c"\01\08\08" }, %"struct.policy::PolicyDetails" { i8 0, i16 151, i32 0, [3 x i8] c"\08\08\08" }, %"struct.policy::PolicyDetails" { i8 0, i16 408, i32 0, [3 x i8] c"\08\08\08" }, %"struct.policy::PolicyDetails" { i8 0, i16 405, i32 0, [3 x i8] c"\08\08\08" }, %"struct.policy::PolicyDetails" { i8 1, i16 536, i32 0, [3 x i8] c"\08\08\08" }, %"struct.policy::PolicyDetails" { i8 0, i16 749, i32 0, [3 x i8] c"\08\08\08" }, %"struct.policy::PolicyDetails" { i8 1, i16 652, i32 0, [3 x i8] c"\08\08\08" }, %"struct.policy::PolicyDetails" { i8 0, i16 829, i32 0, [3 x i8] c"\08\08\08" }, %"struct.policy::PolicyDetails" { i8 0, i16 324, i32 0, [3 x i8] c"\01\08\08" }, %"struct.policy::PolicyDetails" { i8 0, i16 20, i32 0, [3 x i8] c"\04\06\08" }, %"struct.policy::PolicyDetails" { i8 0, i16 649, i32 0, [3 x i8] c"\01\08\08" }, %"struct.policy::PolicyDetails" { i8 0, i16 802, i32 0, [3 x i8] c"\08\08\08" }, %"struct.policy::PolicyDetails" { i8 0, i16 327, i32 0, [3 x i8] c"\08\08\08" }, %"struct.policy::PolicyDetails" { i8 0, i16 80, i32 0, [3 x i8] c"\08\08\08" }, %"struct.policy::PolicyDetails" { i8 0, i16 858, i32 0, [3 x i8] c"\01\08\08" }, %"struct.policy::PolicyDetails" { i8 0, i16 737, i32 0, [3 x i8] c"\08\08\08" }, %"struct.policy::PolicyDetails" { i8 1, i16 103, i32 0, [3 x i8] c"\04\08\08" }, %"struct.policy::PolicyDetails" { i8 0, i16 736, i32 0, [3 x i8] c"\04\08\08" }, %"struct.policy::PolicyDetails" { i8 1, i16 104, i32 0, [3 x i8] c"\08\08\08" }, %"struct.policy::PolicyDetails" { i8 1, i16 400, i32 0, [3 x i8] c"\01\08\08" }, %"struct.policy::PolicyDetails" { i8 0, i16 461, i32 0, [3 x i8] c"\06\08\08" }, %"struct.policy::PolicyDetails" { i8 0, i16 725, i32 0, [3 x i8] c"\08\08\08" }, %"struct.policy::PolicyDetails" { i8 0, i16 673, i32 0, [3 x i8] c"\08\08\08" }, %"struct.policy::PolicyDetails" { i8 0, i16 570, i32 0, [3 x i8] c"\08\08\08" }, %"struct.policy::PolicyDetails" { i8 0, i16 196, i32 0, [3 x i8] c"\08\08\08" }, %"struct.policy::PolicyDetails" { i8 0, i16 167, i32 0, [3 x i8] c"\08\08\08" }, %"struct.policy::PolicyDetails" { i8 0, i16 209, i32 0, [3 x i8] c"\02\08\08" }, %"struct.policy::PolicyDetails" { i8 0, i16 261, i32 0, [3 x i8] c"\01\08\08" }, %"struct.policy::PolicyDetails" { i8 0, i16 468, i32 0, [3 x i8] c"\08\08\08" }, %"struct.policy::PolicyDetails" { i8 0, i16 824, i32 0, [3 x i8] c"\08\08\08" }, %"struct.policy::PolicyDetails" { i8 0, i16 787, i32 0, [3 x i8] c"\08\08\08" }, %"struct.policy::PolicyDetails" { i8 0, i16 464, i32 0, [3 x i8] c"\06\08\08" }, %"struct.policy::PolicyDetails" { i8 0, i16 843, i32 0, [3 x i8] c"\08\08\08" }, %"struct.policy::PolicyDetails" { i8 0, i16 640, i32 0, [3 x i8] c"\08\08\08" }, %"struct.policy::PolicyDetails" { i8 0, i16 339, i32 0, [3 x i8] c"\08\08\08" }, %"struct.policy::PolicyDetails" { i8 0, i16 486, i32 0, [3 x i8] c"\02\08\08" }, %"struct.policy::PolicyDetails" { i8 0, i16 439, i32 0, [3 x i8] c"\02\08\08" }, %"struct.policy::PolicyDetails" { i8 0, i16 440, i32 0, [3 x i8] c"\08\08\08" }], align 16
@.str = private unnamed_addr constant [41 x i8] c"index < base::size(kChromePolicyDetails)\00", align 1
@.str.1 = private unnamed_addr constant [42 x i8] c"gen/components/policy/policy_constants.cc\00", align 1
@_ZN6policy3key37kAbusiveExperienceInterventionEnforceE = hidden constant [37 x i8] c"AbusiveExperienceInterventionEnforce\00", align 16
@_ZN6policy3key32kAccessibilityImageLabelsEnabledE = hidden constant [32 x i8] c"AccessibilityImageLabelsEnabled\00", align 16
@_ZN6policy3key30kAccessibilityShortcutsEnabledE = hidden local_unnamed_addr constant [30 x i8] c"AccessibilityShortcutsEnabled\00", align 16
@_ZN6policy3key31kAdditionalDnsQueryTypesEnabledE = hidden constant [31 x i8] c"AdditionalDnsQueryTypesEnabled\00", align 16
@_ZN6policy3key27kAdditionalLaunchParametersE = hidden local_unnamed_addr constant [27 x i8] c"AdditionalLaunchParameters\00", align 16
@_ZN6policy3key31kAdsSettingForIntrusiveAdsSitesE = hidden constant [31 x i8] c"AdsSettingForIntrusiveAdsSites\00", align 16
@_ZN6policy3key26kAdvancedProtectionAllowedE = hidden constant [26 x i8] c"AdvancedProtectionAllowed\00", align 16
@_ZN6policy3key38kAdvancedProtectionDeepScanningEnabledE = hidden local_unnamed_addr constant [38 x i8] c"AdvancedProtectionDeepScanningEnabled\00", align 16
@_ZN6policy3key27kAllowCrossOriginAuthPromptE = hidden constant [27 x i8] c"AllowCrossOriginAuthPrompt\00", align 16
@_ZN6policy3key28kAllowDeletingBrowserHistoryE = hidden constant [28 x i8] c"AllowDeletingBrowserHistory\00", align 16
@_ZN6policy3key23kAllowDinosaurEasterEggE = hidden constant [23 x i8] c"AllowDinosaurEasterEgg\00", align 16
@_ZN6policy3key26kAllowFileSelectionDialogsE = hidden constant [26 x i8] c"AllowFileSelectionDialogs\00", align 16
@_ZN6policy3key34kAllowKioskAppControlChromeVersionE = hidden local_unnamed_addr constant [34 x i8] c"AllowKioskAppControlChromeVersion\00", align 16
@_ZN6policy3key25kAllowNativeNotificationsE = hidden constant [25 x i8] c"AllowNativeNotifications\00", align 16
@_ZN6policy3key21kAllowOutdatedPluginsE = hidden local_unnamed_addr constant [21 x i8] c"AllowOutdatedPlugins\00", align 16
@_ZN6policy3key28kAllowPopupsDuringPageUnloadE = hidden local_unnamed_addr constant [28 x i8] c"AllowPopupsDuringPageUnload\00", align 16
@_ZN6policy3key16kAllowScreenLockE = hidden local_unnamed_addr constant [16 x i8] c"AllowScreenLock\00", align 16
@_ZN6policy3key21kAllowScreenWakeLocksE = hidden local_unnamed_addr constant [21 x i8] c"AllowScreenWakeLocks\00", align 16
@_ZN6policy3key28kAllowSyncXHRInPageDismissalE = hidden constant [28 x i8] c"AllowSyncXHRInPageDismissal\00", align 16
@_ZN6policy3key25kAllowSystemNotificationsE = hidden constant [25 x i8] c"AllowSystemNotifications\00", align 16
@_ZN6policy3key15kAllowWakeLocksE = hidden local_unnamed_addr constant [15 x i8] c"AllowWakeLocks\00", align 1
@_ZN6policy3key22kAllowedDomainsForAppsE = hidden constant [22 x i8] c"AllowedDomainsForApps\00", align 16
@_ZN6policy3key20kAllowedInputMethodsE = hidden local_unnamed_addr constant [20 x i8] c"AllowedInputMethods\00", align 16
@_ZN6policy3key17kAllowedLanguagesE = hidden local_unnamed_addr constant [17 x i8] c"AllowedLanguages\00", align 16
@_ZN6policy3key27kAlternateErrorPagesEnabledE = hidden constant [27 x i8] c"AlternateErrorPagesEnabled\00", align 16
@_ZN6policy3key29kAlternativeBrowserParametersE = hidden constant [29 x i8] c"AlternativeBrowserParameters\00", align 16
@_ZN6policy3key23kAlternativeBrowserPathE = hidden constant [23 x i8] c"AlternativeBrowserPath\00", align 16
@_ZN6policy3key23kAlwaysAuthorizePluginsE = hidden local_unnamed_addr constant [23 x i8] c"AlwaysAuthorizePlugins\00", align 16
@_ZN6policy3key24kAlwaysOpenPdfExternallyE = hidden constant [24 x i8] c"AlwaysOpenPdfExternally\00", align 16
@_ZN6policy3key43kAmbientAuthenticationInPrivateModesEnabledE = hidden constant [43 x i8] c"AmbientAuthenticationInPrivateModesEnabled\00", align 16
@_ZN6policy3key21kAppCacheForceEnabledE = hidden constant [21 x i8] c"AppCacheForceEnabled\00", align 16
@_ZN6policy3key34kAppRecommendationZeroStateEnabledE = hidden local_unnamed_addr constant [34 x i8] c"AppRecommendationZeroStateEnabled\00", align 16
@_ZN6policy3key23kApplicationLocaleValueE = hidden local_unnamed_addr constant [23 x i8] c"ApplicationLocaleValue\00", align 16
@_ZN6policy3key33kArcAppInstallEventLoggingEnabledE = hidden local_unnamed_addr constant [33 x i8] c"ArcAppInstallEventLoggingEnabled\00", align 16
@_ZN6policy3key24kArcBackupRestoreEnabledE = hidden local_unnamed_addr constant [24 x i8] c"ArcBackupRestoreEnabled\00", align 16
@_ZN6policy3key31kArcBackupRestoreServiceEnabledE = hidden local_unnamed_addr constant [31 x i8] c"ArcBackupRestoreServiceEnabled\00", align 16
@_ZN6policy3key24kArcCertificatesSyncModeE = hidden local_unnamed_addr constant [24 x i8] c"ArcCertificatesSyncMode\00", align 16
@_ZN6policy3key11kArcEnabledE = hidden local_unnamed_addr constant [11 x i8] c"ArcEnabled\00", align 1
@_ZN6policy3key33kArcGoogleLocationServicesEnabledE = hidden local_unnamed_addr constant [33 x i8] c"ArcGoogleLocationServicesEnabled\00", align 16
@_ZN6policy3key26kArcLocationServiceEnabledE = hidden local_unnamed_addr constant [26 x i8] c"ArcLocationServiceEnabled\00", align 16
@_ZN6policy3key10kArcPolicyE = hidden local_unnamed_addr constant [10 x i8] c"ArcPolicy\00", align 1
@_ZN6policy3key24kAssistantOnboardingModeE = hidden local_unnamed_addr constant [24 x i8] c"AssistantOnboardingMode\00", align 16
@_ZN6policy3key28kAttestationEnabledForDeviceE = hidden constant [28 x i8] c"AttestationEnabledForDevice\00", align 16
@_ZN6policy3key26kAttestationEnabledForUserE = hidden constant [26 x i8] c"AttestationEnabledForUser\00", align 16
@_ZN6policy3key30kAttestationExtensionAllowlistE = hidden constant [30 x i8] c"AttestationExtensionAllowlist\00", align 16
@_ZN6policy3key30kAttestationExtensionWhitelistE = hidden constant [30 x i8] c"AttestationExtensionWhitelist\00", align 16
@_ZN6policy3key39kAttestationForContentProtectionEnabledE = hidden constant [39 x i8] c"AttestationForContentProtectionEnabled\00", align 16
@_ZN6policy3key20kAudioCaptureAllowedE = hidden constant [20 x i8] c"AudioCaptureAllowed\00", align 16
@_ZN6policy3key24kAudioCaptureAllowedUrlsE = hidden constant [24 x i8] c"AudioCaptureAllowedUrls\00", align 16
@_ZN6policy3key19kAudioOutputAllowedE = hidden local_unnamed_addr constant [19 x i8] c"AudioOutputAllowed\00", align 16
@_ZN6policy3key32kAudioProcessHighPriorityEnabledE = hidden local_unnamed_addr constant [32 x i8] c"AudioProcessHighPriorityEnabled\00", align 16
@_ZN6policy3key20kAudioSandboxEnabledE = hidden constant [20 x i8] c"AudioSandboxEnabled\00", align 16
@_ZN6policy3key32kAuthAndroidNegotiateAccountTypeE = hidden local_unnamed_addr constant [32 x i8] c"AuthAndroidNegotiateAccountType\00", align 16
@_ZN6policy3key31kAuthNegotiateDelegateAllowlistE = hidden constant [31 x i8] c"AuthNegotiateDelegateAllowlist\00", align 16
@_ZN6policy3key33kAuthNegotiateDelegateByKdcPolicyE = hidden constant [33 x i8] c"AuthNegotiateDelegateByKdcPolicy\00", align 16
@_ZN6policy3key31kAuthNegotiateDelegateWhitelistE = hidden constant [31 x i8] c"AuthNegotiateDelegateWhitelist\00", align 16
@_ZN6policy3key12kAuthSchemesE = hidden constant [12 x i8] c"AuthSchemes\00", align 1
@_ZN6policy3key20kAuthServerAllowlistE = hidden constant [20 x i8] c"AuthServerAllowlist\00", align 16
@_ZN6policy3key20kAuthServerWhitelistE = hidden constant [20 x i8] c"AuthServerWhitelist\00", align 16
@_ZN6policy3key20kAutoCleanUpStrategyE = hidden local_unnamed_addr constant [20 x i8] c"AutoCleanUpStrategy\00", align 16
@_ZN6policy3key16kAutoFillEnabledE = hidden constant [16 x i8] c"AutoFillEnabled\00", align 16
@_ZN6policy3key31kAutoLaunchProtocolsFromOriginsE = hidden constant [31 x i8] c"AutoLaunchProtocolsFromOrigins\00", align 16
@_ZN6policy3key23kAutoOpenAllowedForURLsE = hidden constant [23 x i8] c"AutoOpenAllowedForURLs\00", align 16
@_ZN6policy3key18kAutoOpenFileTypesE = hidden constant [18 x i8] c"AutoOpenFileTypes\00", align 16
@_ZN6policy3key29kAutoSelectCertificateForUrlsE = hidden constant [29 x i8] c"AutoSelectCertificateForUrls\00", align 16
@_ZN6policy3key17kAutoclickEnabledE = hidden local_unnamed_addr constant [17 x i8] c"AutoclickEnabled\00", align 16
@_ZN6policy3key23kAutofillAddressEnabledE = hidden constant [23 x i8] c"AutofillAddressEnabled\00", align 16
@_ZN6policy3key26kAutofillCreditCardEnabledE = hidden constant [26 x i8] c"AutofillCreditCardEnabled\00", align 16
@_ZN6policy3key16kAutoplayAllowedE = hidden constant [16 x i8] c"AutoplayAllowed\00", align 16
@_ZN6policy3key18kAutoplayAllowlistE = hidden constant [18 x i8] c"AutoplayAllowlist\00", align 16
@_ZN6policy3key18kAutoplayWhitelistE = hidden constant [18 x i8] c"AutoplayWhitelist\00", align 16
@_ZN6policy3key24kBackForwardCacheEnabledE = hidden local_unnamed_addr constant [24 x i8] c"BackForwardCacheEnabled\00", align 16
@_ZN6policy3key22kBackgroundModeEnabledE = hidden constant [22 x i8] c"BackgroundModeEnabled\00", align 16
@_ZN6policy3key25kBasicAuthOverHttpEnabledE = hidden constant [25 x i8] c"BasicAuthOverHttpEnabled\00", align 16
@_ZN6policy3key24kBlockExternalExtensionsE = hidden constant [24 x i8] c"BlockExternalExtensions\00", align 16
@_ZN6policy3key23kBlockThirdPartyCookiesE = hidden constant [23 x i8] c"BlockThirdPartyCookies\00", align 16
@_ZN6policy3key19kBookmarkBarEnabledE = hidden constant [19 x i8] c"BookmarkBarEnabled\00", align 16
@_ZN6policy3key24kBrowserAddPersonEnabledE = hidden constant [24 x i8] c"BrowserAddPersonEnabled\00", align 16
@_ZN6policy3key24kBrowserGuestModeEnabledE = hidden constant [24 x i8] c"BrowserGuestModeEnabled\00", align 16
@_ZN6policy3key25kBrowserGuestModeEnforcedE = hidden constant [25 x i8] c"BrowserGuestModeEnforced\00", align 16
@_ZN6policy3key19kBrowserLabsEnabledE = hidden constant [19 x i8] c"BrowserLabsEnabled\00", align 16
@_ZN6policy3key33kBrowserNetworkTimeQueriesEnabledE = hidden constant [33 x i8] c"BrowserNetworkTimeQueriesEnabled\00", align 16
@_ZN6policy3key14kBrowserSigninE = hidden constant [14 x i8] c"BrowserSignin\00", align 1
@_ZN6policy3key32kBrowserSwitcherChromeParametersE = hidden constant [32 x i8] c"BrowserSwitcherChromeParameters\00", align 16
@_ZN6policy3key26kBrowserSwitcherChromePathE = hidden constant [26 x i8] c"BrowserSwitcherChromePath\00", align 16
@_ZN6policy3key21kBrowserSwitcherDelayE = hidden constant [21 x i8] c"BrowserSwitcherDelay\00", align 16
@_ZN6policy3key23kBrowserSwitcherEnabledE = hidden constant [23 x i8] c"BrowserSwitcherEnabled\00", align 16
@_ZN6policy3key35kBrowserSwitcherExternalGreylistUrlE = hidden constant [35 x i8] c"BrowserSwitcherExternalGreylistUrl\00", align 16
@_ZN6policy3key35kBrowserSwitcherExternalSitelistUrlE = hidden constant [35 x i8] c"BrowserSwitcherExternalSitelistUrl\00", align 16
@_ZN6policy3key33kBrowserSwitcherKeepLastChromeTabE = hidden constant [33 x i8] c"BrowserSwitcherKeepLastChromeTab\00", align 16
@_ZN6policy3key27kBrowserSwitcherUrlGreylistE = hidden constant [27 x i8] c"BrowserSwitcherUrlGreylist\00", align 16
@_ZN6policy3key23kBrowserSwitcherUrlListE = hidden constant [23 x i8] c"BrowserSwitcherUrlList\00", align 16
@_ZN6policy3key29kBrowserSwitcherUseIeSitelistE = hidden constant [29 x i8] c"BrowserSwitcherUseIeSitelist\00", align 16
@_ZN6policy3key18kBrowserThemeColorE = hidden constant [18 x i8] c"BrowserThemeColor\00", align 16
@_ZN6policy3key21kBrowsingDataLifetimeE = hidden constant [21 x i8] c"BrowsingDataLifetime\00", align 16
@_ZN6policy3key24kBuiltInDnsClientEnabledE = hidden constant [24 x i8] c"BuiltInDnsClientEnabled\00", align 16
@_ZN6policy3key34kBuiltinCertificateVerifierEnabledE = hidden local_unnamed_addr constant [34 x i8] c"BuiltinCertificateVerifierEnabled\00", align 16
@_ZN6policy3key31kCACertificateManagementAllowedE = hidden local_unnamed_addr constant [31 x i8] c"CACertificateManagementAllowed\00", align 16
@_ZN6policy3key20kCCTToSDialogEnabledE = hidden local_unnamed_addr constant [20 x i8] c"CCTToSDialogEnabled\00", align 16
@_ZN6policy3key14kCECPQ2EnabledE = hidden constant [14 x i8] c"CECPQ2Enabled\00", align 1
@_ZN6policy3key40kCaptivePortalAuthenticationIgnoresProxyE = hidden local_unnamed_addr constant [40 x i8] c"CaptivePortalAuthenticationIgnoresProxy\00", align 16
@_ZN6policy3key22kCaretHighlightEnabledE = hidden local_unnamed_addr constant [22 x i8] c"CaretHighlightEnabled\00", align 16
@_ZN6policy3key20kCastReceiverEnabledE = hidden constant [20 x i8] c"CastReceiverEnabled\00", align 16
@_ZN6policy3key17kCastReceiverNameE = hidden constant [17 x i8] c"CastReceiverName\00", align 16
@_ZN6policy3key49kCertificateTransparencyEnforcementDisabledForCasE = hidden constant [49 x i8] c"CertificateTransparencyEnforcementDisabledForCas\00", align 16
@_ZN6policy3key55kCertificateTransparencyEnforcementDisabledForLegacyCasE = hidden constant [55 x i8] c"CertificateTransparencyEnforcementDisabledForLegacyCas\00", align 16
@_ZN6policy3key50kCertificateTransparencyEnforcementDisabledForUrlsE = hidden constant [50 x i8] c"CertificateTransparencyEnforcementDisabledForUrls\00", align 16
@_ZN6policy3key21kChromeCleanupEnabledE = hidden local_unnamed_addr constant [21 x i8] c"ChromeCleanupEnabled\00", align 16
@_ZN6policy3key30kChromeCleanupReportingEnabledE = hidden local_unnamed_addr constant [30 x i8] c"ChromeCleanupReportingEnabled\00", align 16
@_ZN6policy3key24kChromeFrameContentTypesE = hidden local_unnamed_addr constant [24 x i8] c"ChromeFrameContentTypes\00", align 16
@_ZN6policy3key28kChromeFrameRendererSettingsE = hidden local_unnamed_addr constant [28 x i8] c"ChromeFrameRendererSettings\00", align 16
@_ZN6policy3key26kChromeOsLockOnIdleSuspendE = hidden local_unnamed_addr constant [26 x i8] c"ChromeOsLockOnIdleSuspend\00", align 16
@_ZN6policy3key33kChromeOsMultiProfileUserBehaviorE = hidden local_unnamed_addr constant [33 x i8] c"ChromeOsMultiProfileUserBehavior\00", align 16
@_ZN6policy3key23kChromeOsReleaseChannelE = hidden local_unnamed_addr constant [23 x i8] c"ChromeOsReleaseChannel\00", align 16
@_ZN6policy3key32kChromeOsReleaseChannelDelegatedE = hidden local_unnamed_addr constant [32 x i8] c"ChromeOsReleaseChannelDelegated\00", align 16
@_ZN6policy3key17kChromeVariationsE = hidden constant [17 x i8] c"ChromeVariations\00", align 16
@_ZN6policy3key28kClearBrowsingDataOnExitListE = hidden constant [28 x i8] c"ClearBrowsingDataOnExitList\00", align 16
@_ZN6policy3key20kClearSiteDataOnExitE = hidden local_unnamed_addr constant [20 x i8] c"ClearSiteDataOnExit\00", align 16
@_ZN6policy3key19kClickToCallEnabledE = hidden constant [19 x i8] c"ClickToCallEnabled\00", align 16
@_ZN6policy3key35kClientCertificateManagementAllowedE = hidden local_unnamed_addr constant [35 x i8] c"ClientCertificateManagementAllowed\00", align 16
@_ZN6policy3key29kCloudExtensionRequestEnabledE = hidden constant [29 x i8] c"CloudExtensionRequestEnabled\00", align 16
@_ZN6policy3key35kCloudManagementEnrollmentMandatoryE = hidden constant [35 x i8] c"CloudManagementEnrollmentMandatory\00", align 16
@_ZN6policy3key31kCloudManagementEnrollmentTokenE = hidden constant [31 x i8] c"CloudManagementEnrollmentToken\00", align 16
@_ZN6policy3key35kCloudPolicyOverridesPlatformPolicyE = hidden constant [35 x i8] c"CloudPolicyOverridesPlatformPolicy\00", align 16
@_ZN6policy3key23kCloudPrintProxyEnabledE = hidden constant [23 x i8] c"CloudPrintProxyEnabled\00", align 16
@_ZN6policy3key24kCloudPrintSubmitEnabledE = hidden constant [24 x i8] c"CloudPrintSubmitEnabled\00", align 16
@_ZN6policy3key29kCloudPrintWarningsSuppressedE = hidden local_unnamed_addr constant [29 x i8] c"CloudPrintWarningsSuppressed\00", align 16
@_ZN6policy3key22kCloudReportingEnabledE = hidden constant [22 x i8] c"CloudReportingEnabled\00", align 16
@_ZN6policy3key21kCloudUserPolicyMergeE = hidden constant [21 x i8] c"CloudUserPolicyMerge\00", align 16
@_ZN6policy3key52kCoalesceH2ConnectionsWithClientCertificatesForHostsE = hidden constant [52 x i8] c"CoalesceH2ConnectionsWithClientCertificatesForHosts\00", align 16
@_ZN6policy3key39kCommandLineFlagSecurityWarningsEnabledE = hidden constant [39 x i8] c"CommandLineFlagSecurityWarningsEnabled\00", align 16
@_ZN6policy3key24kComponentUpdatesEnabledE = hidden constant [24 x i8] c"ComponentUpdatesEnabled\00", align 16
@_ZN6policy3key35kContextAwareAccessSignalsAllowlistE = hidden constant [35 x i8] c"ContextAwareAccessSignalsAllowlist\00", align 16
@_ZN6policy3key24kContextualSearchEnabledE = hidden local_unnamed_addr constant [24 x i8] c"ContextualSearchEnabled\00", align 16
@_ZN6policy3key29kContextualSuggestionsEnabledE = hidden local_unnamed_addr constant [29 x i8] c"ContextualSuggestionsEnabled\00", align 16
@_ZN6policy3key22kCookiesAllowedForUrlsE = hidden constant [22 x i8] c"CookiesAllowedForUrls\00", align 16
@_ZN6policy3key22kCookiesBlockedForUrlsE = hidden constant [22 x i8] c"CookiesBlockedForUrls\00", align 16
@_ZN6policy3key26kCookiesSessionOnlyForUrlsE = hidden constant [26 x i8] c"CookiesSessionOnlyForUrls\00", align 16
@_ZN6policy3key22kCorsLegacyModeEnabledE = hidden local_unnamed_addr constant [22 x i8] c"CorsLegacyModeEnabled\00", align 16
@_ZN6policy3key19kCorsMitigationListE = hidden local_unnamed_addr constant [19 x i8] c"CorsMitigationList\00", align 16
@_ZN6policy3key16kCrostiniAllowedE = hidden local_unnamed_addr constant [16 x i8] c"CrostiniAllowed\00", align 16
@_ZN6policy3key24kCrostiniAnsiblePlaybookE = hidden local_unnamed_addr constant [24 x i8] c"CrostiniAnsiblePlaybook\00", align 16
@_ZN6policy3key33kCrostiniArcAdbSideloadingAllowedE = hidden local_unnamed_addr constant [33 x i8] c"CrostiniArcAdbSideloadingAllowed\00", align 16
@_ZN6policy3key30kCrostiniExportImportUIAllowedE = hidden local_unnamed_addr constant [30 x i8] c"CrostiniExportImportUIAllowed\00", align 16
@_ZN6policy3key30kCrostiniPortForwardingAllowedE = hidden local_unnamed_addr constant [30 x i8] c"CrostiniPortForwardingAllowed\00", align 16
@_ZN6policy3key26kCrostiniRootAccessAllowedE = hidden local_unnamed_addr constant [26 x i8] c"CrostiniRootAccessAllowed\00", align 16
@_ZN6policy3key23kCursorHighlightEnabledE = hidden local_unnamed_addr constant [23 x i8] c"CursorHighlightEnabled\00", align 16
@_ZN6policy3key11kDHEEnabledE = hidden local_unnamed_addr constant [11 x i8] c"DHEEnabled\00", align 1
@_ZN6policy3key29kDNSInterceptionChecksEnabledE = hidden constant [29 x i8] c"DNSInterceptionChecksEnabled\00", align 16
@_ZN6policy3key28kDataCompressionProxyEnabledE = hidden local_unnamed_addr constant [28 x i8] c"DataCompressionProxyEnabled\00", align 16
@_ZN6policy3key35kDataLeakPreventionReportingEnabledE = hidden local_unnamed_addr constant [35 x i8] c"DataLeakPreventionReportingEnabled\00", align 16
@_ZN6policy3key28kDataLeakPreventionRulesListE = hidden local_unnamed_addr constant [28 x i8] c"DataLeakPreventionRulesList\00", align 16
@_ZN6policy3key29kDefaultBrowserSettingEnabledE = hidden constant [29 x i8] c"DefaultBrowserSettingEnabled\00", align 16
@_ZN6policy3key22kDefaultCookiesSettingE = hidden constant [22 x i8] c"DefaultCookiesSetting\00", align 16
@_ZN6policy3key25kDefaultDownloadDirectoryE = hidden constant [25 x i8] c"DefaultDownloadDirectory\00", align 16
@_ZN6policy3key32kDefaultFileHandlingGuardSettingE = hidden constant [32 x i8] c"DefaultFileHandlingGuardSetting\00", align 16
@_ZN6policy3key34kDefaultFileSystemReadGuardSettingE = hidden constant [34 x i8] c"DefaultFileSystemReadGuardSetting\00", align 16
@_ZN6policy3key35kDefaultFileSystemWriteGuardSettingE = hidden constant [35 x i8] c"DefaultFileSystemWriteGuardSetting\00", align 16
@_ZN6policy3key26kDefaultGeolocationSettingE = hidden constant [26 x i8] c"DefaultGeolocationSetting\00", align 16
@_ZN6policy3key21kDefaultImagesSettingE = hidden constant [21 x i8] c"DefaultImagesSetting\00", align 16
@_ZN6policy3key30kDefaultInsecureContentSettingE = hidden constant [30 x i8] c"DefaultInsecureContentSetting\00", align 16
@_ZN6policy3key25kDefaultJavaScriptSettingE = hidden constant [25 x i8] c"DefaultJavaScriptSetting\00", align 16
@_ZN6policy3key21kDefaultKeygenSettingE = hidden constant [21 x i8] c"DefaultKeygenSetting\00", align 16
@_ZN6policy3key26kDefaultMediaStreamSettingE = hidden constant [26 x i8] c"DefaultMediaStreamSetting\00", align 16
@_ZN6policy3key28kDefaultNotificationsSettingE = hidden constant [28 x i8] c"DefaultNotificationsSetting\00", align 16
@_ZN6policy3key22kDefaultPluginsSettingE = hidden constant [22 x i8] c"DefaultPluginsSetting\00", align 16
@_ZN6policy3key21kDefaultPopupsSettingE = hidden constant [21 x i8] c"DefaultPopupsSetting\00", align 16
@_ZN6policy3key24kDefaultPrinterSelectionE = hidden constant [24 x i8] c"DefaultPrinterSelection\00", align 16
@_ZN6policy3key35kDefaultSearchProviderAlternateURLsE = hidden constant [35 x i8] c"DefaultSearchProviderAlternateURLs\00", align 16
@_ZN6policy3key46kDefaultSearchProviderContextMenuAccessAllowedE = hidden constant [46 x i8] c"DefaultSearchProviderContextMenuAccessAllowed\00", align 16
@_ZN6policy3key29kDefaultSearchProviderEnabledE = hidden constant [29 x i8] c"DefaultSearchProviderEnabled\00", align 16
@_ZN6policy3key31kDefaultSearchProviderEncodingsE = hidden constant [31 x i8] c"DefaultSearchProviderEncodings\00", align 16
@_ZN6policy3key29kDefaultSearchProviderIconURLE = hidden constant [29 x i8] c"DefaultSearchProviderIconURL\00", align 16
@_ZN6policy3key30kDefaultSearchProviderImageURLE = hidden constant [30 x i8] c"DefaultSearchProviderImageURL\00", align 16
@_ZN6policy3key40kDefaultSearchProviderImageURLPostParamsE = hidden constant [40 x i8] c"DefaultSearchProviderImageURLPostParams\00", align 16
@_ZN6policy3key32kDefaultSearchProviderInstantURLE = hidden constant [32 x i8] c"DefaultSearchProviderInstantURL\00", align 16
@_ZN6policy3key42kDefaultSearchProviderInstantURLPostParamsE = hidden constant [42 x i8] c"DefaultSearchProviderInstantURLPostParams\00", align 16
@_ZN6policy3key29kDefaultSearchProviderKeywordE = hidden constant [29 x i8] c"DefaultSearchProviderKeyword\00", align 16
@_ZN6policy3key26kDefaultSearchProviderNameE = hidden constant [26 x i8] c"DefaultSearchProviderName\00", align 16
@_ZN6policy3key31kDefaultSearchProviderNewTabURLE = hidden constant [31 x i8] c"DefaultSearchProviderNewTabURL\00", align 16
@_ZN6policy3key47kDefaultSearchProviderSearchTermsReplacementKeyE = hidden constant [47 x i8] c"DefaultSearchProviderSearchTermsReplacementKey\00", align 16
@_ZN6policy3key31kDefaultSearchProviderSearchURLE = hidden constant [31 x i8] c"DefaultSearchProviderSearchURL\00", align 16
@_ZN6policy3key41kDefaultSearchProviderSearchURLPostParamsE = hidden constant [41 x i8] c"DefaultSearchProviderSearchURLPostParams\00", align 16
@_ZN6policy3key32kDefaultSearchProviderSuggestURLE = hidden constant [32 x i8] c"DefaultSearchProviderSuggestURL\00", align 16
@_ZN6policy3key42kDefaultSearchProviderSuggestURLPostParamsE = hidden constant [42 x i8] c"DefaultSearchProviderSuggestURLPostParams\00", align 16
@_ZN6policy3key22kDefaultSensorsSettingE = hidden constant [22 x i8] c"DefaultSensorsSetting\00", align 16
@_ZN6policy3key26kDefaultSerialGuardSettingE = hidden constant [26 x i8] c"DefaultSerialGuardSetting\00", align 16
@_ZN6policy3key32kDefaultWebBluetoothGuardSettingE = hidden constant [32 x i8] c"DefaultWebBluetoothGuardSetting\00", align 16
@_ZN6policy3key26kDefaultWebUsbGuardSettingE = hidden constant [26 x i8] c"DefaultWebUsbGuardSetting\00", align 16
@_ZN6policy3key29kDeletePrintJobHistoryAllowedE = hidden local_unnamed_addr constant [29 x i8] c"DeletePrintJobHistoryAllowed\00", align 16
@_ZN6policy3key27kDeveloperToolsAvailabilityE = hidden constant [27 x i8] c"DeveloperToolsAvailability\00", align 16
@_ZN6policy3key23kDeveloperToolsDisabledE = hidden constant [23 x i8] c"DeveloperToolsDisabled\00", align 16
@_ZN6policy3key41kDeviceAdvancedBatteryChargeModeDayConfigE = hidden local_unnamed_addr constant [41 x i8] c"DeviceAdvancedBatteryChargeModeDayConfig\00", align 16
@_ZN6policy3key39kDeviceAdvancedBatteryChargeModeEnabledE = hidden local_unnamed_addr constant [39 x i8] c"DeviceAdvancedBatteryChargeModeEnabled\00", align 16
@_ZN6policy3key21kDeviceAllowBluetoothE = hidden local_unnamed_addr constant [21 x i8] c"DeviceAllowBluetooth\00", align 16
@_ZN6policy3key39kDeviceAllowMGSToStoreDisplayPropertiesE = hidden local_unnamed_addr constant [39 x i8] c"DeviceAllowMGSToStoreDisplayProperties\00", align 16
@_ZN6policy3key20kDeviceAllowNewUsersE = hidden local_unnamed_addr constant [20 x i8] c"DeviceAllowNewUsers\00", align 16
@_ZN6policy3key44kDeviceAllowRedeemChromeOsRegistrationOffersE = hidden local_unnamed_addr constant [44 x i8] c"DeviceAllowRedeemChromeOsRegistrationOffers\00", align 16
@_ZN6policy3key31kDeviceAllowedBluetoothServicesE = hidden local_unnamed_addr constant [31 x i8] c"DeviceAllowedBluetoothServices\00", align 16
@_ZN6policy3key14kDeviceAppPackE = hidden local_unnamed_addr constant [14 x i8] c"DeviceAppPack\00", align 1
@_ZN6policy3key27kDeviceArcDataSnapshotHoursE = hidden local_unnamed_addr constant [27 x i8] c"DeviceArcDataSnapshotHours\00", align 16
@_ZN6policy3key28kDeviceAuthDataCacheLifetimeE = hidden constant [28 x i8] c"DeviceAuthDataCacheLifetime\00", align 16
@_ZN6policy3key25kDeviceAutoUpdateDisabledE = hidden local_unnamed_addr constant [25 x i8] c"DeviceAutoUpdateDisabled\00", align 16
@_ZN6policy3key27kDeviceAutoUpdateP2PEnabledE = hidden local_unnamed_addr constant [27 x i8] c"DeviceAutoUpdateP2PEnabled\00", align 16
@_ZN6policy3key33kDeviceAutoUpdateTimeRestrictionsE = hidden local_unnamed_addr constant [33 x i8] c"DeviceAutoUpdateTimeRestrictions\00", align 16
@_ZN6policy3key39kDeviceBatteryChargeCustomStartChargingE = hidden local_unnamed_addr constant [39 x i8] c"DeviceBatteryChargeCustomStartCharging\00", align 16
@_ZN6policy3key38kDeviceBatteryChargeCustomStopChargingE = hidden local_unnamed_addr constant [38 x i8] c"DeviceBatteryChargeCustomStopCharging\00", align 16
@_ZN6policy3key24kDeviceBatteryChargeModeE = hidden local_unnamed_addr constant [24 x i8] c"DeviceBatteryChargeMode\00", align 16
@_ZN6policy3key19kDeviceBlockDevmodeE = hidden local_unnamed_addr constant [19 x i8] c"DeviceBlockDevmode\00", align 16
@_ZN6policy3key22kDeviceBootOnAcEnabledE = hidden local_unnamed_addr constant [22 x i8] c"DeviceBootOnAcEnabled\00", align 16
@_ZN6policy3key22kDeviceBorealisAllowedE = hidden local_unnamed_addr constant [22 x i8] c"DeviceBorealisAllowed\00", align 16
@_ZN6policy3key31kDeviceChannelDowngradeBehaviorE = hidden local_unnamed_addr constant [31 x i8] c"DeviceChannelDowngradeBehavior\00", align 16
@_ZN6policy3key23kDeviceChromeVariationsE = hidden local_unnamed_addr constant [23 x i8] c"DeviceChromeVariations\00", align 16
@_ZN6policy3key39kDeviceCrostiniArcAdbSideloadingAllowedE = hidden local_unnamed_addr constant [39 x i8] c"DeviceCrostiniArcAdbSideloadingAllowed\00", align 16
@_ZN6policy3key25kDeviceDataRoamingEnabledE = hidden local_unnamed_addr constant [25 x i8] c"DeviceDataRoamingEnabled\00", align 16
@_ZN6policy3key32kDeviceDebugPacketCaptureAllowedE = hidden local_unnamed_addr constant [32 x i8] c"DeviceDebugPacketCaptureAllowed\00", align 16
@_ZN6policy3key24kDeviceDisplayResolutionE = hidden constant [24 x i8] c"DeviceDisplayResolution\00", align 16
@_ZN6policy3key27kDeviceDockMacAddressSourceE = hidden local_unnamed_addr constant [27 x i8] c"DeviceDockMacAddressSource\00", align 16
@_ZN6policy3key32kDeviceEcryptfsMigrationStrategyE = hidden local_unnamed_addr constant [32 x i8] c"DeviceEcryptfsMigrationStrategy\00", align 16
@_ZN6policy3key28kDeviceEphemeralUsersEnabledE = hidden local_unnamed_addr constant [28 x i8] c"DeviceEphemeralUsersEnabled\00", align 16
@_ZN6policy3key27kDeviceExternalPrintServersE = hidden local_unnamed_addr constant [27 x i8] c"DeviceExternalPrintServers\00", align 16
@_ZN6policy3key36kDeviceExternalPrintServersAllowlistE = hidden local_unnamed_addr constant [36 x i8] c"DeviceExternalPrintServersAllowlist\00", align 16
@_ZN6policy3key32kDeviceFamilyLinkAccountsAllowedE = hidden local_unnamed_addr constant [32 x i8] c"DeviceFamilyLinkAccountsAllowed\00", align 16
@_ZN6policy3key23kDeviceGpoCacheLifetimeE = hidden constant [23 x i8] c"DeviceGpoCacheLifetime\00", align 16
@_ZN6policy3key23kDeviceGuestModeEnabledE = hidden local_unnamed_addr constant [23 x i8] c"DeviceGuestModeEnabled\00", align 16
@_ZN6policy3key23kDeviceHostnameTemplateE = hidden local_unnamed_addr constant [23 x i8] c"DeviceHostnameTemplate\00", align 16
@_ZN6policy3key24kDeviceIdleLogoutTimeoutE = hidden local_unnamed_addr constant [24 x i8] c"DeviceIdleLogoutTimeout\00", align 16
@_ZN6policy3key32kDeviceIdleLogoutWarningDurationE = hidden local_unnamed_addr constant [32 x i8] c"DeviceIdleLogoutWarningDuration\00", align 16
@_ZN6policy3key30kDeviceKerberosEncryptionTypesE = hidden constant [30 x i8] c"DeviceKerberosEncryptionTypes\00", align 16
@_ZN6policy3key42kDeviceLocalAccountAutoLoginBailoutEnabledE = hidden constant [42 x i8] c"DeviceLocalAccountAutoLoginBailoutEnabled\00", align 16
@_ZN6policy3key33kDeviceLocalAccountAutoLoginDelayE = hidden constant [33 x i8] c"DeviceLocalAccountAutoLoginDelay\00", align 16
@_ZN6policy3key30kDeviceLocalAccountAutoLoginIdE = hidden constant [30 x i8] c"DeviceLocalAccountAutoLoginId\00", align 16
@_ZN6policy3key40kDeviceLocalAccountManagedSessionEnabledE = hidden local_unnamed_addr constant [40 x i8] c"DeviceLocalAccountManagedSessionEnabled\00", align 16
@_ZN6policy3key46kDeviceLocalAccountPromptForNetworkWhenOfflineE = hidden constant [46 x i8] c"DeviceLocalAccountPromptForNetworkWhenOffline\00", align 16
@_ZN6policy3key20kDeviceLocalAccountsE = hidden constant [20 x i8] c"DeviceLocalAccounts\00", align 16
@_ZN6policy3key47kDeviceLoginScreenAccessibilityShortcutsEnabledE = hidden local_unnamed_addr constant [47 x i8] c"DeviceLoginScreenAccessibilityShortcutsEnabled\00", align 16
@_ZN6policy3key46kDeviceLoginScreenAutoSelectCertificateForUrlsE = hidden local_unnamed_addr constant [46 x i8] c"DeviceLoginScreenAutoSelectCertificateForUrls\00", align 16
@_ZN6policy3key34kDeviceLoginScreenAutoclickEnabledE = hidden local_unnamed_addr constant [34 x i8] c"DeviceLoginScreenAutoclickEnabled\00", align 16
@_ZN6policy3key39kDeviceLoginScreenCaretHighlightEnabledE = hidden local_unnamed_addr constant [39 x i8] c"DeviceLoginScreenCaretHighlightEnabled\00", align 16
@_ZN6policy3key40kDeviceLoginScreenCursorHighlightEnabledE = hidden local_unnamed_addr constant [40 x i8] c"DeviceLoginScreenCursorHighlightEnabled\00", align 16
@_ZN6policy3key44kDeviceLoginScreenDefaultHighContrastEnabledE = hidden local_unnamed_addr constant [44 x i8] c"DeviceLoginScreenDefaultHighContrastEnabled\00", align 16
@_ZN6policy3key43kDeviceLoginScreenDefaultLargeCursorEnabledE = hidden local_unnamed_addr constant [43 x i8] c"DeviceLoginScreenDefaultLargeCursorEnabled\00", align 16
@_ZN6policy3key44kDeviceLoginScreenDefaultScreenMagnifierTypeE = hidden local_unnamed_addr constant [44 x i8] c"DeviceLoginScreenDefaultScreenMagnifierType\00", align 16
@_ZN6policy3key46kDeviceLoginScreenDefaultSpokenFeedbackEnabledE = hidden local_unnamed_addr constant [46 x i8] c"DeviceLoginScreenDefaultSpokenFeedbackEnabled\00", align 16
@_ZN6policy3key47kDeviceLoginScreenDefaultVirtualKeyboardEnabledE = hidden local_unnamed_addr constant [47 x i8] c"DeviceLoginScreenDefaultVirtualKeyboardEnabled\00", align 16
@_ZN6policy3key34kDeviceLoginScreenDictationEnabledE = hidden local_unnamed_addr constant [34 x i8] c"DeviceLoginScreenDictationEnabled\00", align 16
@_ZN6policy3key36kDeviceLoginScreenDomainAutoCompleteE = hidden local_unnamed_addr constant [36 x i8] c"DeviceLoginScreenDomainAutoComplete\00", align 16
@_ZN6policy3key28kDeviceLoginScreenExtensionsE = hidden local_unnamed_addr constant [28 x i8] c"DeviceLoginScreenExtensions\00", align 16
@_ZN6policy3key37kDeviceLoginScreenHighContrastEnabledE = hidden local_unnamed_addr constant [37 x i8] c"DeviceLoginScreenHighContrastEnabled\00", align 16
@_ZN6policy3key30kDeviceLoginScreenInputMethodsE = hidden local_unnamed_addr constant [30 x i8] c"DeviceLoginScreenInputMethods\00", align 16
@_ZN6policy3key32kDeviceLoginScreenIsolateOriginsE = hidden constant [32 x i8] c"DeviceLoginScreenIsolateOrigins\00", align 16
@_ZN6policy3key47kDeviceLoginScreenKeyboardFocusHighlightEnabledE = hidden local_unnamed_addr constant [47 x i8] c"DeviceLoginScreenKeyboardFocusHighlightEnabled\00", align 16
@_ZN6policy3key36kDeviceLoginScreenLargeCursorEnabledE = hidden local_unnamed_addr constant [36 x i8] c"DeviceLoginScreenLargeCursorEnabled\00", align 16
@_ZN6policy3key25kDeviceLoginScreenLocalesE = hidden local_unnamed_addr constant [25 x i8] c"DeviceLoginScreenLocales\00", align 16
@_ZN6policy3key34kDeviceLoginScreenMonoAudioEnabledE = hidden local_unnamed_addr constant [34 x i8] c"DeviceLoginScreenMonoAudioEnabled\00", align 16
@_ZN6policy3key33kDeviceLoginScreenPowerManagementE = hidden constant [33 x i8] c"DeviceLoginScreenPowerManagement\00", align 16
@_ZN6policy3key42kDeviceLoginScreenPrimaryMouseButtonSwitchE = hidden local_unnamed_addr constant [42 x i8] c"DeviceLoginScreenPrimaryMouseButtonSwitch\00", align 16
@_ZN6policy3key38kDeviceLoginScreenPrivacyScreenEnabledE = hidden local_unnamed_addr constant [38 x i8] c"DeviceLoginScreenPrivacyScreenEnabled\00", align 16
@_ZN6policy3key25kDeviceLoginScreenSaverIdE = hidden local_unnamed_addr constant [25 x i8] c"DeviceLoginScreenSaverId\00", align 16
@_ZN6policy3key30kDeviceLoginScreenSaverTimeoutE = hidden local_unnamed_addr constant [30 x i8] c"DeviceLoginScreenSaverTimeout\00", align 16
@_ZN6policy3key37kDeviceLoginScreenScreenMagnifierTypeE = hidden local_unnamed_addr constant [37 x i8] c"DeviceLoginScreenScreenMagnifierType\00", align 16
@_ZN6policy3key38kDeviceLoginScreenSelectToSpeakEnabledE = hidden local_unnamed_addr constant [38 x i8] c"DeviceLoginScreenSelectToSpeakEnabled\00", align 16
@_ZN6policy3key45kDeviceLoginScreenShowOptionsInSystemTrayMenuE = hidden local_unnamed_addr constant [45 x i8] c"DeviceLoginScreenShowOptionsInSystemTrayMenu\00", align 16
@_ZN6policy3key32kDeviceLoginScreenSitePerProcessE = hidden constant [32 x i8] c"DeviceLoginScreenSitePerProcess\00", align 16
@_ZN6policy3key39kDeviceLoginScreenSpokenFeedbackEnabledE = hidden local_unnamed_addr constant [39 x i8] c"DeviceLoginScreenSpokenFeedbackEnabled\00", align 16
@_ZN6policy3key35kDeviceLoginScreenStickyKeysEnabledE = hidden local_unnamed_addr constant [35 x i8] c"DeviceLoginScreenStickyKeysEnabled\00", align 16
@_ZN6policy3key36kDeviceLoginScreenSystemInfoEnforcedE = hidden local_unnamed_addr constant [36 x i8] c"DeviceLoginScreenSystemInfoEnforced\00", align 16
@_ZN6policy3key40kDeviceLoginScreenVirtualKeyboardEnabledE = hidden local_unnamed_addr constant [40 x i8] c"DeviceLoginScreenVirtualKeyboardEnabled\00", align 16
@_ZN6policy3key43kDeviceLoginScreenWebUsbAllowDevicesForUrlsE = hidden constant [43 x i8] c"DeviceLoginScreenWebUsbAllowDevicesForUrls\00", align 16
@_ZN6policy3key32kDeviceMachinePasswordChangeRateE = hidden constant [32 x i8] c"DeviceMachinePasswordChangeRate\00", align 16
@_ZN6policy3key30kDeviceMetricsReportingEnabledE = hidden constant [30 x i8] c"DeviceMetricsReportingEnabled\00", align 16
@_ZN6policy3key21kDeviceMinimumVersionE = hidden local_unnamed_addr constant [21 x i8] c"DeviceMinimumVersion\00", align 16
@_ZN6policy3key31kDeviceMinimumVersionAueMessageE = hidden local_unnamed_addr constant [31 x i8] c"DeviceMinimumVersionAueMessage\00", align 16
@_ZN6policy3key21kDeviceNativePrintersE = hidden local_unnamed_addr constant [21 x i8] c"DeviceNativePrinters\00", align 16
@_ZN6policy3key31kDeviceNativePrintersAccessModeE = hidden local_unnamed_addr constant [31 x i8] c"DeviceNativePrintersAccessMode\00", align 16
@_ZN6policy3key30kDeviceNativePrintersBlacklistE = hidden local_unnamed_addr constant [30 x i8] c"DeviceNativePrintersBlacklist\00", align 16
@_ZN6policy3key30kDeviceNativePrintersWhitelistE = hidden local_unnamed_addr constant [30 x i8] c"DeviceNativePrintersWhitelist\00", align 16
@_ZN6policy3key15kDeviceOffHoursE = hidden local_unnamed_addr constant [15 x i8] c"DeviceOffHours\00", align 1
@_ZN6policy3key31kDeviceOpenNetworkConfigurationE = hidden local_unnamed_addr constant [31 x i8] c"DeviceOpenNetworkConfiguration\00", align 16
@_ZN6policy3key37kDevicePciPeripheralDataAccessEnabledE = hidden local_unnamed_addr constant [37 x i8] c"DevicePciPeripheralDataAccessEnabled\00", align 16
@_ZN6policy3key24kDevicePolicyRefreshRateE = hidden local_unnamed_addr constant [24 x i8] c"DevicePolicyRefreshRate\00", align 16
@_ZN6policy3key37kDevicePowerPeakShiftBatteryThresholdE = hidden local_unnamed_addr constant [37 x i8] c"DevicePowerPeakShiftBatteryThreshold\00", align 16
@_ZN6policy3key30kDevicePowerPeakShiftDayConfigE = hidden local_unnamed_addr constant [30 x i8] c"DevicePowerPeakShiftDayConfig\00", align 16
@_ZN6policy3key28kDevicePowerPeakShiftEnabledE = hidden local_unnamed_addr constant [28 x i8] c"DevicePowerPeakShiftEnabled\00", align 16
@_ZN6policy3key23kDevicePowerwashAllowedE = hidden local_unnamed_addr constant [23 x i8] c"DevicePowerwashAllowed\00", align 16
@_ZN6policy3key15kDevicePrintersE = hidden local_unnamed_addr constant [15 x i8] c"DevicePrinters\00", align 1
@_ZN6policy3key25kDevicePrintersAccessModeE = hidden local_unnamed_addr constant [25 x i8] c"DevicePrintersAccessMode\00", align 16
@_ZN6policy3key24kDevicePrintersAllowlistE = hidden local_unnamed_addr constant [24 x i8] c"DevicePrintersAllowlist\00", align 16
@_ZN6policy3key24kDevicePrintersBlocklistE = hidden local_unnamed_addr constant [24 x i8] c"DevicePrintersBlocklist\00", align 16
@_ZN6policy3key25kDeviceQuickFixBuildTokenE = hidden local_unnamed_addr constant [25 x i8] c"DeviceQuickFixBuildToken\00", align 16
@_ZN6policy3key28kDeviceQuirksDownloadEnabledE = hidden local_unnamed_addr constant [28 x i8] c"DeviceQuirksDownloadEnabled\00", align 16
@_ZN6policy3key23kDeviceRebootOnShutdownE = hidden local_unnamed_addr constant [23 x i8] c"DeviceRebootOnShutdown\00", align 16
@_ZN6policy3key26kDeviceRebootOnUserSignoutE = hidden local_unnamed_addr constant [26 x i8] c"DeviceRebootOnUserSignout\00", align 16
@_ZN6policy3key20kDeviceReleaseLtsTagE = hidden local_unnamed_addr constant [20 x i8] c"DeviceReleaseLtsTag\00", align 16
@_ZN6policy3key32kDeviceRollbackAllowedMilestonesE = hidden local_unnamed_addr constant [32 x i8] c"DeviceRollbackAllowedMilestones\00", align 16
@_ZN6policy3key30kDeviceRollbackToTargetVersionE = hidden local_unnamed_addr constant [30 x i8] c"DeviceRollbackToTargetVersion\00", align 16
@_ZN6policy3key34kDeviceSamlLoginAuthenticationTypeE = hidden constant [34 x i8] c"DeviceSamlLoginAuthenticationType\00", align 16
@_ZN6policy3key27kDeviceScheduledUpdateCheckE = hidden local_unnamed_addr constant [27 x i8] c"DeviceScheduledUpdateCheck\00", align 16
@_ZN6policy3key33kDeviceSecondFactorAuthenticationE = hidden local_unnamed_addr constant [33 x i8] c"DeviceSecondFactorAuthentication\00", align 16
@_ZN6policy3key35kDeviceShowLowDiskSpaceNotificationE = hidden local_unnamed_addr constant [35 x i8] c"DeviceShowLowDiskSpaceNotification\00", align 16
@_ZN6policy3key37kDeviceShowNumericKeyboardForPasswordE = hidden local_unnamed_addr constant [37 x i8] c"DeviceShowNumericKeyboardForPassword\00", align 16
@_ZN6policy3key28kDeviceShowUserNamesOnSigninE = hidden local_unnamed_addr constant [28 x i8] c"DeviceShowUserNamesOnSignin\00", align 16
@_ZN6policy3key19kDeviceStartUpFlagsE = hidden local_unnamed_addr constant [19 x i8] c"DeviceStartUpFlags\00", align 16
@_ZN6policy3key18kDeviceStartUpUrlsE = hidden local_unnamed_addr constant [18 x i8] c"DeviceStartUpUrls\00", align 16
@_ZN6policy3key31kDeviceSystemWideTracingEnabledE = hidden local_unnamed_addr constant [31 x i8] c"DeviceSystemWideTracingEnabled\00", align 16
@_ZN6policy3key26kDeviceTargetVersionPrefixE = hidden local_unnamed_addr constant [26 x i8] c"DeviceTargetVersionPrefix\00", align 16
@_ZN6policy3key26kDeviceTransferSAMLCookiesE = hidden constant [26 x i8] c"DeviceTransferSAMLCookies\00", align 16
@_ZN6policy3key34kDeviceUnaffiliatedCrostiniAllowedE = hidden local_unnamed_addr constant [34 x i8] c"DeviceUnaffiliatedCrostiniAllowed\00", align 16
@_ZN6policy3key35kDeviceUpdateAllowedConnectionTypesE = hidden local_unnamed_addr constant [35 x i8] c"DeviceUpdateAllowedConnectionTypes\00", align 16
@_ZN6policy3key33kDeviceUpdateHttpDownloadsEnabledE = hidden local_unnamed_addr constant [33 x i8] c"DeviceUpdateHttpDownloadsEnabled\00", align 16
@_ZN6policy3key26kDeviceUpdateScatterFactorE = hidden local_unnamed_addr constant [26 x i8] c"DeviceUpdateScatterFactor\00", align 16
@_ZN6policy3key28kDeviceUpdateStagingScheduleE = hidden local_unnamed_addr constant [28 x i8] c"DeviceUpdateStagingSchedule\00", align 16
@_ZN6policy3key27kDeviceUsbPowerShareEnabledE = hidden local_unnamed_addr constant [27 x i8] c"DeviceUsbPowerShareEnabled\00", align 16
@_ZN6policy3key20kDeviceUserAllowlistE = hidden local_unnamed_addr constant [20 x i8] c"DeviceUserAllowlist\00", align 16
@_ZN6policy3key39kDeviceUserPolicyLoopbackProcessingModeE = hidden constant [39 x i8] c"DeviceUserPolicyLoopbackProcessingMode\00", align 16
@_ZN6policy3key20kDeviceUserWhitelistE = hidden local_unnamed_addr constant [20 x i8] c"DeviceUserWhitelist\00", align 16
@_ZN6policy3key34kDeviceVariationsRestrictParameterE = hidden local_unnamed_addr constant [34 x i8] c"DeviceVariationsRestrictParameter\00", align 16
@_ZN6policy3key21kDeviceWallpaperImageE = hidden local_unnamed_addr constant [21 x i8] c"DeviceWallpaperImage\00", align 16
@_ZN6policy3key37kDeviceWebBasedAttestationAllowedUrlsE = hidden local_unnamed_addr constant [37 x i8] c"DeviceWebBasedAttestationAllowedUrls\00", align 16
@_ZN6policy3key18kDeviceWiFiAllowedE = hidden constant [18 x i8] c"DeviceWiFiAllowed\00", align 16
@_ZN6policy3key32kDeviceWiFiFastTransitionEnabledE = hidden constant [32 x i8] c"DeviceWiFiFastTransitionEnabled\00", align 16
@_ZN6policy3key22kDeviceWilcoDtcAllowedE = hidden local_unnamed_addr constant [22 x i8] c"DeviceWilcoDtcAllowed\00", align 16
@_ZN6policy3key28kDeviceWilcoDtcConfigurationE = hidden local_unnamed_addr constant [28 x i8] c"DeviceWilcoDtcConfiguration\00", align 16
@_ZN6policy3key17kDictationEnabledE = hidden local_unnamed_addr constant [17 x i8] c"DictationEnabled\00", align 16
@_ZN6policy3key14kDisable3DAPIsE = hidden constant [14 x i8] c"Disable3DAPIs\00", align 1
@_ZN6policy3key32kDisableAuthNegotiateCnameLookupE = hidden constant [32 x i8] c"DisableAuthNegotiateCnameLookup\00", align 16
@_ZN6policy3key20kDisablePluginFinderE = hidden local_unnamed_addr constant [20 x i8] c"DisablePluginFinder\00", align 16
@_ZN6policy3key20kDisablePrintPreviewE = hidden constant [20 x i8] c"DisablePrintPreview\00", align 16
@_ZN6policy3key26kDisableSSLRecordSplittingE = hidden local_unnamed_addr constant [26 x i8] c"DisableSSLRecordSplitting\00", align 16
@_ZN6policy3key33kDisableSafeBrowsingProceedAnywayE = hidden constant [33 x i8] c"DisableSafeBrowsingProceedAnyway\00", align 16
@_ZN6policy3key19kDisableScreenshotsE = hidden constant [19 x i8] c"DisableScreenshots\00", align 16
@_ZN6policy3key12kDisableSpdyE = hidden local_unnamed_addr constant [12 x i8] c"DisableSpdy\00", align 1
@_ZN6policy3key16kDisabledPluginsE = hidden local_unnamed_addr constant [16 x i8] c"DisabledPlugins\00", align 16
@_ZN6policy3key26kDisabledPluginsExceptionsE = hidden local_unnamed_addr constant [26 x i8] c"DisabledPluginsExceptions\00", align 16
@_ZN6policy3key16kDisabledSchemesE = hidden constant [16 x i8] c"DisabledSchemes\00", align 16
@_ZN6policy3key13kDiskCacheDirE = hidden constant [13 x i8] c"DiskCacheDir\00", align 1
@_ZN6policy3key14kDiskCacheSizeE = hidden constant [14 x i8] c"DiskCacheSize\00", align 1
@_ZN6policy3key23kDisplayRotationDefaultE = hidden constant [23 x i8] c"DisplayRotationDefault\00", align 16
@_ZN6policy3key17kDnsOverHttpsModeE = hidden constant [17 x i8] c"DnsOverHttpsMode\00", align 16
@_ZN6policy3key22kDnsOverHttpsTemplatesE = hidden constant [22 x i8] c"DnsOverHttpsTemplates\00", align 16
@_ZN6policy3key22kDnsPrefetchingEnabledE = hidden local_unnamed_addr constant [22 x i8] c"DnsPrefetchingEnabled\00", align 16
@_ZN6policy3key18kDownloadDirectoryE = hidden constant [18 x i8] c"DownloadDirectory\00", align 16
@_ZN6policy3key21kDownloadRestrictionsE = hidden constant [21 x i8] c"DownloadRestrictions\00", align 16
@_ZN6policy3key14kDriveDisabledE = hidden constant [14 x i8] c"DriveDisabled\00", align 1
@_ZN6policy3key26kDriveDisabledOverCellularE = hidden constant [26 x i8] c"DriveDisabledOverCellular\00", align 16
@_ZN6policy3key18kEasyUnlockAllowedE = hidden local_unnamed_addr constant [18 x i8] c"EasyUnlockAllowed\00", align 16
@_ZN6policy3key26kEcryptfsMigrationStrategyE = hidden local_unnamed_addr constant [26 x i8] c"EcryptfsMigrationStrategy\00", align 16
@_ZN6policy3key21kEditBookmarksEnabledE = hidden constant [21 x i8] c"EditBookmarksEnabled\00", align 16
@_ZN6policy3key25kEduCoexistenceToSVersionE = hidden local_unnamed_addr constant [25 x i8] c"EduCoexistenceToSVersion\00", align 16
@_ZN6policy3key23kEmojiSuggestionEnabledE = hidden local_unnamed_addr constant [23 x i8] c"EmojiSuggestionEnabled\00", align 16
@_ZN6policy3key24kEnableAuthNegotiatePortE = hidden constant [24 x i8] c"EnableAuthNegotiatePort\00", align 16
@_ZN6policy3key40kEnableCommonNameFallbackForLocalAnchorsE = hidden local_unnamed_addr constant [40 x i8] c"EnableCommonNameFallbackForLocalAnchors\00", align 16
@_ZN6policy3key31kEnableDeprecatedPrivetPrintingE = hidden constant [31 x i8] c"EnableDeprecatedPrivetPrinting\00", align 16
@_ZN6policy3key31kEnableDeprecatedWebBasedSigninE = hidden local_unnamed_addr constant [31 x i8] c"EnableDeprecatedWebBasedSignin\00", align 16
@_ZN6policy3key36kEnableDeprecatedWebPlatformFeaturesE = hidden local_unnamed_addr constant [36 x i8] c"EnableDeprecatedWebPlatformFeatures\00", align 16
@_ZN6policy3key27kEnableExperimentalPoliciesE = hidden constant [27 x i8] c"EnableExperimentalPolicies\00", align 16
@_ZN6policy3key18kEnableMediaRouterE = hidden constant [18 x i8] c"EnableMediaRouter\00", align 16
@_ZN6policy3key29kEnableOnlineRevocationChecksE = hidden constant [29 x i8] c"EnableOnlineRevocationChecks\00", align 16
@_ZN6policy3key26kEnableSha1ForLocalAnchorsE = hidden local_unnamed_addr constant [26 x i8] c"EnableSha1ForLocalAnchors\00", align 16
@_ZN6policy3key35kEnableSymantecLegacyInfrastructureE = hidden local_unnamed_addr constant [35 x i8] c"EnableSymantecLegacyInfrastructure\00", align 16
@_ZN6policy3key18kEnableSyncConsentE = hidden local_unnamed_addr constant [18 x i8] c"EnableSyncConsent\00", align 16
@_ZN6policy3key15kEnabledPluginsE = hidden local_unnamed_addr constant [15 x i8] c"EnabledPlugins\00", align 1
@_ZN6policy3key37kEnterpriseHardwarePlatformAPIEnabledE = hidden constant [37 x i8] c"EnterpriseHardwarePlatformAPIEnabled\00", align 16
@_ZN6policy3key31kEnterpriseRealTimeUrlCheckModeE = hidden constant [31 x i8] c"EnterpriseRealTimeUrlCheckMode\00", align 16
@_ZN6policy3key23kEnterpriseWebStoreNameE = hidden local_unnamed_addr constant [23 x i8] c"EnterpriseWebStoreName\00", align 16
@_ZN6policy3key22kEnterpriseWebStoreURLE = hidden local_unnamed_addr constant [22 x i8] c"EnterpriseWebStoreURL\00", align 16
@_ZN6policy3key30kExplicitlyAllowedNetworkPortsE = hidden constant [30 x i8] c"ExplicitlyAllowedNetworkPorts\00", align 16
@_ZN6policy3key30kExtensionAllowInsecureUpdatesE = hidden constant [30 x i8] c"ExtensionAllowInsecureUpdates\00", align 16
@_ZN6policy3key22kExtensionAllowedTypesE = hidden constant [22 x i8] c"ExtensionAllowedTypes\00", align 16
@_ZN6policy3key19kExtensionCacheSizeE = hidden local_unnamed_addr constant [19 x i8] c"ExtensionCacheSize\00", align 16
@_ZN6policy3key26kExtensionInstallAllowlistE = hidden constant [26 x i8] c"ExtensionInstallAllowlist\00", align 16
@_ZN6policy3key26kExtensionInstallBlacklistE = hidden constant [26 x i8] c"ExtensionInstallBlacklist\00", align 16
@_ZN6policy3key26kExtensionInstallBlocklistE = hidden constant [26 x i8] c"ExtensionInstallBlocklist\00", align 16
@_ZN6policy3key36kExtensionInstallEventLoggingEnabledE = hidden local_unnamed_addr constant [36 x i8] c"ExtensionInstallEventLoggingEnabled\00", align 16
@_ZN6policy3key26kExtensionInstallForcelistE = hidden constant [26 x i8] c"ExtensionInstallForcelist\00", align 16
@_ZN6policy3key24kExtensionInstallSourcesE = hidden constant [24 x i8] c"ExtensionInstallSources\00", align 16
@_ZN6policy3key26kExtensionInstallWhitelistE = hidden constant [26 x i8] c"ExtensionInstallWhitelist\00", align 16
@_ZN6policy3key18kExtensionSettingsE = hidden constant [18 x i8] c"ExtensionSettings\00", align 16
@_ZN6policy3key21kExternalPrintServersE = hidden local_unnamed_addr constant [21 x i8] c"ExternalPrintServers\00", align 16
@_ZN6policy3key30kExternalPrintServersAllowlistE = hidden local_unnamed_addr constant [30 x i8] c"ExternalPrintServersAllowlist\00", align 16
@_ZN6policy3key30kExternalPrintServersWhitelistE = hidden local_unnamed_addr constant [30 x i8] c"ExternalPrintServersWhitelist\00", align 16
@_ZN6policy3key45kExternalProtocolDialogShowAlwaysOpenCheckboxE = hidden constant [45 x i8] c"ExternalProtocolDialogShowAlwaysOpenCheckbox\00", align 16
@_ZN6policy3key24kExternalStorageDisabledE = hidden local_unnamed_addr constant [24 x i8] c"ExternalStorageDisabled\00", align 16
@_ZN6policy3key24kExternalStorageReadOnlyE = hidden local_unnamed_addr constant [24 x i8] c"ExternalStorageReadOnly\00", align 16
@_ZN6policy3key40kFetchKeepaliveDurationSecondsOnShutdownE = hidden constant [40 x i8] c"FetchKeepaliveDurationSecondsOnShutdown\00", align 16
@_ZN6policy3key27kFileHandlingAllowedForUrlsE = hidden constant [27 x i8] c"FileHandlingAllowedForUrls\00", align 16
@_ZN6policy3key27kFileHandlingBlockedForUrlsE = hidden constant [27 x i8] c"FileHandlingBlockedForUrls\00", align 16
@_ZN6policy3key25kFileSystemReadAskForUrlsE = hidden constant [25 x i8] c"FileSystemReadAskForUrls\00", align 16
@_ZN6policy3key29kFileSystemReadBlockedForUrlsE = hidden constant [29 x i8] c"FileSystemReadBlockedForUrls\00", align 16
@_ZN6policy3key26kFileSystemWriteAskForUrlsE = hidden constant [26 x i8] c"FileSystemWriteAskForUrls\00", align 16
@_ZN6policy3key30kFileSystemWriteBlockedForUrlsE = hidden constant [30 x i8] c"FileSystemWriteBlockedForUrls\00", align 16
@_ZN6policy3key33kFloatingAccessibilityMenuEnabledE = hidden local_unnamed_addr constant [33 x i8] c"FloatingAccessibilityMenuEnabled\00", align 16
@_ZN6policy3key19kForceBrowserSigninE = hidden local_unnamed_addr constant [19 x i8] c"ForceBrowserSignin\00", align 16
@_ZN6policy3key23kForceEphemeralProfilesE = hidden constant [23 x i8] c"ForceEphemeralProfiles\00", align 16
@_ZN6policy3key22kForceGoogleSafeSearchE = hidden constant [22 x i8] c"ForceGoogleSafeSearch\00", align 16
@_ZN6policy3key33kForceLegacyDefaultReferrerPolicyE = hidden local_unnamed_addr constant [33 x i8] c"ForceLegacyDefaultReferrerPolicy\00", align 16
@_ZN6policy3key38kForceLogoutUnauthenticatedUserEnabledE = hidden local_unnamed_addr constant [38 x i8] c"ForceLogoutUnauthenticatedUserEnabled\00", align 16
@_ZN6policy3key24kForceMaximizeOnFirstRunE = hidden local_unnamed_addr constant [24 x i8] c"ForceMaximizeOnFirstRun\00", align 16
@_ZN6policy3key22kForceNetworkInProcessE = hidden local_unnamed_addr constant [22 x i8] c"ForceNetworkInProcess\00", align 16
@_ZN6policy3key16kForceSafeSearchE = hidden constant [16 x i8] c"ForceSafeSearch\00", align 16
@_ZN6policy3key21kForceYouTubeRestrictE = hidden constant [21 x i8] c"ForceYouTubeRestrict\00", align 16
@_ZN6policy3key23kForceYouTubeSafetyModeE = hidden constant [23 x i8] c"ForceYouTubeSafetyMode\00", align 16
@_ZN6policy3key16kForcedLanguagesE = hidden constant [16 x i8] c"ForcedLanguages\00", align 16
@_ZN6policy3key23kFullscreenAlertEnabledE = hidden local_unnamed_addr constant [23 x i8] c"FullscreenAlertEnabled\00", align 16
@_ZN6policy3key18kFullscreenAllowedE = hidden constant [18 x i8] c"FullscreenAllowed\00", align 16
@_ZN6policy3key15kGCFUserDataDirE = hidden local_unnamed_addr constant [15 x i8] c"GCFUserDataDir\00", align 1
@_ZN6policy3key18kGSSAPILibraryNameE = hidden constant [18 x i8] c"GSSAPILibraryName\00", align 16
@_ZN6policy3key41kGaiaLockScreenOfflineSigninTimeLimitDaysE = hidden local_unnamed_addr constant [41 x i8] c"GaiaLockScreenOfflineSigninTimeLimitDays\00", align 16
@_ZN6policy3key31kGaiaOfflineSigninTimeLimitDaysE = hidden local_unnamed_addr constant [31 x i8] c"GaiaOfflineSigninTimeLimitDays\00", align 16
@_ZN6policy3key34kGloballyScopeHTTPAuthCacheEnabledE = hidden constant [34 x i8] c"GloballyScopeHTTPAuthCacheEnabled\00", align 16
@_ZN6policy3key21kHSTSPolicyBypassListE = hidden constant [21 x i8] c"HSTSPolicyBypassList\00", align 16
@_ZN6policy3key32kHardwareAccelerationModeEnabledE = hidden constant [32 x i8] c"HardwareAccelerationModeEnabled\00", align 16
@_ZN6policy3key13kHeadlessModeE = hidden constant [13 x i8] c"HeadlessMode\00", align 1
@_ZN6policy3key17kHeartbeatEnabledE = hidden constant [17 x i8] c"HeartbeatEnabled\00", align 16
@_ZN6policy3key19kHeartbeatFrequencyE = hidden constant [19 x i8] c"HeartbeatFrequency\00", align 16
@_ZN6policy3key17kHideWebStoreIconE = hidden constant [17 x i8] c"HideWebStoreIcon\00", align 16
@_ZN6policy3key18kHideWebStorePromoE = hidden local_unnamed_addr constant [18 x i8] c"HideWebStorePromo\00", align 16
@_ZN6policy3key20kHighContrastEnabledE = hidden local_unnamed_addr constant [20 x i8] c"HighContrastEnabled\00", align 16
@_ZN6policy3key21kHomepageIsNewTabPageE = hidden constant [21 x i8] c"HomepageIsNewTabPage\00", align 16
@_ZN6policy3key17kHomepageLocationE = hidden constant [17 x i8] c"HomepageLocation\00", align 16
@_ZN6policy3key31kHttp09OnNonDefaultPortsEnabledE = hidden local_unnamed_addr constant [31 x i8] c"Http09OnNonDefaultPortsEnabled\00", align 16
@_ZN6policy3key11kIdleActionE = hidden local_unnamed_addr constant [11 x i8] c"IdleAction\00", align 1
@_ZN6policy3key13kIdleActionACE = hidden local_unnamed_addr constant [13 x i8] c"IdleActionAC\00", align 1
@_ZN6policy3key18kIdleActionBatteryE = hidden local_unnamed_addr constant [18 x i8] c"IdleActionBattery\00", align 16
@_ZN6policy3key12kIdleDelayACE = hidden local_unnamed_addr constant [12 x i8] c"IdleDelayAC\00", align 1
@_ZN6policy3key17kIdleDelayBatteryE = hidden local_unnamed_addr constant [17 x i8] c"IdleDelayBattery\00", align 16
@_ZN6policy3key19kIdleWarningDelayACE = hidden local_unnamed_addr constant [19 x i8] c"IdleWarningDelayAC\00", align 16
@_ZN6policy3key24kIdleWarningDelayBatteryE = hidden local_unnamed_addr constant [24 x i8] c"IdleWarningDelayBattery\00", align 16
@_ZN6policy3key21kImagesAllowedForUrlsE = hidden constant [21 x i8] c"ImagesAllowedForUrls\00", align 16
@_ZN6policy3key21kImagesBlockedForUrlsE = hidden constant [21 x i8] c"ImagesBlockedForUrls\00", align 16
@_ZN6policy3key23kImportAutofillFormDataE = hidden constant [23 x i8] c"ImportAutofillFormData\00", align 16
@_ZN6policy3key16kImportBookmarksE = hidden constant [16 x i8] c"ImportBookmarks\00", align 16
@_ZN6policy3key14kImportHistoryE = hidden constant [14 x i8] c"ImportHistory\00", align 1
@_ZN6policy3key15kImportHomepageE = hidden constant [15 x i8] c"ImportHomepage\00", align 1
@_ZN6policy3key21kImportSavedPasswordsE = hidden constant [21 x i8] c"ImportSavedPasswords\00", align 16
@_ZN6policy3key19kImportSearchEngineE = hidden constant [19 x i8] c"ImportSearchEngine\00", align 16
@_ZN6policy3key17kIncognitoEnabledE = hidden constant [17 x i8] c"IncognitoEnabled\00", align 16
@_ZN6policy3key26kIncognitoModeAvailabilityE = hidden constant [26 x i8] c"IncognitoModeAvailability\00", align 16
@_ZN6policy3key30kInsecureContentAllowedForUrlsE = hidden constant [30 x i8] c"InsecureContentAllowedForUrls\00", align 16
@_ZN6policy3key30kInsecureContentBlockedForUrlsE = hidden constant [30 x i8] c"InsecureContentBlockedForUrls\00", align 16
@_ZN6policy3key29kInsecureFormsWarningsEnabledE = hidden constant [29 x i8] c"InsecureFormsWarningsEnabled\00", align 16
@_ZN6policy3key38kInsecurePrivateNetworkRequestsAllowedE = hidden constant [38 x i8] c"InsecurePrivateNetworkRequestsAllowed\00", align 16
@_ZN6policy3key45kInsecurePrivateNetworkRequestsAllowedForUrlsE = hidden constant [45 x i8] c"InsecurePrivateNetworkRequestsAllowedForUrls\00", align 16
@_ZN6policy3key15kInstantEnabledE = hidden local_unnamed_addr constant [15 x i8] c"InstantEnabled\00", align 1
@_ZN6policy3key24kInstantTetheringAllowedE = hidden local_unnamed_addr constant [24 x i8] c"InstantTetheringAllowed\00", align 16
@_ZN6policy3key35kIntegratedWebAuthenticationAllowedE = hidden local_unnamed_addr constant [35 x i8] c"IntegratedWebAuthenticationAllowed\00", align 16
@_ZN6policy3key33kIntensiveWakeUpThrottlingEnabledE = hidden constant [33 x i8] c"IntensiveWakeUpThrottlingEnabled\00", align 16
@_ZN6policy3key25kIntranetRedirectBehaviorE = hidden constant [25 x i8] c"IntranetRedirectBehavior\00", align 16
@_ZN6policy3key15kIsolateOriginsE = hidden constant [15 x i8] c"IsolateOrigins\00", align 1
@_ZN6policy3key22kIsolateOriginsAndroidE = hidden local_unnamed_addr constant [22 x i8] c"IsolateOriginsAndroid\00", align 16
@_ZN6policy3key25kJavaScriptAllowedForUrlsE = hidden constant [25 x i8] c"JavaScriptAllowedForUrls\00", align 16
@_ZN6policy3key25kJavaScriptBlockedForUrlsE = hidden constant [25 x i8] c"JavaScriptBlockedForUrls\00", align 16
@_ZN6policy3key18kJavascriptEnabledE = hidden constant [18 x i8] c"JavascriptEnabled\00", align 16
@_ZN6policy3key17kKerberosAccountsE = hidden local_unnamed_addr constant [17 x i8] c"KerberosAccounts\00", align 16
@_ZN6policy3key27kKerberosAddAccountsAllowedE = hidden local_unnamed_addr constant [27 x i8] c"KerberosAddAccountsAllowed\00", align 16
@_ZN6policy3key16kKerberosEnabledE = hidden local_unnamed_addr constant [16 x i8] c"KerberosEnabled\00", align 16
@_ZN6policy3key32kKerberosRememberPasswordEnabledE = hidden local_unnamed_addr constant [32 x i8] c"KerberosRememberPasswordEnabled\00", align 16
@_ZN6policy3key15kKeyPermissionsE = hidden constant [15 x i8] c"KeyPermissions\00", align 1
@_ZN6policy3key30kKeyboardDefaultToFunctionKeysE = hidden local_unnamed_addr constant [30 x i8] c"KeyboardDefaultToFunctionKeys\00", align 16
@_ZN6policy3key30kKeyboardFocusHighlightEnabledE = hidden local_unnamed_addr constant [30 x i8] c"KeyboardFocusHighlightEnabled\00", align 16
@_ZN6policy3key21kKeygenAllowedForUrlsE = hidden constant [21 x i8] c"KeygenAllowedForUrls\00", align 16
@_ZN6policy3key21kKeygenBlockedForUrlsE = hidden constant [21 x i8] c"KeygenBlockedForUrls\00", align 16
@_ZN6policy3key14kLacrosAllowedE = hidden local_unnamed_addr constant [14 x i8] c"LacrosAllowed\00", align 1
@_ZN6policy3key19kLacrosAvailabilityE = hidden local_unnamed_addr constant [19 x i8] c"LacrosAvailability\00", align 16
@_ZN6policy3key31kLacrosSecondaryProfilesAllowedE = hidden constant [31 x i8] c"LacrosSecondaryProfilesAllowed\00", align 16
@_ZN6policy3key19kLargeCursorEnabledE = hidden local_unnamed_addr constant [19 x i8] c"LargeCursorEnabled\00", align 16
@_ZN6policy3key36kLegacySameSiteCookieBehaviorEnabledE = hidden constant [36 x i8] c"LegacySameSiteCookieBehaviorEnabled\00", align 16
@_ZN6policy3key49kLegacySameSiteCookieBehaviorEnabledForDomainListE = hidden constant [49 x i8] c"LegacySameSiteCookieBehaviorEnabledForDomainList\00", align 16
@_ZN6policy3key32kLensCameraAssistedSearchEnabledE = hidden local_unnamed_addr constant [32 x i8] c"LensCameraAssistedSearchEnabled\00", align 16
@_ZN6policy3key15kLidCloseActionE = hidden local_unnamed_addr constant [15 x i8] c"LidCloseAction\00", align 1
@_ZN6policy3key22kLocalDiscoveryEnabledE = hidden local_unnamed_addr constant [22 x i8] c"LocalDiscoveryEnabled\00", align 16
@_ZN6policy3key28kLockIconInAddressBarEnabledE = hidden constant [28 x i8] c"LockIconInAddressBarEnabled\00", align 16
@_ZN6policy3key31kLockScreenMediaPlaybackEnabledE = hidden local_unnamed_addr constant [31 x i8] c"LockScreenMediaPlaybackEnabled\00", align 16
@_ZN6policy3key34kLockScreenReauthenticationEnabledE = hidden local_unnamed_addr constant [34 x i8] c"LockScreenReauthenticationEnabled\00", align 16
@_ZN6policy3key17kLogUploadEnabledE = hidden constant [17 x i8] c"LogUploadEnabled\00", align 16
@_ZN6policy3key28kLoginAuthenticationBehaviorE = hidden local_unnamed_addr constant [28 x i8] c"LoginAuthenticationBehavior\00", align 16
@_ZN6policy3key34kLoginDisplayPasswordButtonEnabledE = hidden local_unnamed_addr constant [34 x i8] c"LoginDisplayPasswordButtonEnabled\00", align 16
@_ZN6policy3key29kLoginVideoCaptureAllowedUrlsE = hidden local_unnamed_addr constant [29 x i8] c"LoginVideoCaptureAllowedUrls\00", align 16
@_ZN6policy3key33kLookalikeWarningAllowlistDomainsE = hidden constant [33 x i8] c"LookalikeWarningAllowlistDomains\00", align 16
@_ZN6policy3key43kMachineLevelUserCloudPolicyEnrollmentTokenE = hidden local_unnamed_addr constant [43 x i8] c"MachineLevelUserCloudPolicyEnrollmentToken\00", align 16
@_ZN6policy3key33kManagedAccountsSigninRestrictionE = hidden constant [33 x i8] c"ManagedAccountsSigninRestriction\00", align 16
@_ZN6policy3key17kManagedBookmarksE = hidden constant [17 x i8] c"ManagedBookmarks\00", align 16
@_ZN6policy3key30kManagedConfigurationPerOriginE = hidden constant [30 x i8] c"ManagedConfigurationPerOrigin\00", align 16
@_ZN6policy3key49kManagedGuestSessionAutoLaunchNotificationReducedE = hidden local_unnamed_addr constant [49 x i8] c"ManagedGuestSessionAutoLaunchNotificationReduced\00", align 16
@_ZN6policy3key42kManagedGuestSessionPrivacyWarningsEnabledE = hidden local_unnamed_addr constant [42 x i8] c"ManagedGuestSessionPrivacyWarningsEnabled\00", align 16
@_ZN6policy3key23kMaxConnectionsPerProxyE = hidden constant [23 x i8] c"MaxConnectionsPerProxy\00", align 16
@_ZN6policy3key26kMaxInvalidationFetchDelayE = hidden constant [26 x i8] c"MaxInvalidationFetchDelay\00", align 16
@_ZN6policy3key15kMediaCacheSizeE = hidden local_unnamed_addr constant [15 x i8] c"MediaCacheSize\00", align 1
@_ZN6policy3key28kMediaRecommendationsEnabledE = hidden constant [28 x i8] c"MediaRecommendationsEnabled\00", align 16
@_ZN6policy3key27kMediaRouterCastAllowAllIPsE = hidden constant [27 x i8] c"MediaRouterCastAllowAllIPs\00", align 16
@_ZN6policy3key24kMetricsReportingEnabledE = hidden constant [24 x i8] c"MetricsReportingEnabled\00", align 16
@_ZN6policy3key29kMinimumRequiredChromeVersionE = hidden local_unnamed_addr constant [29 x i8] c"MinimumRequiredChromeVersion\00", align 16
@_ZN6policy3key17kMonoAudioEnabledE = hidden local_unnamed_addr constant [17 x i8] c"MonoAudioEnabled\00", align 16
@_ZN6policy3key31kNTLMShareAuthenticationEnabledE = hidden constant [31 x i8] c"NTLMShareAuthenticationEnabled\00", align 16
@_ZN6policy3key16kNTPCardsVisibleE = hidden constant [16 x i8] c"NTPCardsVisible\00", align 16
@_ZN6policy3key29kNTPContentSuggestionsEnabledE = hidden local_unnamed_addr constant [29 x i8] c"NTPContentSuggestionsEnabled\00", align 16
@_ZN6policy3key27kNTPCustomBackgroundEnabledE = hidden constant [27 x i8] c"NTPCustomBackgroundEnabled\00", align 16
@_ZN6policy3key25kNativeMessagingAllowlistE = hidden constant [25 x i8] c"NativeMessagingAllowlist\00", align 16
@_ZN6policy3key25kNativeMessagingBlacklistE = hidden constant [25 x i8] c"NativeMessagingBlacklist\00", align 16
@_ZN6policy3key25kNativeMessagingBlocklistE = hidden constant [25 x i8] c"NativeMessagingBlocklist\00", align 16
@_ZN6policy3key30kNativeMessagingUserLevelHostsE = hidden constant [30 x i8] c"NativeMessagingUserLevelHosts\00", align 16
@_ZN6policy3key25kNativeMessagingWhitelistE = hidden constant [25 x i8] c"NativeMessagingWhitelist\00", align 16
@_ZN6policy3key15kNativePrintersE = hidden local_unnamed_addr constant [15 x i8] c"NativePrinters\00", align 1
@_ZN6policy3key29kNativePrintersBulkAccessModeE = hidden local_unnamed_addr constant [29 x i8] c"NativePrintersBulkAccessMode\00", align 16
@_ZN6policy3key28kNativePrintersBulkBlacklistE = hidden local_unnamed_addr constant [28 x i8] c"NativePrintersBulkBlacklist\00", align 16
@_ZN6policy3key32kNativePrintersBulkConfigurationE = hidden local_unnamed_addr constant [32 x i8] c"NativePrintersBulkConfiguration\00", align 16
@_ZN6policy3key28kNativePrintersBulkWhitelistE = hidden local_unnamed_addr constant [28 x i8] c"NativePrintersBulkWhitelist\00", align 16
@_ZN6policy3key29kNativeWindowOcclusionEnabledE = hidden local_unnamed_addr constant [29 x i8] c"NativeWindowOcclusionEnabled\00", align 16
@_ZN6policy3key19kNearbyShareAllowedE = hidden local_unnamed_addr constant [19 x i8] c"NearbyShareAllowed\00", align 16
@_ZN6policy3key29kNetBiosShareDiscoveryEnabledE = hidden constant [29 x i8] c"NetBiosShareDiscoveryEnabled\00", align 16
@_ZN6policy3key25kNetworkFileSharesAllowedE = hidden constant [25 x i8] c"NetworkFileSharesAllowed\00", align 16
@_ZN6policy3key37kNetworkFileSharesPreconfiguredSharesE = hidden constant [37 x i8] c"NetworkFileSharesPreconfiguredShares\00", align 16
@_ZN6policy3key25kNetworkPredictionOptionsE = hidden constant [25 x i8] c"NetworkPredictionOptions\00", align 16
@_ZN6policy3key25kNetworkThrottlingEnabledE = hidden local_unnamed_addr constant [25 x i8] c"NetworkThrottlingEnabled\00", align 16
@_ZN6policy3key19kNewTabPageLocationE = hidden constant [19 x i8] c"NewTabPageLocation\00", align 16
@_ZN6policy3key34kNoteTakingAppsLockScreenAllowlistE = hidden local_unnamed_addr constant [34 x i8] c"NoteTakingAppsLockScreenAllowlist\00", align 16
@_ZN6policy3key34kNoteTakingAppsLockScreenWhitelistE = hidden local_unnamed_addr constant [34 x i8] c"NoteTakingAppsLockScreenWhitelist\00", align 16
@_ZN6policy3key28kNotificationsAllowedForUrlsE = hidden constant [28 x i8] c"NotificationsAllowedForUrls\00", align 16
@_ZN6policy3key28kNotificationsBlockedForUrlsE = hidden constant [28 x i8] c"NotificationsBlockedForUrls\00", align 16
@_ZN6policy3key14kNtlmV2EnabledE = hidden constant [14 x i8] c"NtlmV2Enabled\00", align 1
@_ZN6policy3key35kOnBulkDataEntryEnterpriseConnectorE = hidden constant [35 x i8] c"OnBulkDataEntryEnterpriseConnector\00", align 16
@_ZN6policy3key34kOnFileAttachedEnterpriseConnectorE = hidden constant [34 x i8] c"OnFileAttachedEnterpriseConnector\00", align 16
@_ZN6policy3key36kOnFileDownloadedEnterpriseConnectorE = hidden constant [36 x i8] c"OnFileDownloadedEnterpriseConnector\00", align 16
@_ZN6policy3key35kOnSecurityEventEnterpriseConnectorE = hidden constant [35 x i8] c"OnSecurityEventEnterpriseConnector\00", align 16
@_ZN6policy3key25kOpenNetworkConfigurationE = hidden local_unnamed_addr constant [25 x i8] c"OpenNetworkConfiguration\00", align 16
@_ZN6policy3key45kOverrideSecurityRestrictionsOnInsecureOriginE = hidden constant [45 x i8] c"OverrideSecurityRestrictionsOnInsecureOrigin\00", align 16
@_ZN6policy3key28kPacHttpsUrlStrippingEnabledE = hidden local_unnamed_addr constant [28 x i8] c"PacHttpsUrlStrippingEnabled\00", align 16
@_ZN6policy3key23kParentAccessCodeConfigE = hidden local_unnamed_addr constant [23 x i8] c"ParentAccessCodeConfig\00", align 16
@_ZN6policy3key29kPasswordLeakDetectionEnabledE = hidden constant [29 x i8] c"PasswordLeakDetectionEnabled\00", align 16
@_ZN6policy3key34kPasswordManagerAllowShowPasswordsE = hidden constant [34 x i8] c"PasswordManagerAllowShowPasswords\00", align 16
@_ZN6policy3key23kPasswordManagerEnabledE = hidden constant [23 x i8] c"PasswordManagerEnabled\00", align 16
@_ZN6policy3key36kPasswordProtectionChangePasswordURLE = hidden constant [36 x i8] c"PasswordProtectionChangePasswordURL\00", align 16
@_ZN6policy3key28kPasswordProtectionLoginURLsE = hidden constant [28 x i8] c"PasswordProtectionLoginURLs\00", align 16
@_ZN6policy3key33kPasswordProtectionWarningTriggerE = hidden constant [33 x i8] c"PasswordProtectionWarningTrigger\00", align 16
@_ZN6policy3key26kPaymentMethodQueryEnabledE = hidden constant [26 x i8] c"PaymentMethodQueryEnabled\00", align 16
@_ZN6policy3key22kPdfAnnotationsEnabledE = hidden local_unnamed_addr constant [22 x i8] c"PdfAnnotationsEnabled\00", align 16
@_ZN6policy3key17kPerAppTimeLimitsE = hidden local_unnamed_addr constant [17 x i8] c"PerAppTimeLimits\00", align 16
@_ZN6policy3key26kPerAppTimeLimitsAllowlistE = hidden local_unnamed_addr constant [26 x i8] c"PerAppTimeLimitsAllowlist\00", align 16
@_ZN6policy3key26kPerAppTimeLimitsWhitelistE = hidden local_unnamed_addr constant [26 x i8] c"PerAppTimeLimitsWhitelist\00", align 16
@_ZN6policy3key16kPhoneHubAllowedE = hidden local_unnamed_addr constant [16 x i8] c"PhoneHubAllowed\00", align 16
@_ZN6policy3key29kPhoneHubNotificationsAllowedE = hidden local_unnamed_addr constant [29 x i8] c"PhoneHubNotificationsAllowed\00", align 16
@_ZN6policy3key32kPhoneHubTaskContinuationAllowedE = hidden local_unnamed_addr constant [32 x i8] c"PhoneHubTaskContinuationAllowed\00", align 16
@_ZN6policy3key27kPinUnlockAutosubmitEnabledE = hidden constant [27 x i8] c"PinUnlockAutosubmitEnabled\00", align 16
@_ZN6policy3key23kPinUnlockMaximumLengthE = hidden constant [23 x i8] c"PinUnlockMaximumLength\00", align 16
@_ZN6policy3key23kPinUnlockMinimumLengthE = hidden constant [23 x i8] c"PinUnlockMinimumLength\00", align 16
@_ZN6policy3key25kPinUnlockWeakPinsAllowedE = hidden constant [25 x i8] c"PinUnlockWeakPinsAllowed\00", align 16
@_ZN6policy3key19kPinnedLauncherAppsE = hidden local_unnamed_addr constant [19 x i8] c"PinnedLauncherApps\00", align 16
@_ZN6policy3key16kPluginVmAllowedE = hidden constant [16 x i8] c"PluginVmAllowed\00", align 16
@_ZN6policy3key30kPluginVmDataCollectionAllowedE = hidden constant [30 x i8] c"PluginVmDataCollectionAllowed\00", align 16
@_ZN6policy3key14kPluginVmImageE = hidden constant [14 x i8] c"PluginVmImage\00", align 1
@_ZN6policy3key19kPluginVmLicenseKeyE = hidden constant [19 x i8] c"PluginVmLicenseKey\00", align 16
@_ZN6policy3key30kPluginVmRequiredFreeDiskSpaceE = hidden constant [30 x i8] c"PluginVmRequiredFreeDiskSpace\00", align 16
@_ZN6policy3key15kPluginVmUserIdE = hidden constant [15 x i8] c"PluginVmUserId\00", align 1
@_ZN6policy3key22kPluginsAllowedForUrlsE = hidden constant [22 x i8] c"PluginsAllowedForUrls\00", align 16
@_ZN6policy3key22kPluginsBlockedForUrlsE = hidden constant [22 x i8] c"PluginsBlockedForUrls\00", align 16
@_ZN6policy3key26kPolicyAtomicGroupsEnabledE = hidden constant [26 x i8] c"PolicyAtomicGroupsEnabled\00", align 16
@_ZN6policy3key40kPolicyDictionaryMultipleSourceMergeListE = hidden constant [40 x i8] c"PolicyDictionaryMultipleSourceMergeList\00", align 16
@_ZN6policy3key34kPolicyListMultipleSourceMergeListE = hidden constant [34 x i8] c"PolicyListMultipleSourceMergeList\00", align 16
@_ZN6policy3key18kPolicyRefreshRateE = hidden constant [18 x i8] c"PolicyRefreshRate\00", align 16
@_ZN6policy3key21kPopupsAllowedForUrlsE = hidden constant [21 x i8] c"PopupsAllowedForUrls\00", align 16
@_ZN6policy3key21kPopupsBlockedForUrlsE = hidden constant [21 x i8] c"PopupsBlockedForUrls\00", align 16
@_ZN6policy3key28kPowerManagementIdleSettingsE = hidden constant [28 x i8] c"PowerManagementIdleSettings\00", align 16
@_ZN6policy3key33kPowerManagementUsesAudioActivityE = hidden local_unnamed_addr constant [33 x i8] c"PowerManagementUsesAudioActivity\00", align 16
@_ZN6policy3key33kPowerManagementUsesVideoActivityE = hidden local_unnamed_addr constant [33 x i8] c"PowerManagementUsesVideoActivity\00", align 16
@_ZN6policy3key21kPowerSmartDimEnabledE = hidden local_unnamed_addr constant [21 x i8] c"PowerSmartDimEnabled\00", align 16
@_ZN6policy3key27kPresentationIdleDelayScaleE = hidden local_unnamed_addr constant [27 x i8] c"PresentationIdleDelayScale\00", align 16
@_ZN6policy3key32kPresentationScreenDimDelayScaleE = hidden local_unnamed_addr constant [32 x i8] c"PresentationScreenDimDelayScale\00", align 16
@_ZN6policy3key25kPrimaryMouseButtonSwitchE = hidden local_unnamed_addr constant [25 x i8] c"PrimaryMouseButtonSwitch\00", align 16
@_ZN6policy3key18kPrintHeaderFooterE = hidden constant [18 x i8] c"PrintHeaderFooter\00", align 16
@_ZN6policy3key32kPrintJobHistoryExpirationPeriodE = hidden local_unnamed_addr constant [32 x i8] c"PrintJobHistoryExpirationPeriod\00", align 16
@_ZN6policy3key36kPrintPreviewUseSystemDefaultPrinterE = hidden constant [36 x i8] c"PrintPreviewUseSystemDefaultPrinter\00", align 16
@_ZN6policy3key23kPrintRasterizationModeE = hidden local_unnamed_addr constant [23 x i8] c"PrintRasterizationMode\00", align 16
@_ZN6policy3key20kPrinterTypeDenyListE = hidden constant [20 x i8] c"PrinterTypeDenyList\00", align 16
@_ZN6policy3key9kPrintersE = hidden local_unnamed_addr constant [9 x i8] c"Printers\00", align 1
@_ZN6policy3key23kPrintersBulkAccessModeE = hidden local_unnamed_addr constant [23 x i8] c"PrintersBulkAccessMode\00", align 16
@_ZN6policy3key22kPrintersBulkAllowlistE = hidden local_unnamed_addr constant [22 x i8] c"PrintersBulkAllowlist\00", align 16
@_ZN6policy3key22kPrintersBulkBlocklistE = hidden local_unnamed_addr constant [22 x i8] c"PrintersBulkBlocklist\00", align 16
@_ZN6policy3key26kPrintersBulkConfigurationE = hidden local_unnamed_addr constant [26 x i8] c"PrintersBulkConfiguration\00", align 16
@_ZN6policy3key31kPrintingAPIExtensionsAllowlistE = hidden local_unnamed_addr constant [31 x i8] c"PrintingAPIExtensionsAllowlist\00", align 16
@_ZN6policy3key31kPrintingAPIExtensionsWhitelistE = hidden local_unnamed_addr constant [31 x i8] c"PrintingAPIExtensionsWhitelist\00", align 16
@_ZN6policy3key39kPrintingAllowedBackgroundGraphicsModesE = hidden constant [39 x i8] c"PrintingAllowedBackgroundGraphicsModes\00", align 16
@_ZN6policy3key26kPrintingAllowedColorModesE = hidden local_unnamed_addr constant [26 x i8] c"PrintingAllowedColorModes\00", align 16
@_ZN6policy3key27kPrintingAllowedDuplexModesE = hidden local_unnamed_addr constant [27 x i8] c"PrintingAllowedDuplexModes\00", align 16
@_ZN6policy3key24kPrintingAllowedPinModesE = hidden local_unnamed_addr constant [24 x i8] c"PrintingAllowedPinModes\00", align 16
@_ZN6policy3key34kPrintingBackgroundGraphicsDefaultE = hidden constant [34 x i8] c"PrintingBackgroundGraphicsDefault\00", align 16
@_ZN6policy3key21kPrintingColorDefaultE = hidden local_unnamed_addr constant [21 x i8] c"PrintingColorDefault\00", align 16
@_ZN6policy3key22kPrintingDuplexDefaultE = hidden local_unnamed_addr constant [22 x i8] c"PrintingDuplexDefault\00", align 16
@_ZN6policy3key16kPrintingEnabledE = hidden constant [16 x i8] c"PrintingEnabled\00", align 16
@_ZN6policy3key25kPrintingMaxSheetsAllowedE = hidden local_unnamed_addr constant [25 x i8] c"PrintingMaxSheetsAllowed\00", align 16
@_ZN6policy3key25kPrintingPaperSizeDefaultE = hidden constant [25 x i8] c"PrintingPaperSizeDefault\00", align 16
@_ZN6policy3key19kPrintingPinDefaultE = hidden local_unnamed_addr constant [19 x i8] c"PrintingPinDefault\00", align 16
@_ZN6policy3key39kPrintingSendUsernameAndFilenameEnabledE = hidden local_unnamed_addr constant [39 x i8] c"PrintingSendUsernameAndFilenameEnabled\00", align 16
@_ZN6policy3key21kPrivacyScreenEnabledE = hidden local_unnamed_addr constant [21 x i8] c"PrivacyScreenEnabled\00", align 16
@_ZN6policy3key35kProfilePickerOnStartupAvailabilityE = hidden constant [35 x i8] c"ProfilePickerOnStartupAvailability\00", align 16
@_ZN6policy3key23kPromotionalTabsEnabledE = hidden constant [23 x i8] c"PromotionalTabsEnabled\00", align 16
@_ZN6policy3key26kPromptForDownloadLocationE = hidden constant [26 x i8] c"PromptForDownloadLocation\00", align 16
@_ZN6policy3key16kProxyBypassListE = hidden constant [16 x i8] c"ProxyBypassList\00", align 16
@_ZN6policy3key10kProxyModeE = hidden constant [10 x i8] c"ProxyMode\00", align 1
@_ZN6policy3key12kProxyPacUrlE = hidden constant [12 x i8] c"ProxyPacUrl\00", align 1
@_ZN6policy3key12kProxyServerE = hidden constant [12 x i8] c"ProxyServer\00", align 1
@_ZN6policy3key16kProxyServerModeE = hidden constant [16 x i8] c"ProxyServerMode\00", align 16
@_ZN6policy3key14kProxySettingsE = hidden constant [14 x i8] c"ProxySettings\00", align 1
@_ZN6policy3key12kQuicAllowedE = hidden constant [12 x i8] c"QuicAllowed\00", align 1
@_ZN6policy3key25kQuickUnlockModeAllowlistE = hidden constant [25 x i8] c"QuickUnlockModeAllowlist\00", align 16
@_ZN6policy3key25kQuickUnlockModeWhitelistE = hidden constant [25 x i8] c"QuickUnlockModeWhitelist\00", align 16
@_ZN6policy3key19kQuickUnlockTimeoutE = hidden constant [19 x i8] c"QuickUnlockTimeout\00", align 16
@_ZN6policy3key11kRC4EnabledE = hidden local_unnamed_addr constant [11 x i8] c"RC4Enabled\00", align 1
@_ZN6policy3key18kRebootAfterUpdateE = hidden local_unnamed_addr constant [18 x i8] c"RebootAfterUpdate\00", align 16
@_ZN6policy3key27kRegisteredProtocolHandlersE = hidden constant [27 x i8] c"RegisteredProtocolHandlers\00", align 16
@_ZN6policy3key22kRelaunchHeadsUpPeriodE = hidden local_unnamed_addr constant [22 x i8] c"RelaunchHeadsUpPeriod\00", align 16
@_ZN6policy3key21kRelaunchNotificationE = hidden constant [21 x i8] c"RelaunchNotification\00", align 16
@_ZN6policy3key27kRelaunchNotificationPeriodE = hidden constant [27 x i8] c"RelaunchNotificationPeriod\00", align 16
@_ZN6policy3key15kRelaunchWindowE = hidden constant [15 x i8] c"RelaunchWindow\00", align 1
@_ZN6policy3key36kRemoteAccessClientFirewallTraversalE = hidden constant [36 x i8] c"RemoteAccessClientFirewallTraversal\00", align 16
@_ZN6policy3key35kRemoteAccessHostAllowClientPairingE = hidden constant [35 x i8] c"RemoteAccessHostAllowClientPairing\00", align 16
@_ZN6policy3key34kRemoteAccessHostAllowFileTransferE = hidden constant [34 x i8] c"RemoteAccessHostAllowFileTransfer\00", align 16
@_ZN6policy3key32kRemoteAccessHostAllowGnubbyAuthE = hidden constant [32 x i8] c"RemoteAccessHostAllowGnubbyAuth\00", align 16
@_ZN6policy3key39kRemoteAccessHostAllowRelayedConnectionE = hidden constant [39 x i8] c"RemoteAccessHostAllowRelayedConnection\00", align 16
@_ZN6policy3key45kRemoteAccessHostAllowRemoteAccessConnectionsE = hidden constant [45 x i8] c"RemoteAccessHostAllowRemoteAccessConnections\00", align 16
@_ZN6policy3key49kRemoteAccessHostAllowUiAccessForRemoteAssistanceE = hidden constant [49 x i8] c"RemoteAccessHostAllowUiAccessForRemoteAssistance\00", align 16
@_ZN6policy3key29kRemoteAccessHostClientDomainE = hidden constant [29 x i8] c"RemoteAccessHostClientDomain\00", align 16
@_ZN6policy3key33kRemoteAccessHostClientDomainListE = hidden constant [33 x i8] c"RemoteAccessHostClientDomainList\00", align 16
@_ZN6policy3key38kRemoteAccessHostDebugOverridePoliciesE = hidden constant [38 x i8] c"RemoteAccessHostDebugOverridePolicies\00", align 16
@_ZN6policy3key23kRemoteAccessHostDomainE = hidden constant [23 x i8] c"RemoteAccessHostDomain\00", align 16
@_ZN6policy3key27kRemoteAccessHostDomainListE = hidden constant [27 x i8] c"RemoteAccessHostDomainList\00", align 16
@_ZN6policy3key36kRemoteAccessHostEnableUserInterfaceE = hidden constant [36 x i8] c"RemoteAccessHostEnableUserInterface\00", align 16
@_ZN6policy3key34kRemoteAccessHostFirewallTraversalE = hidden constant [34 x i8] c"RemoteAccessHostFirewallTraversal\00", align 16
@_ZN6policy3key30kRemoteAccessHostMatchUsernameE = hidden constant [30 x i8] c"RemoteAccessHostMatchUsername\00", align 16
@_ZN6policy3key46kRemoteAccessHostMaximumSessionDurationMinutesE = hidden constant [46 x i8] c"RemoteAccessHostMaximumSessionDurationMinutes\00", align 16
@_ZN6policy3key31kRemoteAccessHostRequireCurtainE = hidden constant [31 x i8] c"RemoteAccessHostRequireCurtain\00", align 16
@_ZN6policy3key33kRemoteAccessHostRequireTwoFactorE = hidden constant [33 x i8] c"RemoteAccessHostRequireTwoFactor\00", align 16
@_ZN6policy3key33kRemoteAccessHostTalkGadgetPrefixE = hidden constant [33 x i8] c"RemoteAccessHostTalkGadgetPrefix\00", align 16
@_ZN6policy3key25kRemoteAccessHostTokenUrlE = hidden constant [25 x i8] c"RemoteAccessHostTokenUrl\00", align 16
@_ZN6policy3key49kRemoteAccessHostTokenValidationCertificateIssuerE = hidden constant [49 x i8] c"RemoteAccessHostTokenValidationCertificateIssuer\00", align 16
@_ZN6policy3key35kRemoteAccessHostTokenValidationUrlE = hidden constant [35 x i8] c"RemoteAccessHostTokenValidationUrl\00", align 16
@_ZN6policy3key29kRemoteAccessHostUdpPortRangeE = hidden constant [29 x i8] c"RemoteAccessHostUdpPortRange\00", align 16
@_ZN6policy3key24kRenderInChromeFrameListE = hidden local_unnamed_addr constant [24 x i8] c"RenderInChromeFrameList\00", align 16
@_ZN6policy3key17kRenderInHostListE = hidden local_unnamed_addr constant [17 x i8] c"RenderInHostList\00", align 16
@_ZN6policy3key29kRendererCodeIntegrityEnabledE = hidden local_unnamed_addr constant [29 x i8] c"RendererCodeIntegrityEnabled\00", align 16
@_ZN6policy3key23kReportArcStatusEnabledE = hidden constant [23 x i8] c"ReportArcStatusEnabled\00", align 16
@_ZN6policy3key27kReportCrostiniUsageEnabledE = hidden local_unnamed_addr constant [27 x i8] c"ReportCrostiniUsageEnabled\00", align 16
@_ZN6policy3key26kReportDeviceActivityTimesE = hidden constant [26 x i8] c"ReportDeviceActivityTimes\00", align 16
@_ZN6policy3key20kReportDeviceAppInfoE = hidden constant [20 x i8] c"ReportDeviceAppInfo\00", align 16
@_ZN6policy3key26kReportDeviceBacklightInfoE = hidden constant [26 x i8] c"ReportDeviceBacklightInfo\00", align 16
@_ZN6policy3key26kReportDeviceBluetoothInfoE = hidden constant [26 x i8] c"ReportDeviceBluetoothInfo\00", align 16
@_ZN6policy3key24kReportDeviceBoardStatusE = hidden constant [24 x i8] c"ReportDeviceBoardStatus\00", align 16
@_ZN6policy3key21kReportDeviceBootModeE = hidden constant [21 x i8] c"ReportDeviceBootMode\00", align 16
@_ZN6policy3key20kReportDeviceCpuInfoE = hidden constant [20 x i8] c"ReportDeviceCpuInfo\00", align 16
@_ZN6policy3key28kReportDeviceCrashReportInfoE = hidden constant [28 x i8] c"ReportDeviceCrashReportInfo\00", align 16
@_ZN6policy3key20kReportDeviceFanInfoE = hidden constant [20 x i8] c"ReportDeviceFanInfo\00", align 16
@_ZN6policy3key27kReportDeviceGraphicsStatusE = hidden constant [27 x i8] c"ReportDeviceGraphicsStatus\00", align 16
@_ZN6policy3key27kReportDeviceHardwareStatusE = hidden constant [27 x i8] c"ReportDeviceHardwareStatus\00", align 16
@_ZN6policy3key21kReportDeviceLocationE = hidden constant [21 x i8] c"ReportDeviceLocation\00", align 16
@_ZN6policy3key23kReportDeviceMemoryInfoE = hidden constant [23 x i8] c"ReportDeviceMemoryInfo\00", align 16
@_ZN6policy3key30kReportDeviceNetworkInterfacesE = hidden constant [30 x i8] c"ReportDeviceNetworkInterfaces\00", align 16
@_ZN6policy3key27kReportDeviceOsUpdateStatusE = hidden constant [27 x i8] c"ReportDeviceOsUpdateStatus\00", align 16
@_ZN6policy3key24kReportDevicePowerStatusE = hidden constant [24 x i8] c"ReportDevicePowerStatus\00", align 16
@_ZN6policy3key22kReportDevicePrintJobsE = hidden constant [22 x i8] c"ReportDevicePrintJobs\00", align 16
@_ZN6policy3key26kReportDeviceSessionStatusE = hidden constant [26 x i8] c"ReportDeviceSessionStatus\00", align 16
@_ZN6policy3key26kReportDeviceStorageStatusE = hidden constant [26 x i8] c"ReportDeviceStorageStatus\00", align 16
@_ZN6policy3key23kReportDeviceSystemInfoE = hidden constant [23 x i8] c"ReportDeviceSystemInfo\00", align 16
@_ZN6policy3key25kReportDeviceTimezoneInfoE = hidden constant [25 x i8] c"ReportDeviceTimezoneInfo\00", align 16
@_ZN6policy3key18kReportDeviceUsersE = hidden constant [18 x i8] c"ReportDeviceUsers\00", align 16
@_ZN6policy3key24kReportDeviceVersionInfoE = hidden constant [24 x i8] c"ReportDeviceVersionInfo\00", align 16
@_ZN6policy3key20kReportDeviceVpdInfoE = hidden constant [20 x i8] c"ReportDeviceVpdInfo\00", align 16
@_ZN6policy3key31kReportExtensionsAndPluginsDataE = hidden constant [31 x i8] c"ReportExtensionsAndPluginsData\00", align 16
@_ZN6policy3key20kReportMachineIDDataE = hidden constant [20 x i8] c"ReportMachineIDData\00", align 16
@_ZN6policy3key17kReportPolicyDataE = hidden constant [17 x i8] c"ReportPolicyData\00", align 16
@_ZN6policy3key23kReportSafeBrowsingDataE = hidden local_unnamed_addr constant [23 x i8] c"ReportSafeBrowsingData\00", align 16
@_ZN6policy3key22kReportUploadFrequencyE = hidden constant [22 x i8] c"ReportUploadFrequency\00", align 16
@_ZN6policy3key17kReportUserIDDataE = hidden constant [17 x i8] c"ReportUserIDData\00", align 16
@_ZN6policy3key18kReportVersionDataE = hidden constant [18 x i8] c"ReportVersionData\00", align 16
@_ZN6policy3key45kRequireOnlineRevocationChecksForLocalAnchorsE = hidden constant [45 x i8] c"RequireOnlineRevocationChecksForLocalAnchors\00", align 16
@_ZN6policy3key35kRequiredClientCertificateForDeviceE = hidden local_unnamed_addr constant [35 x i8] c"RequiredClientCertificateForDevice\00", align 16
@_ZN6policy3key33kRequiredClientCertificateForUserE = hidden local_unnamed_addr constant [33 x i8] c"RequiredClientCertificateForUser\00", align 16
@_ZN6policy3key17kRestoreOnStartupE = hidden constant [17 x i8] c"RestoreOnStartup\00", align 16
@_ZN6policy3key21kRestoreOnStartupURLsE = hidden constant [21 x i8] c"RestoreOnStartupURLs\00", align 16
@_ZN6policy3key27kRestrictAccountsToPatternsE = hidden local_unnamed_addr constant [27 x i8] c"RestrictAccountsToPatterns\00", align 16
@_ZN6policy3key24kRestrictSigninToPatternE = hidden constant [24 x i8] c"RestrictSigninToPattern\00", align 16
@_ZN6policy3key23kRoamingProfileLocationE = hidden constant [23 x i8] c"RoamingProfileLocation\00", align 16
@_ZN6policy3key29kRoamingProfileSupportEnabledE = hidden constant [29 x i8] c"RoamingProfileSupportEnabled\00", align 16
@_ZN6policy3key23kRunAllFlashInAllowModeE = hidden local_unnamed_addr constant [23 x i8] c"RunAllFlashInAllowMode\00", align 16
@_ZN6policy3key27kSAMLOfflineSigninTimeLimitE = hidden local_unnamed_addr constant [27 x i8] c"SAMLOfflineSigninTimeLimit\00", align 16
@_ZN6policy3key24kSSLErrorOverrideAllowedE = hidden constant [24 x i8] c"SSLErrorOverrideAllowed\00", align 16
@_ZN6policy3key34kSSLErrorOverrideAllowedForOriginsE = hidden constant [34 x i8] c"SSLErrorOverrideAllowedForOrigins\00", align 16
@_ZN6policy3key22kSSLVersionFallbackMinE = hidden local_unnamed_addr constant [22 x i8] c"SSLVersionFallbackMin\00", align 16
@_ZN6policy3key14kSSLVersionMaxE = hidden local_unnamed_addr constant [14 x i8] c"SSLVersionMax\00", align 1
@_ZN6policy3key14kSSLVersionMinE = hidden constant [14 x i8] c"SSLVersionMin\00", align 1
@_ZN6policy3key29kSafeBrowsingAllowlistDomainsE = hidden constant [29 x i8] c"SafeBrowsingAllowlistDomains\00", align 16
@_ZN6policy3key20kSafeBrowsingEnabledE = hidden constant [20 x i8] c"SafeBrowsingEnabled\00", align 16
@_ZN6policy3key37kSafeBrowsingExtendedReportingEnabledE = hidden constant [37 x i8] c"SafeBrowsingExtendedReportingEnabled\00", align 16
@_ZN6policy3key42kSafeBrowsingExtendedReportingOptInAllowedE = hidden local_unnamed_addr constant [42 x i8] c"SafeBrowsingExtendedReportingOptInAllowed\00", align 16
@_ZN6policy3key37kSafeBrowsingForTrustedSourcesEnabledE = hidden local_unnamed_addr constant [37 x i8] c"SafeBrowsingForTrustedSourcesEnabled\00", align 16
@_ZN6policy3key28kSafeBrowsingProtectionLevelE = hidden constant [28 x i8] c"SafeBrowsingProtectionLevel\00", align 16
@_ZN6policy3key29kSafeBrowsingWhitelistDomainsE = hidden constant [29 x i8] c"SafeBrowsingWhitelistDomains\00", align 16
@_ZN6policy3key24kSafeSitesFilterBehaviorE = hidden constant [24 x i8] c"SafeSitesFilterBehavior\00", align 16
@_ZN6policy3key35kSamlInSessionPasswordChangeEnabledE = hidden local_unnamed_addr constant [35 x i8] c"SamlInSessionPasswordChangeEnabled\00", align 16
@_ZN6policy3key41kSamlLockScreenOfflineSigninTimeLimitDaysE = hidden local_unnamed_addr constant [41 x i8] c"SamlLockScreenOfflineSigninTimeLimitDays\00", align 16
@_ZN6policy3key41kSamlPasswordExpirationAdvanceWarningDaysE = hidden local_unnamed_addr constant [41 x i8] c"SamlPasswordExpirationAdvanceWarningDays\00", align 16
@_ZN6policy3key29kSavingBrowserHistoryDisabledE = hidden constant [29 x i8] c"SavingBrowserHistoryDisabled\00", align 16
@_ZN6policy3key23kSchedulerConfigurationE = hidden local_unnamed_addr constant [23 x i8] c"SchedulerConfiguration\00", align 16
@_ZN6policy3key24kScreenBrightnessPercentE = hidden constant [24 x i8] c"ScreenBrightnessPercent\00", align 16
@_ZN6policy3key21kScreenCaptureAllowedE = hidden constant [21 x i8] c"ScreenCaptureAllowed\00", align 16
@_ZN6policy3key17kScreenDimDelayACE = hidden local_unnamed_addr constant [17 x i8] c"ScreenDimDelayAC\00", align 16
@_ZN6policy3key22kScreenDimDelayBatteryE = hidden local_unnamed_addr constant [22 x i8] c"ScreenDimDelayBattery\00", align 16
@_ZN6policy3key18kScreenLockDelayACE = hidden local_unnamed_addr constant [18 x i8] c"ScreenLockDelayAC\00", align 16
@_ZN6policy3key23kScreenLockDelayBatteryE = hidden local_unnamed_addr constant [23 x i8] c"ScreenLockDelayBattery\00", align 16
@_ZN6policy3key17kScreenLockDelaysE = hidden constant [17 x i8] c"ScreenLockDelays\00", align 16
@_ZN6policy3key20kScreenMagnifierTypeE = hidden local_unnamed_addr constant [20 x i8] c"ScreenMagnifierType\00", align 16
@_ZN6policy3key17kScreenOffDelayACE = hidden local_unnamed_addr constant [17 x i8] c"ScreenOffDelayAC\00", align 16
@_ZN6policy3key22kScreenOffDelayBatteryE = hidden local_unnamed_addr constant [22 x i8] c"ScreenOffDelayBattery\00", align 16
@_ZN6policy3key28kScrollToTextFragmentEnabledE = hidden constant [28 x i8] c"ScrollToTextFragmentEnabled\00", align 16
@_ZN6policy3key21kSearchSuggestEnabledE = hidden constant [21 x i8] c"SearchSuggestEnabled\00", align 16
@_ZN6policy3key36kSecondaryGoogleAccountSigninAllowedE = hidden local_unnamed_addr constant [36 x i8] c"SecondaryGoogleAccountSigninAllowed\00", align 16
@_ZN6policy3key29kSecurityKeyPermitAttestationE = hidden constant [29 x i8] c"SecurityKeyPermitAttestation\00", align 16
@_ZN6policy3key29kSecurityTokenSessionBehaviorE = hidden local_unnamed_addr constant [29 x i8] c"SecurityTokenSessionBehavior\00", align 16
@_ZN6policy3key40kSecurityTokenSessionNotificationSecondsE = hidden local_unnamed_addr constant [40 x i8] c"SecurityTokenSessionNotificationSeconds\00", align 16
@_ZN6policy3key21kSelectToSpeakEnabledE = hidden local_unnamed_addr constant [21 x i8] c"SelectToSpeakEnabled\00", align 16
@_ZN6policy3key39kSendDownloadToCloudEnterpriseConnectorE = hidden constant [39 x i8] c"SendDownloadToCloudEnterpriseConnector\00", align 16
@_ZN6policy3key22kSensorsAllowedForUrlsE = hidden constant [22 x i8] c"SensorsAllowedForUrls\00", align 16
@_ZN6policy3key22kSensorsBlockedForUrlsE = hidden constant [22 x i8] c"SensorsBlockedForUrls\00", align 16
@_ZN6policy3key27kSerialAllowAllPortsForUrlsE = hidden constant [27 x i8] c"SerialAllowAllPortsForUrls\00", align 16
@_ZN6policy3key29kSerialAllowUsbDevicesForUrlsE = hidden constant [29 x i8] c"SerialAllowUsbDevicesForUrls\00", align 16
@_ZN6policy3key17kSerialAskForUrlsE = hidden constant [17 x i8] c"SerialAskForUrls\00", align 16
@_ZN6policy3key21kSerialBlockedForUrlsE = hidden constant [21 x i8] c"SerialBlockedForUrls\00", align 16
@_ZN6policy3key19kSessionLengthLimitE = hidden local_unnamed_addr constant [19 x i8] c"SessionLengthLimit\00", align 16
@_ZN6policy3key15kSessionLocalesE = hidden local_unnamed_addr constant [15 x i8] c"SessionLocales\00", align 1
@_ZN6policy3key43kSharedArrayBufferUnrestrictedAccessAllowedE = hidden constant [43 x i8] c"SharedArrayBufferUnrestrictedAccessAllowed\00", align 16
@_ZN6policy3key23kSharedClipboardEnabledE = hidden constant [23 x i8] c"SharedClipboardEnabled\00", align 16
@_ZN6policy3key15kShelfAlignmentE = hidden local_unnamed_addr constant [15 x i8] c"ShelfAlignment\00", align 1
@_ZN6policy3key22kShelfAutoHideBehaviorE = hidden local_unnamed_addr constant [22 x i8] c"ShelfAutoHideBehavior\00", align 16
@_ZN6policy3key41kShowAccessibilityOptionsInSystemTrayMenuE = hidden local_unnamed_addr constant [41 x i8] c"ShowAccessibilityOptionsInSystemTrayMenu\00", align 16
@_ZN6policy3key30kShowAppsShortcutInBookmarkBarE = hidden constant [30 x i8] c"ShowAppsShortcutInBookmarkBar\00", align 16
@_ZN6policy3key22kShowCastIconInToolbarE = hidden constant [22 x i8] c"ShowCastIconInToolbar\00", align 16
@_ZN6policy3key25kShowFullUrlsInAddressBarE = hidden constant [25 x i8] c"ShowFullUrlsInAddressBar\00", align 16
@_ZN6policy3key15kShowHomeButtonE = hidden constant [15 x i8] c"ShowHomeButton\00", align 1
@_ZN6policy3key23kShowLogoutButtonInTrayE = hidden local_unnamed_addr constant [23 x i8] c"ShowLogoutButtonInTray\00", align 16
@_ZN6policy3key26kSignedHTTPExchangeEnabledE = hidden constant [26 x i8] c"SignedHTTPExchangeEnabled\00", align 16
@_ZN6policy3key14kSigninAllowedE = hidden constant [14 x i8] c"SigninAllowed\00", align 1
@_ZN6policy3key26kSigninInterceptionEnabledE = hidden constant [26 x i8] c"SigninInterceptionEnabled\00", align 16
@_ZN6policy3key15kSitePerProcessE = hidden constant [15 x i8] c"SitePerProcess\00", align 1
@_ZN6policy3key22kSitePerProcessAndroidE = hidden local_unnamed_addr constant [22 x i8] c"SitePerProcessAndroid\00", align 16
@_ZN6policy3key18kSkipMetadataCheckE = hidden local_unnamed_addr constant [18 x i8] c"SkipMetadataCheck\00", align 16
@_ZN6policy3key23kSmartLockSigninAllowedE = hidden local_unnamed_addr constant [23 x i8] c"SmartLockSigninAllowed\00", align 16
@_ZN6policy3key19kSmsMessagesAllowedE = hidden local_unnamed_addr constant [19 x i8] c"SmsMessagesAllowed\00", align 16
@_ZN6policy3key25kSpellCheckServiceEnabledE = hidden constant [25 x i8] c"SpellCheckServiceEnabled\00", align 16
@_ZN6policy3key18kSpellcheckEnabledE = hidden constant [18 x i8] c"SpellcheckEnabled\00", align 16
@_ZN6policy3key19kSpellcheckLanguageE = hidden constant [19 x i8] c"SpellcheckLanguage\00", align 16
@_ZN6policy3key28kSpellcheckLanguageBlacklistE = hidden constant [28 x i8] c"SpellcheckLanguageBlacklist\00", align 16
@_ZN6policy3key28kSpellcheckLanguageBlocklistE = hidden constant [28 x i8] c"SpellcheckLanguageBlocklist\00", align 16
@_ZN6policy3key22kSpokenFeedbackEnabledE = hidden local_unnamed_addr constant [22 x i8] c"SpokenFeedbackEnabled\00", align 16
@_ZN6policy3key37kStartupBrowserWindowLaunchSuppressedE = hidden local_unnamed_addr constant [37 x i8] c"StartupBrowserWindowLaunchSuppressed\00", align 16
@_ZN6policy3key18kStickyKeysEnabledE = hidden local_unnamed_addr constant [18 x i8] c"StickyKeysEnabled\00", align 16
@_ZN6policy3key37kStricterMixedContentTreatmentEnabledE = hidden constant [37 x i8] c"StricterMixedContentTreatmentEnabled\00", align 16
@_ZN6policy3key36kSuggestLogoutAfterClosingLastWindowE = hidden local_unnamed_addr constant [36 x i8] c"SuggestLogoutAfterClosingLastWindow\00", align 16
@_ZN6policy3key24kSuggestedContentEnabledE = hidden local_unnamed_addr constant [24 x i8] c"SuggestedContentEnabled\00", align 16
@_ZN6policy3key37kSupervisedUserContentProviderEnabledE = hidden constant [37 x i8] c"SupervisedUserContentProviderEnabled\00", align 16
@_ZN6policy3key30kSupervisedUserCreationEnabledE = hidden constant [30 x i8] c"SupervisedUserCreationEnabled\00", align 16
@_ZN6policy3key23kSupervisedUsersEnabledE = hidden constant [23 x i8] c"SupervisedUsersEnabled\00", align 16
@_ZN6policy3key34kSuppressChromeFrameTurndownPromptE = hidden local_unnamed_addr constant [34 x i8] c"SuppressChromeFrameTurndownPrompt\00", align 16
@_ZN6policy3key39kSuppressDifferentOriginSubframeDialogsE = hidden constant [39 x i8] c"SuppressDifferentOriginSubframeDialogs\00", align 16
@_ZN6policy3key29kSuppressUnsupportedOSWarningE = hidden constant [29 x i8] c"SuppressUnsupportedOSWarning\00", align 16
@_ZN6policy3key13kSyncDisabledE = hidden constant [13 x i8] c"SyncDisabled\00", align 1
@_ZN6policy3key22kSyncTypesListDisabledE = hidden constant [22 x i8] c"SyncTypesListDisabled\00", align 16
@_ZN6policy3key26kSystemFeaturesDisableListE = hidden local_unnamed_addr constant [26 x i8] c"SystemFeaturesDisableList\00", align 16
@_ZN6policy3key26kSystemFeaturesDisableModeE = hidden local_unnamed_addr constant [26 x i8] c"SystemFeaturesDisableMode\00", align 16
@_ZN6policy3key20kSystemProxySettingsE = hidden local_unnamed_addr constant [20 x i8] c"SystemProxySettings\00", align 16
@_ZN6policy3key15kSystemTimezoneE = hidden constant [15 x i8] c"SystemTimezone\00", align 1
@_ZN6policy3key33kSystemTimezoneAutomaticDetectionE = hidden constant [33 x i8] c"SystemTimezoneAutomaticDetection\00", align 16
@_ZN6policy3key21kSystemUse24HourClockE = hidden local_unnamed_addr constant [21 x i8] c"SystemUse24HourClock\00", align 16
@_ZN6policy3key37kTLS13HardeningForLocalAnchorsEnabledE = hidden local_unnamed_addr constant [37 x i8] c"TLS13HardeningForLocalAnchorsEnabled\00", align 16
@_ZN6policy3key26kTPMFirmwareUpdateSettingsE = hidden local_unnamed_addr constant [26 x i8] c"TPMFirmwareUpdateSettings\00", align 16
@_ZN6policy3key19kTabFreezingEnabledE = hidden local_unnamed_addr constant [19 x i8] c"TabFreezingEnabled\00", align 16
@_ZN6policy3key16kTabUnderAllowedE = hidden local_unnamed_addr constant [16 x i8] c"TabUnderAllowed\00", align 16
@_ZN6policy3key27kTargetBlankImpliesNoOpenerE = hidden constant [27 x i8] c"TargetBlankImpliesNoOpener\00", align 16
@_ZN6policy3key29kTaskManagerEndProcessEnabledE = hidden constant [29 x i8] c"TaskManagerEndProcessEnabled\00", align 16
@_ZN6policy3key18kTermsOfServiceURLE = hidden local_unnamed_addr constant [18 x i8] c"TermsOfServiceURL\00", align 16
@_ZN6policy3key26kThirdPartyBlockingEnabledE = hidden local_unnamed_addr constant [26 x i8] c"ThirdPartyBlockingEnabled\00", align 16
@_ZN6policy3key18kTosDialogBehaviorE = hidden local_unnamed_addr constant [18 x i8] c"TosDialogBehavior\00", align 16
@_ZN6policy3key19kTotalMemoryLimitMbE = hidden local_unnamed_addr constant [19 x i8] c"TotalMemoryLimitMb\00", align 16
@_ZN6policy3key28kTouchVirtualKeyboardEnabledE = hidden local_unnamed_addr constant [28 x i8] c"TouchVirtualKeyboardEnabled\00", align 16
@_ZN6policy3key17kTranslateEnabledE = hidden constant [17 x i8] c"TranslateEnabled\00", align 16
@_ZN6policy3key17kTripleDESEnabledE = hidden constant [17 x i8] c"TripleDESEnabled\00", align 16
@_ZN6policy3key13kURLAllowlistE = hidden constant [13 x i8] c"URLAllowlist\00", align 1
@_ZN6policy3key13kURLBlacklistE = hidden constant [13 x i8] c"URLBlacklist\00", align 1
@_ZN6policy3key13kURLBlocklistE = hidden constant [13 x i8] c"URLBlocklist\00", align 1
@_ZN6policy3key13kURLWhitelistE = hidden constant [13 x i8] c"URLWhitelist\00", align 1
@_ZN6policy3key23kUnaffiliatedArcAllowedE = hidden local_unnamed_addr constant [23 x i8] c"UnaffiliatedArcAllowed\00", align 16
@_ZN6policy3key31kUnifiedDesktopEnabledByDefaultE = hidden local_unnamed_addr constant [31 x i8] c"UnifiedDesktopEnabledByDefault\00", align 16
@_ZN6policy3key36kUnsafelyTreatInsecureOriginAsSecureE = hidden constant [36 x i8] c"UnsafelyTreatInsecureOriginAsSecure\00", align 16
@_ZN6policy3key12kUptimeLimitE = hidden local_unnamed_addr constant [12 x i8] c"UptimeLimit\00", align 1
@_ZN6policy3key40kUrlKeyedAnonymizedDataCollectionEnabledE = hidden constant [40 x i8] c"UrlKeyedAnonymizedDataCollectionEnabled\00", align 16
@_ZN6policy3key15kUsageTimeLimitE = hidden local_unnamed_addr constant [15 x i8] c"UsageTimeLimit\00", align 1
@_ZN6policy3key23kUsbDetachableAllowlistE = hidden local_unnamed_addr constant [23 x i8] c"UsbDetachableAllowlist\00", align 16
@_ZN6policy3key23kUsbDetachableWhitelistE = hidden local_unnamed_addr constant [23 x i8] c"UsbDetachableWhitelist\00", align 16
@_ZN6policy3key22kUseLegacyFormControlsE = hidden local_unnamed_addr constant [22 x i8] c"UseLegacyFormControls\00", align 16
@_ZN6policy3key32kUserActivityScreenDimDelayScaleE = hidden local_unnamed_addr constant [32 x i8] c"UserActivityScreenDimDelayScale\00", align 16
@_ZN6policy3key28kUserAgentClientHintsEnabledE = hidden constant [28 x i8] c"UserAgentClientHintsEnabled\00", align 16
@_ZN6policy3key16kUserAvatarImageE = hidden local_unnamed_addr constant [16 x i8] c"UserAvatarImage\00", align 16
@_ZN6policy3key20kUserBorealisAllowedE = hidden local_unnamed_addr constant [20 x i8] c"UserBorealisAllowed\00", align 16
@_ZN6policy3key12kUserDataDirE = hidden local_unnamed_addr constant [12 x i8] c"UserDataDir\00", align 1
@_ZN6policy3key31kUserDataSnapshotRetentionLimitE = hidden constant [31 x i8] c"UserDataSnapshotRetentionLimit\00", align 16
@_ZN6policy3key16kUserDisplayNameE = hidden local_unnamed_addr constant [16 x i8] c"UserDisplayName\00", align 16
@_ZN6policy3key20kUserFeedbackAllowedE = hidden constant [20 x i8] c"UserFeedbackAllowed\00", align 16
@_ZN6policy3key26kUserNativePrintersAllowedE = hidden local_unnamed_addr constant [26 x i8] c"UserNativePrintersAllowed\00", align 16
@_ZN6policy3key20kUserPluginVmAllowedE = hidden constant [20 x i8] c"UserPluginVmAllowed\00", align 16
@_ZN6policy3key20kUserPrintersAllowedE = hidden local_unnamed_addr constant [20 x i8] c"UserPrintersAllowed\00", align 16
@_ZN6policy3key28kVariationsRestrictParameterE = hidden constant [28 x i8] c"VariationsRestrictParameter\00", align 16
@_ZN6policy3key20kVideoCaptureAllowedE = hidden constant [20 x i8] c"VideoCaptureAllowed\00", align 16
@_ZN6policy3key24kVideoCaptureAllowedUrlsE = hidden constant [24 x i8] c"VideoCaptureAllowedUrls\00", align 16
@_ZN6policy3key23kVirtualKeyboardEnabledE = hidden local_unnamed_addr constant [23 x i8] c"VirtualKeyboardEnabled\00", align 16
@_ZN6policy3key24kVirtualKeyboardFeaturesE = hidden local_unnamed_addr constant [24 x i8] c"VirtualKeyboardFeatures\00", align 16
@_ZN6policy3key23kVirtualMachinesAllowedE = hidden local_unnamed_addr constant [23 x i8] c"VirtualMachinesAllowed\00", align 16
@_ZN6policy3key23kVmManagementCliAllowedE = hidden local_unnamed_addr constant [23 x i8] c"VmManagementCliAllowed\00", align 16
@_ZN6policy3key31kVoiceInteractionContextEnabledE = hidden local_unnamed_addr constant [31 x i8] c"VoiceInteractionContextEnabled\00", align 16
@_ZN6policy3key31kVoiceInteractionHotwordEnabledE = hidden local_unnamed_addr constant [31 x i8] c"VoiceInteractionHotwordEnabled\00", align 16
@_ZN6policy3key36kVoiceInteractionQuickAnswersEnabledE = hidden local_unnamed_addr constant [36 x i8] c"VoiceInteractionQuickAnswersEnabled\00", align 16
@_ZN6policy3key17kVpnConfigAllowedE = hidden local_unnamed_addr constant [17 x i8] c"VpnConfigAllowed\00", align 16
@_ZN6policy3key22kWPADQuickCheckEnabledE = hidden constant [22 x i8] c"WPADQuickCheckEnabled\00", align 16
@_ZN6policy3key27kWaitForInitialUserActivityE = hidden local_unnamed_addr constant [27 x i8] c"WaitForInitialUserActivity\00", align 16
@_ZN6policy3key15kWallpaperImageE = hidden local_unnamed_addr constant [15 x i8] c"WallpaperImage\00", align 1
@_ZN6policy3key23kWebAppInstallForceListE = hidden constant [23 x i8] c"WebAppInstallForceList\00", align 16
@_ZN6policy3key15kWebAppSettingsE = hidden constant [15 x i8] c"WebAppSettings\00", align 1
@_ZN6policy3key23kWebComponentsV0EnabledE = hidden local_unnamed_addr constant [23 x i8] c"WebComponentsV0Enabled\00", align 16
@_ZN6policy3key39kWebDriverOverridesIncompatiblePoliciesE = hidden local_unnamed_addr constant [39 x i8] c"WebDriverOverridesIncompatiblePolicies\00", align 16
@_ZN6policy3key25kWebRestrictionsAuthorityE = hidden local_unnamed_addr constant [25 x i8] c"WebRestrictionsAuthority\00", align 16
@_ZN6policy3key30kWebRtcAllowLegacyTLSProtocolsE = hidden constant [30 x i8] c"WebRtcAllowLegacyTLSProtocols\00", align 16
@_ZN6policy3key32kWebRtcEventLogCollectionAllowedE = hidden constant [32 x i8] c"WebRtcEventLogCollectionAllowed\00", align 16
@_ZN6policy3key17kWebRtcIPHandlingE = hidden constant [17 x i8] c"WebRtcIPHandling\00", align 16
@_ZN6policy3key26kWebRtcLocalIpsAllowedUrlsE = hidden constant [26 x i8] c"WebRtcLocalIpsAllowedUrls\00", align 16
@_ZN6policy3key19kWebRtcUdpPortRangeE = hidden constant [19 x i8] c"WebRtcUdpPortRange\00", align 16
@_ZN6policy3key26kWebUsbAllowDevicesForUrlsE = hidden constant [26 x i8] c"WebUsbAllowDevicesForUrls\00", align 16
@_ZN6policy3key17kWebUsbAskForUrlsE = hidden constant [17 x i8] c"WebUsbAskForUrls\00", align 16
@_ZN6policy3key21kWebUsbBlockedForUrlsE = hidden constant [21 x i8] c"WebUsbBlockedForUrls\00", align 16
@_ZN6policy3key24kWebXRImmersiveArEnabledE = hidden local_unnamed_addr constant [24 x i8] c"WebXRImmersiveArEnabled\00", align 16
@_ZN6policy3key30kWelcomePageOnOSUpgradeEnabledE = hidden local_unnamed_addr constant [30 x i8] c"WelcomePageOnOSUpgradeEnabled\00", align 16
@_ZN6policy3key23kWifiSyncAndroidAllowedE = hidden local_unnamed_addr constant [23 x i8] c"WifiSyncAndroidAllowed\00", align 16
@_ZN6policy3key23kWindowOcclusionEnabledE = hidden local_unnamed_addr constant [23 x i8] c"WindowOcclusionEnabled\00", align 16
@_ZN6policy5group26kActiveDirectoryManagementE = hidden constant [26 x i8] c"ActiveDirectoryManagement\00", align 16
@_ZN6policy5group12kAttestationE = hidden constant [12 x i8] c"Attestation\00", align 1
@_ZN6policy5group16kBrowserSwitcherE = hidden constant [16 x i8] c"BrowserSwitcher\00", align 16
@_ZN6policy5group15kCloudReportingE = hidden constant [15 x i8] c"CloudReporting\00", align 1
@_ZN6policy5group16kCookiesSettingsE = hidden constant [16 x i8] c"CookiesSettings\00", align 16
@_ZN6policy5group12kDateAndTimeE = hidden constant [12 x i8] c"DateAndTime\00", align 1
@_ZN6policy5group22kDefaultSearchProviderE = hidden constant [22 x i8] c"DefaultSearchProvider\00", align 16
@_ZN6policy5group8kDisplayE = hidden constant [8 x i8] c"Display\00", align 1
@_ZN6policy5group6kDriveE = hidden constant [6 x i8] c"Drive\00", align 1
@_ZN6policy5group11kExtensionsE = hidden constant [11 x i8] c"Extensions\00", align 1
@_ZN6policy5group11kGoogleCastE = hidden constant [11 x i8] c"GoogleCast\00", align 1
@_ZN6policy5group9kHomepageE = hidden constant [9 x i8] c"Homepage\00", align 1
@_ZN6policy5group14kImageSettingsE = hidden constant [14 x i8] c"ImageSettings\00", align 1
@_ZN6policy5group19kJavascriptSettingsE = hidden constant [19 x i8] c"JavascriptSettings\00", align 16
@_ZN6policy5group15kKeygenSettingsE = hidden constant [15 x i8] c"KeygenSettings\00", align 1
@_ZN6policy5group6kKioskE = hidden constant [6 x i8] c"Kiosk\00", align 1
@_ZN6policy5group37kLegacySameSiteCookieBehaviorSettingsE = hidden constant [37 x i8] c"LegacySameSiteCookieBehaviorSettings\00", align 16
@_ZN6policy5group19kLoginScreenOriginsE = hidden constant [19 x i8] c"LoginScreenOrigins\00", align 16
@_ZN6policy5group16kNativeMessagingE = hidden constant [16 x i8] c"NativeMessaging\00", align 16
@_ZN6policy5group18kNetworkFileSharesE = hidden constant [18 x i8] c"NetworkFileShares\00", align 16
@_ZN6policy5group22kNotificationsSettingsE = hidden constant [22 x i8] c"NotificationsSettings\00", align 16
@_ZN6policy5group16kPasswordManagerE = hidden constant [16 x i8] c"PasswordManager\00", align 16
@_ZN6policy5group19kPasswordProtectionE = hidden constant [19 x i8] c"PasswordProtection\00", align 16
@_ZN6policy5group10kPinUnlockE = hidden constant [10 x i8] c"PinUnlock\00", align 1
@_ZN6policy5group9kPluginVmE = hidden constant [9 x i8] c"PluginVm\00", align 1
@_ZN6policy5group16kPluginsSettingsE = hidden constant [16 x i8] c"PluginsSettings\00", align 16
@_ZN6policy5group15kPopupsSettingsE = hidden constant [15 x i8] c"PopupsSettings\00", align 1
@_ZN6policy5group30kPrivateNetworkRequestSettingsE = hidden constant [30 x i8] c"PrivateNetworkRequestSettings\00", align 16
@_ZN6policy5group6kProxyE = hidden constant [6 x i8] c"Proxy\00", align 1
@_ZN6policy5group12kQuickUnlockE = hidden constant [12 x i8] c"QuickUnlock\00", align 1
@_ZN6policy5group13kRemoteAccessE = hidden constant [13 x i8] c"RemoteAccess\00", align 1
@_ZN6policy5group17kRestoreOnStartupE = hidden constant [17 x i8] c"RestoreOnStartup\00", align 16
@_ZN6policy5group5kSAMLE = hidden constant [5 x i8] c"SAML\00", align 1
@_ZN6policy5group13kSafeBrowsingE = hidden constant [13 x i8] c"SafeBrowsing\00", align 1
@_ZN6policy5group16kSensorsSettingsE = hidden constant [16 x i8] c"SensorsSettings\00", align 16
@_ZN6policy5group16kSupervisedUsersE = hidden constant [16 x i8] c"SupervisedUsers\00", align 16
@_ZN6policy5group23kUserAndDeviceReportingE = hidden constant [23 x i8] c"UserAndDeviceReporting\00", align 16
@_ZN6policy5group15kWebUsbSettingsE = hidden constant [15 x i8] c"WebUsbSettings\00", align 1
@_ZN6policy5group5kWiFiE = hidden constant [5 x i8] c"WiFi\00", align 1
@_ZN6policy5group12_GLOBAL__N_125ActiveDirectoryManagementE = internal constant [6 x i8*] [i8* getelementptr inbounds ([32 x i8], [32 x i8]* @_ZN6policy3key32kDeviceMachinePasswordChangeRateE, i32 0, i32 0), i8* getelementptr inbounds ([39 x i8], [39 x i8]* @_ZN6policy3key39kDeviceUserPolicyLoopbackProcessingModeE, i32 0, i32 0), i8* getelementptr inbounds ([30 x i8], [30 x i8]* @_ZN6policy3key30kDeviceKerberosEncryptionTypesE, i32 0, i32 0), i8* getelementptr inbounds ([23 x i8], [23 x i8]* @_ZN6policy3key23kDeviceGpoCacheLifetimeE, i32 0, i32 0), i8* getelementptr inbounds ([28 x i8], [28 x i8]* @_ZN6policy3key28kDeviceAuthDataCacheLifetimeE, i32 0, i32 0), i8* null], align 16
@_ZN6policy5group12_GLOBAL__N_111AttestationE = internal constant [6 x i8*] [i8* getelementptr inbounds ([28 x i8], [28 x i8]* @_ZN6policy3key28kAttestationEnabledForDeviceE, i32 0, i32 0), i8* getelementptr inbounds ([26 x i8], [26 x i8]* @_ZN6policy3key26kAttestationEnabledForUserE, i32 0, i32 0), i8* getelementptr inbounds ([30 x i8], [30 x i8]* @_ZN6policy3key30kAttestationExtensionAllowlistE, i32 0, i32 0), i8* getelementptr inbounds ([30 x i8], [30 x i8]* @_ZN6policy3key30kAttestationExtensionWhitelistE, i32 0, i32 0), i8* getelementptr inbounds ([39 x i8], [39 x i8]* @_ZN6policy3key39kAttestationForContentProtectionEnabledE, i32 0, i32 0), i8* null], align 16
@_ZN6policy5group12_GLOBAL__N_115BrowserSwitcherE = internal constant [13 x i8*] [i8* getelementptr inbounds ([23 x i8], [23 x i8]* @_ZN6policy3key23kAlternativeBrowserPathE, i32 0, i32 0), i8* getelementptr inbounds ([29 x i8], [29 x i8]* @_ZN6policy3key29kAlternativeBrowserParametersE, i32 0, i32 0), i8* getelementptr inbounds ([26 x i8], [26 x i8]* @_ZN6policy3key26kBrowserSwitcherChromePathE, i32 0, i32 0), i8* getelementptr inbounds ([32 x i8], [32 x i8]* @_ZN6policy3key32kBrowserSwitcherChromeParametersE, i32 0, i32 0), i8* getelementptr inbounds ([21 x i8], [21 x i8]* @_ZN6policy3key21kBrowserSwitcherDelayE, i32 0, i32 0), i8* getelementptr inbounds ([23 x i8], [23 x i8]* @_ZN6policy3key23kBrowserSwitcherEnabledE, i32 0, i32 0), i8* getelementptr inbounds ([35 x i8], [35 x i8]* @_ZN6policy3key35kBrowserSwitcherExternalSitelistUrlE, i32 0, i32 0), i8* getelementptr inbounds ([35 x i8], [35 x i8]* @_ZN6policy3key35kBrowserSwitcherExternalGreylistUrlE, i32 0, i32 0), i8* getelementptr inbounds ([33 x i8], [33 x i8]* @_ZN6policy3key33kBrowserSwitcherKeepLastChromeTabE, i32 0, i32 0), i8* getelementptr inbounds ([23 x i8], [23 x i8]* @_ZN6policy3key23kBrowserSwitcherUrlListE, i32 0, i32 0), i8* getelementptr inbounds ([27 x i8], [27 x i8]* @_ZN6policy3key27kBrowserSwitcherUrlGreylistE, i32 0, i32 0), i8* getelementptr inbounds ([29 x i8], [29 x i8]* @_ZN6policy3key29kBrowserSwitcherUseIeSitelistE, i32 0, i32 0), i8* null], align 16
@_ZN6policy5group12_GLOBAL__N_114CloudReportingE = internal constant [8 x i8*] [i8* getelementptr inbounds ([18 x i8], [18 x i8]* @_ZN6policy3key18kReportVersionDataE, i32 0, i32 0), i8* getelementptr inbounds ([17 x i8], [17 x i8]* @_ZN6policy3key17kReportPolicyDataE, i32 0, i32 0), i8* getelementptr inbounds ([20 x i8], [20 x i8]* @_ZN6policy3key20kReportMachineIDDataE, i32 0, i32 0), i8* getelementptr inbounds ([17 x i8], [17 x i8]* @_ZN6policy3key17kReportUserIDDataE, i32 0, i32 0), i8* getelementptr inbounds ([31 x i8], [31 x i8]* @_ZN6policy3key31kReportExtensionsAndPluginsDataE, i32 0, i32 0), i8* getelementptr inbounds ([29 x i8], [29 x i8]* @_ZN6policy3key29kCloudExtensionRequestEnabledE, i32 0, i32 0), i8* getelementptr inbounds ([22 x i8], [22 x i8]* @_ZN6policy3key22kCloudReportingEnabledE, i32 0, i32 0), i8* null], align 16
@_ZN6policy5group12_GLOBAL__N_115CookiesSettingsE = internal constant [5 x i8*] [i8* getelementptr inbounds ([22 x i8], [22 x i8]* @_ZN6policy3key22kDefaultCookiesSettingE, i32 0, i32 0), i8* getelementptr inbounds ([22 x i8], [22 x i8]* @_ZN6policy3key22kCookiesAllowedForUrlsE, i32 0, i32 0), i8* getelementptr inbounds ([22 x i8], [22 x i8]* @_ZN6policy3key22kCookiesBlockedForUrlsE, i32 0, i32 0), i8* getelementptr inbounds ([26 x i8], [26 x i8]* @_ZN6policy3key26kCookiesSessionOnlyForUrlsE, i32 0, i32 0), i8* null], align 16
@_ZN6policy5group12_GLOBAL__N_111DateAndTimeE = internal constant [3 x i8*] [i8* getelementptr inbounds ([15 x i8], [15 x i8]* @_ZN6policy3key15kSystemTimezoneE, i32 0, i32 0), i8* getelementptr inbounds ([33 x i8], [33 x i8]* @_ZN6policy3key33kSystemTimezoneAutomaticDetectionE, i32 0, i32 0), i8* null], align 16
@_ZN6policy5group12_GLOBAL__N_121DefaultSearchProviderE = internal constant [17 x i8*] [i8* getelementptr inbounds ([29 x i8], [29 x i8]* @_ZN6policy3key29kDefaultSearchProviderEnabledE, i32 0, i32 0), i8* getelementptr inbounds ([26 x i8], [26 x i8]* @_ZN6policy3key26kDefaultSearchProviderNameE, i32 0, i32 0), i8* getelementptr inbounds ([29 x i8], [29 x i8]* @_ZN6policy3key29kDefaultSearchProviderKeywordE, i32 0, i32 0), i8* getelementptr inbounds ([31 x i8], [31 x i8]* @_ZN6policy3key31kDefaultSearchProviderSearchURLE, i32 0, i32 0), i8* getelementptr inbounds ([32 x i8], [32 x i8]* @_ZN6policy3key32kDefaultSearchProviderSuggestURLE, i32 0, i32 0), i8* getelementptr inbounds ([32 x i8], [32 x i8]* @_ZN6policy3key32kDefaultSearchProviderInstantURLE, i32 0, i32 0), i8* getelementptr inbounds ([29 x i8], [29 x i8]* @_ZN6policy3key29kDefaultSearchProviderIconURLE, i32 0, i32 0), i8* getelementptr inbounds ([31 x i8], [31 x i8]* @_ZN6policy3key31kDefaultSearchProviderEncodingsE, i32 0, i32 0), i8* getelementptr inbounds ([35 x i8], [35 x i8]* @_ZN6policy3key35kDefaultSearchProviderAlternateURLsE, i32 0, i32 0), i8* getelementptr inbounds ([47 x i8], [47 x i8]* @_ZN6policy3key47kDefaultSearchProviderSearchTermsReplacementKeyE, i32 0, i32 0), i8* getelementptr inbounds ([30 x i8], [30 x i8]* @_ZN6policy3key30kDefaultSearchProviderImageURLE, i32 0, i32 0), i8* getelementptr inbounds ([31 x i8], [31 x i8]* @_ZN6policy3key31kDefaultSearchProviderNewTabURLE, i32 0, i32 0), i8* getelementptr inbounds ([41 x i8], [41 x i8]* @_ZN6policy3key41kDefaultSearchProviderSearchURLPostParamsE, i32 0, i32 0), i8* getelementptr inbounds ([42 x i8], [42 x i8]* @_ZN6policy3key42kDefaultSearchProviderSuggestURLPostParamsE, i32 0, i32 0), i8* getelementptr inbounds ([42 x i8], [42 x i8]* @_ZN6policy3key42kDefaultSearchProviderInstantURLPostParamsE, i32 0, i32 0), i8* getelementptr inbounds ([40 x i8], [40 x i8]* @_ZN6policy3key40kDefaultSearchProviderImageURLPostParamsE, i32 0, i32 0), i8* null], align 16
@_ZN6policy5group12_GLOBAL__N_17DisplayE = internal constant [3 x i8*] [i8* getelementptr inbounds ([24 x i8], [24 x i8]* @_ZN6policy3key24kDeviceDisplayResolutionE, i32 0, i32 0), i8* getelementptr inbounds ([23 x i8], [23 x i8]* @_ZN6policy3key23kDisplayRotationDefaultE, i32 0, i32 0), i8* null], align 16
@_ZN6policy5group12_GLOBAL__N_15DriveE = internal constant [3 x i8*] [i8* getelementptr inbounds ([14 x i8], [14 x i8]* @_ZN6policy3key14kDriveDisabledE, i32 0, i32 0), i8* getelementptr inbounds ([26 x i8], [26 x i8]* @_ZN6policy3key26kDriveDisabledOverCellularE, i32 0, i32 0), i8* null], align 16
@_ZN6policy5group12_GLOBAL__N_110ExtensionsE = internal constant [10 x i8*] [i8* getelementptr inbounds ([26 x i8], [26 x i8]* @_ZN6policy3key26kExtensionInstallAllowlistE, i32 0, i32 0), i8* getelementptr inbounds ([26 x i8], [26 x i8]* @_ZN6policy3key26kExtensionInstallBlocklistE, i32 0, i32 0), i8* getelementptr inbounds ([26 x i8], [26 x i8]* @_ZN6policy3key26kExtensionInstallBlacklistE, i32 0, i32 0), i8* getelementptr inbounds ([26 x i8], [26 x i8]* @_ZN6policy3key26kExtensionInstallWhitelistE, i32 0, i32 0), i8* getelementptr inbounds ([26 x i8], [26 x i8]* @_ZN6policy3key26kExtensionInstallForcelistE, i32 0, i32 0), i8* getelementptr inbounds ([24 x i8], [24 x i8]* @_ZN6policy3key24kExtensionInstallSourcesE, i32 0, i32 0), i8* getelementptr inbounds ([22 x i8], [22 x i8]* @_ZN6policy3key22kExtensionAllowedTypesE, i32 0, i32 0), i8* getelementptr inbounds ([30 x i8], [30 x i8]* @_ZN6policy3key30kExtensionAllowInsecureUpdatesE, i32 0, i32 0), i8* getelementptr inbounds ([18 x i8], [18 x i8]* @_ZN6policy3key18kExtensionSettingsE, i32 0, i32 0), i8* null], align 16
@_ZN6policy5group12_GLOBAL__N_110GoogleCastE = internal constant [3 x i8*] [i8* getelementptr inbounds ([20 x i8], [20 x i8]* @_ZN6policy3key20kCastReceiverEnabledE, i32 0, i32 0), i8* getelementptr inbounds ([17 x i8], [17 x i8]* @_ZN6policy3key17kCastReceiverNameE, i32 0, i32 0), i8* null], align 16
@_ZN6policy5group12_GLOBAL__N_18HomepageE = internal constant [5 x i8*] [i8* getelementptr inbounds ([17 x i8], [17 x i8]* @_ZN6policy3key17kHomepageLocationE, i32 0, i32 0), i8* getelementptr inbounds ([21 x i8], [21 x i8]* @_ZN6policy3key21kHomepageIsNewTabPageE, i32 0, i32 0), i8* getelementptr inbounds ([19 x i8], [19 x i8]* @_ZN6policy3key19kNewTabPageLocationE, i32 0, i32 0), i8* getelementptr inbounds ([15 x i8], [15 x i8]* @_ZN6policy3key15kShowHomeButtonE, i32 0, i32 0), i8* null], align 16
@_ZN6policy5group12_GLOBAL__N_113ImageSettingsE = internal constant [4 x i8*] [i8* getelementptr inbounds ([21 x i8], [21 x i8]* @_ZN6policy3key21kDefaultImagesSettingE, i32 0, i32 0), i8* getelementptr inbounds ([21 x i8], [21 x i8]* @_ZN6policy3key21kImagesAllowedForUrlsE, i32 0, i32 0), i8* getelementptr inbounds ([21 x i8], [21 x i8]* @_ZN6policy3key21kImagesBlockedForUrlsE, i32 0, i32 0), i8* null], align 16
@_ZN6policy5group12_GLOBAL__N_118JavascriptSettingsE = internal constant [4 x i8*] [i8* getelementptr inbounds ([25 x i8], [25 x i8]* @_ZN6policy3key25kDefaultJavaScriptSettingE, i32 0, i32 0), i8* getelementptr inbounds ([25 x i8], [25 x i8]* @_ZN6policy3key25kJavaScriptAllowedForUrlsE, i32 0, i32 0), i8* getelementptr inbounds ([25 x i8], [25 x i8]* @_ZN6policy3key25kJavaScriptBlockedForUrlsE, i32 0, i32 0), i8* null], align 16
@_ZN6policy5group12_GLOBAL__N_114KeygenSettingsE = internal constant [4 x i8*] [i8* getelementptr inbounds ([21 x i8], [21 x i8]* @_ZN6policy3key21kDefaultKeygenSettingE, i32 0, i32 0), i8* getelementptr inbounds ([21 x i8], [21 x i8]* @_ZN6policy3key21kKeygenAllowedForUrlsE, i32 0, i32 0), i8* getelementptr inbounds ([21 x i8], [21 x i8]* @_ZN6policy3key21kKeygenBlockedForUrlsE, i32 0, i32 0), i8* null], align 16
@_ZN6policy5group12_GLOBAL__N_15KioskE = internal constant [6 x i8*] [i8* getelementptr inbounds ([20 x i8], [20 x i8]* @_ZN6policy3key20kDeviceLocalAccountsE, i32 0, i32 0), i8* getelementptr inbounds ([30 x i8], [30 x i8]* @_ZN6policy3key30kDeviceLocalAccountAutoLoginIdE, i32 0, i32 0), i8* getelementptr inbounds ([33 x i8], [33 x i8]* @_ZN6policy3key33kDeviceLocalAccountAutoLoginDelayE, i32 0, i32 0), i8* getelementptr inbounds ([42 x i8], [42 x i8]* @_ZN6policy3key42kDeviceLocalAccountAutoLoginBailoutEnabledE, i32 0, i32 0), i8* getelementptr inbounds ([46 x i8], [46 x i8]* @_ZN6policy3key46kDeviceLocalAccountPromptForNetworkWhenOfflineE, i32 0, i32 0), i8* null], align 16
@_ZN6policy5group12_GLOBAL__N_136LegacySameSiteCookieBehaviorSettingsE = internal constant [3 x i8*] [i8* getelementptr inbounds ([36 x i8], [36 x i8]* @_ZN6policy3key36kLegacySameSiteCookieBehaviorEnabledE, i32 0, i32 0), i8* getelementptr inbounds ([49 x i8], [49 x i8]* @_ZN6policy3key49kLegacySameSiteCookieBehaviorEnabledForDomainListE, i32 0, i32 0), i8* null], align 16
@_ZN6policy5group12_GLOBAL__N_118LoginScreenOriginsE = internal constant [3 x i8*] [i8* getelementptr inbounds ([32 x i8], [32 x i8]* @_ZN6policy3key32kDeviceLoginScreenIsolateOriginsE, i32 0, i32 0), i8* getelementptr inbounds ([32 x i8], [32 x i8]* @_ZN6policy3key32kDeviceLoginScreenSitePerProcessE, i32 0, i32 0), i8* null], align 16
@_ZN6policy5group12_GLOBAL__N_115NativeMessagingE = internal constant [6 x i8*] [i8* getelementptr inbounds ([25 x i8], [25 x i8]* @_ZN6policy3key25kNativeMessagingBlacklistE, i32 0, i32 0), i8* getelementptr inbounds ([25 x i8], [25 x i8]* @_ZN6policy3key25kNativeMessagingBlocklistE, i32 0, i32 0), i8* getelementptr inbounds ([25 x i8], [25 x i8]* @_ZN6policy3key25kNativeMessagingAllowlistE, i32 0, i32 0), i8* getelementptr inbounds ([25 x i8], [25 x i8]* @_ZN6policy3key25kNativeMessagingWhitelistE, i32 0, i32 0), i8* getelementptr inbounds ([30 x i8], [30 x i8]* @_ZN6policy3key30kNativeMessagingUserLevelHostsE, i32 0, i32 0), i8* null], align 16
@_ZN6policy5group12_GLOBAL__N_117NetworkFileSharesE = internal constant [5 x i8*] [i8* getelementptr inbounds ([25 x i8], [25 x i8]* @_ZN6policy3key25kNetworkFileSharesAllowedE, i32 0, i32 0), i8* getelementptr inbounds ([29 x i8], [29 x i8]* @_ZN6policy3key29kNetBiosShareDiscoveryEnabledE, i32 0, i32 0), i8* getelementptr inbounds ([31 x i8], [31 x i8]* @_ZN6policy3key31kNTLMShareAuthenticationEnabledE, i32 0, i32 0), i8* getelementptr inbounds ([37 x i8], [37 x i8]* @_ZN6policy3key37kNetworkFileSharesPreconfiguredSharesE, i32 0, i32 0), i8* null], align 16
@_ZN6policy5group12_GLOBAL__N_121NotificationsSettingsE = internal constant [4 x i8*] [i8* getelementptr inbounds ([28 x i8], [28 x i8]* @_ZN6policy3key28kDefaultNotificationsSettingE, i32 0, i32 0), i8* getelementptr inbounds ([28 x i8], [28 x i8]* @_ZN6policy3key28kNotificationsAllowedForUrlsE, i32 0, i32 0), i8* getelementptr inbounds ([28 x i8], [28 x i8]* @_ZN6policy3key28kNotificationsBlockedForUrlsE, i32 0, i32 0), i8* null], align 16
@_ZN6policy5group12_GLOBAL__N_115PasswordManagerE = internal constant [3 x i8*] [i8* getelementptr inbounds ([23 x i8], [23 x i8]* @_ZN6policy3key23kPasswordManagerEnabledE, i32 0, i32 0), i8* getelementptr inbounds ([34 x i8], [34 x i8]* @_ZN6policy3key34kPasswordManagerAllowShowPasswordsE, i32 0, i32 0), i8* null], align 16
@_ZN6policy5group12_GLOBAL__N_118PasswordProtectionE = internal constant [4 x i8*] [i8* getelementptr inbounds ([33 x i8], [33 x i8]* @_ZN6policy3key33kPasswordProtectionWarningTriggerE, i32 0, i32 0), i8* getelementptr inbounds ([28 x i8], [28 x i8]* @_ZN6policy3key28kPasswordProtectionLoginURLsE, i32 0, i32 0), i8* getelementptr inbounds ([36 x i8], [36 x i8]* @_ZN6policy3key36kPasswordProtectionChangePasswordURLE, i32 0, i32 0), i8* null], align 16
@_ZN6policy5group12_GLOBAL__N_19PinUnlockE = internal constant [5 x i8*] [i8* getelementptr inbounds ([23 x i8], [23 x i8]* @_ZN6policy3key23kPinUnlockMinimumLengthE, i32 0, i32 0), i8* getelementptr inbounds ([23 x i8], [23 x i8]* @_ZN6policy3key23kPinUnlockMaximumLengthE, i32 0, i32 0), i8* getelementptr inbounds ([25 x i8], [25 x i8]* @_ZN6policy3key25kPinUnlockWeakPinsAllowedE, i32 0, i32 0), i8* getelementptr inbounds ([27 x i8], [27 x i8]* @_ZN6policy3key27kPinUnlockAutosubmitEnabledE, i32 0, i32 0), i8* null], align 16
@_ZN6policy5group12_GLOBAL__N_18PluginVmE = internal constant [8 x i8*] [i8* getelementptr inbounds ([16 x i8], [16 x i8]* @_ZN6policy3key16kPluginVmAllowedE, i32 0, i32 0), i8* getelementptr inbounds ([30 x i8], [30 x i8]* @_ZN6policy3key30kPluginVmDataCollectionAllowedE, i32 0, i32 0), i8* getelementptr inbounds ([14 x i8], [14 x i8]* @_ZN6policy3key14kPluginVmImageE, i32 0, i32 0), i8* getelementptr inbounds ([19 x i8], [19 x i8]* @_ZN6policy3key19kPluginVmLicenseKeyE, i32 0, i32 0), i8* getelementptr inbounds ([30 x i8], [30 x i8]* @_ZN6policy3key30kPluginVmRequiredFreeDiskSpaceE, i32 0, i32 0), i8* getelementptr inbounds ([15 x i8], [15 x i8]* @_ZN6policy3key15kPluginVmUserIdE, i32 0, i32 0), i8* getelementptr inbounds ([20 x i8], [20 x i8]* @_ZN6policy3key20kUserPluginVmAllowedE, i32 0, i32 0), i8* null], align 16
@_ZN6policy5group12_GLOBAL__N_115PluginsSettingsE = internal constant [4 x i8*] [i8* getelementptr inbounds ([22 x i8], [22 x i8]* @_ZN6policy3key22kDefaultPluginsSettingE, i32 0, i32 0), i8* getelementptr inbounds ([22 x i8], [22 x i8]* @_ZN6policy3key22kPluginsAllowedForUrlsE, i32 0, i32 0), i8* getelementptr inbounds ([22 x i8], [22 x i8]* @_ZN6policy3key22kPluginsBlockedForUrlsE, i32 0, i32 0), i8* null], align 16
@_ZN6policy5group12_GLOBAL__N_114PopupsSettingsE = internal constant [4 x i8*] [i8* getelementptr inbounds ([21 x i8], [21 x i8]* @_ZN6policy3key21kDefaultPopupsSettingE, i32 0, i32 0), i8* getelementptr inbounds ([21 x i8], [21 x i8]* @_ZN6policy3key21kPopupsAllowedForUrlsE, i32 0, i32 0), i8* getelementptr inbounds ([21 x i8], [21 x i8]* @_ZN6policy3key21kPopupsBlockedForUrlsE, i32 0, i32 0), i8* null], align 16
@_ZN6policy5group12_GLOBAL__N_129PrivateNetworkRequestSettingsE = internal constant [3 x i8*] [i8* getelementptr inbounds ([38 x i8], [38 x i8]* @_ZN6policy3key38kInsecurePrivateNetworkRequestsAllowedE, i32 0, i32 0), i8* getelementptr inbounds ([45 x i8], [45 x i8]* @_ZN6policy3key45kInsecurePrivateNetworkRequestsAllowedForUrlsE, i32 0, i32 0), i8* null], align 16
@_ZN6policy5group12_GLOBAL__N_15ProxyE = internal constant [7 x i8*] [i8* getelementptr inbounds ([10 x i8], [10 x i8]* @_ZN6policy3key10kProxyModeE, i32 0, i32 0), i8* getelementptr inbounds ([16 x i8], [16 x i8]* @_ZN6policy3key16kProxyServerModeE, i32 0, i32 0), i8* getelementptr inbounds ([12 x i8], [12 x i8]* @_ZN6policy3key12kProxyServerE, i32 0, i32 0), i8* getelementptr inbounds ([12 x i8], [12 x i8]* @_ZN6policy3key12kProxyPacUrlE, i32 0, i32 0), i8* getelementptr inbounds ([16 x i8], [16 x i8]* @_ZN6policy3key16kProxyBypassListE, i32 0, i32 0), i8* getelementptr inbounds ([14 x i8], [14 x i8]* @_ZN6policy3key14kProxySettingsE, i32 0, i32 0), i8* null], align 16
@_ZN6policy5group12_GLOBAL__N_111QuickUnlockE = internal constant [4 x i8*] [i8* getelementptr inbounds ([25 x i8], [25 x i8]* @_ZN6policy3key25kQuickUnlockModeAllowlistE, i32 0, i32 0), i8* getelementptr inbounds ([25 x i8], [25 x i8]* @_ZN6policy3key25kQuickUnlockModeWhitelistE, i32 0, i32 0), i8* getelementptr inbounds ([19 x i8], [19 x i8]* @_ZN6policy3key19kQuickUnlockTimeoutE, i32 0, i32 0), i8* null], align 16
@_ZN6policy5group12_GLOBAL__N_112RemoteAccessE = internal constant [24 x i8*] [i8* getelementptr inbounds ([36 x i8], [36 x i8]* @_ZN6policy3key36kRemoteAccessClientFirewallTraversalE, i32 0, i32 0), i8* getelementptr inbounds ([29 x i8], [29 x i8]* @_ZN6policy3key29kRemoteAccessHostClientDomainE, i32 0, i32 0), i8* getelementptr inbounds ([33 x i8], [33 x i8]* @_ZN6policy3key33kRemoteAccessHostClientDomainListE, i32 0, i32 0), i8* getelementptr inbounds ([34 x i8], [34 x i8]* @_ZN6policy3key34kRemoteAccessHostFirewallTraversalE, i32 0, i32 0), i8* getelementptr inbounds ([23 x i8], [23 x i8]* @_ZN6policy3key23kRemoteAccessHostDomainE, i32 0, i32 0), i8* getelementptr inbounds ([27 x i8], [27 x i8]* @_ZN6policy3key27kRemoteAccessHostDomainListE, i32 0, i32 0), i8* getelementptr inbounds ([33 x i8], [33 x i8]* @_ZN6policy3key33kRemoteAccessHostRequireTwoFactorE, i32 0, i32 0), i8* getelementptr inbounds ([33 x i8], [33 x i8]* @_ZN6policy3key33kRemoteAccessHostTalkGadgetPrefixE, i32 0, i32 0), i8* getelementptr inbounds ([31 x i8], [31 x i8]* @_ZN6policy3key31kRemoteAccessHostRequireCurtainE, i32 0, i32 0), i8* getelementptr inbounds ([35 x i8], [35 x i8]* @_ZN6policy3key35kRemoteAccessHostAllowClientPairingE, i32 0, i32 0), i8* getelementptr inbounds ([32 x i8], [32 x i8]* @_ZN6policy3key32kRemoteAccessHostAllowGnubbyAuthE, i32 0, i32 0), i8* getelementptr inbounds ([39 x i8], [39 x i8]* @_ZN6policy3key39kRemoteAccessHostAllowRelayedConnectionE, i32 0, i32 0), i8* getelementptr inbounds ([29 x i8], [29 x i8]* @_ZN6policy3key29kRemoteAccessHostUdpPortRangeE, i32 0, i32 0), i8* getelementptr inbounds ([30 x i8], [30 x i8]* @_ZN6policy3key30kRemoteAccessHostMatchUsernameE, i32 0, i32 0), i8* getelementptr inbounds ([25 x i8], [25 x i8]* @_ZN6policy3key25kRemoteAccessHostTokenUrlE, i32 0, i32 0), i8* getelementptr inbounds ([35 x i8], [35 x i8]* @_ZN6policy3key35kRemoteAccessHostTokenValidationUrlE, i32 0, i32 0), i8* getelementptr inbounds ([49 x i8], [49 x i8]* @_ZN6policy3key49kRemoteAccessHostTokenValidationCertificateIssuerE, i32 0, i32 0), i8* getelementptr inbounds ([38 x i8], [38 x i8]* @_ZN6policy3key38kRemoteAccessHostDebugOverridePoliciesE, i32 0, i32 0), i8* getelementptr inbounds ([49 x i8], [49 x i8]* @_ZN6policy3key49kRemoteAccessHostAllowUiAccessForRemoteAssistanceE, i32 0, i32 0), i8* getelementptr inbounds ([34 x i8], [34 x i8]* @_ZN6policy3key34kRemoteAccessHostAllowFileTransferE, i32 0, i32 0), i8* getelementptr inbounds ([36 x i8], [36 x i8]* @_ZN6policy3key36kRemoteAccessHostEnableUserInterfaceE, i32 0, i32 0), i8* getelementptr inbounds ([45 x i8], [45 x i8]* @_ZN6policy3key45kRemoteAccessHostAllowRemoteAccessConnectionsE, i32 0, i32 0), i8* getelementptr inbounds ([46 x i8], [46 x i8]* @_ZN6policy3key46kRemoteAccessHostMaximumSessionDurationMinutesE, i32 0, i32 0), i8* null], align 16
@_ZN6policy5group12_GLOBAL__N_116RestoreOnStartupE = internal constant [3 x i8*] [i8* getelementptr inbounds ([17 x i8], [17 x i8]* @_ZN6policy3key17kRestoreOnStartupE, i32 0, i32 0), i8* getelementptr inbounds ([21 x i8], [21 x i8]* @_ZN6policy3key21kRestoreOnStartupURLsE, i32 0, i32 0), i8* null], align 16
@_ZN6policy5group12_GLOBAL__N_14SAMLE = internal constant [3 x i8*] [i8* getelementptr inbounds ([34 x i8], [34 x i8]* @_ZN6policy3key34kDeviceSamlLoginAuthenticationTypeE, i32 0, i32 0), i8* getelementptr inbounds ([26 x i8], [26 x i8]* @_ZN6policy3key26kDeviceTransferSAMLCookiesE, i32 0, i32 0), i8* null], align 16
@_ZN6policy5group12_GLOBAL__N_112SafeBrowsingE = internal constant [6 x i8*] [i8* getelementptr inbounds ([20 x i8], [20 x i8]* @_ZN6policy3key20kSafeBrowsingEnabledE, i32 0, i32 0), i8* getelementptr inbounds ([37 x i8], [37 x i8]* @_ZN6policy3key37kSafeBrowsingExtendedReportingEnabledE, i32 0, i32 0), i8* getelementptr inbounds ([28 x i8], [28 x i8]* @_ZN6policy3key28kSafeBrowsingProtectionLevelE, i32 0, i32 0), i8* getelementptr inbounds ([29 x i8], [29 x i8]* @_ZN6policy3key29kSafeBrowsingWhitelistDomainsE, i32 0, i32 0), i8* getelementptr inbounds ([29 x i8], [29 x i8]* @_ZN6policy3key29kSafeBrowsingAllowlistDomainsE, i32 0, i32 0), i8* null], align 16
@_ZN6policy5group12_GLOBAL__N_115SensorsSettingsE = internal constant [4 x i8*] [i8* getelementptr inbounds ([22 x i8], [22 x i8]* @_ZN6policy3key22kDefaultSensorsSettingE, i32 0, i32 0), i8* getelementptr inbounds ([22 x i8], [22 x i8]* @_ZN6policy3key22kSensorsAllowedForUrlsE, i32 0, i32 0), i8* getelementptr inbounds ([22 x i8], [22 x i8]* @_ZN6policy3key22kSensorsBlockedForUrlsE, i32 0, i32 0), i8* null], align 16
@_ZN6policy5group12_GLOBAL__N_115SupervisedUsersE = internal constant [4 x i8*] [i8* getelementptr inbounds ([23 x i8], [23 x i8]* @_ZN6policy3key23kSupervisedUsersEnabledE, i32 0, i32 0), i8* getelementptr inbounds ([30 x i8], [30 x i8]* @_ZN6policy3key30kSupervisedUserCreationEnabledE, i32 0, i32 0), i8* getelementptr inbounds ([37 x i8], [37 x i8]* @_ZN6policy3key37kSupervisedUserContentProviderEnabledE, i32 0, i32 0), i8* null], align 16
@_ZN6policy5group12_GLOBAL__N_122UserAndDeviceReportingE = internal constant [31 x i8*] [i8* getelementptr inbounds ([24 x i8], [24 x i8]* @_ZN6policy3key24kReportDeviceVersionInfoE, i32 0, i32 0), i8* getelementptr inbounds ([21 x i8], [21 x i8]* @_ZN6policy3key21kReportDeviceBootModeE, i32 0, i32 0), i8* getelementptr inbounds ([18 x i8], [18 x i8]* @_ZN6policy3key18kReportDeviceUsersE, i32 0, i32 0), i8* getelementptr inbounds ([26 x i8], [26 x i8]* @_ZN6policy3key26kReportDeviceActivityTimesE, i32 0, i32 0), i8* getelementptr inbounds ([21 x i8], [21 x i8]* @_ZN6policy3key21kReportDeviceLocationE, i32 0, i32 0), i8* getelementptr inbounds ([30 x i8], [30 x i8]* @_ZN6policy3key30kReportDeviceNetworkInterfacesE, i32 0, i32 0), i8* getelementptr inbounds ([27 x i8], [27 x i8]* @_ZN6policy3key27kReportDeviceHardwareStatusE, i32 0, i32 0), i8* getelementptr inbounds ([26 x i8], [26 x i8]* @_ZN6policy3key26kReportDeviceSessionStatusE, i32 0, i32 0), i8* getelementptr inbounds ([27 x i8], [27 x i8]* @_ZN6policy3key27kReportDeviceGraphicsStatusE, i32 0, i32 0), i8* getelementptr inbounds ([28 x i8], [28 x i8]* @_ZN6policy3key28kReportDeviceCrashReportInfoE, i32 0, i32 0), i8* getelementptr inbounds ([27 x i8], [27 x i8]* @_ZN6policy3key27kReportDeviceOsUpdateStatusE, i32 0, i32 0), i8* getelementptr inbounds ([24 x i8], [24 x i8]* @_ZN6policy3key24kReportDeviceBoardStatusE, i32 0, i32 0), i8* getelementptr inbounds ([20 x i8], [20 x i8]* @_ZN6policy3key20kReportDeviceCpuInfoE, i32 0, i32 0), i8* getelementptr inbounds ([25 x i8], [25 x i8]* @_ZN6policy3key25kReportDeviceTimezoneInfoE, i32 0, i32 0), i8* getelementptr inbounds ([23 x i8], [23 x i8]* @_ZN6policy3key23kReportDeviceMemoryInfoE, i32 0, i32 0), i8* getelementptr inbounds ([26 x i8], [26 x i8]* @_ZN6policy3key26kReportDeviceBacklightInfoE, i32 0, i32 0), i8* getelementptr inbounds ([24 x i8], [24 x i8]* @_ZN6policy3key24kReportDevicePowerStatusE, i32 0, i32 0), i8* getelementptr inbounds ([26 x i8], [26 x i8]* @_ZN6policy3key26kReportDeviceStorageStatusE, i32 0, i32 0), i8* getelementptr inbounds ([20 x i8], [20 x i8]* @_ZN6policy3key20kReportDeviceAppInfoE, i32 0, i32 0), i8* getelementptr inbounds ([26 x i8], [26 x i8]* @_ZN6policy3key26kReportDeviceBluetoothInfoE, i32 0, i32 0), i8* getelementptr inbounds ([20 x i8], [20 x i8]* @_ZN6policy3key20kReportDeviceFanInfoE, i32 0, i32 0), i8* getelementptr inbounds ([20 x i8], [20 x i8]* @_ZN6policy3key20kReportDeviceVpdInfoE, i32 0, i32 0), i8* getelementptr inbounds ([23 x i8], [23 x i8]* @_ZN6policy3key23kReportDeviceSystemInfoE, i32 0, i32 0), i8* getelementptr inbounds ([22 x i8], [22 x i8]* @_ZN6policy3key22kReportDevicePrintJobsE, i32 0, i32 0), i8* getelementptr inbounds ([22 x i8], [22 x i8]* @_ZN6policy3key22kReportUploadFrequencyE, i32 0, i32 0), i8* getelementptr inbounds ([23 x i8], [23 x i8]* @_ZN6policy3key23kReportArcStatusEnabledE, i32 0, i32 0), i8* getelementptr inbounds ([17 x i8], [17 x i8]* @_ZN6policy3key17kHeartbeatEnabledE, i32 0, i32 0), i8* getelementptr inbounds ([19 x i8], [19 x i8]* @_ZN6policy3key19kHeartbeatFrequencyE, i32 0, i32 0), i8* getelementptr inbounds ([17 x i8], [17 x i8]* @_ZN6policy3key17kLogUploadEnabledE, i32 0, i32 0), i8* getelementptr inbounds ([30 x i8], [30 x i8]* @_ZN6policy3key30kDeviceMetricsReportingEnabledE, i32 0, i32 0), i8* null], align 16
@_ZN6policy5group12_GLOBAL__N_114WebUsbSettingsE = internal constant [6 x i8*] [i8* getelementptr inbounds ([26 x i8], [26 x i8]* @_ZN6policy3key26kDefaultWebUsbGuardSettingE, i32 0, i32 0), i8* getelementptr inbounds ([43 x i8], [43 x i8]* @_ZN6policy3key43kDeviceLoginScreenWebUsbAllowDevicesForUrlsE, i32 0, i32 0), i8* getelementptr inbounds ([26 x i8], [26 x i8]* @_ZN6policy3key26kWebUsbAllowDevicesForUrlsE, i32 0, i32 0), i8* getelementptr inbounds ([17 x i8], [17 x i8]* @_ZN6policy3key17kWebUsbAskForUrlsE, i32 0, i32 0), i8* getelementptr inbounds ([21 x i8], [21 x i8]* @_ZN6policy3key21kWebUsbBlockedForUrlsE, i32 0, i32 0), i8* null], align 16
@_ZN6policy5group12_GLOBAL__N_14WiFiE = internal constant [3 x i8*] [i8* getelementptr inbounds ([32 x i8], [32 x i8]* @_ZN6policy3key32kDeviceWiFiFastTransitionEnabledE, i32 0, i32 0), i8* getelementptr inbounds ([18 x i8], [18 x i8]* @_ZN6policy3key18kDeviceWiFiAllowedE, i32 0, i32 0), i8* null], align 16
@_ZN6policy26kPolicyAtomicGroupMappingsE = hidden local_unnamed_addr constant [39 x %"struct.policy::AtomicGroup"] [%"struct.policy::AtomicGroup" { i16 37, i8* getelementptr inbounds ([26 x i8], [26 x i8]* @_ZN6policy5group26kActiveDirectoryManagementE, i32 0, i32 0), i8** getelementptr inbounds ([6 x i8*], [6 x i8*]* @_ZN6policy5group12_GLOBAL__N_125ActiveDirectoryManagementE, i32 0, i32 0) }, %"struct.policy::AtomicGroup" { i16 18, i8* getelementptr inbounds ([12 x i8], [12 x i8]* @_ZN6policy5group12kAttestationE, i32 0, i32 0), i8** getelementptr inbounds ([6 x i8*], [6 x i8*]* @_ZN6policy5group12_GLOBAL__N_111AttestationE, i32 0, i32 0) }, %"struct.policy::AtomicGroup" { i16 28, i8* getelementptr inbounds ([16 x i8], [16 x i8]* @_ZN6policy5group16kBrowserSwitcherE, i32 0, i32 0), i8** getelementptr inbounds ([13 x i8*], [13 x i8*]* @_ZN6policy5group12_GLOBAL__N_115BrowserSwitcherE, i32 0, i32 0) }, %"struct.policy::AtomicGroup" { i16 27, i8* getelementptr inbounds ([15 x i8], [15 x i8]* @_ZN6policy5group15kCloudReportingE, i32 0, i32 0), i8** getelementptr inbounds ([8 x i8*], [8 x i8*]* @_ZN6policy5group12_GLOBAL__N_114CloudReportingE, i32 0, i32 0) }, %"struct.policy::AtomicGroup" { i16 9, i8* getelementptr inbounds ([16 x i8], [16 x i8]* @_ZN6policy5group16kCookiesSettingsE, i32 0, i32 0), i8** getelementptr inbounds ([5 x i8*], [5 x i8*]* @_ZN6policy5group12_GLOBAL__N_115CookiesSettingsE, i32 0, i32 0) }, %"struct.policy::AtomicGroup" { i16 35, i8* getelementptr inbounds ([12 x i8], [12 x i8]* @_ZN6policy5group12kDateAndTimeE, i32 0, i32 0), i8** getelementptr inbounds ([3 x i8*], [3 x i8*]* @_ZN6policy5group12_GLOBAL__N_111DateAndTimeE, i32 0, i32 0) }, %"struct.policy::AtomicGroup" { i16 7, i8* getelementptr inbounds ([22 x i8], [22 x i8]* @_ZN6policy5group22kDefaultSearchProviderE, i32 0, i32 0), i8** getelementptr inbounds ([17 x i8*], [17 x i8*]* @_ZN6policy5group12_GLOBAL__N_121DefaultSearchProviderE, i32 0, i32 0) }, %"struct.policy::AtomicGroup" { i16 36, i8* getelementptr inbounds ([8 x i8], [8 x i8]* @_ZN6policy5group8kDisplayE, i32 0, i32 0), i8** getelementptr inbounds ([3 x i8*], [3 x i8*]* @_ZN6policy5group12_GLOBAL__N_17DisplayE, i32 0, i32 0) }, %"struct.policy::AtomicGroup" { i16 17, i8* getelementptr inbounds ([6 x i8], [6 x i8]* @_ZN6policy5group6kDriveE, i32 0, i32 0), i8** getelementptr inbounds ([3 x i8*], [3 x i8*]* @_ZN6policy5group12_GLOBAL__N_15DriveE, i32 0, i32 0) }, %"struct.policy::AtomicGroup" { i16 5, i8* getelementptr inbounds ([11 x i8], [11 x i8]* @_ZN6policy5group11kExtensionsE, i32 0, i32 0), i8** getelementptr inbounds ([10 x i8*], [10 x i8*]* @_ZN6policy5group12_GLOBAL__N_110ExtensionsE, i32 0, i32 0) }, %"struct.policy::AtomicGroup" { i16 21, i8* getelementptr inbounds ([11 x i8], [11 x i8]* @_ZN6policy5group11kGoogleCastE, i32 0, i32 0), i8** getelementptr inbounds ([3 x i8*], [3 x i8*]* @_ZN6policy5group12_GLOBAL__N_110GoogleCastE, i32 0, i32 0) }, %"struct.policy::AtomicGroup" { i16 1, i8* getelementptr inbounds ([9 x i8], [9 x i8]* @_ZN6policy5group9kHomepageE, i32 0, i32 0), i8** getelementptr inbounds ([5 x i8*], [5 x i8*]* @_ZN6policy5group12_GLOBAL__N_18HomepageE, i32 0, i32 0) }, %"struct.policy::AtomicGroup" { i16 8, i8* getelementptr inbounds ([14 x i8], [14 x i8]* @_ZN6policy5group14kImageSettingsE, i32 0, i32 0), i8** getelementptr inbounds ([4 x i8*], [4 x i8*]* @_ZN6policy5group12_GLOBAL__N_113ImageSettingsE, i32 0, i32 0) }, %"struct.policy::AtomicGroup" { i16 10, i8* getelementptr inbounds ([19 x i8], [19 x i8]* @_ZN6policy5group19kJavascriptSettingsE, i32 0, i32 0), i8** getelementptr inbounds ([4 x i8*], [4 x i8*]* @_ZN6policy5group12_GLOBAL__N_118JavascriptSettingsE, i32 0, i32 0) }, %"struct.policy::AtomicGroup" { i16 13, i8* getelementptr inbounds ([15 x i8], [15 x i8]* @_ZN6policy5group15kKeygenSettingsE, i32 0, i32 0), i8** getelementptr inbounds ([4 x i8*], [4 x i8*]* @_ZN6policy5group12_GLOBAL__N_114KeygenSettingsE, i32 0, i32 0) }, %"struct.policy::AtomicGroup" { i16 34, i8* getelementptr inbounds ([6 x i8], [6 x i8]* @_ZN6policy5group6kKioskE, i32 0, i32 0), i8** getelementptr inbounds ([6 x i8*], [6 x i8*]* @_ZN6policy5group12_GLOBAL__N_15KioskE, i32 0, i32 0) }, %"struct.policy::AtomicGroup" { i16 38, i8* getelementptr inbounds ([37 x i8], [37 x i8]* @_ZN6policy5group37kLegacySameSiteCookieBehaviorSettingsE, i32 0, i32 0), i8** getelementptr inbounds ([3 x i8*], [3 x i8*]* @_ZN6policy5group12_GLOBAL__N_136LegacySameSiteCookieBehaviorSettingsE, i32 0, i32 0) }, %"struct.policy::AtomicGroup" { i16 31, i8* getelementptr inbounds ([19 x i8], [19 x i8]* @_ZN6policy5group19kLoginScreenOriginsE, i32 0, i32 0), i8** getelementptr inbounds ([3 x i8*], [3 x i8*]* @_ZN6policy5group12_GLOBAL__N_118LoginScreenOriginsE, i32 0, i32 0) }, %"struct.policy::AtomicGroup" { i16 16, i8* getelementptr inbounds ([16 x i8], [16 x i8]* @_ZN6policy5group16kNativeMessagingE, i32 0, i32 0), i8** getelementptr inbounds ([6 x i8*], [6 x i8*]* @_ZN6policy5group12_GLOBAL__N_115NativeMessagingE, i32 0, i32 0) }, %"struct.policy::AtomicGroup" { i16 26, i8* getelementptr inbounds ([18 x i8], [18 x i8]* @_ZN6policy5group18kNetworkFileSharesE, i32 0, i32 0), i8** getelementptr inbounds ([5 x i8*], [5 x i8*]* @_ZN6policy5group12_GLOBAL__N_117NetworkFileSharesE, i32 0, i32 0) }, %"struct.policy::AtomicGroup" { i16 14, i8* getelementptr inbounds ([22 x i8], [22 x i8]* @_ZN6policy5group22kNotificationsSettingsE, i32 0, i32 0), i8** getelementptr inbounds ([4 x i8*], [4 x i8*]* @_ZN6policy5group12_GLOBAL__N_121NotificationsSettingsE, i32 0, i32 0) }, %"struct.policy::AtomicGroup" { i16 3, i8* getelementptr inbounds ([16 x i8], [16 x i8]* @_ZN6policy5group16kPasswordManagerE, i32 0, i32 0), i8** getelementptr inbounds ([3 x i8*], [3 x i8*]* @_ZN6policy5group12_GLOBAL__N_115PasswordManagerE, i32 0, i32 0) }, %"struct.policy::AtomicGroup" { i16 25, i8* getelementptr inbounds ([19 x i8], [19 x i8]* @_ZN6policy5group19kPasswordProtectionE, i32 0, i32 0), i8** getelementptr inbounds ([4 x i8*], [4 x i8*]* @_ZN6policy5group12_GLOBAL__N_118PasswordProtectionE, i32 0, i32 0) }, %"struct.policy::AtomicGroup" { i16 23, i8* getelementptr inbounds ([10 x i8], [10 x i8]* @_ZN6policy5group10kPinUnlockE, i32 0, i32 0), i8** getelementptr inbounds ([5 x i8*], [5 x i8*]* @_ZN6policy5group12_GLOBAL__N_19PinUnlockE, i32 0, i32 0) }, %"struct.policy::AtomicGroup" { i16 29, i8* getelementptr inbounds ([9 x i8], [9 x i8]* @_ZN6policy5group9kPluginVmE, i32 0, i32 0), i8** getelementptr inbounds ([8 x i8*], [8 x i8*]* @_ZN6policy5group12_GLOBAL__N_18PluginVmE, i32 0, i32 0) }, %"struct.policy::AtomicGroup" { i16 11, i8* getelementptr inbounds ([16 x i8], [16 x i8]* @_ZN6policy5group16kPluginsSettingsE, i32 0, i32 0), i8** getelementptr inbounds ([4 x i8*], [4 x i8*]* @_ZN6policy5group12_GLOBAL__N_115PluginsSettingsE, i32 0, i32 0) }, %"struct.policy::AtomicGroup" { i16 12, i8* getelementptr inbounds ([15 x i8], [15 x i8]* @_ZN6policy5group15kPopupsSettingsE, i32 0, i32 0), i8** getelementptr inbounds ([4 x i8*], [4 x i8*]* @_ZN6policy5group12_GLOBAL__N_114PopupsSettingsE, i32 0, i32 0) }, %"struct.policy::AtomicGroup" { i16 40, i8* getelementptr inbounds ([30 x i8], [30 x i8]* @_ZN6policy5group30kPrivateNetworkRequestSettingsE, i32 0, i32 0), i8** getelementptr inbounds ([3 x i8*], [3 x i8*]* @_ZN6policy5group12_GLOBAL__N_129PrivateNetworkRequestSettingsE, i32 0, i32 0) }, %"struct.policy::AtomicGroup" { i16 4, i8* getelementptr inbounds ([6 x i8], [6 x i8]* @_ZN6policy5group6kProxyE, i32 0, i32 0), i8** getelementptr inbounds ([7 x i8*], [7 x i8*]* @_ZN6policy5group12_GLOBAL__N_15ProxyE, i32 0, i32 0) }, %"struct.policy::AtomicGroup" { i16 22, i8* getelementptr inbounds ([12 x i8], [12 x i8]* @_ZN6policy5group12kQuickUnlockE, i32 0, i32 0), i8** getelementptr inbounds ([4 x i8*], [4 x i8*]* @_ZN6policy5group12_GLOBAL__N_111QuickUnlockE, i32 0, i32 0) }, %"struct.policy::AtomicGroup" { i16 2, i8* getelementptr inbounds ([13 x i8], [13 x i8]* @_ZN6policy5group13kRemoteAccessE, i32 0, i32 0), i8** getelementptr inbounds ([24 x i8*], [24 x i8*]* @_ZN6policy5group12_GLOBAL__N_112RemoteAccessE, i32 0, i32 0) }, %"struct.policy::AtomicGroup" { i16 6, i8* getelementptr inbounds ([17 x i8], [17 x i8]* @_ZN6policy5group17kRestoreOnStartupE, i32 0, i32 0), i8** getelementptr inbounds ([3 x i8*], [3 x i8*]* @_ZN6policy5group12_GLOBAL__N_116RestoreOnStartupE, i32 0, i32 0) }, %"struct.policy::AtomicGroup" { i16 30, i8* getelementptr inbounds ([5 x i8], [5 x i8]* @_ZN6policy5group5kSAMLE, i32 0, i32 0), i8** getelementptr inbounds ([3 x i8*], [3 x i8*]* @_ZN6policy5group12_GLOBAL__N_14SAMLE, i32 0, i32 0) }, %"struct.policy::AtomicGroup" { i16 24, i8* getelementptr inbounds ([13 x i8], [13 x i8]* @_ZN6policy5group13kSafeBrowsingE, i32 0, i32 0), i8** getelementptr inbounds ([6 x i8*], [6 x i8*]* @_ZN6policy5group12_GLOBAL__N_112SafeBrowsingE, i32 0, i32 0) }, %"struct.policy::AtomicGroup" { i16 39, i8* getelementptr inbounds ([16 x i8], [16 x i8]* @_ZN6policy5group16kSensorsSettingsE, i32 0, i32 0), i8** getelementptr inbounds ([4 x i8*], [4 x i8*]* @_ZN6policy5group12_GLOBAL__N_115SensorsSettingsE, i32 0, i32 0) }, %"struct.policy::AtomicGroup" { i16 20, i8* getelementptr inbounds ([16 x i8], [16 x i8]* @_ZN6policy5group16kSupervisedUsersE, i32 0, i32 0), i8** getelementptr inbounds ([4 x i8*], [4 x i8*]* @_ZN6policy5group12_GLOBAL__N_115SupervisedUsersE, i32 0, i32 0) }, %"struct.policy::AtomicGroup" { i16 32, i8* getelementptr inbounds ([23 x i8], [23 x i8]* @_ZN6policy5group23kUserAndDeviceReportingE, i32 0, i32 0), i8** getelementptr inbounds ([31 x i8*], [31 x i8*]* @_ZN6policy5group12_GLOBAL__N_122UserAndDeviceReportingE, i32 0, i32 0) }, %"struct.policy::AtomicGroup" { i16 15, i8* getelementptr inbounds ([15 x i8], [15 x i8]* @_ZN6policy5group15kWebUsbSettingsE, i32 0, i32 0), i8** getelementptr inbounds ([6 x i8*], [6 x i8*]* @_ZN6policy5group12_GLOBAL__N_114WebUsbSettingsE, i32 0, i32 0) }, %"struct.policy::AtomicGroup" { i16 33, i8* getelementptr inbounds ([5 x i8], [5 x i8]* @_ZN6policy5group5kWiFiE, i32 0, i32 0), i8** getelementptr inbounds ([3 x i8*], [3 x i8*]* @_ZN6policy5group12_GLOBAL__N_14WiFiE, i32 0, i32 0) }], align 16
@_ZN6policy32kPolicyAtomicGroupMappingsLengthE = hidden local_unnamed_addr constant i64 39, align 8
@_ZN6policy20kBooleanPolicyAccessE = hidden local_unnamed_addr constant [152 x %"struct.policy::BooleanPolicyAccess"] [%"struct.policy::BooleanPolicyAccess" { i8* getelementptr inbounds ([37 x i8], [37 x i8]* @_ZN6policy3key37kAbusiveExperienceInterventionEnforceE, i32 0, i32 0), i8 1, { i64, i64 } { i64 ptrtoint (i1 (%"class.enterprise_management::CloudPolicySettings"*)* @_ZNK21enterprise_management19CloudPolicySettings40has_abusiveexperienceinterventionenforceEv to i64), i64 0 }, { i64, i64 } { i64 ptrtoint (%"class.enterprise_management::BooleanPolicyProto"* (%"class.enterprise_management::CloudPolicySettings"*)* @_ZNK21enterprise_management19CloudPolicySettings36abusiveexperienceinterventionenforceEv to i64), i64 0 } }, %"struct.policy::BooleanPolicyAccess" { i8* getelementptr inbounds ([32 x i8], [32 x i8]* @_ZN6policy3key32kAccessibilityImageLabelsEnabledE, i32 0, i32 0), i8 1, { i64, i64 } { i64 ptrtoint (i1 (%"class.enterprise_management::CloudPolicySettings"*)* @_ZNK21enterprise_management19CloudPolicySettings35has_accessibilityimagelabelsenabledEv to i64), i64 0 }, { i64, i64 } { i64 ptrtoint (%"class.enterprise_management::BooleanPolicyProto"* (%"class.enterprise_management::CloudPolicySettings"*)* @_ZNK21enterprise_management19CloudPolicySettings31accessibilityimagelabelsenabledEv to i64), i64 0 } }, %"struct.policy::BooleanPolicyAccess" { i8* getelementptr inbounds ([31 x i8], [31 x i8]* @_ZN6policy3key31kAdditionalDnsQueryTypesEnabledE, i32 0, i32 0), i8 0, { i64, i64 } { i64 ptrtoint (i1 (%"class.enterprise_management::CloudPolicySettings"*)* @_ZNK21enterprise_management19CloudPolicySettings34has_additionaldnsquerytypesenabledEv to i64), i64 0 }, { i64, i64 } { i64 ptrtoint (%"class.enterprise_management::BooleanPolicyProto"* (%"class.enterprise_management::CloudPolicySettings"*)* @_ZNK21enterprise_management19CloudPolicySettings30additionaldnsquerytypesenabledEv to i64), i64 0 } }, %"struct.policy::BooleanPolicyAccess" { i8* getelementptr inbounds ([26 x i8], [26 x i8]* @_ZN6policy3key26kAdvancedProtectionAllowedE, i32 0, i32 0), i8 1, { i64, i64 } { i64 ptrtoint (i1 (%"class.enterprise_management::CloudPolicySettings"*)* @_ZNK21enterprise_management19CloudPolicySettings29has_advancedprotectionallowedEv to i64), i64 0 }, { i64, i64 } { i64 ptrtoint (%"class.enterprise_management::BooleanPolicyProto"* (%"class.enterprise_management::CloudPolicySettings"*)* @_ZNK21enterprise_management19CloudPolicySettings25advancedprotectionallowedEv to i64), i64 0 } }, %"struct.policy::BooleanPolicyAccess" { i8* getelementptr inbounds ([27 x i8], [27 x i8]* @_ZN6policy3key27kAllowCrossOriginAuthPromptE, i32 0, i32 0), i8 0, { i64, i64 } { i64 ptrtoint (i1 (%"class.enterprise_management::CloudPolicySettings"*)* @_ZNK21enterprise_management19CloudPolicySettings30has_allowcrossoriginauthpromptEv to i64), i64 0 }, { i64, i64 } { i64 ptrtoint (%"class.enterprise_management::BooleanPolicyProto"* (%"class.enterprise_management::CloudPolicySettings"*)* @_ZNK21enterprise_management19CloudPolicySettings26allowcrossoriginauthpromptEv to i64), i64 0 } }, %"struct.policy::BooleanPolicyAccess" { i8* getelementptr inbounds ([28 x i8], [28 x i8]* @_ZN6policy3key28kAllowDeletingBrowserHistoryE, i32 0, i32 0), i8 1, { i64, i64 } { i64 ptrtoint (i1 (%"class.enterprise_management::CloudPolicySettings"*)* @_ZNK21enterprise_management19CloudPolicySettings31has_allowdeletingbrowserhistoryEv to i64), i64 0 }, { i64, i64 } { i64 ptrtoint (%"class.enterprise_management::BooleanPolicyProto"* (%"class.enterprise_management::CloudPolicySettings"*)* @_ZNK21enterprise_management19CloudPolicySettings27allowdeletingbrowserhistoryEv to i64), i64 0 } }, %"struct.policy::BooleanPolicyAccess" { i8* getelementptr inbounds ([23 x i8], [23 x i8]* @_ZN6policy3key23kAllowDinosaurEasterEggE, i32 0, i32 0), i8 1, { i64, i64 } { i64 ptrtoint (i1 (%"class.enterprise_management::CloudPolicySettings"*)* @_ZNK21enterprise_management19CloudPolicySettings26has_allowdinosaureastereggEv to i64), i64 0 }, { i64, i64 } { i64 ptrtoint (%"class.enterprise_management::BooleanPolicyProto"* (%"class.enterprise_management::CloudPolicySettings"*)* @_ZNK21enterprise_management19CloudPolicySettings22allowdinosaureastereggEv to i64), i64 0 } }, %"struct.policy::BooleanPolicyAccess" { i8* getelementptr inbounds ([26 x i8], [26 x i8]* @_ZN6policy3key26kAllowFileSelectionDialogsE, i32 0, i32 0), i8 0, { i64, i64 } { i64 ptrtoint (i1 (%"class.enterprise_management::CloudPolicySettings"*)* @_ZNK21enterprise_management19CloudPolicySettings29has_allowfileselectiondialogsEv to i64), i64 0 }, { i64, i64 } { i64 ptrtoint (%"class.enterprise_management::BooleanPolicyProto"* (%"class.enterprise_management::CloudPolicySettings"*)* @_ZNK21enterprise_management19CloudPolicySettings25allowfileselectiondialogsEv to i64), i64 0 } }, %"struct.policy::BooleanPolicyAccess" { i8* getelementptr inbounds ([25 x i8], [25 x i8]* @_ZN6policy3key25kAllowNativeNotificationsE, i32 0, i32 0), i8 1, { i64, i64 } { i64 ptrtoint (i1 (%"class.enterprise_management::CloudPolicySettings"*)* @_ZNK21enterprise_management19CloudPolicySettings28has_allownativenotificationsEv to i64), i64 0 }, { i64, i64 } { i64 ptrtoint (%"class.enterprise_management::BooleanPolicyProto"* (%"class.enterprise_management::CloudPolicySettings"*)* @_ZNK21enterprise_management19CloudPolicySettings24allownativenotificationsEv to i64), i64 0 } }, %"struct.policy::BooleanPolicyAccess" { i8* getelementptr inbounds ([28 x i8], [28 x i8]* @_ZN6policy3key28kAllowSyncXHRInPageDismissalE, i32 0, i32 0), i8 1, { i64, i64 } { i64 ptrtoint (i1 (%"class.enterprise_management::CloudPolicySettings"*)* @_ZNK21enterprise_management19CloudPolicySettings31has_allowsyncxhrinpagedismissalEv to i64), i64 0 }, { i64, i64 } { i64 ptrtoint (%"class.enterprise_management::BooleanPolicyProto"* (%"class.enterprise_management::CloudPolicySettings"*)* @_ZNK21enterprise_management19CloudPolicySettings27allowsyncxhrinpagedismissalEv to i64), i64 0 } }, %"struct.policy::BooleanPolicyAccess" { i8* getelementptr inbounds ([25 x i8], [25 x i8]* @_ZN6policy3key25kAllowSystemNotificationsE, i32 0, i32 0), i8 1, { i64, i64 } { i64 ptrtoint (i1 (%"class.enterprise_management::CloudPolicySettings"*)* @_ZNK21enterprise_management19CloudPolicySettings28has_allowsystemnotificationsEv to i64), i64 0 }, { i64, i64 } { i64 ptrtoint (%"class.enterprise_management::BooleanPolicyProto"* (%"class.enterprise_management::CloudPolicySettings"*)* @_ZNK21enterprise_management19CloudPolicySettings24allowsystemnotificationsEv to i64), i64 0 } }, %"struct.policy::BooleanPolicyAccess" { i8* getelementptr inbounds ([27 x i8], [27 x i8]* @_ZN6policy3key27kAlternateErrorPagesEnabledE, i32 0, i32 0), i8 1, { i64, i64 } { i64 ptrtoint (i1 (%"class.enterprise_management::CloudPolicySettings"*)* @_ZNK21enterprise_management19CloudPolicySettings30has_alternateerrorpagesenabledEv to i64), i64 0 }, { i64, i64 } { i64 ptrtoint (%"class.enterprise_management::BooleanPolicyProto"* (%"class.enterprise_management::CloudPolicySettings"*)* @_ZNK21enterprise_management19CloudPolicySettings26alternateerrorpagesenabledEv to i64), i64 0 } }, %"struct.policy::BooleanPolicyAccess" { i8* getelementptr inbounds ([24 x i8], [24 x i8]* @_ZN6policy3key24kAlwaysOpenPdfExternallyE, i32 0, i32 0), i8 1, { i64, i64 } { i64 ptrtoint (i1 (%"class.enterprise_management::CloudPolicySettings"*)* @_ZNK21enterprise_management19CloudPolicySettings27has_alwaysopenpdfexternallyEv to i64), i64 0 }, { i64, i64 } { i64 ptrtoint (%"class.enterprise_management::BooleanPolicyProto"* (%"class.enterprise_management::CloudPolicySettings"*)* @_ZNK21enterprise_management19CloudPolicySettings23alwaysopenpdfexternallyEv to i64), i64 0 } }, %"struct.policy::BooleanPolicyAccess" { i8* getelementptr inbounds ([21 x i8], [21 x i8]* @_ZN6policy3key21kAppCacheForceEnabledE, i32 0, i32 0), i8 0, { i64, i64 } { i64 ptrtoint (i1 (%"class.enterprise_management::CloudPolicySettings"*)* @_ZNK21enterprise_management19CloudPolicySettings24has_appcacheforceenabledEv to i64), i64 0 }, { i64, i64 } { i64 ptrtoint (%"class.enterprise_management::BooleanPolicyProto"* (%"class.enterprise_management::CloudPolicySettings"*)* @_ZNK21enterprise_management19CloudPolicySettings20appcacheforceenabledEv to i64), i64 0 } }, %"struct.policy::BooleanPolicyAccess" { i8* getelementptr inbounds ([20 x i8], [20 x i8]* @_ZN6policy3key20kAudioCaptureAllowedE, i32 0, i32 0), i8 1, { i64, i64 } { i64 ptrtoint (i1 (%"class.enterprise_management::CloudPolicySettings"*)* @_ZNK21enterprise_management19CloudPolicySettings23has_audiocaptureallowedEv to i64), i64 0 }, { i64, i64 } { i64 ptrtoint (%"class.enterprise_management::BooleanPolicyProto"* (%"class.enterprise_management::CloudPolicySettings"*)* @_ZNK21enterprise_management19CloudPolicySettings19audiocaptureallowedEv to i64), i64 0 } }, %"struct.policy::BooleanPolicyAccess" { i8* getelementptr inbounds ([20 x i8], [20 x i8]* @_ZN6policy3key20kAudioSandboxEnabledE, i32 0, i32 0), i8 0, { i64, i64 } { i64 ptrtoint (i1 (%"class.enterprise_management::CloudPolicySettings"*)* @_ZNK21enterprise_management19CloudPolicySettings23has_audiosandboxenabledEv to i64), i64 0 }, { i64, i64 } { i64 ptrtoint (%"class.enterprise_management::BooleanPolicyProto"* (%"class.enterprise_management::CloudPolicySettings"*)* @_ZNK21enterprise_management19CloudPolicySettings19audiosandboxenabledEv to i64), i64 0 } }, %"struct.policy::BooleanPolicyAccess" { i8* getelementptr inbounds ([33 x i8], [33 x i8]* @_ZN6policy3key33kAuthNegotiateDelegateByKdcPolicyE, i32 0, i32 0), i8 0, { i64, i64 } { i64 ptrtoint (i1 (%"class.enterprise_management::CloudPolicySettings"*)* @_ZNK21enterprise_management19CloudPolicySettings36has_authnegotiatedelegatebykdcpolicyEv to i64), i64 0 }, { i64, i64 } { i64 ptrtoint (%"class.enterprise_management::BooleanPolicyProto"* (%"class.enterprise_management::CloudPolicySettings"*)* @_ZNK21enterprise_management19CloudPolicySettings32authnegotiatedelegatebykdcpolicyEv to i64), i64 0 } }, %"struct.policy::BooleanPolicyAccess" { i8* getelementptr inbounds ([16 x i8], [16 x i8]* @_ZN6policy3key16kAutoFillEnabledE, i32 0, i32 0), i8 1, { i64, i64 } { i64 ptrtoint (i1 (%"class.enterprise_management::CloudPolicySettings"*)* @_ZNK21enterprise_management19CloudPolicySettings19has_autofillenabledEv to i64), i64 0 }, { i64, i64 } { i64 ptrtoint (%"class.enterprise_management::BooleanPolicyProto"* (%"class.enterprise_management::CloudPolicySettings"*)* @_ZNK21enterprise_management19CloudPolicySettings15autofillenabledEv to i64), i64 0 } }, %"struct.policy::BooleanPolicyAccess" { i8* getelementptr inbounds ([23 x i8], [23 x i8]* @_ZN6policy3key23kAutofillAddressEnabledE, i32 0, i32 0), i8 1, { i64, i64 } { i64 ptrtoint (i1 (%"class.enterprise_management::CloudPolicySettings"*)* @_ZNK21enterprise_management19CloudPolicySettings26has_autofilladdressenabledEv to i64), i64 0 }, { i64, i64 } { i64 ptrtoint (%"class.enterprise_management::BooleanPolicyProto"* (%"class.enterprise_management::CloudPolicySettings"*)* @_ZNK21enterprise_management19CloudPolicySettings22autofilladdressenabledEv to i64), i64 0 } }, %"struct.policy::BooleanPolicyAccess" { i8* getelementptr inbounds ([26 x i8], [26 x i8]* @_ZN6policy3key26kAutofillCreditCardEnabledE, i32 0, i32 0), i8 1, { i64, i64 } { i64 ptrtoint (i1 (%"class.enterprise_management::CloudPolicySettings"*)* @_ZNK21enterprise_management19CloudPolicySettings29has_autofillcreditcardenabledEv to i64), i64 0 }, { i64, i64 } { i64 ptrtoint (%"class.enterprise_management::BooleanPolicyProto"* (%"class.enterprise_management::CloudPolicySettings"*)* @_ZNK21enterprise_management19CloudPolicySettings25autofillcreditcardenabledEv to i64), i64 0 } }, %"struct.policy::BooleanPolicyAccess" { i8* getelementptr inbounds ([16 x i8], [16 x i8]* @_ZN6policy3key16kAutoplayAllowedE, i32 0, i32 0), i8 1, { i64, i64 } { i64 ptrtoint (i1 (%"class.enterprise_management::CloudPolicySettings"*)* @_ZNK21enterprise_management19CloudPolicySettings19has_autoplayallowedEv to i64), i64 0 }, { i64, i64 } { i64 ptrtoint (%"class.enterprise_management::BooleanPolicyProto"* (%"class.enterprise_management::CloudPolicySettings"*)* @_ZNK21enterprise_management19CloudPolicySettings15autoplayallowedEv to i64), i64 0 } }, %"struct.policy::BooleanPolicyAccess" { i8* getelementptr inbounds ([22 x i8], [22 x i8]* @_ZN6policy3key22kBackgroundModeEnabledE, i32 0, i32 0), i8 0, { i64, i64 } { i64 ptrtoint (i1 (%"class.enterprise_management::CloudPolicySettings"*)* @_ZNK21enterprise_management19CloudPolicySettings25has_backgroundmodeenabledEv to i64), i64 0 }, { i64, i64 } { i64 ptrtoint (%"class.enterprise_management::BooleanPolicyProto"* (%"class.enterprise_management::CloudPolicySettings"*)* @_ZNK21enterprise_management19CloudPolicySettings21backgroundmodeenabledEv to i64), i64 0 } }, %"struct.policy::BooleanPolicyAccess" { i8* getelementptr inbounds ([25 x i8], [25 x i8]* @_ZN6policy3key25kBasicAuthOverHttpEnabledE, i32 0, i32 0), i8 0, { i64, i64 } { i64 ptrtoint (i1 (%"class.enterprise_management::CloudPolicySettings"*)* @_ZNK21enterprise_management19CloudPolicySettings28has_basicauthoverhttpenabledEv to i64), i64 0 }, { i64, i64 } { i64 ptrtoint (%"class.enterprise_management::BooleanPolicyProto"* (%"class.enterprise_management::CloudPolicySettings"*)* @_ZNK21enterprise_management19CloudPolicySettings24basicauthoverhttpenabledEv to i64), i64 0 } }, %"struct.policy::BooleanPolicyAccess" { i8* getelementptr inbounds ([24 x i8], [24 x i8]* @_ZN6policy3key24kBlockExternalExtensionsE, i32 0, i32 0), i8 1, { i64, i64 } { i64 ptrtoint (i1 (%"class.enterprise_management::CloudPolicySettings"*)* @_ZNK21enterprise_management19CloudPolicySettings27has_blockexternalextensionsEv to i64), i64 0 }, { i64, i64 } { i64 ptrtoint (%"class.enterprise_management::BooleanPolicyProto"* (%"class.enterprise_management::CloudPolicySettings"*)* @_ZNK21enterprise_management19CloudPolicySettings23blockexternalextensionsEv to i64), i64 0 } }, %"struct.policy::BooleanPolicyAccess" { i8* getelementptr inbounds ([23 x i8], [23 x i8]* @_ZN6policy3key23kBlockThirdPartyCookiesE, i32 0, i32 0), i8 1, { i64, i64 } { i64 ptrtoint (i1 (%"class.enterprise_management::CloudPolicySettings"*)* @_ZNK21enterprise_management19CloudPolicySettings26has_blockthirdpartycookiesEv to i64), i64 0 }, { i64, i64 } { i64 ptrtoint (%"class.enterprise_management::BooleanPolicyProto"* (%"class.enterprise_management::CloudPolicySettings"*)* @_ZNK21enterprise_management19CloudPolicySettings22blockthirdpartycookiesEv to i64), i64 0 } }, %"struct.policy::BooleanPolicyAccess" { i8* getelementptr inbounds ([19 x i8], [19 x i8]* @_ZN6policy3key19kBookmarkBarEnabledE, i32 0, i32 0), i8 1, { i64, i64 } { i64 ptrtoint (i1 (%"class.enterprise_management::CloudPolicySettings"*)* @_ZNK21enterprise_management19CloudPolicySettings22has_bookmarkbarenabledEv to i64), i64 0 }, { i64, i64 } { i64 ptrtoint (%"class.enterprise_management::BooleanPolicyProto"* (%"class.enterprise_management::CloudPolicySettings"*)* @_ZNK21enterprise_management19CloudPolicySettings18bookmarkbarenabledEv to i64), i64 0 } }, %"struct.policy::BooleanPolicyAccess" { i8* getelementptr inbounds ([24 x i8], [24 x i8]* @_ZN6policy3key24kBrowserAddPersonEnabledE, i32 0, i32 0), i8 0, { i64, i64 } { i64 ptrtoint (i1 (%"class.enterprise_management::CloudPolicySettings"*)* @_ZNK21enterprise_management19CloudPolicySettings27has_browseraddpersonenabledEv to i64), i64 0 }, { i64, i64 } { i64 ptrtoint (%"class.enterprise_management::BooleanPolicyProto"* (%"class.enterprise_management::CloudPolicySettings"*)* @_ZNK21enterprise_management19CloudPolicySettings23browseraddpersonenabledEv to i64), i64 0 } }, %"struct.policy::BooleanPolicyAccess" { i8* getelementptr inbounds ([24 x i8], [24 x i8]* @_ZN6policy3key24kBrowserGuestModeEnabledE, i32 0, i32 0), i8 0, { i64, i64 } { i64 ptrtoint (i1 (%"class.enterprise_management::CloudPolicySettings"*)* @_ZNK21enterprise_management19CloudPolicySettings27has_browserguestmodeenabledEv to i64), i64 0 }, { i64, i64 } { i64 ptrtoint (%"class.enterprise_management::BooleanPolicyProto"* (%"class.enterprise_management::CloudPolicySettings"*)* @_ZNK21enterprise_management19CloudPolicySettings23browserguestmodeenabledEv to i64), i64 0 } }, %"struct.policy::BooleanPolicyAccess" { i8* getelementptr inbounds ([25 x i8], [25 x i8]* @_ZN6policy3key25kBrowserGuestModeEnforcedE, i32 0, i32 0), i8 0, { i64, i64 } { i64 ptrtoint (i1 (%"class.enterprise_management::CloudPolicySettings"*)* @_ZNK21enterprise_management19CloudPolicySettings28has_browserguestmodeenforcedEv to i64), i64 0 }, { i64, i64 } { i64 ptrtoint (%"class.enterprise_management::BooleanPolicyProto"* (%"class.enterprise_management::CloudPolicySettings"*)* @_ZNK21enterprise_management19CloudPolicySettings24browserguestmodeenforcedEv to i64), i64 0 } }, %"struct.policy::BooleanPolicyAccess" { i8* getelementptr inbounds ([19 x i8], [19 x i8]* @_ZN6policy3key19kBrowserLabsEnabledE, i32 0, i32 0), i8 1, { i64, i64 } { i64 ptrtoint (i1 (%"class.enterprise_management::CloudPolicySettings"*)* @_ZNK21enterprise_management19CloudPolicySettings22has_browserlabsenabledEv to i64), i64 0 }, { i64, i64 } { i64 ptrtoint (%"class.enterprise_management::BooleanPolicyProto"* (%"class.enterprise_management::CloudPolicySettings"*)* @_ZNK21enterprise_management19CloudPolicySettings18browserlabsenabledEv to i64), i64 0 } }, %"struct.policy::BooleanPolicyAccess" { i8* getelementptr inbounds ([33 x i8], [33 x i8]* @_ZN6policy3key33kBrowserNetworkTimeQueriesEnabledE, i32 0, i32 0), i8 1, { i64, i64 } { i64 ptrtoint (i1 (%"class.enterprise_management::CloudPolicySettings"*)* @_ZNK21enterprise_management19CloudPolicySettings36has_browsernetworktimequeriesenabledEv to i64), i64 0 }, { i64, i64 } { i64 ptrtoint (%"class.enterprise_management::BooleanPolicyProto"* (%"class.enterprise_management::CloudPolicySettings"*)* @_ZNK21enterprise_management19CloudPolicySettings32browsernetworktimequeriesenabledEv to i64), i64 0 } }, %"struct.policy::BooleanPolicyAccess" { i8* getelementptr inbounds ([23 x i8], [23 x i8]* @_ZN6policy3key23kBrowserSwitcherEnabledE, i32 0, i32 0), i8 1, { i64, i64 } { i64 ptrtoint (i1 (%"class.enterprise_management::CloudPolicySettings"*)* @_ZNK21enterprise_management19CloudPolicySettings26has_browserswitcherenabledEv to i64), i64 0 }, { i64, i64 } { i64 ptrtoint (%"class.enterprise_management::BooleanPolicyProto"* (%"class.enterprise_management::CloudPolicySettings"*)* @_ZNK21enterprise_management19CloudPolicySettings22browserswitcherenabledEv to i64), i64 0 } }, %"struct.policy::BooleanPolicyAccess" { i8* getelementptr inbounds ([33 x i8], [33 x i8]* @_ZN6policy3key33kBrowserSwitcherKeepLastChromeTabE, i32 0, i32 0), i8 1, { i64, i64 } { i64 ptrtoint (i1 (%"class.enterprise_management::CloudPolicySettings"*)* @_ZNK21enterprise_management19CloudPolicySettings36has_browserswitcherkeeplastchrometabEv to i64), i64 0 }, { i64, i64 } { i64 ptrtoint (%"class.enterprise_management::BooleanPolicyProto"* (%"class.enterprise_management::CloudPolicySettings"*)* @_ZNK21enterprise_management19CloudPolicySettings32browserswitcherkeeplastchrometabEv to i64), i64 0 } }, %"struct.policy::BooleanPolicyAccess" { i8* getelementptr inbounds ([24 x i8], [24 x i8]* @_ZN6policy3key24kBuiltInDnsClientEnabledE, i32 0, i32 0), i8 0, { i64, i64 } { i64 ptrtoint (i1 (%"class.enterprise_management::CloudPolicySettings"*)* @_ZNK21enterprise_management19CloudPolicySettings27has_builtindnsclientenabledEv to i64), i64 0 }, { i64, i64 } { i64 ptrtoint (%"class.enterprise_management::BooleanPolicyProto"* (%"class.enterprise_management::CloudPolicySettings"*)* @_ZNK21enterprise_management19CloudPolicySettings23builtindnsclientenabledEv to i64), i64 0 } }, %"struct.policy::BooleanPolicyAccess" { i8* getelementptr inbounds ([14 x i8], [14 x i8]* @_ZN6policy3key14kCECPQ2EnabledE, i32 0, i32 0), i8 0, { i64, i64 } { i64 ptrtoint (i1 (%"class.enterprise_management::CloudPolicySettings"*)* @_ZNK21enterprise_management19CloudPolicySettings17has_cecpq2enabledEv to i64), i64 0 }, { i64, i64 } { i64 ptrtoint (%"class.enterprise_management::BooleanPolicyProto"* (%"class.enterprise_management::CloudPolicySettings"*)* @_ZNK21enterprise_management19CloudPolicySettings13cecpq2enabledEv to i64), i64 0 } }, %"struct.policy::BooleanPolicyAccess" { i8* getelementptr inbounds ([19 x i8], [19 x i8]* @_ZN6policy3key19kClickToCallEnabledE, i32 0, i32 0), i8 1, { i64, i64 } { i64 ptrtoint (i1 (%"class.enterprise_management::CloudPolicySettings"*)* @_ZNK21enterprise_management19CloudPolicySettings22has_clicktocallenabledEv to i64), i64 0 }, { i64, i64 } { i64 ptrtoint (%"class.enterprise_management::BooleanPolicyProto"* (%"class.enterprise_management::CloudPolicySettings"*)* @_ZNK21enterprise_management19CloudPolicySettings18clicktocallenabledEv to i64), i64 0 } }, %"struct.policy::BooleanPolicyAccess" { i8* getelementptr inbounds ([29 x i8], [29 x i8]* @_ZN6policy3key29kCloudExtensionRequestEnabledE, i32 0, i32 0), i8 1, { i64, i64 } { i64 ptrtoint (i1 (%"class.enterprise_management::CloudPolicySettings"*)* @_ZNK21enterprise_management19CloudPolicySettings32has_cloudextensionrequestenabledEv to i64), i64 0 }, { i64, i64 } { i64 ptrtoint (%"class.enterprise_management::BooleanPolicyProto"* (%"class.enterprise_management::CloudPolicySettings"*)* @_ZNK21enterprise_management19CloudPolicySettings28cloudextensionrequestenabledEv to i64), i64 0 } }, %"struct.policy::BooleanPolicyAccess" { i8* getelementptr inbounds ([35 x i8], [35 x i8]* @_ZN6policy3key35kCloudManagementEnrollmentMandatoryE, i32 0, i32 0), i8 0, { i64, i64 } { i64 ptrtoint (i1 (%"class.enterprise_management::CloudPolicySettings"*)* @_ZNK21enterprise_management19CloudPolicySettings38has_cloudmanagementenrollmentmandatoryEv to i64), i64 0 }, { i64, i64 } { i64 ptrtoint (%"class.enterprise_management::BooleanPolicyProto"* (%"class.enterprise_management::CloudPolicySettings"*)* @_ZNK21enterprise_management19CloudPolicySettings34cloudmanagementenrollmentmandatoryEv to i64), i64 0 } }, %"struct.policy::BooleanPolicyAccess" { i8* getelementptr inbounds ([35 x i8], [35 x i8]* @_ZN6policy3key35kCloudPolicyOverridesPlatformPolicyE, i32 0, i32 0), i8 0, { i64, i64 } { i64 ptrtoint (i1 (%"class.enterprise_management::CloudPolicySettings"*)* @_ZNK21enterprise_management19CloudPolicySettings38has_cloudpolicyoverridesplatformpolicyEv to i64), i64 0 }, { i64, i64 } { i64 ptrtoint (%"class.enterprise_management::BooleanPolicyProto"* (%"class.enterprise_management::CloudPolicySettings"*)* @_ZNK21enterprise_management19CloudPolicySettings34cloudpolicyoverridesplatformpolicyEv to i64), i64 0 } }, %"struct.policy::BooleanPolicyAccess" { i8* getelementptr inbounds ([23 x i8], [23 x i8]* @_ZN6policy3key23kCloudPrintProxyEnabledE, i32 0, i32 0), i8 1, { i64, i64 } { i64 ptrtoint (i1 (%"class.enterprise_management::CloudPolicySettings"*)* @_ZNK21enterprise_management19CloudPolicySettings26has_cloudprintproxyenabledEv to i64), i64 0 }, { i64, i64 } { i64 ptrtoint (%"class.enterprise_management::BooleanPolicyProto"* (%"class.enterprise_management::CloudPolicySettings"*)* @_ZNK21enterprise_management19CloudPolicySettings22cloudprintproxyenabledEv to i64), i64 0 } }, %"struct.policy::BooleanPolicyAccess" { i8* getelementptr inbounds ([24 x i8], [24 x i8]* @_ZN6policy3key24kCloudPrintSubmitEnabledE, i32 0, i32 0), i8 1, { i64, i64 } { i64 ptrtoint (i1 (%"class.enterprise_management::CloudPolicySettings"*)* @_ZNK21enterprise_management19CloudPolicySettings27has_cloudprintsubmitenabledEv to i64), i64 0 }, { i64, i64 } { i64 ptrtoint (%"class.enterprise_management::BooleanPolicyProto"* (%"class.enterprise_management::CloudPolicySettings"*)* @_ZNK21enterprise_management19CloudPolicySettings23cloudprintsubmitenabledEv to i64), i64 0 } }, %"struct.policy::BooleanPolicyAccess" { i8* getelementptr inbounds ([22 x i8], [22 x i8]* @_ZN6policy3key22kCloudReportingEnabledE, i32 0, i32 0), i8 0, { i64, i64 } { i64 ptrtoint (i1 (%"class.enterprise_management::CloudPolicySettings"*)* @_ZNK21enterprise_management19CloudPolicySettings25has_cloudreportingenabledEv to i64), i64 0 }, { i64, i64 } { i64 ptrtoint (%"class.enterprise_management::BooleanPolicyProto"* (%"class.enterprise_management::CloudPolicySettings"*)* @_ZNK21enterprise_management19CloudPolicySettings21cloudreportingenabledEv to i64), i64 0 } }, %"struct.policy::BooleanPolicyAccess" { i8* getelementptr inbounds ([21 x i8], [21 x i8]* @_ZN6policy3key21kCloudUserPolicyMergeE, i32 0, i32 0), i8 1, { i64, i64 } { i64 ptrtoint (i1 (%"class.enterprise_management::CloudPolicySettings"*)* @_ZNK21enterprise_management19CloudPolicySettings24has_clouduserpolicymergeEv to i64), i64 0 }, { i64, i64 } { i64 ptrtoint (%"class.enterprise_management::BooleanPolicyProto"* (%"class.enterprise_management::CloudPolicySettings"*)* @_ZNK21enterprise_management19CloudPolicySettings20clouduserpolicymergeEv to i64), i64 0 } }, %"struct.policy::BooleanPolicyAccess" { i8* getelementptr inbounds ([39 x i8], [39 x i8]* @_ZN6policy3key39kCommandLineFlagSecurityWarningsEnabledE, i32 0, i32 0), i8 0, { i64, i64 } { i64 ptrtoint (i1 (%"class.enterprise_management::CloudPolicySettings"*)* @_ZNK21enterprise_management19CloudPolicySettings42has_commandlineflagsecuritywarningsenabledEv to i64), i64 0 }, { i64, i64 } { i64 ptrtoint (%"class.enterprise_management::BooleanPolicyProto"* (%"class.enterprise_management::CloudPolicySettings"*)* @_ZNK21enterprise_management19CloudPolicySettings38commandlineflagsecuritywarningsenabledEv to i64), i64 0 } }, %"struct.policy::BooleanPolicyAccess" { i8* getelementptr inbounds ([24 x i8], [24 x i8]* @_ZN6policy3key24kComponentUpdatesEnabledE, i32 0, i32 0), i8 0, { i64, i64 } { i64 ptrtoint (i1 (%"class.enterprise_management::CloudPolicySettings"*)* @_ZNK21enterprise_management19CloudPolicySettings27has_componentupdatesenabledEv to i64), i64 0 }, { i64, i64 } { i64 ptrtoint (%"class.enterprise_management::BooleanPolicyProto"* (%"class.enterprise_management::CloudPolicySettings"*)* @_ZNK21enterprise_management19CloudPolicySettings23componentupdatesenabledEv to i64), i64 0 } }, %"struct.policy::BooleanPolicyAccess" { i8* getelementptr inbounds ([29 x i8], [29 x i8]* @_ZN6policy3key29kDNSInterceptionChecksEnabledE, i32 0, i32 0), i8 0, { i64, i64 } { i64 ptrtoint (i1 (%"class.enterprise_management::CloudPolicySettings"*)* @_ZNK21enterprise_management19CloudPolicySettings32has_dnsinterceptionchecksenabledEv to i64), i64 0 }, { i64, i64 } { i64 ptrtoint (%"class.enterprise_management::BooleanPolicyProto"* (%"class.enterprise_management::CloudPolicySettings"*)* @_ZNK21enterprise_management19CloudPolicySettings28dnsinterceptionchecksenabledEv to i64), i64 0 } }, %"struct.policy::BooleanPolicyAccess" { i8* getelementptr inbounds ([29 x i8], [29 x i8]* @_ZN6policy3key29kDefaultBrowserSettingEnabledE, i32 0, i32 0), i8 0, { i64, i64 } { i64 ptrtoint (i1 (%"class.enterprise_management::CloudPolicySettings"*)* @_ZNK21enterprise_management19CloudPolicySettings32has_defaultbrowsersettingenabledEv to i64), i64 0 }, { i64, i64 } { i64 ptrtoint (%"class.enterprise_management::BooleanPolicyProto"* (%"class.enterprise_management::CloudPolicySettings"*)* @_ZNK21enterprise_management19CloudPolicySettings28defaultbrowsersettingenabledEv to i64), i64 0 } }, %"struct.policy::BooleanPolicyAccess" { i8* getelementptr inbounds ([46 x i8], [46 x i8]* @_ZN6policy3key46kDefaultSearchProviderContextMenuAccessAllowedE, i32 0, i32 0), i8 1, { i64, i64 } { i64 ptrtoint (i1 (%"class.enterprise_management::CloudPolicySettings"*)* @_ZNK21enterprise_management19CloudPolicySettings49has_defaultsearchprovidercontextmenuaccessallowedEv to i64), i64 0 }, { i64, i64 } { i64 ptrtoint (%"class.enterprise_management::BooleanPolicyProto"* (%"class.enterprise_management::CloudPolicySettings"*)* @_ZNK21enterprise_management19CloudPolicySettings45defaultsearchprovidercontextmenuaccessallowedEv to i64), i64 0 } }, %"struct.policy::BooleanPolicyAccess" { i8* getelementptr inbounds ([29 x i8], [29 x i8]* @_ZN6policy3key29kDefaultSearchProviderEnabledE, i32 0, i32 0), i8 1, { i64, i64 } { i64 ptrtoint (i1 (%"class.enterprise_management::CloudPolicySettings"*)* @_ZNK21enterprise_management19CloudPolicySettings32has_defaultsearchproviderenabledEv to i64), i64 0 }, { i64, i64 } { i64 ptrtoint (%"class.enterprise_management::BooleanPolicyProto"* (%"class.enterprise_management::CloudPolicySettings"*)* @_ZNK21enterprise_management19CloudPolicySettings28defaultsearchproviderenabledEv to i64), i64 0 } }, %"struct.policy::BooleanPolicyAccess" { i8* getelementptr inbounds ([23 x i8], [23 x i8]* @_ZN6policy3key23kDeveloperToolsDisabledE, i32 0, i32 0), i8 1, { i64, i64 } { i64 ptrtoint (i1 (%"class.enterprise_management::CloudPolicySettings"*)* @_ZNK21enterprise_management19CloudPolicySettings26has_developertoolsdisabledEv to i64), i64 0 }, { i64, i64 } { i64 ptrtoint (%"class.enterprise_management::BooleanPolicyProto"* (%"class.enterprise_management::CloudPolicySettings"*)* @_ZNK21enterprise_management19CloudPolicySettings22developertoolsdisabledEv to i64), i64 0 } }, %"struct.policy::BooleanPolicyAccess" { i8* getelementptr inbounds ([14 x i8], [14 x i8]* @_ZN6policy3key14kDisable3DAPIsE, i32 0, i32 0), i8 1, { i64, i64 } { i64 ptrtoint (i1 (%"class.enterprise_management::CloudPolicySettings"*)* @_ZNK21enterprise_management19CloudPolicySettings17has_disable3dapisEv to i64), i64 0 }, { i64, i64 } { i64 ptrtoint (%"class.enterprise_management::BooleanPolicyProto"* (%"class.enterprise_management::CloudPolicySettings"*)* @_ZNK21enterprise_management19CloudPolicySettings13disable3dapisEv to i64), i64 0 } }, %"struct.policy::BooleanPolicyAccess" { i8* getelementptr inbounds ([32 x i8], [32 x i8]* @_ZN6policy3key32kDisableAuthNegotiateCnameLookupE, i32 0, i32 0), i8 0, { i64, i64 } { i64 ptrtoint (i1 (%"class.enterprise_management::CloudPolicySettings"*)* @_ZNK21enterprise_management19CloudPolicySettings35has_disableauthnegotiatecnamelookupEv to i64), i64 0 }, { i64, i64 } { i64 ptrtoint (%"class.enterprise_management::BooleanPolicyProto"* (%"class.enterprise_management::CloudPolicySettings"*)* @_ZNK21enterprise_management19CloudPolicySettings31disableauthnegotiatecnamelookupEv to i64), i64 0 } }, %"struct.policy::BooleanPolicyAccess" { i8* getelementptr inbounds ([20 x i8], [20 x i8]* @_ZN6policy3key20kDisablePrintPreviewE, i32 0, i32 0), i8 1, { i64, i64 } { i64 ptrtoint (i1 (%"class.enterprise_management::CloudPolicySettings"*)* @_ZNK21enterprise_management19CloudPolicySettings23has_disableprintpreviewEv to i64), i64 0 }, { i64, i64 } { i64 ptrtoint (%"class.enterprise_management::BooleanPolicyProto"* (%"class.enterprise_management::CloudPolicySettings"*)* @_ZNK21enterprise_management19CloudPolicySettings19disableprintpreviewEv to i64), i64 0 } }, %"struct.policy::BooleanPolicyAccess" { i8* getelementptr inbounds ([33 x i8], [33 x i8]* @_ZN6policy3key33kDisableSafeBrowsingProceedAnywayE, i32 0, i32 0), i8 1, { i64, i64 } { i64 ptrtoint (i1 (%"class.enterprise_management::CloudPolicySettings"*)* @_ZNK21enterprise_management19CloudPolicySettings36has_disablesafebrowsingproceedanywayEv to i64), i64 0 }, { i64, i64 } { i64 ptrtoint (%"class.enterprise_management::BooleanPolicyProto"* (%"class.enterprise_management::CloudPolicySettings"*)* @_ZNK21enterprise_management19CloudPolicySettings32disablesafebrowsingproceedanywayEv to i64), i64 0 } }, %"struct.policy::BooleanPolicyAccess" { i8* getelementptr inbounds ([19 x i8], [19 x i8]* @_ZN6policy3key19kDisableScreenshotsE, i32 0, i32 0), i8 0, { i64, i64 } { i64 ptrtoint (i1 (%"class.enterprise_management::CloudPolicySettings"*)* @_ZNK21enterprise_management19CloudPolicySettings22has_disablescreenshotsEv to i64), i64 0 }, { i64, i64 } { i64 ptrtoint (%"class.enterprise_management::BooleanPolicyProto"* (%"class.enterprise_management::CloudPolicySettings"*)* @_ZNK21enterprise_management19CloudPolicySettings18disablescreenshotsEv to i64), i64 0 } }, %"struct.policy::BooleanPolicyAccess" { i8* getelementptr inbounds ([21 x i8], [21 x i8]* @_ZN6policy3key21kEditBookmarksEnabledE, i32 0, i32 0), i8 1, { i64, i64 } { i64 ptrtoint (i1 (%"class.enterprise_management::CloudPolicySettings"*)* @_ZNK21enterprise_management19CloudPolicySettings24has_editbookmarksenabledEv to i64), i64 0 }, { i64, i64 } { i64 ptrtoint (%"class.enterprise_management::BooleanPolicyProto"* (%"class.enterprise_management::CloudPolicySettings"*)* @_ZNK21enterprise_management19CloudPolicySettings20editbookmarksenabledEv to i64), i64 0 } }, %"struct.policy::BooleanPolicyAccess" { i8* getelementptr inbounds ([24 x i8], [24 x i8]* @_ZN6policy3key24kEnableAuthNegotiatePortE, i32 0, i32 0), i8 0, { i64, i64 } { i64 ptrtoint (i1 (%"class.enterprise_management::CloudPolicySettings"*)* @_ZNK21enterprise_management19CloudPolicySettings27has_enableauthnegotiateportEv to i64), i64 0 }, { i64, i64 } { i64 ptrtoint (%"class.enterprise_management::BooleanPolicyProto"* (%"class.enterprise_management::CloudPolicySettings"*)* @_ZNK21enterprise_management19CloudPolicySettings23enableauthnegotiateportEv to i64), i64 0 } }, %"struct.policy::BooleanPolicyAccess" { i8* getelementptr inbounds ([31 x i8], [31 x i8]* @_ZN6policy3key31kEnableDeprecatedPrivetPrintingE, i32 0, i32 0), i8 1, { i64, i64 } { i64 ptrtoint (i1 (%"class.enterprise_management::CloudPolicySettings"*)* @_ZNK21enterprise_management19CloudPolicySettings34has_enabledeprecatedprivetprintingEv to i64), i64 0 }, { i64, i64 } { i64 ptrtoint (%"class.enterprise_management::BooleanPolicyProto"* (%"class.enterprise_management::CloudPolicySettings"*)* @_ZNK21enterprise_management19CloudPolicySettings30enabledeprecatedprivetprintingEv to i64), i64 0 } }, %"struct.policy::BooleanPolicyAccess" { i8* getelementptr inbounds ([18 x i8], [18 x i8]* @_ZN6policy3key18kEnableMediaRouterE, i32 0, i32 0), i8 1, { i64, i64 } { i64 ptrtoint (i1 (%"class.enterprise_management::CloudPolicySettings"*)* @_ZNK21enterprise_management19CloudPolicySettings21has_enablemediarouterEv to i64), i64 0 }, { i64, i64 } { i64 ptrtoint (%"class.enterprise_management::BooleanPolicyProto"* (%"class.enterprise_management::CloudPolicySettings"*)* @_ZNK21enterprise_management19CloudPolicySettings17enablemediarouterEv to i64), i64 0 } }, %"struct.policy::BooleanPolicyAccess" { i8* getelementptr inbounds ([29 x i8], [29 x i8]* @_ZN6policy3key29kEnableOnlineRevocationChecksE, i32 0, i32 0), i8 0, { i64, i64 } { i64 ptrtoint (i1 (%"class.enterprise_management::CloudPolicySettings"*)* @_ZNK21enterprise_management19CloudPolicySettings32has_enableonlinerevocationchecksEv to i64), i64 0 }, { i64, i64 } { i64 ptrtoint (%"class.enterprise_management::BooleanPolicyProto"* (%"class.enterprise_management::CloudPolicySettings"*)* @_ZNK21enterprise_management19CloudPolicySettings28enableonlinerevocationchecksEv to i64), i64 0 } }, %"struct.policy::BooleanPolicyAccess" { i8* getelementptr inbounds ([37 x i8], [37 x i8]* @_ZN6policy3key37kEnterpriseHardwarePlatformAPIEnabledE, i32 0, i32 0), i8 1, { i64, i64 } { i64 ptrtoint (i1 (%"class.enterprise_management::CloudPolicySettings"*)* @_ZNK21enterprise_management19CloudPolicySettings40has_enterprisehardwareplatformapienabledEv to i64), i64 0 }, { i64, i64 } { i64 ptrtoint (%"class.enterprise_management::BooleanPolicyProto"* (%"class.enterprise_management::CloudPolicySettings"*)* @_ZNK21enterprise_management19CloudPolicySettings36enterprisehardwareplatformapienabledEv to i64), i64 0 } }, %"struct.policy::BooleanPolicyAccess" { i8* getelementptr inbounds ([45 x i8], [45 x i8]* @_ZN6policy3key45kExternalProtocolDialogShowAlwaysOpenCheckboxE, i32 0, i32 0), i8 1, { i64, i64 } { i64 ptrtoint (i1 (%"class.enterprise_management::CloudPolicySettings"*)* @_ZNK21enterprise_management19CloudPolicySettings48has_externalprotocoldialogshowalwaysopencheckboxEv to i64), i64 0 }, { i64, i64 } { i64 ptrtoint (%"class.enterprise_management::BooleanPolicyProto"* (%"class.enterprise_management::CloudPolicySettings"*)* @_ZNK21enterprise_management19CloudPolicySettings44externalprotocoldialogshowalwaysopencheckboxEv to i64), i64 0 } }, %"struct.policy::BooleanPolicyAccess" { i8* getelementptr inbounds ([23 x i8], [23 x i8]* @_ZN6policy3key23kForceEphemeralProfilesE, i32 0, i32 0), i8 1, { i64, i64 } { i64 ptrtoint (i1 (%"class.enterprise_management::CloudPolicySettings"*)* @_ZNK21enterprise_management19CloudPolicySettings26has_forceephemeralprofilesEv to i64), i64 0 }, { i64, i64 } { i64 ptrtoint (%"class.enterprise_management::BooleanPolicyProto"* (%"class.enterprise_management::CloudPolicySettings"*)* @_ZNK21enterprise_management19CloudPolicySettings22forceephemeralprofilesEv to i64), i64 0 } }, %"struct.policy::BooleanPolicyAccess" { i8* getelementptr inbounds ([22 x i8], [22 x i8]* @_ZN6policy3key22kForceGoogleSafeSearchE, i32 0, i32 0), i8 1, { i64, i64 } { i64 ptrtoint (i1 (%"class.enterprise_management::CloudPolicySettings"*)* @_ZNK21enterprise_management19CloudPolicySettings25has_forcegooglesafesearchEv to i64), i64 0 }, { i64, i64 } { i64 ptrtoint (%"class.enterprise_management::BooleanPolicyProto"* (%"class.enterprise_management::CloudPolicySettings"*)* @_ZNK21enterprise_management19CloudPolicySettings21forcegooglesafesearchEv to i64), i64 0 } }, %"struct.policy::BooleanPolicyAccess" { i8* getelementptr inbounds ([16 x i8], [16 x i8]* @_ZN6policy3key16kForceSafeSearchE, i32 0, i32 0), i8 1, { i64, i64 } { i64 ptrtoint (i1 (%"class.enterprise_management::CloudPolicySettings"*)* @_ZNK21enterprise_management19CloudPolicySettings19has_forcesafesearchEv to i64), i64 0 }, { i64, i64 } { i64 ptrtoint (%"class.enterprise_management::BooleanPolicyProto"* (%"class.enterprise_management::CloudPolicySettings"*)* @_ZNK21enterprise_management19CloudPolicySettings15forcesafesearchEv to i64), i64 0 } }, %"struct.policy::BooleanPolicyAccess" { i8* getelementptr inbounds ([23 x i8], [23 x i8]* @_ZN6policy3key23kForceYouTubeSafetyModeE, i32 0, i32 0), i8 1, { i64, i64 } { i64 ptrtoint (i1 (%"class.enterprise_management::CloudPolicySettings"*)* @_ZNK21enterprise_management19CloudPolicySettings26has_forceyoutubesafetymodeEv to i64), i64 0 }, { i64, i64 } { i64 ptrtoint (%"class.enterprise_management::BooleanPolicyProto"* (%"class.enterprise_management::CloudPolicySettings"*)* @_ZNK21enterprise_management19CloudPolicySettings22forceyoutubesafetymodeEv to i64), i64 0 } }, %"struct.policy::BooleanPolicyAccess" { i8* getelementptr inbounds ([18 x i8], [18 x i8]* @_ZN6policy3key18kFullscreenAllowedE, i32 0, i32 0), i8 1, { i64, i64 } { i64 ptrtoint (i1 (%"class.enterprise_management::CloudPolicySettings"*)* @_ZNK21enterprise_management19CloudPolicySettings21has_fullscreenallowedEv to i64), i64 0 }, { i64, i64 } { i64 ptrtoint (%"class.enterprise_management::BooleanPolicyProto"* (%"class.enterprise_management::CloudPolicySettings"*)* @_ZNK21enterprise_management19CloudPolicySettings17fullscreenallowedEv to i64), i64 0 } }, %"struct.policy::BooleanPolicyAccess" { i8* getelementptr inbounds ([34 x i8], [34 x i8]* @_ZN6policy3key34kGloballyScopeHTTPAuthCacheEnabledE, i32 0, i32 0), i8 1, { i64, i64 } { i64 ptrtoint (i1 (%"class.enterprise_management::CloudPolicySettings"*)* @_ZNK21enterprise_management19CloudPolicySettings37has_globallyscopehttpauthcacheenabledEv to i64), i64 0 }, { i64, i64 } { i64 ptrtoint (%"class.enterprise_management::BooleanPolicyProto"* (%"class.enterprise_management::CloudPolicySettings"*)* @_ZNK21enterprise_management19CloudPolicySettings33globallyscopehttpauthcacheenabledEv to i64), i64 0 } }, %"struct.policy::BooleanPolicyAccess" { i8* getelementptr inbounds ([32 x i8], [32 x i8]* @_ZN6policy3key32kHardwareAccelerationModeEnabledE, i32 0, i32 0), i8 0, { i64, i64 } { i64 ptrtoint (i1 (%"class.enterprise_management::CloudPolicySettings"*)* @_ZNK21enterprise_management19CloudPolicySettings35has_hardwareaccelerationmodeenabledEv to i64), i64 0 }, { i64, i64 } { i64 ptrtoint (%"class.enterprise_management::BooleanPolicyProto"* (%"class.enterprise_management::CloudPolicySettings"*)* @_ZNK21enterprise_management19CloudPolicySettings31hardwareaccelerationmodeenabledEv to i64), i64 0 } }, %"struct.policy::BooleanPolicyAccess" { i8* getelementptr inbounds ([17 x i8], [17 x i8]* @_ZN6policy3key17kHideWebStoreIconE, i32 0, i32 0), i8 1, { i64, i64 } { i64 ptrtoint (i1 (%"class.enterprise_management::CloudPolicySettings"*)* @_ZNK21enterprise_management19CloudPolicySettings20has_hidewebstoreiconEv to i64), i64 0 }, { i64, i64 } { i64 ptrtoint (%"class.enterprise_management::BooleanPolicyProto"* (%"class.enterprise_management::CloudPolicySettings"*)* @_ZNK21enterprise_management19CloudPolicySettings16hidewebstoreiconEv to i64), i64 0 } }, %"struct.policy::BooleanPolicyAccess" { i8* getelementptr inbounds ([21 x i8], [21 x i8]* @_ZN6policy3key21kHomepageIsNewTabPageE, i32 0, i32 0), i8 1, { i64, i64 } { i64 ptrtoint (i1 (%"class.enterprise_management::CloudPolicySettings"*)* @_ZNK21enterprise_management19CloudPolicySettings24has_homepageisnewtabpageEv to i64), i64 0 }, { i64, i64 } { i64 ptrtoint (%"class.enterprise_management::BooleanPolicyProto"* (%"class.enterprise_management::CloudPolicySettings"*)* @_ZNK21enterprise_management19CloudPolicySettings20homepageisnewtabpageEv to i64), i64 0 } }, %"struct.policy::BooleanPolicyAccess" { i8* getelementptr inbounds ([23 x i8], [23 x i8]* @_ZN6policy3key23kImportAutofillFormDataE, i32 0, i32 0), i8 1, { i64, i64 } { i64 ptrtoint (i1 (%"class.enterprise_management::CloudPolicySettings"*)* @_ZNK21enterprise_management19CloudPolicySettings26has_importautofillformdataEv to i64), i64 0 }, { i64, i64 } { i64 ptrtoint (%"class.enterprise_management::BooleanPolicyProto"* (%"class.enterprise_management::CloudPolicySettings"*)* @_ZNK21enterprise_management19CloudPolicySettings22importautofillformdataEv to i64), i64 0 } }, %"struct.policy::BooleanPolicyAccess" { i8* getelementptr inbounds ([16 x i8], [16 x i8]* @_ZN6policy3key16kImportBookmarksE, i32 0, i32 0), i8 1, { i64, i64 } { i64 ptrtoint (i1 (%"class.enterprise_management::CloudPolicySettings"*)* @_ZNK21enterprise_management19CloudPolicySettings19has_importbookmarksEv to i64), i64 0 }, { i64, i64 } { i64 ptrtoint (%"class.enterprise_management::BooleanPolicyProto"* (%"class.enterprise_management::CloudPolicySettings"*)* @_ZNK21enterprise_management19CloudPolicySettings15importbookmarksEv to i64), i64 0 } }, %"struct.policy::BooleanPolicyAccess" { i8* getelementptr inbounds ([14 x i8], [14 x i8]* @_ZN6policy3key14kImportHistoryE, i32 0, i32 0), i8 1, { i64, i64 } { i64 ptrtoint (i1 (%"class.enterprise_management::CloudPolicySettings"*)* @_ZNK21enterprise_management19CloudPolicySettings17has_importhistoryEv to i64), i64 0 }, { i64, i64 } { i64 ptrtoint (%"class.enterprise_management::BooleanPolicyProto"* (%"class.enterprise_management::CloudPolicySettings"*)* @_ZNK21enterprise_management19CloudPolicySettings13importhistoryEv to i64), i64 0 } }, %"struct.policy::BooleanPolicyAccess" { i8* getelementptr inbounds ([15 x i8], [15 x i8]* @_ZN6policy3key15kImportHomepageE, i32 0, i32 0), i8 1, { i64, i64 } { i64 ptrtoint (i1 (%"class.enterprise_management::CloudPolicySettings"*)* @_ZNK21enterprise_management19CloudPolicySettings18has_importhomepageEv to i64), i64 0 }, { i64, i64 } { i64 ptrtoint (%"class.enterprise_management::BooleanPolicyProto"* (%"class.enterprise_management::CloudPolicySettings"*)* @_ZNK21enterprise_management19CloudPolicySettings14importhomepageEv to i64), i64 0 } }, %"struct.policy::BooleanPolicyAccess" { i8* getelementptr inbounds ([21 x i8], [21 x i8]* @_ZN6policy3key21kImportSavedPasswordsE, i32 0, i32 0), i8 1, { i64, i64 } { i64 ptrtoint (i1 (%"class.enterprise_management::CloudPolicySettings"*)* @_ZNK21enterprise_management19CloudPolicySettings24has_importsavedpasswordsEv to i64), i64 0 }, { i64, i64 } { i64 ptrtoint (%"class.enterprise_management::BooleanPolicyProto"* (%"class.enterprise_management::CloudPolicySettings"*)* @_ZNK21enterprise_management19CloudPolicySettings20importsavedpasswordsEv to i64), i64 0 } }, %"struct.policy::BooleanPolicyAccess" { i8* getelementptr inbounds ([19 x i8], [19 x i8]* @_ZN6policy3key19kImportSearchEngineE, i32 0, i32 0), i8 1, { i64, i64 } { i64 ptrtoint (i1 (%"class.enterprise_management::CloudPolicySettings"*)* @_ZNK21enterprise_management19CloudPolicySettings22has_importsearchengineEv to i64), i64 0 }, { i64, i64 } { i64 ptrtoint (%"class.enterprise_management::BooleanPolicyProto"* (%"class.enterprise_management::CloudPolicySettings"*)* @_ZNK21enterprise_management19CloudPolicySettings18importsearchengineEv to i64), i64 0 } }, %"struct.policy::BooleanPolicyAccess" { i8* getelementptr inbounds ([17 x i8], [17 x i8]* @_ZN6policy3key17kIncognitoEnabledE, i32 0, i32 0), i8 1, { i64, i64 } { i64 ptrtoint (i1 (%"class.enterprise_management::CloudPolicySettings"*)* @_ZNK21enterprise_management19CloudPolicySettings20has_incognitoenabledEv to i64), i64 0 }, { i64, i64 } { i64 ptrtoint (%"class.enterprise_management::BooleanPolicyProto"* (%"class.enterprise_management::CloudPolicySettings"*)* @_ZNK21enterprise_management19CloudPolicySettings16incognitoenabledEv to i64), i64 0 } }, %"struct.policy::BooleanPolicyAccess" { i8* getelementptr inbounds ([29 x i8], [29 x i8]* @_ZN6policy3key29kInsecureFormsWarningsEnabledE, i32 0, i32 0), i8 1, { i64, i64 } { i64 ptrtoint (i1 (%"class.enterprise_management::CloudPolicySettings"*)* @_ZNK21enterprise_management19CloudPolicySettings32has_insecureformswarningsenabledEv to i64), i64 0 }, { i64, i64 } { i64 ptrtoint (%"class.enterprise_management::BooleanPolicyProto"* (%"class.enterprise_management::CloudPolicySettings"*)* @_ZNK21enterprise_management19CloudPolicySettings28insecureformswarningsenabledEv to i64), i64 0 } }, %"struct.policy::BooleanPolicyAccess" { i8* getelementptr inbounds ([38 x i8], [38 x i8]* @_ZN6policy3key38kInsecurePrivateNetworkRequestsAllowedE, i32 0, i32 0), i8 1, { i64, i64 } { i64 ptrtoint (i1 (%"class.enterprise_management::CloudPolicySettings"*)* @_ZNK21enterprise_management19CloudPolicySettings41has_insecureprivatenetworkrequestsallowedEv to i64), i64 0 }, { i64, i64 } { i64 ptrtoint (%"class.enterprise_management::BooleanPolicyProto"* (%"class.enterprise_management::CloudPolicySettings"*)* @_ZNK21enterprise_management19CloudPolicySettings37insecureprivatenetworkrequestsallowedEv to i64), i64 0 } }, %"struct.policy::BooleanPolicyAccess" { i8* getelementptr inbounds ([33 x i8], [33 x i8]* @_ZN6policy3key33kIntensiveWakeUpThrottlingEnabledE, i32 0, i32 0), i8 0, { i64, i64 } { i64 ptrtoint (i1 (%"class.enterprise_management::CloudPolicySettings"*)* @_ZNK21enterprise_management19CloudPolicySettings36has_intensivewakeupthrottlingenabledEv to i64), i64 0 }, { i64, i64 } { i64 ptrtoint (%"class.enterprise_management::BooleanPolicyProto"* (%"class.enterprise_management::CloudPolicySettings"*)* @_ZNK21enterprise_management19CloudPolicySettings32intensivewakeupthrottlingenabledEv to i64), i64 0 } }, %"struct.policy::BooleanPolicyAccess" { i8* getelementptr inbounds ([18 x i8], [18 x i8]* @_ZN6policy3key18kJavascriptEnabledE, i32 0, i32 0), i8 1, { i64, i64 } { i64 ptrtoint (i1 (%"class.enterprise_management::CloudPolicySettings"*)* @_ZNK21enterprise_management19CloudPolicySettings21has_javascriptenabledEv to i64), i64 0 }, { i64, i64 } { i64 ptrtoint (%"class.enterprise_management::BooleanPolicyProto"* (%"class.enterprise_management::CloudPolicySettings"*)* @_ZNK21enterprise_management19CloudPolicySettings17javascriptenabledEv to i64), i64 0 } }, %"struct.policy::BooleanPolicyAccess" { i8* getelementptr inbounds ([31 x i8], [31 x i8]* @_ZN6policy3key31kLacrosSecondaryProfilesAllowedE, i32 0, i32 0), i8 0, { i64, i64 } { i64 ptrtoint (i1 (%"class.enterprise_management::CloudPolicySettings"*)* @_ZNK21enterprise_management19CloudPolicySettings34has_lacrossecondaryprofilesallowedEv to i64), i64 0 }, { i64, i64 } { i64 ptrtoint (%"class.enterprise_management::BooleanPolicyProto"* (%"class.enterprise_management::CloudPolicySettings"*)* @_ZNK21enterprise_management19CloudPolicySettings30lacrossecondaryprofilesallowedEv to i64), i64 0 } }, %"struct.policy::BooleanPolicyAccess" { i8* getelementptr inbounds ([28 x i8], [28 x i8]* @_ZN6policy3key28kLockIconInAddressBarEnabledE, i32 0, i32 0), i8 1, { i64, i64 } { i64 ptrtoint (i1 (%"class.enterprise_management::CloudPolicySettings"*)* @_ZNK21enterprise_management19CloudPolicySettings31has_lockiconinaddressbarenabledEv to i64), i64 0 }, { i64, i64 } { i64 ptrtoint (%"class.enterprise_management::BooleanPolicyProto"* (%"class.enterprise_management::CloudPolicySettings"*)* @_ZNK21enterprise_management19CloudPolicySettings27lockiconinaddressbarenabledEv to i64), i64 0 } }, %"struct.policy::BooleanPolicyAccess" { i8* getelementptr inbounds ([28 x i8], [28 x i8]* @_ZN6policy3key28kMediaRecommendationsEnabledE, i32 0, i32 0), i8 1, { i64, i64 } { i64 ptrtoint (i1 (%"class.enterprise_management::CloudPolicySettings"*)* @_ZNK21enterprise_management19CloudPolicySettings31has_mediarecommendationsenabledEv to i64), i64 0 }, { i64, i64 } { i64 ptrtoint (%"class.enterprise_management::BooleanPolicyProto"* (%"class.enterprise_management::CloudPolicySettings"*)* @_ZNK21enterprise_management19CloudPolicySettings27mediarecommendationsenabledEv to i64), i64 0 } }, %"struct.policy::BooleanPolicyAccess" { i8* getelementptr inbounds ([27 x i8], [27 x i8]* @_ZN6policy3key27kMediaRouterCastAllowAllIPsE, i32 0, i32 0), i8 0, { i64, i64 } { i64 ptrtoint (i1 (%"class.enterprise_management::CloudPolicySettings"*)* @_ZNK21enterprise_management19CloudPolicySettings30has_mediaroutercastallowallipsEv to i64), i64 0 }, { i64, i64 } { i64 ptrtoint (%"class.enterprise_management::BooleanPolicyProto"* (%"class.enterprise_management::CloudPolicySettings"*)* @_ZNK21enterprise_management19CloudPolicySettings26mediaroutercastallowallipsEv to i64), i64 0 } }, %"struct.policy::BooleanPolicyAccess" { i8* getelementptr inbounds ([24 x i8], [24 x i8]* @_ZN6policy3key24kMetricsReportingEnabledE, i32 0, i32 0), i8 0, { i64, i64 } { i64 ptrtoint (i1 (%"class.enterprise_management::CloudPolicySettings"*)* @_ZNK21enterprise_management19CloudPolicySettings27has_metricsreportingenabledEv to i64), i64 0 }, { i64, i64 } { i64 ptrtoint (%"class.enterprise_management::BooleanPolicyProto"* (%"class.enterprise_management::CloudPolicySettings"*)* @_ZNK21enterprise_management19CloudPolicySettings23metricsreportingenabledEv to i64), i64 0 } }, %"struct.policy::BooleanPolicyAccess" { i8* getelementptr inbounds ([16 x i8], [16 x i8]* @_ZN6policy3key16kNTPCardsVisibleE, i32 0, i32 0), i8 1, { i64, i64 } { i64 ptrtoint (i1 (%"class.enterprise_management::CloudPolicySettings"*)* @_ZNK21enterprise_management19CloudPolicySettings19has_ntpcardsvisibleEv to i64), i64 0 }, { i64, i64 } { i64 ptrtoint (%"class.enterprise_management::BooleanPolicyProto"* (%"class.enterprise_management::CloudPolicySettings"*)* @_ZNK21enterprise_management19CloudPolicySettings15ntpcardsvisibleEv to i64), i64 0 } }, %"struct.policy::BooleanPolicyAccess" { i8* getelementptr inbounds ([27 x i8], [27 x i8]* @_ZN6policy3key27kNTPCustomBackgroundEnabledE, i32 0, i32 0), i8 1, { i64, i64 } { i64 ptrtoint (i1 (%"class.enterprise_management::CloudPolicySettings"*)* @_ZNK21enterprise_management19CloudPolicySettings30has_ntpcustombackgroundenabledEv to i64), i64 0 }, { i64, i64 } { i64 ptrtoint (%"class.enterprise_management::BooleanPolicyProto"* (%"class.enterprise_management::CloudPolicySettings"*)* @_ZNK21enterprise_management19CloudPolicySettings26ntpcustombackgroundenabledEv to i64), i64 0 } }, %"struct.policy::BooleanPolicyAccess" { i8* getelementptr inbounds ([30 x i8], [30 x i8]* @_ZN6policy3key30kNativeMessagingUserLevelHostsE, i32 0, i32 0), i8 1, { i64, i64 } { i64 ptrtoint (i1 (%"class.enterprise_management::CloudPolicySettings"*)* @_ZNK21enterprise_management19CloudPolicySettings33has_nativemessaginguserlevelhostsEv to i64), i64 0 }, { i64, i64 } { i64 ptrtoint (%"class.enterprise_management::BooleanPolicyProto"* (%"class.enterprise_management::CloudPolicySettings"*)* @_ZNK21enterprise_management19CloudPolicySettings29nativemessaginguserlevelhostsEv to i64), i64 0 } }, %"struct.policy::BooleanPolicyAccess" { i8* getelementptr inbounds ([14 x i8], [14 x i8]* @_ZN6policy3key14kNtlmV2EnabledE, i32 0, i32 0), i8 0, { i64, i64 } { i64 ptrtoint (i1 (%"class.enterprise_management::CloudPolicySettings"*)* @_ZNK21enterprise_management19CloudPolicySettings17has_ntlmv2enabledEv to i64), i64 0 }, { i64, i64 } { i64 ptrtoint (%"class.enterprise_management::BooleanPolicyProto"* (%"class.enterprise_management::CloudPolicySettings"*)* @_ZNK21enterprise_management19CloudPolicySettings13ntlmv2enabledEv to i64), i64 0 } }, %"struct.policy::BooleanPolicyAccess" { i8* getelementptr inbounds ([29 x i8], [29 x i8]* @_ZN6policy3key29kPasswordLeakDetectionEnabledE, i32 0, i32 0), i8 1, { i64, i64 } { i64 ptrtoint (i1 (%"class.enterprise_management::CloudPolicySettings"*)* @_ZNK21enterprise_management19CloudPolicySettings32has_passwordleakdetectionenabledEv to i64), i64 0 }, { i64, i64 } { i64 ptrtoint (%"class.enterprise_management::BooleanPolicyProto"* (%"class.enterprise_management::CloudPolicySettings"*)* @_ZNK21enterprise_management19CloudPolicySettings28passwordleakdetectionenabledEv to i64), i64 0 } }, %"struct.policy::BooleanPolicyAccess" { i8* getelementptr inbounds ([23 x i8], [23 x i8]* @_ZN6policy3key23kPasswordManagerEnabledE, i32 0, i32 0), i8 1, { i64, i64 } { i64 ptrtoint (i1 (%"class.enterprise_management::CloudPolicySettings"*)* @_ZNK21enterprise_management19CloudPolicySettings26has_passwordmanagerenabledEv to i64), i64 0 }, { i64, i64 } { i64 ptrtoint (%"class.enterprise_management::BooleanPolicyProto"* (%"class.enterprise_management::CloudPolicySettings"*)* @_ZNK21enterprise_management19CloudPolicySettings22passwordmanagerenabledEv to i64), i64 0 } }, %"struct.policy::BooleanPolicyAccess" { i8* getelementptr inbounds ([26 x i8], [26 x i8]* @_ZN6policy3key26kPaymentMethodQueryEnabledE, i32 0, i32 0), i8 1, { i64, i64 } { i64 ptrtoint (i1 (%"class.enterprise_management::CloudPolicySettings"*)* @_ZNK21enterprise_management19CloudPolicySettings29has_paymentmethodqueryenabledEv to i64), i64 0 }, { i64, i64 } { i64 ptrtoint (%"class.enterprise_management::BooleanPolicyProto"* (%"class.enterprise_management::CloudPolicySettings"*)* @_ZNK21enterprise_management19CloudPolicySettings25paymentmethodqueryenabledEv to i64), i64 0 } }, %"struct.policy::BooleanPolicyAccess" { i8* getelementptr inbounds ([26 x i8], [26 x i8]* @_ZN6policy3key26kPolicyAtomicGroupsEnabledE, i32 0, i32 0), i8 1, { i64, i64 } { i64 ptrtoint (i1 (%"class.enterprise_management::CloudPolicySettings"*)* @_ZNK21enterprise_management19CloudPolicySettings29has_policyatomicgroupsenabledEv to i64), i64 0 }, { i64, i64 } { i64 ptrtoint (%"class.enterprise_management::BooleanPolicyProto"* (%"class.enterprise_management::CloudPolicySettings"*)* @_ZNK21enterprise_management19CloudPolicySettings25policyatomicgroupsenabledEv to i64), i64 0 } }, %"struct.policy::BooleanPolicyAccess" { i8* getelementptr inbounds ([18 x i8], [18 x i8]* @_ZN6policy3key18kPrintHeaderFooterE, i32 0, i32 0), i8 0, { i64, i64 } { i64 ptrtoint (i1 (%"class.enterprise_management::CloudPolicySettings"*)* @_ZNK21enterprise_management19CloudPolicySettings21has_printheaderfooterEv to i64), i64 0 }, { i64, i64 } { i64 ptrtoint (%"class.enterprise_management::BooleanPolicyProto"* (%"class.enterprise_management::CloudPolicySettings"*)* @_ZNK21enterprise_management19CloudPolicySettings17printheaderfooterEv to i64), i64 0 } }, %"struct.policy::BooleanPolicyAccess" { i8* getelementptr inbounds ([36 x i8], [36 x i8]* @_ZN6policy3key36kPrintPreviewUseSystemDefaultPrinterE, i32 0, i32 0), i8 1, { i64, i64 } { i64 ptrtoint (i1 (%"class.enterprise_management::CloudPolicySettings"*)* @_ZNK21enterprise_management19CloudPolicySettings39has_printpreviewusesystemdefaultprinterEv to i64), i64 0 }, { i64, i64 } { i64 ptrtoint (%"class.enterprise_management::BooleanPolicyProto"* (%"class.enterprise_management::CloudPolicySettings"*)* @_ZNK21enterprise_management19CloudPolicySettings35printpreviewusesystemdefaultprinterEv to i64), i64 0 } }, %"struct.policy::BooleanPolicyAccess" { i8* getelementptr inbounds ([16 x i8], [16 x i8]* @_ZN6policy3key16kPrintingEnabledE, i32 0, i32 0), i8 1, { i64, i64 } { i64 ptrtoint (i1 (%"class.enterprise_management::CloudPolicySettings"*)* @_ZNK21enterprise_management19CloudPolicySettings19has_printingenabledEv to i64), i64 0 }, { i64, i64 } { i64 ptrtoint (%"class.enterprise_management::BooleanPolicyProto"* (%"class.enterprise_management::CloudPolicySettings"*)* @_ZNK21enterprise_management19CloudPolicySettings15printingenabledEv to i64), i64 0 } }, %"struct.policy::BooleanPolicyAccess" { i8* getelementptr inbounds ([23 x i8], [23 x i8]* @_ZN6policy3key23kPromotionalTabsEnabledE, i32 0, i32 0), i8 0, { i64, i64 } { i64 ptrtoint (i1 (%"class.enterprise_management::CloudPolicySettings"*)* @_ZNK21enterprise_management19CloudPolicySettings26has_promotionaltabsenabledEv to i64), i64 0 }, { i64, i64 } { i64 ptrtoint (%"class.enterprise_management::BooleanPolicyProto"* (%"class.enterprise_management::CloudPolicySettings"*)* @_ZNK21enterprise_management19CloudPolicySettings22promotionaltabsenabledEv to i64), i64 0 } }, %"struct.policy::BooleanPolicyAccess" { i8* getelementptr inbounds ([26 x i8], [26 x i8]* @_ZN6policy3key26kPromptForDownloadLocationE, i32 0, i32 0), i8 1, { i64, i64 } { i64 ptrtoint (i1 (%"class.enterprise_management::CloudPolicySettings"*)* @_ZNK21enterprise_management19CloudPolicySettings29has_promptfordownloadlocationEv to i64), i64 0 }, { i64, i64 } { i64 ptrtoint (%"class.enterprise_management::BooleanPolicyProto"* (%"class.enterprise_management::CloudPolicySettings"*)* @_ZNK21enterprise_management19CloudPolicySettings25promptfordownloadlocationEv to i64), i64 0 } }, %"struct.policy::BooleanPolicyAccess" { i8* getelementptr inbounds ([12 x i8], [12 x i8]* @_ZN6policy3key12kQuicAllowedE, i32 0, i32 0), i8 0, { i64, i64 } { i64 ptrtoint (i1 (%"class.enterprise_management::CloudPolicySettings"*)* @_ZNK21enterprise_management19CloudPolicySettings15has_quicallowedEv to i64), i64 0 }, { i64, i64 } { i64 ptrtoint (%"class.enterprise_management::BooleanPolicyProto"* (%"class.enterprise_management::CloudPolicySettings"*)* @_ZNK21enterprise_management19CloudPolicySettings11quicallowedEv to i64), i64 0 } }, %"struct.policy::BooleanPolicyAccess" { i8* getelementptr inbounds ([35 x i8], [35 x i8]* @_ZN6policy3key35kRemoteAccessHostAllowClientPairingE, i32 0, i32 0), i8 0, { i64, i64 } { i64 ptrtoint (i1 (%"class.enterprise_management::CloudPolicySettings"*)* @_ZNK21enterprise_management19CloudPolicySettings38has_remoteaccesshostallowclientpairingEv to i64), i64 0 }, { i64, i64 } { i64 ptrtoint (%"class.enterprise_management::BooleanPolicyProto"* (%"class.enterprise_management::CloudPolicySettings"*)* @_ZNK21enterprise_management19CloudPolicySettings34remoteaccesshostallowclientpairingEv to i64), i64 0 } }, %"struct.policy::BooleanPolicyAccess" { i8* getelementptr inbounds ([34 x i8], [34 x i8]* @_ZN6policy3key34kRemoteAccessHostAllowFileTransferE, i32 0, i32 0), i8 0, { i64, i64 } { i64 ptrtoint (i1 (%"class.enterprise_management::CloudPolicySettings"*)* @_ZNK21enterprise_management19CloudPolicySettings37has_remoteaccesshostallowfiletransferEv to i64), i64 0 }, { i64, i64 } { i64 ptrtoint (%"class.enterprise_management::BooleanPolicyProto"* (%"class.enterprise_management::CloudPolicySettings"*)* @_ZNK21enterprise_management19CloudPolicySettings33remoteaccesshostallowfiletransferEv to i64), i64 0 } }, %"struct.policy::BooleanPolicyAccess" { i8* getelementptr inbounds ([32 x i8], [32 x i8]* @_ZN6policy3key32kRemoteAccessHostAllowGnubbyAuthE, i32 0, i32 0), i8 0, { i64, i64 } { i64 ptrtoint (i1 (%"class.enterprise_management::CloudPolicySettings"*)* @_ZNK21enterprise_management19CloudPolicySettings35has_remoteaccesshostallowgnubbyauthEv to i64), i64 0 }, { i64, i64 } { i64 ptrtoint (%"class.enterprise_management::BooleanPolicyProto"* (%"class.enterprise_management::CloudPolicySettings"*)* @_ZNK21enterprise_management19CloudPolicySettings31remoteaccesshostallowgnubbyauthEv to i64), i64 0 } }, %"struct.policy::BooleanPolicyAccess" { i8* getelementptr inbounds ([39 x i8], [39 x i8]* @_ZN6policy3key39kRemoteAccessHostAllowRelayedConnectionE, i32 0, i32 0), i8 0, { i64, i64 } { i64 ptrtoint (i1 (%"class.enterprise_management::CloudPolicySettings"*)* @_ZNK21enterprise_management19CloudPolicySettings42has_remoteaccesshostallowrelayedconnectionEv to i64), i64 0 }, { i64, i64 } { i64 ptrtoint (%"class.enterprise_management::BooleanPolicyProto"* (%"class.enterprise_management::CloudPolicySettings"*)* @_ZNK21enterprise_management19CloudPolicySettings38remoteaccesshostallowrelayedconnectionEv to i64), i64 0 } }, %"struct.policy::BooleanPolicyAccess" { i8* getelementptr inbounds ([45 x i8], [45 x i8]* @_ZN6policy3key45kRemoteAccessHostAllowRemoteAccessConnectionsE, i32 0, i32 0), i8 0, { i64, i64 } { i64 ptrtoint (i1 (%"class.enterprise_management::CloudPolicySettings"*)* @_ZNK21enterprise_management19CloudPolicySettings48has_remoteaccesshostallowremoteaccessconnectionsEv to i64), i64 0 }, { i64, i64 } { i64 ptrtoint (%"class.enterprise_management::BooleanPolicyProto"* (%"class.enterprise_management::CloudPolicySettings"*)* @_ZNK21enterprise_management19CloudPolicySettings44remoteaccesshostallowremoteaccessconnectionsEv to i64), i64 0 } }, %"struct.policy::BooleanPolicyAccess" { i8* getelementptr inbounds ([36 x i8], [36 x i8]* @_ZN6policy3key36kRemoteAccessHostEnableUserInterfaceE, i32 0, i32 0), i8 0, { i64, i64 } { i64 ptrtoint (i1 (%"class.enterprise_management::CloudPolicySettings"*)* @_ZNK21enterprise_management19CloudPolicySettings39has_remoteaccesshostenableuserinterfaceEv to i64), i64 0 }, { i64, i64 } { i64 ptrtoint (%"class.enterprise_management::BooleanPolicyProto"* (%"class.enterprise_management::CloudPolicySettings"*)* @_ZNK21enterprise_management19CloudPolicySettings35remoteaccesshostenableuserinterfaceEv to i64), i64 0 } }, %"struct.policy::BooleanPolicyAccess" { i8* getelementptr inbounds ([34 x i8], [34 x i8]* @_ZN6policy3key34kRemoteAccessHostFirewallTraversalE, i32 0, i32 0), i8 0, { i64, i64 } { i64 ptrtoint (i1 (%"class.enterprise_management::CloudPolicySettings"*)* @_ZNK21enterprise_management19CloudPolicySettings37has_remoteaccesshostfirewalltraversalEv to i64), i64 0 }, { i64, i64 } { i64 ptrtoint (%"class.enterprise_management::BooleanPolicyProto"* (%"class.enterprise_management::CloudPolicySettings"*)* @_ZNK21enterprise_management19CloudPolicySettings33remoteaccesshostfirewalltraversalEv to i64), i64 0 } }, %"struct.policy::BooleanPolicyAccess" { i8* getelementptr inbounds ([30 x i8], [30 x i8]* @_ZN6policy3key30kRemoteAccessHostMatchUsernameE, i32 0, i32 0), i8 0, { i64, i64 } { i64 ptrtoint (i1 (%"class.enterprise_management::CloudPolicySettings"*)* @_ZNK21enterprise_management19CloudPolicySettings33has_remoteaccesshostmatchusernameEv to i64), i64 0 }, { i64, i64 } { i64 ptrtoint (%"class.enterprise_management::BooleanPolicyProto"* (%"class.enterprise_management::CloudPolicySettings"*)* @_ZNK21enterprise_management19CloudPolicySettings29remoteaccesshostmatchusernameEv to i64), i64 0 } }, %"struct.policy::BooleanPolicyAccess" { i8* getelementptr inbounds ([31 x i8], [31 x i8]* @_ZN6policy3key31kRemoteAccessHostRequireCurtainE, i32 0, i32 0), i8 0, { i64, i64 } { i64 ptrtoint (i1 (%"class.enterprise_management::CloudPolicySettings"*)* @_ZNK21enterprise_management19CloudPolicySettings34has_remoteaccesshostrequirecurtainEv to i64), i64 0 }, { i64, i64 } { i64 ptrtoint (%"class.enterprise_management::BooleanPolicyProto"* (%"class.enterprise_management::CloudPolicySettings"*)* @_ZNK21enterprise_management19CloudPolicySettings30remoteaccesshostrequirecurtainEv to i64), i64 0 } }, %"struct.policy::BooleanPolicyAccess" { i8* getelementptr inbounds ([31 x i8], [31 x i8]* @_ZN6policy3key31kReportExtensionsAndPluginsDataE, i32 0, i32 0), i8 1, { i64, i64 } { i64 ptrtoint (i1 (%"class.enterprise_management::CloudPolicySettings"*)* @_ZNK21enterprise_management19CloudPolicySettings34has_reportextensionsandpluginsdataEv to i64), i64 0 }, { i64, i64 } { i64 ptrtoint (%"class.enterprise_management::BooleanPolicyProto"* (%"class.enterprise_management::CloudPolicySettings"*)* @_ZNK21enterprise_management19CloudPolicySettings30reportextensionsandpluginsdataEv to i64), i64 0 } }, %"struct.policy::BooleanPolicyAccess" { i8* getelementptr inbounds ([20 x i8], [20 x i8]* @_ZN6policy3key20kReportMachineIDDataE, i32 0, i32 0), i8 1, { i64, i64 } { i64 ptrtoint (i1 (%"class.enterprise_management::CloudPolicySettings"*)* @_ZNK21enterprise_management19CloudPolicySettings23has_reportmachineiddataEv to i64), i64 0 }, { i64, i64 } { i64 ptrtoint (%"class.enterprise_management::BooleanPolicyProto"* (%"class.enterprise_management::CloudPolicySettings"*)* @_ZNK21enterprise_management19CloudPolicySettings19reportmachineiddataEv to i64), i64 0 } }, %"struct.policy::BooleanPolicyAccess" { i8* getelementptr inbounds ([17 x i8], [17 x i8]* @_ZN6policy3key17kReportPolicyDataE, i32 0, i32 0), i8 1, { i64, i64 } { i64 ptrtoint (i1 (%"class.enterprise_management::CloudPolicySettings"*)* @_ZNK21enterprise_management19CloudPolicySettings20has_reportpolicydataEv to i64), i64 0 }, { i64, i64 } { i64 ptrtoint (%"class.enterprise_management::BooleanPolicyProto"* (%"class.enterprise_management::CloudPolicySettings"*)* @_ZNK21enterprise_management19CloudPolicySettings16reportpolicydataEv to i64), i64 0 } }, %"struct.policy::BooleanPolicyAccess" { i8* getelementptr inbounds ([17 x i8], [17 x i8]* @_ZN6policy3key17kReportUserIDDataE, i32 0, i32 0), i8 1, { i64, i64 } { i64 ptrtoint (i1 (%"class.enterprise_management::CloudPolicySettings"*)* @_ZNK21enterprise_management19CloudPolicySettings20has_reportuseriddataEv to i64), i64 0 }, { i64, i64 } { i64 ptrtoint (%"class.enterprise_management::BooleanPolicyProto"* (%"class.enterprise_management::CloudPolicySettings"*)* @_ZNK21enterprise_management19CloudPolicySettings16reportuseriddataEv to i64), i64 0 } }, %"struct.policy::BooleanPolicyAccess" { i8* getelementptr inbounds ([18 x i8], [18 x i8]* @_ZN6policy3key18kReportVersionDataE, i32 0, i32 0), i8 1, { i64, i64 } { i64 ptrtoint (i1 (%"class.enterprise_management::CloudPolicySettings"*)* @_ZNK21enterprise_management19CloudPolicySettings21has_reportversiondataEv to i64), i64 0 }, { i64, i64 } { i64 ptrtoint (%"class.enterprise_management::BooleanPolicyProto"* (%"class.enterprise_management::CloudPolicySettings"*)* @_ZNK21enterprise_management19CloudPolicySettings17reportversiondataEv to i64), i64 0 } }, %"struct.policy::BooleanPolicyAccess" { i8* getelementptr inbounds ([45 x i8], [45 x i8]* @_ZN6policy3key45kRequireOnlineRevocationChecksForLocalAnchorsE, i32 0, i32 0), i8 0, { i64, i64 } { i64 ptrtoint (i1 (%"class.enterprise_management::CloudPolicySettings"*)* @_ZNK21enterprise_management19CloudPolicySettings48has_requireonlinerevocationchecksforlocalanchorsEv to i64), i64 0 }, { i64, i64 } { i64 ptrtoint (%"class.enterprise_management::BooleanPolicyProto"* (%"class.enterprise_management::CloudPolicySettings"*)* @_ZNK21enterprise_management19CloudPolicySettings44requireonlinerevocationchecksforlocalanchorsEv to i64), i64 0 } }, %"struct.policy::BooleanPolicyAccess" { i8* getelementptr inbounds ([29 x i8], [29 x i8]* @_ZN6policy3key29kRoamingProfileSupportEnabledE, i32 0, i32 0), i8 0, { i64, i64 } { i64 ptrtoint (i1 (%"class.enterprise_management::CloudPolicySettings"*)* @_ZNK21enterprise_management19CloudPolicySettings32has_roamingprofilesupportenabledEv to i64), i64 0 }, { i64, i64 } { i64 ptrtoint (%"class.enterprise_management::BooleanPolicyProto"* (%"class.enterprise_management::CloudPolicySettings"*)* @_ZNK21enterprise_management19CloudPolicySettings28roamingprofilesupportenabledEv to i64), i64 0 } }, %"struct.policy::BooleanPolicyAccess" { i8* getelementptr inbounds ([24 x i8], [24 x i8]* @_ZN6policy3key24kSSLErrorOverrideAllowedE, i32 0, i32 0), i8 1, { i64, i64 } { i64 ptrtoint (i1 (%"class.enterprise_management::CloudPolicySettings"*)* @_ZNK21enterprise_management19CloudPolicySettings27has_sslerroroverrideallowedEv to i64), i64 0 }, { i64, i64 } { i64 ptrtoint (%"class.enterprise_management::BooleanPolicyProto"* (%"class.enterprise_management::CloudPolicySettings"*)* @_ZNK21enterprise_management19CloudPolicySettings23sslerroroverrideallowedEv to i64), i64 0 } }, %"struct.policy::BooleanPolicyAccess" { i8* getelementptr inbounds ([20 x i8], [20 x i8]* @_ZN6policy3key20kSafeBrowsingEnabledE, i32 0, i32 0), i8 1, { i64, i64 } { i64 ptrtoint (i1 (%"class.enterprise_management::CloudPolicySettings"*)* @_ZNK21enterprise_management19CloudPolicySettings23has_safebrowsingenabledEv to i64), i64 0 }, { i64, i64 } { i64 ptrtoint (%"class.enterprise_management::BooleanPolicyProto"* (%"class.enterprise_management::CloudPolicySettings"*)* @_ZNK21enterprise_management19CloudPolicySettings19safebrowsingenabledEv to i64), i64 0 } }, %"struct.policy::BooleanPolicyAccess" { i8* getelementptr inbounds ([37 x i8], [37 x i8]* @_ZN6policy3key37kSafeBrowsingExtendedReportingEnabledE, i32 0, i32 0), i8 1, { i64, i64 } { i64 ptrtoint (i1 (%"class.enterprise_management::CloudPolicySettings"*)* @_ZNK21enterprise_management19CloudPolicySettings40has_safebrowsingextendedreportingenabledEv to i64), i64 0 }, { i64, i64 } { i64 ptrtoint (%"class.enterprise_management::BooleanPolicyProto"* (%"class.enterprise_management::CloudPolicySettings"*)* @_ZNK21enterprise_management19CloudPolicySettings36safebrowsingextendedreportingenabledEv to i64), i64 0 } }, %"struct.policy::BooleanPolicyAccess" { i8* getelementptr inbounds ([29 x i8], [29 x i8]* @_ZN6policy3key29kSavingBrowserHistoryDisabledE, i32 0, i32 0), i8 1, { i64, i64 } { i64 ptrtoint (i1 (%"class.enterprise_management::CloudPolicySettings"*)* @_ZNK21enterprise_management19CloudPolicySettings32has_savingbrowserhistorydisabledEv to i64), i64 0 }, { i64, i64 } { i64 ptrtoint (%"class.enterprise_management::BooleanPolicyProto"* (%"class.enterprise_management::CloudPolicySettings"*)* @_ZNK21enterprise_management19CloudPolicySettings28savingbrowserhistorydisabledEv to i64), i64 0 } }, %"struct.policy::BooleanPolicyAccess" { i8* getelementptr inbounds ([21 x i8], [21 x i8]* @_ZN6policy3key21kScreenCaptureAllowedE, i32 0, i32 0), i8 1, { i64, i64 } { i64 ptrtoint (i1 (%"class.enterprise_management::CloudPolicySettings"*)* @_ZNK21enterprise_management19CloudPolicySettings24has_screencaptureallowedEv to i64), i64 0 }, { i64, i64 } { i64 ptrtoint (%"class.enterprise_management::BooleanPolicyProto"* (%"class.enterprise_management::CloudPolicySettings"*)* @_ZNK21enterprise_management19CloudPolicySettings20screencaptureallowedEv to i64), i64 0 } }, %"struct.policy::BooleanPolicyAccess" { i8* getelementptr inbounds ([28 x i8], [28 x i8]* @_ZN6policy3key28kScrollToTextFragmentEnabledE, i32 0, i32 0), i8 1, { i64, i64 } { i64 ptrtoint (i1 (%"class.enterprise_management::CloudPolicySettings"*)* @_ZNK21enterprise_management19CloudPolicySettings31has_scrolltotextfragmentenabledEv to i64), i64 0 }, { i64, i64 } { i64 ptrtoint (%"class.enterprise_management::BooleanPolicyProto"* (%"class.enterprise_management::CloudPolicySettings"*)* @_ZNK21enterprise_management19CloudPolicySettings27scrolltotextfragmentenabledEv to i64), i64 0 } }, %"struct.policy::BooleanPolicyAccess" { i8* getelementptr inbounds ([21 x i8], [21 x i8]* @_ZN6policy3key21kSearchSuggestEnabledE, i32 0, i32 0), i8 1, { i64, i64 } { i64 ptrtoint (i1 (%"class.enterprise_management::CloudPolicySettings"*)* @_ZNK21enterprise_management19CloudPolicySettings24has_searchsuggestenabledEv to i64), i64 0 }, { i64, i64 } { i64 ptrtoint (%"class.enterprise_management::BooleanPolicyProto"* (%"class.enterprise_management::CloudPolicySettings"*)* @_ZNK21enterprise_management19CloudPolicySettings20searchsuggestenabledEv to i64), i64 0 } }, %"struct.policy::BooleanPolicyAccess" { i8* getelementptr inbounds ([43 x i8], [43 x i8]* @_ZN6policy3key43kSharedArrayBufferUnrestrictedAccessAllowedE, i32 0, i32 0), i8 1, { i64, i64 } { i64 ptrtoint (i1 (%"class.enterprise_management::CloudPolicySettings"*)* @_ZNK21enterprise_management19CloudPolicySettings46has_sharedarraybufferunrestrictedaccessallowedEv to i64), i64 0 }, { i64, i64 } { i64 ptrtoint (%"class.enterprise_management::BooleanPolicyProto"* (%"class.enterprise_management::CloudPolicySettings"*)* @_ZNK21enterprise_management19CloudPolicySettings42sharedarraybufferunrestrictedaccessallowedEv to i64), i64 0 } }, %"struct.policy::BooleanPolicyAccess" { i8* getelementptr inbounds ([23 x i8], [23 x i8]* @_ZN6policy3key23kSharedClipboardEnabledE, i32 0, i32 0), i8 1, { i64, i64 } { i64 ptrtoint (i1 (%"class.enterprise_management::CloudPolicySettings"*)* @_ZNK21enterprise_management19CloudPolicySettings26has_sharedclipboardenabledEv to i64), i64 0 }, { i64, i64 } { i64 ptrtoint (%"class.enterprise_management::BooleanPolicyProto"* (%"class.enterprise_management::CloudPolicySettings"*)* @_ZNK21enterprise_management19CloudPolicySettings22sharedclipboardenabledEv to i64), i64 0 } }, %"struct.policy::BooleanPolicyAccess" { i8* getelementptr inbounds ([30 x i8], [30 x i8]* @_ZN6policy3key30kShowAppsShortcutInBookmarkBarE, i32 0, i32 0), i8 1, { i64, i64 } { i64 ptrtoint (i1 (%"class.enterprise_management::CloudPolicySettings"*)* @_ZNK21enterprise_management19CloudPolicySettings33has_showappsshortcutinbookmarkbarEv to i64), i64 0 }, { i64, i64 } { i64 ptrtoint (%"class.enterprise_management::BooleanPolicyProto"* (%"class.enterprise_management::CloudPolicySettings"*)* @_ZNK21enterprise_management19CloudPolicySettings29showappsshortcutinbookmarkbarEv to i64), i64 0 } }, %"struct.policy::BooleanPolicyAccess" { i8* getelementptr inbounds ([22 x i8], [22 x i8]* @_ZN6policy3key22kShowCastIconInToolbarE, i32 0, i32 0), i8 1, { i64, i64 } { i64 ptrtoint (i1 (%"class.enterprise_management::CloudPolicySettings"*)* @_ZNK21enterprise_management19CloudPolicySettings25has_showcasticonintoolbarEv to i64), i64 0 }, { i64, i64 } { i64 ptrtoint (%"class.enterprise_management::BooleanPolicyProto"* (%"class.enterprise_management::CloudPolicySettings"*)* @_ZNK21enterprise_management19CloudPolicySettings21showcasticonintoolbarEv to i64), i64 0 } }, %"struct.policy::BooleanPolicyAccess" { i8* getelementptr inbounds ([25 x i8], [25 x i8]* @_ZN6policy3key25kShowFullUrlsInAddressBarE, i32 0, i32 0), i8 1, { i64, i64 } { i64 ptrtoint (i1 (%"class.enterprise_management::CloudPolicySettings"*)* @_ZNK21enterprise_management19CloudPolicySettings28has_showfullurlsinaddressbarEv to i64), i64 0 }, { i64, i64 } { i64 ptrtoint (%"class.enterprise_management::BooleanPolicyProto"* (%"class.enterprise_management::CloudPolicySettings"*)* @_ZNK21enterprise_management19CloudPolicySettings24showfullurlsinaddressbarEv to i64), i64 0 } }, %"struct.policy::BooleanPolicyAccess" { i8* getelementptr inbounds ([15 x i8], [15 x i8]* @_ZN6policy3key15kShowHomeButtonE, i32 0, i32 0), i8 1, { i64, i64 } { i64 ptrtoint (i1 (%"class.enterprise_management::CloudPolicySettings"*)* @_ZNK21enterprise_management19CloudPolicySettings18has_showhomebuttonEv to i64), i64 0 }, { i64, i64 } { i64 ptrtoint (%"class.enterprise_management::BooleanPolicyProto"* (%"class.enterprise_management::CloudPolicySettings"*)* @_ZNK21enterprise_management19CloudPolicySettings14showhomebuttonEv to i64), i64 0 } }, %"struct.policy::BooleanPolicyAccess" { i8* getelementptr inbounds ([26 x i8], [26 x i8]* @_ZN6policy3key26kSignedHTTPExchangeEnabledE, i32 0, i32 0), i8 1, { i64, i64 } { i64 ptrtoint (i1 (%"class.enterprise_management::CloudPolicySettings"*)* @_ZNK21enterprise_management19CloudPolicySettings29has_signedhttpexchangeenabledEv to i64), i64 0 }, { i64, i64 } { i64 ptrtoint (%"class.enterprise_management::BooleanPolicyProto"* (%"class.enterprise_management::CloudPolicySettings"*)* @_ZNK21enterprise_management19CloudPolicySettings25signedhttpexchangeenabledEv to i64), i64 0 } }, %"struct.policy::BooleanPolicyAccess" { i8* getelementptr inbounds ([14 x i8], [14 x i8]* @_ZN6policy3key14kSigninAllowedE, i32 0, i32 0), i8 1, { i64, i64 } { i64 ptrtoint (i1 (%"class.enterprise_management::CloudPolicySettings"*)* @_ZNK21enterprise_management19CloudPolicySettings17has_signinallowedEv to i64), i64 0 }, { i64, i64 } { i64 ptrtoint (%"class.enterprise_management::BooleanPolicyProto"* (%"class.enterprise_management::CloudPolicySettings"*)* @_ZNK21enterprise_management19CloudPolicySettings13signinallowedEv to i64), i64 0 } }, %"struct.policy::BooleanPolicyAccess" { i8* getelementptr inbounds ([26 x i8], [26 x i8]* @_ZN6policy3key26kSigninInterceptionEnabledE, i32 0, i32 0), i8 1, { i64, i64 } { i64 ptrtoint (i1 (%"class.enterprise_management::CloudPolicySettings"*)* @_ZNK21enterprise_management19CloudPolicySettings29has_signininterceptionenabledEv to i64), i64 0 }, { i64, i64 } { i64 ptrtoint (%"class.enterprise_management::BooleanPolicyProto"* (%"class.enterprise_management::CloudPolicySettings"*)* @_ZNK21enterprise_management19CloudPolicySettings25signininterceptionenabledEv to i64), i64 0 } }, %"struct.policy::BooleanPolicyAccess" { i8* getelementptr inbounds ([15 x i8], [15 x i8]* @_ZN6policy3key15kSitePerProcessE, i32 0, i32 0), i8 0, { i64, i64 } { i64 ptrtoint (i1 (%"class.enterprise_management::CloudPolicySettings"*)* @_ZNK21enterprise_management19CloudPolicySettings18has_siteperprocessEv to i64), i64 0 }, { i64, i64 } { i64 ptrtoint (%"class.enterprise_management::BooleanPolicyProto"* (%"class.enterprise_management::CloudPolicySettings"*)* @_ZNK21enterprise_management19CloudPolicySettings14siteperprocessEv to i64), i64 0 } }, %"struct.policy::BooleanPolicyAccess" { i8* getelementptr inbounds ([25 x i8], [25 x i8]* @_ZN6policy3key25kSpellCheckServiceEnabledE, i32 0, i32 0), i8 1, { i64, i64 } { i64 ptrtoint (i1 (%"class.enterprise_management::CloudPolicySettings"*)* @_ZNK21enterprise_management19CloudPolicySettings28has_spellcheckserviceenabledEv to i64), i64 0 }, { i64, i64 } { i64 ptrtoint (%"class.enterprise_management::BooleanPolicyProto"* (%"class.enterprise_management::CloudPolicySettings"*)* @_ZNK21enterprise_management19CloudPolicySettings24spellcheckserviceenabledEv to i64), i64 0 } }, %"struct.policy::BooleanPolicyAccess" { i8* getelementptr inbounds ([18 x i8], [18 x i8]* @_ZN6policy3key18kSpellcheckEnabledE, i32 0, i32 0), i8 1, { i64, i64 } { i64 ptrtoint (i1 (%"class.enterprise_management::CloudPolicySettings"*)* @_ZNK21enterprise_management19CloudPolicySettings21has_spellcheckenabledEv to i64), i64 0 }, { i64, i64 } { i64 ptrtoint (%"class.enterprise_management::BooleanPolicyProto"* (%"class.enterprise_management::CloudPolicySettings"*)* @_ZNK21enterprise_management19CloudPolicySettings17spellcheckenabledEv to i64), i64 0 } }, %"struct.policy::BooleanPolicyAccess" { i8* getelementptr inbounds ([37 x i8], [37 x i8]* @_ZN6policy3key37kStricterMixedContentTreatmentEnabledE, i32 0, i32 0), i8 1, { i64, i64 } { i64 ptrtoint (i1 (%"class.enterprise_management::CloudPolicySettings"*)* @_ZNK21enterprise_management19CloudPolicySettings40has_strictermixedcontenttreatmentenabledEv to i64), i64 0 }, { i64, i64 } { i64 ptrtoint (%"class.enterprise_management::BooleanPolicyProto"* (%"class.enterprise_management::CloudPolicySettings"*)* @_ZNK21enterprise_management19CloudPolicySettings36strictermixedcontenttreatmentenabledEv to i64), i64 0 } }, %"struct.policy::BooleanPolicyAccess" { i8* getelementptr inbounds ([39 x i8], [39 x i8]* @_ZN6policy3key39kSuppressDifferentOriginSubframeDialogsE, i32 0, i32 0), i8 1, { i64, i64 } { i64 ptrtoint (i1 (%"class.enterprise_management::CloudPolicySettings"*)* @_ZNK21enterprise_management19CloudPolicySettings42has_suppressdifferentoriginsubframedialogsEv to i64), i64 0 }, { i64, i64 } { i64 ptrtoint (%"class.enterprise_management::BooleanPolicyProto"* (%"class.enterprise_management::CloudPolicySettings"*)* @_ZNK21enterprise_management19CloudPolicySettings38suppressdifferentoriginsubframedialogsEv to i64), i64 0 } }, %"struct.policy::BooleanPolicyAccess" { i8* getelementptr inbounds ([29 x i8], [29 x i8]* @_ZN6policy3key29kSuppressUnsupportedOSWarningE, i32 0, i32 0), i8 0, { i64, i64 } { i64 ptrtoint (i1 (%"class.enterprise_management::CloudPolicySettings"*)* @_ZNK21enterprise_management19CloudPolicySettings32has_suppressunsupportedoswarningEv to i64), i64 0 }, { i64, i64 } { i64 ptrtoint (%"class.enterprise_management::BooleanPolicyProto"* (%"class.enterprise_management::CloudPolicySettings"*)* @_ZNK21enterprise_management19CloudPolicySettings28suppressunsupportedoswarningEv to i64), i64 0 } }, %"struct.policy::BooleanPolicyAccess" { i8* getelementptr inbounds ([13 x i8], [13 x i8]* @_ZN6policy3key13kSyncDisabledE, i32 0, i32 0), i8 1, { i64, i64 } { i64 ptrtoint (i1 (%"class.enterprise_management::CloudPolicySettings"*)* @_ZNK21enterprise_management19CloudPolicySettings16has_syncdisabledEv to i64), i64 0 }, { i64, i64 } { i64 ptrtoint (%"class.enterprise_management::BooleanPolicyProto"* (%"class.enterprise_management::CloudPolicySettings"*)* @_ZNK21enterprise_management19CloudPolicySettings12syncdisabledEv to i64), i64 0 } }, %"struct.policy::BooleanPolicyAccess" { i8* getelementptr inbounds ([27 x i8], [27 x i8]* @_ZN6policy3key27kTargetBlankImpliesNoOpenerE, i32 0, i32 0), i8 0, { i64, i64 } { i64 ptrtoint (i1 (%"class.enterprise_management::CloudPolicySettings"*)* @_ZNK21enterprise_management19CloudPolicySettings30has_targetblankimpliesnoopenerEv to i64), i64 0 }, { i64, i64 } { i64 ptrtoint (%"class.enterprise_management::BooleanPolicyProto"* (%"class.enterprise_management::CloudPolicySettings"*)* @_ZNK21enterprise_management19CloudPolicySettings26targetblankimpliesnoopenerEv to i64), i64 0 } }, %"struct.policy::BooleanPolicyAccess" { i8* getelementptr inbounds ([29 x i8], [29 x i8]* @_ZN6policy3key29kTaskManagerEndProcessEnabledE, i32 0, i32 0), i8 0, { i64, i64 } { i64 ptrtoint (i1 (%"class.enterprise_management::CloudPolicySettings"*)* @_ZNK21enterprise_management19CloudPolicySettings32has_taskmanagerendprocessenabledEv to i64), i64 0 }, { i64, i64 } { i64 ptrtoint (%"class.enterprise_management::BooleanPolicyProto"* (%"class.enterprise_management::CloudPolicySettings"*)* @_ZNK21enterprise_management19CloudPolicySettings28taskmanagerendprocessenabledEv to i64), i64 0 } }, %"struct.policy::BooleanPolicyAccess" { i8* getelementptr inbounds ([17 x i8], [17 x i8]* @_ZN6policy3key17kTranslateEnabledE, i32 0, i32 0), i8 1, { i64, i64 } { i64 ptrtoint (i1 (%"class.enterprise_management::CloudPolicySettings"*)* @_ZNK21enterprise_management19CloudPolicySettings20has_translateenabledEv to i64), i64 0 }, { i64, i64 } { i64 ptrtoint (%"class.enterprise_management::BooleanPolicyProto"* (%"class.enterprise_management::CloudPolicySettings"*)* @_ZNK21enterprise_management19CloudPolicySettings16translateenabledEv to i64), i64 0 } }, %"struct.policy::BooleanPolicyAccess" { i8* getelementptr inbounds ([17 x i8], [17 x i8]* @_ZN6policy3key17kTripleDESEnabledE, i32 0, i32 0), i8 0, { i64, i64 } { i64 ptrtoint (i1 (%"class.enterprise_management::CloudPolicySettings"*)* @_ZNK21enterprise_management19CloudPolicySettings20has_tripledesenabledEv to i64), i64 0 }, { i64, i64 } { i64 ptrtoint (%"class.enterprise_management::BooleanPolicyProto"* (%"class.enterprise_management::CloudPolicySettings"*)* @_ZNK21enterprise_management19CloudPolicySettings16tripledesenabledEv to i64), i64 0 } }, %"struct.policy::BooleanPolicyAccess" { i8* getelementptr inbounds ([40 x i8], [40 x i8]* @_ZN6policy3key40kUrlKeyedAnonymizedDataCollectionEnabledE, i32 0, i32 0), i8 1, { i64, i64 } { i64 ptrtoint (i1 (%"class.enterprise_management::CloudPolicySettings"*)* @_ZNK21enterprise_management19CloudPolicySettings43has_urlkeyedanonymizeddatacollectionenabledEv to i64), i64 0 }, { i64, i64 } { i64 ptrtoint (%"class.enterprise_management::BooleanPolicyProto"* (%"class.enterprise_management::CloudPolicySettings"*)* @_ZNK21enterprise_management19CloudPolicySettings39urlkeyedanonymizeddatacollectionenabledEv to i64), i64 0 } }, %"struct.policy::BooleanPolicyAccess" { i8* getelementptr inbounds ([28 x i8], [28 x i8]* @_ZN6policy3key28kUserAgentClientHintsEnabledE, i32 0, i32 0), i8 0, { i64, i64 } { i64 ptrtoint (i1 (%"class.enterprise_management::CloudPolicySettings"*)* @_ZNK21enterprise_management19CloudPolicySettings31has_useragentclienthintsenabledEv to i64), i64 0 }, { i64, i64 } { i64 ptrtoint (%"class.enterprise_management::BooleanPolicyProto"* (%"class.enterprise_management::CloudPolicySettings"*)* @_ZNK21enterprise_management19CloudPolicySettings27useragentclienthintsenabledEv to i64), i64 0 } }, %"struct.policy::BooleanPolicyAccess" { i8* getelementptr inbounds ([20 x i8], [20 x i8]* @_ZN6policy3key20kUserFeedbackAllowedE, i32 0, i32 0), i8 1, { i64, i64 } { i64 ptrtoint (i1 (%"class.enterprise_management::CloudPolicySettings"*)* @_ZNK21enterprise_management19CloudPolicySettings23has_userfeedbackallowedEv to i64), i64 0 }, { i64, i64 } { i64 ptrtoint (%"class.enterprise_management::BooleanPolicyProto"* (%"class.enterprise_management::CloudPolicySettings"*)* @_ZNK21enterprise_management19CloudPolicySettings19userfeedbackallowedEv to i64), i64 0 } }, %"struct.policy::BooleanPolicyAccess" { i8* getelementptr inbounds ([20 x i8], [20 x i8]* @_ZN6policy3key20kVideoCaptureAllowedE, i32 0, i32 0), i8 1, { i64, i64 } { i64 ptrtoint (i1 (%"class.enterprise_management::CloudPolicySettings"*)* @_ZNK21enterprise_management19CloudPolicySettings23has_videocaptureallowedEv to i64), i64 0 }, { i64, i64 } { i64 ptrtoint (%"class.enterprise_management::BooleanPolicyProto"* (%"class.enterprise_management::CloudPolicySettings"*)* @_ZNK21enterprise_management19CloudPolicySettings19videocaptureallowedEv to i64), i64 0 } }, %"struct.policy::BooleanPolicyAccess" { i8* getelementptr inbounds ([22 x i8], [22 x i8]* @_ZN6policy3key22kWPADQuickCheckEnabledE, i32 0, i32 0), i8 0, { i64, i64 } { i64 ptrtoint (i1 (%"class.enterprise_management::CloudPolicySettings"*)* @_ZNK21enterprise_management19CloudPolicySettings25has_wpadquickcheckenabledEv to i64), i64 0 }, { i64, i64 } { i64 ptrtoint (%"class.enterprise_management::BooleanPolicyProto"* (%"class.enterprise_management::CloudPolicySettings"*)* @_ZNK21enterprise_management19CloudPolicySettings21wpadquickcheckenabledEv to i64), i64 0 } }, %"struct.policy::BooleanPolicyAccess" { i8* getelementptr inbounds ([30 x i8], [30 x i8]* @_ZN6policy3key30kWebRtcAllowLegacyTLSProtocolsE, i32 0, i32 0), i8 1, { i64, i64 } { i64 ptrtoint (i1 (%"class.enterprise_management::CloudPolicySettings"*)* @_ZNK21enterprise_management19CloudPolicySettings33has_webrtcallowlegacytlsprotocolsEv to i64), i64 0 }, { i64, i64 } { i64 ptrtoint (%"class.enterprise_management::BooleanPolicyProto"* (%"class.enterprise_management::CloudPolicySettings"*)* @_ZNK21enterprise_management19CloudPolicySettings29webrtcallowlegacytlsprotocolsEv to i64), i64 0 } }, %"struct.policy::BooleanPolicyAccess" { i8* getelementptr inbounds ([32 x i8], [32 x i8]* @_ZN6policy3key32kWebRtcEventLogCollectionAllowedE, i32 0, i32 0), i8 1, { i64, i64 } { i64 ptrtoint (i1 (%"class.enterprise_management::CloudPolicySettings"*)* @_ZNK21enterprise_management19CloudPolicySettings35has_webrtceventlogcollectionallowedEv to i64), i64 0 }, { i64, i64 } { i64 ptrtoint (%"class.enterprise_management::BooleanPolicyProto"* (%"class.enterprise_management::CloudPolicySettings"*)* @_ZNK21enterprise_management19CloudPolicySettings31webrtceventlogcollectionallowedEv to i64), i64 0 } }, %"struct.policy::BooleanPolicyAccess" zeroinitializer], align 16
@_ZN6policy20kIntegerPolicyAccessE = hidden local_unnamed_addr constant [45 x %"struct.policy::IntegerPolicyAccess"] [%"struct.policy::IntegerPolicyAccess" { i8* getelementptr inbounds ([31 x i8], [31 x i8]* @_ZN6policy3key31kAdsSettingForIntrusiveAdsSitesE, i32 0, i32 0), i8 1, { i64, i64 } { i64 ptrtoint (i1 (%"class.enterprise_management::CloudPolicySettings"*)* @_ZNK21enterprise_management19CloudPolicySettings34has_adssettingforintrusiveadssitesEv to i64), i64 0 }, { i64, i64 } { i64 ptrtoint (%"class.enterprise_management::IntegerPolicyProto"* (%"class.enterprise_management::CloudPolicySettings"*)* @_ZNK21enterprise_management19CloudPolicySettings30adssettingforintrusiveadssitesEv to i64), i64 0 } }, %"struct.policy::IntegerPolicyAccess" { i8* getelementptr inbounds ([43 x i8], [43 x i8]* @_ZN6policy3key43kAmbientAuthenticationInPrivateModesEnabledE, i32 0, i32 0), i8 0, { i64, i64 } { i64 ptrtoint (i1 (%"class.enterprise_management::CloudPolicySettings"*)* @_ZNK21enterprise_management19CloudPolicySettings46has_ambientauthenticationinprivatemodesenabledEv to i64), i64 0 }, { i64, i64 } { i64 ptrtoint (%"class.enterprise_management::IntegerPolicyProto"* (%"class.enterprise_management::CloudPolicySettings"*)* @_ZNK21enterprise_management19CloudPolicySettings42ambientauthenticationinprivatemodesenabledEv to i64), i64 0 } }, %"struct.policy::IntegerPolicyAccess" { i8* getelementptr inbounds ([14 x i8], [14 x i8]* @_ZN6policy3key14kBrowserSigninE, i32 0, i32 0), i8 0, { i64, i64 } { i64 ptrtoint (i1 (%"class.enterprise_management::CloudPolicySettings"*)* @_ZNK21enterprise_management19CloudPolicySettings17has_browsersigninEv to i64), i64 0 }, { i64, i64 } { i64 ptrtoint (%"class.enterprise_management::IntegerPolicyProto"* (%"class.enterprise_management::CloudPolicySettings"*)* @_ZNK21enterprise_management19CloudPolicySettings13browsersigninEv to i64), i64 0 } }, %"struct.policy::IntegerPolicyAccess" { i8* getelementptr inbounds ([21 x i8], [21 x i8]* @_ZN6policy3key21kBrowserSwitcherDelayE, i32 0, i32 0), i8 1, { i64, i64 } { i64 ptrtoint (i1 (%"class.enterprise_management::CloudPolicySettings"*)* @_ZNK21enterprise_management19CloudPolicySettings24has_browserswitcherdelayEv to i64), i64 0 }, { i64, i64 } { i64 ptrtoint (%"class.enterprise_management::IntegerPolicyProto"* (%"class.enterprise_management::CloudPolicySettings"*)* @_ZNK21enterprise_management19CloudPolicySettings20browserswitcherdelayEv to i64), i64 0 } }, %"struct.policy::IntegerPolicyAccess" { i8* getelementptr inbounds ([17 x i8], [17 x i8]* @_ZN6policy3key17kChromeVariationsE, i32 0, i32 0), i8 0, { i64, i64 } { i64 ptrtoint (i1 (%"class.enterprise_management::CloudPolicySettings"*)* @_ZNK21enterprise_management19CloudPolicySettings20has_chromevariationsEv to i64), i64 0 }, { i64, i64 } { i64 ptrtoint (%"class.enterprise_management::IntegerPolicyProto"* (%"class.enterprise_management::CloudPolicySettings"*)* @_ZNK21enterprise_management19CloudPolicySettings16chromevariationsEv to i64), i64 0 } }, %"struct.policy::IntegerPolicyAccess" { i8* getelementptr inbounds ([22 x i8], [22 x i8]* @_ZN6policy3key22kDefaultCookiesSettingE, i32 0, i32 0), i8 1, { i64, i64 } { i64 ptrtoint (i1 (%"class.enterprise_management::CloudPolicySettings"*)* @_ZNK21enterprise_management19CloudPolicySettings25has_defaultcookiessettingEv to i64), i64 0 }, { i64, i64 } { i64 ptrtoint (%"class.enterprise_management::IntegerPolicyProto"* (%"class.enterprise_management::CloudPolicySettings"*)* @_ZNK21enterprise_management19CloudPolicySettings21defaultcookiessettingEv to i64), i64 0 } }, %"struct.policy::IntegerPolicyAccess" { i8* getelementptr inbounds ([32 x i8], [32 x i8]* @_ZN6policy3key32kDefaultFileHandlingGuardSettingE, i32 0, i32 0), i8 1, { i64, i64 } { i64 ptrtoint (i1 (%"class.enterprise_management::CloudPolicySettings"*)* @_ZNK21enterprise_management19CloudPolicySettings35has_defaultfilehandlingguardsettingEv to i64), i64 0 }, { i64, i64 } { i64 ptrtoint (%"class.enterprise_management::IntegerPolicyProto"* (%"class.enterprise_management::CloudPolicySettings"*)* @_ZNK21enterprise_management19CloudPolicySettings31defaultfilehandlingguardsettingEv to i64), i64 0 } }, %"struct.policy::IntegerPolicyAccess" { i8* getelementptr inbounds ([34 x i8], [34 x i8]* @_ZN6policy3key34kDefaultFileSystemReadGuardSettingE, i32 0, i32 0), i8 1, { i64, i64 } { i64 ptrtoint (i1 (%"class.enterprise_management::CloudPolicySettings"*)* @_ZNK21enterprise_management19CloudPolicySettings37has_defaultfilesystemreadguardsettingEv to i64), i64 0 }, { i64, i64 } { i64 ptrtoint (%"class.enterprise_management::IntegerPolicyProto"* (%"class.enterprise_management::CloudPolicySettings"*)* @_ZNK21enterprise_management19CloudPolicySettings33defaultfilesystemreadguardsettingEv to i64), i64 0 } }, %"struct.policy::IntegerPolicyAccess" { i8* getelementptr inbounds ([35 x i8], [35 x i8]* @_ZN6policy3key35kDefaultFileSystemWriteGuardSettingE, i32 0, i32 0), i8 1, { i64, i64 } { i64 ptrtoint (i1 (%"class.enterprise_management::CloudPolicySettings"*)* @_ZNK21enterprise_management19CloudPolicySettings38has_defaultfilesystemwriteguardsettingEv to i64), i64 0 }, { i64, i64 } { i64 ptrtoint (%"class.enterprise_management::IntegerPolicyProto"* (%"class.enterprise_management::CloudPolicySettings"*)* @_ZNK21enterprise_management19CloudPolicySettings34defaultfilesystemwriteguardsettingEv to i64), i64 0 } }, %"struct.policy::IntegerPolicyAccess" { i8* getelementptr inbounds ([26 x i8], [26 x i8]* @_ZN6policy3key26kDefaultGeolocationSettingE, i32 0, i32 0), i8 1, { i64, i64 } { i64 ptrtoint (i1 (%"class.enterprise_management::CloudPolicySettings"*)* @_ZNK21enterprise_management19CloudPolicySettings29has_defaultgeolocationsettingEv to i64), i64 0 }, { i64, i64 } { i64 ptrtoint (%"class.enterprise_management::IntegerPolicyProto"* (%"class.enterprise_management::CloudPolicySettings"*)* @_ZNK21enterprise_management19CloudPolicySettings25defaultgeolocationsettingEv to i64), i64 0 } }, %"struct.policy::IntegerPolicyAccess" { i8* getelementptr inbounds ([21 x i8], [21 x i8]* @_ZN6policy3key21kDefaultImagesSettingE, i32 0, i32 0), i8 1, { i64, i64 } { i64 ptrtoint (i1 (%"class.enterprise_management::CloudPolicySettings"*)* @_ZNK21enterprise_management19CloudPolicySettings24has_defaultimagessettingEv to i64), i64 0 }, { i64, i64 } { i64 ptrtoint (%"class.enterprise_management::IntegerPolicyProto"* (%"class.enterprise_management::CloudPolicySettings"*)* @_ZNK21enterprise_management19CloudPolicySettings20defaultimagessettingEv to i64), i64 0 } }, %"struct.policy::IntegerPolicyAccess" { i8* getelementptr inbounds ([30 x i8], [30 x i8]* @_ZN6policy3key30kDefaultInsecureContentSettingE, i32 0, i32 0), i8 1, { i64, i64 } { i64 ptrtoint (i1 (%"class.enterprise_management::CloudPolicySettings"*)* @_ZNK21enterprise_management19CloudPolicySettings33has_defaultinsecurecontentsettingEv to i64), i64 0 }, { i64, i64 } { i64 ptrtoint (%"class.enterprise_management::IntegerPolicyProto"* (%"class.enterprise_management::CloudPolicySettings"*)* @_ZNK21enterprise_management19CloudPolicySettings29defaultinsecurecontentsettingEv to i64), i64 0 } }, %"struct.policy::IntegerPolicyAccess" { i8* getelementptr inbounds ([25 x i8], [25 x i8]* @_ZN6policy3key25kDefaultJavaScriptSettingE, i32 0, i32 0), i8 1, { i64, i64 } { i64 ptrtoint (i1 (%"class.enterprise_management::CloudPolicySettings"*)* @_ZNK21enterprise_management19CloudPolicySettings28has_defaultjavascriptsettingEv to i64), i64 0 }, { i64, i64 } { i64 ptrtoint (%"class.enterprise_management::IntegerPolicyProto"* (%"class.enterprise_management::CloudPolicySettings"*)* @_ZNK21enterprise_management19CloudPolicySettings24defaultjavascriptsettingEv to i64), i64 0 } }, %"struct.policy::IntegerPolicyAccess" { i8* getelementptr inbounds ([26 x i8], [26 x i8]* @_ZN6policy3key26kDefaultMediaStreamSettingE, i32 0, i32 0), i8 1, { i64, i64 } { i64 ptrtoint (i1 (%"class.enterprise_management::CloudPolicySettings"*)* @_ZNK21enterprise_management19CloudPolicySettings29has_defaultmediastreamsettingEv to i64), i64 0 }, { i64, i64 } { i64 ptrtoint (%"class.enterprise_management::IntegerPolicyProto"* (%"class.enterprise_management::CloudPolicySettings"*)* @_ZNK21enterprise_management19CloudPolicySettings25defaultmediastreamsettingEv to i64), i64 0 } }, %"struct.policy::IntegerPolicyAccess" { i8* getelementptr inbounds ([28 x i8], [28 x i8]* @_ZN6policy3key28kDefaultNotificationsSettingE, i32 0, i32 0), i8 1, { i64, i64 } { i64 ptrtoint (i1 (%"class.enterprise_management::CloudPolicySettings"*)* @_ZNK21enterprise_management19CloudPolicySettings31has_defaultnotificationssettingEv to i64), i64 0 }, { i64, i64 } { i64 ptrtoint (%"class.enterprise_management::IntegerPolicyProto"* (%"class.enterprise_management::CloudPolicySettings"*)* @_ZNK21enterprise_management19CloudPolicySettings27defaultnotificationssettingEv to i64), i64 0 } }, %"struct.policy::IntegerPolicyAccess" { i8* getelementptr inbounds ([21 x i8], [21 x i8]* @_ZN6policy3key21kDefaultPopupsSettingE, i32 0, i32 0), i8 1, { i64, i64 } { i64 ptrtoint (i1 (%"class.enterprise_management::CloudPolicySettings"*)* @_ZNK21enterprise_management19CloudPolicySettings24has_defaultpopupssettingEv to i64), i64 0 }, { i64, i64 } { i64 ptrtoint (%"class.enterprise_management::IntegerPolicyProto"* (%"class.enterprise_management::CloudPolicySettings"*)* @_ZNK21enterprise_management19CloudPolicySettings20defaultpopupssettingEv to i64), i64 0 } }, %"struct.policy::IntegerPolicyAccess" { i8* getelementptr inbounds ([22 x i8], [22 x i8]* @_ZN6policy3key22kDefaultSensorsSettingE, i32 0, i32 0), i8 1, { i64, i64 } { i64 ptrtoint (i1 (%"class.enterprise_management::CloudPolicySettings"*)* @_ZNK21enterprise_management19CloudPolicySettings25has_defaultsensorssettingEv to i64), i64 0 }, { i64, i64 } { i64 ptrtoint (%"class.enterprise_management::IntegerPolicyProto"* (%"class.enterprise_management::CloudPolicySettings"*)* @_ZNK21enterprise_management19CloudPolicySettings21defaultsensorssettingEv to i64), i64 0 } }, %"struct.policy::IntegerPolicyAccess" { i8* getelementptr inbounds ([26 x i8], [26 x i8]* @_ZN6policy3key26kDefaultSerialGuardSettingE, i32 0, i32 0), i8 1, { i64, i64 } { i64 ptrtoint (i1 (%"class.enterprise_management::CloudPolicySettings"*)* @_ZNK21enterprise_management19CloudPolicySettings29has_defaultserialguardsettingEv to i64), i64 0 }, { i64, i64 } { i64 ptrtoint (%"class.enterprise_management::IntegerPolicyProto"* (%"class.enterprise_management::CloudPolicySettings"*)* @_ZNK21enterprise_management19CloudPolicySettings25defaultserialguardsettingEv to i64), i64 0 } }, %"struct.policy::IntegerPolicyAccess" { i8* getelementptr inbounds ([32 x i8], [32 x i8]* @_ZN6policy3key32kDefaultWebBluetoothGuardSettingE, i32 0, i32 0), i8 1, { i64, i64 } { i64 ptrtoint (i1 (%"class.enterprise_management::CloudPolicySettings"*)* @_ZNK21enterprise_management19CloudPolicySettings35has_defaultwebbluetoothguardsettingEv to i64), i64 0 }, { i64, i64 } { i64 ptrtoint (%"class.enterprise_management::IntegerPolicyProto"* (%"class.enterprise_management::CloudPolicySettings"*)* @_ZNK21enterprise_management19CloudPolicySettings31defaultwebbluetoothguardsettingEv to i64), i64 0 } }, %"struct.policy::IntegerPolicyAccess" { i8* getelementptr inbounds ([26 x i8], [26 x i8]* @_ZN6policy3key26kDefaultWebUsbGuardSettingE, i32 0, i32 0), i8 1, { i64, i64 } { i64 ptrtoint (i1 (%"class.enterprise_management::CloudPolicySettings"*)* @_ZNK21enterprise_management19CloudPolicySettings29has_defaultwebusbguardsettingEv to i64), i64 0 }, { i64, i64 } { i64 ptrtoint (%"class.enterprise_management::IntegerPolicyProto"* (%"class.enterprise_management::CloudPolicySettings"*)* @_ZNK21enterprise_management19CloudPolicySettings25defaultwebusbguardsettingEv to i64), i64 0 } }, %"struct.policy::IntegerPolicyAccess" { i8* getelementptr inbounds ([27 x i8], [27 x i8]* @_ZN6policy3key27kDeveloperToolsAvailabilityE, i32 0, i32 0), i8 1, { i64, i64 } { i64 ptrtoint (i1 (%"class.enterprise_management::CloudPolicySettings"*)* @_ZNK21enterprise_management19CloudPolicySettings30has_developertoolsavailabilityEv to i64), i64 0 }, { i64, i64 } { i64 ptrtoint (%"class.enterprise_management::IntegerPolicyProto"* (%"class.enterprise_management::CloudPolicySettings"*)* @_ZNK21enterprise_management19CloudPolicySettings26developertoolsavailabilityEv to i64), i64 0 } }, %"struct.policy::IntegerPolicyAccess" { i8* getelementptr inbounds ([14 x i8], [14 x i8]* @_ZN6policy3key14kDiskCacheSizeE, i32 0, i32 0), i8 0, { i64, i64 } { i64 ptrtoint (i1 (%"class.enterprise_management::CloudPolicySettings"*)* @_ZNK21enterprise_management19CloudPolicySettings17has_diskcachesizeEv to i64), i64 0 }, { i64, i64 } { i64 ptrtoint (%"class.enterprise_management::IntegerPolicyProto"* (%"class.enterprise_management::CloudPolicySettings"*)* @_ZNK21enterprise_management19CloudPolicySettings13diskcachesizeEv to i64), i64 0 } }, %"struct.policy::IntegerPolicyAccess" { i8* getelementptr inbounds ([21 x i8], [21 x i8]* @_ZN6policy3key21kDownloadRestrictionsE, i32 0, i32 0), i8 1, { i64, i64 } { i64 ptrtoint (i1 (%"class.enterprise_management::CloudPolicySettings"*)* @_ZNK21enterprise_management19CloudPolicySettings24has_downloadrestrictionsEv to i64), i64 0 }, { i64, i64 } { i64 ptrtoint (%"class.enterprise_management::IntegerPolicyProto"* (%"class.enterprise_management::CloudPolicySettings"*)* @_ZNK21enterprise_management19CloudPolicySettings20downloadrestrictionsEv to i64), i64 0 } }, %"struct.policy::IntegerPolicyAccess" { i8* getelementptr inbounds ([31 x i8], [31 x i8]* @_ZN6policy3key31kEnterpriseRealTimeUrlCheckModeE, i32 0, i32 0), i8 1, { i64, i64 } { i64 ptrtoint (i1 (%"class.enterprise_management::CloudPolicySettings"*)* @_ZNK21enterprise_management19CloudPolicySettings34has_enterpriserealtimeurlcheckmodeEv to i64), i64 0 }, { i64, i64 } { i64 ptrtoint (%"class.enterprise_management::IntegerPolicyProto"* (%"class.enterprise_management::CloudPolicySettings"*)* @_ZNK21enterprise_management19CloudPolicySettings30enterpriserealtimeurlcheckmodeEv to i64), i64 0 } }, %"struct.policy::IntegerPolicyAccess" { i8* getelementptr inbounds ([40 x i8], [40 x i8]* @_ZN6policy3key40kFetchKeepaliveDurationSecondsOnShutdownE, i32 0, i32 0), i8 1, { i64, i64 } { i64 ptrtoint (i1 (%"class.enterprise_management::CloudPolicySettings"*)* @_ZNK21enterprise_management19CloudPolicySettings43has_fetchkeepalivedurationsecondsonshutdownEv to i64), i64 0 }, { i64, i64 } { i64 ptrtoint (%"class.enterprise_management::IntegerPolicyProto"* (%"class.enterprise_management::CloudPolicySettings"*)* @_ZNK21enterprise_management19CloudPolicySettings39fetchkeepalivedurationsecondsonshutdownEv to i64), i64 0 } }, %"struct.policy::IntegerPolicyAccess" { i8* getelementptr inbounds ([21 x i8], [21 x i8]* @_ZN6policy3key21kForceYouTubeRestrictE, i32 0, i32 0), i8 1, { i64, i64 } { i64 ptrtoint (i1 (%"class.enterprise_management::CloudPolicySettings"*)* @_ZNK21enterprise_management19CloudPolicySettings24has_forceyoutuberestrictEv to i64), i64 0 }, { i64, i64 } { i64 ptrtoint (%"class.enterprise_management::IntegerPolicyProto"* (%"class.enterprise_management::CloudPolicySettings"*)* @_ZNK21enterprise_management19CloudPolicySettings20forceyoutuberestrictEv to i64), i64 0 } }, %"struct.policy::IntegerPolicyAccess" { i8* getelementptr inbounds ([13 x i8], [13 x i8]* @_ZN6policy3key13kHeadlessModeE, i32 0, i32 0), i8 0, { i64, i64 } { i64 ptrtoint (i1 (%"class.enterprise_management::CloudPolicySettings"*)* @_ZNK21enterprise_management19CloudPolicySettings16has_headlessmodeEv to i64), i64 0 }, { i64, i64 } { i64 ptrtoint (%"class.enterprise_management::IntegerPolicyProto"* (%"class.enterprise_management::CloudPolicySettings"*)* @_ZNK21enterprise_management19CloudPolicySettings12headlessmodeEv to i64), i64 0 } }, %"struct.policy::IntegerPolicyAccess" { i8* getelementptr inbounds ([26 x i8], [26 x i8]* @_ZN6policy3key26kIncognitoModeAvailabilityE, i32 0, i32 0), i8 1, { i64, i64 } { i64 ptrtoint (i1 (%"class.enterprise_management::CloudPolicySettings"*)* @_ZNK21enterprise_management19CloudPolicySettings29has_incognitomodeavailabilityEv to i64), i64 0 }, { i64, i64 } { i64 ptrtoint (%"class.enterprise_management::IntegerPolicyProto"* (%"class.enterprise_management::CloudPolicySettings"*)* @_ZNK21enterprise_management19CloudPolicySettings25incognitomodeavailabilityEv to i64), i64 0 } }, %"struct.policy::IntegerPolicyAccess" { i8* getelementptr inbounds ([25 x i8], [25 x i8]* @_ZN6policy3key25kIntranetRedirectBehaviorE, i32 0, i32 0), i8 0, { i64, i64 } { i64 ptrtoint (i1 (%"class.enterprise_management::CloudPolicySettings"*)* @_ZNK21enterprise_management19CloudPolicySettings28has_intranetredirectbehaviorEv to i64), i64 0 }, { i64, i64 } { i64 ptrtoint (%"class.enterprise_management::IntegerPolicyProto"* (%"class.enterprise_management::CloudPolicySettings"*)* @_ZNK21enterprise_management19CloudPolicySettings24intranetredirectbehaviorEv to i64), i64 0 } }, %"struct.policy::IntegerPolicyAccess" { i8* getelementptr inbounds ([36 x i8], [36 x i8]* @_ZN6policy3key36kLegacySameSiteCookieBehaviorEnabledE, i32 0, i32 0), i8 1, { i64, i64 } { i64 ptrtoint (i1 (%"class.enterprise_management::CloudPolicySettings"*)* @_ZNK21enterprise_management19CloudPolicySettings39has_legacysamesitecookiebehaviorenabledEv to i64), i64 0 }, { i64, i64 } { i64 ptrtoint (%"class.enterprise_management::IntegerPolicyProto"* (%"class.enterprise_management::CloudPolicySettings"*)* @_ZNK21enterprise_management19CloudPolicySettings35legacysamesitecookiebehaviorenabledEv to i64), i64 0 } }, %"struct.policy::IntegerPolicyAccess" { i8* getelementptr inbounds ([23 x i8], [23 x i8]* @_ZN6policy3key23kMaxConnectionsPerProxyE, i32 0, i32 0), i8 0, { i64, i64 } { i64 ptrtoint (i1 (%"class.enterprise_management::CloudPolicySettings"*)* @_ZNK21enterprise_management19CloudPolicySettings26has_maxconnectionsperproxyEv to i64), i64 0 }, { i64, i64 } { i64 ptrtoint (%"class.enterprise_management::IntegerPolicyProto"* (%"class.enterprise_management::CloudPolicySettings"*)* @_ZNK21enterprise_management19CloudPolicySettings22maxconnectionsperproxyEv to i64), i64 0 } }, %"struct.policy::IntegerPolicyAccess" { i8* getelementptr inbounds ([26 x i8], [26 x i8]* @_ZN6policy3key26kMaxInvalidationFetchDelayE, i32 0, i32 0), i8 1, { i64, i64 } { i64 ptrtoint (i1 (%"class.enterprise_management::CloudPolicySettings"*)* @_ZNK21enterprise_management19CloudPolicySettings29has_maxinvalidationfetchdelayEv to i64), i64 0 }, { i64, i64 } { i64 ptrtoint (%"class.enterprise_management::IntegerPolicyProto"* (%"class.enterprise_management::CloudPolicySettings"*)* @_ZNK21enterprise_management19CloudPolicySettings25maxinvalidationfetchdelayEv to i64), i64 0 } }, %"struct.policy::IntegerPolicyAccess" { i8* getelementptr inbounds ([25 x i8], [25 x i8]* @_ZN6policy3key25kNetworkPredictionOptionsE, i32 0, i32 0), i8 1, { i64, i64 } { i64 ptrtoint (i1 (%"class.enterprise_management::CloudPolicySettings"*)* @_ZNK21enterprise_management19CloudPolicySettings28has_networkpredictionoptionsEv to i64), i64 0 }, { i64, i64 } { i64 ptrtoint (%"class.enterprise_management::IntegerPolicyProto"* (%"class.enterprise_management::CloudPolicySettings"*)* @_ZNK21enterprise_management19CloudPolicySettings24networkpredictionoptionsEv to i64), i64 0 } }, %"struct.policy::IntegerPolicyAccess" { i8* getelementptr inbounds ([33 x i8], [33 x i8]* @_ZN6policy3key33kPasswordProtectionWarningTriggerE, i32 0, i32 0), i8 1, { i64, i64 } { i64 ptrtoint (i1 (%"class.enterprise_management::CloudPolicySettings"*)* @_ZNK21enterprise_management19CloudPolicySettings36has_passwordprotectionwarningtriggerEv to i64), i64 0 }, { i64, i64 } { i64 ptrtoint (%"class.enterprise_management::IntegerPolicyProto"* (%"class.enterprise_management::CloudPolicySettings"*)* @_ZNK21enterprise_management19CloudPolicySettings32passwordprotectionwarningtriggerEv to i64), i64 0 } }, %"struct.policy::IntegerPolicyAccess" { i8* getelementptr inbounds ([18 x i8], [18 x i8]* @_ZN6policy3key18kPolicyRefreshRateE, i32 0, i32 0), i8 1, { i64, i64 } { i64 ptrtoint (i1 (%"class.enterprise_management::CloudPolicySettings"*)* @_ZNK21enterprise_management19CloudPolicySettings21has_policyrefreshrateEv to i64), i64 0 }, { i64, i64 } { i64 ptrtoint (%"class.enterprise_management::IntegerPolicyProto"* (%"class.enterprise_management::CloudPolicySettings"*)* @_ZNK21enterprise_management19CloudPolicySettings17policyrefreshrateEv to i64), i64 0 } }, %"struct.policy::IntegerPolicyAccess" { i8* getelementptr inbounds ([35 x i8], [35 x i8]* @_ZN6policy3key35kProfilePickerOnStartupAvailabilityE, i32 0, i32 0), i8 0, { i64, i64 } { i64 ptrtoint (i1 (%"class.enterprise_management::CloudPolicySettings"*)* @_ZNK21enterprise_management19CloudPolicySettings38has_profilepickeronstartupavailabilityEv to i64), i64 0 }, { i64, i64 } { i64 ptrtoint (%"class.enterprise_management::IntegerPolicyProto"* (%"class.enterprise_management::CloudPolicySettings"*)* @_ZNK21enterprise_management19CloudPolicySettings34profilepickeronstartupavailabilityEv to i64), i64 0 } }, %"struct.policy::IntegerPolicyAccess" { i8* getelementptr inbounds ([16 x i8], [16 x i8]* @_ZN6policy3key16kProxyServerModeE, i32 0, i32 0), i8 1, { i64, i64 } { i64 ptrtoint (i1 (%"class.enterprise_management::CloudPolicySettings"*)* @_ZNK21enterprise_management19CloudPolicySettings19has_proxyservermodeEv to i64), i64 0 }, { i64, i64 } { i64 ptrtoint (%"class.enterprise_management::IntegerPolicyProto"* (%"class.enterprise_management::CloudPolicySettings"*)* @_ZNK21enterprise_management19CloudPolicySettings15proxyservermodeEv to i64), i64 0 } }, %"struct.policy::IntegerPolicyAccess" { i8* getelementptr inbounds ([21 x i8], [21 x i8]* @_ZN6policy3key21kRelaunchNotificationE, i32 0, i32 0), i8 0, { i64, i64 } { i64 ptrtoint (i1 (%"class.enterprise_management::CloudPolicySettings"*)* @_ZNK21enterprise_management19CloudPolicySettings24has_relaunchnotificationEv to i64), i64 0 }, { i64, i64 } { i64 ptrtoint (%"class.enterprise_management::IntegerPolicyProto"* (%"class.enterprise_management::CloudPolicySettings"*)* @_ZNK21enterprise_management19CloudPolicySettings20relaunchnotificationEv to i64), i64 0 } }, %"struct.policy::IntegerPolicyAccess" { i8* getelementptr inbounds ([27 x i8], [27 x i8]* @_ZN6policy3key27kRelaunchNotificationPeriodE, i32 0, i32 0), i8 0, { i64, i64 } { i64 ptrtoint (i1 (%"class.enterprise_management::CloudPolicySettings"*)* @_ZNK21enterprise_management19CloudPolicySettings30has_relaunchnotificationperiodEv to i64), i64 0 }, { i64, i64 } { i64 ptrtoint (%"class.enterprise_management::IntegerPolicyProto"* (%"class.enterprise_management::CloudPolicySettings"*)* @_ZNK21enterprise_management19CloudPolicySettings26relaunchnotificationperiodEv to i64), i64 0 } }, %"struct.policy::IntegerPolicyAccess" { i8* getelementptr inbounds ([46 x i8], [46 x i8]* @_ZN6policy3key46kRemoteAccessHostMaximumSessionDurationMinutesE, i32 0, i32 0), i8 0, { i64, i64 } { i64 ptrtoint (i1 (%"class.enterprise_management::CloudPolicySettings"*)* @_ZNK21enterprise_management19CloudPolicySettings49has_remoteaccesshostmaximumsessiondurationminutesEv to i64), i64 0 }, { i64, i64 } { i64 ptrtoint (%"class.enterprise_management::IntegerPolicyProto"* (%"class.enterprise_management::CloudPolicySettings"*)* @_ZNK21enterprise_management19CloudPolicySettings45remoteaccesshostmaximumsessiondurationminutesEv to i64), i64 0 } }, %"struct.policy::IntegerPolicyAccess" { i8* getelementptr inbounds ([17 x i8], [17 x i8]* @_ZN6policy3key17kRestoreOnStartupE, i32 0, i32 0), i8 1, { i64, i64 } { i64 ptrtoint (i1 (%"class.enterprise_management::CloudPolicySettings"*)* @_ZNK21enterprise_management19CloudPolicySettings20has_restoreonstartupEv to i64), i64 0 }, { i64, i64 } { i64 ptrtoint (%"class.enterprise_management::IntegerPolicyProto"* (%"class.enterprise_management::CloudPolicySettings"*)* @_ZNK21enterprise_management19CloudPolicySettings16restoreonstartupEv to i64), i64 0 } }, %"struct.policy::IntegerPolicyAccess" { i8* getelementptr inbounds ([28 x i8], [28 x i8]* @_ZN6policy3key28kSafeBrowsingProtectionLevelE, i32 0, i32 0), i8 1, { i64, i64 } { i64 ptrtoint (i1 (%"class.enterprise_management::CloudPolicySettings"*)* @_ZNK21enterprise_management19CloudPolicySettings31has_safebrowsingprotectionlevelEv to i64), i64 0 }, { i64, i64 } { i64 ptrtoint (%"class.enterprise_management::IntegerPolicyProto"* (%"class.enterprise_management::CloudPolicySettings"*)* @_ZNK21enterprise_management19CloudPolicySettings27safebrowsingprotectionlevelEv to i64), i64 0 } }, %"struct.policy::IntegerPolicyAccess" { i8* getelementptr inbounds ([24 x i8], [24 x i8]* @_ZN6policy3key24kSafeSitesFilterBehaviorE, i32 0, i32 0), i8 1, { i64, i64 } { i64 ptrtoint (i1 (%"class.enterprise_management::CloudPolicySettings"*)* @_ZNK21enterprise_management19CloudPolicySettings27has_safesitesfilterbehaviorEv to i64), i64 0 }, { i64, i64 } { i64 ptrtoint (%"class.enterprise_management::IntegerPolicyProto"* (%"class.enterprise_management::CloudPolicySettings"*)* @_ZNK21enterprise_management19CloudPolicySettings23safesitesfilterbehaviorEv to i64), i64 0 } }, %"struct.policy::IntegerPolicyAccess" { i8* getelementptr inbounds ([31 x i8], [31 x i8]* @_ZN6policy3key31kUserDataSnapshotRetentionLimitE, i32 0, i32 0), i8 0, { i64, i64 } { i64 ptrtoint (i1 (%"class.enterprise_management::CloudPolicySettings"*)* @_ZNK21enterprise_management19CloudPolicySettings34has_userdatasnapshotretentionlimitEv to i64), i64 0 }, { i64, i64 } { i64 ptrtoint (%"class.enterprise_management::IntegerPolicyProto"* (%"class.enterprise_management::CloudPolicySettings"*)* @_ZNK21enterprise_management19CloudPolicySettings30userdatasnapshotretentionlimitEv to i64), i64 0 } }, %"struct.policy::IntegerPolicyAccess" zeroinitializer], align 16
