; ModuleID = '../../ppapi/shared_impl/ppb_graphics_3d_shared.cc'
source_filename = "../../ppapi/shared_impl/ppb_graphics_3d_shared.cc"
target datalayout = "e-m:e-i64:64-f80:128-n8:16:32:64-S128"
target triple = "x86_64-unknown-linux-gnu"

module asm ".symver exp, exp@GLIBC_2.2.5"
module asm ".symver exp2, exp2@GLIBC_2.2.5"
module asm ".symver exp2f, exp2f@GLIBC_2.2.5"
module asm ".symver expf, expf@GLIBC_2.2.5"
module asm ".symver lgamma, lgamma@GLIBC_2.2.5"
module asm ".symver lgammaf, lgammaf@GLIBC_2.2.5"
module asm ".symver lgammal, lgammal@GLIBC_2.2.5"
module asm ".symver log, log@GLIBC_2.2.5"
module asm ".symver log2, log2@GLIBC_2.2.5"
module asm ".symver log2f, log2f@GLIBC_2.2.5"
module asm ".symver logf, logf@GLIBC_2.2.5"
module asm ".symver pow, pow@GLIBC_2.2.5"
module asm ".symver powf, powf@GLIBC_2.2.5"

%"class.ppapi::PPB_Graphics3D_Shared" = type { %"class.ppapi::Resource", %"class.ppapi::thunk::PPB_Graphics3D_API", %"class.std::__1::unique_ptr", %"class.std::__1::unique_ptr.9", %"class.std::__1::unique_ptr.23", %"class.gfx::Size", %class.scoped_refptr.353 }
%"class.ppapi::Resource" = type { i32 (...)**, %"class.base::RefCountedThreadSafe", i32, %"class.ppapi::HostResource" }
%"class.base::RefCountedThreadSafe" = type { %"class.base::subtle::RefCountedThreadSafeBase" }
%"class.base::subtle::RefCountedThreadSafeBase" = type { %"class.base::AtomicRefCount" }
%"class.base::AtomicRefCount" = type { %"struct.std::__1::atomic" }
%"struct.std::__1::atomic" = type { %"struct.std::__1::__atomic_base" }
%"struct.std::__1::__atomic_base" = type { %"struct.std::__1::__atomic_base.0" }
%"struct.std::__1::__atomic_base.0" = type { %"struct.std::__1::__cxx_atomic_impl" }
%"struct.std::__1::__cxx_atomic_impl" = type { %"struct.std::__1::__cxx_atomic_base_impl" }
%"struct.std::__1::__cxx_atomic_base_impl" = type { i32 }
%"class.ppapi::HostResource" = type { i32, i32 }
%"class.ppapi::thunk::PPB_Graphics3D_API" = type { i32 (...)** }
%"class.std::__1::unique_ptr" = type { %"class.std::__1::__compressed_pair" }
%"class.std::__1::__compressed_pair" = type { %"struct.std::__1::__compressed_pair_elem" }
%"struct.std::__1::__compressed_pair_elem" = type { %"class.gpu::gles2::GLES2CmdHelper"* }
%"class.gpu::gles2::GLES2CmdHelper" = type { %"class.gpu::CommandBufferHelper.base", [4 x i8] }
%"class.gpu::CommandBufferHelper.base" = type <{ i32 (...)**, %"class.gpu::CommandBuffer"*, i32, i32, %class.scoped_refptr, %"union.gpu::CommandBufferEntry"*, i32, i32, i32, i32, i32, i32, i32, i8, [3 x i8], i32, i8, i8, i8, i8, i32, i32, %"class.base::TimeTicks", i32 }>
%"class.gpu::CommandBuffer" = type { i32 (...)** }
%class.scoped_refptr = type { %"class.gpu::Buffer"* }
%"class.gpu::Buffer" = type <{ %"class.base::RefCountedThreadSafe.1", [4 x i8], %"class.std::__1::unique_ptr.2", i8*, i32, [4 x i8] }>
%"class.base::RefCountedThreadSafe.1" = type { %"class.base::subtle::RefCountedThreadSafeBase" }
%"class.std::__1::unique_ptr.2" = type { %"class.std::__1::__compressed_pair.3" }
%"class.std::__1::__compressed_pair.3" = type { %"struct.std::__1::__compressed_pair_elem.4" }
%"struct.std::__1::__compressed_pair_elem.4" = type { %"class.gpu::BufferBacking"* }
%"class.gpu::BufferBacking" = type { i32 (...)** }
%"union.gpu::CommandBufferEntry" = type { %"struct.gpu::CommandHeader" }
%"struct.gpu::CommandHeader" = type { i32 }
%"class.base::TimeTicks" = type { %"class.base::time_internal::TimeBase" }
%"class.base::time_internal::TimeBase" = type { i64 }
%"class.std::__1::unique_ptr.9" = type { %"class.std::__1::__compressed_pair.10" }
%"class.std::__1::__compressed_pair.10" = type { %"struct.std::__1::__compressed_pair_elem.11" }
%"struct.std::__1::__compressed_pair_elem.11" = type { %"class.gpu::TransferBuffer"* }
%"class.gpu::TransferBuffer" = type <{ %"class.gpu::TransferBufferInterface", %"class.gpu::CommandBufferHelper"*, %"class.std::__1::unique_ptr.12", %"class.base::circular_deque.18", i32, i32, i32, i32, i32, i32, i32, i32, %class.scoped_refptr, i32, [4 x i8], i8*, i32, i8, i8, [2 x i8] }>
%"class.gpu::TransferBufferInterface" = type { i32 (...)** }
%"class.gpu::CommandBufferHelper" = type <{ i32 (...)**, %"class.gpu::CommandBuffer"*, i32, i32, %class.scoped_refptr, %"union.gpu::CommandBufferEntry"*, i32, i32, i32, i32, i32, i32, i32, i8, [3 x i8], i32, i8, i8, i8, i8, i32, i32, %"class.base::TimeTicks", i32, [4 x i8] }>
%"class.std::__1::unique_ptr.12" = type { %"class.std::__1::__compressed_pair.13" }
%"class.std::__1::__compressed_pair.13" = type { %"struct.std::__1::__compressed_pair_elem.14" }
%"struct.std::__1::__compressed_pair_elem.14" = type { %"class.gpu::RingBuffer"* }
%"class.gpu::RingBuffer" = type { %"class.gpu::CommandBufferHelper"*, %"class.base::circular_deque", i32, i32, i32, i32, i32, i32, i8* }
%"class.base::circular_deque" = type { %"class.base::internal::VectorBuffer", i64, i64 }
%"class.base::internal::VectorBuffer" = type { %"struct.gpu::RingBuffer::Block"*, i64 }
%"struct.gpu::RingBuffer::Block" = type { i32, i32, i32, i32 }
%"class.base::circular_deque.18" = type { %"class.base::internal::VectorBuffer.19", i64, i64 }
%"class.base::internal::VectorBuffer.19" = type { %"class.std::__1::unique_ptr.12"*, i64 }
%"class.std::__1::unique_ptr.23" = type { %"class.std::__1::__compressed_pair.24" }
%"class.std::__1::__compressed_pair.24" = type { %"struct.std::__1::__compressed_pair_elem.25" }
%"struct.std::__1::__compressed_pair_elem.25" = type { %"class.gpu::gles2::GLES2Implementation"* }
%"class.gpu::gles2::GLES2Implementation" = type { %"class.gpu::gles2::GLES2Interface", %"class.gpu::ImplementationBase", %"class.gpu::gles2::QueryTrackerClient", %"class.gpu::gles2::GLES2Util", %"class.gpu::gles2::GLES2CmdHelper"*, %"class.std::__1::basic_string", %"class.gpu::gles2::DebugMarkerManager", %"class.std::__1::basic_string", %"class.std::__1::queue", i32, %"struct.gpu::gles2::GLES2Implementation::GLStaticState", %"struct.gpu::gles2::ClientContextState", i32, i32, i32, i32, i32, i32, i32, i32, i32, i32, %"class.std::__1::unique_ptr.116", i32, i32, i32, i32, i32, i32, i32, i32, i32, i32, i32, i32, i32, i32, i32, i32, i32, i32, %"class.std::__1::unique_ptr.122", [2 x i32], i32, %"class.gpu::LogSettings", i8, i8, i32, i32, i32, i32, %"class.std::__1::set", %"class.std::__1::map.137", %"class.std::__1::unordered_map.148", %"class.std::__1::map.172", %class.scoped_refptr.181, %"class.gpu::gles2::ShareGroupContextData", [5 x %"class.std::__1::unique_ptr.240"], %"class.std::__1::unique_ptr.246", %"class.std::__1::unique_ptr.276", %"class.absl::optional", %"class.absl::optional.306", %"class.base::RepeatingCallback", i8, %"class.std::__1::deque", i32, i8, i8*, %"class.std::__1::vector.322", i64, %"class.base::flat_map.329", %"class.base::flat_map.339", %"class.std::__1::basic_string", i8, i32, %"class.base::WeakPtrFactory.349" }
%"class.gpu::gles2::GLES2Interface" = type { %"class.gpu::InterfaceBase" }
%"class.gpu::InterfaceBase" = type { i32 (...)** }
%"class.gpu::ImplementationBase" = type { %"class.base::trace_event::MemoryDumpProvider", %"class.gpu::ContextSupport", %"class.gpu::GpuControlClient", %"class.gpu::TransferBufferInterface"*, %"class.std::__1::unique_ptr.26", %"class.std::__1::unique_ptr.48", %"class.base::OnceCallback", i8, %"class.gpu::GpuControl"*, %"struct.gpu::Capabilities", %"class.gpu::CommandBufferHelper"*, %"class.base::WeakPtrFactory" }
%"class.base::trace_event::MemoryDumpProvider" = type { i32 (...)** }
%"class.gpu::ContextSupport" = type { i32 (...)** }
%"class.gpu::GpuControlClient" = type { i32 (...)** }
%"class.std::__1::unique_ptr.26" = type { %"class.std::__1::__compressed_pair.27" }
%"class.std::__1::__compressed_pair.27" = type { %"struct.std::__1::__compressed_pair_elem.28" }
%"struct.std::__1::__compressed_pair_elem.28" = type { %"class.gpu::MappedMemoryManager"* }
%"class.gpu::MappedMemoryManager" = type <{ i32, [4 x i8], %"class.gpu::CommandBufferHelper"*, %"class.std::__1::vector", i64, i64, i64, i32, [4 x i8] }>
%"class.std::__1::vector" = type { %"class.std::__1::__vector_base" }
%"class.std::__1::__vector_base" = type { %"class.std::__1::unique_ptr.29"*, %"class.std::__1::unique_ptr.29"*, %"class.std::__1::__compressed_pair.40" }
%"class.std::__1::unique_ptr.29" = type { %"class.std::__1::__compressed_pair.30" }
%"class.std::__1::__compressed_pair.30" = type { %"struct.std::__1::__compressed_pair_elem.31" }
%"struct.std::__1::__compressed_pair_elem.31" = type { %"class.gpu::MemoryChunk"* }
%"class.gpu::MemoryChunk" = type { i32, %class.scoped_refptr, %"class.gpu::FencedAllocatorWrapper" }
%"class.gpu::FencedAllocatorWrapper" = type { %"class.gpu::FencedAllocator", i8* }
%"class.gpu::FencedAllocator" = type <{ %"class.gpu::CommandBufferHelper"*, %"class.std::__1::vector.32", i32, [4 x i8] }>
%"class.std::__1::vector.32" = type { %"class.std::__1::__vector_base.33" }
%"class.std::__1::__vector_base.33" = type { %"struct.gpu::FencedAllocator::Block"*, %"struct.gpu::FencedAllocator::Block"*, %"class.std::__1::__compressed_pair.34" }
%"struct.gpu::FencedAllocator::Block" = type { i32, i32, i32, i32 }
%"class.std::__1::__compressed_pair.34" = type { %"struct.std::__1::__compressed_pair_elem.35" }
%"struct.std::__1::__compressed_pair_elem.35" = type { %"struct.gpu::FencedAllocator::Block"* }
%"class.std::__1::__compressed_pair.40" = type { %"struct.std::__1::__compressed_pair_elem.41" }
%"struct.std::__1::__compressed_pair_elem.41" = type { %"class.std::__1::unique_ptr.29"* }
%"class.std::__1::unique_ptr.48" = type { %"class.std::__1::__compressed_pair.49" }
%"class.std::__1::__compressed_pair.49" = type { %"struct.std::__1::__compressed_pair_elem.50" }
%"struct.std::__1::__compressed_pair_elem.50" = type { %"class.gpu::gles2::QueryTracker"* }
%"class.gpu::gles2::QueryTracker" = type <{ %"class.std::__1::unordered_map", %"class.base::flat_map", %"class.gpu::gles2::QuerySyncManager", %"class.gpu::MappedMemoryManager"*, i32, i32, %"struct.gpu::gles2::DisjointValueSync"*, i32, [4 x i8] }>
%"class.std::__1::unordered_map" = type { %"class.std::__1::__hash_table" }
%"class.std::__1::__hash_table" = type <{ %"class.std::__1::unique_ptr.51", %"class.std::__1::__compressed_pair.60", %"class.std::__1::__compressed_pair.65", %"class.std::__1::__compressed_pair.67", [4 x i8] }>
%"class.std::__1::unique_ptr.51" = type { %"class.std::__1::__compressed_pair.52" }
%"class.std::__1::__compressed_pair.52" = type { %"struct.std::__1::__compressed_pair_elem.53", %"struct.std::__1::__compressed_pair_elem.54" }
%"struct.std::__1::__compressed_pair_elem.53" = type { %"struct.std::__1::__hash_node_base"** }
%"struct.std::__1::__hash_node_base" = type { %"struct.std::__1::__hash_node_base"* }
%"struct.std::__1::__compressed_pair_elem.54" = type { %"class.std::__1::__bucket_list_deallocator" }
%"class.std::__1::__bucket_list_deallocator" = type { %"class.std::__1::__compressed_pair.55" }
%"class.std::__1::__compressed_pair.55" = type { %"struct.std::__1::__compressed_pair_elem.56" }
%"struct.std::__1::__compressed_pair_elem.56" = type { i64 }
%"class.std::__1::__compressed_pair.60" = type { %"struct.std::__1::__compressed_pair_elem.61" }
%"struct.std::__1::__compressed_pair_elem.61" = type { %"struct.std::__1::__hash_node_base" }
%"class.std::__1::__compressed_pair.65" = type { %"struct.std::__1::__compressed_pair_elem.56" }
%"class.std::__1::__compressed_pair.67" = type { %"struct.std::__1::__compressed_pair_elem.68" }
%"struct.std::__1::__compressed_pair_elem.68" = type { float }
%"class.base::flat_map" = type { %"class.base::internal::flat_tree" }
%"class.base::internal::flat_tree" = type { %"class.std::__1::vector.70" }
%"class.std::__1::vector.70" = type { %"class.std::__1::__vector_base.71" }
%"class.std::__1::__vector_base.71" = type { %"struct.std::__1::pair"*, %"struct.std::__1::pair"*, %"class.std::__1::__compressed_pair.72" }
%"struct.std::__1::pair" = type opaque
%"class.std::__1::__compressed_pair.72" = type { %"struct.std::__1::__compressed_pair_elem.73" }
%"struct.std::__1::__compressed_pair_elem.73" = type { %"struct.std::__1::pair"* }
%"class.gpu::gles2::QuerySyncManager" = type { %"class.gpu::MappedMemoryManager"*, %"class.base::circular_deque.77" }
%"class.base::circular_deque.77" = type { %"class.base::internal::VectorBuffer.78", i64, i64 }
%"class.base::internal::VectorBuffer.78" = type { %"class.std::__1::unique_ptr.79"*, i64 }
%"class.std::__1::unique_ptr.79" = type opaque
%"struct.gpu::gles2::DisjointValueSync" = type { i32 }
%"class.base::OnceCallback" = type { %"class.base::internal::CallbackBase" }
%"class.base::internal::CallbackBase" = type { %class.scoped_refptr.83 }
%class.scoped_refptr.83 = type { %"class.base::internal::BindStateBase"* }
%"class.base::internal::BindStateBase" = type { %"class.base::RefCountedThreadSafe.84", void ()*, void (%"class.base::internal::BindStateBase"*)*, i1 (%"class.base::internal::BindStateBase"*, i32)* }
%"class.base::RefCountedThreadSafe.84" = type { %"class.base::subtle::RefCountedThreadSafeBase" }
%"class.gpu::GpuControl" = type opaque
%"struct.gpu::Capabilities" = type { %"struct.gpu::Capabilities::PerStagePrecisions", %"struct.gpu::Capabilities::PerStagePrecisions", i32, i32, i32, i32, i32, i32, i32, i32, i32, i32, i32, i32, i32, i32, i32, i32, i32, i32, i32, i64, i32, i64, i32, i32, i64, i32, i32, i32, i32, i32, i32, i32, i64, float, i32, i32, i32, i64, i32, i32, i32, i32, i32, i32, i32, i32, i32, i32, i32, i32, i32, i8, i8, i8, i8, i8, i8, i8, i8, i8, i8, i8, i8, i8, i8, i8, i8, i8, i8, i8, i8, i8, i8, i8, i8, i8, i8, i8, i8, i8, i8, i8, i8, i8, i8, i8, i32, i8, i8, i8, i8, i8, i8, i8, i8, i8, i8, i8, i8, i8, i8, i8, i8, i8, i8, i8, i8, i32, i32, i8, %"struct.gpu::GpuMemoryBufferFormatSet", %"class.std::__1::vector.85" }
%"struct.gpu::Capabilities::PerStagePrecisions" = type { %"struct.gpu::Capabilities::ShaderPrecision", %"struct.gpu::Capabilities::ShaderPrecision", %"struct.gpu::Capabilities::ShaderPrecision", %"struct.gpu::Capabilities::ShaderPrecision", %"struct.gpu::Capabilities::ShaderPrecision", %"struct.gpu::Capabilities::ShaderPrecision" }
%"struct.gpu::Capabilities::ShaderPrecision" = type { i32, i32, i32 }
%"struct.gpu::GpuMemoryBufferFormatSet" = type { i32 }
%"class.std::__1::vector.85" = type { %"class.std::__1::__vector_base.86" }
%"class.std::__1::__vector_base.86" = type { %"struct.gfx::BufferUsageAndFormat"*, %"struct.gfx::BufferUsageAndFormat"*, %"class.std::__1::__compressed_pair.87" }
%"struct.gfx::BufferUsageAndFormat" = type { i32, i32 }
%"class.std::__1::__compressed_pair.87" = type { %"struct.std::__1::__compressed_pair_elem.88" }
%"struct.std::__1::__compressed_pair_elem.88" = type { %"struct.gfx::BufferUsageAndFormat"* }
%"class.base::WeakPtrFactory" = type { %"class.base::internal::WeakPtrFactoryBase" }
%"class.base::internal::WeakPtrFactoryBase" = type { %"class.base::internal::WeakReferenceOwner", i64 }
%"class.base::internal::WeakReferenceOwner" = type { %class.scoped_refptr.92 }
%class.scoped_refptr.92 = type { %"class.base::internal::WeakReference::Flag"* }
%"class.base::internal::WeakReference::Flag" = type <{ %"class.base::RefCountedThreadSafe.93", %"class.base::AtomicFlag", [3 x i8] }>
%"class.base::RefCountedThreadSafe.93" = type { %"class.base::subtle::RefCountedThreadSafeBase" }
%"class.base::AtomicFlag" = type { %"struct.std::__1::atomic.94" }
%"struct.std::__1::atomic.94" = type { %"struct.std::__1::__atomic_base.95" }
%"struct.std::__1::__atomic_base.95" = type { %"struct.std::__1::__atomic_base.96" }
%"struct.std::__1::__atomic_base.96" = type { %"struct.std::__1::__cxx_atomic_impl.97" }
%"struct.std::__1::__cxx_atomic_impl.97" = type { %"struct.std::__1::__cxx_atomic_base_impl.98" }
%"struct.std::__1::__cxx_atomic_base_impl.98" = type { i8 }
%"class.gpu::gles2::QueryTrackerClient" = type { i32 (...)** }
%"class.gpu::gles2::GLES2Util" = type { i32, i32 }
%"class.gpu::gles2::DebugMarkerManager" = type { %"class.std::__1::stack", %"class.std::__1::basic_string" }
%"class.std::__1::stack" = type { %"class.base::circular_deque.104" }
%"class.base::circular_deque.104" = type { %"class.base::internal::VectorBuffer.105", i64, i64 }
%"class.base::internal::VectorBuffer.105" = type { %"class.gpu::gles2::DebugMarkerManager::Group"*, i64 }
%"class.gpu::gles2::DebugMarkerManager::Group" = type { %"class.std::__1::basic_string", %"class.std::__1::basic_string" }
%"class.std::__1::queue" = type { %"class.base::circular_deque.106" }
%"class.base::circular_deque.106" = type { %"class.base::internal::VectorBuffer.107", i64, i64 }
%"class.base::internal::VectorBuffer.107" = type { i32*, i64 }
%"struct.gpu::gles2::GLES2Implementation::GLStaticState" = type { %"class.std::__1::map" }
%"class.std::__1::map" = type { %"class.std::__1::__tree" }
%"class.std::__1::__tree" = type { %"class.std::__1::__tree_end_node"*, %"class.std::__1::__compressed_pair.108", %"class.std::__1::__compressed_pair.113" }
%"class.std::__1::__tree_end_node" = type { %"class.std::__1::__tree_node_base"* }
%"class.std::__1::__tree_node_base" = type opaque
%"class.std::__1::__compressed_pair.108" = type { %"struct.std::__1::__compressed_pair_elem.109" }
%"struct.std::__1::__compressed_pair_elem.109" = type { %"class.std::__1::__tree_end_node" }
%"class.std::__1::__compressed_pair.113" = type { %"struct.std::__1::__compressed_pair_elem.56" }
%"struct.gpu::gles2::ClientContextState" = type { %"struct.gpu::gles2::ClientContextState::EnableFlags", i32, i32, i32, i32 }
%"struct.gpu::gles2::ClientContextState::EnableFlags" = type { i8, i8, i8, i8, i8, i8, i8, i8, i8, i8, i8 }
%"class.std::__1::unique_ptr.116" = type { %"class.std::__1::__compressed_pair.117" }
%"class.std::__1::__compressed_pair.117" = type { %"struct.std::__1::__compressed_pair_elem.118" }
%"struct.std::__1::__compressed_pair_elem.118" = type { %"struct.gpu::gles2::GLES2Implementation::TextureUnit"* }
%"struct.gpu::gles2::GLES2Implementation::TextureUnit" = type { i32, i32, i32, i32 }
%"class.std::__1::unique_ptr.122" = type { %"class.std::__1::__compressed_pair.123" }
%"class.std::__1::__compressed_pair.123" = type { %"struct.std::__1::__compressed_pair_elem.124" }
%"struct.std::__1::__compressed_pair_elem.124" = type { %"class.gpu::gles2::VertexArrayObjectManager"* }
%"class.gpu::gles2::VertexArrayObjectManager" = type opaque
%"class.gpu::LogSettings" = type { i8 }
%"class.std::__1::set" = type { %"class.std::__1::__tree.128" }
%"class.std::__1::__tree.128" = type { %"class.std::__1::__tree_end_node"*, %"class.std::__1::__compressed_pair.129", %"class.std::__1::__compressed_pair.133" }
%"class.std::__1::__compressed_pair.129" = type { %"struct.std::__1::__compressed_pair_elem.109" }
%"class.std::__1::__compressed_pair.133" = type { %"struct.std::__1::__compressed_pair_elem.56" }
%"class.std::__1::map.137" = type { %"class.std::__1::__tree.138" }
%"class.std::__1::__tree.138" = type { %"class.std::__1::__tree_end_node"*, %"class.std::__1::__compressed_pair.139", %"class.std::__1::__compressed_pair.143" }
%"class.std::__1::__compressed_pair.139" = type { %"struct.std::__1::__compressed_pair_elem.109" }
%"class.std::__1::__compressed_pair.143" = type { %"struct.std::__1::__compressed_pair_elem.56" }
%"class.std::__1::unordered_map.148" = type { %"class.std::__1::__hash_table.149" }
%"class.std::__1::__hash_table.149" = type <{ %"class.std::__1::unique_ptr.150", %"class.std::__1::__compressed_pair.160", %"class.std::__1::__compressed_pair.165", %"class.std::__1::__compressed_pair.168", [4 x i8] }>
%"class.std::__1::unique_ptr.150" = type { %"class.std::__1::__compressed_pair.151" }
%"class.std::__1::__compressed_pair.151" = type { %"struct.std::__1::__compressed_pair_elem.152", %"struct.std::__1::__compressed_pair_elem.154" }
%"struct.std::__1::__compressed_pair_elem.152" = type { %"struct.std::__1::__hash_node_base.153"** }
%"struct.std::__1::__hash_node_base.153" = type { %"struct.std::__1::__hash_node_base.153"* }
%"struct.std::__1::__compressed_pair_elem.154" = type { %"class.std::__1::__bucket_list_deallocator.155" }
%"class.std::__1::__bucket_list_deallocator.155" = type { %"class.std::__1::__compressed_pair.156" }
%"class.std::__1::__compressed_pair.156" = type { %"struct.std::__1::__compressed_pair_elem.56" }
%"class.std::__1::__compressed_pair.160" = type { %"struct.std::__1::__compressed_pair_elem.161" }
%"struct.std::__1::__compressed_pair_elem.161" = type { %"struct.std::__1::__hash_node_base.153" }
%"class.std::__1::__compressed_pair.165" = type { %"struct.std::__1::__compressed_pair_elem.56" }
%"class.std::__1::__compressed_pair.168" = type { %"struct.std::__1::__compressed_pair_elem.68" }
%"class.std::__1::map.172" = type { %"class.std::__1::__tree.173" }
%"class.std::__1::__tree.173" = type { %"class.std::__1::__tree_end_node"*, %"class.std::__1::__compressed_pair.174", %"class.std::__1::__compressed_pair.178" }
%"class.std::__1::__compressed_pair.174" = type { %"struct.std::__1::__compressed_pair_elem.109" }
%"class.std::__1::__compressed_pair.178" = type { %"struct.std::__1::__compressed_pair_elem.56" }
%class.scoped_refptr.181 = type { %"class.gpu::gles2::ShareGroup"* }
%"class.gpu::gles2::ShareGroup" = type <{ %"class.base::RefCountedThreadSafe.182", [4 x i8], [6 x %"class.std::__1::unique_ptr.183"], [1 x %"class.std::__1::unique_ptr.189"], %"class.std::__1::unique_ptr.195", %"class.gpu::ClientDiscardableTextureManager", i8, [7 x i8], i64, %"class.base::Lock", i8, [7 x i8] }>
%"class.base::RefCountedThreadSafe.182" = type { %"class.base::subtle::RefCountedThreadSafeBase" }
%"class.std::__1::unique_ptr.183" = type { %"class.std::__1::__compressed_pair.184" }
%"class.std::__1::__compressed_pair.184" = type { %"struct.std::__1::__compressed_pair_elem.185" }
%"struct.std::__1::__compressed_pair_elem.185" = type { %"class.gpu::gles2::IdHandlerInterface"* }
%"class.gpu::gles2::IdHandlerInterface" = type { i32 (...)** }
%"class.std::__1::unique_ptr.189" = type { %"class.std::__1::__compressed_pair.190" }
%"class.std::__1::__compressed_pair.190" = type { %"struct.std::__1::__compressed_pair_elem.191" }
%"struct.std::__1::__compressed_pair_elem.191" = type { %"class.gpu::gles2::RangeIdHandlerInterface"* }
%"class.gpu::gles2::RangeIdHandlerInterface" = type { i32 (...)** }
%"class.std::__1::unique_ptr.195" = type { %"class.std::__1::__compressed_pair.196" }
%"class.std::__1::__compressed_pair.196" = type { %"struct.std::__1::__compressed_pair_elem.197" }
%"struct.std::__1::__compressed_pair_elem.197" = type { %"class.gpu::gles2::ProgramInfoManager"* }
%"class.gpu::gles2::ProgramInfoManager" = type opaque
%"class.gpu::ClientDiscardableTextureManager" = type { %"class.base::Lock", %"class.std::__1::map.201", %"class.gpu::ClientDiscardableManager" }
%"class.std::__1::map.201" = type { %"class.std::__1::__tree.202" }
%"class.std::__1::__tree.202" = type { %"class.std::__1::__tree_end_node"*, %"class.std::__1::__compressed_pair.203", %"class.std::__1::__compressed_pair.207" }
%"class.std::__1::__compressed_pair.203" = type { %"struct.std::__1::__compressed_pair_elem.109" }
%"class.std::__1::__compressed_pair.207" = type { %"struct.std::__1::__compressed_pair_elem.56" }
%"class.gpu::ClientDiscardableManager" = type { i32, i64, i32, %"class.std::__1::vector.211", %"class.std::__1::map.219", %"class.std::__1::queue.230" }
%"class.std::__1::vector.211" = type { %"class.std::__1::__vector_base.212" }
%"class.std::__1::__vector_base.212" = type { %"class.std::__1::unique_ptr.213"*, %"class.std::__1::unique_ptr.213"*, %"class.std::__1::__compressed_pair.214" }
%"class.std::__1::unique_ptr.213" = type opaque
%"class.std::__1::__compressed_pair.214" = type { %"struct.std::__1::__compressed_pair_elem.215" }
%"struct.std::__1::__compressed_pair_elem.215" = type { %"class.std::__1::unique_ptr.213"* }
%"class.std::__1::map.219" = type { %"class.std::__1::__tree.220" }
%"class.std::__1::__tree.220" = type { %"class.std::__1::__tree_end_node"*, %"class.std::__1::__compressed_pair.221", %"class.std::__1::__compressed_pair.225" }
%"class.std::__1::__compressed_pair.221" = type { %"struct.std::__1::__compressed_pair_elem.109" }
%"class.std::__1::__compressed_pair.225" = type { %"struct.std::__1::__compressed_pair_elem.56" }
%"class.std::__1::queue.230" = type { %"class.base::circular_deque.231" }
%"class.base::circular_deque.231" = type { %"class.base::internal::VectorBuffer.232", i64, i64 }
%"class.base::internal::VectorBuffer.232" = type { %"class.gpu::ClientDiscardableHandle"*, i64 }
%"class.gpu::ClientDiscardableHandle" = type { %"class.gpu::DiscardableHandleBase" }
%"class.gpu::DiscardableHandleBase" = type { %class.scoped_refptr, i32, i32 }
%"class.base::Lock" = type { %"class.base::internal::LockImpl" }
%"class.base::internal::LockImpl" = type { %union.pthread_mutex_t }
%union.pthread_mutex_t = type { %struct.__pthread_mutex_s }
%struct.__pthread_mutex_s = type { i32, i32, i32, i32, i32, i16, i16, %struct.__pthread_internal_list }
%struct.__pthread_internal_list = type { %struct.__pthread_internal_list*, %struct.__pthread_internal_list* }
%"class.gpu::gles2::ShareGroupContextData" = type { [6 x %"struct.gpu::gles2::ShareGroupContextData::IdHandlerData"] }
%"struct.gpu::gles2::ShareGroupContextData::IdHandlerData" = type <{ %"class.std::__1::vector.233", i32, [4 x i8] }>
%"class.std::__1::vector.233" = type { %"class.std::__1::__vector_base.234" }
%"class.std::__1::__vector_base.234" = type { i32*, i32*, %"class.std::__1::__compressed_pair.235" }
%"class.std::__1::__compressed_pair.235" = type { %"struct.std::__1::__compressed_pair_elem.236" }
%"struct.std::__1::__compressed_pair_elem.236" = type { i32* }
%"class.std::__1::unique_ptr.240" = type { %"class.std::__1::__compressed_pair.241" }
%"class.std::__1::__compressed_pair.241" = type { %"struct.std::__1::__compressed_pair_elem.242" }
%"struct.std::__1::__compressed_pair_elem.242" = type { %"class.gpu::IdAllocator"* }
%"class.gpu::IdAllocator" = type opaque
%"class.std::__1::unique_ptr.246" = type { %"class.std::__1::__compressed_pair.247" }
%"class.std::__1::__compressed_pair.247" = type { %"struct.std::__1::__compressed_pair_elem.248" }
%"struct.std::__1::__compressed_pair_elem.248" = type { %"class.gpu::gles2::BufferTracker"* }
%"class.gpu::gles2::BufferTracker" = type { %"class.gpu::MappedMemoryManager"*, %"class.std::__1::unordered_map.249" }
%"class.std::__1::unordered_map.249" = type { %"class.std::__1::__hash_table.250" }
%"class.std::__1::__hash_table.250" = type <{ %"class.std::__1::unique_ptr.251", %"class.std::__1::__compressed_pair.261", %"class.std::__1::__compressed_pair.266", %"class.std::__1::__compressed_pair.269", [4 x i8] }>
%"class.std::__1::unique_ptr.251" = type { %"class.std::__1::__compressed_pair.252" }
%"class.std::__1::__compressed_pair.252" = type { %"struct.std::__1::__compressed_pair_elem.253", %"struct.std::__1::__compressed_pair_elem.255" }
%"struct.std::__1::__compressed_pair_elem.253" = type { %"struct.std::__1::__hash_node_base.254"** }
%"struct.std::__1::__hash_node_base.254" = type { %"struct.std::__1::__hash_node_base.254"* }
%"struct.std::__1::__compressed_pair_elem.255" = type { %"class.std::__1::__bucket_list_deallocator.256" }
%"class.std::__1::__bucket_list_deallocator.256" = type { %"class.std::__1::__compressed_pair.257" }
%"class.std::__1::__compressed_pair.257" = type { %"struct.std::__1::__compressed_pair_elem.56" }
%"class.std::__1::__compressed_pair.261" = type { %"struct.std::__1::__compressed_pair_elem.262" }
%"struct.std::__1::__compressed_pair_elem.262" = type { %"struct.std::__1::__hash_node_base.254" }
%"class.std::__1::__compressed_pair.266" = type { %"struct.std::__1::__compressed_pair_elem.56" }
%"class.std::__1::__compressed_pair.269" = type { %"struct.std::__1::__compressed_pair_elem.68" }
%"class.std::__1::unique_ptr.276" = type { %"class.std::__1::__compressed_pair.277" }
%"class.std::__1::__compressed_pair.277" = type { %"struct.std::__1::__compressed_pair_elem.278" }
%"struct.std::__1::__compressed_pair_elem.278" = type { %"class.gpu::gles2::ReadbackBufferShadowTracker"* }
%"class.gpu::gles2::ReadbackBufferShadowTracker" = type { %"class.base::flat_map.279", %"class.std::__1::vector.295", i64, %"class.gpu::MappedMemoryManager"*, %"class.gpu::gles2::GLES2CmdHelper"* }
%"class.base::flat_map.279" = type { %"class.base::internal::flat_tree.280" }
%"class.base::internal::flat_tree.280" = type { %"class.std::__1::vector.281" }
%"class.std::__1::vector.281" = type { %"class.std::__1::__vector_base.282" }
%"class.std::__1::__vector_base.282" = type { %"struct.std::__1::pair.283"*, %"struct.std::__1::pair.283"*, %"class.std::__1::__compressed_pair.290" }
%"struct.std::__1::pair.283" = type { i32, %"class.std::__1::unique_ptr.284" }
%"class.std::__1::unique_ptr.284" = type { %"class.std::__1::__compressed_pair.285" }
%"class.std::__1::__compressed_pair.285" = type { %"struct.std::__1::__compressed_pair_elem.286" }
%"struct.std::__1::__compressed_pair_elem.286" = type { %"class.gpu::gles2::ReadbackBufferShadowTracker::Buffer"* }
%"class.gpu::gles2::ReadbackBufferShadowTracker::Buffer" = type <{ %"class.base::SupportsWeakPtr", i32, [4 x i8], %"class.gpu::gles2::ReadbackBufferShadowTracker"*, i32, i32, i8*, i64, i64, i32, i8, [3 x i8] }>
%"class.base::SupportsWeakPtr" = type { %"class.base::internal::WeakReferenceOwner" }
%"class.std::__1::__compressed_pair.290" = type { %"struct.std::__1::__compressed_pair_elem.291" }
%"struct.std::__1::__compressed_pair_elem.291" = type { %"struct.std::__1::pair.283"* }
%"class.std::__1::vector.295" = type { %"class.std::__1::__vector_base.296" }
%"class.std::__1::__vector_base.296" = type { %"class.base::WeakPtr"*, %"class.base::WeakPtr"*, %"class.std::__1::__compressed_pair.297" }
%"class.base::WeakPtr" = type opaque
%"class.std::__1::__compressed_pair.297" = type { %"struct.std::__1::__compressed_pair_elem.298" }
%"struct.std::__1::__compressed_pair_elem.298" = type { %"class.base::WeakPtr"* }
%"class.absl::optional" = type { %"class.absl::optional_internal::optional_data" }
%"class.absl::optional_internal::optional_data" = type { %"class.absl::optional_internal::optional_data_base" }
%"class.absl::optional_internal::optional_data_base" = type { %"class.absl::optional_internal::optional_data_dtor_base" }
%"class.absl::optional_internal::optional_data_dtor_base" = type { i8, %union.anon.305 }
%union.anon.305 = type { %"class.gpu::ScopedMappedMemoryPtr" }
%"class.gpu::ScopedMappedMemoryPtr" = type { i8*, i32, i32, i32, i8, %"class.gpu::CommandBufferHelper"*, %"class.gpu::MappedMemoryManager"* }
%"class.absl::optional.306" = type { %"class.absl::optional_internal::optional_data.307" }
%"class.absl::optional_internal::optional_data.307" = type { %"class.absl::optional_internal::optional_data_base.308" }
%"class.absl::optional_internal::optional_data_base.308" = type { %"class.absl::optional_internal::optional_data_dtor_base.309" }
%"class.absl::optional_internal::optional_data_dtor_base.309" = type { i8, %union.anon.310 }
%union.anon.310 = type { %"class.gpu::ScopedTransferBufferPtr" }
%"class.gpu::ScopedTransferBufferPtr" = type { i8*, i32, %"class.gpu::CommandBufferHelper"*, %"class.gpu::TransferBufferInterface"* }
%"class.base::RepeatingCallback" = type { %"class.base::internal::CallbackBaseCopyable" }
%"class.base::internal::CallbackBaseCopyable" = type { %"class.base::internal::CallbackBase" }
%"class.std::__1::deque" = type { %"class.std::__1::__deque_base" }
%"class.std::__1::__deque_base" = type { %"struct.std::__1::__split_buffer", i64, %"class.std::__1::__compressed_pair.318" }
%"struct.std::__1::__split_buffer" = type { %"struct.gpu::gles2::GLES2Implementation::DeferredErrorCallback"**, %"struct.gpu::gles2::GLES2Implementation::DeferredErrorCallback"**, %"struct.gpu::gles2::GLES2Implementation::DeferredErrorCallback"**, %"class.std::__1::__compressed_pair.313" }
%"struct.gpu::gles2::GLES2Implementation::DeferredErrorCallback" = type <{ %"class.std::__1::basic_string", i32, [4 x i8] }>
%"class.std::__1::__compressed_pair.313" = type { %"struct.std::__1::__compressed_pair_elem.314" }
%"struct.std::__1::__compressed_pair_elem.314" = type { %"struct.gpu::gles2::GLES2Implementation::DeferredErrorCallback"** }
%"class.std::__1::__compressed_pair.318" = type { %"struct.std::__1::__compressed_pair_elem.56" }
%"class.std::__1::vector.322" = type { %"class.std::__1::__vector_base.323" }
%"class.std::__1::__vector_base.323" = type { i8**, i8**, %"class.std::__1::__compressed_pair.324" }
%"class.std::__1::__compressed_pair.324" = type { %"struct.std::__1::__compressed_pair_elem.325" }
%"struct.std::__1::__compressed_pair_elem.325" = type { i8** }
%"class.base::flat_map.329" = type { %"class.base::internal::flat_tree.330" }
%"class.base::internal::flat_tree.330" = type { %"class.std::__1::vector.331" }
%"class.std::__1::vector.331" = type { %"class.std::__1::__vector_base.332" }
%"class.std::__1::__vector_base.332" = type { %"struct.std::__1::pair.333"*, %"struct.std::__1::pair.333"*, %"class.std::__1::__compressed_pair.334" }
%"struct.std::__1::pair.333" = type opaque
%"class.std::__1::__compressed_pair.334" = type { %"struct.std::__1::__compressed_pair_elem.335" }
%"struct.std::__1::__compressed_pair_elem.335" = type { %"struct.std::__1::pair.333"* }
%"class.base::flat_map.339" = type { %"class.base::internal::flat_tree.340" }
%"class.base::internal::flat_tree.340" = type { %"class.std::__1::vector.341" }
%"class.std::__1::vector.341" = type { %"class.std::__1::__vector_base.342" }
%"class.std::__1::__vector_base.342" = type { %"struct.std::__1::pair.343"*, %"struct.std::__1::pair.343"*, %"class.std::__1::__compressed_pair.344" }
%"struct.std::__1::pair.343" = type opaque
%"class.std::__1::__compressed_pair.344" = type { %"struct.std::__1::__compressed_pair_elem.345" }
%"struct.std::__1::__compressed_pair_elem.345" = type { %"struct.std::__1::pair.343"* }
%"class.std::__1::basic_string" = type { %"class.std::__1::__compressed_pair.99" }
%"class.std::__1::__compressed_pair.99" = type { %"struct.std::__1::__compressed_pair_elem.100" }
%"struct.std::__1::__compressed_pair_elem.100" = type { %"struct.std::__1::basic_string<char, std::__1::char_traits<char>, std::__1::allocator<char> >::__rep" }
%"struct.std::__1::basic_string<char, std::__1::char_traits<char>, std::__1::allocator<char> >::__rep" = type { %union.anon }
%union.anon = type { %"struct.std::__1::basic_string<char, std::__1::char_traits<char>, std::__1::allocator<char> >::__long" }
%"struct.std::__1::basic_string<char, std::__1::char_traits<char>, std::__1::allocator<char> >::__long" = type { i8*, i64, i64 }
%"class.base::WeakPtrFactory.349" = type { %"class.base::internal::WeakPtrFactoryBase" }
%"class.gfx::Size" = type { i32, i32 }
%class.scoped_refptr.353 = type { %"class.ppapi::TrackedCallback"* }
%"class.ppapi::TrackedCallback" = type { %"class.base::RefCountedThreadSafe.354", %"class.base::Lock", i8, %class.scoped_refptr.355, i32, i8, i8, %struct.PP_CompletionCallback, %"class.base::OnceCallback.356", %class.scoped_refptr.357, i32, %"class.std::__1::unique_ptr.358" }
%"class.base::RefCountedThreadSafe.354" = type { %"class.base::subtle::RefCountedThreadSafeBase" }
%class.scoped_refptr.355 = type { %"class.ppapi::CallbackTracker"* }
%"class.ppapi::CallbackTracker" = type opaque
%struct.PP_CompletionCallback = type { void (i8*, i32)*, i8*, i32 }
%"class.base::OnceCallback.356" = type { %"class.base::internal::CallbackBase" }
%class.scoped_refptr.357 = type { %"class.ppapi::MessageLoopShared"* }
%"class.ppapi::MessageLoopShared" = type { %"class.ppapi::Resource", %"class.ppapi::thunk::PPB_MessageLoop_API" }
%"class.ppapi::thunk::PPB_MessageLoop_API" = type { i32 (...)** }
%"class.std::__1::unique_ptr.358" = type { %"class.std::__1::__compressed_pair.359" }
%"class.std::__1::__compressed_pair.359" = type { %"struct.std::__1::__compressed_pair_elem.360" }
%"struct.std::__1::__compressed_pair_elem.360" = type { %"class.base::ConditionVariable"* }
%"class.base::ConditionVariable" = type <{ %union.pthread_cond_t, %union.pthread_mutex_t*, i8, [7 x i8] }>
%union.pthread_cond_t = type { %struct.__pthread_cond_s }
%struct.__pthread_cond_s = type { %union.anon.361, %union.anon.363, [2 x i32], [2 x i32], i32, i32, [2 x i32] }
%union.anon.361 = type { i64 }
%union.anon.363 = type { i64 }
%struct._GLcolorSpace = type opaque
%"struct.gpu::SyncToken" = type { i8, i8, %"class.util::IdType", i64 }
%"class.util::IdType" = type { %"class.base::StrongAlias" }
%"class.base::StrongAlias" = type { i64 }
%"struct.std::__1::basic_string<char, std::__1::char_traits<char>, std::__1::allocator<char> >::__short" = type { [23 x i8], %struct.anon }
%struct.anon = type { i8 }
%"struct.gpu::SharedMemoryLimits" = type { i32, i32, i32, i32, i32, i32, i32 }
%"class.ppapi::thunk::PPB_Audio_API" = type opaque
%"class.ppapi::thunk::PPB_AudioBuffer_API" = type opaque
%"class.ppapi::thunk::PPB_AudioConfig_API" = type opaque
%"class.ppapi::thunk::PPB_AudioInput_API" = type opaque
%"class.ppapi::thunk::PPB_AudioOutput_API" = type opaque
%"class.ppapi::thunk::PPB_AudioTrusted_API" = type opaque
%"class.ppapi::thunk::PPB_BrowserFont_Singleton_API" = type opaque
%"class.ppapi::thunk::PPB_BrowserFont_Trusted_API" = type opaque
%"class.ppapi::thunk::PPB_Buffer_API" = type opaque
%"class.ppapi::thunk::PPB_CameraCapabilities_API" = type opaque
%"class.ppapi::thunk::PPB_CameraDevice_API" = type opaque
%"class.ppapi::thunk::PPB_DeviceRef_API" = type opaque
%"class.ppapi::thunk::PPB_Ext_CrxFileSystem_Private_API" = type opaque
%"class.ppapi::thunk::PPB_FileChooser_API" = type opaque
%"class.ppapi::thunk::PPB_FileIO_API" = type opaque
%"class.ppapi::thunk::PPB_FileRef_API" = type opaque
%"class.ppapi::thunk::PPB_FileSystem_API" = type opaque
%"class.ppapi::thunk::PPB_Find_API" = type opaque
%"class.ppapi::thunk::PPB_Flash_FontFile_API" = type opaque
%"class.ppapi::thunk::PPB_Flash_Fullscreen_API" = type opaque
%"class.ppapi::thunk::PPB_Gamepad_API" = type opaque
%"class.ppapi::thunk::PPB_Graphics2D_API" = type opaque
%"class.ppapi::thunk::PPB_HostResolver_API" = type opaque
%"class.ppapi::thunk::PPB_HostResolver_Private_API" = type opaque
%"class.ppapi::thunk::PPB_ImageData_API" = type opaque
%"class.ppapi::thunk::PPB_InputEvent_API" = type opaque
%"class.ppapi::thunk::PPB_IsolatedFileSystem_Private_API" = type opaque
%"class.ppapi::thunk::PPB_MediaStreamAudioTrack_API" = type opaque
%"class.ppapi::thunk::PPB_MediaStreamVideoTrack_API" = type opaque
%"class.ppapi::thunk::PPB_NetAddress_API" = type opaque
%"class.ppapi::thunk::PPB_NetworkList_API" = type opaque
%"class.ppapi::thunk::PPB_NetworkMonitor_API" = type opaque
%"class.ppapi::thunk::PPB_NetworkProxy_API" = type opaque
%"class.ppapi::thunk::PPB_PDF_API" = type opaque
%"class.ppapi::thunk::PPB_Printing_API" = type opaque
%"class.ppapi::thunk::PPB_Scrollbar_API" = type opaque
%"class.ppapi::thunk::PPB_TCPServerSocket_Private_API" = type opaque
%"class.ppapi::thunk::PPB_TCPSocket_API" = type opaque
%"class.ppapi::thunk::PPB_TCPSocket_Private_API" = type opaque
%"class.ppapi::thunk::PPB_UDPSocket_API" = type opaque
%"class.ppapi::thunk::PPB_UDPSocket_Private_API" = type opaque
%"class.ppapi::thunk::PPB_UMA_Singleton_API" = type opaque
%"class.ppapi::thunk::PPB_URLLoader_API" = type opaque
%"class.ppapi::thunk::PPB_URLRequestInfo_API" = type opaque
%"class.ppapi::thunk::PPB_URLResponseInfo_API" = type opaque
%"class.ppapi::thunk::PPB_VideoCapture_API" = type opaque
%"class.ppapi::thunk::PPB_VideoDecoder_API" = type opaque
%"class.ppapi::thunk::PPB_VideoDecoder_Dev_API" = type opaque
%"class.ppapi::thunk::PPB_VideoEncoder_API" = type opaque
%"class.ppapi::thunk::PPB_VideoFrame_API" = type opaque
%"class.ppapi::thunk::PPB_VideoLayer_API" = type opaque
%"class.ppapi::thunk::PPB_View_API" = type opaque
%"class.ppapi::thunk::PPB_VpnProvider_API" = type opaque
%"class.ppapi::thunk::PPB_WebSocket_API" = type opaque
%"class.ppapi::thunk::PPB_Widget_API" = type opaque
%"class.ppapi::thunk::PPB_X509Certificate_Private_API" = type opaque
%"class.ppapi::proxy::ResourceMessageReplyParams" = type opaque
%"class.IPC::Message" = type opaque

$_ZN5ppapi8Resource23LastPluginRefWasDeletedEv = comdat any

$_ZN5ppapi8Resource18InstanceWasDeletedEv = comdat any

@_ZTVN5ppapi21PPB_Graphics3D_SharedE = hidden unnamed_addr constant { [79 x i8*], [21 x i8*] } { [79 x i8*] [i8* null, i8* null, i8* bitcast (void (%"class.ppapi::PPB_Graphics3D_Shared"*)* @_ZN5ppapi21PPB_Graphics3D_SharedD2Ev to i8*), i8* bitcast (void (%"class.ppapi::PPB_Graphics3D_Shared"*)* @_ZN5ppapi21PPB_Graphics3D_SharedD0Ev to i8*), i8* bitcast (void (%"class.ppapi::Resource"*)* @_ZN5ppapi8Resource29NotifyLastPluginRefWasDeletedEv to i8*), i8* bitcast (void (%"class.ppapi::Resource"*)* @_ZN5ppapi8Resource24NotifyInstanceWasDeletedEv to i8*), i8* bitcast (%"class.ppapi::thunk::PPB_Audio_API"* (%"class.ppapi::Resource"*)* @_ZN5ppapi8Resource15AsPPB_Audio_APIEv to i8*), i8* bitcast (%"class.ppapi::thunk::PPB_AudioBuffer_API"* (%"class.ppapi::Resource"*)* @_ZN5ppapi8Resource21AsPPB_AudioBuffer_APIEv to i8*), i8* bitcast (%"class.ppapi::thunk::PPB_AudioConfig_API"* (%"class.ppapi::Resource"*)* @_ZN5ppapi8Resource21AsPPB_AudioConfig_APIEv to i8*), i8* bitcast (%"class.ppapi::thunk::PPB_AudioInput_API"* (%"class.ppapi::Resource"*)* @_ZN5ppapi8Resource20AsPPB_AudioInput_APIEv to i8*), i8* bitcast (%"class.ppapi::thunk::PPB_AudioOutput_API"* (%"class.ppapi::Resource"*)* @_ZN5ppapi8Resource21AsPPB_AudioOutput_APIEv to i8*), i8* bitcast (%"class.ppapi::thunk::PPB_AudioTrusted_API"* (%"class.ppapi::Resource"*)* @_ZN5ppapi8Resource22AsPPB_AudioTrusted_APIEv to i8*), i8* bitcast (%"class.ppapi::thunk::PPB_BrowserFont_Singleton_API"* (%"class.ppapi::Resource"*)* @_ZN5ppapi8Resource31AsPPB_BrowserFont_Singleton_APIEv to i8*), i8* bitcast (%"class.ppapi::thunk::PPB_BrowserFont_Trusted_API"* (%"class.ppapi::Resource"*)* @_ZN5ppapi8Resource29AsPPB_BrowserFont_Trusted_APIEv to i8*), i8* bitcast (%"class.ppapi::thunk::PPB_Buffer_API"* (%"class.ppapi::Resource"*)* @_ZN5ppapi8Resource16AsPPB_Buffer_APIEv to i8*), i8* bitcast (%"class.ppapi::thunk::PPB_CameraCapabilities_API"* (%"class.ppapi::Resource"*)* @_ZN5ppapi8Resource28AsPPB_CameraCapabilities_APIEv to i8*), i8* bitcast (%"class.ppapi::thunk::PPB_CameraDevice_API"* (%"class.ppapi::Resource"*)* @_ZN5ppapi8Resource22AsPPB_CameraDevice_APIEv to i8*), i8* bitcast (%"class.ppapi::thunk::PPB_DeviceRef_API"* (%"class.ppapi::Resource"*)* @_ZN5ppapi8Resource19AsPPB_DeviceRef_APIEv to i8*), i8* bitcast (%"class.ppapi::thunk::PPB_Ext_CrxFileSystem_Private_API"* (%"class.ppapi::Resource"*)* @_ZN5ppapi8Resource35AsPPB_Ext_CrxFileSystem_Private_APIEv to i8*), i8* bitcast (%"class.ppapi::thunk::PPB_FileChooser_API"* (%"class.ppapi::Resource"*)* @_ZN5ppapi8Resource21AsPPB_FileChooser_APIEv to i8*), i8* bitcast (%"class.ppapi::thunk::PPB_FileIO_API"* (%"class.ppapi::Resource"*)* @_ZN5ppapi8Resource16AsPPB_FileIO_APIEv to i8*), i8* bitcast (%"class.ppapi::thunk::PPB_FileRef_API"* (%"class.ppapi::Resource"*)* @_ZN5ppapi8Resource17AsPPB_FileRef_APIEv to i8*), i8* bitcast (%"class.ppapi::thunk::PPB_FileSystem_API"* (%"class.ppapi::Resource"*)* @_ZN5ppapi8Resource20AsPPB_FileSystem_APIEv to i8*), i8* bitcast (%"class.ppapi::thunk::PPB_Find_API"* (%"class.ppapi::Resource"*)* @_ZN5ppapi8Resource14AsPPB_Find_APIEv to i8*), i8* bitcast (%"class.ppapi::thunk::PPB_Flash_FontFile_API"* (%"class.ppapi::Resource"*)* @_ZN5ppapi8Resource24AsPPB_Flash_FontFile_APIEv to i8*), i8* bitcast (%"class.ppapi::thunk::PPB_Flash_Fullscreen_API"* (%"class.ppapi::Resource"*)* @_ZN5ppapi8Resource26AsPPB_Flash_Fullscreen_APIEv to i8*), i8* bitcast (%"class.ppapi::thunk::PPB_Gamepad_API"* (%"class.ppapi::Resource"*)* @_ZN5ppapi8Resource17AsPPB_Gamepad_APIEv to i8*), i8* bitcast (%"class.ppapi::thunk::PPB_Graphics2D_API"* (%"class.ppapi::Resource"*)* @_ZN5ppapi8Resource20AsPPB_Graphics2D_APIEv to i8*), i8* bitcast (%"class.ppapi::thunk::PPB_Graphics3D_API"* (%"class.ppapi::PPB_Graphics3D_Shared"*)* @_ZN5ppapi21PPB_Graphics3D_Shared20AsPPB_Graphics3D_APIEv to i8*), i8* bitcast (%"class.ppapi::thunk::PPB_HostResolver_API"* (%"class.ppapi::Resource"*)* @_ZN5ppapi8Resource22AsPPB_HostResolver_APIEv to i8*), i8* bitcast (%"class.ppapi::thunk::PPB_HostResolver_Private_API"* (%"class.ppapi::Resource"*)* @_ZN5ppapi8Resource30AsPPB_HostResolver_Private_APIEv to i8*), i8* bitcast (%"class.ppapi::thunk::PPB_ImageData_API"* (%"class.ppapi::Resource"*)* @_ZN5ppapi8Resource19AsPPB_ImageData_APIEv to i8*), i8* bitcast (%"class.ppapi::thunk::PPB_InputEvent_API"* (%"class.ppapi::Resource"*)* @_ZN5ppapi8Resource20AsPPB_InputEvent_APIEv to i8*), i8* bitcast (%"class.ppapi::thunk::PPB_IsolatedFileSystem_Private_API"* (%"class.ppapi::Resource"*)* @_ZN5ppapi8Resource36AsPPB_IsolatedFileSystem_Private_APIEv to i8*), i8* bitcast (%"class.ppapi::thunk::PPB_MediaStreamAudioTrack_API"* (%"class.ppapi::Resource"*)* @_ZN5ppapi8Resource31AsPPB_MediaStreamAudioTrack_APIEv to i8*), i8* bitcast (%"class.ppapi::thunk::PPB_MediaStreamVideoTrack_API"* (%"class.ppapi::Resource"*)* @_ZN5ppapi8Resource31AsPPB_MediaStreamVideoTrack_APIEv to i8*), i8* bitcast (%"class.ppapi::thunk::PPB_MessageLoop_API"* (%"class.ppapi::Resource"*)* @_ZN5ppapi8Resource21AsPPB_MessageLoop_APIEv to i8*), i8* bitcast (%"class.ppapi::thunk::PPB_NetAddress_API"* (%"class.ppapi::Resource"*)* @_ZN5ppapi8Resource20AsPPB_NetAddress_APIEv to i8*), i8* bitcast (%"class.ppapi::thunk::PPB_NetworkList_API"* (%"class.ppapi::Resource"*)* @_ZN5ppapi8Resource21AsPPB_NetworkList_APIEv to i8*), i8* bitcast (%"class.ppapi::thunk::PPB_NetworkMonitor_API"* (%"class.ppapi::Resource"*)* @_ZN5ppapi8Resource24AsPPB_NetworkMonitor_APIEv to i8*), i8* bitcast (%"class.ppapi::thunk::PPB_NetworkProxy_API"* (%"class.ppapi::Resource"*)* @_ZN5ppapi8Resource22AsPPB_NetworkProxy_APIEv to i8*), i8* bitcast (%"class.ppapi::thunk::PPB_PDF_API"* (%"class.ppapi::Resource"*)* @_ZN5ppapi8Resource13AsPPB_PDF_APIEv to i8*), i8* bitcast (%"class.ppapi::thunk::PPB_Printing_API"* (%"class.ppapi::Resource"*)* @_ZN5ppapi8Resource18AsPPB_Printing_APIEv to i8*), i8* bitcast (%"class.ppapi::thunk::PPB_Scrollbar_API"* (%"class.ppapi::Resource"*)* @_ZN5ppapi8Resource19AsPPB_Scrollbar_APIEv to i8*), i8* bitcast (%"class.ppapi::thunk::PPB_TCPServerSocket_Private_API"* (%"class.ppapi::Resource"*)* @_ZN5ppapi8Resource33AsPPB_TCPServerSocket_Private_APIEv to i8*), i8* bitcast (%"class.ppapi::thunk::PPB_TCPSocket_API"* (%"class.ppapi::Resource"*)* @_ZN5ppapi8Resource19AsPPB_TCPSocket_APIEv to i8*), i8* bitcast (%"class.ppapi::thunk::PPB_TCPSocket_Private_API"* (%"class.ppapi::Resource"*)* @_ZN5ppapi8Resource27AsPPB_TCPSocket_Private_APIEv to i8*), i8* bitcast (%"class.ppapi::thunk::PPB_UDPSocket_API"* (%"class.ppapi::Resource"*)* @_ZN5ppapi8Resource19AsPPB_UDPSocket_APIEv to i8*), i8* bitcast (%"class.ppapi::thunk::PPB_UDPSocket_Private_API"* (%"class.ppapi::Resource"*)* @_ZN5ppapi8Resource27AsPPB_UDPSocket_Private_APIEv to i8*), i8* bitcast (%"class.ppapi::thunk::PPB_UMA_Singleton_API"* (%"class.ppapi::Resource"*)* @_ZN5ppapi8Resource23AsPPB_UMA_Singleton_APIEv to i8*), i8* bitcast (%"class.ppapi::thunk::PPB_URLLoader_API"* (%"class.ppapi::Resource"*)* @_ZN5ppapi8Resource19AsPPB_URLLoader_APIEv to i8*), i8* bitcast (%"class.ppapi::thunk::PPB_URLRequestInfo_API"* (%"class.ppapi::Resource"*)* @_ZN5ppapi8Resource24AsPPB_URLRequestInfo_APIEv to i8*), i8* bitcast (%"class.ppapi::thunk::PPB_URLResponseInfo_API"* (%"class.ppapi::Resource"*)* @_ZN5ppapi8Resource25AsPPB_URLResponseInfo_APIEv to i8*), i8* bitcast (%"class.ppapi::thunk::PPB_VideoCapture_API"* (%"class.ppapi::Resource"*)* @_ZN5ppapi8Resource22AsPPB_VideoCapture_APIEv to i8*), i8* bitcast (%"class.ppapi::thunk::PPB_VideoDecoder_API"* (%"class.ppapi::Resource"*)* @_ZN5ppapi8Resource22AsPPB_VideoDecoder_APIEv to i8*), i8* bitcast (%"class.ppapi::thunk::PPB_VideoDecoder_Dev_API"* (%"class.ppapi::Resource"*)* @_ZN5ppapi8Resource26AsPPB_VideoDecoder_Dev_APIEv to i8*), i8* bitcast (%"class.ppapi::thunk::PPB_VideoEncoder_API"* (%"class.ppapi::Resource"*)* @_ZN5ppapi8Resource22AsPPB_VideoEncoder_APIEv to i8*), i8* bitcast (%"class.ppapi::thunk::PPB_VideoFrame_API"* (%"class.ppapi::Resource"*)* @_ZN5ppapi8Resource20AsPPB_VideoFrame_APIEv to i8*), i8* bitcast (%"class.ppapi::thunk::PPB_VideoLayer_API"* (%"class.ppapi::Resource"*)* @_ZN5ppapi8Resource20AsPPB_VideoLayer_APIEv to i8*), i8* bitcast (%"class.ppapi::thunk::PPB_View_API"* (%"class.ppapi::Resource"*)* @_ZN5ppapi8Resource14AsPPB_View_APIEv to i8*), i8* bitcast (%"class.ppapi::thunk::PPB_VpnProvider_API"* (%"class.ppapi::Resource"*)* @_ZN5ppapi8Resource21AsPPB_VpnProvider_APIEv to i8*), i8* bitcast (%"class.ppapi::thunk::PPB_WebSocket_API"* (%"class.ppapi::Resource"*)* @_ZN5ppapi8Resource19AsPPB_WebSocket_APIEv to i8*), i8* bitcast (%"class.ppapi::thunk::PPB_Widget_API"* (%"class.ppapi::Resource"*)* @_ZN5ppapi8Resource16AsPPB_Widget_APIEv to i8*), i8* bitcast (%"class.ppapi::thunk::PPB_X509Certificate_Private_API"* (%"class.ppapi::Resource"*)* @_ZN5ppapi8Resource33AsPPB_X509Certificate_Private_APIEv to i8*), i8* bitcast (void (%"class.ppapi::Resource"*, %"class.ppapi::proxy::ResourceMessageReplyParams"*, %"class.IPC::Message"*)* @_ZN5ppapi8Resource15OnReplyReceivedERKNS_5proxy26ResourceMessageReplyParamsERKN3IPC7MessageE to i8*), i8* bitcast (void (%"class.ppapi::Resource"*)* @_ZN5ppapi8Resource23LastPluginRefWasDeletedEv to i8*), i8* bitcast (void (%"class.ppapi::Resource"*)* @_ZN5ppapi8Resource18InstanceWasDeletedEv to i8*), i8* bitcast (i32 (%"class.ppapi::PPB_Graphics3D_Shared"*, i32*)* @_ZN5ppapi21PPB_Graphics3D_Shared10GetAttribsEPi to i8*), i8* bitcast (i32 (%"class.ppapi::PPB_Graphics3D_Shared"*, i32*)* @_ZN5ppapi21PPB_Graphics3D_Shared10SetAttribsEPKi to i8*), i8* bitcast (i32 (%"class.ppapi::PPB_Graphics3D_Shared"*)* @_ZN5ppapi21PPB_Graphics3D_Shared8GetErrorEv to i8*), i8* bitcast (i32 (%"class.ppapi::PPB_Graphics3D_Shared"*, i32, i32)* @_ZN5ppapi21PPB_Graphics3D_Shared13ResizeBuffersEii to i8*), i8* bitcast (i32 (%"class.ppapi::PPB_Graphics3D_Shared"*, %"class.ppapi::TrackedCallback"*)* @_ZN5ppapi21PPB_Graphics3D_Shared11SwapBuffersE13scoped_refptrINS_15TrackedCallbackEE to i8*), i8* bitcast (i32 (%"class.ppapi::PPB_Graphics3D_Shared"*, %"class.ppapi::TrackedCallback"*, %"struct.gpu::SyncToken"*, %"class.gfx::Size"*)* @_ZN5ppapi21PPB_Graphics3D_Shared24SwapBuffersWithSyncTokenE13scoped_refptrINS_15TrackedCallbackEERKN3gpu9SyncTokenERKN3gfx4SizeE to i8*), i8* bitcast (i32 (%"class.ppapi::PPB_Graphics3D_Shared"*, i32, i32*)* @_ZN5ppapi21PPB_Graphics3D_Shared17GetAttribMaxValueEiPi to i8*), i8* bitcast (i8* (%"class.ppapi::PPB_Graphics3D_Shared"*, i32, i32, i32, i32, i32, i32, i32, i32, i32)* @_ZN5ppapi21PPB_Graphics3D_Shared24MapTexSubImage2DCHROMIUMEjiiiiijjj to i8*), i8* bitcast (void (%"class.ppapi::PPB_Graphics3D_Shared"*, i8*)* @_ZN5ppapi21PPB_Graphics3D_Shared26UnmapTexSubImage2DCHROMIUMEPKv to i8*), i8* bitcast (void ()* @__cxa_pure_virtual to i8*), i8* bitcast (void ()* @__cxa_pure_virtual to i8*), i8* bitcast (void ()* @__cxa_pure_virtual to i8*)], [21 x i8*] [i8* inttoptr (i64 -24 to i8*), i8* null, i8* bitcast (void (%"class.ppapi::PPB_Graphics3D_Shared"*)* @_ZThn24_N5ppapi21PPB_Graphics3D_SharedD1Ev to i8*), i8* bitcast (void (%"class.ppapi::PPB_Graphics3D_Shared"*)* @_ZThn24_N5ppapi21PPB_Graphics3D_SharedD0Ev to i8*), i8* bitcast (i32 (%"class.ppapi::PPB_Graphics3D_Shared"*, i32*)* @_ZThn24_N5ppapi21PPB_Graphics3D_Shared10GetAttribsEPi to i8*), i8* bitcast (i32 (%"class.ppapi::PPB_Graphics3D_Shared"*, i32*)* @_ZThn24_N5ppapi21PPB_Graphics3D_Shared10SetAttribsEPKi to i8*), i8* bitcast (i32 (%"class.ppapi::PPB_Graphics3D_Shared"*)* @_ZThn24_N5ppapi21PPB_Graphics3D_Shared8GetErrorEv to i8*), i8* bitcast (i32 (%"class.ppapi::PPB_Graphics3D_Shared"*, i32, i32)* @_ZThn24_N5ppapi21PPB_Graphics3D_Shared13ResizeBuffersEii to i8*), i8* bitcast (i32 (%"class.ppapi::PPB_Graphics3D_Shared"*, %"class.ppapi::TrackedCallback"*)* @_ZThn24_N5ppapi21PPB_Graphics3D_Shared11SwapBuffersE13scoped_refptrINS_15TrackedCallbackEE to i8*), i8* bitcast (i32 (%"class.ppapi::PPB_Graphics3D_Shared"*, %"class.ppapi::TrackedCallback"*, %"struct.gpu::SyncToken"*, %"class.gfx::Size"*)* @_ZThn24_N5ppapi21PPB_Graphics3D_Shared24SwapBuffersWithSyncTokenE13scoped_refptrINS_15TrackedCallbackEERKN3gpu9SyncTokenERKN3gfx4SizeE to i8*), i8* bitcast (i32 (%"class.ppapi::PPB_Graphics3D_Shared"*, i32, i32*)* @_ZThn24_N5ppapi21PPB_Graphics3D_Shared17GetAttribMaxValueEiPi to i8*), i8* bitcast (void ()* @__cxa_pure_virtual to i8*), i8* bitcast (void ()* @__cxa_pure_virtual to i8*), i8* bitcast (void ()* @__cxa_pure_virtual to i8*), i8* bitcast (void ()* @__cxa_pure_virtual to i8*), i8* bitcast (void ()* @__cxa_pure_virtual to i8*), i8* bitcast (void ()* @__cxa_pure_virtual to i8*), i8* bitcast (i8* (%"class.ppapi::PPB_Graphics3D_Shared"*, i32, i32, i32, i32, i32, i32, i32, i32, i32)* @_ZThn24_N5ppapi21PPB_Graphics3D_Shared24MapTexSubImage2DCHROMIUMEjiiiiijjj to i8*), i8* bitcast (void (%"class.ppapi::PPB_Graphics3D_Shared"*, i8*)* @_ZThn24_N5ppapi21PPB_Graphics3D_Shared26UnmapTexSubImage2DCHROMIUMEPKv to i8*), i8* bitcast (void ()* @__cxa_pure_virtual to i8*), i8* bitcast (void ()* @__cxa_pure_virtual to i8*)] }, align 8
@.str = private unnamed_addr constant [84 x i8] c"PPB_Graphics3D.SwapBuffers: Plugin attempted swap with previous swap still pending.\00", align 1
@.str.1 = private unnamed_addr constant [13 x i8] c"gpu_toplevel\00", align 1
@.str.2 = private unnamed_addr constant [13 x i8] c"PPAPIContext\00", align 1

@_ZN5ppapi21PPB_Graphics3D_SharedD1Ev = hidden unnamed_addr alias void (%"class.ppapi::PPB_Graphics3D_Shared"*), void (%"class.ppapi::PPB_Graphics3D_Shared"*)* @_ZN5ppapi21PPB_Graphics3D_SharedD2Ev

; Function Attrs: nounwind ssp uwtable
define hidden void @_ZN5ppapi21PPB_Graphics3D_SharedC2Ei(%"class.ppapi::PPB_Graphics3D_Shared"*, i32) unnamed_addr #0 align 2 {
  %3 = getelementptr inbounds %"class.ppapi::PPB_Graphics3D_Shared", %"class.ppapi::PPB_Graphics3D_Shared"* %0, i64 0, i32 0
  tail call void @_ZN5ppapi8ResourceC2ENS_18ResourceObjectTypeEi(%"class.ppapi::Resource"* %3, i32 0, i32 %1) #11
  %4 = getelementptr inbounds %"class.ppapi::PPB_Graphics3D_Shared", %"class.ppapi::PPB_Graphics3D_Shared"* %0, i64 0, i32 1, i32 0
  %5 = getelementptr inbounds %"class.ppapi::PPB_Graphics3D_Shared", %"class.ppapi::PPB_Graphics3D_Shared"* %0, i64 0, i32 0, i32 0
  store i32 (...)** bitcast (i8** getelementptr inbounds ({ [79 x i8*], [21 x i8*] }, { [79 x i8*], [21 x i8*] }* @_ZTVN5ppapi21PPB_Graphics3D_SharedE, i64 0, inrange i32 0, i64 2) to i32 (...)**), i32 (...)*** %5, align 8
  store i32 (...)** bitcast (i8** getelementptr inbounds ({ [79 x i8*], [21 x i8*] }, { [79 x i8*], [21 x i8*] }* @_ZTVN5ppapi21PPB_Graphics3D_SharedE, i64 0, inrange i32 1, i64 2) to i32 (...)**), i32 (...)*** %4, align 8
  %6 = getelementptr inbounds %"class.ppapi::PPB_Graphics3D_Shared", %"class.ppapi::PPB_Graphics3D_Shared"* %0, i64 0, i32 2
  %7 = bitcast %"class.std::__1::unique_ptr"* %6 to i8*
  call void @llvm.memset.p0i8.i64(i8* align 8 %7, i8 0, i64 40, i1 false)
  ret void
}

declare void @_ZN5ppapi8ResourceC2ENS_18ResourceObjectTypeEi(%"class.ppapi::Resource"*, i32, i32) unnamed_addr #1

; Function Attrs: nounwind ssp uwtable
define hidden void @_ZN5ppapi21PPB_Graphics3D_SharedC2ERKNS_12HostResourceERKN3gfx4SizeE(%"class.ppapi::PPB_Graphics3D_Shared"*, %"class.ppapi::HostResource"* dereferenceable(8), %"class.gfx::Size"* nocapture readonly dereferenceable(8)) unnamed_addr #0 align 2 {
  %4 = getelementptr inbounds %"class.ppapi::PPB_Graphics3D_Shared", %"class.ppapi::PPB_Graphics3D_Shared"* %0, i64 0, i32 0
  tail call void @_ZN5ppapi8ResourceC2ENS_18ResourceObjectTypeERKNS_12HostResourceE(%"class.ppapi::Resource"* %4, i32 1, %"class.ppapi::HostResource"* dereferenceable(8) %1) #11
  %5 = getelementptr inbounds %"class.ppapi::PPB_Graphics3D_Shared", %"class.ppapi::PPB_Graphics3D_Shared"* %0, i64 0, i32 1, i32 0
  %6 = getelementptr inbounds %"class.ppapi::PPB_Graphics3D_Shared", %"class.ppapi::PPB_Graphics3D_Shared"* %0, i64 0, i32 0, i32 0
  store i32 (...)** bitcast (i8** getelementptr inbounds ({ [79 x i8*], [21 x i8*] }, { [79 x i8*], [21 x i8*] }* @_ZTVN5ppapi21PPB_Graphics3D_SharedE, i64 0, inrange i32 0, i64 2) to i32 (...)**), i32 (...)*** %6, align 8
  store i32 (...)** bitcast (i8** getelementptr inbounds ({ [79 x i8*], [21 x i8*] }, { [79 x i8*], [21 x i8*] }* @_ZTVN5ppapi21PPB_Graphics3D_SharedE, i64 0, inrange i32 1, i64 2) to i32 (...)**), i32 (...)*** %5, align 8
  %7 = getelementptr inbounds %"class.ppapi::PPB_Graphics3D_Shared", %"class.ppapi::PPB_Graphics3D_Shared"* %0, i64 0, i32 2
  %8 = getelementptr inbounds %"class.ppapi::PPB_Graphics3D_Shared", %"class.ppapi::PPB_Graphics3D_Shared"* %0, i64 0, i32 5
  %9 = bitcast %"class.gfx::Size"* %2 to i64*
  %10 = bitcast %"class.gfx::Size"* %8 to i64*
  %11 = bitcast %"class.std::__1::unique_ptr"* %7 to i8*
  call void @llvm.memset.p0i8.i64(i8* align 8 %11, i8 0, i64 24, i1 false)
  %12 = load i64, i64* %9, align 4
  store i64 %12, i64* %10, align 8
  %13 = getelementptr inbounds %"class.ppapi::PPB_Graphics3D_Shared", %"class.ppapi::PPB_Graphics3D_Shared"* %0, i64 0, i32 6, i32 0
  store %"class.ppapi::TrackedCallback"* null, %"class.ppapi::TrackedCallback"** %13, align 8
  ret void
}

declare void @_ZN5ppapi8ResourceC2ENS_18ResourceObjectTypeERKNS_12HostResourceE(%"class.ppapi::Resource"*, i32, %"class.ppapi::HostResource"* dereferenceable(8)) unnamed_addr #1

; Function Attrs: argmemonly nounwind
declare void @llvm.memcpy.p0i8.p0i8.i64(i8* nocapture writeonly, i8* nocapture readonly, i64, i1 immarg) #2

; Function Attrs: nounwind ssp uwtable
define hidden void @_ZN5ppapi21PPB_Graphics3D_SharedD2Ev(%"class.ppapi::PPB_Graphics3D_Shared"*) unnamed_addr #0 align 2 {
  %2 = getelementptr inbounds %"class.ppapi::PPB_Graphics3D_Shared", %"class.ppapi::PPB_Graphics3D_Shared"* %0, i64 0, i32 0, i32 0
  store i32 (...)** bitcast (i8** getelementptr inbounds ({ [79 x i8*], [21 x i8*] }, { [79 x i8*], [21 x i8*] }* @_ZTVN5ppapi21PPB_Graphics3D_SharedE, i64 0, inrange i32 0, i64 2) to i32 (...)**), i32 (...)*** %2, align 8
  %3 = getelementptr inbounds %"class.ppapi::PPB_Graphics3D_Shared", %"class.ppapi::PPB_Graphics3D_Shared"* %0, i64 0, i32 1, i32 0
  store i32 (...)** bitcast (i8** getelementptr inbounds ({ [79 x i8*], [21 x i8*] }, { [79 x i8*], [21 x i8*] }* @_ZTVN5ppapi21PPB_Graphics3D_SharedE, i64 0, inrange i32 1, i64 2) to i32 (...)**), i32 (...)*** %3, align 8
  %4 = getelementptr inbounds %"class.ppapi::PPB_Graphics3D_Shared", %"class.ppapi::PPB_Graphics3D_Shared"* %0, i64 0, i32 6, i32 0
  %5 = load %"class.ppapi::TrackedCallback"*, %"class.ppapi::TrackedCallback"** %4, align 8
  %6 = icmp eq %"class.ppapi::TrackedCallback"* %5, null
  br i1 %6, label %13, label %7

7:                                                ; preds = %1
  %8 = getelementptr inbounds %"class.ppapi::TrackedCallback", %"class.ppapi::TrackedCallback"* %5, i64 0, i32 0, i32 0, i32 0, i32 0, i32 0, i32 0, i32 0, i32 0, i32 0
  %9 = atomicrmw sub i32* %8, i32 1 acq_rel
  %10 = icmp eq i32 %9, 1
  br i1 %10, label %11, label %13

11:                                               ; preds = %7
  tail call void @_ZN5ppapi15TrackedCallbackD1Ev(%"class.ppapi::TrackedCallback"* nonnull %5) #11
  %12 = bitcast %"class.ppapi::TrackedCallback"* %5 to i8*
  tail call void @_ZdlPv(i8* %12) #12
  br label %13

13:                                               ; preds = %1, %7, %11
  %14 = getelementptr inbounds %"class.ppapi::PPB_Graphics3D_Shared", %"class.ppapi::PPB_Graphics3D_Shared"* %0, i64 0, i32 4, i32 0, i32 0, i32 0
  %15 = load %"class.gpu::gles2::GLES2Implementation"*, %"class.gpu::gles2::GLES2Implementation"** %14, align 8
  store %"class.gpu::gles2::GLES2Implementation"* null, %"class.gpu::gles2::GLES2Implementation"** %14, align 8
  %16 = icmp eq %"class.gpu::gles2::GLES2Implementation"* %15, null
  br i1 %16, label %22, label %17

17:                                               ; preds = %13
  %18 = bitcast %"class.gpu::gles2::GLES2Implementation"* %15 to void (%"class.gpu::gles2::GLES2Implementation"*)***
  %19 = load void (%"class.gpu::gles2::GLES2Implementation"*)**, void (%"class.gpu::gles2::GLES2Implementation"*)*** %18, align 8
  %20 = getelementptr inbounds void (%"class.gpu::gles2::GLES2Implementation"*)*, void (%"class.gpu::gles2::GLES2Implementation"*)** %19, i64 6
  %21 = load void (%"class.gpu::gles2::GLES2Implementation"*)*, void (%"class.gpu::gles2::GLES2Implementation"*)** %20, align 8
  tail call void %21(%"class.gpu::gles2::GLES2Implementation"* nonnull %15) #11
  br label %22

22:                                               ; preds = %13, %17
  %23 = getelementptr inbounds %"class.ppapi::PPB_Graphics3D_Shared", %"class.ppapi::PPB_Graphics3D_Shared"* %0, i64 0, i32 3, i32 0, i32 0, i32 0
  %24 = load %"class.gpu::TransferBuffer"*, %"class.gpu::TransferBuffer"** %23, align 8
  store %"class.gpu::TransferBuffer"* null, %"class.gpu::TransferBuffer"** %23, align 8
  %25 = icmp eq %"class.gpu::TransferBuffer"* %24, null
  br i1 %25, label %31, label %26

26:                                               ; preds = %22
  %27 = bitcast %"class.gpu::TransferBuffer"* %24 to void (%"class.gpu::TransferBuffer"*)***
  %28 = load void (%"class.gpu::TransferBuffer"*)**, void (%"class.gpu::TransferBuffer"*)*** %27, align 8
  %29 = getelementptr inbounds void (%"class.gpu::TransferBuffer"*)*, void (%"class.gpu::TransferBuffer"*)** %28, i64 1
  %30 = load void (%"class.gpu::TransferBuffer"*)*, void (%"class.gpu::TransferBuffer"*)** %29, align 8
  tail call void %30(%"class.gpu::TransferBuffer"* nonnull %24) #11
  br label %31

31:                                               ; preds = %22, %26
  %32 = getelementptr inbounds %"class.ppapi::PPB_Graphics3D_Shared", %"class.ppapi::PPB_Graphics3D_Shared"* %0, i64 0, i32 2, i32 0, i32 0, i32 0
  %33 = load %"class.gpu::gles2::GLES2CmdHelper"*, %"class.gpu::gles2::GLES2CmdHelper"** %32, align 8
  store %"class.gpu::gles2::GLES2CmdHelper"* null, %"class.gpu::gles2::GLES2CmdHelper"** %32, align 8
  %34 = icmp eq %"class.gpu::gles2::GLES2CmdHelper"* %33, null
  br i1 %34, label %40, label %35

35:                                               ; preds = %31
  %36 = bitcast %"class.gpu::gles2::GLES2CmdHelper"* %33 to void (%"class.gpu::gles2::GLES2CmdHelper"*)***
  %37 = load void (%"class.gpu::gles2::GLES2CmdHelper"*)**, void (%"class.gpu::gles2::GLES2CmdHelper"*)*** %36, align 8
  %38 = getelementptr inbounds void (%"class.gpu::gles2::GLES2CmdHelper"*)*, void (%"class.gpu::gles2::GLES2CmdHelper"*)** %37, i64 1
  %39 = load void (%"class.gpu::gles2::GLES2CmdHelper"*)*, void (%"class.gpu::gles2::GLES2CmdHelper"*)** %38, align 8
  tail call void %39(%"class.gpu::gles2::GLES2CmdHelper"* nonnull %33) #11
  br label %40

40:                                               ; preds = %31, %35
  %41 = getelementptr inbounds %"class.ppapi::PPB_Graphics3D_Shared", %"class.ppapi::PPB_Graphics3D_Shared"* %0, i64 0, i32 0
  tail call void @_ZN5ppapi8ResourceD2Ev(%"class.ppapi::Resource"* %41) #11
  ret void
}

; Function Attrs: nounwind
declare void @_ZN5ppapi8ResourceD2Ev(%"class.ppapi::Resource"*) unnamed_addr #3

; Function Attrs: nounwind ssp uwtable
define hidden void @_ZThn24_N5ppapi21PPB_Graphics3D_SharedD1Ev(%"class.ppapi::PPB_Graphics3D_Shared"*) unnamed_addr #0 align 2 {
  %2 = getelementptr inbounds %"class.ppapi::PPB_Graphics3D_Shared", %"class.ppapi::PPB_Graphics3D_Shared"* %0, i64 -1, i32 4
  %3 = bitcast %"class.std::__1::unique_ptr.23"* %2 to %"class.ppapi::PPB_Graphics3D_Shared"*
  tail call void @_ZN5ppapi21PPB_Graphics3D_SharedD2Ev(%"class.ppapi::PPB_Graphics3D_Shared"* %3) #11
  ret void
}

; Function Attrs: noreturn nounwind ssp uwtable
define hidden void @_ZN5ppapi21PPB_Graphics3D_SharedD0Ev(%"class.ppapi::PPB_Graphics3D_Shared"* nocapture readnone) unnamed_addr #4 align 2 {
  tail call void @llvm.trap() #13
  unreachable
}

; Function Attrs: cold noreturn nounwind
declare void @llvm.trap() #5

; Function Attrs: noreturn nounwind ssp uwtable
define hidden void @_ZThn24_N5ppapi21PPB_Graphics3D_SharedD0Ev(%"class.ppapi::PPB_Graphics3D_Shared"* nocapture readnone) unnamed_addr #4 align 2 {
  tail call void @llvm.trap() #13
  unreachable
}

; Function Attrs: norecurse nounwind readnone ssp uwtable
define hidden %"class.ppapi::thunk::PPB_Graphics3D_API"* @_ZN5ppapi21PPB_Graphics3D_Shared20AsPPB_Graphics3D_APIEv(%"class.ppapi::PPB_Graphics3D_Shared"* readnone) unnamed_addr #6 align 2 {
  %2 = getelementptr inbounds %"class.ppapi::PPB_Graphics3D_Shared", %"class.ppapi::PPB_Graphics3D_Shared"* %0, i64 0, i32 1
  ret %"class.ppapi::thunk::PPB_Graphics3D_API"* %2
}

; Function Attrs: norecurse nounwind readnone ssp uwtable
define hidden i32 @_ZN5ppapi21PPB_Graphics3D_Shared10GetAttribsEPi(%"class.ppapi::PPB_Graphics3D_Shared"* nocapture readnone, i32* nocapture readnone) unnamed_addr #6 align 2 {
  ret i32 -2
}

; Function Attrs: norecurse nounwind readnone ssp uwtable
define hidden i32 @_ZThn24_N5ppapi21PPB_Graphics3D_Shared10GetAttribsEPi(%"class.ppapi::PPB_Graphics3D_Shared"* nocapture readnone, i32* nocapture readnone) unnamed_addr #6 align 2 {
  ret i32 -2
}

; Function Attrs: norecurse nounwind readnone ssp uwtable
define hidden i32 @_ZN5ppapi21PPB_Graphics3D_Shared10SetAttribsEPKi(%"class.ppapi::PPB_Graphics3D_Shared"* nocapture readnone, i32* nocapture readnone) unnamed_addr #6 align 2 {
  ret i32 -2
}

; Function Attrs: norecurse nounwind readnone ssp uwtable
define hidden i32 @_ZThn24_N5ppapi21PPB_Graphics3D_Shared10SetAttribsEPKi(%"class.ppapi::PPB_Graphics3D_Shared"* nocapture readnone, i32* nocapture readnone) unnamed_addr #6 align 2 {
  ret i32 -2
}

; Function Attrs: norecurse nounwind readnone ssp uwtable
define hidden i32 @_ZN5ppapi21PPB_Graphics3D_Shared8GetErrorEv(%"class.ppapi::PPB_Graphics3D_Shared"* nocapture readnone) unnamed_addr #6 align 2 {
  ret i32 -2
}

; Function Attrs: norecurse nounwind readnone ssp uwtable
define hidden i32 @_ZThn24_N5ppapi21PPB_Graphics3D_Shared8GetErrorEv(%"class.ppapi::PPB_Graphics3D_Shared"* nocapture readnone) unnamed_addr #6 align 2 {
  ret i32 -2
}

; Function Attrs: nounwind ssp uwtable
define hidden i32 @_ZN5ppapi21PPB_Graphics3D_Shared13ResizeBuffersEii(%"class.ppapi::PPB_Graphics3D_Shared"* nocapture, i32, i32) unnamed_addr #0 align 2 {
  %4 = or i32 %2, %1
  %5 = icmp slt i32 %4, 0
  br i1 %5, label %23, label %6

6:                                                ; preds = %3
  %7 = getelementptr inbounds %"class.ppapi::PPB_Graphics3D_Shared", %"class.ppapi::PPB_Graphics3D_Shared"* %0, i64 0, i32 4, i32 0, i32 0, i32 0
  %8 = load %"class.gpu::gles2::GLES2Implementation"*, %"class.gpu::gles2::GLES2Implementation"** %7, align 8
  %9 = bitcast %"class.gpu::gles2::GLES2Implementation"* %8 to void (%"class.gpu::gles2::GLES2Implementation"*, i32, i32, float, %struct._GLcolorSpace*, i8)***
  %10 = load void (%"class.gpu::gles2::GLES2Implementation"*, i32, i32, float, %struct._GLcolorSpace*, i8)**, void (%"class.gpu::gles2::GLES2Implementation"*, i32, i32, float, %struct._GLcolorSpace*, i8)*** %9, align 8
  %11 = getelementptr inbounds void (%"class.gpu::gles2::GLES2Implementation"*, i32, i32, float, %struct._GLcolorSpace*, i8)*, void (%"class.gpu::gles2::GLES2Implementation"*, i32, i32, float, %struct._GLcolorSpace*, i8)** %10, i64 289
  %12 = load void (%"class.gpu::gles2::GLES2Implementation"*, i32, i32, float, %struct._GLcolorSpace*, i8)*, void (%"class.gpu::gles2::GLES2Implementation"*, i32, i32, float, %struct._GLcolorSpace*, i8)** %11, align 8
  tail call void %12(%"class.gpu::gles2::GLES2Implementation"* %8, i32 %1, i32 %2, float 1.000000e+00, %struct._GLcolorSpace* null, i8 zeroext 1) #11
  %13 = icmp sgt i32 %1, 0
  %14 = select i1 %13, i32 %1, i32 0
  %15 = icmp sgt i32 %2, 0
  %16 = select i1 %15, i32 %2, i32 0
  %17 = getelementptr inbounds %"class.ppapi::PPB_Graphics3D_Shared", %"class.ppapi::PPB_Graphics3D_Shared"* %0, i64 0, i32 5
  %18 = bitcast %"class.gfx::Size"* %17 to i64*
  %19 = zext i32 %16 to i64
  %20 = shl nuw nsw i64 %19, 32
  %21 = zext i32 %14 to i64
  %22 = or i64 %20, %21
  store i64 %22, i64* %18, align 8
  br label %23

23:                                               ; preds = %3, %6
  %24 = phi i32 [ 0, %6 ], [ -4, %3 ]
  ret i32 %24
}

; Function Attrs: argmemonly nounwind
declare void @llvm.lifetime.start.p0i8(i64 immarg, i8* nocapture) #2

; Function Attrs: argmemonly nounwind
declare void @llvm.lifetime.end.p0i8(i64 immarg, i8* nocapture) #2

; Function Attrs: nounwind ssp uwtable
define hidden i32 @_ZThn24_N5ppapi21PPB_Graphics3D_Shared13ResizeBuffersEii(%"class.ppapi::PPB_Graphics3D_Shared"* nocapture, i32, i32) unnamed_addr #0 align 2 {
  %4 = getelementptr inbounds %"class.ppapi::PPB_Graphics3D_Shared", %"class.ppapi::PPB_Graphics3D_Shared"* %0, i64 -1, i32 4
  %5 = or i32 %2, %1
  %6 = icmp slt i32 %5, 0
  br i1 %6, label %24, label %7

7:                                                ; preds = %3
  %8 = getelementptr inbounds %"class.std::__1::unique_ptr.23", %"class.std::__1::unique_ptr.23"* %4, i64 6, i32 0, i32 0, i32 0
  %9 = load %"class.gpu::gles2::GLES2Implementation"*, %"class.gpu::gles2::GLES2Implementation"** %8, align 8
  %10 = bitcast %"class.gpu::gles2::GLES2Implementation"* %9 to void (%"class.gpu::gles2::GLES2Implementation"*, i32, i32, float, %struct._GLcolorSpace*, i8)***
  %11 = load void (%"class.gpu::gles2::GLES2Implementation"*, i32, i32, float, %struct._GLcolorSpace*, i8)**, void (%"class.gpu::gles2::GLES2Implementation"*, i32, i32, float, %struct._GLcolorSpace*, i8)*** %10, align 8
  %12 = getelementptr inbounds void (%"class.gpu::gles2::GLES2Implementation"*, i32, i32, float, %struct._GLcolorSpace*, i8)*, void (%"class.gpu::gles2::GLES2Implementation"*, i32, i32, float, %struct._GLcolorSpace*, i8)** %11, i64 289
  %13 = load void (%"class.gpu::gles2::GLES2Implementation"*, i32, i32, float, %struct._GLcolorSpace*, i8)*, void (%"class.gpu::gles2::GLES2Implementation"*, i32, i32, float, %struct._GLcolorSpace*, i8)** %12, align 8
  tail call void %13(%"class.gpu::gles2::GLES2Implementation"* %9, i32 %1, i32 %2, float 1.000000e+00, %struct._GLcolorSpace* null, i8 zeroext 1) #11
  %14 = icmp sgt i32 %1, 0
  %15 = select i1 %14, i32 %1, i32 0
  %16 = icmp sgt i32 %2, 0
  %17 = select i1 %16, i32 %2, i32 0
  %18 = getelementptr inbounds %"class.std::__1::unique_ptr.23", %"class.std::__1::unique_ptr.23"* %4, i64 7
  %19 = bitcast %"class.std::__1::unique_ptr.23"* %18 to i64*
  %20 = zext i32 %17 to i64
  %21 = shl nuw nsw i64 %20, 32
  %22 = zext i32 %15 to i64
  %23 = or i64 %21, %22
  store i64 %23, i64* %19, align 8
  br label %24

24:                                               ; preds = %3, %7
  %25 = phi i32 [ 0, %7 ], [ -4, %3 ]
  ret i32 %25
}

; Function Attrs: nounwind ssp uwtable
define hidden i32 @_ZN5ppapi21PPB_Graphics3D_Shared11SwapBuffersE13scoped_refptrINS_15TrackedCallbackEE(%"class.ppapi::PPB_Graphics3D_Shared"*, %"class.ppapi::TrackedCallback"*) unnamed_addr #0 align 2 {
  %3 = alloca %"struct.gpu::SyncToken", align 8
  %4 = icmp eq %"class.ppapi::TrackedCallback"* %1, null
  br i1 %4, label %8, label %5

5:                                                ; preds = %2
  %6 = getelementptr inbounds %"class.ppapi::TrackedCallback", %"class.ppapi::TrackedCallback"* %1, i64 0, i32 0, i32 0, i32 0, i32 0, i32 0, i32 0, i32 0, i32 0, i32 0
  %7 = atomicrmw add i32* %6, i32 1 monotonic
  br label %8

8:                                                ; preds = %2, %5
  %9 = getelementptr inbounds %"struct.gpu::SyncToken", %"struct.gpu::SyncToken"* %3, i64 0, i32 0
  call void @llvm.lifetime.start.p0i8(i64 24, i8* nonnull %9) #11
  call void @_ZN3gpu9SyncTokenC1Ev(%"struct.gpu::SyncToken"* nonnull %3) #11
  %10 = getelementptr inbounds %"class.ppapi::PPB_Graphics3D_Shared", %"class.ppapi::PPB_Graphics3D_Shared"* %0, i64 0, i32 5
  %11 = bitcast %"class.ppapi::PPB_Graphics3D_Shared"* %0 to i32 (%"class.ppapi::PPB_Graphics3D_Shared"*, %"class.ppapi::TrackedCallback"*, %"struct.gpu::SyncToken"*, %"class.gfx::Size"*)***
  %12 = load i32 (%"class.ppapi::PPB_Graphics3D_Shared"*, %"class.ppapi::TrackedCallback"*, %"struct.gpu::SyncToken"*, %"class.gfx::Size"*)**, i32 (%"class.ppapi::PPB_Graphics3D_Shared"*, %"class.ppapi::TrackedCallback"*, %"struct.gpu::SyncToken"*, %"class.gfx::Size"*)*** %11, align 8
  %13 = getelementptr inbounds i32 (%"class.ppapi::PPB_Graphics3D_Shared"*, %"class.ppapi::TrackedCallback"*, %"struct.gpu::SyncToken"*, %"class.gfx::Size"*)*, i32 (%"class.ppapi::PPB_Graphics3D_Shared"*, %"class.ppapi::TrackedCallback"*, %"struct.gpu::SyncToken"*, %"class.gfx::Size"*)** %12, i64 70
  %14 = load i32 (%"class.ppapi::PPB_Graphics3D_Shared"*, %"class.ppapi::TrackedCallback"*, %"struct.gpu::SyncToken"*, %"class.gfx::Size"*)*, i32 (%"class.ppapi::PPB_Graphics3D_Shared"*, %"class.ppapi::TrackedCallback"*, %"struct.gpu::SyncToken"*, %"class.gfx::Size"*)** %13, align 8
  %15 = call i32 %14(%"class.ppapi::PPB_Graphics3D_Shared"* %0, %"class.ppapi::TrackedCallback"* %1, %"struct.gpu::SyncToken"* nonnull dereferenceable(24) %3, %"class.gfx::Size"* dereferenceable(8) %10) #11
  call void @llvm.lifetime.end.p0i8(i64 24, i8* nonnull %9) #11
  br i1 %4, label %22, label %16

16:                                               ; preds = %8
  %17 = getelementptr inbounds %"class.ppapi::TrackedCallback", %"class.ppapi::TrackedCallback"* %1, i64 0, i32 0, i32 0, i32 0, i32 0, i32 0, i32 0, i32 0, i32 0, i32 0
  %18 = atomicrmw sub i32* %17, i32 1 acq_rel
  %19 = icmp eq i32 %18, 1
  br i1 %19, label %20, label %22

20:                                               ; preds = %16
  call void @_ZN5ppapi15TrackedCallbackD1Ev(%"class.ppapi::TrackedCallback"* nonnull %1) #11
  %21 = bitcast %"class.ppapi::TrackedCallback"* %1 to i8*
  call void @_ZdlPv(i8* %21) #12
  br label %22

22:                                               ; preds = %8, %16, %20
  ret i32 %15
}

declare void @_ZN3gpu9SyncTokenC1Ev(%"struct.gpu::SyncToken"*) unnamed_addr #1

; Function Attrs: nounwind ssp uwtable
define hidden i32 @_ZThn24_N5ppapi21PPB_Graphics3D_Shared11SwapBuffersE13scoped_refptrINS_15TrackedCallbackEE(%"class.ppapi::PPB_Graphics3D_Shared"*, %"class.ppapi::TrackedCallback"*) unnamed_addr #0 align 2 {
  %3 = alloca %"struct.gpu::SyncToken", align 8
  %4 = getelementptr inbounds %"class.ppapi::PPB_Graphics3D_Shared", %"class.ppapi::PPB_Graphics3D_Shared"* %0, i64 -1, i32 4
  %5 = bitcast %"class.std::__1::unique_ptr.23"* %4 to %"class.ppapi::PPB_Graphics3D_Shared"*
  %6 = icmp eq %"class.ppapi::TrackedCallback"* %1, null
  br i1 %6, label %10, label %7

7:                                                ; preds = %2
  %8 = getelementptr inbounds %"class.ppapi::TrackedCallback", %"class.ppapi::TrackedCallback"* %1, i64 0, i32 0, i32 0, i32 0, i32 0, i32 0, i32 0, i32 0, i32 0, i32 0
  %9 = atomicrmw add i32* %8, i32 1 monotonic
  br label %10

10:                                               ; preds = %7, %2
  %11 = getelementptr inbounds %"struct.gpu::SyncToken", %"struct.gpu::SyncToken"* %3, i64 0, i32 0
  call void @llvm.lifetime.start.p0i8(i64 24, i8* nonnull %11) #11
  call void @_ZN3gpu9SyncTokenC1Ev(%"struct.gpu::SyncToken"* nonnull %3) #11
  %12 = getelementptr inbounds %"class.std::__1::unique_ptr.23", %"class.std::__1::unique_ptr.23"* %4, i64 7
  %13 = bitcast %"class.std::__1::unique_ptr.23"* %12 to %"class.gfx::Size"*
  %14 = bitcast %"class.std::__1::unique_ptr.23"* %4 to i32 (%"class.ppapi::PPB_Graphics3D_Shared"*, %"class.ppapi::TrackedCallback"*, %"struct.gpu::SyncToken"*, %"class.gfx::Size"*)***
  %15 = load i32 (%"class.ppapi::PPB_Graphics3D_Shared"*, %"class.ppapi::TrackedCallback"*, %"struct.gpu::SyncToken"*, %"class.gfx::Size"*)**, i32 (%"class.ppapi::PPB_Graphics3D_Shared"*, %"class.ppapi::TrackedCallback"*, %"struct.gpu::SyncToken"*, %"class.gfx::Size"*)*** %14, align 8
  %16 = getelementptr inbounds i32 (%"class.ppapi::PPB_Graphics3D_Shared"*, %"class.ppapi::TrackedCallback"*, %"struct.gpu::SyncToken"*, %"class.gfx::Size"*)*, i32 (%"class.ppapi::PPB_Graphics3D_Shared"*, %"class.ppapi::TrackedCallback"*, %"struct.gpu::SyncToken"*, %"class.gfx::Size"*)** %15, i64 70
  %17 = load i32 (%"class.ppapi::PPB_Graphics3D_Shared"*, %"class.ppapi::TrackedCallback"*, %"struct.gpu::SyncToken"*, %"class.gfx::Size"*)*, i32 (%"class.ppapi::PPB_Graphics3D_Shared"*, %"class.ppapi::TrackedCallback"*, %"struct.gpu::SyncToken"*, %"class.gfx::Size"*)** %16, align 8
  %18 = call i32 %17(%"class.ppapi::PPB_Graphics3D_Shared"* %5, %"class.ppapi::TrackedCallback"* %1, %"struct.gpu::SyncToken"* nonnull dereferenceable(24) %3, %"class.gfx::Size"* dereferenceable(8) %13) #11
  call void @llvm.lifetime.end.p0i8(i64 24, i8* nonnull %11) #11
  br i1 %6, label %25, label %19

19:                                               ; preds = %10
  %20 = getelementptr inbounds %"class.ppapi::TrackedCallback", %"class.ppapi::TrackedCallback"* %1, i64 0, i32 0, i32 0, i32 0, i32 0, i32 0, i32 0, i32 0, i32 0, i32 0
  %21 = atomicrmw sub i32* %20, i32 1 acq_rel
  %22 = icmp eq i32 %21, 1
  br i1 %22, label %23, label %25

23:                                               ; preds = %19
  call void @_ZN5ppapi15TrackedCallbackD1Ev(%"class.ppapi::TrackedCallback"* nonnull %1) #11
  %24 = bitcast %"class.ppapi::TrackedCallback"* %1 to i8*
  call void @_ZdlPv(i8* %24) #12
  br label %25

25:                                               ; preds = %10, %19, %23
  ret i32 %18
}

; Function Attrs: nounwind ssp uwtable
define hidden i32 @_ZN5ppapi21PPB_Graphics3D_Shared24SwapBuffersWithSyncTokenE13scoped_refptrINS_15TrackedCallbackEERKN3gpu9SyncTokenERKN3gfx4SizeE(%"class.ppapi::PPB_Graphics3D_Shared"*, %"class.ppapi::TrackedCallback"*, %"struct.gpu::SyncToken"* dereferenceable(24), %"class.gfx::Size"* dereferenceable(8)) unnamed_addr #0 align 2 {
  %5 = alloca %"class.std::__1::basic_string", align 8
  %6 = getelementptr inbounds %"class.ppapi::PPB_Graphics3D_Shared", %"class.ppapi::PPB_Graphics3D_Shared"* %0, i64 0, i32 6
  %7 = tail call zeroext i1 @_ZN5ppapi15TrackedCallback9IsPendingERK13scoped_refptrIS0_E(%class.scoped_refptr.353* dereferenceable(8) %6) #11
  br i1 %7, label %8, label %23

8:                                                ; preds = %4
  %9 = getelementptr inbounds %"class.ppapi::PPB_Graphics3D_Shared", %"class.ppapi::PPB_Graphics3D_Shared"* %0, i64 0, i32 0
  %10 = bitcast %"class.std::__1::basic_string"* %5 to i8*
  call void @llvm.lifetime.start.p0i8(i64 24, i8* nonnull %10) #11
  %11 = tail call i8* @_Znwm(i64 96) #12
  %12 = getelementptr inbounds %"class.std::__1::basic_string", %"class.std::__1::basic_string"* %5, i64 0, i32 0, i32 0, i32 0, i32 0, i32 0, i32 0
  store i8* %11, i8** %12, align 8
  %13 = getelementptr inbounds %"class.std::__1::basic_string", %"class.std::__1::basic_string"* %5, i64 0, i32 0, i32 0, i32 0, i32 0, i32 0, i32 1
  %14 = bitcast i64* %13 to <2 x i64>*
  store <2 x i64> <i64 83, i64 -9223372036854775712>, <2 x i64>* %14, align 8
  call void @llvm.memcpy.p0i8.p0i8.i64(i8* nonnull align 1 %11, i8* align 1 getelementptr inbounds ([84 x i8], [84 x i8]* @.str, i64 0, i64 0), i64 83, i1 false) #11
  %15 = getelementptr inbounds i8, i8* %11, i64 83
  store i8 0, i8* %15, align 1
  call void @_ZN5ppapi8Resource3LogE11PP_LogLevelRKNSt3__112basic_stringIcNS2_11char_traitsIcEENS2_9allocatorIcEEEE(%"class.ppapi::Resource"* %9, i32 3, %"class.std::__1::basic_string"* nonnull dereferenceable(24) %5) #11
  %16 = bitcast %"class.std::__1::basic_string"* %5 to %"struct.std::__1::basic_string<char, std::__1::char_traits<char>, std::__1::allocator<char> >::__short"*
  %17 = getelementptr inbounds %"struct.std::__1::basic_string<char, std::__1::char_traits<char>, std::__1::allocator<char> >::__short", %"struct.std::__1::basic_string<char, std::__1::char_traits<char>, std::__1::allocator<char> >::__short"* %16, i64 0, i32 1, i32 0
  %18 = load i8, i8* %17, align 1
  %19 = icmp slt i8 %18, 0
  br i1 %19, label %20, label %22

20:                                               ; preds = %8
  %21 = load i8*, i8** %12, align 8
  call void @_ZdlPv(i8* %21) #12
  br label %22

22:                                               ; preds = %8, %20
  call void @llvm.lifetime.end.p0i8(i64 24, i8* nonnull %10) #11
  br label %46

23:                                               ; preds = %4
  %24 = icmp eq %"class.ppapi::TrackedCallback"* %1, null
  br i1 %24, label %28, label %25

25:                                               ; preds = %23
  %26 = getelementptr inbounds %"class.ppapi::TrackedCallback", %"class.ppapi::TrackedCallback"* %1, i64 0, i32 0, i32 0, i32 0, i32 0, i32 0, i32 0, i32 0, i32 0, i32 0
  %27 = atomicrmw add i32* %26, i32 1 monotonic
  br label %28

28:                                               ; preds = %23, %25
  %29 = ptrtoint %"class.ppapi::TrackedCallback"* %1 to i64
  %30 = bitcast %class.scoped_refptr.353* %6 to i64*
  %31 = getelementptr inbounds %class.scoped_refptr.353, %class.scoped_refptr.353* %6, i64 0, i32 0
  %32 = load %"class.ppapi::TrackedCallback"*, %"class.ppapi::TrackedCallback"** %31, align 8
  store i64 %29, i64* %30, align 8
  %33 = icmp eq %"class.ppapi::TrackedCallback"* %32, null
  br i1 %33, label %40, label %34

34:                                               ; preds = %28
  %35 = getelementptr inbounds %"class.ppapi::TrackedCallback", %"class.ppapi::TrackedCallback"* %32, i64 0, i32 0, i32 0, i32 0, i32 0, i32 0, i32 0, i32 0, i32 0, i32 0
  %36 = atomicrmw sub i32* %35, i32 1 acq_rel
  %37 = icmp eq i32 %36, 1
  br i1 %37, label %38, label %40

38:                                               ; preds = %34
  tail call void @_ZN5ppapi15TrackedCallbackD1Ev(%"class.ppapi::TrackedCallback"* nonnull %32) #11
  %39 = bitcast %"class.ppapi::TrackedCallback"* %32 to i8*
  tail call void @_ZdlPv(i8* %39) #12
  br label %40

40:                                               ; preds = %28, %34, %38
  %41 = bitcast %"class.ppapi::PPB_Graphics3D_Shared"* %0 to i32 (%"class.ppapi::PPB_Graphics3D_Shared"*, %"struct.gpu::SyncToken"*, %"class.gfx::Size"*)***
  %42 = load i32 (%"class.ppapi::PPB_Graphics3D_Shared"*, %"struct.gpu::SyncToken"*, %"class.gfx::Size"*)**, i32 (%"class.ppapi::PPB_Graphics3D_Shared"*, %"struct.gpu::SyncToken"*, %"class.gfx::Size"*)*** %41, align 8
  %43 = getelementptr inbounds i32 (%"class.ppapi::PPB_Graphics3D_Shared"*, %"struct.gpu::SyncToken"*, %"class.gfx::Size"*)*, i32 (%"class.ppapi::PPB_Graphics3D_Shared"*, %"struct.gpu::SyncToken"*, %"class.gfx::Size"*)** %42, i64 76
  %44 = load i32 (%"class.ppapi::PPB_Graphics3D_Shared"*, %"struct.gpu::SyncToken"*, %"class.gfx::Size"*)*, i32 (%"class.ppapi::PPB_Graphics3D_Shared"*, %"struct.gpu::SyncToken"*, %"class.gfx::Size"*)** %43, align 8
  %45 = tail call i32 %44(%"class.ppapi::PPB_Graphics3D_Shared"* %0, %"struct.gpu::SyncToken"* dereferenceable(24) %2, %"class.gfx::Size"* dereferenceable(8) %3) #11
  br label %46

46:                                               ; preds = %40, %22
  %47 = phi i32 [ -11, %22 ], [ %45, %40 ]
  %48 = icmp eq %"class.ppapi::TrackedCallback"* %1, null
  br i1 %48, label %55, label %49

49:                                               ; preds = %46
  %50 = getelementptr inbounds %"class.ppapi::TrackedCallback", %"class.ppapi::TrackedCallback"* %1, i64 0, i32 0, i32 0, i32 0, i32 0, i32 0, i32 0, i32 0, i32 0, i32 0
  %51 = atomicrmw sub i32* %50, i32 1 acq_rel
  %52 = icmp eq i32 %51, 1
  br i1 %52, label %53, label %55

53:                                               ; preds = %49
  call void @_ZN5ppapi15TrackedCallbackD1Ev(%"class.ppapi::TrackedCallback"* nonnull %1) #11
  %54 = bitcast %"class.ppapi::TrackedCallback"* %1 to i8*
  call void @_ZdlPv(i8* %54) #12
  br label %55

55:                                               ; preds = %46, %49, %53
  ret i32 %47
}

; Function Attrs: nounwind ssp uwtable
define hidden zeroext i1 @_ZNK5ppapi21PPB_Graphics3D_Shared14HasPendingSwapEv(%"class.ppapi::PPB_Graphics3D_Shared"*) local_unnamed_addr #0 align 2 {
  %2 = getelementptr inbounds %"class.ppapi::PPB_Graphics3D_Shared", %"class.ppapi::PPB_Graphics3D_Shared"* %0, i64 0, i32 6
  %3 = tail call zeroext i1 @_ZN5ppapi15TrackedCallback9IsPendingERK13scoped_refptrIS0_E(%class.scoped_refptr.353* dereferenceable(8) %2) #11
  ret i1 %3
}

declare void @_ZN5ppapi8Resource3LogE11PP_LogLevelRKNSt3__112basic_stringIcNS2_11char_traitsIcEENS2_9allocatorIcEEEE(%"class.ppapi::Resource"*, i32, %"class.std::__1::basic_string"* dereferenceable(24)) local_unnamed_addr #1

; Function Attrs: nounwind ssp uwtable
define hidden i32 @_ZThn24_N5ppapi21PPB_Graphics3D_Shared24SwapBuffersWithSyncTokenE13scoped_refptrINS_15TrackedCallbackEERKN3gpu9SyncTokenERKN3gfx4SizeE(%"class.ppapi::PPB_Graphics3D_Shared"*, %"class.ppapi::TrackedCallback"*, %"struct.gpu::SyncToken"* dereferenceable(24), %"class.gfx::Size"* dereferenceable(8)) unnamed_addr #0 align 2 {
  %5 = getelementptr inbounds %"class.ppapi::PPB_Graphics3D_Shared", %"class.ppapi::PPB_Graphics3D_Shared"* %0, i64 -1, i32 4
  %6 = bitcast %"class.std::__1::unique_ptr.23"* %5 to %"class.ppapi::PPB_Graphics3D_Shared"*
  %7 = tail call i32 @_ZN5ppapi21PPB_Graphics3D_Shared24SwapBuffersWithSyncTokenE13scoped_refptrINS_15TrackedCallbackEERKN3gpu9SyncTokenERKN3gfx4SizeE(%"class.ppapi::PPB_Graphics3D_Shared"* %6, %"class.ppapi::TrackedCallback"* %1, %"struct.gpu::SyncToken"* dereferenceable(24) %2, %"class.gfx::Size"* dereferenceable(8) %3)
  ret i32 %7
}

; Function Attrs: norecurse nounwind readnone ssp uwtable
define hidden i32 @_ZN5ppapi21PPB_Graphics3D_Shared17GetAttribMaxValueEiPi(%"class.ppapi::PPB_Graphics3D_Shared"* nocapture readnone, i32, i32* nocapture readnone) unnamed_addr #6 align 2 {
  ret i32 -2
}

; Function Attrs: norecurse nounwind readnone ssp uwtable
define hidden i32 @_ZThn24_N5ppapi21PPB_Graphics3D_Shared17GetAttribMaxValueEiPi(%"class.ppapi::PPB_Graphics3D_Shared"* nocapture readnone, i32, i32* nocapture readnone) unnamed_addr #6 align 2 {
  ret i32 -2
}

; Function Attrs: nounwind ssp uwtable
define hidden i8* @_ZN5ppapi21PPB_Graphics3D_Shared24MapTexSubImage2DCHROMIUMEjiiiiijjj(%"class.ppapi::PPB_Graphics3D_Shared"* nocapture readonly, i32, i32, i32, i32, i32, i32, i32, i32, i32) unnamed_addr #0 align 2 {
  %11 = getelementptr inbounds %"class.ppapi::PPB_Graphics3D_Shared", %"class.ppapi::PPB_Graphics3D_Shared"* %0, i64 0, i32 4, i32 0, i32 0, i32 0
  %12 = load %"class.gpu::gles2::GLES2Implementation"*, %"class.gpu::gles2::GLES2Implementation"** %11, align 8
  %13 = bitcast %"class.gpu::gles2::GLES2Implementation"* %12 to i8* (%"class.gpu::gles2::GLES2Implementation"*, i32, i32, i32, i32, i32, i32, i32, i32, i32)***
  %14 = load i8* (%"class.gpu::gles2::GLES2Implementation"*, i32, i32, i32, i32, i32, i32, i32, i32, i32)**, i8* (%"class.gpu::gles2::GLES2Implementation"*, i32, i32, i32, i32, i32, i32, i32, i32, i32)*** %13, align 8
  %15 = getelementptr inbounds i8* (%"class.gpu::gles2::GLES2Implementation"*, i32, i32, i32, i32, i32, i32, i32, i32, i32)*, i8* (%"class.gpu::gles2::GLES2Implementation"*, i32, i32, i32, i32, i32, i32, i32, i32, i32)** %14, i64 287
  %16 = load i8* (%"class.gpu::gles2::GLES2Implementation"*, i32, i32, i32, i32, i32, i32, i32, i32, i32)*, i8* (%"class.gpu::gles2::GLES2Implementation"*, i32, i32, i32, i32, i32, i32, i32, i32, i32)** %15, align 8
  %17 = tail call i8* %16(%"class.gpu::gles2::GLES2Implementation"* %12, i32 %1, i32 %2, i32 %3, i32 %4, i32 %5, i32 %6, i32 %7, i32 %8, i32 %9) #11
  ret i8* %17
}

; Function Attrs: nounwind ssp uwtable
define hidden i8* @_ZThn24_N5ppapi21PPB_Graphics3D_Shared24MapTexSubImage2DCHROMIUMEjiiiiijjj(%"class.ppapi::PPB_Graphics3D_Shared"* nocapture readonly, i32, i32, i32, i32, i32, i32, i32, i32, i32) unnamed_addr #0 align 2 {
  %11 = getelementptr inbounds %"class.ppapi::PPB_Graphics3D_Shared", %"class.ppapi::PPB_Graphics3D_Shared"* %0, i64 -1, i32 4
  %12 = getelementptr inbounds %"class.std::__1::unique_ptr.23", %"class.std::__1::unique_ptr.23"* %11, i64 6, i32 0, i32 0, i32 0
  %13 = load %"class.gpu::gles2::GLES2Implementation"*, %"class.gpu::gles2::GLES2Implementation"** %12, align 8
  %14 = bitcast %"class.gpu::gles2::GLES2Implementation"* %13 to i8* (%"class.gpu::gles2::GLES2Implementation"*, i32, i32, i32, i32, i32, i32, i32, i32, i32)***
  %15 = load i8* (%"class.gpu::gles2::GLES2Implementation"*, i32, i32, i32, i32, i32, i32, i32, i32, i32)**, i8* (%"class.gpu::gles2::GLES2Implementation"*, i32, i32, i32, i32, i32, i32, i32, i32, i32)*** %14, align 8
  %16 = getelementptr inbounds i8* (%"class.gpu::gles2::GLES2Implementation"*, i32, i32, i32, i32, i32, i32, i32, i32, i32)*, i8* (%"class.gpu::gles2::GLES2Implementation"*, i32, i32, i32, i32, i32, i32, i32, i32, i32)** %15, i64 287
  %17 = load i8* (%"class.gpu::gles2::GLES2Implementation"*, i32, i32, i32, i32, i32, i32, i32, i32, i32)*, i8* (%"class.gpu::gles2::GLES2Implementation"*, i32, i32, i32, i32, i32, i32, i32, i32, i32)** %16, align 8
  %18 = tail call i8* %17(%"class.gpu::gles2::GLES2Implementation"* %13, i32 %1, i32 %2, i32 %3, i32 %4, i32 %5, i32 %6, i32 %7, i32 %8, i32 %9) #11
  ret i8* %18
}

; Function Attrs: nounwind ssp uwtable
define hidden void @_ZN5ppapi21PPB_Graphics3D_Shared26UnmapTexSubImage2DCHROMIUMEPKv(%"class.ppapi::PPB_Graphics3D_Shared"* nocapture readonly, i8*) unnamed_addr #0 align 2 {
  %3 = getelementptr inbounds %"class.ppapi::PPB_Graphics3D_Shared", %"class.ppapi::PPB_Graphics3D_Shared"* %0, i64 0, i32 4, i32 0, i32 0, i32 0
  %4 = load %"class.gpu::gles2::GLES2Implementation"*, %"class.gpu::gles2::GLES2Implementation"** %3, align 8
  %5 = bitcast %"class.gpu::gles2::GLES2Implementation"* %4 to void (%"class.gpu::gles2::GLES2Implementation"*, i8*)***
  %6 = load void (%"class.gpu::gles2::GLES2Implementation"*, i8*)**, void (%"class.gpu::gles2::GLES2Implementation"*, i8*)*** %5, align 8
  %7 = getelementptr inbounds void (%"class.gpu::gles2::GLES2Implementation"*, i8*)*, void (%"class.gpu::gles2::GLES2Implementation"*, i8*)** %6, i64 288
  %8 = load void (%"class.gpu::gles2::GLES2Implementation"*, i8*)*, void (%"class.gpu::gles2::GLES2Implementation"*, i8*)** %7, align 8
  tail call void %8(%"class.gpu::gles2::GLES2Implementation"* %4, i8* %1) #11
  ret void
}

; Function Attrs: nounwind ssp uwtable
define hidden void @_ZThn24_N5ppapi21PPB_Graphics3D_Shared26UnmapTexSubImage2DCHROMIUMEPKv(%"class.ppapi::PPB_Graphics3D_Shared"* nocapture readonly, i8*) unnamed_addr #0 align 2 {
  %3 = getelementptr inbounds %"class.ppapi::PPB_Graphics3D_Shared", %"class.ppapi::PPB_Graphics3D_Shared"* %0, i64 -1, i32 4
  %4 = getelementptr inbounds %"class.std::__1::unique_ptr.23", %"class.std::__1::unique_ptr.23"* %3, i64 6, i32 0, i32 0, i32 0
  %5 = load %"class.gpu::gles2::GLES2Implementation"*, %"class.gpu::gles2::GLES2Implementation"** %4, align 8
  %6 = bitcast %"class.gpu::gles2::GLES2Implementation"* %5 to void (%"class.gpu::gles2::GLES2Implementation"*, i8*)***
  %7 = load void (%"class.gpu::gles2::GLES2Implementation"*, i8*)**, void (%"class.gpu::gles2::GLES2Implementation"*, i8*)*** %6, align 8
  %8 = getelementptr inbounds void (%"class.gpu::gles2::GLES2Implementation"*, i8*)*, void (%"class.gpu::gles2::GLES2Implementation"*, i8*)** %7, i64 288
  %9 = load void (%"class.gpu::gles2::GLES2Implementation"*, i8*)*, void (%"class.gpu::gles2::GLES2Implementation"*, i8*)** %8, align 8
  tail call void %9(%"class.gpu::gles2::GLES2Implementation"* %5, i8* %1) #11
  ret void
}

; Function Attrs: norecurse nounwind readonly ssp uwtable
define hidden %"class.gpu::gles2::GLES2Interface"* @_ZN5ppapi21PPB_Graphics3D_Shared15gles2_interfaceEv(%"class.ppapi::PPB_Graphics3D_Shared"* nocapture readonly) local_unnamed_addr #7 align 2 {
  %2 = getelementptr inbounds %"class.ppapi::PPB_Graphics3D_Shared", %"class.ppapi::PPB_Graphics3D_Shared"* %0, i64 0, i32 4, i32 0, i32 0, i32 0
  %3 = load %"class.gpu::gles2::GLES2Implementation"*, %"class.gpu::gles2::GLES2Implementation"** %2, align 8
  %4 = getelementptr inbounds %"class.gpu::gles2::GLES2Implementation", %"class.gpu::gles2::GLES2Implementation"* %3, i64 0, i32 0
  ret %"class.gpu::gles2::GLES2Interface"* %4
}

; Function Attrs: nounwind ssp uwtable
define hidden void @_ZN5ppapi21PPB_Graphics3D_Shared14SwapBuffersACKEi(%"class.ppapi::PPB_Graphics3D_Shared"* nocapture readonly, i32) local_unnamed_addr #0 align 2 {
  %3 = getelementptr inbounds %"class.ppapi::PPB_Graphics3D_Shared", %"class.ppapi::PPB_Graphics3D_Shared"* %0, i64 0, i32 6, i32 0
  %4 = load %"class.ppapi::TrackedCallback"*, %"class.ppapi::TrackedCallback"** %3, align 8
  tail call void @_ZN5ppapi15TrackedCallback3RunEi(%"class.ppapi::TrackedCallback"* %4, i32 %1) #11
  ret void
}

declare void @_ZN5ppapi15TrackedCallback3RunEi(%"class.ppapi::TrackedCallback"*, i32) local_unnamed_addr #1

declare zeroext i1 @_ZN5ppapi15TrackedCallback9IsPendingERK13scoped_refptrIS0_E(%class.scoped_refptr.353* dereferenceable(8)) local_unnamed_addr #1

; Function Attrs: nounwind ssp uwtable
define hidden zeroext i1 @_ZN5ppapi21PPB_Graphics3D_Shared15CreateGLES2ImplEPN3gpu5gles219GLES2ImplementationE(%"class.ppapi::PPB_Graphics3D_Shared"*, %"class.gpu::gles2::GLES2Implementation"* readonly) local_unnamed_addr #0 align 2 {
  %3 = alloca %"struct.gpu::SharedMemoryLimits", align 16
  %4 = bitcast %"struct.gpu::SharedMemoryLimits"* %3 to i8*
  call void @llvm.lifetime.start.p0i8(i64 28, i8* nonnull %4) #11
  %5 = getelementptr inbounds %"struct.gpu::SharedMemoryLimits", %"struct.gpu::SharedMemoryLimits"* %3, i64 0, i32 0
  %6 = getelementptr inbounds %"struct.gpu::SharedMemoryLimits", %"struct.gpu::SharedMemoryLimits"* %3, i64 0, i32 1
  %7 = getelementptr inbounds %"struct.gpu::SharedMemoryLimits", %"struct.gpu::SharedMemoryLimits"* %3, i64 0, i32 2
  %8 = getelementptr inbounds %"struct.gpu::SharedMemoryLimits", %"struct.gpu::SharedMemoryLimits"* %3, i64 0, i32 4
  %9 = getelementptr inbounds %"struct.gpu::SharedMemoryLimits", %"struct.gpu::SharedMemoryLimits"* %3, i64 0, i32 5
  %10 = getelementptr inbounds %"struct.gpu::SharedMemoryLimits", %"struct.gpu::SharedMemoryLimits"* %3, i64 0, i32 6
  %11 = bitcast %"struct.gpu::SharedMemoryLimits"* %3 to <4 x i32>*
  store <4 x i32> <i32 1048576, i32 65536, i32 65536, i32 16777216>, <4 x i32>* %11, align 16
  store i32 0, i32* %8, align 16
  store i32 2097152, i32* %9, align 4
  store i32 0, i32* %10, align 8
  %12 = tail call i64 @_ZN4base7SysInfo22AmountOfPhysicalMemoryEv() #11
  %13 = icmp sgt i64 %12, 1073741824
  br i1 %13, label %14, label %31

14:                                               ; preds = %2
  %15 = tail call i64 @_ZN4base7SysInfo22AmountOfPhysicalMemoryEv() #11
  %16 = sdiv i64 %15, 20
  %17 = tail call i1 @llvm.is.constant.i64(i64 %16) #11
  br i1 %17, label %25, label %18

18:                                               ; preds = %14
  %19 = ashr i64 %16, 63
  %20 = trunc i64 %19 to i32
  %21 = xor i32 %20, -1
  %22 = icmp ult i64 %16, 4294967296
  %23 = trunc i64 %16 to i32
  %24 = select i1 %22, i32 %23, i32 %21, !prof !2
  br label %31

25:                                               ; preds = %14
  %26 = icmp sgt i64 %15, 85899345919
  br i1 %26, label %31, label %27

27:                                               ; preds = %25
  %28 = icmp sgt i64 %15, -20
  %29 = trunc i64 %16 to i32
  %30 = select i1 %28, i32 %29, i32 0
  br label %31

31:                                               ; preds = %27, %25, %18, %2
  %32 = phi i32 [ 0, %2 ], [ %24, %18 ], [ %30, %27 ], [ -1, %25 ]
  store i32 %32, i32* %10, align 8
  %33 = tail call i64 @_ZN4base7SysInfo22AmountOfPhysicalMemoryEv() #11
  %34 = sdiv i64 %33, 1048576
  %35 = trunc i64 %34 to i32
  %36 = icmp slt i32 %35, 513
  br i1 %36, label %37, label %38

37:                                               ; preds = %31
  store i32 524288, i32* %5, align 16
  store i32 32768, i32* %6, align 4
  store i32 32768, i32* %7, align 8
  store i32 262144, i32* %9, align 4
  br label %38

38:                                               ; preds = %31, %37
  %39 = phi i32 [ 1048576, %31 ], [ 524288, %37 ]
  %40 = bitcast %"class.ppapi::PPB_Graphics3D_Shared"* %0 to %"class.gpu::CommandBuffer"* (%"class.ppapi::PPB_Graphics3D_Shared"*)***
  %41 = load %"class.gpu::CommandBuffer"* (%"class.ppapi::PPB_Graphics3D_Shared"*)**, %"class.gpu::CommandBuffer"* (%"class.ppapi::PPB_Graphics3D_Shared"*)*** %40, align 8
  %42 = getelementptr inbounds %"class.gpu::CommandBuffer"* (%"class.ppapi::PPB_Graphics3D_Shared"*)*, %"class.gpu::CommandBuffer"* (%"class.ppapi::PPB_Graphics3D_Shared"*)** %41, i64 74
  %43 = load %"class.gpu::CommandBuffer"* (%"class.ppapi::PPB_Graphics3D_Shared"*)*, %"class.gpu::CommandBuffer"* (%"class.ppapi::PPB_Graphics3D_Shared"*)** %42, align 8
  %44 = tail call %"class.gpu::CommandBuffer"* %43(%"class.ppapi::PPB_Graphics3D_Shared"* %0) #11
  %45 = tail call i8* @_Znwm(i64 104) #12
  %46 = bitcast i8* %45 to %"class.gpu::gles2::GLES2CmdHelper"*
  tail call void @_ZN3gpu5gles214GLES2CmdHelperC1EPNS_13CommandBufferE(%"class.gpu::gles2::GLES2CmdHelper"* nonnull %46, %"class.gpu::CommandBuffer"* %44) #11
  %47 = ptrtoint i8* %45 to i64
  %48 = getelementptr inbounds %"class.ppapi::PPB_Graphics3D_Shared", %"class.ppapi::PPB_Graphics3D_Shared"* %0, i64 0, i32 2
  %49 = getelementptr inbounds %"class.std::__1::unique_ptr", %"class.std::__1::unique_ptr"* %48, i64 0, i32 0, i32 0, i32 0
  %50 = load %"class.gpu::gles2::GLES2CmdHelper"*, %"class.gpu::gles2::GLES2CmdHelper"** %49, align 8
  %51 = bitcast %"class.std::__1::unique_ptr"* %48 to i64*
  store i64 %47, i64* %51, align 8
  %52 = icmp eq %"class.gpu::gles2::GLES2CmdHelper"* %50, null
  br i1 %52, label %53, label %56

53:                                               ; preds = %38
  %54 = bitcast i8* %45 to %"class.gpu::CommandBufferHelper"*
  %55 = bitcast %"class.std::__1::unique_ptr"* %48 to %"class.gpu::CommandBufferHelper"**
  br label %63

56:                                               ; preds = %38
  %57 = bitcast %"class.gpu::gles2::GLES2CmdHelper"* %50 to void (%"class.gpu::gles2::GLES2CmdHelper"*)***
  %58 = load void (%"class.gpu::gles2::GLES2CmdHelper"*)**, void (%"class.gpu::gles2::GLES2CmdHelper"*)*** %57, align 8
  %59 = getelementptr inbounds void (%"class.gpu::gles2::GLES2CmdHelper"*)*, void (%"class.gpu::gles2::GLES2CmdHelper"*)** %58, i64 1
  %60 = load void (%"class.gpu::gles2::GLES2CmdHelper"*)*, void (%"class.gpu::gles2::GLES2CmdHelper"*)** %59, align 8
  tail call void %60(%"class.gpu::gles2::GLES2CmdHelper"* nonnull %50) #11
  %61 = bitcast %"class.std::__1::unique_ptr"* %48 to %"class.gpu::CommandBufferHelper"**
  %62 = load %"class.gpu::CommandBufferHelper"*, %"class.gpu::CommandBufferHelper"** %61, align 8
  br label %63

63:                                               ; preds = %53, %56
  %64 = phi %"class.gpu::CommandBufferHelper"** [ %55, %53 ], [ %61, %56 ]
  %65 = phi %"class.gpu::CommandBufferHelper"* [ %54, %53 ], [ %62, %56 ]
  %66 = tail call i32 @_ZN3gpu19CommandBufferHelper10InitializeEj(%"class.gpu::CommandBufferHelper"* %65, i32 %39) #11
  %67 = icmp eq i32 %66, 0
  br i1 %67, label %68, label %137

68:                                               ; preds = %63
  %69 = load %"class.gpu::CommandBufferHelper"*, %"class.gpu::CommandBufferHelper"** %64, align 8
  %70 = tail call i8* @_Znwm(i64 120) #12
  %71 = bitcast i8* %70 to %"class.gpu::TransferBuffer"*
  tail call void @_ZN3gpu14TransferBufferC1EPNS_19CommandBufferHelperE(%"class.gpu::TransferBuffer"* nonnull %71, %"class.gpu::CommandBufferHelper"* %69) #11
  %72 = ptrtoint i8* %70 to i64
  %73 = getelementptr inbounds %"class.ppapi::PPB_Graphics3D_Shared", %"class.ppapi::PPB_Graphics3D_Shared"* %0, i64 0, i32 3
  %74 = getelementptr inbounds %"class.std::__1::unique_ptr.9", %"class.std::__1::unique_ptr.9"* %73, i64 0, i32 0, i32 0, i32 0
  %75 = load %"class.gpu::TransferBuffer"*, %"class.gpu::TransferBuffer"** %74, align 8
  %76 = bitcast %"class.std::__1::unique_ptr.9"* %73 to i64*
  store i64 %72, i64* %76, align 8
  %77 = icmp eq %"class.gpu::TransferBuffer"* %75, null
  br i1 %77, label %83, label %78

78:                                               ; preds = %68
  %79 = bitcast %"class.gpu::TransferBuffer"* %75 to void (%"class.gpu::TransferBuffer"*)***
  %80 = load void (%"class.gpu::TransferBuffer"*)**, void (%"class.gpu::TransferBuffer"*)*** %79, align 8
  %81 = getelementptr inbounds void (%"class.gpu::TransferBuffer"*)*, void (%"class.gpu::TransferBuffer"*)** %80, i64 1
  %82 = load void (%"class.gpu::TransferBuffer"*)*, void (%"class.gpu::TransferBuffer"*)** %81, align 8
  tail call void %82(%"class.gpu::TransferBuffer"* nonnull %75) #11
  br label %83

83:                                               ; preds = %78, %68
  %84 = load %"class.gpu::gles2::GLES2CmdHelper"*, %"class.gpu::gles2::GLES2CmdHelper"** %49, align 8
  %85 = icmp eq %"class.gpu::gles2::GLES2Implementation"* %1, null
  br i1 %85, label %93, label %86

86:                                               ; preds = %83
  %87 = getelementptr inbounds %"class.gpu::gles2::GLES2Implementation", %"class.gpu::gles2::GLES2Implementation"* %1, i64 0, i32 55, i32 0
  %88 = load %"class.gpu::gles2::ShareGroup"*, %"class.gpu::gles2::ShareGroup"** %87, align 8
  %89 = icmp eq %"class.gpu::gles2::ShareGroup"* %88, null
  br i1 %89, label %93, label %90

90:                                               ; preds = %86
  %91 = getelementptr inbounds %"class.gpu::gles2::ShareGroup", %"class.gpu::gles2::ShareGroup"* %88, i64 0, i32 0, i32 0, i32 0, i32 0, i32 0, i32 0, i32 0, i32 0, i32 0
  %92 = atomicrmw add i32* %91, i32 1 monotonic
  br label %93

93:                                               ; preds = %83, %90, %86
  %94 = phi %"class.gpu::gles2::ShareGroup"* [ null, %86 ], [ %88, %90 ], [ null, %83 ]
  %95 = bitcast %"class.std::__1::unique_ptr.9"* %73 to %"class.gpu::TransferBufferInterface"**
  %96 = load %"class.gpu::TransferBufferInterface"*, %"class.gpu::TransferBufferInterface"** %95, align 8
  %97 = bitcast %"class.ppapi::PPB_Graphics3D_Shared"* %0 to %"class.gpu::GpuControl"* (%"class.ppapi::PPB_Graphics3D_Shared"*)***
  %98 = load %"class.gpu::GpuControl"* (%"class.ppapi::PPB_Graphics3D_Shared"*)**, %"class.gpu::GpuControl"* (%"class.ppapi::PPB_Graphics3D_Shared"*)*** %97, align 8
  %99 = getelementptr inbounds %"class.gpu::GpuControl"* (%"class.ppapi::PPB_Graphics3D_Shared"*)*, %"class.gpu::GpuControl"* (%"class.ppapi::PPB_Graphics3D_Shared"*)** %98, i64 75
  %100 = load %"class.gpu::GpuControl"* (%"class.ppapi::PPB_Graphics3D_Shared"*)*, %"class.gpu::GpuControl"* (%"class.ppapi::PPB_Graphics3D_Shared"*)** %99, align 8
  %101 = tail call %"class.gpu::GpuControl"* %100(%"class.ppapi::PPB_Graphics3D_Shared"* %0) #11
  %102 = tail call i8* @_Znwm(i64 1632) #12
  %103 = bitcast i8* %102 to %"class.gpu::gles2::GLES2Implementation"*
  %104 = icmp eq %"class.gpu::gles2::ShareGroup"* %94, null
  br i1 %104, label %108, label %105

105:                                              ; preds = %93
  %106 = getelementptr inbounds %"class.gpu::gles2::ShareGroup", %"class.gpu::gles2::ShareGroup"* %94, i64 0, i32 0, i32 0, i32 0, i32 0, i32 0, i32 0, i32 0, i32 0, i32 0
  %107 = atomicrmw add i32* %106, i32 1 monotonic
  br label %108

108:                                              ; preds = %93, %105
  tail call void @_ZN3gpu5gles219GLES2ImplementationC1EPNS0_14GLES2CmdHelperE13scoped_refptrINS0_10ShareGroupEEPNS_23TransferBufferInterfaceEbbbPNS_10GpuControlE(%"class.gpu::gles2::GLES2Implementation"* nonnull %103, %"class.gpu::gles2::GLES2CmdHelper"* %84, %"class.gpu::gles2::ShareGroup"* %94, %"class.gpu::TransferBufferInterface"* %96, i1 zeroext true, i1 zeroext false, i1 zeroext true, %"class.gpu::GpuControl"* %101) #11
  %109 = ptrtoint i8* %102 to i64
  %110 = getelementptr inbounds %"class.ppapi::PPB_Graphics3D_Shared", %"class.ppapi::PPB_Graphics3D_Shared"* %0, i64 0, i32 4
  %111 = getelementptr inbounds %"class.std::__1::unique_ptr.23", %"class.std::__1::unique_ptr.23"* %110, i64 0, i32 0, i32 0, i32 0
  %112 = load %"class.gpu::gles2::GLES2Implementation"*, %"class.gpu::gles2::GLES2Implementation"** %111, align 8
  %113 = bitcast %"class.std::__1::unique_ptr.23"* %110 to i64*
  store i64 %109, i64* %113, align 8
  %114 = icmp eq %"class.gpu::gles2::GLES2Implementation"* %112, null
  br i1 %114, label %120, label %115

115:                                              ; preds = %108
  %116 = bitcast %"class.gpu::gles2::GLES2Implementation"* %112 to void (%"class.gpu::gles2::GLES2Implementation"*)***
  %117 = load void (%"class.gpu::gles2::GLES2Implementation"*)**, void (%"class.gpu::gles2::GLES2Implementation"*)*** %116, align 8
  %118 = getelementptr inbounds void (%"class.gpu::gles2::GLES2Implementation"*)*, void (%"class.gpu::gles2::GLES2Implementation"*)** %117, i64 6
  %119 = load void (%"class.gpu::gles2::GLES2Implementation"*)*, void (%"class.gpu::gles2::GLES2Implementation"*)** %118, align 8
  tail call void %119(%"class.gpu::gles2::GLES2Implementation"* nonnull %112) #11
  br label %120

120:                                              ; preds = %115, %108
  br i1 %104, label %127, label %121

121:                                              ; preds = %120
  %122 = getelementptr inbounds %"class.gpu::gles2::ShareGroup", %"class.gpu::gles2::ShareGroup"* %94, i64 0, i32 0, i32 0, i32 0, i32 0, i32 0, i32 0, i32 0, i32 0, i32 0
  %123 = atomicrmw sub i32* %122, i32 1 acq_rel
  %124 = icmp eq i32 %123, 1
  br i1 %124, label %125, label %127

125:                                              ; preds = %121
  tail call void @_ZN3gpu5gles210ShareGroupD1Ev(%"class.gpu::gles2::ShareGroup"* nonnull %94) #11
  %126 = bitcast %"class.gpu::gles2::ShareGroup"* %94 to i8*
  tail call void @_ZdlPv(i8* %126) #12
  br label %127

127:                                              ; preds = %120, %121, %125
  %128 = load %"class.gpu::gles2::GLES2Implementation"*, %"class.gpu::gles2::GLES2Implementation"** %111, align 8
  %129 = call i32 @_ZN3gpu5gles219GLES2Implementation10InitializeERKNS_18SharedMemoryLimitsE(%"class.gpu::gles2::GLES2Implementation"* %128, %"struct.gpu::SharedMemoryLimits"* nonnull dereferenceable(28) %3) #11
  %130 = icmp eq i32 %129, 0
  br i1 %130, label %131, label %137

131:                                              ; preds = %127
  %132 = load %"class.gpu::gles2::GLES2Implementation"*, %"class.gpu::gles2::GLES2Implementation"** %111, align 8
  %133 = bitcast %"class.gpu::gles2::GLES2Implementation"* %132 to void (%"class.gpu::gles2::GLES2Implementation"*, i8*, i8*)***
  %134 = load void (%"class.gpu::gles2::GLES2Implementation"*, i8*, i8*)**, void (%"class.gpu::gles2::GLES2Implementation"*, i8*, i8*)*** %133, align 8
  %135 = getelementptr inbounds void (%"class.gpu::gles2::GLES2Implementation"*, i8*, i8*)*, void (%"class.gpu::gles2::GLES2Implementation"*, i8*, i8*)** %134, i64 314
  %136 = load void (%"class.gpu::gles2::GLES2Implementation"*, i8*, i8*)*, void (%"class.gpu::gles2::GLES2Implementation"*, i8*, i8*)** %135, align 8
  call void %136(%"class.gpu::gles2::GLES2Implementation"* %132, i8* getelementptr inbounds ([13 x i8], [13 x i8]* @.str.1, i64 0, i64 0), i8* getelementptr inbounds ([13 x i8], [13 x i8]* @.str.2, i64 0, i64 0)) #11
  br label %137

137:                                              ; preds = %131, %127, %63
  %138 = phi i1 [ false, %63 ], [ true, %131 ], [ false, %127 ]
  call void @llvm.lifetime.end.p0i8(i64 28, i8* nonnull %4) #11
  ret i1 %138
}

declare i32 @_ZN3gpu19CommandBufferHelper10InitializeEj(%"class.gpu::CommandBufferHelper"*, i32) local_unnamed_addr #1

declare i32 @_ZN3gpu5gles219GLES2Implementation10InitializeERKNS_18SharedMemoryLimitsE(%"class.gpu::gles2::GLES2Implementation"*, %"struct.gpu::SharedMemoryLimits"* dereferenceable(28)) local_unnamed_addr #1

; Function Attrs: nounwind ssp uwtable
define hidden void @_ZN5ppapi21PPB_Graphics3D_Shared16DestroyGLES2ImplEv(%"class.ppapi::PPB_Graphics3D_Shared"* nocapture) local_unnamed_addr #0 align 2 {
  %2 = getelementptr inbounds %"class.ppapi::PPB_Graphics3D_Shared", %"class.ppapi::PPB_Graphics3D_Shared"* %0, i64 0, i32 4, i32 0, i32 0, i32 0
  %3 = load %"class.gpu::gles2::GLES2Implementation"*, %"class.gpu::gles2::GLES2Implementation"** %2, align 8
  store %"class.gpu::gles2::GLES2Implementation"* null, %"class.gpu::gles2::GLES2Implementation"** %2, align 8
  %4 = icmp eq %"class.gpu::gles2::GLES2Implementation"* %3, null
  br i1 %4, label %10, label %5

5:                                                ; preds = %1
  %6 = bitcast %"class.gpu::gles2::GLES2Implementation"* %3 to void (%"class.gpu::gles2::GLES2Implementation"*)***
  %7 = load void (%"class.gpu::gles2::GLES2Implementation"*)**, void (%"class.gpu::gles2::GLES2Implementation"*)*** %6, align 8
  %8 = getelementptr inbounds void (%"class.gpu::gles2::GLES2Implementation"*)*, void (%"class.gpu::gles2::GLES2Implementation"*)** %7, i64 6
  %9 = load void (%"class.gpu::gles2::GLES2Implementation"*)*, void (%"class.gpu::gles2::GLES2Implementation"*)** %8, align 8
  tail call void %9(%"class.gpu::gles2::GLES2Implementation"* nonnull %3) #11
  br label %10

10:                                               ; preds = %1, %5
  %11 = getelementptr inbounds %"class.ppapi::PPB_Graphics3D_Shared", %"class.ppapi::PPB_Graphics3D_Shared"* %0, i64 0, i32 3, i32 0, i32 0, i32 0
  %12 = load %"class.gpu::TransferBuffer"*, %"class.gpu::TransferBuffer"** %11, align 8
  store %"class.gpu::TransferBuffer"* null, %"class.gpu::TransferBuffer"** %11, align 8
  %13 = icmp eq %"class.gpu::TransferBuffer"* %12, null
  br i1 %13, label %19, label %14

14:                                               ; preds = %10
  %15 = bitcast %"class.gpu::TransferBuffer"* %12 to void (%"class.gpu::TransferBuffer"*)***
  %16 = load void (%"class.gpu::TransferBuffer"*)**, void (%"class.gpu::TransferBuffer"*)*** %15, align 8
  %17 = getelementptr inbounds void (%"class.gpu::TransferBuffer"*)*, void (%"class.gpu::TransferBuffer"*)** %16, i64 1
  %18 = load void (%"class.gpu::TransferBuffer"*)*, void (%"class.gpu::TransferBuffer"*)** %17, align 8
  tail call void %18(%"class.gpu::TransferBuffer"* nonnull %12) #11
  br label %19

19:                                               ; preds = %10, %14
  %20 = getelementptr inbounds %"class.ppapi::PPB_Graphics3D_Shared", %"class.ppapi::PPB_Graphics3D_Shared"* %0, i64 0, i32 2, i32 0, i32 0, i32 0
  %21 = load %"class.gpu::gles2::GLES2CmdHelper"*, %"class.gpu::gles2::GLES2CmdHelper"** %20, align 8
  store %"class.gpu::gles2::GLES2CmdHelper"* null, %"class.gpu::gles2::GLES2CmdHelper"** %20, align 8
  %22 = icmp eq %"class.gpu::gles2::GLES2CmdHelper"* %21, null
  br i1 %22, label %28, label %23

23:                                               ; preds = %19
  %24 = bitcast %"class.gpu::gles2::GLES2CmdHelper"* %21 to void (%"class.gpu::gles2::GLES2CmdHelper"*)***
  %25 = load void (%"class.gpu::gles2::GLES2CmdHelper"*)**, void (%"class.gpu::gles2::GLES2CmdHelper"*)*** %24, align 8
  %26 = getelementptr inbounds void (%"class.gpu::gles2::GLES2CmdHelper"*)*, void (%"class.gpu::gles2::GLES2CmdHelper"*)** %25, i64 1
  %27 = load void (%"class.gpu::gles2::GLES2CmdHelper"*)*, void (%"class.gpu::gles2::GLES2CmdHelper"*)** %26, align 8
  tail call void %27(%"class.gpu::gles2::GLES2CmdHelper"* nonnull %21) #11
  br label %28

28:                                               ; preds = %19, %23
  ret void
}

declare void @_ZN5ppapi8Resource29NotifyLastPluginRefWasDeletedEv(%"class.ppapi::Resource"*) unnamed_addr #1

declare void @_ZN5ppapi8Resource24NotifyInstanceWasDeletedEv(%"class.ppapi::Resource"*) unnamed_addr #1

declare %"class.ppapi::thunk::PPB_Audio_API"* @_ZN5ppapi8Resource15AsPPB_Audio_APIEv(%"class.ppapi::Resource"*) unnamed_addr #1

declare %"class.ppapi::thunk::PPB_AudioBuffer_API"* @_ZN5ppapi8Resource21AsPPB_AudioBuffer_APIEv(%"class.ppapi::Resource"*) unnamed_addr #1

declare %"class.ppapi::thunk::PPB_AudioConfig_API"* @_ZN5ppapi8Resource21AsPPB_AudioConfig_APIEv(%"class.ppapi::Resource"*) unnamed_addr #1

declare %"class.ppapi::thunk::PPB_AudioInput_API"* @_ZN5ppapi8Resource20AsPPB_AudioInput_APIEv(%"class.ppapi::Resource"*) unnamed_addr #1

declare %"class.ppapi::thunk::PPB_AudioOutput_API"* @_ZN5ppapi8Resource21AsPPB_AudioOutput_APIEv(%"class.ppapi::Resource"*) unnamed_addr #1

declare %"class.ppapi::thunk::PPB_AudioTrusted_API"* @_ZN5ppapi8Resource22AsPPB_AudioTrusted_APIEv(%"class.ppapi::Resource"*) unnamed_addr #1

declare %"class.ppapi::thunk::PPB_BrowserFont_Singleton_API"* @_ZN5ppapi8Resource31AsPPB_BrowserFont_Singleton_APIEv(%"class.ppapi::Resource"*) unnamed_addr #1

declare %"class.ppapi::thunk::PPB_BrowserFont_Trusted_API"* @_ZN5ppapi8Resource29AsPPB_BrowserFont_Trusted_APIEv(%"class.ppapi::Resource"*) unnamed_addr #1

declare %"class.ppapi::thunk::PPB_Buffer_API"* @_ZN5ppapi8Resource16AsPPB_Buffer_APIEv(%"class.ppapi::Resource"*) unnamed_addr #1

declare %"class.ppapi::thunk::PPB_CameraCapabilities_API"* @_ZN5ppapi8Resource28AsPPB_CameraCapabilities_APIEv(%"class.ppapi::Resource"*) unnamed_addr #1

declare %"class.ppapi::thunk::PPB_CameraDevice_API"* @_ZN5ppapi8Resource22AsPPB_CameraDevice_APIEv(%"class.ppapi::Resource"*) unnamed_addr #1

declare %"class.ppapi::thunk::PPB_DeviceRef_API"* @_ZN5ppapi8Resource19AsPPB_DeviceRef_APIEv(%"class.ppapi::Resource"*) unnamed_addr #1

declare %"class.ppapi::thunk::PPB_Ext_CrxFileSystem_Private_API"* @_ZN5ppapi8Resource35AsPPB_Ext_CrxFileSystem_Private_APIEv(%"class.ppapi::Resource"*) unnamed_addr #1

declare %"class.ppapi::thunk::PPB_FileChooser_API"* @_ZN5ppapi8Resource21AsPPB_FileChooser_APIEv(%"class.ppapi::Resource"*) unnamed_addr #1

declare %"class.ppapi::thunk::PPB_FileIO_API"* @_ZN5ppapi8Resource16AsPPB_FileIO_APIEv(%"class.ppapi::Resource"*) unnamed_addr #1

declare %"class.ppapi::thunk::PPB_FileRef_API"* @_ZN5ppapi8Resource17AsPPB_FileRef_APIEv(%"class.ppapi::Resource"*) unnamed_addr #1

declare %"class.ppapi::thunk::PPB_FileSystem_API"* @_ZN5ppapi8Resource20AsPPB_FileSystem_APIEv(%"class.ppapi::Resource"*) unnamed_addr #1

declare %"class.ppapi::thunk::PPB_Find_API"* @_ZN5ppapi8Resource14AsPPB_Find_APIEv(%"class.ppapi::Resource"*) unnamed_addr #1

declare %"class.ppapi::thunk::PPB_Flash_FontFile_API"* @_ZN5ppapi8Resource24AsPPB_Flash_FontFile_APIEv(%"class.ppapi::Resource"*) unnamed_addr #1

declare %"class.ppapi::thunk::PPB_Flash_Fullscreen_API"* @_ZN5ppapi8Resource26AsPPB_Flash_Fullscreen_APIEv(%"class.ppapi::Resource"*) unnamed_addr #1

declare %"class.ppapi::thunk::PPB_Gamepad_API"* @_ZN5ppapi8Resource17AsPPB_Gamepad_APIEv(%"class.ppapi::Resource"*) unnamed_addr #1

declare %"class.ppapi::thunk::PPB_Graphics2D_API"* @_ZN5ppapi8Resource20AsPPB_Graphics2D_APIEv(%"class.ppapi::Resource"*) unnamed_addr #1

declare %"class.ppapi::thunk::PPB_HostResolver_API"* @_ZN5ppapi8Resource22AsPPB_HostResolver_APIEv(%"class.ppapi::Resource"*) unnamed_addr #1

declare %"class.ppapi::thunk::PPB_HostResolver_Private_API"* @_ZN5ppapi8Resource30AsPPB_HostResolver_Private_APIEv(%"class.ppapi::Resource"*) unnamed_addr #1

declare %"class.ppapi::thunk::PPB_ImageData_API"* @_ZN5ppapi8Resource19AsPPB_ImageData_APIEv(%"class.ppapi::Resource"*) unnamed_addr #1

declare %"class.ppapi::thunk::PPB_InputEvent_API"* @_ZN5ppapi8Resource20AsPPB_InputEvent_APIEv(%"class.ppapi::Resource"*) unnamed_addr #1

declare %"class.ppapi::thunk::PPB_IsolatedFileSystem_Private_API"* @_ZN5ppapi8Resource36AsPPB_IsolatedFileSystem_Private_APIEv(%"class.ppapi::Resource"*) unnamed_addr #1

declare %"class.ppapi::thunk::PPB_MediaStreamAudioTrack_API"* @_ZN5ppapi8Resource31AsPPB_MediaStreamAudioTrack_APIEv(%"class.ppapi::Resource"*) unnamed_addr #1

declare %"class.ppapi::thunk::PPB_MediaStreamVideoTrack_API"* @_ZN5ppapi8Resource31AsPPB_MediaStreamVideoTrack_APIEv(%"class.ppapi::Resource"*) unnamed_addr #1

declare %"class.ppapi::thunk::PPB_MessageLoop_API"* @_ZN5ppapi8Resource21AsPPB_MessageLoop_APIEv(%"class.ppapi::Resource"*) unnamed_addr #1

declare %"class.ppapi::thunk::PPB_NetAddress_API"* @_ZN5ppapi8Resource20AsPPB_NetAddress_APIEv(%"class.ppapi::Resource"*) unnamed_addr #1

declare %"class.ppapi::thunk::PPB_NetworkList_API"* @_ZN5ppapi8Resource21AsPPB_NetworkList_APIEv(%"class.ppapi::Resource"*) unnamed_addr #1

declare %"class.ppapi::thunk::PPB_NetworkMonitor_API"* @_ZN5ppapi8Resource24AsPPB_NetworkMonitor_APIEv(%"class.ppapi::Resource"*) unnamed_addr #1

declare %"class.ppapi::thunk::PPB_NetworkProxy_API"* @_ZN5ppapi8Resource22AsPPB_NetworkProxy_APIEv(%"class.ppapi::Resource"*) unnamed_addr #1

declare %"class.ppapi::thunk::PPB_PDF_API"* @_ZN5ppapi8Resource13AsPPB_PDF_APIEv(%"class.ppapi::Resource"*) unnamed_addr #1

declare %"class.ppapi::thunk::PPB_Printing_API"* @_ZN5ppapi8Resource18AsPPB_Printing_APIEv(%"class.ppapi::Resource"*) unnamed_addr #1

declare %"class.ppapi::thunk::PPB_Scrollbar_API"* @_ZN5ppapi8Resource19AsPPB_Scrollbar_APIEv(%"class.ppapi::Resource"*) unnamed_addr #1

declare %"class.ppapi::thunk::PPB_TCPServerSocket_Private_API"* @_ZN5ppapi8Resource33AsPPB_TCPServerSocket_Private_APIEv(%"class.ppapi::Resource"*) unnamed_addr #1

declare %"class.ppapi::thunk::PPB_TCPSocket_API"* @_ZN5ppapi8Resource19AsPPB_TCPSocket_APIEv(%"class.ppapi::Resource"*) unnamed_addr #1

declare %"class.ppapi::thunk::PPB_TCPSocket_Private_API"* @_ZN5ppapi8Resource27AsPPB_TCPSocket_Private_APIEv(%"class.ppapi::Resource"*) unnamed_addr #1

declare %"class.ppapi::thunk::PPB_UDPSocket_API"* @_ZN5ppapi8Resource19AsPPB_UDPSocket_APIEv(%"class.ppapi::Resource"*) unnamed_addr #1

declare %"class.ppapi::thunk::PPB_UDPSocket_Private_API"* @_ZN5ppapi8Resource27AsPPB_UDPSocket_Private_APIEv(%"class.ppapi::Resource"*) unnamed_addr #1

declare %"class.ppapi::thunk::PPB_UMA_Singleton_API"* @_ZN5ppapi8Resource23AsPPB_UMA_Singleton_APIEv(%"class.ppapi::Resource"*) unnamed_addr #1

declare %"class.ppapi::thunk::PPB_URLLoader_API"* @_ZN5ppapi8Resource19AsPPB_URLLoader_APIEv(%"class.ppapi::Resource"*) unnamed_addr #1

declare %"class.ppapi::thunk::PPB_URLRequestInfo_API"* @_ZN5ppapi8Resource24AsPPB_URLRequestInfo_APIEv(%"class.ppapi::Resource"*) unnamed_addr #1

declare %"class.ppapi::thunk::PPB_URLResponseInfo_API"* @_ZN5ppapi8Resource25AsPPB_URLResponseInfo_APIEv(%"class.ppapi::Resource"*) unnamed_addr #1

declare %"class.ppapi::thunk::PPB_VideoCapture_API"* @_ZN5ppapi8Resource22AsPPB_VideoCapture_APIEv(%"class.ppapi::Resource"*) unnamed_addr #1

declare %"class.ppapi::thunk::PPB_VideoDecoder_API"* @_ZN5ppapi8Resource22AsPPB_VideoDecoder_APIEv(%"class.ppapi::Resource"*) unnamed_addr #1

declare %"class.ppapi::thunk::PPB_VideoDecoder_Dev_API"* @_ZN5ppapi8Resource26AsPPB_VideoDecoder_Dev_APIEv(%"class.ppapi::Resource"*) unnamed_addr #1

declare %"class.ppapi::thunk::PPB_VideoEncoder_API"* @_ZN5ppapi8Resource22AsPPB_VideoEncoder_APIEv(%"class.ppapi::Resource"*) unnamed_addr #1

declare %"class.ppapi::thunk::PPB_VideoFrame_API"* @_ZN5ppapi8Resource20AsPPB_VideoFrame_APIEv(%"class.ppapi::Resource"*) unnamed_addr #1

declare %"class.ppapi::thunk::PPB_VideoLayer_API"* @_ZN5ppapi8Resource20AsPPB_VideoLayer_APIEv(%"class.ppapi::Resource"*) unnamed_addr #1

declare %"class.ppapi::thunk::PPB_View_API"* @_ZN5ppapi8Resource14AsPPB_View_APIEv(%"class.ppapi::Resource"*) unnamed_addr #1

declare %"class.ppapi::thunk::PPB_VpnProvider_API"* @_ZN5ppapi8Resource21AsPPB_VpnProvider_APIEv(%"class.ppapi::Resource"*) unnamed_addr #1

declare %"class.ppapi::thunk::PPB_WebSocket_API"* @_ZN5ppapi8Resource19AsPPB_WebSocket_APIEv(%"class.ppapi::Resource"*) unnamed_addr #1

declare %"class.ppapi::thunk::PPB_Widget_API"* @_ZN5ppapi8Resource16AsPPB_Widget_APIEv(%"class.ppapi::Resource"*) unnamed_addr #1

declare %"class.ppapi::thunk::PPB_X509Certificate_Private_API"* @_ZN5ppapi8Resource33AsPPB_X509Certificate_Private_APIEv(%"class.ppapi::Resource"*) unnamed_addr #1

declare void @_ZN5ppapi8Resource15OnReplyReceivedERKNS_5proxy26ResourceMessageReplyParamsERKN3IPC7MessageE(%"class.ppapi::Resource"*, %"class.ppapi::proxy::ResourceMessageReplyParams"*, %"class.IPC::Message"*) unnamed_addr #1

; Function Attrs: nounwind ssp uwtable
define linkonce_odr hidden void @_ZN5ppapi8Resource23LastPluginRefWasDeletedEv(%"class.ppapi::Resource"*) unnamed_addr #0 comdat align 2 {
  ret void
}

; Function Attrs: nounwind ssp uwtable
define linkonce_odr hidden void @_ZN5ppapi8Resource18InstanceWasDeletedEv(%"class.ppapi::Resource"*) unnamed_addr #0 comdat align 2 {
  ret void
}

declare void @__cxa_pure_virtual() unnamed_addr

declare i64 @_ZN4base7SysInfo22AmountOfPhysicalMemoryEv() local_unnamed_addr #1

; Function Attrs: nounwind readnone
declare i1 @llvm.is.constant.i64(i64) #8

; Function Attrs: nobuiltin nounwind
declare void @_ZdlPv(i8*) local_unnamed_addr #9

; Function Attrs: nounwind
declare void @_ZN5ppapi15TrackedCallbackD1Ev(%"class.ppapi::TrackedCallback"*) unnamed_addr #3

; Function Attrs: nobuiltin nofree
declare noalias nonnull i8* @_Znwm(i64) local_unnamed_addr #10

declare void @_ZN3gpu5gles214GLES2CmdHelperC1EPNS_13CommandBufferE(%"class.gpu::gles2::GLES2CmdHelper"*, %"class.gpu::CommandBuffer"*) unnamed_addr #1

declare void @_ZN3gpu14TransferBufferC1EPNS_19CommandBufferHelperE(%"class.gpu::TransferBuffer"*, %"class.gpu::CommandBufferHelper"*) unnamed_addr #1

; Function Attrs: nounwind
declare void @_ZN3gpu5gles210ShareGroupD1Ev(%"class.gpu::gles2::ShareGroup"*) unnamed_addr #3

declare void @_ZN3gpu5gles219GLES2ImplementationC1EPNS0_14GLES2CmdHelperE13scoped_refptrINS0_10ShareGroupEEPNS_23TransferBufferInterfaceEbbbPNS_10GpuControlE(%"class.gpu::gles2::GLES2Implementation"*, %"class.gpu::gles2::GLES2CmdHelper"*, %"class.gpu::gles2::ShareGroup"*, %"class.gpu::TransferBufferInterface"*, i1 zeroext, i1 zeroext, i1 zeroext, %"class.gpu::GpuControl"*) unnamed_addr #1

; Function Attrs: argmemonly nounwind
declare void @llvm.memset.p0i8.i64(i8* nocapture writeonly, i8, i64, i1 immarg) #2

attributes #0 = { nounwind ssp uwtable "correctly-rounded-divide-sqrt-fp-math"="false" "disable-tail-calls"="false" "less-precise-fpmad"="false" "min-legal-vector-width"="0" "no-frame-pointer-elim"="false" "no-frame-pointer-elim-non-leaf" "no-infs-fp-math"="false" "no-jump-tables"="false" "no-nans-fp-math"="false" "no-signed-zeros-fp-math"="false" "no-trapping-math"="false" "null-pointer-is-valid"="true" "stack-protector-buffer-size"="4" "target-cpu"="x86-64" "target-features"="+cx8,+fxsr,+mmx,+sse,+sse2,+sse3,+x87" "unsafe-fp-math"="false" "use-soft-float"="false" }
attributes #1 = { "correctly-rounded-divide-sqrt-fp-math"="false" "disable-tail-calls"="false" "less-precise-fpmad"="false" "no-frame-pointer-elim"="false" "no-frame-pointer-elim-non-leaf" "no-infs-fp-math"="false" "no-nans-fp-math"="false" "no-signed-zeros-fp-math"="false" "no-trapping-math"="false" "null-pointer-is-valid"="true" "stack-protector-buffer-size"="4" "target-cpu"="x86-64" "target-features"="+cx8,+fxsr,+mmx,+sse,+sse2,+sse3,+x87" "unsafe-fp-math"="false" "use-soft-float"="false" }
attributes #2 = { argmemonly nounwind }
attributes #3 = { nounwind "correctly-rounded-divide-sqrt-fp-math"="false" "disable-tail-calls"="false" "less-precise-fpmad"="false" "no-frame-pointer-elim"="false" "no-frame-pointer-elim-non-leaf" "no-infs-fp-math"="false" "no-nans-fp-math"="false" "no-signed-zeros-fp-math"="false" "no-trapping-math"="false" "null-pointer-is-valid"="true" "stack-protector-buffer-size"="4" "target-cpu"="x86-64" "target-features"="+cx8,+fxsr,+mmx,+sse,+sse2,+sse3,+x87" "unsafe-fp-math"="false" "use-soft-float"="false" }
attributes #4 = { noreturn nounwind ssp uwtable "correctly-rounded-divide-sqrt-fp-math"="false" "disable-tail-calls"="false" "less-precise-fpmad"="false" "min-legal-vector-width"="0" "no-frame-pointer-elim"="false" "no-frame-pointer-elim-non-leaf" "no-infs-fp-math"="false" "no-jump-tables"="false" "no-nans-fp-math"="false" "no-signed-zeros-fp-math"="false" "no-trapping-math"="false" "null-pointer-is-valid"="true" "stack-protector-buffer-size"="4" "target-cpu"="x86-64" "target-features"="+cx8,+fxsr,+mmx,+sse,+sse2,+sse3,+x87" "unsafe-fp-math"="false" "use-soft-float"="false" }
attributes #5 = { cold noreturn nounwind }
attributes #6 = { norecurse nounwind readnone ssp uwtable "correctly-rounded-divide-sqrt-fp-math"="false" "disable-tail-calls"="false" "less-precise-fpmad"="false" "min-legal-vector-width"="0" "no-frame-pointer-elim"="false" "no-frame-pointer-elim-non-leaf" "no-infs-fp-math"="false" "no-jump-tables"="false" "no-nans-fp-math"="false" "no-signed-zeros-fp-math"="false" "no-trapping-math"="false" "null-pointer-is-valid"="true" "stack-protector-buffer-size"="4" "target-cpu"="x86-64" "target-features"="+cx8,+fxsr,+mmx,+sse,+sse2,+sse3,+x87" "unsafe-fp-math"="false" "use-soft-float"="false" }
attributes #7 = { norecurse nounwind readonly ssp uwtable "correctly-rounded-divide-sqrt-fp-math"="false" "disable-tail-calls"="false" "less-precise-fpmad"="false" "min-legal-vector-width"="0" "no-frame-pointer-elim"="false" "no-frame-pointer-elim-non-leaf" "no-infs-fp-math"="false" "no-jump-tables"="false" "no-nans-fp-math"="false" "no-signed-zeros-fp-math"="false" "no-trapping-math"="false" "null-pointer-is-valid"="true" "stack-protector-buffer-size"="4" "target-cpu"="x86-64" "target-features"="+cx8,+fxsr,+mmx,+sse,+sse2,+sse3,+x87" "unsafe-fp-math"="false" "use-soft-float"="false" }
attributes #8 = { nounwind readnone }
attributes #9 = { nobuiltin nounwind "correctly-rounded-divide-sqrt-fp-math"="false" "disable-tail-calls"="false" "less-precise-fpmad"="false" "no-frame-pointer-elim"="false" "no-frame-pointer-elim-non-leaf" "no-infs-fp-math"="false" "no-nans-fp-math"="false" "no-signed-zeros-fp-math"="false" "no-trapping-math"="false" "null-pointer-is-valid"="true" "stack-protector-buffer-size"="4" "target-cpu"="x86-64" "target-features"="+cx8,+fxsr,+mmx,+sse,+sse2,+sse3,+x87" "unsafe-fp-math"="false" "use-soft-float"="false" }
attributes #10 = { nobuiltin nofree "correctly-rounded-divide-sqrt-fp-math"="false" "disable-tail-calls"="false" "less-precise-fpmad"="false" "no-frame-pointer-elim"="false" "no-frame-pointer-elim-non-leaf" "no-infs-fp-math"="false" "no-nans-fp-math"="false" "no-signed-zeros-fp-math"="false" "no-trapping-math"="false" "null-pointer-is-valid"="true" "stack-protector-buffer-size"="4" "target-cpu"="x86-64" "target-features"="+cx8,+fxsr,+mmx,+sse,+sse2,+sse3,+x87" "unsafe-fp-math"="false" "use-soft-float"="false" }
attributes #11 = { nounwind }
attributes #12 = { builtin nounwind }
attributes #13 = { noreturn nounwind }

!llvm.module.flags = !{!0, !1}

!0 = !{i32 1, !"wchar_size", i32 4}
!1 = !{i32 7, !"PIC Level", i32 2}
!2 = !{!"branch_weights", i32 2000, i32 1}
