; ModuleID = '../../chrome/browser/prefetch/prefetch_proxy/prefetch_proxy_from_string_url_loader.cc'
source_filename = "../../chrome/browser/prefetch/prefetch_proxy/prefetch_proxy_from_string_url_loader.cc"
target datalayout = "e-m:e-i64:64-f80:128-n8:16:32:64-S128"
target triple = "x86_64-unknown-linux-gnu"

module asm ".symver exp, exp@GLIBC_2.2.5"
module asm ".symver exp2, exp2@GLIBC_2.2.5"
module asm ".symver exp2f, exp2f@GLIBC_2.2.5"
module asm ".symver expf, expf@GLIBC_2.2.5"
module asm ".symver lgamma, lgamma@GLIBC_2.2.5"
module asm ".symver lgammaf, lgammaf@GLIBC_2.2.5"
module asm ".symver lgammal, lgammal@GLIBC_2.2.5"
module asm ".symver log, log@GLIBC_2.2.5"
module asm ".symver log2, log2@GLIBC_2.2.5"
module asm ".symver log2f, log2f@GLIBC_2.2.5"
module asm ".symver logf, logf@GLIBC_2.2.5"
module asm ".symver pow, pow@GLIBC_2.2.5"
module asm ".symver powf, powf@GLIBC_2.2.5"

%class.PrefetchProxyFromStringURLLoader = type { %"class.network::mojom::URLLoader", %"class.mojo::StructPtr", %class.scoped_refptr.200, i32, i32, %"class.mojo::Receiver", %"class.mojo::Remote", %"class.mojo::ScopedHandleBase.390", %"class.std::__1::unique_ptr.227", %"class.base::WeakPtrFactory.391" }
%"class.network::mojom::URLLoader" = type { i32 (...)** }
%"class.mojo::StructPtr" = type { %"class.std::__1::unique_ptr" }
%"class.std::__1::unique_ptr" = type { %"class.std::__1::__compressed_pair" }
%"class.std::__1::__compressed_pair" = type { %"struct.std::__1::__compressed_pair_elem" }
%"struct.std::__1::__compressed_pair_elem" = type { %"class.network::mojom::URLResponseHead"* }
%"class.network::mojom::URLResponseHead" = type <{ %"class.base::Time", %"class.base::Time", %class.scoped_refptr, %"class.std::__1::basic_string", %"class.std::__1::basic_string", i32, [4 x i8], i64, i64, i64, i8, [7 x i8], i64, %class.GURL, %"struct.net::LoadTimingInfo", %"class.mojo::StructPtr.14", i8, i8, i8, i8, i32, %"class.std::__1::basic_string", %"class.net::IPEndPoint", i8, i8, [2 x i8], %"class.net::ProxyServer", i8, [3 x i8], i32, %"class.std::__1::vector.28", i32, [4 x i8], i64, %"class.std::__1::basic_string", i32, [4 x i8], %"class.absl::optional", %"class.std::__1::vector.37", i8, i8, i8, i8, i8, i8, i8, i8, i8, i8, i8, [5 x i8], %"class.absl::optional.72", %"class.base::TimeTicks", %"class.base::TimeTicks", %"class.mojo::StructPtr.82", %"class.absl::optional.181", %"class.absl::optional.192", %"class.std::__1::vector.37", %class.GURL, i8, [7 x i8] }>
%"class.base::Time" = type { %"class.base::time_internal::TimeBase" }
%"class.base::time_internal::TimeBase" = type { i64 }
%class.scoped_refptr = type { %"class.net::HttpResponseHeaders"* }
%"class.net::HttpResponseHeaders" = type { %"class.base::RefCountedThreadSafe", %"class.std::__1::vector", %"class.std::__1::basic_string", i32, %"class.net::HttpVersion" }
%"class.base::RefCountedThreadSafe" = type { %"class.base::subtle::RefCountedThreadSafeBase" }
%"class.base::subtle::RefCountedThreadSafeBase" = type { %"class.base::AtomicRefCount" }
%"class.base::AtomicRefCount" = type { %"struct.std::__1::atomic" }
%"struct.std::__1::atomic" = type { %"struct.std::__1::__atomic_base" }
%"struct.std::__1::__atomic_base" = type { %"struct.std::__1::__atomic_base.0" }
%"struct.std::__1::__atomic_base.0" = type { %"struct.std::__1::__cxx_atomic_impl" }
%"struct.std::__1::__cxx_atomic_impl" = type { %"struct.std::__1::__cxx_atomic_base_impl" }
%"struct.std::__1::__cxx_atomic_base_impl" = type { i32 }
%"class.std::__1::vector" = type { %"class.std::__1::__vector_base" }
%"class.std::__1::__vector_base" = type { %"struct.net::HttpResponseHeaders::ParsedHeader"*, %"struct.net::HttpResponseHeaders::ParsedHeader"*, %"class.std::__1::__compressed_pair.1" }
%"struct.net::HttpResponseHeaders::ParsedHeader" = type opaque
%"class.std::__1::__compressed_pair.1" = type { %"struct.std::__1::__compressed_pair_elem.2" }
%"struct.std::__1::__compressed_pair_elem.2" = type { %"struct.net::HttpResponseHeaders::ParsedHeader"* }
%"class.net::HttpVersion" = type { i32 }
%"struct.net::LoadTimingInfo" = type { i8, i32, %"class.base::Time", %"class.base::TimeTicks", %"class.base::TimeTicks", %"class.base::TimeTicks", %"class.base::TimeTicks", %"class.base::TimeTicks", %"class.base::TimeTicks", %"class.base::TimeTicks", %"struct.net::LoadTimingInfo::ConnectTiming", %"class.base::TimeTicks", %"class.base::TimeTicks", %"class.base::TimeTicks", %"class.base::TimeTicks", %"class.base::TimeTicks", %"class.base::TimeTicks", %"class.base::TimeTicks", %"class.base::TimeTicks" }
%"struct.net::LoadTimingInfo::ConnectTiming" = type { %"class.base::TimeTicks", %"class.base::TimeTicks", %"class.base::TimeTicks", %"class.base::TimeTicks", %"class.base::TimeTicks", %"class.base::TimeTicks" }
%"class.mojo::StructPtr.14" = type { %"class.std::__1::unique_ptr.15" }
%"class.std::__1::unique_ptr.15" = type { %"class.std::__1::__compressed_pair.16" }
%"class.std::__1::__compressed_pair.16" = type { %"struct.std::__1::__compressed_pair_elem.17" }
%"struct.std::__1::__compressed_pair_elem.17" = type { %"class.network::mojom::HttpRawRequestResponseInfo"* }
%"class.network::mojom::HttpRawRequestResponseInfo" = type { i32, %"class.std::__1::basic_string", %"class.std::__1::vector.18", %"class.std::__1::vector.18", %"class.std::__1::basic_string", %"class.std::__1::basic_string" }
%"class.std::__1::vector.18" = type { %"class.std::__1::__vector_base.19" }
%"class.std::__1::__vector_base.19" = type { %"class.mojo::InlinedStructPtr"*, %"class.mojo::InlinedStructPtr"*, %"class.std::__1::__compressed_pair.20" }
%"class.mojo::InlinedStructPtr" = type <{ %"class.network::mojom::HttpRawHeaderPair", i32, [4 x i8] }>
%"class.network::mojom::HttpRawHeaderPair" = type { %"class.std::__1::basic_string", %"class.std::__1::basic_string" }
%"class.std::__1::__compressed_pair.20" = type { %"struct.std::__1::__compressed_pair_elem.21" }
%"struct.std::__1::__compressed_pair_elem.21" = type { %"class.mojo::InlinedStructPtr"* }
%"class.net::IPEndPoint" = type { %"class.net::IPAddress", i16 }
%"class.net::IPAddress" = type { %"class.net::IPAddressBytes" }
%"class.net::IPAddressBytes" = type { %"struct.std::__1::array", i8 }
%"struct.std::__1::array" = type { [16 x i8] }
%"class.net::ProxyServer" = type { i32, [4 x i8], %"class.net::HostPortPair" }
%"class.net::HostPortPair" = type <{ %"class.std::__1::basic_string", i16, [6 x i8] }>
%"class.std::__1::vector.28" = type { %"class.std::__1::__vector_base.29" }
%"class.std::__1::__vector_base.29" = type { %class.GURL*, %class.GURL*, %"class.std::__1::__compressed_pair.30" }
%"class.std::__1::__compressed_pair.30" = type { %"struct.std::__1::__compressed_pair_elem.11" }
%"struct.std::__1::__compressed_pair_elem.11" = type { %class.GURL* }
%"class.std::__1::basic_string" = type { %"class.std::__1::__compressed_pair.4" }
%"class.std::__1::__compressed_pair.4" = type { %"struct.std::__1::__compressed_pair_elem.5" }
%"struct.std::__1::__compressed_pair_elem.5" = type { %"struct.std::__1::basic_string<char, std::__1::char_traits<char>, std::__1::allocator<char> >::__rep" }
%"struct.std::__1::basic_string<char, std::__1::char_traits<char>, std::__1::allocator<char> >::__rep" = type { %union.anon }
%union.anon = type { %"struct.std::__1::basic_string<char, std::__1::char_traits<char>, std::__1::allocator<char> >::__long" }
%"struct.std::__1::basic_string<char, std::__1::char_traits<char>, std::__1::allocator<char> >::__long" = type { i8*, i64, i64 }
%"class.absl::optional" = type { %"class.absl::optional_internal::optional_data" }
%"class.absl::optional_internal::optional_data" = type { %"class.absl::optional_internal::optional_data_base" }
%"class.absl::optional_internal::optional_data_base" = type { %"class.absl::optional_internal::optional_data_dtor_base" }
%"class.absl::optional_internal::optional_data_dtor_base" = type { i8, [7 x i8], %union.anon.34 }
%union.anon.34 = type { %"class.net::SSLInfo" }
%"class.net::SSLInfo" = type <{ %class.scoped_refptr.35, %class.scoped_refptr.35, i32, i16, i16, i32, i8, i8, i8, i8, i32, [4 x i8], %"class.std::__1::vector.55", %"class.std::__1::basic_string", %"class.std::__1::vector.63", i32, %"struct.net::OCSPVerifyResult", i8, [3 x i8] }>
%class.scoped_refptr.35 = type { %"class.net::X509Certificate"* }
%"class.net::X509Certificate" = type { %"class.base::RefCountedThreadSafe.36", %"struct.net::CertPrincipal", %"struct.net::CertPrincipal", %"class.base::Time", %"class.base::Time", %"class.std::__1::basic_string", %"class.std::__1::unique_ptr.44", %"class.std::__1::vector.48" }
%"class.base::RefCountedThreadSafe.36" = type { %"class.base::subtle::RefCountedThreadSafeBase" }
%"struct.net::CertPrincipal" = type { %"class.std::__1::basic_string", %"class.std::__1::basic_string", %"class.std::__1::basic_string", %"class.std::__1::basic_string", %"class.std::__1::vector.37", %"class.std::__1::vector.37", %"class.std::__1::vector.37", %"class.std::__1::vector.37" }
%"class.std::__1::unique_ptr.44" = type { %"class.std::__1::__compressed_pair.45" }
%"class.std::__1::__compressed_pair.45" = type { %"struct.std::__1::__compressed_pair_elem.46" }
%"struct.std::__1::__compressed_pair_elem.46" = type { %struct.crypto_buffer_st* }
%struct.crypto_buffer_st = type opaque
%"class.std::__1::vector.48" = type { %"class.std::__1::__vector_base.49" }
%"class.std::__1::__vector_base.49" = type { %"class.std::__1::unique_ptr.44"*, %"class.std::__1::unique_ptr.44"*, %"class.std::__1::__compressed_pair.50" }
%"class.std::__1::__compressed_pair.50" = type { %"struct.std::__1::__compressed_pair_elem.51" }
%"struct.std::__1::__compressed_pair_elem.51" = type { %"class.std::__1::unique_ptr.44"* }
%"class.std::__1::vector.55" = type { %"class.std::__1::__vector_base.56" }
%"class.std::__1::__vector_base.56" = type { %"class.net::HashValue"*, %"class.net::HashValue"*, %"class.std::__1::__compressed_pair.58" }
%"class.net::HashValue" = type { i32, %union.anon.57 }
%union.anon.57 = type { %"struct.net::SHA256HashValue" }
%"struct.net::SHA256HashValue" = type { [32 x i8] }
%"class.std::__1::__compressed_pair.58" = type { %"struct.std::__1::__compressed_pair_elem.59" }
%"struct.std::__1::__compressed_pair_elem.59" = type { %"class.net::HashValue"* }
%"class.std::__1::vector.63" = type { %"class.std::__1::__vector_base.64" }
%"class.std::__1::__vector_base.64" = type { %"struct.net::SignedCertificateTimestampAndStatus"*, %"struct.net::SignedCertificateTimestampAndStatus"*, %"class.std::__1::__compressed_pair.67" }
%"struct.net::SignedCertificateTimestampAndStatus" = type <{ %class.scoped_refptr.65, i32, [4 x i8] }>
%class.scoped_refptr.65 = type { %"struct.net::ct::SignedCertificateTimestamp"* }
%"struct.net::ct::SignedCertificateTimestamp" = type { %"class.base::RefCountedThreadSafe.66", i32, %"class.std::__1::basic_string", %"class.base::Time", %"class.std::__1::basic_string", %"struct.net::ct::DigitallySigned", i32, %"class.std::__1::basic_string" }
%"class.base::RefCountedThreadSafe.66" = type { %"class.base::subtle::RefCountedThreadSafeBase" }
%"struct.net::ct::DigitallySigned" = type { i32, i32, %"class.std::__1::basic_string" }
%"class.std::__1::__compressed_pair.67" = type { %"struct.std::__1::__compressed_pair_elem.68" }
%"struct.std::__1::__compressed_pair_elem.68" = type { %"struct.net::SignedCertificateTimestampAndStatus"* }
%"struct.net::OCSPVerifyResult" = type { i32, i32 }
%"class.absl::optional.72" = type { %"class.absl::optional_internal::optional_data.73" }
%"class.absl::optional_internal::optional_data.73" = type { %"class.absl::optional_internal::optional_data_base.74" }
%"class.absl::optional_internal::optional_data_base.74" = type { %"class.absl::optional_internal::optional_data_dtor_base.75" }
%"class.absl::optional_internal::optional_data_dtor_base.75" = type { i8, %union.anon.76 }
%union.anon.76 = type { %"class.net::AuthChallengeInfo" }
%"class.net::AuthChallengeInfo" = type { i8, %"class.url::Origin", %"class.std::__1::basic_string", %"class.std::__1::basic_string", %"class.std::__1::basic_string", %"class.std::__1::basic_string" }
%"class.url::Origin" = type { %"class.url::SchemeHostPort", %"class.absl::optional.77" }
%"class.url::SchemeHostPort" = type <{ %"class.std::__1::basic_string", %"class.std::__1::basic_string", i16, [6 x i8] }>
%"class.absl::optional.77" = type { %"class.absl::optional_internal::optional_data.78" }
%"class.absl::optional_internal::optional_data.78" = type { %"class.absl::optional_internal::optional_data_base.79" }
%"class.absl::optional_internal::optional_data_base.79" = type { %"class.absl::optional_internal::optional_data_dtor_base.80" }
%"class.absl::optional_internal::optional_data_dtor_base.80" = type { i8, %union.anon.81 }
%union.anon.81 = type { %"class.url::Origin::Nonce" }
%"class.url::Origin::Nonce" = type { %"class.base::UnguessableToken" }
%"class.base::UnguessableToken" = type { %"class.base::Token" }
%"class.base::Token" = type { i64, i64 }
%"class.base::TimeTicks" = type { %"class.base::time_internal::TimeBase.13" }
%"class.base::time_internal::TimeBase.13" = type { i64 }
%"class.mojo::StructPtr.82" = type { %"class.std::__1::unique_ptr.83" }
%"class.std::__1::unique_ptr.83" = type { %"class.std::__1::__compressed_pair.84" }
%"class.std::__1::__compressed_pair.84" = type { %"struct.std::__1::__compressed_pair_elem.85" }
%"struct.std::__1::__compressed_pair_elem.85" = type { %"class.network::mojom::ParsedHeaders"* }
%"class.network::mojom::ParsedHeaders" = type <{ %"class.std::__1::vector.86", %"class.mojo::StructPtr.133", %"struct.network::CrossOriginEmbedderPolicy", %"struct.network::CrossOriginOpenerPolicy", i8, [7 x i8], %"class.absl::optional.145", %"class.base::TimeDelta", %"class.absl::optional.145", i32, [4 x i8], %"class.std::__1::vector.157", %"class.mojo::StructPtr.171", i8, [7 x i8] }>
%"class.std::__1::vector.86" = type { %"class.std::__1::__vector_base.87" }
%"class.std::__1::__vector_base.87" = type { %"class.mojo::StructPtr.88"*, %"class.mojo::StructPtr.88"*, %"class.std::__1::__compressed_pair.128" }
%"class.mojo::StructPtr.88" = type { %"class.std::__1::unique_ptr.89" }
%"class.std::__1::unique_ptr.89" = type { %"class.std::__1::__compressed_pair.90" }
%"class.std::__1::__compressed_pair.90" = type { %"struct.std::__1::__compressed_pair_elem.91" }
%"struct.std::__1::__compressed_pair_elem.91" = type { %"class.network::mojom::ContentSecurityPolicy"* }
%"class.network::mojom::ContentSecurityPolicy" = type { %"class.mojo::StructPtr.92", %"class.base::flat_map", %"class.base::flat_map.106", i8, i8, i8, i32, %"class.mojo::InlinedStructPtr.116", i8, %"class.std::__1::vector.37", i32, %"class.mojo::StructPtr.118", %"class.std::__1::vector.37" }
%"class.mojo::StructPtr.92" = type { %"class.std::__1::unique_ptr.93" }
%"class.std::__1::unique_ptr.93" = type { %"class.std::__1::__compressed_pair.94" }
%"class.std::__1::__compressed_pair.94" = type { %"struct.std::__1::__compressed_pair_elem.95" }
%"struct.std::__1::__compressed_pair_elem.95" = type { %"class.network::mojom::CSPSource"* }
%"class.network::mojom::CSPSource" = type <{ %"class.std::__1::basic_string", %"class.std::__1::basic_string", i32, [4 x i8], %"class.std::__1::basic_string", i8, i8, [6 x i8] }>
%"class.base::flat_map" = type { %"class.base::internal::flat_tree" }
%"class.base::internal::flat_tree" = type { %"class.std::__1::vector.99" }
%"class.std::__1::vector.99" = type { %"class.std::__1::__vector_base.100" }
%"class.std::__1::__vector_base.100" = type { %"struct.std::__1::pair"*, %"struct.std::__1::pair"*, %"class.std::__1::__compressed_pair.101" }
%"struct.std::__1::pair" = type opaque
%"class.std::__1::__compressed_pair.101" = type { %"struct.std::__1::__compressed_pair_elem.102" }
%"struct.std::__1::__compressed_pair_elem.102" = type { %"struct.std::__1::pair"* }
%"class.base::flat_map.106" = type { %"class.base::internal::flat_tree.107" }
%"class.base::internal::flat_tree.107" = type { %"class.std::__1::vector.108" }
%"class.std::__1::vector.108" = type { %"class.std::__1::__vector_base.109" }
%"class.std::__1::__vector_base.109" = type { %"struct.std::__1::pair.110"*, %"struct.std::__1::pair.110"*, %"class.std::__1::__compressed_pair.111" }
%"struct.std::__1::pair.110" = type opaque
%"class.std::__1::__compressed_pair.111" = type { %"struct.std::__1::__compressed_pair_elem.112" }
%"struct.std::__1::__compressed_pair_elem.112" = type { %"struct.std::__1::pair.110"* }
%"class.mojo::InlinedStructPtr.116" = type <{ %"class.network::mojom::ContentSecurityPolicyHeader", i32, [4 x i8] }>
%"class.network::mojom::ContentSecurityPolicyHeader" = type { %"class.std::__1::basic_string", i32, i32 }
%"class.mojo::StructPtr.118" = type { %"class.std::__1::unique_ptr.119" }
%"class.std::__1::unique_ptr.119" = type { %"class.std::__1::__compressed_pair.120" }
%"class.std::__1::__compressed_pair.120" = type { %"struct.std::__1::__compressed_pair_elem.121" }
%"struct.std::__1::__compressed_pair_elem.121" = type { %"class.network::mojom::CSPTrustedTypes"* }
%"class.network::mojom::CSPTrustedTypes" = type <{ %"class.std::__1::vector.37", i8, i8, [6 x i8] }>
%"class.std::__1::__compressed_pair.128" = type { %"struct.std::__1::__compressed_pair_elem.129" }
%"struct.std::__1::__compressed_pair_elem.129" = type { %"class.mojo::StructPtr.88"* }
%"class.mojo::StructPtr.133" = type { %"class.std::__1::unique_ptr.134" }
%"class.std::__1::unique_ptr.134" = type { %"class.std::__1::__compressed_pair.135" }
%"class.std::__1::__compressed_pair.135" = type { %"struct.std::__1::__compressed_pair_elem.136" }
%"struct.std::__1::__compressed_pair_elem.136" = type { %"class.network::mojom::AllowCSPFromHeaderValue"* }
%"class.network::mojom::AllowCSPFromHeaderValue" = type { i32, %"union.network::mojom::AllowCSPFromHeaderValue::Union_" }
%"union.network::mojom::AllowCSPFromHeaderValue::Union_" = type { %"class.url::Origin"* }
%"struct.network::CrossOriginEmbedderPolicy" = type { i32, %"class.absl::optional.140", i32, %"class.absl::optional.140" }
%"class.absl::optional.140" = type { %"class.absl::optional_internal::optional_data.141" }
%"class.absl::optional_internal::optional_data.141" = type { %"class.absl::optional_internal::optional_data_base.142" }
%"class.absl::optional_internal::optional_data_base.142" = type { %"class.absl::optional_internal::optional_data_dtor_base.143" }
%"class.absl::optional_internal::optional_data_dtor_base.143" = type { i8, %union.anon.144 }
%union.anon.144 = type { %"class.std::__1::basic_string" }
%"struct.network::CrossOriginOpenerPolicy" = type { i32, %"class.absl::optional.140", i32, %"class.absl::optional.140" }
%"class.base::TimeDelta" = type { i64 }
%"class.absl::optional.145" = type { %"class.absl::optional_internal::optional_data.146" }
%"class.absl::optional_internal::optional_data.146" = type { %"class.absl::optional_internal::optional_data_base.147" }
%"class.absl::optional_internal::optional_data_base.147" = type { %"class.absl::optional_internal::optional_data_dtor_base.148" }
%"class.absl::optional_internal::optional_data_dtor_base.148" = type { i8, %union.anon.149 }
%union.anon.149 = type { %"class.std::__1::vector.150" }
%"class.std::__1::vector.150" = type { %"class.std::__1::__vector_base.151" }
%"class.std::__1::__vector_base.151" = type { i32*, i32*, %"class.std::__1::__compressed_pair.152" }
%"class.std::__1::__compressed_pair.152" = type { %"struct.std::__1::__compressed_pair_elem.153" }
%"struct.std::__1::__compressed_pair_elem.153" = type { i32* }
%"class.std::__1::vector.157" = type { %"class.std::__1::__vector_base.158" }
%"class.std::__1::__vector_base.158" = type { %"class.mojo::StructPtr.159"*, %"class.mojo::StructPtr.159"*, %"class.std::__1::__compressed_pair.166" }
%"class.mojo::StructPtr.159" = type { %"class.std::__1::unique_ptr.160" }
%"class.std::__1::unique_ptr.160" = type { %"class.std::__1::__compressed_pair.161" }
%"class.std::__1::__compressed_pair.161" = type { %"struct.std::__1::__compressed_pair_elem.162" }
%"struct.std::__1::__compressed_pair_elem.162" = type { %"class.network::mojom::LinkHeader"* }
%"class.network::mojom::LinkHeader" = type { %class.GURL, i32, i32, i32, %"class.absl::optional.140" }
%"class.std::__1::__compressed_pair.166" = type { %"struct.std::__1::__compressed_pair_elem.167" }
%"struct.std::__1::__compressed_pair_elem.167" = type { %"class.mojo::StructPtr.159"* }
%"class.mojo::StructPtr.171" = type { %"class.std::__1::unique_ptr.172" }
%"class.std::__1::unique_ptr.172" = type { %"class.std::__1::__compressed_pair.173" }
%"class.std::__1::__compressed_pair.173" = type { %"struct.std::__1::__compressed_pair_elem.174" }
%"struct.std::__1::__compressed_pair_elem.174" = type { %"class.network::mojom::TimingAllowOrigin"* }
%"class.network::mojom::TimingAllowOrigin" = type { i32, %"union.network::mojom::TimingAllowOrigin::Union_" }
%"union.network::mojom::TimingAllowOrigin::Union_" = type { %"class.std::__1::vector.37"* }
%"class.absl::optional.181" = type { %"class.absl::optional_internal::optional_data.182" }
%"class.absl::optional_internal::optional_data.182" = type { %"class.absl::optional_internal::optional_data_base.183" }
%"class.absl::optional_internal::optional_data_base.183" = type { %"class.absl::optional_internal::optional_data_dtor_base.184" }
%"class.absl::optional_internal::optional_data_dtor_base.184" = type { i8, %union.anon.185 }
%union.anon.185 = type { %"struct.network::OriginPolicy" }
%"struct.network::OriginPolicy" = type { i32, %class.GURL, %"class.std::__1::unique_ptr.186" }
%"class.std::__1::unique_ptr.186" = type { %"class.std::__1::__compressed_pair.187" }
%"class.std::__1::__compressed_pair.187" = type { %"struct.std::__1::__compressed_pair_elem.188" }
%"struct.std::__1::__compressed_pair_elem.188" = type { %"struct.network::OriginPolicyContents"* }
%"struct.network::OriginPolicyContents" = type { %"class.std::__1::vector.37", %"class.absl::optional.140", %"class.std::__1::vector.37", %"class.std::__1::vector.37" }
%"class.absl::optional.192" = type { %"class.absl::optional_internal::optional_data.193" }
%"class.absl::optional_internal::optional_data.193" = type { %"class.absl::optional_internal::optional_data_base.194" }
%"class.absl::optional_internal::optional_data_base.194" = type { %"class.absl::optional_internal::optional_data_dtor_base.195" }
%"class.absl::optional_internal::optional_data_dtor_base.195" = type { i8, %union.anon.196 }
%union.anon.196 = type { %"class.base::UnguessableToken" }
%"class.std::__1::vector.37" = type { %"class.std::__1::__vector_base.38" }
%"class.std::__1::__vector_base.38" = type { %"class.std::__1::basic_string"*, %"class.std::__1::basic_string"*, %"class.std::__1::__compressed_pair.39" }
%"class.std::__1::__compressed_pair.39" = type { %"struct.std::__1::__compressed_pair_elem.40" }
%"struct.std::__1::__compressed_pair_elem.40" = type { %"class.std::__1::basic_string"* }
%class.GURL = type { %"class.std::__1::basic_string", i8, %"struct.url::Parsed", %"class.std::__1::unique_ptr.9" }
%"struct.url::Parsed" = type { %"struct.url::Component", %"struct.url::Component", %"struct.url::Component", %"struct.url::Component", %"struct.url::Component", %"struct.url::Component", %"struct.url::Component", %"struct.url::Component", i8, %"struct.url::Parsed"* }
%"struct.url::Component" = type { i32, i32 }
%"class.std::__1::unique_ptr.9" = type { %"class.std::__1::__compressed_pair.10" }
%"class.std::__1::__compressed_pair.10" = type { %"struct.std::__1::__compressed_pair_elem.11" }
%class.scoped_refptr.200 = type { %"class.net::StringIOBuffer"* }
%"class.net::StringIOBuffer" = type { %"class.net::IOBuffer", %"class.std::__1::basic_string" }
%"class.net::IOBuffer" = type { i32 (...)**, %"class.base::RefCountedThreadSafe.201", i8* }
%"class.base::RefCountedThreadSafe.201" = type { %"class.base::subtle::RefCountedThreadSafeBase" }
%"class.mojo::Receiver" = type { %"class.mojo::internal::BindingState" }
%"class.mojo::internal::BindingState" = type { %"class.mojo::internal::BindingStateBase", %"class.network::mojom::URLLoaderStub" }
%"class.mojo::internal::BindingStateBase" = type { %class.scoped_refptr.202, %"class.std::__1::unique_ptr.333", %"class.base::WeakPtrFactory.383" }
%class.scoped_refptr.202 = type { %"class.mojo::internal::MultiplexRouter"* }
%"class.mojo::internal::MultiplexRouter" = type <{ %"class.mojo::MessageReceiver", %"class.mojo::AssociatedGroupController.base", [4 x i8], %"class.mojo::PipeControlMessageHandlerDelegate", i32, i8, [3 x i8], %class.scoped_refptr.204, %"class.mojo::MessageHeaderValidator"*, %"class.mojo::MessageDispatcher", %"class.mojo::Connector", %"class.mojo::ScopedHandleBase", [4 x i8], %"class.absl::optional.299", %"class.absl::optional.304", %"class.absl::optional.250", %"class.mojo::PipeControlMessageHandler", %"class.mojo::PipeControlMessageProxy", %"class.base::small_map", i32, [4 x i8], %"class.base::circular_deque", %"class.std::__1::map.324", i8, [7 x i8], %class.scoped_refptr.204, i8, i8, i8, i8, i8, [3 x i8] }>
%"class.mojo::MessageReceiver" = type { i32 (...)** }
%"class.mojo::AssociatedGroupController.base" = type <{ i32 (...)**, %"class.base::RefCountedThreadSafe.203" }>
%"class.base::RefCountedThreadSafe.203" = type { %"class.base::subtle::RefCountedThreadSafeBase" }
%"class.mojo::PipeControlMessageHandlerDelegate" = type { i32 (...)** }
%"class.mojo::MessageHeaderValidator" = type { %"class.mojo::MessageReceiver", %"class.std::__1::basic_string" }
%"class.mojo::MessageDispatcher" = type { %"class.mojo::MessageReceiver", %"class.std::__1::unique_ptr.206", %"class.std::__1::unique_ptr.212", %"class.mojo::MessageReceiver"*, %"class.base::WeakPtrFactory" }
%"class.std::__1::unique_ptr.206" = type { %"class.std::__1::__compressed_pair.207" }
%"class.std::__1::__compressed_pair.207" = type { %"struct.std::__1::__compressed_pair_elem.208" }
%"struct.std::__1::__compressed_pair_elem.208" = type { %"class.mojo::MessageReceiver"* }
%"class.std::__1::unique_ptr.212" = type { %"class.std::__1::__compressed_pair.213" }
%"class.std::__1::__compressed_pair.213" = type { %"struct.std::__1::__compressed_pair_elem.214" }
%"struct.std::__1::__compressed_pair_elem.214" = type { %"class.mojo::MessageFilter"* }
%"class.mojo::MessageFilter" = type { i32 (...)** }
%"class.base::WeakPtrFactory" = type { %"class.base::internal::WeakPtrFactoryBase" }
%"class.base::internal::WeakPtrFactoryBase" = type { %"class.base::internal::WeakReferenceOwner", i64 }
%"class.base::internal::WeakReferenceOwner" = type { %class.scoped_refptr.218 }
%class.scoped_refptr.218 = type { %"class.base::internal::WeakReference::Flag"* }
%"class.base::internal::WeakReference::Flag" = type <{ %"class.base::RefCountedThreadSafe.219", %"class.base::AtomicFlag", [3 x i8] }>
%"class.base::RefCountedThreadSafe.219" = type { %"class.base::subtle::RefCountedThreadSafeBase" }
%"class.base::AtomicFlag" = type { %"struct.std::__1::atomic.220" }
%"struct.std::__1::atomic.220" = type { %"struct.std::__1::__atomic_base.221" }
%"struct.std::__1::__atomic_base.221" = type { %"struct.std::__1::__atomic_base.222" }
%"struct.std::__1::__atomic_base.222" = type { %"struct.std::__1::__cxx_atomic_impl.223" }
%"struct.std::__1::__cxx_atomic_impl.223" = type { %"struct.std::__1::__cxx_atomic_base_impl.224" }
%"struct.std::__1::__cxx_atomic_base_impl.224" = type { i8 }
%"class.mojo::Connector" = type { %"class.mojo::MessageReceiver", %"class.base::OnceCallback", %"class.mojo::ScopedHandleBase", %"class.mojo::MessageReceiver"*, %class.scoped_refptr.204, %"class.std::__1::unique_ptr.227", %"class.absl::optional.236", %"struct.std::__1::atomic.246", i8, i8, i8, i8, i32, i32, %"class.absl::optional.250", %"class.std::__1::unique_ptr.255", i8, i64, %class.scoped_refptr.284, %"class.base::Lock", i8, i8*, %"class.mojo::Connector::RunLoopNestingObserver"*, i8, i64, %"class.mojo::ConnectionGroup::Ref", %"class.base::WeakPtr", %"class.base::WeakPtrFactory.298" }
%"class.base::OnceCallback" = type { %"class.base::internal::CallbackBase" }
%"class.base::internal::CallbackBase" = type { %class.scoped_refptr.225 }
%class.scoped_refptr.225 = type { %"class.base::internal::BindStateBase"* }
%"class.base::internal::BindStateBase" = type { %"class.base::RefCountedThreadSafe.226", void ()*, void (%"class.base::internal::BindStateBase"*)*, i1 (%"class.base::internal::BindStateBase"*, i32)* }
%"class.base::RefCountedThreadSafe.226" = type { %"class.base::subtle::RefCountedThreadSafeBase" }
%"class.absl::optional.236" = type { %"class.absl::optional_internal::optional_data.237" }
%"class.absl::optional_internal::optional_data.237" = type { %"class.absl::optional_internal::optional_data_base.238" }
%"class.absl::optional_internal::optional_data_base.238" = type { %"class.absl::optional_internal::optional_data_dtor_base.239" }
%"class.absl::optional_internal::optional_data_dtor_base.239" = type { i8, %union.anon.240 }
%union.anon.240 = type { %"class.mojo::HandleSignalTracker" }
%"class.mojo::HandleSignalTracker" = type { %"class.base::RepeatingCallback.241", %"struct.mojo::HandleSignalsState", %"class.mojo::SimpleWatcher", %"class.mojo::SimpleWatcher" }
%"class.base::RepeatingCallback.241" = type { %"class.base::internal::CallbackBaseCopyable" }
%"class.base::internal::CallbackBaseCopyable" = type { %"class.base::internal::CallbackBase" }
%"struct.mojo::HandleSignalsState" = type { %struct.MojoHandleSignalsState }
%struct.MojoHandleSignalsState = type { i32, i32 }
%"class.mojo::SimpleWatcher" = type { i32, %class.scoped_refptr.204, i8, %"class.mojo::ScopedHandleBase.230", %class.scoped_refptr.231, %"class.mojo::Handle", i32, %"class.base::RepeatingCallback", i8*, %"class.base::WeakPtrFactory.232" }
%"class.mojo::ScopedHandleBase.230" = type { %"class.mojo::TrapHandle" }
%"class.mojo::TrapHandle" = type { %"class.mojo::Handle" }
%class.scoped_refptr.231 = type { %"class.mojo::SimpleWatcher::Context"* }
%"class.mojo::SimpleWatcher::Context" = type opaque
%"class.mojo::Handle" = type { i32 }
%"class.base::RepeatingCallback" = type { %"class.base::internal::CallbackBaseCopyable" }
%"class.base::WeakPtrFactory.232" = type { %"class.base::internal::WeakPtrFactoryBase" }
%"struct.std::__1::atomic.246" = type { %"struct.std::__1::__atomic_base.247" }
%"struct.std::__1::__atomic_base.247" = type { %"struct.std::__1::__cxx_atomic_impl.248" }
%"struct.std::__1::__cxx_atomic_impl.248" = type { %"struct.std::__1::__cxx_atomic_base_impl.249" }
%"struct.std::__1::__cxx_atomic_base_impl.249" = type { i8 }
%"class.std::__1::unique_ptr.255" = type { %"class.std::__1::__compressed_pair.256" }
%"class.std::__1::__compressed_pair.256" = type { %"struct.std::__1::__compressed_pair_elem.257" }
%"struct.std::__1::__compressed_pair_elem.257" = type { %"class.mojo::SyncHandleWatcher"* }
%"class.mojo::SyncHandleWatcher" = type { %"class.mojo::Handle", i32, %"class.base::RepeatingCallback.258", i8, i64, %class.scoped_refptr.259, %class.scoped_refptr.280 }
%"class.base::RepeatingCallback.258" = type { %"class.base::internal::CallbackBaseCopyable" }
%class.scoped_refptr.259 = type { %"class.mojo::SyncHandleRegistry"* }
%"class.mojo::SyncHandleRegistry" = type <{ %"class.base::RefCounted", [4 x i8], %"class.mojo::WaitSet", %"class.std::__1::map", %"class.std::__1::map.269", i8, [7 x i8] }>
%"class.base::RefCounted" = type { %"class.base::subtle::RefCountedBase" }
%"class.base::subtle::RefCountedBase" = type { i32 }
%"class.mojo::WaitSet" = type { %class.scoped_refptr.260 }
%class.scoped_refptr.260 = type { %"class.mojo::WaitSet::State"* }
%"class.mojo::WaitSet::State" = type opaque
%"class.std::__1::map" = type { %"class.std::__1::__tree" }
%"class.std::__1::__tree" = type { %"class.std::__1::__tree_end_node"*, %"class.std::__1::__compressed_pair.261", %"class.std::__1::__compressed_pair.266" }
%"class.std::__1::__tree_end_node" = type { %"class.std::__1::__tree_node_base"* }
%"class.std::__1::__tree_node_base" = type <{ %"class.std::__1::__tree_end_node", %"class.std::__1::__tree_node_base"*, %"class.std::__1::__tree_end_node"*, i8, [7 x i8] }>
%"class.std::__1::__compressed_pair.261" = type { %"struct.std::__1::__compressed_pair_elem.262" }
%"struct.std::__1::__compressed_pair_elem.262" = type { %"class.std::__1::__tree_end_node" }
%"class.std::__1::__compressed_pair.266" = type { %"struct.std::__1::__compressed_pair_elem.267" }
%"struct.std::__1::__compressed_pair_elem.267" = type { i64 }
%"class.std::__1::map.269" = type { %"class.std::__1::__tree.270" }
%"class.std::__1::__tree.270" = type { %"class.std::__1::__tree_end_node"*, %"class.std::__1::__compressed_pair.271", %"class.std::__1::__compressed_pair.275" }
%"class.std::__1::__compressed_pair.271" = type { %"struct.std::__1::__compressed_pair_elem.262" }
%"class.std::__1::__compressed_pair.275" = type { %"struct.std::__1::__compressed_pair_elem.267" }
%class.scoped_refptr.280 = type { %"class.base::RefCountedData"* }
%"class.base::RefCountedData" = type opaque
%class.scoped_refptr.284 = type { %"class.mojo::internal::MessageQuotaChecker"* }
%"class.mojo::internal::MessageQuotaChecker" = type <{ %"class.base::RefCountedThreadSafe.285", [4 x i8], %"struct.mojo::internal::MessageQuotaChecker::Configuration"*, %"class.base::TimeTicks", %"struct.std::__1::atomic.291", %"struct.std::__1::atomic.291", %"struct.std::__1::atomic.291", %"class.base::Lock", %"class.mojo::internal::MessageQuotaChecker::DecayingRateAverage", i64, i64, %"class.mojo::MessagePipeHandle", [4 x i8] }>
%"class.base::RefCountedThreadSafe.285" = type { %"class.base::subtle::RefCountedThreadSafeBase" }
%"struct.mojo::internal::MessageQuotaChecker::Configuration" = type { i8, i64, i64, i64, void (i64, i8, i64, i64, double, i64, i64, i64)* }
%"struct.std::__1::atomic.291" = type { %"struct.std::__1::__atomic_base.292" }
%"struct.std::__1::__atomic_base.292" = type { %"struct.std::__1::__atomic_base.293" }
%"struct.std::__1::__atomic_base.293" = type { %"struct.std::__1::__cxx_atomic_impl.294" }
%"struct.std::__1::__cxx_atomic_impl.294" = type { %"struct.std::__1::__cxx_atomic_base_impl.295" }
%"struct.std::__1::__cxx_atomic_base_impl.295" = type { i64 }
%"class.mojo::internal::MessageQuotaChecker::DecayingRateAverage" = type { i64, i64, double }
%"class.mojo::MessagePipeHandle" = type { %"class.mojo::Handle" }
%"class.base::Lock" = type { %"class.base::internal::LockImpl" }
%"class.base::internal::LockImpl" = type { %union.pthread_mutex_t }
%union.pthread_mutex_t = type { %struct.__pthread_mutex_s }
%struct.__pthread_mutex_s = type { i32, i32, i32, i32, i32, i16, i16, %struct.__pthread_internal_list }
%struct.__pthread_internal_list = type { %struct.__pthread_internal_list*, %struct.__pthread_internal_list* }
%"class.mojo::Connector::RunLoopNestingObserver" = type opaque
%"class.mojo::ConnectionGroup::Ref" = type { i32, %class.scoped_refptr.296 }
%class.scoped_refptr.296 = type { %"class.mojo::ConnectionGroup"* }
%"class.mojo::ConnectionGroup" = type <{ i32 (...)**, %"class.base::RefCountedThreadSafe.392", [4 x i8], %"class.base::RepeatingCallback.336", %class.scoped_refptr.204, %"class.mojo::ConnectionGroup::Ref", %"struct.std::__1::atomic.393", [4 x i8] }>
%"class.base::RefCountedThreadSafe.392" = type { %"class.base::subtle::RefCountedThreadSafeBase" }
%"class.base::RepeatingCallback.336" = type { %"class.base::internal::CallbackBaseCopyable" }
%"struct.std::__1::atomic.393" = type { %"struct.std::__1::__atomic_base.394" }
%"struct.std::__1::__atomic_base.394" = type { %"struct.std::__1::__atomic_base.395" }
%"struct.std::__1::__atomic_base.395" = type { %"struct.std::__1::__cxx_atomic_impl.396" }
%"struct.std::__1::__cxx_atomic_impl.396" = type { %"struct.std::__1::__cxx_atomic_base_impl.397" }
%"struct.std::__1::__cxx_atomic_base_impl.397" = type { i32 }
%"class.base::WeakPtr" = type { %"class.base::internal::WeakPtrBase" }
%"class.base::internal::WeakPtrBase" = type { %"class.base::internal::WeakReference", i64 }
%"class.base::internal::WeakReference" = type { %class.scoped_refptr.297 }
%class.scoped_refptr.297 = type { %"class.base::internal::WeakReference::Flag"* }
%"class.base::WeakPtrFactory.298" = type { %"class.base::internal::WeakPtrFactoryBase" }
%"class.mojo::ScopedHandleBase" = type { %"class.mojo::MessagePipeHandle" }
%"class.absl::optional.299" = type { %"class.absl::optional_internal::optional_data.300" }
%"class.absl::optional_internal::optional_data.300" = type { %"class.absl::optional_internal::optional_data_base.301" }
%"class.absl::optional_internal::optional_data_base.301" = type { %"class.absl::optional_internal::optional_data_dtor_base.302" }
%"class.absl::optional_internal::optional_data_dtor_base.302" = type { i8, %union.anon.303 }
%union.anon.303 = type { %"class.mojo::SimpleWatcher" }
%"class.absl::optional.304" = type { %"class.absl::optional_internal::optional_data.305" }
%"class.absl::optional_internal::optional_data.305" = type { %"class.absl::optional_internal::optional_data_base.306" }
%"class.absl::optional_internal::optional_data_base.306" = type { %"class.absl::optional_internal::optional_data_dtor_base.307" }
%"class.absl::optional_internal::optional_data_dtor_base.307" = type { i8, [7 x i8], %union.anon.308 }
%union.anon.308 = type { %"struct.mojo::internal::MultiplexRouter::ExclusiveSyncWaitInfo" }
%"struct.mojo::internal::MultiplexRouter::ExclusiveSyncWaitInfo" = type <{ i32, [4 x i8], i64, i8, [7 x i8] }>
%"class.absl::optional.250" = type { %"class.absl::optional_internal::optional_data.251" }
%"class.absl::optional_internal::optional_data.251" = type { %"class.absl::optional_internal::optional_data_base.252" }
%"class.absl::optional_internal::optional_data_base.252" = type { %"class.absl::optional_internal::optional_data_dtor_base.253" }
%"class.absl::optional_internal::optional_data_dtor_base.253" = type { i8, %union.anon.254 }
%union.anon.254 = type { %"class.base::Lock" }
%"class.mojo::PipeControlMessageHandler" = type { %"class.mojo::MessageReceiver", %"class.std::__1::basic_string", %"class.mojo::PipeControlMessageHandlerDelegate"* }
%"class.mojo::PipeControlMessageProxy" = type { %"class.mojo::MessageReceiver"* }
%"class.base::small_map" = type { i64, %"class.base::internal::small_map_default_init", %union.anon.309 }
%"class.base::internal::small_map_default_init" = type { i8 }
%union.anon.309 = type { %"class.std::__1::map.312" }
%"class.std::__1::map.312" = type { %"class.std::__1::__tree.313" }
%"class.std::__1::__tree.313" = type { %"class.std::__1::__tree_end_node"*, %"class.std::__1::__compressed_pair.314", %"class.std::__1::__compressed_pair.318" }
%"class.std::__1::__compressed_pair.314" = type { %"struct.std::__1::__compressed_pair_elem.262" }
%"class.std::__1::__compressed_pair.318" = type { %"struct.std::__1::__compressed_pair_elem.267" }
%"class.base::circular_deque" = type { %"class.base::internal::VectorBuffer", i64, i64 }
%"class.base::internal::VectorBuffer" = type { %"class.std::__1::unique_ptr.323"*, i64 }
%"class.std::__1::unique_ptr.323" = type opaque
%"class.std::__1::map.324" = type { %"class.std::__1::__tree.325" }
%"class.std::__1::__tree.325" = type { %"class.std::__1::__tree_end_node"*, %"class.std::__1::__compressed_pair.326", %"class.std::__1::__compressed_pair.330" }
%"class.std::__1::__compressed_pair.326" = type { %"struct.std::__1::__compressed_pair_elem.262" }
%"class.std::__1::__compressed_pair.330" = type { %"struct.std::__1::__compressed_pair_elem.267" }
%class.scoped_refptr.204 = type { %"class.base::SequencedTaskRunner"* }
%"class.base::SequencedTaskRunner" = type { %"class.base::TaskRunner.base", [4 x i8] }
%"class.base::TaskRunner.base" = type <{ i32 (...)**, %"class.base::RefCountedThreadSafe.205" }>
%"class.base::RefCountedThreadSafe.205" = type { %"class.base::subtle::RefCountedThreadSafeBase" }
%"class.std::__1::unique_ptr.333" = type { %"class.std::__1::__compressed_pair.334" }
%"class.std::__1::__compressed_pair.334" = type { %"struct.std::__1::__compressed_pair_elem.335" }
%"struct.std::__1::__compressed_pair_elem.335" = type { %"class.mojo::InterfaceEndpointClient"* }
%"class.mojo::InterfaceEndpointClient" = type { %"class.mojo::MessageReceiverWithResponder", i8, %"class.base::RepeatingCallback.336", %"class.base::OnceCallback.337", %"class.absl::optional.338", %"class.absl::optional.343", %"class.mojo::ConnectionGroup::Ref", i32, %"class.mojo::ScopedInterfaceEndpointHandle", %"class.std::__1::unique_ptr.350", %"class.mojo::InterfaceEndpointController"*, %"class.mojo::MessageReceiverWithResponderStatus"*, %"class.mojo::InterfaceEndpointClient::HandleIncomingMessageThunk", %"class.mojo::MessageDispatcher", %"class.std::__1::map.358", %"class.std::__1::map.369", i64, %"class.base::OnceCallback", %"class.base::OnceCallback.378", i8, %class.scoped_refptr.204, %"class.mojo::internal::ControlMessageProxy", %"class.mojo::internal::ControlMessageHandler", i8*, %"class.base::WeakPtrFactory.379" }
%"class.mojo::MessageReceiverWithResponder" = type { %"class.mojo::MessageReceiver" }
%"class.base::OnceCallback.337" = type { %"class.base::internal::CallbackBase" }
%"class.absl::optional.338" = type { %"class.absl::optional_internal::optional_data.339" }
%"class.absl::optional_internal::optional_data.339" = type { %"class.absl::optional_internal::optional_data_base.340" }
%"class.absl::optional_internal::optional_data_base.340" = type { %"class.absl::optional_internal::optional_data_dtor_base.341" }
%"class.absl::optional_internal::optional_data_dtor_base.341" = type { i8, %union.anon.342 }
%union.anon.342 = type { %"class.base::TimeDelta" }
%"class.absl::optional.343" = type { %"class.absl::optional_internal::optional_data.344" }
%"class.absl::optional_internal::optional_data.344" = type { %"class.absl::optional_internal::optional_data_base.345" }
%"class.absl::optional_internal::optional_data_base.345" = type { %"class.absl::optional_internal::optional_data_dtor_base.346" }
%"class.absl::optional_internal::optional_data_dtor_base.346" = type { i8, %union.anon.347 }
%union.anon.347 = type { %"class.base::OneShotTimer" }
%"class.base::OneShotTimer" = type { %"class.base::internal::TimerBase", %"class.base::OnceCallback" }
%"class.base::internal::TimerBase" = type { i32 (...)**, %class.scoped_refptr.204, %"class.base::SequenceCheckerDoNothing", %"class.base::internal::TaskDestructionDetector"*, %"class.base::Location", %"class.base::TimeDelta", %"class.base::TimeTicks", %"class.base::TimeTicks", %"class.base::TickClock"*, i8, %"class.base::WeakPtrFactory.348" }
%"class.base::SequenceCheckerDoNothing" = type { i8 }
%"class.base::internal::TaskDestructionDetector" = type opaque
%"class.base::Location" = type { i8*, i8*, i32, i8* }
%"class.base::TickClock" = type { i32 (...)** }
%"class.base::WeakPtrFactory.348" = type { %"class.base::internal::WeakPtrFactoryBase" }
%"class.mojo::ScopedInterfaceEndpointHandle" = type { %class.scoped_refptr.349 }
%class.scoped_refptr.349 = type { %"class.mojo::ScopedInterfaceEndpointHandle::State"* }
%"class.mojo::ScopedInterfaceEndpointHandle::State" = type opaque
%"class.std::__1::unique_ptr.350" = type { %"class.std::__1::__compressed_pair.351" }
%"class.std::__1::__compressed_pair.351" = type { %"struct.std::__1::__compressed_pair_elem.352" }
%"struct.std::__1::__compressed_pair_elem.352" = type { %"class.mojo::AssociatedGroup"* }
%"class.mojo::AssociatedGroup" = type { %"class.base::RepeatingCallback.353", %class.scoped_refptr.354 }
%"class.base::RepeatingCallback.353" = type { %"class.base::internal::CallbackBaseCopyable" }
%class.scoped_refptr.354 = type { %"class.mojo::AssociatedGroupController"* }
%"class.mojo::AssociatedGroupController" = type <{ i32 (...)**, %"class.base::RefCountedThreadSafe.203", [4 x i8] }>
%"class.mojo::InterfaceEndpointController" = type opaque
%"class.mojo::MessageReceiverWithResponderStatus" = type { %"class.mojo::MessageReceiver" }
%"class.mojo::InterfaceEndpointClient::HandleIncomingMessageThunk" = type { %"class.mojo::MessageReceiver", %"class.mojo::InterfaceEndpointClient"* }
%"class.std::__1::map.358" = type { %"class.std::__1::__tree.359" }
%"class.std::__1::__tree.359" = type { %"class.std::__1::__tree_end_node"*, %"class.std::__1::__compressed_pair.360", %"class.std::__1::__compressed_pair.364" }
%"class.std::__1::__compressed_pair.360" = type { %"struct.std::__1::__compressed_pair_elem.262" }
%"class.std::__1::__compressed_pair.364" = type { %"struct.std::__1::__compressed_pair_elem.267" }
%"class.std::__1::map.369" = type { %"class.std::__1::__tree.370" }
%"class.std::__1::__tree.370" = type { %"class.std::__1::__tree_end_node"*, %"class.std::__1::__compressed_pair.371", %"class.std::__1::__compressed_pair.375" }
%"class.std::__1::__compressed_pair.371" = type { %"struct.std::__1::__compressed_pair_elem.262" }
%"class.std::__1::__compressed_pair.375" = type { %"struct.std::__1::__compressed_pair_elem.267" }
%"class.base::OnceCallback.378" = type { %"class.base::internal::CallbackBase" }
%"class.mojo::internal::ControlMessageProxy" = type { %"class.mojo::InterfaceEndpointClient"*, i8, %"class.base::OnceCallback" }
%"class.mojo::internal::ControlMessageHandler" = type <{ %"class.mojo::MessageReceiverWithResponderStatus", %"class.mojo::InterfaceEndpointClient"*, i32, [4 x i8] }>
%"class.base::WeakPtrFactory.379" = type { %"class.base::internal::WeakPtrFactoryBase" }
%"class.base::WeakPtrFactory.383" = type { %"class.base::internal::WeakPtrFactoryBase" }
%"class.network::mojom::URLLoaderStub" = type { %"class.mojo::MessageReceiverWithResponderStatus", %"class.network::mojom::URLLoader"* }
%"class.mojo::Remote" = type { %"class.mojo::internal::InterfacePtrState" }
%"class.mojo::internal::InterfacePtrState" = type { %"class.mojo::internal::InterfacePtrStateBase.base", %"class.std::__1::unique_ptr.384" }
%"class.mojo::internal::InterfacePtrStateBase.base" = type <{ %class.scoped_refptr.202, %"class.std::__1::unique_ptr.333", %"class.mojo::ScopedHandleBase", [4 x i8], %class.scoped_refptr.204, i32 }>
%"class.std::__1::unique_ptr.384" = type { %"class.std::__1::__compressed_pair.385" }
%"class.std::__1::__compressed_pair.385" = type { %"struct.std::__1::__compressed_pair_elem.386" }
%"struct.std::__1::__compressed_pair_elem.386" = type { %"class.network::mojom::URLLoaderClientProxy"* }
%"class.network::mojom::URLLoaderClientProxy" = type { %"class.network::mojom::URLLoaderClient", %"class.mojo::MessageReceiverWithResponder"* }
%"class.network::mojom::URLLoaderClient" = type { i32 (...)** }
%"class.mojo::ScopedHandleBase.390" = type { %"class.mojo::DataPipeProducerHandle" }
%"class.mojo::DataPipeProducerHandle" = type { %"class.mojo::Handle" }
%"class.std::__1::unique_ptr.227" = type { %"class.std::__1::__compressed_pair.228" }
%"class.std::__1::__compressed_pair.228" = type { %"struct.std::__1::__compressed_pair_elem.229" }
%"struct.std::__1::__compressed_pair_elem.229" = type { %"class.mojo::SimpleWatcher"* }
%"class.base::WeakPtrFactory.391" = type { %"class.base::internal::WeakPtrFactoryBase" }
%class.PrefetchedMainframeResponseContainer = type { %"class.net::IsolationInfo", %"class.mojo::StructPtr", %"class.std::__1::unique_ptr.425" }
%"class.net::IsolationInfo" = type { i32, %"class.absl::optional.401", %"class.absl::optional.401", %"class.net::NetworkIsolationKey", %"class.net::SiteForCookies", i8, %"class.absl::optional.411" }
%"class.absl::optional.401" = type { %"class.absl::optional_internal::optional_data.402" }
%"class.absl::optional_internal::optional_data.402" = type { %"class.absl::optional_internal::optional_data_base.403" }
%"class.absl::optional_internal::optional_data_base.403" = type { %"class.absl::optional_internal::optional_data_dtor_base.404" }
%"class.absl::optional_internal::optional_data_dtor_base.404" = type { i8, %union.anon.405 }
%union.anon.405 = type { %"class.url::Origin" }
%"class.net::NetworkIsolationKey" = type { i8, %"class.absl::optional.406", %"class.absl::optional.406" }
%"class.absl::optional.406" = type { %"class.absl::optional_internal::optional_data.407" }
%"class.absl::optional_internal::optional_data.407" = type { %"class.absl::optional_internal::optional_data_base.408" }
%"class.absl::optional_internal::optional_data_base.408" = type { %"class.absl::optional_internal::optional_data_dtor_base.409" }
%"class.absl::optional_internal::optional_data_dtor_base.409" = type { i8, %union.anon.410 }
%union.anon.410 = type { %"class.net::SchemefulSite" }
%"class.net::SchemefulSite" = type { %"class.url::Origin" }
%"class.net::SiteForCookies" = type <{ %"class.net::SchemefulSite", i8, [7 x i8] }>
%"class.absl::optional.411" = type { %"class.absl::optional_internal::optional_data.412" }
%"class.absl::optional_internal::optional_data.412" = type { %"class.absl::optional_internal::optional_data_base.413" }
%"class.absl::optional_internal::optional_data_base.413" = type { %"class.absl::optional_internal::optional_data_dtor_base.414" }
%"class.absl::optional_internal::optional_data_dtor_base.414" = type { i8, %union.anon.415 }
%union.anon.415 = type { %"class.std::__1::set" }
%"class.std::__1::set" = type { %"class.std::__1::__tree.416" }
%"class.std::__1::__tree.416" = type { %"class.std::__1::__tree_end_node"*, %"class.std::__1::__compressed_pair.417", %"class.std::__1::__compressed_pair.421" }
%"class.std::__1::__compressed_pair.417" = type { %"struct.std::__1::__compressed_pair_elem.262" }
%"class.std::__1::__compressed_pair.421" = type { %"struct.std::__1::__compressed_pair_elem.267" }
%"class.std::__1::unique_ptr.425" = type { %"class.std::__1::__compressed_pair.426" }
%"class.std::__1::__compressed_pair.426" = type { %"struct.std::__1::__compressed_pair_elem.40" }
%"struct.network::ResourceRequest" = type { %"class.std::__1::basic_string", %class.GURL, %"class.net::SiteForCookies", i8, %"class.absl::optional.401", %"class.absl::optional.401", %class.GURL, i32, %"class.net::HttpRequestHeaders", %"class.net::HttpRequestHeaders", i32, i32, i32, i8, i8, i32, i8, i8, i8, i32, i32, i32, %"class.std::__1::basic_string", i32, %class.scoped_refptr.440, i8, i8, i8, i8, i8, i8, i32, i8, i32, i8, i8, %"class.absl::optional.192", %"class.net::HttpRequestHeaders", %"class.net::HttpRequestHeaders", %"class.absl::optional.192", %"class.absl::optional.140", %"class.absl::optional.140", i8, i8, i8, i8, %"class.absl::optional.192", %"class.absl::optional.462", %"class.network::OptionalTrustTokenParams", %"class.absl::optional.492", %"class.absl::optional.498" }
%class.scoped_refptr.440 = type { %"class.network::ResourceRequestBody"* }
%"class.network::ResourceRequestBody" = type <{ %"class.base::RefCountedThreadSafe.441", [4 x i8], %"class.std::__1::vector.442", i64, i8, i8, [6 x i8] }>
%"class.base::RefCountedThreadSafe.441" = type { %"class.base::subtle::RefCountedThreadSafeBase" }
%"class.std::__1::vector.442" = type { %"class.std::__1::__vector_base.443" }
%"class.std::__1::__vector_base.443" = type { %"class.network::DataElement"*, %"class.network::DataElement"*, %"class.std::__1::__compressed_pair.457" }
%"class.network::DataElement" = type { %"class.absl::variant" }
%"class.absl::variant" = type { %"class.absl::variant_internal::VariantMoveAssignBaseNontrivial" }
%"class.absl::variant_internal::VariantMoveAssignBaseNontrivial" = type { %"class.absl::variant_internal::VariantMoveBaseNontrivial" }
%"class.absl::variant_internal::VariantMoveBaseNontrivial" = type { %"class.absl::variant_internal::VariantStateBaseDestructorNontrivial" }
%"class.absl::variant_internal::VariantStateBaseDestructorNontrivial" = type { %"class.absl::variant_internal::VariantStateBase" }
%"class.absl::variant_internal::VariantStateBase" = type { %"union.absl::variant_internal::DestructibleUnionImpl", i64 }
%"union.absl::variant_internal::DestructibleUnionImpl" = type { %"union.absl::variant_internal::DestructibleUnionImpl.444" }
%"union.absl::variant_internal::DestructibleUnionImpl.444" = type { %"union.absl::variant_internal::DestructibleUnionImpl.452" }
%"union.absl::variant_internal::DestructibleUnionImpl.452" = type { %"union.absl::variant_internal::DestructibleUnionImpl.453" }
%"union.absl::variant_internal::DestructibleUnionImpl.453" = type { %"union.absl::variant_internal::DestructibleUnionImpl.455" }
%"union.absl::variant_internal::DestructibleUnionImpl.455" = type { %"class.network::DataElementFile" }
%"class.network::DataElementFile" = type { %"class.base::FilePath", i64, i64, %"class.base::Time" }
%"class.base::FilePath" = type { %"class.std::__1::basic_string" }
%"class.std::__1::__compressed_pair.457" = type { %"struct.std::__1::__compressed_pair_elem.458" }
%"struct.std::__1::__compressed_pair_elem.458" = type { %"class.network::DataElement"* }
%"class.net::HttpRequestHeaders" = type { %"class.std::__1::vector.433" }
%"class.std::__1::vector.433" = type { %"class.std::__1::__vector_base.434" }
%"class.std::__1::__vector_base.434" = type { %"struct.net::HttpRequestHeaders::HeaderKeyValuePair"*, %"struct.net::HttpRequestHeaders::HeaderKeyValuePair"*, %"class.std::__1::__compressed_pair.435" }
%"struct.net::HttpRequestHeaders::HeaderKeyValuePair" = type { %"class.std::__1::basic_string", %"class.std::__1::basic_string" }
%"class.std::__1::__compressed_pair.435" = type { %"struct.std::__1::__compressed_pair_elem.436" }
%"struct.std::__1::__compressed_pair_elem.436" = type { %"struct.net::HttpRequestHeaders::HeaderKeyValuePair"* }
%"class.absl::optional.462" = type { %"class.absl::optional_internal::optional_data.463" }
%"class.absl::optional_internal::optional_data.463" = type { %"class.absl::optional_internal::optional_data_base.464" }
%"class.absl::optional_internal::optional_data_base.464" = type { %"class.absl::optional_internal::optional_data_dtor_base.465" }
%"class.absl::optional_internal::optional_data_dtor_base.465" = type { i8, %union.anon.466 }
%union.anon.466 = type { %"struct.network::ResourceRequest::TrustedParams" }
%"struct.network::ResourceRequest::TrustedParams" = type { %"class.net::IsolationInfo", i8, i8, %"class.mojo::PendingRemote.467", %"class.mojo::PendingRemote.468", %"class.mojo::PendingRemote.469", %"class.mojo::StructPtr.470", %"class.mojo::PendingRemote.477" }
%"class.mojo::PendingRemote.467" = type { %"struct.mojo::internal::PendingRemoteState" }
%"struct.mojo::internal::PendingRemoteState" = type { %"class.mojo::ScopedHandleBase", i32 }
%"class.mojo::PendingRemote.468" = type { %"struct.mojo::internal::PendingRemoteState" }
%"class.mojo::PendingRemote.469" = type { %"struct.mojo::internal::PendingRemoteState" }
%"class.mojo::StructPtr.470" = type { %"class.std::__1::unique_ptr.471" }
%"class.std::__1::unique_ptr.471" = type { %"class.std::__1::__compressed_pair.472" }
%"class.std::__1::__compressed_pair.472" = type { %"struct.std::__1::__compressed_pair_elem.473" }
%"struct.std::__1::__compressed_pair_elem.473" = type { %"class.network::mojom::ClientSecurityState"* }
%"class.network::mojom::ClientSecurityState" = type <{ %"struct.network::CrossOriginEmbedderPolicy", i8, [3 x i8], i32, i32, [4 x i8] }>
%"class.mojo::PendingRemote.477" = type { %"struct.mojo::internal::PendingRemoteState" }
%"class.network::OptionalTrustTokenParams" = type { %"class.mojo::StructPtr.478" }
%"class.mojo::StructPtr.478" = type { %"class.std::__1::unique_ptr.479" }
%"class.std::__1::unique_ptr.479" = type { %"class.std::__1::__compressed_pair.480" }
%"class.std::__1::__compressed_pair.480" = type { %"struct.std::__1::__compressed_pair_elem.481" }
%"struct.std::__1::__compressed_pair_elem.481" = type { %"class.network::mojom::TrustTokenParams"* }
%"class.network::mojom::TrustTokenParams" = type { i32, i32, i32, i8, %"class.std::__1::vector.482", %"class.std::__1::vector.37", %"class.absl::optional.140" }
%"class.std::__1::vector.482" = type { %"class.std::__1::__vector_base.483" }
%"class.std::__1::__vector_base.483" = type { %"class.url::Origin"*, %"class.url::Origin"*, %"class.std::__1::__compressed_pair.484" }
%"class.std::__1::__compressed_pair.484" = type { %"struct.std::__1::__compressed_pair_elem.485" }
%"struct.std::__1::__compressed_pair_elem.485" = type { %"class.url::Origin"* }
%"class.absl::optional.492" = type { %"class.absl::optional_internal::optional_data.493" }
%"class.absl::optional_internal::optional_data.493" = type { %"class.absl::optional_internal::optional_data_base.494" }
%"class.absl::optional_internal::optional_data_base.494" = type { %"class.absl::optional_internal::optional_data_dtor_base.495" }
%"class.absl::optional_internal::optional_data_dtor_base.495" = type { i8, [7 x i8], %union.anon.496 }
%union.anon.496 = type { %"struct.network::ResourceRequest::WebBundleTokenParams" }
%"struct.network::ResourceRequest::WebBundleTokenParams" = type <{ %class.GURL, %"class.base::UnguessableToken", %"class.mojo::PendingRemote.497", i32, [4 x i8] }>
%"class.mojo::PendingRemote.497" = type { %"struct.mojo::internal::PendingRemoteState" }
%"class.absl::optional.498" = type { %"class.absl::optional_internal::optional_data.499" }
%"class.absl::optional_internal::optional_data.499" = type { %"class.absl::optional_internal::optional_data_base.500" }
%"class.absl::optional_internal::optional_data_base.500" = type { %"class.absl::optional_internal::optional_data_dtor_base.501" }
%"class.absl::optional_internal::optional_data_dtor_base.501" = type { i8, %union.anon.502 }
%union.anon.502 = type { %"class.std::__1::vector.503" }
%"class.std::__1::vector.503" = type { %"class.std::__1::__vector_base.504" }
%"class.std::__1::__vector_base.504" = type { i32*, i32*, %"class.std::__1::__compressed_pair.505" }
%"class.std::__1::__compressed_pair.505" = type { %"struct.std::__1::__compressed_pair_elem.506" }
%"struct.std::__1::__compressed_pair_elem.506" = type { i32* }
%"class.mojo::internal::InterfacePtrStateBase" = type <{ %class.scoped_refptr.202, %"class.std::__1::unique_ptr.333", %"class.mojo::ScopedHandleBase", [4 x i8], %class.scoped_refptr.204, i32, [4 x i8] }>
%"class.absl::optional.510" = type { %"class.absl::optional_internal::optional_data.511" }
%"class.absl::optional_internal::optional_data.511" = type { %"class.absl::optional_internal::optional_data_base.512" }
%"class.absl::optional_internal::optional_data_base.512" = type { %"class.absl::optional_internal::optional_data_dtor_base.513" }
%"class.absl::optional_internal::optional_data_dtor_base.513" = type { i8, %union.anon.514 }
%union.anon.514 = type { %class.GURL }
%struct.MojoWriteDataOptions = type { i32, i32 }
%"struct.network::URLLoaderCompletionStatus" = type <{ i32, i32, i8, [7 x i8], %"class.base::TimeTicks", i64, i64, i64, %"class.absl::optional.519", i32, [4 x i8], %"class.absl::optional", %"class.absl::optional.524", i8, [7 x i8], %"class.net::ProxyServer", %"struct.net::ResolveErrorInfo", i8, [7 x i8] }>
%"class.absl::optional.519" = type { %"class.absl::optional_internal::optional_data.520" }
%"class.absl::optional_internal::optional_data.520" = type { %"class.absl::optional_internal::optional_data_base.521" }
%"class.absl::optional_internal::optional_data_base.521" = type { %"class.absl::optional_internal::optional_data_dtor_base.522" }
%"class.absl::optional_internal::optional_data_dtor_base.522" = type { i8, [7 x i8], %union.anon.523 }
%union.anon.523 = type { %"struct.network::CorsErrorStatus" }
%"struct.network::CorsErrorStatus" = type <{ i32, [4 x i8], %"class.std::__1::basic_string", i32, i8, [3 x i8] }>
%"class.absl::optional.524" = type { %"class.absl::optional_internal::optional_data.525" }
%"class.absl::optional_internal::optional_data.525" = type { %"class.absl::optional_internal::optional_data_base.526" }
%"class.absl::optional_internal::optional_data_base.526" = type { %"class.absl::optional_internal::optional_data_dtor_base.527" }
%"class.absl::optional_internal::optional_data_dtor_base.527" = type { i8, %union.anon.528 }
%union.anon.528 = type { i32 }
%"struct.net::ResolveErrorInfo" = type <{ i32, i8, [3 x i8] }>
%"class.base::OnceCallback.515" = type { %"class.base::internal::CallbackBase" }
%"class.base::WeakPtr.516" = type { %"class.base::internal::WeakPtrBase" }
%"class.mojo::PendingReceiver" = type { %"struct.mojo::internal::PendingReceiverState" }
%"struct.mojo::internal::PendingReceiverState" = type { %"class.mojo::ScopedHandleBase", %"class.mojo::ConnectionGroup::Ref" }
%"class.mojo::PendingRemote.517" = type { %"struct.mojo::internal::PendingRemoteState" }
%"class.mojo::DataPipeConsumerHandle" = type { %"class.mojo::Handle" }
%"class.mojo::ScopedHandleBase.518" = type { %"class.mojo::DataPipeConsumerHandle" }
%struct.MojoCreateDataPipeOptions = type { i32, i32, i32, i32 }
%"class.mojo::Message" = type { %"class.mojo::ScopedHandleBase.529", %"class.mojo::internal::Buffer", %"class.std::__1::vector.530", %"class.std::__1::vector.538", %"class.mojo::ConnectionGroup::Ref"*, i8, i8, i8* }
%"class.mojo::ScopedHandleBase.529" = type { %"class.mojo::MessageHandle" }
%"class.mojo::MessageHandle" = type { i64 }
%"class.mojo::internal::Buffer" = type { %"class.mojo::MessageHandle", i64, i8*, i64, i64 }
%"class.std::__1::vector.530" = type { %"class.std::__1::__vector_base.531" }
%"class.std::__1::__vector_base.531" = type { %"class.mojo::ScopedHandleBase.532"*, %"class.mojo::ScopedHandleBase.532"*, %"class.std::__1::__compressed_pair.533" }
%"class.mojo::ScopedHandleBase.532" = type { %"class.mojo::Handle" }
%"class.std::__1::__compressed_pair.533" = type { %"struct.std::__1::__compressed_pair_elem.534" }
%"struct.std::__1::__compressed_pair_elem.534" = type { %"class.mojo::ScopedHandleBase.532"* }
%"class.std::__1::vector.538" = type { %"class.std::__1::__vector_base.539" }
%"class.std::__1::__vector_base.539" = type { %"class.mojo::ScopedInterfaceEndpointHandle"*, %"class.mojo::ScopedInterfaceEndpointHandle"*, %"class.std::__1::__compressed_pair.540" }
%"class.std::__1::__compressed_pair.540" = type { %"struct.std::__1::__compressed_pair_elem.541" }
%"struct.std::__1::__compressed_pair_elem.541" = type { %"class.mojo::ScopedInterfaceEndpointHandle"* }
%"class.mojo::MessageReceiverWithStatus" = type { %"class.mojo::MessageReceiver" }
%"class.logging::CheckError" = type { %"class.logging::LogMessage"* }
%"class.logging::LogMessage" = type { i32 (...)**, i32, %"class.std::__1::basic_ostringstream", i64, i8*, i32, %"class.base::ScopedClearLastErrorBase" }
%"class.std::__1::basic_ostringstream" = type { %"class.std::__1::basic_ostream.base", %"class.std::__1::basic_stringbuf", %"class.std::__1::basic_ios.base" }
%"class.std::__1::basic_ostream.base" = type { i32 (...)** }
%"class.std::__1::basic_stringbuf" = type <{ %"class.std::__1::basic_streambuf", %"class.std::__1::basic_string", i8*, i32, [4 x i8] }>
%"class.std::__1::basic_streambuf" = type { i32 (...)**, %"class.std::__1::locale", i8*, i8*, i8*, i8*, i8*, i8* }
%"class.std::__1::locale" = type { %"class.std::__1::locale::__imp"* }
%"class.std::__1::locale::__imp" = type opaque
%"class.std::__1::basic_ios.base" = type <{ %"class.std::__1::ios_base", %"class.std::__1::basic_ostream"*, i32 }>
%"class.std::__1::ios_base" = type { i32 (...)**, i32, i64, i64, i32, i32, i8*, i8*, void (i32, %"class.std::__1::ios_base"*, i32)**, i32*, i64, i64, i64*, i64, i64, i8**, i64, i64 }
%"class.std::__1::basic_ostream" = type { i32 (...)**, %"class.std::__1::basic_ios.base" }
%"class.base::ScopedClearLastErrorBase" = type { i32 }
%"class.base::TaskRunner" = type <{ i32 (...)**, %"class.base::RefCountedThreadSafe.205", [4 x i8] }>

$_ZN7network5mojom13URLLoaderStubIN4mojo19RawPtrImplRefTraitsINS0_9URLLoaderEEEED0Ev = comdat any

$_ZN7network5mojom13URLLoaderStubIN4mojo19RawPtrImplRefTraitsINS0_9URLLoaderEEEE6AcceptEPNS2_7MessageE = comdat any

$_ZN7network5mojom13URLLoaderStubIN4mojo19RawPtrImplRefTraitsINS0_9URLLoaderEEEE19AcceptWithResponderEPNS2_7MessageENSt3__110unique_ptrINS2_25MessageReceiverWithStatusENS9_14default_deleteISB_EEEE = comdat any

$_ZN4mojo15MessageReceiverD2Ev = comdat any

$_ZN4base8internal7InvokerINS0_9BindStateIM32PrefetchProxyFromStringURLLoaderFvRKN7network15ResourceRequestEN4mojo15PendingReceiverINS4_5mojom9URLLoaderEEENS8_13PendingRemoteINSA_15URLLoaderClientEEEEJNS_7WeakPtrIS3_EEEEEFvS7_SC_SF_EE7RunOnceEPNS0_13BindStateBaseES7_OSC_OSF_ = comdat any

$_ZN4base8internal13FunctorTraitsIM32PrefetchProxyFromStringURLLoaderFvRKN7network15ResourceRequestEN4mojo15PendingReceiverINS3_5mojom9URLLoaderEEENS7_13PendingRemoteINS9_15URLLoaderClientEEEEvE6InvokeISG_NS_7WeakPtrIS2_EEJS6_SB_SE_EEEvT_OT0_DpOT1_ = comdat any

$_ZN4base8internal9BindStateIM32PrefetchProxyFromStringURLLoaderFvRKN7network15ResourceRequestEN4mojo15PendingReceiverINS3_5mojom9URLLoaderEEENS7_13PendingRemoteINS9_15URLLoaderClientEEEEJNS_7WeakPtrIS2_EEEE7DestroyEPKNS0_13BindStateBaseE = comdat any

$_ZN4base8internal23QueryCancellationTraitsINS0_9BindStateIM32PrefetchProxyFromStringURLLoaderFvRKN7network15ResourceRequestEN4mojo15PendingReceiverINS4_5mojom9URLLoaderEEENS8_13PendingRemoteINSA_15URLLoaderClientEEEEJNS_7WeakPtrIS3_EEEEEEEbPKNS0_13BindStateBaseENSL_21CancellationQueryModeE = comdat any

$_ZN4base8internal7InvokerINS0_9BindStateIM32PrefetchProxyFromStringURLLoaderFvvEJNS_7WeakPtrIS3_EEEEEFvvEE7RunOnceEPNS0_13BindStateBaseE = comdat any

$_ZN4base8internal9BindStateIM32PrefetchProxyFromStringURLLoaderFvvEJNS_7WeakPtrIS2_EEEE7DestroyEPKNS0_13BindStateBaseE = comdat any

$_ZN4base8internal23QueryCancellationTraitsINS0_9BindStateIM32PrefetchProxyFromStringURLLoaderFvvEJNS_7WeakPtrIS3_EEEEEEEbPKNS0_13BindStateBaseENS9_21CancellationQueryModeE = comdat any

$_ZN4mojo6RemoteIN7network5mojom15URLLoaderClientEE4BindENS_13PendingRemoteIS3_EE13scoped_refptrIN4base19SequencedTaskRunnerEE = comdat any

$_ZN4base8internal7InvokerINS0_9BindStateIM32PrefetchProxyFromStringURLLoaderFvjRKN4mojo18HandleSignalsStateEEJNS_7WeakPtrIS3_EEEEEFvjS7_EE3RunEPNS0_13BindStateBaseEjS7_ = comdat any

$_ZN4base8internal9BindStateIM32PrefetchProxyFromStringURLLoaderFvjRKN4mojo18HandleSignalsStateEEJNS_7WeakPtrIS2_EEEE7DestroyEPKNS0_13BindStateBaseE = comdat any

$_ZN4base8internal23QueryCancellationTraitsINS0_9BindStateIM32PrefetchProxyFromStringURLLoaderFvjRKN4mojo18HandleSignalsStateEEJNS_7WeakPtrIS3_EEEEEEEbPKNS0_13BindStateBaseENSD_21CancellationQueryModeE = comdat any

$_ZTVN7network5mojom13URLLoaderStubIN4mojo19RawPtrImplRefTraitsINS0_9URLLoaderEEEEE = comdat any

@_ZTV32PrefetchProxyFromStringURLLoader = hidden unnamed_addr constant { [8 x i8*] } { [8 x i8*] [i8* null, i8* null, i8* bitcast (void (%class.PrefetchProxyFromStringURLLoader*)* @_ZN32PrefetchProxyFromStringURLLoaderD2Ev to i8*), i8* bitcast (void (%class.PrefetchProxyFromStringURLLoader*)* @_ZN32PrefetchProxyFromStringURLLoaderD0Ev to i8*), i8* bitcast (void (%class.PrefetchProxyFromStringURLLoader*, %"class.std::__1::vector.37"*, %"class.net::HttpRequestHeaders"*, %"class.net::HttpRequestHeaders"*, %"class.absl::optional.510"*)* @_ZN32PrefetchProxyFromStringURLLoader14FollowRedirectERKNSt3__16vectorINS0_12basic_stringIcNS0_11char_traitsIcEENS0_9allocatorIcEEEENS5_IS7_EEEERKN3net18HttpRequestHeadersESF_RKN4absl8optionalI4GURLEE to i8*), i8* bitcast (void (%class.PrefetchProxyFromStringURLLoader*, i32, i32)* @_ZN32PrefetchProxyFromStringURLLoader11SetPriorityEN3net15RequestPriorityEi to i8*), i8* bitcast (void (%class.PrefetchProxyFromStringURLLoader*)* @_ZN32PrefetchProxyFromStringURLLoader23PauseReadingBodyFromNetEv to i8*), i8* bitcast (void (%class.PrefetchProxyFromStringURLLoader*)* @_ZN32PrefetchProxyFromStringURLLoader24ResumeReadingBodyFromNetEv to i8*)] }, align 8
@.str = private unnamed_addr constant [13 x i8] c"BindAndStart\00", align 1
@.str.1 = private unnamed_addr constant [86 x i8] c"../../chrome/browser/prefetch/prefetch_proxy/prefetch_proxy_from_string_url_loader.cc\00", align 1
@_ZTVN7network5mojom13URLLoaderStubIN4mojo19RawPtrImplRefTraitsINS0_9URLLoaderEEEEE = linkonce_odr hidden unnamed_addr constant { [7 x i8*] } { [7 x i8*] [i8* null, i8* null, i8* bitcast (void (%"class.mojo::MessageReceiver"*)* @_ZN4mojo15MessageReceiverD2Ev to i8*), i8* bitcast (void (%"class.network::mojom::URLLoaderStub"*)* @_ZN7network5mojom13URLLoaderStubIN4mojo19RawPtrImplRefTraitsINS0_9URLLoaderEEEED0Ev to i8*), i8* bitcast (i1 (%"class.mojo::MessageReceiver"*)* @_ZN4mojo15MessageReceiver25PrefersSerializedMessagesEv to i8*), i8* bitcast (i1 (%"class.network::mojom::URLLoaderStub"*, %"class.mojo::Message"*)* @_ZN7network5mojom13URLLoaderStubIN4mojo19RawPtrImplRefTraitsINS0_9URLLoaderEEEE6AcceptEPNS2_7MessageE to i8*), i8* bitcast (i1 (%"class.network::mojom::URLLoaderStub"*, %"class.mojo::Message"*, %"class.mojo::MessageReceiverWithStatus"*)* @_ZN7network5mojom13URLLoaderStubIN4mojo19RawPtrImplRefTraitsINS0_9URLLoaderEEEE19AcceptWithResponderEPNS2_7MessageENSt3__110unique_ptrINS2_25MessageReceiverWithStatusENS9_14default_deleteISB_EEEE to i8*)] }, comdat, align 8
@.str.2 = private unnamed_addr constant [29 x i8] c"../../base/memory/weak_ptr.h\00", align 1
@.str.3 = private unnamed_addr constant [15 x i8] c"ref_.IsValid()\00", align 1
@_ZN7network5mojom9URLLoader5Name_E = external constant [0 x i8], align 1
@_ZTVN7network5mojom25URLLoaderRequestValidatorE = external unnamed_addr constant { [6 x i8*] }, align 8
@_ZN7network5mojom15URLLoaderClient5Name_E = external constant [0 x i8], align 1
@_ZTVN7network5mojom32URLLoaderClientResponseValidatorE = external unnamed_addr constant { [6 x i8*] }, align 8

@_ZN32PrefetchProxyFromStringURLLoaderC1ENSt3__110unique_ptrI36PrefetchedMainframeResponseContainerNS0_14default_deleteIS2_EEEERKN7network15ResourceRequestE = hidden unnamed_addr alias void (%class.PrefetchProxyFromStringURLLoader*, %class.PrefetchedMainframeResponseContainer*, %"struct.network::ResourceRequest"*), void (%class.PrefetchProxyFromStringURLLoader*, %class.PrefetchedMainframeResponseContainer*, %"struct.network::ResourceRequest"*)* @_ZN32PrefetchProxyFromStringURLLoaderC2ENSt3__110unique_ptrI36PrefetchedMainframeResponseContainerNS0_14default_deleteIS2_EEEERKN7network15ResourceRequestE
@_ZN32PrefetchProxyFromStringURLLoaderD1Ev = hidden unnamed_addr alias void (%class.PrefetchProxyFromStringURLLoader*), void (%class.PrefetchProxyFromStringURLLoader*)* @_ZN32PrefetchProxyFromStringURLLoaderD2Ev

; Function Attrs: nounwind ssp uwtable
define hidden void @_ZN32PrefetchProxyFromStringURLLoaderC2ENSt3__110unique_ptrI36PrefetchedMainframeResponseContainerNS0_14default_deleteIS2_EEEERKN7network15ResourceRequestE(%class.PrefetchProxyFromStringURLLoader*, %class.PrefetchedMainframeResponseContainer*, %"struct.network::ResourceRequest"* nocapture readnone dereferenceable(1640)) unnamed_addr #0 align 2 {
  %4 = getelementptr inbounds %class.PrefetchProxyFromStringURLLoader, %class.PrefetchProxyFromStringURLLoader* %0, i64 0, i32 0, i32 0
  store i32 (...)** bitcast (i8** getelementptr inbounds ({ [8 x i8*] }, { [8 x i8*] }* @_ZTV32PrefetchProxyFromStringURLLoader, i64 0, inrange i32 0, i64 2) to i32 (...)**), i32 (...)*** %4, align 8
  %5 = getelementptr inbounds %class.PrefetchProxyFromStringURLLoader, %class.PrefetchProxyFromStringURLLoader* %0, i64 0, i32 1
  tail call void @_ZN36PrefetchedMainframeResponseContainer8TakeHeadEv(%"class.mojo::StructPtr"* sret %5, %class.PrefetchedMainframeResponseContainer* %1) #7
  %6 = tail call %"class.std::__1::basic_string"* @_ZN36PrefetchedMainframeResponseContainer8TakeBodyEv(%class.PrefetchedMainframeResponseContainer* %1) #7
  %7 = tail call i8* @_Znwm(i64 48) #8
  %8 = bitcast i8* %7 to %"class.net::StringIOBuffer"*
  tail call void @_ZN3net14StringIOBufferC1ENSt3__110unique_ptrINS1_12basic_stringIcNS1_11char_traitsIcEENS1_9allocatorIcEEEENS1_14default_deleteIS8_EEEE(%"class.net::StringIOBuffer"* nonnull %8, %"class.std::__1::basic_string"* %6) #7
  %9 = getelementptr inbounds i8, i8* %7, i64 8
  %10 = bitcast i8* %9 to i32*
  %11 = atomicrmw add i32* %10, i32 1 monotonic
  %12 = getelementptr inbounds %class.PrefetchProxyFromStringURLLoader, %class.PrefetchProxyFromStringURLLoader* %0, i64 0, i32 2, i32 0
  %13 = bitcast %"class.net::StringIOBuffer"** %12 to i8**
  store i8* %7, i8** %13, align 8
  %14 = getelementptr inbounds %class.PrefetchProxyFromStringURLLoader, %class.PrefetchProxyFromStringURLLoader* %0, i64 0, i32 3
  store i32 0, i32* %14, align 8
  %15 = getelementptr inbounds %class.PrefetchProxyFromStringURLLoader, %class.PrefetchProxyFromStringURLLoader* %0, i64 0, i32 4
  %16 = getelementptr inbounds i8, i8* %7, i64 47
  %17 = load i8, i8* %16, align 1
  %18 = icmp slt i8 %17, 0
  br i1 %18, label %19, label %23

19:                                               ; preds = %3
  %20 = getelementptr inbounds i8, i8* %7, i64 32
  %21 = bitcast i8* %20 to i64*
  %22 = load i64, i64* %21, align 8
  br label %25

23:                                               ; preds = %3
  %24 = zext i8 %17 to i64
  br label %25

25:                                               ; preds = %19, %23
  %26 = phi i64 [ %22, %19 ], [ %24, %23 ]
  %27 = trunc i64 %26 to i32
  store i32 %27, i32* %15, align 4
  %28 = getelementptr inbounds %class.PrefetchProxyFromStringURLLoader, %class.PrefetchProxyFromStringURLLoader* %0, i64 0, i32 5, i32 0, i32 0
  tail call void @_ZN4mojo8internal16BindingStateBaseC2Ev(%"class.mojo::internal::BindingStateBase"* %28) #7
  %29 = getelementptr inbounds %class.PrefetchProxyFromStringURLLoader, %class.PrefetchProxyFromStringURLLoader* %0, i64 0, i32 5, i32 0, i32 1, i32 0, i32 0, i32 0
  store i32 (...)** bitcast (i8** getelementptr inbounds ({ [7 x i8*] }, { [7 x i8*] }* @_ZTVN7network5mojom13URLLoaderStubIN4mojo19RawPtrImplRefTraitsINS0_9URLLoaderEEEEE, i64 0, inrange i32 0, i64 2) to i32 (...)**), i32 (...)*** %29, align 8
  %30 = ptrtoint %class.PrefetchProxyFromStringURLLoader* %0 to i64
  %31 = getelementptr inbounds %class.PrefetchProxyFromStringURLLoader, %class.PrefetchProxyFromStringURLLoader* %0, i64 0, i32 5, i32 0, i32 1, i32 1
  %32 = bitcast %"class.network::mojom::URLLoader"** %31 to i64*
  store i64 %30, i64* %32, align 8
  %33 = getelementptr inbounds %class.PrefetchProxyFromStringURLLoader, %class.PrefetchProxyFromStringURLLoader* %0, i64 0, i32 6
  %34 = bitcast %"class.mojo::Remote"* %33 to %"class.mojo::internal::InterfacePtrStateBase"*
  tail call void @_ZN4mojo8internal21InterfacePtrStateBaseC2Ev(%"class.mojo::internal::InterfacePtrStateBase"* %34) #7
  %35 = getelementptr inbounds %class.PrefetchProxyFromStringURLLoader, %class.PrefetchProxyFromStringURLLoader* %0, i64 0, i32 6, i32 0, i32 1
  %36 = bitcast %"class.std::__1::unique_ptr.384"* %35 to i64*
  store i64 0, i64* %36, align 8
  %37 = getelementptr inbounds %class.PrefetchProxyFromStringURLLoader, %class.PrefetchProxyFromStringURLLoader* %0, i64 0, i32 7, i32 0, i32 0, i32 0
  store i32 0, i32* %37, align 4
  %38 = getelementptr inbounds %class.PrefetchProxyFromStringURLLoader, %class.PrefetchProxyFromStringURLLoader* %0, i64 0, i32 8
  %39 = bitcast %"class.std::__1::unique_ptr.227"* %38 to i64*
  store i64 0, i64* %39, align 8
  %40 = getelementptr inbounds %class.PrefetchProxyFromStringURLLoader, %class.PrefetchProxyFromStringURLLoader* %0, i64 0, i32 9, i32 0
  tail call void @_ZN4base8internal18WeakPtrFactoryBaseC2Em(%"class.base::internal::WeakPtrFactoryBase"* %40, i64 %30) #7
  %41 = icmp eq %class.PrefetchedMainframeResponseContainer* %1, null
  br i1 %41, label %44, label %42

42:                                               ; preds = %25
  tail call void @_ZN36PrefetchedMainframeResponseContainerD1Ev(%class.PrefetchedMainframeResponseContainer* nonnull %1) #7
  %43 = bitcast %class.PrefetchedMainframeResponseContainer* %1 to i8*
  tail call void @_ZdlPv(i8* %43) #8
  br label %44

44:                                               ; preds = %25, %42
  ret void
}

declare void @_ZN36PrefetchedMainframeResponseContainer8TakeHeadEv(%"class.mojo::StructPtr"* sret, %class.PrefetchedMainframeResponseContainer*) local_unnamed_addr #1

; Function Attrs: argmemonly nounwind
declare void @llvm.lifetime.start.p0i8(i64 immarg, i8* nocapture) #2

declare %"class.std::__1::basic_string"* @_ZN36PrefetchedMainframeResponseContainer8TakeBodyEv(%class.PrefetchedMainframeResponseContainer*) local_unnamed_addr #1

; Function Attrs: argmemonly nounwind
declare void @llvm.lifetime.end.p0i8(i64 immarg, i8* nocapture) #2

; Function Attrs: nounwind ssp uwtable
define hidden void @_ZN32PrefetchProxyFromStringURLLoaderD2Ev(%class.PrefetchProxyFromStringURLLoader*) unnamed_addr #0 align 2 {
  %2 = getelementptr inbounds %class.PrefetchProxyFromStringURLLoader, %class.PrefetchProxyFromStringURLLoader* %0, i64 0, i32 0, i32 0
  store i32 (...)** bitcast (i8** getelementptr inbounds ({ [8 x i8*] }, { [8 x i8*] }* @_ZTV32PrefetchProxyFromStringURLLoader, i64 0, inrange i32 0, i64 2) to i32 (...)**), i32 (...)*** %2, align 8
  %3 = getelementptr inbounds %class.PrefetchProxyFromStringURLLoader, %class.PrefetchProxyFromStringURLLoader* %0, i64 0, i32 9, i32 0
  tail call void @_ZN4base8internal18WeakPtrFactoryBaseD2Ev(%"class.base::internal::WeakPtrFactoryBase"* %3) #7
  %4 = getelementptr inbounds %class.PrefetchProxyFromStringURLLoader, %class.PrefetchProxyFromStringURLLoader* %0, i64 0, i32 8, i32 0, i32 0, i32 0
  %5 = load %"class.mojo::SimpleWatcher"*, %"class.mojo::SimpleWatcher"** %4, align 8
  store %"class.mojo::SimpleWatcher"* null, %"class.mojo::SimpleWatcher"** %4, align 8
  %6 = icmp eq %"class.mojo::SimpleWatcher"* %5, null
  br i1 %6, label %9, label %7

7:                                                ; preds = %1
  tail call void @_ZN4mojo13SimpleWatcherD1Ev(%"class.mojo::SimpleWatcher"* nonnull %5) #7
  %8 = bitcast %"class.mojo::SimpleWatcher"* %5 to i8*
  tail call void @_ZdlPv(i8* %8) #8
  br label %9

9:                                                ; preds = %1, %7
  %10 = getelementptr inbounds %class.PrefetchProxyFromStringURLLoader, %class.PrefetchProxyFromStringURLLoader* %0, i64 0, i32 7, i32 0, i32 0, i32 0
  %11 = load i32, i32* %10, align 4
  %12 = icmp eq i32 %11, 0
  br i1 %12, label %15, label %13

13:                                               ; preds = %9
  %14 = tail call i32 @MojoClose(i32 %11) #7
  br label %15

15:                                               ; preds = %9, %13
  %16 = getelementptr inbounds %class.PrefetchProxyFromStringURLLoader, %class.PrefetchProxyFromStringURLLoader* %0, i64 0, i32 6
  %17 = getelementptr inbounds %class.PrefetchProxyFromStringURLLoader, %class.PrefetchProxyFromStringURLLoader* %0, i64 0, i32 6, i32 0, i32 1, i32 0, i32 0, i32 0
  %18 = load %"class.network::mojom::URLLoaderClientProxy"*, %"class.network::mojom::URLLoaderClientProxy"** %17, align 8
  store %"class.network::mojom::URLLoaderClientProxy"* null, %"class.network::mojom::URLLoaderClientProxy"** %17, align 8
  %19 = icmp eq %"class.network::mojom::URLLoaderClientProxy"* %18, null
  br i1 %19, label %25, label %20

20:                                               ; preds = %15
  %21 = bitcast %"class.network::mojom::URLLoaderClientProxy"* %18 to void (%"class.network::mojom::URLLoaderClientProxy"*)***
  %22 = load void (%"class.network::mojom::URLLoaderClientProxy"*)**, void (%"class.network::mojom::URLLoaderClientProxy"*)*** %21, align 8
  %23 = getelementptr inbounds void (%"class.network::mojom::URLLoaderClientProxy"*)*, void (%"class.network::mojom::URLLoaderClientProxy"*)** %22, i64 1
  %24 = load void (%"class.network::mojom::URLLoaderClientProxy"*)*, void (%"class.network::mojom::URLLoaderClientProxy"*)** %23, align 8
  tail call void %24(%"class.network::mojom::URLLoaderClientProxy"* nonnull %18) #7
  br label %25

25:                                               ; preds = %15, %20
  %26 = bitcast %"class.mojo::Remote"* %16 to %"class.mojo::internal::InterfacePtrStateBase"*
  tail call void @_ZN4mojo8internal21InterfacePtrStateBaseD2Ev(%"class.mojo::internal::InterfacePtrStateBase"* %26) #7
  %27 = getelementptr inbounds %class.PrefetchProxyFromStringURLLoader, %class.PrefetchProxyFromStringURLLoader* %0, i64 0, i32 5, i32 0, i32 0
  tail call void @_ZN4mojo8internal16BindingStateBase5CloseEv(%"class.mojo::internal::BindingStateBase"* %27) #7
  tail call void @_ZN4mojo8internal16BindingStateBaseD2Ev(%"class.mojo::internal::BindingStateBase"* %27) #7
  %28 = getelementptr inbounds %class.PrefetchProxyFromStringURLLoader, %class.PrefetchProxyFromStringURLLoader* %0, i64 0, i32 2, i32 0
  %29 = load %"class.net::StringIOBuffer"*, %"class.net::StringIOBuffer"** %28, align 8
  %30 = icmp eq %"class.net::StringIOBuffer"* %29, null
  br i1 %30, label %43, label %31

31:                                               ; preds = %25
  %32 = getelementptr inbounds %"class.net::StringIOBuffer", %"class.net::StringIOBuffer"* %29, i64 0, i32 0, i32 1
  %33 = getelementptr inbounds %"class.base::RefCountedThreadSafe.201", %"class.base::RefCountedThreadSafe.201"* %32, i64 0, i32 0, i32 0, i32 0, i32 0, i32 0, i32 0, i32 0, i32 0
  %34 = atomicrmw sub i32* %33, i32 1 acq_rel
  %35 = icmp eq i32 %34, 1
  br i1 %35, label %36, label %43

36:                                               ; preds = %31
  %37 = getelementptr inbounds %"class.base::RefCountedThreadSafe.201", %"class.base::RefCountedThreadSafe.201"* %32, i64 -2
  %38 = bitcast %"class.base::RefCountedThreadSafe.201"* %37 to %"class.net::IOBuffer"*
  %39 = bitcast %"class.base::RefCountedThreadSafe.201"* %37 to void (%"class.net::IOBuffer"*)***
  %40 = load void (%"class.net::IOBuffer"*)**, void (%"class.net::IOBuffer"*)*** %39, align 8
  %41 = getelementptr inbounds void (%"class.net::IOBuffer"*)*, void (%"class.net::IOBuffer"*)** %40, i64 1
  %42 = load void (%"class.net::IOBuffer"*)*, void (%"class.net::IOBuffer"*)** %41, align 8
  tail call void %42(%"class.net::IOBuffer"* nonnull %38) #7
  br label %43

43:                                               ; preds = %25, %31, %36
  %44 = getelementptr inbounds %class.PrefetchProxyFromStringURLLoader, %class.PrefetchProxyFromStringURLLoader* %0, i64 0, i32 1, i32 0, i32 0, i32 0, i32 0
  %45 = load %"class.network::mojom::URLResponseHead"*, %"class.network::mojom::URLResponseHead"** %44, align 8
  store %"class.network::mojom::URLResponseHead"* null, %"class.network::mojom::URLResponseHead"** %44, align 8
  %46 = icmp eq %"class.network::mojom::URLResponseHead"* %45, null
  br i1 %46, label %49, label %47

47:                                               ; preds = %43
  tail call void @_ZN7network5mojom15URLResponseHeadD1Ev(%"class.network::mojom::URLResponseHead"* nonnull %45) #7
  %48 = bitcast %"class.network::mojom::URLResponseHead"* %45 to i8*
  tail call void @_ZdlPv(i8* %48) #8
  br label %49

49:                                               ; preds = %43, %47
  ret void
}

; Function Attrs: nounwind
declare void @_ZN4base8internal18WeakPtrFactoryBaseD2Ev(%"class.base::internal::WeakPtrFactoryBase"*) unnamed_addr #3

; Function Attrs: nounwind ssp uwtable
define hidden void @_ZN32PrefetchProxyFromStringURLLoaderD0Ev(%class.PrefetchProxyFromStringURLLoader*) unnamed_addr #0 align 2 {
  tail call void @_ZN32PrefetchProxyFromStringURLLoaderD2Ev(%class.PrefetchProxyFromStringURLLoader* %0) #7
  %2 = bitcast %class.PrefetchProxyFromStringURLLoader* %0 to i8*
  tail call void @_ZdlPv(i8* %2) #8
  ret void
}

; Function Attrs: nobuiltin nounwind
declare void @_ZdlPv(i8*) local_unnamed_addr #4

; Function Attrs: norecurse nounwind readnone ssp uwtable
define hidden void @_ZN32PrefetchProxyFromStringURLLoader14FollowRedirectERKNSt3__16vectorINS0_12basic_stringIcNS0_11char_traitsIcEENS0_9allocatorIcEEEENS5_IS7_EEEERKN3net18HttpRequestHeadersESF_RKN4absl8optionalI4GURLEE(%class.PrefetchProxyFromStringURLLoader* nocapture, %"class.std::__1::vector.37"* nocapture dereferenceable(24), %"class.net::HttpRequestHeaders"* nocapture dereferenceable(24), %"class.net::HttpRequestHeaders"* nocapture dereferenceable(24), %"class.absl::optional.510"* nocapture dereferenceable(128)) unnamed_addr #5 align 2 {
  ret void
}

; Function Attrs: norecurse nounwind readnone ssp uwtable
define hidden void @_ZN32PrefetchProxyFromStringURLLoader11SetPriorityEN3net15RequestPriorityEi(%class.PrefetchProxyFromStringURLLoader* nocapture, i32, i32) unnamed_addr #5 align 2 {
  ret void
}

; Function Attrs: norecurse nounwind readnone ssp uwtable
define hidden void @_ZN32PrefetchProxyFromStringURLLoader23PauseReadingBodyFromNetEv(%class.PrefetchProxyFromStringURLLoader* nocapture) unnamed_addr #5 align 2 {
  ret void
}

; Function Attrs: norecurse nounwind readnone ssp uwtable
define hidden void @_ZN32PrefetchProxyFromStringURLLoader24ResumeReadingBodyFromNetEv(%class.PrefetchProxyFromStringURLLoader* nocapture) unnamed_addr #5 align 2 {
  ret void
}

; Function Attrs: nounwind ssp uwtable
define hidden void @_ZN32PrefetchProxyFromStringURLLoader15TransferRawDataEv(%class.PrefetchProxyFromStringURLLoader*) local_unnamed_addr #0 align 2 {
  %2 = alloca %struct.MojoWriteDataOptions, align 8
  %3 = alloca i32, align 4
  %4 = bitcast i32* %3 to i8*
  call void @llvm.lifetime.start.p0i8(i64 4, i8* nonnull %4) #7
  %5 = getelementptr inbounds %class.PrefetchProxyFromStringURLLoader, %class.PrefetchProxyFromStringURLLoader* %0, i64 0, i32 4
  %6 = load i32, i32* %5, align 4
  %7 = getelementptr inbounds %class.PrefetchProxyFromStringURLLoader, %class.PrefetchProxyFromStringURLLoader* %0, i64 0, i32 3
  %8 = load i32, i32* %7, align 8
  %9 = sub nsw i32 %6, %8
  store i32 %9, i32* %3, align 4
  %10 = icmp eq i32 %9, 0
  br i1 %10, label %17, label %11

11:                                               ; preds = %1
  %12 = getelementptr inbounds %class.PrefetchProxyFromStringURLLoader, %class.PrefetchProxyFromStringURLLoader* %0, i64 0, i32 2, i32 0
  %13 = bitcast %struct.MojoWriteDataOptions* %2 to i8*
  %14 = getelementptr inbounds %struct.MojoWriteDataOptions, %struct.MojoWriteDataOptions* %2, i64 0, i32 0
  %15 = getelementptr inbounds %struct.MojoWriteDataOptions, %struct.MojoWriteDataOptions* %2, i64 0, i32 1
  %16 = getelementptr inbounds %class.PrefetchProxyFromStringURLLoader, %class.PrefetchProxyFromStringURLLoader* %0, i64 0, i32 7, i32 0, i32 0, i32 0
  br label %18

17:                                               ; preds = %31, %1
  call void @_ZN32PrefetchProxyFromStringURLLoader6FinishEi(%class.PrefetchProxyFromStringURLLoader* %0, i32 0)
  br label %38

18:                                               ; preds = %11, %31
  %19 = phi i32 [ %8, %11 ], [ %34, %31 ]
  %20 = load %"class.net::StringIOBuffer"*, %"class.net::StringIOBuffer"** %12, align 8
  %21 = getelementptr inbounds %"class.net::StringIOBuffer", %"class.net::StringIOBuffer"* %20, i64 0, i32 0, i32 2
  %22 = load i8*, i8** %21, align 8
  %23 = sext i32 %19 to i64
  %24 = getelementptr inbounds i8, i8* %22, i64 %23
  call void @llvm.lifetime.start.p0i8(i64 8, i8* nonnull %13) #7
  store i32 8, i32* %14, align 8
  store i32 0, i32* %15, align 4
  %25 = load i32, i32* %16, align 4
  %26 = call i32 @MojoWriteData(i32 %25, i8* %24, i32* nonnull %3, %struct.MojoWriteDataOptions* nonnull %2) #7
  call void @llvm.lifetime.end.p0i8(i64 8, i8* nonnull %13) #7
  switch i32 %26, label %30 [
    i32 17, label %27
    i32 0, label %31
  ]

27:                                               ; preds = %18
  %28 = getelementptr inbounds %class.PrefetchProxyFromStringURLLoader, %class.PrefetchProxyFromStringURLLoader* %0, i64 0, i32 8, i32 0, i32 0, i32 0
  %29 = load %"class.mojo::SimpleWatcher"*, %"class.mojo::SimpleWatcher"** %28, align 8
  call void @_ZN4mojo13SimpleWatcher11ArmOrNotifyEv(%"class.mojo::SimpleWatcher"* %29) #7
  br label %38

30:                                               ; preds = %18
  call void @_ZN32PrefetchProxyFromStringURLLoader6FinishEi(%class.PrefetchProxyFromStringURLLoader* %0, i32 -2)
  br label %38

31:                                               ; preds = %18
  %32 = load i32, i32* %3, align 4
  %33 = load i32, i32* %7, align 8
  %34 = add i32 %33, %32
  store i32 %34, i32* %7, align 8
  call void @llvm.lifetime.end.p0i8(i64 4, i8* nonnull %4) #7
  call void @llvm.lifetime.start.p0i8(i64 4, i8* nonnull %4) #7
  %35 = load i32, i32* %5, align 4
  %36 = sub nsw i32 %35, %34
  store i32 %36, i32* %3, align 4
  %37 = icmp eq i32 %36, 0
  br i1 %37, label %17, label %18

38:                                               ; preds = %17, %27, %30
  call void @llvm.lifetime.end.p0i8(i64 4, i8* nonnull %4) #7
  ret void
}

; Function Attrs: nounwind ssp uwtable
define hidden void @_ZN32PrefetchProxyFromStringURLLoader6FinishEi(%class.PrefetchProxyFromStringURLLoader*, i32) local_unnamed_addr #0 align 2 {
  %3 = alloca %"class.mojo::internal::InterfacePtrState", align 8
  %4 = alloca %"struct.network::URLLoaderCompletionStatus", align 8
  %5 = getelementptr inbounds %class.PrefetchProxyFromStringURLLoader, %class.PrefetchProxyFromStringURLLoader* %0, i64 0, i32 6
  %6 = getelementptr inbounds %class.PrefetchProxyFromStringURLLoader, %class.PrefetchProxyFromStringURLLoader* %0, i64 0, i32 6, i32 0, i32 1
  %7 = getelementptr inbounds %"class.std::__1::unique_ptr.384", %"class.std::__1::unique_ptr.384"* %6, i64 0, i32 0, i32 0, i32 0
  %8 = load %"class.network::mojom::URLLoaderClientProxy"*, %"class.network::mojom::URLLoaderClientProxy"** %7, align 8
  %9 = icmp eq %"class.network::mojom::URLLoaderClientProxy"* %8, null
  br i1 %9, label %10, label %31

10:                                               ; preds = %2
  %11 = bitcast %"class.mojo::Remote"* %5 to %"class.mojo::internal::InterfacePtrStateBase"*
  %12 = tail call i8* @_Znwm(i64 8) #8
  %13 = bitcast i8* %12 to i32 (...)***
  store i32 (...)** bitcast (i8** getelementptr inbounds ({ [6 x i8*] }, { [6 x i8*] }* @_ZTVN7network5mojom32URLLoaderClientResponseValidatorE, i64 0, inrange i32 0, i64 2) to i32 (...)**), i32 (...)*** %13, align 8
  %14 = bitcast i8* %12 to %"class.mojo::MessageReceiver"*
  %15 = tail call zeroext i1 @_ZN4mojo8internal21InterfacePtrStateBase24InitializeEndpointClientEbbbNSt3__110unique_ptrINS_15MessageReceiverENS2_14default_deleteIS4_EEEEPKc(%"class.mojo::internal::InterfacePtrStateBase"* %11, i1 zeroext false, i1 zeroext false, i1 zeroext false, %"class.mojo::MessageReceiver"* nonnull %14, i8* getelementptr inbounds ([0 x i8], [0 x i8]* @_ZN7network5mojom15URLLoaderClient5Name_E, i64 0, i64 0)) #7
  br i1 %15, label %16, label %31

16:                                               ; preds = %10
  %17 = getelementptr inbounds %class.PrefetchProxyFromStringURLLoader, %class.PrefetchProxyFromStringURLLoader* %0, i64 0, i32 6, i32 0, i32 0, i32 1, i32 0, i32 0, i32 0
  %18 = bitcast %"class.mojo::InterfaceEndpointClient"** %17 to %"class.mojo::MessageReceiverWithResponder"**
  %19 = load %"class.mojo::MessageReceiverWithResponder"*, %"class.mojo::MessageReceiverWithResponder"** %18, align 8
  %20 = tail call i8* @_Znwm(i64 16) #8
  %21 = bitcast i8* %20 to %"class.network::mojom::URLLoaderClientProxy"*
  tail call void @_ZN7network5mojom20URLLoaderClientProxyC1EPN4mojo28MessageReceiverWithResponderE(%"class.network::mojom::URLLoaderClientProxy"* nonnull %21, %"class.mojo::MessageReceiverWithResponder"* %19) #7
  %22 = ptrtoint i8* %20 to i64
  %23 = load %"class.network::mojom::URLLoaderClientProxy"*, %"class.network::mojom::URLLoaderClientProxy"** %7, align 8
  %24 = bitcast %"class.std::__1::unique_ptr.384"* %6 to i64*
  store i64 %22, i64* %24, align 8
  %25 = icmp eq %"class.network::mojom::URLLoaderClientProxy"* %23, null
  br i1 %25, label %31, label %26

26:                                               ; preds = %16
  %27 = bitcast %"class.network::mojom::URLLoaderClientProxy"* %23 to void (%"class.network::mojom::URLLoaderClientProxy"*)***
  %28 = load void (%"class.network::mojom::URLLoaderClientProxy"*)**, void (%"class.network::mojom::URLLoaderClientProxy"*)*** %27, align 8
  %29 = getelementptr inbounds void (%"class.network::mojom::URLLoaderClientProxy"*)*, void (%"class.network::mojom::URLLoaderClientProxy"*)** %28, i64 1
  %30 = load void (%"class.network::mojom::URLLoaderClientProxy"*)*, void (%"class.network::mojom::URLLoaderClientProxy"*)** %29, align 8
  tail call void %30(%"class.network::mojom::URLLoaderClientProxy"* nonnull %23) #7
  br label %31

31:                                               ; preds = %2, %10, %16, %26
  %32 = load %"class.network::mojom::URLLoaderClientProxy"*, %"class.network::mojom::URLLoaderClientProxy"** %7, align 8
  %33 = bitcast %"struct.network::URLLoaderCompletionStatus"* %4 to i8*
  call void @llvm.lifetime.start.p0i8(i64 312, i8* nonnull %33) #7
  call void @_ZN7network25URLLoaderCompletionStatusC1Ei(%"struct.network::URLLoaderCompletionStatus"* nonnull %4, i32 %1) #7
  call void @_ZN7network5mojom20URLLoaderClientProxy10OnCompleteERKNS_25URLLoaderCompletionStatusE(%"class.network::mojom::URLLoaderClientProxy"* %32, %"struct.network::URLLoaderCompletionStatus"* nonnull dereferenceable(312) %4) #7
  call void @_ZN7network25URLLoaderCompletionStatusD1Ev(%"struct.network::URLLoaderCompletionStatus"* nonnull %4) #7
  call void @llvm.lifetime.end.p0i8(i64 312, i8* nonnull %33) #7
  %34 = getelementptr inbounds %class.PrefetchProxyFromStringURLLoader, %class.PrefetchProxyFromStringURLLoader* %0, i64 0, i32 8, i32 0, i32 0, i32 0
  %35 = load %"class.mojo::SimpleWatcher"*, %"class.mojo::SimpleWatcher"** %34, align 8
  store %"class.mojo::SimpleWatcher"* null, %"class.mojo::SimpleWatcher"** %34, align 8
  %36 = icmp eq %"class.mojo::SimpleWatcher"* %35, null
  br i1 %36, label %39, label %37

37:                                               ; preds = %31
  call void @_ZN4mojo13SimpleWatcherD1Ev(%"class.mojo::SimpleWatcher"* nonnull %35) #7
  %38 = bitcast %"class.mojo::SimpleWatcher"* %35 to i8*
  call void @_ZdlPv(i8* %38) #8
  br label %39

39:                                               ; preds = %31, %37
  %40 = getelementptr inbounds %class.PrefetchProxyFromStringURLLoader, %class.PrefetchProxyFromStringURLLoader* %0, i64 0, i32 7, i32 0, i32 0, i32 0
  %41 = load i32, i32* %40, align 4
  %42 = icmp eq i32 %41, 0
  br i1 %42, label %45, label %43

43:                                               ; preds = %39
  %44 = call i32 @MojoClose(i32 %41) #7
  br label %45

45:                                               ; preds = %39, %43
  store i32 0, i32* %40, align 4
  %46 = bitcast %"class.mojo::internal::InterfacePtrState"* %3 to i8*
  call void @llvm.lifetime.start.p0i8(i64 48, i8* nonnull %46) #7
  call void @llvm.memset.p0i8.i64(i8* nonnull align 8 %46, i8 -86, i64 48, i1 false) #7
  %47 = bitcast %"class.mojo::internal::InterfacePtrState"* %3 to %"class.mojo::internal::InterfacePtrStateBase"*
  call void @_ZN4mojo8internal21InterfacePtrStateBaseC2Ev(%"class.mojo::internal::InterfacePtrStateBase"* nonnull %47) #7
  %48 = getelementptr inbounds %"class.mojo::internal::InterfacePtrState", %"class.mojo::internal::InterfacePtrState"* %3, i64 0, i32 1
  %49 = bitcast %"class.std::__1::unique_ptr.384"* %48 to i64*
  %50 = bitcast %"class.std::__1::unique_ptr.384"* %6 to i64*
  %51 = load i64, i64* %50, align 8
  store i64 %51, i64* %49, align 8
  store i64 0, i64* %50, align 8
  %52 = bitcast %"class.mojo::Remote"* %5 to %"class.mojo::internal::InterfacePtrStateBase"*
  call void @_ZN4mojo8internal21InterfacePtrStateBase4SwapEPS1_(%"class.mojo::internal::InterfacePtrStateBase"* %52, %"class.mojo::internal::InterfacePtrStateBase"* nonnull %47) #7
  %53 = getelementptr inbounds %"class.mojo::internal::InterfacePtrState", %"class.mojo::internal::InterfacePtrState"* %3, i64 0, i32 1, i32 0, i32 0, i32 0
  %54 = load %"class.network::mojom::URLLoaderClientProxy"*, %"class.network::mojom::URLLoaderClientProxy"** %53, align 8
  store %"class.network::mojom::URLLoaderClientProxy"* null, %"class.network::mojom::URLLoaderClientProxy"** %53, align 8
  %55 = icmp eq %"class.network::mojom::URLLoaderClientProxy"* %54, null
  br i1 %55, label %61, label %56

56:                                               ; preds = %45
  %57 = bitcast %"class.network::mojom::URLLoaderClientProxy"* %54 to void (%"class.network::mojom::URLLoaderClientProxy"*)***
  %58 = load void (%"class.network::mojom::URLLoaderClientProxy"*)**, void (%"class.network::mojom::URLLoaderClientProxy"*)*** %57, align 8
  %59 = getelementptr inbounds void (%"class.network::mojom::URLLoaderClientProxy"*)*, void (%"class.network::mojom::URLLoaderClientProxy"*)** %58, i64 1
  %60 = load void (%"class.network::mojom::URLLoaderClientProxy"*)*, void (%"class.network::mojom::URLLoaderClientProxy"*)** %59, align 8
  call void %60(%"class.network::mojom::URLLoaderClientProxy"* nonnull %54) #7
  br label %61

61:                                               ; preds = %45, %56
  call void @_ZN4mojo8internal21InterfacePtrStateBaseD2Ev(%"class.mojo::internal::InterfacePtrStateBase"* nonnull %47) #7
  call void @llvm.lifetime.end.p0i8(i64 48, i8* nonnull %46) #7
  %62 = getelementptr inbounds %class.PrefetchProxyFromStringURLLoader, %class.PrefetchProxyFromStringURLLoader* %0, i64 0, i32 5, i32 0, i32 0
  call void @_ZN4mojo8internal16BindingStateBase5CloseEv(%"class.mojo::internal::BindingStateBase"* %62) #7
  %63 = getelementptr inbounds %class.PrefetchProxyFromStringURLLoader, %class.PrefetchProxyFromStringURLLoader* %0, i64 0, i32 9, i32 0, i32 0
  call void @_ZN4base8internal18WeakReferenceOwner10InvalidateEv(%"class.base::internal::WeakReferenceOwner"* %63) #7
  %64 = getelementptr inbounds %class.PrefetchProxyFromStringURLLoader, %class.PrefetchProxyFromStringURLLoader* %0, i64 0, i32 5, i32 0, i32 0, i32 0, i32 0
  %65 = load %"class.mojo::internal::MultiplexRouter"*, %"class.mojo::internal::MultiplexRouter"** %64, align 8
  %66 = icmp eq %"class.mojo::internal::MultiplexRouter"* %65, null
  br i1 %66, label %67, label %82

67:                                               ; preds = %61
  %68 = getelementptr inbounds %class.PrefetchProxyFromStringURLLoader, %class.PrefetchProxyFromStringURLLoader* %0, i64 0, i32 6, i32 0, i32 0, i32 2, i32 0, i32 0, i32 0
  %69 = load i32, i32* %68, align 4
  %70 = icmp eq i32 %69, 0
  br i1 %70, label %71, label %82

71:                                               ; preds = %67
  %72 = getelementptr inbounds %class.PrefetchProxyFromStringURLLoader, %class.PrefetchProxyFromStringURLLoader* %0, i64 0, i32 6, i32 0, i32 0, i32 1, i32 0, i32 0, i32 0
  %73 = load %"class.mojo::InterfaceEndpointClient"*, %"class.mojo::InterfaceEndpointClient"** %72, align 8
  %74 = icmp ne %"class.mojo::InterfaceEndpointClient"* %73, null
  %75 = icmp eq %class.PrefetchProxyFromStringURLLoader* %0, null
  %76 = or i1 %75, %74
  br i1 %76, label %82, label %77

77:                                               ; preds = %71
  %78 = bitcast %class.PrefetchProxyFromStringURLLoader* %0 to void (%class.PrefetchProxyFromStringURLLoader*)***
  %79 = load void (%class.PrefetchProxyFromStringURLLoader*)**, void (%class.PrefetchProxyFromStringURLLoader*)*** %78, align 8
  %80 = getelementptr inbounds void (%class.PrefetchProxyFromStringURLLoader*)*, void (%class.PrefetchProxyFromStringURLLoader*)** %79, i64 1
  %81 = load void (%class.PrefetchProxyFromStringURLLoader*)*, void (%class.PrefetchProxyFromStringURLLoader*)** %80, align 8
  call void %81(%class.PrefetchProxyFromStringURLLoader* nonnull %0) #7
  br label %82

82:                                               ; preds = %61, %67, %71, %77
  ret void
}

declare void @_ZN4mojo13SimpleWatcher11ArmOrNotifyEv(%"class.mojo::SimpleWatcher"*) local_unnamed_addr #1

; Function Attrs: nounwind ssp uwtable
define hidden void @_ZN32PrefetchProxyFromStringURLLoader22ServingResponseHandlerEv(%"class.base::OnceCallback.515"* noalias nocapture sret, %class.PrefetchProxyFromStringURLLoader*) local_unnamed_addr #0 align 2 {
  %3 = alloca %"class.base::internal::WeakReference", align 8
  %4 = alloca %"class.base::WeakPtr.516", align 8
  %5 = bitcast %"class.base::WeakPtr.516"* %4 to i8*
  call void @llvm.lifetime.start.p0i8(i64 16, i8* nonnull %5) #7
  %6 = bitcast %"class.base::internal::WeakReference"* %3 to i8*
  call void @llvm.lifetime.start.p0i8(i64 8, i8* nonnull %6) #7, !noalias !2
  %7 = getelementptr inbounds %class.PrefetchProxyFromStringURLLoader, %class.PrefetchProxyFromStringURLLoader* %1, i64 0, i32 9, i32 0, i32 0
  call void @_ZNK4base8internal18WeakReferenceOwner6GetRefEv(%"class.base::internal::WeakReference"* nonnull sret %3, %"class.base::internal::WeakReferenceOwner"* %7) #7, !noalias !2
  %8 = getelementptr inbounds %class.PrefetchProxyFromStringURLLoader, %class.PrefetchProxyFromStringURLLoader* %1, i64 0, i32 9, i32 0, i32 1
  %9 = load i64, i64* %8, align 8, !noalias !2
  %10 = getelementptr inbounds %"class.base::WeakPtr.516", %"class.base::WeakPtr.516"* %4, i64 0, i32 0
  call void @_ZN4base8internal11WeakPtrBaseC2ERKNS0_13WeakReferenceEm(%"class.base::internal::WeakPtrBase"* nonnull %10, %"class.base::internal::WeakReference"* nonnull dereferenceable(8) %3, i64 %9) #7
  call void @_ZN4base8internal13WeakReferenceD1Ev(%"class.base::internal::WeakReference"* nonnull %3) #7
  call void @llvm.lifetime.end.p0i8(i64 8, i8* nonnull %6) #7, !noalias !2
  %11 = call i8* @_Znwm(i64 64) #8, !noalias !5
  %12 = bitcast i8* %11 to %"class.base::internal::BindStateBase"*
  call void @_ZN4base8internal13BindStateBaseC2EPFvvEPFvPKS1_EPFbS5_NS1_21CancellationQueryModeEE(%"class.base::internal::BindStateBase"* nonnull %12, void ()* bitcast (void (%"class.base::internal::BindStateBase"*, %"struct.network::ResourceRequest"*, %"class.mojo::PendingReceiver"*, %"class.mojo::PendingRemote.517"*)* @_ZN4base8internal7InvokerINS0_9BindStateIM32PrefetchProxyFromStringURLLoaderFvRKN7network15ResourceRequestEN4mojo15PendingReceiverINS4_5mojom9URLLoaderEEENS8_13PendingRemoteINSA_15URLLoaderClientEEEEJNS_7WeakPtrIS3_EEEEEFvS7_SC_SF_EE7RunOnceEPNS0_13BindStateBaseES7_OSC_OSF_ to void ()*), void (%"class.base::internal::BindStateBase"*)* nonnull @_ZN4base8internal9BindStateIM32PrefetchProxyFromStringURLLoaderFvRKN7network15ResourceRequestEN4mojo15PendingReceiverINS3_5mojom9URLLoaderEEENS7_13PendingRemoteINS9_15URLLoaderClientEEEEJNS_7WeakPtrIS2_EEEE7DestroyEPKNS0_13BindStateBaseE, i1 (%"class.base::internal::BindStateBase"*, i32)* nonnull @_ZN4base8internal23QueryCancellationTraitsINS0_9BindStateIM32PrefetchProxyFromStringURLLoaderFvRKN7network15ResourceRequestEN4mojo15PendingReceiverINS4_5mojom9URLLoaderEEENS8_13PendingRemoteINSA_15URLLoaderClientEEEEJNS_7WeakPtrIS3_EEEEEEEbPKNS0_13BindStateBaseENSL_21CancellationQueryModeE) #7, !noalias !5
  %13 = getelementptr inbounds i8, i8* %11, i64 32
  %14 = bitcast i8* %13 to <2 x i64>*
  store <2 x i64> <i64 ptrtoint (void (%class.PrefetchProxyFromStringURLLoader*, %"struct.network::ResourceRequest"*, %"class.mojo::PendingReceiver"*, %"class.mojo::PendingRemote.517"*)* @_ZN32PrefetchProxyFromStringURLLoader12BindAndStartERKN7network15ResourceRequestEN4mojo15PendingReceiverINS0_5mojom9URLLoaderEEENS4_13PendingRemoteINS6_15URLLoaderClientEEE to i64), i64 0>, <2 x i64>* %14, align 8, !noalias !5
  %15 = getelementptr inbounds i8, i8* %11, i64 48
  %16 = bitcast i8* %15 to %"class.base::internal::WeakReference"*
  %17 = getelementptr inbounds %"class.base::WeakPtr.516", %"class.base::WeakPtr.516"* %4, i64 0, i32 0, i32 0
  call void @_ZN4base8internal13WeakReferenceC1EOS1_(%"class.base::internal::WeakReference"* %16, %"class.base::internal::WeakReference"* nonnull dereferenceable(8) %17) #7, !noalias !5
  %18 = getelementptr inbounds i8, i8* %11, i64 56
  %19 = bitcast i8* %18 to i64*
  %20 = getelementptr inbounds %"class.base::WeakPtr.516", %"class.base::WeakPtr.516"* %4, i64 0, i32 0, i32 1
  %21 = load i64, i64* %20, align 8, !noalias !5
  store i64 %21, i64* %19, align 8, !noalias !5
  %22 = bitcast %"class.base::OnceCallback.515"* %0 to i8**
  store i8* %11, i8** %22, align 8, !alias.scope !5
  call void @_ZN4base8internal11WeakPtrBaseD2Ev(%"class.base::internal::WeakPtrBase"* nonnull %10) #7
  call void @llvm.lifetime.end.p0i8(i64 16, i8* nonnull %5) #7
  ret void
}

; Function Attrs: nounwind
declare void @_ZN4base8internal11WeakPtrBaseD2Ev(%"class.base::internal::WeakPtrBase"*) unnamed_addr #3

; Function Attrs: nounwind ssp uwtable
define hidden void @_ZN32PrefetchProxyFromStringURLLoader12BindAndStartERKN7network15ResourceRequestEN4mojo15PendingReceiverINS0_5mojom9URLLoaderEEENS4_13PendingRemoteINS6_15URLLoaderClientEEE(%class.PrefetchProxyFromStringURLLoader*, %"struct.network::ResourceRequest"* nocapture readnone dereferenceable(1640), %"class.mojo::PendingReceiver"*, %"class.mojo::PendingRemote.517"*) #0 align 2 {
  %5 = alloca %"class.base::internal::WeakReference", align 8
  %6 = alloca %"class.mojo::DataPipeProducerHandle", align 4
  %7 = alloca %"class.mojo::DataPipeConsumerHandle", align 4
  %8 = alloca %"class.mojo::PendingRemote.517", align 4
  %9 = alloca %"class.base::OnceCallback", align 8
  %10 = alloca %"class.base::OnceCallback", align 8
  %11 = alloca %"class.base::internal::WeakReference", align 8
  %12 = alloca %"class.mojo::PendingReceiver", align 8
  %13 = alloca %"class.mojo::PendingReceiver", align 8
  %14 = alloca %"class.base::OnceCallback", align 8
  %15 = alloca %"class.base::WeakPtr.516", align 8
  %16 = alloca %"class.mojo::PendingRemote.517", align 4
  %17 = alloca %"class.mojo::StructPtr", align 8
  %18 = alloca %"class.mojo::ScopedHandleBase.518", align 4
  %19 = alloca %"class.base::Location", align 8
  %20 = alloca %"class.mojo::Handle", align 4
  %21 = alloca %"class.base::RepeatingCallback", align 8
  %22 = alloca %"class.base::WeakPtr.516", align 8
  %23 = getelementptr inbounds %"class.mojo::PendingReceiver", %"class.mojo::PendingReceiver"* %13, i64 0, i32 0
  %24 = getelementptr inbounds %"class.mojo::PendingReceiver", %"class.mojo::PendingReceiver"* %2, i64 0, i32 0
  call void @_ZN4mojo8internal20PendingReceiverStateC1EOS1_(%"struct.mojo::internal::PendingReceiverState"* nonnull %23, %"struct.mojo::internal::PendingReceiverState"* dereferenceable(24) %24) #7
  %25 = bitcast %"class.mojo::PendingReceiver"* %12 to i8*
  call void @llvm.lifetime.start.p0i8(i64 24, i8* nonnull %25)
  %26 = getelementptr inbounds %"class.mojo::PendingReceiver", %"class.mojo::PendingReceiver"* %12, i64 0, i32 0
  call void @_ZN4mojo8internal20PendingReceiverStateC1EOS1_(%"struct.mojo::internal::PendingReceiverState"* nonnull %26, %"struct.mojo::internal::PendingReceiverState"* nonnull dereferenceable(24) %23) #7
  %27 = getelementptr inbounds %"class.mojo::PendingReceiver", %"class.mojo::PendingReceiver"* %12, i64 0, i32 0, i32 0, i32 0, i32 0, i32 0
  %28 = load i32, i32* %27, align 8
  %29 = icmp eq i32 %28, 0
  %30 = getelementptr inbounds %class.PrefetchProxyFromStringURLLoader, %class.PrefetchProxyFromStringURLLoader* %0, i64 0, i32 5, i32 0, i32 0
  br i1 %29, label %36, label %31

31:                                               ; preds = %4
  %32 = call i8* @_Znwm(i64 8) #8
  %33 = bitcast i8* %32 to i32 (...)***
  store i32 (...)** bitcast (i8** getelementptr inbounds ({ [6 x i8*] }, { [6 x i8*] }* @_ZTVN7network5mojom25URLLoaderRequestValidatorE, i64 0, inrange i32 0, i64 2) to i32 (...)**), i32 (...)*** %33, align 8
  %34 = getelementptr inbounds %class.PrefetchProxyFromStringURLLoader, %class.PrefetchProxyFromStringURLLoader* %0, i64 0, i32 5, i32 0, i32 1, i32 0
  %35 = bitcast i8* %32 to %"class.mojo::MessageReceiver"*
  call void @_ZN4mojo8internal16BindingStateBase12BindInternalEPNS0_20PendingReceiverStateE13scoped_refptrIN4base19SequencedTaskRunnerEEPKcNSt3__110unique_ptrINS_15MessageReceiverENSA_14default_deleteISC_EEEEbbPNS_34MessageReceiverWithResponderStatusEj(%"class.mojo::internal::BindingStateBase"* %30, %"struct.mojo::internal::PendingReceiverState"* nonnull %26, %"class.base::SequencedTaskRunner"* null, i8* getelementptr inbounds ([0 x i8], [0 x i8]* @_ZN7network5mojom9URLLoader5Name_E, i64 0, i64 0), %"class.mojo::MessageReceiver"* nonnull %35, i1 zeroext false, i1 zeroext false, %"class.mojo::MessageReceiverWithResponderStatus"* %34, i32 0) #7
  br label %37

36:                                               ; preds = %4
  call void @_ZN4mojo8internal16BindingStateBase5CloseEv(%"class.mojo::internal::BindingStateBase"* %30) #7
  br label %37

37:                                               ; preds = %31, %36
  call void @_ZN4mojo8internal20PendingReceiverStateD1Ev(%"struct.mojo::internal::PendingReceiverState"* nonnull %26) #7
  call void @llvm.lifetime.end.p0i8(i64 24, i8* nonnull %25)
  call void @_ZN4mojo8internal20PendingReceiverStateD1Ev(%"struct.mojo::internal::PendingReceiverState"* nonnull %23) #7
  %38 = bitcast %"class.base::WeakPtr.516"* %15 to i8*
  call void @llvm.lifetime.start.p0i8(i64 16, i8* nonnull %38) #7
  %39 = bitcast %"class.base::internal::WeakReference"* %11 to i8*
  call void @llvm.lifetime.start.p0i8(i64 8, i8* nonnull %39) #7, !noalias !10
  %40 = getelementptr inbounds %class.PrefetchProxyFromStringURLLoader, %class.PrefetchProxyFromStringURLLoader* %0, i64 0, i32 9, i32 0, i32 0
  call void @_ZNK4base8internal18WeakReferenceOwner6GetRefEv(%"class.base::internal::WeakReference"* nonnull sret %11, %"class.base::internal::WeakReferenceOwner"* %40) #7, !noalias !10
  %41 = getelementptr inbounds %class.PrefetchProxyFromStringURLLoader, %class.PrefetchProxyFromStringURLLoader* %0, i64 0, i32 9, i32 0, i32 1
  %42 = load i64, i64* %41, align 8, !noalias !10
  %43 = getelementptr inbounds %"class.base::WeakPtr.516", %"class.base::WeakPtr.516"* %15, i64 0, i32 0
  call void @_ZN4base8internal11WeakPtrBaseC2ERKNS0_13WeakReferenceEm(%"class.base::internal::WeakPtrBase"* nonnull %43, %"class.base::internal::WeakReference"* nonnull dereferenceable(8) %11, i64 %42) #7
  call void @_ZN4base8internal13WeakReferenceD1Ev(%"class.base::internal::WeakReference"* nonnull %11) #7
  call void @llvm.lifetime.end.p0i8(i64 8, i8* nonnull %39) #7, !noalias !10
  %44 = call i8* @_Znwm(i64 64) #8, !noalias !13
  %45 = bitcast i8* %44 to %"class.base::internal::BindStateBase"*
  call void @_ZN4base8internal13BindStateBaseC2EPFvvEPFvPKS1_EPFbS5_NS1_21CancellationQueryModeEE(%"class.base::internal::BindStateBase"* nonnull %45, void ()* bitcast (void (%"class.base::internal::BindStateBase"*)* @_ZN4base8internal7InvokerINS0_9BindStateIM32PrefetchProxyFromStringURLLoaderFvvEJNS_7WeakPtrIS3_EEEEEFvvEE7RunOnceEPNS0_13BindStateBaseE to void ()*), void (%"class.base::internal::BindStateBase"*)* nonnull @_ZN4base8internal9BindStateIM32PrefetchProxyFromStringURLLoaderFvvEJNS_7WeakPtrIS2_EEEE7DestroyEPKNS0_13BindStateBaseE, i1 (%"class.base::internal::BindStateBase"*, i32)* nonnull @_ZN4base8internal23QueryCancellationTraitsINS0_9BindStateIM32PrefetchProxyFromStringURLLoaderFvvEJNS_7WeakPtrIS3_EEEEEEEbPKNS0_13BindStateBaseENS9_21CancellationQueryModeE) #7, !noalias !13
  %46 = getelementptr inbounds i8, i8* %44, i64 32
  %47 = bitcast i8* %46 to <2 x i64>*
  store <2 x i64> <i64 ptrtoint (void (%class.PrefetchProxyFromStringURLLoader*)* @_ZN32PrefetchProxyFromStringURLLoader16OnMojoDisconnectEv to i64), i64 0>, <2 x i64>* %47, align 8, !noalias !13
  %48 = getelementptr inbounds i8, i8* %44, i64 48
  %49 = bitcast i8* %48 to %"class.base::internal::WeakReference"*
  %50 = getelementptr inbounds %"class.base::WeakPtr.516", %"class.base::WeakPtr.516"* %15, i64 0, i32 0, i32 0
  call void @_ZN4base8internal13WeakReferenceC1EOS1_(%"class.base::internal::WeakReference"* %49, %"class.base::internal::WeakReference"* nonnull dereferenceable(8) %50) #7, !noalias !13
  %51 = getelementptr inbounds i8, i8* %44, i64 56
  %52 = bitcast i8* %51 to i64*
  %53 = getelementptr inbounds %"class.base::WeakPtr.516", %"class.base::WeakPtr.516"* %15, i64 0, i32 0, i32 1
  %54 = load i64, i64* %53, align 8, !noalias !13
  store i64 %54, i64* %52, align 8, !noalias !13
  %55 = bitcast %"class.base::OnceCallback"* %10 to i8*
  call void @llvm.lifetime.start.p0i8(i64 8, i8* nonnull %55)
  %56 = getelementptr inbounds %"class.base::OnceCallback", %"class.base::OnceCallback"* %14, i64 0, i32 0, i32 0, i32 0
  %57 = ptrtoint i8* %44 to i64
  store %"class.base::internal::BindStateBase"* null, %"class.base::internal::BindStateBase"** %56, align 8
  %58 = bitcast %"class.base::OnceCallback"* %9 to i8*
  call void @llvm.lifetime.start.p0i8(i64 8, i8* nonnull %58) #7
  %59 = getelementptr inbounds %class.PrefetchProxyFromStringURLLoader, %class.PrefetchProxyFromStringURLLoader* %0, i64 0, i32 5, i32 0, i32 0, i32 1, i32 0, i32 0, i32 0
  %60 = load %"class.mojo::InterfaceEndpointClient"*, %"class.mojo::InterfaceEndpointClient"** %59, align 8
  %61 = getelementptr inbounds %"class.base::OnceCallback", %"class.base::OnceCallback"* %10, i64 0, i32 0, i32 0, i32 0
  %62 = bitcast %"class.base::OnceCallback"* %9 to i64*
  store i64 %57, i64* %62, align 8
  store %"class.base::internal::BindStateBase"* null, %"class.base::internal::BindStateBase"** %61, align 8
  %63 = getelementptr inbounds %"class.mojo::InterfaceEndpointClient", %"class.mojo::InterfaceEndpointClient"* %60, i64 0, i32 17, i32 0
  %64 = getelementptr inbounds %"class.base::OnceCallback", %"class.base::OnceCallback"* %9, i64 0, i32 0
  %65 = call dereferenceable(8) %"class.base::internal::CallbackBase"* @_ZN4base8internal12CallbackBaseaSEOS1_(%"class.base::internal::CallbackBase"* %63, %"class.base::internal::CallbackBase"* nonnull dereferenceable(8) %64) #7
  %66 = getelementptr inbounds %"class.mojo::InterfaceEndpointClient", %"class.mojo::InterfaceEndpointClient"* %60, i64 0, i32 18, i32 0
  call void @_ZN4base8internal12CallbackBase5ResetEv(%"class.base::internal::CallbackBase"* %66) #7
  call void @_ZN4base8internal12CallbackBaseD2Ev(%"class.base::internal::CallbackBase"* nonnull %64) #7
  call void @llvm.lifetime.end.p0i8(i64 8, i8* nonnull %58) #7
  %67 = getelementptr inbounds %"class.base::OnceCallback", %"class.base::OnceCallback"* %10, i64 0, i32 0
  call void @_ZN4base8internal12CallbackBaseD2Ev(%"class.base::internal::CallbackBase"* nonnull %67) #7
  call void @llvm.lifetime.end.p0i8(i64 8, i8* nonnull %55)
  %68 = getelementptr inbounds %"class.base::OnceCallback", %"class.base::OnceCallback"* %14, i64 0, i32 0
  call void @_ZN4base8internal12CallbackBaseD2Ev(%"class.base::internal::CallbackBase"* nonnull %68) #7
  call void @_ZN4base8internal11WeakPtrBaseD2Ev(%"class.base::internal::WeakPtrBase"* nonnull %43) #7
  call void @llvm.lifetime.end.p0i8(i64 16, i8* nonnull %38) #7
  %69 = getelementptr inbounds %class.PrefetchProxyFromStringURLLoader, %class.PrefetchProxyFromStringURLLoader* %0, i64 0, i32 6
  %70 = getelementptr inbounds %"class.mojo::PendingRemote.517", %"class.mojo::PendingRemote.517"* %16, i64 0, i32 0
  %71 = getelementptr inbounds %"class.mojo::PendingRemote.517", %"class.mojo::PendingRemote.517"* %3, i64 0, i32 0
  call void @_ZN4mojo8internal18PendingRemoteStateC1EOS1_(%"struct.mojo::internal::PendingRemoteState"* nonnull %70, %"struct.mojo::internal::PendingRemoteState"* dereferenceable(8) %71) #7
  %72 = bitcast %"class.mojo::PendingRemote.517"* %8 to i8*
  call void @llvm.lifetime.start.p0i8(i64 8, i8* nonnull %72)
  %73 = getelementptr inbounds %"class.mojo::PendingRemote.517", %"class.mojo::PendingRemote.517"* %8, i64 0, i32 0
  call void @_ZN4mojo8internal18PendingRemoteStateC1EOS1_(%"struct.mojo::internal::PendingRemoteState"* nonnull %73, %"struct.mojo::internal::PendingRemoteState"* nonnull dereferenceable(8) %70) #7
  call void @_ZN4mojo6RemoteIN7network5mojom15URLLoaderClientEE4BindENS_13PendingRemoteIS3_EE13scoped_refptrIN4base19SequencedTaskRunnerEE(%"class.mojo::Remote"* %69, %"class.mojo::PendingRemote.517"* nonnull %8, %"class.base::SequencedTaskRunner"* null) #7
  call void @_ZN4mojo8internal18PendingRemoteStateD1Ev(%"struct.mojo::internal::PendingRemoteState"* nonnull %73) #7
  call void @llvm.lifetime.end.p0i8(i64 8, i8* nonnull %72)
  call void @_ZN4mojo8internal18PendingRemoteStateD1Ev(%"struct.mojo::internal::PendingRemoteState"* nonnull %70) #7
  %74 = bitcast %"class.mojo::DataPipeProducerHandle"* %6 to i8*
  call void @llvm.lifetime.start.p0i8(i64 4, i8* nonnull %74) #7
  %75 = getelementptr inbounds %"class.mojo::DataPipeProducerHandle", %"class.mojo::DataPipeProducerHandle"* %6, i64 0, i32 0, i32 0
  store i32 0, i32* %75, align 4
  %76 = bitcast %"class.mojo::DataPipeConsumerHandle"* %7 to i8*
  call void @llvm.lifetime.start.p0i8(i64 4, i8* nonnull %76) #7
  %77 = getelementptr inbounds %"class.mojo::DataPipeConsumerHandle", %"class.mojo::DataPipeConsumerHandle"* %7, i64 0, i32 0, i32 0
  store i32 0, i32* %77, align 4
  %78 = call i32 @MojoCreateDataPipe(%struct.MojoCreateDataPipeOptions* null, i32* nonnull %75, i32* nonnull %77) #7
  %79 = load i32, i32* %75, align 4
  %80 = load i32, i32* %77, align 4
  call void @llvm.lifetime.end.p0i8(i64 4, i8* nonnull %76) #7
  call void @llvm.lifetime.end.p0i8(i64 4, i8* nonnull %74) #7
  %81 = icmp eq i32 %78, 0
  br i1 %81, label %82, label %200

82:                                               ; preds = %37
  %83 = getelementptr inbounds %class.PrefetchProxyFromStringURLLoader, %class.PrefetchProxyFromStringURLLoader* %0, i64 0, i32 6, i32 0, i32 1
  %84 = getelementptr inbounds %"class.std::__1::unique_ptr.384", %"class.std::__1::unique_ptr.384"* %83, i64 0, i32 0, i32 0, i32 0
  %85 = load %"class.network::mojom::URLLoaderClientProxy"*, %"class.network::mojom::URLLoaderClientProxy"** %84, align 8
  %86 = icmp eq %"class.network::mojom::URLLoaderClientProxy"* %85, null
  br i1 %86, label %87, label %108

87:                                               ; preds = %82
  %88 = bitcast %"class.mojo::Remote"* %69 to %"class.mojo::internal::InterfacePtrStateBase"*
  %89 = call i8* @_Znwm(i64 8) #8
  %90 = bitcast i8* %89 to i32 (...)***
  store i32 (...)** bitcast (i8** getelementptr inbounds ({ [6 x i8*] }, { [6 x i8*] }* @_ZTVN7network5mojom32URLLoaderClientResponseValidatorE, i64 0, inrange i32 0, i64 2) to i32 (...)**), i32 (...)*** %90, align 8
  %91 = bitcast i8* %89 to %"class.mojo::MessageReceiver"*
  %92 = call zeroext i1 @_ZN4mojo8internal21InterfacePtrStateBase24InitializeEndpointClientEbbbNSt3__110unique_ptrINS_15MessageReceiverENS2_14default_deleteIS4_EEEEPKc(%"class.mojo::internal::InterfacePtrStateBase"* %88, i1 zeroext false, i1 zeroext false, i1 zeroext false, %"class.mojo::MessageReceiver"* nonnull %91, i8* getelementptr inbounds ([0 x i8], [0 x i8]* @_ZN7network5mojom15URLLoaderClient5Name_E, i64 0, i64 0)) #7
  br i1 %92, label %93, label %108

93:                                               ; preds = %87
  %94 = getelementptr inbounds %class.PrefetchProxyFromStringURLLoader, %class.PrefetchProxyFromStringURLLoader* %0, i64 0, i32 6, i32 0, i32 0, i32 1, i32 0, i32 0, i32 0
  %95 = bitcast %"class.mojo::InterfaceEndpointClient"** %94 to %"class.mojo::MessageReceiverWithResponder"**
  %96 = load %"class.mojo::MessageReceiverWithResponder"*, %"class.mojo::MessageReceiverWithResponder"** %95, align 8
  %97 = call i8* @_Znwm(i64 16) #8
  %98 = bitcast i8* %97 to %"class.network::mojom::URLLoaderClientProxy"*
  call void @_ZN7network5mojom20URLLoaderClientProxyC1EPN4mojo28MessageReceiverWithResponderE(%"class.network::mojom::URLLoaderClientProxy"* nonnull %98, %"class.mojo::MessageReceiverWithResponder"* %96) #7
  %99 = ptrtoint i8* %97 to i64
  %100 = load %"class.network::mojom::URLLoaderClientProxy"*, %"class.network::mojom::URLLoaderClientProxy"** %84, align 8
  %101 = bitcast %"class.std::__1::unique_ptr.384"* %83 to i64*
  store i64 %99, i64* %101, align 8
  %102 = icmp eq %"class.network::mojom::URLLoaderClientProxy"* %100, null
  br i1 %102, label %108, label %103

103:                                              ; preds = %93
  %104 = bitcast %"class.network::mojom::URLLoaderClientProxy"* %100 to void (%"class.network::mojom::URLLoaderClientProxy"*)***
  %105 = load void (%"class.network::mojom::URLLoaderClientProxy"*)**, void (%"class.network::mojom::URLLoaderClientProxy"*)*** %104, align 8
  %106 = getelementptr inbounds void (%"class.network::mojom::URLLoaderClientProxy"*)*, void (%"class.network::mojom::URLLoaderClientProxy"*)** %105, i64 1
  %107 = load void (%"class.network::mojom::URLLoaderClientProxy"*)*, void (%"class.network::mojom::URLLoaderClientProxy"*)** %106, align 8
  call void %107(%"class.network::mojom::URLLoaderClientProxy"* nonnull %100) #7
  br label %108

108:                                              ; preds = %82, %87, %93, %103
  %109 = load %"class.network::mojom::URLLoaderClientProxy"*, %"class.network::mojom::URLLoaderClientProxy"** %84, align 8
  %110 = getelementptr inbounds %class.PrefetchProxyFromStringURLLoader, %class.PrefetchProxyFromStringURLLoader* %0, i64 0, i32 1
  %111 = bitcast %"class.mojo::StructPtr"* %17 to i64*
  %112 = getelementptr inbounds %"class.mojo::StructPtr", %"class.mojo::StructPtr"* %17, i64 0, i32 0, i32 0, i32 0, i32 0
  %113 = bitcast %"class.mojo::StructPtr"* %110 to i64*
  %114 = load i64, i64* %113, align 8
  store i64 %114, i64* %111, align 8
  store i64 0, i64* %113, align 8
  call void @_ZN7network5mojom20URLLoaderClientProxy17OnReceiveResponseEN4mojo9StructPtrINS0_15URLResponseHeadEEE(%"class.network::mojom::URLLoaderClientProxy"* %109, %"class.mojo::StructPtr"* nonnull %17) #7
  %115 = load %"class.network::mojom::URLResponseHead"*, %"class.network::mojom::URLResponseHead"** %112, align 8
  store %"class.network::mojom::URLResponseHead"* null, %"class.network::mojom::URLResponseHead"** %112, align 8
  %116 = icmp eq %"class.network::mojom::URLResponseHead"* %115, null
  br i1 %116, label %119, label %117

117:                                              ; preds = %108
  call void @_ZN7network5mojom15URLResponseHeadD1Ev(%"class.network::mojom::URLResponseHead"* nonnull %115) #7
  %118 = bitcast %"class.network::mojom::URLResponseHead"* %115 to i8*
  call void @_ZdlPv(i8* %118) #8
  br label %119

119:                                              ; preds = %108, %117
  %120 = load %"class.network::mojom::URLLoaderClientProxy"*, %"class.network::mojom::URLLoaderClientProxy"** %84, align 8
  %121 = icmp eq %"class.network::mojom::URLLoaderClientProxy"* %120, null
  br i1 %121, label %122, label %143

122:                                              ; preds = %119
  %123 = bitcast %"class.mojo::Remote"* %69 to %"class.mojo::internal::InterfacePtrStateBase"*
  %124 = call i8* @_Znwm(i64 8) #8
  %125 = bitcast i8* %124 to i32 (...)***
  store i32 (...)** bitcast (i8** getelementptr inbounds ({ [6 x i8*] }, { [6 x i8*] }* @_ZTVN7network5mojom32URLLoaderClientResponseValidatorE, i64 0, inrange i32 0, i64 2) to i32 (...)**), i32 (...)*** %125, align 8
  %126 = bitcast i8* %124 to %"class.mojo::MessageReceiver"*
  %127 = call zeroext i1 @_ZN4mojo8internal21InterfacePtrStateBase24InitializeEndpointClientEbbbNSt3__110unique_ptrINS_15MessageReceiverENS2_14default_deleteIS4_EEEEPKc(%"class.mojo::internal::InterfacePtrStateBase"* %123, i1 zeroext false, i1 zeroext false, i1 zeroext false, %"class.mojo::MessageReceiver"* nonnull %126, i8* getelementptr inbounds ([0 x i8], [0 x i8]* @_ZN7network5mojom15URLLoaderClient5Name_E, i64 0, i64 0)) #7
  br i1 %127, label %128, label %143

128:                                              ; preds = %122
  %129 = getelementptr inbounds %class.PrefetchProxyFromStringURLLoader, %class.PrefetchProxyFromStringURLLoader* %0, i64 0, i32 6, i32 0, i32 0, i32 1, i32 0, i32 0, i32 0
  %130 = bitcast %"class.mojo::InterfaceEndpointClient"** %129 to %"class.mojo::MessageReceiverWithResponder"**
  %131 = load %"class.mojo::MessageReceiverWithResponder"*, %"class.mojo::MessageReceiverWithResponder"** %130, align 8
  %132 = call i8* @_Znwm(i64 16) #8
  %133 = bitcast i8* %132 to %"class.network::mojom::URLLoaderClientProxy"*
  call void @_ZN7network5mojom20URLLoaderClientProxyC1EPN4mojo28MessageReceiverWithResponderE(%"class.network::mojom::URLLoaderClientProxy"* nonnull %133, %"class.mojo::MessageReceiverWithResponder"* %131) #7
  %134 = ptrtoint i8* %132 to i64
  %135 = load %"class.network::mojom::URLLoaderClientProxy"*, %"class.network::mojom::URLLoaderClientProxy"** %84, align 8
  %136 = bitcast %"class.std::__1::unique_ptr.384"* %83 to i64*
  store i64 %134, i64* %136, align 8
  %137 = icmp eq %"class.network::mojom::URLLoaderClientProxy"* %135, null
  br i1 %137, label %143, label %138

138:                                              ; preds = %128
  %139 = bitcast %"class.network::mojom::URLLoaderClientProxy"* %135 to void (%"class.network::mojom::URLLoaderClientProxy"*)***
  %140 = load void (%"class.network::mojom::URLLoaderClientProxy"*)**, void (%"class.network::mojom::URLLoaderClientProxy"*)*** %139, align 8
  %141 = getelementptr inbounds void (%"class.network::mojom::URLLoaderClientProxy"*)*, void (%"class.network::mojom::URLLoaderClientProxy"*)** %140, i64 1
  %142 = load void (%"class.network::mojom::URLLoaderClientProxy"*)*, void (%"class.network::mojom::URLLoaderClientProxy"*)** %141, align 8
  call void %142(%"class.network::mojom::URLLoaderClientProxy"* nonnull %135) #7
  br label %143

143:                                              ; preds = %119, %122, %128, %138
  %144 = load %"class.network::mojom::URLLoaderClientProxy"*, %"class.network::mojom::URLLoaderClientProxy"** %84, align 8
  %145 = getelementptr inbounds %"class.mojo::ScopedHandleBase.518", %"class.mojo::ScopedHandleBase.518"* %18, i64 0, i32 0, i32 0, i32 0
  store i32 %80, i32* %145, align 4, !alias.scope !18
  call void @_ZN7network5mojom20URLLoaderClientProxy26OnStartLoadingResponseBodyEN4mojo16ScopedHandleBaseINS2_22DataPipeConsumerHandleEEE(%"class.network::mojom::URLLoaderClientProxy"* %144, %"class.mojo::ScopedHandleBase.518"* nonnull %18) #7
  %146 = load i32, i32* %145, align 4
  %147 = icmp eq i32 %146, 0
  br i1 %147, label %150, label %148

148:                                              ; preds = %143
  %149 = call i32 @MojoClose(i32 %146) #7
  br label %150

150:                                              ; preds = %143, %148
  %151 = getelementptr inbounds %class.PrefetchProxyFromStringURLLoader, %class.PrefetchProxyFromStringURLLoader* %0, i64 0, i32 7, i32 0, i32 0, i32 0
  %152 = load i32, i32* %151, align 4
  %153 = icmp eq i32 %152, 0
  br i1 %153, label %156, label %154

154:                                              ; preds = %150
  %155 = call i32 @MojoClose(i32 %152) #7
  br label %156

156:                                              ; preds = %154, %150
  store i32 %79, i32* %151, align 4
  %157 = bitcast %"class.base::Location"* %19 to i8*
  call void @llvm.lifetime.start.p0i8(i64 32, i8* nonnull %157) #7
  call void @_ZN4base8Location7CurrentEPKcS2_i(%"class.base::Location"* nonnull sret %19, i8* getelementptr inbounds ([13 x i8], [13 x i8]* @.str, i64 0, i64 0), i8* getelementptr inbounds ([86 x i8], [86 x i8]* @.str.1, i64 0, i64 0), i32 113) #7
  %158 = call dereferenceable(8) %class.scoped_refptr.204* @_ZN4base25SequencedTaskRunnerHandle3GetEv() #7
  %159 = call i8* @_Znwm(i64 72) #8
  %160 = bitcast i8* %159 to %"class.mojo::SimpleWatcher"*
  %161 = getelementptr inbounds %class.scoped_refptr.204, %class.scoped_refptr.204* %158, i64 0, i32 0
  %162 = load %"class.base::SequencedTaskRunner"*, %"class.base::SequencedTaskRunner"** %161, align 8
  %163 = icmp eq %"class.base::SequencedTaskRunner"* %162, null
  br i1 %163, label %167, label %164

164:                                              ; preds = %156
  %165 = getelementptr inbounds %"class.base::SequencedTaskRunner", %"class.base::SequencedTaskRunner"* %162, i64 0, i32 0, i32 1, i32 0, i32 0, i32 0, i32 0, i32 0, i32 0, i32 0, i32 0
  %166 = atomicrmw add i32* %165, i32 1 monotonic
  br label %167

167:                                              ; preds = %156, %164
  call void @_ZN4mojo13SimpleWatcherC1ERKN4base8LocationENS0_12ArmingPolicyE13scoped_refptrINS1_19SequencedTaskRunnerEEPKc(%"class.mojo::SimpleWatcher"* nonnull %160, %"class.base::Location"* nonnull dereferenceable(32) %19, i32 1, %"class.base::SequencedTaskRunner"* %162, i8* null) #7
  %168 = ptrtoint i8* %159 to i64
  %169 = getelementptr inbounds %class.PrefetchProxyFromStringURLLoader, %class.PrefetchProxyFromStringURLLoader* %0, i64 0, i32 8
  %170 = getelementptr inbounds %"class.std::__1::unique_ptr.227", %"class.std::__1::unique_ptr.227"* %169, i64 0, i32 0, i32 0, i32 0
  %171 = load %"class.mojo::SimpleWatcher"*, %"class.mojo::SimpleWatcher"** %170, align 8
  %172 = bitcast %"class.std::__1::unique_ptr.227"* %169 to i64*
  store i64 %168, i64* %172, align 8
  %173 = icmp eq %"class.mojo::SimpleWatcher"* %171, null
  %174 = bitcast i8* %159 to %"class.mojo::SimpleWatcher"*
  br i1 %173, label %178, label %175

175:                                              ; preds = %167
  call void @_ZN4mojo13SimpleWatcherD1Ev(%"class.mojo::SimpleWatcher"* nonnull %171) #7
  %176 = bitcast %"class.mojo::SimpleWatcher"* %171 to i8*
  call void @_ZdlPv(i8* %176) #8
  %177 = load %"class.mojo::SimpleWatcher"*, %"class.mojo::SimpleWatcher"** %170, align 8
  br label %178

178:                                              ; preds = %175, %167
  %179 = phi %"class.mojo::SimpleWatcher"* [ %174, %167 ], [ %177, %175 ]
  call void @llvm.lifetime.end.p0i8(i64 32, i8* nonnull %157) #7
  %180 = getelementptr inbounds %"class.mojo::Handle", %"class.mojo::Handle"* %20, i64 0, i32 0
  %181 = load i32, i32* %151, align 4
  store i32 %181, i32* %180, align 4
  %182 = bitcast %"class.base::WeakPtr.516"* %22 to i8*
  call void @llvm.lifetime.start.p0i8(i64 16, i8* nonnull %182) #7
  %183 = bitcast %"class.base::internal::WeakReference"* %5 to i8*
  call void @llvm.lifetime.start.p0i8(i64 8, i8* nonnull %183) #7, !noalias !21
  call void @_ZNK4base8internal18WeakReferenceOwner6GetRefEv(%"class.base::internal::WeakReference"* nonnull sret %5, %"class.base::internal::WeakReferenceOwner"* %40) #7, !noalias !21
  %184 = load i64, i64* %41, align 8, !noalias !21
  %185 = getelementptr inbounds %"class.base::WeakPtr.516", %"class.base::WeakPtr.516"* %22, i64 0, i32 0
  call void @_ZN4base8internal11WeakPtrBaseC2ERKNS0_13WeakReferenceEm(%"class.base::internal::WeakPtrBase"* nonnull %185, %"class.base::internal::WeakReference"* nonnull dereferenceable(8) %5, i64 %184) #7
  call void @_ZN4base8internal13WeakReferenceD1Ev(%"class.base::internal::WeakReference"* nonnull %5) #7
  call void @llvm.lifetime.end.p0i8(i64 8, i8* nonnull %183) #7, !noalias !21
  %186 = call i8* @_Znwm(i64 64) #8, !noalias !24
  %187 = bitcast i8* %186 to %"class.base::internal::BindStateBase"*
  call void @_ZN4base8internal13BindStateBaseC2EPFvvEPFvPKS1_EPFbS5_NS1_21CancellationQueryModeEE(%"class.base::internal::BindStateBase"* nonnull %187, void ()* bitcast (void (%"class.base::internal::BindStateBase"*, i32, %"struct.mojo::HandleSignalsState"*)* @_ZN4base8internal7InvokerINS0_9BindStateIM32PrefetchProxyFromStringURLLoaderFvjRKN4mojo18HandleSignalsStateEEJNS_7WeakPtrIS3_EEEEEFvjS7_EE3RunEPNS0_13BindStateBaseEjS7_ to void ()*), void (%"class.base::internal::BindStateBase"*)* nonnull @_ZN4base8internal9BindStateIM32PrefetchProxyFromStringURLLoaderFvjRKN4mojo18HandleSignalsStateEEJNS_7WeakPtrIS2_EEEE7DestroyEPKNS0_13BindStateBaseE, i1 (%"class.base::internal::BindStateBase"*, i32)* nonnull @_ZN4base8internal23QueryCancellationTraitsINS0_9BindStateIM32PrefetchProxyFromStringURLLoaderFvjRKN4mojo18HandleSignalsStateEEJNS_7WeakPtrIS3_EEEEEEEbPKNS0_13BindStateBaseENSD_21CancellationQueryModeE) #7, !noalias !24
  %188 = getelementptr inbounds i8, i8* %186, i64 32
  %189 = bitcast i8* %188 to <2 x i64>*
  store <2 x i64> <i64 ptrtoint (void (%class.PrefetchProxyFromStringURLLoader*, i32, %"struct.mojo::HandleSignalsState"*)* @_ZN32PrefetchProxyFromStringURLLoader13OnHandleReadyEjRKN4mojo18HandleSignalsStateE to i64), i64 0>, <2 x i64>* %189, align 8, !noalias !24
  %190 = getelementptr inbounds i8, i8* %186, i64 48
  %191 = bitcast i8* %190 to %"class.base::internal::WeakReference"*
  %192 = getelementptr inbounds %"class.base::WeakPtr.516", %"class.base::WeakPtr.516"* %22, i64 0, i32 0, i32 0
  call void @_ZN4base8internal13WeakReferenceC1EOS1_(%"class.base::internal::WeakReference"* %191, %"class.base::internal::WeakReference"* nonnull dereferenceable(8) %192) #7, !noalias !24
  %193 = getelementptr inbounds i8, i8* %186, i64 56
  %194 = bitcast i8* %193 to i64*
  %195 = getelementptr inbounds %"class.base::WeakPtr.516", %"class.base::WeakPtr.516"* %22, i64 0, i32 0, i32 1
  %196 = load i64, i64* %195, align 8, !noalias !24
  store i64 %196, i64* %194, align 8, !noalias !24
  %197 = bitcast %"class.base::RepeatingCallback"* %21 to i8**
  store i8* %186, i8** %197, align 8, !alias.scope !24
  %198 = call i32 @_ZN4mojo13SimpleWatcher5WatchENS_6HandleEjjN4base17RepeatingCallbackIFvjRKNS_18HandleSignalsStateEEEE(%"class.mojo::SimpleWatcher"* %179, %"class.mojo::Handle"* nonnull %20, i32 2, i32 1, %"class.base::RepeatingCallback"* nonnull %21) #7
  %199 = getelementptr inbounds %"class.base::RepeatingCallback", %"class.base::RepeatingCallback"* %21, i64 0, i32 0, i32 0
  call void @_ZN4base8internal12CallbackBaseD2Ev(%"class.base::internal::CallbackBase"* nonnull %199) #7
  call void @_ZN4base8internal11WeakPtrBaseD2Ev(%"class.base::internal::WeakPtrBase"* nonnull %185) #7
  call void @llvm.lifetime.end.p0i8(i64 16, i8* nonnull %182) #7
  call void @_ZN32PrefetchProxyFromStringURLLoader15TransferRawDataEv(%class.PrefetchProxyFromStringURLLoader* %0)
  br label %208

200:                                              ; preds = %37
  call void @_ZN32PrefetchProxyFromStringURLLoader6FinishEi(%class.PrefetchProxyFromStringURLLoader* %0, i32 -2)
  %201 = icmp eq i32 %80, 0
  br i1 %201, label %204, label %202

202:                                              ; preds = %200
  %203 = call i32 @MojoClose(i32 %80) #7
  br label %204

204:                                              ; preds = %200, %202
  %205 = icmp eq i32 %79, 0
  br i1 %205, label %208, label %206

206:                                              ; preds = %204
  %207 = call i32 @MojoClose(i32 %79) #7
  br label %208

208:                                              ; preds = %178, %204, %206
  ret void
}

; Function Attrs: nounwind ssp uwtable
define hidden void @_ZN32PrefetchProxyFromStringURLLoader16OnMojoDisconnectEv(%class.PrefetchProxyFromStringURLLoader*) #0 align 2 {
  %2 = alloca %"class.mojo::internal::InterfacePtrState", align 8
  %3 = getelementptr inbounds %class.PrefetchProxyFromStringURLLoader, %class.PrefetchProxyFromStringURLLoader* %0, i64 0, i32 5, i32 0, i32 0
  tail call void @_ZN4mojo8internal16BindingStateBase5CloseEv(%"class.mojo::internal::BindingStateBase"* %3) #7
  %4 = getelementptr inbounds %class.PrefetchProxyFromStringURLLoader, %class.PrefetchProxyFromStringURLLoader* %0, i64 0, i32 6
  %5 = bitcast %"class.mojo::internal::InterfacePtrState"* %2 to i8*
  call void @llvm.lifetime.start.p0i8(i64 48, i8* nonnull %5) #7
  call void @llvm.memset.p0i8.i64(i8* nonnull align 8 %5, i8 -86, i64 48, i1 false) #7
  %6 = bitcast %"class.mojo::internal::InterfacePtrState"* %2 to %"class.mojo::internal::InterfacePtrStateBase"*
  call void @_ZN4mojo8internal21InterfacePtrStateBaseC2Ev(%"class.mojo::internal::InterfacePtrStateBase"* nonnull %6) #7
  %7 = getelementptr inbounds %"class.mojo::internal::InterfacePtrState", %"class.mojo::internal::InterfacePtrState"* %2, i64 0, i32 1
  %8 = bitcast %"class.std::__1::unique_ptr.384"* %7 to i64*
  %9 = getelementptr inbounds %class.PrefetchProxyFromStringURLLoader, %class.PrefetchProxyFromStringURLLoader* %0, i64 0, i32 6, i32 0, i32 1
  %10 = bitcast %"class.std::__1::unique_ptr.384"* %9 to i64*
  %11 = load i64, i64* %10, align 8
  store i64 %11, i64* %8, align 8
  store i64 0, i64* %10, align 8
  %12 = bitcast %"class.mojo::Remote"* %4 to %"class.mojo::internal::InterfacePtrStateBase"*
  call void @_ZN4mojo8internal21InterfacePtrStateBase4SwapEPS1_(%"class.mojo::internal::InterfacePtrStateBase"* %12, %"class.mojo::internal::InterfacePtrStateBase"* nonnull %6) #7
  %13 = getelementptr inbounds %"class.mojo::internal::InterfacePtrState", %"class.mojo::internal::InterfacePtrState"* %2, i64 0, i32 1, i32 0, i32 0, i32 0
  %14 = load %"class.network::mojom::URLLoaderClientProxy"*, %"class.network::mojom::URLLoaderClientProxy"** %13, align 8
  store %"class.network::mojom::URLLoaderClientProxy"* null, %"class.network::mojom::URLLoaderClientProxy"** %13, align 8
  %15 = icmp eq %"class.network::mojom::URLLoaderClientProxy"* %14, null
  br i1 %15, label %21, label %16

16:                                               ; preds = %1
  %17 = bitcast %"class.network::mojom::URLLoaderClientProxy"* %14 to void (%"class.network::mojom::URLLoaderClientProxy"*)***
  %18 = load void (%"class.network::mojom::URLLoaderClientProxy"*)**, void (%"class.network::mojom::URLLoaderClientProxy"*)*** %17, align 8
  %19 = getelementptr inbounds void (%"class.network::mojom::URLLoaderClientProxy"*)*, void (%"class.network::mojom::URLLoaderClientProxy"*)** %18, i64 1
  %20 = load void (%"class.network::mojom::URLLoaderClientProxy"*)*, void (%"class.network::mojom::URLLoaderClientProxy"*)** %19, align 8
  call void %20(%"class.network::mojom::URLLoaderClientProxy"* nonnull %14) #7
  br label %21

21:                                               ; preds = %1, %16
  call void @_ZN4mojo8internal21InterfacePtrStateBaseD2Ev(%"class.mojo::internal::InterfacePtrStateBase"* nonnull %6) #7
  call void @llvm.lifetime.end.p0i8(i64 48, i8* nonnull %5) #7
  %22 = getelementptr inbounds %class.PrefetchProxyFromStringURLLoader, %class.PrefetchProxyFromStringURLLoader* %0, i64 0, i32 5, i32 0, i32 0, i32 0, i32 0
  %23 = load %"class.mojo::internal::MultiplexRouter"*, %"class.mojo::internal::MultiplexRouter"** %22, align 8
  %24 = icmp eq %"class.mojo::internal::MultiplexRouter"* %23, null
  br i1 %24, label %25, label %40

25:                                               ; preds = %21
  %26 = getelementptr inbounds %class.PrefetchProxyFromStringURLLoader, %class.PrefetchProxyFromStringURLLoader* %0, i64 0, i32 6, i32 0, i32 0, i32 2, i32 0, i32 0, i32 0
  %27 = load i32, i32* %26, align 4
  %28 = icmp eq i32 %27, 0
  br i1 %28, label %29, label %40

29:                                               ; preds = %25
  %30 = getelementptr inbounds %class.PrefetchProxyFromStringURLLoader, %class.PrefetchProxyFromStringURLLoader* %0, i64 0, i32 6, i32 0, i32 0, i32 1, i32 0, i32 0, i32 0
  %31 = load %"class.mojo::InterfaceEndpointClient"*, %"class.mojo::InterfaceEndpointClient"** %30, align 8
  %32 = icmp ne %"class.mojo::InterfaceEndpointClient"* %31, null
  %33 = icmp eq %class.PrefetchProxyFromStringURLLoader* %0, null
  %34 = or i1 %33, %32
  br i1 %34, label %40, label %35

35:                                               ; preds = %29
  %36 = bitcast %class.PrefetchProxyFromStringURLLoader* %0 to void (%class.PrefetchProxyFromStringURLLoader*)***
  %37 = load void (%class.PrefetchProxyFromStringURLLoader*)**, void (%class.PrefetchProxyFromStringURLLoader*)*** %36, align 8
  %38 = getelementptr inbounds void (%class.PrefetchProxyFromStringURLLoader*)*, void (%class.PrefetchProxyFromStringURLLoader*)** %37, i64 1
  %39 = load void (%class.PrefetchProxyFromStringURLLoader*)*, void (%class.PrefetchProxyFromStringURLLoader*)** %38, align 8
  call void %39(%class.PrefetchProxyFromStringURLLoader* nonnull %0) #7
  br label %40

40:                                               ; preds = %21, %25, %29, %35
  ret void
}

declare void @_ZN7network5mojom20URLLoaderClientProxy17OnReceiveResponseEN4mojo9StructPtrINS0_15URLResponseHeadEEE(%"class.network::mojom::URLLoaderClientProxy"*, %"class.mojo::StructPtr"*) unnamed_addr #1

declare void @_ZN7network5mojom20URLLoaderClientProxy26OnStartLoadingResponseBodyEN4mojo16ScopedHandleBaseINS2_22DataPipeConsumerHandleEEE(%"class.network::mojom::URLLoaderClientProxy"*, %"class.mojo::ScopedHandleBase.518"*) unnamed_addr #1

declare void @_ZN4base8Location7CurrentEPKcS2_i(%"class.base::Location"* sret, i8*, i8*, i32) local_unnamed_addr #1

declare dereferenceable(8) %class.scoped_refptr.204* @_ZN4base25SequencedTaskRunnerHandle3GetEv() local_unnamed_addr #1

declare i32 @_ZN4mojo13SimpleWatcher5WatchENS_6HandleEjjN4base17RepeatingCallbackIFvjRKNS_18HandleSignalsStateEEEE(%"class.mojo::SimpleWatcher"*, %"class.mojo::Handle"*, i32, i32, %"class.base::RepeatingCallback"*) local_unnamed_addr #1

; Function Attrs: nounwind ssp uwtable
define hidden void @_ZN32PrefetchProxyFromStringURLLoader13OnHandleReadyEjRKN4mojo18HandleSignalsStateE(%class.PrefetchProxyFromStringURLLoader*, i32, %"struct.mojo::HandleSignalsState"* nocapture readnone dereferenceable(8)) #0 align 2 {
  %4 = icmp eq i32 %1, 0
  br i1 %4, label %6, label %5

5:                                                ; preds = %3
  tail call void @_ZN32PrefetchProxyFromStringURLLoader6FinishEi(%class.PrefetchProxyFromStringURLLoader* %0, i32 -2)
  br label %7

6:                                                ; preds = %3
  tail call void @_ZN32PrefetchProxyFromStringURLLoader15TransferRawDataEv(%class.PrefetchProxyFromStringURLLoader* %0)
  br label %7

7:                                                ; preds = %6, %5
  ret void
}

; Function Attrs: nounwind
declare void @_ZN4base8internal12CallbackBaseD2Ev(%"class.base::internal::CallbackBase"*) unnamed_addr #3

declare void @_ZN7network5mojom20URLLoaderClientProxy10OnCompleteERKNS_25URLLoaderCompletionStatusE(%"class.network::mojom::URLLoaderClientProxy"*, %"struct.network::URLLoaderCompletionStatus"* dereferenceable(312)) unnamed_addr #1

declare void @_ZN7network25URLLoaderCompletionStatusC1Ei(%"struct.network::URLLoaderCompletionStatus"*, i32) unnamed_addr #1

; Function Attrs: nounwind
declare void @_ZN7network25URLLoaderCompletionStatusD1Ev(%"struct.network::URLLoaderCompletionStatus"*) unnamed_addr #3

; Function Attrs: nounwind ssp uwtable
define hidden void @_ZN32PrefetchProxyFromStringURLLoader15MaybeDeleteSelfEv(%class.PrefetchProxyFromStringURLLoader*) local_unnamed_addr #0 align 2 {
  %2 = getelementptr inbounds %class.PrefetchProxyFromStringURLLoader, %class.PrefetchProxyFromStringURLLoader* %0, i64 0, i32 5, i32 0, i32 0, i32 0, i32 0
  %3 = load %"class.mojo::internal::MultiplexRouter"*, %"class.mojo::internal::MultiplexRouter"** %2, align 8
  %4 = icmp eq %"class.mojo::internal::MultiplexRouter"* %3, null
  br i1 %4, label %5, label %20

5:                                                ; preds = %1
  %6 = getelementptr inbounds %class.PrefetchProxyFromStringURLLoader, %class.PrefetchProxyFromStringURLLoader* %0, i64 0, i32 6, i32 0, i32 0, i32 2, i32 0, i32 0, i32 0
  %7 = load i32, i32* %6, align 4
  %8 = icmp eq i32 %7, 0
  br i1 %8, label %9, label %20

9:                                                ; preds = %5
  %10 = getelementptr inbounds %class.PrefetchProxyFromStringURLLoader, %class.PrefetchProxyFromStringURLLoader* %0, i64 0, i32 6, i32 0, i32 0, i32 1, i32 0, i32 0, i32 0
  %11 = load %"class.mojo::InterfaceEndpointClient"*, %"class.mojo::InterfaceEndpointClient"** %10, align 8
  %12 = icmp ne %"class.mojo::InterfaceEndpointClient"* %11, null
  %13 = icmp eq %class.PrefetchProxyFromStringURLLoader* %0, null
  %14 = or i1 %13, %12
  br i1 %14, label %20, label %15

15:                                               ; preds = %9
  %16 = bitcast %class.PrefetchProxyFromStringURLLoader* %0 to void (%class.PrefetchProxyFromStringURLLoader*)***
  %17 = load void (%class.PrefetchProxyFromStringURLLoader*)**, void (%class.PrefetchProxyFromStringURLLoader*)*** %16, align 8
  %18 = getelementptr inbounds void (%class.PrefetchProxyFromStringURLLoader*)*, void (%class.PrefetchProxyFromStringURLLoader*)** %17, i64 1
  %19 = load void (%class.PrefetchProxyFromStringURLLoader*)*, void (%class.PrefetchProxyFromStringURLLoader*)** %18, align 8
  tail call void %19(%class.PrefetchProxyFromStringURLLoader* nonnull %0) #7
  br label %20

20:                                               ; preds = %1, %5, %15, %9
  ret void
}

declare void @_ZN4mojo8internal21InterfacePtrStateBaseC2Ev(%"class.mojo::internal::InterfacePtrStateBase"*) unnamed_addr #1

; Function Attrs: nounwind
declare void @_ZN4mojo8internal21InterfacePtrStateBaseD2Ev(%"class.mojo::internal::InterfacePtrStateBase"*) unnamed_addr #3

declare void @_ZN4mojo8internal16BindingStateBase5CloseEv(%"class.mojo::internal::BindingStateBase"*) local_unnamed_addr #1

; Function Attrs: nounwind
declare void @_ZN4mojo8internal16BindingStateBaseD2Ev(%"class.mojo::internal::BindingStateBase"*) unnamed_addr #3

; Function Attrs: nounwind
declare void @_ZN7network5mojom15URLResponseHeadD1Ev(%"class.network::mojom::URLResponseHead"*) unnamed_addr #3

declare i32 @MojoWriteData(i32, i8*, i32*, %struct.MojoWriteDataOptions*) local_unnamed_addr #1

; Function Attrs: nounwind
declare void @_ZN4mojo8internal20PendingReceiverStateC1EOS1_(%"struct.mojo::internal::PendingReceiverState"*, %"struct.mojo::internal::PendingReceiverState"* dereferenceable(24)) unnamed_addr #3

; Function Attrs: nounwind
declare void @_ZN4mojo8internal20PendingReceiverStateD1Ev(%"struct.mojo::internal::PendingReceiverState"*) unnamed_addr #3

; Function Attrs: nounwind
declare void @_ZN4mojo8internal18PendingRemoteStateC1EOS1_(%"struct.mojo::internal::PendingRemoteState"*, %"struct.mojo::internal::PendingRemoteState"* dereferenceable(8)) unnamed_addr #3

; Function Attrs: nounwind
declare void @_ZN4mojo8internal18PendingRemoteStateD1Ev(%"struct.mojo::internal::PendingRemoteState"*) unnamed_addr #3

declare i32 @MojoCreateDataPipe(%struct.MojoCreateDataPipeOptions*, i32*, i32*) local_unnamed_addr #1

declare i32 @MojoClose(i32) local_unnamed_addr #1

declare void @_ZN4mojo8internal16BindingStateBaseC2Ev(%"class.mojo::internal::BindingStateBase"*) unnamed_addr #1

; Function Attrs: nounwind ssp uwtable
define linkonce_odr hidden void @_ZN7network5mojom13URLLoaderStubIN4mojo19RawPtrImplRefTraitsINS0_9URLLoaderEEEED0Ev(%"class.network::mojom::URLLoaderStub"*) unnamed_addr #0 comdat align 2 {
  %2 = bitcast %"class.network::mojom::URLLoaderStub"* %0 to i8*
  tail call void @_ZdlPv(i8* %2) #8
  ret void
}

declare zeroext i1 @_ZN4mojo15MessageReceiver25PrefersSerializedMessagesEv(%"class.mojo::MessageReceiver"*) unnamed_addr #1

; Function Attrs: nounwind ssp uwtable
define linkonce_odr hidden zeroext i1 @_ZN7network5mojom13URLLoaderStubIN4mojo19RawPtrImplRefTraitsINS0_9URLLoaderEEEE6AcceptEPNS2_7MessageE(%"class.network::mojom::URLLoaderStub"*, %"class.mojo::Message"*) unnamed_addr #0 comdat align 2 {
  %3 = getelementptr inbounds %"class.network::mojom::URLLoaderStub", %"class.network::mojom::URLLoaderStub"* %0, i64 0, i32 1
  %4 = load %"class.network::mojom::URLLoader"*, %"class.network::mojom::URLLoader"** %3, align 8
  %5 = icmp eq %"class.network::mojom::URLLoader"* %4, null
  br i1 %5, label %8, label %6

6:                                                ; preds = %2
  %7 = tail call zeroext i1 @_ZN7network5mojom21URLLoaderStubDispatch6AcceptEPNS0_9URLLoaderEPN4mojo7MessageE(%"class.network::mojom::URLLoader"* nonnull %4, %"class.mojo::Message"* %1) #7
  br label %8

8:                                                ; preds = %2, %6
  %9 = phi i1 [ %7, %6 ], [ false, %2 ]
  ret i1 %9
}

; Function Attrs: nounwind ssp uwtable
define linkonce_odr hidden zeroext i1 @_ZN7network5mojom13URLLoaderStubIN4mojo19RawPtrImplRefTraitsINS0_9URLLoaderEEEE19AcceptWithResponderEPNS2_7MessageENSt3__110unique_ptrINS2_25MessageReceiverWithStatusENS9_14default_deleteISB_EEEE(%"class.network::mojom::URLLoaderStub"*, %"class.mojo::Message"*, %"class.mojo::MessageReceiverWithStatus"*) unnamed_addr #0 comdat align 2 {
  %4 = getelementptr inbounds %"class.network::mojom::URLLoaderStub", %"class.network::mojom::URLLoaderStub"* %0, i64 0, i32 1
  %5 = load %"class.network::mojom::URLLoader"*, %"class.network::mojom::URLLoader"** %4, align 8
  %6 = icmp eq %"class.network::mojom::URLLoader"* %5, null
  br i1 %6, label %9, label %7

7:                                                ; preds = %3
  %8 = tail call zeroext i1 @_ZN7network5mojom21URLLoaderStubDispatch19AcceptWithResponderEPNS0_9URLLoaderEPN4mojo7MessageENSt3__110unique_ptrINS4_25MessageReceiverWithStatusENS7_14default_deleteIS9_EEEE(%"class.network::mojom::URLLoader"* nonnull %5, %"class.mojo::Message"* %1, %"class.mojo::MessageReceiverWithStatus"* %2) #7
  br label %16

9:                                                ; preds = %3
  %10 = icmp eq %"class.mojo::MessageReceiverWithStatus"* %2, null
  br i1 %10, label %16, label %11

11:                                               ; preds = %9
  %12 = bitcast %"class.mojo::MessageReceiverWithStatus"* %2 to void (%"class.mojo::MessageReceiverWithStatus"*)***
  %13 = load void (%"class.mojo::MessageReceiverWithStatus"*)**, void (%"class.mojo::MessageReceiverWithStatus"*)*** %12, align 8
  %14 = getelementptr inbounds void (%"class.mojo::MessageReceiverWithStatus"*)*, void (%"class.mojo::MessageReceiverWithStatus"*)** %13, i64 1
  %15 = load void (%"class.mojo::MessageReceiverWithStatus"*)*, void (%"class.mojo::MessageReceiverWithStatus"*)** %14, align 8
  tail call void %15(%"class.mojo::MessageReceiverWithStatus"* nonnull %2) #7
  br label %16

16:                                               ; preds = %7, %9, %11
  %17 = phi i1 [ %8, %7 ], [ false, %9 ], [ false, %11 ]
  ret i1 %17
}

; Function Attrs: nounwind ssp uwtable
define linkonce_odr hidden void @_ZN4mojo15MessageReceiverD2Ev(%"class.mojo::MessageReceiver"*) unnamed_addr #0 comdat align 2 {
  ret void
}

declare zeroext i1 @_ZN7network5mojom21URLLoaderStubDispatch6AcceptEPNS0_9URLLoaderEPN4mojo7MessageE(%"class.network::mojom::URLLoader"*, %"class.mojo::Message"*) local_unnamed_addr #1

declare zeroext i1 @_ZN7network5mojom21URLLoaderStubDispatch19AcceptWithResponderEPNS0_9URLLoaderEPN4mojo7MessageENSt3__110unique_ptrINS4_25MessageReceiverWithStatusENS7_14default_deleteIS9_EEEE(%"class.network::mojom::URLLoader"*, %"class.mojo::Message"*, %"class.mojo::MessageReceiverWithStatus"*) local_unnamed_addr #1

declare void @_ZN4base8internal18WeakPtrFactoryBaseC2Em(%"class.base::internal::WeakPtrFactoryBase"*, i64) unnamed_addr #1

; Function Attrs: nounwind
declare void @_ZN36PrefetchedMainframeResponseContainerD1Ev(%class.PrefetchedMainframeResponseContainer*) unnamed_addr #3

; Function Attrs: nobuiltin nofree
declare noalias nonnull i8* @_Znwm(i64) local_unnamed_addr #6

declare void @_ZN3net14StringIOBufferC1ENSt3__110unique_ptrINS1_12basic_stringIcNS1_11char_traitsIcEENS1_9allocatorIcEEEENS1_14default_deleteIS8_EEEE(%"class.net::StringIOBuffer"*, %"class.std::__1::basic_string"*) unnamed_addr #1

declare void @_ZNK4base8internal18WeakReferenceOwner6GetRefEv(%"class.base::internal::WeakReference"* sret, %"class.base::internal::WeakReferenceOwner"*) local_unnamed_addr #1

; Function Attrs: nounwind
declare void @_ZN4base8internal13WeakReferenceD1Ev(%"class.base::internal::WeakReference"*) unnamed_addr #3

declare void @_ZN4base8internal11WeakPtrBaseC2ERKNS0_13WeakReferenceEm(%"class.base::internal::WeakPtrBase"*, %"class.base::internal::WeakReference"* dereferenceable(8), i64) unnamed_addr #1

; Function Attrs: nounwind ssp uwtable
define linkonce_odr hidden void @_ZN4base8internal7InvokerINS0_9BindStateIM32PrefetchProxyFromStringURLLoaderFvRKN7network15ResourceRequestEN4mojo15PendingReceiverINS4_5mojom9URLLoaderEEENS8_13PendingRemoteINSA_15URLLoaderClientEEEEJNS_7WeakPtrIS3_EEEEEFvS7_SC_SF_EE7RunOnceEPNS0_13BindStateBaseES7_OSC_OSF_(%"class.base::internal::BindStateBase"*, %"struct.network::ResourceRequest"* dereferenceable(1640), %"class.mojo::PendingReceiver"* dereferenceable(24), %"class.mojo::PendingRemote.517"* dereferenceable(8)) #0 comdat align 2 {
  %5 = getelementptr inbounds %"class.base::internal::BindStateBase", %"class.base::internal::BindStateBase"* %0, i64 1
  %6 = getelementptr inbounds %"class.base::internal::BindStateBase", %"class.base::internal::BindStateBase"* %0, i64 1, i32 2
  %7 = bitcast void (%"class.base::internal::BindStateBase"*)** %6 to %"class.base::WeakPtr.516"*
  %8 = bitcast void (%"class.base::internal::BindStateBase"*)** %6 to %"class.base::internal::WeakReference"*
  %9 = tail call zeroext i1 @_ZNK4base8internal13WeakReference7IsValidEv(%"class.base::internal::WeakReference"* %8) #7
  br i1 %9, label %10, label %21

10:                                               ; preds = %4
  %11 = getelementptr inbounds void (%"class.base::internal::BindStateBase"*)*, void (%"class.base::internal::BindStateBase"*)** %6, i64 1
  %12 = bitcast void (%"class.base::internal::BindStateBase"*)** %11 to %class.PrefetchProxyFromStringURLLoader**
  %13 = load %class.PrefetchProxyFromStringURLLoader*, %class.PrefetchProxyFromStringURLLoader** %12, align 8
  %14 = icmp eq %class.PrefetchProxyFromStringURLLoader* %13, null
  br i1 %14, label %21, label %15

15:                                               ; preds = %10
  %16 = bitcast %"class.base::internal::BindStateBase"* %5 to i64*
  %17 = load i64, i64* %16, align 8
  %18 = getelementptr inbounds %"class.base::internal::BindStateBase", %"class.base::internal::BindStateBase"* %0, i64 1, i32 1
  %19 = bitcast void ()** %18 to i64*
  %20 = load i64, i64* %19, align 8
  tail call void @_ZN4base8internal13FunctorTraitsIM32PrefetchProxyFromStringURLLoaderFvRKN7network15ResourceRequestEN4mojo15PendingReceiverINS3_5mojom9URLLoaderEEENS7_13PendingRemoteINS9_15URLLoaderClientEEEEvE6InvokeISG_NS_7WeakPtrIS2_EEJS6_SB_SE_EEEvT_OT0_DpOT1_(i64 %17, i64 %20, %"class.base::WeakPtr.516"* dereferenceable(16) %7, %"struct.network::ResourceRequest"* dereferenceable(1640) %1, %"class.mojo::PendingReceiver"* dereferenceable(24) %2, %"class.mojo::PendingRemote.517"* dereferenceable(8) %3) #7
  br label %21

21:                                               ; preds = %4, %10, %15
  ret void
}

; Function Attrs: nounwind ssp uwtable
define linkonce_odr hidden void @_ZN4base8internal13FunctorTraitsIM32PrefetchProxyFromStringURLLoaderFvRKN7network15ResourceRequestEN4mojo15PendingReceiverINS3_5mojom9URLLoaderEEENS7_13PendingRemoteINS9_15URLLoaderClientEEEEvE6InvokeISG_NS_7WeakPtrIS2_EEJS6_SB_SE_EEEvT_OT0_DpOT1_(i64, i64, %"class.base::WeakPtr.516"* dereferenceable(16), %"struct.network::ResourceRequest"* dereferenceable(1640), %"class.mojo::PendingReceiver"* dereferenceable(24), %"class.mojo::PendingRemote.517"* dereferenceable(8)) local_unnamed_addr #0 comdat align 2 {
  %7 = alloca %"class.logging::CheckError", align 8
  %8 = alloca %"class.mojo::PendingReceiver", align 8
  %9 = alloca %"class.mojo::PendingRemote.517", align 4
  %10 = getelementptr inbounds %"class.base::WeakPtr.516", %"class.base::WeakPtr.516"* %2, i64 0, i32 0, i32 0
  %11 = tail call zeroext i1 @_ZNK4base8internal13WeakReference7IsValidEv(%"class.base::internal::WeakReference"* %10) #7
  br i1 %11, label %15, label %12

12:                                               ; preds = %6
  %13 = bitcast %"class.logging::CheckError"* %7 to i8*
  call void @llvm.lifetime.start.p0i8(i64 8, i8* nonnull %13) #7
  call void @_ZN7logging10CheckError5CheckEPKciS2_(%"class.logging::CheckError"* nonnull sret %7, i8* getelementptr inbounds ([29 x i8], [29 x i8]* @.str.2, i64 0, i64 0), i32 251, i8* getelementptr inbounds ([15 x i8], [15 x i8]* @.str.3, i64 0, i64 0)) #7
  %14 = call dereferenceable(160) %"class.std::__1::basic_ostream"* @_ZN7logging10CheckError6streamEv(%"class.logging::CheckError"* nonnull %7) #7
  call void @_ZN7logging10CheckErrorD1Ev(%"class.logging::CheckError"* nonnull %7) #7
  call void @llvm.lifetime.end.p0i8(i64 8, i8* nonnull %13) #7
  br label %15

15:                                               ; preds = %12, %6
  %16 = call zeroext i1 @_ZNK4base8internal13WeakReference7IsValidEv(%"class.base::internal::WeakReference"* %10) #7
  %17 = getelementptr inbounds %"class.base::WeakPtr.516", %"class.base::WeakPtr.516"* %2, i64 0, i32 0, i32 1
  %18 = bitcast i64* %17 to i8**
  %19 = load i8*, i8** %18, align 8
  %20 = select i1 %16, i8* %19, i8* null
  %21 = getelementptr inbounds i8, i8* %20, i64 %1
  %22 = bitcast i8* %21 to %class.PrefetchProxyFromStringURLLoader*
  %23 = and i64 %0, 1
  %24 = icmp eq i64 %23, 0
  br i1 %24, label %32, label %25

25:                                               ; preds = %15
  %26 = bitcast i8* %21 to i8**
  %27 = load i8*, i8** %26, align 8
  %28 = add i64 %0, -1
  %29 = getelementptr i8, i8* %27, i64 %28
  %30 = bitcast i8* %29 to void (%class.PrefetchProxyFromStringURLLoader*, %"struct.network::ResourceRequest"*, %"class.mojo::PendingReceiver"*, %"class.mojo::PendingRemote.517"*)**
  %31 = load void (%class.PrefetchProxyFromStringURLLoader*, %"struct.network::ResourceRequest"*, %"class.mojo::PendingReceiver"*, %"class.mojo::PendingRemote.517"*)*, void (%class.PrefetchProxyFromStringURLLoader*, %"struct.network::ResourceRequest"*, %"class.mojo::PendingReceiver"*, %"class.mojo::PendingRemote.517"*)** %30, align 8
  br label %34

32:                                               ; preds = %15
  %33 = inttoptr i64 %0 to void (%class.PrefetchProxyFromStringURLLoader*, %"struct.network::ResourceRequest"*, %"class.mojo::PendingReceiver"*, %"class.mojo::PendingRemote.517"*)*
  br label %34

34:                                               ; preds = %32, %25
  %35 = phi void (%class.PrefetchProxyFromStringURLLoader*, %"struct.network::ResourceRequest"*, %"class.mojo::PendingReceiver"*, %"class.mojo::PendingRemote.517"*)* [ %31, %25 ], [ %33, %32 ]
  %36 = getelementptr inbounds %"class.mojo::PendingReceiver", %"class.mojo::PendingReceiver"* %8, i64 0, i32 0
  %37 = getelementptr inbounds %"class.mojo::PendingReceiver", %"class.mojo::PendingReceiver"* %4, i64 0, i32 0
  call void @_ZN4mojo8internal20PendingReceiverStateC1EOS1_(%"struct.mojo::internal::PendingReceiverState"* nonnull %36, %"struct.mojo::internal::PendingReceiverState"* dereferenceable(24) %37) #7
  %38 = getelementptr inbounds %"class.mojo::PendingRemote.517", %"class.mojo::PendingRemote.517"* %9, i64 0, i32 0
  %39 = getelementptr inbounds %"class.mojo::PendingRemote.517", %"class.mojo::PendingRemote.517"* %5, i64 0, i32 0
  call void @_ZN4mojo8internal18PendingRemoteStateC1EOS1_(%"struct.mojo::internal::PendingRemoteState"* nonnull %38, %"struct.mojo::internal::PendingRemoteState"* dereferenceable(8) %39) #7
  call void %35(%class.PrefetchProxyFromStringURLLoader* %22, %"struct.network::ResourceRequest"* dereferenceable(1640) %3, %"class.mojo::PendingReceiver"* nonnull %8, %"class.mojo::PendingRemote.517"* nonnull %9) #7
  call void @_ZN4mojo8internal18PendingRemoteStateD1Ev(%"struct.mojo::internal::PendingRemoteState"* nonnull %38) #7
  call void @_ZN4mojo8internal20PendingReceiverStateD1Ev(%"struct.mojo::internal::PendingReceiverState"* nonnull %36) #7
  ret void
}

declare zeroext i1 @_ZNK4base8internal13WeakReference7IsValidEv(%"class.base::internal::WeakReference"*) local_unnamed_addr #1

declare void @_ZN7logging10CheckError5CheckEPKciS2_(%"class.logging::CheckError"* sret, i8*, i32, i8*) local_unnamed_addr #1

declare dereferenceable(160) %"class.std::__1::basic_ostream"* @_ZN7logging10CheckError6streamEv(%"class.logging::CheckError"*) local_unnamed_addr #1

; Function Attrs: nounwind
declare void @_ZN7logging10CheckErrorD1Ev(%"class.logging::CheckError"*) unnamed_addr #3

; Function Attrs: nounwind ssp uwtable
define linkonce_odr hidden void @_ZN4base8internal9BindStateIM32PrefetchProxyFromStringURLLoaderFvRKN7network15ResourceRequestEN4mojo15PendingReceiverINS3_5mojom9URLLoaderEEENS7_13PendingRemoteINS9_15URLLoaderClientEEEEJNS_7WeakPtrIS2_EEEE7DestroyEPKNS0_13BindStateBaseE(%"class.base::internal::BindStateBase"*) #0 comdat align 2 {
  %2 = icmp eq %"class.base::internal::BindStateBase"* %0, null
  br i1 %2, label %7, label %3

3:                                                ; preds = %1
  %4 = getelementptr inbounds %"class.base::internal::BindStateBase", %"class.base::internal::BindStateBase"* %0, i64 1, i32 2
  %5 = bitcast void (%"class.base::internal::BindStateBase"*)** %4 to %"class.base::internal::WeakPtrBase"*
  tail call void @_ZN4base8internal11WeakPtrBaseD2Ev(%"class.base::internal::WeakPtrBase"* %5) #7
  %6 = bitcast %"class.base::internal::BindStateBase"* %0 to i8*
  tail call void @_ZdlPv(i8* %6) #8
  br label %7

7:                                                ; preds = %3, %1
  ret void
}

; Function Attrs: nounwind ssp uwtable
define linkonce_odr hidden zeroext i1 @_ZN4base8internal23QueryCancellationTraitsINS0_9BindStateIM32PrefetchProxyFromStringURLLoaderFvRKN7network15ResourceRequestEN4mojo15PendingReceiverINS4_5mojom9URLLoaderEEENS8_13PendingRemoteINSA_15URLLoaderClientEEEEJNS_7WeakPtrIS3_EEEEEEEbPKNS0_13BindStateBaseENSL_21CancellationQueryModeE(%"class.base::internal::BindStateBase"*, i32) #0 comdat {
  %3 = getelementptr inbounds %"class.base::internal::BindStateBase", %"class.base::internal::BindStateBase"* %0, i64 1, i32 2
  switch i32 %1, label %16 [
    i32 0, label %4
    i32 1, label %13
  ]

4:                                                ; preds = %2
  %5 = bitcast void (%"class.base::internal::BindStateBase"*)** %3 to %"class.base::internal::WeakReference"*
  %6 = tail call zeroext i1 @_ZNK4base8internal13WeakReference7IsValidEv(%"class.base::internal::WeakReference"* %5) #7
  %7 = getelementptr inbounds void (%"class.base::internal::BindStateBase"*)*, void (%"class.base::internal::BindStateBase"*)** %3, i64 1
  %8 = bitcast void (%"class.base::internal::BindStateBase"*)** %7 to %class.PrefetchProxyFromStringURLLoader**
  %9 = load %class.PrefetchProxyFromStringURLLoader*, %class.PrefetchProxyFromStringURLLoader** %8, align 8
  %10 = icmp ne %class.PrefetchProxyFromStringURLLoader* %9, null
  %11 = and i1 %6, %10
  %12 = xor i1 %11, true
  br label %16

13:                                               ; preds = %2
  %14 = bitcast void (%"class.base::internal::BindStateBase"*)** %3 to %"class.base::internal::WeakReference"*
  %15 = tail call zeroext i1 @_ZNK4base8internal13WeakReference10MaybeValidEv(%"class.base::internal::WeakReference"* %14) #7
  br label %16

16:                                               ; preds = %2, %4, %13
  %17 = phi i1 [ %15, %13 ], [ %12, %4 ], [ false, %2 ]
  ret i1 %17
}

declare void @_ZN4base8internal13BindStateBaseC2EPFvvEPFvPKS1_EPFbS5_NS1_21CancellationQueryModeEE(%"class.base::internal::BindStateBase"*, void ()*, void (%"class.base::internal::BindStateBase"*)*, i1 (%"class.base::internal::BindStateBase"*, i32)*) unnamed_addr #1

declare zeroext i1 @_ZNK4base8internal13WeakReference10MaybeValidEv(%"class.base::internal::WeakReference"*) local_unnamed_addr #1

; Function Attrs: nounwind
declare void @_ZN4base8internal13WeakReferenceC1EOS1_(%"class.base::internal::WeakReference"*, %"class.base::internal::WeakReference"* dereferenceable(8)) unnamed_addr #3

declare void @_ZN4mojo8internal16BindingStateBase12BindInternalEPNS0_20PendingReceiverStateE13scoped_refptrIN4base19SequencedTaskRunnerEEPKcNSt3__110unique_ptrINS_15MessageReceiverENSA_14default_deleteISC_EEEEbbPNS_34MessageReceiverWithResponderStatusEj(%"class.mojo::internal::BindingStateBase"*, %"struct.mojo::internal::PendingReceiverState"*, %"class.base::SequencedTaskRunner"*, i8*, %"class.mojo::MessageReceiver"*, i1 zeroext, i1 zeroext, %"class.mojo::MessageReceiverWithResponderStatus"*, i32) local_unnamed_addr #1

; Function Attrs: argmemonly nounwind
declare void @llvm.memset.p0i8.i64(i8* nocapture writeonly, i8, i64, i1 immarg) #2

declare void @_ZN4base16TaskRunnerTraits8DestructEPKNS_10TaskRunnerE(%"class.base::TaskRunner"*) local_unnamed_addr #1

declare void @_ZN4base8internal12CallbackBase5ResetEv(%"class.base::internal::CallbackBase"*) local_unnamed_addr #1

; Function Attrs: nounwind
declare dereferenceable(8) %"class.base::internal::CallbackBase"* @_ZN4base8internal12CallbackBaseaSEOS1_(%"class.base::internal::CallbackBase"*, %"class.base::internal::CallbackBase"* dereferenceable(8)) local_unnamed_addr #3

; Function Attrs: nounwind ssp uwtable
define linkonce_odr hidden void @_ZN4base8internal7InvokerINS0_9BindStateIM32PrefetchProxyFromStringURLLoaderFvvEJNS_7WeakPtrIS3_EEEEEFvvEE7RunOnceEPNS0_13BindStateBaseE(%"class.base::internal::BindStateBase"*) #0 comdat align 2 {
  %2 = alloca %"class.logging::CheckError", align 8
  %3 = getelementptr inbounds %"class.base::internal::BindStateBase", %"class.base::internal::BindStateBase"* %0, i64 1
  %4 = getelementptr inbounds %"class.base::internal::BindStateBase", %"class.base::internal::BindStateBase"* %0, i64 1, i32 2
  %5 = bitcast void (%"class.base::internal::BindStateBase"*)** %4 to %"class.base::internal::WeakReference"*
  %6 = tail call zeroext i1 @_ZNK4base8internal13WeakReference7IsValidEv(%"class.base::internal::WeakReference"* %5) #7
  br i1 %6, label %7, label %42

7:                                                ; preds = %1
  %8 = getelementptr inbounds void (%"class.base::internal::BindStateBase"*)*, void (%"class.base::internal::BindStateBase"*)** %4, i64 1
  %9 = bitcast void (%"class.base::internal::BindStateBase"*)** %8 to %class.PrefetchProxyFromStringURLLoader**
  %10 = load %class.PrefetchProxyFromStringURLLoader*, %class.PrefetchProxyFromStringURLLoader** %9, align 8
  %11 = icmp eq %class.PrefetchProxyFromStringURLLoader* %10, null
  br i1 %11, label %42, label %12

12:                                               ; preds = %7
  %13 = bitcast %"class.base::internal::BindStateBase"* %3 to i64*
  %14 = load i64, i64* %13, align 8
  %15 = getelementptr inbounds %"class.base::internal::BindStateBase", %"class.base::internal::BindStateBase"* %0, i64 1, i32 1
  %16 = bitcast void ()** %15 to i64*
  %17 = load i64, i64* %16, align 8
  %18 = tail call zeroext i1 @_ZNK4base8internal13WeakReference7IsValidEv(%"class.base::internal::WeakReference"* %5) #7
  br i1 %18, label %22, label %19

19:                                               ; preds = %12
  %20 = bitcast %"class.logging::CheckError"* %2 to i8*
  call void @llvm.lifetime.start.p0i8(i64 8, i8* nonnull %20) #7
  call void @_ZN7logging10CheckError5CheckEPKciS2_(%"class.logging::CheckError"* nonnull sret %2, i8* getelementptr inbounds ([29 x i8], [29 x i8]* @.str.2, i64 0, i64 0), i32 251, i8* getelementptr inbounds ([15 x i8], [15 x i8]* @.str.3, i64 0, i64 0)) #7
  %21 = call dereferenceable(160) %"class.std::__1::basic_ostream"* @_ZN7logging10CheckError6streamEv(%"class.logging::CheckError"* nonnull %2) #7
  call void @_ZN7logging10CheckErrorD1Ev(%"class.logging::CheckError"* nonnull %2) #7
  call void @llvm.lifetime.end.p0i8(i64 8, i8* nonnull %20) #7
  br label %22

22:                                               ; preds = %19, %12
  %23 = call zeroext i1 @_ZNK4base8internal13WeakReference7IsValidEv(%"class.base::internal::WeakReference"* %5) #7
  %24 = bitcast void (%"class.base::internal::BindStateBase"*)** %8 to i8**
  %25 = load i8*, i8** %24, align 8
  %26 = select i1 %23, i8* %25, i8* null
  %27 = getelementptr inbounds i8, i8* %26, i64 %17
  %28 = bitcast i8* %27 to %class.PrefetchProxyFromStringURLLoader*
  %29 = and i64 %14, 1
  %30 = icmp eq i64 %29, 0
  br i1 %30, label %38, label %31

31:                                               ; preds = %22
  %32 = bitcast i8* %27 to i8**
  %33 = load i8*, i8** %32, align 8
  %34 = add i64 %14, -1
  %35 = getelementptr i8, i8* %33, i64 %34
  %36 = bitcast i8* %35 to void (%class.PrefetchProxyFromStringURLLoader*)**
  %37 = load void (%class.PrefetchProxyFromStringURLLoader*)*, void (%class.PrefetchProxyFromStringURLLoader*)** %36, align 8
  br label %40

38:                                               ; preds = %22
  %39 = inttoptr i64 %14 to void (%class.PrefetchProxyFromStringURLLoader*)*
  br label %40

40:                                               ; preds = %38, %31
  %41 = phi void (%class.PrefetchProxyFromStringURLLoader*)* [ %37, %31 ], [ %39, %38 ]
  call void %41(%class.PrefetchProxyFromStringURLLoader* %28) #7
  br label %42

42:                                               ; preds = %1, %7, %40
  ret void
}

; Function Attrs: nounwind ssp uwtable
define linkonce_odr hidden void @_ZN4base8internal9BindStateIM32PrefetchProxyFromStringURLLoaderFvvEJNS_7WeakPtrIS2_EEEE7DestroyEPKNS0_13BindStateBaseE(%"class.base::internal::BindStateBase"*) #0 comdat align 2 {
  %2 = icmp eq %"class.base::internal::BindStateBase"* %0, null
  br i1 %2, label %7, label %3

3:                                                ; preds = %1
  %4 = getelementptr inbounds %"class.base::internal::BindStateBase", %"class.base::internal::BindStateBase"* %0, i64 1, i32 2
  %5 = bitcast void (%"class.base::internal::BindStateBase"*)** %4 to %"class.base::internal::WeakPtrBase"*
  tail call void @_ZN4base8internal11WeakPtrBaseD2Ev(%"class.base::internal::WeakPtrBase"* %5) #7
  %6 = bitcast %"class.base::internal::BindStateBase"* %0 to i8*
  tail call void @_ZdlPv(i8* %6) #8
  br label %7

7:                                                ; preds = %3, %1
  ret void
}

; Function Attrs: nounwind ssp uwtable
define linkonce_odr hidden zeroext i1 @_ZN4base8internal23QueryCancellationTraitsINS0_9BindStateIM32PrefetchProxyFromStringURLLoaderFvvEJNS_7WeakPtrIS3_EEEEEEEbPKNS0_13BindStateBaseENS9_21CancellationQueryModeE(%"class.base::internal::BindStateBase"*, i32) #0 comdat {
  %3 = getelementptr inbounds %"class.base::internal::BindStateBase", %"class.base::internal::BindStateBase"* %0, i64 1, i32 2
  switch i32 %1, label %16 [
    i32 0, label %4
    i32 1, label %13
  ]

4:                                                ; preds = %2
  %5 = bitcast void (%"class.base::internal::BindStateBase"*)** %3 to %"class.base::internal::WeakReference"*
  %6 = tail call zeroext i1 @_ZNK4base8internal13WeakReference7IsValidEv(%"class.base::internal::WeakReference"* %5) #7
  %7 = getelementptr inbounds void (%"class.base::internal::BindStateBase"*)*, void (%"class.base::internal::BindStateBase"*)** %3, i64 1
  %8 = bitcast void (%"class.base::internal::BindStateBase"*)** %7 to %class.PrefetchProxyFromStringURLLoader**
  %9 = load %class.PrefetchProxyFromStringURLLoader*, %class.PrefetchProxyFromStringURLLoader** %8, align 8
  %10 = icmp ne %class.PrefetchProxyFromStringURLLoader* %9, null
  %11 = and i1 %6, %10
  %12 = xor i1 %11, true
  br label %16

13:                                               ; preds = %2
  %14 = bitcast void (%"class.base::internal::BindStateBase"*)** %3 to %"class.base::internal::WeakReference"*
  %15 = tail call zeroext i1 @_ZNK4base8internal13WeakReference10MaybeValidEv(%"class.base::internal::WeakReference"* %14) #7
  br label %16

16:                                               ; preds = %2, %4, %13
  %17 = phi i1 [ %15, %13 ], [ %12, %4 ], [ false, %2 ]
  ret i1 %17
}

; Function Attrs: nounwind ssp uwtable
define linkonce_odr hidden void @_ZN4mojo6RemoteIN7network5mojom15URLLoaderClientEE4BindENS_13PendingRemoteIS3_EE13scoped_refptrIN4base19SequencedTaskRunnerEE(%"class.mojo::Remote"*, %"class.mojo::PendingRemote.517"*, %"class.base::SequencedTaskRunner"*) local_unnamed_addr #0 comdat align 2 {
  %4 = alloca %"class.mojo::internal::InterfacePtrState", align 8
  %5 = getelementptr inbounds %"class.mojo::PendingRemote.517", %"class.mojo::PendingRemote.517"* %1, i64 0, i32 0, i32 0, i32 0, i32 0, i32 0
  %6 = load i32, i32* %5, align 4
  %7 = icmp eq i32 %6, 0
  br i1 %7, label %8, label %25

8:                                                ; preds = %3
  %9 = bitcast %"class.mojo::internal::InterfacePtrState"* %4 to i8*
  call void @llvm.lifetime.start.p0i8(i64 48, i8* nonnull %9) #7
  call void @llvm.memset.p0i8.i64(i8* nonnull align 8 %9, i8 -86, i64 48, i1 false) #7
  %10 = bitcast %"class.mojo::internal::InterfacePtrState"* %4 to %"class.mojo::internal::InterfacePtrStateBase"*
  call void @_ZN4mojo8internal21InterfacePtrStateBaseC2Ev(%"class.mojo::internal::InterfacePtrStateBase"* nonnull %10) #7
  %11 = getelementptr inbounds %"class.mojo::internal::InterfacePtrState", %"class.mojo::internal::InterfacePtrState"* %4, i64 0, i32 1
  %12 = bitcast %"class.std::__1::unique_ptr.384"* %11 to i64*
  %13 = getelementptr inbounds %"class.mojo::Remote", %"class.mojo::Remote"* %0, i64 0, i32 0, i32 1
  %14 = bitcast %"class.std::__1::unique_ptr.384"* %13 to i64*
  %15 = load i64, i64* %14, align 8
  store i64 %15, i64* %12, align 8
  store i64 0, i64* %14, align 8
  %16 = bitcast %"class.mojo::Remote"* %0 to %"class.mojo::internal::InterfacePtrStateBase"*
  call void @_ZN4mojo8internal21InterfacePtrStateBase4SwapEPS1_(%"class.mojo::internal::InterfacePtrStateBase"* %16, %"class.mojo::internal::InterfacePtrStateBase"* nonnull %10) #7
  %17 = getelementptr inbounds %"class.mojo::internal::InterfacePtrState", %"class.mojo::internal::InterfacePtrState"* %4, i64 0, i32 1, i32 0, i32 0, i32 0
  %18 = load %"class.network::mojom::URLLoaderClientProxy"*, %"class.network::mojom::URLLoaderClientProxy"** %17, align 8
  store %"class.network::mojom::URLLoaderClientProxy"* null, %"class.network::mojom::URLLoaderClientProxy"** %17, align 8
  %19 = icmp eq %"class.network::mojom::URLLoaderClientProxy"* %18, null
  br i1 %19, label %52, label %20

20:                                               ; preds = %8
  %21 = bitcast %"class.network::mojom::URLLoaderClientProxy"* %18 to void (%"class.network::mojom::URLLoaderClientProxy"*)***
  %22 = load void (%"class.network::mojom::URLLoaderClientProxy"*)**, void (%"class.network::mojom::URLLoaderClientProxy"*)*** %21, align 8
  %23 = getelementptr inbounds void (%"class.network::mojom::URLLoaderClientProxy"*)*, void (%"class.network::mojom::URLLoaderClientProxy"*)** %22, i64 1
  %24 = load void (%"class.network::mojom::URLLoaderClientProxy"*)*, void (%"class.network::mojom::URLLoaderClientProxy"*)** %23, align 8
  call void %24(%"class.network::mojom::URLLoaderClientProxy"* nonnull %18) #7
  br label %52

25:                                               ; preds = %3
  %26 = getelementptr inbounds %"class.mojo::PendingRemote.517", %"class.mojo::PendingRemote.517"* %1, i64 0, i32 0
  %27 = bitcast %"class.mojo::Remote"* %0 to %"class.mojo::internal::InterfacePtrStateBase"*
  tail call void @_ZN4mojo8internal21InterfacePtrStateBase4BindEPNS0_18PendingRemoteStateE13scoped_refptrIN4base19SequencedTaskRunnerEE(%"class.mojo::internal::InterfacePtrStateBase"* %27, %"struct.mojo::internal::PendingRemoteState"* %26, %"class.base::SequencedTaskRunner"* %2) #7
  %28 = getelementptr inbounds %"class.mojo::Remote", %"class.mojo::Remote"* %0, i64 0, i32 0, i32 1
  %29 = getelementptr inbounds %"class.std::__1::unique_ptr.384", %"class.std::__1::unique_ptr.384"* %28, i64 0, i32 0, i32 0, i32 0
  %30 = load %"class.network::mojom::URLLoaderClientProxy"*, %"class.network::mojom::URLLoaderClientProxy"** %29, align 8
  %31 = icmp eq %"class.network::mojom::URLLoaderClientProxy"* %30, null
  br i1 %31, label %32, label %62

32:                                               ; preds = %25
  %33 = tail call i8* @_Znwm(i64 8) #8
  %34 = bitcast i8* %33 to i32 (...)***
  store i32 (...)** bitcast (i8** getelementptr inbounds ({ [6 x i8*] }, { [6 x i8*] }* @_ZTVN7network5mojom32URLLoaderClientResponseValidatorE, i64 0, inrange i32 0, i64 2) to i32 (...)**), i32 (...)*** %34, align 8
  %35 = bitcast i8* %33 to %"class.mojo::MessageReceiver"*
  %36 = tail call zeroext i1 @_ZN4mojo8internal21InterfacePtrStateBase24InitializeEndpointClientEbbbNSt3__110unique_ptrINS_15MessageReceiverENS2_14default_deleteIS4_EEEEPKc(%"class.mojo::internal::InterfacePtrStateBase"* %27, i1 zeroext false, i1 zeroext false, i1 zeroext false, %"class.mojo::MessageReceiver"* nonnull %35, i8* getelementptr inbounds ([0 x i8], [0 x i8]* @_ZN7network5mojom15URLLoaderClient5Name_E, i64 0, i64 0)) #7
  br i1 %36, label %37, label %62

37:                                               ; preds = %32
  %38 = getelementptr inbounds %"class.mojo::Remote", %"class.mojo::Remote"* %0, i64 0, i32 0, i32 0, i32 1, i32 0, i32 0, i32 0
  %39 = bitcast %"class.mojo::InterfaceEndpointClient"** %38 to %"class.mojo::MessageReceiverWithResponder"**
  %40 = load %"class.mojo::MessageReceiverWithResponder"*, %"class.mojo::MessageReceiverWithResponder"** %39, align 8
  %41 = tail call i8* @_Znwm(i64 16) #8
  %42 = bitcast i8* %41 to %"class.network::mojom::URLLoaderClientProxy"*
  tail call void @_ZN7network5mojom20URLLoaderClientProxyC1EPN4mojo28MessageReceiverWithResponderE(%"class.network::mojom::URLLoaderClientProxy"* nonnull %42, %"class.mojo::MessageReceiverWithResponder"* %40) #7
  %43 = ptrtoint i8* %41 to i64
  %44 = load %"class.network::mojom::URLLoaderClientProxy"*, %"class.network::mojom::URLLoaderClientProxy"** %29, align 8
  %45 = bitcast %"class.std::__1::unique_ptr.384"* %28 to i64*
  store i64 %43, i64* %45, align 8
  %46 = icmp eq %"class.network::mojom::URLLoaderClientProxy"* %44, null
  br i1 %46, label %62, label %47

47:                                               ; preds = %37
  %48 = bitcast %"class.network::mojom::URLLoaderClientProxy"* %44 to void (%"class.network::mojom::URLLoaderClientProxy"*)***
  %49 = load void (%"class.network::mojom::URLLoaderClientProxy"*)**, void (%"class.network::mojom::URLLoaderClientProxy"*)*** %48, align 8
  %50 = getelementptr inbounds void (%"class.network::mojom::URLLoaderClientProxy"*)*, void (%"class.network::mojom::URLLoaderClientProxy"*)** %49, i64 1
  %51 = load void (%"class.network::mojom::URLLoaderClientProxy"*)*, void (%"class.network::mojom::URLLoaderClientProxy"*)** %50, align 8
  tail call void %51(%"class.network::mojom::URLLoaderClientProxy"* nonnull %44) #7
  br label %62

52:                                               ; preds = %20, %8
  call void @_ZN4mojo8internal21InterfacePtrStateBaseD2Ev(%"class.mojo::internal::InterfacePtrStateBase"* nonnull %10) #7
  call void @llvm.lifetime.end.p0i8(i64 48, i8* nonnull %9) #7
  %53 = icmp eq %"class.base::SequencedTaskRunner"* %2, null
  br i1 %53, label %62, label %54

54:                                               ; preds = %52
  %55 = getelementptr inbounds %"class.base::SequencedTaskRunner", %"class.base::SequencedTaskRunner"* %2, i64 0, i32 0, i32 1
  %56 = getelementptr inbounds %"class.base::RefCountedThreadSafe.205", %"class.base::RefCountedThreadSafe.205"* %55, i64 0, i32 0, i32 0, i32 0, i32 0, i32 0, i32 0, i32 0, i32 0
  %57 = atomicrmw sub i32* %56, i32 1 acq_rel
  %58 = icmp eq i32 %57, 1
  br i1 %58, label %59, label %62

59:                                               ; preds = %54
  %60 = getelementptr inbounds %"class.base::RefCountedThreadSafe.205", %"class.base::RefCountedThreadSafe.205"* %55, i64 -2
  %61 = bitcast %"class.base::RefCountedThreadSafe.205"* %60 to %"class.base::TaskRunner"*
  call void @_ZN4base16TaskRunnerTraits8DestructEPKNS_10TaskRunnerE(%"class.base::TaskRunner"* %61) #7
  br label %62

62:                                               ; preds = %47, %37, %32, %25, %52, %54, %59
  ret void
}

declare void @_ZN4mojo8internal21InterfacePtrStateBase4BindEPNS0_18PendingRemoteStateE13scoped_refptrIN4base19SequencedTaskRunnerEE(%"class.mojo::internal::InterfacePtrStateBase"*, %"struct.mojo::internal::PendingRemoteState"*, %"class.base::SequencedTaskRunner"*) local_unnamed_addr #1

declare zeroext i1 @_ZN4mojo8internal21InterfacePtrStateBase24InitializeEndpointClientEbbbNSt3__110unique_ptrINS_15MessageReceiverENS2_14default_deleteIS4_EEEEPKc(%"class.mojo::internal::InterfacePtrStateBase"*, i1 zeroext, i1 zeroext, i1 zeroext, %"class.mojo::MessageReceiver"*, i8*) local_unnamed_addr #1

declare void @_ZN7network5mojom20URLLoaderClientProxyC1EPN4mojo28MessageReceiverWithResponderE(%"class.network::mojom::URLLoaderClientProxy"*, %"class.mojo::MessageReceiverWithResponder"*) unnamed_addr #1

declare void @_ZN4mojo13SimpleWatcherC1ERKN4base8LocationENS0_12ArmingPolicyE13scoped_refptrINS1_19SequencedTaskRunnerEEPKc(%"class.mojo::SimpleWatcher"*, %"class.base::Location"* dereferenceable(32), i32, %"class.base::SequencedTaskRunner"*, i8*) unnamed_addr #1

; Function Attrs: nounwind ssp uwtable
define linkonce_odr hidden void @_ZN4base8internal7InvokerINS0_9BindStateIM32PrefetchProxyFromStringURLLoaderFvjRKN4mojo18HandleSignalsStateEEJNS_7WeakPtrIS3_EEEEEFvjS7_EE3RunEPNS0_13BindStateBaseEjS7_(%"class.base::internal::BindStateBase"*, i32, %"struct.mojo::HandleSignalsState"* dereferenceable(8)) #0 comdat align 2 {
  %4 = alloca %"class.logging::CheckError", align 8
  %5 = getelementptr inbounds %"class.base::internal::BindStateBase", %"class.base::internal::BindStateBase"* %0, i64 1
  %6 = getelementptr inbounds %"class.base::internal::BindStateBase", %"class.base::internal::BindStateBase"* %0, i64 1, i32 2
  %7 = bitcast void (%"class.base::internal::BindStateBase"*)** %6 to %"class.base::internal::WeakReference"*
  %8 = tail call zeroext i1 @_ZNK4base8internal13WeakReference7IsValidEv(%"class.base::internal::WeakReference"* %7) #7
  br i1 %8, label %9, label %44

9:                                                ; preds = %3
  %10 = getelementptr inbounds void (%"class.base::internal::BindStateBase"*)*, void (%"class.base::internal::BindStateBase"*)** %6, i64 1
  %11 = bitcast void (%"class.base::internal::BindStateBase"*)** %10 to %class.PrefetchProxyFromStringURLLoader**
  %12 = load %class.PrefetchProxyFromStringURLLoader*, %class.PrefetchProxyFromStringURLLoader** %11, align 8
  %13 = icmp eq %class.PrefetchProxyFromStringURLLoader* %12, null
  br i1 %13, label %44, label %14

14:                                               ; preds = %9
  %15 = bitcast %"class.base::internal::BindStateBase"* %5 to i64*
  %16 = load i64, i64* %15, align 8
  %17 = getelementptr inbounds %"class.base::internal::BindStateBase", %"class.base::internal::BindStateBase"* %0, i64 1, i32 1
  %18 = bitcast void ()** %17 to i64*
  %19 = load i64, i64* %18, align 8
  %20 = tail call zeroext i1 @_ZNK4base8internal13WeakReference7IsValidEv(%"class.base::internal::WeakReference"* %7) #7
  br i1 %20, label %24, label %21

21:                                               ; preds = %14
  %22 = bitcast %"class.logging::CheckError"* %4 to i8*
  call void @llvm.lifetime.start.p0i8(i64 8, i8* nonnull %22) #7
  call void @_ZN7logging10CheckError5CheckEPKciS2_(%"class.logging::CheckError"* nonnull sret %4, i8* getelementptr inbounds ([29 x i8], [29 x i8]* @.str.2, i64 0, i64 0), i32 251, i8* getelementptr inbounds ([15 x i8], [15 x i8]* @.str.3, i64 0, i64 0)) #7
  %23 = call dereferenceable(160) %"class.std::__1::basic_ostream"* @_ZN7logging10CheckError6streamEv(%"class.logging::CheckError"* nonnull %4) #7
  call void @_ZN7logging10CheckErrorD1Ev(%"class.logging::CheckError"* nonnull %4) #7
  call void @llvm.lifetime.end.p0i8(i64 8, i8* nonnull %22) #7
  br label %24

24:                                               ; preds = %21, %14
  %25 = call zeroext i1 @_ZNK4base8internal13WeakReference7IsValidEv(%"class.base::internal::WeakReference"* %7) #7
  %26 = bitcast void (%"class.base::internal::BindStateBase"*)** %10 to i8**
  %27 = load i8*, i8** %26, align 8
  %28 = select i1 %25, i8* %27, i8* null
  %29 = getelementptr inbounds i8, i8* %28, i64 %19
  %30 = bitcast i8* %29 to %class.PrefetchProxyFromStringURLLoader*
  %31 = and i64 %16, 1
  %32 = icmp eq i64 %31, 0
  br i1 %32, label %40, label %33

33:                                               ; preds = %24
  %34 = bitcast i8* %29 to i8**
  %35 = load i8*, i8** %34, align 8
  %36 = add i64 %16, -1
  %37 = getelementptr i8, i8* %35, i64 %36
  %38 = bitcast i8* %37 to void (%class.PrefetchProxyFromStringURLLoader*, i32, %"struct.mojo::HandleSignalsState"*)**
  %39 = load void (%class.PrefetchProxyFromStringURLLoader*, i32, %"struct.mojo::HandleSignalsState"*)*, void (%class.PrefetchProxyFromStringURLLoader*, i32, %"struct.mojo::HandleSignalsState"*)** %38, align 8
  br label %42

40:                                               ; preds = %24
  %41 = inttoptr i64 %16 to void (%class.PrefetchProxyFromStringURLLoader*, i32, %"struct.mojo::HandleSignalsState"*)*
  br label %42

42:                                               ; preds = %40, %33
  %43 = phi void (%class.PrefetchProxyFromStringURLLoader*, i32, %"struct.mojo::HandleSignalsState"*)* [ %39, %33 ], [ %41, %40 ]
  call void %43(%class.PrefetchProxyFromStringURLLoader* %30, i32 %1, %"struct.mojo::HandleSignalsState"* dereferenceable(8) %2) #7
  br label %44

44:                                               ; preds = %3, %9, %42
  ret void
}

; Function Attrs: nounwind ssp uwtable
define linkonce_odr hidden void @_ZN4base8internal9BindStateIM32PrefetchProxyFromStringURLLoaderFvjRKN4mojo18HandleSignalsStateEEJNS_7WeakPtrIS2_EEEE7DestroyEPKNS0_13BindStateBaseE(%"class.base::internal::BindStateBase"*) #0 comdat align 2 {
  %2 = icmp eq %"class.base::internal::BindStateBase"* %0, null
  br i1 %2, label %7, label %3

3:                                                ; preds = %1
  %4 = getelementptr inbounds %"class.base::internal::BindStateBase", %"class.base::internal::BindStateBase"* %0, i64 1, i32 2
  %5 = bitcast void (%"class.base::internal::BindStateBase"*)** %4 to %"class.base::internal::WeakPtrBase"*
  tail call void @_ZN4base8internal11WeakPtrBaseD2Ev(%"class.base::internal::WeakPtrBase"* %5) #7
  %6 = bitcast %"class.base::internal::BindStateBase"* %0 to i8*
  tail call void @_ZdlPv(i8* %6) #8
  br label %7

7:                                                ; preds = %3, %1
  ret void
}

; Function Attrs: nounwind ssp uwtable
define linkonce_odr hidden zeroext i1 @_ZN4base8internal23QueryCancellationTraitsINS0_9BindStateIM32PrefetchProxyFromStringURLLoaderFvjRKN4mojo18HandleSignalsStateEEJNS_7WeakPtrIS3_EEEEEEEbPKNS0_13BindStateBaseENSD_21CancellationQueryModeE(%"class.base::internal::BindStateBase"*, i32) #0 comdat {
  %3 = getelementptr inbounds %"class.base::internal::BindStateBase", %"class.base::internal::BindStateBase"* %0, i64 1, i32 2
  switch i32 %1, label %16 [
    i32 0, label %4
    i32 1, label %13
  ]

4:                                                ; preds = %2
  %5 = bitcast void (%"class.base::internal::BindStateBase"*)** %3 to %"class.base::internal::WeakReference"*
  %6 = tail call zeroext i1 @_ZNK4base8internal13WeakReference7IsValidEv(%"class.base::internal::WeakReference"* %5) #7
  %7 = getelementptr inbounds void (%"class.base::internal::BindStateBase"*)*, void (%"class.base::internal::BindStateBase"*)** %3, i64 1
  %8 = bitcast void (%"class.base::internal::BindStateBase"*)** %7 to %class.PrefetchProxyFromStringURLLoader**
  %9 = load %class.PrefetchProxyFromStringURLLoader*, %class.PrefetchProxyFromStringURLLoader** %8, align 8
  %10 = icmp ne %class.PrefetchProxyFromStringURLLoader* %9, null
  %11 = and i1 %6, %10
  %12 = xor i1 %11, true
  br label %16

13:                                               ; preds = %2
  %14 = bitcast void (%"class.base::internal::BindStateBase"*)** %3 to %"class.base::internal::WeakReference"*
  %15 = tail call zeroext i1 @_ZNK4base8internal13WeakReference10MaybeValidEv(%"class.base::internal::WeakReference"* %14) #7
  br label %16

16:                                               ; preds = %2, %4, %13
  %17 = phi i1 [ %15, %13 ], [ %12, %4 ], [ false, %2 ]
  ret i1 %17
}

; Function Attrs: nounwind
declare void @_ZN4mojo13SimpleWatcherD1Ev(%"class.mojo::SimpleWatcher"*) unnamed_addr #3

declare void @_ZN4mojo8internal21InterfacePtrStateBase4SwapEPS1_(%"class.mojo::internal::InterfacePtrStateBase"*, %"class.mojo::internal::InterfacePtrStateBase"*) local_unnamed_addr #1

declare void @_ZN4base8internal18WeakReferenceOwner10InvalidateEv(%"class.base::internal::WeakReferenceOwner"*) local_unnamed_addr #1

attributes #0 = { nounwind ssp uwtable "correctly-rounded-divide-sqrt-fp-math"="false" "disable-tail-calls"="false" "less-precise-fpmad"="false" "min-legal-vector-width"="0" "no-frame-pointer-elim"="false" "no-frame-pointer-elim-non-leaf" "no-infs-fp-math"="false" "no-jump-tables"="false" "no-nans-fp-math"="false" "no-signed-zeros-fp-math"="false" "no-trapping-math"="false" "null-pointer-is-valid"="true" "stack-protector-buffer-size"="4" "target-cpu"="x86-64" "target-features"="+cx8,+fxsr,+mmx,+sse,+sse2,+sse3,+x87" "unsafe-fp-math"="false" "use-soft-float"="false" }
attributes #1 = { "correctly-rounded-divide-sqrt-fp-math"="false" "disable-tail-calls"="false" "less-precise-fpmad"="false" "no-frame-pointer-elim"="false" "no-frame-pointer-elim-non-leaf" "no-infs-fp-math"="false" "no-nans-fp-math"="false" "no-signed-zeros-fp-math"="false" "no-trapping-math"="false" "null-pointer-is-valid"="true" "stack-protector-buffer-size"="4" "target-cpu"="x86-64" "target-features"="+cx8,+fxsr,+mmx,+sse,+sse2,+sse3,+x87" "unsafe-fp-math"="false" "use-soft-float"="false" }
attributes #2 = { argmemonly nounwind }
attributes #3 = { nounwind "correctly-rounded-divide-sqrt-fp-math"="false" "disable-tail-calls"="false" "less-precise-fpmad"="false" "no-frame-pointer-elim"="false" "no-frame-pointer-elim-non-leaf" "no-infs-fp-math"="false" "no-nans-fp-math"="false" "no-signed-zeros-fp-math"="false" "no-trapping-math"="false" "null-pointer-is-valid"="true" "stack-protector-buffer-size"="4" "target-cpu"="x86-64" "target-features"="+cx8,+fxsr,+mmx,+sse,+sse2,+sse3,+x87" "unsafe-fp-math"="false" "use-soft-float"="false" }
attributes #4 = { nobuiltin nounwind "correctly-rounded-divide-sqrt-fp-math"="false" "disable-tail-calls"="false" "less-precise-fpmad"="false" "no-frame-pointer-elim"="false" "no-frame-pointer-elim-non-leaf" "no-infs-fp-math"="false" "no-nans-fp-math"="false" "no-signed-zeros-fp-math"="false" "no-trapping-math"="false" "null-pointer-is-valid"="true" "stack-protector-buffer-size"="4" "target-cpu"="x86-64" "target-features"="+cx8,+fxsr,+mmx,+sse,+sse2,+sse3,+x87" "unsafe-fp-math"="false" "use-soft-float"="false" }
attributes #5 = { norecurse nounwind readnone ssp uwtable "correctly-rounded-divide-sqrt-fp-math"="false" "disable-tail-calls"="false" "less-precise-fpmad"="false" "min-legal-vector-width"="0" "no-frame-pointer-elim"="false" "no-frame-pointer-elim-non-leaf" "no-infs-fp-math"="false" "no-jump-tables"="false" "no-nans-fp-math"="false" "no-signed-zeros-fp-math"="false" "no-trapping-math"="false" "null-pointer-is-valid"="true" "stack-protector-buffer-size"="4" "target-cpu"="x86-64" "target-features"="+cx8,+fxsr,+mmx,+sse,+sse2,+sse3,+x87" "unsafe-fp-math"="false" "use-soft-float"="false" }
attributes #6 = { nobuiltin nofree "correctly-rounded-divide-sqrt-fp-math"="false" "disable-tail-calls"="false" "less-precise-fpmad"="false" "no-frame-pointer-elim"="false" "no-frame-pointer-elim-non-leaf" "no-infs-fp-math"="false" "no-nans-fp-math"="false" "no-signed-zeros-fp-math"="false" "no-trapping-math"="false" "null-pointer-is-valid"="true" "stack-protector-buffer-size"="4" "target-cpu"="x86-64" "target-features"="+cx8,+fxsr,+mmx,+sse,+sse2,+sse3,+x87" "unsafe-fp-math"="false" "use-soft-float"="false" }
attributes #7 = { nounwind }
attributes #8 = { builtin nounwind }

!llvm.module.flags = !{!0, !1}

!0 = !{i32 1, !"wchar_size", i32 4}
!1 = !{i32 7, !"PIC Level", i32 2}
!2 = !{!3}
!3 = distinct !{!3, !4, !"_ZNK4base14WeakPtrFactoryI32PrefetchProxyFromStringURLLoaderE10GetWeakPtrEv: argument 0"}
!4 = distinct !{!4, !"_ZNK4base14WeakPtrFactoryI32PrefetchProxyFromStringURLLoaderE10GetWeakPtrEv"}
!5 = !{!6, !8}
!6 = distinct !{!6, !7, !"_ZN4base8internal8BindImplINS_12OnceCallbackEM32PrefetchProxyFromStringURLLoaderFvRKN7network15ResourceRequestEN4mojo15PendingReceiverINS4_5mojom9URLLoaderEEENS8_13PendingRemoteINSA_15URLLoaderClientEEEEJNS_7WeakPtrIS3_EEEEEDcOT0_DpOT1_: argument 0"}
!7 = distinct !{!7, !"_ZN4base8internal8BindImplINS_12OnceCallbackEM32PrefetchProxyFromStringURLLoaderFvRKN7network15ResourceRequestEN4mojo15PendingReceiverINS4_5mojom9URLLoaderEEENS8_13PendingRemoteINSA_15URLLoaderClientEEEEJNS_7WeakPtrIS3_EEEEEDcOT0_DpOT1_"}
!8 = distinct !{!8, !9, !"_ZN4base8BindOnceIM32PrefetchProxyFromStringURLLoaderFvRKN7network15ResourceRequestEN4mojo15PendingReceiverINS2_5mojom9URLLoaderEEENS6_13PendingRemoteINS8_15URLLoaderClientEEEEJNS_7WeakPtrIS1_EEEEENS_12OnceCallbackINS_8internal14BindTypeHelperIT_JDpT0_EE14UnboundRunTypeEEEOSL_DpOSM_: argument 0"}
!9 = distinct !{!9, !"_ZN4base8BindOnceIM32PrefetchProxyFromStringURLLoaderFvRKN7network15ResourceRequestEN4mojo15PendingReceiverINS2_5mojom9URLLoaderEEENS6_13PendingRemoteINS8_15URLLoaderClientEEEEJNS_7WeakPtrIS1_EEEEENS_12OnceCallbackINS_8internal14BindTypeHelperIT_JDpT0_EE14UnboundRunTypeEEEOSL_DpOSM_"}
!10 = !{!11}
!11 = distinct !{!11, !12, !"_ZNK4base14WeakPtrFactoryI32PrefetchProxyFromStringURLLoaderE10GetWeakPtrEv: argument 0"}
!12 = distinct !{!12, !"_ZNK4base14WeakPtrFactoryI32PrefetchProxyFromStringURLLoaderE10GetWeakPtrEv"}
!13 = !{!14, !16}
!14 = distinct !{!14, !15, !"_ZN4base8internal8BindImplINS_12OnceCallbackEM32PrefetchProxyFromStringURLLoaderFvvEJNS_7WeakPtrIS3_EEEEEDcOT0_DpOT1_: argument 0"}
!15 = distinct !{!15, !"_ZN4base8internal8BindImplINS_12OnceCallbackEM32PrefetchProxyFromStringURLLoaderFvvEJNS_7WeakPtrIS3_EEEEEDcOT0_DpOT1_"}
!16 = distinct !{!16, !17, !"_ZN4base8BindOnceIM32PrefetchProxyFromStringURLLoaderFvvEJNS_7WeakPtrIS1_EEEEENS_12OnceCallbackINS_8internal14BindTypeHelperIT_JDpT0_EE14UnboundRunTypeEEEOS9_DpOSA_: argument 0"}
!17 = distinct !{!17, !"_ZN4base8BindOnceIM32PrefetchProxyFromStringURLLoaderFvvEJNS_7WeakPtrIS1_EEEEENS_12OnceCallbackINS_8internal14BindTypeHelperIT_JDpT0_EE14UnboundRunTypeEEEOS9_DpOSA_"}
!18 = !{!19}
!19 = distinct !{!19, !20, !"_ZN4mojo16ScopedHandleBaseINS_22DataPipeConsumerHandleEE7releaseEv: argument 0"}
!20 = distinct !{!20, !"_ZN4mojo16ScopedHandleBaseINS_22DataPipeConsumerHandleEE7releaseEv"}
!21 = !{!22}
!22 = distinct !{!22, !23, !"_ZNK4base14WeakPtrFactoryI32PrefetchProxyFromStringURLLoaderE10GetWeakPtrEv: argument 0"}
!23 = distinct !{!23, !"_ZNK4base14WeakPtrFactoryI32PrefetchProxyFromStringURLLoaderE10GetWeakPtrEv"}
!24 = !{!25, !27}
!25 = distinct !{!25, !26, !"_ZN4base8internal8BindImplINS_17RepeatingCallbackEM32PrefetchProxyFromStringURLLoaderFvjRKN4mojo18HandleSignalsStateEEJNS_7WeakPtrIS3_EEEEEDcOT0_DpOT1_: argument 0"}
!26 = distinct !{!26, !"_ZN4base8internal8BindImplINS_17RepeatingCallbackEM32PrefetchProxyFromStringURLLoaderFvjRKN4mojo18HandleSignalsStateEEJNS_7WeakPtrIS3_EEEEEDcOT0_DpOT1_"}
!27 = distinct !{!27, !28, !"_ZN4base13BindRepeatingIM32PrefetchProxyFromStringURLLoaderFvjRKN4mojo18HandleSignalsStateEEJNS_7WeakPtrIS1_EEEEENS_17RepeatingCallbackINS_8internal14BindTypeHelperIT_JDpT0_EE14UnboundRunTypeEEEOSD_DpOSE_: argument 0"}
!28 = distinct !{!28, !"_ZN4base13BindRepeatingIM32PrefetchProxyFromStringURLLoaderFvjRKN4mojo18HandleSignalsStateEEJNS_7WeakPtrIS1_EEEEENS_17RepeatingCallbackINS_8internal14BindTypeHelperIT_JDpT0_EE14UnboundRunTypeEEEOSD_DpOSE_"}
