; ModuleID = '../../content/browser/presentation/presentation_service_impl.cc'
source_filename = "../../content/browser/presentation/presentation_service_impl.cc"
target datalayout = "e-m:e-i64:64-f80:128-n8:16:32:64-S128"
target triple = "x86_64-unknown-linux-gnu"

module asm ".symver exp, exp@GLIBC_2.2.5"
module asm ".symver exp2, exp2@GLIBC_2.2.5"
module asm ".symver exp2f, exp2f@GLIBC_2.2.5"
module asm ".symver expf, expf@GLIBC_2.2.5"
module asm ".symver lgamma, lgamma@GLIBC_2.2.5"
module asm ".symver lgammaf, lgammaf@GLIBC_2.2.5"
module asm ".symver lgammal, lgammal@GLIBC_2.2.5"
module asm ".symver log, log@GLIBC_2.2.5"
module asm ".symver log2, log2@GLIBC_2.2.5"
module asm ".symver log2f, log2f@GLIBC_2.2.5"
module asm ".symver logf, logf@GLIBC_2.2.5"
module asm ".symver pow, pow@GLIBC_2.2.5"
module asm ".symver powf, powf@GLIBC_2.2.5"

%"struct.std::__1::piecewise_construct_t" = type { i8 }
%"class.content::PresentationServiceImpl" = type { %"class.blink::mojom::PresentationService", %"class.content::WebContentsObserver", %"class.content::PresentationServiceDelegate::Observer", %"class.content::RenderFrameHost"*, %"class.content::ControllerPresentationServiceDelegate"*, %"class.content::ReceiverPresentationServiceDelegate"*, %"class.mojo::Remote", %"class.mojo::Remote.186", %"class.std::__1::vector", %"class.std::__1::map.204", i32, %"class.std::__1::unique_ptr.215", %"class.std::__1::unordered_map", %"class.mojo::ReceiverSetBase", i32, i32, i8, %"class.base::WeakPtrFactory.252" }
%"class.blink::mojom::PresentationService" = type { i32 (...)** }
%"class.content::WebContentsObserver" = type { %"class.IPC::Listener", %"class.content::WebContents"* }
%"class.IPC::Listener" = type { i32 (...)** }
%"class.content::PresentationServiceDelegate::Observer" = type { i32 (...)** }
%"class.mojo::Remote" = type { %"class.mojo::internal::InterfacePtrState" }
%"class.mojo::internal::InterfacePtrState" = type { %"class.mojo::internal::InterfacePtrStateBase.base", %"class.std::__1::unique_ptr.180" }
%"class.mojo::internal::InterfacePtrStateBase.base" = type <{ %class.scoped_refptr, %"class.std::__1::unique_ptr.130", %"class.mojo::ScopedHandleBase", [4 x i8], %class.scoped_refptr.5, i32 }>
%class.scoped_refptr = type { %"class.mojo::internal::MultiplexRouter"* }
%"class.mojo::internal::MultiplexRouter" = type <{ %"class.mojo::MessageReceiver", %"class.mojo::AssociatedGroupController.base", [4 x i8], %"class.mojo::PipeControlMessageHandlerDelegate", i32, i8, [3 x i8], %class.scoped_refptr.5, %"class.mojo::MessageHeaderValidator"*, %"class.mojo::MessageDispatcher", %"class.mojo::Connector", %"class.mojo::ScopedHandleBase", [4 x i8], %"class.absl::optional.93", %"class.absl::optional.98", %"class.absl::optional.45", %"class.mojo::PipeControlMessageHandler", %"class.mojo::PipeControlMessageProxy", %"class.base::small_map", i32, [4 x i8], %"class.base::circular_deque", %"class.std::__1::map.121", i8, [7 x i8], %class.scoped_refptr.5, i8, i8, i8, i8, i8, [3 x i8] }>
%"class.mojo::MessageReceiver" = type { i32 (...)** }
%"class.mojo::AssociatedGroupController.base" = type <{ i32 (...)**, %"class.base::RefCountedThreadSafe" }>
%"class.base::RefCountedThreadSafe" = type { %"class.base::subtle::RefCountedThreadSafeBase" }
%"class.base::subtle::RefCountedThreadSafeBase" = type { %"class.base::AtomicRefCount" }
%"class.base::AtomicRefCount" = type { %"struct.std::__1::atomic" }
%"struct.std::__1::atomic" = type { %"struct.std::__1::__atomic_base" }
%"struct.std::__1::__atomic_base" = type { %"struct.std::__1::__atomic_base.4" }
%"struct.std::__1::__atomic_base.4" = type { %"struct.std::__1::__cxx_atomic_impl" }
%"struct.std::__1::__cxx_atomic_impl" = type { %"struct.std::__1::__cxx_atomic_base_impl" }
%"struct.std::__1::__cxx_atomic_base_impl" = type { i32 }
%"class.mojo::PipeControlMessageHandlerDelegate" = type { i32 (...)** }
%"class.mojo::MessageHeaderValidator" = type { %"class.mojo::MessageReceiver", %"class.std::__1::basic_string" }
%"class.std::__1::basic_string" = type { %"class.std::__1::__compressed_pair.7" }
%"class.std::__1::__compressed_pair.7" = type { %"struct.std::__1::__compressed_pair_elem.8" }
%"struct.std::__1::__compressed_pair_elem.8" = type { %"struct.std::__1::basic_string<char, std::__1::char_traits<char>, std::__1::allocator<char> >::__rep" }
%"struct.std::__1::basic_string<char, std::__1::char_traits<char>, std::__1::allocator<char> >::__rep" = type { %union.anon }
%union.anon = type { %"struct.std::__1::basic_string<char, std::__1::char_traits<char>, std::__1::allocator<char> >::__long" }
%"struct.std::__1::basic_string<char, std::__1::char_traits<char>, std::__1::allocator<char> >::__long" = type { i8*, i64, i64 }
%"class.mojo::MessageDispatcher" = type { %"class.mojo::MessageReceiver", %"class.std::__1::unique_ptr", %"class.std::__1::unique_ptr.15", %"class.mojo::MessageReceiver"*, %"class.base::WeakPtrFactory" }
%"class.std::__1::unique_ptr" = type { %"class.std::__1::__compressed_pair.12" }
%"class.std::__1::__compressed_pair.12" = type { %"struct.std::__1::__compressed_pair_elem.13" }
%"struct.std::__1::__compressed_pair_elem.13" = type { %"class.mojo::MessageReceiver"* }
%"class.std::__1::unique_ptr.15" = type { %"class.std::__1::__compressed_pair.16" }
%"class.std::__1::__compressed_pair.16" = type { %"struct.std::__1::__compressed_pair_elem.17" }
%"struct.std::__1::__compressed_pair_elem.17" = type { %"class.mojo::MessageFilter"* }
%"class.mojo::MessageFilter" = type { i32 (...)** }
%"class.base::WeakPtrFactory" = type { %"class.base::internal::WeakPtrFactoryBase" }
%"class.base::internal::WeakPtrFactoryBase" = type { %"class.base::internal::WeakReferenceOwner", i64 }
%"class.base::internal::WeakReferenceOwner" = type { %class.scoped_refptr.21 }
%class.scoped_refptr.21 = type { %"class.base::internal::WeakReference::Flag"* }
%"class.base::internal::WeakReference::Flag" = type <{ %"class.base::RefCountedThreadSafe.22", %"class.base::AtomicFlag", [3 x i8] }>
%"class.base::RefCountedThreadSafe.22" = type { %"class.base::subtle::RefCountedThreadSafeBase" }
%"class.base::AtomicFlag" = type { %"struct.std::__1::atomic.23" }
%"struct.std::__1::atomic.23" = type { %"struct.std::__1::__atomic_base.24" }
%"struct.std::__1::__atomic_base.24" = type { %"struct.std::__1::__atomic_base.25" }
%"struct.std::__1::__atomic_base.25" = type { %"struct.std::__1::__cxx_atomic_impl.26" }
%"struct.std::__1::__cxx_atomic_impl.26" = type { %"struct.std::__1::__cxx_atomic_base_impl.27" }
%"struct.std::__1::__cxx_atomic_base_impl.27" = type { i8 }
%"class.mojo::Connector" = type { %"class.mojo::MessageReceiver", %"class.base::OnceCallback", %"class.mojo::ScopedHandleBase", %"class.mojo::MessageReceiver"*, %class.scoped_refptr.5, %"class.std::__1::unique_ptr.30", %"class.absl::optional", %"struct.std::__1::atomic.41", i8, i8, i8, i8, i32, i32, %"class.absl::optional.45", %"class.std::__1::unique_ptr.50", i8, i64, %class.scoped_refptr.82, %"class.base::Lock", i8, i8*, %"class.mojo::Connector::RunLoopNestingObserver"*, i8, i64, %"class.mojo::ConnectionGroup::Ref", %"class.base::WeakPtr", %"class.base::WeakPtrFactory.92" }
%"class.base::OnceCallback" = type { %"class.base::internal::CallbackBase" }
%"class.base::internal::CallbackBase" = type { %class.scoped_refptr.28 }
%class.scoped_refptr.28 = type { %"class.base::internal::BindStateBase"* }
%"class.base::internal::BindStateBase" = type { %"class.base::RefCountedThreadSafe.29", void ()*, void (%"class.base::internal::BindStateBase"*)*, i1 (%"class.base::internal::BindStateBase"*, i32)* }
%"class.base::RefCountedThreadSafe.29" = type { %"class.base::subtle::RefCountedThreadSafeBase" }
%"class.std::__1::unique_ptr.30" = type { %"class.std::__1::__compressed_pair.31" }
%"class.std::__1::__compressed_pair.31" = type { %"struct.std::__1::__compressed_pair_elem.32" }
%"struct.std::__1::__compressed_pair_elem.32" = type { %"class.mojo::SimpleWatcher"* }
%"class.mojo::SimpleWatcher" = type { i32, %class.scoped_refptr.5, i8, %"class.mojo::ScopedHandleBase.33", %class.scoped_refptr.34, %"class.mojo::Handle", i32, %"class.base::RepeatingCallback", i8*, %"class.base::WeakPtrFactory.35" }
%"class.mojo::ScopedHandleBase.33" = type { %"class.mojo::TrapHandle" }
%"class.mojo::TrapHandle" = type { %"class.mojo::Handle" }
%class.scoped_refptr.34 = type { %"class.mojo::SimpleWatcher::Context"* }
%"class.mojo::SimpleWatcher::Context" = type opaque
%"class.mojo::Handle" = type { i32 }
%"class.base::RepeatingCallback" = type { %"class.base::internal::CallbackBaseCopyable" }
%"class.base::internal::CallbackBaseCopyable" = type { %"class.base::internal::CallbackBase" }
%"class.base::WeakPtrFactory.35" = type { %"class.base::internal::WeakPtrFactoryBase" }
%"class.absl::optional" = type { %"class.absl::optional_internal::optional_data" }
%"class.absl::optional_internal::optional_data" = type { %"class.absl::optional_internal::optional_data_base" }
%"class.absl::optional_internal::optional_data_base" = type { %"class.absl::optional_internal::optional_data_dtor_base" }
%"class.absl::optional_internal::optional_data_dtor_base" = type { i8, %union.anon.39 }
%union.anon.39 = type { %"class.mojo::HandleSignalTracker" }
%"class.mojo::HandleSignalTracker" = type { %"class.base::RepeatingCallback.40", %"struct.mojo::HandleSignalsState", %"class.mojo::SimpleWatcher", %"class.mojo::SimpleWatcher" }
%"class.base::RepeatingCallback.40" = type { %"class.base::internal::CallbackBaseCopyable" }
%"struct.mojo::HandleSignalsState" = type { %struct.MojoHandleSignalsState }
%struct.MojoHandleSignalsState = type { i32, i32 }
%"struct.std::__1::atomic.41" = type { %"struct.std::__1::__atomic_base.42" }
%"struct.std::__1::__atomic_base.42" = type { %"struct.std::__1::__cxx_atomic_impl.43" }
%"struct.std::__1::__cxx_atomic_impl.43" = type { %"struct.std::__1::__cxx_atomic_base_impl.44" }
%"struct.std::__1::__cxx_atomic_base_impl.44" = type { i8 }
%"class.std::__1::unique_ptr.50" = type { %"class.std::__1::__compressed_pair.51" }
%"class.std::__1::__compressed_pair.51" = type { %"struct.std::__1::__compressed_pair_elem.52" }
%"struct.std::__1::__compressed_pair_elem.52" = type { %"class.mojo::SyncHandleWatcher"* }
%"class.mojo::SyncHandleWatcher" = type { %"class.mojo::Handle", i32, %"class.base::RepeatingCallback.53", i8, i64, %class.scoped_refptr.54, %class.scoped_refptr.78 }
%"class.base::RepeatingCallback.53" = type { %"class.base::internal::CallbackBaseCopyable" }
%class.scoped_refptr.54 = type { %"class.mojo::SyncHandleRegistry"* }
%"class.mojo::SyncHandleRegistry" = type <{ %"class.base::RefCounted", [4 x i8], %"class.mojo::WaitSet", %"class.std::__1::map.56", %"class.std::__1::map.67", i8, [7 x i8] }>
%"class.base::RefCounted" = type { %"class.base::subtle::RefCountedBase" }
%"class.base::subtle::RefCountedBase" = type { i32 }
%"class.mojo::WaitSet" = type { %class.scoped_refptr.55 }
%class.scoped_refptr.55 = type { %"class.mojo::WaitSet::State"* }
%"class.mojo::WaitSet::State" = type opaque
%"class.std::__1::map.56" = type { %"class.std::__1::__tree.57" }
%"class.std::__1::__tree.57" = type { %"class.std::__1::__tree_end_node"*, %"class.std::__1::__compressed_pair.58", %"class.std::__1::__compressed_pair.62" }
%"class.std::__1::__tree_end_node" = type { %"class.std::__1::__tree_node_base"* }
%"class.std::__1::__tree_node_base" = type <{ %"class.std::__1::__tree_end_node", %"class.std::__1::__tree_node_base"*, %"class.std::__1::__tree_end_node"*, i8, [7 x i8] }>
%"class.std::__1::__compressed_pair.58" = type { %"struct.std::__1::__compressed_pair_elem" }
%"struct.std::__1::__compressed_pair_elem" = type { %"class.std::__1::__tree_end_node" }
%"class.std::__1::__compressed_pair.62" = type { %"struct.std::__1::__compressed_pair_elem.2" }
%"struct.std::__1::__compressed_pair_elem.2" = type { i64 }
%"class.std::__1::map.67" = type { %"class.std::__1::__tree.68" }
%"class.std::__1::__tree.68" = type { %"class.std::__1::__tree_end_node"*, %"class.std::__1::__compressed_pair.69", %"class.std::__1::__compressed_pair.73" }
%"class.std::__1::__compressed_pair.69" = type { %"struct.std::__1::__compressed_pair_elem" }
%"class.std::__1::__compressed_pair.73" = type { %"struct.std::__1::__compressed_pair_elem.2" }
%class.scoped_refptr.78 = type { %"class.base::RefCountedData"* }
%"class.base::RefCountedData" = type opaque
%class.scoped_refptr.82 = type { %"class.mojo::internal::MessageQuotaChecker"* }
%"class.mojo::internal::MessageQuotaChecker" = type <{ %"class.base::RefCountedThreadSafe.83", [4 x i8], %"struct.mojo::internal::MessageQuotaChecker::Configuration"*, %"class.base::TimeTicks", %"struct.std::__1::atomic.85", %"struct.std::__1::atomic.85", %"struct.std::__1::atomic.85", %"class.base::Lock", %"class.mojo::internal::MessageQuotaChecker::DecayingRateAverage", i64, i64, %"class.mojo::MessagePipeHandle", [4 x i8] }>
%"class.base::RefCountedThreadSafe.83" = type { %"class.base::subtle::RefCountedThreadSafeBase" }
%"struct.mojo::internal::MessageQuotaChecker::Configuration" = type { i8, i64, i64, i64, {}* }
%"class.base::TimeTicks" = type { %"class.base::time_internal::TimeBase" }
%"class.base::time_internal::TimeBase" = type { i64 }
%"struct.std::__1::atomic.85" = type { %"struct.std::__1::__atomic_base.86" }
%"struct.std::__1::__atomic_base.86" = type { %"struct.std::__1::__atomic_base.87" }
%"struct.std::__1::__atomic_base.87" = type { %"struct.std::__1::__cxx_atomic_impl.88" }
%"struct.std::__1::__cxx_atomic_impl.88" = type { %"struct.std::__1::__cxx_atomic_base_impl.89" }
%"struct.std::__1::__cxx_atomic_base_impl.89" = type { i64 }
%"class.mojo::internal::MessageQuotaChecker::DecayingRateAverage" = type { i64, i64, double }
%"class.mojo::MessagePipeHandle" = type { %"class.mojo::Handle" }
%"class.base::Lock" = type { %"class.base::internal::LockImpl" }
%"class.base::internal::LockImpl" = type { %union.pthread_mutex_t }
%union.pthread_mutex_t = type { %struct.__pthread_mutex_s }
%struct.__pthread_mutex_s = type { i32, i32, i32, i32, i32, i16, i16, %struct.__pthread_internal_list }
%struct.__pthread_internal_list = type { %struct.__pthread_internal_list*, %struct.__pthread_internal_list* }
%"class.mojo::Connector::RunLoopNestingObserver" = type opaque
%"class.mojo::ConnectionGroup::Ref" = type { i32, %class.scoped_refptr.90 }
%class.scoped_refptr.90 = type { %"class.mojo::ConnectionGroup"* }
%"class.mojo::ConnectionGroup" = type <{ i32 (...)**, %"class.base::RefCountedThreadSafe.253", [4 x i8], %"class.base::RepeatingCallback.133", %class.scoped_refptr.5, %"class.mojo::ConnectionGroup::Ref", %"struct.std::__1::atomic.254", [4 x i8] }>
%"class.base::RefCountedThreadSafe.253" = type { %"class.base::subtle::RefCountedThreadSafeBase" }
%"class.base::RepeatingCallback.133" = type { %"class.base::internal::CallbackBaseCopyable" }
%"struct.std::__1::atomic.254" = type { %"struct.std::__1::__atomic_base.255" }
%"struct.std::__1::__atomic_base.255" = type { %"struct.std::__1::__atomic_base.256" }
%"struct.std::__1::__atomic_base.256" = type { %"struct.std::__1::__cxx_atomic_impl.257" }
%"struct.std::__1::__cxx_atomic_impl.257" = type { %"struct.std::__1::__cxx_atomic_base_impl.258" }
%"struct.std::__1::__cxx_atomic_base_impl.258" = type { i32 }
%"class.base::WeakPtr" = type { %"class.base::internal::WeakPtrBase" }
%"class.base::internal::WeakPtrBase" = type { %"class.base::internal::WeakReference", i64 }
%"class.base::internal::WeakReference" = type { %class.scoped_refptr.91 }
%class.scoped_refptr.91 = type { %"class.base::internal::WeakReference::Flag"* }
%"class.base::WeakPtrFactory.92" = type { %"class.base::internal::WeakPtrFactoryBase" }
%"class.absl::optional.93" = type { %"class.absl::optional_internal::optional_data.94" }
%"class.absl::optional_internal::optional_data.94" = type { %"class.absl::optional_internal::optional_data_base.95" }
%"class.absl::optional_internal::optional_data_base.95" = type { %"class.absl::optional_internal::optional_data_dtor_base.96" }
%"class.absl::optional_internal::optional_data_dtor_base.96" = type { i8, %union.anon.97 }
%union.anon.97 = type { %"class.mojo::SimpleWatcher" }
%"class.absl::optional.98" = type { %"class.absl::optional_internal::optional_data.99" }
%"class.absl::optional_internal::optional_data.99" = type { %"class.absl::optional_internal::optional_data_base.100" }
%"class.absl::optional_internal::optional_data_base.100" = type { %"class.absl::optional_internal::optional_data_dtor_base.101" }
%"class.absl::optional_internal::optional_data_dtor_base.101" = type { i8, [7 x i8], %union.anon.102 }
%union.anon.102 = type { %"struct.mojo::internal::MultiplexRouter::ExclusiveSyncWaitInfo" }
%"struct.mojo::internal::MultiplexRouter::ExclusiveSyncWaitInfo" = type <{ i32, [4 x i8], i64, i8, [7 x i8] }>
%"class.absl::optional.45" = type { %"class.absl::optional_internal::optional_data.46" }
%"class.absl::optional_internal::optional_data.46" = type { %"class.absl::optional_internal::optional_data_base.47" }
%"class.absl::optional_internal::optional_data_base.47" = type { %"class.absl::optional_internal::optional_data_dtor_base.48" }
%"class.absl::optional_internal::optional_data_dtor_base.48" = type { i8, %union.anon.49 }
%union.anon.49 = type { %"class.base::Lock" }
%"class.mojo::PipeControlMessageHandler" = type { %"class.mojo::MessageReceiver", %"class.std::__1::basic_string", %"class.mojo::PipeControlMessageHandlerDelegate"* }
%"class.mojo::PipeControlMessageProxy" = type { %"class.mojo::MessageReceiver"* }
%"class.base::small_map" = type { i64, %"class.base::internal::small_map_default_init", %union.anon.107 }
%"class.base::internal::small_map_default_init" = type { i8 }
%union.anon.107 = type { %"class.std::__1::map.109" }
%"class.std::__1::map.109" = type { %"class.std::__1::__tree.110" }
%"class.std::__1::__tree.110" = type { %"class.std::__1::__tree_end_node"*, %"class.std::__1::__compressed_pair.111", %"class.std::__1::__compressed_pair.115" }
%"class.std::__1::__compressed_pair.111" = type { %"struct.std::__1::__compressed_pair_elem" }
%"class.std::__1::__compressed_pair.115" = type { %"struct.std::__1::__compressed_pair_elem.2" }
%"class.base::circular_deque" = type { %"class.base::internal::VectorBuffer", i64, i64 }
%"class.base::internal::VectorBuffer" = type { %"class.std::__1::unique_ptr.120"*, i64 }
%"class.std::__1::unique_ptr.120" = type opaque
%"class.std::__1::map.121" = type { %"class.std::__1::__tree.122" }
%"class.std::__1::__tree.122" = type { %"class.std::__1::__tree_end_node"*, %"class.std::__1::__compressed_pair.123", %"class.std::__1::__compressed_pair.127" }
%"class.std::__1::__compressed_pair.123" = type { %"struct.std::__1::__compressed_pair_elem" }
%"class.std::__1::__compressed_pair.127" = type { %"struct.std::__1::__compressed_pair_elem.2" }
%"class.std::__1::unique_ptr.130" = type { %"class.std::__1::__compressed_pair.131" }
%"class.std::__1::__compressed_pair.131" = type { %"struct.std::__1::__compressed_pair_elem.132" }
%"struct.std::__1::__compressed_pair_elem.132" = type { %"class.mojo::InterfaceEndpointClient"* }
%"class.mojo::InterfaceEndpointClient" = type { %"class.mojo::MessageReceiverWithResponder", i8, %"class.base::RepeatingCallback.133", %"class.base::OnceCallback.134", %"class.absl::optional.135", %"class.absl::optional.140", %"class.mojo::ConnectionGroup::Ref", i32, %"class.mojo::ScopedInterfaceEndpointHandle", %"class.std::__1::unique_ptr.147", %"class.mojo::InterfaceEndpointController"*, %"class.mojo::MessageReceiverWithResponderStatus"*, %"class.mojo::InterfaceEndpointClient::HandleIncomingMessageThunk", %"class.mojo::MessageDispatcher", %"class.std::__1::map.155", %"class.std::__1::map.166", i64, %"class.base::OnceCallback", %"class.base::OnceCallback.175", i8, %class.scoped_refptr.5, %"class.mojo::internal::ControlMessageProxy", %"class.mojo::internal::ControlMessageHandler", i8*, %"class.base::WeakPtrFactory.176" }
%"class.mojo::MessageReceiverWithResponder" = type { %"class.mojo::MessageReceiver" }
%"class.base::OnceCallback.134" = type { %"class.base::internal::CallbackBase" }
%"class.absl::optional.135" = type { %"class.absl::optional_internal::optional_data.136" }
%"class.absl::optional_internal::optional_data.136" = type { %"class.absl::optional_internal::optional_data_base.137" }
%"class.absl::optional_internal::optional_data_base.137" = type { %"class.absl::optional_internal::optional_data_dtor_base.138" }
%"class.absl::optional_internal::optional_data_dtor_base.138" = type { i8, %union.anon.139 }
%union.anon.139 = type { %"class.base::TimeDelta" }
%"class.base::TimeDelta" = type { i64 }
%"class.absl::optional.140" = type { %"class.absl::optional_internal::optional_data.141" }
%"class.absl::optional_internal::optional_data.141" = type { %"class.absl::optional_internal::optional_data_base.142" }
%"class.absl::optional_internal::optional_data_base.142" = type { %"class.absl::optional_internal::optional_data_dtor_base.143" }
%"class.absl::optional_internal::optional_data_dtor_base.143" = type { i8, %union.anon.144 }
%union.anon.144 = type { %"class.base::OneShotTimer" }
%"class.base::OneShotTimer" = type { %"class.base::internal::TimerBase", %"class.base::OnceCallback" }
%"class.base::internal::TimerBase" = type { i32 (...)**, %class.scoped_refptr.5, %"class.base::SequenceCheckerDoNothing", %"class.base::internal::TaskDestructionDetector"*, %"class.base::Location", %"class.base::TimeDelta", %"class.base::TimeTicks", %"class.base::TimeTicks", %"class.base::TickClock"*, i8, %"class.base::WeakPtrFactory.145" }
%"class.base::SequenceCheckerDoNothing" = type { i8 }
%"class.base::internal::TaskDestructionDetector" = type opaque
%"class.base::Location" = type { i8*, i8*, i32, i8* }
%"class.base::TickClock" = type { i32 (...)** }
%"class.base::WeakPtrFactory.145" = type { %"class.base::internal::WeakPtrFactoryBase" }
%"class.mojo::ScopedInterfaceEndpointHandle" = type { %class.scoped_refptr.146 }
%class.scoped_refptr.146 = type { %"class.mojo::ScopedInterfaceEndpointHandle::State"* }
%"class.mojo::ScopedInterfaceEndpointHandle::State" = type opaque
%"class.std::__1::unique_ptr.147" = type { %"class.std::__1::__compressed_pair.148" }
%"class.std::__1::__compressed_pair.148" = type { %"struct.std::__1::__compressed_pair_elem.149" }
%"struct.std::__1::__compressed_pair_elem.149" = type { %"class.mojo::AssociatedGroup"* }
%"class.mojo::AssociatedGroup" = type { %"class.base::RepeatingCallback.150", %class.scoped_refptr.151 }
%"class.base::RepeatingCallback.150" = type { %"class.base::internal::CallbackBaseCopyable" }
%class.scoped_refptr.151 = type { %"class.mojo::AssociatedGroupController"* }
%"class.mojo::AssociatedGroupController" = type <{ i32 (...)**, %"class.base::RefCountedThreadSafe", [4 x i8] }>
%"class.mojo::InterfaceEndpointController" = type opaque
%"class.mojo::MessageReceiverWithResponderStatus" = type { %"class.mojo::MessageReceiver" }
%"class.mojo::InterfaceEndpointClient::HandleIncomingMessageThunk" = type { %"class.mojo::MessageReceiver", %"class.mojo::InterfaceEndpointClient"* }
%"class.std::__1::map.155" = type { %"class.std::__1::__tree.156" }
%"class.std::__1::__tree.156" = type { %"class.std::__1::__tree_end_node"*, %"class.std::__1::__compressed_pair.157", %"class.std::__1::__compressed_pair.161" }
%"class.std::__1::__compressed_pair.157" = type { %"struct.std::__1::__compressed_pair_elem" }
%"class.std::__1::__compressed_pair.161" = type { %"struct.std::__1::__compressed_pair_elem.2" }
%"class.std::__1::map.166" = type { %"class.std::__1::__tree.167" }
%"class.std::__1::__tree.167" = type { %"class.std::__1::__tree_end_node"*, %"class.std::__1::__compressed_pair.168", %"class.std::__1::__compressed_pair.172" }
%"class.std::__1::__compressed_pair.168" = type { %"struct.std::__1::__compressed_pair_elem" }
%"class.std::__1::__compressed_pair.172" = type { %"struct.std::__1::__compressed_pair_elem.2" }
%"class.base::OnceCallback.175" = type { %"class.base::internal::CallbackBase" }
%"class.mojo::internal::ControlMessageProxy" = type { %"class.mojo::InterfaceEndpointClient"*, i8, %"class.base::OnceCallback" }
%"class.mojo::internal::ControlMessageHandler" = type <{ %"class.mojo::MessageReceiverWithResponderStatus", %"class.mojo::InterfaceEndpointClient"*, i32, [4 x i8] }>
%"class.base::WeakPtrFactory.176" = type { %"class.base::internal::WeakPtrFactoryBase" }
%"class.mojo::ScopedHandleBase" = type { %"class.mojo::MessagePipeHandle" }
%class.scoped_refptr.5 = type { %"class.base::SequencedTaskRunner"* }
%"class.base::SequencedTaskRunner" = type { %"class.base::TaskRunner.base", [4 x i8] }
%"class.base::TaskRunner.base" = type <{ i32 (...)**, %"class.base::RefCountedThreadSafe.6" }>
%"class.base::RefCountedThreadSafe.6" = type { %"class.base::subtle::RefCountedThreadSafeBase" }
%"class.std::__1::unique_ptr.180" = type { %"class.std::__1::__compressed_pair.181" }
%"class.std::__1::__compressed_pair.181" = type { %"struct.std::__1::__compressed_pair_elem.182" }
%"struct.std::__1::__compressed_pair_elem.182" = type { %"class.blink::mojom::PresentationControllerProxy"* }
%"class.blink::mojom::PresentationControllerProxy" = type { %"class.blink::mojom::PresentationController", %"class.mojo::MessageReceiverWithResponder"* }
%"class.blink::mojom::PresentationController" = type { i32 (...)** }
%"class.mojo::Remote.186" = type { %"class.mojo::internal::InterfacePtrState.187" }
%"class.mojo::internal::InterfacePtrState.187" = type { %"class.mojo::internal::InterfacePtrStateBase.base", %"class.std::__1::unique_ptr.188" }
%"class.std::__1::unique_ptr.188" = type { %"class.std::__1::__compressed_pair.189" }
%"class.std::__1::__compressed_pair.189" = type { %"struct.std::__1::__compressed_pair_elem.190" }
%"struct.std::__1::__compressed_pair_elem.190" = type { %"class.blink::mojom::PresentationReceiverProxy"* }
%"class.blink::mojom::PresentationReceiverProxy" = type { %"class.blink::mojom::PresentationReceiver", %"class.mojo::MessageReceiverWithResponder"* }
%"class.blink::mojom::PresentationReceiver" = type { i32 (...)** }
%"class.std::__1::vector" = type { %"class.std::__1::__vector_base" }
%"class.std::__1::__vector_base" = type { %class.GURL*, %class.GURL*, %"class.std::__1::__compressed_pair.200" }
%class.GURL = type { %"class.std::__1::basic_string", i8, %"struct.url::Parsed", %"class.std::__1::unique_ptr.194" }
%"struct.url::Parsed" = type { %"struct.url::Component", %"struct.url::Component", %"struct.url::Component", %"struct.url::Component", %"struct.url::Component", %"struct.url::Component", %"struct.url::Component", %"struct.url::Component", i8, %"struct.url::Parsed"* }
%"struct.url::Component" = type { i32, i32 }
%"class.std::__1::unique_ptr.194" = type { %"class.std::__1::__compressed_pair.195" }
%"class.std::__1::__compressed_pair.195" = type { %"struct.std::__1::__compressed_pair_elem.196" }
%"struct.std::__1::__compressed_pair_elem.196" = type { %class.GURL* }
%"class.std::__1::__compressed_pair.200" = type { %"struct.std::__1::__compressed_pair_elem.196" }
%"class.std::__1::map.204" = type { %"class.std::__1::__tree.205" }
%"class.std::__1::__tree.205" = type { %"class.std::__1::__tree_end_node"*, %"class.std::__1::__compressed_pair.206", %"class.std::__1::__compressed_pair.210" }
%"class.std::__1::__compressed_pair.206" = type { %"struct.std::__1::__compressed_pair_elem" }
%"class.std::__1::__compressed_pair.210" = type { %"struct.std::__1::__compressed_pair_elem.2" }
%"class.std::__1::unique_ptr.215" = type { %"class.std::__1::__compressed_pair.216" }
%"class.std::__1::__compressed_pair.216" = type { %"struct.std::__1::__compressed_pair_elem.217" }
%"struct.std::__1::__compressed_pair_elem.217" = type { %"class.content::PresentationServiceImpl::NewPresentationCallbackWrapper"* }
%"class.content::PresentationServiceImpl::NewPresentationCallbackWrapper" = type { %"class.base::OnceCallback.218" }
%"class.base::OnceCallback.218" = type { %"class.base::internal::CallbackBase" }
%"class.std::__1::unordered_map" = type { %"class.std::__1::__hash_table" }
%"class.std::__1::__hash_table" = type <{ %"class.std::__1::unique_ptr.222", %"class.std::__1::__compressed_pair.230", %"class.std::__1::__compressed_pair.235", %"class.std::__1::__compressed_pair.237", [4 x i8] }>
%"class.std::__1::unique_ptr.222" = type { %"class.std::__1::__compressed_pair.223" }
%"class.std::__1::__compressed_pair.223" = type { %"struct.std::__1::__compressed_pair_elem.224", %"struct.std::__1::__compressed_pair_elem.225" }
%"struct.std::__1::__compressed_pair_elem.224" = type { %"struct.std::__1::__hash_node_base"** }
%"struct.std::__1::__hash_node_base" = type { %"struct.std::__1::__hash_node_base"* }
%"struct.std::__1::__compressed_pair_elem.225" = type { %"class.std::__1::__bucket_list_deallocator" }
%"class.std::__1::__bucket_list_deallocator" = type { %"class.std::__1::__compressed_pair.226" }
%"class.std::__1::__compressed_pair.226" = type { %"struct.std::__1::__compressed_pair_elem.2" }
%"class.std::__1::__compressed_pair.230" = type { %"struct.std::__1::__compressed_pair_elem.231" }
%"struct.std::__1::__compressed_pair_elem.231" = type { %"struct.std::__1::__hash_node_base" }
%"class.std::__1::__compressed_pair.235" = type { %"struct.std::__1::__compressed_pair_elem.2" }
%"class.std::__1::__compressed_pair.237" = type { %"struct.std::__1::__compressed_pair_elem.238" }
%"struct.std::__1::__compressed_pair_elem.238" = type { float }
%"class.mojo::ReceiverSetBase" = type { %"class.mojo::ReceiverSetState" }
%"class.mojo::ReceiverSetState" = type { %"class.base::RepeatingCallback.133", %"class.base::RepeatingCallback.241", i64, %"class.std::__1::map.242", i8*, i64, %"class.base::WeakPtrFactory.251" }
%"class.base::RepeatingCallback.241" = type { %"class.base::internal::CallbackBaseCopyable" }
%"class.std::__1::map.242" = type { %"class.std::__1::__tree.243" }
%"class.std::__1::__tree.243" = type { %"class.std::__1::__tree_end_node"*, %"class.std::__1::__compressed_pair.244", %"class.std::__1::__compressed_pair.248" }
%"class.std::__1::__compressed_pair.244" = type { %"struct.std::__1::__compressed_pair_elem" }
%"class.std::__1::__compressed_pair.248" = type { %"struct.std::__1::__compressed_pair_elem.2" }
%"class.base::WeakPtrFactory.251" = type { %"class.base::internal::WeakPtrFactoryBase" }
%"class.base::WeakPtrFactory.252" = type { %"class.base::internal::WeakPtrFactoryBase" }
%"class.content::RenderFrameHost" = type { %"class.IPC::Listener", %"class.IPC::Sender" }
%"class.IPC::Sender" = type { i32 (...)** }
%"class.content::WebContents" = type <{ %"class.content::PageNavigator", %"class.base::SupportsUserData.base", [7 x i8] }>
%"class.content::PageNavigator" = type { i32 (...)** }
%"class.base::SupportsUserData.base" = type <{ i32 (...)**, %"class.std::__1::map", %"class.base::SequenceCheckerDoNothing" }>
%"class.std::__1::map" = type { %"class.std::__1::__tree" }
%"class.std::__1::__tree" = type { %"class.std::__1::__tree_end_node"*, %"class.std::__1::__compressed_pair", %"class.std::__1::__compressed_pair.1" }
%"class.std::__1::__compressed_pair" = type { %"struct.std::__1::__compressed_pair_elem" }
%"class.std::__1::__compressed_pair.1" = type { %"struct.std::__1::__compressed_pair_elem.2" }
%"class.content::ControllerPresentationServiceDelegate" = type { %"class.content::PresentationServiceDelegate" }
%"class.content::PresentationServiceDelegate" = type { i32 (...)** }
%"class.content::ReceiverPresentationServiceDelegate" = type { %"class.content::PresentationServiceDelegate" }
%"class.content::PresentationServiceImpl::ScreenAvailabilityListenerImpl" = type { %"class.content::PresentationScreenAvailabilityListener", %class.GURL, %"class.content::PresentationServiceImpl"* }
%"class.content::PresentationScreenAvailabilityListener" = type { i32 (...)** }
%"class.logging::CheckError" = type { %"class.logging::LogMessage"* }
%"class.logging::LogMessage" = type { i32 (...)**, i32, %"class.std::__1::basic_ostringstream", i64, i8*, i32, %"class.base::ScopedClearLastErrorBase" }
%"class.std::__1::basic_ostringstream" = type { %"class.std::__1::basic_ostream.base", %"class.std::__1::basic_stringbuf", %"class.std::__1::basic_ios.base" }
%"class.std::__1::basic_ostream.base" = type { i32 (...)** }
%"class.std::__1::basic_stringbuf" = type <{ %"class.std::__1::basic_streambuf", %"class.std::__1::basic_string", i8*, i32, [4 x i8] }>
%"class.std::__1::basic_streambuf" = type { i32 (...)**, %"class.std::__1::locale", i8*, i8*, i8*, i8*, i8*, i8* }
%"class.std::__1::locale" = type { %"class.std::__1::locale::__imp"* }
%"class.std::__1::locale::__imp" = type opaque
%"class.std::__1::basic_ios.base" = type <{ %"class.std::__1::ios_base", %"class.std::__1::basic_ostream"*, i32 }>
%"class.std::__1::ios_base" = type { i32 (...)**, i32, i64, i64, i32, i32, i8*, i8*, void (i32, %"class.std::__1::ios_base"*, i32)**, i32*, i64, i64, i64*, i64, i64, i8**, i64, i64 }
%"class.std::__1::basic_ostream" = type { i32 (...)**, %"class.std::__1::basic_ios.base" }
%"class.base::ScopedClearLastErrorBase" = type { i32 }
%"class.mojo::internal::InterfacePtrStateBase" = type <{ %class.scoped_refptr, %"class.std::__1::unique_ptr.130", %"class.mojo::ScopedHandleBase", [4 x i8], %class.scoped_refptr.5, i32, [4 x i8] }>
%"class.content::RenderProcessHost" = type <{ %"class.IPC::Sender", %"class.IPC::Listener", %"class.base::SupportsUserData.base", [7 x i8] }>
%"class.std::__1::__tree_node" = type { %"class.std::__1::__tree_node_base.base", %"struct.std::__1::__value_type" }
%"class.std::__1::__tree_node_base.base" = type <{ %"class.std::__1::__tree_end_node", %"class.std::__1::__tree_node_base"*, %"class.std::__1::__tree_end_node"*, i8 }>
%"struct.std::__1::__value_type" = type { %"struct.std::__1::pair.299" }
%"struct.std::__1::pair.299" = type { %class.GURL, %"class.std::__1::unique_ptr.293" }
%"class.std::__1::unique_ptr.293" = type { %"class.std::__1::__compressed_pair.294" }
%"class.std::__1::__compressed_pair.294" = type { %"struct.std::__1::__compressed_pair_elem.295" }
%"struct.std::__1::__compressed_pair_elem.295" = type { %"class.content::PresentationServiceImpl::ScreenAvailabilityListenerImpl"* }
%"class.std::__1::__tree_node.445" = type { %"class.std::__1::__tree_node_base.base", %"struct.std::__1::__value_type.446" }
%"struct.std::__1::__value_type.446" = type { %"struct.std::__1::pair.447" }
%"struct.std::__1::pair.447" = type { i64, %"class.std::__1::unique_ptr.448" }
%"class.std::__1::unique_ptr.448" = type { %"class.std::__1::__compressed_pair.449" }
%"class.std::__1::__compressed_pair.449" = type { %"struct.std::__1::__compressed_pair_elem.450" }
%"struct.std::__1::__compressed_pair_elem.450" = type { %"class.mojo::ReceiverSetState::Entry"* }
%"class.mojo::ReceiverSetState::Entry" = type { %"class.mojo::ReceiverSetState"*, i64, %"class.std::__1::unique_ptr.356" }
%"class.std::__1::unique_ptr.356" = type { %"class.std::__1::__compressed_pair.357" }
%"class.std::__1::__compressed_pair.357" = type { %"struct.std::__1::__compressed_pair_elem.358" }
%"struct.std::__1::__compressed_pair_elem.358" = type { %"class.mojo::ReceiverSetState::ReceiverState"* }
%"class.mojo::ReceiverSetState::ReceiverState" = type { i32 (...)** }
%"class.content::ContentClient" = type { i32 (...)**, %"class.content::ContentBrowserClient"*, %"class.content::ContentGpuClient"*, %"class.content::ContentRendererClient"*, %"class.content::ContentUtilityClient"* }
%"class.content::ContentBrowserClient" = type { i32 (...)** }
%"class.content::ContentGpuClient" = type opaque
%"class.content::ContentRendererClient" = type opaque
%"class.content::ContentUtilityClient" = type opaque
%"class.mojo::PendingReceiver" = type { %"struct.mojo::internal::PendingReceiverState" }
%"struct.mojo::internal::PendingReceiverState" = type { %"class.mojo::ScopedHandleBase", %"class.mojo::ConnectionGroup::Ref" }
%"class.mojo::Receiver" = type { %"class.mojo::internal::BindingState" }
%"class.mojo::internal::BindingState" = type { %"class.mojo::internal::BindingStateBase", %"class.blink::mojom::PresentationServiceStub" }
%"class.mojo::internal::BindingStateBase" = type { %class.scoped_refptr, %"class.std::__1::unique_ptr.130", %"class.base::WeakPtrFactory.365" }
%"class.base::WeakPtrFactory.365" = type { %"class.base::internal::WeakPtrFactoryBase" }
%"class.blink::mojom::PresentationServiceStub" = type { %"class.mojo::MessageReceiverWithResponderStatus", %"class.blink::mojom::PresentationService"* }
%"class.mojo::PendingRemote" = type { %"struct.mojo::internal::PendingRemoteState" }
%"struct.mojo::internal::PendingRemoteState" = type { %"class.mojo::ScopedHandleBase", i32 }
%"struct.std::__1::basic_string<char, std::__1::char_traits<char>, std::__1::allocator<char> >::__short" = type { [23 x i8], %struct.anon }
%struct.anon = type { i8 }
%"class.mojo::PendingRemote.265" = type { %"struct.mojo::internal::PendingRemoteState" }
%"class.base::RepeatingCallback.283" = type { %"class.base::internal::CallbackBaseCopyable" }
%"class.base::WeakPtr.284" = type { %"class.base::internal::WeakPtrBase" }
%"class.base::CommandLine" = type { %"class.std::__1::vector.266", %"class.std::__1::map.273", i64 }
%"class.std::__1::vector.266" = type { %"class.std::__1::__vector_base.267" }
%"class.std::__1::__vector_base.267" = type { %"class.std::__1::basic_string"*, %"class.std::__1::basic_string"*, %"class.std::__1::__compressed_pair.268" }
%"class.std::__1::__compressed_pair.268" = type { %"struct.std::__1::__compressed_pair_elem.269" }
%"struct.std::__1::__compressed_pair_elem.269" = type { %"class.std::__1::basic_string"* }
%"class.std::__1::map.273" = type { %"class.std::__1::__tree.274" }
%"class.std::__1::__tree.274" = type { %"class.std::__1::__tree_end_node"*, %"class.std::__1::__compressed_pair.275", %"class.std::__1::__compressed_pair.279" }
%"class.std::__1::__compressed_pair.275" = type { %"struct.std::__1::__compressed_pair_elem" }
%"class.std::__1::__compressed_pair.279" = type { %"struct.std::__1::__compressed_pair_elem.2" }
%"class.mojo::StructPtr" = type { %"class.std::__1::unique_ptr.285" }
%"class.std::__1::unique_ptr.285" = type { %"class.std::__1::__compressed_pair.286" }
%"class.std::__1::__compressed_pair.286" = type { %"struct.std::__1::__compressed_pair_elem.287" }
%"struct.std::__1::__compressed_pair_elem.287" = type { %"class.blink::mojom::PresentationInfo"* }
%"class.blink::mojom::PresentationInfo" = type { %class.GURL, %"class.std::__1::basic_string" }
%"class.mojo::PendingRemote.291" = type { %"struct.mojo::internal::PendingRemoteState" }
%"class.mojo::PendingReceiver.292" = type { %"struct.mojo::internal::PendingReceiverState" }
%"class.std::__1::tuple.412" = type { %"struct.std::__1::__tuple_impl.413" }
%"struct.std::__1::__tuple_impl.413" = type { %"class.std::__1::__tuple_leaf.414" }
%"class.std::__1::__tuple_leaf.414" = type { %class.GURL* }
%"class.std::__1::tuple.415" = type { i8 }
%"class.mojo::StructPtr.300" = type { %"class.std::__1::unique_ptr.301" }
%"class.std::__1::unique_ptr.301" = type { %"class.std::__1::__compressed_pair.302" }
%"class.std::__1::__compressed_pair.302" = type { %"struct.std::__1::__compressed_pair_elem.303" }
%"struct.std::__1::__compressed_pair_elem.303" = type { %"class.blink::mojom::PresentationConnectionResult"* }
%"class.blink::mojom::PresentationConnectionResult" = type { %"class.mojo::StructPtr", %"class.mojo::PendingRemote.291", %"class.mojo::PendingReceiver.292" }
%"class.mojo::InlinedStructPtr" = type <{ %"class.blink::mojom::PresentationError", i32, [4 x i8] }>
%"class.blink::mojom::PresentationError" = type { i32, %"class.std::__1::basic_string" }
%"struct.content::PresentationRequest" = type { %"struct.content::GlobalFrameRoutingId", %"class.std::__1::vector", %"class.url::Origin" }
%"struct.content::GlobalFrameRoutingId" = type { i32, i32 }
%"class.url::Origin" = type { %"class.url::SchemeHostPort", %"class.absl::optional.307" }
%"class.url::SchemeHostPort" = type <{ %"class.std::__1::basic_string", %"class.std::__1::basic_string", i16, [6 x i8] }>
%"class.absl::optional.307" = type { %"class.absl::optional_internal::optional_data.308" }
%"class.absl::optional_internal::optional_data.308" = type { %"class.absl::optional_internal::optional_data_base.309" }
%"class.absl::optional_internal::optional_data_base.309" = type { %"class.absl::optional_internal::optional_data_dtor_base.310" }
%"class.absl::optional_internal::optional_data_dtor_base.310" = type { i8, %union.anon.311 }
%union.anon.311 = type { %"class.url::Origin::Nonce" }
%"class.url::Origin::Nonce" = type { %"class.base::UnguessableToken" }
%"class.base::UnguessableToken" = type { %"class.base::Token" }
%"class.base::Token" = type { i64, i64 }
%"class.base::OnceCallback.312" = type { %"class.base::internal::CallbackBase" }
%"class.base::OnceCallback.313" = type { %"class.base::internal::CallbackBase" }
%"class.std::__1::__basic_string_common" = type { i8 }
%"class.std::__1::tuple.431" = type { %"struct.std::__1::__tuple_impl.432" }
%"struct.std::__1::__tuple_impl.432" = type { %"class.std::__1::__tuple_leaf.433" }
%"class.std::__1::__tuple_leaf.433" = type { i32* }
%"class.base::RepeatingCallback.314" = type { %"class.base::internal::CallbackBaseCopyable" }
%"struct.content::PresentationConnectionStateChangeInfo" = type { i32, i32, %"class.std::__1::basic_string" }
%"class.std::__1::unique_ptr.434" = type { %"class.std::__1::__compressed_pair.435" }
%"class.std::__1::__compressed_pair.435" = type { %"struct.std::__1::__compressed_pair_elem.436", %"struct.std::__1::__compressed_pair_elem.437" }
%"struct.std::__1::__compressed_pair_elem.436" = type { %"struct.std::__1::__hash_node"* }
%"struct.std::__1::__hash_node" = type { %"struct.std::__1::__hash_node_base", i64, %"struct.std::__1::__hash_value_type" }
%"struct.std::__1::__hash_value_type" = type { %"struct.std::__1::pair.315" }
%"struct.std::__1::pair.315" = type { i32, %"class.std::__1::unique_ptr.215" }
%"struct.std::__1::__compressed_pair_elem.437" = type { %"class.std::__1::__hash_node_destructor" }
%"class.std::__1::__hash_node_destructor" = type <{ %"class.std::__1::allocator.233"*, i8, [7 x i8] }>
%"class.std::__1::allocator.233" = type { i8 }
%"class.base::RepeatingCallback.316" = type { %"class.base::internal::CallbackBaseCopyable" }
%"class.content::NavigationHandle" = type { %"class.base::SupportsUserData.base", [7 x i8] }
%"class.IPC::Message" = type { %"class.base::Pickle", i8, %class.scoped_refptr.317 }
%"class.base::Pickle" = type { i32 (...)**, %"struct.base::Pickle::Header"*, i64, i64, i64 }
%"struct.base::Pickle::Header" = type { i32 }
%class.scoped_refptr.317 = type { %"class.IPC::MessageAttachmentSet"* }
%"class.IPC::MessageAttachmentSet" = type opaque
%"class.blink::mojom::CaptureHandleConfig" = type opaque
%"class.content::RenderViewHost" = type opaque
%"struct.content::GlobalRequestID" = type { i32, i32 }
%"class.blink::mojom::ResourceLoadInfo" = type opaque
%"struct.content::CookieAccessDetails" = type <{ i32, [4 x i8], %class.GURL, %class.GURL, %"class.std::__1::vector.318", i8, [7 x i8] }>
%"class.std::__1::vector.318" = type { %"class.std::__1::__vector_base.319" }
%"class.std::__1::__vector_base.319" = type { %"class.net::CanonicalCookie"*, %"class.net::CanonicalCookie"*, %"class.std::__1::__compressed_pair.321" }
%"class.net::CanonicalCookie" = type { %"class.std::__1::basic_string", %"class.std::__1::basic_string", %"class.std::__1::basic_string", %"class.std::__1::basic_string", %"class.base::Time", %"class.base::Time", %"class.base::Time", i8, i8, i32, i32, i8, i32, i32 }
%"class.base::Time" = type { %"class.base::time_internal::TimeBase.320" }
%"class.base::time_internal::TimeBase.320" = type { i64 }
%"class.std::__1::__compressed_pair.321" = type { %"struct.std::__1::__compressed_pair_elem.322" }
%"struct.std::__1::__compressed_pair_elem.322" = type { %"class.net::CanonicalCookie"* }
%"struct.content::LoadCommittedDetails" = type { %"class.content::NavigationEntry"*, i32, i32, %class.GURL, i8, i8, i8, i8, i32 }
%"class.content::NavigationEntry" = type opaque
%"struct.content::PrunedDetails" = type { i32, i32 }
%"struct.content::EntryChangedDetails" = type { %"class.content::NavigationEntry"*, i32 }
%"struct.content::Referrer" = type <{ %class.GURL, i32, [4 x i8] }>
%"class.blink::WebInputEvent" = type { i32 (...)**, float, %"class.gfx::Vector2dF", %"class.base::TimeTicks", i32, i32 }
%"class.gfx::Vector2dF" = type { float, float }
%"class.gfx::Size" = type { i32, i32 }
%"class.base::FilePath" = type { %"class.std::__1::basic_string" }
%"struct.blink::UserAgentOverride" = type { %"class.std::__1::basic_string", %"class.absl::optional.326" }
%"class.absl::optional.326" = type { %"class.absl::optional_internal::optional_data.327" }
%"class.absl::optional_internal::optional_data.327" = type { %"class.absl::optional_internal::optional_data_base.328" }
%"class.absl::optional_internal::optional_data_base.328" = type { %"class.absl::optional_internal::optional_data_dtor_base.329" }
%"class.absl::optional_internal::optional_data_dtor_base.329" = type { i8, [7 x i8], %union.anon.330 }
%union.anon.330 = type { %"struct.blink::UserAgentMetadata" }
%"struct.blink::UserAgentMetadata" = type <{ %"class.std::__1::vector.331", %"class.std::__1::basic_string", %"class.std::__1::basic_string", %"class.std::__1::basic_string", %"class.std::__1::basic_string", %"class.std::__1::basic_string", i8, [7 x i8] }>
%"class.std::__1::vector.331" = type { %"class.std::__1::__vector_base.332" }
%"class.std::__1::__vector_base.332" = type { %"struct.blink::UserAgentBrandVersion"*, %"struct.blink::UserAgentBrandVersion"*, %"class.std::__1::__compressed_pair.333" }
%"struct.blink::UserAgentBrandVersion" = type { %"class.std::__1::basic_string", %"class.std::__1::basic_string" }
%"class.std::__1::__compressed_pair.333" = type { %"struct.std::__1::__compressed_pair_elem.334" }
%"struct.std::__1::__compressed_pair_elem.334" = type { %"struct.blink::UserAgentBrandVersion"* }
%"class.std::__1::vector.338" = type opaque
%"struct.content::AXEventNotificationDetails" = type opaque
%"class.std::__1::vector.339" = type opaque
%"class.std::__1::basic_string.340" = type { %"class.std::__1::__compressed_pair.341" }
%"class.std::__1::__compressed_pair.341" = type { %"struct.std::__1::__compressed_pair_elem.342" }
%"struct.std::__1::__compressed_pair_elem.342" = type { %"struct.std::__1::basic_string<char16_t, std::__1::char_traits<char16_t>, std::__1::allocator<char16_t> >::__rep" }
%"struct.std::__1::basic_string<char16_t, std::__1::char_traits<char16_t>, std::__1::allocator<char16_t> >::__rep" = type { %union.anon.343 }
%union.anon.343 = type { %"struct.std::__1::basic_string<char16_t, std::__1::char_traits<char16_t>, std::__1::allocator<char16_t> >::__long" }
%"struct.std::__1::basic_string<char16_t, std::__1::char_traits<char16_t>, std::__1::allocator<char16_t> >::__long" = type { i16*, i64, i64 }
%"class.absl::optional.349" = type opaque
%"struct.content::WebContentsObserver::MediaPlayerInfo" = type { i8, i8 }
%"struct.content::MediaPlayerId" = type opaque
%"class.content::RenderWidgetHost" = type opaque
%"struct.content::FocusedNodeDetails" = type opaque
%"class.absl::optional.350" = type { %"class.absl::optional_internal::optional_data.351" }
%"class.absl::optional_internal::optional_data.351" = type { %"class.absl::optional_internal::optional_data_base.352" }
%"class.absl::optional_internal::optional_data_base.352" = type { %"class.absl::optional_internal::optional_data_dtor_base.353" }
%"class.absl::optional_internal::optional_data_dtor_base.353" = type { i8, %union.anon.354 }
%union.anon.354 = type { %class.GURL }
%"struct.std::__1::pair.355" = type opaque
%"class.base::TaskRunner" = type <{ i32 (...)**, %"class.base::RefCountedThreadSafe.6", [4 x i8] }>
%"class.mojo::ReceiverSetBase<mojo::Receiver<blink::mojom::PresentationService, mojo::RawPtrImplRefTraits<blink::mojom::PresentationService> >, void>::ReceiverEntry" = type <{ %"class.mojo::ReceiverSetState::ReceiverState", %"class.mojo::Receiver", i8, [7 x i8] }>
%"class.mojo::Message" = type { %"class.mojo::ScopedHandleBase.369", %"class.mojo::internal::Buffer", %"class.std::__1::vector.370", %"class.std::__1::vector.378", %"class.mojo::ConnectionGroup::Ref"*, i8, i8, i8* }
%"class.mojo::ScopedHandleBase.369" = type { %"class.mojo::MessageHandle" }
%"class.mojo::MessageHandle" = type { i64 }
%"class.mojo::internal::Buffer" = type { %"class.mojo::MessageHandle", i64, i8*, i64, i64 }
%"class.std::__1::vector.370" = type { %"class.std::__1::__vector_base.371" }
%"class.std::__1::__vector_base.371" = type { %"class.mojo::ScopedHandleBase.372"*, %"class.mojo::ScopedHandleBase.372"*, %"class.std::__1::__compressed_pair.373" }
%"class.mojo::ScopedHandleBase.372" = type { %"class.mojo::Handle" }
%"class.std::__1::__compressed_pair.373" = type { %"struct.std::__1::__compressed_pair_elem.374" }
%"struct.std::__1::__compressed_pair_elem.374" = type { %"class.mojo::ScopedHandleBase.372"* }
%"class.std::__1::vector.378" = type { %"class.std::__1::__vector_base.379" }
%"class.std::__1::__vector_base.379" = type { %"class.mojo::ScopedInterfaceEndpointHandle"*, %"class.mojo::ScopedInterfaceEndpointHandle"*, %"class.std::__1::__compressed_pair.380" }
%"class.std::__1::__compressed_pair.380" = type { %"struct.std::__1::__compressed_pair_elem.381" }
%"struct.std::__1::__compressed_pair_elem.381" = type { %"class.mojo::ScopedInterfaceEndpointHandle"* }
%"class.mojo::MessageReceiverWithStatus" = type { %"class.mojo::MessageReceiver" }
%"class.mojo::PassThroughFilter" = type { %"class.mojo::MessageReceiver" }
%"class.std::__1::__vector_base_common" = type { i8 }

$_ZN5blink5mojom17PresentationError3NewIJNS0_21PresentationErrorTypeERA18_KcEEEN4mojo16InlinedStructPtrIS1_EEDpOT_ = comdat any

$_ZN5blink5mojom17PresentationError3NewIJNS0_21PresentationErrorTypeERA39_KcEEEN4mojo16InlinedStructPtrIS1_EEDpOT_ = comdat any

$_ZN5blink5mojom17PresentationError3NewIJNS0_21PresentationErrorTypeERA44_KcEEEN4mojo16InlinedStructPtrIS1_EEDpOT_ = comdat any

$_ZN3IPC8Listener18OnChannelConnectedEi = comdat any

$_ZN3IPC8Listener14OnChannelErrorEv = comdat any

$_ZN3IPC8Listener20OnBadMessageReceivedERKNS_7MessageE = comdat any

$_ZN3IPC8Listener28OnAssociatedInterfaceRequestERKNSt3__112basic_stringIcNS1_11char_traitsIcEENS1_9allocatorIcEEEEN4mojo29ScopedInterfaceEndpointHandleE = comdat any

$_ZN3IPC8Listener15OnChannelDeniedEv = comdat any

$_ZN3IPC8Listener20OnChannelListenErrorEv = comdat any

$_ZN7content19WebContentsObserver18RenderFrameCreatedEPNS_15RenderFrameHostE = comdat any

$_ZN7content19WebContentsObserver18RenderFrameDeletedEPNS_15RenderFrameHostE = comdat any

$_ZN7content19WebContentsObserver22RenderFrameHostChangedEPNS_15RenderFrameHostES2_ = comdat any

$_ZN7content19WebContentsObserver12FrameDeletedEi = comdat any

$_ZN7content19WebContentsObserver27RenderFrameHostStateChangedEPNS_15RenderFrameHostENS1_14LifecycleStateES3_ = comdat any

$_ZN7content19WebContentsObserver20CaptureTargetChangedEv = comdat any

$_ZN7content19WebContentsObserver27OnCaptureHandleConfigUpdateERKN5blink5mojom19CaptureHandleConfigE = comdat any

$_ZN7content19WebContentsObserver15RenderViewReadyEv = comdat any

$_ZN7content19WebContentsObserver17RenderViewDeletedEPNS_14RenderViewHostE = comdat any

$_ZN7content19WebContentsObserver17RenderProcessGoneEN4base17TerminationStatusE = comdat any

$_ZN7content19WebContentsObserver21RenderViewHostChangedEPNS_14RenderViewHostES2_ = comdat any

$_ZN7content19WebContentsObserver22OnRendererUnresponsiveEPNS_17RenderProcessHostE = comdat any

$_ZN7content19WebContentsObserver20OnRendererResponsiveEPNS_17RenderProcessHostE = comdat any

$_ZN7content19WebContentsObserver18DidStartNavigationEPNS_16NavigationHandleE = comdat any

$_ZN7content19WebContentsObserver21DidRedirectNavigationEPNS_16NavigationHandleE = comdat any

$_ZN7content19WebContentsObserver23ReadyToCommitNavigationEPNS_16NavigationHandleE = comdat any

$_ZN7content19WebContentsObserver17DidActivatePortalEPNS_11WebContentsEN4base9TimeTicksE = comdat any

$_ZN7content19WebContentsObserver15DidStartLoadingEv = comdat any

$_ZN7content19WebContentsObserver18DidReceiveResponseEv = comdat any

$_ZN7content19WebContentsObserver14DidStopLoadingEv = comdat any

$_ZN7content19WebContentsObserver19LoadProgressChangedEd = comdat any

$_ZN7content19WebContentsObserver28DocumentAvailableInMainFrameEPNS_15RenderFrameHostE = comdat any

$_ZN7content19WebContentsObserver34DocumentOnLoadCompletedInMainFrameEPNS_15RenderFrameHostE = comdat any

$_ZN7content19WebContentsObserver16DOMContentLoadedEPNS_15RenderFrameHostE = comdat any

$_ZN7content19WebContentsObserver13DidFinishLoadEPNS_15RenderFrameHostERK4GURL = comdat any

$_ZN7content19WebContentsObserver11DidFailLoadEPNS_15RenderFrameHostERK4GURLi = comdat any

$_ZN7content19WebContentsObserver29DidChangeVisibleSecurityStateEv = comdat any

$_ZN7content19WebContentsObserver30DidLoadResourceFromMemoryCacheEPNS_15RenderFrameHostERK4GURLRKNSt3__112basic_stringIcNS6_11char_traitsIcEENS6_9allocatorIcEEEEN7network5mojom18RequestDestinationE = comdat any

$_ZN7content19WebContentsObserver20ResourceLoadCompleteEPNS_15RenderFrameHostERKNS_15GlobalRequestIDERKN5blink5mojom16ResourceLoadInfoE = comdat any

$_ZN7content19WebContentsObserver17OnCookiesAccessedEPNS_15RenderFrameHostERKNS_19CookieAccessDetailsE = comdat any

$_ZN7content19WebContentsObserver17OnCookiesAccessedEPNS_16NavigationHandleERKNS_19CookieAccessDetailsE = comdat any

$_ZN7content19WebContentsObserver24NavigationEntryCommittedERKNS_20LoadCommittedDetailsE = comdat any

$_ZN7content19WebContentsObserver20NavigationListPrunedERKNS_13PrunedDetailsE = comdat any

$_ZN7content19WebContentsObserver24NavigationEntriesDeletedEv = comdat any

$_ZN7content19WebContentsObserver22NavigationEntryChangedERKNS_19EntryChangedDetailsE = comdat any

$_ZN7content19WebContentsObserver19DidOpenRequestedURLEPNS_11WebContentsEPNS_15RenderFrameHostERK4GURLRKNS_8ReferrerE21WindowOpenDispositionN2ui14PageTransitionEbb = comdat any

$_ZN7content19WebContentsObserver29DidFirstVisuallyNonEmptyPaintEv = comdat any

$_ZN7content19WebContentsObserver17NavigationStoppedEv = comdat any

$_ZN7content19WebContentsObserver21DidGetUserInteractionERKN5blink13WebInputEventE = comdat any

$_ZN7content19WebContentsObserver20DidGetIgnoredUIEventEv = comdat any

$_ZN7content19WebContentsObserver19OnVisibilityChangedENS_10VisibilityE = comdat any

$_ZN7content19WebContentsObserver19MainFrameWasResizedEb = comdat any

$_ZN7content19WebContentsObserver16FrameNameChangedEPNS_15RenderFrameHostERKNSt3__112basic_stringIcNS3_11char_traitsIcEENS3_9allocatorIcEEEE = comdat any

$_ZN7content19WebContentsObserver27FrameReceivedUserActivationEPNS_15RenderFrameHostE = comdat any

$_ZN7content19WebContentsObserver24FrameDisplayStateChangedEPNS_15RenderFrameHostEb = comdat any

$_ZN7content19WebContentsObserver16FrameSizeChangedEPNS_15RenderFrameHostERKN3gfx4SizeE = comdat any

$_ZN7content19WebContentsObserver11TitleWasSetEPNS_15NavigationEntryE = comdat any

$_ZN7content19WebContentsObserver16AppCacheAccessedERK4GURLb = comdat any

$_ZN7content19WebContentsObserver21PepperInstanceCreatedEv = comdat any

$_ZN7content19WebContentsObserver21PepperInstanceDeletedEv = comdat any

$_ZN7content19WebContentsObserver18ViewportFitChangedEN5blink5mojom11ViewportFitE = comdat any

$_ZN7content19WebContentsObserver13PluginCrashedERKN4base8FilePathEi = comdat any

$_ZN7content19WebContentsObserver23PluginHungStatusChangedEiRKN4base8FilePathEb = comdat any

$_ZN7content19WebContentsObserver23InnerWebContentsCreatedEPNS_11WebContentsE = comdat any

$_ZN7content19WebContentsObserver24InnerWebContentsAttachedEPNS_11WebContentsEPNS_15RenderFrameHostEb = comdat any

$_ZN7content19WebContentsObserver24InnerWebContentsDetachedEPNS_11WebContentsE = comdat any

$_ZN7content19WebContentsObserver24DidCloneToNewWebContentsEPNS_11WebContentsES2_ = comdat any

$_ZN7content19WebContentsObserver20WebContentsDestroyedEv = comdat any

$_ZN7content19WebContentsObserver20UserAgentOverrideSetERKN5blink17UserAgentOverrideE = comdat any

$_ZN7content19WebContentsObserver19DidUpdateFaviconURLEPNS_15RenderFrameHostERKNSt3__16vectorIN4mojo9StructPtrIN5blink5mojom10FaviconURLEEENS3_9allocatorISA_EEEE = comdat any

$_ZN7content19WebContentsObserver19OnAudioStateChangedEb = comdat any

$_ZN7content19WebContentsObserver24OnFrameAudioStateChangedEPNS_15RenderFrameHostEb = comdat any

$_ZN7content19WebContentsObserver37OnIsConnectedToBluetoothDeviceChangedEb = comdat any

$_ZN7content19WebContentsObserver25DidUpdateAudioMutingStateEb = comdat any

$_ZN7content19WebContentsObserver29DidToggleFullscreenModeForTabEbb = comdat any

$_ZN7content19WebContentsObserver20DidAcquireFullscreenEPNS_15RenderFrameHostE = comdat any

$_ZN7content19WebContentsObserver32DidChangeVerticalScrollDirectionEN3viz23VerticalScrollDirectionE = comdat any

$_ZN7content19WebContentsObserver27BeforeFormRepostWarningShowEv = comdat any

$_ZN7content19WebContentsObserver17BeforeUnloadFiredEbRKN4base9TimeTicksE = comdat any

$_ZN7content19WebContentsObserver27BeforeUnloadDialogCancelledEv = comdat any

$_ZN7content19WebContentsObserver30AXTreeIDForMainFrameHasChangedEv = comdat any

$_ZN7content19WebContentsObserver26AccessibilityEventReceivedERKNS_26AXEventNotificationDetailsE = comdat any

$_ZN7content19WebContentsObserver36AccessibilityLocationChangesReceivedERKNSt3__16vectorINS_35AXLocationChangeNotificationDetailsENS1_9allocatorIS3_EEEE = comdat any

$_ZN7content19WebContentsObserver19DidChangeThemeColorEv = comdat any

$_ZN7content19WebContentsObserver24OnBackgroundColorChangedEv = comdat any

$_ZN7content19WebContentsObserver24OnDidAddMessageToConsoleEPNS_15RenderFrameHostEN5blink5mojom19ConsoleMessageLevelERKNSt3__112basic_stringIDsNS6_11char_traitsIDsEENS6_9allocatorIDsEEEEiSE_RKN4absl8optionalISC_EE = comdat any

$_ZN7content19WebContentsObserver19MediaStartedPlayingERKNS0_15MediaPlayerInfoERKNS_13MediaPlayerIdE = comdat any

$_ZN7content19WebContentsObserver19MediaStoppedPlayingERKNS0_15MediaPlayerInfoERKNS_13MediaPlayerIdENS0_18MediaStoppedReasonE = comdat any

$_ZN7content19WebContentsObserver12MediaResizedERKN3gfx4SizeERKNS_13MediaPlayerIdE = comdat any

$_ZN7content19WebContentsObserver33MediaEffectivelyFullscreenChangedEb = comdat any

$_ZN7content19WebContentsObserver28MediaPictureInPictureChangedEb = comdat any

$_ZN7content19WebContentsObserver23MediaMutedStatusChangedERKNS_13MediaPlayerIdEb = comdat any

$_ZN7content19WebContentsObserver20MediaBufferUnderflowERKNS_13MediaPlayerIdE = comdat any

$_ZN7content19WebContentsObserver15MediaPlayerSeekERKNS_13MediaPlayerIdE = comdat any

$_ZN7content19WebContentsObserver14MediaDestroyedERKNS_13MediaPlayerIdE = comdat any

$_ZN7content19WebContentsObserver24OnPageScaleFactorChangedEf = comdat any

$_ZN7content19WebContentsObserver7OnPasteEv = comdat any

$_ZN7content19WebContentsObserver20OnWebContentsFocusedEPNS_16RenderWidgetHostE = comdat any

$_ZN7content19WebContentsObserver22OnWebContentsLostFocusEPNS_16RenderWidgetHostE = comdat any

$_ZN7content19WebContentsObserver20OnFocusChangedInPageEPNS_18FocusedNodeDetailsE = comdat any

$_ZN7content19WebContentsObserver23DidUpdateWebManifestURLEPNS_15RenderFrameHostERKN4absl8optionalI4GURLEE = comdat any

$_ZN7content19WebContentsObserver27OnInterfaceRequestFromFrameEPNS_15RenderFrameHostERKNSt3__112basic_stringIcNS3_11char_traitsIcEENS3_9allocatorIcEEEEPN4mojo16ScopedHandleBaseINSC_17MessagePipeHandleEEE = comdat any

$_ZN7content19WebContentsObserver27AudioContextPlaybackStartedERKNSt3__14pairIPNS_15RenderFrameHostEiEE = comdat any

$_ZN7content19WebContentsObserver27AudioContextPlaybackStoppedERKNSt3__14pairIPNS_15RenderFrameHostEiEE = comdat any

$_ZN7content19WebContentsObserver23OnServiceWorkerAccessedEPNS_15RenderFrameHostERK4GURLNS_24AllowServiceWorkerResultE = comdat any

$_ZN7content19WebContentsObserver23OnServiceWorkerAccessedEPNS_16NavigationHandleERK4GURLNS_24AllowServiceWorkerResultE = comdat any

$_ZN5blink5mojom19PresentationServiceD2Ev = comdat any

$_ZN5blink5mojom19PresentationServiceD0Ev = comdat any

$_ZN5blink5mojom17PresentationError3NewIJNS0_21PresentationErrorTypeERA69_KcEEEN4mojo16InlinedStructPtrIS1_EEDpOT_ = comdat any

$_ZNSt3__14swapIN5blink5mojom17PresentationErrorEEENS_9enable_ifIXaasr21is_move_constructibleIT_EE5valuesr18is_move_assignableIS5_EE5valueEvE4typeERS5_S8_ = comdat any

$_ZNSt3__16__treeINS_12__value_typeI4GURLNS_10unique_ptrIN7content23PresentationServiceImpl30ScreenAvailabilityListenerImplENS_14default_deleteIS6_EEEEEENS_19__map_value_compareIS2_SA_NS_4lessIS2_EELb1EEENS_9allocatorISA_EEE7destroyEPNS_11__tree_nodeISA_PvEE = comdat any

$_ZN4mojo8ReceiverIN5blink5mojom19PresentationServiceENS_19RawPtrImplRefTraitsIS3_EEEC2EPS3_NS_15PendingReceiverIS3_EE13scoped_refptrIN4base19SequencedTaskRunnerEE = comdat any

$_ZN4mojo15ReceiverSetBaseINS_8ReceiverIN5blink5mojom19PresentationServiceENS_19RawPtrImplRefTraitsIS4_EEEEvE13ReceiverEntryD2Ev = comdat any

$_ZN4mojo15ReceiverSetBaseINS_8ReceiverIN5blink5mojom19PresentationServiceENS_19RawPtrImplRefTraitsIS4_EEEEvE13ReceiverEntryD0Ev = comdat any

$_ZNK4mojo15ReceiverSetBaseINS_8ReceiverIN5blink5mojom19PresentationServiceENS_19RawPtrImplRefTraitsIS4_EEEEvE13ReceiverEntry10GetContextEv = comdat any

$_ZN4mojo15ReceiverSetBaseINS_8ReceiverIN5blink5mojom19PresentationServiceENS_19RawPtrImplRefTraitsIS4_EEEEvE13ReceiverEntry20InstallDispatchHooksENSt3__110unique_ptrINS_13MessageFilterENSA_14default_deleteISC_EEEEN4base17RepeatingCallbackIFvjRKNSA_12basic_stringIcNSA_11char_traitsIcEENSA_9allocatorIcEEEEEEE = comdat any

$_ZN4mojo15ReceiverSetBaseINS_8ReceiverIN5blink5mojom19PresentationServiceENS_19RawPtrImplRefTraitsIS4_EEEEvE13ReceiverEntry15FlushForTestingEv = comdat any

$_ZN4mojo15MessageReceiverD2Ev = comdat any

$_ZN5blink5mojom23PresentationServiceStubIN4mojo19RawPtrImplRefTraitsINS0_19PresentationServiceEEEED0Ev = comdat any

$_ZN5blink5mojom23PresentationServiceStubIN4mojo19RawPtrImplRefTraitsINS0_19PresentationServiceEEEE6AcceptEPNS2_7MessageE = comdat any

$_ZN5blink5mojom23PresentationServiceStubIN4mojo19RawPtrImplRefTraitsINS0_19PresentationServiceEEEE19AcceptWithResponderEPNS2_7MessageENSt3__110unique_ptrINS2_25MessageReceiverWithStatusENS9_14default_deleteISB_EEEE = comdat any

$_ZN4mojo8internal12BindingStateIN5blink5mojom19PresentationServiceENS_19RawPtrImplRefTraitsIS4_EEE4BindEPNS0_20PendingReceiverStateE13scoped_refptrIN4base19SequencedTaskRunnerEE = comdat any

$_ZN4base8internal7InvokerINS0_9BindStateIMN7content23PresentationServiceImplEFvvEJNS0_17UnretainedWrapperIS4_EEEEEFvvEE3RunEPNS0_13BindStateBaseE = comdat any

$_ZN4base8internal9BindStateIMN7content23PresentationServiceImplEFvvEJNS0_17UnretainedWrapperIS3_EEEE7DestroyEPKNS0_13BindStateBaseE = comdat any

$_ZN4mojo6RemoteIN5blink5mojom22PresentationControllerEE4BindENS_13PendingRemoteIS3_EE13scoped_refptrIN4base19SequencedTaskRunnerEE = comdat any

$_ZN4mojo8internal17InterfacePtrStateIN5blink5mojom22PresentationControllerEE25ConfigureProxyIfNecessaryEv = comdat any

$_ZN4base8internal7InvokerINS0_9BindStateIMN7content23PresentationServiceImplEFvvEJNS0_17UnretainedWrapperIS4_EEEEEFvvEE7RunOnceEPNS0_13BindStateBaseE = comdat any

$_ZN4mojo6RemoteIN5blink5mojom20PresentationReceiverEE4BindENS_13PendingRemoteIS3_EE13scoped_refptrIN4base19SequencedTaskRunnerEE = comdat any

$_ZN4mojo8internal17InterfacePtrStateIN5blink5mojom20PresentationReceiverEE25ConfigureProxyIfNecessaryEv = comdat any

$_ZN4base8internal7InvokerINS0_9BindStateIMN7content23PresentationServiceImplEFvN4mojo9StructPtrIN5blink5mojom16PresentationInfoEEENS5_13PendingRemoteINS8_22PresentationConnectionEEENS5_15PendingReceiverISC_EEEJNS_7WeakPtrIS4_EEEEEFvSA_SD_SF_EE3RunEPNS0_13BindStateBaseEOSA_OSD_OSF_ = comdat any

$_ZN4base8internal13FunctorTraitsIMN7content23PresentationServiceImplEFvN4mojo9StructPtrIN5blink5mojom16PresentationInfoEEENS4_13PendingRemoteINS7_22PresentationConnectionEEENS4_15PendingReceiverISB_EEEvE6InvokeISG_RKNS_7WeakPtrIS3_EEJS9_SC_SE_EEEvT_OT0_DpOT1_ = comdat any

$_ZN4base8internal9BindStateIMN7content23PresentationServiceImplEFvN4mojo9StructPtrIN5blink5mojom16PresentationInfoEEENS4_13PendingRemoteINS7_22PresentationConnectionEEENS4_15PendingReceiverISB_EEEJNS_7WeakPtrIS3_EEEE7DestroyEPKNS0_13BindStateBaseE = comdat any

$_ZN4base8internal23QueryCancellationTraitsINS0_9BindStateIMN7content23PresentationServiceImplEFvN4mojo9StructPtrIN5blink5mojom16PresentationInfoEEENS5_13PendingRemoteINS8_22PresentationConnectionEEENS5_15PendingReceiverISC_EEEJNS_7WeakPtrIS4_EEEEEEEbPKNS0_13BindStateBaseENSL_21CancellationQueryModeE = comdat any

$_ZNSt3__16__treeINS_12__value_typeI4GURLNS_10unique_ptrIN7content23PresentationServiceImpl30ScreenAvailabilityListenerImplENS_14default_deleteIS6_EEEEEENS_19__map_value_compareIS2_SA_NS_4lessIS2_EELb1EEENS_9allocatorISA_EEE25__emplace_unique_key_argsIS2_JRKNS_21piecewise_construct_tENS_5tupleIJRKS2_EEENSM_IJEEEEEENS_4pairINS_15__tree_iteratorISA_PNS_11__tree_nodeISA_PvEElEEbEERKT_DpOT0_ = comdat any

$_ZNSt3__127__tree_balance_after_insertIPNS_16__tree_node_baseIPvEEEEvT_S5_ = comdat any

$_ZNSt3__16__treeINS_12__value_typeI4GURLNS_10unique_ptrIN7content23PresentationServiceImpl30ScreenAvailabilityListenerImplENS_14default_deleteIS6_EEEEEENS_19__map_value_compareIS2_SA_NS_4lessIS2_EELb1EEENS_9allocatorISA_EEE5eraseENS_21__tree_const_iteratorISA_PNS_11__tree_nodeISA_PvEElEE = comdat any

$_ZNSt3__113__tree_removeIPNS_16__tree_node_baseIPvEEEEvT_S5_ = comdat any

$_ZN4base8internal7InvokerINS0_9BindStateIMN7content23PresentationServiceImplEFviN4mojo9StructPtrIN5blink5mojom28PresentationConnectionResultEEEEJNS_7WeakPtrIS4_EEiEEEFvSA_EE7RunOnceEPNS0_13BindStateBaseEOSA_ = comdat any

$_ZN4base8internal13FunctorTraitsIMN7content23PresentationServiceImplEFviN4mojo9StructPtrIN5blink5mojom28PresentationConnectionResultEEEEvE6InvokeISB_NS_7WeakPtrIS3_EEJiS9_EEEvT_OT0_DpOT1_ = comdat any

$_ZN4base8internal9BindStateIMN7content23PresentationServiceImplEFviN4mojo9StructPtrIN5blink5mojom28PresentationConnectionResultEEEEJNS_7WeakPtrIS3_EEiEE7DestroyEPKNS0_13BindStateBaseE = comdat any

$_ZN4base8internal23QueryCancellationTraitsINS0_9BindStateIMN7content23PresentationServiceImplEFviN4mojo9StructPtrIN5blink5mojom28PresentationConnectionResultEEEEJNS_7WeakPtrIS4_EEiEEEEEbPKNS0_13BindStateBaseENSG_21CancellationQueryModeE = comdat any

$_ZN4base8internal7InvokerINS0_9BindStateIMN7content23PresentationServiceImplEFviRKN5blink5mojom17PresentationErrorEEJNS_7WeakPtrIS4_EEiEEEFvS9_EE7RunOnceEPNS0_13BindStateBaseES9_ = comdat any

$_ZN4base8internal9BindStateIMN7content23PresentationServiceImplEFviRKN5blink5mojom17PresentationErrorEEJNS_7WeakPtrIS3_EEiEE7DestroyEPKNS0_13BindStateBaseE = comdat any

$_ZN4base8internal23QueryCancellationTraitsINS0_9BindStateIMN7content23PresentationServiceImplEFviRKN5blink5mojom17PresentationErrorEEJNS_7WeakPtrIS4_EEiEEEEEbPKNS0_13BindStateBaseENSF_21CancellationQueryModeE = comdat any

$_ZNSt3__112__hash_tableINS_17__hash_value_typeIiNS_10unique_ptrIN7content23PresentationServiceImpl30NewPresentationCallbackWrapperENS_14default_deleteIS5_EEEEEENS_22__unordered_map_hasherIiS9_NS_4hashIiEENS_8equal_toIiEELb1EEENS_21__unordered_map_equalIiS9_SE_SC_Lb1EEENS_9allocatorIS9_EEE25__emplace_unique_key_argsIiJRKNS_21piecewise_construct_tENS_5tupleIJRKiEEENSP_IJEEEEEENS_4pairINS_15__hash_iteratorIPNS_11__hash_nodeIS9_PvEEEEbEERKT_DpOT0_ = comdat any

$_ZNSt3__112__hash_tableINS_17__hash_value_typeIiNS_10unique_ptrIN7content23PresentationServiceImpl30NewPresentationCallbackWrapperENS_14default_deleteIS5_EEEEEENS_22__unordered_map_hasherIiS9_NS_4hashIiEENS_8equal_toIiEELb1EEENS_21__unordered_map_equalIiS9_SE_SC_Lb1EEENS_9allocatorIS9_EEE6rehashEm = comdat any

$_ZNSt3__112__hash_tableINS_17__hash_value_typeIiNS_10unique_ptrIN7content23PresentationServiceImpl30NewPresentationCallbackWrapperENS_14default_deleteIS5_EEEEEENS_22__unordered_map_hasherIiS9_NS_4hashIiEENS_8equal_toIiEELb1EEENS_21__unordered_map_equalIiS9_SE_SC_Lb1EEENS_9allocatorIS9_EEE8__rehashEm = comdat any

$_ZN4base8internal7InvokerINS0_9BindStateIMN7content23PresentationServiceImplEFvRKN5blink5mojom16PresentationInfoERKNS3_37PresentationConnectionStateChangeInfoEEJNS_7WeakPtrIS4_EES7_EEEFvSC_EE3RunEPNS0_13BindStateBaseESC_ = comdat any

$_ZN4base8internal9BindStateIMN7content23PresentationServiceImplEFvRKN5blink5mojom16PresentationInfoERKNS2_37PresentationConnectionStateChangeInfoEEJNS_7WeakPtrIS3_EES6_EE7DestroyEPKNS0_13BindStateBaseE = comdat any

$_ZN4base8internal23QueryCancellationTraitsINS0_9BindStateIMN7content23PresentationServiceImplEFvRKN5blink5mojom16PresentationInfoERKNS3_37PresentationConnectionStateChangeInfoEEJNS_7WeakPtrIS4_EES7_EEEEEbPKNS0_13BindStateBaseENSI_21CancellationQueryModeE = comdat any

$_ZNSt3__112__hash_tableINS_17__hash_value_typeIiNS_10unique_ptrIN7content23PresentationServiceImpl30NewPresentationCallbackWrapperENS_14default_deleteIS5_EEEEEENS_22__unordered_map_hasherIiS9_NS_4hashIiEENS_8equal_toIiEELb1EEENS_21__unordered_map_equalIiS9_SE_SC_Lb1EEENS_9allocatorIS9_EEE6removeENS_21__hash_const_iteratorIPNS_11__hash_nodeIS9_PvEEEE = comdat any

$_ZNSt3__16vectorI4GURLNS_9allocatorIS1_EEE6assignIPS1_EENS_9enable_ifIXaasr27__is_cpp17_forward_iteratorIT_EE5valuesr16is_constructibleIS1_NS_15iterator_traitsIS8_E9referenceEEE5valueEvE4typeES8_S8_ = comdat any

$_ZN4base8internal7InvokerINS0_9BindStateIMN7content23PresentationServiceImplEFvN4mojo9StructPtrIN5blink5mojom28PresentationConnectionResultEEEEJNS_7WeakPtrIS4_EEEEEFvSA_EE3RunEPNS0_13BindStateBaseEOSA_ = comdat any

$_ZN4base8internal12InvokeHelperILb1EvE8MakeItSoIRKMN7content23PresentationServiceImplEFvN4mojo9StructPtrIN5blink5mojom28PresentationConnectionResultEEEERKNS_7WeakPtrIS5_EEJSB_EEEvOT_OT0_DpOT1_ = comdat any

$_ZN4base8internal9BindStateIMN7content23PresentationServiceImplEFvN4mojo9StructPtrIN5blink5mojom28PresentationConnectionResultEEEEJNS_7WeakPtrIS3_EEEE7DestroyEPKNS0_13BindStateBaseE = comdat any

$_ZN4base8internal23QueryCancellationTraitsINS0_9BindStateIMN7content23PresentationServiceImplEFvN4mojo9StructPtrIN5blink5mojom28PresentationConnectionResultEEEEJNS_7WeakPtrIS4_EEEEEEEbPKNS0_13BindStateBaseENSG_21CancellationQueryModeE = comdat any

$_ZNSt3__16__treeINS_12__value_typeImNS_10unique_ptrIN4mojo16ReceiverSetState5EntryENS_14default_deleteIS5_EEEEEENS_19__map_value_compareImS9_NS_4lessImEELb1EEENS_9allocatorIS9_EEE7destroyEPNS_11__tree_nodeIS9_PvEE = comdat any

$_ZTVN5blink5mojom19PresentationServiceE = comdat any

$_ZTVN4mojo15ReceiverSetBaseINS_8ReceiverIN5blink5mojom19PresentationServiceENS_19RawPtrImplRefTraitsIS4_EEEEvE13ReceiverEntryE = comdat any

$_ZTVN5blink5mojom23PresentationServiceStubIN4mojo19RawPtrImplRefTraitsINS0_19PresentationServiceEEEEE = comdat any

@_ZTVN7content23PresentationServiceImplE = hidden unnamed_addr constant { [15 x i8*], [109 x i8*], [5 x i8*] } { [15 x i8*] [i8* null, i8* null, i8* bitcast (void (%"class.content::PresentationServiceImpl"*)* @_ZN7content23PresentationServiceImplD2Ev to i8*), i8* bitcast (void (%"class.content::PresentationServiceImpl"*)* @_ZN7content23PresentationServiceImplD0Ev to i8*), i8* bitcast (void (%"class.content::PresentationServiceImpl"*, %"class.mojo::PendingRemote"*)* @_ZN7content23PresentationServiceImpl13SetControllerEN4mojo13PendingRemoteIN5blink5mojom22PresentationControllerEEE to i8*), i8* bitcast (void (%"class.content::PresentationServiceImpl"*, %"class.mojo::PendingRemote.265"*)* @_ZN7content23PresentationServiceImpl11SetReceiverEN4mojo13PendingRemoteIN5blink5mojom20PresentationReceiverEEE to i8*), i8* bitcast (void (%"class.content::PresentationServiceImpl"*, %"class.std::__1::vector"*)* @_ZN7content23PresentationServiceImpl26SetDefaultPresentationUrlsERKNSt3__16vectorI4GURLNS1_9allocatorIS3_EEEE to i8*), i8* bitcast (void (%"class.content::PresentationServiceImpl"*, %class.GURL*)* @_ZN7content23PresentationServiceImpl27ListenForScreenAvailabilityERK4GURL to i8*), i8* bitcast (void (%"class.content::PresentationServiceImpl"*, %class.GURL*)* @_ZN7content23PresentationServiceImpl34StopListeningForScreenAvailabilityERK4GURL to i8*), i8* bitcast (void (%"class.content::PresentationServiceImpl"*, %"class.std::__1::vector"*, %"class.base::OnceCallback.218"*)* @_ZN7content23PresentationServiceImpl17StartPresentationERKNSt3__16vectorI4GURLNS1_9allocatorIS3_EEEEN4base12OnceCallbackIFvN4mojo9StructPtrIN5blink5mojom28PresentationConnectionResultEEENSB_16InlinedStructPtrINSE_17PresentationErrorEEEEEE to i8*), i8* bitcast (void (%"class.content::PresentationServiceImpl"*, %"class.std::__1::vector"*, %"class.std::__1::basic_string"*, %"class.base::OnceCallback.218"*)* @_ZN7content23PresentationServiceImpl21ReconnectPresentationERKNSt3__16vectorI4GURLNS1_9allocatorIS3_EEEERKNS1_12basic_stringIcNS1_11char_traitsIcEENS4_IcEEEEN4base12OnceCallbackIFvN4mojo9StructPtrIN5blink5mojom28PresentationConnectionResultEEENSI_16InlinedStructPtrINSL_17PresentationErrorEEEEEE to i8*), i8* bitcast (void (%"class.content::PresentationServiceImpl"*, %class.GURL*, %"class.std::__1::basic_string"*)* @_ZN7content23PresentationServiceImpl15CloseConnectionERK4GURLRKNSt3__112basic_stringIcNS4_11char_traitsIcEENS4_9allocatorIcEEEE to i8*), i8* bitcast (void (%"class.content::PresentationServiceImpl"*, %class.GURL*, %"class.std::__1::basic_string"*)* @_ZN7content23PresentationServiceImpl9TerminateERK4GURLRKNSt3__112basic_stringIcNS4_11char_traitsIcEENS4_9allocatorIcEEEE to i8*), i8* bitcast (void (%"class.content::PresentationServiceImpl"*, %"class.content::NavigationHandle"*)* @_ZN7content23PresentationServiceImpl19DidFinishNavigationEPNS_16NavigationHandleE to i8*), i8* bitcast (void (%"class.content::PresentationServiceImpl"*)* @_ZN7content23PresentationServiceImpl19OnDelegateDestroyedEv to i8*)], [109 x i8*] [i8* inttoptr (i64 -8 to i8*), i8* null, i8* bitcast (i1 (%"class.content::WebContentsObserver"*, %"class.IPC::Message"*)* @_ZN7content19WebContentsObserver17OnMessageReceivedERKN3IPC7MessageE to i8*), i8* bitcast (void (%"class.IPC::Listener"*, i32)* @_ZN3IPC8Listener18OnChannelConnectedEi to i8*), i8* bitcast (void (%"class.IPC::Listener"*)* @_ZN3IPC8Listener14OnChannelErrorEv to i8*), i8* bitcast (void (%"class.IPC::Listener"*, %"class.IPC::Message"*)* @_ZN3IPC8Listener20OnBadMessageReceivedERKNS_7MessageE to i8*), i8* bitcast (void (%"class.IPC::Listener"*, %"class.std::__1::basic_string"*, %"class.mojo::ScopedInterfaceEndpointHandle"*)* @_ZN3IPC8Listener28OnAssociatedInterfaceRequestERKNSt3__112basic_stringIcNS1_11char_traitsIcEENS1_9allocatorIcEEEEN4mojo29ScopedInterfaceEndpointHandleE to i8*), i8* bitcast (void (%"class.IPC::Listener"*)* @_ZN3IPC8Listener15OnChannelDeniedEv to i8*), i8* bitcast (void (%"class.IPC::Listener"*)* @_ZN3IPC8Listener20OnChannelListenErrorEv to i8*), i8* bitcast (void (%"class.content::PresentationServiceImpl"*)* @_ZThn8_N7content23PresentationServiceImplD1Ev to i8*), i8* bitcast (void (%"class.content::PresentationServiceImpl"*)* @_ZThn8_N7content23PresentationServiceImplD0Ev to i8*), i8* bitcast (void (%"class.content::WebContentsObserver"*, %"class.content::RenderFrameHost"*)* @_ZN7content19WebContentsObserver18RenderFrameCreatedEPNS_15RenderFrameHostE to i8*), i8* bitcast (void (%"class.content::WebContentsObserver"*, %"class.content::RenderFrameHost"*)* @_ZN7content19WebContentsObserver18RenderFrameDeletedEPNS_15RenderFrameHostE to i8*), i8* bitcast (void (%"class.content::WebContentsObserver"*, %"class.content::RenderFrameHost"*, %"class.content::RenderFrameHost"*)* @_ZN7content19WebContentsObserver22RenderFrameHostChangedEPNS_15RenderFrameHostES2_ to i8*), i8* bitcast (void (%"class.content::WebContentsObserver"*, i32)* @_ZN7content19WebContentsObserver12FrameDeletedEi to i8*), i8* bitcast (void (%"class.content::WebContentsObserver"*, %"class.content::RenderFrameHost"*, i32, i32)* @_ZN7content19WebContentsObserver27RenderFrameHostStateChangedEPNS_15RenderFrameHostENS1_14LifecycleStateES3_ to i8*), i8* bitcast (void (%"class.content::WebContentsObserver"*)* @_ZN7content19WebContentsObserver20CaptureTargetChangedEv to i8*), i8* bitcast (void (%"class.content::WebContentsObserver"*, %"class.blink::mojom::CaptureHandleConfig"*)* @_ZN7content19WebContentsObserver27OnCaptureHandleConfigUpdateERKN5blink5mojom19CaptureHandleConfigE to i8*), i8* bitcast (void (%"class.content::WebContentsObserver"*)* @_ZN7content19WebContentsObserver15RenderViewReadyEv to i8*), i8* bitcast (void (%"class.content::WebContentsObserver"*, %"class.content::RenderViewHost"*)* @_ZN7content19WebContentsObserver17RenderViewDeletedEPNS_14RenderViewHostE to i8*), i8* bitcast (void (%"class.content::WebContentsObserver"*, i32)* @_ZN7content19WebContentsObserver17RenderProcessGoneEN4base17TerminationStatusE to i8*), i8* bitcast (void (%"class.content::WebContentsObserver"*, %"class.content::RenderViewHost"*, %"class.content::RenderViewHost"*)* @_ZN7content19WebContentsObserver21RenderViewHostChangedEPNS_14RenderViewHostES2_ to i8*), i8* bitcast (void (%"class.content::WebContentsObserver"*, %"class.content::RenderProcessHost"*)* @_ZN7content19WebContentsObserver22OnRendererUnresponsiveEPNS_17RenderProcessHostE to i8*), i8* bitcast (void (%"class.content::WebContentsObserver"*, %"class.content::RenderProcessHost"*)* @_ZN7content19WebContentsObserver20OnRendererResponsiveEPNS_17RenderProcessHostE to i8*), i8* bitcast (void (%"class.content::WebContentsObserver"*, %"class.content::NavigationHandle"*)* @_ZN7content19WebContentsObserver18DidStartNavigationEPNS_16NavigationHandleE to i8*), i8* bitcast (void (%"class.content::WebContentsObserver"*, %"class.content::NavigationHandle"*)* @_ZN7content19WebContentsObserver21DidRedirectNavigationEPNS_16NavigationHandleE to i8*), i8* bitcast (void (%"class.content::WebContentsObserver"*, %"class.content::NavigationHandle"*)* @_ZN7content19WebContentsObserver23ReadyToCommitNavigationEPNS_16NavigationHandleE to i8*), i8* bitcast (void (%"class.content::PresentationServiceImpl"*, %"class.content::NavigationHandle"*)* @_ZThn8_N7content23PresentationServiceImpl19DidFinishNavigationEPNS_16NavigationHandleE to i8*), i8* bitcast (void (%"class.content::WebContentsObserver"*, %"class.content::WebContents"*, i64)* @_ZN7content19WebContentsObserver17DidActivatePortalEPNS_11WebContentsEN4base9TimeTicksE to i8*), i8* bitcast (void (%"class.content::WebContentsObserver"*)* @_ZN7content19WebContentsObserver15DidStartLoadingEv to i8*), i8* bitcast (void (%"class.content::WebContentsObserver"*)* @_ZN7content19WebContentsObserver18DidReceiveResponseEv to i8*), i8* bitcast (void (%"class.content::WebContentsObserver"*)* @_ZN7content19WebContentsObserver14DidStopLoadingEv to i8*), i8* bitcast (void (%"class.content::WebContentsObserver"*, double)* @_ZN7content19WebContentsObserver19LoadProgressChangedEd to i8*), i8* bitcast (void (%"class.content::WebContentsObserver"*, %"class.content::RenderFrameHost"*)* @_ZN7content19WebContentsObserver28DocumentAvailableInMainFrameEPNS_15RenderFrameHostE to i8*), i8* bitcast (void (%"class.content::WebContentsObserver"*, %"class.content::RenderFrameHost"*)* @_ZN7content19WebContentsObserver34DocumentOnLoadCompletedInMainFrameEPNS_15RenderFrameHostE to i8*), i8* bitcast (void (%"class.content::WebContentsObserver"*, %"class.content::RenderFrameHost"*)* @_ZN7content19WebContentsObserver16DOMContentLoadedEPNS_15RenderFrameHostE to i8*), i8* bitcast (void (%"class.content::WebContentsObserver"*, %"class.content::RenderFrameHost"*, %class.GURL*)* @_ZN7content19WebContentsObserver13DidFinishLoadEPNS_15RenderFrameHostERK4GURL to i8*), i8* bitcast (void (%"class.content::WebContentsObserver"*, %"class.content::RenderFrameHost"*, %class.GURL*, i32)* @_ZN7content19WebContentsObserver11DidFailLoadEPNS_15RenderFrameHostERK4GURLi to i8*), i8* bitcast (void (%"class.content::WebContentsObserver"*)* @_ZN7content19WebContentsObserver29DidChangeVisibleSecurityStateEv to i8*), i8* bitcast (void (%"class.content::WebContentsObserver"*, %"class.content::RenderFrameHost"*, %class.GURL*, %"class.std::__1::basic_string"*, i32)* @_ZN7content19WebContentsObserver30DidLoadResourceFromMemoryCacheEPNS_15RenderFrameHostERK4GURLRKNSt3__112basic_stringIcNS6_11char_traitsIcEENS6_9allocatorIcEEEEN7network5mojom18RequestDestinationE to i8*), i8* bitcast (void (%"class.content::WebContentsObserver"*, %"class.content::RenderFrameHost"*, %"struct.content::GlobalRequestID"*, %"class.blink::mojom::ResourceLoadInfo"*)* @_ZN7content19WebContentsObserver20ResourceLoadCompleteEPNS_15RenderFrameHostERKNS_15GlobalRequestIDERKN5blink5mojom16ResourceLoadInfoE to i8*), i8* bitcast (void (%"class.content::WebContentsObserver"*, %"class.content::RenderFrameHost"*, %"struct.content::CookieAccessDetails"*)* @_ZN7content19WebContentsObserver17OnCookiesAccessedEPNS_15RenderFrameHostERKNS_19CookieAccessDetailsE to i8*), i8* bitcast (void (%"class.content::WebContentsObserver"*, %"class.content::NavigationHandle"*, %"struct.content::CookieAccessDetails"*)* @_ZN7content19WebContentsObserver17OnCookiesAccessedEPNS_16NavigationHandleERKNS_19CookieAccessDetailsE to i8*), i8* bitcast (void (%"class.content::WebContentsObserver"*, %"struct.content::LoadCommittedDetails"*)* @_ZN7content19WebContentsObserver24NavigationEntryCommittedERKNS_20LoadCommittedDetailsE to i8*), i8* bitcast (void (%"class.content::WebContentsObserver"*, %"struct.content::PrunedDetails"*)* @_ZN7content19WebContentsObserver20NavigationListPrunedERKNS_13PrunedDetailsE to i8*), i8* bitcast (void (%"class.content::WebContentsObserver"*)* @_ZN7content19WebContentsObserver24NavigationEntriesDeletedEv to i8*), i8* bitcast (void (%"class.content::WebContentsObserver"*, %"struct.content::EntryChangedDetails"*)* @_ZN7content19WebContentsObserver22NavigationEntryChangedERKNS_19EntryChangedDetailsE to i8*), i8* bitcast (void (%"class.content::WebContentsObserver"*, %"class.content::WebContents"*, %"class.content::RenderFrameHost"*, %class.GURL*, %"struct.content::Referrer"*, i32, i32, i1, i1)* @_ZN7content19WebContentsObserver19DidOpenRequestedURLEPNS_11WebContentsEPNS_15RenderFrameHostERK4GURLRKNS_8ReferrerE21WindowOpenDispositionN2ui14PageTransitionEbb to i8*), i8* bitcast (void (%"class.content::WebContentsObserver"*)* @_ZN7content19WebContentsObserver29DidFirstVisuallyNonEmptyPaintEv to i8*), i8* bitcast (void (%"class.content::WebContentsObserver"*)* @_ZN7content19WebContentsObserver17NavigationStoppedEv to i8*), i8* bitcast (void (%"class.content::WebContentsObserver"*, %"class.blink::WebInputEvent"*)* @_ZN7content19WebContentsObserver21DidGetUserInteractionERKN5blink13WebInputEventE to i8*), i8* bitcast (void (%"class.content::WebContentsObserver"*)* @_ZN7content19WebContentsObserver20DidGetIgnoredUIEventEv to i8*), i8* bitcast (void (%"class.content::WebContentsObserver"*, i32)* @_ZN7content19WebContentsObserver19OnVisibilityChangedENS_10VisibilityE to i8*), i8* bitcast (void (%"class.content::WebContentsObserver"*, i1)* @_ZN7content19WebContentsObserver19MainFrameWasResizedEb to i8*), i8* bitcast (void (%"class.content::WebContentsObserver"*, %"class.content::RenderFrameHost"*, %"class.std::__1::basic_string"*)* @_ZN7content19WebContentsObserver16FrameNameChangedEPNS_15RenderFrameHostERKNSt3__112basic_stringIcNS3_11char_traitsIcEENS3_9allocatorIcEEEE to i8*), i8* bitcast (void (%"class.content::WebContentsObserver"*, %"class.content::RenderFrameHost"*)* @_ZN7content19WebContentsObserver27FrameReceivedUserActivationEPNS_15RenderFrameHostE to i8*), i8* bitcast (void (%"class.content::WebContentsObserver"*, %"class.content::RenderFrameHost"*, i1)* @_ZN7content19WebContentsObserver24FrameDisplayStateChangedEPNS_15RenderFrameHostEb to i8*), i8* bitcast (void (%"class.content::WebContentsObserver"*, %"class.content::RenderFrameHost"*, %"class.gfx::Size"*)* @_ZN7content19WebContentsObserver16FrameSizeChangedEPNS_15RenderFrameHostERKN3gfx4SizeE to i8*), i8* bitcast (void (%"class.content::WebContentsObserver"*, %"class.content::NavigationEntry"*)* @_ZN7content19WebContentsObserver11TitleWasSetEPNS_15NavigationEntryE to i8*), i8* bitcast (void (%"class.content::WebContentsObserver"*, %class.GURL*, i1)* @_ZN7content19WebContentsObserver16AppCacheAccessedERK4GURLb to i8*), i8* bitcast (void (%"class.content::WebContentsObserver"*)* @_ZN7content19WebContentsObserver21PepperInstanceCreatedEv to i8*), i8* bitcast (void (%"class.content::WebContentsObserver"*)* @_ZN7content19WebContentsObserver21PepperInstanceDeletedEv to i8*), i8* bitcast (void (%"class.content::WebContentsObserver"*, i32)* @_ZN7content19WebContentsObserver18ViewportFitChangedEN5blink5mojom11ViewportFitE to i8*), i8* bitcast (void (%"class.content::WebContentsObserver"*, %"class.base::FilePath"*, i32)* @_ZN7content19WebContentsObserver13PluginCrashedERKN4base8FilePathEi to i8*), i8* bitcast (void (%"class.content::WebContentsObserver"*, i32, %"class.base::FilePath"*, i1)* @_ZN7content19WebContentsObserver23PluginHungStatusChangedEiRKN4base8FilePathEb to i8*), i8* bitcast (void (%"class.content::WebContentsObserver"*, %"class.content::WebContents"*)* @_ZN7content19WebContentsObserver23InnerWebContentsCreatedEPNS_11WebContentsE to i8*), i8* bitcast (void (%"class.content::WebContentsObserver"*, %"class.content::WebContents"*, %"class.content::RenderFrameHost"*, i1)* @_ZN7content19WebContentsObserver24InnerWebContentsAttachedEPNS_11WebContentsEPNS_15RenderFrameHostEb to i8*), i8* bitcast (void (%"class.content::WebContentsObserver"*, %"class.content::WebContents"*)* @_ZN7content19WebContentsObserver24InnerWebContentsDetachedEPNS_11WebContentsE to i8*), i8* bitcast (void (%"class.content::WebContentsObserver"*, %"class.content::WebContents"*, %"class.content::WebContents"*)* @_ZN7content19WebContentsObserver24DidCloneToNewWebContentsEPNS_11WebContentsES2_ to i8*), i8* bitcast (void (%"class.content::WebContentsObserver"*)* @_ZN7content19WebContentsObserver20WebContentsDestroyedEv to i8*), i8* bitcast (void (%"class.content::WebContentsObserver"*, %"struct.blink::UserAgentOverride"*)* @_ZN7content19WebContentsObserver20UserAgentOverrideSetERKN5blink17UserAgentOverrideE to i8*), i8* bitcast (void (%"class.content::WebContentsObserver"*, %"class.content::RenderFrameHost"*, %"class.std::__1::vector.338"*)* @_ZN7content19WebContentsObserver19DidUpdateFaviconURLEPNS_15RenderFrameHostERKNSt3__16vectorIN4mojo9StructPtrIN5blink5mojom10FaviconURLEEENS3_9allocatorISA_EEEE to i8*), i8* bitcast (void (%"class.content::WebContentsObserver"*, i1)* @_ZN7content19WebContentsObserver19OnAudioStateChangedEb to i8*), i8* bitcast (void (%"class.content::WebContentsObserver"*, %"class.content::RenderFrameHost"*, i1)* @_ZN7content19WebContentsObserver24OnFrameAudioStateChangedEPNS_15RenderFrameHostEb to i8*), i8* bitcast (void (%"class.content::WebContentsObserver"*, i1)* @_ZN7content19WebContentsObserver37OnIsConnectedToBluetoothDeviceChangedEb to i8*), i8* bitcast (void (%"class.content::WebContentsObserver"*, i1)* @_ZN7content19WebContentsObserver25DidUpdateAudioMutingStateEb to i8*), i8* bitcast (void (%"class.content::WebContentsObserver"*, i1, i1)* @_ZN7content19WebContentsObserver29DidToggleFullscreenModeForTabEbb to i8*), i8* bitcast (void (%"class.content::WebContentsObserver"*, %"class.content::RenderFrameHost"*)* @_ZN7content19WebContentsObserver20DidAcquireFullscreenEPNS_15RenderFrameHostE to i8*), i8* bitcast (void (%"class.content::WebContentsObserver"*, i32)* @_ZN7content19WebContentsObserver32DidChangeVerticalScrollDirectionEN3viz23VerticalScrollDirectionE to i8*), i8* bitcast (void (%"class.content::WebContentsObserver"*)* @_ZN7content19WebContentsObserver27BeforeFormRepostWarningShowEv to i8*), i8* bitcast (void (%"class.content::WebContentsObserver"*, i1, %"class.base::TimeTicks"*)* @_ZN7content19WebContentsObserver17BeforeUnloadFiredEbRKN4base9TimeTicksE to i8*), i8* bitcast (void (%"class.content::WebContentsObserver"*)* @_ZN7content19WebContentsObserver27BeforeUnloadDialogCancelledEv to i8*), i8* bitcast (void (%"class.content::WebContentsObserver"*)* @_ZN7content19WebContentsObserver30AXTreeIDForMainFrameHasChangedEv to i8*), i8* bitcast (void (%"class.content::WebContentsObserver"*, %"struct.content::AXEventNotificationDetails"*)* @_ZN7content19WebContentsObserver26AccessibilityEventReceivedERKNS_26AXEventNotificationDetailsE to i8*), i8* bitcast (void (%"class.content::WebContentsObserver"*, %"class.std::__1::vector.339"*)* @_ZN7content19WebContentsObserver36AccessibilityLocationChangesReceivedERKNSt3__16vectorINS_35AXLocationChangeNotificationDetailsENS1_9allocatorIS3_EEEE to i8*), i8* bitcast (void (%"class.content::WebContentsObserver"*)* @_ZN7content19WebContentsObserver19DidChangeThemeColorEv to i8*), i8* bitcast (void (%"class.content::WebContentsObserver"*)* @_ZN7content19WebContentsObserver24OnBackgroundColorChangedEv to i8*), i8* bitcast (void (%"class.content::WebContentsObserver"*, %"class.content::RenderFrameHost"*, i32, %"class.std::__1::basic_string.340"*, i32, %"class.std::__1::basic_string.340"*, %"class.absl::optional.349"*)* @_ZN7content19WebContentsObserver24OnDidAddMessageToConsoleEPNS_15RenderFrameHostEN5blink5mojom19ConsoleMessageLevelERKNSt3__112basic_stringIDsNS6_11char_traitsIDsEENS6_9allocatorIDsEEEEiSE_RKN4absl8optionalISC_EE to i8*), i8* bitcast (void (%"class.content::WebContentsObserver"*, %"struct.content::WebContentsObserver::MediaPlayerInfo"*, %"struct.content::MediaPlayerId"*)* @_ZN7content19WebContentsObserver19MediaStartedPlayingERKNS0_15MediaPlayerInfoERKNS_13MediaPlayerIdE to i8*), i8* bitcast (void (%"class.content::WebContentsObserver"*, %"struct.content::WebContentsObserver::MediaPlayerInfo"*, %"struct.content::MediaPlayerId"*, i32)* @_ZN7content19WebContentsObserver19MediaStoppedPlayingERKNS0_15MediaPlayerInfoERKNS_13MediaPlayerIdENS0_18MediaStoppedReasonE to i8*), i8* bitcast (void (%"class.content::WebContentsObserver"*, %"class.gfx::Size"*, %"struct.content::MediaPlayerId"*)* @_ZN7content19WebContentsObserver12MediaResizedERKN3gfx4SizeERKNS_13MediaPlayerIdE to i8*), i8* bitcast (void (%"class.content::WebContentsObserver"*, i1)* @_ZN7content19WebContentsObserver33MediaEffectivelyFullscreenChangedEb to i8*), i8* bitcast (void (%"class.content::WebContentsObserver"*, i1)* @_ZN7content19WebContentsObserver28MediaPictureInPictureChangedEb to i8*), i8* bitcast (void (%"class.content::WebContentsObserver"*, %"struct.content::MediaPlayerId"*, i1)* @_ZN7content19WebContentsObserver23MediaMutedStatusChangedERKNS_13MediaPlayerIdEb to i8*), i8* bitcast (void (%"class.content::WebContentsObserver"*, %"struct.content::MediaPlayerId"*)* @_ZN7content19WebContentsObserver20MediaBufferUnderflowERKNS_13MediaPlayerIdE to i8*), i8* bitcast (void (%"class.content::WebContentsObserver"*, %"struct.content::MediaPlayerId"*)* @_ZN7content19WebContentsObserver15MediaPlayerSeekERKNS_13MediaPlayerIdE to i8*), i8* bitcast (void (%"class.content::WebContentsObserver"*, %"struct.content::MediaPlayerId"*)* @_ZN7content19WebContentsObserver14MediaDestroyedERKNS_13MediaPlayerIdE to i8*), i8* bitcast (void (%"class.content::WebContentsObserver"*, float)* @_ZN7content19WebContentsObserver24OnPageScaleFactorChangedEf to i8*), i8* bitcast (void (%"class.content::WebContentsObserver"*)* @_ZN7content19WebContentsObserver7OnPasteEv to i8*), i8* bitcast (i1 (%"class.content::WebContentsObserver"*, %"class.IPC::Message"*, %"class.content::RenderFrameHost"*)* @_ZN7content19WebContentsObserver17OnMessageReceivedERKN3IPC7MessageEPNS_15RenderFrameHostE to i8*), i8* bitcast (void (%"class.content::WebContentsObserver"*, %"class.content::RenderWidgetHost"*)* @_ZN7content19WebContentsObserver20OnWebContentsFocusedEPNS_16RenderWidgetHostE to i8*), i8* bitcast (void (%"class.content::WebContentsObserver"*, %"class.content::RenderWidgetHost"*)* @_ZN7content19WebContentsObserver22OnWebContentsLostFocusEPNS_16RenderWidgetHostE to i8*), i8* bitcast (void (%"class.content::WebContentsObserver"*, %"struct.content::FocusedNodeDetails"*)* @_ZN7content19WebContentsObserver20OnFocusChangedInPageEPNS_18FocusedNodeDetailsE to i8*), i8* bitcast (void (%"class.content::WebContentsObserver"*, %"class.content::RenderFrameHost"*, %"class.absl::optional.350"*)* @_ZN7content19WebContentsObserver23DidUpdateWebManifestURLEPNS_15RenderFrameHostERKN4absl8optionalI4GURLEE to i8*), i8* bitcast (void (%"class.content::WebContentsObserver"*, %"class.content::RenderFrameHost"*, %"class.std::__1::basic_string"*, %"class.mojo::ScopedHandleBase"*)* @_ZN7content19WebContentsObserver27OnInterfaceRequestFromFrameEPNS_15RenderFrameHostERKNSt3__112basic_stringIcNS3_11char_traitsIcEENS3_9allocatorIcEEEEPN4mojo16ScopedHandleBaseINSC_17MessagePipeHandleEEE to i8*), i8* bitcast (void (%"class.content::WebContentsObserver"*, %"struct.std::__1::pair.355"*)* @_ZN7content19WebContentsObserver27AudioContextPlaybackStartedERKNSt3__14pairIPNS_15RenderFrameHostEiEE to i8*), i8* bitcast (void (%"class.content::WebContentsObserver"*, %"struct.std::__1::pair.355"*)* @_ZN7content19WebContentsObserver27AudioContextPlaybackStoppedERKNSt3__14pairIPNS_15RenderFrameHostEiEE to i8*), i8* bitcast (void (%"class.content::WebContentsObserver"*, %"class.content::RenderFrameHost"*, %class.GURL*, i24)* @_ZN7content19WebContentsObserver23OnServiceWorkerAccessedEPNS_15RenderFrameHostERK4GURLNS_24AllowServiceWorkerResultE to i8*), i8* bitcast (void (%"class.content::WebContentsObserver"*, %"class.content::NavigationHandle"*, %class.GURL*, i24)* @_ZN7content19WebContentsObserver23OnServiceWorkerAccessedEPNS_16NavigationHandleERK4GURLNS_24AllowServiceWorkerResultE to i8*)], [5 x i8*] [i8* inttoptr (i64 -24 to i8*), i8* null, i8* bitcast (void (%"class.content::PresentationServiceImpl"*)* @_ZThn24_N7content23PresentationServiceImpl19OnDelegateDestroyedEv to i8*), i8* bitcast (void (%"class.content::PresentationServiceImpl"*)* @_ZThn24_N7content23PresentationServiceImplD1Ev to i8*), i8* bitcast (void (%"class.content::PresentationServiceImpl"*)* @_ZThn24_N7content23PresentationServiceImplD0Ev to i8*)] }, align 8
@.str = private unnamed_addr constant [64 x i8] c"../../content/browser/presentation/presentation_service_impl.cc\00", align 1
@.str.1 = private unnamed_addr constant [40 x i8] c"render_frame_host_->IsRenderFrameLive()\00", align 1
@.str.2 = private unnamed_addr constant [64 x i8] c"There can only be one PresentationController at any given time.\00", align 1
@_ZN8switches36kForcePresentationReceiverForTestingE = external constant [0 x i8], align 1
@.str.3 = private unnamed_addr constant [72 x i8] c"SetReceiver can only be called from a presentation receiver main frame.\00", align 1
@.str.4 = private unnamed_addr constant [37 x i8] c"SetReceiver can only be called once.\00", align 1
@.str.5 = private unnamed_addr constant [18 x i8] c"No screens found.\00", align 1
@.str.6 = private unnamed_addr constant [39 x i8] c"Error joining route: No matching route\00", align 1
@.str.7 = private unnamed_addr constant [37 x i8] c"pending_start_presentation_cb_.get()\00", align 1
@_ZTVN7content23PresentationServiceImpl30ScreenAvailabilityListenerImplE = hidden unnamed_addr constant { [6 x i8*] } { [6 x i8*] [i8* null, i8* null, i8* bitcast (void (%"class.content::PresentationServiceImpl::ScreenAvailabilityListenerImpl"*)* @_ZN7content23PresentationServiceImpl30ScreenAvailabilityListenerImplD2Ev to i8*), i8* bitcast (void (%"class.content::PresentationServiceImpl::ScreenAvailabilityListenerImpl"*)* @_ZN7content23PresentationServiceImpl30ScreenAvailabilityListenerImplD0Ev to i8*), i8* bitcast (void (%class.GURL*, %"class.content::PresentationServiceImpl::ScreenAvailabilityListenerImpl"*)* @_ZN7content23PresentationServiceImpl30ScreenAvailabilityListenerImpl18GetAvailabilityUrlEv to i8*), i8* bitcast (void (%"class.content::PresentationServiceImpl::ScreenAvailabilityListenerImpl"*, i32)* @_ZN7content23PresentationServiceImpl30ScreenAvailabilityListenerImpl27OnScreenAvailabilityChangedEN5blink5mojom18ScreenAvailabilityE to i8*)] }, align 8
@.str.8 = private unnamed_addr constant [44 x i8] c"The frame is navigating or being destroyed.\00", align 1
@_ZTVN5blink5mojom19PresentationServiceE = linkonce_odr hidden unnamed_addr constant { [13 x i8*] } { [13 x i8*] [i8* null, i8* null, i8* bitcast (void (%"class.blink::mojom::PresentationService"*)* @_ZN5blink5mojom19PresentationServiceD2Ev to i8*), i8* bitcast (void (%"class.blink::mojom::PresentationService"*)* @_ZN5blink5mojom19PresentationServiceD0Ev to i8*), i8* bitcast (void ()* @__cxa_pure_virtual to i8*), i8* bitcast (void ()* @__cxa_pure_virtual to i8*), i8* bitcast (void ()* @__cxa_pure_virtual to i8*), i8* bitcast (void ()* @__cxa_pure_virtual to i8*), i8* bitcast (void ()* @__cxa_pure_virtual to i8*), i8* bitcast (void ()* @__cxa_pure_virtual to i8*), i8* bitcast (void ()* @__cxa_pure_virtual to i8*), i8* bitcast (void ()* @__cxa_pure_virtual to i8*), i8* bitcast (void ()* @__cxa_pure_virtual to i8*)] }, comdat, align 8
@.str.9 = private unnamed_addr constant [69 x i8] c"There is already an unsettled Promise from a previous call to start.\00", align 1
@_ZZN7content12_GLOBAL__N_116GetNextRequestIdEvE15next_request_id = internal unnamed_addr global i32 0, align 4
@_ZTVN4mojo15ReceiverSetBaseINS_8ReceiverIN5blink5mojom19PresentationServiceENS_19RawPtrImplRefTraitsIS4_EEEEvE13ReceiverEntryE = linkonce_odr hidden unnamed_addr constant { [7 x i8*] } { [7 x i8*] [i8* null, i8* null, i8* bitcast (void (%"class.mojo::ReceiverSetBase<mojo::Receiver<blink::mojom::PresentationService, mojo::RawPtrImplRefTraits<blink::mojom::PresentationService> >, void>::ReceiverEntry"*)* @_ZN4mojo15ReceiverSetBaseINS_8ReceiverIN5blink5mojom19PresentationServiceENS_19RawPtrImplRefTraitsIS4_EEEEvE13ReceiverEntryD2Ev to i8*), i8* bitcast (void (%"class.mojo::ReceiverSetBase<mojo::Receiver<blink::mojom::PresentationService, mojo::RawPtrImplRefTraits<blink::mojom::PresentationService> >, void>::ReceiverEntry"*)* @_ZN4mojo15ReceiverSetBaseINS_8ReceiverIN5blink5mojom19PresentationServiceENS_19RawPtrImplRefTraitsIS4_EEEEvE13ReceiverEntryD0Ev to i8*), i8* bitcast (i8* (%"class.mojo::ReceiverSetBase<mojo::Receiver<blink::mojom::PresentationService, mojo::RawPtrImplRefTraits<blink::mojom::PresentationService> >, void>::ReceiverEntry"*)* @_ZNK4mojo15ReceiverSetBaseINS_8ReceiverIN5blink5mojom19PresentationServiceENS_19RawPtrImplRefTraitsIS4_EEEEvE13ReceiverEntry10GetContextEv to i8*), i8* bitcast (void (%"class.mojo::ReceiverSetBase<mojo::Receiver<blink::mojom::PresentationService, mojo::RawPtrImplRefTraits<blink::mojom::PresentationService> >, void>::ReceiverEntry"*, %"class.mojo::MessageFilter"*, %"class.base::RepeatingCallback.241"*)* @_ZN4mojo15ReceiverSetBaseINS_8ReceiverIN5blink5mojom19PresentationServiceENS_19RawPtrImplRefTraitsIS4_EEEEvE13ReceiverEntry20InstallDispatchHooksENSt3__110unique_ptrINS_13MessageFilterENSA_14default_deleteISC_EEEEN4base17RepeatingCallbackIFvjRKNSA_12basic_stringIcNSA_11char_traitsIcEENSA_9allocatorIcEEEEEEE to i8*), i8* bitcast (void (%"class.mojo::ReceiverSetBase<mojo::Receiver<blink::mojom::PresentationService, mojo::RawPtrImplRefTraits<blink::mojom::PresentationService> >, void>::ReceiverEntry"*)* @_ZN4mojo15ReceiverSetBaseINS_8ReceiverIN5blink5mojom19PresentationServiceENS_19RawPtrImplRefTraitsIS4_EEEEvE13ReceiverEntry15FlushForTestingEv to i8*)] }, comdat, align 8
@_ZTVN5blink5mojom23PresentationServiceStubIN4mojo19RawPtrImplRefTraitsINS0_19PresentationServiceEEEEE = linkonce_odr hidden unnamed_addr constant { [7 x i8*] } { [7 x i8*] [i8* null, i8* null, i8* bitcast (void (%"class.mojo::MessageReceiver"*)* @_ZN4mojo15MessageReceiverD2Ev to i8*), i8* bitcast (void (%"class.blink::mojom::PresentationServiceStub"*)* @_ZN5blink5mojom23PresentationServiceStubIN4mojo19RawPtrImplRefTraitsINS0_19PresentationServiceEEEED0Ev to i8*), i8* bitcast (i1 (%"class.mojo::MessageReceiver"*)* @_ZN4mojo15MessageReceiver25PrefersSerializedMessagesEv to i8*), i8* bitcast (i1 (%"class.blink::mojom::PresentationServiceStub"*, %"class.mojo::Message"*)* @_ZN5blink5mojom23PresentationServiceStubIN4mojo19RawPtrImplRefTraitsINS0_19PresentationServiceEEEE6AcceptEPNS2_7MessageE to i8*), i8* bitcast (i1 (%"class.blink::mojom::PresentationServiceStub"*, %"class.mojo::Message"*, %"class.mojo::MessageReceiverWithStatus"*)* @_ZN5blink5mojom23PresentationServiceStubIN4mojo19RawPtrImplRefTraitsINS0_19PresentationServiceEEEE19AcceptWithResponderEPNS2_7MessageENSt3__110unique_ptrINS2_25MessageReceiverWithStatusENS9_14default_deleteISB_EEEE to i8*)] }, comdat, align 8
@_ZN5blink5mojom19PresentationService5Name_E = external constant [0 x i8], align 1
@_ZTVN5blink5mojom35PresentationServiceRequestValidatorE = external unnamed_addr constant { [6 x i8*] }, align 8
@_ZN5blink5mojom22PresentationController5Name_E = external constant [0 x i8], align 1
@_ZN5blink5mojom20PresentationReceiver5Name_E = external constant [0 x i8], align 1
@.str.11 = private unnamed_addr constant [29 x i8] c"../../base/memory/weak_ptr.h\00", align 1
@.str.12 = private unnamed_addr constant [15 x i8] c"ref_.IsValid()\00", align 1
@_ZNSt3__1L19piecewise_constructE = internal constant %"struct.std::__1::piecewise_construct_t" undef, align 1

@_ZN7content23PresentationServiceImplC1EPNS_15RenderFrameHostEPNS_11WebContentsEPNS_37ControllerPresentationServiceDelegateEPNS_35ReceiverPresentationServiceDelegateE = hidden unnamed_addr alias void (%"class.content::PresentationServiceImpl"*, %"class.content::RenderFrameHost"*, %"class.content::WebContents"*, %"class.content::ControllerPresentationServiceDelegate"*, %"class.content::ReceiverPresentationServiceDelegate"*), void (%"class.content::PresentationServiceImpl"*, %"class.content::RenderFrameHost"*, %"class.content::WebContents"*, %"class.content::ControllerPresentationServiceDelegate"*, %"class.content::ReceiverPresentationServiceDelegate"*)* @_ZN7content23PresentationServiceImplC2EPNS_15RenderFrameHostEPNS_11WebContentsEPNS_37ControllerPresentationServiceDelegateEPNS_35ReceiverPresentationServiceDelegateE
@_ZN7content23PresentationServiceImplD1Ev = hidden unnamed_addr alias void (%"class.content::PresentationServiceImpl"*), void (%"class.content::PresentationServiceImpl"*)* @_ZN7content23PresentationServiceImplD2Ev
@_ZN7content23PresentationServiceImpl30ScreenAvailabilityListenerImplC1ERK4GURLPS0_ = hidden unnamed_addr alias void (%"class.content::PresentationServiceImpl::ScreenAvailabilityListenerImpl"*, %class.GURL*, %"class.content::PresentationServiceImpl"*), void (%"class.content::PresentationServiceImpl::ScreenAvailabilityListenerImpl"*, %class.GURL*, %"class.content::PresentationServiceImpl"*)* @_ZN7content23PresentationServiceImpl30ScreenAvailabilityListenerImplC2ERK4GURLPS0_
@_ZN7content23PresentationServiceImpl30ScreenAvailabilityListenerImplD1Ev = hidden unnamed_addr alias void (%"class.content::PresentationServiceImpl::ScreenAvailabilityListenerImpl"*), void (%"class.content::PresentationServiceImpl::ScreenAvailabilityListenerImpl"*)* @_ZN7content23PresentationServiceImpl30ScreenAvailabilityListenerImplD2Ev
@_ZN7content23PresentationServiceImpl30NewPresentationCallbackWrapperC1EN4base12OnceCallbackIFvN4mojo9StructPtrIN5blink5mojom28PresentationConnectionResultEEENS4_16InlinedStructPtrINS7_17PresentationErrorEEEEEE = hidden unnamed_addr alias void (%"class.content::PresentationServiceImpl::NewPresentationCallbackWrapper"*, %"class.base::OnceCallback.218"*), void (%"class.content::PresentationServiceImpl::NewPresentationCallbackWrapper"*, %"class.base::OnceCallback.218"*)* @_ZN7content23PresentationServiceImpl30NewPresentationCallbackWrapperC2EN4base12OnceCallbackIFvN4mojo9StructPtrIN5blink5mojom28PresentationConnectionResultEEENS4_16InlinedStructPtrINS7_17PresentationErrorEEEEEE
@_ZN7content23PresentationServiceImpl30NewPresentationCallbackWrapperD1Ev = hidden unnamed_addr alias void (%"class.content::PresentationServiceImpl::NewPresentationCallbackWrapper"*), void (%"class.content::PresentationServiceImpl::NewPresentationCallbackWrapper"*)* @_ZN7content23PresentationServiceImpl30NewPresentationCallbackWrapperD2Ev

; Function Attrs: nounwind ssp uwtable
define hidden void @_ZN7content23PresentationServiceImplC2EPNS_15RenderFrameHostEPNS_11WebContentsEPNS_37ControllerPresentationServiceDelegateEPNS_35ReceiverPresentationServiceDelegateE(%"class.content::PresentationServiceImpl"*, %"class.content::RenderFrameHost"*, %"class.content::WebContents"*, %"class.content::ControllerPresentationServiceDelegate"*, %"class.content::ReceiverPresentationServiceDelegate"*) unnamed_addr #0 align 2 {
  %6 = alloca %"class.logging::CheckError", align 8
  %7 = getelementptr inbounds %"class.content::PresentationServiceImpl", %"class.content::PresentationServiceImpl"* %0, i64 0, i32 0, i32 0
  store i32 (...)** bitcast (i8** getelementptr inbounds ({ [13 x i8*] }, { [13 x i8*] }* @_ZTVN5blink5mojom19PresentationServiceE, i64 0, inrange i32 0, i64 2) to i32 (...)**), i32 (...)*** %7, align 8
  %8 = getelementptr inbounds %"class.content::PresentationServiceImpl", %"class.content::PresentationServiceImpl"* %0, i64 0, i32 1
  tail call void @_ZN7content19WebContentsObserverC2EPNS_11WebContentsE(%"class.content::WebContentsObserver"* %8, %"class.content::WebContents"* %2) #15
  %9 = getelementptr inbounds %"class.content::PresentationServiceImpl", %"class.content::PresentationServiceImpl"* %0, i64 0, i32 2
  %10 = getelementptr inbounds %"class.content::PresentationServiceDelegate::Observer", %"class.content::PresentationServiceDelegate::Observer"* %9, i64 0, i32 0
  %11 = bitcast %"class.content::PresentationServiceImpl"* %0 to <2 x i32 (...)**>*
  store <2 x i32 (...)**> <i32 (...)** bitcast (i8** getelementptr inbounds ({ [15 x i8*], [109 x i8*], [5 x i8*] }, { [15 x i8*], [109 x i8*], [5 x i8*] }* @_ZTVN7content23PresentationServiceImplE, i64 0, inrange i32 0, i64 2) to i32 (...)**), i32 (...)** bitcast (i8** getelementptr inbounds ({ [15 x i8*], [109 x i8*], [5 x i8*] }, { [15 x i8*], [109 x i8*], [5 x i8*] }* @_ZTVN7content23PresentationServiceImplE, i64 0, inrange i32 1, i64 2) to i32 (...)**)>, <2 x i32 (...)**>* %11, align 8
  store i32 (...)** bitcast (i8** getelementptr inbounds ({ [15 x i8*], [109 x i8*], [5 x i8*] }, { [15 x i8*], [109 x i8*], [5 x i8*] }* @_ZTVN7content23PresentationServiceImplE, i64 0, inrange i32 2, i64 2) to i32 (...)**), i32 (...)*** %10, align 8
  %12 = getelementptr inbounds %"class.content::PresentationServiceImpl", %"class.content::PresentationServiceImpl"* %0, i64 0, i32 3
  store %"class.content::RenderFrameHost"* %1, %"class.content::RenderFrameHost"** %12, align 8
  %13 = getelementptr inbounds %"class.content::PresentationServiceImpl", %"class.content::PresentationServiceImpl"* %0, i64 0, i32 4
  store %"class.content::ControllerPresentationServiceDelegate"* %3, %"class.content::ControllerPresentationServiceDelegate"** %13, align 8
  %14 = getelementptr inbounds %"class.content::PresentationServiceImpl", %"class.content::PresentationServiceImpl"* %0, i64 0, i32 5
  store %"class.content::ReceiverPresentationServiceDelegate"* %4, %"class.content::ReceiverPresentationServiceDelegate"** %14, align 8
  %15 = getelementptr inbounds %"class.content::PresentationServiceImpl", %"class.content::PresentationServiceImpl"* %0, i64 0, i32 6
  %16 = bitcast %"class.mojo::Remote"* %15 to %"class.mojo::internal::InterfacePtrStateBase"*
  tail call void @_ZN4mojo8internal21InterfacePtrStateBaseC2Ev(%"class.mojo::internal::InterfacePtrStateBase"* %16) #15
  %17 = getelementptr inbounds %"class.content::PresentationServiceImpl", %"class.content::PresentationServiceImpl"* %0, i64 0, i32 6, i32 0, i32 1
  %18 = bitcast %"class.std::__1::unique_ptr.180"* %17 to i64*
  store i64 0, i64* %18, align 8
  %19 = getelementptr inbounds %"class.content::PresentationServiceImpl", %"class.content::PresentationServiceImpl"* %0, i64 0, i32 7
  %20 = bitcast %"class.mojo::Remote.186"* %19 to %"class.mojo::internal::InterfacePtrStateBase"*
  tail call void @_ZN4mojo8internal21InterfacePtrStateBaseC2Ev(%"class.mojo::internal::InterfacePtrStateBase"* %20) #15
  %21 = getelementptr inbounds %"class.content::PresentationServiceImpl", %"class.content::PresentationServiceImpl"* %0, i64 0, i32 7, i32 0, i32 1
  %22 = getelementptr inbounds %"class.content::PresentationServiceImpl", %"class.content::PresentationServiceImpl"* %0, i64 0, i32 9, i32 0, i32 1, i32 0, i32 0, i32 0
  %23 = getelementptr inbounds %"class.content::PresentationServiceImpl", %"class.content::PresentationServiceImpl"* %0, i64 0, i32 9, i32 0, i32 1, i32 0, i32 0
  %24 = getelementptr inbounds %"class.content::PresentationServiceImpl", %"class.content::PresentationServiceImpl"* %0, i64 0, i32 9, i32 0, i32 0
  %25 = bitcast %"class.std::__1::__tree_node_base"** %22 to i8*
  tail call void @llvm.memset.p0i8.i64(i8* align 8 %25, i8 0, i64 16, i1 false) #15
  %26 = bitcast %"class.std::__1::unique_ptr.188"* %21 to i8*
  call void @llvm.memset.p0i8.i64(i8* align 8 %26, i8 0, i64 32, i1 false)
  store %"class.std::__1::__tree_end_node"* %23, %"class.std::__1::__tree_end_node"** %24, align 8
  %27 = getelementptr inbounds %"class.content::PresentationServiceImpl", %"class.content::PresentationServiceImpl"* %0, i64 0, i32 10
  store i32 -1, i32* %27, align 8
  %28 = getelementptr inbounds %"class.content::PresentationServiceImpl", %"class.content::PresentationServiceImpl"* %0, i64 0, i32 11
  %29 = getelementptr inbounds %"class.content::PresentationServiceImpl", %"class.content::PresentationServiceImpl"* %0, i64 0, i32 12, i32 0, i32 3
  %30 = bitcast %"class.std::__1::__compressed_pair.237"* %29 to i32*
  %31 = bitcast %"class.std::__1::unique_ptr.215"* %28 to i8*
  call void @llvm.memset.p0i8.i64(i8* align 8 %31, i8 0, i64 40, i1 false)
  store i32 1065353216, i32* %30, align 4
  %32 = getelementptr inbounds %"class.content::PresentationServiceImpl", %"class.content::PresentationServiceImpl"* %0, i64 0, i32 13, i32 0
  tail call void @_ZN4mojo16ReceiverSetStateC1Ev(%"class.mojo::ReceiverSetState"* %32) #15
  %33 = getelementptr inbounds %"class.content::PresentationServiceImpl", %"class.content::PresentationServiceImpl"* %0, i64 0, i32 14
  %34 = bitcast %"class.content::RenderFrameHost"* %1 to %"class.content::RenderProcessHost"* (%"class.content::RenderFrameHost"*)***
  %35 = load %"class.content::RenderProcessHost"* (%"class.content::RenderFrameHost"*)**, %"class.content::RenderProcessHost"* (%"class.content::RenderFrameHost"*)*** %34, align 8
  %36 = getelementptr inbounds %"class.content::RenderProcessHost"* (%"class.content::RenderFrameHost"*)*, %"class.content::RenderProcessHost"* (%"class.content::RenderFrameHost"*)** %35, i64 14
  %37 = load %"class.content::RenderProcessHost"* (%"class.content::RenderFrameHost"*)*, %"class.content::RenderProcessHost"* (%"class.content::RenderFrameHost"*)** %36, align 8
  %38 = tail call %"class.content::RenderProcessHost"* %37(%"class.content::RenderFrameHost"* %1) #15
  %39 = bitcast %"class.content::RenderProcessHost"* %38 to i32 (%"class.content::RenderProcessHost"*)***
  %40 = load i32 (%"class.content::RenderProcessHost"*)**, i32 (%"class.content::RenderProcessHost"*)*** %39, align 8
  %41 = getelementptr inbounds i32 (%"class.content::RenderProcessHost"*)*, i32 (%"class.content::RenderProcessHost"*)** %40, i64 29
  %42 = load i32 (%"class.content::RenderProcessHost"*)*, i32 (%"class.content::RenderProcessHost"*)** %41, align 8
  %43 = tail call i32 %42(%"class.content::RenderProcessHost"* %38) #15
  store i32 %43, i32* %33, align 8
  %44 = getelementptr inbounds %"class.content::PresentationServiceImpl", %"class.content::PresentationServiceImpl"* %0, i64 0, i32 15
  %45 = bitcast %"class.content::RenderFrameHost"* %1 to i32 (%"class.content::RenderFrameHost"*)***
  %46 = load i32 (%"class.content::RenderFrameHost"*)**, i32 (%"class.content::RenderFrameHost"*)*** %45, align 8
  %47 = getelementptr inbounds i32 (%"class.content::RenderFrameHost"*)*, i32 (%"class.content::RenderFrameHost"*)** %46, i64 9
  %48 = load i32 (%"class.content::RenderFrameHost"*)*, i32 (%"class.content::RenderFrameHost"*)** %47, align 8
  %49 = tail call i32 %48(%"class.content::RenderFrameHost"* %1) #15
  store i32 %49, i32* %44, align 4
  %50 = getelementptr inbounds %"class.content::PresentationServiceImpl", %"class.content::PresentationServiceImpl"* %0, i64 0, i32 16
  %51 = bitcast %"class.content::RenderFrameHost"* %1 to %"class.content::RenderFrameHost"* (%"class.content::RenderFrameHost"*)***
  %52 = load %"class.content::RenderFrameHost"* (%"class.content::RenderFrameHost"*)**, %"class.content::RenderFrameHost"* (%"class.content::RenderFrameHost"*)*** %51, align 8
  %53 = getelementptr inbounds %"class.content::RenderFrameHost"* (%"class.content::RenderFrameHost"*)*, %"class.content::RenderFrameHost"* (%"class.content::RenderFrameHost"*)** %52, i64 20
  %54 = load %"class.content::RenderFrameHost"* (%"class.content::RenderFrameHost"*)*, %"class.content::RenderFrameHost"* (%"class.content::RenderFrameHost"*)** %53, align 8
  %55 = tail call %"class.content::RenderFrameHost"* %54(%"class.content::RenderFrameHost"* %1) #15
  %56 = icmp eq %"class.content::RenderFrameHost"* %55, null
  %57 = zext i1 %56 to i8
  store i8 %57, i8* %50, align 8
  %58 = getelementptr inbounds %"class.content::PresentationServiceImpl", %"class.content::PresentationServiceImpl"* %0, i64 0, i32 17, i32 0
  %59 = ptrtoint %"class.content::PresentationServiceImpl"* %0 to i64
  tail call void @_ZN4base8internal18WeakPtrFactoryBaseC2Em(%"class.base::internal::WeakPtrFactoryBase"* %58, i64 %59) #15
  %60 = load %"class.content::RenderFrameHost"*, %"class.content::RenderFrameHost"** %12, align 8
  %61 = bitcast %"class.content::RenderFrameHost"* %60 to i1 (%"class.content::RenderFrameHost"*)***
  %62 = load i1 (%"class.content::RenderFrameHost"*)**, i1 (%"class.content::RenderFrameHost"*)*** %61, align 8
  %63 = getelementptr inbounds i1 (%"class.content::RenderFrameHost"*)*, i1 (%"class.content::RenderFrameHost"*)** %62, i64 57
  %64 = load i1 (%"class.content::RenderFrameHost"*)*, i1 (%"class.content::RenderFrameHost"*)** %63, align 8
  %65 = tail call zeroext i1 %64(%"class.content::RenderFrameHost"* %60) #15
  br i1 %65, label %69, label %66

66:                                               ; preds = %5
  %67 = bitcast %"class.logging::CheckError"* %6 to i8*
  call void @llvm.lifetime.start.p0i8(i64 8, i8* nonnull %67) #15
  call void @_ZN7logging10CheckError5CheckEPKciS2_(%"class.logging::CheckError"* nonnull sret %6, i8* getelementptr inbounds ([64 x i8], [64 x i8]* @.str, i64 0, i64 0), i32 75, i8* getelementptr inbounds ([40 x i8], [40 x i8]* @.str.1, i64 0, i64 0)) #15
  %68 = call dereferenceable(160) %"class.std::__1::basic_ostream"* @_ZN7logging10CheckError6streamEv(%"class.logging::CheckError"* nonnull %6) #15
  call void @_ZN7logging10CheckErrorD1Ev(%"class.logging::CheckError"* nonnull %6) #15
  call void @llvm.lifetime.end.p0i8(i64 8, i8* nonnull %67) #15
  br label %69

69:                                               ; preds = %5, %66
  %70 = load %"class.content::ReceiverPresentationServiceDelegate"*, %"class.content::ReceiverPresentationServiceDelegate"** %14, align 8
  %71 = icmp eq %"class.content::ReceiverPresentationServiceDelegate"* %70, null
  br i1 %71, label %74, label %72

72:                                               ; preds = %69
  %73 = getelementptr inbounds %"class.content::ReceiverPresentationServiceDelegate", %"class.content::ReceiverPresentationServiceDelegate"* %70, i64 0, i32 0
  br label %77

74:                                               ; preds = %69
  %75 = bitcast %"class.content::ControllerPresentationServiceDelegate"** %13 to %"class.content::PresentationServiceDelegate"**
  %76 = load %"class.content::PresentationServiceDelegate"*, %"class.content::PresentationServiceDelegate"** %75, align 8
  br label %77

77:                                               ; preds = %72, %74
  %78 = phi %"class.content::PresentationServiceDelegate"* [ %73, %72 ], [ %76, %74 ]
  %79 = icmp eq %"class.content::PresentationServiceDelegate"* %78, null
  br i1 %79, label %87, label %80

80:                                               ; preds = %77
  %81 = load i32, i32* %33, align 8
  %82 = load i32, i32* %44, align 4
  %83 = bitcast %"class.content::PresentationServiceDelegate"* %78 to void (%"class.content::PresentationServiceDelegate"*, i32, i32, %"class.content::PresentationServiceDelegate::Observer"*)***
  %84 = load void (%"class.content::PresentationServiceDelegate"*, i32, i32, %"class.content::PresentationServiceDelegate::Observer"*)**, void (%"class.content::PresentationServiceDelegate"*, i32, i32, %"class.content::PresentationServiceDelegate::Observer"*)*** %83, align 8
  %85 = getelementptr inbounds void (%"class.content::PresentationServiceDelegate"*, i32, i32, %"class.content::PresentationServiceDelegate::Observer"*)*, void (%"class.content::PresentationServiceDelegate"*, i32, i32, %"class.content::PresentationServiceDelegate::Observer"*)** %84, i64 2
  %86 = load void (%"class.content::PresentationServiceDelegate"*, i32, i32, %"class.content::PresentationServiceDelegate::Observer"*)*, void (%"class.content::PresentationServiceDelegate"*, i32, i32, %"class.content::PresentationServiceDelegate::Observer"*)** %85, align 8
  call void %86(%"class.content::PresentationServiceDelegate"* nonnull %78, i32 %81, i32 %82, %"class.content::PresentationServiceDelegate::Observer"* %9) #15
  br label %87

87:                                               ; preds = %77, %80
  ret void
}

declare void @_ZN7content19WebContentsObserverC2EPNS_11WebContentsE(%"class.content::WebContentsObserver"*, %"class.content::WebContents"*) unnamed_addr #1

; Function Attrs: argmemonly nounwind
declare void @llvm.lifetime.start.p0i8(i64 immarg, i8* nocapture) #2

declare void @_ZN7logging10CheckError5CheckEPKciS2_(%"class.logging::CheckError"* sret, i8*, i32, i8*) local_unnamed_addr #1

declare dereferenceable(160) %"class.std::__1::basic_ostream"* @_ZN7logging10CheckError6streamEv(%"class.logging::CheckError"*) local_unnamed_addr #1

; Function Attrs: nounwind
declare void @_ZN7logging10CheckErrorD1Ev(%"class.logging::CheckError"*) unnamed_addr #3

; Function Attrs: argmemonly nounwind
declare void @llvm.lifetime.end.p0i8(i64 immarg, i8* nocapture) #2

; Function Attrs: norecurse nounwind readonly ssp uwtable
define hidden %"class.content::PresentationServiceDelegate"* @_ZN7content23PresentationServiceImpl30GetPresentationServiceDelegateEv(%"class.content::PresentationServiceImpl"* nocapture readonly) local_unnamed_addr #4 align 2 {
  %2 = getelementptr inbounds %"class.content::PresentationServiceImpl", %"class.content::PresentationServiceImpl"* %0, i64 0, i32 5
  %3 = load %"class.content::ReceiverPresentationServiceDelegate"*, %"class.content::ReceiverPresentationServiceDelegate"** %2, align 8
  %4 = icmp eq %"class.content::ReceiverPresentationServiceDelegate"* %3, null
  br i1 %4, label %7, label %5

5:                                                ; preds = %1
  %6 = getelementptr inbounds %"class.content::ReceiverPresentationServiceDelegate", %"class.content::ReceiverPresentationServiceDelegate"* %3, i64 0, i32 0
  br label %11

7:                                                ; preds = %1
  %8 = getelementptr inbounds %"class.content::PresentationServiceImpl", %"class.content::PresentationServiceImpl"* %0, i64 0, i32 4
  %9 = bitcast %"class.content::ControllerPresentationServiceDelegate"** %8 to %"class.content::PresentationServiceDelegate"**
  %10 = load %"class.content::PresentationServiceDelegate"*, %"class.content::PresentationServiceDelegate"** %9, align 8
  br label %11

11:                                               ; preds = %7, %5
  %12 = phi %"class.content::PresentationServiceDelegate"* [ %6, %5 ], [ %10, %7 ]
  ret %"class.content::PresentationServiceDelegate"* %12
}

; Function Attrs: nounwind ssp uwtable
define hidden void @_ZN7content23PresentationServiceImplD2Ev(%"class.content::PresentationServiceImpl"*) unnamed_addr #0 align 2 {
  %2 = getelementptr inbounds %"class.content::PresentationServiceImpl", %"class.content::PresentationServiceImpl"* %0, i64 0, i32 1
  %3 = bitcast %"class.content::PresentationServiceImpl"* %0 to <2 x i32 (...)**>*
  store <2 x i32 (...)**> <i32 (...)** bitcast (i8** getelementptr inbounds ({ [15 x i8*], [109 x i8*], [5 x i8*] }, { [15 x i8*], [109 x i8*], [5 x i8*] }* @_ZTVN7content23PresentationServiceImplE, i64 0, inrange i32 0, i64 2) to i32 (...)**), i32 (...)** bitcast (i8** getelementptr inbounds ({ [15 x i8*], [109 x i8*], [5 x i8*] }, { [15 x i8*], [109 x i8*], [5 x i8*] }* @_ZTVN7content23PresentationServiceImplE, i64 0, inrange i32 1, i64 2) to i32 (...)**)>, <2 x i32 (...)**>* %3, align 8
  %4 = getelementptr inbounds %"class.content::PresentationServiceImpl", %"class.content::PresentationServiceImpl"* %0, i64 0, i32 2, i32 0
  store i32 (...)** bitcast (i8** getelementptr inbounds ({ [15 x i8*], [109 x i8*], [5 x i8*] }, { [15 x i8*], [109 x i8*], [5 x i8*] }* @_ZTVN7content23PresentationServiceImplE, i64 0, inrange i32 2, i64 2) to i32 (...)**), i32 (...)*** %4, align 8
  tail call void @_ZN7content23PresentationServiceImpl5ResetEv(%"class.content::PresentationServiceImpl"* %0)
  %5 = getelementptr inbounds %"class.content::PresentationServiceImpl", %"class.content::PresentationServiceImpl"* %0, i64 0, i32 5
  %6 = load %"class.content::ReceiverPresentationServiceDelegate"*, %"class.content::ReceiverPresentationServiceDelegate"** %5, align 8
  %7 = icmp eq %"class.content::ReceiverPresentationServiceDelegate"* %6, null
  br i1 %7, label %10, label %8

8:                                                ; preds = %1
  %9 = getelementptr inbounds %"class.content::ReceiverPresentationServiceDelegate", %"class.content::ReceiverPresentationServiceDelegate"* %6, i64 0, i32 0
  br label %14

10:                                               ; preds = %1
  %11 = getelementptr inbounds %"class.content::PresentationServiceImpl", %"class.content::PresentationServiceImpl"* %0, i64 0, i32 4
  %12 = bitcast %"class.content::ControllerPresentationServiceDelegate"** %11 to %"class.content::PresentationServiceDelegate"**
  %13 = load %"class.content::PresentationServiceDelegate"*, %"class.content::PresentationServiceDelegate"** %12, align 8
  br label %14

14:                                               ; preds = %8, %10
  %15 = phi %"class.content::PresentationServiceDelegate"* [ %9, %8 ], [ %13, %10 ]
  %16 = icmp eq %"class.content::PresentationServiceDelegate"* %15, null
  br i1 %16, label %26, label %17

17:                                               ; preds = %14
  %18 = getelementptr inbounds %"class.content::PresentationServiceImpl", %"class.content::PresentationServiceImpl"* %0, i64 0, i32 14
  %19 = load i32, i32* %18, align 8
  %20 = getelementptr inbounds %"class.content::PresentationServiceImpl", %"class.content::PresentationServiceImpl"* %0, i64 0, i32 15
  %21 = load i32, i32* %20, align 4
  %22 = bitcast %"class.content::PresentationServiceDelegate"* %15 to void (%"class.content::PresentationServiceDelegate"*, i32, i32)***
  %23 = load void (%"class.content::PresentationServiceDelegate"*, i32, i32)**, void (%"class.content::PresentationServiceDelegate"*, i32, i32)*** %22, align 8
  %24 = getelementptr inbounds void (%"class.content::PresentationServiceDelegate"*, i32, i32)*, void (%"class.content::PresentationServiceDelegate"*, i32, i32)** %23, i64 3
  %25 = load void (%"class.content::PresentationServiceDelegate"*, i32, i32)*, void (%"class.content::PresentationServiceDelegate"*, i32, i32)** %24, align 8
  tail call void %25(%"class.content::PresentationServiceDelegate"* nonnull %15, i32 %19, i32 %21) #15
  br label %26

26:                                               ; preds = %14, %17
  %27 = getelementptr inbounds %"class.content::PresentationServiceImpl", %"class.content::PresentationServiceImpl"* %0, i64 0, i32 17, i32 0
  tail call void @_ZN4base8internal18WeakPtrFactoryBaseD2Ev(%"class.base::internal::WeakPtrFactoryBase"* %27) #15
  %28 = getelementptr inbounds %"class.content::PresentationServiceImpl", %"class.content::PresentationServiceImpl"* %0, i64 0, i32 13, i32 0
  tail call void @_ZN4mojo16ReceiverSetStateD1Ev(%"class.mojo::ReceiverSetState"* %28) #15
  %29 = getelementptr inbounds %"class.content::PresentationServiceImpl", %"class.content::PresentationServiceImpl"* %0, i64 0, i32 12, i32 0, i32 1, i32 0, i32 0, i32 0
  %30 = load %"struct.std::__1::__hash_node_base"*, %"struct.std::__1::__hash_node_base"** %29, align 8
  %31 = icmp eq %"struct.std::__1::__hash_node_base"* %30, null
  br i1 %31, label %45, label %32

32:                                               ; preds = %26, %42
  %33 = phi %"struct.std::__1::__hash_node_base"* [ %35, %42 ], [ %30, %26 ]
  %34 = getelementptr inbounds %"struct.std::__1::__hash_node_base", %"struct.std::__1::__hash_node_base"* %33, i64 0, i32 0
  %35 = load %"struct.std::__1::__hash_node_base"*, %"struct.std::__1::__hash_node_base"** %34, align 8
  %36 = getelementptr inbounds %"struct.std::__1::__hash_node_base", %"struct.std::__1::__hash_node_base"* %33, i64 3
  %37 = bitcast %"struct.std::__1::__hash_node_base"* %36 to %"class.content::PresentationServiceImpl::NewPresentationCallbackWrapper"**
  %38 = load %"class.content::PresentationServiceImpl::NewPresentationCallbackWrapper"*, %"class.content::PresentationServiceImpl::NewPresentationCallbackWrapper"** %37, align 8
  store %"class.content::PresentationServiceImpl::NewPresentationCallbackWrapper"* null, %"class.content::PresentationServiceImpl::NewPresentationCallbackWrapper"** %37, align 8
  %39 = icmp eq %"class.content::PresentationServiceImpl::NewPresentationCallbackWrapper"* %38, null
  br i1 %39, label %42, label %40

40:                                               ; preds = %32
  tail call void @_ZN7content23PresentationServiceImpl30NewPresentationCallbackWrapperD2Ev(%"class.content::PresentationServiceImpl::NewPresentationCallbackWrapper"* nonnull %38) #15
  %41 = bitcast %"class.content::PresentationServiceImpl::NewPresentationCallbackWrapper"* %38 to i8*
  tail call void @_ZdlPv(i8* %41) #16
  br label %42

42:                                               ; preds = %40, %32
  %43 = bitcast %"struct.std::__1::__hash_node_base"* %33 to i8*
  tail call void @_ZdlPv(i8* %43) #16
  %44 = icmp eq %"struct.std::__1::__hash_node_base"* %35, null
  br i1 %44, label %45, label %32

45:                                               ; preds = %42, %26
  %46 = getelementptr inbounds %"class.content::PresentationServiceImpl", %"class.content::PresentationServiceImpl"* %0, i64 0, i32 12, i32 0, i32 0, i32 0, i32 0, i32 0
  %47 = load %"struct.std::__1::__hash_node_base"**, %"struct.std::__1::__hash_node_base"*** %46, align 8
  store %"struct.std::__1::__hash_node_base"** null, %"struct.std::__1::__hash_node_base"*** %46, align 8
  %48 = icmp eq %"struct.std::__1::__hash_node_base"** %47, null
  br i1 %48, label %51, label %49

49:                                               ; preds = %45
  %50 = bitcast %"struct.std::__1::__hash_node_base"** %47 to i8*
  tail call void @_ZdlPv(i8* %50) #16
  br label %51

51:                                               ; preds = %45, %49
  %52 = getelementptr inbounds %"class.content::PresentationServiceImpl", %"class.content::PresentationServiceImpl"* %0, i64 0, i32 11, i32 0, i32 0, i32 0
  %53 = load %"class.content::PresentationServiceImpl::NewPresentationCallbackWrapper"*, %"class.content::PresentationServiceImpl::NewPresentationCallbackWrapper"** %52, align 8
  store %"class.content::PresentationServiceImpl::NewPresentationCallbackWrapper"* null, %"class.content::PresentationServiceImpl::NewPresentationCallbackWrapper"** %52, align 8
  %54 = icmp eq %"class.content::PresentationServiceImpl::NewPresentationCallbackWrapper"* %53, null
  br i1 %54, label %57, label %55

55:                                               ; preds = %51
  tail call void @_ZN7content23PresentationServiceImpl30NewPresentationCallbackWrapperD2Ev(%"class.content::PresentationServiceImpl::NewPresentationCallbackWrapper"* nonnull %53) #15
  %56 = bitcast %"class.content::PresentationServiceImpl::NewPresentationCallbackWrapper"* %53 to i8*
  tail call void @_ZdlPv(i8* %56) #16
  br label %57

57:                                               ; preds = %51, %55
  %58 = getelementptr inbounds %"class.content::PresentationServiceImpl", %"class.content::PresentationServiceImpl"* %0, i64 0, i32 9, i32 0
  %59 = getelementptr inbounds %"class.content::PresentationServiceImpl", %"class.content::PresentationServiceImpl"* %0, i64 0, i32 9, i32 0, i32 1, i32 0, i32 0
  %60 = bitcast %"class.std::__1::__tree_end_node"* %59 to %"class.std::__1::__tree_node"**
  %61 = load %"class.std::__1::__tree_node"*, %"class.std::__1::__tree_node"** %60, align 8
  tail call void @_ZNSt3__16__treeINS_12__value_typeI4GURLNS_10unique_ptrIN7content23PresentationServiceImpl30ScreenAvailabilityListenerImplENS_14default_deleteIS6_EEEEEENS_19__map_value_compareIS2_SA_NS_4lessIS2_EELb1EEENS_9allocatorISA_EEE7destroyEPNS_11__tree_nodeISA_PvEE(%"class.std::__1::__tree.205"* %58, %"class.std::__1::__tree_node"* %61) #15
  %62 = getelementptr inbounds %"class.content::PresentationServiceImpl", %"class.content::PresentationServiceImpl"* %0, i64 0, i32 8
  %63 = getelementptr inbounds %"class.std::__1::vector", %"class.std::__1::vector"* %62, i64 0, i32 0, i32 0
  %64 = load %class.GURL*, %class.GURL** %63, align 8
  %65 = icmp eq %class.GURL* %64, null
  br i1 %65, label %80, label %66

66:                                               ; preds = %57
  %67 = bitcast %class.GURL* %64 to i8*
  %68 = getelementptr inbounds %"class.content::PresentationServiceImpl", %"class.content::PresentationServiceImpl"* %0, i64 0, i32 8, i32 0, i32 1
  %69 = load %class.GURL*, %class.GURL** %68, align 8
  %70 = icmp eq %class.GURL* %69, %64
  br i1 %70, label %78, label %71

71:                                               ; preds = %66, %71
  %72 = phi %class.GURL* [ %73, %71 ], [ %69, %66 ]
  %73 = getelementptr inbounds %class.GURL, %class.GURL* %72, i64 -1
  tail call void @_ZN4GURLD1Ev(%class.GURL* %73) #15
  %74 = icmp eq %class.GURL* %73, %64
  br i1 %74, label %75, label %71

75:                                               ; preds = %71
  %76 = bitcast %"class.std::__1::vector"* %62 to i8**
  %77 = load i8*, i8** %76, align 8
  br label %78

78:                                               ; preds = %75, %66
  %79 = phi i8* [ %77, %75 ], [ %67, %66 ]
  store %class.GURL* %64, %class.GURL** %68, align 8
  tail call void @_ZdlPv(i8* %79) #16
  br label %80

80:                                               ; preds = %57, %78
  %81 = getelementptr inbounds %"class.content::PresentationServiceImpl", %"class.content::PresentationServiceImpl"* %0, i64 0, i32 7
  %82 = getelementptr inbounds %"class.content::PresentationServiceImpl", %"class.content::PresentationServiceImpl"* %0, i64 0, i32 7, i32 0, i32 1, i32 0, i32 0, i32 0
  %83 = load %"class.blink::mojom::PresentationReceiverProxy"*, %"class.blink::mojom::PresentationReceiverProxy"** %82, align 8
  store %"class.blink::mojom::PresentationReceiverProxy"* null, %"class.blink::mojom::PresentationReceiverProxy"** %82, align 8
  %84 = icmp eq %"class.blink::mojom::PresentationReceiverProxy"* %83, null
  br i1 %84, label %90, label %85

85:                                               ; preds = %80
  %86 = bitcast %"class.blink::mojom::PresentationReceiverProxy"* %83 to void (%"class.blink::mojom::PresentationReceiverProxy"*)***
  %87 = load void (%"class.blink::mojom::PresentationReceiverProxy"*)**, void (%"class.blink::mojom::PresentationReceiverProxy"*)*** %86, align 8
  %88 = getelementptr inbounds void (%"class.blink::mojom::PresentationReceiverProxy"*)*, void (%"class.blink::mojom::PresentationReceiverProxy"*)** %87, i64 1
  %89 = load void (%"class.blink::mojom::PresentationReceiverProxy"*)*, void (%"class.blink::mojom::PresentationReceiverProxy"*)** %88, align 8
  tail call void %89(%"class.blink::mojom::PresentationReceiverProxy"* nonnull %83) #15
  br label %90

90:                                               ; preds = %80, %85
  %91 = bitcast %"class.mojo::Remote.186"* %81 to %"class.mojo::internal::InterfacePtrStateBase"*
  tail call void @_ZN4mojo8internal21InterfacePtrStateBaseD2Ev(%"class.mojo::internal::InterfacePtrStateBase"* %91) #15
  %92 = getelementptr inbounds %"class.content::PresentationServiceImpl", %"class.content::PresentationServiceImpl"* %0, i64 0, i32 6
  %93 = getelementptr inbounds %"class.content::PresentationServiceImpl", %"class.content::PresentationServiceImpl"* %0, i64 0, i32 6, i32 0, i32 1, i32 0, i32 0, i32 0
  %94 = load %"class.blink::mojom::PresentationControllerProxy"*, %"class.blink::mojom::PresentationControllerProxy"** %93, align 8
  store %"class.blink::mojom::PresentationControllerProxy"* null, %"class.blink::mojom::PresentationControllerProxy"** %93, align 8
  %95 = icmp eq %"class.blink::mojom::PresentationControllerProxy"* %94, null
  br i1 %95, label %101, label %96

96:                                               ; preds = %90
  %97 = bitcast %"class.blink::mojom::PresentationControllerProxy"* %94 to void (%"class.blink::mojom::PresentationControllerProxy"*)***
  %98 = load void (%"class.blink::mojom::PresentationControllerProxy"*)**, void (%"class.blink::mojom::PresentationControllerProxy"*)*** %97, align 8
  %99 = getelementptr inbounds void (%"class.blink::mojom::PresentationControllerProxy"*)*, void (%"class.blink::mojom::PresentationControllerProxy"*)** %98, i64 1
  %100 = load void (%"class.blink::mojom::PresentationControllerProxy"*)*, void (%"class.blink::mojom::PresentationControllerProxy"*)** %99, align 8
  tail call void %100(%"class.blink::mojom::PresentationControllerProxy"* nonnull %94) #15
  br label %101

101:                                              ; preds = %90, %96
  %102 = bitcast %"class.mojo::Remote"* %92 to %"class.mojo::internal::InterfacePtrStateBase"*
  tail call void @_ZN4mojo8internal21InterfacePtrStateBaseD2Ev(%"class.mojo::internal::InterfacePtrStateBase"* %102) #15
  tail call void @_ZN7content19WebContentsObserverD2Ev(%"class.content::WebContentsObserver"* %2) #15
  ret void
}

; Function Attrs: nounwind ssp uwtable
define hidden void @_ZN7content23PresentationServiceImpl5ResetEv(%"class.content::PresentationServiceImpl"*) local_unnamed_addr #0 align 2 {
  %2 = alloca %"class.mojo::internal::InterfacePtrState.187", align 8
  %3 = alloca %"class.mojo::internal::InterfacePtrState", align 8
  %4 = getelementptr inbounds %"class.content::PresentationServiceImpl", %"class.content::PresentationServiceImpl"* %0, i64 0, i32 4
  %5 = load %"class.content::ControllerPresentationServiceDelegate"*, %"class.content::ControllerPresentationServiceDelegate"** %4, align 8
  %6 = icmp eq %"class.content::ControllerPresentationServiceDelegate"* %5, null
  br i1 %6, label %17, label %7

7:                                                ; preds = %1
  %8 = getelementptr inbounds %"class.content::ControllerPresentationServiceDelegate", %"class.content::ControllerPresentationServiceDelegate"* %5, i64 0, i32 0
  %9 = getelementptr inbounds %"class.content::PresentationServiceImpl", %"class.content::PresentationServiceImpl"* %0, i64 0, i32 14
  %10 = load i32, i32* %9, align 8
  %11 = getelementptr inbounds %"class.content::PresentationServiceImpl", %"class.content::PresentationServiceImpl"* %0, i64 0, i32 15
  %12 = load i32, i32* %11, align 4
  %13 = bitcast %"class.content::ControllerPresentationServiceDelegate"* %5 to void (%"class.content::PresentationServiceDelegate"*, i32, i32)***
  %14 = load void (%"class.content::PresentationServiceDelegate"*, i32, i32)**, void (%"class.content::PresentationServiceDelegate"*, i32, i32)*** %13, align 8
  %15 = getelementptr inbounds void (%"class.content::PresentationServiceDelegate"*, i32, i32)*, void (%"class.content::PresentationServiceDelegate"*, i32, i32)** %14, i64 4
  %16 = load void (%"class.content::PresentationServiceDelegate"*, i32, i32)*, void (%"class.content::PresentationServiceDelegate"*, i32, i32)** %15, align 8
  tail call void %16(%"class.content::PresentationServiceDelegate"* %8, i32 %10, i32 %12) #15
  br label %17

17:                                               ; preds = %1, %7
  %18 = getelementptr inbounds %"class.content::PresentationServiceImpl", %"class.content::PresentationServiceImpl"* %0, i64 0, i32 5
  %19 = load %"class.content::ReceiverPresentationServiceDelegate"*, %"class.content::ReceiverPresentationServiceDelegate"** %18, align 8
  %20 = icmp eq %"class.content::ReceiverPresentationServiceDelegate"* %19, null
  br i1 %20, label %35, label %21

21:                                               ; preds = %17
  %22 = getelementptr inbounds %"class.content::PresentationServiceImpl", %"class.content::PresentationServiceImpl"* %0, i64 0, i32 16
  %23 = load i8, i8* %22, align 8, !range !2
  %24 = icmp eq i8 %23, 0
  br i1 %24, label %35, label %25

25:                                               ; preds = %21
  %26 = getelementptr inbounds %"class.content::ReceiverPresentationServiceDelegate", %"class.content::ReceiverPresentationServiceDelegate"* %19, i64 0, i32 0
  %27 = getelementptr inbounds %"class.content::PresentationServiceImpl", %"class.content::PresentationServiceImpl"* %0, i64 0, i32 14
  %28 = load i32, i32* %27, align 8
  %29 = getelementptr inbounds %"class.content::PresentationServiceImpl", %"class.content::PresentationServiceImpl"* %0, i64 0, i32 15
  %30 = load i32, i32* %29, align 4
  %31 = bitcast %"class.content::ReceiverPresentationServiceDelegate"* %19 to void (%"class.content::PresentationServiceDelegate"*, i32, i32)***
  %32 = load void (%"class.content::PresentationServiceDelegate"*, i32, i32)**, void (%"class.content::PresentationServiceDelegate"*, i32, i32)*** %31, align 8
  %33 = getelementptr inbounds void (%"class.content::PresentationServiceDelegate"*, i32, i32)*, void (%"class.content::PresentationServiceDelegate"*, i32, i32)** %32, i64 4
  %34 = load void (%"class.content::PresentationServiceDelegate"*, i32, i32)*, void (%"class.content::PresentationServiceDelegate"*, i32, i32)** %33, align 8
  tail call void %34(%"class.content::PresentationServiceDelegate"* %26, i32 %28, i32 %30) #15
  br label %35

35:                                               ; preds = %21, %17, %25
  %36 = getelementptr inbounds %"class.content::PresentationServiceImpl", %"class.content::PresentationServiceImpl"* %0, i64 0, i32 8, i32 0, i32 0
  %37 = load %class.GURL*, %class.GURL** %36, align 8
  %38 = getelementptr inbounds %"class.content::PresentationServiceImpl", %"class.content::PresentationServiceImpl"* %0, i64 0, i32 8, i32 0, i32 1
  %39 = load %class.GURL*, %class.GURL** %38, align 8
  %40 = icmp eq %class.GURL* %39, %37
  br i1 %40, label %45, label %41

41:                                               ; preds = %35, %41
  %42 = phi %class.GURL* [ %43, %41 ], [ %39, %35 ]
  %43 = getelementptr inbounds %class.GURL, %class.GURL* %42, i64 -1
  tail call void @_ZN4GURLD1Ev(%class.GURL* %43) #15
  %44 = icmp eq %class.GURL* %43, %37
  br i1 %44, label %45, label %41

45:                                               ; preds = %41, %35
  store %class.GURL* %37, %class.GURL** %38, align 8
  %46 = getelementptr inbounds %"class.content::PresentationServiceImpl", %"class.content::PresentationServiceImpl"* %0, i64 0, i32 9
  %47 = getelementptr inbounds %"class.std::__1::map.204", %"class.std::__1::map.204"* %46, i64 0, i32 0
  %48 = getelementptr inbounds %"class.content::PresentationServiceImpl", %"class.content::PresentationServiceImpl"* %0, i64 0, i32 9, i32 0, i32 1, i32 0, i32 0
  %49 = bitcast %"class.std::__1::__tree_end_node"* %48 to %"class.std::__1::__tree_node"**
  %50 = load %"class.std::__1::__tree_node"*, %"class.std::__1::__tree_node"** %49, align 8
  tail call void @_ZNSt3__16__treeINS_12__value_typeI4GURLNS_10unique_ptrIN7content23PresentationServiceImpl30ScreenAvailabilityListenerImplENS_14default_deleteIS6_EEEEEENS_19__map_value_compareIS2_SA_NS_4lessIS2_EELb1EEENS_9allocatorISA_EEE7destroyEPNS_11__tree_nodeISA_PvEE(%"class.std::__1::__tree.205"* %47, %"class.std::__1::__tree_node"* %50) #15
  %51 = getelementptr inbounds %"class.content::PresentationServiceImpl", %"class.content::PresentationServiceImpl"* %0, i64 0, i32 9, i32 0, i32 2, i32 0, i32 0
  store i64 0, i64* %51, align 8
  %52 = getelementptr inbounds %"class.std::__1::map.204", %"class.std::__1::map.204"* %46, i64 0, i32 0, i32 0
  store %"class.std::__1::__tree_end_node"* %48, %"class.std::__1::__tree_end_node"** %52, align 8
  %53 = getelementptr inbounds %"class.std::__1::__tree_end_node", %"class.std::__1::__tree_end_node"* %48, i64 0, i32 0
  store %"class.std::__1::__tree_node_base"* null, %"class.std::__1::__tree_node_base"** %53, align 8
  %54 = getelementptr inbounds %"class.content::PresentationServiceImpl", %"class.content::PresentationServiceImpl"* %0, i64 0, i32 10
  store i32 -1, i32* %54, align 8
  %55 = getelementptr inbounds %"class.content::PresentationServiceImpl", %"class.content::PresentationServiceImpl"* %0, i64 0, i32 11, i32 0, i32 0, i32 0
  %56 = load %"class.content::PresentationServiceImpl::NewPresentationCallbackWrapper"*, %"class.content::PresentationServiceImpl::NewPresentationCallbackWrapper"** %55, align 8
  store %"class.content::PresentationServiceImpl::NewPresentationCallbackWrapper"* null, %"class.content::PresentationServiceImpl::NewPresentationCallbackWrapper"** %55, align 8
  %57 = icmp eq %"class.content::PresentationServiceImpl::NewPresentationCallbackWrapper"* %56, null
  br i1 %57, label %60, label %58

58:                                               ; preds = %45
  tail call void @_ZN7content23PresentationServiceImpl30NewPresentationCallbackWrapperD2Ev(%"class.content::PresentationServiceImpl::NewPresentationCallbackWrapper"* nonnull %56) #15
  %59 = bitcast %"class.content::PresentationServiceImpl::NewPresentationCallbackWrapper"* %56 to i8*
  tail call void @_ZdlPv(i8* %59) #16
  br label %60

60:                                               ; preds = %45, %58
  %61 = getelementptr inbounds %"class.content::PresentationServiceImpl", %"class.content::PresentationServiceImpl"* %0, i64 0, i32 12, i32 0, i32 2, i32 0, i32 0
  %62 = load i64, i64* %61, align 8
  %63 = icmp eq i64 %62, 0
  br i1 %63, label %121, label %64

64:                                               ; preds = %60
  %65 = getelementptr inbounds %"class.content::PresentationServiceImpl", %"class.content::PresentationServiceImpl"* %0, i64 0, i32 12, i32 0, i32 1, i32 0, i32 0, i32 0
  %66 = load %"struct.std::__1::__hash_node_base"*, %"struct.std::__1::__hash_node_base"** %65, align 8
  %67 = icmp eq %"struct.std::__1::__hash_node_base"* %66, null
  br i1 %67, label %81, label %68

68:                                               ; preds = %64, %78
  %69 = phi %"struct.std::__1::__hash_node_base"* [ %71, %78 ], [ %66, %64 ]
  %70 = getelementptr inbounds %"struct.std::__1::__hash_node_base", %"struct.std::__1::__hash_node_base"* %69, i64 0, i32 0
  %71 = load %"struct.std::__1::__hash_node_base"*, %"struct.std::__1::__hash_node_base"** %70, align 8
  %72 = getelementptr inbounds %"struct.std::__1::__hash_node_base", %"struct.std::__1::__hash_node_base"* %69, i64 3
  %73 = bitcast %"struct.std::__1::__hash_node_base"* %72 to %"class.content::PresentationServiceImpl::NewPresentationCallbackWrapper"**
  %74 = load %"class.content::PresentationServiceImpl::NewPresentationCallbackWrapper"*, %"class.content::PresentationServiceImpl::NewPresentationCallbackWrapper"** %73, align 8
  store %"class.content::PresentationServiceImpl::NewPresentationCallbackWrapper"* null, %"class.content::PresentationServiceImpl::NewPresentationCallbackWrapper"** %73, align 8
  %75 = icmp eq %"class.content::PresentationServiceImpl::NewPresentationCallbackWrapper"* %74, null
  br i1 %75, label %78, label %76

76:                                               ; preds = %68
  tail call void @_ZN7content23PresentationServiceImpl30NewPresentationCallbackWrapperD2Ev(%"class.content::PresentationServiceImpl::NewPresentationCallbackWrapper"* nonnull %74) #15
  %77 = bitcast %"class.content::PresentationServiceImpl::NewPresentationCallbackWrapper"* %74 to i8*
  tail call void @_ZdlPv(i8* %77) #16
  br label %78

78:                                               ; preds = %76, %68
  %79 = bitcast %"struct.std::__1::__hash_node_base"* %69 to i8*
  tail call void @_ZdlPv(i8* %79) #16
  %80 = icmp eq %"struct.std::__1::__hash_node_base"* %71, null
  br i1 %80, label %81, label %68

81:                                               ; preds = %78, %64
  store %"struct.std::__1::__hash_node_base"* null, %"struct.std::__1::__hash_node_base"** %65, align 8
  %82 = getelementptr inbounds %"class.content::PresentationServiceImpl", %"class.content::PresentationServiceImpl"* %0, i64 0, i32 12, i32 0, i32 0, i32 0, i32 1, i32 0, i32 0, i32 0, i32 0
  %83 = load i64, i64* %82, align 8
  %84 = icmp eq i64 %83, 0
  br i1 %84, label %103, label %85

85:                                               ; preds = %81
  %86 = getelementptr inbounds %"class.content::PresentationServiceImpl", %"class.content::PresentationServiceImpl"* %0, i64 0, i32 12, i32 0, i32 0, i32 0, i32 0, i32 0
  %87 = add i64 %83, -1
  %88 = and i64 %83, 3
  %89 = icmp ult i64 %87, 3
  br i1 %89, label %92, label %90

90:                                               ; preds = %85
  %91 = sub i64 %83, %88
  br label %104

92:                                               ; preds = %104, %85
  %93 = phi i64 [ 0, %85 ], [ %118, %104 ]
  %94 = icmp eq i64 %88, 0
  br i1 %94, label %103, label %95

95:                                               ; preds = %92, %95
  %96 = phi i64 [ %100, %95 ], [ %93, %92 ]
  %97 = phi i64 [ %101, %95 ], [ %88, %92 ]
  %98 = load %"struct.std::__1::__hash_node_base"**, %"struct.std::__1::__hash_node_base"*** %86, align 8
  %99 = getelementptr inbounds %"struct.std::__1::__hash_node_base"*, %"struct.std::__1::__hash_node_base"** %98, i64 %96
  store %"struct.std::__1::__hash_node_base"* null, %"struct.std::__1::__hash_node_base"** %99, align 8
  %100 = add nuw i64 %96, 1
  %101 = add i64 %97, -1
  %102 = icmp eq i64 %101, 0
  br i1 %102, label %103, label %95, !llvm.loop !3

103:                                              ; preds = %92, %95, %81
  store i64 0, i64* %61, align 8
  br label %121

104:                                              ; preds = %104, %90
  %105 = phi i64 [ 0, %90 ], [ %118, %104 ]
  %106 = phi i64 [ %91, %90 ], [ %119, %104 ]
  %107 = load %"struct.std::__1::__hash_node_base"**, %"struct.std::__1::__hash_node_base"*** %86, align 8
  %108 = getelementptr inbounds %"struct.std::__1::__hash_node_base"*, %"struct.std::__1::__hash_node_base"** %107, i64 %105
  store %"struct.std::__1::__hash_node_base"* null, %"struct.std::__1::__hash_node_base"** %108, align 8
  %109 = or i64 %105, 1
  %110 = load %"struct.std::__1::__hash_node_base"**, %"struct.std::__1::__hash_node_base"*** %86, align 8
  %111 = getelementptr inbounds %"struct.std::__1::__hash_node_base"*, %"struct.std::__1::__hash_node_base"** %110, i64 %109
  store %"struct.std::__1::__hash_node_base"* null, %"struct.std::__1::__hash_node_base"** %111, align 8
  %112 = or i64 %105, 2
  %113 = load %"struct.std::__1::__hash_node_base"**, %"struct.std::__1::__hash_node_base"*** %86, align 8
  %114 = getelementptr inbounds %"struct.std::__1::__hash_node_base"*, %"struct.std::__1::__hash_node_base"** %113, i64 %112
  store %"struct.std::__1::__hash_node_base"* null, %"struct.std::__1::__hash_node_base"** %114, align 8
  %115 = or i64 %105, 3
  %116 = load %"struct.std::__1::__hash_node_base"**, %"struct.std::__1::__hash_node_base"*** %86, align 8
  %117 = getelementptr inbounds %"struct.std::__1::__hash_node_base"*, %"struct.std::__1::__hash_node_base"** %116, i64 %115
  store %"struct.std::__1::__hash_node_base"* null, %"struct.std::__1::__hash_node_base"** %117, align 8
  %118 = add nuw i64 %105, 4
  %119 = add i64 %106, -4
  %120 = icmp eq i64 %119, 0
  br i1 %120, label %92, label %104

121:                                              ; preds = %60, %103
  %122 = getelementptr inbounds %"class.content::PresentationServiceImpl", %"class.content::PresentationServiceImpl"* %0, i64 0, i32 13, i32 0, i32 3
  %123 = getelementptr inbounds %"class.std::__1::map.242", %"class.std::__1::map.242"* %122, i64 0, i32 0
  %124 = getelementptr inbounds %"class.content::PresentationServiceImpl", %"class.content::PresentationServiceImpl"* %0, i64 0, i32 13, i32 0, i32 3, i32 0, i32 1, i32 0, i32 0
  %125 = bitcast %"class.std::__1::__tree_end_node"* %124 to %"class.std::__1::__tree_node.445"**
  %126 = load %"class.std::__1::__tree_node.445"*, %"class.std::__1::__tree_node.445"** %125, align 8
  tail call void @_ZNSt3__16__treeINS_12__value_typeImNS_10unique_ptrIN4mojo16ReceiverSetState5EntryENS_14default_deleteIS5_EEEEEENS_19__map_value_compareImS9_NS_4lessImEELb1EEENS_9allocatorIS9_EEE7destroyEPNS_11__tree_nodeIS9_PvEE(%"class.std::__1::__tree.243"* %123, %"class.std::__1::__tree_node.445"* %126) #15
  %127 = getelementptr inbounds %"class.content::PresentationServiceImpl", %"class.content::PresentationServiceImpl"* %0, i64 0, i32 13, i32 0, i32 3, i32 0, i32 2, i32 0, i32 0
  store i64 0, i64* %127, align 8
  %128 = getelementptr inbounds %"class.std::__1::map.242", %"class.std::__1::map.242"* %122, i64 0, i32 0, i32 0
  store %"class.std::__1::__tree_end_node"* %124, %"class.std::__1::__tree_end_node"** %128, align 8
  %129 = getelementptr inbounds %"class.std::__1::__tree_end_node", %"class.std::__1::__tree_end_node"* %124, i64 0, i32 0
  store %"class.std::__1::__tree_node_base"* null, %"class.std::__1::__tree_node_base"** %129, align 8
  %130 = getelementptr inbounds %"class.content::PresentationServiceImpl", %"class.content::PresentationServiceImpl"* %0, i64 0, i32 6
  %131 = bitcast %"class.mojo::internal::InterfacePtrState"* %3 to i8*
  call void @llvm.lifetime.start.p0i8(i64 48, i8* nonnull %131) #15
  call void @llvm.memset.p0i8.i64(i8* nonnull align 8 %131, i8 -86, i64 48, i1 false) #15
  %132 = bitcast %"class.mojo::internal::InterfacePtrState"* %3 to %"class.mojo::internal::InterfacePtrStateBase"*
  call void @_ZN4mojo8internal21InterfacePtrStateBaseC2Ev(%"class.mojo::internal::InterfacePtrStateBase"* nonnull %132) #15
  %133 = getelementptr inbounds %"class.mojo::internal::InterfacePtrState", %"class.mojo::internal::InterfacePtrState"* %3, i64 0, i32 1
  %134 = bitcast %"class.std::__1::unique_ptr.180"* %133 to i64*
  %135 = getelementptr inbounds %"class.content::PresentationServiceImpl", %"class.content::PresentationServiceImpl"* %0, i64 0, i32 6, i32 0, i32 1
  %136 = bitcast %"class.std::__1::unique_ptr.180"* %135 to i64*
  %137 = load i64, i64* %136, align 8
  store i64 %137, i64* %134, align 8
  store i64 0, i64* %136, align 8
  %138 = bitcast %"class.mojo::Remote"* %130 to %"class.mojo::internal::InterfacePtrStateBase"*
  call void @_ZN4mojo8internal21InterfacePtrStateBase4SwapEPS1_(%"class.mojo::internal::InterfacePtrStateBase"* %138, %"class.mojo::internal::InterfacePtrStateBase"* nonnull %132) #15
  %139 = getelementptr inbounds %"class.mojo::internal::InterfacePtrState", %"class.mojo::internal::InterfacePtrState"* %3, i64 0, i32 1, i32 0, i32 0, i32 0
  %140 = load %"class.blink::mojom::PresentationControllerProxy"*, %"class.blink::mojom::PresentationControllerProxy"** %139, align 8
  store %"class.blink::mojom::PresentationControllerProxy"* null, %"class.blink::mojom::PresentationControllerProxy"** %139, align 8
  %141 = icmp eq %"class.blink::mojom::PresentationControllerProxy"* %140, null
  br i1 %141, label %147, label %142

142:                                              ; preds = %121
  %143 = bitcast %"class.blink::mojom::PresentationControllerProxy"* %140 to void (%"class.blink::mojom::PresentationControllerProxy"*)***
  %144 = load void (%"class.blink::mojom::PresentationControllerProxy"*)**, void (%"class.blink::mojom::PresentationControllerProxy"*)*** %143, align 8
  %145 = getelementptr inbounds void (%"class.blink::mojom::PresentationControllerProxy"*)*, void (%"class.blink::mojom::PresentationControllerProxy"*)** %144, i64 1
  %146 = load void (%"class.blink::mojom::PresentationControllerProxy"*)*, void (%"class.blink::mojom::PresentationControllerProxy"*)** %145, align 8
  call void %146(%"class.blink::mojom::PresentationControllerProxy"* nonnull %140) #15
  br label %147

147:                                              ; preds = %121, %142
  call void @_ZN4mojo8internal21InterfacePtrStateBaseD2Ev(%"class.mojo::internal::InterfacePtrStateBase"* nonnull %132) #15
  call void @llvm.lifetime.end.p0i8(i64 48, i8* nonnull %131) #15
  %148 = getelementptr inbounds %"class.content::PresentationServiceImpl", %"class.content::PresentationServiceImpl"* %0, i64 0, i32 7
  %149 = bitcast %"class.mojo::internal::InterfacePtrState.187"* %2 to i8*
  call void @llvm.lifetime.start.p0i8(i64 48, i8* nonnull %149) #15
  call void @llvm.memset.p0i8.i64(i8* nonnull align 8 %149, i8 -86, i64 48, i1 false) #15
  %150 = bitcast %"class.mojo::internal::InterfacePtrState.187"* %2 to %"class.mojo::internal::InterfacePtrStateBase"*
  call void @_ZN4mojo8internal21InterfacePtrStateBaseC2Ev(%"class.mojo::internal::InterfacePtrStateBase"* nonnull %150) #15
  %151 = getelementptr inbounds %"class.mojo::internal::InterfacePtrState.187", %"class.mojo::internal::InterfacePtrState.187"* %2, i64 0, i32 1
  %152 = bitcast %"class.std::__1::unique_ptr.188"* %151 to i64*
  %153 = getelementptr inbounds %"class.content::PresentationServiceImpl", %"class.content::PresentationServiceImpl"* %0, i64 0, i32 7, i32 0, i32 1
  %154 = bitcast %"class.std::__1::unique_ptr.188"* %153 to i64*
  %155 = load i64, i64* %154, align 8
  store i64 %155, i64* %152, align 8
  store i64 0, i64* %154, align 8
  %156 = bitcast %"class.mojo::Remote.186"* %148 to %"class.mojo::internal::InterfacePtrStateBase"*
  call void @_ZN4mojo8internal21InterfacePtrStateBase4SwapEPS1_(%"class.mojo::internal::InterfacePtrStateBase"* %156, %"class.mojo::internal::InterfacePtrStateBase"* nonnull %150) #15
  %157 = getelementptr inbounds %"class.mojo::internal::InterfacePtrState.187", %"class.mojo::internal::InterfacePtrState.187"* %2, i64 0, i32 1, i32 0, i32 0, i32 0
  %158 = load %"class.blink::mojom::PresentationReceiverProxy"*, %"class.blink::mojom::PresentationReceiverProxy"** %157, align 8
  store %"class.blink::mojom::PresentationReceiverProxy"* null, %"class.blink::mojom::PresentationReceiverProxy"** %157, align 8
  %159 = icmp eq %"class.blink::mojom::PresentationReceiverProxy"* %158, null
  br i1 %159, label %165, label %160

160:                                              ; preds = %147
  %161 = bitcast %"class.blink::mojom::PresentationReceiverProxy"* %158 to void (%"class.blink::mojom::PresentationReceiverProxy"*)***
  %162 = load void (%"class.blink::mojom::PresentationReceiverProxy"*)**, void (%"class.blink::mojom::PresentationReceiverProxy"*)*** %161, align 8
  %163 = getelementptr inbounds void (%"class.blink::mojom::PresentationReceiverProxy"*)*, void (%"class.blink::mojom::PresentationReceiverProxy"*)** %162, i64 1
  %164 = load void (%"class.blink::mojom::PresentationReceiverProxy"*)*, void (%"class.blink::mojom::PresentationReceiverProxy"*)** %163, align 8
  call void %164(%"class.blink::mojom::PresentationReceiverProxy"* nonnull %158) #15
  br label %165

165:                                              ; preds = %147, %160
  call void @_ZN4mojo8internal21InterfacePtrStateBaseD2Ev(%"class.mojo::internal::InterfacePtrStateBase"* nonnull %150) #15
  call void @llvm.lifetime.end.p0i8(i64 48, i8* nonnull %149) #15
  ret void
}

; Function Attrs: nounwind
declare void @_ZN4base8internal18WeakPtrFactoryBaseD2Ev(%"class.base::internal::WeakPtrFactoryBase"*) unnamed_addr #3

; Function Attrs: nounwind
declare void @_ZN7content19WebContentsObserverD2Ev(%"class.content::WebContentsObserver"*) unnamed_addr #3

; Function Attrs: nounwind ssp uwtable
define hidden void @_ZThn8_N7content23PresentationServiceImplD1Ev(%"class.content::PresentationServiceImpl"*) unnamed_addr #0 align 2 {
  %2 = getelementptr inbounds %"class.content::PresentationServiceImpl", %"class.content::PresentationServiceImpl"* %0, i64 -1, i32 17, i32 0, i32 1
  %3 = bitcast i64* %2 to %"class.content::PresentationServiceImpl"*
  tail call void @_ZN7content23PresentationServiceImplD2Ev(%"class.content::PresentationServiceImpl"* %3) #15
  ret void
}

; Function Attrs: nounwind ssp uwtable
define hidden void @_ZThn24_N7content23PresentationServiceImplD1Ev(%"class.content::PresentationServiceImpl"*) unnamed_addr #0 align 2 {
  %2 = getelementptr inbounds %"class.content::PresentationServiceImpl", %"class.content::PresentationServiceImpl"* %0, i64 -1, i32 16
  %3 = bitcast i8* %2 to %"class.content::PresentationServiceImpl"*
  tail call void @_ZN7content23PresentationServiceImplD2Ev(%"class.content::PresentationServiceImpl"* %3) #15
  ret void
}

; Function Attrs: nounwind ssp uwtable
define hidden void @_ZN7content23PresentationServiceImplD0Ev(%"class.content::PresentationServiceImpl"*) unnamed_addr #0 align 2 {
  tail call void @_ZN7content23PresentationServiceImplD2Ev(%"class.content::PresentationServiceImpl"* %0) #15
  %2 = bitcast %"class.content::PresentationServiceImpl"* %0 to i8*
  tail call void @_ZdlPv(i8* %2) #16
  ret void
}

; Function Attrs: nobuiltin nounwind
declare void @_ZdlPv(i8*) local_unnamed_addr #5

; Function Attrs: nounwind ssp uwtable
define hidden void @_ZThn8_N7content23PresentationServiceImplD0Ev(%"class.content::PresentationServiceImpl"*) unnamed_addr #0 align 2 {
  %2 = getelementptr inbounds %"class.content::PresentationServiceImpl", %"class.content::PresentationServiceImpl"* %0, i64 -1, i32 17, i32 0, i32 1
  %3 = bitcast i64* %2 to %"class.content::PresentationServiceImpl"*
  tail call void @_ZN7content23PresentationServiceImplD2Ev(%"class.content::PresentationServiceImpl"* %3) #15
  %4 = bitcast i64* %2 to i8*
  tail call void @_ZdlPv(i8* %4) #16
  ret void
}

; Function Attrs: nounwind ssp uwtable
define hidden void @_ZThn24_N7content23PresentationServiceImplD0Ev(%"class.content::PresentationServiceImpl"*) unnamed_addr #0 align 2 {
  %2 = getelementptr inbounds %"class.content::PresentationServiceImpl", %"class.content::PresentationServiceImpl"* %0, i64 -1, i32 16
  %3 = bitcast i8* %2 to %"class.content::PresentationServiceImpl"*
  tail call void @_ZN7content23PresentationServiceImplD2Ev(%"class.content::PresentationServiceImpl"* %3) #15
  tail call void @_ZdlPv(i8* %2) #16
  ret void
}

; Function Attrs: nounwind ssp uwtable
define hidden nonnull %"class.content::PresentationServiceImpl"* @_ZN7content23PresentationServiceImpl6CreateEPNS_15RenderFrameHostE(%"class.content::RenderFrameHost"*) local_unnamed_addr #0 align 2 {
  %2 = tail call %"class.content::WebContents"* @_ZN7content11WebContents19FromRenderFrameHostEPNS_15RenderFrameHostE(%"class.content::RenderFrameHost"* %0) #15
  %3 = tail call %"class.content::ContentClient"* @_ZN7content16GetContentClientEv() #15
  %4 = getelementptr inbounds %"class.content::ContentClient", %"class.content::ContentClient"* %3, i64 0, i32 1
  %5 = load %"class.content::ContentBrowserClient"*, %"class.content::ContentBrowserClient"** %4, align 8
  %6 = bitcast %"class.content::ContentBrowserClient"* %5 to %"class.content::ReceiverPresentationServiceDelegate"* (%"class.content::ContentBrowserClient"*, %"class.content::WebContents"*)***
  %7 = load %"class.content::ReceiverPresentationServiceDelegate"* (%"class.content::ContentBrowserClient"*, %"class.content::WebContents"*)**, %"class.content::ReceiverPresentationServiceDelegate"* (%"class.content::ContentBrowserClient"*, %"class.content::WebContents"*)*** %6, align 8
  %8 = getelementptr inbounds %"class.content::ReceiverPresentationServiceDelegate"* (%"class.content::ContentBrowserClient"*, %"class.content::WebContents"*)*, %"class.content::ReceiverPresentationServiceDelegate"* (%"class.content::ContentBrowserClient"*, %"class.content::WebContents"*)** %7, i64 128
  %9 = load %"class.content::ReceiverPresentationServiceDelegate"* (%"class.content::ContentBrowserClient"*, %"class.content::WebContents"*)*, %"class.content::ReceiverPresentationServiceDelegate"* (%"class.content::ContentBrowserClient"*, %"class.content::WebContents"*)** %8, align 8
  %10 = tail call %"class.content::ReceiverPresentationServiceDelegate"* %9(%"class.content::ContentBrowserClient"* %5, %"class.content::WebContents"* %2) #15
  %11 = icmp eq %"class.content::ReceiverPresentationServiceDelegate"* %10, null
  br i1 %11, label %12, label %18

12:                                               ; preds = %1
  %13 = bitcast %"class.content::ContentBrowserClient"* %5 to %"class.content::ControllerPresentationServiceDelegate"* (%"class.content::ContentBrowserClient"*, %"class.content::WebContents"*)***
  %14 = load %"class.content::ControllerPresentationServiceDelegate"* (%"class.content::ContentBrowserClient"*, %"class.content::WebContents"*)**, %"class.content::ControllerPresentationServiceDelegate"* (%"class.content::ContentBrowserClient"*, %"class.content::WebContents"*)*** %13, align 8
  %15 = getelementptr inbounds %"class.content::ControllerPresentationServiceDelegate"* (%"class.content::ContentBrowserClient"*, %"class.content::WebContents"*)*, %"class.content::ControllerPresentationServiceDelegate"* (%"class.content::ContentBrowserClient"*, %"class.content::WebContents"*)** %14, i64 127
  %16 = load %"class.content::ControllerPresentationServiceDelegate"* (%"class.content::ContentBrowserClient"*, %"class.content::WebContents"*)*, %"class.content::ControllerPresentationServiceDelegate"* (%"class.content::ContentBrowserClient"*, %"class.content::WebContents"*)** %15, align 8
  %17 = tail call %"class.content::ControllerPresentationServiceDelegate"* %16(%"class.content::ContentBrowserClient"* %5, %"class.content::WebContents"* %2) #15
  br label %18

18:                                               ; preds = %1, %12
  %19 = phi %"class.content::ControllerPresentationServiceDelegate"* [ %17, %12 ], [ null, %1 ]
  %20 = tail call i8* @_Znwm(i64 368) #16
  %21 = bitcast i8* %20 to %"class.content::PresentationServiceImpl"*
  tail call void @_ZN7content23PresentationServiceImplC2EPNS_15RenderFrameHostEPNS_11WebContentsEPNS_37ControllerPresentationServiceDelegateEPNS_35ReceiverPresentationServiceDelegateE(%"class.content::PresentationServiceImpl"* nonnull %21, %"class.content::RenderFrameHost"* %0, %"class.content::WebContents"* %2, %"class.content::ControllerPresentationServiceDelegate"* %19, %"class.content::ReceiverPresentationServiceDelegate"* %10)
  ret %"class.content::PresentationServiceImpl"* %21
}

declare %"class.content::WebContents"* @_ZN7content11WebContents19FromRenderFrameHostEPNS_15RenderFrameHostE(%"class.content::RenderFrameHost"*) local_unnamed_addr #1

declare %"class.content::ContentClient"* @_ZN7content16GetContentClientEv() local_unnamed_addr #1

; Function Attrs: nobuiltin nofree
declare noalias nonnull i8* @_Znwm(i64) local_unnamed_addr #6

; Function Attrs: nounwind ssp uwtable
define hidden void @_ZN7content23PresentationServiceImpl4BindEN4mojo15PendingReceiverIN5blink5mojom19PresentationServiceEEE(%"class.content::PresentationServiceImpl"*, %"class.mojo::PendingReceiver"*) local_unnamed_addr #0 align 2 {
  %3 = alloca %"class.mojo::PendingReceiver", align 8
  %4 = alloca %"class.mojo::PendingReceiver", align 8
  %5 = alloca %"class.mojo::PendingReceiver", align 8
  %6 = alloca %"class.base::RepeatingCallback.133", align 8
  %7 = alloca %"class.mojo::PendingReceiver", align 8
  %8 = alloca %"class.base::RepeatingCallback.133", align 8
  %9 = getelementptr inbounds %"class.content::PresentationServiceImpl", %"class.content::PresentationServiceImpl"* %0, i64 0, i32 0
  %10 = getelementptr inbounds %"class.mojo::PendingReceiver", %"class.mojo::PendingReceiver"* %7, i64 0, i32 0
  %11 = getelementptr inbounds %"class.mojo::PendingReceiver", %"class.mojo::PendingReceiver"* %1, i64 0, i32 0
  call void @_ZN4mojo8internal20PendingReceiverStateC1EOS1_(%"struct.mojo::internal::PendingReceiverState"* nonnull %10, %"struct.mojo::internal::PendingReceiverState"* dereferenceable(24) %11) #15
  %12 = bitcast %"class.mojo::PendingReceiver"* %5 to i8*
  call void @llvm.lifetime.start.p0i8(i64 24, i8* nonnull %12)
  %13 = getelementptr inbounds %"class.mojo::PendingReceiver", %"class.mojo::PendingReceiver"* %5, i64 0, i32 0
  call void @_ZN4mojo8internal20PendingReceiverStateC1EOS1_(%"struct.mojo::internal::PendingReceiverState"* nonnull %13, %"struct.mojo::internal::PendingReceiverState"* nonnull dereferenceable(24) %10) #15
  %14 = getelementptr inbounds %"class.content::PresentationServiceImpl", %"class.content::PresentationServiceImpl"* %0, i64 0, i32 13, i32 0
  %15 = bitcast %"class.mojo::PendingReceiver"* %4 to i8*
  call void @llvm.lifetime.start.p0i8(i64 24, i8* nonnull %15) #15
  %16 = call i8* @_Znwm(i64 64) #16
  %17 = getelementptr inbounds %"class.mojo::PendingReceiver", %"class.mojo::PendingReceiver"* %4, i64 0, i32 0
  call void @_ZN4mojo8internal20PendingReceiverStateC1EOS1_(%"struct.mojo::internal::PendingReceiverState"* nonnull %17, %"struct.mojo::internal::PendingReceiverState"* nonnull dereferenceable(24) %13) #15
  %18 = bitcast %"class.mojo::PendingReceiver"* %3 to i8*
  call void @llvm.lifetime.start.p0i8(i64 24, i8* nonnull %18) #15
  %19 = bitcast i8* %16 to i32 (...)***
  store i32 (...)** bitcast (i8** getelementptr inbounds ({ [7 x i8*] }, { [7 x i8*] }* @_ZTVN4mojo15ReceiverSetBaseINS_8ReceiverIN5blink5mojom19PresentationServiceENS_19RawPtrImplRefTraitsIS4_EEEEvE13ReceiverEntryE, i64 0, inrange i32 0, i64 2) to i32 (...)**), i32 (...)*** %19, align 8
  %20 = getelementptr inbounds i8, i8* %16, i64 8
  %21 = bitcast i8* %20 to %"class.mojo::Receiver"*
  %22 = getelementptr inbounds %"class.mojo::PendingReceiver", %"class.mojo::PendingReceiver"* %3, i64 0, i32 0
  call void @_ZN4mojo8internal20PendingReceiverStateC1EOS1_(%"struct.mojo::internal::PendingReceiverState"* nonnull %22, %"struct.mojo::internal::PendingReceiverState"* nonnull dereferenceable(24) %17) #15
  call void @_ZN4mojo8ReceiverIN5blink5mojom19PresentationServiceENS_19RawPtrImplRefTraitsIS3_EEEC2EPS3_NS_15PendingReceiverIS3_EE13scoped_refptrIN4base19SequencedTaskRunnerEE(%"class.mojo::Receiver"* %21, %"class.blink::mojom::PresentationService"* %9, %"class.mojo::PendingReceiver"* nonnull %3, %"class.base::SequencedTaskRunner"* null) #15
  call void @_ZN4mojo8internal20PendingReceiverStateD1Ev(%"struct.mojo::internal::PendingReceiverState"* nonnull %22) #15
  %23 = getelementptr inbounds i8, i8* %16, i64 56
  store i8 0, i8* %23, align 8
  call void @llvm.lifetime.end.p0i8(i64 24, i8* nonnull %18) #15
  call void @_ZN4mojo8internal20PendingReceiverStateD1Ev(%"struct.mojo::internal::PendingReceiverState"* nonnull %17) #15
  call void @llvm.lifetime.end.p0i8(i64 24, i8* nonnull %15) #15
  %24 = bitcast i8* %16 to %"class.mojo::ReceiverSetState::ReceiverState"*
  %25 = call i64 @_ZN4mojo16ReceiverSetState3AddENSt3__110unique_ptrINS0_13ReceiverStateENS1_14default_deleteIS3_EEEE(%"class.mojo::ReceiverSetState"* %14, %"class.mojo::ReceiverSetState::ReceiverState"* nonnull %24) #15
  call void @_ZN4mojo8internal20PendingReceiverStateD1Ev(%"struct.mojo::internal::PendingReceiverState"* nonnull %13) #15
  call void @llvm.lifetime.end.p0i8(i64 24, i8* nonnull %12)
  call void @_ZN4mojo8internal20PendingReceiverStateD1Ev(%"struct.mojo::internal::PendingReceiverState"* nonnull %10) #15
  %26 = ptrtoint %"class.content::PresentationServiceImpl"* %0 to i64
  %27 = call i8* @_Znwm(i64 56) #16, !noalias !5
  %28 = bitcast i8* %27 to %"class.base::internal::BindStateBase"*
  call void @_ZN4base8internal13BindStateBaseC2EPFvvEPFvPKS1_E(%"class.base::internal::BindStateBase"* nonnull %28, void ()* bitcast (void (%"class.base::internal::BindStateBase"*)* @_ZN4base8internal7InvokerINS0_9BindStateIMN7content23PresentationServiceImplEFvvEJNS0_17UnretainedWrapperIS4_EEEEEFvvEE3RunEPNS0_13BindStateBaseE to void ()*), void (%"class.base::internal::BindStateBase"*)* nonnull @_ZN4base8internal9BindStateIMN7content23PresentationServiceImplEFvvEJNS0_17UnretainedWrapperIS3_EEEE7DestroyEPKNS0_13BindStateBaseE) #15, !noalias !5
  %29 = getelementptr inbounds i8, i8* %27, i64 32
  %30 = bitcast i8* %29 to <2 x i64>*
  store <2 x i64> <i64 ptrtoint (void (%"class.content::PresentationServiceImpl"*)* @_ZN7content23PresentationServiceImpl17OnConnectionErrorEv to i64), i64 0>, <2 x i64>* %30, align 8, !noalias !5
  %31 = getelementptr inbounds i8, i8* %27, i64 48
  %32 = bitcast i8* %31 to i64*
  store i64 %26, i64* %32, align 8, !noalias !5
  %33 = bitcast %"class.base::RepeatingCallback.133"* %6 to i8*
  call void @llvm.lifetime.start.p0i8(i64 8, i8* nonnull %33)
  %34 = getelementptr inbounds %"class.base::RepeatingCallback.133", %"class.base::RepeatingCallback.133"* %8, i64 0, i32 0, i32 0, i32 0, i32 0
  %35 = ptrtoint i8* %27 to i64
  %36 = bitcast %"class.base::RepeatingCallback.133"* %6 to i64*
  store i64 %35, i64* %36, align 8
  store %"class.base::internal::BindStateBase"* null, %"class.base::internal::BindStateBase"** %34, align 8
  call void @_ZN4mojo16ReceiverSetState22set_disconnect_handlerEN4base17RepeatingCallbackIFvvEEE(%"class.mojo::ReceiverSetState"* %14, %"class.base::RepeatingCallback.133"* nonnull %6) #15
  %37 = getelementptr inbounds %"class.base::RepeatingCallback.133", %"class.base::RepeatingCallback.133"* %6, i64 0, i32 0, i32 0
  call void @_ZN4base8internal12CallbackBaseD2Ev(%"class.base::internal::CallbackBase"* nonnull %37) #15
  call void @llvm.lifetime.end.p0i8(i64 8, i8* nonnull %33)
  %38 = getelementptr inbounds %"class.base::RepeatingCallback.133", %"class.base::RepeatingCallback.133"* %8, i64 0, i32 0, i32 0
  call void @_ZN4base8internal12CallbackBaseD2Ev(%"class.base::internal::CallbackBase"* nonnull %38) #15
  ret void
}

; Function Attrs: nounwind ssp uwtable
define hidden void @_ZN7content23PresentationServiceImpl17OnConnectionErrorEv(%"class.content::PresentationServiceImpl"*) #0 align 2 {
  tail call void @_ZN7content23PresentationServiceImpl5ResetEv(%"class.content::PresentationServiceImpl"* %0)
  ret void
}

; Function Attrs: nounwind ssp uwtable
define hidden void @_ZN7content23PresentationServiceImpl13SetControllerEN4mojo13PendingRemoteIN5blink5mojom22PresentationControllerEEE(%"class.content::PresentationServiceImpl"*, %"class.mojo::PendingRemote"*) unnamed_addr #0 align 2 {
  %3 = alloca %"class.mojo::PendingRemote", align 4
  %4 = alloca %"class.base::OnceCallback", align 8
  %5 = alloca %"class.base::OnceCallback", align 8
  %6 = alloca %"class.std::__1::basic_string", align 8
  %7 = alloca %"class.mojo::PendingRemote", align 4
  %8 = alloca %"class.base::OnceCallback", align 8
  %9 = getelementptr inbounds %"class.content::PresentationServiceImpl", %"class.content::PresentationServiceImpl"* %0, i64 0, i32 6
  %10 = getelementptr inbounds %"class.content::PresentationServiceImpl", %"class.content::PresentationServiceImpl"* %0, i64 0, i32 6, i32 0, i32 0, i32 2, i32 0, i32 0, i32 0
  %11 = load i32, i32* %10, align 4
  %12 = icmp eq i32 %11, 0
  br i1 %12, label %13, label %17

13:                                               ; preds = %2
  %14 = getelementptr inbounds %"class.content::PresentationServiceImpl", %"class.content::PresentationServiceImpl"* %0, i64 0, i32 6, i32 0, i32 0, i32 1, i32 0, i32 0, i32 0
  %15 = load %"class.mojo::InterfaceEndpointClient"*, %"class.mojo::InterfaceEndpointClient"** %14, align 8
  %16 = icmp eq %"class.mojo::InterfaceEndpointClient"* %15, null
  br i1 %16, label %31, label %17

17:                                               ; preds = %13, %2
  %18 = bitcast %"class.std::__1::basic_string"* %6 to i8*
  call void @llvm.lifetime.start.p0i8(i64 24, i8* nonnull %18) #15
  %19 = tail call i8* @_Znwm(i64 64) #16
  %20 = getelementptr inbounds %"class.std::__1::basic_string", %"class.std::__1::basic_string"* %6, i64 0, i32 0, i32 0, i32 0, i32 0, i32 0, i32 0
  store i8* %19, i8** %20, align 8
  %21 = getelementptr inbounds %"class.std::__1::basic_string", %"class.std::__1::basic_string"* %6, i64 0, i32 0, i32 0, i32 0, i32 0, i32 0, i32 1
  %22 = bitcast i64* %21 to <2 x i64>*
  store <2 x i64> <i64 63, i64 -9223372036854775744>, <2 x i64>* %22, align 8
  call void @llvm.memcpy.p0i8.p0i8.i64(i8* nonnull align 1 %19, i8* align 1 getelementptr inbounds ([64 x i8], [64 x i8]* @.str.2, i64 0, i64 0), i64 63, i1 false) #15
  %23 = getelementptr inbounds i8, i8* %19, i64 63
  store i8 0, i8* %23, align 1
  call void @_ZN4mojo16ReportBadMessageERKNSt3__112basic_stringIcNS0_11char_traitsIcEENS0_9allocatorIcEEEE(%"class.std::__1::basic_string"* nonnull dereferenceable(24) %6) #15
  %24 = bitcast %"class.std::__1::basic_string"* %6 to %"struct.std::__1::basic_string<char, std::__1::char_traits<char>, std::__1::allocator<char> >::__short"*
  %25 = getelementptr inbounds %"struct.std::__1::basic_string<char, std::__1::char_traits<char>, std::__1::allocator<char> >::__short", %"struct.std::__1::basic_string<char, std::__1::char_traits<char>, std::__1::allocator<char> >::__short"* %24, i64 0, i32 1, i32 0
  %26 = load i8, i8* %25, align 1
  %27 = icmp slt i8 %26, 0
  br i1 %27, label %28, label %30

28:                                               ; preds = %17
  %29 = load i8*, i8** %20, align 8
  call void @_ZdlPv(i8* %29) #16
  br label %30

30:                                               ; preds = %17, %28
  call void @llvm.lifetime.end.p0i8(i64 24, i8* nonnull %18) #15
  br label %66

31:                                               ; preds = %13
  %32 = getelementptr inbounds %"class.mojo::PendingRemote", %"class.mojo::PendingRemote"* %7, i64 0, i32 0
  %33 = getelementptr inbounds %"class.mojo::PendingRemote", %"class.mojo::PendingRemote"* %1, i64 0, i32 0
  call void @_ZN4mojo8internal18PendingRemoteStateC1EOS1_(%"struct.mojo::internal::PendingRemoteState"* nonnull %32, %"struct.mojo::internal::PendingRemoteState"* dereferenceable(8) %33) #15
  %34 = bitcast %"class.mojo::PendingRemote"* %3 to i8*
  call void @llvm.lifetime.start.p0i8(i64 8, i8* nonnull %34)
  %35 = getelementptr inbounds %"class.mojo::PendingRemote", %"class.mojo::PendingRemote"* %3, i64 0, i32 0
  call void @_ZN4mojo8internal18PendingRemoteStateC1EOS1_(%"struct.mojo::internal::PendingRemoteState"* nonnull %35, %"struct.mojo::internal::PendingRemoteState"* nonnull dereferenceable(8) %32) #15
  call void @_ZN4mojo6RemoteIN5blink5mojom22PresentationControllerEE4BindENS_13PendingRemoteIS3_EE13scoped_refptrIN4base19SequencedTaskRunnerEE(%"class.mojo::Remote"* %9, %"class.mojo::PendingRemote"* nonnull %3, %"class.base::SequencedTaskRunner"* null) #15
  call void @_ZN4mojo8internal18PendingRemoteStateD1Ev(%"struct.mojo::internal::PendingRemoteState"* nonnull %35) #15
  call void @llvm.lifetime.end.p0i8(i64 8, i8* nonnull %34)
  call void @_ZN4mojo8internal18PendingRemoteStateD1Ev(%"struct.mojo::internal::PendingRemoteState"* nonnull %32) #15
  %36 = ptrtoint %"class.content::PresentationServiceImpl"* %0 to i64
  %37 = call i8* @_Znwm(i64 56) #16, !noalias !10
  %38 = bitcast i8* %37 to %"class.base::internal::BindStateBase"*
  call void @_ZN4base8internal13BindStateBaseC2EPFvvEPFvPKS1_E(%"class.base::internal::BindStateBase"* nonnull %38, void ()* bitcast (void (%"class.base::internal::BindStateBase"*)* @_ZN4base8internal7InvokerINS0_9BindStateIMN7content23PresentationServiceImplEFvvEJNS0_17UnretainedWrapperIS4_EEEEEFvvEE7RunOnceEPNS0_13BindStateBaseE to void ()*), void (%"class.base::internal::BindStateBase"*)* nonnull @_ZN4base8internal9BindStateIMN7content23PresentationServiceImplEFvvEJNS0_17UnretainedWrapperIS3_EEEE7DestroyEPKNS0_13BindStateBaseE) #15, !noalias !10
  %39 = getelementptr inbounds i8, i8* %37, i64 32
  %40 = bitcast i8* %39 to <2 x i64>*
  store <2 x i64> <i64 ptrtoint (void (%"class.content::PresentationServiceImpl"*)* @_ZN7content23PresentationServiceImpl17OnConnectionErrorEv to i64), i64 0>, <2 x i64>* %40, align 8, !noalias !10
  %41 = getelementptr inbounds i8, i8* %37, i64 48
  %42 = bitcast i8* %41 to i64*
  store i64 %36, i64* %42, align 8, !noalias !10
  %43 = bitcast %"class.base::OnceCallback"* %8 to i8**
  store i8* %37, i8** %43, align 8, !alias.scope !10
  %44 = bitcast %"class.base::OnceCallback"* %5 to i8*
  call void @llvm.lifetime.start.p0i8(i64 8, i8* nonnull %44)
  %45 = load %"class.mojo::InterfaceEndpointClient"*, %"class.mojo::InterfaceEndpointClient"** %14, align 8
  %46 = icmp eq %"class.mojo::InterfaceEndpointClient"* %45, null
  %47 = ptrtoint i8* %37 to i64
  br i1 %46, label %52, label %48

48:                                               ; preds = %31
  %49 = getelementptr inbounds %"class.mojo::InterfaceEndpointClient", %"class.mojo::InterfaceEndpointClient"* %45, i64 0, i32 19
  %50 = load i8, i8* %49, align 8, !range !2
  %51 = icmp eq i8 %50, 0
  br i1 %51, label %52, label %64

52:                                               ; preds = %48, %31
  %53 = getelementptr inbounds %"class.mojo::Remote", %"class.mojo::Remote"* %9, i64 0, i32 0
  %54 = getelementptr inbounds %"class.base::OnceCallback", %"class.base::OnceCallback"* %8, i64 0, i32 0, i32 0, i32 0
  store %"class.base::internal::BindStateBase"* null, %"class.base::internal::BindStateBase"** %54, align 8
  %55 = bitcast %"class.base::OnceCallback"* %4 to i8*
  call void @llvm.lifetime.start.p0i8(i64 8, i8* nonnull %55) #15
  call void @_ZN4mojo8internal17InterfacePtrStateIN5blink5mojom22PresentationControllerEE25ConfigureProxyIfNecessaryEv(%"class.mojo::internal::InterfacePtrState"* %53) #15
  %56 = load %"class.mojo::InterfaceEndpointClient"*, %"class.mojo::InterfaceEndpointClient"** %14, align 8
  %57 = getelementptr inbounds %"class.base::OnceCallback", %"class.base::OnceCallback"* %5, i64 0, i32 0, i32 0, i32 0
  %58 = bitcast %"class.base::OnceCallback"* %4 to i64*
  store i64 %47, i64* %58, align 8
  store %"class.base::internal::BindStateBase"* null, %"class.base::internal::BindStateBase"** %57, align 8
  %59 = getelementptr inbounds %"class.mojo::InterfaceEndpointClient", %"class.mojo::InterfaceEndpointClient"* %56, i64 0, i32 17, i32 0
  %60 = getelementptr inbounds %"class.base::OnceCallback", %"class.base::OnceCallback"* %4, i64 0, i32 0
  %61 = call dereferenceable(8) %"class.base::internal::CallbackBase"* @_ZN4base8internal12CallbackBaseaSEOS1_(%"class.base::internal::CallbackBase"* %59, %"class.base::internal::CallbackBase"* nonnull dereferenceable(8) %60) #15
  %62 = getelementptr inbounds %"class.mojo::InterfaceEndpointClient", %"class.mojo::InterfaceEndpointClient"* %56, i64 0, i32 18, i32 0
  call void @_ZN4base8internal12CallbackBase5ResetEv(%"class.base::internal::CallbackBase"* %62) #15
  call void @_ZN4base8internal12CallbackBaseD2Ev(%"class.base::internal::CallbackBase"* nonnull %60) #15
  call void @llvm.lifetime.end.p0i8(i64 8, i8* nonnull %55) #15
  %63 = getelementptr inbounds %"class.base::OnceCallback", %"class.base::OnceCallback"* %5, i64 0, i32 0
  call void @_ZN4base8internal12CallbackBaseD2Ev(%"class.base::internal::CallbackBase"* nonnull %63) #15
  br label %64

64:                                               ; preds = %48, %52
  call void @llvm.lifetime.end.p0i8(i64 8, i8* nonnull %44)
  %65 = getelementptr inbounds %"class.base::OnceCallback", %"class.base::OnceCallback"* %8, i64 0, i32 0
  call void @_ZN4base8internal12CallbackBaseD2Ev(%"class.base::internal::CallbackBase"* nonnull %65) #15
  br label %66

66:                                               ; preds = %64, %30
  ret void
}

declare void @_ZN4mojo16ReportBadMessageERKNSt3__112basic_stringIcNS0_11char_traitsIcEENS0_9allocatorIcEEEE(%"class.std::__1::basic_string"* dereferenceable(24)) local_unnamed_addr #1

; Function Attrs: nounwind ssp uwtable
define hidden void @_ZN7content23PresentationServiceImpl11SetReceiverEN4mojo13PendingRemoteIN5blink5mojom20PresentationReceiverEEE(%"class.content::PresentationServiceImpl"*, %"class.mojo::PendingRemote.265"*) unnamed_addr #0 align 2 {
  %3 = alloca %"class.base::internal::WeakReference", align 8
  %4 = alloca %"class.base::OnceCallback", align 8
  %5 = alloca %"class.base::OnceCallback", align 8
  %6 = alloca %"class.mojo::PendingRemote.265", align 4
  %7 = alloca %"class.std::__1::basic_string", align 8
  %8 = alloca %"class.std::__1::basic_string", align 8
  %9 = alloca %"class.mojo::PendingRemote.265", align 4
  %10 = alloca %"class.base::OnceCallback", align 8
  %11 = alloca %"class.base::RepeatingCallback.283", align 8
  %12 = alloca %"class.base::WeakPtr.284", align 8
  %13 = tail call %"class.base::CommandLine"* @_ZN4base11CommandLine17ForCurrentProcessEv() #15
  %14 = tail call zeroext i1 @_ZNK4base11CommandLine9HasSwitchEPKc(%"class.base::CommandLine"* %13, i8* getelementptr inbounds ([0 x i8], [0 x i8]* @_ZN8switches36kForcePresentationReceiverForTestingE, i64 0, i64 0)) #15
  br i1 %14, label %120, label %15

15:                                               ; preds = %2
  %16 = getelementptr inbounds %"class.content::PresentationServiceImpl", %"class.content::PresentationServiceImpl"* %0, i64 0, i32 5
  %17 = load %"class.content::ReceiverPresentationServiceDelegate"*, %"class.content::ReceiverPresentationServiceDelegate"** %16, align 8
  %18 = icmp eq %"class.content::ReceiverPresentationServiceDelegate"* %17, null
  br i1 %18, label %23, label %19

19:                                               ; preds = %15
  %20 = getelementptr inbounds %"class.content::PresentationServiceImpl", %"class.content::PresentationServiceImpl"* %0, i64 0, i32 16
  %21 = load i8, i8* %20, align 8, !range !2
  %22 = icmp eq i8 %21, 0
  br i1 %22, label %23, label %37

23:                                               ; preds = %19, %15
  %24 = bitcast %"class.std::__1::basic_string"* %7 to i8*
  call void @llvm.lifetime.start.p0i8(i64 24, i8* nonnull %24) #15
  %25 = tail call i8* @_Znwm(i64 80) #16
  %26 = getelementptr inbounds %"class.std::__1::basic_string", %"class.std::__1::basic_string"* %7, i64 0, i32 0, i32 0, i32 0, i32 0, i32 0, i32 0
  store i8* %25, i8** %26, align 8
  %27 = getelementptr inbounds %"class.std::__1::basic_string", %"class.std::__1::basic_string"* %7, i64 0, i32 0, i32 0, i32 0, i32 0, i32 0, i32 1
  %28 = bitcast i64* %27 to <2 x i64>*
  store <2 x i64> <i64 71, i64 -9223372036854775728>, <2 x i64>* %28, align 8
  call void @llvm.memcpy.p0i8.p0i8.i64(i8* nonnull align 1 %25, i8* align 1 getelementptr inbounds ([72 x i8], [72 x i8]* @.str.3, i64 0, i64 0), i64 71, i1 false) #15
  %29 = getelementptr inbounds i8, i8* %25, i64 71
  store i8 0, i8* %29, align 1
  call void @_ZN4mojo16ReportBadMessageERKNSt3__112basic_stringIcNS0_11char_traitsIcEENS0_9allocatorIcEEEE(%"class.std::__1::basic_string"* nonnull dereferenceable(24) %7) #15
  %30 = bitcast %"class.std::__1::basic_string"* %7 to %"struct.std::__1::basic_string<char, std::__1::char_traits<char>, std::__1::allocator<char> >::__short"*
  %31 = getelementptr inbounds %"struct.std::__1::basic_string<char, std::__1::char_traits<char>, std::__1::allocator<char> >::__short", %"struct.std::__1::basic_string<char, std::__1::char_traits<char>, std::__1::allocator<char> >::__short"* %30, i64 0, i32 1, i32 0
  %32 = load i8, i8* %31, align 1
  %33 = icmp slt i8 %32, 0
  br i1 %33, label %34, label %36

34:                                               ; preds = %23
  %35 = load i8*, i8** %26, align 8
  call void @_ZdlPv(i8* %35) #16
  br label %36

36:                                               ; preds = %23, %34
  call void @llvm.lifetime.end.p0i8(i64 24, i8* nonnull %24) #15
  br label %120

37:                                               ; preds = %19
  %38 = getelementptr inbounds %"class.content::PresentationServiceImpl", %"class.content::PresentationServiceImpl"* %0, i64 0, i32 7
  %39 = getelementptr inbounds %"class.content::PresentationServiceImpl", %"class.content::PresentationServiceImpl"* %0, i64 0, i32 7, i32 0, i32 0, i32 2, i32 0, i32 0, i32 0
  %40 = load i32, i32* %39, align 4
  %41 = icmp eq i32 %40, 0
  br i1 %41, label %42, label %46

42:                                               ; preds = %37
  %43 = getelementptr inbounds %"class.content::PresentationServiceImpl", %"class.content::PresentationServiceImpl"* %0, i64 0, i32 7, i32 0, i32 0, i32 1, i32 0, i32 0, i32 0
  %44 = load %"class.mojo::InterfaceEndpointClient"*, %"class.mojo::InterfaceEndpointClient"** %43, align 8
  %45 = icmp eq %"class.mojo::InterfaceEndpointClient"* %44, null
  br i1 %45, label %60, label %46

46:                                               ; preds = %42, %37
  %47 = bitcast %"class.std::__1::basic_string"* %8 to i8*
  call void @llvm.lifetime.start.p0i8(i64 24, i8* nonnull %47) #15
  %48 = tail call i8* @_Znwm(i64 48) #16
  %49 = getelementptr inbounds %"class.std::__1::basic_string", %"class.std::__1::basic_string"* %8, i64 0, i32 0, i32 0, i32 0, i32 0, i32 0, i32 0
  store i8* %48, i8** %49, align 8
  %50 = getelementptr inbounds %"class.std::__1::basic_string", %"class.std::__1::basic_string"* %8, i64 0, i32 0, i32 0, i32 0, i32 0, i32 0, i32 1
  %51 = bitcast i64* %50 to <2 x i64>*
  store <2 x i64> <i64 36, i64 -9223372036854775760>, <2 x i64>* %51, align 8
  call void @llvm.memcpy.p0i8.p0i8.i64(i8* nonnull align 1 %48, i8* align 1 getelementptr inbounds ([37 x i8], [37 x i8]* @.str.4, i64 0, i64 0), i64 36, i1 false) #15
  %52 = getelementptr inbounds i8, i8* %48, i64 36
  store i8 0, i8* %52, align 1
  call void @_ZN4mojo16ReportBadMessageERKNSt3__112basic_stringIcNS0_11char_traitsIcEENS0_9allocatorIcEEEE(%"class.std::__1::basic_string"* nonnull dereferenceable(24) %8) #15
  %53 = bitcast %"class.std::__1::basic_string"* %8 to %"struct.std::__1::basic_string<char, std::__1::char_traits<char>, std::__1::allocator<char> >::__short"*
  %54 = getelementptr inbounds %"struct.std::__1::basic_string<char, std::__1::char_traits<char>, std::__1::allocator<char> >::__short", %"struct.std::__1::basic_string<char, std::__1::char_traits<char>, std::__1::allocator<char> >::__short"* %53, i64 0, i32 1, i32 0
  %55 = load i8, i8* %54, align 1
  %56 = icmp slt i8 %55, 0
  br i1 %56, label %57, label %59

57:                                               ; preds = %46
  %58 = load i8*, i8** %49, align 8
  call void @_ZdlPv(i8* %58) #16
  br label %59

59:                                               ; preds = %46, %57
  call void @llvm.lifetime.end.p0i8(i64 24, i8* nonnull %47) #15
  br label %120

60:                                               ; preds = %42
  %61 = getelementptr inbounds %"class.mojo::PendingRemote.265", %"class.mojo::PendingRemote.265"* %9, i64 0, i32 0
  %62 = getelementptr inbounds %"class.mojo::PendingRemote.265", %"class.mojo::PendingRemote.265"* %1, i64 0, i32 0
  call void @_ZN4mojo8internal18PendingRemoteStateC1EOS1_(%"struct.mojo::internal::PendingRemoteState"* nonnull %61, %"struct.mojo::internal::PendingRemoteState"* dereferenceable(8) %62) #15
  %63 = bitcast %"class.mojo::PendingRemote.265"* %6 to i8*
  call void @llvm.lifetime.start.p0i8(i64 8, i8* nonnull %63)
  %64 = getelementptr inbounds %"class.mojo::PendingRemote.265", %"class.mojo::PendingRemote.265"* %6, i64 0, i32 0
  call void @_ZN4mojo8internal18PendingRemoteStateC1EOS1_(%"struct.mojo::internal::PendingRemoteState"* nonnull %64, %"struct.mojo::internal::PendingRemoteState"* nonnull dereferenceable(8) %61) #15
  call void @_ZN4mojo6RemoteIN5blink5mojom20PresentationReceiverEE4BindENS_13PendingRemoteIS3_EE13scoped_refptrIN4base19SequencedTaskRunnerEE(%"class.mojo::Remote.186"* %38, %"class.mojo::PendingRemote.265"* nonnull %6, %"class.base::SequencedTaskRunner"* null) #15
  call void @_ZN4mojo8internal18PendingRemoteStateD1Ev(%"struct.mojo::internal::PendingRemoteState"* nonnull %64) #15
  call void @llvm.lifetime.end.p0i8(i64 8, i8* nonnull %63)
  call void @_ZN4mojo8internal18PendingRemoteStateD1Ev(%"struct.mojo::internal::PendingRemoteState"* nonnull %61) #15
  %65 = ptrtoint %"class.content::PresentationServiceImpl"* %0 to i64
  %66 = call i8* @_Znwm(i64 56) #16, !noalias !15
  %67 = bitcast i8* %66 to %"class.base::internal::BindStateBase"*
  call void @_ZN4base8internal13BindStateBaseC2EPFvvEPFvPKS1_E(%"class.base::internal::BindStateBase"* nonnull %67, void ()* bitcast (void (%"class.base::internal::BindStateBase"*)* @_ZN4base8internal7InvokerINS0_9BindStateIMN7content23PresentationServiceImplEFvvEJNS0_17UnretainedWrapperIS4_EEEEEFvvEE7RunOnceEPNS0_13BindStateBaseE to void ()*), void (%"class.base::internal::BindStateBase"*)* nonnull @_ZN4base8internal9BindStateIMN7content23PresentationServiceImplEFvvEJNS0_17UnretainedWrapperIS3_EEEE7DestroyEPKNS0_13BindStateBaseE) #15, !noalias !15
  %68 = getelementptr inbounds i8, i8* %66, i64 32
  %69 = bitcast i8* %68 to <2 x i64>*
  store <2 x i64> <i64 ptrtoint (void (%"class.content::PresentationServiceImpl"*)* @_ZN7content23PresentationServiceImpl17OnConnectionErrorEv to i64), i64 0>, <2 x i64>* %69, align 8, !noalias !15
  %70 = getelementptr inbounds i8, i8* %66, i64 48
  %71 = bitcast i8* %70 to i64*
  store i64 %65, i64* %71, align 8, !noalias !15
  %72 = bitcast %"class.base::OnceCallback"* %10 to i8**
  store i8* %66, i8** %72, align 8, !alias.scope !15
  %73 = bitcast %"class.base::OnceCallback"* %5 to i8*
  call void @llvm.lifetime.start.p0i8(i64 8, i8* nonnull %73)
  %74 = load %"class.mojo::InterfaceEndpointClient"*, %"class.mojo::InterfaceEndpointClient"** %43, align 8
  %75 = icmp eq %"class.mojo::InterfaceEndpointClient"* %74, null
  %76 = ptrtoint i8* %66 to i64
  br i1 %75, label %81, label %77

77:                                               ; preds = %60
  %78 = getelementptr inbounds %"class.mojo::InterfaceEndpointClient", %"class.mojo::InterfaceEndpointClient"* %74, i64 0, i32 19
  %79 = load i8, i8* %78, align 8, !range !2
  %80 = icmp eq i8 %79, 0
  br i1 %80, label %81, label %93

81:                                               ; preds = %77, %60
  %82 = getelementptr inbounds %"class.mojo::Remote.186", %"class.mojo::Remote.186"* %38, i64 0, i32 0
  %83 = getelementptr inbounds %"class.base::OnceCallback", %"class.base::OnceCallback"* %10, i64 0, i32 0, i32 0, i32 0
  store %"class.base::internal::BindStateBase"* null, %"class.base::internal::BindStateBase"** %83, align 8
  %84 = bitcast %"class.base::OnceCallback"* %4 to i8*
  call void @llvm.lifetime.start.p0i8(i64 8, i8* nonnull %84) #15
  call void @_ZN4mojo8internal17InterfacePtrStateIN5blink5mojom20PresentationReceiverEE25ConfigureProxyIfNecessaryEv(%"class.mojo::internal::InterfacePtrState.187"* %82) #15
  %85 = load %"class.mojo::InterfaceEndpointClient"*, %"class.mojo::InterfaceEndpointClient"** %43, align 8
  %86 = getelementptr inbounds %"class.base::OnceCallback", %"class.base::OnceCallback"* %5, i64 0, i32 0, i32 0, i32 0
  %87 = bitcast %"class.base::OnceCallback"* %4 to i64*
  store i64 %76, i64* %87, align 8
  store %"class.base::internal::BindStateBase"* null, %"class.base::internal::BindStateBase"** %86, align 8
  %88 = getelementptr inbounds %"class.mojo::InterfaceEndpointClient", %"class.mojo::InterfaceEndpointClient"* %85, i64 0, i32 17, i32 0
  %89 = getelementptr inbounds %"class.base::OnceCallback", %"class.base::OnceCallback"* %4, i64 0, i32 0
  %90 = call dereferenceable(8) %"class.base::internal::CallbackBase"* @_ZN4base8internal12CallbackBaseaSEOS1_(%"class.base::internal::CallbackBase"* %88, %"class.base::internal::CallbackBase"* nonnull dereferenceable(8) %89) #15
  %91 = getelementptr inbounds %"class.mojo::InterfaceEndpointClient", %"class.mojo::InterfaceEndpointClient"* %85, i64 0, i32 18, i32 0
  call void @_ZN4base8internal12CallbackBase5ResetEv(%"class.base::internal::CallbackBase"* %91) #15
  call void @_ZN4base8internal12CallbackBaseD2Ev(%"class.base::internal::CallbackBase"* nonnull %89) #15
  call void @llvm.lifetime.end.p0i8(i64 8, i8* nonnull %84) #15
  %92 = getelementptr inbounds %"class.base::OnceCallback", %"class.base::OnceCallback"* %5, i64 0, i32 0
  call void @_ZN4base8internal12CallbackBaseD2Ev(%"class.base::internal::CallbackBase"* nonnull %92) #15
  br label %93

93:                                               ; preds = %77, %81
  call void @llvm.lifetime.end.p0i8(i64 8, i8* nonnull %73)
  %94 = getelementptr inbounds %"class.base::OnceCallback", %"class.base::OnceCallback"* %10, i64 0, i32 0
  call void @_ZN4base8internal12CallbackBaseD2Ev(%"class.base::internal::CallbackBase"* nonnull %94) #15
  %95 = load %"class.content::ReceiverPresentationServiceDelegate"*, %"class.content::ReceiverPresentationServiceDelegate"** %16, align 8
  %96 = bitcast %"class.base::RepeatingCallback.283"* %11 to i8*
  call void @llvm.lifetime.start.p0i8(i64 8, i8* nonnull %96) #15
  %97 = bitcast %"class.base::WeakPtr.284"* %12 to i8*
  call void @llvm.lifetime.start.p0i8(i64 16, i8* nonnull %97) #15
  %98 = bitcast %"class.base::internal::WeakReference"* %3 to i8*
  call void @llvm.lifetime.start.p0i8(i64 8, i8* nonnull %98) #15, !noalias !20
  %99 = getelementptr inbounds %"class.content::PresentationServiceImpl", %"class.content::PresentationServiceImpl"* %0, i64 0, i32 17, i32 0, i32 0
  call void @_ZNK4base8internal18WeakReferenceOwner6GetRefEv(%"class.base::internal::WeakReference"* nonnull sret %3, %"class.base::internal::WeakReferenceOwner"* %99) #15, !noalias !20
  %100 = getelementptr inbounds %"class.content::PresentationServiceImpl", %"class.content::PresentationServiceImpl"* %0, i64 0, i32 17, i32 0, i32 1
  %101 = load i64, i64* %100, align 8, !noalias !20
  %102 = getelementptr inbounds %"class.base::WeakPtr.284", %"class.base::WeakPtr.284"* %12, i64 0, i32 0
  call void @_ZN4base8internal11WeakPtrBaseC2ERKNS0_13WeakReferenceEm(%"class.base::internal::WeakPtrBase"* nonnull %102, %"class.base::internal::WeakReference"* nonnull dereferenceable(8) %3, i64 %101) #15
  call void @_ZN4base8internal13WeakReferenceD1Ev(%"class.base::internal::WeakReference"* nonnull %3) #15
  call void @llvm.lifetime.end.p0i8(i64 8, i8* nonnull %98) #15, !noalias !20
  %103 = call i8* @_Znwm(i64 64) #16, !noalias !23
  %104 = bitcast i8* %103 to %"class.base::internal::BindStateBase"*
  call void @_ZN4base8internal13BindStateBaseC2EPFvvEPFvPKS1_EPFbS5_NS1_21CancellationQueryModeEE(%"class.base::internal::BindStateBase"* nonnull %104, void ()* bitcast (void (%"class.base::internal::BindStateBase"*, %"class.mojo::StructPtr"*, %"class.mojo::PendingRemote.291"*, %"class.mojo::PendingReceiver.292"*)* @_ZN4base8internal7InvokerINS0_9BindStateIMN7content23PresentationServiceImplEFvN4mojo9StructPtrIN5blink5mojom16PresentationInfoEEENS5_13PendingRemoteINS8_22PresentationConnectionEEENS5_15PendingReceiverISC_EEEJNS_7WeakPtrIS4_EEEEEFvSA_SD_SF_EE3RunEPNS0_13BindStateBaseEOSA_OSD_OSF_ to void ()*), void (%"class.base::internal::BindStateBase"*)* nonnull @_ZN4base8internal9BindStateIMN7content23PresentationServiceImplEFvN4mojo9StructPtrIN5blink5mojom16PresentationInfoEEENS4_13PendingRemoteINS7_22PresentationConnectionEEENS4_15PendingReceiverISB_EEEJNS_7WeakPtrIS3_EEEE7DestroyEPKNS0_13BindStateBaseE, i1 (%"class.base::internal::BindStateBase"*, i32)* nonnull @_ZN4base8internal23QueryCancellationTraitsINS0_9BindStateIMN7content23PresentationServiceImplEFvN4mojo9StructPtrIN5blink5mojom16PresentationInfoEEENS5_13PendingRemoteINS8_22PresentationConnectionEEENS5_15PendingReceiverISC_EEEJNS_7WeakPtrIS4_EEEEEEEbPKNS0_13BindStateBaseENSL_21CancellationQueryModeE) #15, !noalias !23
  %105 = getelementptr inbounds i8, i8* %103, i64 32
  %106 = bitcast i8* %105 to <2 x i64>*
  store <2 x i64> <i64 ptrtoint (void (%"class.content::PresentationServiceImpl"*, %"class.mojo::StructPtr"*, %"class.mojo::PendingRemote.291"*, %"class.mojo::PendingReceiver.292"*)* @_ZN7content23PresentationServiceImpl29OnReceiverConnectionAvailableEN4mojo9StructPtrIN5blink5mojom16PresentationInfoEEENS1_13PendingRemoteINS4_22PresentationConnectionEEENS1_15PendingReceiverIS8_EE to i64), i64 0>, <2 x i64>* %106, align 8, !noalias !23
  %107 = getelementptr inbounds i8, i8* %103, i64 48
  %108 = bitcast i8* %107 to %"class.base::internal::WeakReference"*
  %109 = getelementptr inbounds %"class.base::WeakPtr.284", %"class.base::WeakPtr.284"* %12, i64 0, i32 0, i32 0
  call void @_ZN4base8internal13WeakReferenceC1EOS1_(%"class.base::internal::WeakReference"* %108, %"class.base::internal::WeakReference"* nonnull dereferenceable(8) %109) #15, !noalias !23
  %110 = getelementptr inbounds i8, i8* %103, i64 56
  %111 = bitcast i8* %110 to i64*
  %112 = getelementptr inbounds %"class.base::WeakPtr.284", %"class.base::WeakPtr.284"* %12, i64 0, i32 0, i32 1
  %113 = load i64, i64* %112, align 8, !noalias !23
  store i64 %113, i64* %111, align 8, !noalias !23
  %114 = bitcast %"class.base::RepeatingCallback.283"* %11 to i8**
  store i8* %103, i8** %114, align 8, !alias.scope !23
  %115 = bitcast %"class.content::ReceiverPresentationServiceDelegate"* %95 to void (%"class.content::ReceiverPresentationServiceDelegate"*, %"class.base::RepeatingCallback.283"*)***
  %116 = load void (%"class.content::ReceiverPresentationServiceDelegate"*, %"class.base::RepeatingCallback.283"*)**, void (%"class.content::ReceiverPresentationServiceDelegate"*, %"class.base::RepeatingCallback.283"*)*** %115, align 8
  %117 = getelementptr inbounds void (%"class.content::ReceiverPresentationServiceDelegate"*, %"class.base::RepeatingCallback.283"*)*, void (%"class.content::ReceiverPresentationServiceDelegate"*, %"class.base::RepeatingCallback.283"*)** %116, i64 5
  %118 = load void (%"class.content::ReceiverPresentationServiceDelegate"*, %"class.base::RepeatingCallback.283"*)*, void (%"class.content::ReceiverPresentationServiceDelegate"*, %"class.base::RepeatingCallback.283"*)** %117, align 8
  call void %118(%"class.content::ReceiverPresentationServiceDelegate"* %95, %"class.base::RepeatingCallback.283"* nonnull dereferenceable(8) %11) #15
  %119 = getelementptr inbounds %"class.base::RepeatingCallback.283", %"class.base::RepeatingCallback.283"* %11, i64 0, i32 0, i32 0
  call void @_ZN4base8internal12CallbackBaseD2Ev(%"class.base::internal::CallbackBase"* nonnull %119) #15
  call void @_ZN4base8internal11WeakPtrBaseD2Ev(%"class.base::internal::WeakPtrBase"* nonnull %102) #15
  call void @llvm.lifetime.end.p0i8(i64 16, i8* nonnull %97) #15
  call void @llvm.lifetime.end.p0i8(i64 8, i8* nonnull %96) #15
  br label %120

120:                                              ; preds = %2, %93, %59, %36
  ret void
}

declare %"class.base::CommandLine"* @_ZN4base11CommandLine17ForCurrentProcessEv() local_unnamed_addr #1

declare zeroext i1 @_ZNK4base11CommandLine9HasSwitchEPKc(%"class.base::CommandLine"*, i8*) local_unnamed_addr #1

; Function Attrs: nounwind ssp uwtable
define hidden void @_ZN7content23PresentationServiceImpl29OnReceiverConnectionAvailableEN4mojo9StructPtrIN5blink5mojom16PresentationInfoEEENS1_13PendingRemoteINS4_22PresentationConnectionEEENS1_15PendingReceiverIS8_EE(%"class.content::PresentationServiceImpl"*, %"class.mojo::StructPtr"* nocapture, %"class.mojo::PendingRemote.291"*, %"class.mojo::PendingReceiver.292"*) #0 align 2 {
  %5 = alloca %"class.mojo::StructPtr", align 8
  %6 = alloca %"class.mojo::PendingRemote.291", align 4
  %7 = alloca %"class.mojo::PendingReceiver.292", align 8
  %8 = getelementptr inbounds %"class.content::PresentationServiceImpl", %"class.content::PresentationServiceImpl"* %0, i64 0, i32 7, i32 0
  tail call void @_ZN4mojo8internal17InterfacePtrStateIN5blink5mojom20PresentationReceiverEE25ConfigureProxyIfNecessaryEv(%"class.mojo::internal::InterfacePtrState.187"* %8) #15
  %9 = getelementptr inbounds %"class.content::PresentationServiceImpl", %"class.content::PresentationServiceImpl"* %0, i64 0, i32 7, i32 0, i32 1, i32 0, i32 0, i32 0
  %10 = load %"class.blink::mojom::PresentationReceiverProxy"*, %"class.blink::mojom::PresentationReceiverProxy"** %9, align 8
  %11 = bitcast %"class.mojo::StructPtr"* %5 to i64*
  %12 = getelementptr inbounds %"class.mojo::StructPtr", %"class.mojo::StructPtr"* %5, i64 0, i32 0, i32 0, i32 0, i32 0
  %13 = bitcast %"class.mojo::StructPtr"* %1 to i64*
  %14 = load i64, i64* %13, align 8
  store i64 %14, i64* %11, align 8
  store i64 0, i64* %13, align 8
  %15 = getelementptr inbounds %"class.mojo::PendingRemote.291", %"class.mojo::PendingRemote.291"* %6, i64 0, i32 0
  %16 = getelementptr inbounds %"class.mojo::PendingRemote.291", %"class.mojo::PendingRemote.291"* %2, i64 0, i32 0
  call void @_ZN4mojo8internal18PendingRemoteStateC1EOS1_(%"struct.mojo::internal::PendingRemoteState"* nonnull %15, %"struct.mojo::internal::PendingRemoteState"* dereferenceable(8) %16) #15
  %17 = getelementptr inbounds %"class.mojo::PendingReceiver.292", %"class.mojo::PendingReceiver.292"* %7, i64 0, i32 0
  %18 = getelementptr inbounds %"class.mojo::PendingReceiver.292", %"class.mojo::PendingReceiver.292"* %3, i64 0, i32 0
  call void @_ZN4mojo8internal20PendingReceiverStateC1EOS1_(%"struct.mojo::internal::PendingReceiverState"* nonnull %17, %"struct.mojo::internal::PendingReceiverState"* dereferenceable(24) %18) #15
  call void @_ZN5blink5mojom25PresentationReceiverProxy29OnReceiverConnectionAvailableEN4mojo9StructPtrINS0_16PresentationInfoEEENS2_13PendingRemoteINS0_22PresentationConnectionEEENS2_15PendingReceiverIS7_EE(%"class.blink::mojom::PresentationReceiverProxy"* %10, %"class.mojo::StructPtr"* nonnull %5, %"class.mojo::PendingRemote.291"* nonnull %6, %"class.mojo::PendingReceiver.292"* nonnull %7) #15
  call void @_ZN4mojo8internal20PendingReceiverStateD1Ev(%"struct.mojo::internal::PendingReceiverState"* nonnull %17) #15
  call void @_ZN4mojo8internal18PendingRemoteStateD1Ev(%"struct.mojo::internal::PendingRemoteState"* nonnull %15) #15
  %19 = load %"class.blink::mojom::PresentationInfo"*, %"class.blink::mojom::PresentationInfo"** %12, align 8
  store %"class.blink::mojom::PresentationInfo"* null, %"class.blink::mojom::PresentationInfo"** %12, align 8
  %20 = icmp eq %"class.blink::mojom::PresentationInfo"* %19, null
  br i1 %20, label %23, label %21

21:                                               ; preds = %4
  call void @_ZN5blink5mojom16PresentationInfoD1Ev(%"class.blink::mojom::PresentationInfo"* nonnull %19) #15
  %22 = bitcast %"class.blink::mojom::PresentationInfo"* %19 to i8*
  call void @_ZdlPv(i8* %22) #16
  br label %23

23:                                               ; preds = %4, %21
  ret void
}

; Function Attrs: nounwind
declare void @_ZN4base8internal11WeakPtrBaseD2Ev(%"class.base::internal::WeakPtrBase"*) unnamed_addr #3

; Function Attrs: nounwind ssp uwtable
define hidden void @_ZN7content23PresentationServiceImpl27ListenForScreenAvailabilityERK4GURL(%"class.content::PresentationServiceImpl"*, %class.GURL* dereferenceable(120)) unnamed_addr #0 align 2 {
  %3 = alloca %"class.std::__1::tuple.412", align 8
  %4 = alloca %"class.std::__1::tuple.415", align 1
  %5 = getelementptr inbounds %"class.content::PresentationServiceImpl", %"class.content::PresentationServiceImpl"* %0, i64 0, i32 4
  %6 = load %"class.content::ControllerPresentationServiceDelegate"*, %"class.content::ControllerPresentationServiceDelegate"** %5, align 8
  %7 = icmp eq %"class.content::ControllerPresentationServiceDelegate"* %6, null
  br i1 %7, label %12, label %8

8:                                                ; preds = %2
  %9 = getelementptr inbounds %class.GURL, %class.GURL* %1, i64 0, i32 1
  %10 = load i8, i8* %9, align 8, !range !2
  %11 = icmp eq i8 %10, 0
  br i1 %11, label %12, label %24

12:                                               ; preds = %8, %2
  %13 = getelementptr inbounds %"class.content::PresentationServiceImpl", %"class.content::PresentationServiceImpl"* %0, i64 0, i32 6, i32 0, i32 0, i32 2, i32 0, i32 0, i32 0
  %14 = load i32, i32* %13, align 4
  %15 = icmp eq i32 %14, 0
  br i1 %15, label %16, label %20

16:                                               ; preds = %12
  %17 = getelementptr inbounds %"class.content::PresentationServiceImpl", %"class.content::PresentationServiceImpl"* %0, i64 0, i32 6, i32 0, i32 0, i32 1, i32 0, i32 0, i32 0
  %18 = load %"class.mojo::InterfaceEndpointClient"*, %"class.mojo::InterfaceEndpointClient"** %17, align 8
  %19 = icmp eq %"class.mojo::InterfaceEndpointClient"* %18, null
  br i1 %19, label %86, label %20

20:                                               ; preds = %16, %12
  %21 = getelementptr inbounds %"class.content::PresentationServiceImpl", %"class.content::PresentationServiceImpl"* %0, i64 0, i32 6, i32 0
  tail call void @_ZN4mojo8internal17InterfacePtrStateIN5blink5mojom22PresentationControllerEE25ConfigureProxyIfNecessaryEv(%"class.mojo::internal::InterfacePtrState"* %21) #15
  %22 = getelementptr inbounds %"class.content::PresentationServiceImpl", %"class.content::PresentationServiceImpl"* %0, i64 0, i32 6, i32 0, i32 1, i32 0, i32 0, i32 0
  %23 = load %"class.blink::mojom::PresentationControllerProxy"*, %"class.blink::mojom::PresentationControllerProxy"** %22, align 8
  tail call void @_ZN5blink5mojom27PresentationControllerProxy27OnScreenAvailabilityUpdatedERK4GURLNS0_18ScreenAvailabilityE(%"class.blink::mojom::PresentationControllerProxy"* %23, %class.GURL* dereferenceable(120) %1, i32 1) #15
  br label %86

24:                                               ; preds = %8
  %25 = getelementptr inbounds %"class.content::PresentationServiceImpl", %"class.content::PresentationServiceImpl"* %0, i64 0, i32 9, i32 0, i32 1, i32 0, i32 0
  %26 = bitcast %"class.std::__1::__tree_end_node"* %25 to %"class.std::__1::__tree_node"**
  %27 = load %"class.std::__1::__tree_node"*, %"class.std::__1::__tree_node"** %26, align 8
  %28 = icmp eq %"class.std::__1::__tree_node"* %27, null
  br i1 %28, label %44, label %29

29:                                               ; preds = %24, %40
  %30 = phi %"class.std::__1::__tree_node"* [ %42, %40 ], [ %27, %24 ]
  %31 = getelementptr inbounds %"class.std::__1::__tree_node", %"class.std::__1::__tree_node"* %30, i64 0, i32 1, i32 0, i32 0
  %32 = tail call zeroext i1 @_ZNK4GURLltERKS_(%class.GURL* %1, %class.GURL* dereferenceable(120) %31) #15
  br i1 %32, label %33, label %35

33:                                               ; preds = %29
  %34 = bitcast %"class.std::__1::__tree_node"* %30 to %"class.std::__1::__tree_node"**
  br label %40

35:                                               ; preds = %29
  %36 = tail call zeroext i1 @_ZNK4GURLltERKS_(%class.GURL* %31, %class.GURL* dereferenceable(120) %1) #15
  br i1 %36, label %37, label %86

37:                                               ; preds = %35
  %38 = getelementptr inbounds %"class.std::__1::__tree_node", %"class.std::__1::__tree_node"* %30, i64 0, i32 0, i32 1
  %39 = bitcast %"class.std::__1::__tree_node_base"** %38 to %"class.std::__1::__tree_node"**
  br label %40

40:                                               ; preds = %37, %33
  %41 = phi %"class.std::__1::__tree_node"** [ %34, %33 ], [ %39, %37 ]
  %42 = load %"class.std::__1::__tree_node"*, %"class.std::__1::__tree_node"** %41, align 8
  %43 = icmp eq %"class.std::__1::__tree_node"* %42, null
  br i1 %43, label %44, label %29

44:                                               ; preds = %40, %24
  %45 = tail call i8* @_Znwm(i64 136) #16
  %46 = bitcast i8* %45 to i32 (...)***
  store i32 (...)** bitcast (i8** getelementptr inbounds ({ [6 x i8*] }, { [6 x i8*] }* @_ZTVN7content23PresentationServiceImpl30ScreenAvailabilityListenerImplE, i64 0, inrange i32 0, i64 2) to i32 (...)**), i32 (...)*** %46, align 8
  %47 = getelementptr inbounds i8, i8* %45, i64 8
  %48 = bitcast i8* %47 to %class.GURL*
  tail call void @_ZN4GURLC1ERKS_(%class.GURL* %48, %class.GURL* dereferenceable(120) %1) #15
  %49 = getelementptr inbounds i8, i8* %45, i64 128
  %50 = bitcast i8* %49 to %"class.content::PresentationServiceImpl"**
  store %"class.content::PresentationServiceImpl"* %0, %"class.content::PresentationServiceImpl"** %50, align 8
  %51 = load %"class.content::ControllerPresentationServiceDelegate"*, %"class.content::ControllerPresentationServiceDelegate"** %5, align 8
  %52 = getelementptr inbounds %"class.content::PresentationServiceImpl", %"class.content::PresentationServiceImpl"* %0, i64 0, i32 14
  %53 = load i32, i32* %52, align 8
  %54 = getelementptr inbounds %"class.content::PresentationServiceImpl", %"class.content::PresentationServiceImpl"* %0, i64 0, i32 15
  %55 = load i32, i32* %54, align 4
  %56 = bitcast i8* %45 to %"class.content::PresentationScreenAvailabilityListener"*
  %57 = bitcast %"class.content::ControllerPresentationServiceDelegate"* %51 to i1 (%"class.content::ControllerPresentationServiceDelegate"*, i32, i32, %"class.content::PresentationScreenAvailabilityListener"*)***
  %58 = load i1 (%"class.content::ControllerPresentationServiceDelegate"*, i32, i32, %"class.content::PresentationScreenAvailabilityListener"*)**, i1 (%"class.content::ControllerPresentationServiceDelegate"*, i32, i32, %"class.content::PresentationScreenAvailabilityListener"*)*** %57, align 8
  %59 = getelementptr inbounds i1 (%"class.content::ControllerPresentationServiceDelegate"*, i32, i32, %"class.content::PresentationScreenAvailabilityListener"*)*, i1 (%"class.content::ControllerPresentationServiceDelegate"*, i32, i32, %"class.content::PresentationScreenAvailabilityListener"*)** %58, i64 5
  %60 = load i1 (%"class.content::ControllerPresentationServiceDelegate"*, i32, i32, %"class.content::PresentationScreenAvailabilityListener"*)*, i1 (%"class.content::ControllerPresentationServiceDelegate"*, i32, i32, %"class.content::PresentationScreenAvailabilityListener"*)** %59, align 8
  %61 = tail call zeroext i1 %60(%"class.content::ControllerPresentationServiceDelegate"* %51, i32 %53, i32 %55, %"class.content::PresentationScreenAvailabilityListener"* nonnull %56) #15
  br i1 %61, label %62, label %80

62:                                               ; preds = %44
  %63 = ptrtoint i8* %45 to i64
  %64 = getelementptr inbounds %"class.content::PresentationServiceImpl", %"class.content::PresentationServiceImpl"* %0, i64 0, i32 9, i32 0
  %65 = bitcast %"class.std::__1::tuple.412"* %3 to i8*
  call void @llvm.lifetime.start.p0i8(i64 8, i8* nonnull %65) #15
  %66 = getelementptr inbounds %"class.std::__1::tuple.412", %"class.std::__1::tuple.412"* %3, i64 0, i32 0, i32 0, i32 0
  store %class.GURL* %1, %class.GURL** %66, align 8
  %67 = getelementptr inbounds %"class.std::__1::tuple.415", %"class.std::__1::tuple.415"* %4, i64 0, i32 0
  call void @llvm.lifetime.start.p0i8(i64 1, i8* nonnull %67) #15
  %68 = call { %"class.std::__1::__tree_end_node"*, i8 } @_ZNSt3__16__treeINS_12__value_typeI4GURLNS_10unique_ptrIN7content23PresentationServiceImpl30ScreenAvailabilityListenerImplENS_14default_deleteIS6_EEEEEENS_19__map_value_compareIS2_SA_NS_4lessIS2_EELb1EEENS_9allocatorISA_EEE25__emplace_unique_key_argsIS2_JRKNS_21piecewise_construct_tENS_5tupleIJRKS2_EEENSM_IJEEEEEENS_4pairINS_15__tree_iteratorISA_PNS_11__tree_nodeISA_PvEElEEbEERKT_DpOT0_(%"class.std::__1::__tree.205"* %64, %class.GURL* dereferenceable(120) %1, %"struct.std::__1::piecewise_construct_t"* nonnull dereferenceable(1) @_ZNSt3__1L19piecewise_constructE, %"class.std::__1::tuple.412"* nonnull dereferenceable(8) %3, %"class.std::__1::tuple.415"* nonnull dereferenceable(1) %4) #15
  %69 = extractvalue { %"class.std::__1::__tree_end_node"*, i8 } %68, 0
  %70 = getelementptr inbounds %"class.std::__1::__tree_end_node", %"class.std::__1::__tree_end_node"* %69, i64 19
  call void @llvm.lifetime.end.p0i8(i64 1, i8* nonnull %67) #15
  call void @llvm.lifetime.end.p0i8(i64 8, i8* nonnull %65) #15
  %71 = bitcast %"class.std::__1::__tree_end_node"* %70 to %"class.content::PresentationServiceImpl::ScreenAvailabilityListenerImpl"**
  %72 = load %"class.content::PresentationServiceImpl::ScreenAvailabilityListenerImpl"*, %"class.content::PresentationServiceImpl::ScreenAvailabilityListenerImpl"** %71, align 8
  %73 = bitcast %"class.std::__1::__tree_end_node"* %70 to i64*
  store i64 %63, i64* %73, align 8
  %74 = icmp eq %"class.content::PresentationServiceImpl::ScreenAvailabilityListenerImpl"* %72, null
  br i1 %74, label %86, label %75

75:                                               ; preds = %62
  %76 = bitcast %"class.content::PresentationServiceImpl::ScreenAvailabilityListenerImpl"* %72 to void (%"class.content::PresentationServiceImpl::ScreenAvailabilityListenerImpl"*)***
  %77 = load void (%"class.content::PresentationServiceImpl::ScreenAvailabilityListenerImpl"*)**, void (%"class.content::PresentationServiceImpl::ScreenAvailabilityListenerImpl"*)*** %76, align 8
  %78 = getelementptr inbounds void (%"class.content::PresentationServiceImpl::ScreenAvailabilityListenerImpl"*)*, void (%"class.content::PresentationServiceImpl::ScreenAvailabilityListenerImpl"*)** %77, i64 1
  %79 = load void (%"class.content::PresentationServiceImpl::ScreenAvailabilityListenerImpl"*)*, void (%"class.content::PresentationServiceImpl::ScreenAvailabilityListenerImpl"*)** %78, align 8
  call void %79(%"class.content::PresentationServiceImpl::ScreenAvailabilityListenerImpl"* nonnull %72) #15
  br label %86

80:                                               ; preds = %44
  %81 = bitcast i8* %45 to %"class.content::PresentationServiceImpl::ScreenAvailabilityListenerImpl"*
  %82 = bitcast i8* %45 to void (%"class.content::PresentationServiceImpl::ScreenAvailabilityListenerImpl"*)***
  %83 = load void (%"class.content::PresentationServiceImpl::ScreenAvailabilityListenerImpl"*)**, void (%"class.content::PresentationServiceImpl::ScreenAvailabilityListenerImpl"*)*** %82, align 8
  %84 = getelementptr inbounds void (%"class.content::PresentationServiceImpl::ScreenAvailabilityListenerImpl"*)*, void (%"class.content::PresentationServiceImpl::ScreenAvailabilityListenerImpl"*)** %83, i64 1
  %85 = load void (%"class.content::PresentationServiceImpl::ScreenAvailabilityListenerImpl"*)*, void (%"class.content::PresentationServiceImpl::ScreenAvailabilityListenerImpl"*)** %84, align 8
  tail call void %85(%"class.content::PresentationServiceImpl::ScreenAvailabilityListenerImpl"* nonnull %81) #15
  br label %86

86:                                               ; preds = %35, %16, %75, %62, %80, %20
  ret void
}

declare void @_ZN5blink5mojom27PresentationControllerProxy27OnScreenAvailabilityUpdatedERK4GURLNS0_18ScreenAvailabilityE(%"class.blink::mojom::PresentationControllerProxy"*, %class.GURL* dereferenceable(120), i32) unnamed_addr #1

; Function Attrs: nounwind ssp uwtable
define hidden void @_ZN7content23PresentationServiceImpl34StopListeningForScreenAvailabilityERK4GURL(%"class.content::PresentationServiceImpl"*, %class.GURL* dereferenceable(120)) unnamed_addr #0 align 2 {
  %3 = getelementptr inbounds %"class.content::PresentationServiceImpl", %"class.content::PresentationServiceImpl"* %0, i64 0, i32 4
  %4 = load %"class.content::ControllerPresentationServiceDelegate"*, %"class.content::ControllerPresentationServiceDelegate"** %3, align 8
  %5 = icmp eq %"class.content::ControllerPresentationServiceDelegate"* %4, null
  br i1 %5, label %46, label %6

6:                                                ; preds = %2
  %7 = getelementptr inbounds %"class.content::PresentationServiceImpl", %"class.content::PresentationServiceImpl"* %0, i64 0, i32 9, i32 0, i32 1, i32 0, i32 0
  %8 = bitcast %"class.std::__1::__tree_end_node"* %7 to %"class.std::__1::__tree_node"**
  %9 = load %"class.std::__1::__tree_node"*, %"class.std::__1::__tree_node"** %8, align 8
  %10 = icmp eq %"class.std::__1::__tree_node"* %9, null
  br i1 %10, label %46, label %11

11:                                               ; preds = %6, %11
  %12 = phi %"class.std::__1::__tree_end_node"* [ %21, %11 ], [ %7, %6 ]
  %13 = phi %"class.std::__1::__tree_node"* [ %22, %11 ], [ %9, %6 ]
  %14 = getelementptr inbounds %"class.std::__1::__tree_node", %"class.std::__1::__tree_node"* %13, i64 0, i32 1, i32 0, i32 0
  %15 = tail call zeroext i1 @_ZNK4GURLltERKS_(%class.GURL* %14, %class.GURL* dereferenceable(120) %1) #15
  %16 = getelementptr inbounds %"class.std::__1::__tree_node", %"class.std::__1::__tree_node"* %13, i64 0, i32 0, i32 1
  %17 = bitcast %"class.std::__1::__tree_node_base"** %16 to %"class.std::__1::__tree_node"**
  %18 = getelementptr inbounds %"class.std::__1::__tree_node", %"class.std::__1::__tree_node"* %13, i64 0, i32 0, i32 0
  %19 = bitcast %"class.std::__1::__tree_node"* %13 to %"class.std::__1::__tree_node"**
  %20 = select i1 %15, %"class.std::__1::__tree_node"** %17, %"class.std::__1::__tree_node"** %19
  %21 = select i1 %15, %"class.std::__1::__tree_end_node"* %12, %"class.std::__1::__tree_end_node"* %18
  %22 = load %"class.std::__1::__tree_node"*, %"class.std::__1::__tree_node"** %20, align 8
  %23 = icmp eq %"class.std::__1::__tree_node"* %22, null
  br i1 %23, label %24, label %11

24:                                               ; preds = %11
  %25 = icmp eq %"class.std::__1::__tree_end_node"* %21, %7
  br i1 %25, label %46, label %26

26:                                               ; preds = %24
  %27 = getelementptr inbounds %"class.std::__1::__tree_end_node", %"class.std::__1::__tree_end_node"* %21, i64 4
  %28 = bitcast %"class.std::__1::__tree_end_node"* %27 to %class.GURL*
  %29 = tail call zeroext i1 @_ZNK4GURLltERKS_(%class.GURL* %1, %class.GURL* dereferenceable(120) %28) #15
  br i1 %29, label %46, label %30

30:                                               ; preds = %26
  %31 = load %"class.content::ControllerPresentationServiceDelegate"*, %"class.content::ControllerPresentationServiceDelegate"** %3, align 8
  %32 = getelementptr inbounds %"class.content::PresentationServiceImpl", %"class.content::PresentationServiceImpl"* %0, i64 0, i32 14
  %33 = load i32, i32* %32, align 8
  %34 = getelementptr inbounds %"class.content::PresentationServiceImpl", %"class.content::PresentationServiceImpl"* %0, i64 0, i32 15
  %35 = load i32, i32* %34, align 4
  %36 = getelementptr inbounds %"class.std::__1::__tree_end_node", %"class.std::__1::__tree_end_node"* %21, i64 19
  %37 = bitcast %"class.std::__1::__tree_end_node"* %36 to %"class.content::PresentationServiceImpl::ScreenAvailabilityListenerImpl"**
  %38 = load %"class.content::PresentationServiceImpl::ScreenAvailabilityListenerImpl"*, %"class.content::PresentationServiceImpl::ScreenAvailabilityListenerImpl"** %37, align 8
  %39 = getelementptr inbounds %"class.content::PresentationServiceImpl::ScreenAvailabilityListenerImpl", %"class.content::PresentationServiceImpl::ScreenAvailabilityListenerImpl"* %38, i64 0, i32 0
  %40 = bitcast %"class.content::ControllerPresentationServiceDelegate"* %31 to void (%"class.content::ControllerPresentationServiceDelegate"*, i32, i32, %"class.content::PresentationScreenAvailabilityListener"*)***
  %41 = load void (%"class.content::ControllerPresentationServiceDelegate"*, i32, i32, %"class.content::PresentationScreenAvailabilityListener"*)**, void (%"class.content::ControllerPresentationServiceDelegate"*, i32, i32, %"class.content::PresentationScreenAvailabilityListener"*)*** %40, align 8
  %42 = getelementptr inbounds void (%"class.content::ControllerPresentationServiceDelegate"*, i32, i32, %"class.content::PresentationScreenAvailabilityListener"*)*, void (%"class.content::ControllerPresentationServiceDelegate"*, i32, i32, %"class.content::PresentationScreenAvailabilityListener"*)** %41, i64 6
  %43 = load void (%"class.content::ControllerPresentationServiceDelegate"*, i32, i32, %"class.content::PresentationScreenAvailabilityListener"*)*, void (%"class.content::ControllerPresentationServiceDelegate"*, i32, i32, %"class.content::PresentationScreenAvailabilityListener"*)** %42, align 8
  tail call void %43(%"class.content::ControllerPresentationServiceDelegate"* %31, i32 %33, i32 %35, %"class.content::PresentationScreenAvailabilityListener"* %39) #15
  %44 = getelementptr inbounds %"class.content::PresentationServiceImpl", %"class.content::PresentationServiceImpl"* %0, i64 0, i32 9, i32 0
  %45 = tail call %"class.std::__1::__tree_end_node"* @_ZNSt3__16__treeINS_12__value_typeI4GURLNS_10unique_ptrIN7content23PresentationServiceImpl30ScreenAvailabilityListenerImplENS_14default_deleteIS6_EEEEEENS_19__map_value_compareIS2_SA_NS_4lessIS2_EELb1EEENS_9allocatorISA_EEE5eraseENS_21__tree_const_iteratorISA_PNS_11__tree_nodeISA_PvEElEE(%"class.std::__1::__tree.205"* %44, %"class.std::__1::__tree_end_node"* %21) #15
  br label %46

46:                                               ; preds = %26, %24, %6, %30, %2
  ret void
}

; Function Attrs: argmemonly nounwind
declare void @llvm.memcpy.p0i8.p0i8.i64(i8* nocapture writeonly, i8* nocapture readonly, i64, i1 immarg) #2

; Function Attrs: nounwind ssp uwtable
define hidden void @_ZN7content23PresentationServiceImpl17StartPresentationERKNSt3__16vectorI4GURLNS1_9allocatorIS3_EEEEN4base12OnceCallbackIFvN4mojo9StructPtrIN5blink5mojom28PresentationConnectionResultEEENSB_16InlinedStructPtrINSE_17PresentationErrorEEEEEE(%"class.content::PresentationServiceImpl"*, %"class.std::__1::vector"* dereferenceable(24), %"class.base::OnceCallback.218"* nocapture) unnamed_addr #0 align 2 {
  %4 = alloca %"class.base::internal::WeakReference", align 8
  %5 = alloca %"class.base::internal::WeakReference", align 8
  %6 = alloca %"class.base::OnceCallback.218", align 8
  %7 = alloca %"class.base::OnceCallback.218", align 8
  %8 = alloca %"class.base::OnceCallback.218", align 8
  %9 = alloca %"class.mojo::StructPtr.300", align 8
  %10 = alloca %"class.mojo::InlinedStructPtr", align 8
  %11 = alloca i32, align 4
  %12 = alloca %"class.base::OnceCallback.218", align 8
  %13 = alloca %"class.mojo::StructPtr.300", align 8
  %14 = alloca %"class.mojo::InlinedStructPtr", align 8
  %15 = alloca i32, align 4
  %16 = alloca %"struct.content::PresentationRequest", align 8
  %17 = alloca %"struct.content::GlobalFrameRoutingId", align 4
  %18 = alloca %"class.base::OnceCallback.312", align 8
  %19 = alloca %"class.base::WeakPtr.284", align 8
  %20 = alloca %"class.base::OnceCallback.313", align 8
  %21 = alloca %"class.base::WeakPtr.284", align 8
  %22 = getelementptr inbounds %"class.content::PresentationServiceImpl", %"class.content::PresentationServiceImpl"* %0, i64 0, i32 10
  %23 = load i32, i32* %22, align 8
  %24 = icmp eq i32 %23, -1
  br i1 %24, label %49, label %25

25:                                               ; preds = %3
  %26 = getelementptr inbounds %"class.base::OnceCallback.218", %"class.base::OnceCallback.218"* %2, i64 0, i32 0, i32 0, i32 0
  %27 = bitcast %"class.base::OnceCallback.218"* %2 to i64*
  %28 = load i64, i64* %27, align 8
  store %"class.base::internal::BindStateBase"* null, %"class.base::internal::BindStateBase"** %26, align 8
  %29 = bitcast %"class.mojo::StructPtr.300"* %9 to i8*
  call void @llvm.lifetime.start.p0i8(i64 8, i8* nonnull %29)
  %30 = bitcast %"class.mojo::InlinedStructPtr"* %10 to i8*
  call void @llvm.lifetime.start.p0i8(i64 40, i8* nonnull %30)
  %31 = bitcast %"class.mojo::StructPtr.300"* %9 to i64*
  store i64 0, i64* %31, align 8
  %32 = bitcast i32* %11 to i8*
  call void @llvm.lifetime.start.p0i8(i64 4, i8* nonnull %32) #15
  store i32 3, i32* %11, align 4
  call void @_ZN5blink5mojom17PresentationError3NewIJNS0_21PresentationErrorTypeERA69_KcEEEN4mojo16InlinedStructPtrIS1_EEDpOT_(%"class.mojo::InlinedStructPtr"* nonnull sret %10, i32* nonnull dereferenceable(4) %11, [69 x i8]* nonnull dereferenceable(69) @.str.9) #15
  %33 = bitcast %"class.base::OnceCallback.218"* %8 to i8*
  call void @llvm.lifetime.start.p0i8(i64 8, i8* nonnull %33) #15
  %34 = getelementptr inbounds %"class.base::OnceCallback.218", %"class.base::OnceCallback.218"* %12, i64 0, i32 0, i32 0, i32 0
  %35 = bitcast %"class.base::OnceCallback.218"* %8 to i64*
  store i64 %28, i64* %35, align 8
  store %"class.base::internal::BindStateBase"* null, %"class.base::internal::BindStateBase"** %34, align 8
  %36 = getelementptr inbounds %"class.base::OnceCallback.218", %"class.base::OnceCallback.218"* %8, i64 0, i32 0
  %37 = inttoptr i64 %28 to %"class.base::internal::BindStateBase"*
  %38 = getelementptr inbounds %"class.base::internal::BindStateBase", %"class.base::internal::BindStateBase"* %37, i64 0, i32 1
  %39 = bitcast void ()** %38 to void (%"class.base::internal::BindStateBase"*, %"class.mojo::StructPtr.300"*, %"class.mojo::InlinedStructPtr"*)**
  %40 = load void (%"class.base::internal::BindStateBase"*, %"class.mojo::StructPtr.300"*, %"class.mojo::InlinedStructPtr"*)*, void (%"class.base::internal::BindStateBase"*, %"class.mojo::StructPtr.300"*, %"class.mojo::InlinedStructPtr"*)** %39, align 8
  call void %40(%"class.base::internal::BindStateBase"* %37, %"class.mojo::StructPtr.300"* nonnull dereferenceable(8) %9, %"class.mojo::InlinedStructPtr"* nonnull dereferenceable(40) %10) #15
  call void @_ZN4base8internal12CallbackBaseD2Ev(%"class.base::internal::CallbackBase"* nonnull %36) #15
  call void @llvm.lifetime.end.p0i8(i64 8, i8* nonnull %33) #15
  %41 = getelementptr inbounds %"class.mojo::InlinedStructPtr", %"class.mojo::InlinedStructPtr"* %10, i64 0, i32 0
  call void @_ZN5blink5mojom17PresentationErrorD1Ev(%"class.blink::mojom::PresentationError"* nonnull %41) #15
  call void @llvm.lifetime.end.p0i8(i64 4, i8* nonnull %32) #15
  %42 = getelementptr inbounds %"class.mojo::StructPtr.300", %"class.mojo::StructPtr.300"* %9, i64 0, i32 0, i32 0, i32 0, i32 0
  %43 = load %"class.blink::mojom::PresentationConnectionResult"*, %"class.blink::mojom::PresentationConnectionResult"** %42, align 8
  store %"class.blink::mojom::PresentationConnectionResult"* null, %"class.blink::mojom::PresentationConnectionResult"** %42, align 8
  %44 = icmp eq %"class.blink::mojom::PresentationConnectionResult"* %43, null
  br i1 %44, label %47, label %45

45:                                               ; preds = %25
  call void @_ZN5blink5mojom28PresentationConnectionResultD1Ev(%"class.blink::mojom::PresentationConnectionResult"* nonnull %43) #15
  %46 = bitcast %"class.blink::mojom::PresentationConnectionResult"* %43 to i8*
  call void @_ZdlPv(i8* %46) #16
  br label %47

47:                                               ; preds = %25, %45
  call void @llvm.lifetime.end.p0i8(i64 8, i8* nonnull %29)
  call void @llvm.lifetime.end.p0i8(i64 40, i8* nonnull %30)
  %48 = getelementptr inbounds %"class.base::OnceCallback.218", %"class.base::OnceCallback.218"* %12, i64 0, i32 0
  call void @_ZN4base8internal12CallbackBaseD2Ev(%"class.base::internal::CallbackBase"* nonnull %48) #15
  br label %154

49:                                               ; preds = %3
  %50 = getelementptr inbounds %"class.content::PresentationServiceImpl", %"class.content::PresentationServiceImpl"* %0, i64 0, i32 4
  %51 = load %"class.content::ControllerPresentationServiceDelegate"*, %"class.content::ControllerPresentationServiceDelegate"** %50, align 8
  %52 = icmp eq %"class.content::ControllerPresentationServiceDelegate"* %51, null
  br i1 %52, label %53, label %72

53:                                               ; preds = %49
  %54 = bitcast %"class.mojo::StructPtr.300"* %13 to i64*
  store i64 0, i64* %54, align 8
  %55 = bitcast i32* %15 to i8*
  call void @llvm.lifetime.start.p0i8(i64 4, i8* nonnull %55) #15
  store i32 0, i32* %15, align 4
  call void @_ZN5blink5mojom17PresentationError3NewIJNS0_21PresentationErrorTypeERA18_KcEEEN4mojo16InlinedStructPtrIS1_EEDpOT_(%"class.mojo::InlinedStructPtr"* nonnull sret %14, i32* nonnull dereferenceable(4) %15, [18 x i8]* nonnull dereferenceable(18) @.str.5)
  %56 = bitcast %"class.base::OnceCallback.218"* %7 to i8*
  call void @llvm.lifetime.start.p0i8(i64 8, i8* nonnull %56) #15
  %57 = getelementptr inbounds %"class.base::OnceCallback.218", %"class.base::OnceCallback.218"* %2, i64 0, i32 0, i32 0, i32 0
  %58 = bitcast %"class.base::OnceCallback.218"* %2 to i64*
  %59 = load i64, i64* %58, align 8
  %60 = bitcast %"class.base::OnceCallback.218"* %7 to i64*
  store i64 %59, i64* %60, align 8
  store %"class.base::internal::BindStateBase"* null, %"class.base::internal::BindStateBase"** %57, align 8
  %61 = getelementptr inbounds %"class.base::OnceCallback.218", %"class.base::OnceCallback.218"* %7, i64 0, i32 0
  %62 = inttoptr i64 %59 to %"class.base::internal::BindStateBase"*
  %63 = getelementptr inbounds %"class.base::internal::BindStateBase", %"class.base::internal::BindStateBase"* %62, i64 0, i32 1
  %64 = bitcast void ()** %63 to void (%"class.base::internal::BindStateBase"*, %"class.mojo::StructPtr.300"*, %"class.mojo::InlinedStructPtr"*)**
  %65 = load void (%"class.base::internal::BindStateBase"*, %"class.mojo::StructPtr.300"*, %"class.mojo::InlinedStructPtr"*)*, void (%"class.base::internal::BindStateBase"*, %"class.mojo::StructPtr.300"*, %"class.mojo::InlinedStructPtr"*)** %64, align 8
  call void %65(%"class.base::internal::BindStateBase"* %62, %"class.mojo::StructPtr.300"* nonnull dereferenceable(8) %13, %"class.mojo::InlinedStructPtr"* nonnull dereferenceable(40) %14) #15
  call void @_ZN4base8internal12CallbackBaseD2Ev(%"class.base::internal::CallbackBase"* nonnull %61) #15
  call void @llvm.lifetime.end.p0i8(i64 8, i8* nonnull %56) #15
  %66 = getelementptr inbounds %"class.mojo::InlinedStructPtr", %"class.mojo::InlinedStructPtr"* %14, i64 0, i32 0
  call void @_ZN5blink5mojom17PresentationErrorD1Ev(%"class.blink::mojom::PresentationError"* nonnull %66) #15
  call void @llvm.lifetime.end.p0i8(i64 4, i8* nonnull %55) #15
  %67 = getelementptr inbounds %"class.mojo::StructPtr.300", %"class.mojo::StructPtr.300"* %13, i64 0, i32 0, i32 0, i32 0, i32 0
  %68 = load %"class.blink::mojom::PresentationConnectionResult"*, %"class.blink::mojom::PresentationConnectionResult"** %67, align 8
  store %"class.blink::mojom::PresentationConnectionResult"* null, %"class.blink::mojom::PresentationConnectionResult"** %67, align 8
  %69 = icmp eq %"class.blink::mojom::PresentationConnectionResult"* %68, null
  br i1 %69, label %154, label %70

70:                                               ; preds = %53
  call void @_ZN5blink5mojom28PresentationConnectionResultD1Ev(%"class.blink::mojom::PresentationConnectionResult"* nonnull %68) #15
  %71 = bitcast %"class.blink::mojom::PresentationConnectionResult"* %68 to i8*
  call void @_ZdlPv(i8* %71) #16
  br label %154

72:                                               ; preds = %49
  %73 = load i32, i32* @_ZZN7content12_GLOBAL__N_116GetNextRequestIdEvE15next_request_id, align 4
  %74 = add nsw i32 %73, 1
  store i32 %74, i32* @_ZZN7content12_GLOBAL__N_116GetNextRequestIdEvE15next_request_id, align 4
  store i32 %74, i32* %22, align 8
  %75 = bitcast %"class.base::OnceCallback.218"* %6 to i8*
  call void @llvm.lifetime.start.p0i8(i64 8, i8* nonnull %75)
  %76 = tail call i8* @_Znwm(i64 8) #16
  %77 = getelementptr inbounds %"class.base::OnceCallback.218", %"class.base::OnceCallback.218"* %2, i64 0, i32 0, i32 0, i32 0
  %78 = bitcast %"class.base::OnceCallback.218"* %2 to i64*
  %79 = load i64, i64* %78, align 8
  store %"class.base::internal::BindStateBase"* null, %"class.base::internal::BindStateBase"** %77, align 8
  %80 = getelementptr inbounds %"class.base::OnceCallback.218", %"class.base::OnceCallback.218"* %6, i64 0, i32 0, i32 0, i32 0
  %81 = bitcast i8* %76 to i64*
  store i64 %79, i64* %81, align 8
  store %"class.base::internal::BindStateBase"* null, %"class.base::internal::BindStateBase"** %80, align 8
  %82 = getelementptr inbounds %"class.base::OnceCallback.218", %"class.base::OnceCallback.218"* %6, i64 0, i32 0
  call void @_ZN4base8internal12CallbackBaseD2Ev(%"class.base::internal::CallbackBase"* nonnull %82) #15
  call void @llvm.lifetime.end.p0i8(i64 8, i8* nonnull %75)
  %83 = ptrtoint i8* %76 to i64
  %84 = getelementptr inbounds %"class.content::PresentationServiceImpl", %"class.content::PresentationServiceImpl"* %0, i64 0, i32 11
  %85 = getelementptr inbounds %"class.std::__1::unique_ptr.215", %"class.std::__1::unique_ptr.215"* %84, i64 0, i32 0, i32 0, i32 0
  %86 = load %"class.content::PresentationServiceImpl::NewPresentationCallbackWrapper"*, %"class.content::PresentationServiceImpl::NewPresentationCallbackWrapper"** %85, align 8
  %87 = bitcast %"class.std::__1::unique_ptr.215"* %84 to i64*
  store i64 %83, i64* %87, align 8
  %88 = icmp eq %"class.content::PresentationServiceImpl::NewPresentationCallbackWrapper"* %86, null
  br i1 %88, label %91, label %89

89:                                               ; preds = %72
  call void @_ZN7content23PresentationServiceImpl30NewPresentationCallbackWrapperD2Ev(%"class.content::PresentationServiceImpl::NewPresentationCallbackWrapper"* nonnull %86) #15
  %90 = bitcast %"class.content::PresentationServiceImpl::NewPresentationCallbackWrapper"* %86 to i8*
  call void @_ZdlPv(i8* %90) #16
  br label %91

91:                                               ; preds = %89, %72
  %92 = bitcast %"struct.content::PresentationRequest"* %16 to i8*
  call void @llvm.lifetime.start.p0i8(i64 112, i8* nonnull %92) #15
  call void @llvm.memset.p0i8.i64(i8* nonnull align 8 %92, i8 -86, i64 112, i1 false)
  %93 = bitcast %"struct.content::GlobalFrameRoutingId"* %17 to i8*
  call void @llvm.lifetime.start.p0i8(i64 8, i8* nonnull %93) #15
  %94 = getelementptr inbounds %"class.content::PresentationServiceImpl", %"class.content::PresentationServiceImpl"* %0, i64 0, i32 14
  %95 = load i32, i32* %94, align 8
  %96 = getelementptr inbounds %"class.content::PresentationServiceImpl", %"class.content::PresentationServiceImpl"* %0, i64 0, i32 15
  %97 = load i32, i32* %96, align 4
  %98 = getelementptr inbounds %"struct.content::GlobalFrameRoutingId", %"struct.content::GlobalFrameRoutingId"* %17, i64 0, i32 0
  store i32 %95, i32* %98, align 4
  %99 = getelementptr inbounds %"struct.content::GlobalFrameRoutingId", %"struct.content::GlobalFrameRoutingId"* %17, i64 0, i32 1
  store i32 %97, i32* %99, align 4
  %100 = getelementptr inbounds %"class.content::PresentationServiceImpl", %"class.content::PresentationServiceImpl"* %0, i64 0, i32 3
  %101 = load %"class.content::RenderFrameHost"*, %"class.content::RenderFrameHost"** %100, align 8
  %102 = bitcast %"class.content::RenderFrameHost"* %101 to %"class.url::Origin"* (%"class.content::RenderFrameHost"*)***
  %103 = load %"class.url::Origin"* (%"class.content::RenderFrameHost"*)**, %"class.url::Origin"* (%"class.content::RenderFrameHost"*)*** %102, align 8
  %104 = getelementptr inbounds %"class.url::Origin"* (%"class.content::RenderFrameHost"*)*, %"class.url::Origin"* (%"class.content::RenderFrameHost"*)** %103, i64 36
  %105 = load %"class.url::Origin"* (%"class.content::RenderFrameHost"*)*, %"class.url::Origin"* (%"class.content::RenderFrameHost"*)** %104, align 8
  %106 = call dereferenceable(80) %"class.url::Origin"* %105(%"class.content::RenderFrameHost"* %101) #15
  call void @_ZN7content19PresentationRequestC1ERKNS_20GlobalFrameRoutingIdERKNSt3__16vectorI4GURLNS4_9allocatorIS6_EEEERKN3url6OriginE(%"struct.content::PresentationRequest"* nonnull %16, %"struct.content::GlobalFrameRoutingId"* nonnull dereferenceable(8) %17, %"class.std::__1::vector"* dereferenceable(24) %1, %"class.url::Origin"* dereferenceable(80) %106) #15
  call void @llvm.lifetime.end.p0i8(i64 8, i8* nonnull %93) #15
  %107 = load %"class.content::ControllerPresentationServiceDelegate"*, %"class.content::ControllerPresentationServiceDelegate"** %50, align 8
  %108 = bitcast %"class.base::WeakPtr.284"* %19 to i8*
  call void @llvm.lifetime.start.p0i8(i64 16, i8* nonnull %108) #15
  %109 = bitcast %"class.base::internal::WeakReference"* %5 to i8*
  call void @llvm.lifetime.start.p0i8(i64 8, i8* nonnull %109) #15, !noalias !28
  %110 = getelementptr inbounds %"class.content::PresentationServiceImpl", %"class.content::PresentationServiceImpl"* %0, i64 0, i32 17, i32 0, i32 0
  call void @_ZNK4base8internal18WeakReferenceOwner6GetRefEv(%"class.base::internal::WeakReference"* nonnull sret %5, %"class.base::internal::WeakReferenceOwner"* %110) #15, !noalias !28
  %111 = getelementptr inbounds %"class.content::PresentationServiceImpl", %"class.content::PresentationServiceImpl"* %0, i64 0, i32 17, i32 0, i32 1
  %112 = load i64, i64* %111, align 8, !noalias !28
  %113 = getelementptr inbounds %"class.base::WeakPtr.284", %"class.base::WeakPtr.284"* %19, i64 0, i32 0
  call void @_ZN4base8internal11WeakPtrBaseC2ERKNS0_13WeakReferenceEm(%"class.base::internal::WeakPtrBase"* nonnull %113, %"class.base::internal::WeakReference"* nonnull dereferenceable(8) %5, i64 %112) #15
  call void @_ZN4base8internal13WeakReferenceD1Ev(%"class.base::internal::WeakReference"* nonnull %5) #15
  call void @llvm.lifetime.end.p0i8(i64 8, i8* nonnull %109) #15, !noalias !28
  %114 = call i8* @_Znwm(i64 72) #16, !noalias !31
  %115 = bitcast i8* %114 to %"class.base::internal::BindStateBase"*
  call void @_ZN4base8internal13BindStateBaseC2EPFvvEPFvPKS1_EPFbS5_NS1_21CancellationQueryModeEE(%"class.base::internal::BindStateBase"* nonnull %115, void ()* bitcast (void (%"class.base::internal::BindStateBase"*, %"class.mojo::StructPtr.300"*)* @_ZN4base8internal7InvokerINS0_9BindStateIMN7content23PresentationServiceImplEFviN4mojo9StructPtrIN5blink5mojom28PresentationConnectionResultEEEEJNS_7WeakPtrIS4_EEiEEEFvSA_EE7RunOnceEPNS0_13BindStateBaseEOSA_ to void ()*), void (%"class.base::internal::BindStateBase"*)* nonnull @_ZN4base8internal9BindStateIMN7content23PresentationServiceImplEFviN4mojo9StructPtrIN5blink5mojom28PresentationConnectionResultEEEEJNS_7WeakPtrIS3_EEiEE7DestroyEPKNS0_13BindStateBaseE, i1 (%"class.base::internal::BindStateBase"*, i32)* nonnull @_ZN4base8internal23QueryCancellationTraitsINS0_9BindStateIMN7content23PresentationServiceImplEFviN4mojo9StructPtrIN5blink5mojom28PresentationConnectionResultEEEEJNS_7WeakPtrIS4_EEiEEEEEbPKNS0_13BindStateBaseENSG_21CancellationQueryModeE) #15, !noalias !31
  %116 = getelementptr inbounds i8, i8* %114, i64 32
  %117 = bitcast i8* %116 to <2 x i64>*
  store <2 x i64> <i64 ptrtoint (void (%"class.content::PresentationServiceImpl"*, i32, %"class.mojo::StructPtr.300"*)* @_ZN7content23PresentationServiceImpl28OnStartPresentationSucceededEiN4mojo9StructPtrIN5blink5mojom28PresentationConnectionResultEEE to i64), i64 0>, <2 x i64>* %117, align 8, !noalias !31
  %118 = getelementptr inbounds i8, i8* %114, i64 48
  %119 = bitcast i8* %118 to %"class.base::internal::WeakReference"*
  %120 = getelementptr inbounds %"class.base::WeakPtr.284", %"class.base::WeakPtr.284"* %19, i64 0, i32 0, i32 0
  call void @_ZN4base8internal13WeakReferenceC1EOS1_(%"class.base::internal::WeakReference"* %119, %"class.base::internal::WeakReference"* nonnull dereferenceable(8) %120) #15, !noalias !31
  %121 = getelementptr inbounds i8, i8* %114, i64 56
  %122 = bitcast i8* %121 to i64*
  %123 = getelementptr inbounds %"class.base::WeakPtr.284", %"class.base::WeakPtr.284"* %19, i64 0, i32 0, i32 1
  %124 = load i64, i64* %123, align 8, !noalias !31
  store i64 %124, i64* %122, align 8, !noalias !31
  %125 = getelementptr inbounds i8, i8* %114, i64 64
  %126 = bitcast i8* %125 to i32*
  %127 = load i32, i32* %22, align 4, !noalias !31
  store i32 %127, i32* %126, align 4, !noalias !31
  %128 = bitcast %"class.base::OnceCallback.312"* %18 to i8**
  store i8* %114, i8** %128, align 8, !alias.scope !31
  %129 = bitcast %"class.base::WeakPtr.284"* %21 to i8*
  call void @llvm.lifetime.start.p0i8(i64 16, i8* nonnull %129) #15
  %130 = bitcast %"class.base::internal::WeakReference"* %4 to i8*
  call void @llvm.lifetime.start.p0i8(i64 8, i8* nonnull %130) #15, !noalias !36
  call void @_ZNK4base8internal18WeakReferenceOwner6GetRefEv(%"class.base::internal::WeakReference"* nonnull sret %4, %"class.base::internal::WeakReferenceOwner"* %110) #15, !noalias !36
  %131 = load i64, i64* %111, align 8, !noalias !36
  %132 = getelementptr inbounds %"class.base::WeakPtr.284", %"class.base::WeakPtr.284"* %21, i64 0, i32 0
  call void @_ZN4base8internal11WeakPtrBaseC2ERKNS0_13WeakReferenceEm(%"class.base::internal::WeakPtrBase"* nonnull %132, %"class.base::internal::WeakReference"* nonnull dereferenceable(8) %4, i64 %131) #15
  call void @_ZN4base8internal13WeakReferenceD1Ev(%"class.base::internal::WeakReference"* nonnull %4) #15
  call void @llvm.lifetime.end.p0i8(i64 8, i8* nonnull %130) #15, !noalias !36
  %133 = call i8* @_Znwm(i64 72) #16, !noalias !39
  %134 = bitcast i8* %133 to %"class.base::internal::BindStateBase"*
  call void @_ZN4base8internal13BindStateBaseC2EPFvvEPFvPKS1_EPFbS5_NS1_21CancellationQueryModeEE(%"class.base::internal::BindStateBase"* nonnull %134, void ()* bitcast (void (%"class.base::internal::BindStateBase"*, %"class.blink::mojom::PresentationError"*)* @_ZN4base8internal7InvokerINS0_9BindStateIMN7content23PresentationServiceImplEFviRKN5blink5mojom17PresentationErrorEEJNS_7WeakPtrIS4_EEiEEEFvS9_EE7RunOnceEPNS0_13BindStateBaseES9_ to void ()*), void (%"class.base::internal::BindStateBase"*)* nonnull @_ZN4base8internal9BindStateIMN7content23PresentationServiceImplEFviRKN5blink5mojom17PresentationErrorEEJNS_7WeakPtrIS3_EEiEE7DestroyEPKNS0_13BindStateBaseE, i1 (%"class.base::internal::BindStateBase"*, i32)* nonnull @_ZN4base8internal23QueryCancellationTraitsINS0_9BindStateIMN7content23PresentationServiceImplEFviRKN5blink5mojom17PresentationErrorEEJNS_7WeakPtrIS4_EEiEEEEEbPKNS0_13BindStateBaseENSF_21CancellationQueryModeE) #15, !noalias !39
  %135 = getelementptr inbounds i8, i8* %133, i64 32
  %136 = bitcast i8* %135 to <2 x i64>*
  store <2 x i64> <i64 ptrtoint (void (%"class.content::PresentationServiceImpl"*, i32, %"class.blink::mojom::PresentationError"*)* @_ZN7content23PresentationServiceImpl24OnStartPresentationErrorEiRKN5blink5mojom17PresentationErrorE to i64), i64 0>, <2 x i64>* %136, align 8, !noalias !39
  %137 = getelementptr inbounds i8, i8* %133, i64 48
  %138 = bitcast i8* %137 to %"class.base::internal::WeakReference"*
  %139 = getelementptr inbounds %"class.base::WeakPtr.284", %"class.base::WeakPtr.284"* %21, i64 0, i32 0, i32 0
  call void @_ZN4base8internal13WeakReferenceC1EOS1_(%"class.base::internal::WeakReference"* %138, %"class.base::internal::WeakReference"* nonnull dereferenceable(8) %139) #15, !noalias !39
  %140 = getelementptr inbounds i8, i8* %133, i64 56
  %141 = bitcast i8* %140 to i64*
  %142 = getelementptr inbounds %"class.base::WeakPtr.284", %"class.base::WeakPtr.284"* %21, i64 0, i32 0, i32 1
  %143 = load i64, i64* %142, align 8, !noalias !39
  store i64 %143, i64* %141, align 8, !noalias !39
  %144 = getelementptr inbounds i8, i8* %133, i64 64
  %145 = bitcast i8* %144 to i32*
  %146 = load i32, i32* %22, align 4, !noalias !39
  store i32 %146, i32* %145, align 4, !noalias !39
  %147 = bitcast %"class.base::OnceCallback.313"* %20 to i8**
  store i8* %133, i8** %147, align 8, !alias.scope !39
  %148 = bitcast %"class.content::ControllerPresentationServiceDelegate"* %107 to void (%"class.content::ControllerPresentationServiceDelegate"*, %"struct.content::PresentationRequest"*, %"class.base::OnceCallback.312"*, %"class.base::OnceCallback.313"*)***
  %149 = load void (%"class.content::ControllerPresentationServiceDelegate"*, %"struct.content::PresentationRequest"*, %"class.base::OnceCallback.312"*, %"class.base::OnceCallback.313"*)**, void (%"class.content::ControllerPresentationServiceDelegate"*, %"struct.content::PresentationRequest"*, %"class.base::OnceCallback.312"*, %"class.base::OnceCallback.313"*)*** %148, align 8
  %150 = getelementptr inbounds void (%"class.content::ControllerPresentationServiceDelegate"*, %"struct.content::PresentationRequest"*, %"class.base::OnceCallback.312"*, %"class.base::OnceCallback.313"*)*, void (%"class.content::ControllerPresentationServiceDelegate"*, %"struct.content::PresentationRequest"*, %"class.base::OnceCallback.312"*, %"class.base::OnceCallback.313"*)** %149, i64 8
  %151 = load void (%"class.content::ControllerPresentationServiceDelegate"*, %"struct.content::PresentationRequest"*, %"class.base::OnceCallback.312"*, %"class.base::OnceCallback.313"*)*, void (%"class.content::ControllerPresentationServiceDelegate"*, %"struct.content::PresentationRequest"*, %"class.base::OnceCallback.312"*, %"class.base::OnceCallback.313"*)** %150, align 8
  call void %151(%"class.content::ControllerPresentationServiceDelegate"* %107, %"struct.content::PresentationRequest"* nonnull dereferenceable(112) %16, %"class.base::OnceCallback.312"* nonnull %18, %"class.base::OnceCallback.313"* nonnull %20) #15
  %152 = getelementptr inbounds %"class.base::OnceCallback.313", %"class.base::OnceCallback.313"* %20, i64 0, i32 0
  call void @_ZN4base8internal12CallbackBaseD2Ev(%"class.base::internal::CallbackBase"* nonnull %152) #15
  call void @_ZN4base8internal11WeakPtrBaseD2Ev(%"class.base::internal::WeakPtrBase"* nonnull %132) #15
  call void @llvm.lifetime.end.p0i8(i64 16, i8* nonnull %129) #15
  %153 = getelementptr inbounds %"class.base::OnceCallback.312", %"class.base::OnceCallback.312"* %18, i64 0, i32 0
  call void @_ZN4base8internal12CallbackBaseD2Ev(%"class.base::internal::CallbackBase"* nonnull %153) #15
  call void @_ZN4base8internal11WeakPtrBaseD2Ev(%"class.base::internal::WeakPtrBase"* nonnull %113) #15
  call void @llvm.lifetime.end.p0i8(i64 16, i8* nonnull %108) #15
  call void @_ZN7content19PresentationRequestD1Ev(%"struct.content::PresentationRequest"* nonnull %16) #15
  call void @llvm.lifetime.end.p0i8(i64 112, i8* nonnull %92) #15
  br label %154

154:                                              ; preds = %70, %53, %91, %47
  ret void
}

; Function Attrs: nounwind ssp uwtable
define linkonce_odr hidden void @_ZN5blink5mojom17PresentationError3NewIJNS0_21PresentationErrorTypeERA18_KcEEEN4mojo16InlinedStructPtrIS1_EEDpOT_(%"class.mojo::InlinedStructPtr"* noalias sret, i32* dereferenceable(4), [18 x i8]* dereferenceable(18)) local_unnamed_addr #0 comdat align 2 {
  %4 = alloca %"class.std::__1::basic_string", align 8
  %5 = getelementptr inbounds %"class.mojo::InlinedStructPtr", %"class.mojo::InlinedStructPtr"* %0, i64 0, i32 0
  %6 = load i32, i32* %1, align 4
  %7 = bitcast %"class.std::__1::basic_string"* %4 to i8*
  call void @llvm.lifetime.start.p0i8(i64 24, i8* nonnull %7) #15
  %8 = getelementptr inbounds [18 x i8], [18 x i8]* %2, i64 0, i64 0
  %9 = tail call i64 @strlen(i8* %8) #15
  %10 = icmp ugt i64 %9, -17
  br i1 %10, label %11, label %13

11:                                               ; preds = %3
  %12 = bitcast %"class.std::__1::basic_string"* %4 to %"class.std::__1::__basic_string_common"*
  call void @_ZNKSt3__121__basic_string_commonILb1EE20__throw_length_errorEv(%"class.std::__1::__basic_string_common"* nonnull %12) #17
  unreachable

13:                                               ; preds = %3
  %14 = icmp ult i64 %9, 23
  br i1 %14, label %24, label %15

15:                                               ; preds = %13
  %16 = add nuw i64 %9, 16
  %17 = and i64 %16, -16
  %18 = tail call i8* @_Znwm(i64 %17) #16
  %19 = getelementptr inbounds %"class.std::__1::basic_string", %"class.std::__1::basic_string"* %4, i64 0, i32 0, i32 0, i32 0, i32 0, i32 0, i32 0
  store i8* %18, i8** %19, align 8
  %20 = or i64 %17, -9223372036854775808
  %21 = getelementptr inbounds %"class.std::__1::basic_string", %"class.std::__1::basic_string"* %4, i64 0, i32 0, i32 0, i32 0, i32 0, i32 0, i32 2
  store i64 %20, i64* %21, align 8
  %22 = getelementptr inbounds %"class.std::__1::basic_string", %"class.std::__1::basic_string"* %4, i64 0, i32 0, i32 0, i32 0, i32 0, i32 0, i32 1
  store i64 %9, i64* %22, align 8
  %23 = bitcast %"class.std::__1::basic_string"* %4 to %"struct.std::__1::basic_string<char, std::__1::char_traits<char>, std::__1::allocator<char> >::__short"*
  br label %29

24:                                               ; preds = %13
  %25 = trunc i64 %9 to i8
  %26 = bitcast %"class.std::__1::basic_string"* %4 to %"struct.std::__1::basic_string<char, std::__1::char_traits<char>, std::__1::allocator<char> >::__short"*
  %27 = getelementptr inbounds %"struct.std::__1::basic_string<char, std::__1::char_traits<char>, std::__1::allocator<char> >::__short", %"struct.std::__1::basic_string<char, std::__1::char_traits<char>, std::__1::allocator<char> >::__short"* %26, i64 0, i32 1, i32 0
  store i8 %25, i8* %27, align 1
  %28 = icmp eq i64 %9, 0
  br i1 %28, label %32, label %29

29:                                               ; preds = %24, %15
  %30 = phi %"struct.std::__1::basic_string<char, std::__1::char_traits<char>, std::__1::allocator<char> >::__short"* [ %26, %24 ], [ %23, %15 ]
  %31 = phi i8* [ %7, %24 ], [ %18, %15 ]
  call void @llvm.memcpy.p0i8.p0i8.i64(i8* nonnull align 1 %31, i8* align 1 %8, i64 %9, i1 false) #15
  br label %32

32:                                               ; preds = %24, %29
  %33 = phi %"struct.std::__1::basic_string<char, std::__1::char_traits<char>, std::__1::allocator<char> >::__short"* [ %26, %24 ], [ %30, %29 ]
  %34 = phi i8* [ %7, %24 ], [ %31, %29 ]
  %35 = getelementptr inbounds i8, i8* %34, i64 %9
  store i8 0, i8* %35, align 1
  call void @_ZN5blink5mojom17PresentationErrorC1ENS0_21PresentationErrorTypeERKNSt3__112basic_stringIcNS3_11char_traitsIcEENS3_9allocatorIcEEEE(%"class.blink::mojom::PresentationError"* %5, i32 %6, %"class.std::__1::basic_string"* nonnull dereferenceable(24) %4) #15
  %36 = getelementptr inbounds %"struct.std::__1::basic_string<char, std::__1::char_traits<char>, std::__1::allocator<char> >::__short", %"struct.std::__1::basic_string<char, std::__1::char_traits<char>, std::__1::allocator<char> >::__short"* %33, i64 0, i32 1, i32 0
  %37 = load i8, i8* %36, align 1
  %38 = icmp slt i8 %37, 0
  br i1 %38, label %39, label %42

39:                                               ; preds = %32
  %40 = getelementptr inbounds %"class.std::__1::basic_string", %"class.std::__1::basic_string"* %4, i64 0, i32 0, i32 0, i32 0, i32 0, i32 0, i32 0
  %41 = load i8*, i8** %40, align 8
  call void @_ZdlPv(i8* %41) #16
  br label %42

42:                                               ; preds = %32, %39
  call void @llvm.lifetime.end.p0i8(i64 24, i8* nonnull %7) #15
  %43 = getelementptr inbounds %"class.mojo::InlinedStructPtr", %"class.mojo::InlinedStructPtr"* %0, i64 0, i32 1
  store i32 1, i32* %43, align 8
  ret void
}

; Function Attrs: argmemonly nounwind
declare void @llvm.memset.p0i8.i64(i8* nocapture writeonly, i8, i64, i1 immarg) #2

declare void @_ZN7content19PresentationRequestC1ERKNS_20GlobalFrameRoutingIdERKNSt3__16vectorI4GURLNS4_9allocatorIS6_EEEERKN3url6OriginE(%"struct.content::PresentationRequest"*, %"struct.content::GlobalFrameRoutingId"* dereferenceable(8), %"class.std::__1::vector"* dereferenceable(24), %"class.url::Origin"* dereferenceable(80)) unnamed_addr #1

; Function Attrs: nounwind ssp uwtable
define hidden void @_ZN7content23PresentationServiceImpl28OnStartPresentationSucceededEiN4mojo9StructPtrIN5blink5mojom28PresentationConnectionResultEEE(%"class.content::PresentationServiceImpl"*, i32, %"class.mojo::StructPtr.300"* nocapture) #0 align 2 {
  %4 = alloca %"class.blink::mojom::PresentationInfo", align 8
  %5 = alloca %"class.mojo::StructPtr.300", align 8
  %6 = alloca %"class.mojo::InlinedStructPtr", align 8
  %7 = getelementptr inbounds %"class.content::PresentationServiceImpl", %"class.content::PresentationServiceImpl"* %0, i64 0, i32 10
  %8 = load i32, i32* %7, align 8
  %9 = icmp eq i32 %8, %1
  br i1 %9, label %10, label %51

10:                                               ; preds = %3
  %11 = bitcast %"class.blink::mojom::PresentationInfo"* %4 to i8*
  call void @llvm.lifetime.start.p0i8(i64 144, i8* nonnull %11) #15
  call void @llvm.memset.p0i8.i64(i8* nonnull align 8 %11, i8 -86, i64 144, i1 false)
  %12 = getelementptr inbounds %"class.mojo::StructPtr.300", %"class.mojo::StructPtr.300"* %2, i64 0, i32 0, i32 0, i32 0, i32 0
  %13 = load %"class.blink::mojom::PresentationConnectionResult"*, %"class.blink::mojom::PresentationConnectionResult"** %12, align 8
  %14 = getelementptr inbounds %"class.blink::mojom::PresentationConnectionResult", %"class.blink::mojom::PresentationConnectionResult"* %13, i64 0, i32 0, i32 0, i32 0, i32 0, i32 0
  %15 = load %"class.blink::mojom::PresentationInfo"*, %"class.blink::mojom::PresentationInfo"** %14, align 8
  %16 = getelementptr inbounds %"class.blink::mojom::PresentationInfo", %"class.blink::mojom::PresentationInfo"* %4, i64 0, i32 0
  %17 = getelementptr inbounds %"class.blink::mojom::PresentationInfo", %"class.blink::mojom::PresentationInfo"* %15, i64 0, i32 0
  call void @_ZN4GURLC1ERKS_(%class.GURL* nonnull %16, %class.GURL* dereferenceable(120) %17) #15
  %18 = getelementptr inbounds %"class.blink::mojom::PresentationInfo", %"class.blink::mojom::PresentationInfo"* %4, i64 0, i32 1
  %19 = getelementptr inbounds %"class.blink::mojom::PresentationInfo", %"class.blink::mojom::PresentationInfo"* %15, i64 0, i32 1
  %20 = bitcast %"class.std::__1::basic_string"* %19 to %"struct.std::__1::basic_string<char, std::__1::char_traits<char>, std::__1::allocator<char> >::__short"*
  %21 = getelementptr inbounds %"struct.std::__1::basic_string<char, std::__1::char_traits<char>, std::__1::allocator<char> >::__short", %"struct.std::__1::basic_string<char, std::__1::char_traits<char>, std::__1::allocator<char> >::__short"* %20, i64 0, i32 1, i32 0
  %22 = load i8, i8* %21, align 1
  %23 = icmp slt i8 %22, 0
  br i1 %23, label %27, label %24

24:                                               ; preds = %10
  %25 = bitcast %"class.std::__1::basic_string"* %18 to i8*
  %26 = bitcast %"class.std::__1::basic_string"* %19 to i8*
  call void @llvm.memcpy.p0i8.p0i8.i64(i8* align 8 %25, i8* align 8 %26, i64 24, i1 false) #15
  br label %32

27:                                               ; preds = %10
  %28 = getelementptr inbounds %"class.std::__1::basic_string", %"class.std::__1::basic_string"* %19, i64 0, i32 0, i32 0, i32 0, i32 0, i32 0, i32 0
  %29 = load i8*, i8** %28, align 8
  %30 = getelementptr inbounds %"class.blink::mojom::PresentationInfo", %"class.blink::mojom::PresentationInfo"* %15, i64 0, i32 1, i32 0, i32 0, i32 0, i32 0, i32 0, i32 1
  %31 = load i64, i64* %30, align 8
  call void @_ZNSt3__112basic_stringIcNS_11char_traitsIcEENS_9allocatorIcEEE25__init_copy_ctor_externalEPKcm(%"class.std::__1::basic_string"* %18, i8* %29, i64 %31) #15
  br label %32

32:                                               ; preds = %24, %27
  %33 = getelementptr inbounds %"class.content::PresentationServiceImpl", %"class.content::PresentationServiceImpl"* %0, i64 0, i32 11, i32 0, i32 0, i32 0
  %34 = load %"class.content::PresentationServiceImpl::NewPresentationCallbackWrapper"*, %"class.content::PresentationServiceImpl::NewPresentationCallbackWrapper"** %33, align 8
  %35 = bitcast %"class.mojo::StructPtr.300"* %5 to i64*
  %36 = getelementptr inbounds %"class.mojo::StructPtr.300", %"class.mojo::StructPtr.300"* %5, i64 0, i32 0, i32 0, i32 0, i32 0
  %37 = bitcast %"class.mojo::StructPtr.300"* %2 to i64*
  %38 = load i64, i64* %37, align 8
  store i64 %38, i64* %35, align 8
  store i64 0, i64* %37, align 8
  %39 = getelementptr inbounds %"class.mojo::InlinedStructPtr", %"class.mojo::InlinedStructPtr"* %6, i64 0, i32 0
  call void @_ZN5blink5mojom17PresentationErrorC1Ev(%"class.blink::mojom::PresentationError"* nonnull %39) #15
  %40 = getelementptr inbounds %"class.mojo::InlinedStructPtr", %"class.mojo::InlinedStructPtr"* %6, i64 0, i32 1
  store i32 0, i32* %40, align 8
  call void @_ZN7content23PresentationServiceImpl30NewPresentationCallbackWrapper3RunEN4mojo9StructPtrIN5blink5mojom28PresentationConnectionResultEEENS2_16InlinedStructPtrINS5_17PresentationErrorEEE(%"class.content::PresentationServiceImpl::NewPresentationCallbackWrapper"* %34, %"class.mojo::StructPtr.300"* nonnull %5, %"class.mojo::InlinedStructPtr"* nonnull %6)
  call void @_ZN5blink5mojom17PresentationErrorD1Ev(%"class.blink::mojom::PresentationError"* nonnull %39) #15
  %41 = load %"class.blink::mojom::PresentationConnectionResult"*, %"class.blink::mojom::PresentationConnectionResult"** %36, align 8
  store %"class.blink::mojom::PresentationConnectionResult"* null, %"class.blink::mojom::PresentationConnectionResult"** %36, align 8
  %42 = icmp eq %"class.blink::mojom::PresentationConnectionResult"* %41, null
  br i1 %42, label %45, label %43

43:                                               ; preds = %32
  call void @_ZN5blink5mojom28PresentationConnectionResultD1Ev(%"class.blink::mojom::PresentationConnectionResult"* nonnull %41) #15
  %44 = bitcast %"class.blink::mojom::PresentationConnectionResult"* %41 to i8*
  call void @_ZdlPv(i8* %44) #16
  br label %45

45:                                               ; preds = %32, %43
  call void @_ZN7content23PresentationServiceImpl30ListenForConnectionStateChangeERKN5blink5mojom16PresentationInfoE(%"class.content::PresentationServiceImpl"* %0, %"class.blink::mojom::PresentationInfo"* nonnull dereferenceable(144) %4)
  %46 = load %"class.content::PresentationServiceImpl::NewPresentationCallbackWrapper"*, %"class.content::PresentationServiceImpl::NewPresentationCallbackWrapper"** %33, align 8
  store %"class.content::PresentationServiceImpl::NewPresentationCallbackWrapper"* null, %"class.content::PresentationServiceImpl::NewPresentationCallbackWrapper"** %33, align 8
  %47 = icmp eq %"class.content::PresentationServiceImpl::NewPresentationCallbackWrapper"* %46, null
  br i1 %47, label %50, label %48

48:                                               ; preds = %45
  call void @_ZN7content23PresentationServiceImpl30NewPresentationCallbackWrapperD2Ev(%"class.content::PresentationServiceImpl::NewPresentationCallbackWrapper"* nonnull %46) #15
  %49 = bitcast %"class.content::PresentationServiceImpl::NewPresentationCallbackWrapper"* %46 to i8*
  call void @_ZdlPv(i8* %49) #16
  br label %50

50:                                               ; preds = %45, %48
  store i32 -1, i32* %7, align 8
  call void @_ZN5blink5mojom16PresentationInfoD1Ev(%"class.blink::mojom::PresentationInfo"* nonnull %4) #15
  call void @llvm.lifetime.end.p0i8(i64 144, i8* nonnull %11) #15
  br label %51

51:                                               ; preds = %3, %50
  ret void
}

; Function Attrs: nounwind ssp uwtable
define hidden void @_ZN7content23PresentationServiceImpl24OnStartPresentationErrorEiRKN5blink5mojom17PresentationErrorE(%"class.content::PresentationServiceImpl"* nocapture, i32, %"class.blink::mojom::PresentationError"* nocapture readonly dereferenceable(32)) #0 align 2 {
  %4 = alloca %"class.logging::CheckError", align 8
  %5 = alloca %"class.mojo::StructPtr.300", align 8
  %6 = alloca %"class.mojo::InlinedStructPtr", align 8
  %7 = getelementptr inbounds %"class.content::PresentationServiceImpl", %"class.content::PresentationServiceImpl"* %0, i64 0, i32 10
  %8 = load i32, i32* %7, align 8
  %9 = icmp eq i32 %8, %1
  br i1 %9, label %10, label %52

10:                                               ; preds = %3
  %11 = getelementptr inbounds %"class.content::PresentationServiceImpl", %"class.content::PresentationServiceImpl"* %0, i64 0, i32 11, i32 0, i32 0, i32 0
  %12 = load %"class.content::PresentationServiceImpl::NewPresentationCallbackWrapper"*, %"class.content::PresentationServiceImpl::NewPresentationCallbackWrapper"** %11, align 8
  %13 = icmp eq %"class.content::PresentationServiceImpl::NewPresentationCallbackWrapper"* %12, null
  br i1 %13, label %14, label %18

14:                                               ; preds = %10
  %15 = bitcast %"class.logging::CheckError"* %4 to i8*
  call void @llvm.lifetime.start.p0i8(i64 8, i8* nonnull %15) #15
  call void @_ZN7logging10CheckError5CheckEPKciS2_(%"class.logging::CheckError"* nonnull sret %4, i8* getelementptr inbounds ([64 x i8], [64 x i8]* @.str, i64 0, i64 0), i32 324, i8* getelementptr inbounds ([37 x i8], [37 x i8]* @.str.7, i64 0, i64 0)) #15
  %16 = call dereferenceable(160) %"class.std::__1::basic_ostream"* @_ZN7logging10CheckError6streamEv(%"class.logging::CheckError"* nonnull %4) #15
  call void @_ZN7logging10CheckErrorD1Ev(%"class.logging::CheckError"* nonnull %4) #15
  call void @llvm.lifetime.end.p0i8(i64 8, i8* nonnull %15) #15
  %17 = load %"class.content::PresentationServiceImpl::NewPresentationCallbackWrapper"*, %"class.content::PresentationServiceImpl::NewPresentationCallbackWrapper"** %11, align 8
  br label %18

18:                                               ; preds = %10, %14
  %19 = phi %"class.content::PresentationServiceImpl::NewPresentationCallbackWrapper"* [ %12, %10 ], [ %17, %14 ]
  %20 = bitcast %"class.mojo::StructPtr.300"* %5 to i64*
  store i64 0, i64* %20, align 8
  %21 = getelementptr inbounds %"class.mojo::InlinedStructPtr", %"class.mojo::InlinedStructPtr"* %6, i64 0, i32 0, i32 0
  %22 = getelementptr inbounds %"class.blink::mojom::PresentationError", %"class.blink::mojom::PresentationError"* %2, i64 0, i32 0
  %23 = load i32, i32* %22, align 8, !noalias !44
  store i32 %23, i32* %21, align 8, !alias.scope !44
  %24 = getelementptr inbounds %"class.mojo::InlinedStructPtr", %"class.mojo::InlinedStructPtr"* %6, i64 0, i32 0, i32 1
  %25 = getelementptr inbounds %"class.blink::mojom::PresentationError", %"class.blink::mojom::PresentationError"* %2, i64 0, i32 1
  %26 = bitcast %"class.std::__1::basic_string"* %25 to %"struct.std::__1::basic_string<char, std::__1::char_traits<char>, std::__1::allocator<char> >::__short"*
  %27 = getelementptr inbounds %"struct.std::__1::basic_string<char, std::__1::char_traits<char>, std::__1::allocator<char> >::__short", %"struct.std::__1::basic_string<char, std::__1::char_traits<char>, std::__1::allocator<char> >::__short"* %26, i64 0, i32 1, i32 0
  %28 = load i8, i8* %27, align 1, !noalias !44
  %29 = icmp slt i8 %28, 0
  br i1 %29, label %33, label %30

30:                                               ; preds = %18
  %31 = bitcast %"class.std::__1::basic_string"* %24 to i8*
  %32 = bitcast %"class.std::__1::basic_string"* %25 to i8*
  call void @llvm.memcpy.p0i8.p0i8.i64(i8* align 8 %31, i8* align 8 %32, i64 24, i1 false) #15
  br label %38

33:                                               ; preds = %18
  %34 = getelementptr inbounds %"class.std::__1::basic_string", %"class.std::__1::basic_string"* %25, i64 0, i32 0, i32 0, i32 0, i32 0, i32 0, i32 0
  %35 = load i8*, i8** %34, align 8, !noalias !44
  %36 = getelementptr inbounds %"class.blink::mojom::PresentationError", %"class.blink::mojom::PresentationError"* %2, i64 0, i32 1, i32 0, i32 0, i32 0, i32 0, i32 0, i32 1
  %37 = load i64, i64* %36, align 8, !noalias !44
  call void @_ZNSt3__112basic_stringIcNS_11char_traitsIcEENS_9allocatorIcEEE25__init_copy_ctor_externalEPKcm(%"class.std::__1::basic_string"* %24, i8* %35, i64 %37) #15
  br label %38

38:                                               ; preds = %30, %33
  %39 = getelementptr inbounds %"class.mojo::InlinedStructPtr", %"class.mojo::InlinedStructPtr"* %6, i64 0, i32 1
  store i32 1, i32* %39, align 8, !alias.scope !44
  call void @_ZN7content23PresentationServiceImpl30NewPresentationCallbackWrapper3RunEN4mojo9StructPtrIN5blink5mojom28PresentationConnectionResultEEENS2_16InlinedStructPtrINS5_17PresentationErrorEEE(%"class.content::PresentationServiceImpl::NewPresentationCallbackWrapper"* %19, %"class.mojo::StructPtr.300"* nonnull %5, %"class.mojo::InlinedStructPtr"* nonnull %6)
  %40 = getelementptr inbounds %"class.mojo::InlinedStructPtr", %"class.mojo::InlinedStructPtr"* %6, i64 0, i32 0
  call void @_ZN5blink5mojom17PresentationErrorD1Ev(%"class.blink::mojom::PresentationError"* nonnull %40) #15
  %41 = getelementptr inbounds %"class.mojo::StructPtr.300", %"class.mojo::StructPtr.300"* %5, i64 0, i32 0, i32 0, i32 0, i32 0
  %42 = load %"class.blink::mojom::PresentationConnectionResult"*, %"class.blink::mojom::PresentationConnectionResult"** %41, align 8
  store %"class.blink::mojom::PresentationConnectionResult"* null, %"class.blink::mojom::PresentationConnectionResult"** %41, align 8
  %43 = icmp eq %"class.blink::mojom::PresentationConnectionResult"* %42, null
  br i1 %43, label %46, label %44

44:                                               ; preds = %38
  call void @_ZN5blink5mojom28PresentationConnectionResultD1Ev(%"class.blink::mojom::PresentationConnectionResult"* nonnull %42) #15
  %45 = bitcast %"class.blink::mojom::PresentationConnectionResult"* %42 to i8*
  call void @_ZdlPv(i8* %45) #16
  br label %46

46:                                               ; preds = %38, %44
  %47 = load %"class.content::PresentationServiceImpl::NewPresentationCallbackWrapper"*, %"class.content::PresentationServiceImpl::NewPresentationCallbackWrapper"** %11, align 8
  store %"class.content::PresentationServiceImpl::NewPresentationCallbackWrapper"* null, %"class.content::PresentationServiceImpl::NewPresentationCallbackWrapper"** %11, align 8
  %48 = icmp eq %"class.content::PresentationServiceImpl::NewPresentationCallbackWrapper"* %47, null
  br i1 %48, label %51, label %49

49:                                               ; preds = %46
  call void @_ZN7content23PresentationServiceImpl30NewPresentationCallbackWrapperD2Ev(%"class.content::PresentationServiceImpl::NewPresentationCallbackWrapper"* nonnull %47) #15
  %50 = bitcast %"class.content::PresentationServiceImpl::NewPresentationCallbackWrapper"* %47 to i8*
  call void @_ZdlPv(i8* %50) #16
  br label %51

51:                                               ; preds = %46, %49
  store i32 -1, i32* %7, align 8
  br label %52

52:                                               ; preds = %3, %51
  ret void
}

; Function Attrs: nounwind
declare void @_ZN7content19PresentationRequestD1Ev(%"struct.content::PresentationRequest"*) unnamed_addr #3

; Function Attrs: nounwind ssp uwtable
define hidden void @_ZN7content23PresentationServiceImpl21ReconnectPresentationERKNSt3__16vectorI4GURLNS1_9allocatorIS3_EEEERKNS1_12basic_stringIcNS1_11char_traitsIcEENS4_IcEEEEN4base12OnceCallbackIFvN4mojo9StructPtrIN5blink5mojom28PresentationConnectionResultEEENSI_16InlinedStructPtrINSL_17PresentationErrorEEEEEE(%"class.content::PresentationServiceImpl"*, %"class.std::__1::vector"* dereferenceable(24), %"class.std::__1::basic_string"* dereferenceable(24), %"class.base::OnceCallback.218"* nocapture) unnamed_addr #0 align 2 {
  %5 = alloca %"class.base::internal::WeakReference", align 8
  %6 = alloca %"class.base::internal::WeakReference", align 8
  %7 = alloca %"class.base::OnceCallback.218", align 8
  %8 = alloca %"class.mojo::StructPtr.300", align 8
  %9 = alloca %"class.mojo::InlinedStructPtr", align 8
  %10 = alloca i32, align 4
  %11 = alloca %"class.base::OnceCallback.218", align 8
  %12 = alloca %"class.mojo::StructPtr.300", align 8
  %13 = alloca %"class.mojo::InlinedStructPtr", align 8
  %14 = alloca i32, align 4
  %15 = alloca %"class.base::OnceCallback.218", align 8
  %16 = alloca %"struct.content::PresentationRequest", align 8
  %17 = alloca %"struct.content::GlobalFrameRoutingId", align 4
  %18 = alloca %"class.base::OnceCallback.312", align 8
  %19 = alloca %"class.base::WeakPtr.284", align 8
  %20 = alloca %"class.base::OnceCallback.313", align 8
  %21 = alloca %"class.base::WeakPtr.284", align 8
  %22 = getelementptr inbounds %"class.content::PresentationServiceImpl", %"class.content::PresentationServiceImpl"* %0, i64 0, i32 4
  %23 = load %"class.content::ControllerPresentationServiceDelegate"*, %"class.content::ControllerPresentationServiceDelegate"** %22, align 8
  %24 = icmp eq %"class.content::ControllerPresentationServiceDelegate"* %23, null
  br i1 %24, label %25, label %44

25:                                               ; preds = %4
  %26 = bitcast %"class.mojo::StructPtr.300"* %12 to i64*
  store i64 0, i64* %26, align 8
  %27 = bitcast i32* %14 to i8*
  call void @llvm.lifetime.start.p0i8(i64 4, i8* nonnull %27) #15
  store i32 2, i32* %14, align 4
  call void @_ZN5blink5mojom17PresentationError3NewIJNS0_21PresentationErrorTypeERA39_KcEEEN4mojo16InlinedStructPtrIS1_EEDpOT_(%"class.mojo::InlinedStructPtr"* nonnull sret %13, i32* nonnull dereferenceable(4) %14, [39 x i8]* nonnull dereferenceable(39) @.str.6)
  %28 = bitcast %"class.base::OnceCallback.218"* %11 to i8*
  call void @llvm.lifetime.start.p0i8(i64 8, i8* nonnull %28) #15
  %29 = getelementptr inbounds %"class.base::OnceCallback.218", %"class.base::OnceCallback.218"* %3, i64 0, i32 0, i32 0, i32 0
  %30 = bitcast %"class.base::OnceCallback.218"* %3 to i64*
  %31 = load i64, i64* %30, align 8
  %32 = bitcast %"class.base::OnceCallback.218"* %11 to i64*
  store i64 %31, i64* %32, align 8
  store %"class.base::internal::BindStateBase"* null, %"class.base::internal::BindStateBase"** %29, align 8
  %33 = getelementptr inbounds %"class.base::OnceCallback.218", %"class.base::OnceCallback.218"* %11, i64 0, i32 0
  %34 = inttoptr i64 %31 to %"class.base::internal::BindStateBase"*
  %35 = getelementptr inbounds %"class.base::internal::BindStateBase", %"class.base::internal::BindStateBase"* %34, i64 0, i32 1
  %36 = bitcast void ()** %35 to void (%"class.base::internal::BindStateBase"*, %"class.mojo::StructPtr.300"*, %"class.mojo::InlinedStructPtr"*)**
  %37 = load void (%"class.base::internal::BindStateBase"*, %"class.mojo::StructPtr.300"*, %"class.mojo::InlinedStructPtr"*)*, void (%"class.base::internal::BindStateBase"*, %"class.mojo::StructPtr.300"*, %"class.mojo::InlinedStructPtr"*)** %36, align 8
  call void %37(%"class.base::internal::BindStateBase"* %34, %"class.mojo::StructPtr.300"* nonnull dereferenceable(8) %12, %"class.mojo::InlinedStructPtr"* nonnull dereferenceable(40) %13) #15
  call void @_ZN4base8internal12CallbackBaseD2Ev(%"class.base::internal::CallbackBase"* nonnull %33) #15
  call void @llvm.lifetime.end.p0i8(i64 8, i8* nonnull %28) #15
  %38 = getelementptr inbounds %"class.mojo::InlinedStructPtr", %"class.mojo::InlinedStructPtr"* %13, i64 0, i32 0
  call void @_ZN5blink5mojom17PresentationErrorD1Ev(%"class.blink::mojom::PresentationError"* nonnull %38) #15
  call void @llvm.lifetime.end.p0i8(i64 4, i8* nonnull %27) #15
  %39 = getelementptr inbounds %"class.mojo::StructPtr.300", %"class.mojo::StructPtr.300"* %12, i64 0, i32 0, i32 0, i32 0, i32 0
  %40 = load %"class.blink::mojom::PresentationConnectionResult"*, %"class.blink::mojom::PresentationConnectionResult"** %39, align 8
  store %"class.blink::mojom::PresentationConnectionResult"* null, %"class.blink::mojom::PresentationConnectionResult"** %39, align 8
  %41 = icmp eq %"class.blink::mojom::PresentationConnectionResult"* %40, null
  br i1 %41, label %132, label %42

42:                                               ; preds = %25
  call void @_ZN5blink5mojom28PresentationConnectionResultD1Ev(%"class.blink::mojom::PresentationConnectionResult"* nonnull %40) #15
  %43 = bitcast %"class.blink::mojom::PresentationConnectionResult"* %40 to i8*
  call void @_ZdlPv(i8* %43) #16
  br label %132

44:                                               ; preds = %4
  %45 = tail call i32 @_ZN7content23PresentationServiceImpl37RegisterReconnectPresentationCallbackEPN4base12OnceCallbackIFvN4mojo9StructPtrIN5blink5mojom28PresentationConnectionResultEEENS3_16InlinedStructPtrINS6_17PresentationErrorEEEEEE(%"class.content::PresentationServiceImpl"* %0, %"class.base::OnceCallback.218"* %3)
  %46 = icmp eq i32 %45, -1
  br i1 %46, label %47, label %71

47:                                               ; preds = %44
  %48 = getelementptr inbounds %"class.base::OnceCallback.218", %"class.base::OnceCallback.218"* %3, i64 0, i32 0, i32 0, i32 0
  %49 = bitcast %"class.base::OnceCallback.218"* %3 to i64*
  %50 = load i64, i64* %49, align 8
  store %"class.base::internal::BindStateBase"* null, %"class.base::internal::BindStateBase"** %48, align 8
  %51 = bitcast %"class.mojo::StructPtr.300"* %8 to i8*
  call void @llvm.lifetime.start.p0i8(i64 8, i8* nonnull %51)
  %52 = bitcast %"class.mojo::InlinedStructPtr"* %9 to i8*
  call void @llvm.lifetime.start.p0i8(i64 40, i8* nonnull %52)
  %53 = bitcast %"class.mojo::StructPtr.300"* %8 to i64*
  store i64 0, i64* %53, align 8
  %54 = bitcast i32* %10 to i8*
  call void @llvm.lifetime.start.p0i8(i64 4, i8* nonnull %54) #15
  store i32 3, i32* %10, align 4
  call void @_ZN5blink5mojom17PresentationError3NewIJNS0_21PresentationErrorTypeERA69_KcEEEN4mojo16InlinedStructPtrIS1_EEDpOT_(%"class.mojo::InlinedStructPtr"* nonnull sret %9, i32* nonnull dereferenceable(4) %10, [69 x i8]* nonnull dereferenceable(69) @.str.9) #15
  %55 = bitcast %"class.base::OnceCallback.218"* %7 to i8*
  call void @llvm.lifetime.start.p0i8(i64 8, i8* nonnull %55) #15
  %56 = getelementptr inbounds %"class.base::OnceCallback.218", %"class.base::OnceCallback.218"* %15, i64 0, i32 0, i32 0, i32 0
  %57 = bitcast %"class.base::OnceCallback.218"* %7 to i64*
  store i64 %50, i64* %57, align 8
  store %"class.base::internal::BindStateBase"* null, %"class.base::internal::BindStateBase"** %56, align 8
  %58 = getelementptr inbounds %"class.base::OnceCallback.218", %"class.base::OnceCallback.218"* %7, i64 0, i32 0
  %59 = inttoptr i64 %50 to %"class.base::internal::BindStateBase"*
  %60 = getelementptr inbounds %"class.base::internal::BindStateBase", %"class.base::internal::BindStateBase"* %59, i64 0, i32 1
  %61 = bitcast void ()** %60 to void (%"class.base::internal::BindStateBase"*, %"class.mojo::StructPtr.300"*, %"class.mojo::InlinedStructPtr"*)**
  %62 = load void (%"class.base::internal::BindStateBase"*, %"class.mojo::StructPtr.300"*, %"class.mojo::InlinedStructPtr"*)*, void (%"class.base::internal::BindStateBase"*, %"class.mojo::StructPtr.300"*, %"class.mojo::InlinedStructPtr"*)** %61, align 8
  call void %62(%"class.base::internal::BindStateBase"* %59, %"class.mojo::StructPtr.300"* nonnull dereferenceable(8) %8, %"class.mojo::InlinedStructPtr"* nonnull dereferenceable(40) %9) #15
  call void @_ZN4base8internal12CallbackBaseD2Ev(%"class.base::internal::CallbackBase"* nonnull %58) #15
  call void @llvm.lifetime.end.p0i8(i64 8, i8* nonnull %55) #15
  %63 = getelementptr inbounds %"class.mojo::InlinedStructPtr", %"class.mojo::InlinedStructPtr"* %9, i64 0, i32 0
  call void @_ZN5blink5mojom17PresentationErrorD1Ev(%"class.blink::mojom::PresentationError"* nonnull %63) #15
  call void @llvm.lifetime.end.p0i8(i64 4, i8* nonnull %54) #15
  %64 = getelementptr inbounds %"class.mojo::StructPtr.300", %"class.mojo::StructPtr.300"* %8, i64 0, i32 0, i32 0, i32 0, i32 0
  %65 = load %"class.blink::mojom::PresentationConnectionResult"*, %"class.blink::mojom::PresentationConnectionResult"** %64, align 8
  store %"class.blink::mojom::PresentationConnectionResult"* null, %"class.blink::mojom::PresentationConnectionResult"** %64, align 8
  %66 = icmp eq %"class.blink::mojom::PresentationConnectionResult"* %65, null
  br i1 %66, label %69, label %67

67:                                               ; preds = %47
  call void @_ZN5blink5mojom28PresentationConnectionResultD1Ev(%"class.blink::mojom::PresentationConnectionResult"* nonnull %65) #15
  %68 = bitcast %"class.blink::mojom::PresentationConnectionResult"* %65 to i8*
  call void @_ZdlPv(i8* %68) #16
  br label %69

69:                                               ; preds = %47, %67
  call void @llvm.lifetime.end.p0i8(i64 8, i8* nonnull %51)
  call void @llvm.lifetime.end.p0i8(i64 40, i8* nonnull %52)
  %70 = getelementptr inbounds %"class.base::OnceCallback.218", %"class.base::OnceCallback.218"* %15, i64 0, i32 0
  call void @_ZN4base8internal12CallbackBaseD2Ev(%"class.base::internal::CallbackBase"* nonnull %70) #15
  br label %132

71:                                               ; preds = %44
  %72 = bitcast %"struct.content::PresentationRequest"* %16 to i8*
  call void @llvm.lifetime.start.p0i8(i64 112, i8* nonnull %72) #15
  call void @llvm.memset.p0i8.i64(i8* nonnull align 8 %72, i8 -86, i64 112, i1 false)
  %73 = bitcast %"struct.content::GlobalFrameRoutingId"* %17 to i8*
  call void @llvm.lifetime.start.p0i8(i64 8, i8* nonnull %73) #15
  %74 = getelementptr inbounds %"class.content::PresentationServiceImpl", %"class.content::PresentationServiceImpl"* %0, i64 0, i32 14
  %75 = load i32, i32* %74, align 8
  %76 = getelementptr inbounds %"class.content::PresentationServiceImpl", %"class.content::PresentationServiceImpl"* %0, i64 0, i32 15
  %77 = load i32, i32* %76, align 4
  %78 = getelementptr inbounds %"struct.content::GlobalFrameRoutingId", %"struct.content::GlobalFrameRoutingId"* %17, i64 0, i32 0
  store i32 %75, i32* %78, align 4
  %79 = getelementptr inbounds %"struct.content::GlobalFrameRoutingId", %"struct.content::GlobalFrameRoutingId"* %17, i64 0, i32 1
  store i32 %77, i32* %79, align 4
  %80 = getelementptr inbounds %"class.content::PresentationServiceImpl", %"class.content::PresentationServiceImpl"* %0, i64 0, i32 3
  %81 = load %"class.content::RenderFrameHost"*, %"class.content::RenderFrameHost"** %80, align 8
  %82 = bitcast %"class.content::RenderFrameHost"* %81 to %"class.url::Origin"* (%"class.content::RenderFrameHost"*)***
  %83 = load %"class.url::Origin"* (%"class.content::RenderFrameHost"*)**, %"class.url::Origin"* (%"class.content::RenderFrameHost"*)*** %82, align 8
  %84 = getelementptr inbounds %"class.url::Origin"* (%"class.content::RenderFrameHost"*)*, %"class.url::Origin"* (%"class.content::RenderFrameHost"*)** %83, i64 36
  %85 = load %"class.url::Origin"* (%"class.content::RenderFrameHost"*)*, %"class.url::Origin"* (%"class.content::RenderFrameHost"*)** %84, align 8
  %86 = tail call dereferenceable(80) %"class.url::Origin"* %85(%"class.content::RenderFrameHost"* %81) #15
  call void @_ZN7content19PresentationRequestC1ERKNS_20GlobalFrameRoutingIdERKNSt3__16vectorI4GURLNS4_9allocatorIS6_EEEERKN3url6OriginE(%"struct.content::PresentationRequest"* nonnull %16, %"struct.content::GlobalFrameRoutingId"* nonnull dereferenceable(8) %17, %"class.std::__1::vector"* dereferenceable(24) %1, %"class.url::Origin"* dereferenceable(80) %86) #15
  call void @llvm.lifetime.end.p0i8(i64 8, i8* nonnull %73) #15
  %87 = load %"class.content::ControllerPresentationServiceDelegate"*, %"class.content::ControllerPresentationServiceDelegate"** %22, align 8
  %88 = bitcast %"class.base::WeakPtr.284"* %19 to i8*
  call void @llvm.lifetime.start.p0i8(i64 16, i8* nonnull %88) #15
  %89 = bitcast %"class.base::internal::WeakReference"* %6 to i8*
  call void @llvm.lifetime.start.p0i8(i64 8, i8* nonnull %89) #15, !noalias !47
  %90 = getelementptr inbounds %"class.content::PresentationServiceImpl", %"class.content::PresentationServiceImpl"* %0, i64 0, i32 17, i32 0, i32 0
  call void @_ZNK4base8internal18WeakReferenceOwner6GetRefEv(%"class.base::internal::WeakReference"* nonnull sret %6, %"class.base::internal::WeakReferenceOwner"* %90) #15, !noalias !47
  %91 = getelementptr inbounds %"class.content::PresentationServiceImpl", %"class.content::PresentationServiceImpl"* %0, i64 0, i32 17, i32 0, i32 1
  %92 = load i64, i64* %91, align 8, !noalias !47
  %93 = getelementptr inbounds %"class.base::WeakPtr.284", %"class.base::WeakPtr.284"* %19, i64 0, i32 0
  call void @_ZN4base8internal11WeakPtrBaseC2ERKNS0_13WeakReferenceEm(%"class.base::internal::WeakPtrBase"* nonnull %93, %"class.base::internal::WeakReference"* nonnull dereferenceable(8) %6, i64 %92) #15
  call void @_ZN4base8internal13WeakReferenceD1Ev(%"class.base::internal::WeakReference"* nonnull %6) #15
  call void @llvm.lifetime.end.p0i8(i64 8, i8* nonnull %89) #15, !noalias !47
  %94 = call i8* @_Znwm(i64 72) #16, !noalias !50
  %95 = bitcast i8* %94 to %"class.base::internal::BindStateBase"*
  call void @_ZN4base8internal13BindStateBaseC2EPFvvEPFvPKS1_EPFbS5_NS1_21CancellationQueryModeEE(%"class.base::internal::BindStateBase"* nonnull %95, void ()* bitcast (void (%"class.base::internal::BindStateBase"*, %"class.mojo::StructPtr.300"*)* @_ZN4base8internal7InvokerINS0_9BindStateIMN7content23PresentationServiceImplEFviN4mojo9StructPtrIN5blink5mojom28PresentationConnectionResultEEEEJNS_7WeakPtrIS4_EEiEEEFvSA_EE7RunOnceEPNS0_13BindStateBaseEOSA_ to void ()*), void (%"class.base::internal::BindStateBase"*)* nonnull @_ZN4base8internal9BindStateIMN7content23PresentationServiceImplEFviN4mojo9StructPtrIN5blink5mojom28PresentationConnectionResultEEEEJNS_7WeakPtrIS3_EEiEE7DestroyEPKNS0_13BindStateBaseE, i1 (%"class.base::internal::BindStateBase"*, i32)* nonnull @_ZN4base8internal23QueryCancellationTraitsINS0_9BindStateIMN7content23PresentationServiceImplEFviN4mojo9StructPtrIN5blink5mojom28PresentationConnectionResultEEEEJNS_7WeakPtrIS4_EEiEEEEEbPKNS0_13BindStateBaseENSG_21CancellationQueryModeE) #15, !noalias !50
  %96 = getelementptr inbounds i8, i8* %94, i64 32
  %97 = bitcast i8* %96 to <2 x i64>*
  store <2 x i64> <i64 ptrtoint (void (%"class.content::PresentationServiceImpl"*, i32, %"class.mojo::StructPtr.300"*)* @_ZN7content23PresentationServiceImpl32OnReconnectPresentationSucceededEiN4mojo9StructPtrIN5blink5mojom28PresentationConnectionResultEEE to i64), i64 0>, <2 x i64>* %97, align 8, !noalias !50
  %98 = getelementptr inbounds i8, i8* %94, i64 48
  %99 = bitcast i8* %98 to %"class.base::internal::WeakReference"*
  %100 = getelementptr inbounds %"class.base::WeakPtr.284", %"class.base::WeakPtr.284"* %19, i64 0, i32 0, i32 0
  call void @_ZN4base8internal13WeakReferenceC1EOS1_(%"class.base::internal::WeakReference"* %99, %"class.base::internal::WeakReference"* nonnull dereferenceable(8) %100) #15, !noalias !50
  %101 = getelementptr inbounds i8, i8* %94, i64 56
  %102 = bitcast i8* %101 to i64*
  %103 = getelementptr inbounds %"class.base::WeakPtr.284", %"class.base::WeakPtr.284"* %19, i64 0, i32 0, i32 1
  %104 = load i64, i64* %103, align 8, !noalias !50
  store i64 %104, i64* %102, align 8, !noalias !50
  %105 = getelementptr inbounds i8, i8* %94, i64 64
  %106 = bitcast i8* %105 to i32*
  store i32 %45, i32* %106, align 4, !noalias !50
  %107 = bitcast %"class.base::OnceCallback.312"* %18 to i8**
  store i8* %94, i8** %107, align 8, !alias.scope !50
  %108 = bitcast %"class.base::WeakPtr.284"* %21 to i8*
  call void @llvm.lifetime.start.p0i8(i64 16, i8* nonnull %108) #15
  %109 = bitcast %"class.base::internal::WeakReference"* %5 to i8*
  call void @llvm.lifetime.start.p0i8(i64 8, i8* nonnull %109) #15, !noalias !55
  call void @_ZNK4base8internal18WeakReferenceOwner6GetRefEv(%"class.base::internal::WeakReference"* nonnull sret %5, %"class.base::internal::WeakReferenceOwner"* %90) #15, !noalias !55
  %110 = load i64, i64* %91, align 8, !noalias !55
  %111 = getelementptr inbounds %"class.base::WeakPtr.284", %"class.base::WeakPtr.284"* %21, i64 0, i32 0
  call void @_ZN4base8internal11WeakPtrBaseC2ERKNS0_13WeakReferenceEm(%"class.base::internal::WeakPtrBase"* nonnull %111, %"class.base::internal::WeakReference"* nonnull dereferenceable(8) %5, i64 %110) #15
  call void @_ZN4base8internal13WeakReferenceD1Ev(%"class.base::internal::WeakReference"* nonnull %5) #15
  call void @llvm.lifetime.end.p0i8(i64 8, i8* nonnull %109) #15, !noalias !55
  %112 = call i8* @_Znwm(i64 72) #16, !noalias !58
  %113 = bitcast i8* %112 to %"class.base::internal::BindStateBase"*
  call void @_ZN4base8internal13BindStateBaseC2EPFvvEPFvPKS1_EPFbS5_NS1_21CancellationQueryModeEE(%"class.base::internal::BindStateBase"* nonnull %113, void ()* bitcast (void (%"class.base::internal::BindStateBase"*, %"class.blink::mojom::PresentationError"*)* @_ZN4base8internal7InvokerINS0_9BindStateIMN7content23PresentationServiceImplEFviRKN5blink5mojom17PresentationErrorEEJNS_7WeakPtrIS4_EEiEEEFvS9_EE7RunOnceEPNS0_13BindStateBaseES9_ to void ()*), void (%"class.base::internal::BindStateBase"*)* nonnull @_ZN4base8internal9BindStateIMN7content23PresentationServiceImplEFviRKN5blink5mojom17PresentationErrorEEJNS_7WeakPtrIS3_EEiEE7DestroyEPKNS0_13BindStateBaseE, i1 (%"class.base::internal::BindStateBase"*, i32)* nonnull @_ZN4base8internal23QueryCancellationTraitsINS0_9BindStateIMN7content23PresentationServiceImplEFviRKN5blink5mojom17PresentationErrorEEJNS_7WeakPtrIS4_EEiEEEEEbPKNS0_13BindStateBaseENSF_21CancellationQueryModeE) #15, !noalias !58
  %114 = getelementptr inbounds i8, i8* %112, i64 32
  %115 = bitcast i8* %114 to <2 x i64>*
  store <2 x i64> <i64 ptrtoint (void (%"class.content::PresentationServiceImpl"*, i32, %"class.blink::mojom::PresentationError"*)* @_ZN7content23PresentationServiceImpl28OnReconnectPresentationErrorEiRKN5blink5mojom17PresentationErrorE to i64), i64 0>, <2 x i64>* %115, align 8, !noalias !58
  %116 = getelementptr inbounds i8, i8* %112, i64 48
  %117 = bitcast i8* %116 to %"class.base::internal::WeakReference"*
  %118 = getelementptr inbounds %"class.base::WeakPtr.284", %"class.base::WeakPtr.284"* %21, i64 0, i32 0, i32 0
  call void @_ZN4base8internal13WeakReferenceC1EOS1_(%"class.base::internal::WeakReference"* %117, %"class.base::internal::WeakReference"* nonnull dereferenceable(8) %118) #15, !noalias !58
  %119 = getelementptr inbounds i8, i8* %112, i64 56
  %120 = bitcast i8* %119 to i64*
  %121 = getelementptr inbounds %"class.base::WeakPtr.284", %"class.base::WeakPtr.284"* %21, i64 0, i32 0, i32 1
  %122 = load i64, i64* %121, align 8, !noalias !58
  store i64 %122, i64* %120, align 8, !noalias !58
  %123 = getelementptr inbounds i8, i8* %112, i64 64
  %124 = bitcast i8* %123 to i32*
  store i32 %45, i32* %124, align 4, !noalias !58
  %125 = bitcast %"class.base::OnceCallback.313"* %20 to i8**
  store i8* %112, i8** %125, align 8, !alias.scope !58
  %126 = bitcast %"class.content::ControllerPresentationServiceDelegate"* %87 to void (%"class.content::ControllerPresentationServiceDelegate"*, %"struct.content::PresentationRequest"*, %"class.std::__1::basic_string"*, %"class.base::OnceCallback.312"*, %"class.base::OnceCallback.313"*)***
  %127 = load void (%"class.content::ControllerPresentationServiceDelegate"*, %"struct.content::PresentationRequest"*, %"class.std::__1::basic_string"*, %"class.base::OnceCallback.312"*, %"class.base::OnceCallback.313"*)**, void (%"class.content::ControllerPresentationServiceDelegate"*, %"struct.content::PresentationRequest"*, %"class.std::__1::basic_string"*, %"class.base::OnceCallback.312"*, %"class.base::OnceCallback.313"*)*** %126, align 8
  %128 = getelementptr inbounds void (%"class.content::ControllerPresentationServiceDelegate"*, %"struct.content::PresentationRequest"*, %"class.std::__1::basic_string"*, %"class.base::OnceCallback.312"*, %"class.base::OnceCallback.313"*)*, void (%"class.content::ControllerPresentationServiceDelegate"*, %"struct.content::PresentationRequest"*, %"class.std::__1::basic_string"*, %"class.base::OnceCallback.312"*, %"class.base::OnceCallback.313"*)** %127, i64 9
  %129 = load void (%"class.content::ControllerPresentationServiceDelegate"*, %"struct.content::PresentationRequest"*, %"class.std::__1::basic_string"*, %"class.base::OnceCallback.312"*, %"class.base::OnceCallback.313"*)*, void (%"class.content::ControllerPresentationServiceDelegate"*, %"struct.content::PresentationRequest"*, %"class.std::__1::basic_string"*, %"class.base::OnceCallback.312"*, %"class.base::OnceCallback.313"*)** %128, align 8
  call void %129(%"class.content::ControllerPresentationServiceDelegate"* %87, %"struct.content::PresentationRequest"* nonnull dereferenceable(112) %16, %"class.std::__1::basic_string"* dereferenceable(24) %2, %"class.base::OnceCallback.312"* nonnull %18, %"class.base::OnceCallback.313"* nonnull %20) #15
  %130 = getelementptr inbounds %"class.base::OnceCallback.313", %"class.base::OnceCallback.313"* %20, i64 0, i32 0
  call void @_ZN4base8internal12CallbackBaseD2Ev(%"class.base::internal::CallbackBase"* nonnull %130) #15
  call void @_ZN4base8internal11WeakPtrBaseD2Ev(%"class.base::internal::WeakPtrBase"* nonnull %111) #15
  call void @llvm.lifetime.end.p0i8(i64 16, i8* nonnull %108) #15
  %131 = getelementptr inbounds %"class.base::OnceCallback.312", %"class.base::OnceCallback.312"* %18, i64 0, i32 0
  call void @_ZN4base8internal12CallbackBaseD2Ev(%"class.base::internal::CallbackBase"* nonnull %131) #15
  call void @_ZN4base8internal11WeakPtrBaseD2Ev(%"class.base::internal::WeakPtrBase"* nonnull %93) #15
  call void @llvm.lifetime.end.p0i8(i64 16, i8* nonnull %88) #15
  call void @_ZN7content19PresentationRequestD1Ev(%"struct.content::PresentationRequest"* nonnull %16) #15
  call void @llvm.lifetime.end.p0i8(i64 112, i8* nonnull %72) #15
  br label %132

132:                                              ; preds = %69, %71, %42, %25
  ret void
}

; Function Attrs: nounwind ssp uwtable
define linkonce_odr hidden void @_ZN5blink5mojom17PresentationError3NewIJNS0_21PresentationErrorTypeERA39_KcEEEN4mojo16InlinedStructPtrIS1_EEDpOT_(%"class.mojo::InlinedStructPtr"* noalias sret, i32* dereferenceable(4), [39 x i8]* dereferenceable(39)) local_unnamed_addr #0 comdat align 2 {
  %4 = alloca %"class.std::__1::basic_string", align 8
  %5 = getelementptr inbounds %"class.mojo::InlinedStructPtr", %"class.mojo::InlinedStructPtr"* %0, i64 0, i32 0
  %6 = load i32, i32* %1, align 4
  %7 = bitcast %"class.std::__1::basic_string"* %4 to i8*
  call void @llvm.lifetime.start.p0i8(i64 24, i8* nonnull %7) #15
  %8 = getelementptr inbounds [39 x i8], [39 x i8]* %2, i64 0, i64 0
  %9 = tail call i64 @strlen(i8* %8) #15
  %10 = icmp ugt i64 %9, -17
  br i1 %10, label %11, label %13

11:                                               ; preds = %3
  %12 = bitcast %"class.std::__1::basic_string"* %4 to %"class.std::__1::__basic_string_common"*
  call void @_ZNKSt3__121__basic_string_commonILb1EE20__throw_length_errorEv(%"class.std::__1::__basic_string_common"* nonnull %12) #17
  unreachable

13:                                               ; preds = %3
  %14 = icmp ult i64 %9, 23
  br i1 %14, label %24, label %15

15:                                               ; preds = %13
  %16 = add nuw i64 %9, 16
  %17 = and i64 %16, -16
  %18 = tail call i8* @_Znwm(i64 %17) #16
  %19 = getelementptr inbounds %"class.std::__1::basic_string", %"class.std::__1::basic_string"* %4, i64 0, i32 0, i32 0, i32 0, i32 0, i32 0, i32 0
  store i8* %18, i8** %19, align 8
  %20 = or i64 %17, -9223372036854775808
  %21 = getelementptr inbounds %"class.std::__1::basic_string", %"class.std::__1::basic_string"* %4, i64 0, i32 0, i32 0, i32 0, i32 0, i32 0, i32 2
  store i64 %20, i64* %21, align 8
  %22 = getelementptr inbounds %"class.std::__1::basic_string", %"class.std::__1::basic_string"* %4, i64 0, i32 0, i32 0, i32 0, i32 0, i32 0, i32 1
  store i64 %9, i64* %22, align 8
  %23 = bitcast %"class.std::__1::basic_string"* %4 to %"struct.std::__1::basic_string<char, std::__1::char_traits<char>, std::__1::allocator<char> >::__short"*
  br label %29

24:                                               ; preds = %13
  %25 = trunc i64 %9 to i8
  %26 = bitcast %"class.std::__1::basic_string"* %4 to %"struct.std::__1::basic_string<char, std::__1::char_traits<char>, std::__1::allocator<char> >::__short"*
  %27 = getelementptr inbounds %"struct.std::__1::basic_string<char, std::__1::char_traits<char>, std::__1::allocator<char> >::__short", %"struct.std::__1::basic_string<char, std::__1::char_traits<char>, std::__1::allocator<char> >::__short"* %26, i64 0, i32 1, i32 0
  store i8 %25, i8* %27, align 1
  %28 = icmp eq i64 %9, 0
  br i1 %28, label %32, label %29

29:                                               ; preds = %24, %15
  %30 = phi %"struct.std::__1::basic_string<char, std::__1::char_traits<char>, std::__1::allocator<char> >::__short"* [ %26, %24 ], [ %23, %15 ]
  %31 = phi i8* [ %7, %24 ], [ %18, %15 ]
  call void @llvm.memcpy.p0i8.p0i8.i64(i8* nonnull align 1 %31, i8* align 1 %8, i64 %9, i1 false) #15
  br label %32

32:                                               ; preds = %24, %29
  %33 = phi %"struct.std::__1::basic_string<char, std::__1::char_traits<char>, std::__1::allocator<char> >::__short"* [ %26, %24 ], [ %30, %29 ]
  %34 = phi i8* [ %7, %24 ], [ %31, %29 ]
  %35 = getelementptr inbounds i8, i8* %34, i64 %9
  store i8 0, i8* %35, align 1
  call void @_ZN5blink5mojom17PresentationErrorC1ENS0_21PresentationErrorTypeERKNSt3__112basic_stringIcNS3_11char_traitsIcEENS3_9allocatorIcEEEE(%"class.blink::mojom::PresentationError"* %5, i32 %6, %"class.std::__1::basic_string"* nonnull dereferenceable(24) %4) #15
  %36 = getelementptr inbounds %"struct.std::__1::basic_string<char, std::__1::char_traits<char>, std::__1::allocator<char> >::__short", %"struct.std::__1::basic_string<char, std::__1::char_traits<char>, std::__1::allocator<char> >::__short"* %33, i64 0, i32 1, i32 0
  %37 = load i8, i8* %36, align 1
  %38 = icmp slt i8 %37, 0
  br i1 %38, label %39, label %42

39:                                               ; preds = %32
  %40 = getelementptr inbounds %"class.std::__1::basic_string", %"class.std::__1::basic_string"* %4, i64 0, i32 0, i32 0, i32 0, i32 0, i32 0, i32 0
  %41 = load i8*, i8** %40, align 8
  call void @_ZdlPv(i8* %41) #16
  br label %42

42:                                               ; preds = %32, %39
  call void @llvm.lifetime.end.p0i8(i64 24, i8* nonnull %7) #15
  %43 = getelementptr inbounds %"class.mojo::InlinedStructPtr", %"class.mojo::InlinedStructPtr"* %0, i64 0, i32 1
  store i32 1, i32* %43, align 8
  ret void
}

; Function Attrs: nounwind ssp uwtable
define hidden i32 @_ZN7content23PresentationServiceImpl37RegisterReconnectPresentationCallbackEPN4base12OnceCallbackIFvN4mojo9StructPtrIN5blink5mojom28PresentationConnectionResultEEENS3_16InlinedStructPtrINS6_17PresentationErrorEEEEEE(%"class.content::PresentationServiceImpl"*, %"class.base::OnceCallback.218"* nocapture) local_unnamed_addr #0 align 2 {
  %3 = alloca %"class.std::__1::tuple.431", align 8
  %4 = alloca %"class.std::__1::tuple.415", align 1
  %5 = alloca %"class.base::OnceCallback.218", align 8
  %6 = alloca i32, align 4
  %7 = getelementptr inbounds %"class.content::PresentationServiceImpl", %"class.content::PresentationServiceImpl"* %0, i64 0, i32 12, i32 0, i32 2, i32 0, i32 0
  %8 = load i64, i64* %7, align 8
  %9 = icmp ugt i64 %8, 9
  br i1 %9, label %38, label %10

10:                                               ; preds = %2
  %11 = bitcast i32* %6 to i8*
  call void @llvm.lifetime.start.p0i8(i64 4, i8* nonnull %11) #15
  %12 = load i32, i32* @_ZZN7content12_GLOBAL__N_116GetNextRequestIdEvE15next_request_id, align 4
  %13 = add nsw i32 %12, 1
  store i32 %13, i32* @_ZZN7content12_GLOBAL__N_116GetNextRequestIdEvE15next_request_id, align 4
  store i32 %13, i32* %6, align 4
  %14 = bitcast %"class.base::OnceCallback.218"* %5 to i8*
  call void @llvm.lifetime.start.p0i8(i64 8, i8* nonnull %14)
  %15 = tail call i8* @_Znwm(i64 8) #16
  %16 = getelementptr inbounds %"class.base::OnceCallback.218", %"class.base::OnceCallback.218"* %1, i64 0, i32 0, i32 0, i32 0
  %17 = bitcast %"class.base::OnceCallback.218"* %1 to i64*
  %18 = load i64, i64* %17, align 8
  store %"class.base::internal::BindStateBase"* null, %"class.base::internal::BindStateBase"** %16, align 8
  %19 = getelementptr inbounds %"class.base::OnceCallback.218", %"class.base::OnceCallback.218"* %5, i64 0, i32 0, i32 0, i32 0
  %20 = bitcast i8* %15 to i64*
  store i64 %18, i64* %20, align 8
  store %"class.base::internal::BindStateBase"* null, %"class.base::internal::BindStateBase"** %19, align 8
  %21 = getelementptr inbounds %"class.base::OnceCallback.218", %"class.base::OnceCallback.218"* %5, i64 0, i32 0
  call void @_ZN4base8internal12CallbackBaseD2Ev(%"class.base::internal::CallbackBase"* nonnull %21) #15
  call void @llvm.lifetime.end.p0i8(i64 8, i8* nonnull %14)
  %22 = ptrtoint i8* %15 to i64
  %23 = getelementptr inbounds %"class.content::PresentationServiceImpl", %"class.content::PresentationServiceImpl"* %0, i64 0, i32 12, i32 0
  %24 = bitcast %"class.std::__1::tuple.431"* %3 to i8*
  call void @llvm.lifetime.start.p0i8(i64 8, i8* nonnull %24) #15
  %25 = getelementptr inbounds %"class.std::__1::tuple.431", %"class.std::__1::tuple.431"* %3, i64 0, i32 0, i32 0, i32 0
  store i32* %6, i32** %25, align 8
  %26 = getelementptr inbounds %"class.std::__1::tuple.415", %"class.std::__1::tuple.415"* %4, i64 0, i32 0
  call void @llvm.lifetime.start.p0i8(i64 1, i8* nonnull %26) #15
  %27 = call { %"struct.std::__1::__hash_node_base"*, i8 } @_ZNSt3__112__hash_tableINS_17__hash_value_typeIiNS_10unique_ptrIN7content23PresentationServiceImpl30NewPresentationCallbackWrapperENS_14default_deleteIS5_EEEEEENS_22__unordered_map_hasherIiS9_NS_4hashIiEENS_8equal_toIiEELb1EEENS_21__unordered_map_equalIiS9_SE_SC_Lb1EEENS_9allocatorIS9_EEE25__emplace_unique_key_argsIiJRKNS_21piecewise_construct_tENS_5tupleIJRKiEEENSP_IJEEEEEENS_4pairINS_15__hash_iteratorIPNS_11__hash_nodeIS9_PvEEEEbEERKT_DpOT0_(%"class.std::__1::__hash_table"* %23, i32* nonnull dereferenceable(4) %6, %"struct.std::__1::piecewise_construct_t"* nonnull dereferenceable(1) @_ZNSt3__1L19piecewise_constructE, %"class.std::__1::tuple.431"* nonnull dereferenceable(8) %3, %"class.std::__1::tuple.415"* nonnull dereferenceable(1) %4) #15
  %28 = extractvalue { %"struct.std::__1::__hash_node_base"*, i8 } %27, 0
  %29 = getelementptr inbounds %"struct.std::__1::__hash_node_base", %"struct.std::__1::__hash_node_base"* %28, i64 3
  call void @llvm.lifetime.end.p0i8(i64 1, i8* nonnull %26) #15
  call void @llvm.lifetime.end.p0i8(i64 8, i8* nonnull %24) #15
  %30 = bitcast %"struct.std::__1::__hash_node_base"* %29 to %"class.content::PresentationServiceImpl::NewPresentationCallbackWrapper"**
  %31 = load %"class.content::PresentationServiceImpl::NewPresentationCallbackWrapper"*, %"class.content::PresentationServiceImpl::NewPresentationCallbackWrapper"** %30, align 8
  %32 = bitcast %"struct.std::__1::__hash_node_base"* %29 to i64*
  store i64 %22, i64* %32, align 8
  %33 = icmp eq %"class.content::PresentationServiceImpl::NewPresentationCallbackWrapper"* %31, null
  br i1 %33, label %36, label %34

34:                                               ; preds = %10
  call void @_ZN7content23PresentationServiceImpl30NewPresentationCallbackWrapperD2Ev(%"class.content::PresentationServiceImpl::NewPresentationCallbackWrapper"* nonnull %31) #15
  %35 = bitcast %"class.content::PresentationServiceImpl::NewPresentationCallbackWrapper"* %31 to i8*
  call void @_ZdlPv(i8* %35) #16
  br label %36

36:                                               ; preds = %34, %10
  %37 = load i32, i32* %6, align 4
  call void @llvm.lifetime.end.p0i8(i64 4, i8* nonnull %11) #15
  br label %38

38:                                               ; preds = %2, %36
  %39 = phi i32 [ %37, %36 ], [ -1, %2 ]
  ret i32 %39
}

; Function Attrs: nounwind ssp uwtable
define hidden void @_ZN7content23PresentationServiceImpl32OnReconnectPresentationSucceededEiN4mojo9StructPtrIN5blink5mojom28PresentationConnectionResultEEE(%"class.content::PresentationServiceImpl"*, i32, %"class.mojo::StructPtr.300"* nocapture) #0 align 2 {
  %4 = alloca %"class.blink::mojom::PresentationInfo", align 8
  %5 = alloca %"class.mojo::StructPtr.300", align 8
  %6 = alloca %"class.mojo::InlinedStructPtr", align 8
  %7 = bitcast %"class.blink::mojom::PresentationInfo"* %4 to i8*
  call void @llvm.lifetime.start.p0i8(i64 144, i8* nonnull %7) #15
  call void @llvm.memset.p0i8.i64(i8* nonnull align 8 %7, i8 -86, i64 144, i1 false)
  %8 = getelementptr inbounds %"class.mojo::StructPtr.300", %"class.mojo::StructPtr.300"* %2, i64 0, i32 0, i32 0, i32 0, i32 0
  %9 = load %"class.blink::mojom::PresentationConnectionResult"*, %"class.blink::mojom::PresentationConnectionResult"** %8, align 8
  %10 = getelementptr inbounds %"class.blink::mojom::PresentationConnectionResult", %"class.blink::mojom::PresentationConnectionResult"* %9, i64 0, i32 0, i32 0, i32 0, i32 0, i32 0
  %11 = load %"class.blink::mojom::PresentationInfo"*, %"class.blink::mojom::PresentationInfo"** %10, align 8
  %12 = getelementptr inbounds %"class.blink::mojom::PresentationInfo", %"class.blink::mojom::PresentationInfo"* %4, i64 0, i32 0
  %13 = getelementptr inbounds %"class.blink::mojom::PresentationInfo", %"class.blink::mojom::PresentationInfo"* %11, i64 0, i32 0
  call void @_ZN4GURLC1ERKS_(%class.GURL* nonnull %12, %class.GURL* dereferenceable(120) %13) #15
  %14 = getelementptr inbounds %"class.blink::mojom::PresentationInfo", %"class.blink::mojom::PresentationInfo"* %4, i64 0, i32 1
  %15 = getelementptr inbounds %"class.blink::mojom::PresentationInfo", %"class.blink::mojom::PresentationInfo"* %11, i64 0, i32 1
  %16 = bitcast %"class.std::__1::basic_string"* %15 to %"struct.std::__1::basic_string<char, std::__1::char_traits<char>, std::__1::allocator<char> >::__short"*
  %17 = getelementptr inbounds %"struct.std::__1::basic_string<char, std::__1::char_traits<char>, std::__1::allocator<char> >::__short", %"struct.std::__1::basic_string<char, std::__1::char_traits<char>, std::__1::allocator<char> >::__short"* %16, i64 0, i32 1, i32 0
  %18 = load i8, i8* %17, align 1
  %19 = icmp slt i8 %18, 0
  br i1 %19, label %23, label %20

20:                                               ; preds = %3
  %21 = bitcast %"class.std::__1::basic_string"* %14 to i8*
  %22 = bitcast %"class.std::__1::basic_string"* %15 to i8*
  call void @llvm.memcpy.p0i8.p0i8.i64(i8* align 8 %21, i8* align 8 %22, i64 24, i1 false) #15
  br label %28

23:                                               ; preds = %3
  %24 = getelementptr inbounds %"class.std::__1::basic_string", %"class.std::__1::basic_string"* %15, i64 0, i32 0, i32 0, i32 0, i32 0, i32 0, i32 0
  %25 = load i8*, i8** %24, align 8
  %26 = getelementptr inbounds %"class.blink::mojom::PresentationInfo", %"class.blink::mojom::PresentationInfo"* %11, i64 0, i32 1, i32 0, i32 0, i32 0, i32 0, i32 0, i32 1
  %27 = load i64, i64* %26, align 8
  call void @_ZNSt3__112basic_stringIcNS_11char_traitsIcEENS_9allocatorIcEEE25__init_copy_ctor_externalEPKcm(%"class.std::__1::basic_string"* %14, i8* %25, i64 %27) #15
  br label %28

28:                                               ; preds = %20, %23
  %29 = bitcast %"class.mojo::StructPtr.300"* %5 to i64*
  %30 = getelementptr inbounds %"class.mojo::StructPtr.300", %"class.mojo::StructPtr.300"* %5, i64 0, i32 0, i32 0, i32 0, i32 0
  %31 = bitcast %"class.mojo::StructPtr.300"* %2 to i64*
  %32 = load i64, i64* %31, align 8
  store i64 %32, i64* %29, align 8
  store i64 0, i64* %31, align 8
  %33 = getelementptr inbounds %"class.mojo::InlinedStructPtr", %"class.mojo::InlinedStructPtr"* %6, i64 0, i32 0
  call void @_ZN5blink5mojom17PresentationErrorC1Ev(%"class.blink::mojom::PresentationError"* nonnull %33) #15
  %34 = getelementptr inbounds %"class.mojo::InlinedStructPtr", %"class.mojo::InlinedStructPtr"* %6, i64 0, i32 1
  store i32 0, i32* %34, align 8
  %35 = call zeroext i1 @_ZN7content23PresentationServiceImpl44RunAndEraseReconnectPresentationMojoCallbackEiN4mojo9StructPtrIN5blink5mojom28PresentationConnectionResultEEENS1_16InlinedStructPtrINS4_17PresentationErrorEEE(%"class.content::PresentationServiceImpl"* %0, i32 %1, %"class.mojo::StructPtr.300"* nonnull %5, %"class.mojo::InlinedStructPtr"* nonnull %6)
  call void @_ZN5blink5mojom17PresentationErrorD1Ev(%"class.blink::mojom::PresentationError"* nonnull %33) #15
  %36 = load %"class.blink::mojom::PresentationConnectionResult"*, %"class.blink::mojom::PresentationConnectionResult"** %30, align 8
  store %"class.blink::mojom::PresentationConnectionResult"* null, %"class.blink::mojom::PresentationConnectionResult"** %30, align 8
  %37 = icmp eq %"class.blink::mojom::PresentationConnectionResult"* %36, null
  br i1 %37, label %40, label %38

38:                                               ; preds = %28
  call void @_ZN5blink5mojom28PresentationConnectionResultD1Ev(%"class.blink::mojom::PresentationConnectionResult"* nonnull %36) #15
  %39 = bitcast %"class.blink::mojom::PresentationConnectionResult"* %36 to i8*
  call void @_ZdlPv(i8* %39) #16
  br label %40

40:                                               ; preds = %28, %38
  br i1 %35, label %41, label %42

41:                                               ; preds = %40
  call void @_ZN7content23PresentationServiceImpl30ListenForConnectionStateChangeERKN5blink5mojom16PresentationInfoE(%"class.content::PresentationServiceImpl"* %0, %"class.blink::mojom::PresentationInfo"* nonnull dereferenceable(144) %4)
  br label %42

42:                                               ; preds = %41, %40
  call void @_ZN5blink5mojom16PresentationInfoD1Ev(%"class.blink::mojom::PresentationInfo"* nonnull %4) #15
  call void @llvm.lifetime.end.p0i8(i64 144, i8* nonnull %7) #15
  ret void
}

; Function Attrs: nounwind ssp uwtable
define hidden void @_ZN7content23PresentationServiceImpl28OnReconnectPresentationErrorEiRKN5blink5mojom17PresentationErrorE(%"class.content::PresentationServiceImpl"*, i32, %"class.blink::mojom::PresentationError"* nocapture readonly dereferenceable(32)) #0 align 2 {
  %4 = alloca %"class.mojo::StructPtr.300", align 8
  %5 = alloca %"class.mojo::InlinedStructPtr", align 8
  %6 = bitcast %"class.mojo::StructPtr.300"* %4 to i64*
  store i64 0, i64* %6, align 8
  %7 = getelementptr inbounds %"class.mojo::InlinedStructPtr", %"class.mojo::InlinedStructPtr"* %5, i64 0, i32 0, i32 0
  %8 = getelementptr inbounds %"class.blink::mojom::PresentationError", %"class.blink::mojom::PresentationError"* %2, i64 0, i32 0
  %9 = load i32, i32* %8, align 8, !noalias !63
  store i32 %9, i32* %7, align 8, !alias.scope !63
  %10 = getelementptr inbounds %"class.mojo::InlinedStructPtr", %"class.mojo::InlinedStructPtr"* %5, i64 0, i32 0, i32 1
  %11 = getelementptr inbounds %"class.blink::mojom::PresentationError", %"class.blink::mojom::PresentationError"* %2, i64 0, i32 1
  %12 = bitcast %"class.std::__1::basic_string"* %11 to %"struct.std::__1::basic_string<char, std::__1::char_traits<char>, std::__1::allocator<char> >::__short"*
  %13 = getelementptr inbounds %"struct.std::__1::basic_string<char, std::__1::char_traits<char>, std::__1::allocator<char> >::__short", %"struct.std::__1::basic_string<char, std::__1::char_traits<char>, std::__1::allocator<char> >::__short"* %12, i64 0, i32 1, i32 0
  %14 = load i8, i8* %13, align 1, !noalias !63
  %15 = icmp slt i8 %14, 0
  br i1 %15, label %19, label %16

16:                                               ; preds = %3
  %17 = bitcast %"class.std::__1::basic_string"* %10 to i8*
  %18 = bitcast %"class.std::__1::basic_string"* %11 to i8*
  call void @llvm.memcpy.p0i8.p0i8.i64(i8* align 8 %17, i8* align 8 %18, i64 24, i1 false) #15
  br label %24

19:                                               ; preds = %3
  %20 = getelementptr inbounds %"class.std::__1::basic_string", %"class.std::__1::basic_string"* %11, i64 0, i32 0, i32 0, i32 0, i32 0, i32 0, i32 0
  %21 = load i8*, i8** %20, align 8, !noalias !63
  %22 = getelementptr inbounds %"class.blink::mojom::PresentationError", %"class.blink::mojom::PresentationError"* %2, i64 0, i32 1, i32 0, i32 0, i32 0, i32 0, i32 0, i32 1
  %23 = load i64, i64* %22, align 8, !noalias !63
  call void @_ZNSt3__112basic_stringIcNS_11char_traitsIcEENS_9allocatorIcEEE25__init_copy_ctor_externalEPKcm(%"class.std::__1::basic_string"* %10, i8* %21, i64 %23) #15
  br label %24

24:                                               ; preds = %16, %19
  %25 = getelementptr inbounds %"class.mojo::InlinedStructPtr", %"class.mojo::InlinedStructPtr"* %5, i64 0, i32 1
  store i32 1, i32* %25, align 8, !alias.scope !63
  %26 = call zeroext i1 @_ZN7content23PresentationServiceImpl44RunAndEraseReconnectPresentationMojoCallbackEiN4mojo9StructPtrIN5blink5mojom28PresentationConnectionResultEEENS1_16InlinedStructPtrINS4_17PresentationErrorEEE(%"class.content::PresentationServiceImpl"* %0, i32 %1, %"class.mojo::StructPtr.300"* nonnull %4, %"class.mojo::InlinedStructPtr"* nonnull %5)
  %27 = getelementptr inbounds %"class.mojo::InlinedStructPtr", %"class.mojo::InlinedStructPtr"* %5, i64 0, i32 0
  call void @_ZN5blink5mojom17PresentationErrorD1Ev(%"class.blink::mojom::PresentationError"* nonnull %27) #15
  %28 = getelementptr inbounds %"class.mojo::StructPtr.300", %"class.mojo::StructPtr.300"* %4, i64 0, i32 0, i32 0, i32 0, i32 0
  %29 = load %"class.blink::mojom::PresentationConnectionResult"*, %"class.blink::mojom::PresentationConnectionResult"** %28, align 8
  store %"class.blink::mojom::PresentationConnectionResult"* null, %"class.blink::mojom::PresentationConnectionResult"** %28, align 8
  %30 = icmp eq %"class.blink::mojom::PresentationConnectionResult"* %29, null
  br i1 %30, label %33, label %31

31:                                               ; preds = %24
  call void @_ZN5blink5mojom28PresentationConnectionResultD1Ev(%"class.blink::mojom::PresentationConnectionResult"* nonnull %29) #15
  %32 = bitcast %"class.blink::mojom::PresentationConnectionResult"* %29 to i8*
  call void @_ZdlPv(i8* %32) #16
  br label %33

33:                                               ; preds = %24, %31
  ret void
}

; Function Attrs: nounwind ssp uwtable
define hidden void @_ZN7content23PresentationServiceImpl30ListenForConnectionStateChangeERKN5blink5mojom16PresentationInfoE(%"class.content::PresentationServiceImpl"*, %"class.blink::mojom::PresentationInfo"* dereferenceable(144)) local_unnamed_addr #0 align 2 {
  %3 = alloca %"class.base::internal::WeakReference", align 8
  %4 = alloca %"class.base::RepeatingCallback.314", align 8
  %5 = alloca %"class.base::WeakPtr.284", align 8
  %6 = getelementptr inbounds %"class.content::PresentationServiceImpl", %"class.content::PresentationServiceImpl"* %0, i64 0, i32 4
  %7 = load %"class.content::ControllerPresentationServiceDelegate"*, %"class.content::ControllerPresentationServiceDelegate"** %6, align 8
  %8 = icmp eq %"class.content::ControllerPresentationServiceDelegate"* %7, null
  br i1 %8, label %56, label %9

9:                                                ; preds = %2
  %10 = getelementptr inbounds %"class.content::PresentationServiceImpl", %"class.content::PresentationServiceImpl"* %0, i64 0, i32 14
  %11 = load i32, i32* %10, align 8
  %12 = getelementptr inbounds %"class.content::PresentationServiceImpl", %"class.content::PresentationServiceImpl"* %0, i64 0, i32 15
  %13 = load i32, i32* %12, align 4
  %14 = bitcast %"class.base::RepeatingCallback.314"* %4 to i8*
  call void @llvm.lifetime.start.p0i8(i64 8, i8* nonnull %14) #15
  %15 = bitcast %"class.base::WeakPtr.284"* %5 to i8*
  call void @llvm.lifetime.start.p0i8(i64 16, i8* nonnull %15) #15
  %16 = bitcast %"class.base::internal::WeakReference"* %3 to i8*
  call void @llvm.lifetime.start.p0i8(i64 8, i8* nonnull %16) #15, !noalias !66
  %17 = getelementptr inbounds %"class.content::PresentationServiceImpl", %"class.content::PresentationServiceImpl"* %0, i64 0, i32 17, i32 0, i32 0
  call void @_ZNK4base8internal18WeakReferenceOwner6GetRefEv(%"class.base::internal::WeakReference"* nonnull sret %3, %"class.base::internal::WeakReferenceOwner"* %17) #15, !noalias !66
  %18 = getelementptr inbounds %"class.content::PresentationServiceImpl", %"class.content::PresentationServiceImpl"* %0, i64 0, i32 17, i32 0, i32 1
  %19 = load i64, i64* %18, align 8, !noalias !66
  %20 = getelementptr inbounds %"class.base::WeakPtr.284", %"class.base::WeakPtr.284"* %5, i64 0, i32 0
  call void @_ZN4base8internal11WeakPtrBaseC2ERKNS0_13WeakReferenceEm(%"class.base::internal::WeakPtrBase"* nonnull %20, %"class.base::internal::WeakReference"* nonnull dereferenceable(8) %3, i64 %19) #15
  call void @_ZN4base8internal13WeakReferenceD1Ev(%"class.base::internal::WeakReference"* nonnull %3) #15
  call void @llvm.lifetime.end.p0i8(i64 8, i8* nonnull %16) #15, !noalias !66
  %21 = call i8* @_Znwm(i64 208) #16, !noalias !69
  %22 = bitcast i8* %21 to %"class.base::internal::BindStateBase"*
  call void @_ZN4base8internal13BindStateBaseC2EPFvvEPFvPKS1_EPFbS5_NS1_21CancellationQueryModeEE(%"class.base::internal::BindStateBase"* nonnull %22, void ()* bitcast (void (%"class.base::internal::BindStateBase"*, %"struct.content::PresentationConnectionStateChangeInfo"*)* @_ZN4base8internal7InvokerINS0_9BindStateIMN7content23PresentationServiceImplEFvRKN5blink5mojom16PresentationInfoERKNS3_37PresentationConnectionStateChangeInfoEEJNS_7WeakPtrIS4_EES7_EEEFvSC_EE3RunEPNS0_13BindStateBaseESC_ to void ()*), void (%"class.base::internal::BindStateBase"*)* nonnull @_ZN4base8internal9BindStateIMN7content23PresentationServiceImplEFvRKN5blink5mojom16PresentationInfoERKNS2_37PresentationConnectionStateChangeInfoEEJNS_7WeakPtrIS3_EES6_EE7DestroyEPKNS0_13BindStateBaseE, i1 (%"class.base::internal::BindStateBase"*, i32)* nonnull @_ZN4base8internal23QueryCancellationTraitsINS0_9BindStateIMN7content23PresentationServiceImplEFvRKN5blink5mojom16PresentationInfoERKNS3_37PresentationConnectionStateChangeInfoEEJNS_7WeakPtrIS4_EES7_EEEEEbPKNS0_13BindStateBaseENSI_21CancellationQueryModeE) #15, !noalias !69
  %23 = getelementptr inbounds i8, i8* %21, i64 32
  %24 = bitcast i8* %23 to <2 x i64>*
  store <2 x i64> <i64 ptrtoint (void (%"class.content::PresentationServiceImpl"*, %"class.blink::mojom::PresentationInfo"*, %"struct.content::PresentationConnectionStateChangeInfo"*)* @_ZN7content23PresentationServiceImpl24OnConnectionStateChangedERKN5blink5mojom16PresentationInfoERKNS_37PresentationConnectionStateChangeInfoE to i64), i64 0>, <2 x i64>* %24, align 8, !noalias !69
  %25 = getelementptr inbounds i8, i8* %21, i64 48
  %26 = bitcast i8* %25 to %"class.base::internal::WeakReference"*
  %27 = getelementptr inbounds %"class.base::WeakPtr.284", %"class.base::WeakPtr.284"* %5, i64 0, i32 0, i32 0
  call void @_ZN4base8internal13WeakReferenceC1EOS1_(%"class.base::internal::WeakReference"* %26, %"class.base::internal::WeakReference"* nonnull dereferenceable(8) %27) #15, !noalias !69
  %28 = getelementptr inbounds i8, i8* %21, i64 56
  %29 = bitcast i8* %28 to i64*
  %30 = getelementptr inbounds %"class.base::WeakPtr.284", %"class.base::WeakPtr.284"* %5, i64 0, i32 0, i32 1
  %31 = load i64, i64* %30, align 8, !noalias !69
  store i64 %31, i64* %29, align 8, !noalias !69
  %32 = getelementptr inbounds i8, i8* %21, i64 64
  %33 = bitcast i8* %32 to %class.GURL*
  %34 = getelementptr inbounds %"class.blink::mojom::PresentationInfo", %"class.blink::mojom::PresentationInfo"* %1, i64 0, i32 0
  call void @_ZN4GURLC1ERKS_(%class.GURL* %33, %class.GURL* dereferenceable(120) %34) #15, !noalias !69
  %35 = getelementptr inbounds i8, i8* %21, i64 184
  %36 = getelementptr inbounds %"class.blink::mojom::PresentationInfo", %"class.blink::mojom::PresentationInfo"* %1, i64 0, i32 1
  %37 = bitcast %"class.std::__1::basic_string"* %36 to %"struct.std::__1::basic_string<char, std::__1::char_traits<char>, std::__1::allocator<char> >::__short"*
  %38 = getelementptr inbounds %"struct.std::__1::basic_string<char, std::__1::char_traits<char>, std::__1::allocator<char> >::__short", %"struct.std::__1::basic_string<char, std::__1::char_traits<char>, std::__1::allocator<char> >::__short"* %37, i64 0, i32 1, i32 0
  %39 = load i8, i8* %38, align 1, !noalias !69
  %40 = icmp slt i8 %39, 0
  br i1 %40, label %43, label %41

41:                                               ; preds = %9
  %42 = bitcast %"class.std::__1::basic_string"* %36 to i8*
  call void @llvm.memcpy.p0i8.p0i8.i64(i8* align 8 %35, i8* align 8 %42, i64 24, i1 false) #15, !noalias !69
  br label %49

43:                                               ; preds = %9
  %44 = bitcast i8* %35 to %"class.std::__1::basic_string"*
  %45 = getelementptr inbounds %"class.std::__1::basic_string", %"class.std::__1::basic_string"* %36, i64 0, i32 0, i32 0, i32 0, i32 0, i32 0, i32 0
  %46 = load i8*, i8** %45, align 8, !noalias !69
  %47 = getelementptr inbounds %"class.blink::mojom::PresentationInfo", %"class.blink::mojom::PresentationInfo"* %1, i64 0, i32 1, i32 0, i32 0, i32 0, i32 0, i32 0, i32 1
  %48 = load i64, i64* %47, align 8, !noalias !69
  call void @_ZNSt3__112basic_stringIcNS_11char_traitsIcEENS_9allocatorIcEEE25__init_copy_ctor_externalEPKcm(%"class.std::__1::basic_string"* %44, i8* %46, i64 %48) #15, !noalias !69
  br label %49

49:                                               ; preds = %41, %43
  %50 = bitcast %"class.base::RepeatingCallback.314"* %4 to i8**
  store i8* %21, i8** %50, align 8, !alias.scope !69
  %51 = bitcast %"class.content::ControllerPresentationServiceDelegate"* %7 to void (%"class.content::ControllerPresentationServiceDelegate"*, i32, i32, %"class.blink::mojom::PresentationInfo"*, %"class.base::RepeatingCallback.314"*)***
  %52 = load void (%"class.content::ControllerPresentationServiceDelegate"*, i32, i32, %"class.blink::mojom::PresentationInfo"*, %"class.base::RepeatingCallback.314"*)**, void (%"class.content::ControllerPresentationServiceDelegate"*, i32, i32, %"class.blink::mojom::PresentationInfo"*, %"class.base::RepeatingCallback.314"*)*** %51, align 8
  %53 = getelementptr inbounds void (%"class.content::ControllerPresentationServiceDelegate"*, i32, i32, %"class.blink::mojom::PresentationInfo"*, %"class.base::RepeatingCallback.314"*)*, void (%"class.content::ControllerPresentationServiceDelegate"*, i32, i32, %"class.blink::mojom::PresentationInfo"*, %"class.base::RepeatingCallback.314"*)** %52, i64 13
  %54 = load void (%"class.content::ControllerPresentationServiceDelegate"*, i32, i32, %"class.blink::mojom::PresentationInfo"*, %"class.base::RepeatingCallback.314"*)*, void (%"class.content::ControllerPresentationServiceDelegate"*, i32, i32, %"class.blink::mojom::PresentationInfo"*, %"class.base::RepeatingCallback.314"*)** %53, align 8
  call void %54(%"class.content::ControllerPresentationServiceDelegate"* nonnull %7, i32 %11, i32 %13, %"class.blink::mojom::PresentationInfo"* dereferenceable(144) %1, %"class.base::RepeatingCallback.314"* nonnull dereferenceable(8) %4) #15
  %55 = getelementptr inbounds %"class.base::RepeatingCallback.314", %"class.base::RepeatingCallback.314"* %4, i64 0, i32 0, i32 0
  call void @_ZN4base8internal12CallbackBaseD2Ev(%"class.base::internal::CallbackBase"* nonnull %55) #15
  call void @_ZN4base8internal11WeakPtrBaseD2Ev(%"class.base::internal::WeakPtrBase"* nonnull %20) #15
  call void @llvm.lifetime.end.p0i8(i64 16, i8* nonnull %15) #15
  call void @llvm.lifetime.end.p0i8(i64 8, i8* nonnull %14) #15
  br label %56

56:                                               ; preds = %2, %49
  ret void
}

; Function Attrs: nounwind ssp uwtable
define hidden void @_ZN7content23PresentationServiceImpl24OnConnectionStateChangedERKN5blink5mojom16PresentationInfoERKNS_37PresentationConnectionStateChangeInfoE(%"class.content::PresentationServiceImpl"*, %"class.blink::mojom::PresentationInfo"* dereferenceable(144), %"struct.content::PresentationConnectionStateChangeInfo"* dereferenceable(32)) #0 align 2 {
  %4 = alloca %"class.mojo::StructPtr", align 8
  %5 = alloca %"class.mojo::StructPtr", align 8
  %6 = getelementptr inbounds %"class.content::PresentationServiceImpl", %"class.content::PresentationServiceImpl"* %0, i64 0, i32 6, i32 0, i32 0, i32 2, i32 0, i32 0, i32 0
  %7 = load i32, i32* %6, align 4
  %8 = icmp eq i32 %7, 0
  br i1 %8, label %9, label %13

9:                                                ; preds = %3
  %10 = getelementptr inbounds %"class.content::PresentationServiceImpl", %"class.content::PresentationServiceImpl"* %0, i64 0, i32 6, i32 0, i32 0, i32 1, i32 0, i32 0, i32 0
  %11 = load %"class.mojo::InterfaceEndpointClient"*, %"class.mojo::InterfaceEndpointClient"** %10, align 8
  %12 = icmp eq %"class.mojo::InterfaceEndpointClient"* %11, null
  br i1 %12, label %67, label %13

13:                                               ; preds = %9, %3
  %14 = getelementptr inbounds %"struct.content::PresentationConnectionStateChangeInfo", %"struct.content::PresentationConnectionStateChangeInfo"* %2, i64 0, i32 0
  %15 = load i32, i32* %14, align 8
  %16 = icmp eq i32 %15, 2
  %17 = getelementptr inbounds %"class.content::PresentationServiceImpl", %"class.content::PresentationServiceImpl"* %0, i64 0, i32 6, i32 0
  tail call void @_ZN4mojo8internal17InterfacePtrStateIN5blink5mojom22PresentationControllerEE25ConfigureProxyIfNecessaryEv(%"class.mojo::internal::InterfacePtrState"* %17) #15
  %18 = getelementptr inbounds %"class.content::PresentationServiceImpl", %"class.content::PresentationServiceImpl"* %0, i64 0, i32 6, i32 0, i32 1, i32 0, i32 0, i32 0
  %19 = load %"class.blink::mojom::PresentationControllerProxy"*, %"class.blink::mojom::PresentationControllerProxy"** %18, align 8
  %20 = tail call i8* @_Znwm(i64 144) #16
  %21 = bitcast i8* %20 to %class.GURL*
  %22 = getelementptr inbounds %"class.blink::mojom::PresentationInfo", %"class.blink::mojom::PresentationInfo"* %1, i64 0, i32 0
  tail call void @_ZN4GURLC1ERKS_(%class.GURL* nonnull %21, %class.GURL* dereferenceable(120) %22) #15
  %23 = getelementptr inbounds i8, i8* %20, i64 120
  %24 = getelementptr inbounds %"class.blink::mojom::PresentationInfo", %"class.blink::mojom::PresentationInfo"* %1, i64 0, i32 1
  %25 = bitcast %"class.std::__1::basic_string"* %24 to %"struct.std::__1::basic_string<char, std::__1::char_traits<char>, std::__1::allocator<char> >::__short"*
  %26 = getelementptr inbounds %"struct.std::__1::basic_string<char, std::__1::char_traits<char>, std::__1::allocator<char> >::__short", %"struct.std::__1::basic_string<char, std::__1::char_traits<char>, std::__1::allocator<char> >::__short"* %25, i64 0, i32 1, i32 0
  %27 = load i8, i8* %26, align 1
  %28 = icmp slt i8 %27, 0
  br i1 %16, label %29, label %49

29:                                               ; preds = %13
  br i1 %28, label %32, label %30

30:                                               ; preds = %29
  %31 = bitcast %"class.std::__1::basic_string"* %24 to i8*
  tail call void @llvm.memcpy.p0i8.p0i8.i64(i8* align 8 %23, i8* align 8 %31, i64 24, i1 false) #15, !noalias !72
  br label %38

32:                                               ; preds = %29
  %33 = bitcast i8* %23 to %"class.std::__1::basic_string"*
  %34 = getelementptr inbounds %"class.std::__1::basic_string", %"class.std::__1::basic_string"* %24, i64 0, i32 0, i32 0, i32 0, i32 0, i32 0, i32 0
  %35 = load i8*, i8** %34, align 8, !noalias !72
  %36 = getelementptr inbounds %"class.blink::mojom::PresentationInfo", %"class.blink::mojom::PresentationInfo"* %1, i64 0, i32 1, i32 0, i32 0, i32 0, i32 0, i32 0, i32 1
  %37 = load i64, i64* %36, align 8, !noalias !72
  tail call void @_ZNSt3__112basic_stringIcNS_11char_traitsIcEENS_9allocatorIcEEE25__init_copy_ctor_externalEPKcm(%"class.std::__1::basic_string"* %33, i8* %35, i64 %37) #15, !noalias !72
  br label %38

38:                                               ; preds = %30, %32
  %39 = ptrtoint i8* %20 to i64
  %40 = bitcast %"class.mojo::StructPtr"* %4 to i64*
  store i64 %39, i64* %40, align 8, !alias.scope !72
  %41 = getelementptr inbounds %"struct.content::PresentationConnectionStateChangeInfo", %"struct.content::PresentationConnectionStateChangeInfo"* %2, i64 0, i32 1
  %42 = load i32, i32* %41, align 4
  %43 = getelementptr inbounds %"struct.content::PresentationConnectionStateChangeInfo", %"struct.content::PresentationConnectionStateChangeInfo"* %2, i64 0, i32 2
  call void @_ZN5blink5mojom27PresentationControllerProxy18OnConnectionClosedEN4mojo9StructPtrINS0_16PresentationInfoEEENS0_33PresentationConnectionCloseReasonERKNSt3__112basic_stringIcNS7_11char_traitsIcEENS7_9allocatorIcEEEE(%"class.blink::mojom::PresentationControllerProxy"* %19, %"class.mojo::StructPtr"* nonnull %4, i32 %42, %"class.std::__1::basic_string"* dereferenceable(24) %43) #15
  %44 = getelementptr inbounds %"class.mojo::StructPtr", %"class.mojo::StructPtr"* %4, i64 0, i32 0, i32 0, i32 0, i32 0
  %45 = load %"class.blink::mojom::PresentationInfo"*, %"class.blink::mojom::PresentationInfo"** %44, align 8
  store %"class.blink::mojom::PresentationInfo"* null, %"class.blink::mojom::PresentationInfo"** %44, align 8
  %46 = icmp eq %"class.blink::mojom::PresentationInfo"* %45, null
  br i1 %46, label %67, label %47

47:                                               ; preds = %38
  call void @_ZN5blink5mojom16PresentationInfoD1Ev(%"class.blink::mojom::PresentationInfo"* nonnull %45) #15
  %48 = bitcast %"class.blink::mojom::PresentationInfo"* %45 to i8*
  call void @_ZdlPv(i8* %48) #16
  br label %67

49:                                               ; preds = %13
  br i1 %28, label %52, label %50

50:                                               ; preds = %49
  %51 = bitcast %"class.std::__1::basic_string"* %24 to i8*
  tail call void @llvm.memcpy.p0i8.p0i8.i64(i8* align 8 %23, i8* align 8 %51, i64 24, i1 false) #15, !noalias !75
  br label %58

52:                                               ; preds = %49
  %53 = bitcast i8* %23 to %"class.std::__1::basic_string"*
  %54 = getelementptr inbounds %"class.std::__1::basic_string", %"class.std::__1::basic_string"* %24, i64 0, i32 0, i32 0, i32 0, i32 0, i32 0, i32 0
  %55 = load i8*, i8** %54, align 8, !noalias !75
  %56 = getelementptr inbounds %"class.blink::mojom::PresentationInfo", %"class.blink::mojom::PresentationInfo"* %1, i64 0, i32 1, i32 0, i32 0, i32 0, i32 0, i32 0, i32 1
  %57 = load i64, i64* %56, align 8, !noalias !75
  tail call void @_ZNSt3__112basic_stringIcNS_11char_traitsIcEENS_9allocatorIcEEE25__init_copy_ctor_externalEPKcm(%"class.std::__1::basic_string"* %53, i8* %55, i64 %57) #15, !noalias !75
  br label %58

58:                                               ; preds = %50, %52
  %59 = ptrtoint i8* %20 to i64
  %60 = bitcast %"class.mojo::StructPtr"* %5 to i64*
  store i64 %59, i64* %60, align 8, !alias.scope !75
  %61 = load i32, i32* %14, align 8
  call void @_ZN5blink5mojom27PresentationControllerProxy24OnConnectionStateChangedEN4mojo9StructPtrINS0_16PresentationInfoEEENS0_27PresentationConnectionStateE(%"class.blink::mojom::PresentationControllerProxy"* %19, %"class.mojo::StructPtr"* nonnull %5, i32 %61) #15
  %62 = getelementptr inbounds %"class.mojo::StructPtr", %"class.mojo::StructPtr"* %5, i64 0, i32 0, i32 0, i32 0, i32 0
  %63 = load %"class.blink::mojom::PresentationInfo"*, %"class.blink::mojom::PresentationInfo"** %62, align 8
  store %"class.blink::mojom::PresentationInfo"* null, %"class.blink::mojom::PresentationInfo"** %62, align 8
  %64 = icmp eq %"class.blink::mojom::PresentationInfo"* %63, null
  br i1 %64, label %67, label %65

65:                                               ; preds = %58
  call void @_ZN5blink5mojom16PresentationInfoD1Ev(%"class.blink::mojom::PresentationInfo"* nonnull %63) #15
  %66 = bitcast %"class.blink::mojom::PresentationInfo"* %63 to i8*
  call void @_ZdlPv(i8* %66) #16
  br label %67

67:                                               ; preds = %9, %65, %58, %47, %38
  ret void
}

; Function Attrs: nounwind
declare void @_ZN4base8internal12CallbackBaseD2Ev(%"class.base::internal::CallbackBase"*) unnamed_addr #3

; Function Attrs: nounwind ssp uwtable
define hidden void @_ZN7content23PresentationServiceImpl30NewPresentationCallbackWrapper3RunEN4mojo9StructPtrIN5blink5mojom28PresentationConnectionResultEEENS2_16InlinedStructPtrINS5_17PresentationErrorEEE(%"class.content::PresentationServiceImpl::NewPresentationCallbackWrapper"* nocapture, %"class.mojo::StructPtr.300"* nocapture, %"class.mojo::InlinedStructPtr"*) local_unnamed_addr #0 align 2 {
  %4 = alloca %"class.base::OnceCallback.218", align 8
  %5 = alloca %"class.mojo::StructPtr.300", align 8
  %6 = alloca %"class.mojo::InlinedStructPtr", align 8
  %7 = bitcast %"class.mojo::StructPtr.300"* %5 to i64*
  %8 = getelementptr inbounds %"class.mojo::StructPtr.300", %"class.mojo::StructPtr.300"* %5, i64 0, i32 0, i32 0, i32 0, i32 0
  %9 = bitcast %"class.mojo::StructPtr.300"* %1 to i64*
  %10 = load i64, i64* %9, align 8
  store i64 %10, i64* %7, align 8
  store i64 0, i64* %9, align 8
  %11 = getelementptr inbounds %"class.mojo::InlinedStructPtr", %"class.mojo::InlinedStructPtr"* %6, i64 0, i32 0
  call void @_ZN5blink5mojom17PresentationErrorC1Ev(%"class.blink::mojom::PresentationError"* nonnull %11) #15
  %12 = getelementptr inbounds %"class.mojo::InlinedStructPtr", %"class.mojo::InlinedStructPtr"* %6, i64 0, i32 1
  store i32 0, i32* %12, align 8
  call void @_ZN5blink5mojom17PresentationErrorD1Ev(%"class.blink::mojom::PresentationError"* nonnull %11) #15
  call void @_ZN5blink5mojom17PresentationErrorC1Ev(%"class.blink::mojom::PresentationError"* nonnull %11) #15
  %13 = getelementptr inbounds %"class.mojo::InlinedStructPtr", %"class.mojo::InlinedStructPtr"* %2, i64 0, i32 0
  call void @_ZNSt3__14swapIN5blink5mojom17PresentationErrorEEENS_9enable_ifIXaasr21is_move_constructibleIT_EE5valuesr18is_move_assignableIS5_EE5valueEvE4typeERS5_S8_(%"class.blink::mojom::PresentationError"* nonnull dereferenceable(32) %11, %"class.blink::mojom::PresentationError"* dereferenceable(32) %13) #15
  %14 = getelementptr inbounds %"class.mojo::InlinedStructPtr", %"class.mojo::InlinedStructPtr"* %2, i64 0, i32 1
  %15 = load i32, i32* %12, align 8
  %16 = load i32, i32* %14, align 4
  store i32 %16, i32* %12, align 8
  store i32 %15, i32* %14, align 4
  %17 = bitcast %"class.base::OnceCallback.218"* %4 to i8*
  call void @llvm.lifetime.start.p0i8(i64 8, i8* nonnull %17) #15
  %18 = getelementptr inbounds %"class.content::PresentationServiceImpl::NewPresentationCallbackWrapper", %"class.content::PresentationServiceImpl::NewPresentationCallbackWrapper"* %0, i64 0, i32 0, i32 0, i32 0, i32 0
  %19 = bitcast %"class.content::PresentationServiceImpl::NewPresentationCallbackWrapper"* %0 to i64*
  %20 = load i64, i64* %19, align 8
  %21 = bitcast %"class.base::OnceCallback.218"* %4 to i64*
  store i64 %20, i64* %21, align 8
  store %"class.base::internal::BindStateBase"* null, %"class.base::internal::BindStateBase"** %18, align 8
  %22 = getelementptr inbounds %"class.base::OnceCallback.218", %"class.base::OnceCallback.218"* %4, i64 0, i32 0
  %23 = inttoptr i64 %20 to %"class.base::internal::BindStateBase"*
  %24 = getelementptr inbounds %"class.base::internal::BindStateBase", %"class.base::internal::BindStateBase"* %23, i64 0, i32 1
  %25 = bitcast void ()** %24 to void (%"class.base::internal::BindStateBase"*, %"class.mojo::StructPtr.300"*, %"class.mojo::InlinedStructPtr"*)**
  %26 = load void (%"class.base::internal::BindStateBase"*, %"class.mojo::StructPtr.300"*, %"class.mojo::InlinedStructPtr"*)*, void (%"class.base::internal::BindStateBase"*, %"class.mojo::StructPtr.300"*, %"class.mojo::InlinedStructPtr"*)** %25, align 8
  call void %26(%"class.base::internal::BindStateBase"* %23, %"class.mojo::StructPtr.300"* nonnull dereferenceable(8) %5, %"class.mojo::InlinedStructPtr"* nonnull dereferenceable(40) %6) #15
  call void @_ZN4base8internal12CallbackBaseD2Ev(%"class.base::internal::CallbackBase"* nonnull %22) #15
  call void @llvm.lifetime.end.p0i8(i64 8, i8* nonnull %17) #15
  call void @_ZN5blink5mojom17PresentationErrorD1Ev(%"class.blink::mojom::PresentationError"* nonnull %11) #15
  %27 = load %"class.blink::mojom::PresentationConnectionResult"*, %"class.blink::mojom::PresentationConnectionResult"** %8, align 8
  store %"class.blink::mojom::PresentationConnectionResult"* null, %"class.blink::mojom::PresentationConnectionResult"** %8, align 8
  %28 = icmp eq %"class.blink::mojom::PresentationConnectionResult"* %27, null
  br i1 %28, label %31, label %29

29:                                               ; preds = %3
  call void @_ZN5blink5mojom28PresentationConnectionResultD1Ev(%"class.blink::mojom::PresentationConnectionResult"* nonnull %27) #15
  %30 = bitcast %"class.blink::mojom::PresentationConnectionResult"* %27 to i8*
  call void @_ZdlPv(i8* %30) #16
  br label %31

31:                                               ; preds = %3, %29
  ret void
}

; Function Attrs: nounwind
declare void @_ZN5blink5mojom16PresentationInfoD1Ev(%"class.blink::mojom::PresentationInfo"*) unnamed_addr #3

; Function Attrs: nounwind ssp uwtable
define hidden zeroext i1 @_ZN7content23PresentationServiceImpl44RunAndEraseReconnectPresentationMojoCallbackEiN4mojo9StructPtrIN5blink5mojom28PresentationConnectionResultEEENS1_16InlinedStructPtrINS4_17PresentationErrorEEE(%"class.content::PresentationServiceImpl"*, i32, %"class.mojo::StructPtr.300"* nocapture, %"class.mojo::InlinedStructPtr"*) local_unnamed_addr #0 align 2 {
  %5 = alloca %"class.std::__1::unique_ptr.434", align 8
  %6 = alloca %"class.mojo::StructPtr.300", align 8
  %7 = alloca %"class.mojo::InlinedStructPtr", align 8
  %8 = getelementptr inbounds %"class.content::PresentationServiceImpl", %"class.content::PresentationServiceImpl"* %0, i64 0, i32 12
  %9 = sext i32 %1 to i64
  %10 = getelementptr inbounds %"class.content::PresentationServiceImpl", %"class.content::PresentationServiceImpl"* %0, i64 0, i32 12, i32 0, i32 0, i32 0, i32 1, i32 0, i32 0, i32 0, i32 0
  %11 = load i64, i64* %10, align 8
  %12 = icmp eq i64 %11, 0
  br i1 %12, label %98, label %13

13:                                               ; preds = %4
  %14 = tail call i64 @llvm.ctpop.i64(i64 %11) #15, !range !78
  %15 = icmp ugt i64 %14, 1
  br i1 %15, label %19, label %16

16:                                               ; preds = %13
  %17 = add i64 %11, -1
  %18 = and i64 %17, %9
  br label %23

19:                                               ; preds = %13
  %20 = icmp ugt i64 %11, %9
  br i1 %20, label %23, label %21

21:                                               ; preds = %19
  %22 = urem i64 %9, %11
  br label %23

23:                                               ; preds = %21, %19, %16
  %24 = phi i64 [ %18, %16 ], [ %22, %21 ], [ %9, %19 ]
  %25 = getelementptr inbounds %"class.std::__1::unordered_map", %"class.std::__1::unordered_map"* %8, i64 0, i32 0, i32 0, i32 0, i32 0, i32 0
  %26 = load %"struct.std::__1::__hash_node_base"**, %"struct.std::__1::__hash_node_base"*** %25, align 8
  %27 = getelementptr inbounds %"struct.std::__1::__hash_node_base"*, %"struct.std::__1::__hash_node_base"** %26, i64 %24
  %28 = load %"struct.std::__1::__hash_node_base"*, %"struct.std::__1::__hash_node_base"** %27, align 8
  %29 = icmp eq %"struct.std::__1::__hash_node_base"* %28, null
  br i1 %29, label %98, label %30

30:                                               ; preds = %23
  %31 = getelementptr inbounds %"struct.std::__1::__hash_node_base", %"struct.std::__1::__hash_node_base"* %28, i64 0, i32 0
  %32 = load %"struct.std::__1::__hash_node_base"*, %"struct.std::__1::__hash_node_base"** %31, align 8
  %33 = icmp eq %"struct.std::__1::__hash_node_base"* %32, null
  br i1 %33, label %98, label %34

34:                                               ; preds = %30
  %35 = add i64 %11, -1
  br label %36

36:                                               ; preds = %57, %34
  %37 = phi %"struct.std::__1::__hash_node_base"* [ %32, %34 ], [ %59, %57 ]
  %38 = getelementptr inbounds %"struct.std::__1::__hash_node_base", %"struct.std::__1::__hash_node_base"* %37, i64 1
  %39 = bitcast %"struct.std::__1::__hash_node_base"* %38 to i64*
  %40 = load i64, i64* %39, align 8
  %41 = icmp eq i64 %40, %9
  br i1 %41, label %52, label %42

42:                                               ; preds = %36
  br i1 %15, label %45, label %43

43:                                               ; preds = %42
  %44 = and i64 %40, %35
  br label %49

45:                                               ; preds = %42
  %46 = icmp ult i64 %40, %11
  br i1 %46, label %49, label %47

47:                                               ; preds = %45
  %48 = urem i64 %40, %11
  br label %49

49:                                               ; preds = %47, %45, %43
  %50 = phi i64 [ %44, %43 ], [ %48, %47 ], [ %40, %45 ]
  %51 = icmp eq i64 %50, %24
  br i1 %51, label %57, label %98

52:                                               ; preds = %36
  %53 = getelementptr inbounds %"struct.std::__1::__hash_node_base", %"struct.std::__1::__hash_node_base"* %37, i64 2
  %54 = bitcast %"struct.std::__1::__hash_node_base"* %53 to i32*
  %55 = load i32, i32* %54, align 4
  %56 = icmp eq i32 %55, %1
  br i1 %56, label %61, label %57

57:                                               ; preds = %52, %49
  %58 = getelementptr inbounds %"struct.std::__1::__hash_node_base", %"struct.std::__1::__hash_node_base"* %37, i64 0, i32 0
  %59 = load %"struct.std::__1::__hash_node_base"*, %"struct.std::__1::__hash_node_base"** %58, align 8
  %60 = icmp eq %"struct.std::__1::__hash_node_base"* %59, null
  br i1 %60, label %98, label %36

61:                                               ; preds = %52
  %62 = getelementptr inbounds %"struct.std::__1::__hash_node_base", %"struct.std::__1::__hash_node_base"* %37, i64 3
  %63 = bitcast %"struct.std::__1::__hash_node_base"* %62 to %"class.content::PresentationServiceImpl::NewPresentationCallbackWrapper"**
  %64 = load %"class.content::PresentationServiceImpl::NewPresentationCallbackWrapper"*, %"class.content::PresentationServiceImpl::NewPresentationCallbackWrapper"** %63, align 8
  %65 = bitcast %"class.mojo::StructPtr.300"* %6 to i64*
  %66 = getelementptr inbounds %"class.mojo::StructPtr.300", %"class.mojo::StructPtr.300"* %6, i64 0, i32 0, i32 0, i32 0, i32 0
  %67 = bitcast %"class.mojo::StructPtr.300"* %2 to i64*
  %68 = load i64, i64* %67, align 8
  store i64 %68, i64* %65, align 8
  store i64 0, i64* %67, align 8
  %69 = getelementptr inbounds %"class.mojo::InlinedStructPtr", %"class.mojo::InlinedStructPtr"* %7, i64 0, i32 0
  call void @_ZN5blink5mojom17PresentationErrorC1Ev(%"class.blink::mojom::PresentationError"* nonnull %69) #15
  %70 = getelementptr inbounds %"class.mojo::InlinedStructPtr", %"class.mojo::InlinedStructPtr"* %7, i64 0, i32 1
  store i32 0, i32* %70, align 8
  call void @_ZN5blink5mojom17PresentationErrorD1Ev(%"class.blink::mojom::PresentationError"* nonnull %69) #15
  call void @_ZN5blink5mojom17PresentationErrorC1Ev(%"class.blink::mojom::PresentationError"* nonnull %69) #15
  %71 = getelementptr inbounds %"class.mojo::InlinedStructPtr", %"class.mojo::InlinedStructPtr"* %3, i64 0, i32 0
  call void @_ZNSt3__14swapIN5blink5mojom17PresentationErrorEEENS_9enable_ifIXaasr21is_move_constructibleIT_EE5valuesr18is_move_assignableIS5_EE5valueEvE4typeERS5_S8_(%"class.blink::mojom::PresentationError"* nonnull dereferenceable(32) %69, %"class.blink::mojom::PresentationError"* dereferenceable(32) %71) #15
  %72 = getelementptr inbounds %"class.mojo::InlinedStructPtr", %"class.mojo::InlinedStructPtr"* %3, i64 0, i32 1
  %73 = load i32, i32* %70, align 8
  %74 = load i32, i32* %72, align 4
  store i32 %74, i32* %70, align 8
  store i32 %73, i32* %72, align 4
  call void @_ZN7content23PresentationServiceImpl30NewPresentationCallbackWrapper3RunEN4mojo9StructPtrIN5blink5mojom28PresentationConnectionResultEEENS2_16InlinedStructPtrINS5_17PresentationErrorEEE(%"class.content::PresentationServiceImpl::NewPresentationCallbackWrapper"* %64, %"class.mojo::StructPtr.300"* nonnull %6, %"class.mojo::InlinedStructPtr"* nonnull %7)
  call void @_ZN5blink5mojom17PresentationErrorD1Ev(%"class.blink::mojom::PresentationError"* nonnull %69) #15
  %75 = load %"class.blink::mojom::PresentationConnectionResult"*, %"class.blink::mojom::PresentationConnectionResult"** %66, align 8
  store %"class.blink::mojom::PresentationConnectionResult"* null, %"class.blink::mojom::PresentationConnectionResult"** %66, align 8
  %76 = icmp eq %"class.blink::mojom::PresentationConnectionResult"* %75, null
  br i1 %76, label %79, label %77

77:                                               ; preds = %61
  call void @_ZN5blink5mojom28PresentationConnectionResultD1Ev(%"class.blink::mojom::PresentationConnectionResult"* nonnull %75) #15
  %78 = bitcast %"class.blink::mojom::PresentationConnectionResult"* %75 to i8*
  call void @_ZdlPv(i8* %78) #16
  br label %79

79:                                               ; preds = %61, %77
  %80 = getelementptr inbounds %"class.std::__1::unordered_map", %"class.std::__1::unordered_map"* %8, i64 0, i32 0
  %81 = bitcast %"class.std::__1::unique_ptr.434"* %5 to i8*
  call void @llvm.lifetime.start.p0i8(i64 24, i8* nonnull %81) #15
  call void @_ZNSt3__112__hash_tableINS_17__hash_value_typeIiNS_10unique_ptrIN7content23PresentationServiceImpl30NewPresentationCallbackWrapperENS_14default_deleteIS5_EEEEEENS_22__unordered_map_hasherIiS9_NS_4hashIiEENS_8equal_toIiEELb1EEENS_21__unordered_map_equalIiS9_SE_SC_Lb1EEENS_9allocatorIS9_EEE6removeENS_21__hash_const_iteratorIPNS_11__hash_nodeIS9_PvEEEE(%"class.std::__1::unique_ptr.434"* nonnull sret %5, %"class.std::__1::__hash_table"* %80, %"struct.std::__1::__hash_node_base"* nonnull %37) #15
  %82 = getelementptr inbounds %"class.std::__1::unique_ptr.434", %"class.std::__1::unique_ptr.434"* %5, i64 0, i32 0, i32 0, i32 0
  %83 = load %"struct.std::__1::__hash_node"*, %"struct.std::__1::__hash_node"** %82, align 8
  store %"struct.std::__1::__hash_node"* null, %"struct.std::__1::__hash_node"** %82, align 8
  %84 = icmp eq %"struct.std::__1::__hash_node"* %83, null
  br i1 %84, label %97, label %85

85:                                               ; preds = %79
  %86 = getelementptr inbounds %"class.std::__1::unique_ptr.434", %"class.std::__1::unique_ptr.434"* %5, i64 0, i32 0, i32 1, i32 0, i32 1
  %87 = load i8, i8* %86, align 8, !range !2
  %88 = icmp eq i8 %87, 0
  br i1 %88, label %95, label %89

89:                                               ; preds = %85
  %90 = getelementptr inbounds %"struct.std::__1::__hash_node", %"struct.std::__1::__hash_node"* %83, i64 0, i32 2, i32 0, i32 1, i32 0, i32 0, i32 0
  %91 = load %"class.content::PresentationServiceImpl::NewPresentationCallbackWrapper"*, %"class.content::PresentationServiceImpl::NewPresentationCallbackWrapper"** %90, align 8
  store %"class.content::PresentationServiceImpl::NewPresentationCallbackWrapper"* null, %"class.content::PresentationServiceImpl::NewPresentationCallbackWrapper"** %90, align 8
  %92 = icmp eq %"class.content::PresentationServiceImpl::NewPresentationCallbackWrapper"* %91, null
  br i1 %92, label %95, label %93

93:                                               ; preds = %89
  call void @_ZN7content23PresentationServiceImpl30NewPresentationCallbackWrapperD2Ev(%"class.content::PresentationServiceImpl::NewPresentationCallbackWrapper"* nonnull %91) #15
  %94 = bitcast %"class.content::PresentationServiceImpl::NewPresentationCallbackWrapper"* %91 to i8*
  call void @_ZdlPv(i8* %94) #16
  br label %95

95:                                               ; preds = %93, %89, %85
  %96 = bitcast %"struct.std::__1::__hash_node"* %83 to i8*
  call void @_ZdlPv(i8* %96) #16
  br label %97

97:                                               ; preds = %79, %95
  call void @llvm.lifetime.end.p0i8(i64 24, i8* nonnull %81) #15
  br label %98

98:                                               ; preds = %57, %49, %30, %4, %23, %97
  %99 = phi i1 [ true, %97 ], [ false, %23 ], [ false, %4 ], [ false, %30 ], [ false, %49 ], [ false, %57 ]
  ret i1 %99
}

; Function Attrs: nounwind ssp uwtable
define hidden void @_ZN7content23PresentationServiceImpl26SetDefaultPresentationUrlsERKNSt3__16vectorI4GURLNS1_9allocatorIS3_EEEE(%"class.content::PresentationServiceImpl"*, %"class.std::__1::vector"* dereferenceable(24)) unnamed_addr #0 align 2 {
  %3 = alloca %"class.base::internal::WeakReference", align 8
  %4 = alloca %"struct.content::PresentationRequest", align 8
  %5 = alloca %"struct.content::GlobalFrameRoutingId", align 4
  %6 = alloca %"class.base::RepeatingCallback.316", align 8
  %7 = alloca %"class.base::WeakPtr.284", align 8
  %8 = getelementptr inbounds %"class.content::PresentationServiceImpl", %"class.content::PresentationServiceImpl"* %0, i64 0, i32 4
  %9 = load %"class.content::ControllerPresentationServiceDelegate"*, %"class.content::ControllerPresentationServiceDelegate"** %8, align 8
  %10 = icmp eq %"class.content::ControllerPresentationServiceDelegate"* %9, null
  br i1 %10, label %90, label %11

11:                                               ; preds = %2
  %12 = getelementptr inbounds %"class.content::PresentationServiceImpl", %"class.content::PresentationServiceImpl"* %0, i64 0, i32 16
  %13 = load i8, i8* %12, align 8, !range !2
  %14 = icmp eq i8 %13, 0
  br i1 %14, label %90, label %15

15:                                               ; preds = %11
  %16 = getelementptr inbounds %"class.content::PresentationServiceImpl", %"class.content::PresentationServiceImpl"* %0, i64 0, i32 8
  %17 = getelementptr inbounds %"class.content::PresentationServiceImpl", %"class.content::PresentationServiceImpl"* %0, i64 0, i32 8, i32 0, i32 1
  %18 = bitcast %class.GURL** %17 to i64*
  %19 = load i64, i64* %18, align 8
  %20 = bitcast %"class.std::__1::vector"* %16 to i64*
  %21 = load i64, i64* %20, align 8
  %22 = sub i64 %19, %21
  %23 = getelementptr inbounds %"class.std::__1::vector", %"class.std::__1::vector"* %1, i64 0, i32 0, i32 1
  %24 = bitcast %class.GURL** %23 to i64*
  %25 = load i64, i64* %24, align 8
  %26 = bitcast %"class.std::__1::vector"* %1 to i64*
  %27 = load i64, i64* %26, align 8
  %28 = sub i64 %25, %27
  %29 = icmp eq i64 %22, %28
  %30 = inttoptr i64 %21 to %class.GURL*
  %31 = inttoptr i64 %19 to %class.GURL*
  br i1 %29, label %32, label %44

32:                                               ; preds = %15
  %33 = icmp eq %class.GURL* %30, %31
  br i1 %33, label %90, label %34

34:                                               ; preds = %32
  %35 = inttoptr i64 %27 to %class.GURL*
  br label %36

36:                                               ; preds = %34, %40
  %37 = phi %class.GURL* [ %42, %40 ], [ %35, %34 ]
  %38 = phi %class.GURL* [ %41, %40 ], [ %30, %34 ]
  %39 = tail call zeroext i1 @_ZeqRK4GURLS1_(%class.GURL* dereferenceable(120) %38, %class.GURL* dereferenceable(120) %37) #15
  br i1 %39, label %40, label %44

40:                                               ; preds = %36
  %41 = getelementptr inbounds %class.GURL, %class.GURL* %38, i64 1
  %42 = getelementptr inbounds %class.GURL, %class.GURL* %37, i64 1
  %43 = icmp eq %class.GURL* %41, %31
  br i1 %43, label %90, label %36

44:                                               ; preds = %36, %15
  %45 = icmp eq %"class.std::__1::vector"* %16, %1
  br i1 %45, label %50, label %46

46:                                               ; preds = %44
  %47 = getelementptr inbounds %"class.std::__1::vector", %"class.std::__1::vector"* %1, i64 0, i32 0, i32 0
  %48 = load %class.GURL*, %class.GURL** %47, align 8
  %49 = load %class.GURL*, %class.GURL** %23, align 8
  tail call void @_ZNSt3__16vectorI4GURLNS_9allocatorIS1_EEE6assignIPS1_EENS_9enable_ifIXaasr27__is_cpp17_forward_iteratorIT_EE5valuesr16is_constructibleIS1_NS_15iterator_traitsIS8_E9referenceEEE5valueEvE4typeES8_S8_(%"class.std::__1::vector"* %16, %class.GURL* %48, %class.GURL* %49) #15
  br label %50

50:                                               ; preds = %44, %46
  %51 = bitcast %"struct.content::PresentationRequest"* %4 to i8*
  call void @llvm.lifetime.start.p0i8(i64 112, i8* nonnull %51) #15
  call void @llvm.memset.p0i8.i64(i8* nonnull align 8 %51, i8 -86, i64 112, i1 false)
  %52 = bitcast %"struct.content::GlobalFrameRoutingId"* %5 to i8*
  call void @llvm.lifetime.start.p0i8(i64 8, i8* nonnull %52) #15
  %53 = getelementptr inbounds %"class.content::PresentationServiceImpl", %"class.content::PresentationServiceImpl"* %0, i64 0, i32 14
  %54 = load i32, i32* %53, align 8
  %55 = getelementptr inbounds %"class.content::PresentationServiceImpl", %"class.content::PresentationServiceImpl"* %0, i64 0, i32 15
  %56 = load i32, i32* %55, align 4
  %57 = getelementptr inbounds %"struct.content::GlobalFrameRoutingId", %"struct.content::GlobalFrameRoutingId"* %5, i64 0, i32 0
  store i32 %54, i32* %57, align 4
  %58 = getelementptr inbounds %"struct.content::GlobalFrameRoutingId", %"struct.content::GlobalFrameRoutingId"* %5, i64 0, i32 1
  store i32 %56, i32* %58, align 4
  %59 = getelementptr inbounds %"class.content::PresentationServiceImpl", %"class.content::PresentationServiceImpl"* %0, i64 0, i32 3
  %60 = load %"class.content::RenderFrameHost"*, %"class.content::RenderFrameHost"** %59, align 8
  %61 = bitcast %"class.content::RenderFrameHost"* %60 to %"class.url::Origin"* (%"class.content::RenderFrameHost"*)***
  %62 = load %"class.url::Origin"* (%"class.content::RenderFrameHost"*)**, %"class.url::Origin"* (%"class.content::RenderFrameHost"*)*** %61, align 8
  %63 = getelementptr inbounds %"class.url::Origin"* (%"class.content::RenderFrameHost"*)*, %"class.url::Origin"* (%"class.content::RenderFrameHost"*)** %62, i64 36
  %64 = load %"class.url::Origin"* (%"class.content::RenderFrameHost"*)*, %"class.url::Origin"* (%"class.content::RenderFrameHost"*)** %63, align 8
  %65 = tail call dereferenceable(80) %"class.url::Origin"* %64(%"class.content::RenderFrameHost"* %60) #15
  call void @_ZN7content19PresentationRequestC1ERKNS_20GlobalFrameRoutingIdERKNSt3__16vectorI4GURLNS4_9allocatorIS6_EEEERKN3url6OriginE(%"struct.content::PresentationRequest"* nonnull %4, %"struct.content::GlobalFrameRoutingId"* nonnull dereferenceable(8) %5, %"class.std::__1::vector"* dereferenceable(24) %1, %"class.url::Origin"* dereferenceable(80) %65) #15
  call void @llvm.lifetime.end.p0i8(i64 8, i8* nonnull %52) #15
  %66 = load %"class.content::ControllerPresentationServiceDelegate"*, %"class.content::ControllerPresentationServiceDelegate"** %8, align 8
  %67 = bitcast %"class.base::WeakPtr.284"* %7 to i8*
  call void @llvm.lifetime.start.p0i8(i64 16, i8* nonnull %67) #15
  %68 = bitcast %"class.base::internal::WeakReference"* %3 to i8*
  call void @llvm.lifetime.start.p0i8(i64 8, i8* nonnull %68) #15, !noalias !79
  %69 = getelementptr inbounds %"class.content::PresentationServiceImpl", %"class.content::PresentationServiceImpl"* %0, i64 0, i32 17, i32 0, i32 0
  call void @_ZNK4base8internal18WeakReferenceOwner6GetRefEv(%"class.base::internal::WeakReference"* nonnull sret %3, %"class.base::internal::WeakReferenceOwner"* %69) #15, !noalias !79
  %70 = getelementptr inbounds %"class.content::PresentationServiceImpl", %"class.content::PresentationServiceImpl"* %0, i64 0, i32 17, i32 0, i32 1
  %71 = load i64, i64* %70, align 8, !noalias !79
  %72 = getelementptr inbounds %"class.base::WeakPtr.284", %"class.base::WeakPtr.284"* %7, i64 0, i32 0
  call void @_ZN4base8internal11WeakPtrBaseC2ERKNS0_13WeakReferenceEm(%"class.base::internal::WeakPtrBase"* nonnull %72, %"class.base::internal::WeakReference"* nonnull dereferenceable(8) %3, i64 %71) #15
  call void @_ZN4base8internal13WeakReferenceD1Ev(%"class.base::internal::WeakReference"* nonnull %3) #15
  call void @llvm.lifetime.end.p0i8(i64 8, i8* nonnull %68) #15, !noalias !79
  %73 = call i8* @_Znwm(i64 64) #16, !noalias !82
  %74 = bitcast i8* %73 to %"class.base::internal::BindStateBase"*
  call void @_ZN4base8internal13BindStateBaseC2EPFvvEPFvPKS1_EPFbS5_NS1_21CancellationQueryModeEE(%"class.base::internal::BindStateBase"* nonnull %74, void ()* bitcast (void (%"class.base::internal::BindStateBase"*, %"class.mojo::StructPtr.300"*)* @_ZN4base8internal7InvokerINS0_9BindStateIMN7content23PresentationServiceImplEFvN4mojo9StructPtrIN5blink5mojom28PresentationConnectionResultEEEEJNS_7WeakPtrIS4_EEEEEFvSA_EE3RunEPNS0_13BindStateBaseEOSA_ to void ()*), void (%"class.base::internal::BindStateBase"*)* nonnull @_ZN4base8internal9BindStateIMN7content23PresentationServiceImplEFvN4mojo9StructPtrIN5blink5mojom28PresentationConnectionResultEEEEJNS_7WeakPtrIS3_EEEE7DestroyEPKNS0_13BindStateBaseE, i1 (%"class.base::internal::BindStateBase"*, i32)* nonnull @_ZN4base8internal23QueryCancellationTraitsINS0_9BindStateIMN7content23PresentationServiceImplEFvN4mojo9StructPtrIN5blink5mojom28PresentationConnectionResultEEEEJNS_7WeakPtrIS4_EEEEEEEbPKNS0_13BindStateBaseENSG_21CancellationQueryModeE) #15, !noalias !82
  %75 = getelementptr inbounds i8, i8* %73, i64 32
  %76 = bitcast i8* %75 to <2 x i64>*
  store <2 x i64> <i64 ptrtoint (void (%"class.content::PresentationServiceImpl"*, %"class.mojo::StructPtr.300"*)* @_ZN7content23PresentationServiceImpl28OnDefaultPresentationStartedEN4mojo9StructPtrIN5blink5mojom28PresentationConnectionResultEEE to i64), i64 0>, <2 x i64>* %76, align 8, !noalias !82
  %77 = getelementptr inbounds i8, i8* %73, i64 48
  %78 = bitcast i8* %77 to %"class.base::internal::WeakReference"*
  %79 = getelementptr inbounds %"class.base::WeakPtr.284", %"class.base::WeakPtr.284"* %7, i64 0, i32 0, i32 0
  call void @_ZN4base8internal13WeakReferenceC1EOS1_(%"class.base::internal::WeakReference"* %78, %"class.base::internal::WeakReference"* nonnull dereferenceable(8) %79) #15, !noalias !82
  %80 = getelementptr inbounds i8, i8* %73, i64 56
  %81 = bitcast i8* %80 to i64*
  %82 = getelementptr inbounds %"class.base::WeakPtr.284", %"class.base::WeakPtr.284"* %7, i64 0, i32 0, i32 1
  %83 = load i64, i64* %82, align 8, !noalias !82
  store i64 %83, i64* %81, align 8, !noalias !82
  %84 = bitcast %"class.base::RepeatingCallback.316"* %6 to i8**
  store i8* %73, i8** %84, align 8, !alias.scope !82
  %85 = bitcast %"class.content::ControllerPresentationServiceDelegate"* %66 to void (%"class.content::ControllerPresentationServiceDelegate"*, %"struct.content::PresentationRequest"*, %"class.base::RepeatingCallback.316"*)***
  %86 = load void (%"class.content::ControllerPresentationServiceDelegate"*, %"struct.content::PresentationRequest"*, %"class.base::RepeatingCallback.316"*)**, void (%"class.content::ControllerPresentationServiceDelegate"*, %"struct.content::PresentationRequest"*, %"class.base::RepeatingCallback.316"*)*** %85, align 8
  %87 = getelementptr inbounds void (%"class.content::ControllerPresentationServiceDelegate"*, %"struct.content::PresentationRequest"*, %"class.base::RepeatingCallback.316"*)*, void (%"class.content::ControllerPresentationServiceDelegate"*, %"struct.content::PresentationRequest"*, %"class.base::RepeatingCallback.316"*)** %86, i64 7
  %88 = load void (%"class.content::ControllerPresentationServiceDelegate"*, %"struct.content::PresentationRequest"*, %"class.base::RepeatingCallback.316"*)*, void (%"class.content::ControllerPresentationServiceDelegate"*, %"struct.content::PresentationRequest"*, %"class.base::RepeatingCallback.316"*)** %87, align 8
  call void %88(%"class.content::ControllerPresentationServiceDelegate"* %66, %"struct.content::PresentationRequest"* nonnull dereferenceable(112) %4, %"class.base::RepeatingCallback.316"* nonnull %6) #15
  %89 = getelementptr inbounds %"class.base::RepeatingCallback.316", %"class.base::RepeatingCallback.316"* %6, i64 0, i32 0, i32 0
  call void @_ZN4base8internal12CallbackBaseD2Ev(%"class.base::internal::CallbackBase"* nonnull %89) #15
  call void @_ZN4base8internal11WeakPtrBaseD2Ev(%"class.base::internal::WeakPtrBase"* nonnull %72) #15
  call void @llvm.lifetime.end.p0i8(i64 16, i8* nonnull %67) #15
  call void @_ZN7content19PresentationRequestD1Ev(%"struct.content::PresentationRequest"* nonnull %4) #15
  call void @llvm.lifetime.end.p0i8(i64 112, i8* nonnull %51) #15
  br label %90

90:                                               ; preds = %40, %32, %11, %2, %50
  ret void
}

; Function Attrs: nounwind ssp uwtable
define hidden void @_ZN7content23PresentationServiceImpl28OnDefaultPresentationStartedEN4mojo9StructPtrIN5blink5mojom28PresentationConnectionResultEEE(%"class.content::PresentationServiceImpl"*, %"class.mojo::StructPtr.300"* nocapture) #0 align 2 {
  %3 = alloca %"class.blink::mojom::PresentationInfo", align 8
  %4 = alloca %"class.mojo::StructPtr.300", align 8
  %5 = bitcast %"class.blink::mojom::PresentationInfo"* %3 to i8*
  call void @llvm.lifetime.start.p0i8(i64 144, i8* nonnull %5) #15
  call void @llvm.memset.p0i8.i64(i8* nonnull align 8 %5, i8 -86, i64 144, i1 false)
  %6 = getelementptr inbounds %"class.mojo::StructPtr.300", %"class.mojo::StructPtr.300"* %1, i64 0, i32 0, i32 0, i32 0, i32 0
  %7 = load %"class.blink::mojom::PresentationConnectionResult"*, %"class.blink::mojom::PresentationConnectionResult"** %6, align 8
  %8 = getelementptr inbounds %"class.blink::mojom::PresentationConnectionResult", %"class.blink::mojom::PresentationConnectionResult"* %7, i64 0, i32 0, i32 0, i32 0, i32 0, i32 0
  %9 = load %"class.blink::mojom::PresentationInfo"*, %"class.blink::mojom::PresentationInfo"** %8, align 8
  %10 = getelementptr inbounds %"class.blink::mojom::PresentationInfo", %"class.blink::mojom::PresentationInfo"* %3, i64 0, i32 0
  %11 = getelementptr inbounds %"class.blink::mojom::PresentationInfo", %"class.blink::mojom::PresentationInfo"* %9, i64 0, i32 0
  call void @_ZN4GURLC1ERKS_(%class.GURL* nonnull %10, %class.GURL* dereferenceable(120) %11) #15
  %12 = getelementptr inbounds %"class.blink::mojom::PresentationInfo", %"class.blink::mojom::PresentationInfo"* %3, i64 0, i32 1
  %13 = getelementptr inbounds %"class.blink::mojom::PresentationInfo", %"class.blink::mojom::PresentationInfo"* %9, i64 0, i32 1
  %14 = bitcast %"class.std::__1::basic_string"* %13 to %"struct.std::__1::basic_string<char, std::__1::char_traits<char>, std::__1::allocator<char> >::__short"*
  %15 = getelementptr inbounds %"struct.std::__1::basic_string<char, std::__1::char_traits<char>, std::__1::allocator<char> >::__short", %"struct.std::__1::basic_string<char, std::__1::char_traits<char>, std::__1::allocator<char> >::__short"* %14, i64 0, i32 1, i32 0
  %16 = load i8, i8* %15, align 1
  %17 = icmp slt i8 %16, 0
  br i1 %17, label %21, label %18

18:                                               ; preds = %2
  %19 = bitcast %"class.std::__1::basic_string"* %12 to i8*
  %20 = bitcast %"class.std::__1::basic_string"* %13 to i8*
  call void @llvm.memcpy.p0i8.p0i8.i64(i8* align 8 %19, i8* align 8 %20, i64 24, i1 false) #15
  br label %26

21:                                               ; preds = %2
  %22 = getelementptr inbounds %"class.std::__1::basic_string", %"class.std::__1::basic_string"* %13, i64 0, i32 0, i32 0, i32 0, i32 0, i32 0, i32 0
  %23 = load i8*, i8** %22, align 8
  %24 = getelementptr inbounds %"class.blink::mojom::PresentationInfo", %"class.blink::mojom::PresentationInfo"* %9, i64 0, i32 1, i32 0, i32 0, i32 0, i32 0, i32 0, i32 1
  %25 = load i64, i64* %24, align 8
  call void @_ZNSt3__112basic_stringIcNS_11char_traitsIcEENS_9allocatorIcEEE25__init_copy_ctor_externalEPKcm(%"class.std::__1::basic_string"* %12, i8* %23, i64 %25) #15
  br label %26

26:                                               ; preds = %18, %21
  %27 = getelementptr inbounds %"class.content::PresentationServiceImpl", %"class.content::PresentationServiceImpl"* %0, i64 0, i32 6, i32 0, i32 0, i32 2, i32 0, i32 0, i32 0
  %28 = load i32, i32* %27, align 4
  %29 = icmp eq i32 %28, 0
  br i1 %29, label %30, label %34

30:                                               ; preds = %26
  %31 = getelementptr inbounds %"class.content::PresentationServiceImpl", %"class.content::PresentationServiceImpl"* %0, i64 0, i32 6, i32 0, i32 0, i32 1, i32 0, i32 0, i32 0
  %32 = load %"class.mojo::InterfaceEndpointClient"*, %"class.mojo::InterfaceEndpointClient"** %31, align 8
  %33 = icmp eq %"class.mojo::InterfaceEndpointClient"* %32, null
  br i1 %33, label %46, label %34

34:                                               ; preds = %30, %26
  %35 = getelementptr inbounds %"class.content::PresentationServiceImpl", %"class.content::PresentationServiceImpl"* %0, i64 0, i32 6, i32 0
  call void @_ZN4mojo8internal17InterfacePtrStateIN5blink5mojom22PresentationControllerEE25ConfigureProxyIfNecessaryEv(%"class.mojo::internal::InterfacePtrState"* %35) #15
  %36 = getelementptr inbounds %"class.content::PresentationServiceImpl", %"class.content::PresentationServiceImpl"* %0, i64 0, i32 6, i32 0, i32 1, i32 0, i32 0, i32 0
  %37 = load %"class.blink::mojom::PresentationControllerProxy"*, %"class.blink::mojom::PresentationControllerProxy"** %36, align 8
  %38 = bitcast %"class.mojo::StructPtr.300"* %4 to i64*
  %39 = getelementptr inbounds %"class.mojo::StructPtr.300", %"class.mojo::StructPtr.300"* %4, i64 0, i32 0, i32 0, i32 0, i32 0
  %40 = bitcast %"class.mojo::StructPtr.300"* %1 to i64*
  %41 = load i64, i64* %40, align 8
  store i64 %41, i64* %38, align 8
  store i64 0, i64* %40, align 8
  call void @_ZN5blink5mojom27PresentationControllerProxy28OnDefaultPresentationStartedEN4mojo9StructPtrINS0_28PresentationConnectionResultEEE(%"class.blink::mojom::PresentationControllerProxy"* %37, %"class.mojo::StructPtr.300"* nonnull %4) #15
  %42 = load %"class.blink::mojom::PresentationConnectionResult"*, %"class.blink::mojom::PresentationConnectionResult"** %39, align 8
  store %"class.blink::mojom::PresentationConnectionResult"* null, %"class.blink::mojom::PresentationConnectionResult"** %39, align 8
  %43 = icmp eq %"class.blink::mojom::PresentationConnectionResult"* %42, null
  br i1 %43, label %46, label %44

44:                                               ; preds = %34
  call void @_ZN5blink5mojom28PresentationConnectionResultD1Ev(%"class.blink::mojom::PresentationConnectionResult"* nonnull %42) #15
  %45 = bitcast %"class.blink::mojom::PresentationConnectionResult"* %42 to i8*
  call void @_ZdlPv(i8* %45) #16
  br label %46

46:                                               ; preds = %30, %44, %34
  call void @_ZN7content23PresentationServiceImpl30ListenForConnectionStateChangeERKN5blink5mojom16PresentationInfoE(%"class.content::PresentationServiceImpl"* %0, %"class.blink::mojom::PresentationInfo"* nonnull dereferenceable(144) %3)
  call void @_ZN5blink5mojom16PresentationInfoD1Ev(%"class.blink::mojom::PresentationInfo"* nonnull %3) #15
  call void @llvm.lifetime.end.p0i8(i64 144, i8* nonnull %5) #15
  ret void
}

; Function Attrs: nounwind ssp uwtable
define hidden void @_ZN7content23PresentationServiceImpl15CloseConnectionERK4GURLRKNSt3__112basic_stringIcNS4_11char_traitsIcEENS4_9allocatorIcEEEE(%"class.content::PresentationServiceImpl"* nocapture readonly, %class.GURL* nocapture readnone dereferenceable(120), %"class.std::__1::basic_string"* dereferenceable(24)) unnamed_addr #0 align 2 {
  %4 = getelementptr inbounds %"class.content::PresentationServiceImpl", %"class.content::PresentationServiceImpl"* %0, i64 0, i32 4
  %5 = load %"class.content::ControllerPresentationServiceDelegate"*, %"class.content::ControllerPresentationServiceDelegate"** %4, align 8
  %6 = icmp eq %"class.content::ControllerPresentationServiceDelegate"* %5, null
  br i1 %6, label %16, label %7

7:                                                ; preds = %3
  %8 = getelementptr inbounds %"class.content::PresentationServiceImpl", %"class.content::PresentationServiceImpl"* %0, i64 0, i32 14
  %9 = load i32, i32* %8, align 8
  %10 = getelementptr inbounds %"class.content::PresentationServiceImpl", %"class.content::PresentationServiceImpl"* %0, i64 0, i32 15
  %11 = load i32, i32* %10, align 4
  %12 = bitcast %"class.content::ControllerPresentationServiceDelegate"* %5 to void (%"class.content::ControllerPresentationServiceDelegate"*, i32, i32, %"class.std::__1::basic_string"*)***
  %13 = load void (%"class.content::ControllerPresentationServiceDelegate"*, i32, i32, %"class.std::__1::basic_string"*)**, void (%"class.content::ControllerPresentationServiceDelegate"*, i32, i32, %"class.std::__1::basic_string"*)*** %12, align 8
  %14 = getelementptr inbounds void (%"class.content::ControllerPresentationServiceDelegate"*, i32, i32, %"class.std::__1::basic_string"*)*, void (%"class.content::ControllerPresentationServiceDelegate"*, i32, i32, %"class.std::__1::basic_string"*)** %13, i64 10
  %15 = load void (%"class.content::ControllerPresentationServiceDelegate"*, i32, i32, %"class.std::__1::basic_string"*)*, void (%"class.content::ControllerPresentationServiceDelegate"*, i32, i32, %"class.std::__1::basic_string"*)** %14, align 8
  tail call void %15(%"class.content::ControllerPresentationServiceDelegate"* nonnull %5, i32 %9, i32 %11, %"class.std::__1::basic_string"* dereferenceable(24) %2) #15
  br label %16

16:                                               ; preds = %3, %7
  ret void
}

; Function Attrs: nounwind ssp uwtable
define hidden void @_ZN7content23PresentationServiceImpl9TerminateERK4GURLRKNSt3__112basic_stringIcNS4_11char_traitsIcEENS4_9allocatorIcEEEE(%"class.content::PresentationServiceImpl"* nocapture readonly, %class.GURL* nocapture readnone dereferenceable(120), %"class.std::__1::basic_string"* dereferenceable(24)) unnamed_addr #0 align 2 {
  %4 = getelementptr inbounds %"class.content::PresentationServiceImpl", %"class.content::PresentationServiceImpl"* %0, i64 0, i32 4
  %5 = load %"class.content::ControllerPresentationServiceDelegate"*, %"class.content::ControllerPresentationServiceDelegate"** %4, align 8
  %6 = icmp eq %"class.content::ControllerPresentationServiceDelegate"* %5, null
  br i1 %6, label %16, label %7

7:                                                ; preds = %3
  %8 = getelementptr inbounds %"class.content::PresentationServiceImpl", %"class.content::PresentationServiceImpl"* %0, i64 0, i32 14
  %9 = load i32, i32* %8, align 8
  %10 = getelementptr inbounds %"class.content::PresentationServiceImpl", %"class.content::PresentationServiceImpl"* %0, i64 0, i32 15
  %11 = load i32, i32* %10, align 4
  %12 = bitcast %"class.content::ControllerPresentationServiceDelegate"* %5 to void (%"class.content::ControllerPresentationServiceDelegate"*, i32, i32, %"class.std::__1::basic_string"*)***
  %13 = load void (%"class.content::ControllerPresentationServiceDelegate"*, i32, i32, %"class.std::__1::basic_string"*)**, void (%"class.content::ControllerPresentationServiceDelegate"*, i32, i32, %"class.std::__1::basic_string"*)*** %12, align 8
  %14 = getelementptr inbounds void (%"class.content::ControllerPresentationServiceDelegate"*, i32, i32, %"class.std::__1::basic_string"*)*, void (%"class.content::ControllerPresentationServiceDelegate"*, i32, i32, %"class.std::__1::basic_string"*)** %13, i64 11
  %15 = load void (%"class.content::ControllerPresentationServiceDelegate"*, i32, i32, %"class.std::__1::basic_string"*)*, void (%"class.content::ControllerPresentationServiceDelegate"*, i32, i32, %"class.std::__1::basic_string"*)** %14, align 8
  tail call void %15(%"class.content::ControllerPresentationServiceDelegate"* nonnull %5, i32 %9, i32 %11, %"class.std::__1::basic_string"* dereferenceable(24) %2) #15
  br label %16

16:                                               ; preds = %3, %7
  ret void
}

; Function Attrs: nofree norecurse nounwind ssp uwtable writeonly
define hidden void @_ZN7content23PresentationServiceImpl31SetControllerDelegateForTestingEPNS_37ControllerPresentationServiceDelegateE(%"class.content::PresentationServiceImpl"* nocapture, %"class.content::ControllerPresentationServiceDelegate"*) local_unnamed_addr #7 align 2 {
  %3 = getelementptr inbounds %"class.content::PresentationServiceImpl", %"class.content::PresentationServiceImpl"* %0, i64 0, i32 4
  store %"class.content::ControllerPresentationServiceDelegate"* %1, %"class.content::ControllerPresentationServiceDelegate"** %3, align 8
  ret void
}

declare void @_ZN5blink5mojom27PresentationControllerProxy18OnConnectionClosedEN4mojo9StructPtrINS0_16PresentationInfoEEENS0_33PresentationConnectionCloseReasonERKNSt3__112basic_stringIcNS7_11char_traitsIcEENS7_9allocatorIcEEEE(%"class.blink::mojom::PresentationControllerProxy"*, %"class.mojo::StructPtr"*, i32, %"class.std::__1::basic_string"* dereferenceable(24)) unnamed_addr #1

declare void @_ZN5blink5mojom27PresentationControllerProxy24OnConnectionStateChangedEN4mojo9StructPtrINS0_16PresentationInfoEEENS0_27PresentationConnectionStateE(%"class.blink::mojom::PresentationControllerProxy"*, %"class.mojo::StructPtr"*, i32) unnamed_addr #1

; Function Attrs: nounwind ssp uwtable
define hidden zeroext i1 @_ZNK7content23PresentationServiceImpl12FrameMatchesEPNS_15RenderFrameHostE(%"class.content::PresentationServiceImpl"* nocapture readonly, %"class.content::RenderFrameHost"*) local_unnamed_addr #0 align 2 {
  %3 = icmp eq %"class.content::RenderFrameHost"* %1, null
  br i1 %3, label %27, label %4

4:                                                ; preds = %2
  %5 = bitcast %"class.content::RenderFrameHost"* %1 to %"class.content::RenderProcessHost"* (%"class.content::RenderFrameHost"*)***
  %6 = load %"class.content::RenderProcessHost"* (%"class.content::RenderFrameHost"*)**, %"class.content::RenderProcessHost"* (%"class.content::RenderFrameHost"*)*** %5, align 8
  %7 = getelementptr inbounds %"class.content::RenderProcessHost"* (%"class.content::RenderFrameHost"*)*, %"class.content::RenderProcessHost"* (%"class.content::RenderFrameHost"*)** %6, i64 14
  %8 = load %"class.content::RenderProcessHost"* (%"class.content::RenderFrameHost"*)*, %"class.content::RenderProcessHost"* (%"class.content::RenderFrameHost"*)** %7, align 8
  %9 = tail call %"class.content::RenderProcessHost"* %8(%"class.content::RenderFrameHost"* nonnull %1) #15
  %10 = bitcast %"class.content::RenderProcessHost"* %9 to i32 (%"class.content::RenderProcessHost"*)***
  %11 = load i32 (%"class.content::RenderProcessHost"*)**, i32 (%"class.content::RenderProcessHost"*)*** %10, align 8
  %12 = getelementptr inbounds i32 (%"class.content::RenderProcessHost"*)*, i32 (%"class.content::RenderProcessHost"*)** %11, i64 29
  %13 = load i32 (%"class.content::RenderProcessHost"*)*, i32 (%"class.content::RenderProcessHost"*)** %12, align 8
  %14 = tail call i32 %13(%"class.content::RenderProcessHost"* %9) #15
  %15 = getelementptr inbounds %"class.content::PresentationServiceImpl", %"class.content::PresentationServiceImpl"* %0, i64 0, i32 14
  %16 = load i32, i32* %15, align 8
  %17 = icmp eq i32 %14, %16
  br i1 %17, label %18, label %27

18:                                               ; preds = %4
  %19 = bitcast %"class.content::RenderFrameHost"* %1 to i32 (%"class.content::RenderFrameHost"*)***
  %20 = load i32 (%"class.content::RenderFrameHost"*)**, i32 (%"class.content::RenderFrameHost"*)*** %19, align 8
  %21 = getelementptr inbounds i32 (%"class.content::RenderFrameHost"*)*, i32 (%"class.content::RenderFrameHost"*)** %20, i64 9
  %22 = load i32 (%"class.content::RenderFrameHost"*)*, i32 (%"class.content::RenderFrameHost"*)** %21, align 8
  %23 = tail call i32 %22(%"class.content::RenderFrameHost"* nonnull %1) #15
  %24 = getelementptr inbounds %"class.content::PresentationServiceImpl", %"class.content::PresentationServiceImpl"* %0, i64 0, i32 15
  %25 = load i32, i32* %24, align 4
  %26 = icmp eq i32 %23, %25
  br label %27

27:                                               ; preds = %4, %18, %2
  %28 = phi i1 [ false, %2 ], [ false, %4 ], [ %26, %18 ]
  ret i1 %28
}

declare void @_ZN5blink5mojom25PresentationReceiverProxy29OnReceiverConnectionAvailableEN4mojo9StructPtrINS0_16PresentationInfoEEENS2_13PendingRemoteINS0_22PresentationConnectionEEENS2_15PendingReceiverIS7_EE(%"class.blink::mojom::PresentationReceiverProxy"*, %"class.mojo::StructPtr"*, %"class.mojo::PendingRemote.291"*, %"class.mojo::PendingReceiver.292"*) unnamed_addr #1

; Function Attrs: nounwind ssp uwtable
define hidden void @_ZN7content23PresentationServiceImpl19DidFinishNavigationEPNS_16NavigationHandleE(%"class.content::PresentationServiceImpl"*, %"class.content::NavigationHandle"*) unnamed_addr #0 align 2 {
  %3 = bitcast %"class.content::NavigationHandle"* %1 to i1 (%"class.content::NavigationHandle"*)***
  %4 = load i1 (%"class.content::NavigationHandle"*)**, i1 (%"class.content::NavigationHandle"*)*** %3, align 8
  %5 = getelementptr inbounds i1 (%"class.content::NavigationHandle"*)*, i1 (%"class.content::NavigationHandle"*)** %4, i64 38
  %6 = load i1 (%"class.content::NavigationHandle"*)*, i1 (%"class.content::NavigationHandle"*)** %5, align 8
  %7 = tail call zeroext i1 %6(%"class.content::NavigationHandle"* %1) #15
  br i1 %7, label %8, label %49

8:                                                ; preds = %2
  %9 = bitcast %"class.content::NavigationHandle"* %1 to %"class.content::RenderFrameHost"* (%"class.content::NavigationHandle"*)***
  %10 = load %"class.content::RenderFrameHost"* (%"class.content::NavigationHandle"*)**, %"class.content::RenderFrameHost"* (%"class.content::NavigationHandle"*)*** %9, align 8
  %11 = getelementptr inbounds %"class.content::RenderFrameHost"* (%"class.content::NavigationHandle"*)*, %"class.content::RenderFrameHost"* (%"class.content::NavigationHandle"*)** %10, i64 33
  %12 = load %"class.content::RenderFrameHost"* (%"class.content::NavigationHandle"*)*, %"class.content::RenderFrameHost"* (%"class.content::NavigationHandle"*)** %11, align 8
  %13 = tail call %"class.content::RenderFrameHost"* %12(%"class.content::NavigationHandle"* %1) #15
  %14 = icmp eq %"class.content::RenderFrameHost"* %13, null
  br i1 %14, label %49, label %15

15:                                               ; preds = %8
  %16 = bitcast %"class.content::RenderFrameHost"* %13 to %"class.content::RenderProcessHost"* (%"class.content::RenderFrameHost"*)***
  %17 = load %"class.content::RenderProcessHost"* (%"class.content::RenderFrameHost"*)**, %"class.content::RenderProcessHost"* (%"class.content::RenderFrameHost"*)*** %16, align 8
  %18 = getelementptr inbounds %"class.content::RenderProcessHost"* (%"class.content::RenderFrameHost"*)*, %"class.content::RenderProcessHost"* (%"class.content::RenderFrameHost"*)** %17, i64 14
  %19 = load %"class.content::RenderProcessHost"* (%"class.content::RenderFrameHost"*)*, %"class.content::RenderProcessHost"* (%"class.content::RenderFrameHost"*)** %18, align 8
  %20 = tail call %"class.content::RenderProcessHost"* %19(%"class.content::RenderFrameHost"* nonnull %13) #15
  %21 = bitcast %"class.content::RenderProcessHost"* %20 to i32 (%"class.content::RenderProcessHost"*)***
  %22 = load i32 (%"class.content::RenderProcessHost"*)**, i32 (%"class.content::RenderProcessHost"*)*** %21, align 8
  %23 = getelementptr inbounds i32 (%"class.content::RenderProcessHost"*)*, i32 (%"class.content::RenderProcessHost"*)** %22, i64 29
  %24 = load i32 (%"class.content::RenderProcessHost"*)*, i32 (%"class.content::RenderProcessHost"*)** %23, align 8
  %25 = tail call i32 %24(%"class.content::RenderProcessHost"* %20) #15
  %26 = getelementptr inbounds %"class.content::PresentationServiceImpl", %"class.content::PresentationServiceImpl"* %0, i64 0, i32 14
  %27 = load i32, i32* %26, align 8
  %28 = icmp eq i32 %25, %27
  br i1 %28, label %29, label %49

29:                                               ; preds = %15
  %30 = bitcast %"class.content::RenderFrameHost"* %13 to i32 (%"class.content::RenderFrameHost"*)***
  %31 = load i32 (%"class.content::RenderFrameHost"*)**, i32 (%"class.content::RenderFrameHost"*)*** %30, align 8
  %32 = getelementptr inbounds i32 (%"class.content::RenderFrameHost"*)*, i32 (%"class.content::RenderFrameHost"*)** %31, i64 9
  %33 = load i32 (%"class.content::RenderFrameHost"*)*, i32 (%"class.content::RenderFrameHost"*)** %32, align 8
  %34 = tail call i32 %33(%"class.content::RenderFrameHost"* nonnull %13) #15
  %35 = getelementptr inbounds %"class.content::PresentationServiceImpl", %"class.content::PresentationServiceImpl"* %0, i64 0, i32 15
  %36 = load i32, i32* %35, align 4
  %37 = icmp eq i32 %34, %36
  br i1 %37, label %38, label %49

38:                                               ; preds = %29
  %39 = load i1 (%"class.content::NavigationHandle"*)**, i1 (%"class.content::NavigationHandle"*)*** %3, align 8
  %40 = getelementptr inbounds i1 (%"class.content::NavigationHandle"*)*, i1 (%"class.content::NavigationHandle"*)** %39, i64 31
  %41 = load i1 (%"class.content::NavigationHandle"*)*, i1 (%"class.content::NavigationHandle"*)** %40, align 8
  %42 = tail call zeroext i1 %41(%"class.content::NavigationHandle"* %1) #15
  br i1 %42, label %49, label %43

43:                                               ; preds = %38
  %44 = load i1 (%"class.content::NavigationHandle"*)**, i1 (%"class.content::NavigationHandle"*)*** %3, align 8
  %45 = getelementptr inbounds i1 (%"class.content::NavigationHandle"*)*, i1 (%"class.content::NavigationHandle"*)** %44, i64 35
  %46 = load i1 (%"class.content::NavigationHandle"*)*, i1 (%"class.content::NavigationHandle"*)** %45, align 8
  %47 = tail call zeroext i1 %46(%"class.content::NavigationHandle"* %1) #15
  br i1 %47, label %49, label %48

48:                                               ; preds = %43
  tail call void @_ZN7content23PresentationServiceImpl5ResetEv(%"class.content::PresentationServiceImpl"* %0)
  br label %49

49:                                               ; preds = %15, %8, %43, %2, %29, %38, %48
  ret void
}

; Function Attrs: nounwind ssp uwtable
define hidden void @_ZThn8_N7content23PresentationServiceImpl19DidFinishNavigationEPNS_16NavigationHandleE(%"class.content::PresentationServiceImpl"*, %"class.content::NavigationHandle"*) unnamed_addr #0 align 2 {
  %3 = getelementptr inbounds %"class.content::PresentationServiceImpl", %"class.content::PresentationServiceImpl"* %0, i64 -1, i32 17, i32 0, i32 1
  %4 = bitcast i64* %3 to %"class.content::PresentationServiceImpl"*
  %5 = bitcast %"class.content::NavigationHandle"* %1 to i1 (%"class.content::NavigationHandle"*)***
  %6 = load i1 (%"class.content::NavigationHandle"*)**, i1 (%"class.content::NavigationHandle"*)*** %5, align 8
  %7 = getelementptr inbounds i1 (%"class.content::NavigationHandle"*)*, i1 (%"class.content::NavigationHandle"*)** %6, i64 38
  %8 = load i1 (%"class.content::NavigationHandle"*)*, i1 (%"class.content::NavigationHandle"*)** %7, align 8
  %9 = tail call zeroext i1 %8(%"class.content::NavigationHandle"* %1) #15
  br i1 %9, label %10, label %52

10:                                               ; preds = %2
  %11 = bitcast %"class.content::NavigationHandle"* %1 to %"class.content::RenderFrameHost"* (%"class.content::NavigationHandle"*)***
  %12 = load %"class.content::RenderFrameHost"* (%"class.content::NavigationHandle"*)**, %"class.content::RenderFrameHost"* (%"class.content::NavigationHandle"*)*** %11, align 8
  %13 = getelementptr inbounds %"class.content::RenderFrameHost"* (%"class.content::NavigationHandle"*)*, %"class.content::RenderFrameHost"* (%"class.content::NavigationHandle"*)** %12, i64 33
  %14 = load %"class.content::RenderFrameHost"* (%"class.content::NavigationHandle"*)*, %"class.content::RenderFrameHost"* (%"class.content::NavigationHandle"*)** %13, align 8
  %15 = tail call %"class.content::RenderFrameHost"* %14(%"class.content::NavigationHandle"* %1) #15
  %16 = icmp eq %"class.content::RenderFrameHost"* %15, null
  br i1 %16, label %52, label %17

17:                                               ; preds = %10
  %18 = bitcast %"class.content::RenderFrameHost"* %15 to %"class.content::RenderProcessHost"* (%"class.content::RenderFrameHost"*)***
  %19 = load %"class.content::RenderProcessHost"* (%"class.content::RenderFrameHost"*)**, %"class.content::RenderProcessHost"* (%"class.content::RenderFrameHost"*)*** %18, align 8
  %20 = getelementptr inbounds %"class.content::RenderProcessHost"* (%"class.content::RenderFrameHost"*)*, %"class.content::RenderProcessHost"* (%"class.content::RenderFrameHost"*)** %19, i64 14
  %21 = load %"class.content::RenderProcessHost"* (%"class.content::RenderFrameHost"*)*, %"class.content::RenderProcessHost"* (%"class.content::RenderFrameHost"*)** %20, align 8
  %22 = tail call %"class.content::RenderProcessHost"* %21(%"class.content::RenderFrameHost"* nonnull %15) #15
  %23 = bitcast %"class.content::RenderProcessHost"* %22 to i32 (%"class.content::RenderProcessHost"*)***
  %24 = load i32 (%"class.content::RenderProcessHost"*)**, i32 (%"class.content::RenderProcessHost"*)*** %23, align 8
  %25 = getelementptr inbounds i32 (%"class.content::RenderProcessHost"*)*, i32 (%"class.content::RenderProcessHost"*)** %24, i64 29
  %26 = load i32 (%"class.content::RenderProcessHost"*)*, i32 (%"class.content::RenderProcessHost"*)** %25, align 8
  %27 = tail call i32 %26(%"class.content::RenderProcessHost"* %22) #15
  %28 = getelementptr inbounds i64, i64* %3, i64 42
  %29 = bitcast i64* %28 to i32*
  %30 = load i32, i32* %29, align 8
  %31 = icmp eq i32 %27, %30
  br i1 %31, label %32, label %52

32:                                               ; preds = %17
  %33 = bitcast %"class.content::RenderFrameHost"* %15 to i32 (%"class.content::RenderFrameHost"*)***
  %34 = load i32 (%"class.content::RenderFrameHost"*)**, i32 (%"class.content::RenderFrameHost"*)*** %33, align 8
  %35 = getelementptr inbounds i32 (%"class.content::RenderFrameHost"*)*, i32 (%"class.content::RenderFrameHost"*)** %34, i64 9
  %36 = load i32 (%"class.content::RenderFrameHost"*)*, i32 (%"class.content::RenderFrameHost"*)** %35, align 8
  %37 = tail call i32 %36(%"class.content::RenderFrameHost"* nonnull %15) #15
  %38 = getelementptr inbounds %"class.content::PresentationServiceImpl", %"class.content::PresentationServiceImpl"* %4, i64 0, i32 15
  %39 = load i32, i32* %38, align 4
  %40 = icmp eq i32 %37, %39
  br i1 %40, label %41, label %52

41:                                               ; preds = %32
  %42 = load i1 (%"class.content::NavigationHandle"*)**, i1 (%"class.content::NavigationHandle"*)*** %5, align 8
  %43 = getelementptr inbounds i1 (%"class.content::NavigationHandle"*)*, i1 (%"class.content::NavigationHandle"*)** %42, i64 31
  %44 = load i1 (%"class.content::NavigationHandle"*)*, i1 (%"class.content::NavigationHandle"*)** %43, align 8
  %45 = tail call zeroext i1 %44(%"class.content::NavigationHandle"* %1) #15
  br i1 %45, label %52, label %46

46:                                               ; preds = %41
  %47 = load i1 (%"class.content::NavigationHandle"*)**, i1 (%"class.content::NavigationHandle"*)*** %5, align 8
  %48 = getelementptr inbounds i1 (%"class.content::NavigationHandle"*)*, i1 (%"class.content::NavigationHandle"*)** %47, i64 35
  %49 = load i1 (%"class.content::NavigationHandle"*)*, i1 (%"class.content::NavigationHandle"*)** %48, align 8
  %50 = tail call zeroext i1 %49(%"class.content::NavigationHandle"* %1) #15
  br i1 %50, label %52, label %51

51:                                               ; preds = %46
  tail call void @_ZN7content23PresentationServiceImpl5ResetEv(%"class.content::PresentationServiceImpl"* %4) #15
  br label %52

52:                                               ; preds = %2, %10, %17, %32, %41, %46, %51
  ret void
}

; Function Attrs: nounwind ssp uwtable
define hidden void @_ZN7content23PresentationServiceImpl19OnDelegateDestroyedEv(%"class.content::PresentationServiceImpl"*) unnamed_addr #0 align 2 {
  %2 = getelementptr inbounds %"class.content::PresentationServiceImpl", %"class.content::PresentationServiceImpl"* %0, i64 0, i32 4
  %3 = bitcast %"class.content::ControllerPresentationServiceDelegate"** %2 to i8*
  call void @llvm.memset.p0i8.i64(i8* align 8 %3, i8 0, i64 16, i1 false)
  tail call void @_ZN7content23PresentationServiceImpl5ResetEv(%"class.content::PresentationServiceImpl"* %0)
  ret void
}

; Function Attrs: nounwind ssp uwtable
define hidden void @_ZThn24_N7content23PresentationServiceImpl19OnDelegateDestroyedEv(%"class.content::PresentationServiceImpl"*) unnamed_addr #0 align 2 {
  %2 = getelementptr inbounds %"class.content::PresentationServiceImpl", %"class.content::PresentationServiceImpl"* %0, i64 -1, i32 16
  %3 = bitcast i8* %2 to %"class.content::PresentationServiceImpl"*
  %4 = getelementptr inbounds i8, i8* %2, i64 40
  tail call void @llvm.memset.p0i8.i64(i8* align 8 %4, i8 0, i64 16, i1 false) #15
  tail call void @_ZN7content23PresentationServiceImpl5ResetEv(%"class.content::PresentationServiceImpl"* %3) #15
  ret void
}

declare void @_ZN5blink5mojom27PresentationControllerProxy28OnDefaultPresentationStartedEN4mojo9StructPtrINS0_28PresentationConnectionResultEEE(%"class.blink::mojom::PresentationControllerProxy"*, %"class.mojo::StructPtr.300"*) unnamed_addr #1

; Function Attrs: nounwind ssp uwtable
define hidden void @_ZN7content23PresentationServiceImpl30ScreenAvailabilityListenerImplC2ERK4GURLPS0_(%"class.content::PresentationServiceImpl::ScreenAvailabilityListenerImpl"*, %class.GURL* dereferenceable(120), %"class.content::PresentationServiceImpl"*) unnamed_addr #0 align 2 {
  %4 = getelementptr inbounds %"class.content::PresentationServiceImpl::ScreenAvailabilityListenerImpl", %"class.content::PresentationServiceImpl::ScreenAvailabilityListenerImpl"* %0, i64 0, i32 0, i32 0
  store i32 (...)** bitcast (i8** getelementptr inbounds ({ [6 x i8*] }, { [6 x i8*] }* @_ZTVN7content23PresentationServiceImpl30ScreenAvailabilityListenerImplE, i64 0, inrange i32 0, i64 2) to i32 (...)**), i32 (...)*** %4, align 8
  %5 = getelementptr inbounds %"class.content::PresentationServiceImpl::ScreenAvailabilityListenerImpl", %"class.content::PresentationServiceImpl::ScreenAvailabilityListenerImpl"* %0, i64 0, i32 1
  tail call void @_ZN4GURLC1ERKS_(%class.GURL* %5, %class.GURL* dereferenceable(120) %1) #15
  %6 = getelementptr inbounds %"class.content::PresentationServiceImpl::ScreenAvailabilityListenerImpl", %"class.content::PresentationServiceImpl::ScreenAvailabilityListenerImpl"* %0, i64 0, i32 2
  store %"class.content::PresentationServiceImpl"* %2, %"class.content::PresentationServiceImpl"** %6, align 8
  ret void
}

declare void @_ZN4GURLC1ERKS_(%class.GURL*, %class.GURL* dereferenceable(120)) unnamed_addr #1

; Function Attrs: nounwind ssp uwtable
define hidden void @_ZN7content23PresentationServiceImpl30ScreenAvailabilityListenerImplD2Ev(%"class.content::PresentationServiceImpl::ScreenAvailabilityListenerImpl"*) unnamed_addr #0 align 2 {
  %2 = getelementptr inbounds %"class.content::PresentationServiceImpl::ScreenAvailabilityListenerImpl", %"class.content::PresentationServiceImpl::ScreenAvailabilityListenerImpl"* %0, i64 0, i32 0, i32 0
  store i32 (...)** bitcast (i8** getelementptr inbounds ({ [6 x i8*] }, { [6 x i8*] }* @_ZTVN7content23PresentationServiceImpl30ScreenAvailabilityListenerImplE, i64 0, inrange i32 0, i64 2) to i32 (...)**), i32 (...)*** %2, align 8
  %3 = getelementptr inbounds %"class.content::PresentationServiceImpl::ScreenAvailabilityListenerImpl", %"class.content::PresentationServiceImpl::ScreenAvailabilityListenerImpl"* %0, i64 0, i32 1
  tail call void @_ZN4GURLD1Ev(%class.GURL* %3) #15
  ret void
}

; Function Attrs: nounwind
declare void @_ZN4GURLD1Ev(%class.GURL*) unnamed_addr #3

; Function Attrs: nounwind ssp uwtable
define hidden void @_ZN7content23PresentationServiceImpl30ScreenAvailabilityListenerImplD0Ev(%"class.content::PresentationServiceImpl::ScreenAvailabilityListenerImpl"*) unnamed_addr #0 align 2 {
  %2 = getelementptr inbounds %"class.content::PresentationServiceImpl::ScreenAvailabilityListenerImpl", %"class.content::PresentationServiceImpl::ScreenAvailabilityListenerImpl"* %0, i64 0, i32 0, i32 0
  store i32 (...)** bitcast (i8** getelementptr inbounds ({ [6 x i8*] }, { [6 x i8*] }* @_ZTVN7content23PresentationServiceImpl30ScreenAvailabilityListenerImplE, i64 0, inrange i32 0, i64 2) to i32 (...)**), i32 (...)*** %2, align 8
  %3 = getelementptr inbounds %"class.content::PresentationServiceImpl::ScreenAvailabilityListenerImpl", %"class.content::PresentationServiceImpl::ScreenAvailabilityListenerImpl"* %0, i64 0, i32 1
  tail call void @_ZN4GURLD1Ev(%class.GURL* %3) #15
  %4 = bitcast %"class.content::PresentationServiceImpl::ScreenAvailabilityListenerImpl"* %0 to i8*
  tail call void @_ZdlPv(i8* %4) #16
  ret void
}

; Function Attrs: nounwind ssp uwtable
define hidden void @_ZN7content23PresentationServiceImpl30ScreenAvailabilityListenerImpl18GetAvailabilityUrlEv(%class.GURL* noalias sret, %"class.content::PresentationServiceImpl::ScreenAvailabilityListenerImpl"*) unnamed_addr #0 align 2 {
  %3 = getelementptr inbounds %"class.content::PresentationServiceImpl::ScreenAvailabilityListenerImpl", %"class.content::PresentationServiceImpl::ScreenAvailabilityListenerImpl"* %1, i64 0, i32 1
  tail call void @_ZN4GURLC1ERKS_(%class.GURL* %0, %class.GURL* dereferenceable(120) %3) #15
  ret void
}

; Function Attrs: nounwind ssp uwtable
define hidden void @_ZN7content23PresentationServiceImpl30ScreenAvailabilityListenerImpl27OnScreenAvailabilityChangedEN5blink5mojom18ScreenAvailabilityE(%"class.content::PresentationServiceImpl::ScreenAvailabilityListenerImpl"*, i32) unnamed_addr #0 align 2 {
  %3 = getelementptr inbounds %"class.content::PresentationServiceImpl::ScreenAvailabilityListenerImpl", %"class.content::PresentationServiceImpl::ScreenAvailabilityListenerImpl"* %0, i64 0, i32 2
  %4 = load %"class.content::PresentationServiceImpl"*, %"class.content::PresentationServiceImpl"** %3, align 8
  %5 = getelementptr inbounds %"class.content::PresentationServiceImpl", %"class.content::PresentationServiceImpl"* %4, i64 0, i32 6, i32 0, i32 0, i32 2, i32 0, i32 0, i32 0
  %6 = load i32, i32* %5, align 4
  %7 = icmp eq i32 %6, 0
  br i1 %7, label %8, label %12

8:                                                ; preds = %2
  %9 = getelementptr inbounds %"class.content::PresentationServiceImpl", %"class.content::PresentationServiceImpl"* %4, i64 0, i32 6, i32 0, i32 0, i32 1, i32 0, i32 0, i32 0
  %10 = load %"class.mojo::InterfaceEndpointClient"*, %"class.mojo::InterfaceEndpointClient"** %9, align 8
  %11 = icmp eq %"class.mojo::InterfaceEndpointClient"* %10, null
  br i1 %11, label %17, label %12

12:                                               ; preds = %8, %2
  %13 = getelementptr inbounds %"class.content::PresentationServiceImpl", %"class.content::PresentationServiceImpl"* %4, i64 0, i32 6, i32 0
  tail call void @_ZN4mojo8internal17InterfacePtrStateIN5blink5mojom22PresentationControllerEE25ConfigureProxyIfNecessaryEv(%"class.mojo::internal::InterfacePtrState"* %13) #15
  %14 = getelementptr inbounds %"class.content::PresentationServiceImpl", %"class.content::PresentationServiceImpl"* %4, i64 0, i32 6, i32 0, i32 1, i32 0, i32 0, i32 0
  %15 = load %"class.blink::mojom::PresentationControllerProxy"*, %"class.blink::mojom::PresentationControllerProxy"** %14, align 8
  %16 = getelementptr inbounds %"class.content::PresentationServiceImpl::ScreenAvailabilityListenerImpl", %"class.content::PresentationServiceImpl::ScreenAvailabilityListenerImpl"* %0, i64 0, i32 1
  tail call void @_ZN5blink5mojom27PresentationControllerProxy27OnScreenAvailabilityUpdatedERK4GURLNS0_18ScreenAvailabilityE(%"class.blink::mojom::PresentationControllerProxy"* %15, %class.GURL* dereferenceable(120) %16, i32 %1) #15
  br label %17

17:                                               ; preds = %8, %12
  ret void
}

; Function Attrs: nofree norecurse nounwind ssp uwtable
define hidden void @_ZN7content23PresentationServiceImpl30NewPresentationCallbackWrapperC2EN4base12OnceCallbackIFvN4mojo9StructPtrIN5blink5mojom28PresentationConnectionResultEEENS4_16InlinedStructPtrINS7_17PresentationErrorEEEEEE(%"class.content::PresentationServiceImpl::NewPresentationCallbackWrapper"* nocapture, %"class.base::OnceCallback.218"* nocapture) unnamed_addr #8 align 2 {
  %3 = getelementptr inbounds %"class.base::OnceCallback.218", %"class.base::OnceCallback.218"* %1, i64 0, i32 0, i32 0, i32 0
  %4 = bitcast %"class.base::OnceCallback.218"* %1 to i64*
  %5 = load i64, i64* %4, align 8
  %6 = bitcast %"class.content::PresentationServiceImpl::NewPresentationCallbackWrapper"* %0 to i64*
  store i64 %5, i64* %6, align 8
  store %"class.base::internal::BindStateBase"* null, %"class.base::internal::BindStateBase"** %3, align 8
  ret void
}

; Function Attrs: nounwind ssp uwtable
define hidden void @_ZN7content23PresentationServiceImpl30NewPresentationCallbackWrapperD2Ev(%"class.content::PresentationServiceImpl::NewPresentationCallbackWrapper"*) unnamed_addr #0 align 2 {
  %2 = alloca %"class.base::OnceCallback.218", align 8
  %3 = alloca %"class.mojo::StructPtr.300", align 8
  %4 = alloca %"class.mojo::InlinedStructPtr", align 8
  %5 = alloca i32, align 4
  %6 = getelementptr inbounds %"class.content::PresentationServiceImpl::NewPresentationCallbackWrapper", %"class.content::PresentationServiceImpl::NewPresentationCallbackWrapper"* %0, i64 0, i32 0, i32 0
  %7 = getelementptr inbounds %"class.content::PresentationServiceImpl::NewPresentationCallbackWrapper", %"class.content::PresentationServiceImpl::NewPresentationCallbackWrapper"* %0, i64 0, i32 0, i32 0, i32 0, i32 0
  %8 = load %"class.base::internal::BindStateBase"*, %"class.base::internal::BindStateBase"** %7, align 8
  %9 = icmp eq %"class.base::internal::BindStateBase"* %8, null
  br i1 %9, label %28, label %10

10:                                               ; preds = %1
  %11 = bitcast %"class.mojo::StructPtr.300"* %3 to i64*
  store i64 0, i64* %11, align 8
  %12 = bitcast i32* %5 to i8*
  call void @llvm.lifetime.start.p0i8(i64 4, i8* nonnull %12) #15
  store i32 1, i32* %5, align 4
  call void @_ZN5blink5mojom17PresentationError3NewIJNS0_21PresentationErrorTypeERA44_KcEEEN4mojo16InlinedStructPtrIS1_EEDpOT_(%"class.mojo::InlinedStructPtr"* nonnull sret %4, i32* nonnull dereferenceable(4) %5, [44 x i8]* nonnull dereferenceable(44) @.str.8)
  %13 = bitcast %"class.base::OnceCallback.218"* %2 to i8*
  call void @llvm.lifetime.start.p0i8(i64 8, i8* nonnull %13) #15
  %14 = bitcast %"class.content::PresentationServiceImpl::NewPresentationCallbackWrapper"* %0 to i64*
  %15 = load i64, i64* %14, align 8
  %16 = bitcast %"class.base::OnceCallback.218"* %2 to i64*
  store i64 %15, i64* %16, align 8
  store %"class.base::internal::BindStateBase"* null, %"class.base::internal::BindStateBase"** %7, align 8
  %17 = getelementptr inbounds %"class.base::OnceCallback.218", %"class.base::OnceCallback.218"* %2, i64 0, i32 0
  %18 = inttoptr i64 %15 to %"class.base::internal::BindStateBase"*
  %19 = getelementptr inbounds %"class.base::internal::BindStateBase", %"class.base::internal::BindStateBase"* %18, i64 0, i32 1
  %20 = bitcast void ()** %19 to void (%"class.base::internal::BindStateBase"*, %"class.mojo::StructPtr.300"*, %"class.mojo::InlinedStructPtr"*)**
  %21 = load void (%"class.base::internal::BindStateBase"*, %"class.mojo::StructPtr.300"*, %"class.mojo::InlinedStructPtr"*)*, void (%"class.base::internal::BindStateBase"*, %"class.mojo::StructPtr.300"*, %"class.mojo::InlinedStructPtr"*)** %20, align 8
  call void %21(%"class.base::internal::BindStateBase"* %18, %"class.mojo::StructPtr.300"* nonnull dereferenceable(8) %3, %"class.mojo::InlinedStructPtr"* nonnull dereferenceable(40) %4) #15
  call void @_ZN4base8internal12CallbackBaseD2Ev(%"class.base::internal::CallbackBase"* nonnull %17) #15
  call void @llvm.lifetime.end.p0i8(i64 8, i8* nonnull %13) #15
  %22 = getelementptr inbounds %"class.mojo::InlinedStructPtr", %"class.mojo::InlinedStructPtr"* %4, i64 0, i32 0
  call void @_ZN5blink5mojom17PresentationErrorD1Ev(%"class.blink::mojom::PresentationError"* nonnull %22) #15
  call void @llvm.lifetime.end.p0i8(i64 4, i8* nonnull %12) #15
  %23 = getelementptr inbounds %"class.mojo::StructPtr.300", %"class.mojo::StructPtr.300"* %3, i64 0, i32 0, i32 0, i32 0, i32 0
  %24 = load %"class.blink::mojom::PresentationConnectionResult"*, %"class.blink::mojom::PresentationConnectionResult"** %23, align 8
  store %"class.blink::mojom::PresentationConnectionResult"* null, %"class.blink::mojom::PresentationConnectionResult"** %23, align 8
  %25 = icmp eq %"class.blink::mojom::PresentationConnectionResult"* %24, null
  br i1 %25, label %28, label %26

26:                                               ; preds = %10
  call void @_ZN5blink5mojom28PresentationConnectionResultD1Ev(%"class.blink::mojom::PresentationConnectionResult"* nonnull %24) #15
  %27 = bitcast %"class.blink::mojom::PresentationConnectionResult"* %24 to i8*
  call void @_ZdlPv(i8* %27) #16
  br label %28

28:                                               ; preds = %26, %10, %1
  call void @_ZN4base8internal12CallbackBaseD2Ev(%"class.base::internal::CallbackBase"* %6) #15
  ret void
}

; Function Attrs: nounwind ssp uwtable
define linkonce_odr hidden void @_ZN5blink5mojom17PresentationError3NewIJNS0_21PresentationErrorTypeERA44_KcEEEN4mojo16InlinedStructPtrIS1_EEDpOT_(%"class.mojo::InlinedStructPtr"* noalias sret, i32* dereferenceable(4), [44 x i8]* dereferenceable(44)) local_unnamed_addr #0 comdat align 2 {
  %4 = alloca %"class.std::__1::basic_string", align 8
  %5 = getelementptr inbounds %"class.mojo::InlinedStructPtr", %"class.mojo::InlinedStructPtr"* %0, i64 0, i32 0
  %6 = load i32, i32* %1, align 4
  %7 = bitcast %"class.std::__1::basic_string"* %4 to i8*
  call void @llvm.lifetime.start.p0i8(i64 24, i8* nonnull %7) #15
  %8 = getelementptr inbounds [44 x i8], [44 x i8]* %2, i64 0, i64 0
  %9 = tail call i64 @strlen(i8* %8) #15
  %10 = icmp ugt i64 %9, -17
  br i1 %10, label %11, label %13

11:                                               ; preds = %3
  %12 = bitcast %"class.std::__1::basic_string"* %4 to %"class.std::__1::__basic_string_common"*
  call void @_ZNKSt3__121__basic_string_commonILb1EE20__throw_length_errorEv(%"class.std::__1::__basic_string_common"* nonnull %12) #17
  unreachable

13:                                               ; preds = %3
  %14 = icmp ult i64 %9, 23
  br i1 %14, label %24, label %15

15:                                               ; preds = %13
  %16 = add nuw i64 %9, 16
  %17 = and i64 %16, -16
  %18 = tail call i8* @_Znwm(i64 %17) #16
  %19 = getelementptr inbounds %"class.std::__1::basic_string", %"class.std::__1::basic_string"* %4, i64 0, i32 0, i32 0, i32 0, i32 0, i32 0, i32 0
  store i8* %18, i8** %19, align 8
  %20 = or i64 %17, -9223372036854775808
  %21 = getelementptr inbounds %"class.std::__1::basic_string", %"class.std::__1::basic_string"* %4, i64 0, i32 0, i32 0, i32 0, i32 0, i32 0, i32 2
  store i64 %20, i64* %21, align 8
  %22 = getelementptr inbounds %"class.std::__1::basic_string", %"class.std::__1::basic_string"* %4, i64 0, i32 0, i32 0, i32 0, i32 0, i32 0, i32 1
  store i64 %9, i64* %22, align 8
  %23 = bitcast %"class.std::__1::basic_string"* %4 to %"struct.std::__1::basic_string<char, std::__1::char_traits<char>, std::__1::allocator<char> >::__short"*
  br label %29

24:                                               ; preds = %13
  %25 = trunc i64 %9 to i8
  %26 = bitcast %"class.std::__1::basic_string"* %4 to %"struct.std::__1::basic_string<char, std::__1::char_traits<char>, std::__1::allocator<char> >::__short"*
  %27 = getelementptr inbounds %"struct.std::__1::basic_string<char, std::__1::char_traits<char>, std::__1::allocator<char> >::__short", %"struct.std::__1::basic_string<char, std::__1::char_traits<char>, std::__1::allocator<char> >::__short"* %26, i64 0, i32 1, i32 0
  store i8 %25, i8* %27, align 1
  %28 = icmp eq i64 %9, 0
  br i1 %28, label %32, label %29

29:                                               ; preds = %24, %15
  %30 = phi %"struct.std::__1::basic_string<char, std::__1::char_traits<char>, std::__1::allocator<char> >::__short"* [ %26, %24 ], [ %23, %15 ]
  %31 = phi i8* [ %7, %24 ], [ %18, %15 ]
  call void @llvm.memcpy.p0i8.p0i8.i64(i8* nonnull align 1 %31, i8* align 1 %8, i64 %9, i1 false) #15
  br label %32

32:                                               ; preds = %24, %29
  %33 = phi %"struct.std::__1::basic_string<char, std::__1::char_traits<char>, std::__1::allocator<char> >::__short"* [ %26, %24 ], [ %30, %29 ]
  %34 = phi i8* [ %7, %24 ], [ %31, %29 ]
  %35 = getelementptr inbounds i8, i8* %34, i64 %9
  store i8 0, i8* %35, align 1
  call void @_ZN5blink5mojom17PresentationErrorC1ENS0_21PresentationErrorTypeERKNSt3__112basic_stringIcNS3_11char_traitsIcEENS3_9allocatorIcEEEE(%"class.blink::mojom::PresentationError"* %5, i32 %6, %"class.std::__1::basic_string"* nonnull dereferenceable(24) %4) #15
  %36 = getelementptr inbounds %"struct.std::__1::basic_string<char, std::__1::char_traits<char>, std::__1::allocator<char> >::__short", %"struct.std::__1::basic_string<char, std::__1::char_traits<char>, std::__1::allocator<char> >::__short"* %33, i64 0, i32 1, i32 0
  %37 = load i8, i8* %36, align 1
  %38 = icmp slt i8 %37, 0
  br i1 %38, label %39, label %42

39:                                               ; preds = %32
  %40 = getelementptr inbounds %"class.std::__1::basic_string", %"class.std::__1::basic_string"* %4, i64 0, i32 0, i32 0, i32 0, i32 0, i32 0, i32 0
  %41 = load i8*, i8** %40, align 8
  call void @_ZdlPv(i8* %41) #16
  br label %42

42:                                               ; preds = %32, %39
  call void @llvm.lifetime.end.p0i8(i64 24, i8* nonnull %7) #15
  %43 = getelementptr inbounds %"class.mojo::InlinedStructPtr", %"class.mojo::InlinedStructPtr"* %0, i64 0, i32 1
  store i32 1, i32* %43, align 8
  ret void
}

declare zeroext i1 @_ZN7content19WebContentsObserver17OnMessageReceivedERKN3IPC7MessageE(%"class.content::WebContentsObserver"*, %"class.IPC::Message"* dereferenceable(56)) unnamed_addr #1

; Function Attrs: nounwind ssp uwtable
define linkonce_odr hidden void @_ZN3IPC8Listener18OnChannelConnectedEi(%"class.IPC::Listener"*, i32) unnamed_addr #0 comdat align 2 {
  ret void
}

; Function Attrs: nounwind ssp uwtable
define linkonce_odr hidden void @_ZN3IPC8Listener14OnChannelErrorEv(%"class.IPC::Listener"*) unnamed_addr #0 comdat align 2 {
  ret void
}

; Function Attrs: nounwind ssp uwtable
define linkonce_odr hidden void @_ZN3IPC8Listener20OnBadMessageReceivedERKNS_7MessageE(%"class.IPC::Listener"*, %"class.IPC::Message"* dereferenceable(56)) unnamed_addr #0 comdat align 2 {
  ret void
}

; Function Attrs: nounwind ssp uwtable
define linkonce_odr hidden void @_ZN3IPC8Listener28OnAssociatedInterfaceRequestERKNSt3__112basic_stringIcNS1_11char_traitsIcEENS1_9allocatorIcEEEEN4mojo29ScopedInterfaceEndpointHandleE(%"class.IPC::Listener"*, %"class.std::__1::basic_string"* dereferenceable(24), %"class.mojo::ScopedInterfaceEndpointHandle"*) unnamed_addr #0 comdat align 2 {
  ret void
}

; Function Attrs: nounwind ssp uwtable
define linkonce_odr hidden void @_ZN3IPC8Listener15OnChannelDeniedEv(%"class.IPC::Listener"*) unnamed_addr #0 comdat align 2 {
  ret void
}

; Function Attrs: nounwind ssp uwtable
define linkonce_odr hidden void @_ZN3IPC8Listener20OnChannelListenErrorEv(%"class.IPC::Listener"*) unnamed_addr #0 comdat align 2 {
  ret void
}

; Function Attrs: nounwind ssp uwtable
define linkonce_odr hidden void @_ZN7content19WebContentsObserver18RenderFrameCreatedEPNS_15RenderFrameHostE(%"class.content::WebContentsObserver"*, %"class.content::RenderFrameHost"*) unnamed_addr #0 comdat align 2 {
  ret void
}

; Function Attrs: nounwind ssp uwtable
define linkonce_odr hidden void @_ZN7content19WebContentsObserver18RenderFrameDeletedEPNS_15RenderFrameHostE(%"class.content::WebContentsObserver"*, %"class.content::RenderFrameHost"*) unnamed_addr #0 comdat align 2 {
  ret void
}

; Function Attrs: nounwind ssp uwtable
define linkonce_odr hidden void @_ZN7content19WebContentsObserver22RenderFrameHostChangedEPNS_15RenderFrameHostES2_(%"class.content::WebContentsObserver"*, %"class.content::RenderFrameHost"*, %"class.content::RenderFrameHost"*) unnamed_addr #0 comdat align 2 {
  ret void
}

; Function Attrs: nounwind ssp uwtable
define linkonce_odr hidden void @_ZN7content19WebContentsObserver12FrameDeletedEi(%"class.content::WebContentsObserver"*, i32) unnamed_addr #0 comdat align 2 {
  ret void
}

; Function Attrs: nounwind ssp uwtable
define linkonce_odr hidden void @_ZN7content19WebContentsObserver27RenderFrameHostStateChangedEPNS_15RenderFrameHostENS1_14LifecycleStateES3_(%"class.content::WebContentsObserver"*, %"class.content::RenderFrameHost"*, i32, i32) unnamed_addr #0 comdat align 2 {
  ret void
}

; Function Attrs: nounwind ssp uwtable
define linkonce_odr hidden void @_ZN7content19WebContentsObserver20CaptureTargetChangedEv(%"class.content::WebContentsObserver"*) unnamed_addr #0 comdat align 2 {
  ret void
}

; Function Attrs: nounwind ssp uwtable
define linkonce_odr hidden void @_ZN7content19WebContentsObserver27OnCaptureHandleConfigUpdateERKN5blink5mojom19CaptureHandleConfigE(%"class.content::WebContentsObserver"*, %"class.blink::mojom::CaptureHandleConfig"*) unnamed_addr #0 comdat align 2 {
  ret void
}

; Function Attrs: nounwind ssp uwtable
define linkonce_odr hidden void @_ZN7content19WebContentsObserver15RenderViewReadyEv(%"class.content::WebContentsObserver"*) unnamed_addr #0 comdat align 2 {
  ret void
}

; Function Attrs: nounwind ssp uwtable
define linkonce_odr hidden void @_ZN7content19WebContentsObserver17RenderViewDeletedEPNS_14RenderViewHostE(%"class.content::WebContentsObserver"*, %"class.content::RenderViewHost"*) unnamed_addr #0 comdat align 2 {
  ret void
}

; Function Attrs: nounwind ssp uwtable
define linkonce_odr hidden void @_ZN7content19WebContentsObserver17RenderProcessGoneEN4base17TerminationStatusE(%"class.content::WebContentsObserver"*, i32) unnamed_addr #0 comdat align 2 {
  ret void
}

; Function Attrs: nounwind ssp uwtable
define linkonce_odr hidden void @_ZN7content19WebContentsObserver21RenderViewHostChangedEPNS_14RenderViewHostES2_(%"class.content::WebContentsObserver"*, %"class.content::RenderViewHost"*, %"class.content::RenderViewHost"*) unnamed_addr #0 comdat align 2 {
  ret void
}

; Function Attrs: nounwind ssp uwtable
define linkonce_odr hidden void @_ZN7content19WebContentsObserver22OnRendererUnresponsiveEPNS_17RenderProcessHostE(%"class.content::WebContentsObserver"*, %"class.content::RenderProcessHost"*) unnamed_addr #0 comdat align 2 {
  ret void
}

; Function Attrs: nounwind ssp uwtable
define linkonce_odr hidden void @_ZN7content19WebContentsObserver20OnRendererResponsiveEPNS_17RenderProcessHostE(%"class.content::WebContentsObserver"*, %"class.content::RenderProcessHost"*) unnamed_addr #0 comdat align 2 {
  ret void
}

; Function Attrs: nounwind ssp uwtable
define linkonce_odr hidden void @_ZN7content19WebContentsObserver18DidStartNavigationEPNS_16NavigationHandleE(%"class.content::WebContentsObserver"*, %"class.content::NavigationHandle"*) unnamed_addr #0 comdat align 2 {
  ret void
}

; Function Attrs: nounwind ssp uwtable
define linkonce_odr hidden void @_ZN7content19WebContentsObserver21DidRedirectNavigationEPNS_16NavigationHandleE(%"class.content::WebContentsObserver"*, %"class.content::NavigationHandle"*) unnamed_addr #0 comdat align 2 {
  ret void
}

; Function Attrs: nounwind ssp uwtable
define linkonce_odr hidden void @_ZN7content19WebContentsObserver23ReadyToCommitNavigationEPNS_16NavigationHandleE(%"class.content::WebContentsObserver"*, %"class.content::NavigationHandle"*) unnamed_addr #0 comdat align 2 {
  ret void
}

; Function Attrs: nounwind ssp uwtable
define linkonce_odr hidden void @_ZN7content19WebContentsObserver17DidActivatePortalEPNS_11WebContentsEN4base9TimeTicksE(%"class.content::WebContentsObserver"*, %"class.content::WebContents"*, i64) unnamed_addr #0 comdat align 2 {
  ret void
}

; Function Attrs: nounwind ssp uwtable
define linkonce_odr hidden void @_ZN7content19WebContentsObserver15DidStartLoadingEv(%"class.content::WebContentsObserver"*) unnamed_addr #0 comdat align 2 {
  ret void
}

; Function Attrs: nounwind ssp uwtable
define linkonce_odr hidden void @_ZN7content19WebContentsObserver18DidReceiveResponseEv(%"class.content::WebContentsObserver"*) unnamed_addr #0 comdat align 2 {
  ret void
}

; Function Attrs: nounwind ssp uwtable
define linkonce_odr hidden void @_ZN7content19WebContentsObserver14DidStopLoadingEv(%"class.content::WebContentsObserver"*) unnamed_addr #0 comdat align 2 {
  ret void
}

; Function Attrs: nounwind ssp uwtable
define linkonce_odr hidden void @_ZN7content19WebContentsObserver19LoadProgressChangedEd(%"class.content::WebContentsObserver"*, double) unnamed_addr #0 comdat align 2 {
  ret void
}

; Function Attrs: nounwind ssp uwtable
define linkonce_odr hidden void @_ZN7content19WebContentsObserver28DocumentAvailableInMainFrameEPNS_15RenderFrameHostE(%"class.content::WebContentsObserver"*, %"class.content::RenderFrameHost"*) unnamed_addr #0 comdat align 2 {
  ret void
}

; Function Attrs: nounwind ssp uwtable
define linkonce_odr hidden void @_ZN7content19WebContentsObserver34DocumentOnLoadCompletedInMainFrameEPNS_15RenderFrameHostE(%"class.content::WebContentsObserver"*, %"class.content::RenderFrameHost"*) unnamed_addr #0 comdat align 2 {
  ret void
}

; Function Attrs: nounwind ssp uwtable
define linkonce_odr hidden void @_ZN7content19WebContentsObserver16DOMContentLoadedEPNS_15RenderFrameHostE(%"class.content::WebContentsObserver"*, %"class.content::RenderFrameHost"*) unnamed_addr #0 comdat align 2 {
  ret void
}

; Function Attrs: nounwind ssp uwtable
define linkonce_odr hidden void @_ZN7content19WebContentsObserver13DidFinishLoadEPNS_15RenderFrameHostERK4GURL(%"class.content::WebContentsObserver"*, %"class.content::RenderFrameHost"*, %class.GURL* dereferenceable(120)) unnamed_addr #0 comdat align 2 {
  ret void
}

; Function Attrs: nounwind ssp uwtable
define linkonce_odr hidden void @_ZN7content19WebContentsObserver11DidFailLoadEPNS_15RenderFrameHostERK4GURLi(%"class.content::WebContentsObserver"*, %"class.content::RenderFrameHost"*, %class.GURL* dereferenceable(120), i32) unnamed_addr #0 comdat align 2 {
  ret void
}

; Function Attrs: nounwind ssp uwtable
define linkonce_odr hidden void @_ZN7content19WebContentsObserver29DidChangeVisibleSecurityStateEv(%"class.content::WebContentsObserver"*) unnamed_addr #0 comdat align 2 {
  ret void
}

; Function Attrs: nounwind ssp uwtable
define linkonce_odr hidden void @_ZN7content19WebContentsObserver30DidLoadResourceFromMemoryCacheEPNS_15RenderFrameHostERK4GURLRKNSt3__112basic_stringIcNS6_11char_traitsIcEENS6_9allocatorIcEEEEN7network5mojom18RequestDestinationE(%"class.content::WebContentsObserver"*, %"class.content::RenderFrameHost"*, %class.GURL* dereferenceable(120), %"class.std::__1::basic_string"* dereferenceable(24), i32) unnamed_addr #0 comdat align 2 {
  ret void
}

; Function Attrs: nounwind ssp uwtable
define linkonce_odr hidden void @_ZN7content19WebContentsObserver20ResourceLoadCompleteEPNS_15RenderFrameHostERKNS_15GlobalRequestIDERKN5blink5mojom16ResourceLoadInfoE(%"class.content::WebContentsObserver"*, %"class.content::RenderFrameHost"*, %"struct.content::GlobalRequestID"* dereferenceable(8), %"class.blink::mojom::ResourceLoadInfo"*) unnamed_addr #0 comdat align 2 {
  ret void
}

; Function Attrs: nounwind ssp uwtable
define linkonce_odr hidden void @_ZN7content19WebContentsObserver17OnCookiesAccessedEPNS_15RenderFrameHostERKNS_19CookieAccessDetailsE(%"class.content::WebContentsObserver"*, %"class.content::RenderFrameHost"*, %"struct.content::CookieAccessDetails"* dereferenceable(280)) unnamed_addr #0 comdat align 2 {
  ret void
}

; Function Attrs: nounwind ssp uwtable
define linkonce_odr hidden void @_ZN7content19WebContentsObserver17OnCookiesAccessedEPNS_16NavigationHandleERKNS_19CookieAccessDetailsE(%"class.content::WebContentsObserver"*, %"class.content::NavigationHandle"*, %"struct.content::CookieAccessDetails"* dereferenceable(280)) unnamed_addr #0 comdat align 2 {
  ret void
}

; Function Attrs: nounwind ssp uwtable
define linkonce_odr hidden void @_ZN7content19WebContentsObserver24NavigationEntryCommittedERKNS_20LoadCommittedDetailsE(%"class.content::WebContentsObserver"*, %"struct.content::LoadCommittedDetails"* dereferenceable(144)) unnamed_addr #0 comdat align 2 {
  ret void
}

; Function Attrs: nounwind ssp uwtable
define linkonce_odr hidden void @_ZN7content19WebContentsObserver20NavigationListPrunedERKNS_13PrunedDetailsE(%"class.content::WebContentsObserver"*, %"struct.content::PrunedDetails"* dereferenceable(8)) unnamed_addr #0 comdat align 2 {
  ret void
}

; Function Attrs: nounwind ssp uwtable
define linkonce_odr hidden void @_ZN7content19WebContentsObserver24NavigationEntriesDeletedEv(%"class.content::WebContentsObserver"*) unnamed_addr #0 comdat align 2 {
  ret void
}

; Function Attrs: nounwind ssp uwtable
define linkonce_odr hidden void @_ZN7content19WebContentsObserver22NavigationEntryChangedERKNS_19EntryChangedDetailsE(%"class.content::WebContentsObserver"*, %"struct.content::EntryChangedDetails"* dereferenceable(16)) unnamed_addr #0 comdat align 2 {
  ret void
}

; Function Attrs: nounwind ssp uwtable
define linkonce_odr hidden void @_ZN7content19WebContentsObserver19DidOpenRequestedURLEPNS_11WebContentsEPNS_15RenderFrameHostERK4GURLRKNS_8ReferrerE21WindowOpenDispositionN2ui14PageTransitionEbb(%"class.content::WebContentsObserver"*, %"class.content::WebContents"*, %"class.content::RenderFrameHost"*, %class.GURL* dereferenceable(120), %"struct.content::Referrer"* dereferenceable(128), i32, i32, i1 zeroext, i1 zeroext) unnamed_addr #0 comdat align 2 {
  ret void
}

; Function Attrs: nounwind ssp uwtable
define linkonce_odr hidden void @_ZN7content19WebContentsObserver29DidFirstVisuallyNonEmptyPaintEv(%"class.content::WebContentsObserver"*) unnamed_addr #0 comdat align 2 {
  ret void
}

; Function Attrs: nounwind ssp uwtable
define linkonce_odr hidden void @_ZN7content19WebContentsObserver17NavigationStoppedEv(%"class.content::WebContentsObserver"*) unnamed_addr #0 comdat align 2 {
  ret void
}

; Function Attrs: nounwind ssp uwtable
define linkonce_odr hidden void @_ZN7content19WebContentsObserver21DidGetUserInteractionERKN5blink13WebInputEventE(%"class.content::WebContentsObserver"*, %"class.blink::WebInputEvent"* dereferenceable(40)) unnamed_addr #0 comdat align 2 {
  ret void
}

; Function Attrs: nounwind ssp uwtable
define linkonce_odr hidden void @_ZN7content19WebContentsObserver20DidGetIgnoredUIEventEv(%"class.content::WebContentsObserver"*) unnamed_addr #0 comdat align 2 {
  ret void
}

; Function Attrs: nounwind ssp uwtable
define linkonce_odr hidden void @_ZN7content19WebContentsObserver19OnVisibilityChangedENS_10VisibilityE(%"class.content::WebContentsObserver"*, i32) unnamed_addr #0 comdat align 2 {
  ret void
}

; Function Attrs: nounwind ssp uwtable
define linkonce_odr hidden void @_ZN7content19WebContentsObserver19MainFrameWasResizedEb(%"class.content::WebContentsObserver"*, i1 zeroext) unnamed_addr #0 comdat align 2 {
  ret void
}

; Function Attrs: nounwind ssp uwtable
define linkonce_odr hidden void @_ZN7content19WebContentsObserver16FrameNameChangedEPNS_15RenderFrameHostERKNSt3__112basic_stringIcNS3_11char_traitsIcEENS3_9allocatorIcEEEE(%"class.content::WebContentsObserver"*, %"class.content::RenderFrameHost"*, %"class.std::__1::basic_string"* dereferenceable(24)) unnamed_addr #0 comdat align 2 {
  ret void
}

; Function Attrs: nounwind ssp uwtable
define linkonce_odr hidden void @_ZN7content19WebContentsObserver27FrameReceivedUserActivationEPNS_15RenderFrameHostE(%"class.content::WebContentsObserver"*, %"class.content::RenderFrameHost"*) unnamed_addr #0 comdat align 2 {
  ret void
}

; Function Attrs: nounwind ssp uwtable
define linkonce_odr hidden void @_ZN7content19WebContentsObserver24FrameDisplayStateChangedEPNS_15RenderFrameHostEb(%"class.content::WebContentsObserver"*, %"class.content::RenderFrameHost"*, i1 zeroext) unnamed_addr #0 comdat align 2 {
  ret void
}

; Function Attrs: nounwind ssp uwtable
define linkonce_odr hidden void @_ZN7content19WebContentsObserver16FrameSizeChangedEPNS_15RenderFrameHostERKN3gfx4SizeE(%"class.content::WebContentsObserver"*, %"class.content::RenderFrameHost"*, %"class.gfx::Size"* dereferenceable(8)) unnamed_addr #0 comdat align 2 {
  ret void
}

; Function Attrs: nounwind ssp uwtable
define linkonce_odr hidden void @_ZN7content19WebContentsObserver11TitleWasSetEPNS_15NavigationEntryE(%"class.content::WebContentsObserver"*, %"class.content::NavigationEntry"*) unnamed_addr #0 comdat align 2 {
  ret void
}

; Function Attrs: nounwind ssp uwtable
define linkonce_odr hidden void @_ZN7content19WebContentsObserver16AppCacheAccessedERK4GURLb(%"class.content::WebContentsObserver"*, %class.GURL* dereferenceable(120), i1 zeroext) unnamed_addr #0 comdat align 2 {
  ret void
}

; Function Attrs: nounwind ssp uwtable
define linkonce_odr hidden void @_ZN7content19WebContentsObserver21PepperInstanceCreatedEv(%"class.content::WebContentsObserver"*) unnamed_addr #0 comdat align 2 {
  ret void
}

; Function Attrs: nounwind ssp uwtable
define linkonce_odr hidden void @_ZN7content19WebContentsObserver21PepperInstanceDeletedEv(%"class.content::WebContentsObserver"*) unnamed_addr #0 comdat align 2 {
  ret void
}

; Function Attrs: nounwind ssp uwtable
define linkonce_odr hidden void @_ZN7content19WebContentsObserver18ViewportFitChangedEN5blink5mojom11ViewportFitE(%"class.content::WebContentsObserver"*, i32) unnamed_addr #0 comdat align 2 {
  ret void
}

; Function Attrs: nounwind ssp uwtable
define linkonce_odr hidden void @_ZN7content19WebContentsObserver13PluginCrashedERKN4base8FilePathEi(%"class.content::WebContentsObserver"*, %"class.base::FilePath"* dereferenceable(24), i32) unnamed_addr #0 comdat align 2 {
  ret void
}

; Function Attrs: nounwind ssp uwtable
define linkonce_odr hidden void @_ZN7content19WebContentsObserver23PluginHungStatusChangedEiRKN4base8FilePathEb(%"class.content::WebContentsObserver"*, i32, %"class.base::FilePath"* dereferenceable(24), i1 zeroext) unnamed_addr #0 comdat align 2 {
  ret void
}

; Function Attrs: nounwind ssp uwtable
define linkonce_odr hidden void @_ZN7content19WebContentsObserver23InnerWebContentsCreatedEPNS_11WebContentsE(%"class.content::WebContentsObserver"*, %"class.content::WebContents"*) unnamed_addr #0 comdat align 2 {
  ret void
}

; Function Attrs: nounwind ssp uwtable
define linkonce_odr hidden void @_ZN7content19WebContentsObserver24InnerWebContentsAttachedEPNS_11WebContentsEPNS_15RenderFrameHostEb(%"class.content::WebContentsObserver"*, %"class.content::WebContents"*, %"class.content::RenderFrameHost"*, i1 zeroext) unnamed_addr #0 comdat align 2 {
  ret void
}

; Function Attrs: nounwind ssp uwtable
define linkonce_odr hidden void @_ZN7content19WebContentsObserver24InnerWebContentsDetachedEPNS_11WebContentsE(%"class.content::WebContentsObserver"*, %"class.content::WebContents"*) unnamed_addr #0 comdat align 2 {
  ret void
}

; Function Attrs: nounwind ssp uwtable
define linkonce_odr hidden void @_ZN7content19WebContentsObserver24DidCloneToNewWebContentsEPNS_11WebContentsES2_(%"class.content::WebContentsObserver"*, %"class.content::WebContents"*, %"class.content::WebContents"*) unnamed_addr #0 comdat align 2 {
  ret void
}

; Function Attrs: nounwind ssp uwtable
define linkonce_odr hidden void @_ZN7content19WebContentsObserver20WebContentsDestroyedEv(%"class.content::WebContentsObserver"*) unnamed_addr #0 comdat align 2 {
  ret void
}

; Function Attrs: nounwind ssp uwtable
define linkonce_odr hidden void @_ZN7content19WebContentsObserver20UserAgentOverrideSetERKN5blink17UserAgentOverrideE(%"class.content::WebContentsObserver"*, %"struct.blink::UserAgentOverride"* dereferenceable(184)) unnamed_addr #0 comdat align 2 {
  ret void
}

; Function Attrs: nounwind ssp uwtable
define linkonce_odr hidden void @_ZN7content19WebContentsObserver19DidUpdateFaviconURLEPNS_15RenderFrameHostERKNSt3__16vectorIN4mojo9StructPtrIN5blink5mojom10FaviconURLEEENS3_9allocatorISA_EEEE(%"class.content::WebContentsObserver"*, %"class.content::RenderFrameHost"*, %"class.std::__1::vector.338"*) unnamed_addr #0 comdat align 2 {
  ret void
}

; Function Attrs: nounwind ssp uwtable
define linkonce_odr hidden void @_ZN7content19WebContentsObserver19OnAudioStateChangedEb(%"class.content::WebContentsObserver"*, i1 zeroext) unnamed_addr #0 comdat align 2 {
  ret void
}

; Function Attrs: nounwind ssp uwtable
define linkonce_odr hidden void @_ZN7content19WebContentsObserver24OnFrameAudioStateChangedEPNS_15RenderFrameHostEb(%"class.content::WebContentsObserver"*, %"class.content::RenderFrameHost"*, i1 zeroext) unnamed_addr #0 comdat align 2 {
  ret void
}

; Function Attrs: nounwind ssp uwtable
define linkonce_odr hidden void @_ZN7content19WebContentsObserver37OnIsConnectedToBluetoothDeviceChangedEb(%"class.content::WebContentsObserver"*, i1 zeroext) unnamed_addr #0 comdat align 2 {
  ret void
}

; Function Attrs: nounwind ssp uwtable
define linkonce_odr hidden void @_ZN7content19WebContentsObserver25DidUpdateAudioMutingStateEb(%"class.content::WebContentsObserver"*, i1 zeroext) unnamed_addr #0 comdat align 2 {
  ret void
}

; Function Attrs: nounwind ssp uwtable
define linkonce_odr hidden void @_ZN7content19WebContentsObserver29DidToggleFullscreenModeForTabEbb(%"class.content::WebContentsObserver"*, i1 zeroext, i1 zeroext) unnamed_addr #0 comdat align 2 {
  ret void
}

; Function Attrs: nounwind ssp uwtable
define linkonce_odr hidden void @_ZN7content19WebContentsObserver20DidAcquireFullscreenEPNS_15RenderFrameHostE(%"class.content::WebContentsObserver"*, %"class.content::RenderFrameHost"*) unnamed_addr #0 comdat align 2 {
  ret void
}

; Function Attrs: nounwind ssp uwtable
define linkonce_odr hidden void @_ZN7content19WebContentsObserver32DidChangeVerticalScrollDirectionEN3viz23VerticalScrollDirectionE(%"class.content::WebContentsObserver"*, i32) unnamed_addr #0 comdat align 2 {
  ret void
}

; Function Attrs: nounwind ssp uwtable
define linkonce_odr hidden void @_ZN7content19WebContentsObserver27BeforeFormRepostWarningShowEv(%"class.content::WebContentsObserver"*) unnamed_addr #0 comdat align 2 {
  ret void
}

; Function Attrs: nounwind ssp uwtable
define linkonce_odr hidden void @_ZN7content19WebContentsObserver17BeforeUnloadFiredEbRKN4base9TimeTicksE(%"class.content::WebContentsObserver"*, i1 zeroext, %"class.base::TimeTicks"* dereferenceable(8)) unnamed_addr #0 comdat align 2 {
  ret void
}

; Function Attrs: nounwind ssp uwtable
define linkonce_odr hidden void @_ZN7content19WebContentsObserver27BeforeUnloadDialogCancelledEv(%"class.content::WebContentsObserver"*) unnamed_addr #0 comdat align 2 {
  ret void
}

; Function Attrs: nounwind ssp uwtable
define linkonce_odr hidden void @_ZN7content19WebContentsObserver30AXTreeIDForMainFrameHasChangedEv(%"class.content::WebContentsObserver"*) unnamed_addr #0 comdat align 2 {
  ret void
}

; Function Attrs: nounwind ssp uwtable
define linkonce_odr hidden void @_ZN7content19WebContentsObserver26AccessibilityEventReceivedERKNS_26AXEventNotificationDetailsE(%"class.content::WebContentsObserver"*, %"struct.content::AXEventNotificationDetails"*) unnamed_addr #0 comdat align 2 {
  ret void
}

; Function Attrs: nounwind ssp uwtable
define linkonce_odr hidden void @_ZN7content19WebContentsObserver36AccessibilityLocationChangesReceivedERKNSt3__16vectorINS_35AXLocationChangeNotificationDetailsENS1_9allocatorIS3_EEEE(%"class.content::WebContentsObserver"*, %"class.std::__1::vector.339"*) unnamed_addr #0 comdat align 2 {
  ret void
}

; Function Attrs: nounwind ssp uwtable
define linkonce_odr hidden void @_ZN7content19WebContentsObserver19DidChangeThemeColorEv(%"class.content::WebContentsObserver"*) unnamed_addr #0 comdat align 2 {
  ret void
}

; Function Attrs: nounwind ssp uwtable
define linkonce_odr hidden void @_ZN7content19WebContentsObserver24OnBackgroundColorChangedEv(%"class.content::WebContentsObserver"*) unnamed_addr #0 comdat align 2 {
  ret void
}

; Function Attrs: nounwind ssp uwtable
define linkonce_odr hidden void @_ZN7content19WebContentsObserver24OnDidAddMessageToConsoleEPNS_15RenderFrameHostEN5blink5mojom19ConsoleMessageLevelERKNSt3__112basic_stringIDsNS6_11char_traitsIDsEENS6_9allocatorIDsEEEEiSE_RKN4absl8optionalISC_EE(%"class.content::WebContentsObserver"*, %"class.content::RenderFrameHost"*, i32, %"class.std::__1::basic_string.340"* dereferenceable(24), i32, %"class.std::__1::basic_string.340"* dereferenceable(24), %"class.absl::optional.349"*) unnamed_addr #0 comdat align 2 {
  ret void
}

; Function Attrs: nounwind ssp uwtable
define linkonce_odr hidden void @_ZN7content19WebContentsObserver19MediaStartedPlayingERKNS0_15MediaPlayerInfoERKNS_13MediaPlayerIdE(%"class.content::WebContentsObserver"*, %"struct.content::WebContentsObserver::MediaPlayerInfo"* dereferenceable(2), %"struct.content::MediaPlayerId"*) unnamed_addr #0 comdat align 2 {
  ret void
}

; Function Attrs: nounwind ssp uwtable
define linkonce_odr hidden void @_ZN7content19WebContentsObserver19MediaStoppedPlayingERKNS0_15MediaPlayerInfoERKNS_13MediaPlayerIdENS0_18MediaStoppedReasonE(%"class.content::WebContentsObserver"*, %"struct.content::WebContentsObserver::MediaPlayerInfo"* dereferenceable(2), %"struct.content::MediaPlayerId"*, i32) unnamed_addr #0 comdat align 2 {
  ret void
}

; Function Attrs: nounwind ssp uwtable
define linkonce_odr hidden void @_ZN7content19WebContentsObserver12MediaResizedERKN3gfx4SizeERKNS_13MediaPlayerIdE(%"class.content::WebContentsObserver"*, %"class.gfx::Size"* dereferenceable(8), %"struct.content::MediaPlayerId"*) unnamed_addr #0 comdat align 2 {
  ret void
}

; Function Attrs: nounwind ssp uwtable
define linkonce_odr hidden void @_ZN7content19WebContentsObserver33MediaEffectivelyFullscreenChangedEb(%"class.content::WebContentsObserver"*, i1 zeroext) unnamed_addr #0 comdat align 2 {
  ret void
}

; Function Attrs: nounwind ssp uwtable
define linkonce_odr hidden void @_ZN7content19WebContentsObserver28MediaPictureInPictureChangedEb(%"class.content::WebContentsObserver"*, i1 zeroext) unnamed_addr #0 comdat align 2 {
  ret void
}

; Function Attrs: nounwind ssp uwtable
define linkonce_odr hidden void @_ZN7content19WebContentsObserver23MediaMutedStatusChangedERKNS_13MediaPlayerIdEb(%"class.content::WebContentsObserver"*, %"struct.content::MediaPlayerId"*, i1 zeroext) unnamed_addr #0 comdat align 2 {
  ret void
}

; Function Attrs: nounwind ssp uwtable
define linkonce_odr hidden void @_ZN7content19WebContentsObserver20MediaBufferUnderflowERKNS_13MediaPlayerIdE(%"class.content::WebContentsObserver"*, %"struct.content::MediaPlayerId"*) unnamed_addr #0 comdat align 2 {
  ret void
}

; Function Attrs: nounwind ssp uwtable
define linkonce_odr hidden void @_ZN7content19WebContentsObserver15MediaPlayerSeekERKNS_13MediaPlayerIdE(%"class.content::WebContentsObserver"*, %"struct.content::MediaPlayerId"*) unnamed_addr #0 comdat align 2 {
  ret void
}

; Function Attrs: nounwind ssp uwtable
define linkonce_odr hidden void @_ZN7content19WebContentsObserver14MediaDestroyedERKNS_13MediaPlayerIdE(%"class.content::WebContentsObserver"*, %"struct.content::MediaPlayerId"*) unnamed_addr #0 comdat align 2 {
  ret void
}

; Function Attrs: nounwind ssp uwtable
define linkonce_odr hidden void @_ZN7content19WebContentsObserver24OnPageScaleFactorChangedEf(%"class.content::WebContentsObserver"*, float) unnamed_addr #0 comdat align 2 {
  ret void
}

; Function Attrs: nounwind ssp uwtable
define linkonce_odr hidden void @_ZN7content19WebContentsObserver7OnPasteEv(%"class.content::WebContentsObserver"*) unnamed_addr #0 comdat align 2 {
  ret void
}

declare zeroext i1 @_ZN7content19WebContentsObserver17OnMessageReceivedERKN3IPC7MessageEPNS_15RenderFrameHostE(%"class.content::WebContentsObserver"*, %"class.IPC::Message"* dereferenceable(56), %"class.content::RenderFrameHost"*) unnamed_addr #1

; Function Attrs: nounwind ssp uwtable
define linkonce_odr hidden void @_ZN7content19WebContentsObserver20OnWebContentsFocusedEPNS_16RenderWidgetHostE(%"class.content::WebContentsObserver"*, %"class.content::RenderWidgetHost"*) unnamed_addr #0 comdat align 2 {
  ret void
}

; Function Attrs: nounwind ssp uwtable
define linkonce_odr hidden void @_ZN7content19WebContentsObserver22OnWebContentsLostFocusEPNS_16RenderWidgetHostE(%"class.content::WebContentsObserver"*, %"class.content::RenderWidgetHost"*) unnamed_addr #0 comdat align 2 {
  ret void
}

; Function Attrs: nounwind ssp uwtable
define linkonce_odr hidden void @_ZN7content19WebContentsObserver20OnFocusChangedInPageEPNS_18FocusedNodeDetailsE(%"class.content::WebContentsObserver"*, %"struct.content::FocusedNodeDetails"*) unnamed_addr #0 comdat align 2 {
  ret void
}

; Function Attrs: nounwind ssp uwtable
define linkonce_odr hidden void @_ZN7content19WebContentsObserver23DidUpdateWebManifestURLEPNS_15RenderFrameHostERKN4absl8optionalI4GURLEE(%"class.content::WebContentsObserver"*, %"class.content::RenderFrameHost"*, %"class.absl::optional.350"* dereferenceable(128)) unnamed_addr #0 comdat align 2 {
  ret void
}

; Function Attrs: nounwind ssp uwtable
define linkonce_odr hidden void @_ZN7content19WebContentsObserver27OnInterfaceRequestFromFrameEPNS_15RenderFrameHostERKNSt3__112basic_stringIcNS3_11char_traitsIcEENS3_9allocatorIcEEEEPN4mojo16ScopedHandleBaseINSC_17MessagePipeHandleEEE(%"class.content::WebContentsObserver"*, %"class.content::RenderFrameHost"*, %"class.std::__1::basic_string"* dereferenceable(24), %"class.mojo::ScopedHandleBase"*) unnamed_addr #0 comdat align 2 {
  ret void
}

; Function Attrs: nounwind ssp uwtable
define linkonce_odr hidden void @_ZN7content19WebContentsObserver27AudioContextPlaybackStartedERKNSt3__14pairIPNS_15RenderFrameHostEiEE(%"class.content::WebContentsObserver"*, %"struct.std::__1::pair.355"*) unnamed_addr #0 comdat align 2 {
  ret void
}

; Function Attrs: nounwind ssp uwtable
define linkonce_odr hidden void @_ZN7content19WebContentsObserver27AudioContextPlaybackStoppedERKNSt3__14pairIPNS_15RenderFrameHostEiEE(%"class.content::WebContentsObserver"*, %"struct.std::__1::pair.355"*) unnamed_addr #0 comdat align 2 {
  ret void
}

; Function Attrs: nounwind ssp uwtable
define linkonce_odr hidden void @_ZN7content19WebContentsObserver23OnServiceWorkerAccessedEPNS_15RenderFrameHostERK4GURLNS_24AllowServiceWorkerResultE(%"class.content::WebContentsObserver"*, %"class.content::RenderFrameHost"*, %class.GURL* dereferenceable(120), i24) unnamed_addr #0 comdat align 2 {
  ret void
}

; Function Attrs: nounwind ssp uwtable
define linkonce_odr hidden void @_ZN7content19WebContentsObserver23OnServiceWorkerAccessedEPNS_16NavigationHandleERK4GURLNS_24AllowServiceWorkerResultE(%"class.content::WebContentsObserver"*, %"class.content::NavigationHandle"*, %class.GURL* dereferenceable(120), i24) unnamed_addr #0 comdat align 2 {
  ret void
}

; Function Attrs: nounwind ssp uwtable
define linkonce_odr hidden void @_ZN5blink5mojom19PresentationServiceD2Ev(%"class.blink::mojom::PresentationService"*) unnamed_addr #0 comdat align 2 {
  ret void
}

; Function Attrs: nounwind ssp uwtable
define linkonce_odr hidden void @_ZN5blink5mojom19PresentationServiceD0Ev(%"class.blink::mojom::PresentationService"*) unnamed_addr #0 comdat align 2 {
  tail call void @llvm.trap() #17
  unreachable
}

declare void @__cxa_pure_virtual() unnamed_addr

; Function Attrs: cold noreturn nounwind
declare void @llvm.trap() #9

declare void @_ZN4mojo8internal21InterfacePtrStateBaseC2Ev(%"class.mojo::internal::InterfacePtrStateBase"*) unnamed_addr #1

declare void @_ZN4mojo16ReceiverSetStateC1Ev(%"class.mojo::ReceiverSetState"*) unnamed_addr #1

; Function Attrs: nounwind
declare void @_ZN4mojo16ReceiverSetStateD1Ev(%"class.mojo::ReceiverSetState"*) unnamed_addr #3

; Function Attrs: nounwind
declare void @_ZN4mojo8internal21InterfacePtrStateBaseD2Ev(%"class.mojo::internal::InterfacePtrStateBase"*) unnamed_addr #3

; Function Attrs: nounwind
declare void @_ZN4mojo8internal20PendingReceiverStateC1EOS1_(%"struct.mojo::internal::PendingReceiverState"*, %"struct.mojo::internal::PendingReceiverState"* dereferenceable(24)) unnamed_addr #3

; Function Attrs: nounwind
declare void @_ZN4mojo8internal20PendingReceiverStateD1Ev(%"struct.mojo::internal::PendingReceiverState"*) unnamed_addr #3

; Function Attrs: nounwind
declare void @_ZN4mojo8internal18PendingRemoteStateC1EOS1_(%"struct.mojo::internal::PendingRemoteState"*, %"struct.mojo::internal::PendingRemoteState"* dereferenceable(8)) unnamed_addr #3

; Function Attrs: nounwind
declare void @_ZN4mojo8internal18PendingRemoteStateD1Ev(%"struct.mojo::internal::PendingRemoteState"*) unnamed_addr #3

; Function Attrs: nounwind ssp uwtable
define linkonce_odr hidden void @_ZN5blink5mojom17PresentationError3NewIJNS0_21PresentationErrorTypeERA69_KcEEEN4mojo16InlinedStructPtrIS1_EEDpOT_(%"class.mojo::InlinedStructPtr"* noalias sret, i32* dereferenceable(4), [69 x i8]* dereferenceable(69)) local_unnamed_addr #0 comdat align 2 {
  %4 = alloca %"class.std::__1::basic_string", align 8
  %5 = getelementptr inbounds %"class.mojo::InlinedStructPtr", %"class.mojo::InlinedStructPtr"* %0, i64 0, i32 0
  %6 = load i32, i32* %1, align 4
  %7 = bitcast %"class.std::__1::basic_string"* %4 to i8*
  call void @llvm.lifetime.start.p0i8(i64 24, i8* nonnull %7) #15
  %8 = getelementptr inbounds [69 x i8], [69 x i8]* %2, i64 0, i64 0
  %9 = tail call i64 @strlen(i8* %8) #15
  %10 = icmp ugt i64 %9, -17
  br i1 %10, label %11, label %13

11:                                               ; preds = %3
  %12 = bitcast %"class.std::__1::basic_string"* %4 to %"class.std::__1::__basic_string_common"*
  call void @_ZNKSt3__121__basic_string_commonILb1EE20__throw_length_errorEv(%"class.std::__1::__basic_string_common"* nonnull %12) #17
  unreachable

13:                                               ; preds = %3
  %14 = icmp ult i64 %9, 23
  br i1 %14, label %24, label %15

15:                                               ; preds = %13
  %16 = add nuw i64 %9, 16
  %17 = and i64 %16, -16
  %18 = tail call i8* @_Znwm(i64 %17) #16
  %19 = getelementptr inbounds %"class.std::__1::basic_string", %"class.std::__1::basic_string"* %4, i64 0, i32 0, i32 0, i32 0, i32 0, i32 0, i32 0
  store i8* %18, i8** %19, align 8
  %20 = or i64 %17, -9223372036854775808
  %21 = getelementptr inbounds %"class.std::__1::basic_string", %"class.std::__1::basic_string"* %4, i64 0, i32 0, i32 0, i32 0, i32 0, i32 0, i32 2
  store i64 %20, i64* %21, align 8
  %22 = getelementptr inbounds %"class.std::__1::basic_string", %"class.std::__1::basic_string"* %4, i64 0, i32 0, i32 0, i32 0, i32 0, i32 0, i32 1
  store i64 %9, i64* %22, align 8
  %23 = bitcast %"class.std::__1::basic_string"* %4 to %"struct.std::__1::basic_string<char, std::__1::char_traits<char>, std::__1::allocator<char> >::__short"*
  br label %29

24:                                               ; preds = %13
  %25 = trunc i64 %9 to i8
  %26 = bitcast %"class.std::__1::basic_string"* %4 to %"struct.std::__1::basic_string<char, std::__1::char_traits<char>, std::__1::allocator<char> >::__short"*
  %27 = getelementptr inbounds %"struct.std::__1::basic_string<char, std::__1::char_traits<char>, std::__1::allocator<char> >::__short", %"struct.std::__1::basic_string<char, std::__1::char_traits<char>, std::__1::allocator<char> >::__short"* %26, i64 0, i32 1, i32 0
  store i8 %25, i8* %27, align 1
  %28 = icmp eq i64 %9, 0
  br i1 %28, label %32, label %29

29:                                               ; preds = %24, %15
  %30 = phi %"struct.std::__1::basic_string<char, std::__1::char_traits<char>, std::__1::allocator<char> >::__short"* [ %26, %24 ], [ %23, %15 ]
  %31 = phi i8* [ %7, %24 ], [ %18, %15 ]
  call void @llvm.memcpy.p0i8.p0i8.i64(i8* nonnull align 1 %31, i8* align 1 %8, i64 %9, i1 false) #15
  br label %32

32:                                               ; preds = %24, %29
  %33 = phi %"struct.std::__1::basic_string<char, std::__1::char_traits<char>, std::__1::allocator<char> >::__short"* [ %26, %24 ], [ %30, %29 ]
  %34 = phi i8* [ %7, %24 ], [ %31, %29 ]
  %35 = getelementptr inbounds i8, i8* %34, i64 %9
  store i8 0, i8* %35, align 1
  call void @_ZN5blink5mojom17PresentationErrorC1ENS0_21PresentationErrorTypeERKNSt3__112basic_stringIcNS3_11char_traitsIcEENS3_9allocatorIcEEEE(%"class.blink::mojom::PresentationError"* %5, i32 %6, %"class.std::__1::basic_string"* nonnull dereferenceable(24) %4) #15
  %36 = getelementptr inbounds %"struct.std::__1::basic_string<char, std::__1::char_traits<char>, std::__1::allocator<char> >::__short", %"struct.std::__1::basic_string<char, std::__1::char_traits<char>, std::__1::allocator<char> >::__short"* %33, i64 0, i32 1, i32 0
  %37 = load i8, i8* %36, align 1
  %38 = icmp slt i8 %37, 0
  br i1 %38, label %39, label %42

39:                                               ; preds = %32
  %40 = getelementptr inbounds %"class.std::__1::basic_string", %"class.std::__1::basic_string"* %4, i64 0, i32 0, i32 0, i32 0, i32 0, i32 0, i32 0
  %41 = load i8*, i8** %40, align 8
  call void @_ZdlPv(i8* %41) #16
  br label %42

42:                                               ; preds = %32, %39
  call void @llvm.lifetime.end.p0i8(i64 24, i8* nonnull %7) #15
  %43 = getelementptr inbounds %"class.mojo::InlinedStructPtr", %"class.mojo::InlinedStructPtr"* %0, i64 0, i32 1
  store i32 1, i32* %43, align 8
  ret void
}

declare void @_ZN5blink5mojom17PresentationErrorC1ENS0_21PresentationErrorTypeERKNSt3__112basic_stringIcNS3_11char_traitsIcEENS3_9allocatorIcEEEE(%"class.blink::mojom::PresentationError"*, i32, %"class.std::__1::basic_string"* dereferenceable(24)) unnamed_addr #1

; Function Attrs: nounwind
declare void @_ZN5blink5mojom17PresentationErrorD1Ev(%"class.blink::mojom::PresentationError"*) unnamed_addr #3

; Function Attrs: nounwind
declare void @_ZN5blink5mojom28PresentationConnectionResultD1Ev(%"class.blink::mojom::PresentationConnectionResult"*) unnamed_addr #3

declare void @_ZNSt3__112basic_stringIcNS_11char_traitsIcEENS_9allocatorIcEEE25__init_copy_ctor_externalEPKcm(%"class.std::__1::basic_string"*, i8*, i64) local_unnamed_addr #1

; Function Attrs: noreturn
declare void @_ZNKSt3__121__basic_string_commonILb1EE20__throw_length_errorEv(%"class.std::__1::__basic_string_common"*) local_unnamed_addr #10

; Function Attrs: noreturn nounwind
declare void @abort() local_unnamed_addr #11

; Function Attrs: argmemonly nofree nounwind readonly
declare i64 @strlen(i8* nocapture) local_unnamed_addr #12

declare void @_ZN4base8internal18WeakPtrFactoryBaseC2Em(%"class.base::internal::WeakPtrFactoryBase"*, i64) unnamed_addr #1

declare void @_ZN5blink5mojom17PresentationErrorC1Ev(%"class.blink::mojom::PresentationError"*) unnamed_addr #1

; Function Attrs: inlinehint nounwind ssp uwtable
define linkonce_odr hidden void @_ZNSt3__14swapIN5blink5mojom17PresentationErrorEEENS_9enable_ifIXaasr21is_move_constructibleIT_EE5valuesr18is_move_assignableIS5_EE5valueEvE4typeERS5_S8_(%"class.blink::mojom::PresentationError"* dereferenceable(32), %"class.blink::mojom::PresentationError"* dereferenceable(32)) local_unnamed_addr #13 comdat {
  %3 = alloca %"class.blink::mojom::PresentationError", align 8
  %4 = bitcast %"class.blink::mojom::PresentationError"* %3 to i8*
  call void @llvm.lifetime.start.p0i8(i64 32, i8* nonnull %4) #15
  call void @llvm.memset.p0i8.i64(i8* nonnull align 8 %4, i8 -86, i64 32, i1 false)
  %5 = getelementptr inbounds %"class.blink::mojom::PresentationError", %"class.blink::mojom::PresentationError"* %3, i64 0, i32 0
  %6 = getelementptr inbounds %"class.blink::mojom::PresentationError", %"class.blink::mojom::PresentationError"* %0, i64 0, i32 0
  %7 = load i32, i32* %6, align 8
  store i32 %7, i32* %5, align 8
  %8 = getelementptr inbounds %"class.blink::mojom::PresentationError", %"class.blink::mojom::PresentationError"* %3, i64 0, i32 1
  %9 = getelementptr inbounds %"class.blink::mojom::PresentationError", %"class.blink::mojom::PresentationError"* %0, i64 0, i32 1
  %10 = bitcast %"class.std::__1::basic_string"* %9 to %"struct.std::__1::basic_string<char, std::__1::char_traits<char>, std::__1::allocator<char> >::__short"*
  %11 = getelementptr inbounds %"struct.std::__1::basic_string<char, std::__1::char_traits<char>, std::__1::allocator<char> >::__short", %"struct.std::__1::basic_string<char, std::__1::char_traits<char>, std::__1::allocator<char> >::__short"* %10, i64 0, i32 1, i32 0
  %12 = load i8, i8* %11, align 1
  %13 = icmp slt i8 %12, 0
  br i1 %13, label %17, label %14

14:                                               ; preds = %2
  %15 = bitcast %"class.std::__1::basic_string"* %8 to i8*
  %16 = bitcast %"class.std::__1::basic_string"* %9 to i8*
  call void @llvm.memcpy.p0i8.p0i8.i64(i8* align 8 %15, i8* align 8 %16, i64 24, i1 false) #15
  br label %22

17:                                               ; preds = %2
  %18 = getelementptr inbounds %"class.std::__1::basic_string", %"class.std::__1::basic_string"* %9, i64 0, i32 0, i32 0, i32 0, i32 0, i32 0, i32 0
  %19 = load i8*, i8** %18, align 8
  %20 = getelementptr inbounds %"class.blink::mojom::PresentationError", %"class.blink::mojom::PresentationError"* %0, i64 0, i32 1, i32 0, i32 0, i32 0, i32 0, i32 0, i32 1
  %21 = load i64, i64* %20, align 8
  call void @_ZNSt3__112basic_stringIcNS_11char_traitsIcEENS_9allocatorIcEEE25__init_copy_ctor_externalEPKcm(%"class.std::__1::basic_string"* %8, i8* %19, i64 %21) #15
  br label %22

22:                                               ; preds = %14, %17
  %23 = getelementptr inbounds %"class.blink::mojom::PresentationError", %"class.blink::mojom::PresentationError"* %1, i64 0, i32 0
  %24 = load i32, i32* %23, align 8
  store i32 %24, i32* %6, align 8
  %25 = getelementptr inbounds %"class.blink::mojom::PresentationError", %"class.blink::mojom::PresentationError"* %1, i64 0, i32 1
  %26 = icmp eq %"class.blink::mojom::PresentationError"* %0, %1
  br i1 %26, label %54, label %27

27:                                               ; preds = %22
  %28 = load i8, i8* %11, align 1
  %29 = icmp slt i8 %28, 0
  %30 = bitcast %"class.std::__1::basic_string"* %25 to %"struct.std::__1::basic_string<char, std::__1::char_traits<char>, std::__1::allocator<char> >::__short"*
  %31 = getelementptr inbounds %"struct.std::__1::basic_string<char, std::__1::char_traits<char>, std::__1::allocator<char> >::__short", %"struct.std::__1::basic_string<char, std::__1::char_traits<char>, std::__1::allocator<char> >::__short"* %30, i64 0, i32 1, i32 0
  %32 = load i8, i8* %31, align 1
  %33 = icmp slt i8 %32, 0
  br i1 %29, label %44, label %34

34:                                               ; preds = %27
  br i1 %33, label %38, label %35

35:                                               ; preds = %34
  %36 = bitcast %"class.std::__1::basic_string"* %9 to i8*
  %37 = bitcast %"class.std::__1::basic_string"* %25 to i8*
  call void @llvm.memcpy.p0i8.p0i8.i64(i8* align 8 %36, i8* align 8 %37, i64 24, i1 false) #15
  br label %54

38:                                               ; preds = %34
  %39 = getelementptr inbounds %"class.std::__1::basic_string", %"class.std::__1::basic_string"* %25, i64 0, i32 0, i32 0, i32 0, i32 0, i32 0, i32 0
  %40 = load i8*, i8** %39, align 8
  %41 = getelementptr inbounds %"class.blink::mojom::PresentationError", %"class.blink::mojom::PresentationError"* %1, i64 0, i32 1, i32 0, i32 0, i32 0, i32 0, i32 0, i32 1
  %42 = load i64, i64* %41, align 8
  %43 = call dereferenceable(24) %"class.std::__1::basic_string"* @_ZNSt3__112basic_stringIcNS_11char_traitsIcEENS_9allocatorIcEEE17__assign_no_aliasILb1EEERS5_PKcm(%"class.std::__1::basic_string"* %9, i8* %40, i64 %42) #15
  br label %54

44:                                               ; preds = %27
  %45 = getelementptr inbounds %"class.std::__1::basic_string", %"class.std::__1::basic_string"* %25, i64 0, i32 0, i32 0, i32 0, i32 0, i32 0, i32 0
  %46 = load i8*, i8** %45, align 8
  %47 = getelementptr inbounds %"class.blink::mojom::PresentationError", %"class.blink::mojom::PresentationError"* %1, i64 0, i32 1, i32 0, i32 0, i32 0, i32 0, i32 0, i32 1
  %48 = load i64, i64* %47, align 8
  %49 = bitcast %"class.std::__1::basic_string"* %25 to i8*
  %50 = zext i8 %32 to i64
  %51 = select i1 %33, i8* %46, i8* %49
  %52 = select i1 %33, i64 %48, i64 %50
  %53 = call dereferenceable(24) %"class.std::__1::basic_string"* @_ZNSt3__112basic_stringIcNS_11char_traitsIcEENS_9allocatorIcEEE17__assign_no_aliasILb0EEERS5_PKcm(%"class.std::__1::basic_string"* %9, i8* %51, i64 %52) #15
  br label %54

54:                                               ; preds = %22, %35, %38, %44
  %55 = load i32, i32* %5, align 8
  store i32 %55, i32* %23, align 8
  %56 = icmp eq %"class.blink::mojom::PresentationError"* %3, %1
  br i1 %56, label %86, label %57

57:                                               ; preds = %54
  %58 = bitcast %"class.std::__1::basic_string"* %25 to %"struct.std::__1::basic_string<char, std::__1::char_traits<char>, std::__1::allocator<char> >::__short"*
  %59 = getelementptr inbounds %"struct.std::__1::basic_string<char, std::__1::char_traits<char>, std::__1::allocator<char> >::__short", %"struct.std::__1::basic_string<char, std::__1::char_traits<char>, std::__1::allocator<char> >::__short"* %58, i64 0, i32 1, i32 0
  %60 = load i8, i8* %59, align 1
  %61 = icmp slt i8 %60, 0
  %62 = bitcast %"class.std::__1::basic_string"* %8 to %"struct.std::__1::basic_string<char, std::__1::char_traits<char>, std::__1::allocator<char> >::__short"*
  %63 = getelementptr inbounds %"struct.std::__1::basic_string<char, std::__1::char_traits<char>, std::__1::allocator<char> >::__short", %"struct.std::__1::basic_string<char, std::__1::char_traits<char>, std::__1::allocator<char> >::__short"* %62, i64 0, i32 1, i32 0
  %64 = load i8, i8* %63, align 1
  %65 = icmp slt i8 %64, 0
  br i1 %61, label %76, label %66

66:                                               ; preds = %57
  br i1 %65, label %70, label %67

67:                                               ; preds = %66
  %68 = bitcast %"class.std::__1::basic_string"* %25 to i8*
  %69 = bitcast %"class.std::__1::basic_string"* %8 to i8*
  call void @llvm.memcpy.p0i8.p0i8.i64(i8* align 8 %68, i8* align 8 %69, i64 24, i1 false) #15
  br label %86

70:                                               ; preds = %66
  %71 = getelementptr inbounds %"class.std::__1::basic_string", %"class.std::__1::basic_string"* %8, i64 0, i32 0, i32 0, i32 0, i32 0, i32 0, i32 0
  %72 = load i8*, i8** %71, align 8
  %73 = getelementptr inbounds %"class.blink::mojom::PresentationError", %"class.blink::mojom::PresentationError"* %3, i64 0, i32 1, i32 0, i32 0, i32 0, i32 0, i32 0, i32 1
  %74 = load i64, i64* %73, align 8
  %75 = call dereferenceable(24) %"class.std::__1::basic_string"* @_ZNSt3__112basic_stringIcNS_11char_traitsIcEENS_9allocatorIcEEE17__assign_no_aliasILb1EEERS5_PKcm(%"class.std::__1::basic_string"* %25, i8* %72, i64 %74) #15
  br label %86

76:                                               ; preds = %57
  %77 = getelementptr inbounds %"class.std::__1::basic_string", %"class.std::__1::basic_string"* %8, i64 0, i32 0, i32 0, i32 0, i32 0, i32 0, i32 0
  %78 = load i8*, i8** %77, align 8
  %79 = getelementptr inbounds %"class.blink::mojom::PresentationError", %"class.blink::mojom::PresentationError"* %3, i64 0, i32 1, i32 0, i32 0, i32 0, i32 0, i32 0, i32 1
  %80 = load i64, i64* %79, align 8
  %81 = bitcast %"class.std::__1::basic_string"* %8 to i8*
  %82 = zext i8 %64 to i64
  %83 = select i1 %65, i8* %78, i8* %81
  %84 = select i1 %65, i64 %80, i64 %82
  %85 = call dereferenceable(24) %"class.std::__1::basic_string"* @_ZNSt3__112basic_stringIcNS_11char_traitsIcEENS_9allocatorIcEEE17__assign_no_aliasILb0EEERS5_PKcm(%"class.std::__1::basic_string"* %25, i8* %83, i64 %84) #15
  br label %86

86:                                               ; preds = %54, %67, %70, %76
  call void @_ZN5blink5mojom17PresentationErrorD1Ev(%"class.blink::mojom::PresentationError"* nonnull %3) #15
  call void @llvm.lifetime.end.p0i8(i64 32, i8* nonnull %4) #15
  ret void
}

declare dereferenceable(24) %"class.std::__1::basic_string"* @_ZNSt3__112basic_stringIcNS_11char_traitsIcEENS_9allocatorIcEEE17__assign_no_aliasILb1EEERS5_PKcm(%"class.std::__1::basic_string"*, i8*, i64) local_unnamed_addr #1

declare dereferenceable(24) %"class.std::__1::basic_string"* @_ZNSt3__112basic_stringIcNS_11char_traitsIcEENS_9allocatorIcEEE17__assign_no_aliasILb0EEERS5_PKcm(%"class.std::__1::basic_string"*, i8*, i64) local_unnamed_addr #1

; Function Attrs: nounwind ssp uwtable
define linkonce_odr hidden void @_ZNSt3__16__treeINS_12__value_typeI4GURLNS_10unique_ptrIN7content23PresentationServiceImpl30ScreenAvailabilityListenerImplENS_14default_deleteIS6_EEEEEENS_19__map_value_compareIS2_SA_NS_4lessIS2_EELb1EEENS_9allocatorISA_EEE7destroyEPNS_11__tree_nodeISA_PvEE(%"class.std::__1::__tree.205"*, %"class.std::__1::__tree_node"*) local_unnamed_addr #0 comdat align 2 {
  %3 = icmp eq %"class.std::__1::__tree_node"* %1, null
  br i1 %3, label %21, label %4

4:                                                ; preds = %2
  %5 = bitcast %"class.std::__1::__tree_node"* %1 to %"class.std::__1::__tree_node"**
  %6 = load %"class.std::__1::__tree_node"*, %"class.std::__1::__tree_node"** %5, align 8
  tail call void @_ZNSt3__16__treeINS_12__value_typeI4GURLNS_10unique_ptrIN7content23PresentationServiceImpl30ScreenAvailabilityListenerImplENS_14default_deleteIS6_EEEEEENS_19__map_value_compareIS2_SA_NS_4lessIS2_EELb1EEENS_9allocatorISA_EEE7destroyEPNS_11__tree_nodeISA_PvEE(%"class.std::__1::__tree.205"* %0, %"class.std::__1::__tree_node"* %6) #15
  %7 = getelementptr inbounds %"class.std::__1::__tree_node", %"class.std::__1::__tree_node"* %1, i64 0, i32 0, i32 1
  %8 = bitcast %"class.std::__1::__tree_node_base"** %7 to %"class.std::__1::__tree_node"**
  %9 = load %"class.std::__1::__tree_node"*, %"class.std::__1::__tree_node"** %8, align 8
  tail call void @_ZNSt3__16__treeINS_12__value_typeI4GURLNS_10unique_ptrIN7content23PresentationServiceImpl30ScreenAvailabilityListenerImplENS_14default_deleteIS6_EEEEEENS_19__map_value_compareIS2_SA_NS_4lessIS2_EELb1EEENS_9allocatorISA_EEE7destroyEPNS_11__tree_nodeISA_PvEE(%"class.std::__1::__tree.205"* %0, %"class.std::__1::__tree_node"* %9) #15
  %10 = getelementptr inbounds %"class.std::__1::__tree_node", %"class.std::__1::__tree_node"* %1, i64 0, i32 1, i32 0, i32 1, i32 0, i32 0, i32 0
  %11 = load %"class.content::PresentationServiceImpl::ScreenAvailabilityListenerImpl"*, %"class.content::PresentationServiceImpl::ScreenAvailabilityListenerImpl"** %10, align 8
  store %"class.content::PresentationServiceImpl::ScreenAvailabilityListenerImpl"* null, %"class.content::PresentationServiceImpl::ScreenAvailabilityListenerImpl"** %10, align 8
  %12 = icmp eq %"class.content::PresentationServiceImpl::ScreenAvailabilityListenerImpl"* %11, null
  br i1 %12, label %18, label %13

13:                                               ; preds = %4
  %14 = bitcast %"class.content::PresentationServiceImpl::ScreenAvailabilityListenerImpl"* %11 to void (%"class.content::PresentationServiceImpl::ScreenAvailabilityListenerImpl"*)***
  %15 = load void (%"class.content::PresentationServiceImpl::ScreenAvailabilityListenerImpl"*)**, void (%"class.content::PresentationServiceImpl::ScreenAvailabilityListenerImpl"*)*** %14, align 8
  %16 = getelementptr inbounds void (%"class.content::PresentationServiceImpl::ScreenAvailabilityListenerImpl"*)*, void (%"class.content::PresentationServiceImpl::ScreenAvailabilityListenerImpl"*)** %15, i64 1
  %17 = load void (%"class.content::PresentationServiceImpl::ScreenAvailabilityListenerImpl"*)*, void (%"class.content::PresentationServiceImpl::ScreenAvailabilityListenerImpl"*)** %16, align 8
  tail call void %17(%"class.content::PresentationServiceImpl::ScreenAvailabilityListenerImpl"* nonnull %11) #15
  br label %18

18:                                               ; preds = %4, %13
  %19 = getelementptr inbounds %"class.std::__1::__tree_node", %"class.std::__1::__tree_node"* %1, i64 0, i32 1, i32 0, i32 0
  tail call void @_ZN4GURLD1Ev(%class.GURL* %19) #15
  %20 = bitcast %"class.std::__1::__tree_node"* %1 to i8*
  tail call void @_ZdlPv(i8* %20) #16
  br label %21

21:                                               ; preds = %2, %18
  ret void
}

declare i64 @_ZN4mojo16ReceiverSetState3AddENSt3__110unique_ptrINS0_13ReceiverStateENS1_14default_deleteIS3_EEEE(%"class.mojo::ReceiverSetState"*, %"class.mojo::ReceiverSetState::ReceiverState"*) local_unnamed_addr #1

; Function Attrs: nounwind ssp uwtable
define linkonce_odr hidden void @_ZN4mojo8ReceiverIN5blink5mojom19PresentationServiceENS_19RawPtrImplRefTraitsIS3_EEEC2EPS3_NS_15PendingReceiverIS3_EE13scoped_refptrIN4base19SequencedTaskRunnerEE(%"class.mojo::Receiver"*, %"class.blink::mojom::PresentationService"*, %"class.mojo::PendingReceiver"*, %"class.base::SequencedTaskRunner"*) unnamed_addr #0 comdat align 2 {
  %5 = alloca %"class.mojo::PendingReceiver", align 8
  %6 = getelementptr inbounds %"class.mojo::Receiver", %"class.mojo::Receiver"* %0, i64 0, i32 0, i32 0
  tail call void @_ZN4mojo8internal16BindingStateBaseC2Ev(%"class.mojo::internal::BindingStateBase"* %6) #15
  %7 = getelementptr inbounds %"class.mojo::Receiver", %"class.mojo::Receiver"* %0, i64 0, i32 0, i32 1, i32 0, i32 0, i32 0
  store i32 (...)** bitcast (i8** getelementptr inbounds ({ [7 x i8*] }, { [7 x i8*] }* @_ZTVN5blink5mojom23PresentationServiceStubIN4mojo19RawPtrImplRefTraitsINS0_19PresentationServiceEEEEE, i64 0, inrange i32 0, i64 2) to i32 (...)**), i32 (...)*** %7, align 8
  %8 = ptrtoint %"class.blink::mojom::PresentationService"* %1 to i64
  %9 = getelementptr inbounds %"class.mojo::Receiver", %"class.mojo::Receiver"* %0, i64 0, i32 0, i32 1, i32 1
  %10 = bitcast %"class.blink::mojom::PresentationService"** %9 to i64*
  store i64 %8, i64* %10, align 8
  %11 = getelementptr inbounds %"class.mojo::PendingReceiver", %"class.mojo::PendingReceiver"* %5, i64 0, i32 0
  %12 = getelementptr inbounds %"class.mojo::PendingReceiver", %"class.mojo::PendingReceiver"* %2, i64 0, i32 0
  call void @_ZN4mojo8internal20PendingReceiverStateC1EOS1_(%"struct.mojo::internal::PendingReceiverState"* nonnull %11, %"struct.mojo::internal::PendingReceiverState"* dereferenceable(24) %12) #15
  %13 = getelementptr inbounds %"class.mojo::PendingReceiver", %"class.mojo::PendingReceiver"* %5, i64 0, i32 0, i32 0, i32 0, i32 0, i32 0
  %14 = load i32, i32* %13, align 8
  %15 = icmp eq i32 %14, 0
  br i1 %15, label %18, label %16

16:                                               ; preds = %4
  %17 = getelementptr inbounds %"class.mojo::Receiver", %"class.mojo::Receiver"* %0, i64 0, i32 0
  call void @_ZN4mojo8internal12BindingStateIN5blink5mojom19PresentationServiceENS_19RawPtrImplRefTraitsIS4_EEE4BindEPNS0_20PendingReceiverStateE13scoped_refptrIN4base19SequencedTaskRunnerEE(%"class.mojo::internal::BindingState"* %17, %"struct.mojo::internal::PendingReceiverState"* nonnull %11, %"class.base::SequencedTaskRunner"* %3) #15
  br label %28

18:                                               ; preds = %4
  call void @_ZN4mojo8internal16BindingStateBase5CloseEv(%"class.mojo::internal::BindingStateBase"* %6) #15
  %19 = icmp eq %"class.base::SequencedTaskRunner"* %3, null
  br i1 %19, label %28, label %20

20:                                               ; preds = %18
  %21 = getelementptr inbounds %"class.base::SequencedTaskRunner", %"class.base::SequencedTaskRunner"* %3, i64 0, i32 0, i32 1
  %22 = getelementptr inbounds %"class.base::RefCountedThreadSafe.6", %"class.base::RefCountedThreadSafe.6"* %21, i64 0, i32 0, i32 0, i32 0, i32 0, i32 0, i32 0, i32 0, i32 0
  %23 = atomicrmw sub i32* %22, i32 1 acq_rel
  %24 = icmp eq i32 %23, 1
  br i1 %24, label %25, label %28

25:                                               ; preds = %20
  %26 = getelementptr inbounds %"class.base::RefCountedThreadSafe.6", %"class.base::RefCountedThreadSafe.6"* %21, i64 -2
  %27 = bitcast %"class.base::RefCountedThreadSafe.6"* %26 to %"class.base::TaskRunner"*
  call void @_ZN4base16TaskRunnerTraits8DestructEPKNS_10TaskRunnerE(%"class.base::TaskRunner"* %27) #15
  br label %28

28:                                               ; preds = %25, %20, %18, %16
  call void @_ZN4mojo8internal20PendingReceiverStateD1Ev(%"struct.mojo::internal::PendingReceiverState"* nonnull %11) #15
  ret void
}

; Function Attrs: nounwind ssp uwtable
define linkonce_odr hidden void @_ZN4mojo15ReceiverSetBaseINS_8ReceiverIN5blink5mojom19PresentationServiceENS_19RawPtrImplRefTraitsIS4_EEEEvE13ReceiverEntryD2Ev(%"class.mojo::ReceiverSetBase<mojo::Receiver<blink::mojom::PresentationService, mojo::RawPtrImplRefTraits<blink::mojom::PresentationService> >, void>::ReceiverEntry"*) unnamed_addr #0 comdat align 2 {
  %2 = getelementptr inbounds %"class.mojo::ReceiverSetBase<mojo::Receiver<blink::mojom::PresentationService, mojo::RawPtrImplRefTraits<blink::mojom::PresentationService> >, void>::ReceiverEntry", %"class.mojo::ReceiverSetBase<mojo::Receiver<blink::mojom::PresentationService, mojo::RawPtrImplRefTraits<blink::mojom::PresentationService> >, void>::ReceiverEntry"* %0, i64 0, i32 0, i32 0
  store i32 (...)** bitcast (i8** getelementptr inbounds ({ [7 x i8*] }, { [7 x i8*] }* @_ZTVN4mojo15ReceiverSetBaseINS_8ReceiverIN5blink5mojom19PresentationServiceENS_19RawPtrImplRefTraitsIS4_EEEEvE13ReceiverEntryE, i64 0, inrange i32 0, i64 2) to i32 (...)**), i32 (...)*** %2, align 8
  %3 = getelementptr inbounds %"class.mojo::ReceiverSetBase<mojo::Receiver<blink::mojom::PresentationService, mojo::RawPtrImplRefTraits<blink::mojom::PresentationService> >, void>::ReceiverEntry", %"class.mojo::ReceiverSetBase<mojo::Receiver<blink::mojom::PresentationService, mojo::RawPtrImplRefTraits<blink::mojom::PresentationService> >, void>::ReceiverEntry"* %0, i64 0, i32 1, i32 0, i32 0
  tail call void @_ZN4mojo8internal16BindingStateBase5CloseEv(%"class.mojo::internal::BindingStateBase"* %3) #15
  tail call void @_ZN4mojo8internal16BindingStateBaseD2Ev(%"class.mojo::internal::BindingStateBase"* %3) #15
  ret void
}

; Function Attrs: nounwind ssp uwtable
define linkonce_odr hidden void @_ZN4mojo15ReceiverSetBaseINS_8ReceiverIN5blink5mojom19PresentationServiceENS_19RawPtrImplRefTraitsIS4_EEEEvE13ReceiverEntryD0Ev(%"class.mojo::ReceiverSetBase<mojo::Receiver<blink::mojom::PresentationService, mojo::RawPtrImplRefTraits<blink::mojom::PresentationService> >, void>::ReceiverEntry"*) unnamed_addr #0 comdat align 2 {
  %2 = getelementptr inbounds %"class.mojo::ReceiverSetBase<mojo::Receiver<blink::mojom::PresentationService, mojo::RawPtrImplRefTraits<blink::mojom::PresentationService> >, void>::ReceiverEntry", %"class.mojo::ReceiverSetBase<mojo::Receiver<blink::mojom::PresentationService, mojo::RawPtrImplRefTraits<blink::mojom::PresentationService> >, void>::ReceiverEntry"* %0, i64 0, i32 0, i32 0
  store i32 (...)** bitcast (i8** getelementptr inbounds ({ [7 x i8*] }, { [7 x i8*] }* @_ZTVN4mojo15ReceiverSetBaseINS_8ReceiverIN5blink5mojom19PresentationServiceENS_19RawPtrImplRefTraitsIS4_EEEEvE13ReceiverEntryE, i64 0, inrange i32 0, i64 2) to i32 (...)**), i32 (...)*** %2, align 8
  %3 = getelementptr inbounds %"class.mojo::ReceiverSetBase<mojo::Receiver<blink::mojom::PresentationService, mojo::RawPtrImplRefTraits<blink::mojom::PresentationService> >, void>::ReceiverEntry", %"class.mojo::ReceiverSetBase<mojo::Receiver<blink::mojom::PresentationService, mojo::RawPtrImplRefTraits<blink::mojom::PresentationService> >, void>::ReceiverEntry"* %0, i64 0, i32 1, i32 0, i32 0
  tail call void @_ZN4mojo8internal16BindingStateBase5CloseEv(%"class.mojo::internal::BindingStateBase"* %3) #15
  tail call void @_ZN4mojo8internal16BindingStateBaseD2Ev(%"class.mojo::internal::BindingStateBase"* %3) #15
  %4 = bitcast %"class.mojo::ReceiverSetBase<mojo::Receiver<blink::mojom::PresentationService, mojo::RawPtrImplRefTraits<blink::mojom::PresentationService> >, void>::ReceiverEntry"* %0 to i8*
  tail call void @_ZdlPv(i8* %4) #16
  ret void
}

; Function Attrs: nounwind ssp uwtable
define linkonce_odr hidden i8* @_ZNK4mojo15ReceiverSetBaseINS_8ReceiverIN5blink5mojom19PresentationServiceENS_19RawPtrImplRefTraitsIS4_EEEEvE13ReceiverEntry10GetContextEv(%"class.mojo::ReceiverSetBase<mojo::Receiver<blink::mojom::PresentationService, mojo::RawPtrImplRefTraits<blink::mojom::PresentationService> >, void>::ReceiverEntry"*) unnamed_addr #0 comdat align 2 {
  %2 = getelementptr inbounds %"class.mojo::ReceiverSetBase<mojo::Receiver<blink::mojom::PresentationService, mojo::RawPtrImplRefTraits<blink::mojom::PresentationService> >, void>::ReceiverEntry", %"class.mojo::ReceiverSetBase<mojo::Receiver<blink::mojom::PresentationService, mojo::RawPtrImplRefTraits<blink::mojom::PresentationService> >, void>::ReceiverEntry"* %0, i64 0, i32 2
  ret i8* %2
}

; Function Attrs: nounwind ssp uwtable
define linkonce_odr hidden void @_ZN4mojo15ReceiverSetBaseINS_8ReceiverIN5blink5mojom19PresentationServiceENS_19RawPtrImplRefTraitsIS4_EEEEvE13ReceiverEntry20InstallDispatchHooksENSt3__110unique_ptrINS_13MessageFilterENSA_14default_deleteISC_EEEEN4base17RepeatingCallbackIFvjRKNSA_12basic_stringIcNSA_11char_traitsIcEENSA_9allocatorIcEEEEEEE(%"class.mojo::ReceiverSetBase<mojo::Receiver<blink::mojom::PresentationService, mojo::RawPtrImplRefTraits<blink::mojom::PresentationService> >, void>::ReceiverEntry"*, %"class.mojo::MessageFilter"*, %"class.base::RepeatingCallback.241"*) unnamed_addr #0 comdat align 2 {
  %4 = alloca %"class.base::OnceCallback.175", align 8
  %5 = alloca %"class.base::OnceCallback.175", align 8
  %6 = alloca %"class.base::OnceCallback.175", align 8
  %7 = alloca %"class.base::RepeatingCallback.241", align 8
  %8 = getelementptr inbounds %"class.mojo::ReceiverSetBase<mojo::Receiver<blink::mojom::PresentationService, mojo::RawPtrImplRefTraits<blink::mojom::PresentationService> >, void>::ReceiverEntry", %"class.mojo::ReceiverSetBase<mojo::Receiver<blink::mojom::PresentationService, mojo::RawPtrImplRefTraits<blink::mojom::PresentationService> >, void>::ReceiverEntry"* %0, i64 0, i32 1, i32 0, i32 0
  tail call void @_ZN4mojo8internal16BindingStateBase9SetFilterENSt3__110unique_ptrINS_13MessageFilterENS2_14default_deleteIS4_EEEE(%"class.mojo::internal::BindingStateBase"* %8, %"class.mojo::MessageFilter"* %1) #15
  %9 = getelementptr inbounds %"class.base::RepeatingCallback.241", %"class.base::RepeatingCallback.241"* %2, i64 0, i32 0, i32 0, i32 0, i32 0
  %10 = bitcast %"class.base::RepeatingCallback.241"* %2 to i64*
  %11 = load i64, i64* %10, align 8
  %12 = bitcast %"class.base::RepeatingCallback.241"* %7 to i64*
  store i64 %11, i64* %12, align 8
  store %"class.base::internal::BindStateBase"* null, %"class.base::internal::BindStateBase"** %9, align 8
  %13 = getelementptr inbounds %"class.base::OnceCallback.175", %"class.base::OnceCallback.175"* %6, i64 0, i32 0
  %14 = getelementptr inbounds %"class.base::RepeatingCallback.241", %"class.base::RepeatingCallback.241"* %7, i64 0, i32 0
  call void @_ZN4base8internal12CallbackBaseC2EONS0_20CallbackBaseCopyableE(%"class.base::internal::CallbackBase"* nonnull %13, %"class.base::internal::CallbackBaseCopyable"* nonnull dereferenceable(8) %14) #15
  %15 = bitcast %"class.base::OnceCallback.175"* %5 to i8*
  call void @llvm.lifetime.start.p0i8(i64 8, i8* nonnull %15)
  %16 = getelementptr inbounds %"class.base::OnceCallback.175", %"class.base::OnceCallback.175"* %6, i64 0, i32 0, i32 0, i32 0
  %17 = bitcast %"class.base::OnceCallback.175"* %6 to i64*
  %18 = load i64, i64* %17, align 8
  store %"class.base::internal::BindStateBase"* null, %"class.base::internal::BindStateBase"** %16, align 8
  %19 = bitcast %"class.base::OnceCallback.175"* %4 to i8*
  call void @llvm.lifetime.start.p0i8(i64 8, i8* nonnull %19) #15
  %20 = getelementptr inbounds %"class.mojo::ReceiverSetBase<mojo::Receiver<blink::mojom::PresentationService, mojo::RawPtrImplRefTraits<blink::mojom::PresentationService> >, void>::ReceiverEntry", %"class.mojo::ReceiverSetBase<mojo::Receiver<blink::mojom::PresentationService, mojo::RawPtrImplRefTraits<blink::mojom::PresentationService> >, void>::ReceiverEntry"* %0, i64 0, i32 1, i32 0, i32 0, i32 1, i32 0, i32 0, i32 0
  %21 = load %"class.mojo::InterfaceEndpointClient"*, %"class.mojo::InterfaceEndpointClient"** %20, align 8
  %22 = getelementptr inbounds %"class.base::OnceCallback.175", %"class.base::OnceCallback.175"* %5, i64 0, i32 0, i32 0, i32 0
  %23 = bitcast %"class.base::OnceCallback.175"* %4 to i64*
  store i64 %18, i64* %23, align 8
  store %"class.base::internal::BindStateBase"* null, %"class.base::internal::BindStateBase"** %22, align 8
  %24 = getelementptr inbounds %"class.mojo::InterfaceEndpointClient", %"class.mojo::InterfaceEndpointClient"* %21, i64 0, i32 18, i32 0
  %25 = getelementptr inbounds %"class.base::OnceCallback.175", %"class.base::OnceCallback.175"* %4, i64 0, i32 0
  %26 = call dereferenceable(8) %"class.base::internal::CallbackBase"* @_ZN4base8internal12CallbackBaseaSEOS1_(%"class.base::internal::CallbackBase"* %24, %"class.base::internal::CallbackBase"* nonnull dereferenceable(8) %25) #15
  %27 = getelementptr inbounds %"class.mojo::InterfaceEndpointClient", %"class.mojo::InterfaceEndpointClient"* %21, i64 0, i32 17, i32 0
  call void @_ZN4base8internal12CallbackBase5ResetEv(%"class.base::internal::CallbackBase"* %27) #15
  call void @_ZN4base8internal12CallbackBaseD2Ev(%"class.base::internal::CallbackBase"* nonnull %25) #15
  call void @llvm.lifetime.end.p0i8(i64 8, i8* nonnull %19) #15
  %28 = getelementptr inbounds %"class.base::OnceCallback.175", %"class.base::OnceCallback.175"* %5, i64 0, i32 0
  call void @_ZN4base8internal12CallbackBaseD2Ev(%"class.base::internal::CallbackBase"* nonnull %28) #15
  call void @llvm.lifetime.end.p0i8(i64 8, i8* nonnull %15)
  call void @_ZN4base8internal12CallbackBaseD2Ev(%"class.base::internal::CallbackBase"* nonnull %13) #15
  %29 = getelementptr inbounds %"class.base::RepeatingCallback.241", %"class.base::RepeatingCallback.241"* %7, i64 0, i32 0, i32 0
  call void @_ZN4base8internal12CallbackBaseD2Ev(%"class.base::internal::CallbackBase"* nonnull %29) #15
  ret void
}

; Function Attrs: nounwind ssp uwtable
define linkonce_odr hidden void @_ZN4mojo15ReceiverSetBaseINS_8ReceiverIN5blink5mojom19PresentationServiceENS_19RawPtrImplRefTraitsIS4_EEEEvE13ReceiverEntry15FlushForTestingEv(%"class.mojo::ReceiverSetBase<mojo::Receiver<blink::mojom::PresentationService, mojo::RawPtrImplRefTraits<blink::mojom::PresentationService> >, void>::ReceiverEntry"*) unnamed_addr #0 comdat align 2 {
  %2 = getelementptr inbounds %"class.mojo::ReceiverSetBase<mojo::Receiver<blink::mojom::PresentationService, mojo::RawPtrImplRefTraits<blink::mojom::PresentationService> >, void>::ReceiverEntry", %"class.mojo::ReceiverSetBase<mojo::Receiver<blink::mojom::PresentationService, mojo::RawPtrImplRefTraits<blink::mojom::PresentationService> >, void>::ReceiverEntry"* %0, i64 0, i32 1, i32 0, i32 0
  tail call void @_ZN4mojo8internal16BindingStateBase15FlushForTestingEv(%"class.mojo::internal::BindingStateBase"* %2) #15
  ret void
}

declare void @_ZN4mojo8internal16BindingStateBaseC2Ev(%"class.mojo::internal::BindingStateBase"*) unnamed_addr #1

; Function Attrs: nounwind ssp uwtable
define linkonce_odr hidden void @_ZN4mojo15MessageReceiverD2Ev(%"class.mojo::MessageReceiver"*) unnamed_addr #0 comdat align 2 {
  ret void
}

; Function Attrs: nounwind ssp uwtable
define linkonce_odr hidden void @_ZN5blink5mojom23PresentationServiceStubIN4mojo19RawPtrImplRefTraitsINS0_19PresentationServiceEEEED0Ev(%"class.blink::mojom::PresentationServiceStub"*) unnamed_addr #0 comdat align 2 {
  %2 = bitcast %"class.blink::mojom::PresentationServiceStub"* %0 to i8*
  tail call void @_ZdlPv(i8* %2) #16
  ret void
}

declare zeroext i1 @_ZN4mojo15MessageReceiver25PrefersSerializedMessagesEv(%"class.mojo::MessageReceiver"*) unnamed_addr #1

; Function Attrs: nounwind ssp uwtable
define linkonce_odr hidden zeroext i1 @_ZN5blink5mojom23PresentationServiceStubIN4mojo19RawPtrImplRefTraitsINS0_19PresentationServiceEEEE6AcceptEPNS2_7MessageE(%"class.blink::mojom::PresentationServiceStub"*, %"class.mojo::Message"*) unnamed_addr #0 comdat align 2 {
  %3 = getelementptr inbounds %"class.blink::mojom::PresentationServiceStub", %"class.blink::mojom::PresentationServiceStub"* %0, i64 0, i32 1
  %4 = load %"class.blink::mojom::PresentationService"*, %"class.blink::mojom::PresentationService"** %3, align 8
  %5 = icmp eq %"class.blink::mojom::PresentationService"* %4, null
  br i1 %5, label %8, label %6

6:                                                ; preds = %2
  %7 = tail call zeroext i1 @_ZN5blink5mojom31PresentationServiceStubDispatch6AcceptEPNS0_19PresentationServiceEPN4mojo7MessageE(%"class.blink::mojom::PresentationService"* nonnull %4, %"class.mojo::Message"* %1) #15
  br label %8

8:                                                ; preds = %2, %6
  %9 = phi i1 [ %7, %6 ], [ false, %2 ]
  ret i1 %9
}

; Function Attrs: nounwind ssp uwtable
define linkonce_odr hidden zeroext i1 @_ZN5blink5mojom23PresentationServiceStubIN4mojo19RawPtrImplRefTraitsINS0_19PresentationServiceEEEE19AcceptWithResponderEPNS2_7MessageENSt3__110unique_ptrINS2_25MessageReceiverWithStatusENS9_14default_deleteISB_EEEE(%"class.blink::mojom::PresentationServiceStub"*, %"class.mojo::Message"*, %"class.mojo::MessageReceiverWithStatus"*) unnamed_addr #0 comdat align 2 {
  %4 = getelementptr inbounds %"class.blink::mojom::PresentationServiceStub", %"class.blink::mojom::PresentationServiceStub"* %0, i64 0, i32 1
  %5 = load %"class.blink::mojom::PresentationService"*, %"class.blink::mojom::PresentationService"** %4, align 8
  %6 = icmp eq %"class.blink::mojom::PresentationService"* %5, null
  br i1 %6, label %9, label %7

7:                                                ; preds = %3
  %8 = tail call zeroext i1 @_ZN5blink5mojom31PresentationServiceStubDispatch19AcceptWithResponderEPNS0_19PresentationServiceEPN4mojo7MessageENSt3__110unique_ptrINS4_25MessageReceiverWithStatusENS7_14default_deleteIS9_EEEE(%"class.blink::mojom::PresentationService"* nonnull %5, %"class.mojo::Message"* %1, %"class.mojo::MessageReceiverWithStatus"* %2) #15
  br label %16

9:                                                ; preds = %3
  %10 = icmp eq %"class.mojo::MessageReceiverWithStatus"* %2, null
  br i1 %10, label %16, label %11

11:                                               ; preds = %9
  %12 = bitcast %"class.mojo::MessageReceiverWithStatus"* %2 to void (%"class.mojo::MessageReceiverWithStatus"*)***
  %13 = load void (%"class.mojo::MessageReceiverWithStatus"*)**, void (%"class.mojo::MessageReceiverWithStatus"*)*** %12, align 8
  %14 = getelementptr inbounds void (%"class.mojo::MessageReceiverWithStatus"*)*, void (%"class.mojo::MessageReceiverWithStatus"*)** %13, i64 1
  %15 = load void (%"class.mojo::MessageReceiverWithStatus"*)*, void (%"class.mojo::MessageReceiverWithStatus"*)** %14, align 8
  tail call void %15(%"class.mojo::MessageReceiverWithStatus"* nonnull %2) #15
  br label %16

16:                                               ; preds = %7, %9, %11
  %17 = phi i1 [ %8, %7 ], [ false, %9 ], [ false, %11 ]
  ret i1 %17
}

declare zeroext i1 @_ZN5blink5mojom31PresentationServiceStubDispatch6AcceptEPNS0_19PresentationServiceEPN4mojo7MessageE(%"class.blink::mojom::PresentationService"*, %"class.mojo::Message"*) local_unnamed_addr #1

declare zeroext i1 @_ZN5blink5mojom31PresentationServiceStubDispatch19AcceptWithResponderEPNS0_19PresentationServiceEPN4mojo7MessageENSt3__110unique_ptrINS4_25MessageReceiverWithStatusENS7_14default_deleteIS9_EEEE(%"class.blink::mojom::PresentationService"*, %"class.mojo::Message"*, %"class.mojo::MessageReceiverWithStatus"*) local_unnamed_addr #1

; Function Attrs: nounwind ssp uwtable
define linkonce_odr hidden void @_ZN4mojo8internal12BindingStateIN5blink5mojom19PresentationServiceENS_19RawPtrImplRefTraitsIS4_EEE4BindEPNS0_20PendingReceiverStateE13scoped_refptrIN4base19SequencedTaskRunnerEE(%"class.mojo::internal::BindingState"*, %"struct.mojo::internal::PendingReceiverState"*, %"class.base::SequencedTaskRunner"*) local_unnamed_addr #0 comdat align 2 {
  %4 = getelementptr inbounds %"class.mojo::internal::BindingState", %"class.mojo::internal::BindingState"* %0, i64 0, i32 0
  %5 = icmp eq %"class.base::SequencedTaskRunner"* %2, null
  br i1 %5, label %20, label %6

6:                                                ; preds = %3
  %7 = getelementptr inbounds %"class.base::SequencedTaskRunner", %"class.base::SequencedTaskRunner"* %2, i64 0, i32 0, i32 1, i32 0, i32 0, i32 0, i32 0, i32 0, i32 0, i32 0, i32 0
  %8 = atomicrmw add i32* %7, i32 1 monotonic
  %9 = tail call i8* @_Znwm(i64 8) #16
  %10 = bitcast i8* %9 to i32 (...)***
  store i32 (...)** bitcast (i8** getelementptr inbounds ({ [6 x i8*] }, { [6 x i8*] }* @_ZTVN5blink5mojom35PresentationServiceRequestValidatorE, i64 0, inrange i32 0, i64 2) to i32 (...)**), i32 (...)*** %10, align 8
  %11 = getelementptr inbounds %"class.mojo::internal::BindingState", %"class.mojo::internal::BindingState"* %0, i64 0, i32 1, i32 0
  %12 = bitcast i8* %9 to %"class.mojo::MessageReceiver"*
  tail call void @_ZN4mojo8internal16BindingStateBase12BindInternalEPNS0_20PendingReceiverStateE13scoped_refptrIN4base19SequencedTaskRunnerEEPKcNSt3__110unique_ptrINS_15MessageReceiverENSA_14default_deleteISC_EEEEbbPNS_34MessageReceiverWithResponderStatusEj(%"class.mojo::internal::BindingStateBase"* %4, %"struct.mojo::internal::PendingReceiverState"* %1, %"class.base::SequencedTaskRunner"* nonnull %2, i8* getelementptr inbounds ([0 x i8], [0 x i8]* @_ZN5blink5mojom19PresentationService5Name_E, i64 0, i64 0), %"class.mojo::MessageReceiver"* nonnull %12, i1 zeroext false, i1 zeroext false, %"class.mojo::MessageReceiverWithResponderStatus"* %11, i32 0) #15
  %13 = getelementptr inbounds %"class.base::SequencedTaskRunner", %"class.base::SequencedTaskRunner"* %2, i64 0, i32 0, i32 1
  %14 = getelementptr inbounds %"class.base::RefCountedThreadSafe.6", %"class.base::RefCountedThreadSafe.6"* %13, i64 0, i32 0, i32 0, i32 0, i32 0, i32 0, i32 0, i32 0, i32 0
  %15 = atomicrmw sub i32* %14, i32 1 acq_rel
  %16 = icmp eq i32 %15, 1
  br i1 %16, label %17, label %25

17:                                               ; preds = %6
  %18 = getelementptr inbounds %"class.base::RefCountedThreadSafe.6", %"class.base::RefCountedThreadSafe.6"* %13, i64 -2
  %19 = bitcast %"class.base::RefCountedThreadSafe.6"* %18 to %"class.base::TaskRunner"*
  tail call void @_ZN4base16TaskRunnerTraits8DestructEPKNS_10TaskRunnerE(%"class.base::TaskRunner"* %19) #15
  br label %25

20:                                               ; preds = %3
  %21 = tail call i8* @_Znwm(i64 8) #16
  %22 = bitcast i8* %21 to i32 (...)***
  store i32 (...)** bitcast (i8** getelementptr inbounds ({ [6 x i8*] }, { [6 x i8*] }* @_ZTVN5blink5mojom35PresentationServiceRequestValidatorE, i64 0, inrange i32 0, i64 2) to i32 (...)**), i32 (...)*** %22, align 8
  %23 = getelementptr inbounds %"class.mojo::internal::BindingState", %"class.mojo::internal::BindingState"* %0, i64 0, i32 1, i32 0
  %24 = bitcast i8* %21 to %"class.mojo::MessageReceiver"*
  tail call void @_ZN4mojo8internal16BindingStateBase12BindInternalEPNS0_20PendingReceiverStateE13scoped_refptrIN4base19SequencedTaskRunnerEEPKcNSt3__110unique_ptrINS_15MessageReceiverENSA_14default_deleteISC_EEEEbbPNS_34MessageReceiverWithResponderStatusEj(%"class.mojo::internal::BindingStateBase"* %4, %"struct.mojo::internal::PendingReceiverState"* %1, %"class.base::SequencedTaskRunner"* null, i8* getelementptr inbounds ([0 x i8], [0 x i8]* @_ZN5blink5mojom19PresentationService5Name_E, i64 0, i64 0), %"class.mojo::MessageReceiver"* nonnull %24, i1 zeroext false, i1 zeroext false, %"class.mojo::MessageReceiverWithResponderStatus"* %23, i32 0) #15
  br label %25

25:                                               ; preds = %20, %6, %17
  ret void
}

declare void @_ZN4mojo8internal16BindingStateBase12BindInternalEPNS0_20PendingReceiverStateE13scoped_refptrIN4base19SequencedTaskRunnerEEPKcNSt3__110unique_ptrINS_15MessageReceiverENSA_14default_deleteISC_EEEEbbPNS_34MessageReceiverWithResponderStatusEj(%"class.mojo::internal::BindingStateBase"*, %"struct.mojo::internal::PendingReceiverState"*, %"class.base::SequencedTaskRunner"*, i8*, %"class.mojo::MessageReceiver"*, i1 zeroext, i1 zeroext, %"class.mojo::MessageReceiverWithResponderStatus"*, i32) local_unnamed_addr #1

declare void @_ZN4mojo8internal16BindingStateBase5CloseEv(%"class.mojo::internal::BindingStateBase"*) local_unnamed_addr #1

; Function Attrs: nounwind
declare void @_ZN4mojo8internal16BindingStateBaseD2Ev(%"class.mojo::internal::BindingStateBase"*) unnamed_addr #3

declare void @_ZN4mojo8internal16BindingStateBase9SetFilterENSt3__110unique_ptrINS_13MessageFilterENS2_14default_deleteIS4_EEEE(%"class.mojo::internal::BindingStateBase"*, %"class.mojo::MessageFilter"*) local_unnamed_addr #1

declare void @_ZN4base8internal12CallbackBase5ResetEv(%"class.base::internal::CallbackBase"*) local_unnamed_addr #1

; Function Attrs: nounwind
declare dereferenceable(8) %"class.base::internal::CallbackBase"* @_ZN4base8internal12CallbackBaseaSEOS1_(%"class.base::internal::CallbackBase"*, %"class.base::internal::CallbackBase"* dereferenceable(8)) local_unnamed_addr #3

; Function Attrs: nounwind
declare void @_ZN4base8internal12CallbackBaseC2EONS0_20CallbackBaseCopyableE(%"class.base::internal::CallbackBase"*, %"class.base::internal::CallbackBaseCopyable"* dereferenceable(8)) unnamed_addr #3

declare void @_ZN4mojo8internal16BindingStateBase15FlushForTestingEv(%"class.mojo::internal::BindingStateBase"*) local_unnamed_addr #1

declare void @_ZN4base16TaskRunnerTraits8DestructEPKNS_10TaskRunnerE(%"class.base::TaskRunner"*) local_unnamed_addr #1

declare void @_ZN4mojo16ReceiverSetState22set_disconnect_handlerEN4base17RepeatingCallbackIFvvEEE(%"class.mojo::ReceiverSetState"*, %"class.base::RepeatingCallback.133"*) local_unnamed_addr #1

; Function Attrs: nounwind ssp uwtable
define linkonce_odr hidden void @_ZN4base8internal7InvokerINS0_9BindStateIMN7content23PresentationServiceImplEFvvEJNS0_17UnretainedWrapperIS4_EEEEEFvvEE3RunEPNS0_13BindStateBaseE(%"class.base::internal::BindStateBase"*) #0 comdat align 2 {
  %2 = getelementptr inbounds %"class.base::internal::BindStateBase", %"class.base::internal::BindStateBase"* %0, i64 1
  %3 = getelementptr inbounds %"class.base::internal::BindStateBase", %"class.base::internal::BindStateBase"* %0, i64 1, i32 2
  %4 = bitcast void (%"class.base::internal::BindStateBase"*)** %3 to i8**
  %5 = load i8*, i8** %4, align 8
  %6 = bitcast %"class.base::internal::BindStateBase"* %2 to i64*
  %7 = load i64, i64* %6, align 8
  %8 = getelementptr inbounds %"class.base::internal::BindStateBase", %"class.base::internal::BindStateBase"* %0, i64 1, i32 1
  %9 = bitcast void ()** %8 to i64*
  %10 = load i64, i64* %9, align 8
  %11 = getelementptr inbounds i8, i8* %5, i64 %10
  %12 = bitcast i8* %11 to %"class.content::PresentationServiceImpl"*
  %13 = and i64 %7, 1
  %14 = icmp eq i64 %13, 0
  br i1 %14, label %22, label %15

15:                                               ; preds = %1
  %16 = bitcast i8* %11 to i8**
  %17 = load i8*, i8** %16, align 8
  %18 = add i64 %7, -1
  %19 = getelementptr i8, i8* %17, i64 %18
  %20 = bitcast i8* %19 to void (%"class.content::PresentationServiceImpl"*)**
  %21 = load void (%"class.content::PresentationServiceImpl"*)*, void (%"class.content::PresentationServiceImpl"*)** %20, align 8
  br label %24

22:                                               ; preds = %1
  %23 = inttoptr i64 %7 to void (%"class.content::PresentationServiceImpl"*)*
  br label %24

24:                                               ; preds = %15, %22
  %25 = phi void (%"class.content::PresentationServiceImpl"*)* [ %21, %15 ], [ %23, %22 ]
  tail call void %25(%"class.content::PresentationServiceImpl"* %12) #15
  ret void
}

; Function Attrs: nounwind ssp uwtable
define linkonce_odr hidden void @_ZN4base8internal9BindStateIMN7content23PresentationServiceImplEFvvEJNS0_17UnretainedWrapperIS3_EEEE7DestroyEPKNS0_13BindStateBaseE(%"class.base::internal::BindStateBase"*) #0 comdat align 2 {
  %2 = icmp eq %"class.base::internal::BindStateBase"* %0, null
  br i1 %2, label %5, label %3

3:                                                ; preds = %1
  %4 = bitcast %"class.base::internal::BindStateBase"* %0 to i8*
  tail call void @_ZdlPv(i8* %4) #16
  br label %5

5:                                                ; preds = %3, %1
  ret void
}

declare void @_ZN4base8internal13BindStateBaseC2EPFvvEPFvPKS1_E(%"class.base::internal::BindStateBase"*, void ()*, void (%"class.base::internal::BindStateBase"*)*) unnamed_addr #1

; Function Attrs: nounwind ssp uwtable
define linkonce_odr hidden void @_ZN4mojo6RemoteIN5blink5mojom22PresentationControllerEE4BindENS_13PendingRemoteIS3_EE13scoped_refptrIN4base19SequencedTaskRunnerEE(%"class.mojo::Remote"*, %"class.mojo::PendingRemote"*, %"class.base::SequencedTaskRunner"*) local_unnamed_addr #0 comdat align 2 {
  %4 = alloca %"class.mojo::internal::InterfacePtrState", align 8
  %5 = getelementptr inbounds %"class.mojo::PendingRemote", %"class.mojo::PendingRemote"* %1, i64 0, i32 0, i32 0, i32 0, i32 0, i32 0
  %6 = load i32, i32* %5, align 4
  %7 = icmp eq i32 %6, 0
  br i1 %7, label %8, label %25

8:                                                ; preds = %3
  %9 = bitcast %"class.mojo::internal::InterfacePtrState"* %4 to i8*
  call void @llvm.lifetime.start.p0i8(i64 48, i8* nonnull %9) #15
  call void @llvm.memset.p0i8.i64(i8* nonnull align 8 %9, i8 -86, i64 48, i1 false) #15
  %10 = bitcast %"class.mojo::internal::InterfacePtrState"* %4 to %"class.mojo::internal::InterfacePtrStateBase"*
  call void @_ZN4mojo8internal21InterfacePtrStateBaseC2Ev(%"class.mojo::internal::InterfacePtrStateBase"* nonnull %10) #15
  %11 = getelementptr inbounds %"class.mojo::internal::InterfacePtrState", %"class.mojo::internal::InterfacePtrState"* %4, i64 0, i32 1
  %12 = bitcast %"class.std::__1::unique_ptr.180"* %11 to i64*
  %13 = getelementptr inbounds %"class.mojo::Remote", %"class.mojo::Remote"* %0, i64 0, i32 0, i32 1
  %14 = bitcast %"class.std::__1::unique_ptr.180"* %13 to i64*
  %15 = load i64, i64* %14, align 8
  store i64 %15, i64* %12, align 8
  store i64 0, i64* %14, align 8
  %16 = bitcast %"class.mojo::Remote"* %0 to %"class.mojo::internal::InterfacePtrStateBase"*
  call void @_ZN4mojo8internal21InterfacePtrStateBase4SwapEPS1_(%"class.mojo::internal::InterfacePtrStateBase"* %16, %"class.mojo::internal::InterfacePtrStateBase"* nonnull %10) #15
  %17 = getelementptr inbounds %"class.mojo::internal::InterfacePtrState", %"class.mojo::internal::InterfacePtrState"* %4, i64 0, i32 1, i32 0, i32 0, i32 0
  %18 = load %"class.blink::mojom::PresentationControllerProxy"*, %"class.blink::mojom::PresentationControllerProxy"** %17, align 8
  store %"class.blink::mojom::PresentationControllerProxy"* null, %"class.blink::mojom::PresentationControllerProxy"** %17, align 8
  %19 = icmp eq %"class.blink::mojom::PresentationControllerProxy"* %18, null
  br i1 %19, label %29, label %20

20:                                               ; preds = %8
  %21 = bitcast %"class.blink::mojom::PresentationControllerProxy"* %18 to void (%"class.blink::mojom::PresentationControllerProxy"*)***
  %22 = load void (%"class.blink::mojom::PresentationControllerProxy"*)**, void (%"class.blink::mojom::PresentationControllerProxy"*)*** %21, align 8
  %23 = getelementptr inbounds void (%"class.blink::mojom::PresentationControllerProxy"*)*, void (%"class.blink::mojom::PresentationControllerProxy"*)** %22, i64 1
  %24 = load void (%"class.blink::mojom::PresentationControllerProxy"*)*, void (%"class.blink::mojom::PresentationControllerProxy"*)** %23, align 8
  call void %24(%"class.blink::mojom::PresentationControllerProxy"* nonnull %18) #15
  br label %29

25:                                               ; preds = %3
  %26 = getelementptr inbounds %"class.mojo::Remote", %"class.mojo::Remote"* %0, i64 0, i32 0
  %27 = getelementptr inbounds %"class.mojo::PendingRemote", %"class.mojo::PendingRemote"* %1, i64 0, i32 0
  %28 = bitcast %"class.mojo::Remote"* %0 to %"class.mojo::internal::InterfacePtrStateBase"*
  tail call void @_ZN4mojo8internal21InterfacePtrStateBase4BindEPNS0_18PendingRemoteStateE13scoped_refptrIN4base19SequencedTaskRunnerEE(%"class.mojo::internal::InterfacePtrStateBase"* %28, %"struct.mojo::internal::PendingRemoteState"* %27, %"class.base::SequencedTaskRunner"* %2) #15
  tail call void @_ZN4mojo8internal17InterfacePtrStateIN5blink5mojom22PresentationControllerEE25ConfigureProxyIfNecessaryEv(%"class.mojo::internal::InterfacePtrState"* %26) #15
  br label %39

29:                                               ; preds = %20, %8
  call void @_ZN4mojo8internal21InterfacePtrStateBaseD2Ev(%"class.mojo::internal::InterfacePtrStateBase"* nonnull %10) #15
  call void @llvm.lifetime.end.p0i8(i64 48, i8* nonnull %9) #15
  %30 = icmp eq %"class.base::SequencedTaskRunner"* %2, null
  br i1 %30, label %39, label %31

31:                                               ; preds = %29
  %32 = getelementptr inbounds %"class.base::SequencedTaskRunner", %"class.base::SequencedTaskRunner"* %2, i64 0, i32 0, i32 1
  %33 = getelementptr inbounds %"class.base::RefCountedThreadSafe.6", %"class.base::RefCountedThreadSafe.6"* %32, i64 0, i32 0, i32 0, i32 0, i32 0, i32 0, i32 0, i32 0, i32 0
  %34 = atomicrmw sub i32* %33, i32 1 acq_rel
  %35 = icmp eq i32 %34, 1
  br i1 %35, label %36, label %39

36:                                               ; preds = %31
  %37 = getelementptr inbounds %"class.base::RefCountedThreadSafe.6", %"class.base::RefCountedThreadSafe.6"* %32, i64 -2
  %38 = bitcast %"class.base::RefCountedThreadSafe.6"* %37 to %"class.base::TaskRunner"*
  call void @_ZN4base16TaskRunnerTraits8DestructEPKNS_10TaskRunnerE(%"class.base::TaskRunner"* %38) #15
  br label %39

39:                                               ; preds = %25, %29, %31, %36
  ret void
}

declare void @_ZN4mojo8internal21InterfacePtrStateBase4BindEPNS0_18PendingRemoteStateE13scoped_refptrIN4base19SequencedTaskRunnerEE(%"class.mojo::internal::InterfacePtrStateBase"*, %"struct.mojo::internal::PendingRemoteState"*, %"class.base::SequencedTaskRunner"*) local_unnamed_addr #1

; Function Attrs: nounwind ssp uwtable
define linkonce_odr hidden void @_ZN4mojo8internal17InterfacePtrStateIN5blink5mojom22PresentationControllerEE25ConfigureProxyIfNecessaryEv(%"class.mojo::internal::InterfacePtrState"*) local_unnamed_addr #0 comdat align 2 {
  %2 = getelementptr inbounds %"class.mojo::internal::InterfacePtrState", %"class.mojo::internal::InterfacePtrState"* %0, i64 0, i32 1
  %3 = getelementptr inbounds %"class.std::__1::unique_ptr.180", %"class.std::__1::unique_ptr.180"* %2, i64 0, i32 0, i32 0, i32 0
  %4 = load %"class.blink::mojom::PresentationControllerProxy"*, %"class.blink::mojom::PresentationControllerProxy"** %3, align 8
  %5 = icmp eq %"class.blink::mojom::PresentationControllerProxy"* %4, null
  br i1 %5, label %6, label %27

6:                                                ; preds = %1
  %7 = bitcast %"class.mojo::internal::InterfacePtrState"* %0 to %"class.mojo::internal::InterfacePtrStateBase"*
  %8 = tail call i8* @_Znwm(i64 8) #16
  %9 = bitcast i8* %8 to %"class.mojo::PassThroughFilter"*
  tail call void @_ZN4mojo17PassThroughFilterC1Ev(%"class.mojo::PassThroughFilter"* nonnull %9) #15
  %10 = bitcast i8* %8 to %"class.mojo::MessageReceiver"*
  %11 = tail call zeroext i1 @_ZN4mojo8internal21InterfacePtrStateBase24InitializeEndpointClientEbbbNSt3__110unique_ptrINS_15MessageReceiverENS2_14default_deleteIS4_EEEEPKc(%"class.mojo::internal::InterfacePtrStateBase"* %7, i1 zeroext false, i1 zeroext false, i1 zeroext false, %"class.mojo::MessageReceiver"* nonnull %10, i8* getelementptr inbounds ([0 x i8], [0 x i8]* @_ZN5blink5mojom22PresentationController5Name_E, i64 0, i64 0)) #15
  br i1 %11, label %12, label %27

12:                                               ; preds = %6
  %13 = getelementptr inbounds %"class.mojo::internal::InterfacePtrState", %"class.mojo::internal::InterfacePtrState"* %0, i64 0, i32 0, i32 1, i32 0, i32 0, i32 0
  %14 = bitcast %"class.mojo::InterfaceEndpointClient"** %13 to %"class.mojo::MessageReceiverWithResponder"**
  %15 = load %"class.mojo::MessageReceiverWithResponder"*, %"class.mojo::MessageReceiverWithResponder"** %14, align 8
  %16 = tail call i8* @_Znwm(i64 16) #16
  %17 = bitcast i8* %16 to %"class.blink::mojom::PresentationControllerProxy"*
  tail call void @_ZN5blink5mojom27PresentationControllerProxyC1EPN4mojo28MessageReceiverWithResponderE(%"class.blink::mojom::PresentationControllerProxy"* nonnull %17, %"class.mojo::MessageReceiverWithResponder"* %15) #15
  %18 = ptrtoint i8* %16 to i64
  %19 = load %"class.blink::mojom::PresentationControllerProxy"*, %"class.blink::mojom::PresentationControllerProxy"** %3, align 8
  %20 = bitcast %"class.std::__1::unique_ptr.180"* %2 to i64*
  store i64 %18, i64* %20, align 8
  %21 = icmp eq %"class.blink::mojom::PresentationControllerProxy"* %19, null
  br i1 %21, label %27, label %22

22:                                               ; preds = %12
  %23 = bitcast %"class.blink::mojom::PresentationControllerProxy"* %19 to void (%"class.blink::mojom::PresentationControllerProxy"*)***
  %24 = load void (%"class.blink::mojom::PresentationControllerProxy"*)**, void (%"class.blink::mojom::PresentationControllerProxy"*)*** %23, align 8
  %25 = getelementptr inbounds void (%"class.blink::mojom::PresentationControllerProxy"*)*, void (%"class.blink::mojom::PresentationControllerProxy"*)** %24, i64 1
  %26 = load void (%"class.blink::mojom::PresentationControllerProxy"*)*, void (%"class.blink::mojom::PresentationControllerProxy"*)** %25, align 8
  tail call void %26(%"class.blink::mojom::PresentationControllerProxy"* nonnull %19) #15
  br label %27

27:                                               ; preds = %1, %12, %22, %6
  ret void
}

declare zeroext i1 @_ZN4mojo8internal21InterfacePtrStateBase24InitializeEndpointClientEbbbNSt3__110unique_ptrINS_15MessageReceiverENS2_14default_deleteIS4_EEEEPKc(%"class.mojo::internal::InterfacePtrStateBase"*, i1 zeroext, i1 zeroext, i1 zeroext, %"class.mojo::MessageReceiver"*, i8*) local_unnamed_addr #1

declare void @_ZN4mojo17PassThroughFilterC1Ev(%"class.mojo::PassThroughFilter"*) unnamed_addr #1

declare void @_ZN5blink5mojom27PresentationControllerProxyC1EPN4mojo28MessageReceiverWithResponderE(%"class.blink::mojom::PresentationControllerProxy"*, %"class.mojo::MessageReceiverWithResponder"*) unnamed_addr #1

; Function Attrs: nounwind ssp uwtable
define linkonce_odr hidden void @_ZN4base8internal7InvokerINS0_9BindStateIMN7content23PresentationServiceImplEFvvEJNS0_17UnretainedWrapperIS4_EEEEEFvvEE7RunOnceEPNS0_13BindStateBaseE(%"class.base::internal::BindStateBase"*) #0 comdat align 2 {
  %2 = getelementptr inbounds %"class.base::internal::BindStateBase", %"class.base::internal::BindStateBase"* %0, i64 1
  %3 = getelementptr inbounds %"class.base::internal::BindStateBase", %"class.base::internal::BindStateBase"* %0, i64 1, i32 2
  %4 = bitcast void (%"class.base::internal::BindStateBase"*)** %3 to i8**
  %5 = load i8*, i8** %4, align 8
  %6 = bitcast %"class.base::internal::BindStateBase"* %2 to i64*
  %7 = load i64, i64* %6, align 8
  %8 = getelementptr inbounds %"class.base::internal::BindStateBase", %"class.base::internal::BindStateBase"* %0, i64 1, i32 1
  %9 = bitcast void ()** %8 to i64*
  %10 = load i64, i64* %9, align 8
  %11 = getelementptr inbounds i8, i8* %5, i64 %10
  %12 = bitcast i8* %11 to %"class.content::PresentationServiceImpl"*
  %13 = and i64 %7, 1
  %14 = icmp eq i64 %13, 0
  br i1 %14, label %22, label %15

15:                                               ; preds = %1
  %16 = bitcast i8* %11 to i8**
  %17 = load i8*, i8** %16, align 8
  %18 = add i64 %7, -1
  %19 = getelementptr i8, i8* %17, i64 %18
  %20 = bitcast i8* %19 to void (%"class.content::PresentationServiceImpl"*)**
  %21 = load void (%"class.content::PresentationServiceImpl"*)*, void (%"class.content::PresentationServiceImpl"*)** %20, align 8
  br label %24

22:                                               ; preds = %1
  %23 = inttoptr i64 %7 to void (%"class.content::PresentationServiceImpl"*)*
  br label %24

24:                                               ; preds = %15, %22
  %25 = phi void (%"class.content::PresentationServiceImpl"*)* [ %21, %15 ], [ %23, %22 ]
  tail call void %25(%"class.content::PresentationServiceImpl"* %12) #15
  ret void
}

; Function Attrs: nounwind ssp uwtable
define linkonce_odr hidden void @_ZN4mojo6RemoteIN5blink5mojom20PresentationReceiverEE4BindENS_13PendingRemoteIS3_EE13scoped_refptrIN4base19SequencedTaskRunnerEE(%"class.mojo::Remote.186"*, %"class.mojo::PendingRemote.265"*, %"class.base::SequencedTaskRunner"*) local_unnamed_addr #0 comdat align 2 {
  %4 = alloca %"class.mojo::internal::InterfacePtrState.187", align 8
  %5 = getelementptr inbounds %"class.mojo::PendingRemote.265", %"class.mojo::PendingRemote.265"* %1, i64 0, i32 0, i32 0, i32 0, i32 0, i32 0
  %6 = load i32, i32* %5, align 4
  %7 = icmp eq i32 %6, 0
  br i1 %7, label %8, label %25

8:                                                ; preds = %3
  %9 = bitcast %"class.mojo::internal::InterfacePtrState.187"* %4 to i8*
  call void @llvm.lifetime.start.p0i8(i64 48, i8* nonnull %9) #15
  call void @llvm.memset.p0i8.i64(i8* nonnull align 8 %9, i8 -86, i64 48, i1 false) #15
  %10 = bitcast %"class.mojo::internal::InterfacePtrState.187"* %4 to %"class.mojo::internal::InterfacePtrStateBase"*
  call void @_ZN4mojo8internal21InterfacePtrStateBaseC2Ev(%"class.mojo::internal::InterfacePtrStateBase"* nonnull %10) #15
  %11 = getelementptr inbounds %"class.mojo::internal::InterfacePtrState.187", %"class.mojo::internal::InterfacePtrState.187"* %4, i64 0, i32 1
  %12 = bitcast %"class.std::__1::unique_ptr.188"* %11 to i64*
  %13 = getelementptr inbounds %"class.mojo::Remote.186", %"class.mojo::Remote.186"* %0, i64 0, i32 0, i32 1
  %14 = bitcast %"class.std::__1::unique_ptr.188"* %13 to i64*
  %15 = load i64, i64* %14, align 8
  store i64 %15, i64* %12, align 8
  store i64 0, i64* %14, align 8
  %16 = bitcast %"class.mojo::Remote.186"* %0 to %"class.mojo::internal::InterfacePtrStateBase"*
  call void @_ZN4mojo8internal21InterfacePtrStateBase4SwapEPS1_(%"class.mojo::internal::InterfacePtrStateBase"* %16, %"class.mojo::internal::InterfacePtrStateBase"* nonnull %10) #15
  %17 = getelementptr inbounds %"class.mojo::internal::InterfacePtrState.187", %"class.mojo::internal::InterfacePtrState.187"* %4, i64 0, i32 1, i32 0, i32 0, i32 0
  %18 = load %"class.blink::mojom::PresentationReceiverProxy"*, %"class.blink::mojom::PresentationReceiverProxy"** %17, align 8
  store %"class.blink::mojom::PresentationReceiverProxy"* null, %"class.blink::mojom::PresentationReceiverProxy"** %17, align 8
  %19 = icmp eq %"class.blink::mojom::PresentationReceiverProxy"* %18, null
  br i1 %19, label %29, label %20

20:                                               ; preds = %8
  %21 = bitcast %"class.blink::mojom::PresentationReceiverProxy"* %18 to void (%"class.blink::mojom::PresentationReceiverProxy"*)***
  %22 = load void (%"class.blink::mojom::PresentationReceiverProxy"*)**, void (%"class.blink::mojom::PresentationReceiverProxy"*)*** %21, align 8
  %23 = getelementptr inbounds void (%"class.blink::mojom::PresentationReceiverProxy"*)*, void (%"class.blink::mojom::PresentationReceiverProxy"*)** %22, i64 1
  %24 = load void (%"class.blink::mojom::PresentationReceiverProxy"*)*, void (%"class.blink::mojom::PresentationReceiverProxy"*)** %23, align 8
  call void %24(%"class.blink::mojom::PresentationReceiverProxy"* nonnull %18) #15
  br label %29

25:                                               ; preds = %3
  %26 = getelementptr inbounds %"class.mojo::Remote.186", %"class.mojo::Remote.186"* %0, i64 0, i32 0
  %27 = getelementptr inbounds %"class.mojo::PendingRemote.265", %"class.mojo::PendingRemote.265"* %1, i64 0, i32 0
  %28 = bitcast %"class.mojo::Remote.186"* %0 to %"class.mojo::internal::InterfacePtrStateBase"*
  tail call void @_ZN4mojo8internal21InterfacePtrStateBase4BindEPNS0_18PendingRemoteStateE13scoped_refptrIN4base19SequencedTaskRunnerEE(%"class.mojo::internal::InterfacePtrStateBase"* %28, %"struct.mojo::internal::PendingRemoteState"* %27, %"class.base::SequencedTaskRunner"* %2) #15
  tail call void @_ZN4mojo8internal17InterfacePtrStateIN5blink5mojom20PresentationReceiverEE25ConfigureProxyIfNecessaryEv(%"class.mojo::internal::InterfacePtrState.187"* %26) #15
  br label %39

29:                                               ; preds = %20, %8
  call void @_ZN4mojo8internal21InterfacePtrStateBaseD2Ev(%"class.mojo::internal::InterfacePtrStateBase"* nonnull %10) #15
  call void @llvm.lifetime.end.p0i8(i64 48, i8* nonnull %9) #15
  %30 = icmp eq %"class.base::SequencedTaskRunner"* %2, null
  br i1 %30, label %39, label %31

31:                                               ; preds = %29
  %32 = getelementptr inbounds %"class.base::SequencedTaskRunner", %"class.base::SequencedTaskRunner"* %2, i64 0, i32 0, i32 1
  %33 = getelementptr inbounds %"class.base::RefCountedThreadSafe.6", %"class.base::RefCountedThreadSafe.6"* %32, i64 0, i32 0, i32 0, i32 0, i32 0, i32 0, i32 0, i32 0, i32 0
  %34 = atomicrmw sub i32* %33, i32 1 acq_rel
  %35 = icmp eq i32 %34, 1
  br i1 %35, label %36, label %39

36:                                               ; preds = %31
  %37 = getelementptr inbounds %"class.base::RefCountedThreadSafe.6", %"class.base::RefCountedThreadSafe.6"* %32, i64 -2
  %38 = bitcast %"class.base::RefCountedThreadSafe.6"* %37 to %"class.base::TaskRunner"*
  call void @_ZN4base16TaskRunnerTraits8DestructEPKNS_10TaskRunnerE(%"class.base::TaskRunner"* %38) #15
  br label %39

39:                                               ; preds = %25, %29, %31, %36
  ret void
}

; Function Attrs: nounwind ssp uwtable
define linkonce_odr hidden void @_ZN4mojo8internal17InterfacePtrStateIN5blink5mojom20PresentationReceiverEE25ConfigureProxyIfNecessaryEv(%"class.mojo::internal::InterfacePtrState.187"*) local_unnamed_addr #0 comdat align 2 {
  %2 = getelementptr inbounds %"class.mojo::internal::InterfacePtrState.187", %"class.mojo::internal::InterfacePtrState.187"* %0, i64 0, i32 1
  %3 = getelementptr inbounds %"class.std::__1::unique_ptr.188", %"class.std::__1::unique_ptr.188"* %2, i64 0, i32 0, i32 0, i32 0
  %4 = load %"class.blink::mojom::PresentationReceiverProxy"*, %"class.blink::mojom::PresentationReceiverProxy"** %3, align 8
  %5 = icmp eq %"class.blink::mojom::PresentationReceiverProxy"* %4, null
  br i1 %5, label %6, label %27

6:                                                ; preds = %1
  %7 = bitcast %"class.mojo::internal::InterfacePtrState.187"* %0 to %"class.mojo::internal::InterfacePtrStateBase"*
  %8 = tail call i8* @_Znwm(i64 8) #16
  %9 = bitcast i8* %8 to %"class.mojo::PassThroughFilter"*
  tail call void @_ZN4mojo17PassThroughFilterC1Ev(%"class.mojo::PassThroughFilter"* nonnull %9) #15
  %10 = bitcast i8* %8 to %"class.mojo::MessageReceiver"*
  %11 = tail call zeroext i1 @_ZN4mojo8internal21InterfacePtrStateBase24InitializeEndpointClientEbbbNSt3__110unique_ptrINS_15MessageReceiverENS2_14default_deleteIS4_EEEEPKc(%"class.mojo::internal::InterfacePtrStateBase"* %7, i1 zeroext false, i1 zeroext false, i1 zeroext false, %"class.mojo::MessageReceiver"* nonnull %10, i8* getelementptr inbounds ([0 x i8], [0 x i8]* @_ZN5blink5mojom20PresentationReceiver5Name_E, i64 0, i64 0)) #15
  br i1 %11, label %12, label %27

12:                                               ; preds = %6
  %13 = getelementptr inbounds %"class.mojo::internal::InterfacePtrState.187", %"class.mojo::internal::InterfacePtrState.187"* %0, i64 0, i32 0, i32 1, i32 0, i32 0, i32 0
  %14 = bitcast %"class.mojo::InterfaceEndpointClient"** %13 to %"class.mojo::MessageReceiverWithResponder"**
  %15 = load %"class.mojo::MessageReceiverWithResponder"*, %"class.mojo::MessageReceiverWithResponder"** %14, align 8
  %16 = tail call i8* @_Znwm(i64 16) #16
