; ModuleID = '../../components/cloud_devices/common/printer_description.cc'
source_filename = "../../components/cloud_devices/common/printer_description.cc"
target datalayout = "e-m:e-i64:64-f80:128-n8:16:32:64-S128"
target triple = "x86_64-unknown-linux-gnu"

module asm ".symver exp, exp@GLIBC_2.2.5"
module asm ".symver exp2, exp2@GLIBC_2.2.5"
module asm ".symver exp2f, exp2f@GLIBC_2.2.5"
module asm ".symver expf, expf@GLIBC_2.2.5"
module asm ".symver lgamma, lgamma@GLIBC_2.2.5"
module asm ".symver lgammaf, lgammaf@GLIBC_2.2.5"
module asm ".symver lgammal, lgammal@GLIBC_2.2.5"
module asm ".symver log, log@GLIBC_2.2.5"
module asm ".symver log2, log2@GLIBC_2.2.5"
module asm ".symver log2f, log2f@GLIBC_2.2.5"
module asm ".symver logf, logf@GLIBC_2.2.5"
module asm ".symver pow, pow@GLIBC_2.2.5"
module asm ".symver powf, powf@GLIBC_2.2.5"

%"struct.cloud_devices::printer::(anonymous namespace)::RangeVendorCapabilityTypeNames" = type { i32, i8* }
%"struct.cloud_devices::printer::(anonymous namespace)::TypedValueVendorCapabilityTypeNames" = type { i32, i8* }
%"struct.cloud_devices::printer::(anonymous namespace)::VendorCapabilityTypeNames" = type { i32, i8* }
%"struct.cloud_devices::printer::(anonymous namespace)::DocumentSheetBackNames" = type { i32, i8* }
%"struct.cloud_devices::printer::(anonymous namespace)::ColorNames" = type { i32, i8* }
%"struct.cloud_devices::printer::(anonymous namespace)::DuplexNames" = type { i32, i8* }
%"struct.cloud_devices::printer::(anonymous namespace)::OrientationNames" = type { i32, i8* }
%"struct.cloud_devices::printer::(anonymous namespace)::MarginsNames" = type { i32, i8* }
%"struct.cloud_devices::printer::(anonymous namespace)::FitToPageNames" = type { i32, i8* }
%"struct.cloud_devices::printer::(anonymous namespace)::MediaDefinition" = type { i32, i8*, i32, i32 }
%"class.base::BasicStringPiece" = type { i8*, i64 }
%"class.cloud_devices::ListCapability" = type { %"class.std::__1::vector" }
%"class.std::__1::vector" = type { %"class.std::__1::__vector_base" }
%"class.std::__1::__vector_base" = type { %"class.std::__1::basic_string"*, %"class.std::__1::basic_string"*, %"class.std::__1::__compressed_pair.1" }
%"class.std::__1::basic_string" = type { %"class.std::__1::__compressed_pair" }
%"class.std::__1::__compressed_pair" = type { %"struct.std::__1::__compressed_pair_elem" }
%"struct.std::__1::__compressed_pair_elem" = type { %"struct.std::__1::basic_string<char, std::__1::char_traits<char>, std::__1::allocator<char> >::__rep" }
%"struct.std::__1::basic_string<char, std::__1::char_traits<char>, std::__1::allocator<char> >::__rep" = type { %union.anon }
%union.anon = type { %"struct.std::__1::basic_string<char, std::__1::char_traits<char>, std::__1::allocator<char> >::__long" }
%"struct.std::__1::basic_string<char, std::__1::char_traits<char>, std::__1::allocator<char> >::__long" = type { i8*, i64, i64 }
%"class.std::__1::__compressed_pair.1" = type { %"struct.std::__1::__compressed_pair_elem.2" }
%"struct.std::__1::__compressed_pair_elem.2" = type { %"class.std::__1::basic_string"* }
%"class.cloud_devices::ValueCapability" = type { %"struct.cloud_devices::printer::PwgRasterConfig" }
%"struct.cloud_devices::printer::PwgRasterConfig" = type <{ %"class.std::__1::vector.42", i32, i8, i8, [2 x i8] }>
%"class.std::__1::vector.42" = type { %"class.std::__1::__vector_base.43" }
%"class.std::__1::__vector_base.43" = type { i32*, i32*, %"class.std::__1::__compressed_pair.44" }
%"class.std::__1::__compressed_pair.44" = type { %"struct.std::__1::__compressed_pair_elem.45" }
%"struct.std::__1::__compressed_pair_elem.45" = type { i32* }
%"class.cloud_devices::ListCapability.49" = type { %"class.std::__1::vector.50" }
%"class.std::__1::vector.50" = type { %"class.std::__1::__vector_base.51" }
%"class.std::__1::__vector_base.51" = type { %"class.cloud_devices::printer::VendorCapability"*, %"class.cloud_devices::printer::VendorCapability"*, %"class.std::__1::__compressed_pair.60" }
%"class.cloud_devices::printer::VendorCapability" = type { i32, %"class.std::__1::basic_string", %"class.std::__1::basic_string", %union.anon.52 }
%union.anon.52 = type { %"class.cloud_devices::printer::RangeVendorCapability" }
%"class.cloud_devices::printer::RangeVendorCapability" = type { i32, %"class.std::__1::basic_string", %"class.std::__1::basic_string", %"class.std::__1::basic_string" }
%"class.std::__1::__compressed_pair.60" = type { %"struct.std::__1::__compressed_pair_elem.61" }
%"struct.std::__1::__compressed_pair_elem.61" = type { %"class.cloud_devices::printer::VendorCapability"* }
%"class.cloud_devices::SelectionCapability" = type <{ %"class.std::__1::vector.53", i32, [4 x i8] }>
%"class.std::__1::vector.53" = type { %"class.std::__1::__vector_base.54" }
%"class.std::__1::__vector_base.54" = type { %"struct.cloud_devices::printer::SelectVendorCapabilityOption"*, %"struct.cloud_devices::printer::SelectVendorCapabilityOption"*, %"class.std::__1::__compressed_pair.55" }
%"struct.cloud_devices::printer::SelectVendorCapabilityOption" = type { %"class.std::__1::basic_string", %"class.std::__1::basic_string" }
%"class.std::__1::__compressed_pair.55" = type { %"struct.std::__1::__compressed_pair_elem.56" }
%"struct.std::__1::__compressed_pair_elem.56" = type { %"struct.cloud_devices::printer::SelectVendorCapabilityOption"* }
%"class.cloud_devices::SelectionCapability.67" = type <{ %"class.std::__1::vector.68", i32, [4 x i8] }>
%"class.std::__1::vector.68" = type { %"class.std::__1::__vector_base.69" }
%"class.std::__1::__vector_base.69" = type { %"struct.cloud_devices::printer::Color"*, %"struct.cloud_devices::printer::Color"*, %"class.std::__1::__compressed_pair.70" }
%"struct.cloud_devices::printer::Color" = type { i32, %"class.std::__1::basic_string", %"class.std::__1::basic_string" }
%"class.std::__1::__compressed_pair.70" = type { %"struct.std::__1::__compressed_pair_elem.71" }
%"struct.std::__1::__compressed_pair_elem.71" = type { %"struct.cloud_devices::printer::Color"* }
%"class.cloud_devices::SelectionCapability.76" = type <{ %"class.std::__1::vector.77", i32, [4 x i8] }>
%"class.std::__1::vector.77" = type { %"class.std::__1::__vector_base.78" }
%"class.std::__1::__vector_base.78" = type { i32*, i32*, %"class.std::__1::__compressed_pair.79" }
%"class.std::__1::__compressed_pair.79" = type { %"struct.std::__1::__compressed_pair_elem.80" }
%"struct.std::__1::__compressed_pair_elem.80" = type { i32* }
%"class.cloud_devices::SelectionCapability.85" = type <{ %"class.std::__1::vector.86", i32, [4 x i8] }>
%"class.std::__1::vector.86" = type { %"class.std::__1::__vector_base.87" }
%"class.std::__1::__vector_base.87" = type { i32*, i32*, %"class.std::__1::__compressed_pair.88" }
%"class.std::__1::__compressed_pair.88" = type { %"struct.std::__1::__compressed_pair_elem.89" }
%"struct.std::__1::__compressed_pair_elem.89" = type { i32* }
%"class.cloud_devices::SelectionCapability.94" = type <{ %"class.std::__1::vector.95", i32, [4 x i8] }>
%"class.std::__1::vector.95" = type { %"class.std::__1::__vector_base.96" }
%"class.std::__1::__vector_base.96" = type { %"struct.cloud_devices::printer::Margins"*, %"struct.cloud_devices::printer::Margins"*, %"class.std::__1::__compressed_pair.97" }
%"struct.cloud_devices::printer::Margins" = type { i32, i32, i32, i32, i32 }
%"class.std::__1::__compressed_pair.97" = type { %"struct.std::__1::__compressed_pair_elem.98" }
%"struct.std::__1::__compressed_pair_elem.98" = type { %"struct.cloud_devices::printer::Margins"* }
%"class.cloud_devices::SelectionCapability.103" = type <{ %"class.std::__1::vector.104", i32, [4 x i8] }>
%"class.std::__1::vector.104" = type { %"class.std::__1::__vector_base.105" }
%"class.std::__1::__vector_base.105" = type { %"struct.cloud_devices::printer::Dpi"*, %"struct.cloud_devices::printer::Dpi"*, %"class.std::__1::__compressed_pair.106" }
%"struct.cloud_devices::printer::Dpi" = type { i32, i32 }
%"class.std::__1::__compressed_pair.106" = type { %"struct.std::__1::__compressed_pair_elem.107" }
%"struct.std::__1::__compressed_pair_elem.107" = type { %"struct.cloud_devices::printer::Dpi"* }
%"class.cloud_devices::SelectionCapability.112" = type <{ %"class.std::__1::vector.113", i32, [4 x i8] }>
%"class.std::__1::vector.113" = type { %"class.std::__1::__vector_base.114" }
%"class.std::__1::__vector_base.114" = type { i32*, i32*, %"class.std::__1::__compressed_pair.115" }
%"class.std::__1::__compressed_pair.115" = type { %"struct.std::__1::__compressed_pair_elem.116" }
%"struct.std::__1::__compressed_pair_elem.116" = type { i32* }
%"class.cloud_devices::SelectionCapability.121" = type <{ %"class.std::__1::vector.122", i32, [4 x i8] }>
%"class.std::__1::vector.122" = type { %"class.std::__1::__vector_base.123" }
%"class.std::__1::__vector_base.123" = type { %"struct.cloud_devices::printer::Media"*, %"struct.cloud_devices::printer::Media"*, %"class.std::__1::__compressed_pair.124" }
%"struct.cloud_devices::printer::Media" = type { i32, i32, i32, i8, %"class.std::__1::basic_string", %"class.std::__1::basic_string" }
%"class.std::__1::__compressed_pair.124" = type { %"struct.std::__1::__compressed_pair_elem.125" }
%"struct.std::__1::__compressed_pair_elem.125" = type { %"struct.cloud_devices::printer::Media"* }
%"class.cloud_devices::ValueCapability.130" = type { %"struct.cloud_devices::printer::Copies" }
%"struct.cloud_devices::printer::Copies" = type { i32, i32 }
%"class.cloud_devices::EmptyCapability" = type { i8 }
%"class.cloud_devices::BooleanCapability" = type { i8 }
%"class.cloud_devices::BooleanCapability.131" = type { i8 }
%"class.cloud_devices::TicketItem" = type { %"struct.cloud_devices::printer::PwgRasterConfig" }
%"class.cloud_devices::TicketItem.132" = type { %"struct.cloud_devices::printer::Color" }
%"class.cloud_devices::TicketItem.133" = type { i32 }
%"class.cloud_devices::TicketItem.134" = type { i32 }
%"class.cloud_devices::TicketItem.135" = type { %"struct.cloud_devices::printer::Margins" }
%"class.cloud_devices::TicketItem.136" = type { %"struct.cloud_devices::printer::Dpi" }
%"class.cloud_devices::TicketItem.137" = type { i32 }
%"class.cloud_devices::TicketItem.138" = type { %"struct.cloud_devices::printer::Media" }
%"class.cloud_devices::TicketItem.139" = type { i32 }
%"class.cloud_devices::TicketItem.140" = type { %"class.std::__1::vector.141" }
%"class.std::__1::vector.141" = type { %"class.std::__1::__vector_base.142" }
%"class.std::__1::__vector_base.142" = type { %"struct.cloud_devices::printer::Interval"*, %"struct.cloud_devices::printer::Interval"*, %"class.std::__1::__compressed_pair.143" }
%"struct.cloud_devices::printer::Interval" = type { i32, i32 }
%"class.std::__1::__compressed_pair.143" = type { %"struct.std::__1::__compressed_pair_elem.144" }
%"struct.std::__1::__compressed_pair_elem.144" = type { %"struct.cloud_devices::printer::Interval"* }
%"class.cloud_devices::TicketItem.148" = type { i8 }
%"class.cloud_devices::TicketItem.149" = type { i8 }
%"class.cloud_devices::printer::TypedValueVendorCapability" = type { i32, %"class.std::__1::basic_string" }
%"struct.std::__1::basic_string<char, std::__1::char_traits<char>, std::__1::allocator<char> >::__short" = type { [23 x i8], %struct.anon }
%struct.anon = type { i8 }
%"class.cloud_devices::CloudDeviceDescription" = type { %"class.base::Value" }
%"class.base::Value" = type { %"class.absl::variant" }
%"class.absl::variant" = type { %"class.absl::variant_internal::VariantCopyAssignBaseNontrivial" }
%"class.absl::variant_internal::VariantCopyAssignBaseNontrivial" = type { %"class.absl::variant_internal::VariantMoveAssignBaseNontrivial" }
%"class.absl::variant_internal::VariantMoveAssignBaseNontrivial" = type { %"class.absl::variant_internal::VariantCopyBaseNontrivial" }
%"class.absl::variant_internal::VariantCopyBaseNontrivial" = type { %"class.absl::variant_internal::VariantMoveBaseNontrivial" }
%"class.absl::variant_internal::VariantMoveBaseNontrivial" = type { %"class.absl::variant_internal::VariantStateBaseDestructorNontrivial" }
%"class.absl::variant_internal::VariantStateBaseDestructorNontrivial" = type { %"class.absl::variant_internal::VariantStateBase" }
%"class.absl::variant_internal::VariantStateBase" = type { %"union.absl::variant_internal::DestructibleUnionImpl", i64 }
%"union.absl::variant_internal::DestructibleUnionImpl" = type { %"union.absl::variant_internal::DestructibleUnionImpl.6" }
%"union.absl::variant_internal::DestructibleUnionImpl.6" = type { %"union.absl::variant_internal::DestructibleUnionImpl.7" }
%"union.absl::variant_internal::DestructibleUnionImpl.7" = type { %"union.absl::variant_internal::DestructibleUnionImpl.8" }
%"union.absl::variant_internal::DestructibleUnionImpl.8" = type { %"union.absl::variant_internal::DestructibleUnionImpl.9" }
%"union.absl::variant_internal::DestructibleUnionImpl.9" = type { %"class.std::__1::basic_string" }
%"class.std::__1::vector.35" = type { %"class.std::__1::__vector_base.36" }
%"class.std::__1::__vector_base.36" = type { %"class.base::BasicStringPiece"*, %"class.base::BasicStringPiece"*, %"class.std::__1::__compressed_pair.37" }
%"class.std::__1::__compressed_pair.37" = type { %"struct.std::__1::__compressed_pair_elem.38" }
%"struct.std::__1::__compressed_pair_elem.38" = type { %"class.base::BasicStringPiece"* }
%"class.base::CheckedContiguousIterator" = type { %"class.base::Value"*, %"class.base::Value"*, %"class.base::Value"* }
%"class.std::__1::vector.27" = type { %"class.std::__1::__vector_base.28" }
%"class.std::__1::__vector_base.28" = type { %"class.base::Value"*, %"class.base::Value"*, %"class.std::__1::__compressed_pair.29" }
%"class.std::__1::__compressed_pair.29" = type { %"struct.std::__1::__compressed_pair_elem.30" }
%"struct.std::__1::__compressed_pair_elem.30" = type { %"class.base::Value"* }
%"class.logging::CheckOpResult" = type { i8* }
%"class.logging::CheckError" = type { %"class.logging::LogMessage"* }
%"class.logging::LogMessage" = type opaque
%"class.std::__1::basic_ostream" = type { i32 (...)**, %"class.std::__1::basic_ios.base" }
%"class.std::__1::basic_ios.base" = type <{ %"class.std::__1::ios_base", %"class.std::__1::basic_ostream"*, i32 }>
%"class.std::__1::ios_base" = type { i32 (...)**, i32, i64, i64, i32, i32, i8*, i8*, void (i32, %"class.std::__1::ios_base"*, i32)**, i32*, i64, i64, i64*, i64, i64, i8**, i64, i64 }
%"class.std::__1::__vector_base_common" = type { i8 }
%"class.std::__1::__basic_string_common" = type { i8 }

$_ZN13cloud_devices14ListCapabilityINSt3__112basic_stringIcNS1_11char_traitsIcEENS1_9allocatorIcEEEENS_7printer17ContentTypeTraitsEEC5Ev = comdat any

$_ZN13cloud_devices14ListCapabilityINSt3__112basic_stringIcNS1_11char_traitsIcEENS1_9allocatorIcEEEENS_7printer17ContentTypeTraitsEE5ResetEv = comdat any

$_ZN13cloud_devices14ListCapabilityINSt3__112basic_stringIcNS1_11char_traitsIcEENS1_9allocatorIcEEEENS_7printer17ContentTypeTraitsEEC5EOSA_ = comdat any

$_ZN13cloud_devices14ListCapabilityINSt3__112basic_stringIcNS1_11char_traitsIcEENS1_9allocatorIcEEEENS_7printer17ContentTypeTraitsEED5Ev = comdat any

$_ZN13cloud_devices14ListCapabilityINSt3__112basic_stringIcNS1_11char_traitsIcEENS1_9allocatorIcEEEENS_7printer17ContentTypeTraitsEE8LoadFromERKNS_22CloudDeviceDescriptionE = comdat any

$_ZNK4base25CheckedContiguousIteratorIKNS_5ValueEEdeEv = comdat any

$_ZN13cloud_devices14ListCapabilityINSt3__112basic_stringIcNS1_11char_traitsIcEENS1_9allocatorIcEEEENS_7printer17ContentTypeTraitsEE9AddOptionEOS7_ = comdat any

$_ZN4base25CheckedContiguousIteratorIKNS_5ValueEEppEv = comdat any

$_ZNK13cloud_devices14ListCapabilityINSt3__112basic_stringIcNS1_11char_traitsIcEENS1_9allocatorIcEEEENS_7printer17ContentTypeTraitsEE7IsValidEv = comdat any

$_ZNK13cloud_devices14ListCapabilityINSt3__112basic_stringIcNS1_11char_traitsIcEENS1_9allocatorIcEEEENS_7printer17ContentTypeTraitsEE6SaveToEPNS_22CloudDeviceDescriptionE = comdat any

$_ZNK13cloud_devices14ListCapabilityINSt3__112basic_stringIcNS1_11char_traitsIcEENS1_9allocatorIcEEEENS_7printer17ContentTypeTraitsEE5emptyEv = comdat any

$_ZNK13cloud_devices14ListCapabilityINSt3__112basic_stringIcNS1_11char_traitsIcEENS1_9allocatorIcEEEENS_7printer17ContentTypeTraitsEE4sizeEv = comdat any

$_ZNK13cloud_devices14ListCapabilityINSt3__112basic_stringIcNS1_11char_traitsIcEENS1_9allocatorIcEEEENS_7printer17ContentTypeTraitsEEixEm = comdat any

$_ZNK13cloud_devices14ListCapabilityINSt3__112basic_stringIcNS1_11char_traitsIcEENS1_9allocatorIcEEEENS_7printer17ContentTypeTraitsEE8ContainsERKS7_ = comdat any

$_ZN13cloud_devices15ValueCapabilityINS_7printer15PwgRasterConfigENS1_21PwgRasterConfigTraitsEEC5Ev = comdat any

$_ZN13cloud_devices15ValueCapabilityINS_7printer15PwgRasterConfigENS1_21PwgRasterConfigTraitsEE5ResetEv = comdat any

$_ZN13cloud_devices15ValueCapabilityINS_7printer15PwgRasterConfigENS1_21PwgRasterConfigTraitsEED5Ev = comdat any

$_ZN13cloud_devices15ValueCapabilityINS_7printer15PwgRasterConfigENS1_21PwgRasterConfigTraitsEE8LoadFromERKNS_22CloudDeviceDescriptionE = comdat any

$_ZN13cloud_devices7printer21PwgRasterConfigTraits4LoadERKN4base5ValueEPNS0_15PwgRasterConfigE = comdat any

$_ZN13cloud_devices15ValueCapabilityINS_7printer15PwgRasterConfigENS1_21PwgRasterConfigTraitsEE9set_valueERKS2_ = comdat any

$_ZNK13cloud_devices15ValueCapabilityINS_7printer15PwgRasterConfigENS1_21PwgRasterConfigTraitsEE7IsValidEv = comdat any

$_ZNK13cloud_devices15ValueCapabilityINS_7printer15PwgRasterConfigENS1_21PwgRasterConfigTraitsEE6SaveToEPNS_22CloudDeviceDescriptionE = comdat any

$_ZN13cloud_devices7printer21PwgRasterConfigTraits4SaveERKNS0_15PwgRasterConfigEPN4base5ValueE = comdat any

$_ZNK13cloud_devices15ValueCapabilityINS_7printer15PwgRasterConfigENS1_21PwgRasterConfigTraitsEE5valueEv = comdat any

$_ZN13cloud_devices14ListCapabilityINS_7printer16VendorCapabilityENS1_22VendorCapabilityTraitsEEC5Ev = comdat any

$_ZN13cloud_devices14ListCapabilityINS_7printer16VendorCapabilityENS1_22VendorCapabilityTraitsEE5ResetEv = comdat any

$_ZN13cloud_devices14ListCapabilityINS_7printer16VendorCapabilityENS1_22VendorCapabilityTraitsEEC5EOS4_ = comdat any

$_ZN13cloud_devices14ListCapabilityINS_7printer16VendorCapabilityENS1_22VendorCapabilityTraitsEED5Ev = comdat any

$_ZN13cloud_devices14ListCapabilityINS_7printer16VendorCapabilityENS1_22VendorCapabilityTraitsEE8LoadFromERKNS_22CloudDeviceDescriptionE = comdat any

$_ZN13cloud_devices14ListCapabilityINS_7printer16VendorCapabilityENS1_22VendorCapabilityTraitsEE9AddOptionEOS2_ = comdat any

$_ZNK13cloud_devices14ListCapabilityINS_7printer16VendorCapabilityENS1_22VendorCapabilityTraitsEE7IsValidEv = comdat any

$_ZNK13cloud_devices14ListCapabilityINS_7printer16VendorCapabilityENS1_22VendorCapabilityTraitsEE6SaveToEPNS_22CloudDeviceDescriptionE = comdat any

$_ZNK13cloud_devices14ListCapabilityINS_7printer16VendorCapabilityENS1_22VendorCapabilityTraitsEE5emptyEv = comdat any

$_ZNK13cloud_devices14ListCapabilityINS_7printer16VendorCapabilityENS1_22VendorCapabilityTraitsEE4sizeEv = comdat any

$_ZNK13cloud_devices14ListCapabilityINS_7printer16VendorCapabilityENS1_22VendorCapabilityTraitsEEixEm = comdat any

$_ZNK13cloud_devices14ListCapabilityINS_7printer16VendorCapabilityENS1_22VendorCapabilityTraitsEE8ContainsERKS2_ = comdat any

$_ZN13cloud_devices19SelectionCapabilityINS_7printer28SelectVendorCapabilityOptionENS1_28SelectVendorCapabilityTraitsEEC5Ev = comdat any

$_ZN13cloud_devices19SelectionCapabilityINS_7printer28SelectVendorCapabilityOptionENS1_28SelectVendorCapabilityTraitsEE5ResetEv = comdat any

$_ZN13cloud_devices19SelectionCapabilityINS_7printer28SelectVendorCapabilityOptionENS1_28SelectVendorCapabilityTraitsEEC5EOS4_ = comdat any

$_ZN13cloud_devices19SelectionCapabilityINS_7printer28SelectVendorCapabilityOptionENS1_28SelectVendorCapabilityTraitsEED5Ev = comdat any

$_ZN13cloud_devices19SelectionCapabilityINS_7printer28SelectVendorCapabilityOptionENS1_28SelectVendorCapabilityTraitsEEaSEOS4_ = comdat any

$_ZNK13cloud_devices19SelectionCapabilityINS_7printer28SelectVendorCapabilityOptionENS1_28SelectVendorCapabilityTraitsEEeqERKS4_ = comdat any

$_ZN13cloud_devices19SelectionCapabilityINS_7printer28SelectVendorCapabilityOptionENS1_28SelectVendorCapabilityTraitsEE8LoadFromERKNS_22CloudDeviceDescriptionE = comdat any

$_ZN13cloud_devices19SelectionCapabilityINS_7printer28SelectVendorCapabilityOptionENS1_28SelectVendorCapabilityTraitsEE8LoadFromERKN4base5ValueE = comdat any

$_ZNK13cloud_devices19SelectionCapabilityINS_7printer28SelectVendorCapabilityOptionENS1_28SelectVendorCapabilityTraitsEE6SaveToEPNS_22CloudDeviceDescriptionE = comdat any

$_ZNK13cloud_devices19SelectionCapabilityINS_7printer28SelectVendorCapabilityOptionENS1_28SelectVendorCapabilityTraitsEE6SaveToEPN4base5ValueE = comdat any

$_ZN13cloud_devices7printer28SelectVendorCapabilityTraits4LoadERKN4base5ValueEPNS0_28SelectVendorCapabilityOptionE = comdat any

$_ZN13cloud_devices19SelectionCapabilityINS_7printer28SelectVendorCapabilityOptionENS1_28SelectVendorCapabilityTraitsEE16AddDefaultOptionERKS2_b = comdat any

$_ZNK13cloud_devices19SelectionCapabilityINS_7printer28SelectVendorCapabilityOptionENS1_28SelectVendorCapabilityTraitsEE7IsValidEv = comdat any

$_ZNK13cloud_devices19SelectionCapabilityINS_7printer28SelectVendorCapabilityOptionENS1_28SelectVendorCapabilityTraitsEE5emptyEv = comdat any

$_ZNK13cloud_devices19SelectionCapabilityINS_7printer28SelectVendorCapabilityOptionENS1_28SelectVendorCapabilityTraitsEE4sizeEv = comdat any

$_ZNK13cloud_devices19SelectionCapabilityINS_7printer28SelectVendorCapabilityOptionENS1_28SelectVendorCapabilityTraitsEEixEm = comdat any

$_ZNK13cloud_devices19SelectionCapabilityINS_7printer28SelectVendorCapabilityOptionENS1_28SelectVendorCapabilityTraitsEE8ContainsERKS2_ = comdat any

$_ZNK13cloud_devices19SelectionCapabilityINS_7printer28SelectVendorCapabilityOptionENS1_28SelectVendorCapabilityTraitsEE10GetDefaultEv = comdat any

$_ZN13cloud_devices19SelectionCapabilityINS_7printer28SelectVendorCapabilityOptionENS1_28SelectVendorCapabilityTraitsEE9AddOptionERKS2_ = comdat any

$_ZN13cloud_devices19SelectionCapabilityINS_7printer5ColorENS1_11ColorTraitsEEC5Ev = comdat any

$_ZN13cloud_devices19SelectionCapabilityINS_7printer5ColorENS1_11ColorTraitsEE5ResetEv = comdat any

$_ZN13cloud_devices19SelectionCapabilityINS_7printer5ColorENS1_11ColorTraitsEEC5EOS4_ = comdat any

$_ZN13cloud_devices19SelectionCapabilityINS_7printer5ColorENS1_11ColorTraitsEED5Ev = comdat any

$_ZN13cloud_devices19SelectionCapabilityINS_7printer5ColorENS1_11ColorTraitsEEaSEOS4_ = comdat any

$_ZNK13cloud_devices19SelectionCapabilityINS_7printer5ColorENS1_11ColorTraitsEEeqERKS4_ = comdat any

$_ZN13cloud_devices19SelectionCapabilityINS_7printer5ColorENS1_11ColorTraitsEE8LoadFromERKNS_22CloudDeviceDescriptionE = comdat any

$_ZN13cloud_devices19SelectionCapabilityINS_7printer5ColorENS1_11ColorTraitsEE8LoadFromERKN4base5ValueE = comdat any

$_ZNK13cloud_devices19SelectionCapabilityINS_7printer5ColorENS1_11ColorTraitsEE6SaveToEPNS_22CloudDeviceDescriptionE = comdat any

$_ZNK13cloud_devices19SelectionCapabilityINS_7printer5ColorENS1_11ColorTraitsEE6SaveToEPN4base5ValueE = comdat any

$_ZN13cloud_devices7printer11ColorTraits4LoadERKN4base5ValueEPNS0_5ColorE = comdat any

$_ZN13cloud_devices19SelectionCapabilityINS_7printer5ColorENS1_11ColorTraitsEE16AddDefaultOptionERKS2_b = comdat any

$_ZNK13cloud_devices19SelectionCapabilityINS_7printer5ColorENS1_11ColorTraitsEE7IsValidEv = comdat any

$_ZN13cloud_devices7printer11ColorTraits4SaveERKNS0_5ColorEPN4base5ValueE = comdat any

$_ZNK13cloud_devices19SelectionCapabilityINS_7printer5ColorENS1_11ColorTraitsEE5emptyEv = comdat any

$_ZNK13cloud_devices19SelectionCapabilityINS_7printer5ColorENS1_11ColorTraitsEE4sizeEv = comdat any

$_ZNK13cloud_devices19SelectionCapabilityINS_7printer5ColorENS1_11ColorTraitsEEixEm = comdat any

$_ZNK13cloud_devices19SelectionCapabilityINS_7printer5ColorENS1_11ColorTraitsEE8ContainsERKS2_ = comdat any

$_ZNK13cloud_devices19SelectionCapabilityINS_7printer5ColorENS1_11ColorTraitsEE10GetDefaultEv = comdat any

$_ZN13cloud_devices19SelectionCapabilityINS_7printer5ColorENS1_11ColorTraitsEE9AddOptionERKS2_ = comdat any

$_ZN13cloud_devices19SelectionCapabilityINS_7printer10DuplexTypeENS1_12DuplexTraitsEEC5Ev = comdat any

$_ZN13cloud_devices19SelectionCapabilityINS_7printer10DuplexTypeENS1_12DuplexTraitsEE5ResetEv = comdat any

$_ZN13cloud_devices19SelectionCapabilityINS_7printer10DuplexTypeENS1_12DuplexTraitsEEC5EOS4_ = comdat any

$_ZN13cloud_devices19SelectionCapabilityINS_7printer10DuplexTypeENS1_12DuplexTraitsEED5Ev = comdat any

$_ZN13cloud_devices19SelectionCapabilityINS_7printer10DuplexTypeENS1_12DuplexTraitsEEaSEOS4_ = comdat any

$_ZNK13cloud_devices19SelectionCapabilityINS_7printer10DuplexTypeENS1_12DuplexTraitsEEeqERKS4_ = comdat any

$_ZN13cloud_devices19SelectionCapabilityINS_7printer10DuplexTypeENS1_12DuplexTraitsEE8LoadFromERKNS_22CloudDeviceDescriptionE = comdat any

$_ZN13cloud_devices19SelectionCapabilityINS_7printer10DuplexTypeENS1_12DuplexTraitsEE8LoadFromERKN4base5ValueE = comdat any

$_ZNK13cloud_devices19SelectionCapabilityINS_7printer10DuplexTypeENS1_12DuplexTraitsEE6SaveToEPNS_22CloudDeviceDescriptionE = comdat any

$_ZNK13cloud_devices19SelectionCapabilityINS_7printer10DuplexTypeENS1_12DuplexTraitsEE6SaveToEPN4base5ValueE = comdat any

$_ZN13cloud_devices7printer12DuplexTraits4LoadERKN4base5ValueEPNS0_10DuplexTypeE = comdat any

$_ZN13cloud_devices19SelectionCapabilityINS_7printer10DuplexTypeENS1_12DuplexTraitsEE16AddDefaultOptionERKS2_b = comdat any

$_ZNK13cloud_devices19SelectionCapabilityINS_7printer10DuplexTypeENS1_12DuplexTraitsEE7IsValidEv = comdat any

$_ZN13cloud_devices7printer12DuplexTraits4SaveENS0_10DuplexTypeEPN4base5ValueE = comdat any

$_ZNK13cloud_devices19SelectionCapabilityINS_7printer10DuplexTypeENS1_12DuplexTraitsEE5emptyEv = comdat any

$_ZNK13cloud_devices19SelectionCapabilityINS_7printer10DuplexTypeENS1_12DuplexTraitsEE4sizeEv = comdat any

$_ZNK13cloud_devices19SelectionCapabilityINS_7printer10DuplexTypeENS1_12DuplexTraitsEEixEm = comdat any

$_ZNK13cloud_devices19SelectionCapabilityINS_7printer10DuplexTypeENS1_12DuplexTraitsEE8ContainsERKS2_ = comdat any

$_ZNK13cloud_devices19SelectionCapabilityINS_7printer10DuplexTypeENS1_12DuplexTraitsEE10GetDefaultEv = comdat any

$_ZN13cloud_devices19SelectionCapabilityINS_7printer10DuplexTypeENS1_12DuplexTraitsEE9AddOptionERKS2_ = comdat any

$_ZN13cloud_devices19SelectionCapabilityINS_7printer15OrientationTypeENS1_17OrientationTraitsEEC5Ev = comdat any

$_ZN13cloud_devices19SelectionCapabilityINS_7printer15OrientationTypeENS1_17OrientationTraitsEE5ResetEv = comdat any

$_ZN13cloud_devices19SelectionCapabilityINS_7printer15OrientationTypeENS1_17OrientationTraitsEEC5EOS4_ = comdat any

$_ZN13cloud_devices19SelectionCapabilityINS_7printer15OrientationTypeENS1_17OrientationTraitsEED5Ev = comdat any

$_ZN13cloud_devices19SelectionCapabilityINS_7printer15OrientationTypeENS1_17OrientationTraitsEEaSEOS4_ = comdat any

$_ZNK13cloud_devices19SelectionCapabilityINS_7printer15OrientationTypeENS1_17OrientationTraitsEEeqERKS4_ = comdat any

$_ZN13cloud_devices19SelectionCapabilityINS_7printer15OrientationTypeENS1_17OrientationTraitsEE8LoadFromERKNS_22CloudDeviceDescriptionE = comdat any

$_ZN13cloud_devices19SelectionCapabilityINS_7printer15OrientationTypeENS1_17OrientationTraitsEE8LoadFromERKN4base5ValueE = comdat any

$_ZNK13cloud_devices19SelectionCapabilityINS_7printer15OrientationTypeENS1_17OrientationTraitsEE6SaveToEPNS_22CloudDeviceDescriptionE = comdat any

$_ZNK13cloud_devices19SelectionCapabilityINS_7printer15OrientationTypeENS1_17OrientationTraitsEE6SaveToEPN4base5ValueE = comdat any

$_ZN13cloud_devices7printer17OrientationTraits4LoadERKN4base5ValueEPNS0_15OrientationTypeE = comdat any

$_ZN13cloud_devices19SelectionCapabilityINS_7printer15OrientationTypeENS1_17OrientationTraitsEE16AddDefaultOptionERKS2_b = comdat any

$_ZNK13cloud_devices19SelectionCapabilityINS_7printer15OrientationTypeENS1_17OrientationTraitsEE7IsValidEv = comdat any

$_ZN13cloud_devices7printer17OrientationTraits4SaveENS0_15OrientationTypeEPN4base5ValueE = comdat any

$_ZNK13cloud_devices19SelectionCapabilityINS_7printer15OrientationTypeENS1_17OrientationTraitsEE5emptyEv = comdat any

$_ZNK13cloud_devices19SelectionCapabilityINS_7printer15OrientationTypeENS1_17OrientationTraitsEE4sizeEv = comdat any

$_ZNK13cloud_devices19SelectionCapabilityINS_7printer15OrientationTypeENS1_17OrientationTraitsEEixEm = comdat any

$_ZNK13cloud_devices19SelectionCapabilityINS_7printer15OrientationTypeENS1_17OrientationTraitsEE8ContainsERKS2_ = comdat any

$_ZNK13cloud_devices19SelectionCapabilityINS_7printer15OrientationTypeENS1_17OrientationTraitsEE10GetDefaultEv = comdat any

$_ZN13cloud_devices19SelectionCapabilityINS_7printer15OrientationTypeENS1_17OrientationTraitsEE9AddOptionERKS2_ = comdat any

$_ZN13cloud_devices19SelectionCapabilityINS_7printer7MarginsENS1_13MarginsTraitsEEC5Ev = comdat any

$_ZN13cloud_devices19SelectionCapabilityINS_7printer7MarginsENS1_13MarginsTraitsEE5ResetEv = comdat any

$_ZN13cloud_devices19SelectionCapabilityINS_7printer7MarginsENS1_13MarginsTraitsEEC5EOS4_ = comdat any

$_ZN13cloud_devices19SelectionCapabilityINS_7printer7MarginsENS1_13MarginsTraitsEED5Ev = comdat any

$_ZN13cloud_devices19SelectionCapabilityINS_7printer7MarginsENS1_13MarginsTraitsEEaSEOS4_ = comdat any

$_ZNK13cloud_devices19SelectionCapabilityINS_7printer7MarginsENS1_13MarginsTraitsEEeqERKS4_ = comdat any

$_ZN13cloud_devices19SelectionCapabilityINS_7printer7MarginsENS1_13MarginsTraitsEE8LoadFromERKNS_22CloudDeviceDescriptionE = comdat any

$_ZN13cloud_devices19SelectionCapabilityINS_7printer7MarginsENS1_13MarginsTraitsEE8LoadFromERKN4base5ValueE = comdat any

$_ZNK13cloud_devices19SelectionCapabilityINS_7printer7MarginsENS1_13MarginsTraitsEE6SaveToEPNS_22CloudDeviceDescriptionE = comdat any

$_ZNK13cloud_devices19SelectionCapabilityINS_7printer7MarginsENS1_13MarginsTraitsEE6SaveToEPN4base5ValueE = comdat any

$_ZN13cloud_devices7printer13MarginsTraits4LoadERKN4base5ValueEPNS0_7MarginsE = comdat any

$_ZN13cloud_devices19SelectionCapabilityINS_7printer7MarginsENS1_13MarginsTraitsEE16AddDefaultOptionERKS2_b = comdat any

$_ZNK13cloud_devices19SelectionCapabilityINS_7printer7MarginsENS1_13MarginsTraitsEE7IsValidEv = comdat any

$_ZN13cloud_devices7printer13MarginsTraits4SaveERKNS0_7MarginsEPN4base5ValueE = comdat any

$_ZNK13cloud_devices19SelectionCapabilityINS_7printer7MarginsENS1_13MarginsTraitsEE5emptyEv = comdat any

$_ZNK13cloud_devices19SelectionCapabilityINS_7printer7MarginsENS1_13MarginsTraitsEE4sizeEv = comdat any

$_ZNK13cloud_devices19SelectionCapabilityINS_7printer7MarginsENS1_13MarginsTraitsEEixEm = comdat any

$_ZNK13cloud_devices19SelectionCapabilityINS_7printer7MarginsENS1_13MarginsTraitsEE8ContainsERKS2_ = comdat any

$_ZNK13cloud_devices19SelectionCapabilityINS_7printer7MarginsENS1_13MarginsTraitsEE10GetDefaultEv = comdat any

$_ZN13cloud_devices19SelectionCapabilityINS_7printer7MarginsENS1_13MarginsTraitsEE9AddOptionERKS2_ = comdat any

$_ZN13cloud_devices19SelectionCapabilityINS_7printer3DpiENS1_9DpiTraitsEEC5Ev = comdat any

$_ZN13cloud_devices19SelectionCapabilityINS_7printer3DpiENS1_9DpiTraitsEE5ResetEv = comdat any

$_ZN13cloud_devices19SelectionCapabilityINS_7printer3DpiENS1_9DpiTraitsEEC5EOS4_ = comdat any

$_ZN13cloud_devices19SelectionCapabilityINS_7printer3DpiENS1_9DpiTraitsEED5Ev = comdat any

$_ZN13cloud_devices19SelectionCapabilityINS_7printer3DpiENS1_9DpiTraitsEEaSEOS4_ = comdat any

$_ZNK13cloud_devices19SelectionCapabilityINS_7printer3DpiENS1_9DpiTraitsEEeqERKS4_ = comdat any

$_ZN13cloud_devices19SelectionCapabilityINS_7printer3DpiENS1_9DpiTraitsEE8LoadFromERKNS_22CloudDeviceDescriptionE = comdat any

$_ZN13cloud_devices19SelectionCapabilityINS_7printer3DpiENS1_9DpiTraitsEE8LoadFromERKN4base5ValueE = comdat any

$_ZNK13cloud_devices19SelectionCapabilityINS_7printer3DpiENS1_9DpiTraitsEE6SaveToEPNS_22CloudDeviceDescriptionE = comdat any

$_ZNK13cloud_devices19SelectionCapabilityINS_7printer3DpiENS1_9DpiTraitsEE6SaveToEPN4base5ValueE = comdat any

$_ZN13cloud_devices19SelectionCapabilityINS_7printer3DpiENS1_9DpiTraitsEE16AddDefaultOptionERKS2_b = comdat any

$_ZNK13cloud_devices19SelectionCapabilityINS_7printer3DpiENS1_9DpiTraitsEE7IsValidEv = comdat any

$_ZNK13cloud_devices19SelectionCapabilityINS_7printer3DpiENS1_9DpiTraitsEE5emptyEv = comdat any

$_ZNK13cloud_devices19SelectionCapabilityINS_7printer3DpiENS1_9DpiTraitsEE4sizeEv = comdat any

$_ZNK13cloud_devices19SelectionCapabilityINS_7printer3DpiENS1_9DpiTraitsEEixEm = comdat any

$_ZNK13cloud_devices19SelectionCapabilityINS_7printer3DpiENS1_9DpiTraitsEE8ContainsERKS2_ = comdat any

$_ZNK13cloud_devices19SelectionCapabilityINS_7printer3DpiENS1_9DpiTraitsEE10GetDefaultEv = comdat any

$_ZN13cloud_devices19SelectionCapabilityINS_7printer3DpiENS1_9DpiTraitsEE9AddOptionERKS2_ = comdat any

$_ZN13cloud_devices19SelectionCapabilityINS_7printer13FitToPageTypeENS1_15FitToPageTraitsEEC5Ev = comdat any

$_ZN13cloud_devices19SelectionCapabilityINS_7printer13FitToPageTypeENS1_15FitToPageTraitsEE5ResetEv = comdat any

$_ZN13cloud_devices19SelectionCapabilityINS_7printer13FitToPageTypeENS1_15FitToPageTraitsEEC5EOS4_ = comdat any

$_ZN13cloud_devices19SelectionCapabilityINS_7printer13FitToPageTypeENS1_15FitToPageTraitsEED5Ev = comdat any

$_ZN13cloud_devices19SelectionCapabilityINS_7printer13FitToPageTypeENS1_15FitToPageTraitsEEaSEOS4_ = comdat any

$_ZNK13cloud_devices19SelectionCapabilityINS_7printer13FitToPageTypeENS1_15FitToPageTraitsEEeqERKS4_ = comdat any

$_ZN13cloud_devices19SelectionCapabilityINS_7printer13FitToPageTypeENS1_15FitToPageTraitsEE8LoadFromERKNS_22CloudDeviceDescriptionE = comdat any

$_ZN13cloud_devices19SelectionCapabilityINS_7printer13FitToPageTypeENS1_15FitToPageTraitsEE8LoadFromERKN4base5ValueE = comdat any

$_ZNK13cloud_devices19SelectionCapabilityINS_7printer13FitToPageTypeENS1_15FitToPageTraitsEE6SaveToEPNS_22CloudDeviceDescriptionE = comdat any

$_ZNK13cloud_devices19SelectionCapabilityINS_7printer13FitToPageTypeENS1_15FitToPageTraitsEE6SaveToEPN4base5ValueE = comdat any

$_ZN13cloud_devices7printer15FitToPageTraits4LoadERKN4base5ValueEPNS0_13FitToPageTypeE = comdat any

$_ZN13cloud_devices19SelectionCapabilityINS_7printer13FitToPageTypeENS1_15FitToPageTraitsEE16AddDefaultOptionERKS2_b = comdat any

$_ZNK13cloud_devices19SelectionCapabilityINS_7printer13FitToPageTypeENS1_15FitToPageTraitsEE7IsValidEv = comdat any

$_ZN13cloud_devices7printer15FitToPageTraits4SaveENS0_13FitToPageTypeEPN4base5ValueE = comdat any

$_ZNK13cloud_devices19SelectionCapabilityINS_7printer13FitToPageTypeENS1_15FitToPageTraitsEE5emptyEv = comdat any

$_ZNK13cloud_devices19SelectionCapabilityINS_7printer13FitToPageTypeENS1_15FitToPageTraitsEE4sizeEv = comdat any

$_ZNK13cloud_devices19SelectionCapabilityINS_7printer13FitToPageTypeENS1_15FitToPageTraitsEEixEm = comdat any

$_ZNK13cloud_devices19SelectionCapabilityINS_7printer13FitToPageTypeENS1_15FitToPageTraitsEE8ContainsERKS2_ = comdat any

$_ZNK13cloud_devices19SelectionCapabilityINS_7printer13FitToPageTypeENS1_15FitToPageTraitsEE10GetDefaultEv = comdat any

$_ZN13cloud_devices19SelectionCapabilityINS_7printer13FitToPageTypeENS1_15FitToPageTraitsEE9AddOptionERKS2_ = comdat any

$_ZN13cloud_devices19SelectionCapabilityINS_7printer5MediaENS1_11MediaTraitsEEC5Ev = comdat any

$_ZN13cloud_devices19SelectionCapabilityINS_7printer5MediaENS1_11MediaTraitsEE5ResetEv = comdat any

$_ZN13cloud_devices19SelectionCapabilityINS_7printer5MediaENS1_11MediaTraitsEEC5EOS4_ = comdat any

$_ZN13cloud_devices19SelectionCapabilityINS_7printer5MediaENS1_11MediaTraitsEED5Ev = comdat any

$_ZN13cloud_devices19SelectionCapabilityINS_7printer5MediaENS1_11MediaTraitsEEaSEOS4_ = comdat any

$_ZNK13cloud_devices19SelectionCapabilityINS_7printer5MediaENS1_11MediaTraitsEEeqERKS4_ = comdat any

$_ZN13cloud_devices19SelectionCapabilityINS_7printer5MediaENS1_11MediaTraitsEE8LoadFromERKNS_22CloudDeviceDescriptionE = comdat any

$_ZN13cloud_devices19SelectionCapabilityINS_7printer5MediaENS1_11MediaTraitsEE8LoadFromERKN4base5ValueE = comdat any

$_ZNK13cloud_devices19SelectionCapabilityINS_7printer5MediaENS1_11MediaTraitsEE6SaveToEPNS_22CloudDeviceDescriptionE = comdat any

$_ZNK13cloud_devices19SelectionCapabilityINS_7printer5MediaENS1_11MediaTraitsEE6SaveToEPN4base5ValueE = comdat any

$_ZN13cloud_devices7printer11MediaTraits4LoadERKN4base5ValueEPNS0_5MediaE = comdat any

$_ZN13cloud_devices19SelectionCapabilityINS_7printer5MediaENS1_11MediaTraitsEE16AddDefaultOptionERKS2_b = comdat any

$_ZNK13cloud_devices19SelectionCapabilityINS_7printer5MediaENS1_11MediaTraitsEE7IsValidEv = comdat any

$_ZN13cloud_devices7printer11MediaTraits4SaveERKNS0_5MediaEPN4base5ValueE = comdat any

$_ZNK13cloud_devices19SelectionCapabilityINS_7printer5MediaENS1_11MediaTraitsEE5emptyEv = comdat any

$_ZNK13cloud_devices19SelectionCapabilityINS_7printer5MediaENS1_11MediaTraitsEE4sizeEv = comdat any

$_ZNK13cloud_devices19SelectionCapabilityINS_7printer5MediaENS1_11MediaTraitsEEixEm = comdat any

$_ZNK13cloud_devices19SelectionCapabilityINS_7printer5MediaENS1_11MediaTraitsEE8ContainsERKS2_ = comdat any

$_ZNK13cloud_devices19SelectionCapabilityINS_7printer5MediaENS1_11MediaTraitsEE10GetDefaultEv = comdat any

$_ZN13cloud_devices19SelectionCapabilityINS_7printer5MediaENS1_11MediaTraitsEE9AddOptionERKS2_ = comdat any

$_ZN13cloud_devices15ValueCapabilityINS_7printer6CopiesENS1_22CopiesCapabilityTraitsEEC5Ev = comdat any

$_ZN13cloud_devices15ValueCapabilityINS_7printer6CopiesENS1_22CopiesCapabilityTraitsEE5ResetEv = comdat any

$_ZN13cloud_devices15ValueCapabilityINS_7printer6CopiesENS1_22CopiesCapabilityTraitsEED5Ev = comdat any

$_ZN13cloud_devices15ValueCapabilityINS_7printer6CopiesENS1_22CopiesCapabilityTraitsEE8LoadFromERKNS_22CloudDeviceDescriptionE = comdat any

$_ZN13cloud_devices15ValueCapabilityINS_7printer6CopiesENS1_22CopiesCapabilityTraitsEE9set_valueERKS2_ = comdat any

$_ZNK13cloud_devices15ValueCapabilityINS_7printer6CopiesENS1_22CopiesCapabilityTraitsEE7IsValidEv = comdat any

$_ZNK13cloud_devices15ValueCapabilityINS_7printer6CopiesENS1_22CopiesCapabilityTraitsEE6SaveToEPNS_22CloudDeviceDescriptionE = comdat any

$_ZNK13cloud_devices15ValueCapabilityINS_7printer6CopiesENS1_22CopiesCapabilityTraitsEE5valueEv = comdat any

$_ZN13cloud_devices15EmptyCapabilityINS_7printer15PageRangeTraitsEEC5Ev = comdat any

$_ZN13cloud_devices15EmptyCapabilityINS_7printer15PageRangeTraitsEED5Ev = comdat any

$_ZN13cloud_devices15EmptyCapabilityINS_7printer15PageRangeTraitsEE8LoadFromERKNS_22CloudDeviceDescriptionE = comdat any

$_ZNK13cloud_devices15EmptyCapabilityINS_7printer15PageRangeTraitsEE6SaveToEPNS_22CloudDeviceDescriptionE = comdat any

$_ZN13cloud_devices17BooleanCapabilityINS_7printer13CollateTraitsEEC5Ev = comdat any

$_ZN13cloud_devices17BooleanCapabilityINS_7printer13CollateTraitsEE5ResetEv = comdat any

$_ZN13cloud_devices17BooleanCapabilityINS_7printer13CollateTraitsEED5Ev = comdat any

$_ZN13cloud_devices17BooleanCapabilityINS_7printer13CollateTraitsEE8LoadFromERKNS_22CloudDeviceDescriptionE = comdat any

$_ZNK13cloud_devices17BooleanCapabilityINS_7printer13CollateTraitsEE6SaveToEPNS_22CloudDeviceDescriptionE = comdat any

$_ZN13cloud_devices17BooleanCapabilityINS_7printer13CollateTraitsEE17set_default_valueEb = comdat any

$_ZNK13cloud_devices17BooleanCapabilityINS_7printer13CollateTraitsEE13default_valueEv = comdat any

$_ZN13cloud_devices17BooleanCapabilityINS_7printer13ReverseTraitsEEC5Ev = comdat any

$_ZN13cloud_devices17BooleanCapabilityINS_7printer13ReverseTraitsEE5ResetEv = comdat any

$_ZN13cloud_devices17BooleanCapabilityINS_7printer13ReverseTraitsEED5Ev = comdat any

$_ZN13cloud_devices17BooleanCapabilityINS_7printer13ReverseTraitsEE8LoadFromERKNS_22CloudDeviceDescriptionE = comdat any

$_ZNK13cloud_devices17BooleanCapabilityINS_7printer13ReverseTraitsEE6SaveToEPNS_22CloudDeviceDescriptionE = comdat any

$_ZN13cloud_devices17BooleanCapabilityINS_7printer13ReverseTraitsEE17set_default_valueEb = comdat any

$_ZNK13cloud_devices17BooleanCapabilityINS_7printer13ReverseTraitsEE13default_valueEv = comdat any

$_ZN13cloud_devices10TicketItemINS_7printer15PwgRasterConfigENS1_21PwgRasterConfigTraitsEEC5Ev = comdat any

$_ZN13cloud_devices10TicketItemINS_7printer15PwgRasterConfigENS1_21PwgRasterConfigTraitsEE5ResetEv = comdat any

$_ZN13cloud_devices10TicketItemINS_7printer15PwgRasterConfigENS1_21PwgRasterConfigTraitsEED5Ev = comdat any

$_ZN13cloud_devices10TicketItemINS_7printer15PwgRasterConfigENS1_21PwgRasterConfigTraitsEE8LoadFromERKNS_22CloudDeviceDescriptionE = comdat any

$_ZN13cloud_devices10TicketItemINS_7printer15PwgRasterConfigENS1_21PwgRasterConfigTraitsEE9set_valueERKS2_ = comdat any

$_ZNK13cloud_devices10TicketItemINS_7printer15PwgRasterConfigENS1_21PwgRasterConfigTraitsEE7IsValidEv = comdat any

$_ZNK13cloud_devices10TicketItemINS_7printer15PwgRasterConfigENS1_21PwgRasterConfigTraitsEE6SaveToEPNS_22CloudDeviceDescriptionE = comdat any

$_ZNK13cloud_devices10TicketItemINS_7printer15PwgRasterConfigENS1_21PwgRasterConfigTraitsEE5valueEv = comdat any

$_ZN13cloud_devices10TicketItemINS_7printer5ColorENS1_11ColorTraitsEEC5Ev = comdat any

$_ZN13cloud_devices10TicketItemINS_7printer5ColorENS1_11ColorTraitsEE5ResetEv = comdat any

$_ZN13cloud_devices10TicketItemINS_7printer5ColorENS1_11ColorTraitsEED5Ev = comdat any

$_ZN13cloud_devices10TicketItemINS_7printer5ColorENS1_11ColorTraitsEE8LoadFromERKNS_22CloudDeviceDescriptionE = comdat any

$_ZN13cloud_devices10TicketItemINS_7printer5ColorENS1_11ColorTraitsEE9set_valueERKS2_ = comdat any

$_ZNK13cloud_devices10TicketItemINS_7printer5ColorENS1_11ColorTraitsEE7IsValidEv = comdat any

$_ZNK13cloud_devices10TicketItemINS_7printer5ColorENS1_11ColorTraitsEE6SaveToEPNS_22CloudDeviceDescriptionE = comdat any

$_ZNK13cloud_devices10TicketItemINS_7printer5ColorENS1_11ColorTraitsEE5valueEv = comdat any

$_ZN13cloud_devices10TicketItemINS_7printer10DuplexTypeENS1_12DuplexTraitsEEC5Ev = comdat any

$_ZN13cloud_devices10TicketItemINS_7printer10DuplexTypeENS1_12DuplexTraitsEE5ResetEv = comdat any

$_ZN13cloud_devices10TicketItemINS_7printer10DuplexTypeENS1_12DuplexTraitsEED5Ev = comdat any

$_ZN13cloud_devices10TicketItemINS_7printer10DuplexTypeENS1_12DuplexTraitsEE8LoadFromERKNS_22CloudDeviceDescriptionE = comdat any

$_ZN13cloud_devices10TicketItemINS_7printer10DuplexTypeENS1_12DuplexTraitsEE9set_valueERKS2_ = comdat any

$_ZNK13cloud_devices10TicketItemINS_7printer10DuplexTypeENS1_12DuplexTraitsEE7IsValidEv = comdat any

$_ZNK13cloud_devices10TicketItemINS_7printer10DuplexTypeENS1_12DuplexTraitsEE6SaveToEPNS_22CloudDeviceDescriptionE = comdat any

$_ZNK13cloud_devices10TicketItemINS_7printer10DuplexTypeENS1_12DuplexTraitsEE5valueEv = comdat any

$_ZN13cloud_devices10TicketItemINS_7printer15OrientationTypeENS1_17OrientationTraitsEEC5Ev = comdat any

$_ZN13cloud_devices10TicketItemINS_7printer15OrientationTypeENS1_17OrientationTraitsEE5ResetEv = comdat any

$_ZN13cloud_devices10TicketItemINS_7printer15OrientationTypeENS1_17OrientationTraitsEED5Ev = comdat any

$_ZN13cloud_devices10TicketItemINS_7printer15OrientationTypeENS1_17OrientationTraitsEE8LoadFromERKNS_22CloudDeviceDescriptionE = comdat any

$_ZN13cloud_devices10TicketItemINS_7printer15OrientationTypeENS1_17OrientationTraitsEE9set_valueERKS2_ = comdat any

$_ZNK13cloud_devices10TicketItemINS_7printer15OrientationTypeENS1_17OrientationTraitsEE7IsValidEv = comdat any

$_ZNK13cloud_devices10TicketItemINS_7printer15OrientationTypeENS1_17OrientationTraitsEE6SaveToEPNS_22CloudDeviceDescriptionE = comdat any

$_ZNK13cloud_devices10TicketItemINS_7printer15OrientationTypeENS1_17OrientationTraitsEE5valueEv = comdat any

$_ZN13cloud_devices10TicketItemINS_7printer7MarginsENS1_13MarginsTraitsEEC5Ev = comdat any

$_ZN13cloud_devices10TicketItemINS_7printer7MarginsENS1_13MarginsTraitsEE5ResetEv = comdat any

$_ZN13cloud_devices10TicketItemINS_7printer7MarginsENS1_13MarginsTraitsEED5Ev = comdat any

$_ZN13cloud_devices10TicketItemINS_7printer7MarginsENS1_13MarginsTraitsEE8LoadFromERKNS_22CloudDeviceDescriptionE = comdat any

$_ZN13cloud_devices10TicketItemINS_7printer7MarginsENS1_13MarginsTraitsEE9set_valueERKS2_ = comdat any

$_ZNK13cloud_devices10TicketItemINS_7printer7MarginsENS1_13MarginsTraitsEE7IsValidEv = comdat any

$_ZNK13cloud_devices10TicketItemINS_7printer7MarginsENS1_13MarginsTraitsEE6SaveToEPNS_22CloudDeviceDescriptionE = comdat any

$_ZNK13cloud_devices10TicketItemINS_7printer7MarginsENS1_13MarginsTraitsEE5valueEv = comdat any

$_ZN13cloud_devices10TicketItemINS_7printer3DpiENS1_9DpiTraitsEEC5Ev = comdat any

$_ZN13cloud_devices10TicketItemINS_7printer3DpiENS1_9DpiTraitsEE5ResetEv = comdat any

$_ZN13cloud_devices10TicketItemINS_7printer3DpiENS1_9DpiTraitsEED5Ev = comdat any

$_ZN13cloud_devices10TicketItemINS_7printer3DpiENS1_9DpiTraitsEE8LoadFromERKNS_22CloudDeviceDescriptionE = comdat any

$_ZN13cloud_devices10TicketItemINS_7printer3DpiENS1_9DpiTraitsEE9set_valueERKS2_ = comdat any

$_ZNK13cloud_devices10TicketItemINS_7printer3DpiENS1_9DpiTraitsEE7IsValidEv = comdat any

$_ZNK13cloud_devices10TicketItemINS_7printer3DpiENS1_9DpiTraitsEE6SaveToEPNS_22CloudDeviceDescriptionE = comdat any

$_ZNK13cloud_devices10TicketItemINS_7printer3DpiENS1_9DpiTraitsEE5valueEv = comdat any

$_ZN13cloud_devices10TicketItemINS_7printer13FitToPageTypeENS1_15FitToPageTraitsEEC5Ev = comdat any

$_ZN13cloud_devices10TicketItemINS_7printer13FitToPageTypeENS1_15FitToPageTraitsEE5ResetEv = comdat any

$_ZN13cloud_devices10TicketItemINS_7printer13FitToPageTypeENS1_15FitToPageTraitsEED5Ev = comdat any

$_ZN13cloud_devices10TicketItemINS_7printer13FitToPageTypeENS1_15FitToPageTraitsEE8LoadFromERKNS_22CloudDeviceDescriptionE = comdat any

$_ZN13cloud_devices10TicketItemINS_7printer13FitToPageTypeENS1_15FitToPageTraitsEE9set_valueERKS2_ = comdat any

$_ZNK13cloud_devices10TicketItemINS_7printer13FitToPageTypeENS1_15FitToPageTraitsEE7IsValidEv = comdat any

$_ZNK13cloud_devices10TicketItemINS_7printer13FitToPageTypeENS1_15FitToPageTraitsEE6SaveToEPNS_22CloudDeviceDescriptionE = comdat any

$_ZNK13cloud_devices10TicketItemINS_7printer13FitToPageTypeENS1_15FitToPageTraitsEE5valueEv = comdat any

$_ZN13cloud_devices10TicketItemINS_7printer5MediaENS1_11MediaTraitsEEC5Ev = comdat any

$_ZN13cloud_devices10TicketItemINS_7printer5MediaENS1_11MediaTraitsEE5ResetEv = comdat any

$_ZN13cloud_devices10TicketItemINS_7printer5MediaENS1_11MediaTraitsEED5Ev = comdat any

$_ZN13cloud_devices10TicketItemINS_7printer5MediaENS1_11MediaTraitsEE8LoadFromERKNS_22CloudDeviceDescriptionE = comdat any

$_ZN13cloud_devices10TicketItemINS_7printer5MediaENS1_11MediaTraitsEE9set_valueERKS2_ = comdat any

$_ZNK13cloud_devices10TicketItemINS_7printer5MediaENS1_11MediaTraitsEE7IsValidEv = comdat any

$_ZNK13cloud_devices10TicketItemINS_7printer5MediaENS1_11MediaTraitsEE6SaveToEPNS_22CloudDeviceDescriptionE = comdat any

$_ZNK13cloud_devices10TicketItemINS_7printer5MediaENS1_11MediaTraitsEE5valueEv = comdat any

$_ZN13cloud_devices10TicketItemIiNS_7printer22CopiesTicketItemTraitsEEC5Ev = comdat any

$_ZN13cloud_devices10TicketItemIiNS_7printer22CopiesTicketItemTraitsEE5ResetEv = comdat any

$_ZN13cloud_devices10TicketItemIiNS_7printer22CopiesTicketItemTraitsEED5Ev = comdat any

$_ZN13cloud_devices10TicketItemIiNS_7printer22CopiesTicketItemTraitsEE8LoadFromERKNS_22CloudDeviceDescriptionE = comdat any

$_ZN13cloud_devices10TicketItemIiNS_7printer22CopiesTicketItemTraitsEE9set_valueERKi = comdat any

$_ZNK13cloud_devices10TicketItemIiNS_7printer22CopiesTicketItemTraitsEE7IsValidEv = comdat any

$_ZNK13cloud_devices10TicketItemIiNS_7printer22CopiesTicketItemTraitsEE6SaveToEPNS_22CloudDeviceDescriptionE = comdat any

$_ZNK13cloud_devices10TicketItemIiNS_7printer22CopiesTicketItemTraitsEE5valueEv = comdat any

$_ZN13cloud_devices10TicketItemINSt3__16vectorINS_7printer8IntervalENS1_9allocatorIS4_EEEENS3_15PageRangeTraitsEEC5Ev = comdat any

$_ZN13cloud_devices10TicketItemINSt3__16vectorINS_7printer8IntervalENS1_9allocatorIS4_EEEENS3_15PageRangeTraitsEE5ResetEv = comdat any

$_ZN13cloud_devices10TicketItemINSt3__16vectorINS_7printer8IntervalENS1_9allocatorIS4_EEEENS3_15PageRangeTraitsEED5Ev = comdat any

$_ZN13cloud_devices10TicketItemINSt3__16vectorINS_7printer8IntervalENS1_9allocatorIS4_EEEENS3_15PageRangeTraitsEE8LoadFromERKNS_22CloudDeviceDescriptionE = comdat any

$_ZN13cloud_devices7printer15PageRangeTraits4LoadERKN4base5ValueEPNSt3__16vectorINS0_8IntervalENS6_9allocatorIS8_EEEE = comdat any

$_ZN13cloud_devices10TicketItemINSt3__16vectorINS_7printer8IntervalENS1_9allocatorIS4_EEEENS3_15PageRangeTraitsEE9set_valueERKS7_ = comdat any

$_ZNK13cloud_devices10TicketItemINSt3__16vectorINS_7printer8IntervalENS1_9allocatorIS4_EEEENS3_15PageRangeTraitsEE7IsValidEv = comdat any

$_ZNK13cloud_devices10TicketItemINSt3__16vectorINS_7printer8IntervalENS1_9allocatorIS4_EEEENS3_15PageRangeTraitsEE6SaveToEPNS_22CloudDeviceDescriptionE = comdat any

$_ZN13cloud_devices7printer15PageRangeTraits4SaveERKNSt3__16vectorINS0_8IntervalENS2_9allocatorIS4_EEEEPN4base5ValueE = comdat any

$_ZNK13cloud_devices10TicketItemINSt3__16vectorINS_7printer8IntervalENS1_9allocatorIS4_EEEENS3_15PageRangeTraitsEE5valueEv = comdat any

$_ZN13cloud_devices10TicketItemIbNS_7printer13CollateTraitsEEC5Ev = comdat any

$_ZN13cloud_devices10TicketItemIbNS_7printer13CollateTraitsEE5ResetEv = comdat any

$_ZN13cloud_devices10TicketItemIbNS_7printer13CollateTraitsEED5Ev = comdat any

$_ZN13cloud_devices10TicketItemIbNS_7printer13CollateTraitsEE8LoadFromERKNS_22CloudDeviceDescriptionE = comdat any

$_ZN13cloud_devices10TicketItemIbNS_7printer13CollateTraitsEE9set_valueERKb = comdat any

$_ZNK13cloud_devices10TicketItemIbNS_7printer13CollateTraitsEE7IsValidEv = comdat any

$_ZNK13cloud_devices10TicketItemIbNS_7printer13CollateTraitsEE6SaveToEPNS_22CloudDeviceDescriptionE = comdat any

$_ZNK13cloud_devices10TicketItemIbNS_7printer13CollateTraitsEE5valueEv = comdat any

$_ZN13cloud_devices10TicketItemIbNS_7printer13ReverseTraitsEEC5Ev = comdat any

$_ZN13cloud_devices10TicketItemIbNS_7printer13ReverseTraitsEE5ResetEv = comdat any

$_ZN13cloud_devices10TicketItemIbNS_7printer13ReverseTraitsEED5Ev = comdat any

$_ZN13cloud_devices10TicketItemIbNS_7printer13ReverseTraitsEE8LoadFromERKNS_22CloudDeviceDescriptionE = comdat any

$_ZN13cloud_devices10TicketItemIbNS_7printer13ReverseTraitsEE9set_valueERKb = comdat any

$_ZNK13cloud_devices10TicketItemIbNS_7printer13ReverseTraitsEE7IsValidEv = comdat any

$_ZNK13cloud_devices10TicketItemIbNS_7printer13ReverseTraitsEE6SaveToEPNS_22CloudDeviceDescriptionE = comdat any

$_ZNK13cloud_devices10TicketItemIbNS_7printer13ReverseTraitsEE5valueEv = comdat any

$_ZN4base25CheckedContiguousIteratorIKNS_5ValueEEC2EPS2_S4_S4_ = comdat any

$_ZZN7logging15CheckOpValueStrIPKN4base5ValueEEENSt3__19enable_ifIXaasr4base8internal23SupportsOstreamOperatorIRKT_EE5valuentsr3std11is_functionINS5_14remove_pointerIS7_E4typeEEE5valueEPcE4typeES9_ENUlRNS5_13basic_ostreamIcNS5_11char_traitsIcEEEEPKvE_8__invokeESK_SM_ = comdat any

$_ZNK4base25CheckedContiguousIteratorIKNS_5ValueEE15CheckComparableERKS3_ = comdat any

$_ZNSt3__16vectorIN4base5ValueENS_9allocatorIS2_EEE21__push_back_slow_pathIS2_EEvOT_ = comdat any

$_ZNSt3__16vectorIN13cloud_devices7printer24PwgDocumentTypeSupportedENS_9allocatorIS3_EEE6assignIPS3_EENS_9enable_ifIXaasr27__is_cpp17_forward_iteratorIT_EE5valuesr16is_constructibleIS3_NS_15iterator_traitsISA_E9referenceEEE5valueEvE4typeESA_SA_ = comdat any

$_ZNSt3__16vectorINS_12basic_stringIcNS_11char_traitsIcEENS_9allocatorIcEEEENS4_IS6_EEE24__emplace_back_slow_pathIJS6_EEEvDpOT_ = comdat any

$_ZNSt3__16vectorIN13cloud_devices7printer16VendorCapabilityENS_9allocatorIS3_EEE24__emplace_back_slow_pathIJS3_EEEvDpOT_ = comdat any

$_ZNSt3__16vectorIN13cloud_devices7printer28SelectVendorCapabilityOptionENS_9allocatorIS3_EEE21__push_back_slow_pathIRKS3_EEvOT_ = comdat any

$_ZNSt3__16vectorIN13cloud_devices7printer5ColorENS_9allocatorIS3_EEE21__push_back_slow_pathIRKS3_EEvOT_ = comdat any

$_ZNSt3__16vectorIN13cloud_devices7printer5MediaENS_9allocatorIS3_EEE21__push_back_slow_pathIRKS3_EEvOT_ = comdat any

$_ZNSt3__16vectorIN13cloud_devices7printer8IntervalENS_9allocatorIS3_EEE6assignIPS3_EENS_9enable_ifIXaasr27__is_cpp17_forward_iteratorIT_EE5valuesr16is_constructibleIS3_NS_15iterator_traitsISA_E9referenceEEE5valueEvE4typeESA_SA_ = comdat any

@_ZN13cloud_devices4json10kKeyOptionE = external constant [0 x i8], align 1
@_ZN13cloud_devices4json13kKeyIsDefaultE = external constant [0 x i8], align 1
@.str = private unnamed_addr constant [58 x i8] c"../../components/cloud_devices/common/description_items.h\00", align 1
@.str.1 = private unnamed_addr constant [18 x i8] c"!options_.empty()\00", align 1
@_ZN13cloud_devices4json11kKeyDefaultE = external constant [0 x i8], align 1
@_ZN13cloud_devices7printer12_GLOBAL__N_113kKeyValueTypeE = internal constant [11 x i8] c"value_type\00", align 1
@_ZN13cloud_devices7printer12_GLOBAL__N_131kRangeVendorCapabilityTypeNamesE = internal unnamed_addr constant [2 x %"struct.cloud_devices::printer::(anonymous namespace)::RangeVendorCapabilityTypeNames"] [%"struct.cloud_devices::printer::(anonymous namespace)::RangeVendorCapabilityTypeNames" { i32 0, i8* getelementptr inbounds ([6 x i8], [6 x i8]* @_ZN13cloud_devices7printer12_GLOBAL__N_131kTypeRangeVendorCapabilityFloatE, i32 0, i32 0) }, %"struct.cloud_devices::printer::(anonymous namespace)::RangeVendorCapabilityTypeNames" { i32 1, i8* getelementptr inbounds ([8 x i8], [8 x i8]* @_ZN13cloud_devices7printer12_GLOBAL__N_133kTypeRangeVendorCapabilityIntegerE, i32 0, i32 0) }], align 16
@_ZN13cloud_devices7printer12_GLOBAL__N_19kMinValueE = internal constant [4 x i8] c"min\00", align 1
@_ZN13cloud_devices7printer12_GLOBAL__N_19kMaxValueE = internal constant [4 x i8] c"max\00", align 1
@_ZN13cloud_devices7printer12_GLOBAL__N_113kDefaultValueE = internal constant [8 x i8] c"default\00", align 1
@.str.3 = private unnamed_addr constant [5 x i8] c"true\00", align 1
@.str.4 = private unnamed_addr constant [6 x i8] c"false\00", align 1
@_ZN13cloud_devices7printer12_GLOBAL__N_136kTypedValueVendorCapabilityTypeNamesE = internal unnamed_addr constant [4 x %"struct.cloud_devices::printer::(anonymous namespace)::TypedValueVendorCapabilityTypeNames"] [%"struct.cloud_devices::printer::(anonymous namespace)::TypedValueVendorCapabilityTypeNames" { i32 0, i8* getelementptr inbounds ([8 x i8], [8 x i8]* @_ZN13cloud_devices7printer12_GLOBAL__N_138kTypeTypedValueVendorCapabilityBooleanE, i32 0, i32 0) }, %"struct.cloud_devices::printer::(anonymous namespace)::TypedValueVendorCapabilityTypeNames" { i32 1, i8* getelementptr inbounds ([6 x i8], [6 x i8]* @_ZN13cloud_devices7printer12_GLOBAL__N_136kTypeTypedValueVendorCapabilityFloatE, i32 0, i32 0) }, %"struct.cloud_devices::printer::(anonymous namespace)::TypedValueVendorCapabilityTypeNames" { i32 2, i8* getelementptr inbounds ([8 x i8], [8 x i8]* @_ZN13cloud_devices7printer12_GLOBAL__N_138kTypeTypedValueVendorCapabilityIntegerE, i32 0, i32 0) }, %"struct.cloud_devices::printer::(anonymous namespace)::TypedValueVendorCapabilityTypeNames" { i32 3, i8* getelementptr inbounds ([7 x i8], [7 x i8]* @_ZN13cloud_devices7printer12_GLOBAL__N_137kTypeTypedValueVendorCapabilityStringE, i32 0, i32 0) }], align 16
@_ZN13cloud_devices7printer12_GLOBAL__N_18kKeyTypeE = internal constant [5 x i8] c"type\00", align 1
@_ZN13cloud_devices7printer12_GLOBAL__N_126kVendorCapabilityTypeNamesE = internal unnamed_addr constant [3 x %"struct.cloud_devices::printer::(anonymous namespace)::VendorCapabilityTypeNames"] [%"struct.cloud_devices::printer::(anonymous namespace)::VendorCapabilityTypeNames" { i32 1, i8* getelementptr inbounds ([6 x i8], [6 x i8]* @_ZN13cloud_devices7printer12_GLOBAL__N_126kTypeVendorCapabilityRangeE, i32 0, i32 0) }, %"struct.cloud_devices::printer::(anonymous namespace)::VendorCapabilityTypeNames" { i32 2, i8* getelementptr inbounds ([7 x i8], [7 x i8]* @_ZN13cloud_devices7printer12_GLOBAL__N_127kTypeVendorCapabilitySelectE, i32 0, i32 0) }, %"struct.cloud_devices::printer::(anonymous namespace)::VendorCapabilityTypeNames" { i32 3, i8* getelementptr inbounds ([12 x i8], [12 x i8]* @_ZN13cloud_devices7printer12_GLOBAL__N_131kTypeVendorCapabilityTypedValueE, i32 0, i32 0) }], align 16
@_ZN13cloud_devices7printer12_GLOBAL__N_16kKeyIdE = internal constant [3 x i8] c"id\00", align 1
@_ZN13cloud_devices7printer12_GLOBAL__N_115kKeyDisplayNameE = internal constant [13 x i8] c"display_name\00", align 1
@_ZN13cloud_devices7printer12_GLOBAL__N_122kOptionRangeCapabilityE = internal constant [10 x i8] c"range_cap\00", align 1
@_ZN13cloud_devices7printer12_GLOBAL__N_123kOptionSelectCapabilityE = internal constant [11 x i8] c"select_cap\00", align 1
@_ZN13cloud_devices7printer12_GLOBAL__N_127kOptionTypedValueCapabilityE = internal constant [16 x i8] c"typed_value_cap\00", align 16
@.str.5 = private unnamed_addr constant [17 x i8] c"start <= current\00", align 1
@.str.6 = private unnamed_addr constant [42 x i8] c"../../base/containers/checked_iterators.h\00", align 1
@.str.7 = private unnamed_addr constant [15 x i8] c"current <= end\00", align 1
@.str.8 = private unnamed_addr constant [23 x i8] c"start_ == other.start_\00", align 1
@.str.9 = private unnamed_addr constant [19 x i8] c"end_ == other.end_\00", align 1
@.str.10 = private unnamed_addr constant [17 x i8] c"current_ != end_\00", align 1
@_ZN13cloud_devices7printer12_GLOBAL__N_115kKeyContentTypeE = internal constant [13 x i8] c"content_type\00", align 1
@_ZN13cloud_devices7printer12_GLOBAL__N_127kPwgRasterDocumentSheetBackE = internal constant [20 x i8] c"document_sheet_back\00", align 16
@_ZN13cloud_devices7printer12_GLOBAL__N_123kDocumentSheetBackNamesE = internal unnamed_addr constant [4 x %"struct.cloud_devices::printer::(anonymous namespace)::DocumentSheetBackNames"] [%"struct.cloud_devices::printer::(anonymous namespace)::DocumentSheetBackNames" { i32 0, i8* getelementptr inbounds ([7 x i8], [7 x i8]* @_ZN13cloud_devices7printer12_GLOBAL__N_128kTypeDocumentSheetBackNormalE, i32 0, i32 0) }, %"struct.cloud_devices::printer::(anonymous namespace)::DocumentSheetBackNames" { i32 1, i8* getelementptr inbounds ([8 x i8], [8 x i8]* @_ZN13cloud_devices7printer12_GLOBAL__N_129kTypeDocumentSheetBackRotatedE, i32 0, i32 0) }, %"struct.cloud_devices::printer::(anonymous namespace)::DocumentSheetBackNames" { i32 2, i8* getelementptr inbounds ([14 x i8], [14 x i8]* @_ZN13cloud_devices7printer12_GLOBAL__N_134kTypeDocumentSheetBackManualTumbleE, i32 0, i32 0) }, %"struct.cloud_devices::printer::(anonymous namespace)::DocumentSheetBackNames" { i32 3, i8* getelementptr inbounds ([8 x i8], [8 x i8]* @_ZN13cloud_devices7printer12_GLOBAL__N_129kTypeDocumentSheetBackFlippedE, i32 0, i32 0) }], align 16
@_ZN13cloud_devices7printer12_GLOBAL__N_131kPwgRasterDocumentTypeSupportedE = internal constant [24 x i8] c"document_type_supported\00", align 16
@_ZN13cloud_devices7printer12_GLOBAL__N_131kTypeDocumentSupportedTypeSRGB8E = internal constant [7 x i8] c"SRGB_8\00", align 1
@_ZN13cloud_devices7printer12_GLOBAL__N_132kTypeDocumentSupportedTypeSGRAY8E = internal constant [8 x i8] c"SGRAY_8\00", align 1
@_ZN13cloud_devices7printer12_GLOBAL__N_131kPwgRasterReverseOrderStreamingE = internal constant [24 x i8] c"reverse_order_streaming\00", align 16
@_ZN13cloud_devices7printer12_GLOBAL__N_124kPwgRasterRotateAllPagesE = internal constant [17 x i8] c"rotate_all_pages\00", align 16
@_ZN13cloud_devices7printer12_GLOBAL__N_128kTypeDocumentSheetBackNormalE = internal constant [7 x i8] c"NORMAL\00", align 1
@_ZN13cloud_devices7printer12_GLOBAL__N_129kTypeDocumentSheetBackRotatedE = internal constant [8 x i8] c"ROTATED\00", align 1
@_ZN13cloud_devices7printer12_GLOBAL__N_134kTypeDocumentSheetBackManualTumbleE = internal constant [14 x i8] c"MANUAL_TUMBLE\00", align 1
@_ZN13cloud_devices7printer12_GLOBAL__N_129kTypeDocumentSheetBackFlippedE = internal constant [8 x i8] c"FLIPPED\00", align 1
@_ZN13cloud_devices7printer12_GLOBAL__N_19kKeyValueE = internal constant [6 x i8] c"value\00", align 1
@_ZN13cloud_devices7printer12_GLOBAL__N_111kColorNamesE = internal unnamed_addr constant [5 x %"struct.cloud_devices::printer::(anonymous namespace)::ColorNames"] [%"struct.cloud_devices::printer::(anonymous namespace)::ColorNames" { i32 0, i8* getelementptr inbounds ([15 x i8], [15 x i8]* @_ZN13cloud_devices7printer12_GLOBAL__N_115kTypeColorColorE, i32 0, i32 0) }, %"struct.cloud_devices::printer::(anonymous namespace)::ColorNames" { i32 1, i8* getelementptr inbounds ([20 x i8], [20 x i8]* @_ZN13cloud_devices7printer12_GLOBAL__N_120kTypeColorMonochromeE, i32 0, i32 0) }, %"struct.cloud_devices::printer::(anonymous namespace)::ColorNames" { i32 2, i8* getelementptr inbounds ([13 x i8], [13 x i8]* @_ZN13cloud_devices7printer12_GLOBAL__N_121kTypeColorCustomColorE, i32 0, i32 0) }, %"struct.cloud_devices::printer::(anonymous namespace)::ColorNames" { i32 3, i8* getelementptr inbounds ([18 x i8], [18 x i8]* @_ZN13cloud_devices7printer12_GLOBAL__N_126kTypeColorCustomMonochromeE, i32 0, i32 0) }, %"struct.cloud_devices::printer::(anonymous namespace)::ColorNames" { i32 4, i8* getelementptr inbounds ([5 x i8], [5 x i8]* @_ZN13cloud_devices7printer12_GLOBAL__N_114kTypeColorAutoE, i32 0, i32 0) }], align 16
@_ZN13cloud_devices7printer12_GLOBAL__N_112kKeyVendorIdE = internal constant [10 x i8] c"vendor_id\00", align 1
@_ZN13cloud_devices7printer12_GLOBAL__N_121kKeyCustomDisplayNameE = internal constant [20 x i8] c"custom_display_name\00", align 16
@_ZN13cloud_devices7printer12_GLOBAL__N_115kTypeColorColorE = internal constant [15 x i8] c"STANDARD_COLOR\00", align 1
@_ZN13cloud_devices7printer12_GLOBAL__N_120kTypeColorMonochromeE = internal constant [20 x i8] c"STANDARD_MONOCHROME\00", align 16
@_ZN13cloud_devices7printer12_GLOBAL__N_121kTypeColorCustomColorE = internal constant [13 x i8] c"CUSTOM_COLOR\00", align 1
@_ZN13cloud_devices7printer12_GLOBAL__N_126kTypeColorCustomMonochromeE = internal constant [18 x i8] c"CUSTOM_MONOCHROME\00", align 16
@_ZN13cloud_devices7printer12_GLOBAL__N_114kTypeColorAutoE = internal constant [5 x i8] c"AUTO\00", align 1
@_ZN13cloud_devices7printer12_GLOBAL__N_112kDuplexNamesE = internal unnamed_addr constant [3 x %"struct.cloud_devices::printer::(anonymous namespace)::DuplexNames"] [%"struct.cloud_devices::printer::(anonymous namespace)::DuplexNames" { i32 0, i8* getelementptr inbounds ([10 x i8], [10 x i8]* @_ZN13cloud_devices7printer12_GLOBAL__N_119kTypeDuplexNoDuplexE, i32 0, i32 0) }, %"struct.cloud_devices::printer::(anonymous namespace)::DuplexNames" { i32 1, i8* getelementptr inbounds ([10 x i8], [10 x i8]* @_ZN13cloud_devices7printer12_GLOBAL__N_119kTypeDuplexLongEdgeE, i32 0, i32 0) }, %"struct.cloud_devices::printer::(anonymous namespace)::DuplexNames" { i32 2, i8* getelementptr inbounds ([11 x i8], [11 x i8]* @_ZN13cloud_devices7printer12_GLOBAL__N_120kTypeDuplexShortEdgeE, i32 0, i32 0) }], align 16
@_ZN13cloud_devices7printer12_GLOBAL__N_119kTypeDuplexNoDuplexE = internal constant [10 x i8] c"NO_DUPLEX\00", align 1
@_ZN13cloud_devices7printer12_GLOBAL__N_119kTypeDuplexLongEdgeE = internal constant [10 x i8] c"LONG_EDGE\00", align 1
@_ZN13cloud_devices7printer12_GLOBAL__N_120kTypeDuplexShortEdgeE = internal constant [11 x i8] c"SHORT_EDGE\00", align 1
@_ZN13cloud_devices7printer12_GLOBAL__N_117kOrientationNamesE = internal unnamed_addr constant [3 x %"struct.cloud_devices::printer::(anonymous namespace)::OrientationNames"] [%"struct.cloud_devices::printer::(anonymous namespace)::OrientationNames" { i32 0, i8* getelementptr inbounds ([9 x i8], [9 x i8]* @_ZN13cloud_devices7printer12_GLOBAL__N_124kTypeOrientationPortraitE, i32 0, i32 0) }, %"struct.cloud_devices::printer::(anonymous namespace)::OrientationNames" { i32 1, i8* getelementptr inbounds ([10 x i8], [10 x i8]* @_ZN13cloud_devices7printer12_GLOBAL__N_125kTypeOrientationLandscapeE, i32 0, i32 0) }, %"struct.cloud_devices::printer::(anonymous namespace)::OrientationNames" { i32 2, i8* getelementptr inbounds ([5 x i8], [5 x i8]* @_ZN13cloud_devices7printer12_GLOBAL__N_120kTypeOrientationAutoE, i32 0, i32 0) }], align 16
@_ZN13cloud_devices7printer12_GLOBAL__N_124kTypeOrientationPortraitE = internal constant [9 x i8] c"PORTRAIT\00", align 1
@_ZN13cloud_devices7printer12_GLOBAL__N_125kTypeOrientationLandscapeE = internal constant [10 x i8] c"LANDSCAPE\00", align 1
@_ZN13cloud_devices7printer12_GLOBAL__N_120kTypeOrientationAutoE = internal constant [5 x i8] c"AUTO\00", align 1
@_ZN13cloud_devices7printer12_GLOBAL__N_113kMarginsNamesE = internal unnamed_addr constant [3 x %"struct.cloud_devices::printer::(anonymous namespace)::MarginsNames"] [%"struct.cloud_devices::printer::(anonymous namespace)::MarginsNames" { i32 0, i8* getelementptr inbounds ([11 x i8], [11 x i8]* @_ZN13cloud_devices7printer12_GLOBAL__N_122kTypeMarginsBorderlessE, i32 0, i32 0) }, %"struct.cloud_devices::printer::(anonymous namespace)::MarginsNames" { i32 1, i8* getelementptr inbounds ([9 x i8], [9 x i8]* @_ZN13cloud_devices7printer12_GLOBAL__N_120kTypeMarginsStandardE, i32 0, i32 0) }, %"struct.cloud_devices::printer::(anonymous namespace)::MarginsNames" { i32 2, i8* getelementptr inbounds ([7 x i8], [7 x i8]* @.str.14, i32 0, i32 0) }], align 16
@_ZN13cloud_devices7printer12_GLOBAL__N_110kMarginTopE = internal constant [12 x i8] c"top_microns\00", align 1
@_ZN13cloud_devices7printer12_GLOBAL__N_112kMarginRightE = internal constant [14 x i8] c"right_microns\00", align 1
@_ZN13cloud_devices7printer12_GLOBAL__N_113kMarginBottomE = internal constant [15 x i8] c"bottom_microns\00", align 1
@_ZN13cloud_devices7printer12_GLOBAL__N_111kMarginLeftE = internal constant [13 x i8] c"left_microns\00", align 1
@_ZN13cloud_devices7printer12_GLOBAL__N_122kTypeMarginsBorderlessE = internal constant [11 x i8] c"BORDERLESS\00", align 1
@_ZN13cloud_devices7printer12_GLOBAL__N_120kTypeMarginsStandardE = internal constant [9 x i8] c"STANDARD\00", align 1
@_ZN13cloud_devices7printer12_GLOBAL__N_114kDpiHorizontalE = internal constant [15 x i8] c"horizontal_dpi\00", align 1
@_ZN13cloud_devices7printer12_GLOBAL__N_112kDpiVerticalE = internal constant [13 x i8] c"vertical_dpi\00", align 1
@_ZN13cloud_devices7printer12_GLOBAL__N_115kFitToPageNamesE = internal unnamed_addr constant [5 x %"struct.cloud_devices::printer::(anonymous namespace)::FitToPageNames"] [%"struct.cloud_devices::printer::(anonymous namespace)::FitToPageNames" { i32 0, i8* getelementptr inbounds ([11 x i8], [11 x i8]* @_ZN13cloud_devices7printer12_GLOBAL__N_123kTypeFitToPageNoFittingE, i32 0, i32 0) }, %"struct.cloud_devices::printer::(anonymous namespace)::FitToPageNames" { i32 1, i8* getelementptr inbounds ([12 x i8], [12 x i8]* @_ZN13cloud_devices7printer12_GLOBAL__N_123kTypeFitToPageFitToPageE, i32 0, i32 0) }, %"struct.cloud_devices::printer::(anonymous namespace)::FitToPageNames" { i32 2, i8* getelementptr inbounds ([13 x i8], [13 x i8]* @_ZN13cloud_devices7printer12_GLOBAL__N_124kTypeFitToPageGrowToPageE, i32 0, i32 0) }, %"struct.cloud_devices::printer::(anonymous namespace)::FitToPageNames" { i32 3, i8* getelementptr inbounds ([15 x i8], [15 x i8]* @_ZN13cloud_devices7printer12_GLOBAL__N_126kTypeFitToPageShrinkToPageE, i32 0, i32 0) }, %"struct.cloud_devices::printer::(anonymous namespace)::FitToPageNames" { i32 4, i8* getelementptr inbounds ([10 x i8], [10 x i8]* @_ZN13cloud_devices7printer12_GLOBAL__N_122kTypeFitToPageFillPageE, i32 0, i32 0) }], align 16
@_ZN13cloud_devices7printer12_GLOBAL__N_123kTypeFitToPageNoFittingE = internal constant [11 x i8] c"NO_FITTING\00", align 1
@_ZN13cloud_devices7printer12_GLOBAL__N_123kTypeFitToPageFitToPageE = internal constant [12 x i8] c"FIT_TO_PAGE\00", align 1
@_ZN13cloud_devices7printer12_GLOBAL__N_124kTypeFitToPageGrowToPageE = internal constant [13 x i8] c"GROW_TO_PAGE\00", align 1
@_ZN13cloud_devices7printer12_GLOBAL__N_126kTypeFitToPageShrinkToPageE = internal constant [15 x i8] c"SHRINK_TO_PAGE\00", align 1
@_ZN13cloud_devices7printer12_GLOBAL__N_122kTypeFitToPageFillPageE = internal constant [10 x i8] c"FILL_PAGE\00", align 1
@_ZN13cloud_devices7printer12_GLOBAL__N_18kKeyNameE = internal constant [5 x i8] c"name\00", align 1
@_ZN13cloud_devices7printer12_GLOBAL__N_117kMediaDefinitionsE = internal constant [165 x %"struct.cloud_devices::printer::(anonymous namespace)::MediaDefinition"] [%"struct.cloud_devices::printer::(anonymous namespace)::MediaDefinition" { i32 0, i8* getelementptr inbounds ([7 x i8], [7 x i8]* @.str.14, i32 0, i32 0), i32 0, i32 0 }, %"struct.cloud_devices::printer::(anonymous namespace)::MediaDefinition" { i32 1, i8* getelementptr inbounds ([24 x i8], [24 x i8]* @.str.15, i32 0, i64 11), i32 76200, i32 127000 }, %"struct.cloud_devices::printer::(anonymous namespace)::MediaDefinition" { i32 2, i8* getelementptr inbounds ([23 x i8], [23 x i8]* @.str.16, i32 0, i64 11), i32 92075, i32 165100 }, %"struct.cloud_devices::printer::(anonymous namespace)::MediaDefinition" { i32 3, i8* getelementptr inbounds ([22 x i8], [22 x i8]* @.str.17, i32 0, i64 11), i32 98425, i32 190500 }, %"struct.cloud_devices::printer::(anonymous namespace)::MediaDefinition" { i32 4, i8* getelementptr inbounds ([23 x i8], [23 x i8]* @.str.18, i32 0, i64 11), i32 98425, i32 225425 }, %"struct.cloud_devices::printer::(anonymous namespace)::MediaDefinition" { i32 5, i8* getelementptr inbounds ([24 x i8], [24 x i8]* @.str.19, i32 0, i64 11), i32 101600, i32 152400 }, %"struct.cloud_devices::printer::(anonymous namespace)::MediaDefinition" { i32 6, i8* getelementptr inbounds ([24 x i8], [24 x i8]* @.str.20, i32 0, i64 11), i32 104775, i32 241300 }, %"struct.cloud_devices::printer::(anonymous namespace)::MediaDefinition" { i32 7, i8* getelementptr inbounds ([17 x i8], [17 x i8]* @.str.21, i32 0, i64 11), i32 111125, i32 146050 }, %"struct.cloud_devices::printer::(anonymous namespace)::MediaDefinition" { i32 8, i8* getelementptr inbounds ([24 x i8], [24 x i8]* @.str.22, i32 0, i64 11), i32 114300, i32 263525 }, %"struct.cloud_devices::printer::(anonymous namespace)::MediaDefinition" { i32 9, i8* getelementptr inbounds ([24 x i8], [24 x i8]* @.str.23, i32 0, i64 11), i32 120650, i32 279400 }, %"struct.cloud_devices::printer::(anonymous namespace)::MediaDefinition" { i32 10, i8* getelementptr inbounds ([18 x i8], [18 x i8]* @.str.24, i32 0, i64 11), i32 127000, i32 177800 }, %"struct.cloud_devices::printer::(anonymous namespace)::MediaDefinition" { i32 11, i8* getelementptr inbounds ([24 x i8], [24 x i8]* @.str.25, i32 0, i64 11), i32 127000, i32 203200 }, %"struct.cloud_devices::printer::(anonymous namespace)::MediaDefinition" { i32 12, i8* getelementptr inbounds ([24 x i8], [24 x i8]* @.str.26, i32 0, i64 11), i32 127000, i32 292100 }, %"struct.cloud_devices::printer::(anonymous namespace)::MediaDefinition" { i32 13, i8* getelementptr inbounds ([22 x i8], [22 x i8]* @.str.27, i32 0, i64 11), i32 139700, i32 215900 }, %"struct.cloud_devices::printer::(anonymous namespace)::MediaDefinition" { i32 14, i8* getelementptr inbounds ([28 x i8], [28 x i8]* @.str.28, i32 0, i64 11), i32 152400, i32 203200 }, %"struct.cloud_devices::printer::(anonymous namespace)::MediaDefinition" { i32 15, i8* getelementptr inbounds ([18 x i8], [18 x i8]* @.str.29, i32 0, i64 11), i32 152400, i32 228600 }, %"struct.cloud_devices::printer::(anonymous namespace)::MediaDefinition" { i32 16, i8* getelementptr inbounds ([17 x i8], [17 x i8]* @.str.30, i32 0, i64 11), i32 165100, i32 241300 }, %"struct.cloud_devices::printer::(anonymous namespace)::MediaDefinition" { i32 17, i8* getelementptr inbounds ([18 x i8], [18 x i8]* @.str.31, i32 0, i64 11), i32 177800, i32 228600 }, %"struct.cloud_devices::printer::(anonymous namespace)::MediaDefinition" { i32 18, i8* getelementptr inbounds ([24 x i8], [24 x i8]* @.str.32, i32 0, i64 11), i32 184150, i32 266700 }, %"struct.cloud_devices::printer::(anonymous namespace)::MediaDefinition" { i32 19, i8* getelementptr inbounds ([26 x i8], [26 x i8]* @.str.33, i32 0, i64 11), i32 203200, i32 254000 }, %"struct.cloud_devices::printer::(anonymous namespace)::MediaDefinition" { i32 20, i8* getelementptr inbounds ([25 x i8], [25 x i8]* @.str.34, i32 0, i64 11), i32 203200, i32 330200 }, %"struct.cloud_devices::printer::(anonymous namespace)::MediaDefinition" { i32 21, i8* getelementptr inbounds ([21 x i8], [21 x i8]* @.str.35, i32 0, i64 11), i32 215900, i32 275082 }, %"struct.cloud_devices::printer::(anonymous namespace)::MediaDefinition" { i32 22, i8* getelementptr inbounds ([21 x i8], [21 x i8]* @.str.36, i32 0, i64 11), i32 215900, i32 279400 }, %"struct.cloud_devices::printer::(anonymous namespace)::MediaDefinition" { i32 23, i8* getelementptr inbounds ([26 x i8], [26 x i8]* @.str.37, i32 0, i64 11), i32 215900, i32 304800 }, %"struct.cloud_devices::printer::(anonymous namespace)::MediaDefinition" { i32 24, i8* getelementptr inbounds ([26 x i8], [26 x i8]* @.str.38, i32 0, i64 11), i32 215900, i32 322326 }, %"struct.cloud_devices::printer::(anonymous namespace)::MediaDefinition" { i32 25, i8* getelementptr inbounds ([23 x i8], [23 x i8]* @.str.39, i32 0, i64 11), i32 215900, i32 330200 }, %"struct.cloud_devices::printer::(anonymous namespace)::MediaDefinition" { i32 26, i8* getelementptr inbounds ([20 x i8], [20 x i8]* @.str.40, i32 0, i64 11), i32 215900, i32 355600 }, %"struct.cloud_devices::printer::(anonymous namespace)::MediaDefinition" { i32 27, i8* getelementptr inbounds ([22 x i8], [22 x i8]* @.str.41, i32 0, i64 11), i32 227076, i32 355600 }, %"struct.cloud_devices::printer::(anonymous namespace)::MediaDefinition" { i32 28, i8* getelementptr inbounds ([19 x i8], [19 x i8]* @.str.42, i32 0, i64 11), i32 228600, i32 279400 }, %"struct.cloud_devices::printer::(anonymous namespace)::MediaDefinition" { i32 29, i8* getelementptr inbounds ([21 x i8], [21 x i8]* @.str.43, i32 0, i64 11), i32 228600, i32 304800 }, %"struct.cloud_devices::printer::(anonymous namespace)::MediaDefinition" { i32 30, i8* getelementptr inbounds ([27 x i8], [27 x i8]* @.str.44, i32 0, i64 11), i32 241300, i32 304800 }, %"struct.cloud_devices::printer::(anonymous namespace)::MediaDefinition" { i32 31, i8* getelementptr inbounds ([26 x i8], [26 x i8]* @.str.45, i32 0, i64 11), i32 241300, i32 381000 }, %"struct.cloud_devices::printer::(anonymous namespace)::MediaDefinition" { i32 32, i8* getelementptr inbounds ([20 x i8], [20 x i8]* @.str.46, i32 0, i64 11), i32 254000, i32 279400 }, %"struct.cloud_devices::printer::(anonymous namespace)::MediaDefinition" { i32 33, i8* getelementptr inbounds ([20 x i8], [20 x i8]* @.str.47, i32 0, i64 11), i32 254000, i32 330200 }, %"struct.cloud_devices::printer::(anonymous namespace)::MediaDefinition" { i32 34, i8* getelementptr inbounds ([20 x i8], [20 x i8]* @.str.48, i32 0, i64 11), i32 254000, i32 355600 }, %"struct.cloud_devices::printer::(anonymous namespace)::MediaDefinition" { i32 35, i8* getelementptr inbounds ([20 x i8], [20 x i8]* @.str.49, i32 0, i64 11), i32 254000, i32 381000 }, %"struct.cloud_devices::printer::(anonymous namespace)::MediaDefinition" { i32 36, i8* getelementptr inbounds ([20 x i8], [20 x i8]* @.str.50, i32 0, i64 11), i32 279400, i32 304800 }, %"struct.cloud_devices::printer::(anonymous namespace)::MediaDefinition" { i32 37, i8* getelementptr inbounds ([18 x i8], [18 x i8]* @.str.51, i32 0, i64 11), i32 279400, i32 355600 }, %"struct.cloud_devices::printer::(anonymous namespace)::MediaDefinition" { i32 38, i8* getelementptr inbounds ([25 x i8], [25 x i8]* @.str.52, i32 0, i64 11), i32 279400, i32 377825 }, %"struct.cloud_devices::printer::(anonymous namespace)::MediaDefinition" { i32 39, i8* getelementptr inbounds ([20 x i8], [20 x i8]* @.str.53, i32 0, i64 11), i32 279400, i32 381000 }, %"struct.cloud_devices::printer::(anonymous namespace)::MediaDefinition" { i32 40, i8* getelementptr inbounds ([21 x i8], [21 x i8]* @.str.54, i32 0, i64 11), i32 279400, i32 431800 }, %"struct.cloud_devices::printer::(anonymous namespace)::MediaDefinition" { i32 41, i8* getelementptr inbounds ([22 x i8], [22 x i8]* @.str.55, i32 0, i64 11), i32 304800, i32 355600 }, %"struct.cloud_devices::printer::(anonymous namespace)::MediaDefinition" { i32 42, i8* getelementptr inbounds ([21 x i8], [21 x i8]* @.str.56, i32 0, i64 11), i32 304800, i32 457200 }, %"struct.cloud_devices::printer::(anonymous namespace)::MediaDefinition" { i32 43, i8* getelementptr inbounds ([20 x i8], [20 x i8]* @.str.57, i32 0, i64 11), i32 304800, i32 482600 }, %"struct.cloud_devices::printer::(anonymous namespace)::MediaDefinition" { i32 44, i8* getelementptr inbounds ([21 x i8], [21 x i8]* @.str.58, i32 0, i64 11), i32 304800, i32 486918 }, %"struct.cloud_devices::printer::(anonymous namespace)::MediaDefinition" { i32 45, i8* getelementptr inbounds ([22 x i8], [22 x i8]* @.str.59, i32 0, i64 11), i32 330200, i32 482600 }, %"struct.cloud_devices::printer::(anonymous namespace)::MediaDefinition" { i32 46, i8* getelementptr inbounds ([16 x i8], [16 x i8]* @.str.60, i32 0, i64 11), i32 431800, i32 558800 }, %"struct.cloud_devices::printer::(anonymous namespace)::MediaDefinition" { i32 47, i8* getelementptr inbounds ([21 x i8], [21 x i8]* @.str.61, i32 0, i64 11), i32 457200, i32 609600 }, %"struct.cloud_devices::printer::(anonymous namespace)::MediaDefinition" { i32 48, i8* getelementptr inbounds ([16 x i8], [16 x i8]* @.str.62, i32 0, i64 11), i32 558800, i32 863600 }, %"struct.cloud_devices::printer::(anonymous namespace)::MediaDefinition" { i32 49, i8* getelementptr inbounds ([21 x i8], [21 x i8]* @.str.63, i32 0, i64 11), i32 609600, i32 914400 }, %"struct.cloud_devices::printer::(anonymous namespace)::MediaDefinition" { i32 50, i8* getelementptr inbounds ([21 x i8], [21 x i8]* @.str.64, i32 0, i64 11), i32 711200, i32 1016000 }, %"struct.cloud_devices::printer::(anonymous namespace)::MediaDefinition" { i32 51, i8* getelementptr inbounds ([26 x i8], [26 x i8]* @.str.65, i32 0, i64 11), i32 762000, i32 1066800 }, %"struct.cloud_devices::printer::(anonymous namespace)::MediaDefinition" { i32 52, i8* getelementptr inbounds ([16 x i8], [16 x i8]* @.str.66, i32 0, i64 11), i32 863600, i32 1117600 }, %"struct.cloud_devices::printer::(anonymous namespace)::MediaDefinition" { i32 53, i8* getelementptr inbounds ([21 x i8], [21 x i8]* @.str.67, i32 0, i64 11), i32 914400, i32 1219200 }, %"struct.cloud_devices::printer::(anonymous namespace)::MediaDefinition" { i32 54, i8* getelementptr inbounds ([16 x i8], [16 x i8]* @.str.68, i32 0, i64 11), i32 1117600, i32 1727200 }, %"struct.cloud_devices::printer::(anonymous namespace)::MediaDefinition" { i32 55, i8* getelementptr inbounds ([19 x i8], [19 x i8]* @.str.69, i32 0, i64 11), i32 196850, i32 273050 }, %"struct.cloud_devices::printer::(anonymous namespace)::MediaDefinition" { i32 56, i8* getelementptr inbounds ([18 x i8], [18 x i8]* @.str.70, i32 0, i64 11), i32 273050, i32 393700 }, %"struct.cloud_devices::printer::(anonymous namespace)::MediaDefinition" { i32 57, i8* getelementptr inbounds ([19 x i8], [19 x i8]* @.str.71, i32 0, i64 11), i32 97000, i32 151000 }, %"struct.cloud_devices::printer::(anonymous namespace)::MediaDefinition" { i32 58, i8* getelementptr inbounds ([17 x i8], [17 x i8]* @.str.72, i32 0, i64 11), i32 102000, i32 165000 }, %"struct.cloud_devices::printer::(anonymous namespace)::MediaDefinition" { i32 59, i8* getelementptr inbounds ([17 x i8], [17 x i8]* @.str.73, i32 0, i64 11), i32 102000, i32 176000 }, %"struct.cloud_devices::printer::(anonymous namespace)::MediaDefinition" { i32 60, i8* getelementptr inbounds ([17 x i8], [17 x i8]* @.str.74, i32 0, i64 11), i32 110000, i32 208000 }, %"struct.cloud_devices::printer::(anonymous namespace)::MediaDefinition" { i32 61, i8* getelementptr inbounds ([17 x i8], [17 x i8]* @.str.75, i32 0, i64 11), i32 110000, i32 220000 }, %"struct.cloud_devices::printer::(anonymous namespace)::MediaDefinition" { i32 62, i8* getelementptr inbounds ([17 x i8], [17 x i8]* @.str.76, i32 0, i64 11), i32 120000, i32 309000 }, %"struct.cloud_devices::printer::(anonymous namespace)::MediaDefinition" { i32 63, i8* getelementptr inbounds ([17 x i8], [17 x i8]* @.str.77, i32 0, i64 11), i32 120000, i32 230000 }, %"struct.cloud_devices::printer::(anonymous namespace)::MediaDefinition" { i32 64, i8* getelementptr inbounds ([17 x i8], [17 x i8]* @.str.78, i32 0, i64 11), i32 125000, i32 176000 }, %"struct.cloud_devices::printer::(anonymous namespace)::MediaDefinition" { i32 65, i8* getelementptr inbounds ([19 x i8], [19 x i8]* @.str.79, i32 0, i64 11), i32 146000, i32 215000 }, %"struct.cloud_devices::printer::(anonymous namespace)::MediaDefinition" { i32 66, i8* getelementptr inbounds ([17 x i8], [17 x i8]* @.str.80, i32 0, i64 11), i32 160000, i32 230000 }, %"struct.cloud_devices::printer::(anonymous namespace)::MediaDefinition" { i32 67, i8* getelementptr inbounds ([27 x i8], [27 x i8]* @.str.81, i32 0, i64 11), i32 198000, i32 275000 }, %"struct.cloud_devices::printer::(anonymous namespace)::MediaDefinition" { i32 68, i8* getelementptr inbounds ([21 x i8], [21 x i8]* @.str.82, i32 0, i64 11), i32 267000, i32 389000 }, %"struct.cloud_devices::printer::(anonymous namespace)::MediaDefinition" { i32 69, i8* getelementptr inbounds ([25 x i8], [25 x i8]* @.str.83, i32 0, i64 11), i32 275000, i32 395000 }, %"struct.cloud_devices::printer::(anonymous namespace)::MediaDefinition" { i32 70, i8* getelementptr inbounds ([18 x i8], [18 x i8]* @.str.84, i32 0, i64 11), i32 324000, i32 458000 }, %"struct.cloud_devices::printer::(anonymous namespace)::MediaDefinition" { i32 71, i8* getelementptr inbounds ([19 x i8], [19 x i8]* @.str.85, i32 0, i64 11), i32 26000, i32 37000 }, %"struct.cloud_devices::printer::(anonymous namespace)::MediaDefinition" { i32 72, i8* getelementptr inbounds ([18 x i8], [18 x i8]* @.str.86, i32 0, i64 11), i32 37000, i32 52000 }, %"struct.cloud_devices::printer::(anonymous namespace)::MediaDefinition" { i32 73, i8* getelementptr inbounds ([18 x i8], [18 x i8]* @.str.87, i32 0, i64 11), i32 52000, i32 74000 }, %"struct.cloud_devices::printer::(anonymous namespace)::MediaDefinition" { i32 74, i8* getelementptr inbounds ([18 x i8], [18 x i8]* @.str.88, i32 0, i64 11), i32 74000, i32 105000 }, %"struct.cloud_devices::printer::(anonymous namespace)::MediaDefinition" { i32 75, i8* getelementptr inbounds ([18 x i8], [18 x i8]* @.str.89, i32 0, i64 11), i32 105000, i32 148000 }, %"struct.cloud_devices::printer::(anonymous namespace)::MediaDefinition" { i32 76, i8* getelementptr inbounds ([18 x i8], [18 x i8]* @.str.90, i32 0, i64 11), i32 148000, i32 210000 }, %"struct.cloud_devices::printer::(anonymous namespace)::MediaDefinition" { i32 77, i8* getelementptr inbounds ([24 x i8], [24 x i8]* @.str.91, i32 0, i64 11), i32 174000, i32 235000 }, %"struct.cloud_devices::printer::(anonymous namespace)::MediaDefinition" { i32 78, i8* getelementptr inbounds ([18 x i8], [18 x i8]* @.str.92, i32 0, i64 11), i32 210000, i32 297000 }, %"struct.cloud_devices::printer::(anonymous namespace)::MediaDefinition" { i32 79, i8* getelementptr inbounds ([22 x i8], [22 x i8]* @.str.93, i32 0, i64 11), i32 225000, i32 297000 }, %"struct.cloud_devices::printer::(anonymous namespace)::MediaDefinition" { i32 80, i8* getelementptr inbounds ([24 x i8], [24 x i8]* @.str.94, i32 0, i64 11), i32 235000, i32 322000 }, %"struct.cloud_devices::printer::(anonymous namespace)::MediaDefinition" { i32 81, i8* getelementptr inbounds ([18 x i8], [18 x i8]* @.str.95, i32 0, i64 11), i32 297000, i32 420000 }, %"struct.cloud_devices::printer::(anonymous namespace)::MediaDefinition" { i32 82, i8* getelementptr inbounds ([20 x i8], [20 x i8]* @.str.96, i32 0, i64 11), i32 297000, i32 630000 }, %"struct.cloud_devices::printer::(anonymous namespace)::MediaDefinition" { i32 83, i8* getelementptr inbounds ([20 x i8], [20 x i8]* @.str.97, i32 0, i64 11), i32 297000, i32 841000 }, %"struct.cloud_devices::printer::(anonymous namespace)::MediaDefinition" { i32 84, i8* getelementptr inbounds ([20 x i8], [20 x i8]* @.str.98, i32 0, i64 11), i32 297000, i32 1051000 }, %"struct.cloud_devices::printer::(anonymous namespace)::MediaDefinition" { i32 85, i8* getelementptr inbounds ([20 x i8], [20 x i8]* @.str.99, i32 0, i64 11), i32 297000, i32 1261000 }, %"struct.cloud_devices::printer::(anonymous namespace)::MediaDefinition" { i32 86, i8* getelementptr inbounds ([20 x i8], [20 x i8]* @.str.100, i32 0, i64 11), i32 297000, i32 1471000 }, %"struct.cloud_devices::printer::(anonymous namespace)::MediaDefinition" { i32 87, i8* getelementptr inbounds ([20 x i8], [20 x i8]* @.str.101, i32 0, i64 11), i32 297000, i32 1682000 }, %"struct.cloud_devices::printer::(anonymous namespace)::MediaDefinition" { i32 88, i8* getelementptr inbounds ([20 x i8], [20 x i8]* @.str.102, i32 0, i64 11), i32 297000, i32 1892000 }, %"struct.cloud_devices::printer::(anonymous namespace)::MediaDefinition" { i32 89, i8* getelementptr inbounds ([24 x i8], [24 x i8]* @.str.103, i32 0, i64 11), i32 322000, i32 445000 }, %"struct.cloud_devices::printer::(anonymous namespace)::MediaDefinition" { i32 90, i8* getelementptr inbounds ([18 x i8], [18 x i8]* @.str.104, i32 0, i64 11), i32 420000, i32 594000 }, %"struct.cloud_devices::printer::(anonymous namespace)::MediaDefinition" { i32 91, i8* getelementptr inbounds ([20 x i8], [20 x i8]* @.str.105, i32 0, i64 11), i32 420000, i32 891000 }, %"struct.cloud_devices::printer::(anonymous namespace)::MediaDefinition" { i32 92, i8* getelementptr inbounds ([20 x i8], [20 x i8]* @.str.106, i32 0, i64 11), i32 420000, i32 1189000 }, %"struct.cloud_devices::printer::(anonymous namespace)::MediaDefinition" { i32 93, i8* getelementptr inbounds ([20 x i8], [20 x i8]* @.str.107, i32 0, i64 11), i32 420000, i32 1486000 }, %"struct.cloud_devices::printer::(anonymous namespace)::MediaDefinition" { i32 94, i8* getelementptr inbounds ([20 x i8], [20 x i8]* @.str.108, i32 0, i64 11), i32 420000, i32 1783000 }, %"struct.cloud_devices::printer::(anonymous namespace)::MediaDefinition" { i32 95, i8* getelementptr inbounds ([20 x i8], [20 x i8]* @.str.109, i32 0, i64 11), i32 420000, i32 2080000 }, %"struct.cloud_devices::printer::(anonymous namespace)::MediaDefinition" { i32 96, i8* getelementptr inbounds ([18 x i8], [18 x i8]* @.str.110, i32 0, i64 11), i32 594000, i32 841000 }, %"struct.cloud_devices::printer::(anonymous namespace)::MediaDefinition" { i32 97, i8* getelementptr inbounds ([20 x i8], [20 x i8]* @.str.111, i32 0, i64 11), i32 594000, i32 1261000 }, %"struct.cloud_devices::printer::(anonymous namespace)::MediaDefinition" { i32 98, i8* getelementptr inbounds ([20 x i8], [20 x i8]* @.str.112, i32 0, i64 11), i32 594000, i32 1682000 }, %"struct.cloud_devices::printer::(anonymous namespace)::MediaDefinition" { i32 99, i8* getelementptr inbounds ([20 x i8], [20 x i8]* @.str.113, i32 0, i64 11), i32 594000, i32 2102000 }, %"struct.cloud_devices::printer::(anonymous namespace)::MediaDefinition" { i32 100, i8* getelementptr inbounds ([18 x i8], [18 x i8]* @.str.114, i32 0, i64 11), i32 841000, i32 1189000 }, %"struct.cloud_devices::printer::(anonymous namespace)::MediaDefinition" { i32 101, i8* getelementptr inbounds ([20 x i8], [20 x i8]* @.str.115, i32 0, i64 11), i32 841000, i32 1783000 }, %"struct.cloud_devices::printer::(anonymous namespace)::MediaDefinition" { i32 102, i8* getelementptr inbounds ([20 x i8], [20 x i8]* @.str.116, i32 0, i64 11), i32 841000, i32 2378000 }, %"struct.cloud_devices::printer::(anonymous namespace)::MediaDefinition" { i32 103, i8* getelementptr inbounds ([19 x i8], [19 x i8]* @.str.117, i32 0, i64 11), i32 1189000, i32 1682000 }, %"struct.cloud_devices::printer::(anonymous namespace)::MediaDefinition" { i32 104, i8* getelementptr inbounds ([20 x i8], [20 x i8]* @.str.118, i32 0, i64 11), i32 1189000, i32 2523000 }, %"struct.cloud_devices::printer::(anonymous namespace)::MediaDefinition" { i32 105, i8* getelementptr inbounds ([19 x i8], [19 x i8]* @.str.119, i32 0, i64 11), i32 31000, i32 44000 }, %"struct.cloud_devices::printer::(anonymous namespace)::MediaDefinition" { i32 106, i8* getelementptr inbounds ([18 x i8], [18 x i8]* @.str.120, i32 0, i64 11), i32 44000, i32 62000 }, %"struct.cloud_devices::printer::(anonymous namespace)::MediaDefinition" { i32 107, i8* getelementptr inbounds ([18 x i8], [18 x i8]* @.str.121, i32 0, i64 11), i32 62000, i32 88000 }, %"struct.cloud_devices::printer::(anonymous namespace)::MediaDefinition" { i32 108, i8* getelementptr inbounds ([18 x i8], [18 x i8]* @.str.122, i32 0, i64 11), i32 88000, i32 125000 }, %"struct.cloud_devices::printer::(anonymous namespace)::MediaDefinition" { i32 109, i8* getelementptr inbounds ([18 x i8], [18 x i8]* @.str.123, i32 0, i64 11), i32 125000, i32 176000 }, %"struct.cloud_devices::printer::(anonymous namespace)::MediaDefinition" { i32 110, i8* getelementptr inbounds ([20 x i8], [20 x i8]* @.str.124, i32 0, i64 11), i32 125000, i32 324000 }, %"struct.cloud_devices::printer::(anonymous namespace)::MediaDefinition" { i32 111, i8* getelementptr inbounds ([18 x i8], [18 x i8]* @.str.125, i32 0, i64 11), i32 176000, i32 250000 }, %"struct.cloud_devices::printer::(anonymous namespace)::MediaDefinition" { i32 112, i8* getelementptr inbounds ([24 x i8], [24 x i8]* @.str.126, i32 0, i64 11), i32 201000, i32 276000 }, %"struct.cloud_devices::printer::(anonymous namespace)::MediaDefinition" { i32 113, i8* getelementptr inbounds ([18 x i8], [18 x i8]* @.str.127, i32 0, i64 11), i32 250000, i32 353000 }, %"struct.cloud_devices::printer::(anonymous namespace)::MediaDefinition" { i32 114, i8* getelementptr inbounds ([18 x i8], [18 x i8]* @.str.128, i32 0, i64 11), i32 353000, i32 500000 }, %"struct.cloud_devices::printer::(anonymous namespace)::MediaDefinition" { i32 115, i8* getelementptr inbounds ([18 x i8], [18 x i8]* @.str.129, i32 0, i64 11), i32 500000, i32 707000 }, %"struct.cloud_devices::printer::(anonymous namespace)::MediaDefinition" { i32 116, i8* getelementptr inbounds ([18 x i8], [18 x i8]* @.str.130, i32 0, i64 11), i32 707000, i32 1000000 }, %"struct.cloud_devices::printer::(anonymous namespace)::MediaDefinition" { i32 117, i8* getelementptr inbounds ([18 x i8], [18 x i8]* @.str.131, i32 0, i64 11), i32 1000000, i32 1414000 }, %"struct.cloud_devices::printer::(anonymous namespace)::MediaDefinition" { i32 118, i8* getelementptr inbounds ([19 x i8], [19 x i8]* @.str.132, i32 0, i64 11), i32 28000, i32 40000 }, %"struct.cloud_devices::printer::(anonymous namespace)::MediaDefinition" { i32 119, i8* getelementptr inbounds ([18 x i8], [18 x i8]* @.str.133, i32 0, i64 11), i32 40000, i32 57000 }, %"struct.cloud_devices::printer::(anonymous namespace)::MediaDefinition" { i32 120, i8* getelementptr inbounds ([18 x i8], [18 x i8]* @.str.134, i32 0, i64 11), i32 57000, i32 81000 }, %"struct.cloud_devices::printer::(anonymous namespace)::MediaDefinition" { i32 121, i8* getelementptr inbounds ([18 x i8], [18 x i8]* @.str.135, i32 0, i64 11), i32 81000, i32 114000 }, %"struct.cloud_devices::printer::(anonymous namespace)::MediaDefinition" { i32 122, i8* getelementptr inbounds ([20 x i8], [20 x i8]* @.str.136, i32 0, i64 11), i32 81000, i32 162000 }, %"struct.cloud_devices::printer::(anonymous namespace)::MediaDefinition" { i32 123, i8* getelementptr inbounds ([18 x i8], [18 x i8]* @.str.137, i32 0, i64 11), i32 114000, i32 162000 }, %"struct.cloud_devices::printer::(anonymous namespace)::MediaDefinition" { i32 124, i8* getelementptr inbounds ([20 x i8], [20 x i8]* @.str.138, i32 0, i64 11), i32 114000, i32 229000 }, %"struct.cloud_devices::printer::(anonymous namespace)::MediaDefinition" { i32 125, i8* getelementptr inbounds ([18 x i8], [18 x i8]* @.str.139, i32 0, i64 11), i32 162000, i32 229000 }, %"struct.cloud_devices::printer::(anonymous namespace)::MediaDefinition" { i32 126, i8* getelementptr inbounds ([18 x i8], [18 x i8]* @.str.140, i32 0, i64 11), i32 229000, i32 324000 }, %"struct.cloud_devices::printer::(anonymous namespace)::MediaDefinition" { i32 127, i8* getelementptr inbounds ([18 x i8], [18 x i8]* @.str.141, i32 0, i64 11), i32 324000, i32 458000 }, %"struct.cloud_devices::printer::(anonymous namespace)::MediaDefinition" { i32 128, i8* getelementptr inbounds ([18 x i8], [18 x i8]* @.str.142, i32 0, i64 11), i32 458000, i32 648000 }, %"struct.cloud_devices::printer::(anonymous namespace)::MediaDefinition" { i32 129, i8* getelementptr inbounds ([18 x i8], [18 x i8]* @.str.143, i32 0, i64 11), i32 648000, i32 917000 }, %"struct.cloud_devices::printer::(anonymous namespace)::MediaDefinition" { i32 130, i8* getelementptr inbounds ([18 x i8], [18 x i8]* @.str.144, i32 0, i64 11), i32 917000, i32 1297000 }, %"struct.cloud_devices::printer::(anonymous namespace)::MediaDefinition" { i32 131, i8* getelementptr inbounds ([18 x i8], [18 x i8]* @.str.145, i32 0, i64 11), i32 110000, i32 220000 }, %"struct.cloud_devices::printer::(anonymous namespace)::MediaDefinition" { i32 132, i8* getelementptr inbounds ([19 x i8], [19 x i8]* @.str.146, i32 0, i64 11), i32 430000, i32 610000 }, %"struct.cloud_devices::printer::(anonymous namespace)::MediaDefinition" { i32 133, i8* getelementptr inbounds ([20 x i8], [20 x i8]* @.str.147, i32 0, i64 11), i32 450000, i32 640000 }, %"struct.cloud_devices::printer::(anonymous namespace)::MediaDefinition" { i32 134, i8* getelementptr inbounds ([19 x i8], [19 x i8]* @.str.148, i32 0, i64 11), i32 610000, i32 860000 }, %"struct.cloud_devices::printer::(anonymous namespace)::MediaDefinition" { i32 135, i8* getelementptr inbounds ([20 x i8], [20 x i8]* @.str.149, i32 0, i64 11), i32 640000, i32 900000 }, %"struct.cloud_devices::printer::(anonymous namespace)::MediaDefinition" { i32 136, i8* getelementptr inbounds ([19 x i8], [19 x i8]* @.str.150, i32 0, i64 11), i32 860000, i32 1220000 }, %"struct.cloud_devices::printer::(anonymous namespace)::MediaDefinition" { i32 137, i8* getelementptr inbounds ([20 x i8], [20 x i8]* @.str.151, i32 0, i64 11), i32 900000, i32 1280000 }, %"struct.cloud_devices::printer::(anonymous namespace)::MediaDefinition" { i32 138, i8* getelementptr inbounds ([19 x i8], [19 x i8]* @.str.152, i32 0, i64 11), i32 32000, i32 45000 }, %"struct.cloud_devices::printer::(anonymous namespace)::MediaDefinition" { i32 139, i8* getelementptr inbounds ([18 x i8], [18 x i8]* @.str.153, i32 0, i64 11), i32 45000, i32 64000 }, %"struct.cloud_devices::printer::(anonymous namespace)::MediaDefinition" { i32 140, i8* getelementptr inbounds ([18 x i8], [18 x i8]* @.str.154, i32 0, i64 11), i32 64000, i32 91000 }, %"struct.cloud_devices::printer::(anonymous namespace)::MediaDefinition" { i32 141, i8* getelementptr inbounds ([18 x i8], [18 x i8]* @.str.155, i32 0, i64 11), i32 91000, i32 128000 }, %"struct.cloud_devices::printer::(anonymous namespace)::MediaDefinition" { i32 142, i8* getelementptr inbounds ([18 x i8], [18 x i8]* @.str.156, i32 0, i64 11), i32 128000, i32 182000 }, %"struct.cloud_devices::printer::(anonymous namespace)::MediaDefinition" { i32 143, i8* getelementptr inbounds ([18 x i8], [18 x i8]* @.str.157, i32 0, i64 11), i32 182000, i32 257000 }, %"struct.cloud_devices::printer::(anonymous namespace)::MediaDefinition" { i32 144, i8* getelementptr inbounds ([18 x i8], [18 x i8]* @.str.158, i32 0, i64 11), i32 257000, i32 364000 }, %"struct.cloud_devices::printer::(anonymous namespace)::MediaDefinition" { i32 145, i8* getelementptr inbounds ([18 x i8], [18 x i8]* @.str.159, i32 0, i64 11), i32 364000, i32 515000 }, %"struct.cloud_devices::printer::(anonymous namespace)::MediaDefinition" { i32 146, i8* getelementptr inbounds ([18 x i8], [18 x i8]* @.str.160, i32 0, i64 11), i32 515000, i32 728000 }, %"struct.cloud_devices::printer::(anonymous namespace)::MediaDefinition" { i32 147, i8* getelementptr inbounds ([18 x i8], [18 x i8]* @.str.161, i32 0, i64 11), i32 728000, i32 1030000 }, %"struct.cloud_devices::printer::(anonymous namespace)::MediaDefinition" { i32 148, i8* getelementptr inbounds ([18 x i8], [18 x i8]* @.str.162, i32 0, i64 11), i32 1030000, i32 1456000 }, %"struct.cloud_devices::printer::(anonymous namespace)::MediaDefinition" { i32 149, i8* getelementptr inbounds ([20 x i8], [20 x i8]* @.str.163, i32 0, i64 11), i32 216000, i32 330000 }, %"struct.cloud_devices::printer::(anonymous namespace)::MediaDefinition" { i32 150, i8* getelementptr inbounds ([21 x i8], [21 x i8]* @.str.164, i32 0, i64 11), i32 90000, i32 205000 }, %"struct.cloud_devices::printer::(anonymous namespace)::MediaDefinition" { i32 151, i8* getelementptr inbounds ([22 x i8], [22 x i8]* @.str.165, i32 0, i64 11), i32 100000, i32 148000 }, %"struct.cloud_devices::printer::(anonymous namespace)::MediaDefinition" { i32 152, i8* getelementptr inbounds ([20 x i8], [20 x i8]* @.str.166, i32 0, i64 11), i32 105000, i32 235000 }, %"struct.cloud_devices::printer::(anonymous namespace)::MediaDefinition" { i32 153, i8* getelementptr inbounds ([21 x i8], [21 x i8]* @.str.167, i32 0, i64 11), i32 111100, i32 146000 }, %"struct.cloud_devices::printer::(anonymous namespace)::MediaDefinition" { i32 154, i8* getelementptr inbounds ([21 x i8], [21 x i8]* @.str.168, i32 0, i64 11), i32 120000, i32 235000 }, %"struct.cloud_devices::printer::(anonymous namespace)::MediaDefinition" { i32 155, i8* getelementptr inbounds ([22 x i8], [22 x i8]* @.str.169, i32 0, i64 11), i32 148000, i32 200000 }, %"struct.cloud_devices::printer::(anonymous namespace)::MediaDefinition" { i32 156, i8* getelementptr inbounds ([20 x i8], [20 x i8]* @.str.170, i32 0, i64 11), i32 240000, i32 322100 }, %"struct.cloud_devices::printer::(anonymous namespace)::MediaDefinition" { i32 157, i8* getelementptr inbounds ([21 x i8], [21 x i8]* @.str.171, i32 0, i64 11), i32 240000, i32 332000 }, %"struct.cloud_devices::printer::(anonymous namespace)::MediaDefinition" { i32 158, i8* getelementptr inbounds ([26 x i8], [26 x i8]* @.str.172, i32 0, i64 11), i32 100000, i32 150000 }, %"struct.cloud_devices::printer::(anonymous namespace)::MediaDefinition" { i32 159, i8* getelementptr inbounds ([22 x i8], [22 x i8]* @.str.173, i32 0, i64 11), i32 110000, i32 230000 }, %"struct.cloud_devices::printer::(anonymous namespace)::MediaDefinition" { i32 160, i8* getelementptr inbounds ([22 x i8], [22 x i8]* @.str.174, i32 0, i64 11), i32 114000, i32 229000 }, %"struct.cloud_devices::printer::(anonymous namespace)::MediaDefinition" { i32 161, i8* getelementptr inbounds ([26 x i8], [26 x i8]* @.str.175, i32 0, i64 11), i32 200000, i32 300000 }, %"struct.cloud_devices::printer::(anonymous namespace)::MediaDefinition" { i32 162, i8* getelementptr inbounds ([20 x i8], [20 x i8]* @.str.176, i32 0, i64 11), i32 210000, i32 330000 }, %"struct.cloud_devices::printer::(anonymous namespace)::MediaDefinition" { i32 163, i8* getelementptr inbounds ([23 x i8], [23 x i8]* @.str.177, i32 0, i64 11), i32 215000, i32 315000 }, %"struct.cloud_devices::printer::(anonymous namespace)::MediaDefinition" { i32 164, i8* getelementptr inbounds ([21 x i8], [21 x i8]* @.str.178, i32 0, i64 11), i32 220000, i32 220000 }], align 16
@_ZN13cloud_devices7printer12_GLOBAL__N_111kMediaWidthE = internal constant [14 x i8] c"width_microns\00", align 1
@_ZN13cloud_devices7printer12_GLOBAL__N_112kMediaHeightE = internal constant [15 x i8] c"height_microns\00", align 1
@_ZN13cloud_devices7printer12_GLOBAL__N_118kMediaIsContinuousE = internal constant [19 x i8] c"is_continuous_feed\00", align 16
@.str.14 = private constant [7 x i8] c"CUSTOM\00", align 1
@.str.15 = private unnamed_addr constant [24 x i8] c"MediaType::NA_INDEX_3X5\00", align 1
@.str.16 = private unnamed_addr constant [23 x i8] c"MediaType::NA_PERSONAL\00", align 1
@.str.17 = private unnamed_addr constant [22 x i8] c"MediaType::NA_MONARCH\00", align 1
@.str.18 = private unnamed_addr constant [23 x i8] c"MediaType::NA_NUMBER_9\00", align 1
@.str.19 = private unnamed_addr constant [24 x i8] c"MediaType::NA_INDEX_4X6\00", align 1
@.str.20 = private unnamed_addr constant [24 x i8] c"MediaType::NA_NUMBER_10\00", align 1
@.str.21 = private unnamed_addr constant [17 x i8] c"MediaType::NA_A2\00", align 1
@.str.22 = private unnamed_addr constant [24 x i8] c"MediaType::NA_NUMBER_11\00", align 1
@.str.23 = private unnamed_addr constant [24 x i8] c"MediaType::NA_NUMBER_12\00", align 1
@.str.24 = private unnamed_addr constant [18 x i8] c"MediaType::NA_5X7\00", align 1
@.str.25 = private unnamed_addr constant [24 x i8] c"MediaType::NA_INDEX_5X8\00", align 1
@.str.26 = private unnamed_addr constant [24 x i8] c"MediaType::NA_NUMBER_14\00", align 1
@.str.27 = private unnamed_addr constant [22 x i8] c"MediaType::NA_INVOICE\00", align 1
@.str.28 = private unnamed_addr constant [28 x i8] c"MediaType::NA_INDEX_4X6_EXT\00", align 1
@.str.29 = private unnamed_addr constant [18 x i8] c"MediaType::NA_6X9\00", align 1
@.str.30 = private unnamed_addr constant [17 x i8] c"MediaType::NA_C5\00", align 1
@.str.31 = private unnamed_addr constant [18 x i8] c"MediaType::NA_7X9\00", align 1
@.str.32 = private unnamed_addr constant [24 x i8] c"MediaType::NA_EXECUTIVE\00", align 1
@.str.33 = private unnamed_addr constant [26 x i8] c"MediaType::NA_GOVT_LETTER\00", align 1
@.str.34 = private unnamed_addr constant [25 x i8] c"MediaType::NA_GOVT_LEGAL\00", align 1
@.str.35 = private unnamed_addr constant [21 x i8] c"MediaType::NA_QUARTO\00", align 1
@.str.36 = private unnamed_addr constant [21 x i8] c"MediaType::NA_LETTER\00", align 1
@.str.37 = private unnamed_addr constant [26 x i8] c"MediaType::NA_FANFOLD_EUR\00", align 1
@.str.38 = private unnamed_addr constant [26 x i8] c"MediaType::NA_LETTER_PLUS\00", align 1
@.str.39 = private unnamed_addr constant [23 x i8] c"MediaType::NA_FOOLSCAP\00", align 1
@.str.40 = private unnamed_addr constant [20 x i8] c"MediaType::NA_LEGAL\00", align 1
@.str.41 = private unnamed_addr constant [22 x i8] c"MediaType::NA_SUPER_A\00", align 1
@.str.42 = private unnamed_addr constant [19 x i8] c"MediaType::NA_9X11\00", align 1
@.str.43 = private unnamed_addr constant [21 x i8] c"MediaType::NA_ARCH_A\00", align 1
@.str.44 = private unnamed_addr constant [27 x i8] c"MediaType::NA_LETTER_EXTRA\00", align 1
@.str.45 = private unnamed_addr constant [26 x i8] c"MediaType::NA_LEGAL_EXTRA\00", align 1
@.str.46 = private unnamed_addr constant [20 x i8] c"MediaType::NA_10X11\00", align 1
@.str.47 = private unnamed_addr constant [20 x i8] c"MediaType::NA_10X13\00", align 1
@.str.48 = private unnamed_addr constant [20 x i8] c"MediaType::NA_10X14\00", align 1
@.str.49 = private unnamed_addr constant [20 x i8] c"MediaType::NA_10X15\00", align 1
@.str.50 = private unnamed_addr constant [20 x i8] c"MediaType::NA_11X12\00", align 1
@.str.51 = private unnamed_addr constant [18 x i8] c"MediaType::NA_EDP\00", align 1
@.str.52 = private unnamed_addr constant [25 x i8] c"MediaType::NA_FANFOLD_US\00", align 1
@.str.53 = private unnamed_addr constant [20 x i8] c"MediaType::NA_11X15\00", align 1
@.str.54 = private unnamed_addr constant [21 x i8] c"MediaType::NA_LEDGER\00", align 1
@.str.55 = private unnamed_addr constant [22 x i8] c"MediaType::NA_EUR_EDP\00", align 1
@.str.56 = private unnamed_addr constant [21 x i8] c"MediaType::NA_ARCH_B\00", align 1
@.str.57 = private unnamed_addr constant [20 x i8] c"MediaType::NA_12X19\00", align 1
@.str.58 = private unnamed_addr constant [21 x i8] c"MediaType::NA_B_PLUS\00", align 1
@.str.59 = private unnamed_addr constant [22 x i8] c"MediaType::NA_SUPER_B\00", align 1
@.str.60 = private unnamed_addr constant [16 x i8] c"MediaType::NA_C\00", align 1
@.str.61 = private unnamed_addr constant [21 x i8] c"MediaType::NA_ARCH_C\00", align 1
@.str.62 = private unnamed_addr constant [16 x i8] c"MediaType::NA_D\00", align 1
@.str.63 = private unnamed_addr constant [21 x i8] c"MediaType::NA_ARCH_D\00", align 1
@.str.64 = private unnamed_addr constant [21 x i8] c"MediaType::NA_ASME_F\00", align 1
@.str.65 = private unnamed_addr constant [26 x i8] c"MediaType::NA_WIDE_FORMAT\00", align 1
@.str.66 = private unnamed_addr constant [16 x i8] c"MediaType::NA_E\00", align 1
@.str.67 = private unnamed_addr constant [21 x i8] c"MediaType::NA_ARCH_E\00", align 1
@.str.68 = private unnamed_addr constant [16 x i8] c"MediaType::NA_F\00", align 1
@.str.69 = private unnamed_addr constant [19 x i8] c"MediaType::ROC_16K\00", align 1
@.str.70 = private unnamed_addr constant [18 x i8] c"MediaType::ROC_8K\00", align 1
@.str.71 = private unnamed_addr constant [19 x i8] c"MediaType::PRC_32K\00", align 1
@.str.72 = private unnamed_addr constant [17 x i8] c"MediaType::PRC_1\00", align 1
@.str.73 = private unnamed_addr constant [17 x i8] c"MediaType::PRC_2\00", align 1
@.str.74 = private unnamed_addr constant [17 x i8] c"MediaType::PRC_4\00", align 1
@.str.75 = private unnamed_addr constant [17 x i8] c"MediaType::PRC_5\00", align 1
@.str.76 = private unnamed_addr constant [17 x i8] c"MediaType::PRC_8\00", align 1
@.str.77 = private unnamed_addr constant [17 x i8] c"MediaType::PRC_6\00", align 1
@.str.78 = private unnamed_addr constant [17 x i8] c"MediaType::PRC_3\00", align 1
@.str.79 = private unnamed_addr constant [19 x i8] c"MediaType::PRC_16K\00", align 1
@.str.80 = private unnamed_addr constant [17 x i8] c"MediaType::PRC_7\00", align 1
@.str.81 = private unnamed_addr constant [27 x i8] c"MediaType::OM_JUURO_KU_KAI\00", align 1
@.str.82 = private unnamed_addr constant [21 x i8] c"MediaType::OM_PA_KAI\00", align 1
@.str.83 = private unnamed_addr constant [25 x i8] c"MediaType::OM_DAI_PA_KAI\00", align 1
@.str.84 = private unnamed_addr constant [18 x i8] c"MediaType::PRC_10\00", align 1
@.str.85 = private unnamed_addr constant [19 x i8] c"MediaType::ISO_A10\00", align 1
@.str.86 = private unnamed_addr constant [18 x i8] c"MediaType::ISO_A9\00", align 1
@.str.87 = private unnamed_addr constant [18 x i8] c"MediaType::ISO_A8\00", align 1
@.str.88 = private unnamed_addr constant [18 x i8] c"MediaType::ISO_A7\00", align 1
@.str.89 = private unnamed_addr constant [18 x i8] c"MediaType::ISO_A6\00", align 1
@.str.90 = private unnamed_addr constant [18 x i8] c"MediaType::ISO_A5\00", align 1
@.str.91 = private unnamed_addr constant [24 x i8] c"MediaType::ISO_A5_EXTRA\00", align 1
@.str.92 = private unnamed_addr constant [18 x i8] c"MediaType::ISO_A4\00", align 1
@.str.93 = private unnamed_addr constant [22 x i8] c"MediaType::ISO_A4_TAB\00", align 1
@.str.94 = private unnamed_addr constant [24 x i8] c"MediaType::ISO_A4_EXTRA\00", align 1
@.str.95 = private unnamed_addr constant [18 x i8] c"MediaType::ISO_A3\00", align 1
@.str.96 = private unnamed_addr constant [20 x i8] c"MediaType::ISO_A4X3\00", align 1
@.str.97 = private unnamed_addr constant [20 x i8] c"MediaType::ISO_A4X4\00", align 1
@.str.98 = private unnamed_addr constant [20 x i8] c"MediaType::ISO_A4X5\00", align 1
@.str.99 = private unnamed_addr constant [20 x i8] c"MediaType::ISO_A4X6\00", align 1
@.str.100 = private unnamed_addr constant [20 x i8] c"MediaType::ISO_A4X7\00", align 1
@.str.101 = private unnamed_addr constant [20 x i8] c"MediaType::ISO_A4X8\00", align 1
@.str.102 = private unnamed_addr constant [20 x i8] c"MediaType::ISO_A4X9\00", align 1
@.str.103 = private unnamed_addr constant [24 x i8] c"MediaType::ISO_A3_EXTRA\00", align 1
@.str.104 = private unnamed_addr constant [18 x i8] c"MediaType::ISO_A2\00", align 1
@.str.105 = private unnamed_addr constant [20 x i8] c"MediaType::ISO_A3X3\00", align 1
@.str.106 = private unnamed_addr constant [20 x i8] c"MediaType::ISO_A3X4\00", align 1
@.str.107 = private unnamed_addr constant [20 x i8] c"MediaType::ISO_A3X5\00", align 1
@.str.108 = private unnamed_addr constant [20 x i8] c"MediaType::ISO_A3X6\00", align 1
@.str.109 = private unnamed_addr constant [20 x i8] c"MediaType::ISO_A3X7\00", align 1
@.str.110 = private unnamed_addr constant [18 x i8] c"MediaType::ISO_A1\00", align 1
@.str.111 = private unnamed_addr constant [20 x i8] c"MediaType::ISO_A2X3\00", align 1
@.str.112 = private unnamed_addr constant [20 x i8] c"MediaType::ISO_A2X4\00", align 1
@.str.113 = private unnamed_addr constant [20 x i8] c"MediaType::ISO_A2X5\00", align 1
@.str.114 = private unnamed_addr constant [18 x i8] c"MediaType::ISO_A0\00", align 1
@.str.115 = private unnamed_addr constant [20 x i8] c"MediaType::ISO_A1X3\00", align 1
@.str.116 = private unnamed_addr constant [20 x i8] c"MediaType::ISO_A1X4\00", align 1
@.str.117 = private unnamed_addr constant [19 x i8] c"MediaType::ISO_2A0\00", align 1
@.str.118 = private unnamed_addr constant [20 x i8] c"MediaType::ISO_A0X3\00", align 1
@.str.119 = private unnamed_addr constant [19 x i8] c"MediaType::ISO_B10\00", align 1
@.str.120 = private unnamed_addr constant [18 x i8] c"MediaType::ISO_B9\00", align 1
@.str.121 = private unnamed_addr constant [18 x i8] c"MediaType::ISO_B8\00", align 1
@.str.122 = private unnamed_addr constant [18 x i8] c"MediaType::ISO_B7\00", align 1
@.str.123 = private unnamed_addr constant [18 x i8] c"MediaType::ISO_B6\00", align 1
@.str.124 = private unnamed_addr constant [20 x i8] c"MediaType::ISO_B6C4\00", align 1
@.str.125 = private unnamed_addr constant [18 x i8] c"MediaType::ISO_B5\00", align 1
@.str.126 = private unnamed_addr constant [24 x i8] c"MediaType::ISO_B5_EXTRA\00", align 1
@.str.127 = private unnamed_addr constant [18 x i8] c"MediaType::ISO_B4\00", align 1
@.str.128 = private unnamed_addr constant [18 x i8] c"MediaType::ISO_B3\00", align 1
@.str.129 = private unnamed_addr constant [18 x i8] c"MediaType::ISO_B2\00", align 1
@.str.130 = private unnamed_addr constant [18 x i8] c"MediaType::ISO_B1\00", align 1
@.str.131 = private unnamed_addr constant [18 x i8] c"MediaType::ISO_B0\00", align 1
@.str.132 = private unnamed_addr constant [19 x i8] c"MediaType::ISO_C10\00", align 1
@.str.133 = private unnamed_addr constant [18 x i8] c"MediaType::ISO_C9\00", align 1
@.str.134 = private unnamed_addr constant [18 x i8] c"MediaType::ISO_C8\00", align 1
@.str.135 = private unnamed_addr constant [18 x i8] c"MediaType::ISO_C7\00", align 1
@.str.136 = private unnamed_addr constant [20 x i8] c"MediaType::ISO_C7C6\00", align 1
@.str.137 = private unnamed_addr constant [18 x i8] c"MediaType::ISO_C6\00", align 1
@.str.138 = private unnamed_addr constant [20 x i8] c"MediaType::ISO_C6C5\00", align 1
@.str.139 = private unnamed_addr constant [18 x i8] c"MediaType::ISO_C5\00", align 1
@.str.140 = private unnamed_addr constant [18 x i8] c"MediaType::ISO_C4\00", align 1
@.str.141 = private unnamed_addr constant [18 x i8] c"MediaType::ISO_C3\00", align 1
@.str.142 = private unnamed_addr constant [18 x i8] c"MediaType::ISO_C2\00", align 1
@.str.143 = private unnamed_addr constant [18 x i8] c"MediaType::ISO_C1\00", align 1
@.str.144 = private unnamed_addr constant [18 x i8] c"MediaType::ISO_C0\00", align 1
@.str.145 = private unnamed_addr constant [18 x i8] c"MediaType::ISO_DL\00", align 1
@.str.146 = private unnamed_addr constant [19 x i8] c"MediaType::ISO_RA2\00", align 1
@.str.147 = private unnamed_addr constant [20 x i8] c"MediaType::ISO_SRA2\00", align 1
@.str.148 = private unnamed_addr constant [19 x i8] c"MediaType::ISO_RA1\00", align 1
@.str.149 = private unnamed_addr constant [20 x i8] c"MediaType::ISO_SRA1\00", align 1
@.str.150 = private unnamed_addr constant [19 x i8] c"MediaType::ISO_RA0\00", align 1
@.str.151 = private unnamed_addr constant [20 x i8] c"MediaType::ISO_SRA0\00", align 1
@.str.152 = private unnamed_addr constant [19 x i8] c"MediaType::JIS_B10\00", align 1
@.str.153 = private unnamed_addr constant [18 x i8] c"MediaType::JIS_B9\00", align 1
@.str.154 = private unnamed_addr constant [18 x i8] c"MediaType::JIS_B8\00", align 1
@.str.155 = private unnamed_addr constant [18 x i8] c"MediaType::JIS_B7\00", align 1
@.str.156 = private unnamed_addr constant [18 x i8] c"MediaType::JIS_B6\00", align 1
@.str.157 = private unnamed_addr constant [18 x i8] c"MediaType::JIS_B5\00", align 1
@.str.158 = private unnamed_addr constant [18 x i8] c"MediaType::JIS_B4\00", align 1
@.str.159 = private unnamed_addr constant [18 x i8] c"MediaType::JIS_B3\00", align 1
@.str.160 = private unnamed_addr constant [18 x i8] c"MediaType::JIS_B2\00", align 1
@.str.161 = private unnamed_addr constant [18 x i8] c"MediaType::JIS_B1\00", align 1
@.str.162 = private unnamed_addr constant [18 x i8] c"MediaType::JIS_B0\00", align 1
@.str.163 = private unnamed_addr constant [20 x i8] c"MediaType::JIS_EXEC\00", align 1
@.str.164 = private unnamed_addr constant [21 x i8] c"MediaType::JPN_CHOU4\00", align 1
@.str.165 = private unnamed_addr constant [22 x i8] c"MediaType::JPN_HAGAKI\00", align 1
@.str.166 = private unnamed_addr constant [20 x i8] c"MediaType::JPN_YOU4\00", align 1
@.str.167 = private unnamed_addr constant [21 x i8] c"MediaType::JPN_CHOU2\00", align 1
@.str.168 = private unnamed_addr constant [21 x i8] c"MediaType::JPN_CHOU3\00", align 1
@.str.169 = private unnamed_addr constant [22 x i8] c"MediaType::JPN_OUFUKU\00", align 1
@.str.170 = private unnamed_addr constant [20 x i8] c"MediaType::JPN_KAHU\00", align 1
@.str.171 = private unnamed_addr constant [21 x i8] c"MediaType::JPN_KAKU2\00", align 1
@.str.172 = private unnamed_addr constant [26 x i8] c"MediaType::OM_SMALL_PHOTO\00", align 1
@.str.173 = private unnamed_addr constant [22 x i8] c"MediaType::OM_ITALIAN\00", align 1
@.str.174 = private unnamed_addr constant [22 x i8] c"MediaType::OM_POSTFIX\00", align 1
@.str.175 = private unnamed_addr constant [26 x i8] c"MediaType::OM_LARGE_PHOTO\00", align 1
@.str.176 = private unnamed_addr constant [20 x i8] c"MediaType::OM_FOLIO\00", align 1
@.str.177 = private unnamed_addr constant [23 x i8] c"MediaType::OM_FOLIO_SP\00", align 1
@.str.178 = private unnamed_addr constant [21 x i8] c"MediaType::OM_INVITE\00", align 1
@_ZN13cloud_devices7printer12_GLOBAL__N_113kOptionCopiesE = internal constant [7 x i8] c"copies\00", align 1
@_ZN13cloud_devices7printer12_GLOBAL__N_118kPageRangeIntervalE = internal constant [9 x i8] c"interval\00", align 1
@_ZN13cloud_devices7printer12_GLOBAL__N_115kPageRangeStartE = internal constant [6 x i8] c"start\00", align 1
@_ZN13cloud_devices7printer12_GLOBAL__N_113kPageRangeEndE = internal constant [4 x i8] c"end\00", align 1
@_ZN13cloud_devices7printer12_GLOBAL__N_114kOptionCollateE = internal constant [8 x i8] c"collate\00", align 1
@_ZN13cloud_devices7printer12_GLOBAL__N_114kOptionReverseE = internal constant [14 x i8] c"reverse_order\00", align 1
@_ZN13cloud_devices7printer12_GLOBAL__N_131kTypeRangeVendorCapabilityFloatE = internal constant [6 x i8] c"FLOAT\00", align 1
@_ZN13cloud_devices7printer12_GLOBAL__N_133kTypeRangeVendorCapabilityIntegerE = internal constant [8 x i8] c"INTEGER\00", align 1
@_ZN13cloud_devices7printer12_GLOBAL__N_138kTypeTypedValueVendorCapabilityBooleanE = internal constant [8 x i8] c"BOOLEAN\00", align 1
@_ZN13cloud_devices7printer12_GLOBAL__N_136kTypeTypedValueVendorCapabilityFloatE = internal constant [6 x i8] c"FLOAT\00", align 1
@_ZN13cloud_devices7printer12_GLOBAL__N_138kTypeTypedValueVendorCapabilityIntegerE = internal constant [8 x i8] c"INTEGER\00", align 1
@_ZN13cloud_devices7printer12_GLOBAL__N_137kTypeTypedValueVendorCapabilityStringE = internal constant [7 x i8] c"STRING\00", align 1
@_ZN13cloud_devices7printer12_GLOBAL__N_126kTypeVendorCapabilityRangeE = internal constant [6 x i8] c"RANGE\00", align 1
@_ZN13cloud_devices7printer12_GLOBAL__N_127kTypeVendorCapabilitySelectE = internal constant [7 x i8] c"SELECT\00", align 1
@_ZN13cloud_devices7printer12_GLOBAL__N_131kTypeVendorCapabilityTypedValueE = internal constant [12 x i8] c"TYPED_VALUE\00", align 1
@_ZN13cloud_devices7printer12_GLOBAL__N_115kSectionPrinterE = internal constant [8 x i8] c"printer\00", align 1
@_ZN13cloud_devices7printer12_GLOBAL__N_118kOptionContentTypeE = internal constant [23 x i8] c"supported_content_type\00", align 16
@.ref.tmp = private unnamed_addr constant [2 x %"class.base::BasicStringPiece"] [%"class.base::BasicStringPiece" { i8* getelementptr inbounds ([8 x i8], [8 x i8]* @_ZN13cloud_devices7printer12_GLOBAL__N_115kSectionPrinterE, i32 0, i32 0), i64 7 }, %"class.base::BasicStringPiece" { i8* getelementptr inbounds ([23 x i8], [23 x i8]* @_ZN13cloud_devices7printer12_GLOBAL__N_118kOptionContentTypeE, i32 0, i32 0), i64 22 }], align 8
@_ZN13cloud_devices7printer12_GLOBAL__N_122kOptionPwgRasterConfigE = internal constant [18 x i8] c"pwg_raster_config\00", align 16
@.ref.tmp.179 = private unnamed_addr constant [2 x %"class.base::BasicStringPiece"] [%"class.base::BasicStringPiece" { i8* getelementptr inbounds ([8 x i8], [8 x i8]* @_ZN13cloud_devices7printer12_GLOBAL__N_115kSectionPrinterE, i32 0, i32 0), i64 7 }, %"class.base::BasicStringPiece" { i8* getelementptr inbounds ([18 x i8], [18 x i8]* @_ZN13cloud_devices7printer12_GLOBAL__N_122kOptionPwgRasterConfigE, i32 0, i32 0), i64 17 }], align 8
@_ZN13cloud_devices7printer12_GLOBAL__N_123kOptionVendorCapabilityE = internal constant [18 x i8] c"vendor_capability\00", align 16
@.ref.tmp.180 = private unnamed_addr constant [2 x %"class.base::BasicStringPiece"] [%"class.base::BasicStringPiece" { i8* getelementptr inbounds ([8 x i8], [8 x i8]* @_ZN13cloud_devices7printer12_GLOBAL__N_115kSectionPrinterE, i32 0, i32 0), i64 7 }, %"class.base::BasicStringPiece" { i8* getelementptr inbounds ([18 x i8], [18 x i8]* @_ZN13cloud_devices7printer12_GLOBAL__N_123kOptionVendorCapabilityE, i32 0, i32 0), i64 17 }], align 8
@.ref.tmp.181 = private unnamed_addr constant [2 x %"class.base::BasicStringPiece"] [%"class.base::BasicStringPiece" { i8* getelementptr inbounds ([8 x i8], [8 x i8]* @_ZN13cloud_devices7printer12_GLOBAL__N_115kSectionPrinterE, i32 0, i32 0), i64 7 }, %"class.base::BasicStringPiece" { i8* getelementptr inbounds ([11 x i8], [11 x i8]* @_ZN13cloud_devices7printer12_GLOBAL__N_123kOptionSelectCapabilityE, i32 0, i32 0), i64 10 }], align 8
@_ZN13cloud_devices7printer12_GLOBAL__N_112kOptionColorE = internal constant [6 x i8] c"color\00", align 1
@.ref.tmp.182 = private unnamed_addr constant [2 x %"class.base::BasicStringPiece"] [%"class.base::BasicStringPiece" { i8* getelementptr inbounds ([8 x i8], [8 x i8]* @_ZN13cloud_devices7printer12_GLOBAL__N_115kSectionPrinterE, i32 0, i32 0), i64 7 }, %"class.base::BasicStringPiece" { i8* getelementptr inbounds ([6 x i8], [6 x i8]* @_ZN13cloud_devices7printer12_GLOBAL__N_112kOptionColorE, i32 0, i32 0), i64 5 }], align 8
@_ZN13cloud_devices7printer12_GLOBAL__N_113kOptionDuplexE = internal constant [7 x i8] c"duplex\00", align 1
@.ref.tmp.183 = private unnamed_addr constant [2 x %"class.base::BasicStringPiece"] [%"class.base::BasicStringPiece" { i8* getelementptr inbounds ([8 x i8], [8 x i8]* @_ZN13cloud_devices7printer12_GLOBAL__N_115kSectionPrinterE, i32 0, i32 0), i64 7 }, %"class.base::BasicStringPiece" { i8* getelementptr inbounds ([7 x i8], [7 x i8]* @_ZN13cloud_devices7printer12_GLOBAL__N_113kOptionDuplexE, i32 0, i32 0), i64 6 }], align 8
@_ZN13cloud_devices7printer12_GLOBAL__N_122kOptionPageOrientationE = internal constant [17 x i8] c"page_orientation\00", align 16
@.ref.tmp.184 = private unnamed_addr constant [2 x %"class.base::BasicStringPiece"] [%"class.base::BasicStringPiece" { i8* getelementptr inbounds ([8 x i8], [8 x i8]* @_ZN13cloud_devices7printer12_GLOBAL__N_115kSectionPrinterE, i32 0, i32 0), i64 7 }, %"class.base::BasicStringPiece" { i8* getelementptr inbounds ([17 x i8], [17 x i8]* @_ZN13cloud_devices7printer12_GLOBAL__N_122kOptionPageOrientationE, i32 0, i32 0), i64 16 }], align 8
@_ZN13cloud_devices7printer12_GLOBAL__N_114kOptionMarginsE = internal constant [8 x i8] c"margins\00", align 1
@.ref.tmp.185 = private unnamed_addr constant [2 x %"class.base::BasicStringPiece"] [%"class.base::BasicStringPiece" { i8* getelementptr inbounds ([8 x i8], [8 x i8]* @_ZN13cloud_devices7printer12_GLOBAL__N_115kSectionPrinterE, i32 0, i32 0), i64 7 }, %"class.base::BasicStringPiece" { i8* getelementptr inbounds ([8 x i8], [8 x i8]* @_ZN13cloud_devices7printer12_GLOBAL__N_114kOptionMarginsE, i32 0, i32 0), i64 7 }], align 8
@_ZN13cloud_devices7printer12_GLOBAL__N_110kOptionDpiE = internal constant [4 x i8] c"dpi\00", align 1
@.ref.tmp.186 = private unnamed_addr constant [2 x %"class.base::BasicStringPiece"] [%"class.base::BasicStringPiece" { i8* getelementptr inbounds ([8 x i8], [8 x i8]* @_ZN13cloud_devices7printer12_GLOBAL__N_115kSectionPrinterE, i32 0, i32 0), i64 7 }, %"class.base::BasicStringPiece" { i8* getelementptr inbounds ([4 x i8], [4 x i8]* @_ZN13cloud_devices7printer12_GLOBAL__N_110kOptionDpiE, i32 0, i32 0), i64 3 }], align 8
@_ZN13cloud_devices7printer12_GLOBAL__N_116kOptionFitToPageE = internal constant [12 x i8] c"fit_to_page\00", align 1
@.ref.tmp.187 = private unnamed_addr constant [2 x %"class.base::BasicStringPiece"] [%"class.base::BasicStringPiece" { i8* getelementptr inbounds ([8 x i8], [8 x i8]* @_ZN13cloud_devices7printer12_GLOBAL__N_115kSectionPrinterE, i32 0, i32 0), i64 7 }, %"class.base::BasicStringPiece" { i8* getelementptr inbounds ([12 x i8], [12 x i8]* @_ZN13cloud_devices7printer12_GLOBAL__N_116kOptionFitToPageE, i32 0, i32 0), i64 11 }], align 8
@_ZN13cloud_devices7printer12_GLOBAL__N_116kOptionMediaSizeE = internal constant [11 x i8] c"media_size\00", align 1
@.ref.tmp.188 = private unnamed_addr constant [2 x %"class.base::BasicStringPiece"] [%"class.base::BasicStringPiece" { i8* getelementptr inbounds ([8 x i8], [8 x i8]* @_ZN13cloud_devices7printer12_GLOBAL__N_115kSectionPrinterE, i32 0, i32 0), i64 7 }, %"class.base::BasicStringPiece" { i8* getelementptr inbounds ([11 x i8], [11 x i8]* @_ZN13cloud_devices7printer12_GLOBAL__N_116kOptionMediaSizeE, i32 0, i32 0), i64 10 }], align 8
@.ref.tmp.189 = private unnamed_addr constant [2 x %"class.base::BasicStringPiece"] [%"class.base::BasicStringPiece" { i8* getelementptr inbounds ([8 x i8], [8 x i8]* @_ZN13cloud_devices7printer12_GLOBAL__N_115kSectionPrinterE, i32 0, i32 0), i64 7 }, %"class.base::BasicStringPiece" { i8* getelementptr inbounds ([7 x i8], [7 x i8]* @_ZN13cloud_devices7printer12_GLOBAL__N_113kOptionCopiesE, i32 0, i32 0), i64 6 }], align 8
@_ZN13cloud_devices7printer12_GLOBAL__N_116kOptionPageRangeE = internal constant [11 x i8] c"page_range\00", align 1
@.ref.tmp.190 = private unnamed_addr constant [2 x %"class.base::BasicStringPiece"] [%"class.base::BasicStringPiece" { i8* getelementptr inbounds ([8 x i8], [8 x i8]* @_ZN13cloud_devices7printer12_GLOBAL__N_115kSectionPrinterE, i32 0, i32 0), i64 7 }, %"class.base::BasicStringPiece" { i8* getelementptr inbounds ([11 x i8], [11 x i8]* @_ZN13cloud_devices7printer12_GLOBAL__N_116kOptionPageRangeE, i32 0, i32 0), i64 10 }], align 8
@.ref.tmp.191 = private unnamed_addr constant [2 x %"class.base::BasicStringPiece"] [%"class.base::BasicStringPiece" { i8* getelementptr inbounds ([8 x i8], [8 x i8]* @_ZN13cloud_devices7printer12_GLOBAL__N_115kSectionPrinterE, i32 0, i32 0), i64 7 }, %"class.base::BasicStringPiece" { i8* getelementptr inbounds ([8 x i8], [8 x i8]* @_ZN13cloud_devices7printer12_GLOBAL__N_114kOptionCollateE, i32 0, i32 0), i64 7 }], align 8
@.ref.tmp.192 = private unnamed_addr constant [2 x %"class.base::BasicStringPiece"] [%"class.base::BasicStringPiece" { i8* getelementptr inbounds ([8 x i8], [8 x i8]* @_ZN13cloud_devices7printer12_GLOBAL__N_115kSectionPrinterE, i32 0, i32 0), i64 7 }, %"class.base::BasicStringPiece" { i8* getelementptr inbounds ([14 x i8], [14 x i8]* @_ZN13cloud_devices7printer12_GLOBAL__N_114kOptionReverseE, i32 0, i32 0), i64 13 }], align 8
@_ZN13cloud_devices7printer12_GLOBAL__N_113kSectionPrintE = internal constant [6 x i8] c"print\00", align 1
@.ref.tmp.193 = private unnamed_addr constant [2 x %"class.base::BasicStringPiece"] [%"class.base::BasicStringPiece" { i8* getelementptr inbounds ([6 x i8], [6 x i8]* @_ZN13cloud_devices7printer12_GLOBAL__N_113kSectionPrintE, i32 0, i32 0), i64 5 }, %"class.base::BasicStringPiece" { i8* getelementptr inbounds ([18 x i8], [18 x i8]* @_ZN13cloud_devices7printer12_GLOBAL__N_122kOptionPwgRasterConfigE, i32 0, i32 0), i64 17 }], align 8
@.ref.tmp.194 = private unnamed_addr constant [2 x %"class.base::BasicStringPiece"] [%"class.base::BasicStringPiece" { i8* getelementptr inbounds ([6 x i8], [6 x i8]* @_ZN13cloud_devices7printer12_GLOBAL__N_113kSectionPrintE, i32 0, i32 0), i64 5 }, %"class.base::BasicStringPiece" { i8* getelementptr inbounds ([6 x i8], [6 x i8]* @_ZN13cloud_devices7printer12_GLOBAL__N_112kOptionColorE, i32 0, i32 0), i64 5 }], align 8
@.ref.tmp.195 = private unnamed_addr constant [2 x %"class.base::BasicStringPiece"] [%"class.base::BasicStringPiece" { i8* getelementptr inbounds ([6 x i8], [6 x i8]* @_ZN13cloud_devices7printer12_GLOBAL__N_113kSectionPrintE, i32 0, i32 0), i64 5 }, %"class.base::BasicStringPiece" { i8* getelementptr inbounds ([7 x i8], [7 x i8]* @_ZN13cloud_devices7printer12_GLOBAL__N_113kOptionDuplexE, i32 0, i32 0), i64 6 }], align 8
@.ref.tmp.196 = private unnamed_addr constant [2 x %"class.base::BasicStringPiece"] [%"class.base::BasicStringPiece" { i8* getelementptr inbounds ([6 x i8], [6 x i8]* @_ZN13cloud_devices7printer12_GLOBAL__N_113kSectionPrintE, i32 0, i32 0), i64 5 }, %"class.base::BasicStringPiece" { i8* getelementptr inbounds ([17 x i8], [17 x i8]* @_ZN13cloud_devices7printer12_GLOBAL__N_122kOptionPageOrientationE, i32 0, i32 0), i64 16 }], align 8
@.ref.tmp.197 = private unnamed_addr constant [2 x %"class.base::BasicStringPiece"] [%"class.base::BasicStringPiece" { i8* getelementptr inbounds ([6 x i8], [6 x i8]* @_ZN13cloud_devices7printer12_GLOBAL__N_113kSectionPrintE, i32 0, i32 0), i64 5 }, %"class.base::BasicStringPiece" { i8* getelementptr inbounds ([8 x i8], [8 x i8]* @_ZN13cloud_devices7printer12_GLOBAL__N_114kOptionMarginsE, i32 0, i32 0), i64 7 }], align 8
@.ref.tmp.198 = private unnamed_addr constant [2 x %"class.base::BasicStringPiece"] [%"class.base::BasicStringPiece" { i8* getelementptr inbounds ([6 x i8], [6 x i8]* @_ZN13cloud_devices7printer12_GLOBAL__N_113kSectionPrintE, i32 0, i32 0), i64 5 }, %"class.base::BasicStringPiece" { i8* getelementptr inbounds ([4 x i8], [4 x i8]* @_ZN13cloud_devices7printer12_GLOBAL__N_110kOptionDpiE, i32 0, i32 0), i64 3 }], align 8
@.ref.tmp.199 = private unnamed_addr constant [2 x %"class.base::BasicStringPiece"] [%"class.base::BasicStringPiece" { i8* getelementptr inbounds ([6 x i8], [6 x i8]* @_ZN13cloud_devices7printer12_GLOBAL__N_113kSectionPrintE, i32 0, i32 0), i64 5 }, %"class.base::BasicStringPiece" { i8* getelementptr inbounds ([12 x i8], [12 x i8]* @_ZN13cloud_devices7printer12_GLOBAL__N_116kOptionFitToPageE, i32 0, i32 0), i64 11 }], align 8
@.ref.tmp.200 = private unnamed_addr constant [2 x %"class.base::BasicStringPiece"] [%"class.base::BasicStringPiece" { i8* getelementptr inbounds ([6 x i8], [6 x i8]* @_ZN13cloud_devices7printer12_GLOBAL__N_113kSectionPrintE, i32 0, i32 0), i64 5 }, %"class.base::BasicStringPiece" { i8* getelementptr inbounds ([11 x i8], [11 x i8]* @_ZN13cloud_devices7printer12_GLOBAL__N_116kOptionMediaSizeE, i32 0, i32 0), i64 10 }], align 8
@.ref.tmp.201 = private unnamed_addr constant [2 x %"class.base::BasicStringPiece"] [%"class.base::BasicStringPiece" { i8* getelementptr inbounds ([6 x i8], [6 x i8]* @_ZN13cloud_devices7printer12_GLOBAL__N_113kSectionPrintE, i32 0, i32 0), i64 5 }, %"class.base::BasicStringPiece" { i8* getelementptr inbounds ([7 x i8], [7 x i8]* @_ZN13cloud_devices7printer12_GLOBAL__N_113kOptionCopiesE, i32 0, i32 0), i64 6 }], align 8
@.ref.tmp.202 = private unnamed_addr constant [2 x %"class.base::BasicStringPiece"] [%"class.base::BasicStringPiece" { i8* getelementptr inbounds ([6 x i8], [6 x i8]* @_ZN13cloud_devices7printer12_GLOBAL__N_113kSectionPrintE, i32 0, i32 0), i64 5 }, %"class.base::BasicStringPiece" { i8* getelementptr inbounds ([11 x i8], [11 x i8]* @_ZN13cloud_devices7printer12_GLOBAL__N_116kOptionPageRangeE, i32 0, i32 0), i64 10 }], align 8
@.ref.tmp.203 = private unnamed_addr constant [2 x %"class.base::BasicStringPiece"] [%"class.base::BasicStringPiece" { i8* getelementptr inbounds ([6 x i8], [6 x i8]* @_ZN13cloud_devices7printer12_GLOBAL__N_113kSectionPrintE, i32 0, i32 0), i64 5 }, %"class.base::BasicStringPiece" { i8* getelementptr inbounds ([8 x i8], [8 x i8]* @_ZN13cloud_devices7printer12_GLOBAL__N_114kOptionCollateE, i32 0, i32 0), i64 7 }], align 8
@.ref.tmp.204 = private unnamed_addr constant [2 x %"class.base::BasicStringPiece"] [%"class.base::BasicStringPiece" { i8* getelementptr inbounds ([6 x i8], [6 x i8]* @_ZN13cloud_devices7printer12_GLOBAL__N_113kSectionPrintE, i32 0, i32 0), i64 5 }, %"class.base::BasicStringPiece" { i8* getelementptr inbounds ([14 x i8], [14 x i8]* @_ZN13cloud_devices7printer12_GLOBAL__N_114kOptionReverseE, i32 0, i32 0), i64 13 }], align 8

@_ZN13cloud_devices14ListCapabilityINSt3__112basic_stringIcNS1_11char_traitsIcEENS1_9allocatorIcEEEENS_7printer17ContentTypeTraitsEEC1Ev = weak_odr hidden unnamed_addr alias void (%"class.cloud_devices::ListCapability"*), void (%"class.cloud_devices::ListCapability"*)* @_ZN13cloud_devices14ListCapabilityINSt3__112basic_stringIcNS1_11char_traitsIcEENS1_9allocatorIcEEEENS_7printer17ContentTypeTraitsEEC2Ev
@_ZN13cloud_devices14ListCapabilityINSt3__112basic_stringIcNS1_11char_traitsIcEENS1_9allocatorIcEEEENS_7printer17ContentTypeTraitsEEC1EOSA_ = weak_odr hidden unnamed_addr alias void (%"class.cloud_devices::ListCapability"*, %"class.cloud_devices::ListCapability"*), void (%"class.cloud_devices::ListCapability"*, %"class.cloud_devices::ListCapability"*)* @_ZN13cloud_devices14ListCapabilityINSt3__112basic_stringIcNS1_11char_traitsIcEENS1_9allocatorIcEEEENS_7printer17ContentTypeTraitsEEC2EOSA_
@_ZN13cloud_devices14ListCapabilityINSt3__112basic_stringIcNS1_11char_traitsIcEENS1_9allocatorIcEEEENS_7printer17ContentTypeTraitsEED1Ev = weak_odr hidden unnamed_addr alias void (%"class.cloud_devices::ListCapability"*), void (%"class.cloud_devices::ListCapability"*)* @_ZN13cloud_devices14ListCapabilityINSt3__112basic_stringIcNS1_11char_traitsIcEENS1_9allocatorIcEEEENS_7printer17ContentTypeTraitsEED2Ev
@_ZN13cloud_devices15ValueCapabilityINS_7printer15PwgRasterConfigENS1_21PwgRasterConfigTraitsEEC1Ev = weak_odr hidden unnamed_addr alias void (%"class.cloud_devices::ValueCapability"*), void (%"class.cloud_devices::ValueCapability"*)* @_ZN13cloud_devices15ValueCapabilityINS_7printer15PwgRasterConfigENS1_21PwgRasterConfigTraitsEEC2Ev
@_ZN13cloud_devices15ValueCapabilityINS_7printer15PwgRasterConfigENS1_21PwgRasterConfigTraitsEED1Ev = weak_odr hidden unnamed_addr alias void (%"class.cloud_devices::ValueCapability"*), void (%"class.cloud_devices::ValueCapability"*)* @_ZN13cloud_devices15ValueCapabilityINS_7printer15PwgRasterConfigENS1_21PwgRasterConfigTraitsEED2Ev
@_ZN13cloud_devices14ListCapabilityINS_7printer16VendorCapabilityENS1_22VendorCapabilityTraitsEEC1Ev = weak_odr hidden unnamed_addr alias void (%"class.cloud_devices::ListCapability.49"*), void (%"class.cloud_devices::ListCapability.49"*)* @_ZN13cloud_devices14ListCapabilityINS_7printer16VendorCapabilityENS1_22VendorCapabilityTraitsEEC2Ev
@_ZN13cloud_devices14ListCapabilityINS_7printer16VendorCapabilityENS1_22VendorCapabilityTraitsEEC1EOS4_ = weak_odr hidden unnamed_addr alias void (%"class.cloud_devices::ListCapability.49"*, %"class.cloud_devices::ListCapability.49"*), void (%"class.cloud_devices::ListCapability.49"*, %"class.cloud_devices::ListCapability.49"*)* @_ZN13cloud_devices14ListCapabilityINS_7printer16VendorCapabilityENS1_22VendorCapabilityTraitsEEC2EOS4_
@_ZN13cloud_devices14ListCapabilityINS_7printer16VendorCapabilityENS1_22VendorCapabilityTraitsEED1Ev = weak_odr hidden unnamed_addr alias void (%"class.cloud_devices::ListCapability.49"*), void (%"class.cloud_devices::ListCapability.49"*)* @_ZN13cloud_devices14ListCapabilityINS_7printer16VendorCapabilityENS1_22VendorCapabilityTraitsEED2Ev
@_ZN13cloud_devices19SelectionCapabilityINS_7printer28SelectVendorCapabilityOptionENS1_28SelectVendorCapabilityTraitsEEC1Ev = weak_odr hidden unnamed_addr alias void (%"class.cloud_devices::SelectionCapability"*), void (%"class.cloud_devices::SelectionCapability"*)* @_ZN13cloud_devices19SelectionCapabilityINS_7printer28SelectVendorCapabilityOptionENS1_28SelectVendorCapabilityTraitsEEC2Ev
@_ZN13cloud_devices19SelectionCapabilityINS_7printer28SelectVendorCapabilityOptionENS1_28SelectVendorCapabilityTraitsEEC1EOS4_ = weak_odr hidden unnamed_addr alias void (%"class.cloud_devices::SelectionCapability"*, %"class.cloud_devices::SelectionCapability"*), void (%"class.cloud_devices::SelectionCapability"*, %"class.cloud_devices::SelectionCapability"*)* @_ZN13cloud_devices19SelectionCapabilityINS_7printer28SelectVendorCapabilityOptionENS1_28SelectVendorCapabilityTraitsEEC2EOS4_
@_ZN13cloud_devices19SelectionCapabilityINS_7printer28SelectVendorCapabilityOptionENS1_28SelectVendorCapabilityTraitsEED1Ev = weak_odr hidden unnamed_addr alias void (%"class.cloud_devices::SelectionCapability"*), void (%"class.cloud_devices::SelectionCapability"*)* @_ZN13cloud_devices19SelectionCapabilityINS_7printer28SelectVendorCapabilityOptionENS1_28SelectVendorCapabilityTraitsEED2Ev
@_ZN13cloud_devices19SelectionCapabilityINS_7printer5ColorENS1_11ColorTraitsEEC1Ev = weak_odr hidden unnamed_addr alias void (%"class.cloud_devices::SelectionCapability.67"*), void (%"class.cloud_devices::SelectionCapability.67"*)* @_ZN13cloud_devices19SelectionCapabilityINS_7printer5ColorENS1_11ColorTraitsEEC2Ev
@_ZN13cloud_devices19SelectionCapabilityINS_7printer5ColorENS1_11ColorTraitsEEC1EOS4_ = weak_odr hidden unnamed_addr alias void (%"class.cloud_devices::SelectionCapability.67"*, %"class.cloud_devices::SelectionCapability.67"*), void (%"class.cloud_devices::SelectionCapability.67"*, %"class.cloud_devices::SelectionCapability.67"*)* @_ZN13cloud_devices19SelectionCapabilityINS_7printer5ColorENS1_11ColorTraitsEEC2EOS4_
@_ZN13cloud_devices19SelectionCapabilityINS_7printer5ColorENS1_11ColorTraitsEED1Ev = weak_odr hidden unnamed_addr alias void (%"class.cloud_devices::SelectionCapability.67"*), void (%"class.cloud_devices::SelectionCapability.67"*)* @_ZN13cloud_devices19SelectionCapabilityINS_7printer5ColorENS1_11ColorTraitsEED2Ev
@_ZN13cloud_devices19SelectionCapabilityINS_7printer10DuplexTypeENS1_12DuplexTraitsEEC1Ev = weak_odr hidden unnamed_addr alias void (%"class.cloud_devices::SelectionCapability.76"*), void (%"class.cloud_devices::SelectionCapability.76"*)* @_ZN13cloud_devices19SelectionCapabilityINS_7printer10DuplexTypeENS1_12DuplexTraitsEEC2Ev
@_ZN13cloud_devices19SelectionCapabilityINS_7printer10DuplexTypeENS1_12DuplexTraitsEEC1EOS4_ = weak_odr hidden unnamed_addr alias void (%"class.cloud_devices::SelectionCapability.76"*, %"class.cloud_devices::SelectionCapability.76"*), void (%"class.cloud_devices::SelectionCapability.76"*, %"class.cloud_devices::SelectionCapability.76"*)* @_ZN13cloud_devices19SelectionCapabilityINS_7printer10DuplexTypeENS1_12DuplexTraitsEEC2EOS4_
@_ZN13cloud_devices19SelectionCapabilityINS_7printer10DuplexTypeENS1_12DuplexTraitsEED1Ev = weak_odr hidden unnamed_addr alias void (%"class.cloud_devices::SelectionCapability.76"*), void (%"class.cloud_devices::SelectionCapability.76"*)* @_ZN13cloud_devices19SelectionCapabilityINS_7printer10DuplexTypeENS1_12DuplexTraitsEED2Ev
@_ZN13cloud_devices19SelectionCapabilityINS_7printer15OrientationTypeENS1_17OrientationTraitsEEC1Ev = weak_odr hidden unnamed_addr alias void (%"class.cloud_devices::SelectionCapability.85"*), void (%"class.cloud_devices::SelectionCapability.85"*)* @_ZN13cloud_devices19SelectionCapabilityINS_7printer15OrientationTypeENS1_17OrientationTraitsEEC2Ev
@_ZN13cloud_devices19SelectionCapabilityINS_7printer15OrientationTypeENS1_17OrientationTraitsEEC1EOS4_ = weak_odr hidden unnamed_addr alias void (%"class.cloud_devices::SelectionCapability.85"*, %"class.cloud_devices::SelectionCapability.85"*), void (%"class.cloud_devices::SelectionCapability.85"*, %"class.cloud_devices::SelectionCapability.85"*)* @_ZN13cloud_devices19SelectionCapabilityINS_7printer15OrientationTypeENS1_17OrientationTraitsEEC2EOS4_
@_ZN13cloud_devices19SelectionCapabilityINS_7printer15OrientationTypeENS1_17OrientationTraitsEED1Ev = weak_odr hidden unnamed_addr alias void (%"class.cloud_devices::SelectionCapability.85"*), void (%"class.cloud_devices::SelectionCapability.85"*)* @_ZN13cloud_devices19SelectionCapabilityINS_7printer15OrientationTypeENS1_17OrientationTraitsEED2Ev
@_ZN13cloud_devices19SelectionCapabilityINS_7printer7MarginsENS1_13MarginsTraitsEEC1Ev = weak_odr hidden unnamed_addr alias void (%"class.cloud_devices::SelectionCapability.94"*), void (%"class.cloud_devices::SelectionCapability.94"*)* @_ZN13cloud_devices19SelectionCapabilityINS_7printer7MarginsENS1_13MarginsTraitsEEC2Ev
@_ZN13cloud_devices19SelectionCapabilityINS_7printer7MarginsENS1_13MarginsTraitsEEC1EOS4_ = weak_odr hidden unnamed_addr alias void (%"class.cloud_devices::SelectionCapability.94"*, %"class.cloud_devices::SelectionCapability.94"*), void (%"class.cloud_devices::SelectionCapability.94"*, %"class.cloud_devices::SelectionCapability.94"*)* @_ZN13cloud_devices19SelectionCapabilityINS_7printer7MarginsENS1_13MarginsTraitsEEC2EOS4_
@_ZN13cloud_devices19SelectionCapabilityINS_7printer7MarginsENS1_13MarginsTraitsEED1Ev = weak_odr hidden unnamed_addr alias void (%"class.cloud_devices::SelectionCapability.94"*), void (%"class.cloud_devices::SelectionCapability.94"*)* @_ZN13cloud_devices19SelectionCapabilityINS_7printer7MarginsENS1_13MarginsTraitsEED2Ev
@_ZN13cloud_devices19SelectionCapabilityINS_7printer3DpiENS1_9DpiTraitsEEC1Ev = weak_odr hidden unnamed_addr alias void (%"class.cloud_devices::SelectionCapability.103"*), void (%"class.cloud_devices::SelectionCapability.103"*)* @_ZN13cloud_devices19SelectionCapabilityINS_7printer3DpiENS1_9DpiTraitsEEC2Ev
@_ZN13cloud_devices19SelectionCapabilityINS_7printer3DpiENS1_9DpiTraitsEEC1EOS4_ = weak_odr hidden unnamed_addr alias void (%"class.cloud_devices::SelectionCapability.103"*, %"class.cloud_devices::SelectionCapability.103"*), void (%"class.cloud_devices::SelectionCapability.103"*, %"class.cloud_devices::SelectionCapability.103"*)* @_ZN13cloud_devices19SelectionCapabilityINS_7printer3DpiENS1_9DpiTraitsEEC2EOS4_
@_ZN13cloud_devices19SelectionCapabilityINS_7printer3DpiENS1_9DpiTraitsEED1Ev = weak_odr hidden unnamed_addr alias void (%"class.cloud_devices::SelectionCapability.103"*), void (%"class.cloud_devices::SelectionCapability.103"*)* @_ZN13cloud_devices19SelectionCapabilityINS_7printer3DpiENS1_9DpiTraitsEED2Ev
@_ZN13cloud_devices19SelectionCapabilityINS_7printer13FitToPageTypeENS1_15FitToPageTraitsEEC1Ev = weak_odr hidden unnamed_addr alias void (%"class.cloud_devices::SelectionCapability.112"*), void (%"class.cloud_devices::SelectionCapability.112"*)* @_ZN13cloud_devices19SelectionCapabilityINS_7printer13FitToPageTypeENS1_15FitToPageTraitsEEC2Ev
@_ZN13cloud_devices19SelectionCapabilityINS_7printer13FitToPageTypeENS1_15FitToPageTraitsEEC1EOS4_ = weak_odr hidden unnamed_addr alias void (%"class.cloud_devices::SelectionCapability.112"*, %"class.cloud_devices::SelectionCapability.112"*), void (%"class.cloud_devices::SelectionCapability.112"*, %"class.cloud_devices::SelectionCapability.112"*)* @_ZN13cloud_devices19SelectionCapabilityINS_7printer13FitToPageTypeENS1_15FitToPageTraitsEEC2EOS4_
@_ZN13cloud_devices19SelectionCapabilityINS_7printer13FitToPageTypeENS1_15FitToPageTraitsEED1Ev = weak_odr hidden unnamed_addr alias void (%"class.cloud_devices::SelectionCapability.112"*), void (%"class.cloud_devices::SelectionCapability.112"*)* @_ZN13cloud_devices19SelectionCapabilityINS_7printer13FitToPageTypeENS1_15FitToPageTraitsEED2Ev
@_ZN13cloud_devices19SelectionCapabilityINS_7printer5MediaENS1_11MediaTraitsEEC1Ev = weak_odr hidden unnamed_addr alias void (%"class.cloud_devices::SelectionCapability.121"*), void (%"class.cloud_devices::SelectionCapability.121"*)* @_ZN13cloud_devices19SelectionCapabilityINS_7printer5MediaENS1_11MediaTraitsEEC2Ev
@_ZN13cloud_devices19SelectionCapabilityINS_7printer5MediaENS1_11MediaTraitsEEC1EOS4_ = weak_odr hidden unnamed_addr alias void (%"class.cloud_devices::SelectionCapability.121"*, %"class.cloud_devices::SelectionCapability.121"*), void (%"class.cloud_devices::SelectionCapability.121"*, %"class.cloud_devices::SelectionCapability.121"*)* @_ZN13cloud_devices19SelectionCapabilityINS_7printer5MediaENS1_11MediaTraitsEEC2EOS4_
@_ZN13cloud_devices19SelectionCapabilityINS_7printer5MediaENS1_11MediaTraitsEED1Ev = weak_odr hidden unnamed_addr alias void (%"class.cloud_devices::SelectionCapability.121"*), void (%"class.cloud_devices::SelectionCapability.121"*)* @_ZN13cloud_devices19SelectionCapabilityINS_7printer5MediaENS1_11MediaTraitsEED2Ev
@_ZN13cloud_devices15ValueCapabilityINS_7printer6CopiesENS1_22CopiesCapabilityTraitsEEC1Ev = weak_odr hidden unnamed_addr alias void (%"class.cloud_devices::ValueCapability.130"*), void (%"class.cloud_devices::ValueCapability.130"*)* @_ZN13cloud_devices15ValueCapabilityINS_7printer6CopiesENS1_22CopiesCapabilityTraitsEEC2Ev
@_ZN13cloud_devices15ValueCapabilityINS_7printer6CopiesENS1_22CopiesCapabilityTraitsEED1Ev = weak_odr hidden unnamed_addr alias void (%"class.cloud_devices::ValueCapability.130"*), void (%"class.cloud_devices::ValueCapability.130"*)* @_ZN13cloud_devices15ValueCapabilityINS_7printer6CopiesENS1_22CopiesCapabilityTraitsEED2Ev
@_ZN13cloud_devices15EmptyCapabilityINS_7printer15PageRangeTraitsEEC1Ev = weak_odr hidden unnamed_addr alias void (%"class.cloud_devices::EmptyCapability"*), void (%"class.cloud_devices::EmptyCapability"*)* @_ZN13cloud_devices15EmptyCapabilityINS_7printer15PageRangeTraitsEEC2Ev
@_ZN13cloud_devices15EmptyCapabilityINS_7printer15PageRangeTraitsEED1Ev = weak_odr hidden unnamed_addr alias void (%"class.cloud_devices::EmptyCapability"*), void (%"class.cloud_devices::EmptyCapability"*)* @_ZN13cloud_devices15EmptyCapabilityINS_7printer15PageRangeTraitsEED2Ev
@_ZN13cloud_devices17BooleanCapabilityINS_7printer13CollateTraitsEEC1Ev = weak_odr hidden unnamed_addr alias void (%"class.cloud_devices::BooleanCapability"*), void (%"class.cloud_devices::BooleanCapability"*)* @_ZN13cloud_devices17BooleanCapabilityINS_7printer13CollateTraitsEEC2Ev
@_ZN13cloud_devices17BooleanCapabilityINS_7printer13CollateTraitsEED1Ev = weak_odr hidden unnamed_addr alias void (%"class.cloud_devices::BooleanCapability"*), void (%"class.cloud_devices::BooleanCapability"*)* @_ZN13cloud_devices17BooleanCapabilityINS_7printer13CollateTraitsEED2Ev
@_ZN13cloud_devices17BooleanCapabilityINS_7printer13ReverseTraitsEEC1Ev = weak_odr hidden unnamed_addr alias void (%"class.cloud_devices::BooleanCapability.131"*), void (%"class.cloud_devices::BooleanCapability.131"*)* @_ZN13cloud_devices17BooleanCapabilityINS_7printer13ReverseTraitsEEC2Ev
@_ZN13cloud_devices17BooleanCapabilityINS_7printer13ReverseTraitsEED1Ev = weak_odr hidden unnamed_addr alias void (%"class.cloud_devices::BooleanCapability.131"*), void (%"class.cloud_devices::BooleanCapability.131"*)* @_ZN13cloud_devices17BooleanCapabilityINS_7printer13ReverseTraitsEED2Ev
@_ZN13cloud_devices10TicketItemINS_7printer15PwgRasterConfigENS1_21PwgRasterConfigTraitsEEC1Ev = weak_odr hidden unnamed_addr alias void (%"class.cloud_devices::TicketItem"*), void (%"class.cloud_devices::TicketItem"*)* @_ZN13cloud_devices10TicketItemINS_7printer15PwgRasterConfigENS1_21PwgRasterConfigTraitsEEC2Ev
@_ZN13cloud_devices10TicketItemINS_7printer15PwgRasterConfigENS1_21PwgRasterConfigTraitsEED1Ev = weak_odr hidden unnamed_addr alias void (%"class.cloud_devices::TicketItem"*), void (%"class.cloud_devices::TicketItem"*)* @_ZN13cloud_devices10TicketItemINS_7printer15PwgRasterConfigENS1_21PwgRasterConfigTraitsEED2Ev
@_ZN13cloud_devices10TicketItemINS_7printer5ColorENS1_11ColorTraitsEEC1Ev = weak_odr hidden unnamed_addr alias void (%"class.cloud_devices::TicketItem.132"*), void (%"class.cloud_devices::TicketItem.132"*)* @_ZN13cloud_devices10TicketItemINS_7printer5ColorENS1_11ColorTraitsEEC2Ev
@_ZN13cloud_devices10TicketItemINS_7printer5ColorENS1_11ColorTraitsEED1Ev = weak_odr hidden unnamed_addr alias void (%"class.cloud_devices::TicketItem.132"*), void (%"class.cloud_devices::TicketItem.132"*)* @_ZN13cloud_devices10TicketItemINS_7printer5ColorENS1_11ColorTraitsEED2Ev
@_ZN13cloud_devices10TicketItemINS_7printer10DuplexTypeENS1_12DuplexTraitsEEC1Ev = weak_odr hidden unnamed_addr alias void (%"class.cloud_devices::TicketItem.133"*), void (%"class.cloud_devices::TicketItem.133"*)* @_ZN13cloud_devices10TicketItemINS_7printer10DuplexTypeENS1_12DuplexTraitsEEC2Ev
@_ZN13cloud_devices10TicketItemINS_7printer10DuplexTypeENS1_12DuplexTraitsEED1Ev = weak_odr hidden unnamed_addr alias void (%"class.cloud_devices::TicketItem.133"*), void (%"class.cloud_devices::TicketItem.133"*)* @_ZN13cloud_devices10TicketItemINS_7printer10DuplexTypeENS1_12DuplexTraitsEED2Ev
@_ZN13cloud_devices10TicketItemINS_7printer15OrientationTypeENS1_17OrientationTraitsEEC1Ev = weak_odr hidden unnamed_addr alias void (%"class.cloud_devices::TicketItem.134"*), void (%"class.cloud_devices::TicketItem.134"*)* @_ZN13cloud_devices10TicketItemINS_7printer15OrientationTypeENS1_17OrientationTraitsEEC2Ev
@_ZN13cloud_devices10TicketItemINS_7printer15OrientationTypeENS1_17OrientationTraitsEED1Ev = weak_odr hidden unnamed_addr alias void (%"class.cloud_devices::TicketItem.134"*), void (%"class.cloud_devices::TicketItem.134"*)* @_ZN13cloud_devices10TicketItemINS_7printer15OrientationTypeENS1_17OrientationTraitsEED2Ev
@_ZN13cloud_devices10TicketItemINS_7printer7MarginsENS1_13MarginsTraitsEEC1Ev = weak_odr hidden unnamed_addr alias void (%"class.cloud_devices::TicketItem.135"*), void (%"class.cloud_devices::TicketItem.135"*)* @_ZN13cloud_devices10TicketItemINS_7printer7MarginsENS1_13MarginsTraitsEEC2Ev
@_ZN13cloud_devices10TicketItemINS_7printer7MarginsENS1_13MarginsTraitsEED1Ev = weak_odr hidden unnamed_addr alias void (%"class.cloud_devices::TicketItem.135"*), void (%"class.cloud_devices::TicketItem.135"*)* @_ZN13cloud_devices10TicketItemINS_7printer7MarginsENS1_13MarginsTraitsEED2Ev
@_ZN13cloud_devices10TicketItemINS_7printer3DpiENS1_9DpiTraitsEEC1Ev = weak_odr hidden unnamed_addr alias void (%"class.cloud_devices::TicketItem.136"*), void (%"class.cloud_devices::TicketItem.136"*)* @_ZN13cloud_devices10TicketItemINS_7printer3DpiENS1_9DpiTraitsEEC2Ev
@_ZN13cloud_devices10TicketItemINS_7printer3DpiENS1_9DpiTraitsEED1Ev = weak_odr hidden unnamed_addr alias void (%"class.cloud_devices::TicketItem.136"*), void (%"class.cloud_devices::TicketItem.136"*)* @_ZN13cloud_devices10TicketItemINS_7printer3DpiENS1_9DpiTraitsEED2Ev
@_ZN13cloud_devices10TicketItemINS_7printer13FitToPageTypeENS1_15FitToPageTraitsEEC1Ev = weak_odr hidden unnamed_addr alias void (%"class.cloud_devices::TicketItem.137"*), void (%"class.cloud_devices::TicketItem.137"*)* @_ZN13cloud_devices10TicketItemINS_7printer13FitToPageTypeENS1_15FitToPageTraitsEEC2Ev
@_ZN13cloud_devices10TicketItemINS_7printer13FitToPageTypeENS1_15FitToPageTraitsEED1Ev = weak_odr hidden unnamed_addr alias void (%"class.cloud_devices::TicketItem.137"*), void (%"class.cloud_devices::TicketItem.137"*)* @_ZN13cloud_devices10TicketItemINS_7printer13FitToPageTypeENS1_15FitToPageTraitsEED2Ev
@_ZN13cloud_devices10TicketItemINS_7printer5MediaENS1_11MediaTraitsEEC1Ev = weak_odr hidden unnamed_addr alias void (%"class.cloud_devices::TicketItem.138"*), void (%"class.cloud_devices::TicketItem.138"*)* @_ZN13cloud_devices10TicketItemINS_7printer5MediaENS1_11MediaTraitsEEC2Ev
@_ZN13cloud_devices10TicketItemINS_7printer5MediaENS1_11MediaTraitsEED1Ev = weak_odr hidden unnamed_addr alias void (%"class.cloud_devices::TicketItem.138"*), void (%"class.cloud_devices::TicketItem.138"*)* @_ZN13cloud_devices10TicketItemINS_7printer5MediaENS1_11MediaTraitsEED2Ev
@_ZN13cloud_devices10TicketItemIiNS_7printer22CopiesTicketItemTraitsEEC1Ev = weak_odr hidden unnamed_addr alias void (%"class.cloud_devices::TicketItem.139"*), void (%"class.cloud_devices::TicketItem.139"*)* @_ZN13cloud_devices10TicketItemIiNS_7printer22CopiesTicketItemTraitsEEC2Ev
@_ZN13cloud_devices10TicketItemIiNS_7printer22CopiesTicketItemTraitsEED1Ev = weak_odr hidden unnamed_addr alias void (%"class.cloud_devices::TicketItem.139"*), void (%"class.cloud_devices::TicketItem.139"*)* @_ZN13cloud_devices10TicketItemIiNS_7printer22CopiesTicketItemTraitsEED2Ev
@_ZN13cloud_devices10TicketItemINSt3__16vectorINS_7printer8IntervalENS1_9allocatorIS4_EEEENS3_15PageRangeTraitsEEC1Ev = weak_odr hidden unnamed_addr alias void (%"class.cloud_devices::TicketItem.140"*), void (%"class.cloud_devices::TicketItem.140"*)* @_ZN13cloud_devices10TicketItemINSt3__16vectorINS_7printer8IntervalENS1_9allocatorIS4_EEEENS3_15PageRangeTraitsEEC2Ev
@_ZN13cloud_devices10TicketItemINSt3__16vectorINS_7printer8IntervalENS1_9allocatorIS4_EEEENS3_15PageRangeTraitsEED1Ev = weak_odr hidden unnamed_addr alias void (%"class.cloud_devices::TicketItem.140"*), void (%"class.cloud_devices::TicketItem.140"*)* @_ZN13cloud_devices10TicketItemINSt3__16vectorINS_7printer8IntervalENS1_9allocatorIS4_EEEENS3_15PageRangeTraitsEED2Ev
@_ZN13cloud_devices10TicketItemIbNS_7printer13CollateTraitsEEC1Ev = weak_odr hidden unnamed_addr alias void (%"class.cloud_devices::TicketItem.148"*), void (%"class.cloud_devices::TicketItem.148"*)* @_ZN13cloud_devices10TicketItemIbNS_7printer13CollateTraitsEEC2Ev
@_ZN13cloud_devices10TicketItemIbNS_7printer13CollateTraitsEED1Ev = weak_odr hidden unnamed_addr alias void (%"class.cloud_devices::TicketItem.148"*), void (%"class.cloud_devices::TicketItem.148"*)* @_ZN13cloud_devices10TicketItemIbNS_7printer13CollateTraitsEED2Ev
@_ZN13cloud_devices10TicketItemIbNS_7printer13ReverseTraitsEEC1Ev = weak_odr hidden unnamed_addr alias void (%"class.cloud_devices::TicketItem.149"*), void (%"class.cloud_devices::TicketItem.149"*)* @_ZN13cloud_devices10TicketItemIbNS_7printer13ReverseTraitsEEC2Ev
@_ZN13cloud_devices10TicketItemIbNS_7printer13ReverseTraitsEED1Ev = weak_odr hidden unnamed_addr alias void (%"class.cloud_devices::TicketItem.149"*), void (%"class.cloud_devices::TicketItem.149"*)* @_ZN13cloud_devices10TicketItemIbNS_7printer13ReverseTraitsEED2Ev
@_ZN13cloud_devices7printer15PwgRasterConfigC1Ev = hidden unnamed_addr alias void (%"struct.cloud_devices::printer::PwgRasterConfig"*), void (%"struct.cloud_devices::printer::PwgRasterConfig"*)* @_ZN13cloud_devices7printer15PwgRasterConfigC2Ev
@_ZN13cloud_devices7printer15PwgRasterConfigD1Ev = hidden unnamed_addr alias void (%"struct.cloud_devices::printer::PwgRasterConfig"*), void (%"struct.cloud_devices::printer::PwgRasterConfig"*)* @_ZN13cloud_devices7printer15PwgRasterConfigD2Ev
@_ZN13cloud_devices7printer21RangeVendorCapabilityC1Ev = hidden unnamed_addr alias void (%"class.cloud_devices::printer::RangeVendorCapability"*), void (%"class.cloud_devices::printer::RangeVendorCapability"*)* @_ZN13cloud_devices7printer21RangeVendorCapabilityC2Ev
@_ZN13cloud_devices7printer21RangeVendorCapabilityC1ENS1_9ValueTypeERKNSt3__112basic_stringIcNS3_11char_traitsIcEENS3_9allocatorIcEEEESB_ = hidden unnamed_addr alias void (%"class.cloud_devices::printer::RangeVendorCapability"*, i32, %"class.std::__1::basic_string"*, %"class.std::__1::basic_string"*), void (%"class.cloud_devices::printer::RangeVendorCapability"*, i32, %"class.std::__1::basic_string"*, %"class.std::__1::basic_string"*)* @_ZN13cloud_devices7printer21RangeVendorCapabilityC2ENS1_9ValueTypeERKNSt3__112basic_stringIcNS3_11char_traitsIcEENS3_9allocatorIcEEEESB_
@_ZN13cloud_devices7printer21RangeVendorCapabilityC1ENS1_9ValueTypeERKNSt3__112basic_stringIcNS3_11char_traitsIcEENS3_9allocatorIcEEEESB_SB_ = hidden unnamed_addr alias void (%"class.cloud_devices::printer::RangeVendorCapability"*, i32, %"class.std::__1::basic_string"*, %"class.std::__1::basic_string"*, %"class.std::__1::basic_string"*), void (%"class.cloud_devices::printer::RangeVendorCapability"*, i32, %"class.std::__1::basic_string"*, %"class.std::__1::basic_string"*, %"class.std::__1::basic_string"*)* @_ZN13cloud_devices7printer21RangeVendorCapabilityC2ENS1_9ValueTypeERKNSt3__112basic_stringIcNS3_11char_traitsIcEENS3_9allocatorIcEEEESB_SB_
@_ZN13cloud_devices7printer21RangeVendorCapabilityC1EOS1_ = hidden unnamed_addr alias void (%"class.cloud_devices::printer::RangeVendorCapability"*, %"class.cloud_devices::printer::RangeVendorCapability"*), void (%"class.cloud_devices::printer::RangeVendorCapability"*, %"class.cloud_devices::printer::RangeVendorCapability"*)* @_ZN13cloud_devices7printer21RangeVendorCapabilityC2EOS1_
@_ZN13cloud_devices7printer21RangeVendorCapabilityD1Ev = hidden unnamed_addr alias void (%"class.cloud_devices::printer::RangeVendorCapability"*), void (%"class.cloud_devices::printer::RangeVendorCapability"*)* @_ZN13cloud_devices7printer21RangeVendorCapabilityD2Ev
@_ZN13cloud_devices7printer28SelectVendorCapabilityOptionC1Ev = hidden unnamed_addr alias void (%"struct.cloud_devices::printer::SelectVendorCapabilityOption"*), void (%"struct.cloud_devices::printer::SelectVendorCapabilityOption"*)* @_ZN13cloud_devices7printer28SelectVendorCapabilityOptionC2Ev
@_ZN13cloud_devices7printer28SelectVendorCapabilityOptionC1ERKNSt3__112basic_stringIcNS2_11char_traitsIcEENS2_9allocatorIcEEEESA_ = hidden unnamed_addr alias void (%"struct.cloud_devices::printer::SelectVendorCapabilityOption"*, %"class.std::__1::basic_string"*, %"class.std::__1::basic_string"*), void (%"struct.cloud_devices::printer::SelectVendorCapabilityOption"*, %"class.std::__1::basic_string"*, %"class.std::__1::basic_string"*)* @_ZN13cloud_devices7printer28SelectVendorCapabilityOptionC2ERKNSt3__112basic_stringIcNS2_11char_traitsIcEENS2_9allocatorIcEEEESA_
@_ZN13cloud_devices7printer28SelectVendorCapabilityOptionD1Ev = hidden unnamed_addr alias void (%"struct.cloud_devices::printer::SelectVendorCapabilityOption"*), void (%"struct.cloud_devices::printer::SelectVendorCapabilityOption"*)* @_ZN13cloud_devices7printer28SelectVendorCapabilityOptionD2Ev
@_ZN13cloud_devices7printer26TypedValueVendorCapabilityC1Ev = hidden unnamed_addr alias void (%"class.cloud_devices::printer::TypedValueVendorCapability"*), void (%"class.cloud_devices::printer::TypedValueVendorCapability"*)* @_ZN13cloud_devices7printer26TypedValueVendorCapabilityC2Ev
@_ZN13cloud_devices7printer26TypedValueVendorCapabilityC1ENS1_9ValueTypeE = hidden unnamed_addr alias void (%"class.cloud_devices::printer::TypedValueVendorCapability"*, i32), void (%"class.cloud_devices::printer::TypedValueVendorCapability"*, i32)* @_ZN13cloud_devices7printer26TypedValueVendorCapabilityC2ENS1_9ValueTypeE
@_ZN13cloud_devices7printer26TypedValueVendorCapabilityC1ENS1_9ValueTypeERKNSt3__112basic_stringIcNS3_11char_traitsIcEENS3_9allocatorIcEEEE = hidden unnamed_addr alias void (%"class.cloud_devices::printer::TypedValueVendorCapability"*, i32, %"class.std::__1::basic_string"*), void (%"class.cloud_devices::printer::TypedValueVendorCapability"*, i32, %"class.std::__1::basic_string"*)* @_ZN13cloud_devices7printer26TypedValueVendorCapabilityC2ENS1_9ValueTypeERKNSt3__112basic_stringIcNS3_11char_traitsIcEENS3_9allocatorIcEEEE
@_ZN13cloud_devices7printer26TypedValueVendorCapabilityC1EOS1_ = hidden unnamed_addr alias void (%"class.cloud_devices::printer::TypedValueVendorCapability"*, %"class.cloud_devices::printer::TypedValueVendorCapability"*), void (%"class.cloud_devices::printer::TypedValueVendorCapability"*, %"class.cloud_devices::printer::TypedValueVendorCapability"*)* @_ZN13cloud_devices7printer26TypedValueVendorCapabilityC2EOS1_
@_ZN13cloud_devices7printer26TypedValueVendorCapabilityD1Ev = hidden unnamed_addr alias void (%"class.cloud_devices::printer::TypedValueVendorCapability"*), void (%"class.cloud_devices::printer::TypedValueVendorCapability"*)* @_ZN13cloud_devices7printer26TypedValueVendorCapabilityD2Ev
@_ZN13cloud_devices7printer16VendorCapabilityC1Ev = hidden unnamed_addr alias void (%"class.cloud_devices::printer::VendorCapability"*), void (%"class.cloud_devices::printer::VendorCapability"*)* @_ZN13cloud_devices7printer16VendorCapabilityC2Ev
@_ZN13cloud_devices7printer16VendorCapabilityC1ERKNSt3__112basic_stringIcNS2_11char_traitsIcEENS2_9allocatorIcEEEESA_NS0_21RangeVendorCapabilityE = hidden unnamed_addr alias void (%"class.cloud_devices::printer::VendorCapability"*, %"class.std::__1::basic_string"*, %"class.std::__1::basic_string"*, %"class.cloud_devices::printer::RangeVendorCapability"*), void (%"class.cloud_devices::printer::VendorCapability"*, %"class.std::__1::basic_string"*, %"class.std::__1::basic_string"*, %"class.cloud_devices::printer::RangeVendorCapability"*)* @_ZN13cloud_devices7printer16VendorCapabilityC2ERKNSt3__112basic_stringIcNS2_11char_traitsIcEENS2_9allocatorIcEEEESA_NS0_21RangeVendorCapabilityE
@_ZN13cloud_devices7printer16VendorCapabilityC1ERKNSt3__112basic_stringIcNS2_11char_traitsIcEENS2_9allocatorIcEEEESA_NS_19SelectionCapabilityINS0_28SelectVendorCapabilityOptionENS0_28SelectVendorCapabilityTraitsEEE = hidden unnamed_addr alias void (%"class.cloud_devices::printer::VendorCapability"*, %"class.std::__1::basic_string"*, %"class.std::__1::basic_string"*, %"class.cloud_devices::SelectionCapability"*), void (%"class.cloud_devices::printer::VendorCapability"*, %"class.std::__1::basic_string"*, %"class.std::__1::basic_string"*, %"class.cloud_devices::SelectionCapability"*)* @_ZN13cloud_devices7printer16VendorCapabilityC2ERKNSt3__112basic_stringIcNS2_11char_traitsIcEENS2_9allocatorIcEEEESA_NS_19SelectionCapabilityINS0_28SelectVendorCapabilityOptionENS0_28SelectVendorCapabilityTraitsEEE
@_ZN13cloud_devices7printer16VendorCapabilityC1ERKNSt3__112basic_stringIcNS2_11char_traitsIcEENS2_9allocatorIcEEEESA_NS0_26TypedValueVendorCapabilityE = hidden unnamed_addr alias void (%"class.cloud_devices::printer::VendorCapability"*, %"class.std::__1::basic_string"*, %"class.std::__1::basic_string"*, %"class.cloud_devices::printer::TypedValueVendorCapability"*), void (%"class.cloud_devices::printer::VendorCapability"*, %"class.std::__1::basic_string"*, %"class.std::__1::basic_string"*, %"class.cloud_devices::printer::TypedValueVendorCapability"*)* @_ZN13cloud_devices7printer16VendorCapabilityC2ERKNSt3__112basic_stringIcNS2_11char_traitsIcEENS2_9allocatorIcEEEESA_NS0_26TypedValueVendorCapabilityE
@_ZN13cloud_devices7printer16VendorCapabilityC1EOS1_ = hidden unnamed_addr alias void (%"class.cloud_devices::printer::VendorCapability"*, %"class.cloud_devices::printer::VendorCapability"*), void (%"class.cloud_devices::printer::VendorCapability"*, %"class.cloud_devices::printer::VendorCapability"*)* @_ZN13cloud_devices7printer16VendorCapabilityC2EOS1_
@_ZN13cloud_devices7printer16VendorCapabilityD1Ev = hidden unnamed_addr alias void (%"class.cloud_devices::printer::VendorCapability"*), void (%"class.cloud_devices::printer::VendorCapability"*)* @_ZN13cloud_devices7printer16VendorCapabilityD2Ev
@_ZN13cloud_devices7printer5ColorC1Ev = hidden unnamed_addr alias void (%"struct.cloud_devices::printer::Color"*), void (%"struct.cloud_devices::printer::Color"*)* @_ZN13cloud_devices7printer5ColorC2Ev
@_ZN13cloud_devices7printer5ColorC1ENS0_9ColorTypeE = hidden unnamed_addr alias void (%"struct.cloud_devices::printer::Color"*, i32), void (%"struct.cloud_devices::printer::Color"*, i32)* @_ZN13cloud_devices7printer5ColorC2ENS0_9ColorTypeE
@_ZN13cloud_devices7printer7MarginsC1Ev = hidden unnamed_addr alias void (%"struct.cloud_devices::printer::Margins"*), void (%"struct.cloud_devices::printer::Margins"*)* @_ZN13cloud_devices7printer7MarginsC2Ev
@_ZN13cloud_devices7printer7MarginsC1ENS0_11MarginsTypeEiiii = hidden unnamed_addr alias void (%"struct.cloud_devices::printer::Margins"*, i32, i32, i32, i32, i32), void (%"struct.cloud_devices::printer::Margins"*, i32, i32, i32, i32, i32)* @_ZN13cloud_devices7printer7MarginsC2ENS0_11MarginsTypeEiiii
@_ZN13cloud_devices7printer3DpiC1Ev = hidden unnamed_addr alias void (%"struct.cloud_devices::printer::Dpi"*), void (%"struct.cloud_devices::printer::Dpi"*)* @_ZN13cloud_devices7printer3DpiC2Ev
@_ZN13cloud_devices7printer3DpiC1Eii = hidden unnamed_addr alias void (%"struct.cloud_devices::printer::Dpi"*, i32, i32), void (%"struct.cloud_devices::printer::Dpi"*, i32, i32)* @_ZN13cloud_devices7printer3DpiC2Eii
@_ZN13cloud_devices7printer5MediaC1Ev = hidden unnamed_addr alias void (%"struct.cloud_devices::printer::Media"*), void (%"struct.cloud_devices::printer::Media"*)* @_ZN13cloud_devices7printer5MediaC2Ev
@_ZN13cloud_devices7printer5MediaC1ENS0_9MediaTypeE = hidden unnamed_addr alias void (%"struct.cloud_devices::printer::Media"*, i32), void (%"struct.cloud_devices::printer::Media"*, i32)* @_ZN13cloud_devices7printer5MediaC2ENS0_9MediaTypeE
@_ZN13cloud_devices7printer5MediaC1ENS0_9MediaTypeEii = hidden unnamed_addr alias void (%"struct.cloud_devices::printer::Media"*, i32, i32, i32), void (%"struct.cloud_devices::printer::Media"*, i32, i32, i32)* @_ZN13cloud_devices7printer5MediaC2ENS0_9MediaTypeEii
@_ZN13cloud_devices7printer5MediaC1ERKNSt3__112basic_stringIcNS2_11char_traitsIcEENS2_9allocatorIcEEEESA_ii = hidden unnamed_addr alias void (%"struct.cloud_devices::printer::Media"*, %"class.std::__1::basic_string"*, %"class.std::__1::basic_string"*, i32, i32), void (%"struct.cloud_devices::printer::Media"*, %"class.std::__1::basic_string"*, %"class.std::__1::basic_string"*, i32, i32)* @_ZN13cloud_devices7printer5MediaC2ERKNSt3__112basic_stringIcNS2_11char_traitsIcEENS2_9allocatorIcEEEESA_ii
@_ZN13cloud_devices7printer5MediaC1ERKS1_ = hidden unnamed_addr alias void (%"struct.cloud_devices::printer::Media"*, %"struct.cloud_devices::printer::Media"*), void (%"struct.cloud_devices::printer::Media"*, %"struct.cloud_devices::printer::Media"*)* @_ZN13cloud_devices7printer5MediaC2ERKS1_
@_ZN13cloud_devices7printer8IntervalC1Ev = hidden unnamed_addr alias void (%"struct.cloud_devices::printer::Interval"*), void (%"struct.cloud_devices::printer::Interval"*)* @_ZN13cloud_devices7printer8IntervalC2Ev
@_ZN13cloud_devices7printer8IntervalC1Eii = hidden unnamed_addr alias void (%"struct.cloud_devices::printer::Interval"*, i32, i32), void (%"struct.cloud_devices::printer::Interval"*, i32, i32)* @_ZN13cloud_devices7printer8IntervalC2Eii
@_ZN13cloud_devices7printer8IntervalC1Ei = hidden unnamed_addr alias void (%"struct.cloud_devices::printer::Interval"*, i32), void (%"struct.cloud_devices::printer::Interval"*, i32)* @_ZN13cloud_devices7printer8IntervalC2Ei

; Function Attrs: nounwind ssp uwtable
define weak_odr hidden void @_ZN13cloud_devices14ListCapabilityINSt3__112basic_stringIcNS1_11char_traitsIcEENS1_9allocatorIcEEEENS_7printer17ContentTypeTraitsEEC2Ev(%"class.cloud_devices::ListCapability"*) unnamed_addr #0 comdat($_ZN13cloud_devices14ListCapabilityINSt3__112basic_stringIcNS1_11char_traitsIcEENS1_9allocatorIcEEEENS_7printer17ContentTypeTraitsEEC5Ev) align 2 {
  %2 = bitcast %"class.cloud_devices::ListCapability"* %0 to i8*
  tail call void @llvm.memset.p0i8.i64(i8* align 8 %2, i8 0, i64 24, i1 false) #16
  %3 = getelementptr inbounds %"class.cloud_devices::ListCapability", %"class.cloud_devices::ListCapability"* %0, i64 0, i32 0, i32 0, i32 1
  store %"class.std::__1::basic_string"* null, %"class.std::__1::basic_string"** %3, align 8
  ret void
}

; Function Attrs: nounwind ssp uwtable
define weak_odr hidden void @_ZN13cloud_devices14ListCapabilityINSt3__112basic_stringIcNS1_11char_traitsIcEENS1_9allocatorIcEEEENS_7printer17ContentTypeTraitsEE5ResetEv(%"class.cloud_devices::ListCapability"*) local_unnamed_addr #0 comdat align 2 {
  %2 = getelementptr inbounds %"class.cloud_devices::ListCapability", %"class.cloud_devices::ListCapability"* %0, i64 0, i32 0, i32 0, i32 0
  %3 = load %"class.std::__1::basic_string"*, %"class.std::__1::basic_string"** %2, align 8
  %4 = getelementptr inbounds %"class.cloud_devices::ListCapability", %"class.cloud_devices::ListCapability"* %0, i64 0, i32 0, i32 0, i32 1
  %5 = load %"class.std::__1::basic_string"*, %"class.std::__1::basic_string"** %4, align 8
  %6 = icmp eq %"class.std::__1::basic_string"* %5, %3
  br i1 %6, label %19, label %7

7:                                                ; preds = %1, %17
  %8 = phi %"class.std::__1::basic_string"* [ %9, %17 ], [ %5, %1 ]
  %9 = getelementptr inbounds %"class.std::__1::basic_string", %"class.std::__1::basic_string"* %8, i64 -1
  %10 = bitcast %"class.std::__1::basic_string"* %9 to %"struct.std::__1::basic_string<char, std::__1::char_traits<char>, std::__1::allocator<char> >::__short"*
  %11 = getelementptr inbounds %"struct.std::__1::basic_string<char, std::__1::char_traits<char>, std::__1::allocator<char> >::__short", %"struct.std::__1::basic_string<char, std::__1::char_traits<char>, std::__1::allocator<char> >::__short"* %10, i64 0, i32 1, i32 0
  %12 = load i8, i8* %11, align 1
  %13 = icmp slt i8 %12, 0
  br i1 %13, label %14, label %17

14:                                               ; preds = %7
  %15 = getelementptr inbounds %"class.std::__1::basic_string", %"class.std::__1::basic_string"* %9, i64 0, i32 0, i32 0, i32 0, i32 0, i32 0, i32 0
  %16 = load i8*, i8** %15, align 8
  tail call void @_ZdlPv(i8* %16) #17
  br label %17

17:                                               ; preds = %14, %7
  %18 = icmp eq %"class.std::__1::basic_string"* %9, %3
  br i1 %18, label %19, label %7

19:                                               ; preds = %17, %1
  store %"class.std::__1::basic_string"* %3, %"class.std::__1::basic_string"** %4, align 8
  ret void
}

; Function Attrs: nounwind ssp uwtable
define weak_odr hidden void @_ZN13cloud_devices14ListCapabilityINSt3__112basic_stringIcNS1_11char_traitsIcEENS1_9allocatorIcEEEENS_7printer17ContentTypeTraitsEEC2EOSA_(%"class.cloud_devices::ListCapability"*, %"class.cloud_devices::ListCapability"* dereferenceable(24)) unnamed_addr #0 comdat($_ZN13cloud_devices14ListCapabilityINSt3__112basic_stringIcNS1_11char_traitsIcEENS1_9allocatorIcEEEENS_7printer17ContentTypeTraitsEEC5EOSA_) align 2 {
  %3 = bitcast %"class.cloud_devices::ListCapability"* %0 to i8*
  tail call void @llvm.memset.p0i8.i64(i8* align 8 %3, i8 0, i64 24, i1 false) #16
  %4 = bitcast %"class.cloud_devices::ListCapability"* %1 to i64*
  %5 = load i64, i64* %4, align 8
  %6 = bitcast %"class.cloud_devices::ListCapability"* %0 to i64*
  store i64 %5, i64* %6, align 8
  %7 = getelementptr inbounds %"class.cloud_devices::ListCapability", %"class.cloud_devices::ListCapability"* %1, i64 0, i32 0, i32 0, i32 1
  %8 = bitcast %"class.std::__1::basic_string"** %7 to i64*
  %9 = load i64, i64* %8, align 8
  %10 = getelementptr inbounds %"class.cloud_devices::ListCapability", %"class.cloud_devices::ListCapability"* %0, i64 0, i32 0, i32 0, i32 1
  %11 = bitcast %"class.std::__1::basic_string"** %10 to i64*
  store i64 %9, i64* %11, align 8
  %12 = getelementptr inbounds %"class.cloud_devices::ListCapability", %"class.cloud_devices::ListCapability"* %1, i64 0, i32 0, i32 0, i32 2, i32 0, i32 0
  %13 = bitcast %"class.std::__1::basic_string"** %12 to i64*
  %14 = load i64, i64* %13, align 8
  %15 = getelementptr inbounds %"class.cloud_devices::ListCapability", %"class.cloud_devices::ListCapability"* %0, i64 0, i32 0, i32 0, i32 2, i32 0, i32 0
  %16 = bitcast %"class.std::__1::basic_string"** %15 to i64*
  store i64 %14, i64* %16, align 8
  %17 = bitcast %"class.cloud_devices::ListCapability"* %1 to i8*
  tail call void @llvm.memset.p0i8.i64(i8* align 8 %17, i8 0, i64 24, i1 false) #16
  ret void
}

; Function Attrs: nounwind ssp uwtable
define weak_odr hidden void @_ZN13cloud_devices14ListCapabilityINSt3__112basic_stringIcNS1_11char_traitsIcEENS1_9allocatorIcEEEENS_7printer17ContentTypeTraitsEED2Ev(%"class.cloud_devices::ListCapability"*) unnamed_addr #0 comdat($_ZN13cloud_devices14ListCapabilityINSt3__112basic_stringIcNS1_11char_traitsIcEENS1_9allocatorIcEEEENS_7printer17ContentTypeTraitsEED5Ev) align 2 {
  %2 = getelementptr inbounds %"class.cloud_devices::ListCapability", %"class.cloud_devices::ListCapability"* %0, i64 0, i32 0, i32 0, i32 0
  %3 = load %"class.std::__1::basic_string"*, %"class.std::__1::basic_string"** %2, align 8
  %4 = icmp eq %"class.std::__1::basic_string"* %3, null
  br i1 %4, label %27, label %5

5:                                                ; preds = %1
  %6 = bitcast %"class.std::__1::basic_string"* %3 to i8*
  %7 = getelementptr inbounds %"class.cloud_devices::ListCapability", %"class.cloud_devices::ListCapability"* %0, i64 0, i32 0, i32 0, i32 1
  %8 = load %"class.std::__1::basic_string"*, %"class.std::__1::basic_string"** %7, align 8
  %9 = icmp eq %"class.std::__1::basic_string"* %8, %3
  br i1 %9, label %25, label %10

10:                                               ; preds = %5, %20
  %11 = phi %"class.std::__1::basic_string"* [ %12, %20 ], [ %8, %5 ]
  %12 = getelementptr inbounds %"class.std::__1::basic_string", %"class.std::__1::basic_string"* %11, i64 -1
  %13 = bitcast %"class.std::__1::basic_string"* %12 to %"struct.std::__1::basic_string<char, std::__1::char_traits<char>, std::__1::allocator<char> >::__short"*
  %14 = getelementptr inbounds %"struct.std::__1::basic_string<char, std::__1::char_traits<char>, std::__1::allocator<char> >::__short", %"struct.std::__1::basic_string<char, std::__1::char_traits<char>, std::__1::allocator<char> >::__short"* %13, i64 0, i32 1, i32 0
  %15 = load i8, i8* %14, align 1
  %16 = icmp slt i8 %15, 0
  br i1 %16, label %17, label %20

17:                                               ; preds = %10
  %18 = getelementptr inbounds %"class.std::__1::basic_string", %"class.std::__1::basic_string"* %12, i64 0, i32 0, i32 0, i32 0, i32 0, i32 0, i32 0
  %19 = load i8*, i8** %18, align 8
  tail call void @_ZdlPv(i8* %19) #17
  br label %20

20:                                               ; preds = %17, %10
  %21 = icmp eq %"class.std::__1::basic_string"* %12, %3
  br i1 %21, label %22, label %10

22:                                               ; preds = %20
  %23 = bitcast %"class.cloud_devices::ListCapability"* %0 to i8**
  %24 = load i8*, i8** %23, align 8
  br label %25

25:                                               ; preds = %22, %5
  %26 = phi i8* [ %24, %22 ], [ %6, %5 ]
  store %"class.std::__1::basic_string"* %3, %"class.std::__1::basic_string"** %7, align 8
  tail call void @_ZdlPv(i8* %26) #17
  br label %27

27:                                               ; preds = %1, %25
  ret void
}

; Function Attrs: nounwind ssp uwtable
define weak_odr hidden zeroext i1 @_ZN13cloud_devices14ListCapabilityINSt3__112basic_stringIcNS1_11char_traitsIcEENS1_9allocatorIcEEEENS_7printer17ContentTypeTraitsEE8LoadFromERKNS_22CloudDeviceDescriptionE(%"class.cloud_devices::ListCapability"*, %"class.cloud_devices::CloudDeviceDescription"* dereferenceable(32)) local_unnamed_addr #0 comdat align 2 {
  %3 = alloca %"class.std::__1::vector.35", align 8
  %4 = alloca %"class.base::CheckedContiguousIterator", align 8
  %5 = alloca %"class.base::CheckedContiguousIterator", align 8
  %6 = alloca %"class.std::__1::basic_string", align 8
  %7 = getelementptr inbounds %"class.cloud_devices::ListCapability", %"class.cloud_devices::ListCapability"* %0, i64 0, i32 0, i32 0, i32 0
  %8 = load %"class.std::__1::basic_string"*, %"class.std::__1::basic_string"** %7, align 8
  %9 = getelementptr inbounds %"class.cloud_devices::ListCapability", %"class.cloud_devices::ListCapability"* %0, i64 0, i32 0, i32 0, i32 1
  %10 = load %"class.std::__1::basic_string"*, %"class.std::__1::basic_string"** %9, align 8
  %11 = icmp eq %"class.std::__1::basic_string"* %10, %8
  br i1 %11, label %24, label %12

12:                                               ; preds = %2, %22
  %13 = phi %"class.std::__1::basic_string"* [ %14, %22 ], [ %10, %2 ]
  %14 = getelementptr inbounds %"class.std::__1::basic_string", %"class.std::__1::basic_string"* %13, i64 -1
  %15 = bitcast %"class.std::__1::basic_string"* %14 to %"struct.std::__1::basic_string<char, std::__1::char_traits<char>, std::__1::allocator<char> >::__short"*
  %16 = getelementptr inbounds %"struct.std::__1::basic_string<char, std::__1::char_traits<char>, std::__1::allocator<char> >::__short", %"struct.std::__1::basic_string<char, std::__1::char_traits<char>, std::__1::allocator<char> >::__short"* %15, i64 0, i32 1, i32 0
  %17 = load i8, i8* %16, align 1
  %18 = icmp slt i8 %17, 0
  br i1 %18, label %19, label %22

19:                                               ; preds = %12
  %20 = getelementptr inbounds %"class.std::__1::basic_string", %"class.std::__1::basic_string"* %14, i64 0, i32 0, i32 0, i32 0, i32 0, i32 0, i32 0
  %21 = load i8*, i8** %20, align 8
  tail call void @_ZdlPv(i8* %21) #17
  br label %22

22:                                               ; preds = %19, %12
  %23 = icmp eq %"class.std::__1::basic_string"* %14, %8
  br i1 %23, label %24, label %12

24:                                               ; preds = %22, %2
  store %"class.std::__1::basic_string"* %8, %"class.std::__1::basic_string"** %9, align 8
  %25 = bitcast %"class.std::__1::vector.35"* %3 to i8*
  call void @llvm.lifetime.start.p0i8(i64 24, i8* nonnull %25) #16
  %26 = tail call i8* @_Znwm(i64 32) #17, !noalias !2
  %27 = getelementptr inbounds %"class.std::__1::vector.35", %"class.std::__1::vector.35"* %3, i64 0, i32 0, i32 1
  %28 = bitcast %"class.std::__1::vector.35"* %3 to i8**
  store i8* %26, i8** %28, align 8, !alias.scope !2
  %29 = getelementptr inbounds i8, i8* %26, i64 32
  %30 = getelementptr inbounds %"class.std::__1::vector.35", %"class.std::__1::vector.35"* %3, i64 0, i32 0, i32 2, i32 0, i32 0
  %31 = bitcast %"class.base::BasicStringPiece"** %30 to i8**
  store i8* %29, i8** %31, align 8, !alias.scope !2
  %32 = bitcast %"class.base::BasicStringPiece"** %27 to i64*
  tail call void @llvm.memcpy.p0i8.p0i8.i64(i8* nonnull align 8 %26, i8* align 8 bitcast ([2 x %"class.base::BasicStringPiece"]* @.ref.tmp to i8*), i64 32, i1 false) #16, !noalias !2
  %33 = ptrtoint i8* %29 to i64
  store i64 %33, i64* %32, align 8, !alias.scope !2
  %34 = call %"class.base::Value"* @_ZNK13cloud_devices22CloudDeviceDescription7GetItemERKNSt3__16vectorIN4base16BasicStringPieceIcNS1_11char_traitsIcEEEENS1_9allocatorIS7_EEEENS3_5Value4TypeE(%"class.cloud_devices::CloudDeviceDescription"* %1, %"class.std::__1::vector.35"* nonnull dereferenceable(24) %3, i8 zeroext 7) #16
  %35 = getelementptr inbounds %"class.std::__1::vector.35", %"class.std::__1::vector.35"* %3, i64 0, i32 0, i32 0
  %36 = load %"class.base::BasicStringPiece"*, %"class.base::BasicStringPiece"** %35, align 8
  %37 = icmp eq %"class.base::BasicStringPiece"* %36, null
  br i1 %37, label %41, label %38

38:                                               ; preds = %24
  %39 = ptrtoint %"class.base::BasicStringPiece"* %36 to i64
  store i64 %39, i64* %32, align 8
  %40 = bitcast %"class.base::BasicStringPiece"* %36 to i8*
  call void @_ZdlPv(i8* %40) #17
  br label %41

41:                                               ; preds = %24, %38
  call void @llvm.lifetime.end.p0i8(i64 24, i8* nonnull %25) #16
  %42 = icmp eq %"class.base::Value"* %34, null
  br i1 %42, label %155, label %43

43:                                               ; preds = %41
  %44 = call %"class.std::__1::vector.27"* @_ZNK4base5Value7GetListEv(%"class.base::Value"* nonnull %34) #16
  %45 = bitcast %"class.base::CheckedContiguousIterator"* %4 to i8*
  call void @llvm.lifetime.start.p0i8(i64 24, i8* nonnull %45) #16
  %46 = getelementptr inbounds %"class.base::CheckedContiguousIterator", %"class.base::CheckedContiguousIterator"* %4, i64 0, i32 1
  %47 = icmp eq %"class.std::__1::vector.27"* %44, null
  %48 = bitcast %"class.base::CheckedContiguousIterator"* %4 to i8*
  call void @llvm.memset.p0i8.i64(i8* nonnull align 8 %48, i8 -86, i64 24, i1 false)
  br i1 %47, label %58, label %49

49:                                               ; preds = %43
  %50 = getelementptr inbounds %"class.std::__1::vector.27", %"class.std::__1::vector.27"* %44, i64 0, i32 0, i32 0
  %51 = load %"class.base::Value"*, %"class.base::Value"** %50, align 8
  %52 = getelementptr inbounds %"class.std::__1::vector.27", %"class.std::__1::vector.27"* %44, i64 0, i32 0, i32 1
  %53 = bitcast %"class.base::Value"** %52 to i64*
  %54 = load i64, i64* %53, align 8
  %55 = ptrtoint %"class.base::Value"* %51 to i64
  %56 = sub i64 %54, %55
  %57 = ashr exact i64 %56, 5
  br label %58

58:                                               ; preds = %43, %49
  %59 = phi %"class.base::Value"* [ %51, %49 ], [ null, %43 ]
  %60 = phi i64 [ %57, %49 ], [ 0, %43 ]
  %61 = getelementptr inbounds %"class.base::Value", %"class.base::Value"* %59, i64 %60
  call void @_ZN4base25CheckedContiguousIteratorIKNS_5ValueEEC2EPS2_S4_S4_(%"class.base::CheckedContiguousIterator"* nonnull %4, %"class.base::Value"* %59, %"class.base::Value"* %59, %"class.base::Value"* %61) #16
  %62 = bitcast %"class.base::CheckedContiguousIterator"* %5 to i8*
  call void @llvm.lifetime.start.p0i8(i64 24, i8* nonnull %62) #16
  %63 = getelementptr inbounds %"class.base::CheckedContiguousIterator", %"class.base::CheckedContiguousIterator"* %5, i64 0, i32 1
  %64 = bitcast %"class.base::CheckedContiguousIterator"* %5 to i8*
  call void @llvm.memset.p0i8.i64(i8* nonnull align 8 %64, i8 -86, i64 24, i1 false)
  br i1 %47, label %75, label %65

65:                                               ; preds = %58
  %66 = getelementptr inbounds %"class.std::__1::vector.27", %"class.std::__1::vector.27"* %44, i64 0, i32 0, i32 0
  %67 = load %"class.base::Value"*, %"class.base::Value"** %66, align 8
  %68 = getelementptr inbounds %"class.std::__1::vector.27", %"class.std::__1::vector.27"* %44, i64 0, i32 0, i32 1
  %69 = bitcast %"class.base::Value"** %68 to i64*
  %70 = load i64, i64* %69, align 8
  %71 = ptrtoint %"class.base::Value"* %67 to i64
  %72 = sub i64 %70, %71
  %73 = ashr exact i64 %72, 5
  %74 = getelementptr inbounds %"class.base::Value", %"class.base::Value"* %67, i64 %73
  br label %75

75:                                               ; preds = %58, %65
  %76 = phi %"class.base::Value"* [ %67, %65 ], [ null, %58 ]
  %77 = phi %"class.base::Value"* [ %74, %65 ], [ null, %58 ]
  %78 = phi i64 [ %73, %65 ], [ 0, %58 ]
  %79 = getelementptr inbounds %"class.base::Value", %"class.base::Value"* %76, i64 %78
  call void @_ZN4base25CheckedContiguousIteratorIKNS_5ValueEEC2EPS2_S4_S4_(%"class.base::CheckedContiguousIterator"* nonnull %5, %"class.base::Value"* %76, %"class.base::Value"* %77, %"class.base::Value"* %79) #16
  call void @_ZNK4base25CheckedContiguousIteratorIKNS_5ValueEE15CheckComparableERKS3_(%"class.base::CheckedContiguousIterator"* nonnull %4, %"class.base::CheckedContiguousIterator"* nonnull dereferenceable(24) %5) #16
  %80 = load %"class.base::Value"*, %"class.base::Value"** %46, align 8
  %81 = load %"class.base::Value"*, %"class.base::Value"** %63, align 8
  %82 = icmp eq %"class.base::Value"* %80, %81
  br i1 %82, label %151, label %83

83:                                               ; preds = %75
  %84 = bitcast %"class.std::__1::basic_string"* %6 to i8*
  %85 = getelementptr inbounds %"class.std::__1::basic_string", %"class.std::__1::basic_string"* %6, i64 0, i32 0, i32 0, i32 0, i32 0, i32 0, i32 0
  %86 = bitcast %"class.std::__1::basic_string"* %6 to %"struct.std::__1::basic_string<char, std::__1::char_traits<char>, std::__1::allocator<char> >::__short"*
  %87 = getelementptr inbounds %"struct.std::__1::basic_string<char, std::__1::char_traits<char>, std::__1::allocator<char> >::__short", %"struct.std::__1::basic_string<char, std::__1::char_traits<char>, std::__1::allocator<char> >::__short"* %86, i64 0, i32 1, i32 0
  %88 = getelementptr inbounds %"class.cloud_devices::ListCapability", %"class.cloud_devices::ListCapability"* %0, i64 0, i32 0, i32 0, i32 2, i32 0, i32 0
  %89 = getelementptr inbounds %"class.cloud_devices::ListCapability", %"class.cloud_devices::ListCapability"* %0, i64 0, i32 0
  %90 = bitcast %"class.std::__1::basic_string"** %9 to i64*
  br label %91

91:                                               ; preds = %83, %145
  %92 = call dereferenceable(32) %"class.base::Value"* @_ZNK4base25CheckedContiguousIteratorIKNS_5ValueEEdeEv(%"class.base::CheckedContiguousIterator"* nonnull %4)
  call void @llvm.lifetime.start.p0i8(i64 24, i8* nonnull %84) #16
  call void @llvm.memset.p0i8.i64(i8* nonnull align 8 %84, i8 0, i64 24, i1 false) #16
  %93 = getelementptr inbounds %"class.base::Value", %"class.base::Value"* %92, i64 0, i32 0, i32 0, i32 0, i32 0, i32 0, i32 0, i32 0, i32 1
  %94 = load i64, i64* %93, align 8
  %95 = trunc i64 %94 to i8
  %96 = icmp eq i8 %95, 6
  br i1 %96, label %97, label %137

97:                                               ; preds = %91
  %98 = call %"class.std::__1::basic_string"* @_ZNK4base5Value13FindStringKeyENS_16BasicStringPieceIcNSt3__111char_traitsIcEEEE(%"class.base::Value"* %92, i8* getelementptr inbounds ([13 x i8], [13 x i8]* @_ZN13cloud_devices7printer12_GLOBAL__N_115kKeyContentTypeE, i64 0, i64 0), i64 12) #16
  %99 = icmp eq %"class.std::__1::basic_string"* %98, null
  br i1 %99, label %137, label %100

100:                                              ; preds = %97
  %101 = icmp eq %"class.std::__1::basic_string"* %6, %98
  br i1 %101, label %128, label %102

102:                                              ; preds = %100
  %103 = load i8, i8* %87, align 1
  %104 = icmp slt i8 %103, 0
  %105 = bitcast %"class.std::__1::basic_string"* %98 to %"struct.std::__1::basic_string<char, std::__1::char_traits<char>, std::__1::allocator<char> >::__short"*
  %106 = getelementptr inbounds %"struct.std::__1::basic_string<char, std::__1::char_traits<char>, std::__1::allocator<char> >::__short", %"struct.std::__1::basic_string<char, std::__1::char_traits<char>, std::__1::allocator<char> >::__short"* %105, i64 0, i32 1, i32 0
  %107 = load i8, i8* %106, align 1
  %108 = icmp slt i8 %107, 0
  br i1 %104, label %118, label %109

109:                                              ; preds = %102
  br i1 %108, label %112, label %110

110:                                              ; preds = %109
  %111 = bitcast %"class.std::__1::basic_string"* %98 to i8*
  call void @llvm.memcpy.p0i8.p0i8.i64(i8* nonnull align 8 %84, i8* nonnull align 8 %111, i64 24, i1 false) #16
  br label %128

112:                                              ; preds = %109
  %113 = getelementptr inbounds %"class.std::__1::basic_string", %"class.std::__1::basic_string"* %98, i64 0, i32 0, i32 0, i32 0, i32 0, i32 0, i32 0
  %114 = load i8*, i8** %113, align 8
  %115 = getelementptr inbounds %"class.std::__1::basic_string", %"class.std::__1::basic_string"* %98, i64 0, i32 0, i32 0, i32 0, i32 0, i32 0, i32 1
  %116 = load i64, i64* %115, align 8
  %117 = call dereferenceable(24) %"class.std::__1::basic_string"* @_ZNSt3__112basic_stringIcNS_11char_traitsIcEENS_9allocatorIcEEE17__assign_no_aliasILb1EEERS5_PKcm(%"class.std::__1::basic_string"* nonnull %6, i8* %114, i64 %116) #16
  br label %128

118:                                              ; preds = %102
  %119 = getelementptr inbounds %"class.std::__1::basic_string", %"class.std::__1::basic_string"* %98, i64 0, i32 0, i32 0, i32 0, i32 0, i32 0, i32 0
  %120 = load i8*, i8** %119, align 8
  %121 = getelementptr inbounds %"class.std::__1::basic_string", %"class.std::__1::basic_string"* %98, i64 0, i32 0, i32 0, i32 0, i32 0, i32 0, i32 1
  %122 = load i64, i64* %121, align 8
  %123 = bitcast %"class.std::__1::basic_string"* %98 to i8*
  %124 = zext i8 %107 to i64
  %125 = select i1 %108, i8* %120, i8* %123
  %126 = select i1 %108, i64 %122, i64 %124
  %127 = call dereferenceable(24) %"class.std::__1::basic_string"* @_ZNSt3__112basic_stringIcNS_11char_traitsIcEENS_9allocatorIcEEE17__assign_no_aliasILb0EEERS5_PKcm(%"class.std::__1::basic_string"* nonnull %6, i8* %125, i64 %126) #16
  br label %128

128:                                              ; preds = %100, %110, %112, %118
  %129 = load %"class.std::__1::basic_string"*, %"class.std::__1::basic_string"** %9, align 8
  %130 = load %"class.std::__1::basic_string"*, %"class.std::__1::basic_string"** %88, align 8
  %131 = icmp ult %"class.std::__1::basic_string"* %129, %130
  br i1 %131, label %132, label %136

132:                                              ; preds = %128
  %133 = bitcast %"class.std::__1::basic_string"* %129 to i8*
  call void @llvm.memcpy.p0i8.p0i8.i64(i8* align 8 %133, i8* nonnull align 8 %84, i64 24, i1 false) #16
  call void @llvm.memset.p0i8.i64(i8* nonnull align 8 %84, i8 0, i64 24, i1 false) #16
  %134 = getelementptr inbounds %"class.std::__1::basic_string", %"class.std::__1::basic_string"* %129, i64 1
  %135 = ptrtoint %"class.std::__1::basic_string"* %134 to i64
  store i64 %135, i64* %90, align 8
  br label %137

136:                                              ; preds = %128
  call void @_ZNSt3__16vectorINS_12basic_stringIcNS_11char_traitsIcEENS_9allocatorIcEEEENS4_IS6_EEE24__emplace_back_slow_pathIJS6_EEEvDpOT_(%"class.std::__1::vector"* %89, %"class.std::__1::basic_string"* nonnull dereferenceable(24) %6) #16
  br label %137

137:                                              ; preds = %136, %132, %97, %91
  %138 = phi i32 [ 1, %91 ], [ 1, %97 ], [ 0, %132 ], [ 0, %136 ]
  %139 = load i8, i8* %87, align 1
  %140 = icmp slt i8 %139, 0
  br i1 %140, label %141, label %143

141:                                              ; preds = %137
  %142 = load i8*, i8** %85, align 8
  call void @_ZdlPv(i8* %142) #17
  br label %143

143:                                              ; preds = %137, %141
  call void @llvm.lifetime.end.p0i8(i64 24, i8* nonnull %84) #16
  %144 = icmp eq i32 %138, 0
  br i1 %144, label %145, label %150

145:                                              ; preds = %143
  %146 = call dereferenceable(24) %"class.base::CheckedContiguousIterator"* @_ZN4base25CheckedContiguousIteratorIKNS_5ValueEEppEv(%"class.base::CheckedContiguousIterator"* nonnull %4)
  call void @_ZNK4base25CheckedContiguousIteratorIKNS_5ValueEE15CheckComparableERKS3_(%"class.base::CheckedContiguousIterator"* nonnull %4, %"class.base::CheckedContiguousIterator"* nonnull dereferenceable(24) %5) #16
  %147 = load %"class.base::Value"*, %"class.base::Value"** %46, align 8
  %148 = load %"class.base::Value"*, %"class.base::Value"** %63, align 8
  %149 = icmp eq %"class.base::Value"* %147, %148
  br i1 %149, label %151, label %91

150:                                              ; preds = %143
  call void @llvm.lifetime.end.p0i8(i64 24, i8* nonnull %62) #16
  call void @llvm.lifetime.end.p0i8(i64 24, i8* nonnull %45) #16
  br label %155

151:                                              ; preds = %145, %75
  call void @llvm.lifetime.end.p0i8(i64 24, i8* nonnull %62) #16
  call void @llvm.lifetime.end.p0i8(i64 24, i8* nonnull %45) #16
  %152 = load %"class.std::__1::basic_string"*, %"class.std::__1::basic_string"** %7, align 8
  %153 = load %"class.std::__1::basic_string"*, %"class.std::__1::basic_string"** %9, align 8
  %154 = icmp ne %"class.std::__1::basic_string"* %152, %153
  br label %155

155:                                              ; preds = %150, %41, %151
  %156 = phi i1 [ %154, %151 ], [ false, %150 ], [ false, %41 ]
  ret i1 %156
}

; Function Attrs: argmemonly nounwind
declare void @llvm.lifetime.start.p0i8(i64 immarg, i8* nocapture) #1

declare %"class.base::Value"* @_ZNK13cloud_devices22CloudDeviceDescription7GetItemERKNSt3__16vectorIN4base16BasicStringPieceIcNS1_11char_traitsIcEEEENS1_9allocatorIS7_EEEENS3_5Value4TypeE(%"class.cloud_devices::CloudDeviceDescription"*, %"class.std::__1::vector.35"* dereferenceable(24), i8 zeroext) local_unnamed_addr #2

; Function Attrs: argmemonly nounwind
declare void @llvm.lifetime.end.p0i8(i64 immarg, i8* nocapture) #1

declare %"class.std::__1::vector.27"* @_ZNK4base5Value7GetListEv(%"class.base::Value"*) local_unnamed_addr #2

; Function Attrs: nounwind ssp uwtable
define linkonce_odr hidden dereferenceable(32) %"class.base::Value"* @_ZNK4base25CheckedContiguousIteratorIKNS_5ValueEEdeEv(%"class.base::CheckedContiguousIterator"*) local_unnamed_addr #0 comdat align 2 {
  %2 = alloca %"class.logging::CheckOpResult", align 8
  %3 = alloca %"class.logging::CheckOpResult", align 8
  %4 = alloca %"class.logging::CheckError", align 8
  %5 = bitcast %"class.logging::CheckOpResult"* %3 to i8*
  call void @llvm.lifetime.start.p0i8(i64 8, i8* nonnull %5) #16
  %6 = getelementptr inbounds %"class.logging::CheckOpResult", %"class.logging::CheckOpResult"* %3, i64 0, i32 0
  store i8* inttoptr (i64 -6148914691236517206 to i8*), i8** %6, align 8
  %7 = getelementptr inbounds %"class.base::CheckedContiguousIterator", %"class.base::CheckedContiguousIterator"* %0, i64 0, i32 1
  %8 = getelementptr inbounds %"class.base::CheckedContiguousIterator", %"class.base::CheckedContiguousIterator"* %0, i64 0, i32 2
  %9 = bitcast %"class.logging::CheckOpResult"* %2 to i8*
  call void @llvm.lifetime.start.p0i8(i64 8, i8* nonnull %9)
  %10 = load %"class.base::Value"*, %"class.base::Value"** %7, align 8
  %11 = load %"class.base::Value"*, %"class.base::Value"** %8, align 8
  %12 = icmp eq %"class.base::Value"* %10, %11
  br i1 %12, label %14, label %13

13:                                               ; preds = %1
  call void @llvm.lifetime.end.p0i8(i64 8, i8* nonnull %9)
  store i8* null, i8** %6, align 8
  br label %25

14:                                               ; preds = %1
  %15 = bitcast %"class.base::Value"** %7 to i8*
  %16 = tail call i8* @_ZN7logging14StreamValToStrEPKvPFvRNSt3__113basic_ostreamIcNS2_11char_traitsIcEEEES1_E(i8* %15, void (%"class.std::__1::basic_ostream"*, i8*)* nonnull @_ZZN7logging15CheckOpValueStrIPKN4base5ValueEEENSt3__19enable_ifIXaasr4base8internal23SupportsOstreamOperatorIRKT_EE5valuentsr3std11is_functionINS5_14remove_pointerIS7_E4typeEEE5valueEPcE4typeES9_ENUlRNS5_13basic_ostreamIcNS5_11char_traitsIcEEEEPKvE_8__invokeESK_SM_) #16
  %17 = bitcast %"class.base::Value"** %8 to i8*
  %18 = tail call i8* @_ZN7logging14StreamValToStrEPKvPFvRNSt3__113basic_ostreamIcNS2_11char_traitsIcEEEES1_E(i8* %17, void (%"class.std::__1::basic_ostream"*, i8*)* nonnull @_ZZN7logging15CheckOpValueStrIPKN4base5ValueEEENSt3__19enable_ifIXaasr4base8internal23SupportsOstreamOperatorIRKT_EE5valuentsr3std11is_functionINS5_14remove_pointerIS7_E4typeEEE5valueEPcE4typeES9_ENUlRNS5_13basic_ostreamIcNS5_11char_traitsIcEEEEPKvE_8__invokeESK_SM_) #16
  call void @_ZN7logging13CheckOpResultC1EPKcPcS3_(%"class.logging::CheckOpResult"* nonnull %2, i8* getelementptr inbounds ([17 x i8], [17 x i8]* @.str.10, i64 0, i64 0), i8* %16, i8* %18) #16
  %19 = getelementptr inbounds %"class.logging::CheckOpResult", %"class.logging::CheckOpResult"* %2, i64 0, i32 0
  %20 = load i8*, i8** %19, align 8
  call void @llvm.lifetime.end.p0i8(i64 8, i8* nonnull %9)
  store i8* %20, i8** %6, align 8
  %21 = icmp eq i8* %20, null
  br i1 %21, label %25, label %22

22:                                               ; preds = %14
  %23 = bitcast %"class.logging::CheckError"* %4 to i8*
  call void @llvm.lifetime.start.p0i8(i64 8, i8* nonnull %23) #16
  call void @_ZN7logging10CheckError7CheckOpEPKciPNS_13CheckOpResultE(%"class.logging::CheckError"* nonnull sret %4, i8* getelementptr inbounds ([42 x i8], [42 x i8]* @.str.6, i64 0, i64 0), i32 173, %"class.logging::CheckOpResult"* nonnull %3) #16
  %24 = call dereferenceable(160) %"class.std::__1::basic_ostream"* @_ZN7logging10CheckError6streamEv(%"class.logging::CheckError"* nonnull %4) #16
  call void @_ZN7logging10CheckErrorD1Ev(%"class.logging::CheckError"* nonnull %4) #16
  call void @llvm.lifetime.end.p0i8(i64 8, i8* nonnull %23) #16
  br label %25

25:                                               ; preds = %13, %14, %22
  call void @llvm.lifetime.end.p0i8(i64 8, i8* nonnull %5) #16
  %26 = load %"class.base::Value"*, %"class.base::Value"** %7, align 8
  ret %"class.base::Value"* %26
}

; Function Attrs: nounwind ssp uwtable
define weak_odr hidden void @_ZN13cloud_devices14ListCapabilityINSt3__112basic_stringIcNS1_11char_traitsIcEENS1_9allocatorIcEEEENS_7printer17ContentTypeTraitsEE9AddOptionEOS7_(%"class.cloud_devices::ListCapability"*, %"class.std::__1::basic_string"* dereferenceable(24)) local_unnamed_addr #0 comdat align 2 {
  %3 = getelementptr inbounds %"class.cloud_devices::ListCapability", %"class.cloud_devices::ListCapability"* %0, i64 0, i32 0, i32 0, i32 1
  %4 = load %"class.std::__1::basic_string"*, %"class.std::__1::basic_string"** %3, align 8
  %5 = getelementptr inbounds %"class.cloud_devices::ListCapability", %"class.cloud_devices::ListCapability"* %0, i64 0, i32 0, i32 0, i32 2, i32 0, i32 0
  %6 = load %"class.std::__1::basic_string"*, %"class.std::__1::basic_string"** %5, align 8
  %7 = icmp ult %"class.std::__1::basic_string"* %4, %6
  br i1 %7, label %8, label %14

8:                                                ; preds = %2
  %9 = bitcast %"class.std::__1::basic_string"* %4 to i8*
  %10 = bitcast %"class.std::__1::basic_string"* %1 to i8*
  tail call void @llvm.memcpy.p0i8.p0i8.i64(i8* align 8 %9, i8* align 8 %10, i64 24, i1 false) #16
  tail call void @llvm.memset.p0i8.i64(i8* align 8 %10, i8 0, i64 24, i1 false) #16
  %11 = getelementptr inbounds %"class.std::__1::basic_string", %"class.std::__1::basic_string"* %4, i64 1
  %12 = ptrtoint %"class.std::__1::basic_string"* %11 to i64
  %13 = bitcast %"class.std::__1::basic_string"** %3 to i64*
  store i64 %12, i64* %13, align 8
  br label %16

14:                                               ; preds = %2
  %15 = getelementptr inbounds %"class.cloud_devices::ListCapability", %"class.cloud_devices::ListCapability"* %0, i64 0, i32 0
  tail call void @_ZNSt3__16vectorINS_12basic_stringIcNS_11char_traitsIcEENS_9allocatorIcEEEENS4_IS6_EEE24__emplace_back_slow_pathIJS6_EEEvDpOT_(%"class.std::__1::vector"* %15, %"class.std::__1::basic_string"* dereferenceable(24) %1) #16
  br label %16

16:                                               ; preds = %8, %14
  ret void
}

; Function Attrs: nounwind ssp uwtable
define linkonce_odr hidden dereferenceable(24) %"class.base::CheckedContiguousIterator"* @_ZN4base25CheckedContiguousIteratorIKNS_5ValueEEppEv(%"class.base::CheckedContiguousIterator"*) local_unnamed_addr #0 comdat align 2 {
  %2 = alloca %"class.logging::CheckOpResult", align 8
  %3 = alloca %"class.logging::CheckOpResult", align 8
  %4 = alloca %"class.logging::CheckError", align 8
  %5 = bitcast %"class.logging::CheckOpResult"* %3 to i8*
  call void @llvm.lifetime.start.p0i8(i64 8, i8* nonnull %5) #16
  %6 = getelementptr inbounds %"class.logging::CheckOpResult", %"class.logging::CheckOpResult"* %3, i64 0, i32 0
  store i8* inttoptr (i64 -6148914691236517206 to i8*), i8** %6, align 8
  %7 = getelementptr inbounds %"class.base::CheckedContiguousIterator", %"class.base::CheckedContiguousIterator"* %0, i64 0, i32 1
  %8 = getelementptr inbounds %"class.base::CheckedContiguousIterator", %"class.base::CheckedContiguousIterator"* %0, i64 0, i32 2
  %9 = bitcast %"class.logging::CheckOpResult"* %2 to i8*
  call void @llvm.lifetime.start.p0i8(i64 8, i8* nonnull %9)
  %10 = load %"class.base::Value"*, %"class.base::Value"** %7, align 8
  %11 = load %"class.base::Value"*, %"class.base::Value"** %8, align 8
  %12 = icmp eq %"class.base::Value"* %10, %11
  br i1 %12, label %14, label %13

13:                                               ; preds = %1
  call void @llvm.lifetime.end.p0i8(i64 8, i8* nonnull %9)
  store i8* null, i8** %6, align 8
  br label %25

14:                                               ; preds = %1
  %15 = bitcast %"class.base::Value"** %7 to i8*
  %16 = tail call i8* @_ZN7logging14StreamValToStrEPKvPFvRNSt3__113basic_ostreamIcNS2_11char_traitsIcEEEES1_E(i8* %15, void (%"class.std::__1::basic_ostream"*, i8*)* nonnull @_ZZN7logging15CheckOpValueStrIPKN4base5ValueEEENSt3__19enable_ifIXaasr4base8internal23SupportsOstreamOperatorIRKT_EE5valuentsr3std11is_functionINS5_14remove_pointerIS7_E4typeEEE5valueEPcE4typeES9_ENUlRNS5_13basic_ostreamIcNS5_11char_traitsIcEEEEPKvE_8__invokeESK_SM_) #16
  %17 = bitcast %"class.base::Value"** %8 to i8*
  %18 = tail call i8* @_ZN7logging14StreamValToStrEPKvPFvRNSt3__113basic_ostreamIcNS2_11char_traitsIcEEEES1_E(i8* %17, void (%"class.std::__1::basic_ostream"*, i8*)* nonnull @_ZZN7logging15CheckOpValueStrIPKN4base5ValueEEENSt3__19enable_ifIXaasr4base8internal23SupportsOstreamOperatorIRKT_EE5valuentsr3std11is_functionINS5_14remove_pointerIS7_E4typeEEE5valueEPcE4typeES9_ENUlRNS5_13basic_ostreamIcNS5_11char_traitsIcEEEEPKvE_8__invokeESK_SM_) #16
  call void @_ZN7logging13CheckOpResultC1EPKcPcS3_(%"class.logging::CheckOpResult"* nonnull %2, i8* getelementptr inbounds ([17 x i8], [17 x i8]* @.str.10, i64 0, i64 0), i8* %16, i8* %18) #16
  %19 = getelementptr inbounds %"class.logging::CheckOpResult", %"class.logging::CheckOpResult"* %2, i64 0, i32 0
  %20 = load i8*, i8** %19, align 8
  call void @llvm.lifetime.end.p0i8(i64 8, i8* nonnull %9)
  store i8* %20, i8** %6, align 8
  %21 = icmp eq i8* %20, null
  br i1 %21, label %25, label %22

22:                                               ; preds = %14
  %23 = bitcast %"class.logging::CheckError"* %4 to i8*
  call void @llvm.lifetime.start.p0i8(i64 8, i8* nonnull %23) #16
  call void @_ZN7logging10CheckError7CheckOpEPKciPNS_13CheckOpResultE(%"class.logging::CheckError"* nonnull sret %4, i8* getelementptr inbounds ([42 x i8], [42 x i8]* @.str.6, i64 0, i64 0), i32 110, %"class.logging::CheckOpResult"* nonnull %3) #16
  %24 = call dereferenceable(160) %"class.std::__1::basic_ostream"* @_ZN7logging10CheckError6streamEv(%"class.logging::CheckError"* nonnull %4) #16
  call void @_ZN7logging10CheckErrorD1Ev(%"class.logging::CheckError"* nonnull %4) #16
  call void @llvm.lifetime.end.p0i8(i64 8, i8* nonnull %23) #16
  br label %25

25:                                               ; preds = %13, %14, %22
  call void @llvm.lifetime.end.p0i8(i64 8, i8* nonnull %5) #16
  %26 = load %"class.base::Value"*, %"class.base::Value"** %7, align 8
  %27 = getelementptr inbounds %"class.base::Value", %"class.base::Value"* %26, i64 1
  store %"class.base::Value"* %27, %"class.base::Value"** %7, align 8
  ret %"class.base::CheckedContiguousIterator"* %0
}

; Function Attrs: nounwind ssp uwtable
define weak_odr hidden zeroext i1 @_ZNK13cloud_devices14ListCapabilityINSt3__112basic_stringIcNS1_11char_traitsIcEENS1_9allocatorIcEEEENS_7printer17ContentTypeTraitsEE7IsValidEv(%"class.cloud_devices::ListCapability"*) local_unnamed_addr #0 comdat align 2 {
  %2 = getelementptr inbounds %"class.cloud_devices::ListCapability", %"class.cloud_devices::ListCapability"* %0, i64 0, i32 0, i32 0, i32 0
  %3 = load %"class.std::__1::basic_string"*, %"class.std::__1::basic_string"** %2, align 8
  %4 = getelementptr inbounds %"class.cloud_devices::ListCapability", %"class.cloud_devices::ListCapability"* %0, i64 0, i32 0, i32 0, i32 1
  %5 = load %"class.std::__1::basic_string"*, %"class.std::__1::basic_string"** %4, align 8
  %6 = icmp ne %"class.std::__1::basic_string"* %3, %5
  ret i1 %6
}

; Function Attrs: nounwind ssp uwtable
define weak_odr hidden void @_ZNK13cloud_devices14ListCapabilityINSt3__112basic_stringIcNS1_11char_traitsIcEENS1_9allocatorIcEEEENS_7printer17ContentTypeTraitsEE6SaveToEPNS_22CloudDeviceDescriptionE(%"class.cloud_devices::ListCapability"*, %"class.cloud_devices::CloudDeviceDescription"*) local_unnamed_addr #0 comdat align 2 {
  %3 = alloca %"class.base::Value", align 8
  %4 = alloca %"class.std::__1::vector.35", align 8
  %5 = alloca %"class.base::Value", align 8
  %6 = alloca %"class.std::__1::basic_string", align 8
  %7 = bitcast %"class.std::__1::vector.35"* %4 to i8*
  call void @llvm.lifetime.start.p0i8(i64 24, i8* nonnull %7) #16
  %8 = tail call i8* @_Znwm(i64 32) #17, !noalias !5
  %9 = getelementptr inbounds %"class.std::__1::vector.35", %"class.std::__1::vector.35"* %4, i64 0, i32 0, i32 1
  %10 = bitcast %"class.std::__1::vector.35"* %4 to i8**
  store i8* %8, i8** %10, align 8, !alias.scope !5
  %11 = getelementptr inbounds i8, i8* %8, i64 32
  %12 = getelementptr inbounds %"class.std::__1::vector.35", %"class.std::__1::vector.35"* %4, i64 0, i32 0, i32 2, i32 0, i32 0
  %13 = bitcast %"class.base::BasicStringPiece"** %12 to i8**
  store i8* %11, i8** %13, align 8, !alias.scope !5
  %14 = bitcast %"class.base::BasicStringPiece"** %9 to i64*
  tail call void @llvm.memcpy.p0i8.p0i8.i64(i8* nonnull align 8 %8, i8* align 8 bitcast ([2 x %"class.base::BasicStringPiece"]* @.ref.tmp to i8*), i64 32, i1 false) #16, !noalias !5
  %15 = ptrtoint i8* %11 to i64
  store i64 %15, i64* %14, align 8, !alias.scope !5
  %16 = call %"class.base::Value"* @_ZN13cloud_devices22CloudDeviceDescription10CreateItemERKNSt3__16vectorIN4base16BasicStringPieceIcNS1_11char_traitsIcEEEENS1_9allocatorIS7_EEEENS3_5Value4TypeE(%"class.cloud_devices::CloudDeviceDescription"* %1, %"class.std::__1::vector.35"* nonnull dereferenceable(24) %4, i8 zeroext 7) #16
  %17 = getelementptr inbounds %"class.std::__1::vector.35", %"class.std::__1::vector.35"* %4, i64 0, i32 0, i32 0
  %18 = load %"class.base::BasicStringPiece"*, %"class.base::BasicStringPiece"** %17, align 8
  %19 = icmp eq %"class.base::BasicStringPiece"* %18, null
  br i1 %19, label %23, label %20

20:                                               ; preds = %2
  %21 = ptrtoint %"class.base::BasicStringPiece"* %18 to i64
  store i64 %21, i64* %14, align 8
  %22 = bitcast %"class.base::BasicStringPiece"* %18 to i8*
  call void @_ZdlPv(i8* %22) #17
  br label %23

23:                                               ; preds = %2, %20
  call void @llvm.lifetime.end.p0i8(i64 24, i8* nonnull %7) #16
  %24 = getelementptr inbounds %"class.cloud_devices::ListCapability", %"class.cloud_devices::ListCapability"* %0, i64 0, i32 0, i32 0, i32 0
  %25 = load %"class.std::__1::basic_string"*, %"class.std::__1::basic_string"** %24, align 8
  %26 = getelementptr inbounds %"class.cloud_devices::ListCapability", %"class.cloud_devices::ListCapability"* %0, i64 0, i32 0, i32 0, i32 1
  %27 = load %"class.std::__1::basic_string"*, %"class.std::__1::basic_string"** %26, align 8
  %28 = icmp eq %"class.std::__1::basic_string"* %25, %27
  br i1 %28, label %38, label %29

29:                                               ; preds = %23
  %30 = bitcast %"class.base::Value"* %5 to i8*
  %31 = bitcast %"class.std::__1::basic_string"* %6 to i8*
  %32 = bitcast %"class.base::Value"* %3 to i8*
  %33 = bitcast %"class.std::__1::basic_string"* %6 to %"struct.std::__1::basic_string<char, std::__1::char_traits<char>, std::__1::allocator<char> >::__short"*
  %34 = getelementptr inbounds %"struct.std::__1::basic_string<char, std::__1::char_traits<char>, std::__1::allocator<char> >::__short", %"struct.std::__1::basic_string<char, std::__1::char_traits<char>, std::__1::allocator<char> >::__short"* %33, i64 0, i32 1, i32 0
  %35 = getelementptr inbounds %"class.std::__1::basic_string", %"class.std::__1::basic_string"* %6, i64 0, i32 0, i32 0, i32 0, i32 0, i32 0, i32 0
  %36 = getelementptr inbounds %"class.std::__1::basic_string", %"class.std::__1::basic_string"* %6, i64 0, i32 0, i32 0, i32 0, i32 0, i32 0, i32 1
  %37 = bitcast %"class.base::Value"* %5 to i8*
  br label %39

38:                                               ; preds = %65, %23
  ret void

39:                                               ; preds = %29, %65
  %40 = phi %"class.std::__1::basic_string"* [ %25, %29 ], [ %66, %65 ]
  call void @llvm.lifetime.start.p0i8(i64 32, i8* nonnull %30) #16
  call void @llvm.memset.p0i8.i64(i8* nonnull align 8 %37, i8 -86, i64 32, i1 false)
  call void @_ZN4base5ValueC1ENS0_4TypeE(%"class.base::Value"* nonnull %5, i8 zeroext 6) #16
  %41 = bitcast %"class.std::__1::basic_string"* %40 to %"struct.std::__1::basic_string<char, std::__1::char_traits<char>, std::__1::allocator<char> >::__short"*
  %42 = getelementptr inbounds %"struct.std::__1::basic_string<char, std::__1::char_traits<char>, std::__1::allocator<char> >::__short", %"struct.std::__1::basic_string<char, std::__1::char_traits<char>, std::__1::allocator<char> >::__short"* %41, i64 0, i32 1, i32 0
  %43 = load i8, i8* %42, align 1
  %44 = icmp slt i8 %43, 0
  br i1 %44, label %47, label %45

45:                                               ; preds = %39
  %46 = bitcast %"class.std::__1::basic_string"* %40 to i8*
  call void @llvm.memcpy.p0i8.p0i8.i64(i8* nonnull align 8 %31, i8* align 8 %46, i64 24, i1 false) #16
  br label %52

47:                                               ; preds = %39
  %48 = getelementptr inbounds %"class.std::__1::basic_string", %"class.std::__1::basic_string"* %40, i64 0, i32 0, i32 0, i32 0, i32 0, i32 0, i32 0
  %49 = load i8*, i8** %48, align 8
  %50 = getelementptr inbounds %"class.std::__1::basic_string", %"class.std::__1::basic_string"* %40, i64 0, i32 0, i32 0, i32 0, i32 0, i32 0, i32 1
  %51 = load i64, i64* %50, align 8
  call void @_ZNSt3__112basic_stringIcNS_11char_traitsIcEENS_9allocatorIcEEE25__init_copy_ctor_externalEPKcm(%"class.std::__1::basic_string"* nonnull %6, i8* %49, i64 %51) #16
  br label %52

52:                                               ; preds = %45, %47
  call void @llvm.lifetime.start.p0i8(i64 32, i8* nonnull %32) #16
  %53 = load i8, i8* %34, align 1
  %54 = icmp slt i8 %53, 0
  %55 = load i8*, i8** %35, align 8
  %56 = select i1 %54, i8* %55, i8* %31
  %57 = load i64, i64* %36, align 8
  %58 = zext i8 %53 to i64
  %59 = select i1 %54, i64 %57, i64 %58
  call void @_ZN4base5ValueC1ENS_16BasicStringPieceIcNSt3__111char_traitsIcEEEE(%"class.base::Value"* nonnull %3, i8* %56, i64 %59) #16
  %60 = call %"class.base::Value"* @_ZN4base5Value6SetKeyEPKcOS0_(%"class.base::Value"* nonnull %5, i8* getelementptr inbounds ([13 x i8], [13 x i8]* @_ZN13cloud_devices7printer12_GLOBAL__N_115kKeyContentTypeE, i64 0, i64 0), %"class.base::Value"* nonnull dereferenceable(32) %3) #16
  call void @_ZN4base5ValueD1Ev(%"class.base::Value"* nonnull %3) #16
  call void @llvm.lifetime.end.p0i8(i64 32, i8* nonnull %32) #16
  %61 = load i8, i8* %34, align 1
  %62 = icmp slt i8 %61, 0
  br i1 %62, label %63, label %65

63:                                               ; preds = %52
  %64 = load i8*, i8** %35, align 8
  call void @_ZdlPv(i8* %64) #17
  br label %65

65:                                               ; preds = %52, %63
  call void @_ZN4base5Value6AppendEOS0_(%"class.base::Value"* %16, %"class.base::Value"* nonnull dereferenceable(32) %5) #16
  call void @_ZN4base5ValueD1Ev(%"class.base::Value"* nonnull %5) #16
  call void @llvm.lifetime.end.p0i8(i64 32, i8* nonnull %30) #16
  %66 = getelementptr inbounds %"class.std::__1::basic_string", %"class.std::__1::basic_string"* %40, i64 1
  %67 = icmp eq %"class.std::__1::basic_string"* %66, %27
  br i1 %67, label %38, label %39
}

declare %"class.base::Value"* @_ZN13cloud_devices22CloudDeviceDescription10CreateItemERKNSt3__16vectorIN4base16BasicStringPieceIcNS1_11char_traitsIcEEEENS1_9allocatorIS7_EEEENS3_5Value4TypeE(%"class.cloud_devices::CloudDeviceDescription"*, %"class.std::__1::vector.35"* dereferenceable(24), i8 zeroext) local_unnamed_addr #2

declare void @_ZN4base5ValueC1ENS0_4TypeE(%"class.base::Value"*, i8 zeroext) unnamed_addr #2

declare void @_ZN4base5Value6AppendEOS0_(%"class.base::Value"*, %"class.base::Value"* dereferenceable(32)) local_unnamed_addr #2

; Function Attrs: nounwind
declare void @_ZN4base5ValueD1Ev(%"class.base::Value"*) unnamed_addr #3

; Function Attrs: nounwind ssp uwtable
define weak_odr hidden zeroext i1 @_ZNK13cloud_devices14ListCapabilityINSt3__112basic_stringIcNS1_11char_traitsIcEENS1_9allocatorIcEEEENS_7printer17ContentTypeTraitsEE5emptyEv(%"class.cloud_devices::ListCapability"*) local_unnamed_addr #0 comdat align 2 {
  %2 = getelementptr inbounds %"class.cloud_devices::ListCapability", %"class.cloud_devices::ListCapability"* %0, i64 0, i32 0, i32 0, i32 0
  %3 = load %"class.std::__1::basic_string"*, %"class.std::__1::basic_string"** %2, align 8
  %4 = getelementptr inbounds %"class.cloud_devices::ListCapability", %"class.cloud_devices::ListCapability"* %0, i64 0, i32 0, i32 0, i32 1
  %5 = load %"class.std::__1::basic_string"*, %"class.std::__1::basic_string"** %4, align 8
  %6 = icmp eq %"class.std::__1::basic_string"* %3, %5
  ret i1 %6
}

; Function Attrs: nounwind ssp uwtable
define weak_odr hidden i64 @_ZNK13cloud_devices14ListCapabilityINSt3__112basic_stringIcNS1_11char_traitsIcEENS1_9allocatorIcEEEENS_7printer17ContentTypeTraitsEE4sizeEv(%"class.cloud_devices::ListCapability"*) local_unnamed_addr #0 comdat align 2 {
  %2 = getelementptr inbounds %"class.cloud_devices::ListCapability", %"class.cloud_devices::ListCapability"* %0, i64 0, i32 0, i32 0, i32 1
  %3 = bitcast %"class.std::__1::basic_string"** %2 to i64*
  %4 = load i64, i64* %3, align 8
  %5 = bitcast %"class.cloud_devices::ListCapability"* %0 to i64*
  %6 = load i64, i64* %5, align 8
  %7 = sub i64 %4, %6
  %8 = sdiv exact i64 %7, 24
  ret i64 %8
}

; Function Attrs: nounwind ssp uwtable
define weak_odr hidden dereferenceable(24) %"class.std::__1::basic_string"* @_ZNK13cloud_devices14ListCapabilityINSt3__112basic_stringIcNS1_11char_traitsIcEENS1_9allocatorIcEEEENS_7printer17ContentTypeTraitsEEixEm(%"class.cloud_devices::ListCapability"*, i64) local_unnamed_addr #0 comdat align 2 {
  %3 = getelementptr inbounds %"class.cloud_devices::ListCapability", %"class.cloud_devices::ListCapability"* %0, i64 0, i32 0, i32 0, i32 0
  %4 = load %"class.std::__1::basic_string"*, %"class.std::__1::basic_string"** %3, align 8
  %5 = getelementptr inbounds %"class.std::__1::basic_string", %"class.std::__1::basic_string"* %4, i64 %1
  ret %"class.std::__1::basic_string"* %5
}

; Function Attrs: nounwind ssp uwtable
define weak_odr hidden zeroext i1 @_ZNK13cloud_devices14ListCapabilityINSt3__112basic_stringIcNS1_11char_traitsIcEENS1_9allocatorIcEEEENS_7printer17ContentTypeTraitsEE8ContainsERKS7_(%"class.cloud_devices::ListCapability"*, %"class.std::__1::basic_string"* dereferenceable(24)) local_unnamed_addr #0 comdat align 2 {
  %3 = getelementptr inbounds %"class.cloud_devices::ListCapability", %"class.cloud_devices::ListCapability"* %0, i64 0, i32 0, i32 0, i32 0
  %4 = load %"class.std::__1::basic_string"*, %"class.std::__1::basic_string"** %3, align 8
  %5 = getelementptr inbounds %"class.cloud_devices::ListCapability", %"class.cloud_devices::ListCapability"* %0, i64 0, i32 0, i32 0, i32 1
  %6 = load %"class.std::__1::basic_string"*, %"class.std::__1::basic_string"** %5, align 8
  %7 = icmp eq %"class.std::__1::basic_string"* %4, %6
  br i1 %7, label %63, label %8

8:                                                ; preds = %2
  %9 = bitcast %"class.std::__1::basic_string"* %1 to %"struct.std::__1::basic_string<char, std::__1::char_traits<char>, std::__1::allocator<char> >::__short"*
  %10 = getelementptr inbounds %"struct.std::__1::basic_string<char, std::__1::char_traits<char>, std::__1::allocator<char> >::__short", %"struct.std::__1::basic_string<char, std::__1::char_traits<char>, std::__1::allocator<char> >::__short"* %9, i64 0, i32 1, i32 0
  %11 = load i8, i8* %10, align 1
  %12 = icmp slt i8 %11, 0
  %13 = getelementptr inbounds %"class.std::__1::basic_string", %"class.std::__1::basic_string"* %1, i64 0, i32 0, i32 0, i32 0, i32 0, i32 0, i32 1
  %14 = load i64, i64* %13, align 8
  %15 = zext i8 %11 to i64
  %16 = select i1 %12, i64 %14, i64 %15
  %17 = getelementptr inbounds %"class.std::__1::basic_string", %"class.std::__1::basic_string"* %1, i64 0, i32 0, i32 0, i32 0, i32 0, i32 0, i32 0
  %18 = load i8*, i8** %17, align 8
  %19 = bitcast %"class.std::__1::basic_string"* %1 to i8*
  %20 = select i1 %12, i8* %18, i8* %19
  %21 = icmp eq i64 %16, 0
  br label %22

22:                                               ; preds = %60, %8
  %23 = phi %"class.std::__1::basic_string"* [ %4, %8 ], [ %61, %60 ]
  %24 = bitcast %"class.std::__1::basic_string"* %23 to %"struct.std::__1::basic_string<char, std::__1::char_traits<char>, std::__1::allocator<char> >::__short"*
  %25 = getelementptr inbounds %"struct.std::__1::basic_string<char, std::__1::char_traits<char>, std::__1::allocator<char> >::__short", %"struct.std::__1::basic_string<char, std::__1::char_traits<char>, std::__1::allocator<char> >::__short"* %24, i64 0, i32 1, i32 0
  %26 = load i8, i8* %25, align 1
  %27 = icmp slt i8 %26, 0
  %28 = getelementptr inbounds %"class.std::__1::basic_string", %"class.std::__1::basic_string"* %23, i64 0, i32 0, i32 0, i32 0, i32 0, i32 0, i32 1
  %29 = load i64, i64* %28, align 8
  %30 = zext i8 %26 to i64
  %31 = select i1 %27, i64 %29, i64 %30
  %32 = icmp eq i64 %31, %16
  br i1 %32, label %33, label %60

33:                                               ; preds = %22
  %34 = getelementptr inbounds %"class.std::__1::basic_string", %"class.std::__1::basic_string"* %23, i64 0, i32 0, i32 0, i32 0, i32 0, i32 0, i32 0
  %35 = load i8*, i8** %34, align 8
  %36 = bitcast %"class.std::__1::basic_string"* %23 to i8*
  %37 = select i1 %27, i8* %35, i8* %36
  br i1 %27, label %44, label %38

38:                                               ; preds = %33
  br i1 %21, label %63, label %39

39:                                               ; preds = %38
  %40 = ptrtoint i8* %35 to i64
  %41 = trunc i64 %40 to i8
  %42 = load i8, i8* %20, align 1
  %43 = icmp eq i8 %42, %41
  br i1 %43, label %45, label %60

44:                                               ; preds = %33
  br i1 %21, label %63, label %57

45:                                               ; preds = %39, %52
  %46 = phi i64 [ %49, %52 ], [ %30, %39 ]
  %47 = phi i8* [ %50, %52 ], [ %36, %39 ]
  %48 = phi i8* [ %53, %52 ], [ %20, %39 ]
  %49 = add i64 %46, -1
  %50 = getelementptr inbounds i8, i8* %47, i64 1
  %51 = icmp eq i64 %49, 0
  br i1 %51, label %63, label %52

52:                                               ; preds = %45
  %53 = getelementptr inbounds i8, i8* %48, i64 1
  %54 = load i8, i8* %50, align 1
  %55 = load i8, i8* %53, align 1
  %56 = icmp eq i8 %54, %55
  br i1 %56, label %45, label %60

57:                                               ; preds = %44
  %58 = tail call i32 @bcmp(i8* %37, i8* %20, i64 %16) #16
  %59 = icmp eq i32 %58, 0
  br i1 %59, label %63, label %60

60:                                               ; preds = %52, %57, %39, %22
  %61 = getelementptr inbounds %"class.std::__1::basic_string", %"class.std::__1::basic_string"* %23, i64 1
  %62 = icmp eq %"class.std::__1::basic_string"* %61, %6
  br i1 %62, label %63, label %22

63:                                               ; preds = %38, %44, %57, %60, %45, %2
  %64 = phi %"class.std::__1::basic_string"* [ %4, %2 ], [ %23, %45 ], [ %23, %57 ], [ %23, %44 ], [ %23, %38 ], [ %6, %60 ]
  %65 = icmp ne %"class.std::__1::basic_string"* %64, %6
  ret i1 %65
}

; Function Attrs: nounwind ssp uwtable
define weak_odr hidden void @_ZN13cloud_devices15ValueCapabilityINS_7printer15PwgRasterConfigENS1_21PwgRasterConfigTraitsEEC2Ev(%"class.cloud_devices::ValueCapability"*) unnamed_addr #0 comdat($_ZN13cloud_devices15ValueCapabilityINS_7printer15PwgRasterConfigENS1_21PwgRasterConfigTraitsEEC5Ev) align 2 {
  %2 = bitcast %"class.cloud_devices::ValueCapability"* %0 to i8*
  tail call void @llvm.memset.p0i8.i64(i8* align 8 %2, i8 0, i64 24, i1 false) #16
  %3 = getelementptr inbounds %"class.cloud_devices::ValueCapability", %"class.cloud_devices::ValueCapability"* %0, i64 0, i32 0, i32 1
  store i32 1, i32* %3, align 8
  %4 = getelementptr inbounds %"class.cloud_devices::ValueCapability", %"class.cloud_devices::ValueCapability"* %0, i64 0, i32 0, i32 2
  store i8 0, i8* %4, align 4
  %5 = getelementptr inbounds %"class.cloud_devices::ValueCapability", %"class.cloud_devices::ValueCapability"* %0, i64 0, i32 0, i32 3
  store i8 0, i8* %5, align 1
  %6 = getelementptr inbounds %"class.cloud_devices::ValueCapability", %"class.cloud_devices::ValueCapability"* %0, i64 0, i32 0, i32 0
  tail call void @_ZNSt3__16vectorIN13cloud_devices7printer24PwgDocumentTypeSupportedENS_9allocatorIS3_EEE6assignIPS3_EENS_9enable_ifIXaasr27__is_cpp17_forward_iteratorIT_EE5valuesr16is_constructibleIS3_NS_15iterator_traitsISA_E9referenceEEE5valueEvE4typeESA_SA_(%"class.std::__1::vector.42"* %6, i32* null, i32* null) #16
  store i32 1, i32* %3, align 8
  store i8 0, i8* %4, align 4
  store i8 0, i8* %5, align 1
  ret void
}

; Function Attrs: nounwind ssp uwtable
define weak_odr hidden void @_ZN13cloud_devices15ValueCapabilityINS_7printer15PwgRasterConfigENS1_21PwgRasterConfigTraitsEE5ResetEv(%"class.cloud_devices::ValueCapability"*) local_unnamed_addr #0 comdat align 2 {
  %2 = alloca %"struct.cloud_devices::printer::PwgRasterConfig", align 8
  %3 = bitcast %"struct.cloud_devices::printer::PwgRasterConfig"* %2 to i8*
  call void @llvm.lifetime.start.p0i8(i64 32, i8* nonnull %3) #16
  call void @llvm.memset.p0i8.i64(i8* nonnull align 8 %3, i8 0, i64 24, i1 false) #16
  %4 = getelementptr inbounds %"struct.cloud_devices::printer::PwgRasterConfig", %"struct.cloud_devices::printer::PwgRasterConfig"* %2, i64 0, i32 1
  store i32 1, i32* %4, align 8
  %5 = getelementptr inbounds %"struct.cloud_devices::printer::PwgRasterConfig", %"struct.cloud_devices::printer::PwgRasterConfig"* %2, i64 0, i32 2
  store i8 0, i8* %5, align 4
  %6 = getelementptr inbounds %"struct.cloud_devices::printer::PwgRasterConfig", %"struct.cloud_devices::printer::PwgRasterConfig"* %2, i64 0, i32 3
  store i8 0, i8* %6, align 1
  %7 = getelementptr inbounds %"class.cloud_devices::ValueCapability", %"class.cloud_devices::ValueCapability"* %0, i64 0, i32 0, i32 0
  tail call void @_ZNSt3__16vectorIN13cloud_devices7printer24PwgDocumentTypeSupportedENS_9allocatorIS3_EEE6assignIPS3_EENS_9enable_ifIXaasr27__is_cpp17_forward_iteratorIT_EE5valuesr16is_constructibleIS3_NS_15iterator_traitsISA_E9referenceEEE5valueEvE4typeESA_SA_(%"class.std::__1::vector.42"* %7, i32* null, i32* null) #16
  %8 = getelementptr inbounds %"class.cloud_devices::ValueCapability", %"class.cloud_devices::ValueCapability"* %0, i64 0, i32 0, i32 1
  %9 = bitcast i32* %8 to i8*
  %10 = bitcast i32* %4 to i8*
  call void @llvm.memcpy.p0i8.p0i8.i64(i8* align 8 %9, i8* align 8 %10, i64 6, i1 false) #16
  call void @llvm.lifetime.end.p0i8(i64 32, i8* nonnull %3) #16
  ret void
}

; Function Attrs: nounwind ssp uwtable
define weak_odr hidden void @_ZN13cloud_devices15ValueCapabilityINS_7printer15PwgRasterConfigENS1_21PwgRasterConfigTraitsEED2Ev(%"class.cloud_devices::ValueCapability"*) unnamed_addr #0 comdat($_ZN13cloud_devices15ValueCapabilityINS_7printer15PwgRasterConfigENS1_21PwgRasterConfigTraitsEED5Ev) align 2 {
  %2 = getelementptr inbounds %"class.cloud_devices::ValueCapability", %"class.cloud_devices::ValueCapability"* %0, i64 0, i32 0, i32 0, i32 0, i32 0
  %3 = load i32*, i32** %2, align 8
  %4 = icmp eq i32* %3, null
  br i1 %4, label %10, label %5

5:                                                ; preds = %1
  %6 = ptrtoint i32* %3 to i64
  %7 = getelementptr inbounds %"class.cloud_devices::ValueCapability", %"class.cloud_devices::ValueCapability"* %0, i64 0, i32 0, i32 0, i32 0, i32 1
  %8 = bitcast i32** %7 to i64*
  store i64 %6, i64* %8, align 8
  %9 = bitcast i32* %3 to i8*
  tail call void @_ZdlPv(i8* %9) #17
  br label %10

10:                                               ; preds = %1, %5
  ret void
}

; Function Attrs: nounwind ssp uwtable
define weak_odr hidden zeroext i1 @_ZN13cloud_devices15ValueCapabilityINS_7printer15PwgRasterConfigENS1_21PwgRasterConfigTraitsEE8LoadFromERKNS_22CloudDeviceDescriptionE(%"class.cloud_devices::ValueCapability"*, %"class.cloud_devices::CloudDeviceDescription"* dereferenceable(32)) local_unnamed_addr #0 comdat align 2 {
  %3 = alloca %"class.std::__1::vector.35", align 8
  %4 = alloca %"struct.cloud_devices::printer::PwgRasterConfig", align 8
  %5 = getelementptr inbounds %"class.cloud_devices::ValueCapability", %"class.cloud_devices::ValueCapability"* %0, i64 0, i32 0, i32 0
  tail call void @_ZNSt3__16vectorIN13cloud_devices7printer24PwgDocumentTypeSupportedENS_9allocatorIS3_EEE6assignIPS3_EENS_9enable_ifIXaasr27__is_cpp17_forward_iteratorIT_EE5valuesr16is_constructibleIS3_NS_15iterator_traitsISA_E9referenceEEE5valueEvE4typeESA_SA_(%"class.std::__1::vector.42"* %5, i32* null, i32* null) #16
  %6 = getelementptr inbounds %"class.cloud_devices::ValueCapability", %"class.cloud_devices::ValueCapability"* %0, i64 0, i32 0, i32 1
  store i32 1, i32* %6, align 8
  %7 = getelementptr inbounds %"class.cloud_devices::ValueCapability", %"class.cloud_devices::ValueCapability"* %0, i64 0, i32 0, i32 2
  store i8 0, i8* %7, align 4
  %8 = getelementptr inbounds %"class.cloud_devices::ValueCapability", %"class.cloud_devices::ValueCapability"* %0, i64 0, i32 0, i32 3
  store i8 0, i8* %8, align 1
  %9 = bitcast %"class.std::__1::vector.35"* %3 to i8*
  call void @llvm.lifetime.start.p0i8(i64 24, i8* nonnull %9) #16
  %10 = tail call i8* @_Znwm(i64 32) #17, !noalias !8
  %11 = getelementptr inbounds %"class.std::__1::vector.35", %"class.std::__1::vector.35"* %3, i64 0, i32 0, i32 1
  %12 = bitcast %"class.std::__1::vector.35"* %3 to i8**
  store i8* %10, i8** %12, align 8, !alias.scope !8
  %13 = getelementptr inbounds i8, i8* %10, i64 32
  %14 = getelementptr inbounds %"class.std::__1::vector.35", %"class.std::__1::vector.35"* %3, i64 0, i32 0, i32 2, i32 0, i32 0
  %15 = bitcast %"class.base::BasicStringPiece"** %14 to i8**
  store i8* %13, i8** %15, align 8, !alias.scope !8
  %16 = bitcast %"class.base::BasicStringPiece"** %11 to i64*
  tail call void @llvm.memcpy.p0i8.p0i8.i64(i8* nonnull align 8 %10, i8* align 8 bitcast ([2 x %"class.base::BasicStringPiece"]* @.ref.tmp.179 to i8*), i64 32, i1 false) #16, !noalias !8
  %17 = ptrtoint i8* %13 to i64
  store i64 %17, i64* %16, align 8, !alias.scope !8
  %18 = call %"class.base::Value"* @_ZNK13cloud_devices22CloudDeviceDescription7GetItemERKNSt3__16vectorIN4base16BasicStringPieceIcNS1_11char_traitsIcEEEENS1_9allocatorIS7_EEEENS3_5Value4TypeE(%"class.cloud_devices::CloudDeviceDescription"* %1, %"class.std::__1::vector.35"* nonnull dereferenceable(24) %3, i8 zeroext 6) #16
  %19 = getelementptr inbounds %"class.std::__1::vector.35", %"class.std::__1::vector.35"* %3, i64 0, i32 0, i32 0
  %20 = load %"class.base::BasicStringPiece"*, %"class.base::BasicStringPiece"** %19, align 8
  %21 = icmp eq %"class.base::BasicStringPiece"* %20, null
  br i1 %21, label %25, label %22

22:                                               ; preds = %2
  %23 = ptrtoint %"class.base::BasicStringPiece"* %20 to i64
  store i64 %23, i64* %16, align 8
  %24 = bitcast %"class.base::BasicStringPiece"* %20 to i8*
  call void @_ZdlPv(i8* %24) #17
  br label %25

25:                                               ; preds = %2, %22
  call void @llvm.lifetime.end.p0i8(i64 24, i8* nonnull %9) #16
  %26 = icmp eq %"class.base::Value"* %18, null
  br i1 %26, label %54, label %27

27:                                               ; preds = %25
  %28 = bitcast %"struct.cloud_devices::printer::PwgRasterConfig"* %4 to i8*
  call void @llvm.lifetime.start.p0i8(i64 32, i8* nonnull %28) #16
  %29 = getelementptr inbounds %"struct.cloud_devices::printer::PwgRasterConfig", %"struct.cloud_devices::printer::PwgRasterConfig"* %4, i64 0, i32 0, i32 0, i32 0
  %30 = getelementptr inbounds %"struct.cloud_devices::printer::PwgRasterConfig", %"struct.cloud_devices::printer::PwgRasterConfig"* %4, i64 0, i32 0, i32 0, i32 1
  %31 = getelementptr inbounds %"struct.cloud_devices::printer::PwgRasterConfig", %"struct.cloud_devices::printer::PwgRasterConfig"* %4, i64 0, i32 1
  %32 = getelementptr inbounds %"struct.cloud_devices::printer::PwgRasterConfig", %"struct.cloud_devices::printer::PwgRasterConfig"* %4, i64 0, i32 2
  %33 = getelementptr inbounds %"struct.cloud_devices::printer::PwgRasterConfig", %"struct.cloud_devices::printer::PwgRasterConfig"* %4, i64 0, i32 3
  %34 = bitcast %"struct.cloud_devices::printer::PwgRasterConfig"* %4 to i8*
  call void @llvm.memset.p0i8.i64(i8* nonnull align 8 %34, i8 -86, i64 32, i1 false)
  call void @llvm.memset.p0i8.i64(i8* nonnull align 8 %28, i8 0, i64 24, i1 false) #16
  store i32 1, i32* %31, align 8
  store i8 0, i8* %32, align 4
  store i8 0, i8* %33, align 1
  %35 = call zeroext i1 @_ZN13cloud_devices7printer21PwgRasterConfigTraits4LoadERKN4base5ValueEPNS0_15PwgRasterConfigE(%"class.base::Value"* nonnull dereferenceable(32) %18, %"struct.cloud_devices::printer::PwgRasterConfig"* nonnull %4)
  br i1 %35, label %36, label %45

36:                                               ; preds = %27
  %37 = getelementptr inbounds %"class.cloud_devices::ValueCapability", %"class.cloud_devices::ValueCapability"* %0, i64 0, i32 0
  %38 = icmp eq %"struct.cloud_devices::printer::PwgRasterConfig"* %37, %4
  br i1 %38, label %42, label %39

39:                                               ; preds = %36
  %40 = load i32*, i32** %29, align 8
  %41 = load i32*, i32** %30, align 8
  call void @_ZNSt3__16vectorIN13cloud_devices7printer24PwgDocumentTypeSupportedENS_9allocatorIS3_EEE6assignIPS3_EENS_9enable_ifIXaasr27__is_cpp17_forward_iteratorIT_EE5valuesr16is_constructibleIS3_NS_15iterator_traitsISA_E9referenceEEE5valueEvE4typeESA_SA_(%"class.std::__1::vector.42"* %5, i32* %40, i32* %41) #16
  br label %42

42:                                               ; preds = %36, %39
  %43 = bitcast i32* %6 to i8*
  %44 = bitcast i32* %31 to i8*
  call void @llvm.memcpy.p0i8.p0i8.i64(i8* align 8 %43, i8* align 8 %44, i64 6, i1 false) #16
  br label %45

45:                                               ; preds = %27, %42
  %46 = phi i1 [ true, %42 ], [ false, %27 ]
  %47 = load i32*, i32** %29, align 8
  %48 = icmp eq i32* %47, null
  br i1 %48, label %53, label %49

49:                                               ; preds = %45
  %50 = ptrtoint i32* %47 to i64
  %51 = bitcast i32** %30 to i64*
  store i64 %50, i64* %51, align 8
  %52 = bitcast i32* %47 to i8*
  call void @_ZdlPv(i8* %52) #17
  br label %53

53:                                               ; preds = %45, %49
  call void @llvm.lifetime.end.p0i8(i64 32, i8* nonnull %28) #16
  br label %54

54:                                               ; preds = %25, %53
  %55 = phi i1 [ %46, %53 ], [ false, %25 ]
  ret i1 %55
}

; Function Attrs: nounwind ssp uwtable
define linkonce_odr hidden zeroext i1 @_ZN13cloud_devices7printer21PwgRasterConfigTraits4LoadERKN4base5ValueEPNS0_15PwgRasterConfigE(%"class.base::Value"* dereferenceable(32), %"struct.cloud_devices::printer::PwgRasterConfig"*) local_unnamed_addr #0 comdat align 2 {
  %3 = alloca %"struct.cloud_devices::printer::PwgRasterConfig", align 8
  %4 = alloca %"class.base::CheckedContiguousIterator", align 8
  %5 = alloca %"class.base::CheckedContiguousIterator", align 8
  %6 = bitcast %"struct.cloud_devices::printer::PwgRasterConfig"* %3 to i8*
  call void @llvm.lifetime.start.p0i8(i64 32, i8* nonnull %6) #16
  %7 = getelementptr inbounds %"struct.cloud_devices::printer::PwgRasterConfig", %"struct.cloud_devices::printer::PwgRasterConfig"* %3, i64 0, i32 0, i32 0, i32 0
  %8 = getelementptr inbounds %"struct.cloud_devices::printer::PwgRasterConfig", %"struct.cloud_devices::printer::PwgRasterConfig"* %3, i64 0, i32 0, i32 0, i32 1
  %9 = getelementptr inbounds %"struct.cloud_devices::printer::PwgRasterConfig", %"struct.cloud_devices::printer::PwgRasterConfig"* %3, i64 0, i32 0, i32 0, i32 2, i32 0, i32 0
  %10 = getelementptr inbounds %"struct.cloud_devices::printer::PwgRasterConfig", %"struct.cloud_devices::printer::PwgRasterConfig"* %3, i64 0, i32 1
  %11 = getelementptr inbounds %"struct.cloud_devices::printer::PwgRasterConfig", %"struct.cloud_devices::printer::PwgRasterConfig"* %3, i64 0, i32 2
  %12 = getelementptr inbounds %"struct.cloud_devices::printer::PwgRasterConfig", %"struct.cloud_devices::printer::PwgRasterConfig"* %3, i64 0, i32 3
  %13 = bitcast %"struct.cloud_devices::printer::PwgRasterConfig"* %3 to i8*
  call void @llvm.memset.p0i8.i64(i8* nonnull align 8 %13, i8 -86, i64 32, i1 false)
  call void @llvm.memset.p0i8.i64(i8* nonnull align 8 %6, i8 0, i64 24, i1 false) #16
  store i32 1, i32* %10, align 8
  store i8 0, i8* %11, align 4
  store i8 0, i8* %12, align 1
  %14 = tail call %"class.base::Value"* @_ZNK4base5Value7FindKeyENS_16BasicStringPieceIcNSt3__111char_traitsIcEEEE(%"class.base::Value"* %0, i8* getelementptr inbounds ([20 x i8], [20 x i8]* @_ZN13cloud_devices7printer12_GLOBAL__N_127kPwgRasterDocumentSheetBackE, i64 0, i64 0), i64 19) #16
  %15 = icmp eq %"class.base::Value"* %14, null
  br i1 %15, label %81, label %16

16:                                               ; preds = %2
  %17 = getelementptr inbounds %"class.base::Value", %"class.base::Value"* %14, i64 0, i32 0, i32 0, i32 0, i32 0, i32 0, i32 0, i32 0, i32 1
  %18 = load i64, i64* %17, align 8
  %19 = trunc i64 %18 to i8
  %20 = icmp eq i8 %19, 4
  br i1 %20, label %21, label %298

21:                                               ; preds = %16
  %22 = tail call dereferenceable(24) %"class.std::__1::basic_string"* @_ZNK4base5Value9GetStringEv(%"class.base::Value"* nonnull %14) #16
  %23 = bitcast %"class.std::__1::basic_string"* %22 to %"struct.std::__1::basic_string<char, std::__1::char_traits<char>, std::__1::allocator<char> >::__short"*
  %24 = getelementptr inbounds %"struct.std::__1::basic_string<char, std::__1::char_traits<char>, std::__1::allocator<char> >::__short", %"struct.std::__1::basic_string<char, std::__1::char_traits<char>, std::__1::allocator<char> >::__short"* %23, i64 0, i32 1, i32 0
  %25 = getelementptr inbounds %"class.std::__1::basic_string", %"class.std::__1::basic_string"* %22, i64 0, i32 0, i32 0, i32 0, i32 0, i32 0, i32 1
  %26 = load i8, i8* %24, align 1
  %27 = icmp slt i8 %26, 0
  %28 = load i64, i64* %25, align 8
  %29 = zext i8 %26 to i64
  %30 = select i1 %27, i64 %28, i64 %29
  %31 = icmp eq i64 %30, 6
  br i1 %31, label %32, label %39

32:                                               ; preds = %21
  %33 = tail call i32 @_ZNKSt3__112basic_stringIcNS_11char_traitsIcEENS_9allocatorIcEEE7compareEmmPKcm(%"class.std::__1::basic_string"* %22, i64 0, i64 -1, i8* getelementptr inbounds ([7 x i8], [7 x i8]* @_ZN13cloud_devices7printer12_GLOBAL__N_128kTypeDocumentSheetBackNormalE, i64 0, i64 0), i64 6) #16
  %34 = icmp eq i32 %33, 0
  br i1 %34, label %77, label %35

35:                                               ; preds = %32
  %36 = load i8, i8* %24, align 1
  %37 = load i64, i64* %25, align 8
  %38 = zext i8 %36 to i64
  br label %39

39:                                               ; preds = %35, %21
  %40 = phi i64 [ %38, %35 ], [ %29, %21 ]
  %41 = phi i64 [ %37, %35 ], [ %28, %21 ]
  %42 = phi i8 [ %36, %35 ], [ %26, %21 ]
  %43 = icmp slt i8 %42, 0
  %44 = select i1 %43, i64 %41, i64 %40
  %45 = icmp eq i64 %44, 7
  br i1 %45, label %46, label %53

46:                                               ; preds = %39
  %47 = tail call i32 @_ZNKSt3__112basic_stringIcNS_11char_traitsIcEENS_9allocatorIcEEE7compareEmmPKcm(%"class.std::__1::basic_string"* %22, i64 0, i64 -1, i8* getelementptr inbounds ([8 x i8], [8 x i8]* @_ZN13cloud_devices7printer12_GLOBAL__N_129kTypeDocumentSheetBackRotatedE, i64 0, i64 0), i64 7) #16
  %48 = icmp eq i32 %47, 0
  br i1 %48, label %77, label %49

49:                                               ; preds = %46
  %50 = load i8, i8* %24, align 1
  %51 = load i64, i64* %25, align 8
  %52 = zext i8 %50 to i64
  br label %53

53:                                               ; preds = %49, %39
  %54 = phi i64 [ %52, %49 ], [ %40, %39 ]
  %55 = phi i64 [ %51, %49 ], [ %41, %39 ]
  %56 = phi i8 [ %50, %49 ], [ %42, %39 ]
  %57 = icmp slt i8 %56, 0
  %58 = select i1 %57, i64 %55, i64 %54
  %59 = icmp eq i64 %58, 13
  br i1 %59, label %60, label %67

60:                                               ; preds = %53
  %61 = tail call i32 @_ZNKSt3__112basic_stringIcNS_11char_traitsIcEENS_9allocatorIcEEE7compareEmmPKcm(%"class.std::__1::basic_string"* %22, i64 0, i64 -1, i8* getelementptr inbounds ([14 x i8], [14 x i8]* @_ZN13cloud_devices7printer12_GLOBAL__N_134kTypeDocumentSheetBackManualTumbleE, i64 0, i64 0), i64 13) #16
  %62 = icmp eq i32 %61, 0
  br i1 %62, label %77, label %63

63:                                               ; preds = %60
  %64 = load i8, i8* %24, align 1
  %65 = load i64, i64* %25, align 8
  %66 = zext i8 %64 to i64
  br label %67

67:                                               ; preds = %63, %53
  %68 = phi i64 [ %66, %63 ], [ %54, %53 ]
  %69 = phi i64 [ %65, %63 ], [ %55, %53 ]
  %70 = phi i8 [ %64, %63 ], [ %56, %53 ]
  %71 = icmp slt i8 %70, 0
  %72 = select i1 %71, i64 %69, i64 %68
  %73 = icmp eq i64 %72, 7
  br i1 %73, label %74, label %298

74:                                               ; preds = %67
  %75 = tail call i32 @_ZNKSt3__112basic_stringIcNS_11char_traitsIcEENS_9allocatorIcEEE7compareEmmPKcm(%"class.std::__1::basic_string"* %22, i64 0, i64 -1, i8* getelementptr inbounds ([8 x i8], [8 x i8]* @_ZN13cloud_devices7printer12_GLOBAL__N_129kTypeDocumentSheetBackFlippedE, i64 0, i64 0), i64 7) #16
  %76 = icmp eq i32 %75, 0
  br i1 %76, label %77, label %298

77:                                               ; preds = %32, %46, %60, %74
  %78 = phi i64 [ 0, %32 ], [ 1, %46 ], [ 2, %60 ], [ 3, %74 ]
  %79 = getelementptr inbounds [4 x %"struct.cloud_devices::printer::(anonymous namespace)::DocumentSheetBackNames"], [4 x %"struct.cloud_devices::printer::(anonymous namespace)::DocumentSheetBackNames"]* @_ZN13cloud_devices7printer12_GLOBAL__N_123kDocumentSheetBackNamesE, i64 0, i64 %78, i32 0
  %80 = load i32, i32* %79, align 16
  store i32 %80, i32* %10, align 8
  br label %81

81:                                               ; preds = %77, %2
  %82 = tail call %"class.base::Value"* @_ZNK4base5Value7FindKeyENS_16BasicStringPieceIcNSt3__111char_traitsIcEEEE(%"class.base::Value"* %0, i8* getelementptr inbounds ([24 x i8], [24 x i8]* @_ZN13cloud_devices7printer12_GLOBAL__N_131kPwgRasterDocumentTypeSupportedE, i64 0, i64 0), i64 23) #16
  %83 = icmp eq %"class.base::Value"* %82, null
  br i1 %83, label %276, label %84

84:                                               ; preds = %81
  %85 = getelementptr inbounds %"class.base::Value", %"class.base::Value"* %82, i64 0, i32 0, i32 0, i32 0, i32 0, i32 0, i32 0, i32 0, i32 1
  %86 = load i64, i64* %85, align 8
  %87 = trunc i64 %86 to i8
  %88 = icmp eq i8 %87, 7
  br i1 %88, label %89, label %298

89:                                               ; preds = %84
  %90 = tail call %"class.std::__1::vector.27"* @_ZNK4base5Value7GetListEv(%"class.base::Value"* nonnull %82) #16
  %91 = bitcast %"class.base::CheckedContiguousIterator"* %4 to i8*
  call void @llvm.lifetime.start.p0i8(i64 24, i8* nonnull %91) #16
  %92 = getelementptr inbounds %"class.base::CheckedContiguousIterator", %"class.base::CheckedContiguousIterator"* %4, i64 0, i32 1
  %93 = icmp eq %"class.std::__1::vector.27"* %90, null
  %94 = bitcast %"class.base::CheckedContiguousIterator"* %4 to i8*
  call void @llvm.memset.p0i8.i64(i8* nonnull align 8 %94, i8 -86, i64 24, i1 false)
  br i1 %93, label %104, label %95

95:                                               ; preds = %89
  %96 = getelementptr inbounds %"class.std::__1::vector.27", %"class.std::__1::vector.27"* %90, i64 0, i32 0, i32 0
  %97 = load %"class.base::Value"*, %"class.base::Value"** %96, align 8
  %98 = getelementptr inbounds %"class.std::__1::vector.27", %"class.std::__1::vector.27"* %90, i64 0, i32 0, i32 1
  %99 = bitcast %"class.base::Value"** %98 to i64*
  %100 = load i64, i64* %99, align 8
  %101 = ptrtoint %"class.base::Value"* %97 to i64
  %102 = sub i64 %100, %101
  %103 = ashr exact i64 %102, 5
  br label %104

104:                                              ; preds = %89, %95
  %105 = phi %"class.base::Value"* [ %97, %95 ], [ null, %89 ]
  %106 = phi i64 [ %103, %95 ], [ 0, %89 ]
  %107 = getelementptr inbounds %"class.base::Value", %"class.base::Value"* %105, i64 %106
  call void @_ZN4base25CheckedContiguousIteratorIKNS_5ValueEEC2EPS2_S4_S4_(%"class.base::CheckedContiguousIterator"* nonnull %4, %"class.base::Value"* %105, %"class.base::Value"* %105, %"class.base::Value"* %107) #16
  %108 = bitcast %"class.base::CheckedContiguousIterator"* %5 to i8*
  call void @llvm.lifetime.start.p0i8(i64 24, i8* nonnull %108) #16
  %109 = getelementptr inbounds %"class.base::CheckedContiguousIterator", %"class.base::CheckedContiguousIterator"* %5, i64 0, i32 1
  %110 = bitcast %"class.base::CheckedContiguousIterator"* %5 to i8*
  call void @llvm.memset.p0i8.i64(i8* nonnull align 8 %110, i8 -86, i64 24, i1 false)
  br i1 %93, label %121, label %111

111:                                              ; preds = %104
  %112 = getelementptr inbounds %"class.std::__1::vector.27", %"class.std::__1::vector.27"* %90, i64 0, i32 0, i32 0
  %113 = load %"class.base::Value"*, %"class.base::Value"** %112, align 8
  %114 = getelementptr inbounds %"class.std::__1::vector.27", %"class.std::__1::vector.27"* %90, i64 0, i32 0, i32 1
  %115 = bitcast %"class.base::Value"** %114 to i64*
  %116 = load i64, i64* %115, align 8
  %117 = ptrtoint %"class.base::Value"* %113 to i64
  %118 = sub i64 %116, %117
  %119 = ashr exact i64 %118, 5
  %120 = getelementptr inbounds %"class.base::Value", %"class.base::Value"* %113, i64 %119
  br label %121

121:                                              ; preds = %104, %111
  %122 = phi %"class.base::Value"* [ %113, %111 ], [ null, %104 ]
  %123 = phi %"class.base::Value"* [ %120, %111 ], [ null, %104 ]
  %124 = phi i64 [ %119, %111 ], [ 0, %104 ]
  %125 = getelementptr inbounds %"class.base::Value", %"class.base::Value"* %122, i64 %124
  call void @_ZN4base25CheckedContiguousIteratorIKNS_5ValueEEC2EPS2_S4_S4_(%"class.base::CheckedContiguousIterator"* nonnull %5, %"class.base::Value"* %122, %"class.base::Value"* %123, %"class.base::Value"* %125) #16
  call void @_ZNK4base25CheckedContiguousIteratorIKNS_5ValueEE15CheckComparableERKS3_(%"class.base::CheckedContiguousIterator"* nonnull %4, %"class.base::CheckedContiguousIterator"* nonnull dereferenceable(24) %5) #16
  %126 = load %"class.base::Value"*, %"class.base::Value"** %92, align 8
  %127 = load %"class.base::Value"*, %"class.base::Value"** %109, align 8
  %128 = icmp eq %"class.base::Value"* %126, %127
  br i1 %128, label %133, label %129

129:                                              ; preds = %121
  %130 = bitcast i32** %8 to i64*
  %131 = bitcast %"struct.cloud_devices::printer::PwgRasterConfig"* %3 to i64*
  %132 = bitcast i32** %9 to i64*
  br label %134

133:                                              ; preds = %270, %121
  call void @llvm.lifetime.end.p0i8(i64 24, i8* nonnull %108) #16
  call void @llvm.lifetime.end.p0i8(i64 24, i8* nonnull %91) #16
  br label %276

134:                                              ; preds = %129, %270
  %135 = call dereferenceable(32) %"class.base::Value"* @_ZNK4base25CheckedContiguousIteratorIKNS_5ValueEEdeEv(%"class.base::CheckedContiguousIterator"* nonnull %4)
  %136 = getelementptr inbounds %"class.base::Value", %"class.base::Value"* %135, i64 0, i32 0, i32 0, i32 0, i32 0, i32 0, i32 0, i32 0, i32 1
  %137 = load i64, i64* %136, align 8
  %138 = trunc i64 %137 to i8
  %139 = icmp eq i8 %138, 4
  br i1 %139, label %140, label %275

140:                                              ; preds = %134
  %141 = call dereferenceable(24) %"class.std::__1::basic_string"* @_ZNK4base5Value9GetStringEv(%"class.base::Value"* %135) #16
  %142 = bitcast %"class.std::__1::basic_string"* %141 to %"struct.std::__1::basic_string<char, std::__1::char_traits<char>, std::__1::allocator<char> >::__short"*
  %143 = getelementptr inbounds %"struct.std::__1::basic_string<char, std::__1::char_traits<char>, std::__1::allocator<char> >::__short", %"struct.std::__1::basic_string<char, std::__1::char_traits<char>, std::__1::allocator<char> >::__short"* %142, i64 0, i32 1, i32 0
  %144 = load i8, i8* %143, align 1
  %145 = icmp slt i8 %144, 0
  %146 = getelementptr inbounds %"class.std::__1::basic_string", %"class.std::__1::basic_string"* %141, i64 0, i32 0, i32 0, i32 0, i32 0, i32 0, i32 1
  %147 = load i64, i64* %146, align 8
  %148 = zext i8 %144 to i64
  %149 = select i1 %145, i64 %147, i64 %148
  %150 = icmp eq i64 %149, 6
  br i1 %150, label %151, label %209

151:                                              ; preds = %140
  %152 = call i32 @_ZNKSt3__112basic_stringIcNS_11char_traitsIcEENS_9allocatorIcEEE7compareEmmPKcm(%"class.std::__1::basic_string"* %141, i64 0, i64 -1, i8* getelementptr inbounds ([7 x i8], [7 x i8]* @_ZN13cloud_devices7printer12_GLOBAL__N_131kTypeDocumentSupportedTypeSRGB8E, i64 0, i64 0), i64 6) #16
  %153 = icmp eq i32 %152, 0
  br i1 %153, label %158, label %154

154:                                              ; preds = %151
  %155 = load i8, i8* %143, align 1
  %156 = load i64, i64* %146, align 8
  %157 = zext i8 %155 to i64
  br label %209

158:                                              ; preds = %151
  %159 = load i32*, i32** %8, align 8
  %160 = load i32*, i32** %9, align 8
  %161 = icmp ult i32* %159, %160
  %162 = ptrtoint i32* %160 to i64
  br i1 %161, label %163, label %166

163:                                              ; preds = %158
  store i32 23, i32* %159, align 4
  %164 = getelementptr inbounds i32, i32* %159, i64 1
  %165 = ptrtoint i32* %164 to i64
  store i64 %165, i64* %130, align 8
  br label %270

166:                                              ; preds = %158
  %167 = ptrtoint i32* %159 to i64
  %168 = load i64, i64* %131, align 8
  %169 = sub i64 %167, %168
  %170 = ashr exact i64 %169, 2
  %171 = add nsw i64 %170, 1
  %172 = icmp ugt i64 %171, 4611686018427387903
  br i1 %172, label %173, label %175

173:                                              ; preds = %166
  %174 = bitcast %"struct.cloud_devices::printer::PwgRasterConfig"* %3 to %"class.std::__1::__vector_base_common"*
  call void @_ZNKSt3__120__vector_base_commonILb1EE20__throw_length_errorEv(%"class.std::__1::__vector_base_common"* nonnull %174) #18
  unreachable

175:                                              ; preds = %166
  %176 = sub i64 %162, %168
  %177 = ashr exact i64 %176, 2
  %178 = icmp ult i64 %177, 2305843009213693951
  br i1 %178, label %179, label %187

179:                                              ; preds = %175
  %180 = ashr exact i64 %176, 1
  %181 = icmp ult i64 %180, %171
  %182 = select i1 %181, i64 %171, i64 %180
  %183 = icmp eq i64 %182, 0
  br i1 %183, label %192, label %184

184:                                              ; preds = %179
  %185 = icmp ugt i64 %182, 4611686018427387903
  br i1 %185, label %186, label %187

186:                                              ; preds = %184
  call void @abort() #18
  unreachable

187:                                              ; preds = %184, %175
  %188 = phi i64 [ %182, %184 ], [ 4611686018427387903, %175 ]
  %189 = shl i64 %188, 2
  %190 = call i8* @_Znwm(i64 %189) #17
  %191 = bitcast i8* %190 to i32*
  br label %192

192:                                              ; preds = %187, %179
  %193 = phi i64 [ %188, %187 ], [ 0, %179 ]
  %194 = phi i8* [ %190, %187 ], [ null, %179 ]
  %195 = phi i32* [ %191, %187 ], [ null, %179 ]
  %196 = getelementptr inbounds i32, i32* %195, i64 %170
  %197 = getelementptr inbounds i32, i32* %195, i64 %193
  %198 = ptrtoint i32* %197 to i64
  store i32 23, i32* %196, align 4
  %199 = getelementptr inbounds i32, i32* %196, i64 1
  %200 = ptrtoint i32* %199 to i64
  %201 = ptrtoint i32* %195 to i64
  %202 = icmp sgt i64 %169, 0
  br i1 %202, label %203, label %205

203:                                              ; preds = %192
  %204 = inttoptr i64 %168 to i8*
  call void @llvm.memcpy.p0i8.p0i8.i64(i8* align 4 %194, i8* align 4 %204, i64 %169, i1 false) #16
  br label %205

205:                                              ; preds = %203, %192
  store i64 %201, i64* %131, align 8
  store i64 %200, i64* %130, align 8
  store i64 %198, i64* %132, align 8
  %206 = icmp eq i64 %168, 0
  br i1 %206, label %270, label %207

207:                                              ; preds = %205
  %208 = inttoptr i64 %168 to i8*
  call void @_ZdlPv(i8* %208) #17
  br label %270

209:                                              ; preds = %154, %140
  %210 = phi i64 [ %157, %154 ], [ %148, %140 ]
  %211 = phi i64 [ %156, %154 ], [ %147, %140 ]
  %212 = phi i8 [ %155, %154 ], [ %144, %140 ]
  %213 = icmp slt i8 %212, 0
  %214 = select i1 %213, i64 %211, i64 %210
  %215 = icmp eq i64 %214, 7
  br i1 %215, label %216, label %270

216:                                              ; preds = %209
  %217 = call i32 @_ZNKSt3__112basic_stringIcNS_11char_traitsIcEENS_9allocatorIcEEE7compareEmmPKcm(%"class.std::__1::basic_string"* %141, i64 0, i64 -1, i8* getelementptr inbounds ([8 x i8], [8 x i8]* @_ZN13cloud_devices7printer12_GLOBAL__N_132kTypeDocumentSupportedTypeSGRAY8E, i64 0, i64 0), i64 7) #16
  %218 = icmp eq i32 %217, 0
  br i1 %218, label %219, label %270

219:                                              ; preds = %216
  %220 = load i32*, i32** %8, align 8
  %221 = load i32*, i32** %9, align 8
  %222 = icmp ult i32* %220, %221
  %223 = ptrtoint i32* %221 to i64
  br i1 %222, label %224, label %227

224:                                              ; preds = %219
  store i32 22, i32* %220, align 4
  %225 = getelementptr inbounds i32, i32* %220, i64 1
  %226 = ptrtoint i32* %225 to i64
  store i64 %226, i64* %130, align 8
  br label %270

227:                                              ; preds = %219
  %228 = ptrtoint i32* %220 to i64
  %229 = load i64, i64* %131, align 8
  %230 = sub i64 %228, %229
  %231 = ashr exact i64 %230, 2
  %232 = add nsw i64 %231, 1
  %233 = icmp ugt i64 %232, 4611686018427387903
  br i1 %233, label %234, label %236

234:                                              ; preds = %227
  %235 = bitcast %"struct.cloud_devices::printer::PwgRasterConfig"* %3 to %"class.std::__1::__vector_base_common"*
  call void @_ZNKSt3__120__vector_base_commonILb1EE20__throw_length_errorEv(%"class.std::__1::__vector_base_common"* nonnull %235) #18
  unreachable

236:                                              ; preds = %227
  %237 = sub i64 %223, %229
  %238 = ashr exact i64 %237, 2
  %239 = icmp ult i64 %238, 2305843009213693951
  br i1 %239, label %240, label %248

240:                                              ; preds = %236
  %241 = ashr exact i64 %237, 1
  %242 = icmp ult i64 %241, %232
  %243 = select i1 %242, i64 %232, i64 %241
  %244 = icmp eq i64 %243, 0
  br i1 %244, label %253, label %245

245:                                              ; preds = %240
  %246 = icmp ugt i64 %243, 4611686018427387903
  br i1 %246, label %247, label %248

247:                                              ; preds = %245
  call void @abort() #18
  unreachable

248:                                              ; preds = %245, %236
  %249 = phi i64 [ %243, %245 ], [ 4611686018427387903, %236 ]
  %250 = shl i64 %249, 2
  %251 = call i8* @_Znwm(i64 %250) #17
  %252 = bitcast i8* %251 to i32*
  br label %253

253:                                              ; preds = %248, %240
  %254 = phi i64 [ %249, %248 ], [ 0, %240 ]
  %255 = phi i8* [ %251, %248 ], [ null, %240 ]
  %256 = phi i32* [ %252, %248 ], [ null, %240 ]
  %257 = getelementptr inbounds i32, i32* %256, i64 %231
  %258 = getelementptr inbounds i32, i32* %256, i64 %254
  %259 = ptrtoint i32* %258 to i64
  store i32 22, i32* %257, align 4
  %260 = getelementptr inbounds i32, i32* %257, i64 1
  %261 = ptrtoint i32* %260 to i64
  %262 = ptrtoint i32* %256 to i64
  %263 = icmp sgt i64 %230, 0
  br i1 %263, label %264, label %266

264:                                              ; preds = %253
  %265 = inttoptr i64 %229 to i8*
  call void @llvm.memcpy.p0i8.p0i8.i64(i8* align 4 %255, i8* align 4 %265, i64 %230, i1 false) #16
  br label %266

266:                                              ; preds = %264, %253
  store i64 %262, i64* %131, align 8
  store i64 %261, i64* %130, align 8
  store i64 %259, i64* %132, align 8
  %267 = icmp eq i64 %229, 0
  br i1 %267, label %270, label %268

268:                                              ; preds = %266
  %269 = inttoptr i64 %229 to i8*
  call void @_ZdlPv(i8* %269) #17
  br label %270

270:                                              ; preds = %209, %216, %163, %205, %207, %224, %266, %268
  %271 = call dereferenceable(24) %"class.base::CheckedContiguousIterator"* @_ZN4base25CheckedContiguousIteratorIKNS_5ValueEEppEv(%"class.base::CheckedContiguousIterator"* nonnull %4)
  call void @_ZNK4base25CheckedContiguousIteratorIKNS_5ValueEE15CheckComparableERKS3_(%"class.base::CheckedContiguousIterator"* nonnull %4, %"class.base::CheckedContiguousIterator"* nonnull dereferenceable(24) %5) #16
  %272 = load %"class.base::Value"*, %"class.base::Value"** %92, align 8
  %273 = load %"class.base::Value"*, %"class.base::Value"** %109, align 8
  %274 = icmp eq %"class.base::Value"* %272, %273
  br i1 %274, label %133, label %134

275:                                              ; preds = %134
  call void @llvm.lifetime.end.p0i8(i64 24, i8* nonnull %108) #16
  call void @llvm.lifetime.end.p0i8(i64 24, i8* nonnull %91) #16
  br label %298

276:                                              ; preds = %133, %81
  %277 = call i16 @_ZNK4base5Value11FindBoolKeyENS_16BasicStringPieceIcNSt3__111char_traitsIcEEEE(%"class.base::Value"* %0, i8* getelementptr inbounds ([24 x i8], [24 x i8]* @_ZN13cloud_devices7printer12_GLOBAL__N_131kPwgRasterReverseOrderStreamingE, i64 0, i64 0), i64 23) #16
  %278 = trunc i16 %277 to i8
  %279 = icmp ne i8 %278, 0
  %280 = icmp ugt i16 %277, 255
  %281 = and i1 %280, %279
  %282 = zext i1 %281 to i8
  store i8 %282, i8* %11, align 4
  %283 = call i16 @_ZNK4base5Value11FindBoolKeyENS_16BasicStringPieceIcNSt3__111char_traitsIcEEEE(%"class.base::Value"* %0, i8* getelementptr inbounds ([17 x i8], [17 x i8]* @_ZN13cloud_devices7printer12_GLOBAL__N_124kPwgRasterRotateAllPagesE, i64 0, i64 0), i64 16) #16
  %284 = trunc i16 %283 to i8
  %285 = icmp ne i8 %284, 0
  %286 = icmp ugt i16 %283, 255
  %287 = and i1 %286, %285
  %288 = zext i1 %287 to i8
  store i8 %288, i8* %12, align 1
  %289 = icmp eq %"struct.cloud_devices::printer::PwgRasterConfig"* %3, %1
  br i1 %289, label %294, label %290

290:                                              ; preds = %276
  %291 = getelementptr inbounds %"struct.cloud_devices::printer::PwgRasterConfig", %"struct.cloud_devices::printer::PwgRasterConfig"* %1, i64 0, i32 0
  %292 = load i32*, i32** %7, align 8
  %293 = load i32*, i32** %8, align 8
  call void @_ZNSt3__16vectorIN13cloud_devices7printer24PwgDocumentTypeSupportedENS_9allocatorIS3_EEE6assignIPS3_EENS_9enable_ifIXaasr27__is_cpp17_forward_iteratorIT_EE5valuesr16is_constructibleIS3_NS_15iterator_traitsISA_E9referenceEEE5valueEvE4typeESA_SA_(%"class.std::__1::vector.42"* %291, i32* %292, i32* %293) #16
  br label %294

294:                                              ; preds = %276, %290
  %295 = getelementptr inbounds %"struct.cloud_devices::printer::PwgRasterConfig", %"struct.cloud_devices::printer::PwgRasterConfig"* %1, i64 0, i32 1
  %296 = bitcast i32* %295 to i8*
  %297 = bitcast i32* %10 to i8*
  call void @llvm.memcpy.p0i8.p0i8.i64(i8* align 8 %296, i8* align 8 %297, i64 6, i1 false) #16
  br label %298

298:                                              ; preds = %67, %74, %275, %294, %84, %16
  %299 = phi i1 [ false, %16 ], [ true, %294 ], [ false, %275 ], [ false, %84 ], [ false, %74 ], [ false, %67 ]
  %300 = load i32*, i32** %7, align 8
  %301 = icmp eq i32* %300, null
  br i1 %301, label %306, label %302

302:                                              ; preds = %298
  %303 = ptrtoint i32* %300 to i64
  %304 = bitcast i32** %8 to i64*
  store i64 %303, i64* %304, align 8
  %305 = bitcast i32* %300 to i8*
  call void @_ZdlPv(i8* %305) #17
  br label %306

306:                                              ; preds = %298, %302
  call void @llvm.lifetime.end.p0i8(i64 32, i8* nonnull %6) #16
  ret i1 %299
}

; Function Attrs: nounwind ssp uwtable
define weak_odr hidden void @_ZN13cloud_devices15ValueCapabilityINS_7printer15PwgRasterConfigENS1_21PwgRasterConfigTraitsEE9set_valueERKS2_(%"class.cloud_devices::ValueCapability"*, %"struct.cloud_devices::printer::PwgRasterConfig"* dereferenceable(32)) local_unnamed_addr #0 comdat align 2 {
  %3 = getelementptr inbounds %"class.cloud_devices::ValueCapability", %"class.cloud_devices::ValueCapability"* %0, i64 0, i32 0
  %4 = icmp eq %"struct.cloud_devices::printer::PwgRasterConfig"* %3, %1
  br i1 %4, label %11, label %5

5:                                                ; preds = %2
  %6 = getelementptr inbounds %"class.cloud_devices::ValueCapability", %"class.cloud_devices::ValueCapability"* %0, i64 0, i32 0, i32 0
  %7 = getelementptr inbounds %"struct.cloud_devices::printer::PwgRasterConfig", %"struct.cloud_devices::printer::PwgRasterConfig"* %1, i64 0, i32 0, i32 0, i32 0
  %8 = load i32*, i32** %7, align 8
  %9 = getelementptr inbounds %"struct.cloud_devices::printer::PwgRasterConfig", %"struct.cloud_devices::printer::PwgRasterConfig"* %1, i64 0, i32 0, i32 0, i32 1
  %10 = load i32*, i32** %9, align 8
  tail call void @_ZNSt3__16vectorIN13cloud_devices7printer24PwgDocumentTypeSupportedENS_9allocatorIS3_EEE6assignIPS3_EENS_9enable_ifIXaasr27__is_cpp17_forward_iteratorIT_EE5valuesr16is_constructibleIS3_NS_15iterator_traitsISA_E9referenceEEE5valueEvE4typeESA_SA_(%"class.std::__1::vector.42"* %6, i32* %8, i32* %10) #16
  br label %11

11:                                               ; preds = %2, %5
  %12 = getelementptr inbounds %"class.cloud_devices::ValueCapability", %"class.cloud_devices::ValueCapability"* %0, i64 0, i32 0, i32 1
  %13 = getelementptr inbounds %"struct.cloud_devices::printer::PwgRasterConfig", %"struct.cloud_devices::printer::PwgRasterConfig"* %1, i64 0, i32 1
  %14 = bitcast i32* %12 to i8*
  %15 = bitcast i32* %13 to i8*
  tail call void @llvm.memcpy.p0i8.p0i8.i64(i8* align 8 %14, i8* align 8 %15, i64 6, i1 false) #16
  ret void
}

; Function Attrs: nounwind ssp uwtable
define weak_odr hidden zeroext i1 @_ZNK13cloud_devices15ValueCapabilityINS_7printer15PwgRasterConfigENS1_21PwgRasterConfigTraitsEE7IsValidEv(%"class.cloud_devices::ValueCapability"*) local_unnamed_addr #0 comdat align 2 {
  ret i1 true
}

; Function Attrs: nounwind ssp uwtable
define weak_odr hidden void @_ZNK13cloud_devices15ValueCapabilityINS_7printer15PwgRasterConfigENS1_21PwgRasterConfigTraitsEE6SaveToEPNS_22CloudDeviceDescriptionE(%"class.cloud_devices::ValueCapability"*, %"class.cloud_devices::CloudDeviceDescription"*) local_unnamed_addr #0 comdat align 2 {
  %3 = alloca %"class.std::__1::vector.35", align 8
  %4 = getelementptr inbounds %"class.cloud_devices::ValueCapability", %"class.cloud_devices::ValueCapability"* %0, i64 0, i32 0
  %5 = bitcast %"class.std::__1::vector.35"* %3 to i8*
  call void @llvm.lifetime.start.p0i8(i64 24, i8* nonnull %5) #16
  %6 = tail call i8* @_Znwm(i64 32) #17, !noalias !11
  %7 = getelementptr inbounds %"class.std::__1::vector.35", %"class.std::__1::vector.35"* %3, i64 0, i32 0, i32 1
  %8 = bitcast %"class.std::__1::vector.35"* %3 to i8**
  store i8* %6, i8** %8, align 8, !alias.scope !11
  %9 = getelementptr inbounds i8, i8* %6, i64 32
  %10 = getelementptr inbounds %"class.std::__1::vector.35", %"class.std::__1::vector.35"* %3, i64 0, i32 0, i32 2, i32 0, i32 0
  %11 = bitcast %"class.base::BasicStringPiece"** %10 to i8**
  store i8* %9, i8** %11, align 8, !alias.scope !11
  %12 = bitcast %"class.base::BasicStringPiece"** %7 to i64*
  tail call void @llvm.memcpy.p0i8.p0i8.i64(i8* nonnull align 8 %6, i8* align 8 bitcast ([2 x %"class.base::BasicStringPiece"]* @.ref.tmp.179 to i8*), i64 32, i1 false) #16, !noalias !11
  %13 = ptrtoint i8* %9 to i64
  store i64 %13, i64* %12, align 8, !alias.scope !11
  %14 = call %"class.base::Value"* @_ZN13cloud_devices22CloudDeviceDescription10CreateItemERKNSt3__16vectorIN4base16BasicStringPieceIcNS1_11char_traitsIcEEEENS1_9allocatorIS7_EEEENS3_5Value4TypeE(%"class.cloud_devices::CloudDeviceDescription"* %1, %"class.std::__1::vector.35"* nonnull dereferenceable(24) %3, i8 zeroext 6) #16
  call void @_ZN13cloud_devices7printer21PwgRasterConfigTraits4SaveERKNS0_15PwgRasterConfigEPN4base5ValueE(%"struct.cloud_devices::printer::PwgRasterConfig"* dereferenceable(32) %4, %"class.base::Value"* %14)
  %15 = getelementptr inbounds %"class.std::__1::vector.35", %"class.std::__1::vector.35"* %3, i64 0, i32 0, i32 0
  %16 = load %"class.base::BasicStringPiece"*, %"class.base::BasicStringPiece"** %15, align 8
  %17 = icmp eq %"class.base::BasicStringPiece"* %16, null
  br i1 %17, label %21, label %18

18:                                               ; preds = %2
  %19 = ptrtoint %"class.base::BasicStringPiece"* %16 to i64
  store i64 %19, i64* %12, align 8
  %20 = bitcast %"class.base::BasicStringPiece"* %16 to i8*
  call void @_ZdlPv(i8* %20) #17
  br label %21

21:                                               ; preds = %2, %18
  call void @llvm.lifetime.end.p0i8(i64 24, i8* nonnull %5) #16
  ret void
}

; Function Attrs: nounwind ssp uwtable
define linkonce_odr hidden void @_ZN13cloud_devices7printer21PwgRasterConfigTraits4SaveERKNS0_15PwgRasterConfigEPN4base5ValueE(%"struct.cloud_devices::printer::PwgRasterConfig"* dereferenceable(32), %"class.base::Value"*) local_unnamed_addr #0 comdat align 2 {
  %3 = alloca %"class.base::Value", align 8
  %4 = alloca %"class.std::__1::basic_string", align 8
  %5 = alloca %"class.std::__1::vector.27", align 8
  %6 = alloca %"class.base::Value", align 8
  %7 = alloca %"class.base::Value", align 8
  %8 = alloca %"class.base::Value", align 8
  %9 = alloca %"class.base::Value", align 8
  %10 = alloca %"class.base::Value", align 8
  %11 = bitcast %"class.base::Value"* %3 to i8*
  call void @llvm.lifetime.start.p0i8(i64 32, i8* nonnull %11) #16
  %12 = bitcast %"class.std::__1::basic_string"* %4 to i8*
  call void @llvm.lifetime.start.p0i8(i64 24, i8* nonnull %12) #16
  %13 = getelementptr inbounds %"struct.cloud_devices::printer::PwgRasterConfig", %"struct.cloud_devices::printer::PwgRasterConfig"* %0, i64 0, i32 1
  %14 = load i32, i32* %13, align 8
  %15 = icmp ult i32 %14, 4
  br i1 %15, label %16, label %44

16:                                               ; preds = %2
  %17 = zext i32 %14 to i64
  %18 = getelementptr inbounds [4 x %"struct.cloud_devices::printer::(anonymous namespace)::DocumentSheetBackNames"], [4 x %"struct.cloud_devices::printer::(anonymous namespace)::DocumentSheetBackNames"]* @_ZN13cloud_devices7printer12_GLOBAL__N_123kDocumentSheetBackNamesE, i64 0, i64 %17, i32 1
  %19 = load i8*, i8** %18, align 8, !noalias !14
  %20 = tail call i64 @strlen(i8* %19) #16, !noalias !14
  %21 = icmp ugt i64 %20, -17
  br i1 %21, label %22, label %24

22:                                               ; preds = %16
  %23 = bitcast %"class.std::__1::basic_string"* %4 to %"class.std::__1::__basic_string_common"*
  call void @_ZNKSt3__121__basic_string_commonILb1EE20__throw_length_errorEv(%"class.std::__1::__basic_string_common"* nonnull %23) #18
  unreachable

24:                                               ; preds = %16
  %25 = icmp ult i64 %20, 23
  br i1 %25, label %34, label %26

26:                                               ; preds = %24
  %27 = add nuw i64 %20, 16
  %28 = and i64 %27, -16
  %29 = tail call i8* @_Znwm(i64 %28) #17
  %30 = getelementptr inbounds %"class.std::__1::basic_string", %"class.std::__1::basic_string"* %4, i64 0, i32 0, i32 0, i32 0, i32 0, i32 0, i32 0
  store i8* %29, i8** %30, align 8, !alias.scope !14
  %31 = or i64 %28, -9223372036854775808
  %32 = getelementptr inbounds %"class.std::__1::basic_string", %"class.std::__1::basic_string"* %4, i64 0, i32 0, i32 0, i32 0, i32 0, i32 0, i32 2
  store i64 %31, i64* %32, align 8, !alias.scope !14
  %33 = getelementptr inbounds %"class.std::__1::basic_string", %"class.std::__1::basic_string"* %4, i64 0, i32 0, i32 0, i32 0, i32 0, i32 0, i32 1
  store i64 %20, i64* %33, align 8, !alias.scope !14
  br label %39

34:                                               ; preds = %24
  %35 = trunc i64 %20 to i8
  %36 = bitcast %"class.std::__1::basic_string"* %4 to %"struct.std::__1::basic_string<char, std::__1::char_traits<char>, std::__1::allocator<char> >::__short"*
  %37 = getelementptr inbounds %"struct.std::__1::basic_string<char, std::__1::char_traits<char>, std::__1::allocator<char> >::__short", %"struct.std::__1::basic_string<char, std::__1::char_traits<char>, std::__1::allocator<char> >::__short"* %36, i64 0, i32 1, i32 0
  store i8 %35, i8* %37, align 1, !alias.scope !14
  %38 = icmp eq i64 %20, 0
  br i1 %38, label %41, label %39

39:                                               ; preds = %34, %26
  %40 = phi i8* [ %29, %26 ], [ %12, %34 ]
  call void @llvm.memcpy.p0i8.p0i8.i64(i8* nonnull align 1 %40, i8* align 1 %19, i64 %20, i1 false) #16
  br label %41

41:                                               ; preds = %39, %34
  %42 = phi i8* [ %12, %34 ], [ %40, %39 ]
  %43 = getelementptr inbounds i8, i8* %42, i64 %20
  store i8 0, i8* %43, align 1
  br label %45

44:                                               ; preds = %2
  call void @llvm.memset.p0i8.i64(i8* nonnull align 8 %12, i8 0, i64 24, i1 false) #16, !alias.scope !14
  br label %45

45:                                               ; preds = %41, %44
  call void @_ZN4base5ValueC1EONSt3__112basic_stringIcNS1_11char_traitsIcEENS1_9allocatorIcEEEE(%"class.base::Value"* nonnull %3, %"class.std::__1::basic_string"* nonnull dereferenceable(24) %4) #16
  %46 = call %"class.base::Value"* @_ZN4base5Value6SetKeyEPKcOS0_(%"class.base::Value"* %1, i8* getelementptr inbounds ([20 x i8], [20 x i8]* @_ZN13cloud_devices7printer12_GLOBAL__N_127kPwgRasterDocumentSheetBackE, i64 0, i64 0), %"class.base::Value"* nonnull dereferenceable(32) %3) #16
  call void @_ZN4base5ValueD1Ev(%"class.base::Value"* nonnull %3) #16
  %47 = bitcast %"class.std::__1::basic_string"* %4 to %"struct.std::__1::basic_string<char, std::__1::char_traits<char>, std::__1::allocator<char> >::__short"*
  %48 = getelementptr inbounds %"struct.std::__1::basic_string<char, std::__1::char_traits<char>, std::__1::allocator<char> >::__short", %"struct.std::__1::basic_string<char, std::__1::char_traits<char>, std::__1::allocator<char> >::__short"* %47, i64 0, i32 1, i32 0
  %49 = load i8, i8* %48, align 1
  %50 = icmp slt i8 %49, 0
  br i1 %50, label %51, label %54

51:                                               ; preds = %45
  %52 = getelementptr inbounds %"class.std::__1::basic_string", %"class.std::__1::basic_string"* %4, i64 0, i32 0, i32 0, i32 0, i32 0, i32 0, i32 0
  %53 = load i8*, i8** %52, align 8
  call void @_ZdlPv(i8* %53) #17
  br label %54

54:                                               ; preds = %45, %51
  call void @llvm.lifetime.end.p0i8(i64 24, i8* nonnull %12) #16
  call void @llvm.lifetime.end.p0i8(i64 32, i8* nonnull %11) #16
  %55 = getelementptr inbounds %"struct.cloud_devices::printer::PwgRasterConfig", %"struct.cloud_devices::printer::PwgRasterConfig"* %0, i64 0, i32 0, i32 0, i32 0
  %56 = load i32*, i32** %55, align 8
  %57 = getelementptr inbounds %"struct.cloud_devices::printer::PwgRasterConfig", %"struct.cloud_devices::printer::PwgRasterConfig"* %0, i64 0, i32 0, i32 0, i32 1
  %58 = load i32*, i32** %57, align 8
  %59 = icmp eq i32* %56, %58
  br i1 %59, label %118, label %60

60:                                               ; preds = %54
  %61 = bitcast %"class.std::__1::vector.27"* %5 to i8*
  call void @llvm.lifetime.start.p0i8(i64 24, i8* nonnull %61) #16
  %62 = getelementptr inbounds %"class.std::__1::vector.27", %"class.std::__1::vector.27"* %5, i64 0, i32 0, i32 0
  %63 = getelementptr inbounds %"class.std::__1::vector.27", %"class.std::__1::vector.27"* %5, i64 0, i32 0, i32 1
  %64 = getelementptr inbounds %"class.std::__1::vector.27", %"class.std::__1::vector.27"* %5, i64 0, i32 0, i32 2, i32 0, i32 0
  call void @llvm.memset.p0i8.i64(i8* nonnull align 8 %61, i8 0, i64 24, i1 false) #16
  %65 = bitcast %"class.base::Value"* %7 to i8*
  %66 = bitcast %"class.base::Value"** %63 to i64*
  %67 = bitcast %"class.base::Value"* %6 to i8*
  br label %93

68:                                               ; preds = %115
  %69 = bitcast %"class.base::Value"* %8 to i8*
  call void @llvm.lifetime.start.p0i8(i64 32, i8* nonnull %69) #16
  %70 = bitcast %"class.std::__1::vector.27"* %5 to i64*
  %71 = load i64, i64* %70, align 8
  %72 = load i64, i64* %66, align 8
  %73 = sub i64 %72, %71
  %74 = ashr exact i64 %73, 5
  %75 = inttoptr i64 %71 to %"class.base::Value"*
  call void @_ZN4base5ValueC1ENS_4spanIKS0_Lm18446744073709551615EEE(%"class.base::Value"* nonnull %8, i64 %74, %"class.base::Value"* %75) #16
  %76 = call %"class.base::Value"* @_ZN4base5Value6SetKeyEPKcOS0_(%"class.base::Value"* %1, i8* getelementptr inbounds ([24 x i8], [24 x i8]* @_ZN13cloud_devices7printer12_GLOBAL__N_131kPwgRasterDocumentTypeSupportedE, i64 0, i64 0), %"class.base::Value"* nonnull dereferenceable(32) %8) #16
  call void @_ZN4base5ValueD1Ev(%"class.base::Value"* nonnull %8) #16
  call void @llvm.lifetime.end.p0i8(i64 32, i8* nonnull %69) #16
  %77 = load %"class.base::Value"*, %"class.base::Value"** %62, align 8
  %78 = icmp eq %"class.base::Value"* %77, null
  br i1 %78, label %92, label %79

79:                                               ; preds = %68
  %80 = bitcast %"class.base::Value"* %77 to i8*
  %81 = load %"class.base::Value"*, %"class.base::Value"** %63, align 8
  %82 = icmp eq %"class.base::Value"* %81, %77
  br i1 %82, label %90, label %83

83:                                               ; preds = %79, %83
  %84 = phi %"class.base::Value"* [ %85, %83 ], [ %81, %79 ]
  %85 = getelementptr inbounds %"class.base::Value", %"class.base::Value"* %84, i64 -1
  call void @_ZN4base5ValueD1Ev(%"class.base::Value"* %85) #16
  %86 = icmp eq %"class.base::Value"* %85, %77
  br i1 %86, label %87, label %83

87:                                               ; preds = %83
  %88 = bitcast %"class.std::__1::vector.27"* %5 to i8**
  %89 = load i8*, i8** %88, align 8
  br label %90

90:                                               ; preds = %87, %79
  %91 = phi i8* [ %89, %87 ], [ %80, %79 ]
  store %"class.base::Value"* %77, %"class.base::Value"** %63, align 8
  call void @_ZdlPv(i8* %91) #17
  br label %92

92:                                               ; preds = %68, %90
  call void @llvm.lifetime.end.p0i8(i64 24, i8* nonnull %61) #16
  br label %118

93:                                               ; preds = %60, %115
  %94 = phi i32* [ %56, %60 ], [ %116, %115 ]
  %95 = load i32, i32* %94, align 4
  switch i32 %95, label %115 [
    i32 23, label %96
    i32 22, label %104
  ]

96:                                               ; preds = %93
  call void @llvm.lifetime.start.p0i8(i64 32, i8* nonnull %67) #16
  call void @_ZN4base5ValueC1EPKc(%"class.base::Value"* nonnull %6, i8* getelementptr inbounds ([7 x i8], [7 x i8]* @_ZN13cloud_devices7printer12_GLOBAL__N_131kTypeDocumentSupportedTypeSRGB8E, i64 0, i64 0)) #16
  %97 = load %"class.base::Value"*, %"class.base::Value"** %63, align 8
  %98 = load %"class.base::Value"*, %"class.base::Value"** %64, align 8
  %99 = icmp ult %"class.base::Value"* %97, %98
  br i1 %99, label %100, label %103

100:                                              ; preds = %96
  call void @_ZN4base5ValueC1EOS0_(%"class.base::Value"* %97, %"class.base::Value"* nonnull dereferenceable(32) %6) #16
  %101 = getelementptr inbounds %"class.base::Value", %"class.base::Value"* %97, i64 1
  %102 = ptrtoint %"class.base::Value"* %101 to i64
  store i64 %102, i64* %66, align 8
  br label %112

103:                                              ; preds = %96
  call void @_ZNSt3__16vectorIN4base5ValueENS_9allocatorIS2_EEE21__push_back_slow_pathIS2_EEvOT_(%"class.std::__1::vector.27"* nonnull %5, %"class.base::Value"* nonnull dereferenceable(32) %6) #16
  br label %112

104:                                              ; preds = %93
  call void @llvm.lifetime.start.p0i8(i64 32, i8* nonnull %65) #16
  call void @_ZN4base5ValueC1EPKc(%"class.base::Value"* nonnull %7, i8* getelementptr inbounds ([8 x i8], [8 x i8]* @_ZN13cloud_devices7printer12_GLOBAL__N_132kTypeDocumentSupportedTypeSGRAY8E, i64 0, i64 0)) #16
  %105 = load %"class.base::Value"*, %"class.base::Value"** %63, align 8
  %106 = load %"class.base::Value"*, %"class.base::Value"** %64, align 8
  %107 = icmp ult %"class.base::Value"* %105, %106
  br i1 %107, label %108, label %111

108:                                              ; preds = %104
  call void @_ZN4base5ValueC1EOS0_(%"class.base::Value"* %105, %"class.base::Value"* nonnull dereferenceable(32) %7) #16
  %109 = getelementptr inbounds %"class.base::Value", %"class.base::Value"* %105, i64 1
  %110 = ptrtoint %"class.base::Value"* %109 to i64
  store i64 %110, i64* %66, align 8
  br label %112

111:                                              ; preds = %104
  call void @_ZNSt3__16vectorIN4base5ValueENS_9allocatorIS2_EEE21__push_back_slow_pathIS2_EEvOT_(%"class.std::__1::vector.27"* nonnull %5, %"class.base::Value"* nonnull dereferenceable(32) %7) #16
  br label %112

112:                                              ; preds = %111, %108, %103, %100
  %113 = phi %"class.base::Value"* [ %6, %100 ], [ %6, %103 ], [ %7, %108 ], [ %7, %111 ]
  %114 = phi i8* [ %67, %100 ], [ %67, %103 ], [ %65, %108 ], [ %65, %111 ]
  call void @_ZN4base5ValueD1Ev(%"class.base::Value"* nonnull %113) #16
  call void @llvm.lifetime.end.p0i8(i64 32, i8* nonnull %114) #16
  br label %115

115:                                              ; preds = %112, %93
  %116 = getelementptr inbounds i32, i32* %94, i64 1
  %117 = icmp eq i32* %116, %58
  br i1 %117, label %68, label %93

118:                                              ; preds = %92, %54
  %119 = getelementptr inbounds %"struct.cloud_devices::printer::PwgRasterConfig", %"struct.cloud_devices::printer::PwgRasterConfig"* %0, i64 0, i32 2
  %120 = load i8, i8* %119, align 4, !range !17
  %121 = icmp eq i8 %120, 0
  br i1 %121, label %125, label %122

122:                                              ; preds = %118
  %123 = bitcast %"class.base::Value"* %9 to i8*
  call void @llvm.lifetime.start.p0i8(i64 32, i8* nonnull %123) #16
  call void @_ZN4base5ValueC1Eb(%"class.base::Value"* nonnull %9, i1 zeroext true) #16
  %124 = call %"class.base::Value"* @_ZN4base5Value6SetKeyEPKcOS0_(%"class.base::Value"* %1, i8* getelementptr inbounds ([24 x i8], [24 x i8]* @_ZN13cloud_devices7printer12_GLOBAL__N_131kPwgRasterReverseOrderStreamingE, i64 0, i64 0), %"class.base::Value"* nonnull dereferenceable(32) %9) #16
  call void @_ZN4base5ValueD1Ev(%"class.base::Value"* nonnull %9) #16
  call void @llvm.lifetime.end.p0i8(i64 32, i8* nonnull %123) #16
  br label %125

125:                                              ; preds = %118, %122
  %126 = getelementptr inbounds %"struct.cloud_devices::printer::PwgRasterConfig", %"struct.cloud_devices::printer::PwgRasterConfig"* %0, i64 0, i32 3
  %127 = load i8, i8* %126, align 1, !range !17
  %128 = icmp eq i8 %127, 0
  br i1 %128, label %132, label %129

129:                                              ; preds = %125
  %130 = bitcast %"class.base::Value"* %10 to i8*
  call void @llvm.lifetime.start.p0i8(i64 32, i8* nonnull %130) #16
  call void @_ZN4base5ValueC1Eb(%"class.base::Value"* nonnull %10, i1 zeroext true) #16
  %131 = call %"class.base::Value"* @_ZN4base5Value6SetKeyEPKcOS0_(%"class.base::Value"* %1, i8* getelementptr inbounds ([17 x i8], [17 x i8]* @_ZN13cloud_devices7printer12_GLOBAL__N_124kPwgRasterRotateAllPagesE, i64 0, i64 0), %"class.base::Value"* nonnull dereferenceable(32) %10) #16
  call void @_ZN4base5ValueD1Ev(%"class.base::Value"* nonnull %10) #16
  call void @llvm.lifetime.end.p0i8(i64 32, i8* nonnull %130) #16
  br label %132

132:                                              ; preds = %125, %129
  ret void
}

; Function Attrs: nounwind ssp uwtable
define weak_odr hidden dereferenceable(32) %"struct.cloud_devices::printer::PwgRasterConfig"* @_ZNK13cloud_devices15ValueCapabilityINS_7printer15PwgRasterConfigENS1_21PwgRasterConfigTraitsEE5valueEv(%"class.cloud_devices::ValueCapability"*) local_unnamed_addr #0 comdat align 2 {
  %2 = getelementptr inbounds %"class.cloud_devices::ValueCapability", %"class.cloud_devices::ValueCapability"* %0, i64 0, i32 0
  ret %"struct.cloud_devices::printer::PwgRasterConfig"* %2
}

; Function Attrs: nounwind ssp uwtable
define weak_odr hidden void @_ZN13cloud_devices14ListCapabilityINS_7printer16VendorCapabilityENS1_22VendorCapabilityTraitsEEC2Ev(%"class.cloud_devices::ListCapability.49"*) unnamed_addr #0 comdat($_ZN13cloud_devices14ListCapabilityINS_7printer16VendorCapabilityENS1_22VendorCapabilityTraitsEEC5Ev) align 2 {
  %2 = bitcast %"class.cloud_devices::ListCapability.49"* %0 to i8*
  tail call void @llvm.memset.p0i8.i64(i8* align 8 %2, i8 0, i64 24, i1 false) #16
  %3 = getelementptr inbounds %"class.cloud_devices::ListCapability.49", %"class.cloud_devices::ListCapability.49"* %0, i64 0, i32 0, i32 0, i32 1
  store %"class.cloud_devices::printer::VendorCapability"* null, %"class.cloud_devices::printer::VendorCapability"** %3, align 8
  ret void
}

; Function Attrs: nounwind ssp uwtable
define weak_odr hidden void @_ZN13cloud_devices14ListCapabilityINS_7printer16VendorCapabilityENS1_22VendorCapabilityTraitsEE5ResetEv(%"class.cloud_devices::ListCapability.49"*) local_unnamed_addr #0 comdat align 2 {
  %2 = getelementptr inbounds %"class.cloud_devices::ListCapability.49", %"class.cloud_devices::ListCapability.49"* %0, i64 0, i32 0, i32 0, i32 0
  %3 = load %"class.cloud_devices::printer::VendorCapability"*, %"class.cloud_devices::printer::VendorCapability"** %2, align 8
  %4 = getelementptr inbounds %"class.cloud_devices::ListCapability.49", %"class.cloud_devices::ListCapability.49"* %0, i64 0, i32 0, i32 0, i32 1
  %5 = load %"class.cloud_devices::printer::VendorCapability"*, %"class.cloud_devices::printer::VendorCapability"** %4, align 8
  %6 = icmp eq %"class.cloud_devices::printer::VendorCapability"* %5, %3
  br i1 %6, label %29, label %7

7:                                                ; preds = %1, %27
  %8 = phi %"class.cloud_devices::printer::VendorCapability"* [ %9, %27 ], [ %5, %1 ]
  %9 = getelementptr inbounds %"class.cloud_devices::printer::VendorCapability", %"class.cloud_devices::printer::VendorCapability"* %8, i64 -1
  tail call void @_ZN13cloud_devices7printer16VendorCapability15InternalCleanupEv(%"class.cloud_devices::printer::VendorCapability"* %9) #16
  %10 = getelementptr inbounds %"class.cloud_devices::printer::VendorCapability", %"class.cloud_devices::printer::VendorCapability"* %8, i64 -1, i32 2
  %11 = bitcast %"class.std::__1::basic_string"* %10 to %"struct.std::__1::basic_string<char, std::__1::char_traits<char>, std::__1::allocator<char> >::__short"*
  %12 = getelementptr inbounds %"struct.std::__1::basic_string<char, std::__1::char_traits<char>, std::__1::allocator<char> >::__short", %"struct.std::__1::basic_string<char, std::__1::char_traits<char>, std::__1::allocator<char> >::__short"* %11, i64 0, i32 1, i32 0
  %13 = load i8, i8* %12, align 1
  %14 = icmp slt i8 %13, 0
  br i1 %14, label %15, label %18

15:                                               ; preds = %7
  %16 = getelementptr inbounds %"class.std::__1::basic_string", %"class.std::__1::basic_string"* %10, i64 0, i32 0, i32 0, i32 0, i32 0, i32 0, i32 0
  %17 = load i8*, i8** %16, align 8
  tail call void @_ZdlPv(i8* %17) #17
  br label %18

18:                                               ; preds = %15, %7
  %19 = getelementptr inbounds %"class.cloud_devices::printer::VendorCapability", %"class.cloud_devices::printer::VendorCapability"* %8, i64 -1, i32 1
  %20 = bitcast %"class.std::__1::basic_string"* %19 to %"struct.std::__1::basic_string<char, std::__1::char_traits<char>, std::__1::allocator<char> >::__short"*
  %21 = getelementptr inbounds %"struct.std::__1::basic_string<char, std::__1::char_traits<char>, std::__1::allocator<char> >::__short", %"struct.std::__1::basic_string<char, std::__1::char_traits<char>, std::__1::allocator<char> >::__short"* %20, i64 0, i32 1, i32 0
  %22 = load i8, i8* %21, align 1
  %23 = icmp slt i8 %22, 0
  br i1 %23, label %24, label %27

24:                                               ; preds = %18
  %25 = getelementptr inbounds %"class.std::__1::basic_string", %"class.std::__1::basic_string"* %19, i64 0, i32 0, i32 0, i32 0, i32 0, i32 0, i32 0
  %26 = load i8*, i8** %25, align 8
  tail call void @_ZdlPv(i8* %26) #17
  br label %27

27:                                               ; preds = %24, %18
  %28 = icmp eq %"class.cloud_devices::printer::VendorCapability"* %9, %3
  br i1 %28, label %29, label %7

29:                                               ; preds = %27, %1
  store %"class.cloud_devices::printer::VendorCapability"* %3, %"class.cloud_devices::printer::VendorCapability"** %4, align 8
  ret void
}

; Function Attrs: nounwind ssp uwtable
define weak_odr hidden void @_ZN13cloud_devices14ListCapabilityINS_7printer16VendorCapabilityENS1_22VendorCapabilityTraitsEEC2EOS4_(%"class.cloud_devices::ListCapability.49"*, %"class.cloud_devices::ListCapability.49"* dereferenceable(24)) unnamed_addr #0 comdat($_ZN13cloud_devices14ListCapabilityINS_7printer16VendorCapabilityENS1_22VendorCapabilityTraitsEEC5EOS4_) align 2 {
  %3 = bitcast %"class.cloud_devices::ListCapability.49"* %0 to i8*
  tail call void @llvm.memset.p0i8.i64(i8* align 8 %3, i8 0, i64 24, i1 false) #16
  %4 = bitcast %"class.cloud_devices::ListCapability.49"* %1 to i64*
  %5 = load i64, i64* %4, align 8
  %6 = bitcast %"class.cloud_devices::ListCapability.49"* %0 to i64*
  store i64 %5, i64* %6, align 8
  %7 = getelementptr inbounds %"class.cloud_devices::ListCapability.49", %"class.cloud_devices::ListCapability.49"* %1, i64 0, i32 0, i32 0, i32 1
  %8 = bitcast %"class.cloud_devices::printer::VendorCapability"** %7 to i64*
  %9 = load i64, i64* %8, align 8
  %10 = getelementptr inbounds %"class.cloud_devices::ListCapability.49", %"class.cloud_devices::ListCapability.49"* %0, i64 0, i32 0, i32 0, i32 1
  %11 = bitcast %"class.cloud_devices::printer::VendorCapability"** %10 to i64*
  store i64 %9, i64* %11, align 8
  %12 = getelementptr inbounds %"class.cloud_devices::ListCapability.49", %"class.cloud_devices::ListCapability.49"* %1, i64 0, i32 0, i32 0, i32 2, i32 0, i32 0
  %13 = bitcast %"class.cloud_devices::printer::VendorCapability"** %12 to i64*
  %14 = load i64, i64* %13, align 8
  %15 = getelementptr inbounds %"class.cloud_devices::ListCapability.49", %"class.cloud_devices::ListCapability.49"* %0, i64 0, i32 0, i32 0, i32 2, i32 0, i32 0
  %16 = bitcast %"class.cloud_devices::printer::VendorCapability"** %15 to i64*
  store i64 %14, i64* %16, align 8
  %17 = bitcast %"class.cloud_devices::ListCapability.49"* %1 to i8*
  tail call void @llvm.memset.p0i8.i64(i8* align 8 %17, i8 0, i64 24, i1 false) #16
  ret void
}

; Function Attrs: nounwind ssp uwtable
define weak_odr hidden void @_ZN13cloud_devices14ListCapabilityINS_7printer16VendorCapabilityENS1_22VendorCapabilityTraitsEED2Ev(%"class.cloud_devices::ListCapability.49"*) unnamed_addr #0 comdat($_ZN13cloud_devices14ListCapabilityINS_7printer16VendorCapabilityENS1_22VendorCapabilityTraitsEED5Ev) align 2 {
  %2 = getelementptr inbounds %"class.cloud_devices::ListCapability.49", %"class.cloud_devices::ListCapability.49"* %0, i64 0, i32 0, i32 0, i32 0
  %3 = load %"class.cloud_devices::printer::VendorCapability"*, %"class.cloud_devices::printer::VendorCapability"** %2, align 8
  %4 = icmp eq %"class.cloud_devices::printer::VendorCapability"* %3, null
  br i1 %4, label %37, label %5

5:                                                ; preds = %1
  %6 = bitcast %"class.cloud_devices::printer::VendorCapability"* %3 to i8*
  %7 = getelementptr inbounds %"class.cloud_devices::ListCapability.49", %"class.cloud_devices::ListCapability.49"* %0, i64 0, i32 0, i32 0, i32 1
  %8 = load %"class.cloud_devices::printer::VendorCapability"*, %"class.cloud_devices::printer::VendorCapability"** %7, align 8
  %9 = icmp eq %"class.cloud_devices::printer::VendorCapability"* %8, %3
  br i1 %9, label %35, label %10

10:                                               ; preds = %5, %30
  %11 = phi %"class.cloud_devices::printer::VendorCapability"* [ %12, %30 ], [ %8, %5 ]
  %12 = getelementptr inbounds %"class.cloud_devices::printer::VendorCapability", %"class.cloud_devices::printer::VendorCapability"* %11, i64 -1
  tail call void @_ZN13cloud_devices7printer16VendorCapability15InternalCleanupEv(%"class.cloud_devices::printer::VendorCapability"* %12) #16
  %13 = getelementptr inbounds %"class.cloud_devices::printer::VendorCapability", %"class.cloud_devices::printer::VendorCapability"* %11, i64 -1, i32 2
  %14 = bitcast %"class.std::__1::basic_string"* %13 to %"struct.std::__1::basic_string<char, std::__1::char_traits<char>, std::__1::allocator<char> >::__short"*
  %15 = getelementptr inbounds %"struct.std::__1::basic_string<char, std::__1::char_traits<char>, std::__1::allocator<char> >::__short", %"struct.std::__1::basic_string<char, std::__1::char_traits<char>, std::__1::allocator<char> >::__short"* %14, i64 0, i32 1, i32 0
  %16 = load i8, i8* %15, align 1
  %17 = icmp slt i8 %16, 0
  br i1 %17, label %18, label %21

18:                                               ; preds = %10
  %19 = getelementptr inbounds %"class.std::__1::basic_string", %"class.std::__1::basic_string"* %13, i64 0, i32 0, i32 0, i32 0, i32 0, i32 0, i32 0
  %20 = load i8*, i8** %19, align 8
  tail call void @_ZdlPv(i8* %20) #17
  br label %21

21:                                               ; preds = %18, %10
  %22 = getelementptr inbounds %"class.cloud_devices::printer::VendorCapability", %"class.cloud_devices::printer::VendorCapability"* %11, i64 -1, i32 1
  %23 = bitcast %"class.std::__1::basic_string"* %22 to %"struct.std::__1::basic_string<char, std::__1::char_traits<char>, std::__1::allocator<char> >::__short"*
  %24 = getelementptr inbounds %"struct.std::__1::basic_string<char, std::__1::char_traits<char>, std::__1::allocator<char> >::__short", %"struct.std::__1::basic_string<char, std::__1::char_traits<char>, std::__1::allocator<char> >::__short"* %23, i64 0, i32 1, i32 0
  %25 = load i8, i8* %24, align 1
  %26 = icmp slt i8 %25, 0
  br i1 %26, label %27, label %30

27:                                               ; preds = %21
  %28 = getelementptr inbounds %"class.std::__1::basic_string", %"class.std::__1::basic_string"* %22, i64 0, i32 0, i32 0, i32 0, i32 0, i32 0, i32 0
  %29 = load i8*, i8** %28, align 8
  tail call void @_ZdlPv(i8* %29) #17
  br label %30

30:                                               ; preds = %27, %21
  %31 = icmp eq %"class.cloud_devices::printer::VendorCapability"* %12, %3
  br i1 %31, label %32, label %10

32:                                               ; preds = %30
  %33 = bitcast %"class.cloud_devices::ListCapability.49"* %0 to i8**
  %34 = load i8*, i8** %33, align 8
  br label %35

35:                                               ; preds = %32, %5
  %36 = phi i8* [ %34, %32 ], [ %6, %5 ]
  store %"class.cloud_devices::printer::VendorCapability"* %3, %"class.cloud_devices::printer::VendorCapability"** %7, align 8
  tail call void @_ZdlPv(i8* %36) #17
  br label %37

37:                                               ; preds = %1, %35
  ret void
}

; Function Attrs: nounwind ssp uwtable
define weak_odr hidden zeroext i1 @_ZN13cloud_devices14ListCapabilityINS_7printer16VendorCapabilityENS1_22VendorCapabilityTraitsEE8LoadFromERKNS_22CloudDeviceDescriptionE(%"class.cloud_devices::ListCapability.49"*, %"class.cloud_devices::CloudDeviceDescription"* dereferenceable(32)) local_unnamed_addr #0 comdat align 2 {
  %3 = alloca %"class.std::__1::vector.35", align 8
  %4 = alloca %"class.base::CheckedContiguousIterator", align 8
  %5 = alloca %"class.base::CheckedContiguousIterator", align 8
  %6 = alloca %"class.cloud_devices::printer::VendorCapability", align 8
  %7 = getelementptr inbounds %"class.cloud_devices::ListCapability.49", %"class.cloud_devices::ListCapability.49"* %0, i64 0, i32 0, i32 0, i32 0
  %8 = load %"class.cloud_devices::printer::VendorCapability"*, %"class.cloud_devices::printer::VendorCapability"** %7, align 8
  %9 = getelementptr inbounds %"class.cloud_devices::ListCapability.49", %"class.cloud_devices::ListCapability.49"* %0, i64 0, i32 0, i32 0, i32 1
  %10 = load %"class.cloud_devices::printer::VendorCapability"*, %"class.cloud_devices::printer::VendorCapability"** %9, align 8
  %11 = icmp eq %"class.cloud_devices::printer::VendorCapability"* %10, %8
  br i1 %11, label %34, label %12

12:                                               ; preds = %2, %32
  %13 = phi %"class.cloud_devices::printer::VendorCapability"* [ %14, %32 ], [ %10, %2 ]
  %14 = getelementptr inbounds %"class.cloud_devices::printer::VendorCapability", %"class.cloud_devices::printer::VendorCapability"* %13, i64 -1
  tail call void @_ZN13cloud_devices7printer16VendorCapability15InternalCleanupEv(%"class.cloud_devices::printer::VendorCapability"* %14) #16
  %15 = getelementptr inbounds %"class.cloud_devices::printer::VendorCapability", %"class.cloud_devices::printer::VendorCapability"* %13, i64 -1, i32 2
  %16 = bitcast %"class.std::__1::basic_string"* %15 to %"struct.std::__1::basic_string<char, std::__1::char_traits<char>, std::__1::allocator<char> >::__short"*
  %17 = getelementptr inbounds %"struct.std::__1::basic_string<char, std::__1::char_traits<char>, std::__1::allocator<char> >::__short", %"struct.std::__1::basic_string<char, std::__1::char_traits<char>, std::__1::allocator<char> >::__short"* %16, i64 0, i32 1, i32 0
  %18 = load i8, i8* %17, align 1
  %19 = icmp slt i8 %18, 0
  br i1 %19, label %20, label %23

20:                                               ; preds = %12
  %21 = getelementptr inbounds %"class.std::__1::basic_string", %"class.std::__1::basic_string"* %15, i64 0, i32 0, i32 0, i32 0, i32 0, i32 0, i32 0
  %22 = load i8*, i8** %21, align 8
  tail call void @_ZdlPv(i8* %22) #17
  br label %23

23:                                               ; preds = %20, %12
  %24 = getelementptr inbounds %"class.cloud_devices::printer::VendorCapability", %"class.cloud_devices::printer::VendorCapability"* %13, i64 -1, i32 1
  %25 = bitcast %"class.std::__1::basic_string"* %24 to %"struct.std::__1::basic_string<char, std::__1::char_traits<char>, std::__1::allocator<char> >::__short"*
  %26 = getelementptr inbounds %"struct.std::__1::basic_string<char, std::__1::char_traits<char>, std::__1::allocator<char> >::__short", %"struct.std::__1::basic_string<char, std::__1::char_traits<char>, std::__1::allocator<char> >::__short"* %25, i64 0, i32 1, i32 0
  %27 = load i8, i8* %26, align 1
  %28 = icmp slt i8 %27, 0
  br i1 %28, label %29, label %32

29:                                               ; preds = %23
  %30 = getelementptr inbounds %"class.std::__1::basic_string", %"class.std::__1::basic_string"* %24, i64 0, i32 0, i32 0, i32 0, i32 0, i32 0, i32 0
  %31 = load i8*, i8** %30, align 8
  tail call void @_ZdlPv(i8* %31) #17
  br label %32

32:                                               ; preds = %29, %23
  %33 = icmp eq %"class.cloud_devices::printer::VendorCapability"* %14, %8
  br i1 %33, label %34, label %12

34:                                               ; preds = %32, %2
  store %"class.cloud_devices::printer::VendorCapability"* %8, %"class.cloud_devices::printer::VendorCapability"** %9, align 8
  %35 = bitcast %"class.std::__1::vector.35"* %3 to i8*
  call void @llvm.lifetime.start.p0i8(i64 24, i8* nonnull %35) #16
  %36 = tail call i8* @_Znwm(i64 32) #17, !noalias !18
  %37 = getelementptr inbounds %"class.std::__1::vector.35", %"class.std::__1::vector.35"* %3, i64 0, i32 0, i32 1
  %38 = bitcast %"class.std::__1::vector.35"* %3 to i8**
  store i8* %36, i8** %38, align 8, !alias.scope !18
  %39 = getelementptr inbounds i8, i8* %36, i64 32
  %40 = getelementptr inbounds %"class.std::__1::vector.35", %"class.std::__1::vector.35"* %3, i64 0, i32 0, i32 2, i32 0, i32 0
  %41 = bitcast %"class.base::BasicStringPiece"** %40 to i8**
  store i8* %39, i8** %41, align 8, !alias.scope !18
  %42 = bitcast %"class.base::BasicStringPiece"** %37 to i64*
  tail call void @llvm.memcpy.p0i8.p0i8.i64(i8* nonnull align 8 %36, i8* align 8 bitcast ([2 x %"class.base::BasicStringPiece"]* @.ref.tmp.180 to i8*), i64 32, i1 false) #16, !noalias !18
  %43 = ptrtoint i8* %39 to i64
  store i64 %43, i64* %42, align 8, !alias.scope !18
  %44 = call %"class.base::Value"* @_ZNK13cloud_devices22CloudDeviceDescription7GetItemERKNSt3__16vectorIN4base16BasicStringPieceIcNS1_11char_traitsIcEEEENS1_9allocatorIS7_EEEENS3_5Value4TypeE(%"class.cloud_devices::CloudDeviceDescription"* %1, %"class.std::__1::vector.35"* nonnull dereferenceable(24) %3, i8 zeroext 7) #16
  %45 = getelementptr inbounds %"class.std::__1::vector.35", %"class.std::__1::vector.35"* %3, i64 0, i32 0, i32 0
  %46 = load %"class.base::BasicStringPiece"*, %"class.base::BasicStringPiece"** %45, align 8
  %47 = icmp eq %"class.base::BasicStringPiece"* %46, null
  br i1 %47, label %51, label %48

48:                                               ; preds = %34
  %49 = ptrtoint %"class.base::BasicStringPiece"* %46 to i64
  store i64 %49, i64* %42, align 8
  %50 = bitcast %"class.base::BasicStringPiece"* %46 to i8*
  call void @_ZdlPv(i8* %50) #17
  br label %51

51:                                               ; preds = %34, %48
  call void @llvm.lifetime.end.p0i8(i64 24, i8* nonnull %35) #16
  %52 = icmp eq %"class.base::Value"* %44, null
  br i1 %52, label %229, label %53

53:                                               ; preds = %51
  %54 = call %"class.std::__1::vector.27"* @_ZNK4base5Value7GetListEv(%"class.base::Value"* nonnull %44) #16
  %55 = bitcast %"class.base::CheckedContiguousIterator"* %4 to i8*
  call void @llvm.lifetime.start.p0i8(i64 24, i8* nonnull %55) #16
  %56 = getelementptr inbounds %"class.base::CheckedContiguousIterator", %"class.base::CheckedContiguousIterator"* %4, i64 0, i32 1
  %57 = icmp eq %"class.std::__1::vector.27"* %54, null
  %58 = bitcast %"class.base::CheckedContiguousIterator"* %4 to i8*
  call void @llvm.memset.p0i8.i64(i8* nonnull align 8 %58, i8 -86, i64 24, i1 false)
  br i1 %57, label %68, label %59

59:                                               ; preds = %53
  %60 = getelementptr inbounds %"class.std::__1::vector.27", %"class.std::__1::vector.27"* %54, i64 0, i32 0, i32 0
  %61 = load %"class.base::Value"*, %"class.base::Value"** %60, align 8
  %62 = getelementptr inbounds %"class.std::__1::vector.27", %"class.std::__1::vector.27"* %54, i64 0, i32 0, i32 1
  %63 = bitcast %"class.base::Value"** %62 to i64*
  %64 = load i64, i64* %63, align 8
  %65 = ptrtoint %"class.base::Value"* %61 to i64
  %66 = sub i64 %64, %65
  %67 = ashr exact i64 %66, 5
  br label %68

68:                                               ; preds = %53, %59
  %69 = phi %"class.base::Value"* [ %61, %59 ], [ null, %53 ]
  %70 = phi i64 [ %67, %59 ], [ 0, %53 ]
  %71 = getelementptr inbounds %"class.base::Value", %"class.base::Value"* %69, i64 %70
  call void @_ZN4base25CheckedContiguousIteratorIKNS_5ValueEEC2EPS2_S4_S4_(%"class.base::CheckedContiguousIterator"* nonnull %4, %"class.base::Value"* %69, %"class.base::Value"* %69, %"class.base::Value"* %71) #16
  %72 = bitcast %"class.base::CheckedContiguousIterator"* %5 to i8*
  call void @llvm.lifetime.start.p0i8(i64 24, i8* nonnull %72) #16
  %73 = getelementptr inbounds %"class.base::CheckedContiguousIterator", %"class.base::CheckedContiguousIterator"* %5, i64 0, i32 1
  %74 = bitcast %"class.base::CheckedContiguousIterator"* %5 to i8*
  call void @llvm.memset.p0i8.i64(i8* nonnull align 8 %74, i8 -86, i64 24, i1 false)
  br i1 %57, label %85, label %75

75:                                               ; preds = %68
  %76 = getelementptr inbounds %"class.std::__1::vector.27", %"class.std::__1::vector.27"* %54, i64 0, i32 0, i32 0
  %77 = load %"class.base::Value"*, %"class.base::Value"** %76, align 8
  %78 = getelementptr inbounds %"class.std::__1::vector.27", %"class.std::__1::vector.27"* %54, i64 0, i32 0, i32 1
  %79 = bitcast %"class.base::Value"** %78 to i64*
  %80 = load i64, i64* %79, align 8
  %81 = ptrtoint %"class.base::Value"* %77 to i64
  %82 = sub i64 %80, %81
  %83 = ashr exact i64 %82, 5
  %84 = getelementptr inbounds %"class.base::Value", %"class.base::Value"* %77, i64 %83
  br label %85

85:                                               ; preds = %68, %75
  %86 = phi %"class.base::Value"* [ %77, %75 ], [ null, %68 ]
  %87 = phi %"class.base::Value"* [ %84, %75 ], [ null, %68 ]
  %88 = phi i64 [ %83, %75 ], [ 0, %68 ]
  %89 = getelementptr inbounds %"class.base::Value", %"class.base::Value"* %86, i64 %88
  call void @_ZN4base25CheckedContiguousIteratorIKNS_5ValueEEC2EPS2_S4_S4_(%"class.base::CheckedContiguousIterator"* nonnull %5, %"class.base::Value"* %86, %"class.base::Value"* %87, %"class.base::Value"* %89) #16
  call void @_ZNK4base25CheckedContiguousIteratorIKNS_5ValueEE15CheckComparableERKS3_(%"class.base::CheckedContiguousIterator"* nonnull %4, %"class.base::CheckedContiguousIterator"* nonnull dereferenceable(24) %5) #16
  %90 = load %"class.base::Value"*, %"class.base::Value"** %56, align 8
  %91 = load %"class.base::Value"*, %"class.base::Value"** %73, align 8
  %92 = icmp eq %"class.base::Value"* %90, %91
  br i1 %92, label %209, label %93

93:                                               ; preds = %85
  %94 = bitcast %"class.cloud_devices::printer::VendorCapability"* %6 to i8*
  %95 = getelementptr inbounds %"class.cloud_devices::printer::VendorCapability", %"class.cloud_devices::printer::VendorCapability"* %6, i64 0, i32 0
  %96 = getelementptr inbounds %"class.cloud_devices::printer::VendorCapability", %"class.cloud_devices::printer::VendorCapability"* %6, i64 0, i32 1
  %97 = bitcast %"class.std::__1::basic_string"* %96 to i8*
  %98 = getelementptr inbounds %"class.cloud_devices::ListCapability.49", %"class.cloud_devices::ListCapability.49"* %0, i64 0, i32 0, i32 0, i32 2, i32 0, i32 0
  %99 = getelementptr inbounds %"class.cloud_devices::ListCapability.49", %"class.cloud_devices::ListCapability.49"* %0, i64 0, i32 0
  %100 = bitcast %"class.std::__1::basic_string"* %96 to %"struct.std::__1::basic_string<char, std::__1::char_traits<char>, std::__1::allocator<char> >::__short"*
  %101 = getelementptr inbounds %"struct.std::__1::basic_string<char, std::__1::char_traits<char>, std::__1::allocator<char> >::__short", %"struct.std::__1::basic_string<char, std::__1::char_traits<char>, std::__1::allocator<char> >::__short"* %100, i64 0, i32 1, i32 0
  %102 = getelementptr inbounds %"class.std::__1::basic_string", %"class.std::__1::basic_string"* %96, i64 0, i32 0, i32 0, i32 0, i32 0, i32 0, i32 0
  %103 = getelementptr inbounds %"class.cloud_devices::printer::VendorCapability", %"class.cloud_devices::printer::VendorCapability"* %6, i64 0, i32 1, i32 0, i32 0, i32 0, i32 0, i32 0, i32 1
  %104 = getelementptr inbounds %"class.cloud_devices::printer::VendorCapability", %"class.cloud_devices::printer::VendorCapability"* %6, i64 0, i32 2
  %105 = bitcast %"class.std::__1::basic_string"* %104 to %"struct.std::__1::basic_string<char, std::__1::char_traits<char>, std::__1::allocator<char> >::__short"*
  %106 = getelementptr inbounds %"struct.std::__1::basic_string<char, std::__1::char_traits<char>, std::__1::allocator<char> >::__short", %"struct.std::__1::basic_string<char, std::__1::char_traits<char>, std::__1::allocator<char> >::__short"* %105, i64 0, i32 1, i32 0
  %107 = bitcast %"class.std::__1::basic_string"* %104 to i8*
  %108 = getelementptr inbounds %"class.std::__1::basic_string", %"class.std::__1::basic_string"* %104, i64 0, i32 0, i32 0, i32 0, i32 0, i32 0, i32 0
  %109 = getelementptr inbounds %"class.cloud_devices::printer::VendorCapability", %"class.cloud_devices::printer::VendorCapability"* %6, i64 0, i32 2, i32 0, i32 0, i32 0, i32 0, i32 0, i32 1
  %110 = getelementptr inbounds %"class.cloud_devices::printer::VendorCapability", %"class.cloud_devices::printer::VendorCapability"* %6, i64 0, i32 3
  %111 = bitcast %union.anon.52* %110 to i64*
  %112 = getelementptr inbounds %"class.cloud_devices::printer::VendorCapability", %"class.cloud_devices::printer::VendorCapability"* %6, i64 0, i32 3, i32 0, i32 1
  %113 = bitcast %"class.std::__1::basic_string"* %112 to i64*
  %114 = getelementptr inbounds %"class.cloud_devices::printer::VendorCapability", %"class.cloud_devices::printer::VendorCapability"* %6, i64 0, i32 3, i32 0, i32 1, i32 0, i32 0, i32 0, i32 0, i32 0, i32 1
  %115 = bitcast %union.anon.52* %110 to i8*
  %116 = getelementptr inbounds %"class.cloud_devices::printer::VendorCapability", %"class.cloud_devices::printer::VendorCapability"* %6, i64 0, i32 3, i32 0, i32 1, i32 0, i32 0, i32 0, i32 0, i32 0, i32 2
  %117 = bitcast i64* %116 to i32*
  %118 = getelementptr inbounds %"class.cloud_devices::printer::VendorCapability", %"class.cloud_devices::printer::VendorCapability"* %6, i64 0, i32 3, i32 0, i32 0
  %119 = bitcast %"class.std::__1::basic_string"* %112 to i8*
  %120 = getelementptr inbounds %"class.cloud_devices::printer::VendorCapability", %"class.cloud_devices::printer::VendorCapability"* %6, i64 0, i32 3, i32 0, i32 2
  %121 = bitcast %"class.std::__1::basic_string"* %120 to i8*
  %122 = getelementptr inbounds %"class.cloud_devices::printer::VendorCapability", %"class.cloud_devices::printer::VendorCapability"* %6, i64 0, i32 3, i32 0, i32 3
  %123 = bitcast %"class.std::__1::basic_string"* %122 to i8*
  %124 = bitcast %"class.cloud_devices::printer::VendorCapability"** %9 to i64*
  br label %125

125:                                              ; preds = %93, %203
  %126 = call dereferenceable(32) %"class.base::Value"* @_ZNK4base25CheckedContiguousIteratorIKNS_5ValueEEdeEv(%"class.base::CheckedContiguousIterator"* nonnull %4)
  call void @llvm.lifetime.start.p0i8(i64 136, i8* nonnull %94) #16
  call void @llvm.memset.p0i8.i64(i8* nonnull align 8 %94, i8 -86, i64 136, i1 false)
  store i32 0, i32* %95, align 8
  call void @llvm.memset.p0i8.i64(i8* align 8 %97, i8 0, i64 48, i1 false) #16
  %127 = getelementptr inbounds %"class.base::Value", %"class.base::Value"* %126, i64 0, i32 0, i32 0, i32 0, i32 0, i32 0, i32 0, i32 0, i32 1
  %128 = load i64, i64* %127, align 8
  %129 = trunc i64 %128 to i8
  %130 = icmp eq i8 %129, 6
  br i1 %130, label %131, label %190

131:                                              ; preds = %125
  %132 = call zeroext i1 @_ZN13cloud_devices7printer16VendorCapability8LoadFromERKN4base5ValueE(%"class.cloud_devices::printer::VendorCapability"* nonnull %6, %"class.base::Value"* dereferenceable(32) %126) #16
  br i1 %132, label %133, label %190

133:                                              ; preds = %131
  %134 = load %"class.cloud_devices::printer::VendorCapability"*, %"class.cloud_devices::printer::VendorCapability"** %9, align 8
  %135 = load %"class.cloud_devices::printer::VendorCapability"*, %"class.cloud_devices::printer::VendorCapability"** %98, align 8
  %136 = icmp ult %"class.cloud_devices::printer::VendorCapability"* %134, %135
  br i1 %136, label %137, label %189

137:                                              ; preds = %133
  %138 = getelementptr inbounds %"class.cloud_devices::printer::VendorCapability", %"class.cloud_devices::printer::VendorCapability"* %134, i64 0, i32 0
  %139 = load i32, i32* %95, align 8
  store i32 %139, i32* %138, align 8
  %140 = getelementptr inbounds %"class.cloud_devices::printer::VendorCapability", %"class.cloud_devices::printer::VendorCapability"* %134, i64 0, i32 1
  %141 = load i8, i8* %101, align 1
  %142 = icmp slt i8 %141, 0
  br i1 %142, label %145, label %143

143:                                              ; preds = %137
  %144 = bitcast %"class.std::__1::basic_string"* %140 to i8*
  call void @llvm.memcpy.p0i8.p0i8.i64(i8* align 8 %144, i8* align 8 %97, i64 24, i1 false) #16
  br label %148

145:                                              ; preds = %137
  %146 = load i8*, i8** %102, align 8
  %147 = load i64, i64* %103, align 8
  call void @_ZNSt3__112basic_stringIcNS_11char_traitsIcEENS_9allocatorIcEEE25__init_copy_ctor_externalEPKcm(%"class.std::__1::basic_string"* %140, i8* %146, i64 %147) #16
  br label %148

148:                                              ; preds = %145, %143
  %149 = getelementptr inbounds %"class.cloud_devices::printer::VendorCapability", %"class.cloud_devices::printer::VendorCapability"* %134, i64 0, i32 2
  %150 = load i8, i8* %106, align 1
  %151 = icmp slt i8 %150, 0
  br i1 %151, label %154, label %152

152:                                              ; preds = %148
  %153 = bitcast %"class.std::__1::basic_string"* %149 to i8*
  call void @llvm.memcpy.p0i8.p0i8.i64(i8* align 8 %153, i8* align 8 %107, i64 24, i1 false) #16
  br label %157

154:                                              ; preds = %148
  %155 = load i8*, i8** %108, align 8
  %156 = load i64, i64* %109, align 8
  call void @_ZNSt3__112basic_stringIcNS_11char_traitsIcEENS_9allocatorIcEEE25__init_copy_ctor_externalEPKcm(%"class.std::__1::basic_string"* %149, i8* %155, i64 %156) #16
  br label %157

157:                                              ; preds = %154, %152
  %158 = load i32, i32* %138, align 8
  switch i32 %158, label %186 [
    i32 3, label %181
    i32 1, label %159
    i32 2, label %168
  ]

159:                                              ; preds = %157
  %160 = getelementptr inbounds %"class.cloud_devices::printer::VendorCapability", %"class.cloud_devices::printer::VendorCapability"* %134, i64 0, i32 3, i32 0, i32 0
  %161 = load i32, i32* %118, align 8
  store i32 %161, i32* %160, align 8
  %162 = getelementptr inbounds %"class.cloud_devices::printer::VendorCapability", %"class.cloud_devices::printer::VendorCapability"* %134, i64 0, i32 3, i32 0, i32 1
  %163 = bitcast %"class.std::__1::basic_string"* %162 to i8*
  call void @llvm.memcpy.p0i8.p0i8.i64(i8* align 8 %163, i8* align 8 %119, i64 24, i1 false) #16
  call void @llvm.memset.p0i8.i64(i8* align 8 %119, i8 0, i64 24, i1 false) #16
  %164 = getelementptr inbounds %"class.cloud_devices::printer::VendorCapability", %"class.cloud_devices::printer::VendorCapability"* %134, i64 0, i32 3, i32 0, i32 2
  %165 = bitcast %"class.std::__1::basic_string"* %164 to i8*
  call void @llvm.memcpy.p0i8.p0i8.i64(i8* align 8 %165, i8* align 8 %121, i64 24, i1 false) #16
  call void @llvm.memset.p0i8.i64(i8* align 8 %121, i8 0, i64 24, i1 false) #16
  %166 = getelementptr inbounds %"class.cloud_devices::printer::VendorCapability", %"class.cloud_devices::printer::VendorCapability"* %134, i64 0, i32 3, i32 0, i32 3
  %167 = bitcast %"class.std::__1::basic_string"* %166 to i8*
  call void @llvm.memcpy.p0i8.p0i8.i64(i8* align 8 %167, i8* align 8 %123, i64 24, i1 false) #16
  call void @llvm.memset.p0i8.i64(i8* align 8 %123, i8 0, i64 24, i1 false) #16
  br label %186

168:                                              ; preds = %157
  %169 = getelementptr inbounds %"class.cloud_devices::printer::VendorCapability", %"class.cloud_devices::printer::VendorCapability"* %134, i64 0, i32 3
  %170 = bitcast %union.anon.52* %169 to i8*
  call void @llvm.memset.p0i8.i64(i8* align 8 %170, i8 0, i64 24, i1 false) #16
  %171 = load i64, i64* %111, align 8
  %172 = bitcast %union.anon.52* %169 to i64*
  store i64 %171, i64* %172, align 8
  %173 = load i64, i64* %113, align 8
  %174 = getelementptr inbounds %"class.cloud_devices::printer::VendorCapability", %"class.cloud_devices::printer::VendorCapability"* %134, i64 0, i32 3, i32 0, i32 1
  %175 = bitcast %"class.std::__1::basic_string"* %174 to i64*
  store i64 %173, i64* %175, align 8
  %176 = load i64, i64* %114, align 8
  %177 = getelementptr inbounds %"class.cloud_devices::printer::VendorCapability", %"class.cloud_devices::printer::VendorCapability"* %134, i64 0, i32 3, i32 0, i32 1, i32 0, i32 0, i32 0, i32 0, i32 0, i32 1
  store i64 %176, i64* %177, align 8
  call void @llvm.memset.p0i8.i64(i8* align 8 %115, i8 0, i64 24, i1 false) #16
  %178 = getelementptr inbounds %"class.cloud_devices::printer::VendorCapability", %"class.cloud_devices::printer::VendorCapability"* %134, i64 0, i32 3, i32 0, i32 1, i32 0, i32 0, i32 0, i32 0, i32 0, i32 2
  %179 = bitcast i64* %178 to i32*
  %180 = load i32, i32* %117, align 8
  store i32 %180, i32* %179, align 8
  br label %186

181:                                              ; preds = %157
  %182 = getelementptr inbounds %"class.cloud_devices::printer::VendorCapability", %"class.cloud_devices::printer::VendorCapability"* %134, i64 0, i32 3, i32 0, i32 0
  %183 = load i32, i32* %118, align 8
  store i32 %183, i32* %182, align 8
  %184 = getelementptr inbounds %"class.cloud_devices::printer::VendorCapability", %"class.cloud_devices::printer::VendorCapability"* %134, i64 0, i32 3, i32 0, i32 1
  %185 = bitcast %"class.std::__1::basic_string"* %184 to i8*
  call void @llvm.memcpy.p0i8.p0i8.i64(i8* align 8 %185, i8* align 8 %119, i64 24, i1 false) #16
  call void @llvm.memset.p0i8.i64(i8* align 8 %119, i8 0, i64 24, i1 false) #16
  br label %186

186:                                              ; preds = %157, %159, %168, %181
  %187 = getelementptr inbounds %"class.cloud_devices::printer::VendorCapability", %"class.cloud_devices::printer::VendorCapability"* %134, i64 1
  %188 = ptrtoint %"class.cloud_devices::printer::VendorCapability"* %187 to i64
  store i64 %188, i64* %124, align 8
  br label %190

189:                                              ; preds = %133
  call void @_ZNSt3__16vectorIN13cloud_devices7printer16VendorCapabilityENS_9allocatorIS3_EEE24__emplace_back_slow_pathIJS3_EEEvDpOT_(%"class.std::__1::vector.50"* %99, %"class.cloud_devices::printer::VendorCapability"* nonnull dereferenceable(136) %6) #16
  br label %190

190:                                              ; preds = %189, %186, %125, %131
  %191 = phi i32 [ 1, %131 ], [ 1, %125 ], [ 0, %186 ], [ 0, %189 ]
  call void @_ZN13cloud_devices7printer16VendorCapability15InternalCleanupEv(%"class.cloud_devices::printer::VendorCapability"* nonnull %6) #16
  %192 = load i8, i8* %106, align 1
  %193 = icmp slt i8 %192, 0
  br i1 %193, label %194, label %196

194:                                              ; preds = %190
  %195 = load i8*, i8** %108, align 8
  call void @_ZdlPv(i8* %195) #17
  br label %196

196:                                              ; preds = %194, %190
  %197 = load i8, i8* %101, align 1
  %198 = icmp slt i8 %197, 0
  br i1 %198, label %199, label %201

199:                                              ; preds = %196
  %200 = load i8*, i8** %102, align 8
  call void @_ZdlPv(i8* %200) #17
  br label %201

201:                                              ; preds = %196, %199
  call void @llvm.lifetime.end.p0i8(i64 136, i8* nonnull %94) #16
  %202 = icmp eq i32 %191, 0
  br i1 %202, label %203, label %208

203:                                              ; preds = %201
  %204 = call dereferenceable(24) %"class.base::CheckedContiguousIterator"* @_ZN4base25CheckedContiguousIteratorIKNS_5ValueEEppEv(%"class.base::CheckedContiguousIterator"* nonnull %4)
  call void @_ZNK4base25CheckedContiguousIteratorIKNS_5ValueEE15CheckComparableERKS3_(%"class.base::CheckedContiguousIterator"* nonnull %4, %"class.base::CheckedContiguousIterator"* nonnull dereferenceable(24) %5) #16
  %205 = load %"class.base::Value"*, %"class.base::Value"** %56, align 8
  %206 = load %"class.base::Value"*, %"class.base::Value"** %73, align 8
  %207 = icmp eq %"class.base::Value"* %205, %206
  br i1 %207, label %209, label %125

208:                                              ; preds = %201
  call void @llvm.lifetime.end.p0i8(i64 24, i8* nonnull %72) #16
  call void @llvm.lifetime.end.p0i8(i64 24, i8* nonnull %55) #16
  br label %229

209:                                              ; preds = %203, %85
  call void @llvm.lifetime.end.p0i8(i64 24, i8* nonnull %72) #16
  call void @llvm.lifetime.end.p0i8(i64 24, i8* nonnull %55) #16
  %210 = load %"class.cloud_devices::printer::VendorCapability"*, %"class.cloud_devices::printer::VendorCapability"** %7, align 8
  %211 = load %"class.cloud_devices::printer::VendorCapability"*, %"class.cloud_devices::printer::VendorCapability"** %9, align 8
  %212 = icmp eq %"class.cloud_devices::printer::VendorCapability"* %210, %211
  br i1 %212, label %229, label %213

213:                                              ; preds = %209
  %214 = bitcast %"class.cloud_devices::printer::VendorCapability"** %9 to i64*
  %215 = bitcast %"class.cloud_devices::ListCapability.49"* %0 to i64*
  br label %223

216:                                              ; preds = %223
  %217 = load i64, i64* %214, align 8
  %218 = load i64, i64* %215, align 8
  %219 = sub i64 %217, %218
  %220 = sdiv exact i64 %219, 136
  %221 = icmp ult i64 %228, %220
  %222 = inttoptr i64 %218 to %"class.cloud_devices::printer::VendorCapability"*
  br i1 %221, label %223, label %229

223:                                              ; preds = %216, %213
  %224 = phi %"class.cloud_devices::printer::VendorCapability"* [ %210, %213 ], [ %222, %216 ]
  %225 = phi i64 [ 0, %213 ], [ %228, %216 ]
  %226 = getelementptr inbounds %"class.cloud_devices::printer::VendorCapability", %"class.cloud_devices::printer::VendorCapability"* %224, i64 %225
  %227 = call zeroext i1 @_ZNK13cloud_devices7printer16VendorCapability7IsValidEv(%"class.cloud_devices::printer::VendorCapability"* %226) #16
  %228 = add nuw i64 %225, 1
  br i1 %227, label %216, label %229

229:                                              ; preds = %223, %216, %209, %208, %51
  %230 = phi i1 [ false, %208 ], [ false, %51 ], [ false, %209 ], [ true, %216 ], [ false, %223 ]
  ret i1 %230
}

; Function Attrs: argmemonly nounwind
declare void @llvm.memset.p0i8.i64(i8* nocapture writeonly, i8, i64, i1 immarg) #1

; Function Attrs: nounwind ssp uwtable
define weak_odr hidden void @_ZN13cloud_devices14ListCapabilityINS_7printer16VendorCapabilityENS1_22VendorCapabilityTraitsEE9AddOptionEOS2_(%"class.cloud_devices::ListCapability.49"*, %"class.cloud_devices::printer::VendorCapability"* dereferenceable(136)) local_unnamed_addr #0 comdat align 2 {
  %3 = getelementptr inbounds %"class.cloud_devices::ListCapability.49", %"class.cloud_devices::ListCapability.49"* %0, i64 0, i32 0, i32 0, i32 1
  %4 = load %"class.cloud_devices::printer::VendorCapability"*, %"class.cloud_devices::printer::VendorCapability"** %3, align 8
  %5 = getelementptr inbounds %"class.cloud_devices::ListCapability.49", %"class.cloud_devices::ListCapability.49"* %0, i64 0, i32 0, i32 0, i32 2, i32 0, i32 0
  %6 = load %"class.cloud_devices::printer::VendorCapability"*, %"class.cloud_devices::printer::VendorCapability"** %5, align 8
  %7 = icmp ult %"class.cloud_devices::printer::VendorCapability"* %4, %6
  br i1 %7, label %8, label %12

8:                                                ; preds = %2
  tail call void @_ZN13cloud_devices7printer16VendorCapabilityC2EOS1_(%"class.cloud_devices::printer::VendorCapability"* %4, %"class.cloud_devices::printer::VendorCapability"* dereferenceable(136) %1) #16
  %9 = getelementptr inbounds %"class.cloud_devices::printer::VendorCapability", %"class.cloud_devices::printer::VendorCapability"* %4, i64 1
  %10 = ptrtoint %"class.cloud_devices::printer::VendorCapability"* %9 to i64
  %11 = bitcast %"class.cloud_devices::printer::VendorCapability"** %3 to i64*
  store i64 %10, i64* %11, align 8
  br label %14

12:                                               ; preds = %2
  %13 = getelementptr inbounds %"class.cloud_devices::ListCapability.49", %"class.cloud_devices::ListCapability.49"* %0, i64 0, i32 0
  tail call void @_ZNSt3__16vectorIN13cloud_devices7printer16VendorCapabilityENS_9allocatorIS3_EEE24__emplace_back_slow_pathIJS3_EEEvDpOT_(%"class.std::__1::vector.50"* %13, %"class.cloud_devices::printer::VendorCapability"* dereferenceable(136) %1) #16
  br label %14

14:                                               ; preds = %8, %12
  ret void
}

; Function Attrs: nounwind ssp uwtable
define weak_odr hidden zeroext i1 @_ZNK13cloud_devices14ListCapabilityINS_7printer16VendorCapabilityENS1_22VendorCapabilityTraitsEE7IsValidEv(%"class.cloud_devices::ListCapability.49"*) local_unnamed_addr #0 comdat align 2 {
  %2 = getelementptr inbounds %"class.cloud_devices::ListCapability.49", %"class.cloud_devices::ListCapability.49"* %0, i64 0, i32 0, i32 0, i32 0
  %3 = load %"class.cloud_devices::printer::VendorCapability"*, %"class.cloud_devices::printer::VendorCapability"** %2, align 8
  %4 = getelementptr inbounds %"class.cloud_devices::ListCapability.49", %"class.cloud_devices::ListCapability.49"* %0, i64 0, i32 0, i32 0, i32 1
  %5 = load %"class.cloud_devices::printer::VendorCapability"*, %"class.cloud_devices::printer::VendorCapability"** %4, align 8
  %6 = icmp eq %"class.cloud_devices::printer::VendorCapability"* %3, %5
  br i1 %6, label %23, label %7

7:                                                ; preds = %1
  %8 = bitcast %"class.cloud_devices::printer::VendorCapability"** %4 to i64*
  %9 = bitcast %"class.cloud_devices::ListCapability.49"* %0 to i64*
  br label %17

10:                                               ; preds = %17
  %11 = load i64, i64* %8, align 8
  %12 = load i64, i64* %9, align 8
  %13 = sub i64 %11, %12
  %14 = sdiv exact i64 %13, 136
  %15 = icmp ult i64 %22, %14
  %16 = inttoptr i64 %12 to %"class.cloud_devices::printer::VendorCapability"*
  br i1 %15, label %17, label %23

17:                                               ; preds = %7, %10
  %18 = phi %"class.cloud_devices::printer::VendorCapability"* [ %3, %7 ], [ %16, %10 ]
  %19 = phi i64 [ 0, %7 ], [ %22, %10 ]
  %20 = getelementptr inbounds %"class.cloud_devices::printer::VendorCapability", %"class.cloud_devices::printer::VendorCapability"* %18, i64 %19
  %21 = tail call zeroext i1 @_ZNK13cloud_devices7printer16VendorCapability7IsValidEv(%"class.cloud_devices::printer::VendorCapability"* %20) #16
  %22 = add nuw i64 %19, 1
  br i1 %21, label %10, label %23

23:                                               ; preds = %17, %10, %1
  %24 = phi i1 [ false, %1 ], [ false, %17 ], [ true, %10 ]
  ret i1 %24
}

; Function Attrs: nounwind ssp uwtable
define weak_odr hidden void @_ZNK13cloud_devices14ListCapabilityINS_7printer16VendorCapabilityENS1_22VendorCapabilityTraitsEE6SaveToEPNS_22CloudDeviceDescriptionE(%"class.cloud_devices::ListCapability.49"*, %"class.cloud_devices::CloudDeviceDescription"*) local_unnamed_addr #0 comdat align 2 {
  %3 = alloca %"class.std::__1::vector.35", align 8
  %4 = alloca %"class.base::Value", align 8
  %5 = bitcast %"class.std::__1::vector.35"* %3 to i8*
  call void @llvm.lifetime.start.p0i8(i64 24, i8* nonnull %5) #16
  %6 = tail call i8* @_Znwm(i64 32) #17, !noalias !21
  %7 = getelementptr inbounds %"class.std::__1::vector.35", %"class.std::__1::vector.35"* %3, i64 0, i32 0, i32 1
  %8 = bitcast %"class.std::__1::vector.35"* %3 to i8**
  store i8* %6, i8** %8, align 8, !alias.scope !21
  %9 = getelementptr inbounds i8, i8* %6, i64 32
  %10 = getelementptr inbounds %"class.std::__1::vector.35", %"class.std::__1::vector.35"* %3, i64 0, i32 0, i32 2, i32 0, i32 0
  %11 = bitcast %"class.base::BasicStringPiece"** %10 to i8**
  store i8* %9, i8** %11, align 8, !alias.scope !21
  %12 = bitcast %"class.base::BasicStringPiece"** %7 to i64*
  tail call void @llvm.memcpy.p0i8.p0i8.i64(i8* nonnull align 8 %6, i8* align 8 bitcast ([2 x %"class.base::BasicStringPiece"]* @.ref.tmp.180 to i8*), i64 32, i1 false) #16, !noalias !21
  %13 = ptrtoint i8* %9 to i64
  store i64 %13, i64* %12, align 8, !alias.scope !21
  %14 = call %"class.base::Value"* @_ZN13cloud_devices22CloudDeviceDescription10CreateItemERKNSt3__16vectorIN4base16BasicStringPieceIcNS1_11char_traitsIcEEEENS1_9allocatorIS7_EEEENS3_5Value4TypeE(%"class.cloud_devices::CloudDeviceDescription"* %1, %"class.std::__1::vector.35"* nonnull dereferenceable(24) %3, i8 zeroext 7) #16
  %15 = getelementptr inbounds %"class.std::__1::vector.35", %"class.std::__1::vector.35"* %3, i64 0, i32 0, i32 0
  %16 = load %"class.base::BasicStringPiece"*, %"class.base::BasicStringPiece"** %15, align 8
  %17 = icmp eq %"class.base::BasicStringPiece"* %16, null
  br i1 %17, label %21, label %18

18:                                               ; preds = %2
  %19 = ptrtoint %"class.base::BasicStringPiece"* %16 to i64
  store i64 %19, i64* %12, align 8
  %20 = bitcast %"class.base::BasicStringPiece"* %16 to i8*
  call void @_ZdlPv(i8* %20) #17
  br label %21

21:                                               ; preds = %2, %18
  call void @llvm.lifetime.end.p0i8(i64 24, i8* nonnull %5) #16
  %22 = getelementptr inbounds %"class.cloud_devices::ListCapability.49", %"class.cloud_devices::ListCapability.49"* %0, i64 0, i32 0, i32 0, i32 0
  %23 = load %"class.cloud_devices::printer::VendorCapability"*, %"class.cloud_devices::printer::VendorCapability"** %22, align 8
  %24 = getelementptr inbounds %"class.cloud_devices::ListCapability.49", %"class.cloud_devices::ListCapability.49"* %0, i64 0, i32 0, i32 0, i32 1
  %25 = load %"class.cloud_devices::printer::VendorCapability"*, %"class.cloud_devices::printer::VendorCapability"** %24, align 8
  %26 = icmp eq %"class.cloud_devices::printer::VendorCapability"* %23, %25
  br i1 %26, label %30, label %27

27:                                               ; preds = %21
  %28 = bitcast %"class.base::Value"* %4 to i8*
  %29 = bitcast %"class.base::Value"* %4 to i8*
  br label %31

30:                                               ; preds = %31, %21
  ret void

31:                                               ; preds = %27, %31
  %32 = phi %"class.cloud_devices::printer::VendorCapability"* [ %23, %27 ], [ %33, %31 ]
  call void @llvm.lifetime.start.p0i8(i64 32, i8* nonnull %28) #16
  call void @llvm.memset.p0i8.i64(i8* nonnull align 8 %29, i8 -86, i64 32, i1 false)
  call void @_ZN4base5ValueC1ENS0_4TypeE(%"class.base::Value"* nonnull %4, i8 zeroext 6) #16
  call void @_ZNK13cloud_devices7printer16VendorCapability6SaveToEPN4base5ValueE(%"class.cloud_devices::printer::VendorCapability"* %32, %"class.base::Value"* nonnull %4) #16
  call void @_ZN4base5Value6AppendEOS0_(%"class.base::Value"* %14, %"class.base::Value"* nonnull dereferenceable(32) %4) #16
  call void @_ZN4base5ValueD1Ev(%"class.base::Value"* nonnull %4) #16
  call void @llvm.lifetime.end.p0i8(i64 32, i8* nonnull %28) #16
  %33 = getelementptr inbounds %"class.cloud_devices::printer::VendorCapability", %"class.cloud_devices::printer::VendorCapability"* %32, i64 1
  %34 = icmp eq %"class.cloud_devices::printer::VendorCapability"* %33, %25
  br i1 %34, label %30, label %31
}

; Function Attrs: nounwind ssp uwtable
define weak_odr hidden zeroext i1 @_ZNK13cloud_devices14ListCapabilityINS_7printer16VendorCapabilityENS1_22VendorCapabilityTraitsEE5emptyEv(%"class.cloud_devices::ListCapability.49"*) local_unnamed_addr #0 comdat align 2 {
  %2 = getelementptr inbounds %"class.cloud_devices::ListCapability.49", %"class.cloud_devices::ListCapability.49"* %0, i64 0, i32 0, i32 0, i32 0
  %3 = load %"class.cloud_devices::printer::VendorCapability"*, %"class.cloud_devices::printer::VendorCapability"** %2, align 8
  %4 = getelementptr inbounds %"class.cloud_devices::ListCapability.49", %"class.cloud_devices::ListCapability.49"* %0, i64 0, i32 0, i32 0, i32 1
  %5 = load %"class.cloud_devices::printer::VendorCapability"*, %"class.cloud_devices::printer::VendorCapability"** %4, align 8
  %6 = icmp eq %"class.cloud_devices::printer::VendorCapability"* %3, %5
  ret i1 %6
}

; Function Attrs: nounwind ssp uwtable
define weak_odr hidden i64 @_ZNK13cloud_devices14ListCapabilityINS_7printer16VendorCapabilityENS1_22VendorCapabilityTraitsEE4sizeEv(%"class.cloud_devices::ListCapability.49"*) local_unnamed_addr #0 comdat align 2 {
  %2 = getelementptr inbounds %"class.cloud_devices::ListCapability.49", %"class.cloud_devices::ListCapability.49"* %0, i64 0, i32 0, i32 0, i32 1
  %3 = bitcast %"class.cloud_devices::printer::VendorCapability"** %2 to i64*
  %4 = load i64, i64* %3, align 8
  %5 = bitcast %"class.cloud_devices::ListCapability.49"* %0 to i64*
  %6 = load i64, i64* %5, align 8
  %7 = sub i64 %4, %6
  %8 = sdiv exact i64 %7, 136
  ret i64 %8
}

; Function Attrs: nounwind ssp uwtable
define weak_odr hidden dereferenceable(136) %"class.cloud_devices::printer::VendorCapability"* @_ZNK13cloud_devices14ListCapabilityINS_7printer16VendorCapabilityENS1_22VendorCapabilityTraitsEEixEm(%"class.cloud_devices::ListCapability.49"*, i64) local_unnamed_addr #0 comdat align 2 {
  %3 = getelementptr inbounds %"class.cloud_devices::ListCapability.49", %"class.cloud_devices::ListCapability.49"* %0, i64 0, i32 0, i32 0, i32 0
  %4 = load %"class.cloud_devices::printer::VendorCapability"*, %"class.cloud_devices::printer::VendorCapability"** %3, align 8
  %5 = getelementptr inbounds %"class.cloud_devices::printer::VendorCapability", %"class.cloud_devices::printer::VendorCapability"* %4, i64 %1
  ret %"class.cloud_devices::printer::VendorCapability"* %5
}

; Function Attrs: nounwind ssp uwtable
define weak_odr hidden zeroext i1 @_ZNK13cloud_devices14ListCapabilityINS_7printer16VendorCapabilityENS1_22VendorCapabilityTraitsEE8ContainsERKS2_(%"class.cloud_devices::ListCapability.49"*, %"class.cloud_devices::printer::VendorCapability"* dereferenceable(136)) local_unnamed_addr #0 comdat align 2 {
  %3 = getelementptr inbounds %"class.cloud_devices::ListCapability.49", %"class.cloud_devices::ListCapability.49"* %0, i64 0, i32 0, i32 0, i32 0
  %4 = load %"class.cloud_devices::printer::VendorCapability"*, %"class.cloud_devices::printer::VendorCapability"** %3, align 8
  %5 = getelementptr inbounds %"class.cloud_devices::ListCapability.49", %"class.cloud_devices::ListCapability.49"* %0, i64 0, i32 0, i32 0, i32 1
  %6 = load %"class.cloud_devices::printer::VendorCapability"*, %"class.cloud_devices::printer::VendorCapability"** %5, align 8
  %7 = icmp eq %"class.cloud_devices::printer::VendorCapability"* %4, %6
  br i1 %7, label %14, label %8

8:                                                ; preds = %2, %11
  %9 = phi %"class.cloud_devices::printer::VendorCapability"* [ %12, %11 ], [ %4, %2 ]
  %10 = tail call zeroext i1 @_ZNK13cloud_devices7printer16VendorCapabilityeqERKS1_(%"class.cloud_devices::printer::VendorCapability"* %9, %"class.cloud_devices::printer::VendorCapability"* dereferenceable(136) %1) #16
  br i1 %10, label %14, label %11

11:                                               ; preds = %8
  %12 = getelementptr inbounds %"class.cloud_devices::printer::VendorCapability", %"class.cloud_devices::printer::VendorCapability"* %9, i64 1
  %13 = icmp eq %"class.cloud_devices::printer::VendorCapability"* %12, %6
  br i1 %13, label %14, label %8

14:                                               ; preds = %8, %11, %2
  %15 = phi %"class.cloud_devices::printer::VendorCapability"* [ %4, %2 ], [ %6, %11 ], [ %9, %8 ]
  %16 = icmp ne %"class.cloud_devices::printer::VendorCapability"* %15, %6
  ret i1 %16
}

; Function Attrs: nounwind ssp uwtable
define weak_odr hidden void @_ZN13cloud_devices19SelectionCapabilityINS_7printer28SelectVendorCapabilityOptionENS1_28SelectVendorCapabilityTraitsEEC2Ev(%"class.cloud_devices::SelectionCapability"*) unnamed_addr #0 comdat($_ZN13cloud_devices19SelectionCapabilityINS_7printer28SelectVendorCapabilityOptionENS1_28SelectVendorCapabilityTraitsEEC5Ev) align 2 {
  %2 = bitcast %"class.cloud_devices::SelectionCapability"* %0 to i8*
  tail call void @llvm.memset.p0i8.i64(i8* align 8 %2, i8 0, i64 24, i1 false) #16
  %3 = getelementptr inbounds %"class.cloud_devices::SelectionCapability", %"class.cloud_devices::SelectionCapability"* %0, i64 0, i32 0, i32 0, i32 1
  store %"struct.cloud_devices::printer::SelectVendorCapabilityOption"* null, %"struct.cloud_devices::printer::SelectVendorCapabilityOption"** %3, align 8
  %4 = getelementptr inbounds %"class.cloud_devices::SelectionCapability", %"class.cloud_devices::SelectionCapability"* %0, i64 0, i32 1
  store i32 -1, i32* %4, align 8
  ret void
}

; Function Attrs: nounwind ssp uwtable
define weak_odr hidden void @_ZN13cloud_devices19SelectionCapabilityINS_7printer28SelectVendorCapabilityOptionENS1_28SelectVendorCapabilityTraitsEE5ResetEv(%"class.cloud_devices::SelectionCapability"*) local_unnamed_addr #0 comdat align 2 {
  %2 = getelementptr inbounds %"class.cloud_devices::SelectionCapability", %"class.cloud_devices::SelectionCapability"* %0, i64 0, i32 0, i32 0, i32 0
  %3 = load %"struct.cloud_devices::printer::SelectVendorCapabilityOption"*, %"struct.cloud_devices::printer::SelectVendorCapabilityOption"** %2, align 8
  %4 = getelementptr inbounds %"class.cloud_devices::SelectionCapability", %"class.cloud_devices::SelectionCapability"* %0, i64 0, i32 0, i32 0, i32 1
  %5 = load %"struct.cloud_devices::printer::SelectVendorCapabilityOption"*, %"struct.cloud_devices::printer::SelectVendorCapabilityOption"** %4, align 8
  %6 = icmp eq %"struct.cloud_devices::printer::SelectVendorCapabilityOption"* %5, %3
  br i1 %6, label %28, label %7

7:                                                ; preds = %1, %26
  %8 = phi %"struct.cloud_devices::printer::SelectVendorCapabilityOption"* [ %9, %26 ], [ %5, %1 ]
  %9 = getelementptr inbounds %"struct.cloud_devices::printer::SelectVendorCapabilityOption", %"struct.cloud_devices::printer::SelectVendorCapabilityOption"* %8, i64 -1
  %10 = getelementptr inbounds %"struct.cloud_devices::printer::SelectVendorCapabilityOption", %"struct.cloud_devices::printer::SelectVendorCapabilityOption"* %8, i64 -1, i32 1
  %11 = bitcast %"class.std::__1::basic_string"* %10 to %"struct.std::__1::basic_string<char, std::__1::char_traits<char>, std::__1::allocator<char> >::__short"*
  %12 = getelementptr inbounds %"struct.std::__1::basic_string<char, std::__1::char_traits<char>, std::__1::allocator<char> >::__short", %"struct.std::__1::basic_string<char, std::__1::char_traits<char>, std::__1::allocator<char> >::__short"* %11, i64 0, i32 1, i32 0
  %13 = load i8, i8* %12, align 1
  %14 = icmp slt i8 %13, 0
  br i1 %14, label %15, label %18

15:                                               ; preds = %7
  %16 = getelementptr inbounds %"class.std::__1::basic_string", %"class.std::__1::basic_string"* %10, i64 0, i32 0, i32 0, i32 0, i32 0, i32 0, i32 0
  %17 = load i8*, i8** %16, align 8
  tail call void @_ZdlPv(i8* %17) #17
  br label %18

18:                                               ; preds = %15, %7
  %19 = bitcast %"struct.cloud_devices::printer::SelectVendorCapabilityOption"* %9 to %"struct.std::__1::basic_string<char, std::__1::char_traits<char>, std::__1::allocator<char> >::__short"*
  %20 = getelementptr inbounds %"struct.std::__1::basic_string<char, std::__1::char_traits<char>, std::__1::allocator<char> >::__short", %"struct.std::__1::basic_string<char, std::__1::char_traits<char>, std::__1::allocator<char> >::__short"* %19, i64 0, i32 1, i32 0
  %21 = load i8, i8* %20, align 1
  %22 = icmp slt i8 %21, 0
  br i1 %22, label %23, label %26

23:                                               ; preds = %18
  %24 = getelementptr inbounds %"struct.cloud_devices::printer::SelectVendorCapabilityOption", %"struct.cloud_devices::printer::SelectVendorCapabilityOption"* %9, i64 0, i32 0, i32 0, i32 0, i32 0, i32 0, i32 0, i32 0
  %25 = load i8*, i8** %24, align 8
  tail call void @_ZdlPv(i8* %25) #17
  br label %26

26:                                               ; preds = %23, %18
  %27 = icmp eq %"struct.cloud_devices::printer::SelectVendorCapabilityOption"* %9, %3
  br i1 %27, label %28, label %7

28:                                               ; preds = %26, %1
  store %"struct.cloud_devices::printer::SelectVendorCapabilityOption"* %3, %"struct.cloud_devices::printer::SelectVendorCapabilityOption"** %4, align 8
  %29 = getelementptr inbounds %"class.cloud_devices::SelectionCapability", %"class.cloud_devices::SelectionCapability"* %0, i64 0, i32 1
  store i32 -1, i32* %29, align 8
  ret void
}

; Function Attrs: nounwind ssp uwtable
define weak_odr hidden void @_ZN13cloud_devices19SelectionCapabilityINS_7printer28SelectVendorCapabilityOptionENS1_28SelectVendorCapabilityTraitsEEC2EOS4_(%"class.cloud_devices::SelectionCapability"*, %"class.cloud_devices::SelectionCapability"* dereferenceable(32)) unnamed_addr #0 comdat($_ZN13cloud_devices19SelectionCapabilityINS_7printer28SelectVendorCapabilityOptionENS1_28SelectVendorCapabilityTraitsEEC5EOS4_) align 2 {
  %3 = bitcast %"class.cloud_devices::SelectionCapability"* %0 to i8*
  tail call void @llvm.memset.p0i8.i64(i8* align 8 %3, i8 0, i64 24, i1 false) #16
  %4 = bitcast %"class.cloud_devices::SelectionCapability"* %1 to i64*
  %5 = load i64, i64* %4, align 8
  %6 = bitcast %"class.cloud_devices::SelectionCapability"* %0 to i64*
  store i64 %5, i64* %6, align 8
  %7 = getelementptr inbounds %"class.cloud_devices::SelectionCapability", %"class.cloud_devices::SelectionCapability"* %1, i64 0, i32 0, i32 0, i32 1
  %8 = bitcast %"struct.cloud_devices::printer::SelectVendorCapabilityOption"** %7 to i64*
  %9 = load i64, i64* %8, align 8
  %10 = getelementptr inbounds %"class.cloud_devices::SelectionCapability", %"class.cloud_devices::SelectionCapability"* %0, i64 0, i32 0, i32 0, i32 1
  %11 = bitcast %"struct.cloud_devices::printer::SelectVendorCapabilityOption"** %10 to i64*
  store i64 %9, i64* %11, align 8
  %12 = getelementptr inbounds %"class.cloud_devices::SelectionCapability", %"class.cloud_devices::SelectionCapability"* %1, i64 0, i32 0, i32 0, i32 2, i32 0, i32 0
  %13 = bitcast %"struct.cloud_devices::printer::SelectVendorCapabilityOption"** %12 to i64*
  %14 = load i64, i64* %13, align 8
  %15 = getelementptr inbounds %"class.cloud_devices::SelectionCapability", %"class.cloud_devices::SelectionCapability"* %0, i64 0, i32 0, i32 0, i32 2, i32 0, i32 0
  %16 = bitcast %"struct.cloud_devices::printer::SelectVendorCapabilityOption"** %15 to i64*
  store i64 %14, i64* %16, align 8
  %17 = bitcast %"class.cloud_devices::SelectionCapability"* %1 to i8*
  tail call void @llvm.memset.p0i8.i64(i8* align 8 %17, i8 0, i64 24, i1 false) #16
  %18 = getelementptr inbounds %"class.cloud_devices::SelectionCapability", %"class.cloud_devices::SelectionCapability"* %0, i64 0, i32 1
  %19 = getelementptr inbounds %"class.cloud_devices::SelectionCapability", %"class.cloud_devices::SelectionCapability"* %1, i64 0, i32 1
  %20 = load i32, i32* %19, align 8
  store i32 %20, i32* %18, align 8
  ret void
}

; Function Attrs: nounwind ssp uwtable
define weak_odr hidden void @_ZN13cloud_devices19SelectionCapabilityINS_7printer28SelectVendorCapabilityOptionENS1_28SelectVendorCapabilityTraitsEED2Ev(%"class.cloud_devices::SelectionCapability"*) unnamed_addr #0 comdat($_ZN13cloud_devices19SelectionCapabilityINS_7printer28SelectVendorCapabilityOptionENS1_28SelectVendorCapabilityTraitsEED5Ev) align 2 {
  %2 = getelementptr inbounds %"class.cloud_devices::SelectionCapability", %"class.cloud_devices::SelectionCapability"* %0, i64 0, i32 0, i32 0, i32 0
  %3 = load %"struct.cloud_devices::printer::SelectVendorCapabilityOption"*, %"struct.cloud_devices::printer::SelectVendorCapabilityOption"** %2, align 8
  %4 = icmp eq %"struct.cloud_devices::printer::SelectVendorCapabilityOption"* %3, null
  br i1 %4, label %36, label %5

5:                                                ; preds = %1
  %6 = bitcast %"struct.cloud_devices::printer::SelectVendorCapabilityOption"* %3 to i8*
  %7 = getelementptr inbounds %"class.cloud_devices::SelectionCapability", %"class.cloud_devices::SelectionCapability"* %0, i64 0, i32 0, i32 0, i32 1
  %8 = load %"struct.cloud_devices::printer::SelectVendorCapabilityOption"*, %"struct.cloud_devices::printer::SelectVendorCapabilityOption"** %7, align 8
  %9 = icmp eq %"struct.cloud_devices::printer::SelectVendorCapabilityOption"* %8, %3
  br i1 %9, label %34, label %10

10:                                               ; preds = %5, %29
  %11 = phi %"struct.cloud_devices::printer::SelectVendorCapabilityOption"* [ %12, %29 ], [ %8, %5 ]
  %12 = getelementptr inbounds %"struct.cloud_devices::printer::SelectVendorCapabilityOption", %"struct.cloud_devices::printer::SelectVendorCapabilityOption"* %11, i64 -1
  %13 = getelementptr inbounds %"struct.cloud_devices::printer::SelectVendorCapabilityOption", %"struct.cloud_devices::printer::SelectVendorCapabilityOption"* %11, i64 -1, i32 1
  %14 = bitcast %"class.std::__1::basic_string"* %13 to %"struct.std::__1::basic_string<char, std::__1::char_traits<char>, std::__1::allocator<char> >::__short"*
  %15 = getelementptr inbounds %"struct.std::__1::basic_string<char, std::__1::char_traits<char>, std::__1::allocator<char> >::__short", %"struct.std::__1::basic_string<char, std::__1::char_traits<char>, std::__1::allocator<char> >::__short"* %14, i64 0, i32 1, i32 0
  %16 = load i8, i8* %15, align 1
  %17 = icmp slt i8 %16, 0
  br i1 %17, label %18, label %21

18:                                               ; preds = %10
  %19 = getelementptr inbounds %"class.std::__1::basic_string", %"class.std::__1::basic_string"* %13, i64 0, i32 0, i32 0, i32 0, i32 0, i32 0, i32 0
  %20 = load i8*, i8** %19, align 8
  tail call void @_ZdlPv(i8* %20) #17
  br label %21

21:                                               ; preds = %18, %10
  %22 = bitcast %"struct.cloud_devices::printer::SelectVendorCapabilityOption"* %12 to %"struct.std::__1::basic_string<char, std::__1::char_traits<char>, std::__1::allocator<char> >::__short"*
  %23 = getelementptr inbounds %"struct.std::__1::basic_string<char, std::__1::char_traits<char>, std::__1::allocator<char> >::__short", %"struct.std::__1::basic_string<char, std::__1::char_traits<char>, std::__1::allocator<char> >::__short"* %22, i64 0, i32 1, i32 0
  %24 = load i8, i8* %23, align 1
  %25 = icmp slt i8 %24, 0
  br i1 %25, label %26, label %29

26:                                               ; preds = %21
  %27 = getelementptr inbounds %"struct.cloud_devices::printer::SelectVendorCapabilityOption", %"struct.cloud_devices::printer::SelectVendorCapabilityOption"* %12, i64 0, i32 0, i32 0, i32 0, i32 0, i32 0, i32 0, i32 0
  %28 = load i8*, i8** %27, align 8
  tail call void @_ZdlPv(i8* %28) #17
  br label %29

29:                                               ; preds = %26, %21
  %30 = icmp eq %"struct.cloud_devices::printer::SelectVendorCapabilityOption"* %12, %3
  br i1 %30, label %31, label %10

31:                                               ; preds = %29
  %32 = bitcast %"class.cloud_devices::SelectionCapability"* %0 to i8**
  %33 = load i8*, i8** %32, align 8
  br label %34

34:                                               ; preds = %31, %5
  %35 = phi i8* [ %33, %31 ], [ %6, %5 ]
  store %"struct.cloud_devices::printer::SelectVendorCapabilityOption"* %3, %"struct.cloud_devices::printer::SelectVendorCapabilityOption"** %7, align 8
  tail call void @_ZdlPv(i8* %35) #17
  br label %36

36:                                               ; preds = %1, %34
  ret void
}

; Function Attrs: nounwind ssp uwtable
define weak_odr hidden dereferenceable(32) %"class.cloud_devices::SelectionCapability"* @_ZN13cloud_devices19SelectionCapabilityINS_7printer28SelectVendorCapabilityOptionENS1_28SelectVendorCapabilityTraitsEEaSEOS4_(%"class.cloud_devices::SelectionCapability"*, %"class.cloud_devices::SelectionCapability"* dereferenceable(32)) local_unnamed_addr #0 comdat align 2 {
  %3 = getelementptr inbounds %"class.cloud_devices::SelectionCapability", %"class.cloud_devices::SelectionCapability"* %0, i64 0, i32 0, i32 0, i32 0
  %4 = load %"struct.cloud_devices::printer::SelectVendorCapabilityOption"*, %"struct.cloud_devices::printer::SelectVendorCapabilityOption"** %3, align 8
  %5 = icmp eq %"struct.cloud_devices::printer::SelectVendorCapabilityOption"* %4, null
  br i1 %5, label %38, label %6

6:                                                ; preds = %2
  %7 = bitcast %"struct.cloud_devices::printer::SelectVendorCapabilityOption"* %4 to i8*
  %8 = getelementptr inbounds %"class.cloud_devices::SelectionCapability", %"class.cloud_devices::SelectionCapability"* %0, i64 0, i32 0, i32 0, i32 1
  %9 = load %"struct.cloud_devices::printer::SelectVendorCapabilityOption"*, %"struct.cloud_devices::printer::SelectVendorCapabilityOption"** %8, align 8
  %10 = icmp eq %"struct.cloud_devices::printer::SelectVendorCapabilityOption"* %9, %4
  br i1 %10, label %35, label %11

11:                                               ; preds = %6, %30
  %12 = phi %"struct.cloud_devices::printer::SelectVendorCapabilityOption"* [ %13, %30 ], [ %9, %6 ]
  %13 = getelementptr inbounds %"struct.cloud_devices::printer::SelectVendorCapabilityOption", %"struct.cloud_devices::printer::SelectVendorCapabilityOption"* %12, i64 -1
  %14 = getelementptr inbounds %"struct.cloud_devices::printer::SelectVendorCapabilityOption", %"struct.cloud_devices::printer::SelectVendorCapabilityOption"* %12, i64 -1, i32 1
  %15 = bitcast %"class.std::__1::basic_string"* %14 to %"struct.std::__1::basic_string<char, std::__1::char_traits<char>, std::__1::allocator<char> >::__short"*
  %16 = getelementptr inbounds %"struct.std::__1::basic_string<char, std::__1::char_traits<char>, std::__1::allocator<char> >::__short", %"struct.std::__1::basic_string<char, std::__1::char_traits<char>, std::__1::allocator<char> >::__short"* %15, i64 0, i32 1, i32 0
  %17 = load i8, i8* %16, align 1
  %18 = icmp slt i8 %17, 0
  br i1 %18, label %19, label %22

19:                                               ; preds = %11
  %20 = getelementptr inbounds %"class.std::__1::basic_string", %"class.std::__1::basic_string"* %14, i64 0, i32 0, i32 0, i32 0, i32 0, i32 0, i32 0
  %21 = load i8*, i8** %20, align 8
  tail call void @_ZdlPv(i8* %21) #17
  br label %22

22:                                               ; preds = %19, %11
  %23 = bitcast %"struct.cloud_devices::printer::SelectVendorCapabilityOption"* %13 to %"struct.std::__1::basic_string<char, std::__1::char_traits<char>, std::__1::allocator<char> >::__short"*
  %24 = getelementptr inbounds %"struct.std::__1::basic_string<char, std::__1::char_traits<char>, std::__1::allocator<char> >::__short", %"struct.std::__1::basic_string<char, std::__1::char_traits<char>, std::__1::allocator<char> >::__short"* %23, i64 0, i32 1, i32 0
  %25 = load i8, i8* %24, align 1
  %26 = icmp slt i8 %25, 0
  br i1 %26, label %27, label %30

27:                                               ; preds = %22
  %28 = getelementptr inbounds %"struct.cloud_devices::printer::SelectVendorCapabilityOption", %"struct.cloud_devices::printer::SelectVendorCapabilityOption"* %13, i64 0, i32 0, i32 0, i32 0, i32 0, i32 0, i32 0, i32 0
  %29 = load i8*, i8** %28, align 8
  tail call void @_ZdlPv(i8* %29) #17
  br label %30

30:                                               ; preds = %27, %22
  %31 = icmp eq %"struct.cloud_devices::printer::SelectVendorCapabilityOption"* %13, %4
  br i1 %31, label %32, label %11

32:                                               ; preds = %30
  %33 = bitcast %"class.cloud_devices::SelectionCapability"* %0 to i8**
  %34 = load i8*, i8** %33, align 8
  br label %35

35:                                               ; preds = %32, %6
  %36 = phi i8* [ %34, %32 ], [ %7, %6 ]
  store %"struct.cloud_devices::printer::SelectVendorCapabilityOption"* %4, %"struct.cloud_devices::printer::SelectVendorCapabilityOption"** %8, align 8
  tail call void @_ZdlPv(i8* %36) #17
  %37 = bitcast %"class.cloud_devices::SelectionCapability"* %0 to i8*
  tail call void @llvm.memset.p0i8.i64(i8* align 8 %37, i8 0, i64 24, i1 false) #16
  br label %38

38:                                               ; preds = %2, %35
  %39 = bitcast %"class.cloud_devices::SelectionCapability"* %1 to i64*
  %40 = load i64, i64* %39, align 8
  %41 = bitcast %"class.cloud_devices::SelectionCapability"* %0 to i64*
  store i64 %40, i64* %41, align 8
  %42 = getelementptr inbounds %"class.cloud_devices::SelectionCapability", %"class.cloud_devices::SelectionCapability"* %1, i64 0, i32 0, i32 0, i32 1
  %43 = bitcast %"struct.cloud_devices::printer::SelectVendorCapabilityOption"** %42 to i64*
  %44 = load i64, i64* %43, align 8
  %45 = getelementptr inbounds %"class.cloud_devices::SelectionCapability", %"class.cloud_devices::SelectionCapability"* %0, i64 0, i32 0, i32 0, i32 1
  %46 = bitcast %"struct.cloud_devices::printer::SelectVendorCapabilityOption"** %45 to i64*
  store i64 %44, i64* %46, align 8
  %47 = getelementptr inbounds %"class.cloud_devices::SelectionCapability", %"class.cloud_devices::SelectionCapability"* %1, i64 0, i32 0, i32 0, i32 2, i32 0, i32 0
  %48 = bitcast %"struct.cloud_devices::printer::SelectVendorCapabilityOption"** %47 to i64*
  %49 = load i64, i64* %48, align 8
  %50 = getelementptr inbounds %"class.cloud_devices::SelectionCapability", %"class.cloud_devices::SelectionCapability"* %0, i64 0, i32 0, i32 0, i32 2, i32 0, i32 0
  %51 = bitcast %"struct.cloud_devices::printer::SelectVendorCapabilityOption"** %50 to i64*
  store i64 %49, i64* %51, align 8
  %52 = bitcast %"class.cloud_devices::SelectionCapability"* %1 to i8*
  tail call void @llvm.memset.p0i8.i64(i8* align 8 %52, i8 0, i64 24, i1 false) #16
  %53 = getelementptr inbounds %"class.cloud_devices::SelectionCapability", %"class.cloud_devices::SelectionCapability"* %1, i64 0, i32 1
  %54 = load i32, i32* %53, align 8
  %55 = getelementptr inbounds %"class.cloud_devices::SelectionCapability", %"class.cloud_devices::SelectionCapability"* %0, i64 0, i32 1
  store i32 %54, i32* %55, align 8
  ret %"class.cloud_devices::SelectionCapability"* %0
}

; Function Attrs: nounwind ssp uwtable
define weak_odr hidden zeroext i1 @_ZNK13cloud_devices19SelectionCapabilityINS_7printer28SelectVendorCapabilityOptionENS1_28SelectVendorCapabilityTraitsEEeqERKS4_(%"class.cloud_devices::SelectionCapability"*, %"class.cloud_devices::SelectionCapability"* dereferenceable(32)) local_unnamed_addr #0 comdat align 2 {
  %3 = getelementptr inbounds %"class.cloud_devices::SelectionCapability", %"class.cloud_devices::SelectionCapability"* %0, i64 0, i32 0, i32 0, i32 1
  %4 = bitcast %"struct.cloud_devices::printer::SelectVendorCapabilityOption"** %3 to i64*
  %5 = load i64, i64* %4, align 8
  %6 = bitcast %"class.cloud_devices::SelectionCapability"* %0 to i64*
  %7 = load i64, i64* %6, align 8
  %8 = sub i64 %5, %7
  %9 = getelementptr inbounds %"class.cloud_devices::SelectionCapability", %"class.cloud_devices::SelectionCapability"* %1, i64 0, i32 0, i32 0, i32 1
  %10 = bitcast %"struct.cloud_devices::printer::SelectVendorCapabilityOption"** %9 to i64*
  %11 = load i64, i64* %10, align 8
  %12 = bitcast %"class.cloud_devices::SelectionCapability"* %1 to i64*
  %13 = load i64, i64* %12, align 8
  %14 = sub i64 %11, %13
  %15 = icmp eq i64 %8, %14
  %16 = inttoptr i64 %7 to %"struct.cloud_devices::printer::SelectVendorCapabilityOption"*
  %17 = inttoptr i64 %5 to %"struct.cloud_devices::printer::SelectVendorCapabilityOption"*
  br i1 %15, label %18, label %36

18:                                               ; preds = %2
  %19 = icmp eq %"struct.cloud_devices::printer::SelectVendorCapabilityOption"* %16, %17
  br i1 %19, label %30, label %20

20:                                               ; preds = %18
  %21 = inttoptr i64 %13 to %"struct.cloud_devices::printer::SelectVendorCapabilityOption"*
  br label %22

22:                                               ; preds = %20, %26
  %23 = phi %"struct.cloud_devices::printer::SelectVendorCapabilityOption"* [ %28, %26 ], [ %21, %20 ]
  %24 = phi %"struct.cloud_devices::printer::SelectVendorCapabilityOption"* [ %27, %26 ], [ %16, %20 ]
  %25 = tail call zeroext i1 @_ZNK13cloud_devices7printer28SelectVendorCapabilityOptioneqERKS1_(%"struct.cloud_devices::printer::SelectVendorCapabilityOption"* %24, %"struct.cloud_devices::printer::SelectVendorCapabilityOption"* dereferenceable(48) %23) #16
  br i1 %25, label %26, label %36

26:                                               ; preds = %22
  %27 = getelementptr inbounds %"struct.cloud_devices::printer::SelectVendorCapabilityOption", %"struct.cloud_devices::printer::SelectVendorCapabilityOption"* %24, i64 1
  %28 = getelementptr inbounds %"struct.cloud_devices::printer::SelectVendorCapabilityOption", %"struct.cloud_devices::printer::SelectVendorCapabilityOption"* %23, i64 1
  %29 = icmp eq %"struct.cloud_devices::printer::SelectVendorCapabilityOption"* %27, %17
  br i1 %29, label %30, label %22

30:                                               ; preds = %26, %18
  %31 = getelementptr inbounds %"class.cloud_devices::SelectionCapability", %"class.cloud_devices::SelectionCapability"* %0, i64 0, i32 1
  %32 = load i32, i32* %31, align 8
  %33 = getelementptr inbounds %"class.cloud_devices::SelectionCapability", %"class.cloud_devices::SelectionCapability"* %1, i64 0, i32 1
  %34 = load i32, i32* %33, align 8
  %35 = icmp eq i32 %32, %34
  br label %36

36:                                               ; preds = %22, %2, %30
  %37 = phi i1 [ %35, %30 ], [ false, %2 ], [ false, %22 ]
  ret i1 %37
}

; Function Attrs: nounwind ssp uwtable
define weak_odr hidden zeroext i1 @_ZN13cloud_devices19SelectionCapabilityINS_7printer28SelectVendorCapabilityOptionENS1_28SelectVendorCapabilityTraitsEE8LoadFromERKNS_22CloudDeviceDescriptionE(%"class.cloud_devices::SelectionCapability"*, %"class.cloud_devices::CloudDeviceDescription"* dereferenceable(32)) local_unnamed_addr #0 comdat align 2 {
  %3 = alloca %"class.std::__1::vector.35", align 8
  %4 = bitcast %"class.std::__1::vector.35"* %3 to i8*
  call void @llvm.lifetime.start.p0i8(i64 24, i8* nonnull %4) #16
  %5 = tail call i8* @_Znwm(i64 32) #17, !noalias !24
  %6 = getelementptr inbounds %"class.std::__1::vector.35", %"class.std::__1::vector.35"* %3, i64 0, i32 0, i32 1
  %7 = bitcast %"class.std::__1::vector.35"* %3 to i8**
  store i8* %5, i8** %7, align 8, !alias.scope !24
  %8 = getelementptr inbounds i8, i8* %5, i64 32
  %9 = getelementptr inbounds %"class.std::__1::vector.35", %"class.std::__1::vector.35"* %3, i64 0, i32 0, i32 2, i32 0, i32 0
  %10 = bitcast %"class.base::BasicStringPiece"** %9 to i8**
  store i8* %8, i8** %10, align 8, !alias.scope !24
  %11 = bitcast %"class.base::BasicStringPiece"** %6 to i64*
  tail call void @llvm.memcpy.p0i8.p0i8.i64(i8* nonnull align 8 %5, i8* align 8 bitcast ([2 x %"class.base::BasicStringPiece"]* @.ref.tmp.181 to i8*), i64 32, i1 false) #16, !noalias !24
  %12 = ptrtoint i8* %8 to i64
  store i64 %12, i64* %11, align 8, !alias.scope !24
  %13 = call %"class.base::Value"* @_ZNK13cloud_devices22CloudDeviceDescription7GetItemERKNSt3__16vectorIN4base16BasicStringPieceIcNS1_11char_traitsIcEEEENS1_9allocatorIS7_EEEENS3_5Value4TypeE(%"class.cloud_devices::CloudDeviceDescription"* %1, %"class.std::__1::vector.35"* nonnull dereferenceable(24) %3, i8 zeroext 6) #16
  %14 = getelementptr inbounds %"class.std::__1::vector.35", %"class.std::__1::vector.35"* %3, i64 0, i32 0, i32 0
  %15 = load %"class.base::BasicStringPiece"*, %"class.base::BasicStringPiece"** %14, align 8
  %16 = icmp eq %"class.base::BasicStringPiece"* %15, null
  br i1 %16, label %20, label %17

17:                                               ; preds = %2
  %18 = ptrtoint %"class.base::BasicStringPiece"* %15 to i64
  store i64 %18, i64* %11, align 8
  %19 = bitcast %"class.base::BasicStringPiece"* %15 to i8*
  call void @_ZdlPv(i8* %19) #17
  br label %20

20:                                               ; preds = %2, %17
  call void @llvm.lifetime.end.p0i8(i64 24, i8* nonnull %4) #16
  %21 = icmp eq %"class.base::Value"* %13, null
  br i1 %21, label %22, label %51

22:                                               ; preds = %20
  %23 = getelementptr inbounds %"class.cloud_devices::SelectionCapability", %"class.cloud_devices::SelectionCapability"* %0, i64 0, i32 0, i32 0, i32 0
  %24 = load %"struct.cloud_devices::printer::SelectVendorCapabilityOption"*, %"struct.cloud_devices::printer::SelectVendorCapabilityOption"** %23, align 8
  %25 = getelementptr inbounds %"class.cloud_devices::SelectionCapability", %"class.cloud_devices::SelectionCapability"* %0, i64 0, i32 0, i32 0, i32 1
  %26 = load %"struct.cloud_devices::printer::SelectVendorCapabilityOption"*, %"struct.cloud_devices::printer::SelectVendorCapabilityOption"** %25, align 8
  %27 = icmp eq %"struct.cloud_devices::printer::SelectVendorCapabilityOption"* %26, %24
  br i1 %27, label %49, label %28

28:                                               ; preds = %22, %47
  %29 = phi %"struct.cloud_devices::printer::SelectVendorCapabilityOption"* [ %30, %47 ], [ %26, %22 ]
  %30 = getelementptr inbounds %"struct.cloud_devices::printer::SelectVendorCapabilityOption", %"struct.cloud_devices::printer::SelectVendorCapabilityOption"* %29, i64 -1
  %31 = getelementptr inbounds %"struct.cloud_devices::printer::SelectVendorCapabilityOption", %"struct.cloud_devices::printer::SelectVendorCapabilityOption"* %29, i64 -1, i32 1
  %32 = bitcast %"class.std::__1::basic_string"* %31 to %"struct.std::__1::basic_string<char, std::__1::char_traits<char>, std::__1::allocator<char> >::__short"*
  %33 = getelementptr inbounds %"struct.std::__1::basic_string<char, std::__1::char_traits<char>, std::__1::allocator<char> >::__short", %"struct.std::__1::basic_string<char, std::__1::char_traits<char>, std::__1::allocator<char> >::__short"* %32, i64 0, i32 1, i32 0
  %34 = load i8, i8* %33, align 1
  %35 = icmp slt i8 %34, 0
  br i1 %35, label %36, label %39

36:                                               ; preds = %28
  %37 = getelementptr inbounds %"class.std::__1::basic_string", %"class.std::__1::basic_string"* %31, i64 0, i32 0, i32 0, i32 0, i32 0, i32 0, i32 0
  %38 = load i8*, i8** %37, align 8
  call void @_ZdlPv(i8* %38) #17
  br label %39

39:                                               ; preds = %36, %28
  %40 = bitcast %"struct.cloud_devices::printer::SelectVendorCapabilityOption"* %30 to %"struct.std::__1::basic_string<char, std::__1::char_traits<char>, std::__1::allocator<char> >::__short"*
  %41 = getelementptr inbounds %"struct.std::__1::basic_string<char, std::__1::char_traits<char>, std::__1::allocator<char> >::__short", %"struct.std::__1::basic_string<char, std::__1::char_traits<char>, std::__1::allocator<char> >::__short"* %40, i64 0, i32 1, i32 0
  %42 = load i8, i8* %41, align 1
  %43 = icmp slt i8 %42, 0
  br i1 %43, label %44, label %47

44:                                               ; preds = %39
  %45 = getelementptr inbounds %"struct.cloud_devices::printer::SelectVendorCapabilityOption", %"struct.cloud_devices::printer::SelectVendorCapabilityOption"* %30, i64 0, i32 0, i32 0, i32 0, i32 0, i32 0, i32 0, i32 0
  %46 = load i8*, i8** %45, align 8
  call void @_ZdlPv(i8* %46) #17
  br label %47

47:                                               ; preds = %44, %39
  %48 = icmp eq %"struct.cloud_devices::printer::SelectVendorCapabilityOption"* %30, %24
  br i1 %48, label %49, label %28

49:                                               ; preds = %47, %22
  store %"struct.cloud_devices::printer::SelectVendorCapabilityOption"* %24, %"struct.cloud_devices::printer::SelectVendorCapabilityOption"** %25, align 8
  %50 = getelementptr inbounds %"class.cloud_devices::SelectionCapability", %"class.cloud_devices::SelectionCapability"* %0, i64 0, i32 1
  store i32 -1, i32* %50, align 8
  br label %53

51:                                               ; preds = %20
  %52 = call zeroext i1 @_ZN13cloud_devices19SelectionCapabilityINS_7printer28SelectVendorCapabilityOptionENS1_28SelectVendorCapabilityTraitsEE8LoadFromERKN4base5ValueE(%"class.cloud_devices::SelectionCapability"* %0, %"class.base::Value"* nonnull dereferenceable(32) %13)
  br label %53

53:                                               ; preds = %51, %49
  %54 = phi i1 [ %52, %51 ], [ false, %49 ]
  ret i1 %54
}

; Function Attrs: nounwind ssp uwtable
define weak_odr hidden zeroext i1 @_ZN13cloud_devices19SelectionCapabilityINS_7printer28SelectVendorCapabilityOptionENS1_28SelectVendorCapabilityTraitsEE8LoadFromERKN4base5ValueE(%"class.cloud_devices::SelectionCapability"*, %"class.base::Value"* dereferenceable(32)) local_unnamed_addr #0 comdat align 2 {
  %3 = alloca %"class.base::CheckedContiguousIterator", align 8
  %4 = alloca %"class.base::CheckedContiguousIterator", align 8
  %5 = alloca %"struct.cloud_devices::printer::SelectVendorCapabilityOption", align 8
  %6 = getelementptr inbounds %"class.cloud_devices::SelectionCapability", %"class.cloud_devices::SelectionCapability"* %0, i64 0, i32 0, i32 0, i32 0
  %7 = load %"struct.cloud_devices::printer::SelectVendorCapabilityOption"*, %"struct.cloud_devices::printer::SelectVendorCapabilityOption"** %6, align 8
  %8 = getelementptr inbounds %"class.cloud_devices::SelectionCapability", %"class.cloud_devices::SelectionCapability"* %0, i64 0, i32 0, i32 0, i32 1
  %9 = load %"struct.cloud_devices::printer::SelectVendorCapabilityOption"*, %"struct.cloud_devices::printer::SelectVendorCapabilityOption"** %8, align 8
  %10 = icmp eq %"struct.cloud_devices::printer::SelectVendorCapabilityOption"* %9, %7
  br i1 %10, label %32, label %11

11:                                               ; preds = %2, %30
  %12 = phi %"struct.cloud_devices::printer::SelectVendorCapabilityOption"* [ %13, %30 ], [ %9, %2 ]
  %13 = getelementptr inbounds %"struct.cloud_devices::printer::SelectVendorCapabilityOption", %"struct.cloud_devices::printer::SelectVendorCapabilityOption"* %12, i64 -1
  %14 = getelementptr inbounds %"struct.cloud_devices::printer::SelectVendorCapabilityOption", %"struct.cloud_devices::printer::SelectVendorCapabilityOption"* %12, i64 -1, i32 1
  %15 = bitcast %"class.std::__1::basic_string"* %14 to %"struct.std::__1::basic_string<char, std::__1::char_traits<char>, std::__1::allocator<char> >::__short"*
  %16 = getelementptr inbounds %"struct.std::__1::basic_string<char, std::__1::char_traits<char>, std::__1::allocator<char> >::__short", %"struct.std::__1::basic_string<char, std::__1::char_traits<char>, std::__1::allocator<char> >::__short"* %15, i64 0, i32 1, i32 0
  %17 = load i8, i8* %16, align 1
  %18 = icmp slt i8 %17, 0
  br i1 %18, label %19, label %22

19:                                               ; preds = %11
  %20 = getelementptr inbounds %"class.std::__1::basic_string", %"class.std::__1::basic_string"* %14, i64 0, i32 0, i32 0, i32 0, i32 0, i32 0, i32 0
  %21 = load i8*, i8** %20, align 8
  tail call void @_ZdlPv(i8* %21) #17
  br label %22

22:                                               ; preds = %19, %11
  %23 = bitcast %"struct.cloud_devices::printer::SelectVendorCapabilityOption"* %13 to %"struct.std::__1::basic_string<char, std::__1::char_traits<char>, std::__1::allocator<char> >::__short"*
  %24 = getelementptr inbounds %"struct.std::__1::basic_string<char, std::__1::char_traits<char>, std::__1::allocator<char> >::__short", %"struct.std::__1::basic_string<char, std::__1::char_traits<char>, std::__1::allocator<char> >::__short"* %23, i64 0, i32 1, i32 0
  %25 = load i8, i8* %24, align 1
  %26 = icmp slt i8 %25, 0
  br i1 %26, label %27, label %30

27:                                               ; preds = %22
  %28 = getelementptr inbounds %"struct.cloud_devices::printer::SelectVendorCapabilityOption", %"struct.cloud_devices::printer::SelectVendorCapabilityOption"* %13, i64 0, i32 0, i32 0, i32 0, i32 0, i32 0, i32 0, i32 0
  %29 = load i8*, i8** %28, align 8
  tail call void @_ZdlPv(i8* %29) #17
  br label %30

30:                                               ; preds = %27, %22
  %31 = icmp eq %"struct.cloud_devices::printer::SelectVendorCapabilityOption"* %13, %7
  br i1 %31, label %32, label %11

32:                                               ; preds = %30, %2
  store %"struct.cloud_devices::printer::SelectVendorCapabilityOption"* %7, %"struct.cloud_devices::printer::SelectVendorCapabilityOption"** %8, align 8
  %33 = getelementptr inbounds %"class.cloud_devices::SelectionCapability", %"class.cloud_devices::SelectionCapability"* %0, i64 0, i32 1
  store i32 -1, i32* %33, align 8
  %34 = tail call i64 @strlen(i8* nonnull getelementptr inbounds ([0 x i8], [0 x i8]* @_ZN13cloud_devices4json10kKeyOptionE, i64 0, i64 0)) #16
  %35 = tail call %"class.base::Value"* @_ZNK4base5Value13FindKeyOfTypeENS_16BasicStringPieceIcNSt3__111char_traitsIcEEEENS0_4TypeE(%"class.base::Value"* %1, i8* getelementptr inbounds ([0 x i8], [0 x i8]* @_ZN13cloud_devices4json10kKeyOptionE, i64 0, i64 0), i64 %34, i8 zeroext 7) #16
  %36 = icmp eq %"class.base::Value"* %35, null
  br i1 %36, label %212, label %37

37:                                               ; preds = %32
  %38 = tail call %"class.std::__1::vector.27"* @_ZNK4base5Value7GetListEv(%"class.base::Value"* nonnull %35) #16
  %39 = bitcast %"class.base::CheckedContiguousIterator"* %3 to i8*
  call void @llvm.lifetime.start.p0i8(i64 24, i8* nonnull %39) #16
  %40 = getelementptr inbounds %"class.base::CheckedContiguousIterator", %"class.base::CheckedContiguousIterator"* %3, i64 0, i32 1
  %41 = icmp eq %"class.std::__1::vector.27"* %38, null
  %42 = bitcast %"class.base::CheckedContiguousIterator"* %3 to i8*
  call void @llvm.memset.p0i8.i64(i8* nonnull align 8 %42, i8 -86, i64 24, i1 false)
  br i1 %41, label %52, label %43

43:                                               ; preds = %37
  %44 = getelementptr inbounds %"class.std::__1::vector.27", %"class.std::__1::vector.27"* %38, i64 0, i32 0, i32 0
  %45 = load %"class.base::Value"*, %"class.base::Value"** %44, align 8
  %46 = getelementptr inbounds %"class.std::__1::vector.27", %"class.std::__1::vector.27"* %38, i64 0, i32 0, i32 1
  %47 = bitcast %"class.base::Value"** %46 to i64*
  %48 = load i64, i64* %47, align 8
  %49 = ptrtoint %"class.base::Value"* %45 to i64
  %50 = sub i64 %48, %49
  %51 = ashr exact i64 %50, 5
  br label %52

52:                                               ; preds = %37, %43
  %53 = phi %"class.base::Value"* [ %45, %43 ], [ null, %37 ]
  %54 = phi i64 [ %51, %43 ], [ 0, %37 ]
  %55 = getelementptr inbounds %"class.base::Value", %"class.base::Value"* %53, i64 %54
  call void @_ZN4base25CheckedContiguousIteratorIKNS_5ValueEEC2EPS2_S4_S4_(%"class.base::CheckedContiguousIterator"* nonnull %3, %"class.base::Value"* %53, %"class.base::Value"* %53, %"class.base::Value"* %55) #16
  %56 = bitcast %"class.base::CheckedContiguousIterator"* %4 to i8*
  call void @llvm.lifetime.start.p0i8(i64 24, i8* nonnull %56) #16
  %57 = getelementptr inbounds %"class.base::CheckedContiguousIterator", %"class.base::CheckedContiguousIterator"* %4, i64 0, i32 1
  %58 = bitcast %"class.base::CheckedContiguousIterator"* %4 to i8*
  call void @llvm.memset.p0i8.i64(i8* nonnull align 8 %58, i8 -86, i64 24, i1 false)
  br i1 %41, label %69, label %59

59:                                               ; preds = %52
  %60 = getelementptr inbounds %"class.std::__1::vector.27", %"class.std::__1::vector.27"* %38, i64 0, i32 0, i32 0
  %61 = load %"class.base::Value"*, %"class.base::Value"** %60, align 8
  %62 = getelementptr inbounds %"class.std::__1::vector.27", %"class.std::__1::vector.27"* %38, i64 0, i32 0, i32 1
  %63 = bitcast %"class.base::Value"** %62 to i64*
  %64 = load i64, i64* %63, align 8
  %65 = ptrtoint %"class.base::Value"* %61 to i64
  %66 = sub i64 %64, %65
  %67 = ashr exact i64 %66, 5
  %68 = getelementptr inbounds %"class.base::Value", %"class.base::Value"* %61, i64 %67
  br label %69

69:                                               ; preds = %52, %59
  %70 = phi %"class.base::Value"* [ %61, %59 ], [ null, %52 ]
  %71 = phi %"class.base::Value"* [ %68, %59 ], [ null, %52 ]
  %72 = phi i64 [ %67, %59 ], [ 0, %52 ]
  %73 = getelementptr inbounds %"class.base::Value", %"class.base::Value"* %70, i64 %72
  call void @_ZN4base25CheckedContiguousIteratorIKNS_5ValueEEC2EPS2_S4_S4_(%"class.base::CheckedContiguousIterator"* nonnull %4, %"class.base::Value"* %70, %"class.base::Value"* %71, %"class.base::Value"* %73) #16
  call void @_ZNK4base25CheckedContiguousIteratorIKNS_5ValueEE15CheckComparableERKS3_(%"class.base::CheckedContiguousIterator"* nonnull %3, %"class.base::CheckedContiguousIterator"* nonnull dereferenceable(24) %4) #16
  %74 = load %"class.base::Value"*, %"class.base::Value"** %40, align 8
  %75 = load %"class.base::Value"*, %"class.base::Value"** %57, align 8
  %76 = icmp eq %"class.base::Value"* %74, %75
  br i1 %76, label %168, label %77

77:                                               ; preds = %69
  %78 = bitcast %"struct.cloud_devices::printer::SelectVendorCapabilityOption"* %5 to i8*
  %79 = getelementptr inbounds %"struct.cloud_devices::printer::SelectVendorCapabilityOption", %"struct.cloud_devices::printer::SelectVendorCapabilityOption"* %5, i64 0, i32 0, i32 0, i32 0, i32 0, i32 0, i32 0, i32 0
  %80 = getelementptr inbounds %"struct.cloud_devices::printer::SelectVendorCapabilityOption", %"struct.cloud_devices::printer::SelectVendorCapabilityOption"* %5, i64 0, i32 0, i32 0, i32 0, i32 0, i32 0, i32 0, i32 1
  %81 = getelementptr inbounds %"struct.cloud_devices::printer::SelectVendorCapabilityOption", %"struct.cloud_devices::printer::SelectVendorCapabilityOption"* %5, i64 0, i32 1, i32 0, i32 0, i32 0, i32 0, i32 0, i32 1
  %82 = bitcast %"struct.cloud_devices::printer::SelectVendorCapabilityOption"** %8 to i64*
  %83 = bitcast %"class.cloud_devices::SelectionCapability"* %0 to i64*
  %84 = getelementptr inbounds %"class.cloud_devices::SelectionCapability", %"class.cloud_devices::SelectionCapability"* %0, i64 0, i32 0, i32 0, i32 2, i32 0, i32 0
  %85 = bitcast %"struct.cloud_devices::printer::SelectVendorCapabilityOption"* %5 to %"struct.std::__1::basic_string<char, std::__1::char_traits<char>, std::__1::allocator<char> >::__short"*
  %86 = getelementptr inbounds %"struct.std::__1::basic_string<char, std::__1::char_traits<char>, std::__1::allocator<char> >::__short", %"struct.std::__1::basic_string<char, std::__1::char_traits<char>, std::__1::allocator<char> >::__short"* %85, i64 0, i32 1, i32 0
  %87 = getelementptr inbounds %"struct.cloud_devices::printer::SelectVendorCapabilityOption", %"struct.cloud_devices::printer::SelectVendorCapabilityOption"* %5, i64 0, i32 1
  %88 = bitcast %"class.std::__1::basic_string"* %87 to %"struct.std::__1::basic_string<char, std::__1::char_traits<char>, std::__1::allocator<char> >::__short"*
  %89 = getelementptr inbounds %"struct.std::__1::basic_string<char, std::__1::char_traits<char>, std::__1::allocator<char> >::__short", %"struct.std::__1::basic_string<char, std::__1::char_traits<char>, std::__1::allocator<char> >::__short"* %88, i64 0, i32 1, i32 0
  %90 = bitcast %"class.std::__1::basic_string"* %87 to i8*
  %91 = getelementptr inbounds %"class.std::__1::basic_string", %"class.std::__1::basic_string"* %87, i64 0, i32 0, i32 0, i32 0, i32 0, i32 0, i32 0
  %92 = getelementptr inbounds %"class.cloud_devices::SelectionCapability", %"class.cloud_devices::SelectionCapability"* %0, i64 0, i32 0
  br label %93

93:                                               ; preds = %77, %162
  %94 = call dereferenceable(32) %"class.base::Value"* @_ZNK4base25CheckedContiguousIteratorIKNS_5ValueEEdeEv(%"class.base::CheckedContiguousIterator"* nonnull %3)
  call void @llvm.lifetime.start.p0i8(i64 48, i8* nonnull %78) #16
  call void @llvm.memset.p0i8.i64(i8* nonnull align 8 %78, i8 0, i64 48, i1 false) #16
  %95 = getelementptr inbounds %"class.base::Value", %"class.base::Value"* %94, i64 0, i32 0, i32 0, i32 0, i32 0, i32 0, i32 0, i32 0, i32 1
  %96 = load i64, i64* %95, align 8
  %97 = trunc i64 %96 to i8
  %98 = icmp eq i8 %97, 6
  br i1 %98, label %99, label %149

99:                                               ; preds = %93
  %100 = call zeroext i1 @_ZN13cloud_devices7printer28SelectVendorCapabilityTraits4LoadERKN4base5ValueEPNS0_28SelectVendorCapabilityOptionE(%"class.base::Value"* dereferenceable(32) %94, %"struct.cloud_devices::printer::SelectVendorCapabilityOption"* nonnull %5)
  br i1 %100, label %101, label %149

101:                                              ; preds = %99
  %102 = call i64 @strlen(i8* nonnull getelementptr inbounds ([0 x i8], [0 x i8]* @_ZN13cloud_devices4json13kKeyIsDefaultE, i64 0, i64 0)) #16
  %103 = call i16 @_ZNK4base5Value11FindBoolKeyENS_16BasicStringPieceIcNSt3__111char_traitsIcEEEE(%"class.base::Value"* %94, i8* getelementptr inbounds ([0 x i8], [0 x i8]* @_ZN13cloud_devices4json13kKeyIsDefaultE, i64 0, i64 0), i64 %102) #16
  %104 = trunc i16 %103 to i8
  %105 = icmp ne i8 %104, 0
  %106 = icmp ugt i16 %103, 255
  %107 = and i1 %106, %105
  br i1 %107, label %108, label %111

108:                                              ; preds = %101
  %109 = load i32, i32* %33, align 8
  %110 = icmp sgt i32 %109, -1
  br i1 %110, label %149, label %113

111:                                              ; preds = %101
  %112 = load %"struct.cloud_devices::printer::SelectVendorCapabilityOption"*, %"struct.cloud_devices::printer::SelectVendorCapabilityOption"** %8, align 8
  br label %123

113:                                              ; preds = %108
  %114 = load i64, i64* %82, align 8
  %115 = load i64, i64* %83, align 8
  %116 = sub i64 %114, %115
  %117 = sdiv exact i64 %116, 48
  %118 = icmp ult i64 %117, 2147483648
  br i1 %118, label %120, label %119, !prof !27

119:                                              ; preds = %113
  call void @llvm.trap() #16
  unreachable

120:                                              ; preds = %113
  %121 = inttoptr i64 %114 to %"struct.cloud_devices::printer::SelectVendorCapabilityOption"*
  %122 = trunc i64 %117 to i32
  store i32 %122, i32* %33, align 8
  br label %123

123:                                              ; preds = %120, %111
  %124 = phi %"struct.cloud_devices::printer::SelectVendorCapabilityOption"* [ %112, %111 ], [ %121, %120 ]
  %125 = load %"struct.cloud_devices::printer::SelectVendorCapabilityOption"*, %"struct.cloud_devices::printer::SelectVendorCapabilityOption"** %84, align 8
  %126 = icmp eq %"struct.cloud_devices::printer::SelectVendorCapabilityOption"* %124, %125
  br i1 %126, label %148, label %127

127:                                              ; preds = %123
  %128 = load i8, i8* %86, align 1
  %129 = icmp slt i8 %128, 0
  br i1 %129, label %132, label %130

130:                                              ; preds = %127
  %131 = bitcast %"struct.cloud_devices::printer::SelectVendorCapabilityOption"* %124 to i8*
  call void @llvm.memcpy.p0i8.p0i8.i64(i8* align 8 %131, i8* nonnull align 8 %78, i64 24, i1 false) #16
  br label %136

132:                                              ; preds = %127
  %133 = getelementptr inbounds %"struct.cloud_devices::printer::SelectVendorCapabilityOption", %"struct.cloud_devices::printer::SelectVendorCapabilityOption"* %124, i64 0, i32 0
  %134 = load i8*, i8** %79, align 8
  %135 = load i64, i64* %80, align 8
  call void @_ZNSt3__112basic_stringIcNS_11char_traitsIcEENS_9allocatorIcEEE25__init_copy_ctor_externalEPKcm(%"class.std::__1::basic_string"* %133, i8* %134, i64 %135) #16
  br label %136

136:                                              ; preds = %132, %130
  %137 = getelementptr inbounds %"struct.cloud_devices::printer::SelectVendorCapabilityOption", %"struct.cloud_devices::printer::SelectVendorCapabilityOption"* %124, i64 0, i32 1
  %138 = load i8, i8* %89, align 1
  %139 = icmp slt i8 %138, 0
  br i1 %139, label %142, label %140

140:                                              ; preds = %136
  %141 = bitcast %"class.std::__1::basic_string"* %137 to i8*
  call void @llvm.memcpy.p0i8.p0i8.i64(i8* align 8 %141, i8* align 8 %90, i64 24, i1 false) #16
  br label %145

142:                                              ; preds = %136
  %143 = load i8*, i8** %91, align 8
  %144 = load i64, i64* %81, align 8
  call void @_ZNSt3__112basic_stringIcNS_11char_traitsIcEENS_9allocatorIcEEE25__init_copy_ctor_externalEPKcm(%"class.std::__1::basic_string"* %137, i8* %143, i64 %144) #16
  br label %145

145:                                              ; preds = %142, %140
  %146 = getelementptr inbounds %"struct.cloud_devices::printer::SelectVendorCapabilityOption", %"struct.cloud_devices::printer::SelectVendorCapabilityOption"* %124, i64 1
  %147 = ptrtoint %"struct.cloud_devices::printer::SelectVendorCapabilityOption"* %146 to i64
  store i64 %147, i64* %82, align 8
  br label %149

148:                                              ; preds = %123
  call void @_ZNSt3__16vectorIN13cloud_devices7printer28SelectVendorCapabilityOptionENS_9allocatorIS3_EEE21__push_back_slow_pathIRKS3_EEvOT_(%"class.std::__1::vector.53"* %92, %"struct.cloud_devices::printer::SelectVendorCapabilityOption"* nonnull dereferenceable(48) %5) #16
  br label %149

149:                                              ; preds = %148, %145, %108, %93, %99
  %150 = phi i32 [ 1, %99 ], [ 1, %93 ], [ 1, %108 ], [ 0, %145 ], [ 0, %148 ]
  %151 = load i8, i8* %89, align 1
  %152 = icmp slt i8 %151, 0
  br i1 %152, label %153, label %155

153:                                              ; preds = %149
  %154 = load i8*, i8** %91, align 8
  call void @_ZdlPv(i8* %154) #17
  br label %155

155:                                              ; preds = %153, %149
  %156 = load i8, i8* %86, align 1
  %157 = icmp slt i8 %156, 0
  br i1 %157, label %158, label %160

158:                                              ; preds = %155
  %159 = load i8*, i8** %79, align 8
  call void @_ZdlPv(i8* %159) #17
  br label %160

160:                                              ; preds = %155, %158
  call void @llvm.lifetime.end.p0i8(i64 48, i8* nonnull %78) #16
  %161 = icmp eq i32 %150, 0
  br i1 %161, label %162, label %167

162:                                              ; preds = %160
  %163 = call dereferenceable(24) %"class.base::CheckedContiguousIterator"* @_ZN4base25CheckedContiguousIteratorIKNS_5ValueEEppEv(%"class.base::CheckedContiguousIterator"* nonnull %3)
  call void @_ZNK4base25CheckedContiguousIteratorIKNS_5ValueEE15CheckComparableERKS3_(%"class.base::CheckedContiguousIterator"* nonnull %3, %"class.base::CheckedContiguousIterator"* nonnull dereferenceable(24) %4) #16
  %164 = load %"class.base::Value"*, %"class.base::Value"** %40, align 8
  %165 = load %"class.base::Value"*, %"class.base::Value"** %57, align 8
  %166 = icmp eq %"class.base::Value"* %164, %165
  br i1 %166, label %168, label %93

167:                                              ; preds = %160
  call void @llvm.lifetime.end.p0i8(i64 24, i8* nonnull %56) #16
  call void @llvm.lifetime.end.p0i8(i64 24, i8* nonnull %39) #16
  br label %212

168:                                              ; preds = %162, %69
  call void @llvm.lifetime.end.p0i8(i64 24, i8* nonnull %56) #16
  call void @llvm.lifetime.end.p0i8(i64 24, i8* nonnull %39) #16
  %169 = load %"struct.cloud_devices::printer::SelectVendorCapabilityOption"*, %"struct.cloud_devices::printer::SelectVendorCapabilityOption"** %6, align 8
  %170 = load %"struct.cloud_devices::printer::SelectVendorCapabilityOption"*, %"struct.cloud_devices::printer::SelectVendorCapabilityOption"** %8, align 8
  %171 = icmp eq %"struct.cloud_devices::printer::SelectVendorCapabilityOption"* %169, %170
  br i1 %171, label %212, label %172

172:                                              ; preds = %168
  %173 = ptrtoint %"struct.cloud_devices::printer::SelectVendorCapabilityOption"* %169 to i64
  %174 = ptrtoint %"struct.cloud_devices::printer::SelectVendorCapabilityOption"* %170 to i64
  %175 = sub i64 %174, %173
  %176 = sdiv exact i64 %175, 48
  br label %179

177:                                              ; preds = %191
  %178 = icmp ult i64 %202, %176
  br i1 %178, label %179, label %203

179:                                              ; preds = %177, %172
  %180 = phi i64 [ 0, %172 ], [ %202, %177 ]
  %181 = getelementptr inbounds %"struct.cloud_devices::printer::SelectVendorCapabilityOption", %"struct.cloud_devices::printer::SelectVendorCapabilityOption"* %169, i64 %180
  %182 = bitcast %"struct.cloud_devices::printer::SelectVendorCapabilityOption"* %181 to %"struct.std::__1::basic_string<char, std::__1::char_traits<char>, std::__1::allocator<char> >::__short"*
  %183 = getelementptr inbounds %"struct.std::__1::basic_string<char, std::__1::char_traits<char>, std::__1::allocator<char> >::__short", %"struct.std::__1::basic_string<char, std::__1::char_traits<char>, std::__1::allocator<char> >::__short"* %182, i64 0, i32 1, i32 0
  %184 = load i8, i8* %183, align 1
  %185 = icmp slt i8 %184, 0
  %186 = getelementptr inbounds %"struct.cloud_devices::printer::SelectVendorCapabilityOption", %"struct.cloud_devices::printer::SelectVendorCapabilityOption"* %169, i64 %180, i32 0, i32 0, i32 0, i32 0, i32 0, i32 0, i32 1
  %187 = load i64, i64* %186, align 8
  %188 = zext i8 %184 to i64
  %189 = select i1 %185, i64 %187, i64 %188
  %190 = icmp eq i64 %189, 0
  br i1 %190, label %212, label %191

191:                                              ; preds = %179
  %192 = getelementptr inbounds %"struct.cloud_devices::printer::SelectVendorCapabilityOption", %"struct.cloud_devices::printer::SelectVendorCapabilityOption"* %169, i64 %180, i32 1
  %193 = bitcast %"class.std::__1::basic_string"* %192 to %"struct.std::__1::basic_string<char, std::__1::char_traits<char>, std::__1::allocator<char> >::__short"*
  %194 = getelementptr inbounds %"struct.std::__1::basic_string<char, std::__1::char_traits<char>, std::__1::allocator<char> >::__short", %"struct.std::__1::basic_string<char, std::__1::char_traits<char>, std::__1::allocator<char> >::__short"* %193, i64 0, i32 1, i32 0
  %195 = load i8, i8* %194, align 1
  %196 = icmp slt i8 %195, 0
  %197 = getelementptr inbounds %"struct.cloud_devices::printer::SelectVendorCapabilityOption", %"struct.cloud_devices::printer::SelectVendorCapabilityOption"* %169, i64 %180, i32 1, i32 0, i32 0, i32 0, i32 0, i32 0, i32 1
  %198 = load i64, i64* %197, align 8
  %199 = zext i8 %195 to i64
  %200 = select i1 %196, i64 %198, i64 %199
  %201 = icmp eq i64 %200, 0
  %202 = add nuw i64 %180, 1
  br i1 %201, label %212, label %177

203:                                              ; preds = %177
  %204 = load i32, i32* %33, align 8
  %205 = icmp sgt i32 %204, -2
  br i1 %205, label %206, label %212

206:                                              ; preds = %203
  %207 = icmp ult i64 %176, 2147483648
  br i1 %207, label %209, label %208, !prof !27

208:                                              ; preds = %206
  call void @llvm.trap() #16
  unreachable

209:                                              ; preds = %206
  %210 = trunc i64 %176 to i32
  %211 = icmp slt i32 %204, %210
  br label %212

212:                                              ; preds = %191, %179, %209, %203, %168, %167, %32
  %213 = phi i1 [ false, %167 ], [ false, %32 ], [ false, %168 ], [ false, %203 ], [ %211, %209 ], [ false, %179 ], [ false, %191 ]
  ret i1 %213
}

; Function Attrs: nounwind ssp uwtable
define weak_odr hidden void @_ZNK13cloud_devices19SelectionCapabilityINS_7printer28SelectVendorCapabilityOptionENS1_28SelectVendorCapabilityTraitsEE6SaveToEPNS_22CloudDeviceDescriptionE(%"class.cloud_devices::SelectionCapability"*, %"class.cloud_devices::CloudDeviceDescription"*) local_unnamed_addr #0 comdat align 2 {
  %3 = alloca %"class.std::__1::vector.35", align 8
  %4 = bitcast %"class.std::__1::vector.35"* %3 to i8*
  call void @llvm.lifetime.start.p0i8(i64 24, i8* nonnull %4) #16
  %5 = tail call i8* @_Znwm(i64 32) #17, !noalias !28
  %6 = getelementptr inbounds %"class.std::__1::vector.35", %"class.std::__1::vector.35"* %3, i64 0, i32 0, i32 1
  %7 = bitcast %"class.std::__1::vector.35"* %3 to i8**
  store i8* %5, i8** %7, align 8, !alias.scope !28
  %8 = getelementptr inbounds i8, i8* %5, i64 32
  %9 = getelementptr inbounds %"class.std::__1::vector.35", %"class.std::__1::vector.35"* %3, i64 0, i32 0, i32 2, i32 0, i32 0
  %10 = bitcast %"class.base::BasicStringPiece"** %9 to i8**
  store i8* %8, i8** %10, align 8, !alias.scope !28
  %11 = bitcast %"class.base::BasicStringPiece"** %6 to i64*
  tail call void @llvm.memcpy.p0i8.p0i8.i64(i8* nonnull align 8 %5, i8* align 8 bitcast ([2 x %"class.base::BasicStringPiece"]* @.ref.tmp.181 to i8*), i64 32, i1 false) #16, !noalias !28
  %12 = ptrtoint i8* %8 to i64
  store i64 %12, i64* %11, align 8, !alias.scope !28
  %13 = call %"class.base::Value"* @_ZN13cloud_devices22CloudDeviceDescription10CreateItemERKNSt3__16vectorIN4base16BasicStringPieceIcNS1_11char_traitsIcEEEENS1_9allocatorIS7_EEEENS3_5Value4TypeE(%"class.cloud_devices::CloudDeviceDescription"* %1, %"class.std::__1::vector.35"* nonnull dereferenceable(24) %3, i8 zeroext 6) #16
  call void @_ZNK13cloud_devices19SelectionCapabilityINS_7printer28SelectVendorCapabilityOptionENS1_28SelectVendorCapabilityTraitsEE6SaveToEPN4base5ValueE(%"class.cloud_devices::SelectionCapability"* %0, %"class.base::Value"* %13)
  %14 = getelementptr inbounds %"class.std::__1::vector.35", %"class.std::__1::vector.35"* %3, i64 0, i32 0, i32 0
  %15 = load %"class.base::BasicStringPiece"*, %"class.base::BasicStringPiece"** %14, align 8
  %16 = icmp eq %"class.base::BasicStringPiece"* %15, null
  br i1 %16, label %20, label %17

17:                                               ; preds = %2
  %18 = ptrtoint %"class.base::BasicStringPiece"* %15 to i64
  store i64 %18, i64* %11, align 8
  %19 = bitcast %"class.base::BasicStringPiece"* %15 to i8*
  call void @_ZdlPv(i8* %19) #17
  br label %20

20:                                               ; preds = %2, %17
  call void @llvm.lifetime.end.p0i8(i64 24, i8* nonnull %4) #16
  ret void
}

; Function Attrs: nounwind ssp uwtable
define weak_odr hidden void @_ZNK13cloud_devices19SelectionCapabilityINS_7printer28SelectVendorCapabilityOptionENS1_28SelectVendorCapabilityTraitsEE6SaveToEPN4base5ValueE(%"class.cloud_devices::SelectionCapability"*, %"class.base::Value"*) local_unnamed_addr #0 comdat align 2 {
  %3 = alloca %"class.base::Value", align 8
  %4 = alloca %"class.base::Value", align 8
  %5 = alloca %"class.base::Value", align 8
  %6 = alloca %"class.base::Value", align 8
  %7 = alloca %"class.base::Value", align 8
  %8 = bitcast %"class.base::Value"* %5 to i8*
  call void @llvm.lifetime.start.p0i8(i64 32, i8* nonnull %8) #16
  %9 = bitcast %"class.base::Value"* %5 to i8*
  call void @llvm.memset.p0i8.i64(i8* nonnull align 8 %9, i8 -86, i64 32, i1 false)
  call void @_ZN4base5ValueC1ENS0_4TypeE(%"class.base::Value"* nonnull %5, i8 zeroext 7) #16
  %10 = getelementptr inbounds %"class.cloud_devices::SelectionCapability", %"class.cloud_devices::SelectionCapability"* %0, i64 0, i32 0, i32 0, i32 1
  %11 = bitcast %"struct.cloud_devices::printer::SelectVendorCapabilityOption"** %10 to i64*
  %12 = load i64, i64* %11, align 8
  %13 = bitcast %"class.cloud_devices::SelectionCapability"* %0 to i64*
  %14 = load i64, i64* %13, align 8
  %15 = icmp eq i64 %12, %14
  br i1 %15, label %24, label %16

16:                                               ; preds = %2
  %17 = bitcast %"class.base::Value"* %6 to i8*
  %18 = getelementptr inbounds %"class.cloud_devices::SelectionCapability", %"class.cloud_devices::SelectionCapability"* %0, i64 0, i32 1
  %19 = bitcast %"class.base::Value"* %7 to i8*
  %20 = getelementptr inbounds %"class.cloud_devices::SelectionCapability", %"class.cloud_devices::SelectionCapability"* %0, i64 0, i32 0, i32 0, i32 0
  %21 = bitcast %"class.base::Value"* %3 to i8*
  %22 = bitcast %"class.base::Value"* %4 to i8*
  %23 = bitcast %"class.base::Value"* %6 to i8*
  br label %26

24:                                               ; preds = %36, %2
  %25 = call %"class.base::Value"* @_ZN4base5Value6SetKeyEPKcOS0_(%"class.base::Value"* %1, i8* getelementptr inbounds ([0 x i8], [0 x i8]* @_ZN13cloud_devices4json10kKeyOptionE, i64 0, i64 0), %"class.base::Value"* nonnull dereferenceable(32) %5) #16
  call void @_ZN4base5ValueD1Ev(%"class.base::Value"* nonnull %5) #16
  call void @llvm.lifetime.end.p0i8(i64 32, i8* nonnull %8) #16
  ret void

26:                                               ; preds = %16, %36
  %27 = phi i64 [ 0, %16 ], [ %66, %36 ]
  call void @llvm.lifetime.start.p0i8(i64 32, i8* nonnull %17) #16
  call void @llvm.memset.p0i8.i64(i8* nonnull align 8 %23, i8 -86, i64 32, i1 false)
  call void @_ZN4base5ValueC1ENS0_4TypeE(%"class.base::Value"* nonnull %6, i8 zeroext 6) #16
  %28 = icmp eq i64 %27, 2147483648
  br i1 %28, label %29, label %30, !prof !31

29:                                               ; preds = %26
  call void @llvm.trap() #16
  unreachable

30:                                               ; preds = %26
  %31 = trunc i64 %27 to i32
  %32 = load i32, i32* %18, align 8
  %33 = icmp eq i32 %32, %31
  br i1 %33, label %34, label %36

34:                                               ; preds = %30
  call void @llvm.lifetime.start.p0i8(i64 32, i8* nonnull %19) #16
  call void @_ZN4base5ValueC1Eb(%"class.base::Value"* nonnull %7, i1 zeroext true) #16
  %35 = call %"class.base::Value"* @_ZN4base5Value6SetKeyEPKcOS0_(%"class.base::Value"* nonnull %6, i8* getelementptr inbounds ([0 x i8], [0 x i8]* @_ZN13cloud_devices4json13kKeyIsDefaultE, i64 0, i64 0), %"class.base::Value"* nonnull dereferenceable(32) %7) #16
  call void @_ZN4base5ValueD1Ev(%"class.base::Value"* nonnull %7) #16
  call void @llvm.lifetime.end.p0i8(i64 32, i8* nonnull %19) #16
  br label %36

36:                                               ; preds = %34, %30
  %37 = load %"struct.cloud_devices::printer::SelectVendorCapabilityOption"*, %"struct.cloud_devices::printer::SelectVendorCapabilityOption"** %20, align 8
  %38 = getelementptr inbounds %"struct.cloud_devices::printer::SelectVendorCapabilityOption", %"struct.cloud_devices::printer::SelectVendorCapabilityOption"* %37, i64 %27
  call void @llvm.lifetime.start.p0i8(i64 32, i8* nonnull %21) #16
  %39 = bitcast %"struct.cloud_devices::printer::SelectVendorCapabilityOption"* %38 to %"struct.std::__1::basic_string<char, std::__1::char_traits<char>, std::__1::allocator<char> >::__short"*
  %40 = getelementptr inbounds %"struct.std::__1::basic_string<char, std::__1::char_traits<char>, std::__1::allocator<char> >::__short", %"struct.std::__1::basic_string<char, std::__1::char_traits<char>, std::__1::allocator<char> >::__short"* %39, i64 0, i32 1, i32 0
  %41 = load i8, i8* %40, align 1
  %42 = icmp slt i8 %41, 0
  %43 = getelementptr inbounds %"struct.cloud_devices::printer::SelectVendorCapabilityOption", %"struct.cloud_devices::printer::SelectVendorCapabilityOption"* %38, i64 0, i32 0, i32 0, i32 0, i32 0, i32 0, i32 0, i32 0
  %44 = load i8*, i8** %43, align 8
  %45 = bitcast %"struct.cloud_devices::printer::SelectVendorCapabilityOption"* %38 to i8*
  %46 = select i1 %42, i8* %44, i8* %45
  %47 = getelementptr inbounds %"struct.cloud_devices::printer::SelectVendorCapabilityOption", %"struct.cloud_devices::printer::SelectVendorCapabilityOption"* %37, i64 %27, i32 0, i32 0, i32 0, i32 0, i32 0, i32 0, i32 1
  %48 = load i64, i64* %47, align 8
  %49 = zext i8 %41 to i64
  %50 = select i1 %42, i64 %48, i64 %49
  call void @_ZN4base5ValueC1ENS_16BasicStringPieceIcNSt3__111char_traitsIcEEEE(%"class.base::Value"* nonnull %3, i8* %46, i64 %50) #16
  %51 = call %"class.base::Value"* @_ZN4base5Value6SetKeyEPKcOS0_(%"class.base::Value"* nonnull %6, i8* getelementptr inbounds ([6 x i8], [6 x i8]* @_ZN13cloud_devices7printer12_GLOBAL__N_19kKeyValueE, i64 0, i64 0), %"class.base::Value"* nonnull dereferenceable(32) %3) #16
  call void @_ZN4base5ValueD1Ev(%"class.base::Value"* nonnull %3) #16
  call void @llvm.lifetime.end.p0i8(i64 32, i8* nonnull %21) #16
  call void @llvm.lifetime.start.p0i8(i64 32, i8* nonnull %22) #16
  %52 = getelementptr inbounds %"struct.cloud_devices::printer::SelectVendorCapabilityOption", %"struct.cloud_devices::printer::SelectVendorCapabilityOption"* %37, i64 %27, i32 1
  %53 = bitcast %"class.std::__1::basic_string"* %52 to %"struct.std::__1::basic_string<char, std::__1::char_traits<char>, std::__1::allocator<char> >::__short"*
  %54 = getelementptr inbounds %"struct.std::__1::basic_string<char, std::__1::char_traits<char>, std::__1::allocator<char> >::__short", %"struct.std::__1::basic_string<char, std::__1::char_traits<char>, std::__1::allocator<char> >::__short"* %53, i64 0, i32 1, i32 0
  %55 = load i8, i8* %54, align 1
  %56 = icmp slt i8 %55, 0
  %57 = getelementptr inbounds %"class.std::__1::basic_string", %"class.std::__1::basic_string"* %52, i64 0, i32 0, i32 0, i32 0, i32 0, i32 0, i32 0
  %58 = load i8*, i8** %57, align 8
  %59 = bitcast %"class.std::__1::basic_string"* %52 to i8*
  %60 = select i1 %56, i8* %58, i8* %59
  %61 = getelementptr inbounds %"struct.cloud_devices::printer::SelectVendorCapabilityOption", %"struct.cloud_devices::printer::SelectVendorCapabilityOption"* %37, i64 %27, i32 1, i32 0, i32 0, i32 0, i32 0, i32 0, i32 1
  %62 = load i64, i64* %61, align 8
  %63 = zext i8 %55 to i64
  %64 = select i1 %56, i64 %62, i64 %63
  call void @_ZN4base5ValueC1ENS_16BasicStringPieceIcNSt3__111char_traitsIcEEEE(%"class.base::Value"* nonnull %4, i8* %60, i64 %64) #16
  %65 = call %"class.base::Value"* @_ZN4base5Value6SetKeyEPKcOS0_(%"class.base::Value"* nonnull %6, i8* getelementptr inbounds ([13 x i8], [13 x i8]* @_ZN13cloud_devices7printer12_GLOBAL__N_115kKeyDisplayNameE, i64 0, i64 0), %"class.base::Value"* nonnull dereferenceable(32) %4) #16
  call void @_ZN4base5ValueD1Ev(%"class.base::Value"* nonnull %4) #16
  call void @llvm.lifetime.end.p0i8(i64 32, i8* nonnull %22) #16
  call void @_ZN4base5Value6AppendEOS0_(%"class.base::Value"* nonnull %5, %"class.base::Value"* nonnull dereferenceable(32) %6) #16
  call void @_ZN4base5ValueD1Ev(%"class.base::Value"* nonnull %6) #16
  call void @llvm.lifetime.end.p0i8(i64 32, i8* nonnull %17) #16
  %66 = add nuw nsw i64 %27, 1
  %67 = load i64, i64* %11, align 8
  %68 = load i64, i64* %13, align 8
  %69 = sub i64 %67, %68
  %70 = sdiv exact i64 %69, 48
  %71 = icmp ult i64 %66, %70
  br i1 %71, label %26, label %24
}

declare %"class.base::Value"* @_ZNK4base5Value13FindKeyOfTypeENS_16BasicStringPieceIcNSt3__111char_traitsIcEEEENS0_4TypeE(%"class.base::Value"*, i8*, i64, i8 zeroext) local_unnamed_addr #2

; Function Attrs: nounwind ssp uwtable
define linkonce_odr hidden zeroext i1 @_ZN13cloud_devices7printer28SelectVendorCapabilityTraits4LoadERKN4base5ValueEPNS0_28SelectVendorCapabilityOptionE(%"class.base::Value"* dereferenceable(32), %"struct.cloud_devices::printer::SelectVendorCapabilityOption"*) local_unnamed_addr #0 comdat align 2 {
  %3 = tail call %"class.std::__1::basic_string"* @_ZNK4base5Value13FindStringKeyENS_16BasicStringPieceIcNSt3__111char_traitsIcEEEE(%"class.base::Value"* %0, i8* getelementptr inbounds ([6 x i8], [6 x i8]* @_ZN13cloud_devices7printer12_GLOBAL__N_19kKeyValueE, i64 0, i64 0), i64 5) #16
  %4 = icmp eq %"class.std::__1::basic_string"* %3, null
  br i1 %4, label %72, label %5

5:                                                ; preds = %2
  %6 = getelementptr inbounds %"struct.cloud_devices::printer::SelectVendorCapabilityOption", %"struct.cloud_devices::printer::SelectVendorCapabilityOption"* %1, i64 0, i32 0
  %7 = icmp eq %"class.std::__1::basic_string"* %6, %3
  br i1 %7, label %37, label %8

8:                                                ; preds = %5
  %9 = bitcast %"struct.cloud_devices::printer::SelectVendorCapabilityOption"* %1 to %"struct.std::__1::basic_string<char, std::__1::char_traits<char>, std::__1::allocator<char> >::__short"*
  %10 = getelementptr inbounds %"struct.std::__1::basic_string<char, std::__1::char_traits<char>, std::__1::allocator<char> >::__short", %"struct.std::__1::basic_string<char, std::__1::char_traits<char>, std::__1::allocator<char> >::__short"* %9, i64 0, i32 1, i32 0
  %11 = load i8, i8* %10, align 1
  %12 = icmp slt i8 %11, 0
  %13 = bitcast %"class.std::__1::basic_string"* %3 to %"struct.std::__1::basic_string<char, std::__1::char_traits<char>, std::__1::allocator<char> >::__short"*
  %14 = getelementptr inbounds %"struct.std::__1::basic_string<char, std::__1::char_traits<char>, std::__1::allocator<char> >::__short", %"struct.std::__1::basic_string<char, std::__1::char_traits<char>, std::__1::allocator<char> >::__short"* %13, i64 0, i32 1, i32 0
  %15 = load i8, i8* %14, align 1
  %16 = icmp slt i8 %15, 0
  br i1 %12, label %27, label %17

17:                                               ; preds = %8
  br i1 %16, label %21, label %18

18:                                               ; preds = %17
  %19 = bitcast %"struct.cloud_devices::printer::SelectVendorCapabilityOption"* %1 to i8*
  %20 = bitcast %"class.std::__1::basic_string"* %3 to i8*
  tail call void @llvm.memcpy.p0i8.p0i8.i64(i8* align 8 %19, i8* nonnull align 8 %20, i64 24, i1 false) #16
  br label %37

21:                                               ; preds = %17
  %22 = getelementptr inbounds %"class.std::__1::basic_string", %"class.std::__1::basic_string"* %3, i64 0, i32 0, i32 0, i32 0, i32 0, i32 0, i32 0
  %23 = load i8*, i8** %22, align 8
  %24 = getelementptr inbounds %"class.std::__1::basic_string", %"class.std::__1::basic_string"* %3, i64 0, i32 0, i32 0, i32 0, i32 0, i32 0, i32 1
  %25 = load i64, i64* %24, align 8
  %26 = tail call dereferenceable(24) %"class.std::__1::basic_string"* @_ZNSt3__112basic_stringIcNS_11char_traitsIcEENS_9allocatorIcEEE17__assign_no_aliasILb1EEERS5_PKcm(%"class.std::__1::basic_string"* %6, i8* %23, i64 %25) #16
  br label %37

27:                                               ; preds = %8
  %28 = getelementptr inbounds %"class.std::__1::basic_string", %"class.std::__1::basic_string"* %3, i64 0, i32 0, i32 0, i32 0, i32 0, i32 0, i32 0
  %29 = load i8*, i8** %28, align 8
  %30 = getelementptr inbounds %"class.std::__1::basic_string", %"class.std::__1::basic_string"* %3, i64 0, i32 0, i32 0, i32 0, i32 0, i32 0, i32 1
  %31 = load i64, i64* %30, align 8
  %32 = bitcast %"class.std::__1::basic_string"* %3 to i8*
  %33 = zext i8 %15 to i64
  %34 = select i1 %16, i8* %29, i8* %32
  %35 = select i1 %16, i64 %31, i64 %33
  %36 = tail call dereferenceable(24) %"class.std::__1::basic_string"* @_ZNSt3__112basic_stringIcNS_11char_traitsIcEENS_9allocatorIcEEE17__assign_no_aliasILb0EEERS5_PKcm(%"class.std::__1::basic_string"* %6, i8* %34, i64 %35) #16
  br label %37

37:                                               ; preds = %5, %18, %21, %27
  %38 = tail call %"class.std::__1::basic_string"* @_ZNK4base5Value13FindStringKeyENS_16BasicStringPieceIcNSt3__111char_traitsIcEEEE(%"class.base::Value"* %0, i8* getelementptr inbounds ([13 x i8], [13 x i8]* @_ZN13cloud_devices7printer12_GLOBAL__N_115kKeyDisplayNameE, i64 0, i64 0), i64 12) #16
  %39 = icmp eq %"class.std::__1::basic_string"* %38, null
  br i1 %39, label %72, label %40

40:                                               ; preds = %37
  %41 = getelementptr inbounds %"struct.cloud_devices::printer::SelectVendorCapabilityOption", %"struct.cloud_devices::printer::SelectVendorCapabilityOption"* %1, i64 0, i32 1
  %42 = icmp eq %"class.std::__1::basic_string"* %41, %38
  br i1 %42, label %72, label %43

43:                                               ; preds = %40
  %44 = bitcast %"class.std::__1::basic_string"* %41 to %"struct.std::__1::basic_string<char, std::__1::char_traits<char>, std::__1::allocator<char> >::__short"*
  %45 = getelementptr inbounds %"struct.std::__1::basic_string<char, std::__1::char_traits<char>, std::__1::allocator<char> >::__short", %"struct.std::__1::basic_string<char, std::__1::char_traits<char>, std::__1::allocator<char> >::__short"* %44, i64 0, i32 1, i32 0
  %46 = load i8, i8* %45, align 1
  %47 = icmp slt i8 %46, 0
  %48 = bitcast %"class.std::__1::basic_string"* %38 to %"struct.std::__1::basic_string<char, std::__1::char_traits<char>, std::__1::allocator<char> >::__short"*
  %49 = getelementptr inbounds %"struct.std::__1::basic_string<char, std::__1::char_traits<char>, std::__1::allocator<char> >::__short", %"struct.std::__1::basic_string<char, std::__1::char_traits<char>, std::__1::allocator<char> >::__short"* %48, i64 0, i32 1, i32 0
  %50 = load i8, i8* %49, align 1
  %51 = icmp slt i8 %50, 0
  br i1 %47, label %62, label %52

52:                                               ; preds = %43
  br i1 %51, label %56, label %53

53:                                               ; preds = %52
  %54 = bitcast %"class.std::__1::basic_string"* %41 to i8*
  %55 = bitcast %"class.std::__1::basic_string"* %38 to i8*
  tail call void @llvm.memcpy.p0i8.p0i8.i64(i8* align 8 %54, i8* nonnull align 8 %55, i64 24, i1 false) #16
  br label %72

56:                                               ; preds = %52
  %57 = getelementptr inbounds %"class.std::__1::basic_string", %"class.std::__1::basic_string"* %38, i64 0, i32 0, i32 0, i32 0, i32 0, i32 0, i32 0
  %58 = load i8*, i8** %57, align 8
  %59 = getelementptr inbounds %"class.std::__1::basic_string", %"class.std::__1::basic_string"* %38, i64 0, i32 0, i32 0, i32 0, i32 0, i32 0, i32 1
  %60 = load i64, i64* %59, align 8
  %61 = tail call dereferenceable(24) %"class.std::__1::basic_string"* @_ZNSt3__112basic_stringIcNS_11char_traitsIcEENS_9allocatorIcEEE17__assign_no_aliasILb1EEERS5_PKcm(%"class.std::__1::basic_string"* %41, i8* %58, i64 %60) #16
  br label %72

62:                                               ; preds = %43
  %63 = getelementptr inbounds %"class.std::__1::basic_string", %"class.std::__1::basic_string"* %38, i64 0, i32 0, i32 0, i32 0, i32 0, i32 0, i32 0
  %64 = load i8*, i8** %63, align 8
  %65 = getelementptr inbounds %"class.std::__1::basic_string", %"class.std::__1::basic_string"* %38, i64 0, i32 0, i32 0, i32 0, i32 0, i32 0, i32 1
  %66 = load i64, i64* %65, align 8
  %67 = bitcast %"class.std::__1::basic_string"* %38 to i8*
  %68 = zext i8 %50 to i64
  %69 = select i1 %51, i8* %64, i8* %67
  %70 = select i1 %51, i64 %66, i64 %68
  %71 = tail call dereferenceable(24) %"class.std::__1::basic_string"* @_ZNSt3__112basic_stringIcNS_11char_traitsIcEENS_9allocatorIcEEE17__assign_no_aliasILb0EEERS5_PKcm(%"class.std::__1::basic_string"* %41, i8* %69, i64 %70) #16
  br label %72

72:                                               ; preds = %62, %56, %53, %40, %37, %2
  %73 = phi i1 [ false, %2 ], [ false, %37 ], [ true, %40 ], [ true, %53 ], [ true, %56 ], [ true, %62 ]
  ret i1 %73
}

declare i16 @_ZNK4base5Value11FindBoolKeyENS_16BasicStringPieceIcNSt3__111char_traitsIcEEEE(%"class.base::Value"*, i8*, i64) local_unnamed_addr #2

; Function Attrs: nounwind ssp uwtable
define weak_odr hidden void @_ZN13cloud_devices19SelectionCapabilityINS_7printer28SelectVendorCapabilityOptionENS1_28SelectVendorCapabilityTraitsEE16AddDefaultOptionERKS2_b(%"class.cloud_devices::SelectionCapability"*, %"struct.cloud_devices::printer::SelectVendorCapabilityOption"* dereferenceable(48), i1 zeroext) local_unnamed_addr #0 comdat align 2 {
  %4 = getelementptr inbounds %"class.cloud_devices::SelectionCapability", %"class.cloud_devices::SelectionCapability"* %0, i64 0, i32 0, i32 0, i32 1
  br i1 %2, label %7, label %5

5:                                                ; preds = %3
  %6 = load %"struct.cloud_devices::printer::SelectVendorCapabilityOption"*, %"struct.cloud_devices::printer::SelectVendorCapabilityOption"** %4, align 8
  br label %20

7:                                                ; preds = %3
  %8 = bitcast %"struct.cloud_devices::printer::SelectVendorCapabilityOption"** %4 to i64*
  %9 = load i64, i64* %8, align 8
  %10 = bitcast %"class.cloud_devices::SelectionCapability"* %0 to i64*
  %11 = load i64, i64* %10, align 8
  %12 = sub i64 %9, %11
  %13 = sdiv exact i64 %12, 48
  %14 = icmp ult i64 %13, 2147483648
  br i1 %14, label %16, label %15, !prof !27

15:                                               ; preds = %7
  tail call void @llvm.trap() #16
  unreachable

16:                                               ; preds = %7
  %17 = inttoptr i64 %9 to %"struct.cloud_devices::printer::SelectVendorCapabilityOption"*
  %18 = trunc i64 %13 to i32
  %19 = getelementptr inbounds %"class.cloud_devices::SelectionCapability", %"class.cloud_devices::SelectionCapability"* %0, i64 0, i32 1
  store i32 %18, i32* %19, align 8
  br label %20

20:                                               ; preds = %5, %16
  %21 = phi %"struct.cloud_devices::printer::SelectVendorCapabilityOption"* [ %6, %5 ], [ %17, %16 ]
  %22 = getelementptr inbounds %"class.cloud_devices::SelectionCapability", %"class.cloud_devices::SelectionCapability"* %0, i64 0, i32 0, i32 0, i32 1
  %23 = getelementptr inbounds %"class.cloud_devices::SelectionCapability", %"class.cloud_devices::SelectionCapability"* %0, i64 0, i32 0, i32 0, i32 2, i32 0, i32 0
  %24 = load %"struct.cloud_devices::printer::SelectVendorCapabilityOption"*, %"struct.cloud_devices::printer::SelectVendorCapabilityOption"** %23, align 8
  %25 = icmp eq %"struct.cloud_devices::printer::SelectVendorCapabilityOption"* %21, %24
  br i1 %25, label %59, label %26

26:                                               ; preds = %20
  %27 = bitcast %"struct.cloud_devices::printer::SelectVendorCapabilityOption"* %1 to %"struct.std::__1::basic_string<char, std::__1::char_traits<char>, std::__1::allocator<char> >::__short"*
  %28 = getelementptr inbounds %"struct.std::__1::basic_string<char, std::__1::char_traits<char>, std::__1::allocator<char> >::__short", %"struct.std::__1::basic_string<char, std::__1::char_traits<char>, std::__1::allocator<char> >::__short"* %27, i64 0, i32 1, i32 0
  %29 = load i8, i8* %28, align 1
  %30 = icmp slt i8 %29, 0
  br i1 %30, label %34, label %31

31:                                               ; preds = %26
  %32 = bitcast %"struct.cloud_devices::printer::SelectVendorCapabilityOption"* %21 to i8*
  %33 = bitcast %"struct.cloud_devices::printer::SelectVendorCapabilityOption"* %1 to i8*
  tail call void @llvm.memcpy.p0i8.p0i8.i64(i8* align 8 %32, i8* align 8 %33, i64 24, i1 false) #16
  br label %40

34:                                               ; preds = %26
  %35 = getelementptr inbounds %"struct.cloud_devices::printer::SelectVendorCapabilityOption", %"struct.cloud_devices::printer::SelectVendorCapabilityOption"* %21, i64 0, i32 0
  %36 = getelementptr inbounds %"struct.cloud_devices::printer::SelectVendorCapabilityOption", %"struct.cloud_devices::printer::SelectVendorCapabilityOption"* %1, i64 0, i32 0, i32 0, i32 0, i32 0, i32 0, i32 0, i32 0
  %37 = load i8*, i8** %36, align 8
  %38 = getelementptr inbounds %"struct.cloud_devices::printer::SelectVendorCapabilityOption", %"struct.cloud_devices::printer::SelectVendorCapabilityOption"* %1, i64 0, i32 0, i32 0, i32 0, i32 0, i32 0, i32 0, i32 1
  %39 = load i64, i64* %38, align 8
  tail call void @_ZNSt3__112basic_stringIcNS_11char_traitsIcEENS_9allocatorIcEEE25__init_copy_ctor_externalEPKcm(%"class.std::__1::basic_string"* %35, i8* %37, i64 %39) #16
  br label %40

40:                                               ; preds = %34, %31
  %41 = getelementptr inbounds %"struct.cloud_devices::printer::SelectVendorCapabilityOption", %"struct.cloud_devices::printer::SelectVendorCapabilityOption"* %21, i64 0, i32 1
  %42 = getelementptr inbounds %"struct.cloud_devices::printer::SelectVendorCapabilityOption", %"struct.cloud_devices::printer::SelectVendorCapabilityOption"* %1, i64 0, i32 1
  %43 = bitcast %"class.std::__1::basic_string"* %42 to %"struct.std::__1::basic_string<char, std::__1::char_traits<char>, std::__1::allocator<char> >::__short"*
  %44 = getelementptr inbounds %"struct.std::__1::basic_string<char, std::__1::char_traits<char>, std::__1::allocator<char> >::__short", %"struct.std::__1::basic_string<char, std::__1::char_traits<char>, std::__1::allocator<char> >::__short"* %43, i64 0, i32 1, i32 0
  %45 = load i8, i8* %44, align 1
  %46 = icmp slt i8 %45, 0
  br i1 %46, label %50, label %47

47:                                               ; preds = %40
  %48 = bitcast %"class.std::__1::basic_string"* %41 to i8*
  %49 = bitcast %"class.std::__1::basic_string"* %42 to i8*
  tail call void @llvm.memcpy.p0i8.p0i8.i64(i8* align 8 %48, i8* align 8 %49, i64 24, i1 false) #16
  br label %55

50:                                               ; preds = %40
  %51 = getelementptr inbounds %"class.std::__1::basic_string", %"class.std::__1::basic_string"* %42, i64 0, i32 0, i32 0, i32 0, i32 0, i32 0, i32 0
  %52 = load i8*, i8** %51, align 8
  %53 = getelementptr inbounds %"struct.cloud_devices::printer::SelectVendorCapabilityOption", %"struct.cloud_devices::printer::SelectVendorCapabilityOption"* %1, i64 0, i32 1, i32 0, i32 0, i32 0, i32 0, i32 0, i32 1
  %54 = load i64, i64* %53, align 8
  tail call void @_ZNSt3__112basic_stringIcNS_11char_traitsIcEENS_9allocatorIcEEE25__init_copy_ctor_externalEPKcm(%"class.std::__1::basic_string"* %41, i8* %52, i64 %54) #16
  br label %55

55:                                               ; preds = %50, %47
  %56 = getelementptr inbounds %"struct.cloud_devices::printer::SelectVendorCapabilityOption", %"struct.cloud_devices::printer::SelectVendorCapabilityOption"* %21, i64 1
  %57 = ptrtoint %"struct.cloud_devices::printer::SelectVendorCapabilityOption"* %56 to i64
  %58 = bitcast %"struct.cloud_devices::printer::SelectVendorCapabilityOption"** %22 to i64*
  store i64 %57, i64* %58, align 8
  br label %61

59:                                               ; preds = %20
  %60 = getelementptr inbounds %"class.cloud_devices::SelectionCapability", %"class.cloud_devices::SelectionCapability"* %0, i64 0, i32 0
  tail call void @_ZNSt3__16vectorIN13cloud_devices7printer28SelectVendorCapabilityOptionENS_9allocatorIS3_EEE21__push_back_slow_pathIRKS3_EEvOT_(%"class.std::__1::vector.53"* %60, %"struct.cloud_devices::printer::SelectVendorCapabilityOption"* dereferenceable(48) %1) #16
  br label %61

61:                                               ; preds = %55, %59
  ret void
}

; Function Attrs: nounwind ssp uwtable
define weak_odr hidden zeroext i1 @_ZNK13cloud_devices19SelectionCapabilityINS_7printer28SelectVendorCapabilityOptionENS1_28SelectVendorCapabilityTraitsEE7IsValidEv(%"class.cloud_devices::SelectionCapability"*) local_unnamed_addr #0 comdat align 2 {
  %2 = getelementptr inbounds %"class.cloud_devices::SelectionCapability", %"class.cloud_devices::SelectionCapability"* %0, i64 0, i32 0, i32 0, i32 0
  %3 = load %"struct.cloud_devices::printer::SelectVendorCapabilityOption"*, %"struct.cloud_devices::printer::SelectVendorCapabilityOption"** %2, align 8
  %4 = getelementptr inbounds %"class.cloud_devices::SelectionCapability", %"class.cloud_devices::SelectionCapability"* %0, i64 0, i32 0, i32 0, i32 1
  %5 = load %"struct.cloud_devices::printer::SelectVendorCapabilityOption"*, %"struct.cloud_devices::printer::SelectVendorCapabilityOption"** %4, align 8
  %6 = icmp eq %"struct.cloud_devices::printer::SelectVendorCapabilityOption"* %3, %5
  %7 = ptrtoint %"struct.cloud_devices::printer::SelectVendorCapabilityOption"* %5 to i64
  %8 = ptrtoint %"struct.cloud_devices::printer::SelectVendorCapabilityOption"* %3 to i64
  br i1 %6, label %50, label %9

9:                                                ; preds = %1
  %10 = sub i64 %7, %8
  %11 = sdiv exact i64 %10, 48
  br label %14

12:                                               ; preds = %26
  %13 = icmp ult i64 %37, %11
  br i1 %13, label %14, label %38

14:                                               ; preds = %9, %12
  %15 = phi i64 [ 0, %9 ], [ %37, %12 ]
  %16 = getelementptr inbounds %"struct.cloud_devices::printer::SelectVendorCapabilityOption", %"struct.cloud_devices::printer::SelectVendorCapabilityOption"* %3, i64 %15
  %17 = bitcast %"struct.cloud_devices::printer::SelectVendorCapabilityOption"* %16 to %"struct.std::__1::basic_string<char, std::__1::char_traits<char>, std::__1::allocator<char> >::__short"*
  %18 = getelementptr inbounds %"struct.std::__1::basic_string<char, std::__1::char_traits<char>, std::__1::allocator<char> >::__short", %"struct.std::__1::basic_string<char, std::__1::char_traits<char>, std::__1::allocator<char> >::__short"* %17, i64 0, i32 1, i32 0
  %19 = load i8, i8* %18, align 1
  %20 = icmp slt i8 %19, 0
  %21 = getelementptr inbounds %"struct.cloud_devices::printer::SelectVendorCapabilityOption", %"struct.cloud_devices::printer::SelectVendorCapabilityOption"* %3, i64 %15, i32 0, i32 0, i32 0, i32 0, i32 0, i32 0, i32 1
  %22 = load i64, i64* %21, align 8
  %23 = zext i8 %19 to i64
  %24 = select i1 %20, i64 %22, i64 %23
  %25 = icmp eq i64 %24, 0
  br i1 %25, label %50, label %26

26:                                               ; preds = %14
  %27 = getelementptr inbounds %"struct.cloud_devices::printer::SelectVendorCapabilityOption", %"struct.cloud_devices::printer::SelectVendorCapabilityOption"* %3, i64 %15, i32 1
  %28 = bitcast %"class.std::__1::basic_string"* %27 to %"struct.std::__1::basic_string<char, std::__1::char_traits<char>, std::__1::allocator<char> >::__short"*
  %29 = getelementptr inbounds %"struct.std::__1::basic_string<char, std::__1::char_traits<char>, std::__1::allocator<char> >::__short", %"struct.std::__1::basic_string<char, std::__1::char_traits<char>, std::__1::allocator<char> >::__short"* %28, i64 0, i32 1, i32 0
  %30 = load i8, i8* %29, align 1
  %31 = icmp slt i8 %30, 0
  %32 = getelementptr inbounds %"struct.cloud_devices::printer::SelectVendorCapabilityOption", %"struct.cloud_devices::printer::SelectVendorCapabilityOption"* %3, i64 %15, i32 1, i32 0, i32 0, i32 0, i32 0, i32 0, i32 1
  %33 = load i64, i64* %32, align 8
  %34 = zext i8 %30 to i64
  %35 = select i1 %31, i64 %33, i64 %34
  %36 = icmp eq i64 %35, 0
  %37 = add nuw i64 %15, 1
  br i1 %36, label %50, label %12

38:                                               ; preds = %12
  %39 = getelementptr inbounds %"class.cloud_devices::SelectionCapability", %"class.cloud_devices::SelectionCapability"* %0, i64 0, i32 1
  %40 = load i32, i32* %39, align 8
  %41 = icmp sgt i32 %40, -2
  br i1 %41, label %42, label %50

42:                                               ; preds = %38
  %43 = sub i64 %7, %8
  %44 = sdiv exact i64 %43, 48
  %45 = icmp ult i64 %44, 2147483648
  br i1 %45, label %47, label %46, !prof !27

46:                                               ; preds = %42
  tail call void @llvm.trap() #16
  unreachable

47:                                               ; preds = %42
  %48 = trunc i64 %44 to i32
  %49 = icmp slt i32 %40, %48
  br label %50

50:                                               ; preds = %26, %14, %38, %47, %1
  %51 = phi i1 [ false, %1 ], [ false, %38 ], [ %49, %47 ], [ false, %14 ], [ false, %26 ]
  ret i1 %51
}

declare %"class.base::Value"* @_ZN4base5Value6SetKeyEPKcOS0_(%"class.base::Value"*, i8*, %"class.base::Value"* dereferenceable(32)) local_unnamed_addr #2

declare void @_ZN4base5ValueC1Eb(%"class.base::Value"*, i1 zeroext) unnamed_addr #2

; Function Attrs: nounwind ssp uwtable
define weak_odr hidden zeroext i1 @_ZNK13cloud_devices19SelectionCapabilityINS_7printer28SelectVendorCapabilityOptionENS1_28SelectVendorCapabilityTraitsEE5emptyEv(%"class.cloud_devices::SelectionCapability"*) local_unnamed_addr #0 comdat align 2 {
  %2 = getelementptr inbounds %"class.cloud_devices::SelectionCapability", %"class.cloud_devices::SelectionCapability"* %0, i64 0, i32 0, i32 0, i32 0
  %3 = load %"struct.cloud_devices::printer::SelectVendorCapabilityOption"*, %"struct.cloud_devices::printer::SelectVendorCapabilityOption"** %2, align 8
  %4 = getelementptr inbounds %"class.cloud_devices::SelectionCapability", %"class.cloud_devices::SelectionCapability"* %0, i64 0, i32 0, i32 0, i32 1
  %5 = load %"struct.cloud_devices::printer::SelectVendorCapabilityOption"*, %"struct.cloud_devices::printer::SelectVendorCapabilityOption"** %4, align 8
  %6 = icmp eq %"struct.cloud_devices::printer::SelectVendorCapabilityOption"* %3, %5
  ret i1 %6
}

; Function Attrs: nounwind ssp uwtable
define weak_odr hidden i64 @_ZNK13cloud_devices19SelectionCapabilityINS_7printer28SelectVendorCapabilityOptionENS1_28SelectVendorCapabilityTraitsEE4sizeEv(%"class.cloud_devices::SelectionCapability"*) local_unnamed_addr #0 comdat align 2 {
  %2 = getelementptr inbounds %"class.cloud_devices::SelectionCapability", %"class.cloud_devices::SelectionCapability"* %0, i64 0, i32 0, i32 0, i32 1
  %3 = bitcast %"struct.cloud_devices::printer::SelectVendorCapabilityOption"** %2 to i64*
  %4 = load i64, i64* %3, align 8
  %5 = bitcast %"class.cloud_devices::SelectionCapability"* %0 to i64*
  %6 = load i64, i64* %5, align 8
  %7 = sub i64 %4, %6
  %8 = sdiv exact i64 %7, 48
  ret i64 %8
}

; Function Attrs: nounwind ssp uwtable
define weak_odr hidden dereferenceable(48) %"struct.cloud_devices::printer::SelectVendorCapabilityOption"* @_ZNK13cloud_devices19SelectionCapabilityINS_7printer28SelectVendorCapabilityOptionENS1_28SelectVendorCapabilityTraitsEEixEm(%"class.cloud_devices::SelectionCapability"*, i64) local_unnamed_addr #0 comdat align 2 {
  %3 = getelementptr inbounds %"class.cloud_devices::SelectionCapability", %"class.cloud_devices::SelectionCapability"* %0, i64 0, i32 0, i32 0, i32 0
  %4 = load %"struct.cloud_devices::printer::SelectVendorCapabilityOption"*, %"struct.cloud_devices::printer::SelectVendorCapabilityOption"** %3, align 8
  %5 = getelementptr inbounds %"struct.cloud_devices::printer::SelectVendorCapabilityOption", %"struct.cloud_devices::printer::SelectVendorCapabilityOption"* %4, i64 %1
  ret %"struct.cloud_devices::printer::SelectVendorCapabilityOption"* %5
}

; Function Attrs: nounwind ssp uwtable
define weak_odr hidden zeroext i1 @_ZNK13cloud_devices19SelectionCapabilityINS_7printer28SelectVendorCapabilityOptionENS1_28SelectVendorCapabilityTraitsEE8ContainsERKS2_(%"class.cloud_devices::SelectionCapability"*, %"struct.cloud_devices::printer::SelectVendorCapabilityOption"* dereferenceable(48)) local_unnamed_addr #0 comdat align 2 {
  %3 = getelementptr inbounds %"class.cloud_devices::SelectionCapability", %"class.cloud_devices::SelectionCapability"* %0, i64 0, i32 0, i32 0, i32 0
  %4 = load %"struct.cloud_devices::printer::SelectVendorCapabilityOption"*, %"struct.cloud_devices::printer::SelectVendorCapabilityOption"** %3, align 8
  %5 = getelementptr inbounds %"class.cloud_devices::SelectionCapability", %"class.cloud_devices::SelectionCapability"* %0, i64 0, i32 0, i32 0, i32 1
  %6 = load %"struct.cloud_devices::printer::SelectVendorCapabilityOption"*, %"struct.cloud_devices::printer::SelectVendorCapabilityOption"** %5, align 8
  %7 = icmp eq %"struct.cloud_devices::printer::SelectVendorCapabilityOption"* %4, %6
  br i1 %7, label %14, label %8

8:                                                ; preds = %2, %11
  %9 = phi %"struct.cloud_devices::printer::SelectVendorCapabilityOption"* [ %12, %11 ], [ %4, %2 ]
  %10 = tail call zeroext i1 @_ZNK13cloud_devices7printer28SelectVendorCapabilityOptioneqERKS1_(%"struct.cloud_devices::printer::SelectVendorCapabilityOption"* %9, %"struct.cloud_devices::printer::SelectVendorCapabilityOption"* dereferenceable(48) %1) #16
  br i1 %10, label %14, label %11

11:                                               ; preds = %8
  %12 = getelementptr inbounds %"struct.cloud_devices::printer::SelectVendorCapabilityOption", %"struct.cloud_devices::printer::SelectVendorCapabilityOption"* %9, i64 1
  %13 = icmp eq %"struct.cloud_devices::printer::SelectVendorCapabilityOption"* %12, %6
  br i1 %13, label %14, label %8

14:                                               ; preds = %8, %11, %2
  %15 = phi %"struct.cloud_devices::printer::SelectVendorCapabilityOption"* [ %4, %2 ], [ %6, %11 ], [ %9, %8 ]
  %16 = icmp ne %"struct.cloud_devices::printer::SelectVendorCapabilityOption"* %15, %6
  ret i1 %16
}

; Function Attrs: nounwind ssp uwtable
define weak_odr hidden dereferenceable(48) %"struct.cloud_devices::printer::SelectVendorCapabilityOption"* @_ZNK13cloud_devices19SelectionCapabilityINS_7printer28SelectVendorCapabilityOptionENS1_28SelectVendorCapabilityTraitsEE10GetDefaultEv(%"class.cloud_devices::SelectionCapability"*) local_unnamed_addr #0 comdat align 2 {
  %2 = alloca %"class.logging::CheckError", align 8
  %3 = getelementptr inbounds %"class.cloud_devices::SelectionCapability", %"class.cloud_devices::SelectionCapability"* %0, i64 0, i32 0, i32 0, i32 0
  %4 = load %"struct.cloud_devices::printer::SelectVendorCapabilityOption"*, %"struct.cloud_devices::printer::SelectVendorCapabilityOption"** %3, align 8
  %5 = getelementptr inbounds %"class.cloud_devices::SelectionCapability", %"class.cloud_devices::SelectionCapability"* %0, i64 0, i32 0, i32 0, i32 1
  %6 = load %"struct.cloud_devices::printer::SelectVendorCapabilityOption"*, %"struct.cloud_devices::printer::SelectVendorCapabilityOption"** %5, align 8
  %7 = icmp eq %"struct.cloud_devices::printer::SelectVendorCapabilityOption"* %4, %6
  br i1 %7, label %8, label %12

8:                                                ; preds = %1
  %9 = bitcast %"class.logging::CheckError"* %2 to i8*
  call void @llvm.lifetime.start.p0i8(i64 8, i8* nonnull %9) #16
  call void @_ZN7logging10CheckError5CheckEPKciS2_(%"class.logging::CheckError"* nonnull sret %2, i8* getelementptr inbounds ([58 x i8], [58 x i8]* @.str, i64 0, i64 0), i32 117, i8* getelementptr inbounds ([18 x i8], [18 x i8]* @.str.1, i64 0, i64 0)) #16
  %10 = call dereferenceable(160) %"class.std::__1::basic_ostream"* @_ZN7logging10CheckError6streamEv(%"class.logging::CheckError"* nonnull %2) #16
  call void @_ZN7logging10CheckErrorD1Ev(%"class.logging::CheckError"* nonnull %2) #16
  call void @llvm.lifetime.end.p0i8(i64 8, i8* nonnull %9) #16
  %11 = load %"struct.cloud_devices::printer::SelectVendorCapabilityOption"*, %"struct.cloud_devices::printer::SelectVendorCapabilityOption"** %3, align 8
  br label %12

12:                                               ; preds = %1, %8
  %13 = phi %"struct.cloud_devices::printer::SelectVendorCapabilityOption"* [ %4, %1 ], [ %11, %8 ]
  %14 = getelementptr inbounds %"class.cloud_devices::SelectionCapability", %"class.cloud_devices::SelectionCapability"* %0, i64 0, i32 1
  %15 = load i32, i32* %14, align 4
  %16 = icmp sgt i32 %15, 0
  %17 = select i1 %16, i32 %15, i32 0
  %18 = zext i32 %17 to i64
  %19 = getelementptr inbounds %"struct.cloud_devices::printer::SelectVendorCapabilityOption", %"struct.cloud_devices::printer::SelectVendorCapabilityOption"* %13, i64 %18
  ret %"struct.cloud_devices::printer::SelectVendorCapabilityOption"* %19
}

declare void @_ZN7logging10CheckError5CheckEPKciS2_(%"class.logging::CheckError"* sret, i8*, i32, i8*) local_unnamed_addr #2

declare dereferenceable(160) %"class.std::__1::basic_ostream"* @_ZN7logging10CheckError6streamEv(%"class.logging::CheckError"*) local_unnamed_addr #2

; Function Attrs: nounwind
declare void @_ZN7logging10CheckErrorD1Ev(%"class.logging::CheckError"*) unnamed_addr #3

; Function Attrs: nounwind ssp uwtable
define weak_odr hidden void @_ZN13cloud_devices19SelectionCapabilityINS_7printer28SelectVendorCapabilityOptionENS1_28SelectVendorCapabilityTraitsEE9AddOptionERKS2_(%"class.cloud_devices::SelectionCapability"*, %"struct.cloud_devices::printer::SelectVendorCapabilityOption"* dereferenceable(48)) local_unnamed_addr #0 comdat align 2 {
  %3 = getelementptr inbounds %"class.cloud_devices::SelectionCapability", %"class.cloud_devices::SelectionCapability"* %0, i64 0, i32 0, i32 0, i32 1
  %4 = load %"struct.cloud_devices::printer::SelectVendorCapabilityOption"*, %"struct.cloud_devices::printer::SelectVendorCapabilityOption"** %3, align 8
  %5 = getelementptr inbounds %"class.cloud_devices::SelectionCapability", %"class.cloud_devices::SelectionCapability"* %0, i64 0, i32 0, i32 0, i32 2, i32 0, i32 0
  %6 = load %"struct.cloud_devices::printer::SelectVendorCapabilityOption"*, %"struct.cloud_devices::printer::SelectVendorCapabilityOption"** %5, align 8
  %7 = icmp eq %"struct.cloud_devices::printer::SelectVendorCapabilityOption"* %4, %6
  br i1 %7, label %41, label %8

8:                                                ; preds = %2
  %9 = bitcast %"struct.cloud_devices::printer::SelectVendorCapabilityOption"* %1 to %"struct.std::__1::basic_string<char, std::__1::char_traits<char>, std::__1::allocator<char> >::__short"*
  %10 = getelementptr inbounds %"struct.std::__1::basic_string<char, std::__1::char_traits<char>, std::__1::allocator<char> >::__short", %"struct.std::__1::basic_string<char, std::__1::char_traits<char>, std::__1::allocator<char> >::__short"* %9, i64 0, i32 1, i32 0
  %11 = load i8, i8* %10, align 1
  %12 = icmp slt i8 %11, 0
  br i1 %12, label %16, label %13

13:                                               ; preds = %8
  %14 = bitcast %"struct.cloud_devices::printer::SelectVendorCapabilityOption"* %4 to i8*
  %15 = bitcast %"struct.cloud_devices::printer::SelectVendorCapabilityOption"* %1 to i8*
  tail call void @llvm.memcpy.p0i8.p0i8.i64(i8* align 8 %14, i8* align 8 %15, i64 24, i1 false) #16
  br label %22

16:                                               ; preds = %8
  %17 = getelementptr inbounds %"struct.cloud_devices::printer::SelectVendorCapabilityOption", %"struct.cloud_devices::printer::SelectVendorCapabilityOption"* %4, i64 0, i32 0
  %18 = getelementptr inbounds %"struct.cloud_devices::printer::SelectVendorCapabilityOption", %"struct.cloud_devices::printer::SelectVendorCapabilityOption"* %1, i64 0, i32 0, i32 0, i32 0, i32 0, i32 0, i32 0, i32 0
  %19 = load i8*, i8** %18, align 8
  %20 = getelementptr inbounds %"struct.cloud_devices::printer::SelectVendorCapabilityOption", %"struct.cloud_devices::printer::SelectVendorCapabilityOption"* %1, i64 0, i32 0, i32 0, i32 0, i32 0, i32 0, i32 0, i32 1
  %21 = load i64, i64* %20, align 8
  tail call void @_ZNSt3__112basic_stringIcNS_11char_traitsIcEENS_9allocatorIcEEE25__init_copy_ctor_externalEPKcm(%"class.std::__1::basic_string"* %17, i8* %19, i64 %21) #16
  br label %22

22:                                               ; preds = %16, %13
  %23 = getelementptr inbounds %"struct.cloud_devices::printer::SelectVendorCapabilityOption", %"struct.cloud_devices::printer::SelectVendorCapabilityOption"* %4, i64 0, i32 1
  %24 = getelementptr inbounds %"struct.cloud_devices::printer::SelectVendorCapabilityOption", %"struct.cloud_devices::printer::SelectVendorCapabilityOption"* %1, i64 0, i32 1
  %25 = bitcast %"class.std::__1::basic_string"* %24 to %"struct.std::__1::basic_string<char, std::__1::char_traits<char>, std::__1::allocator<char> >::__short"*
  %26 = getelementptr inbounds %"struct.std::__1::basic_string<char, std::__1::char_traits<char>, std::__1::allocator<char> >::__short", %"struct.std::__1::basic_string<char, std::__1::char_traits<char>, std::__1::allocator<char> >::__short"* %25, i64 0, i32 1, i32 0
  %27 = load i8, i8* %26, align 1
  %28 = icmp slt i8 %27, 0
  br i1 %28, label %32, label %29

29:                                               ; preds = %22
  %30 = bitcast %"class.std::__1::basic_string"* %23 to i8*
  %31 = bitcast %"class.std::__1::basic_string"* %24 to i8*
  tail call void @llvm.memcpy.p0i8.p0i8.i64(i8* align 8 %30, i8* align 8 %31, i64 24, i1 false) #16
  br label %37

32:                                               ; preds = %22
  %33 = getelementptr inbounds %"class.std::__1::basic_string", %"class.std::__1::basic_string"* %24, i64 0, i32 0, i32 0, i32 0, i32 0, i32 0, i32 0
  %34 = load i8*, i8** %33, align 8
  %35 = getelementptr inbounds %"struct.cloud_devices::printer::SelectVendorCapabilityOption", %"struct.cloud_devices::printer::SelectVendorCapabilityOption"* %1, i64 0, i32 1, i32 0, i32 0, i32 0, i32 0, i32 0, i32 1
  %36 = load i64, i64* %35, align 8
  tail call void @_ZNSt3__112basic_stringIcNS_11char_traitsIcEENS_9allocatorIcEEE25__init_copy_ctor_externalEPKcm(%"class.std::__1::basic_string"* %23, i8* %34, i64 %36) #16
  br label %37

37:                                               ; preds = %32, %29
  %38 = getelementptr inbounds %"struct.cloud_devices::printer::SelectVendorCapabilityOption", %"struct.cloud_devices::printer::SelectVendorCapabilityOption"* %4, i64 1
  %39 = ptrtoint %"struct.cloud_devices::printer::SelectVendorCapabilityOption"* %38 to i64
  %40 = bitcast %"struct.cloud_devices::printer::SelectVendorCapabilityOption"** %3 to i64*
  store i64 %39, i64* %40, align 8
  br label %43

41:                                               ; preds = %2
  %42 = getelementptr inbounds %"class.cloud_devices::SelectionCapability", %"class.cloud_devices::SelectionCapability"* %0, i64 0, i32 0
  tail call void @_ZNSt3__16vectorIN13cloud_devices7printer28SelectVendorCapabilityOptionENS_9allocatorIS3_EEE21__push_back_slow_pathIRKS3_EEvOT_(%"class.std::__1::vector.53"* %42, %"struct.cloud_devices::printer::SelectVendorCapabilityOption"* dereferenceable(48) %1) #16
  br label %43

43:                                               ; preds = %37, %41
  ret void
}

; Function Attrs: nounwind ssp uwtable
define weak_odr hidden void @_ZN13cloud_devices19SelectionCapabilityINS_7printer5ColorENS1_11ColorTraitsEEC2Ev(%"class.cloud_devices::SelectionCapability.67"*) unnamed_addr #0 comdat($_ZN13cloud_devices19SelectionCapabilityINS_7printer5ColorENS1_11ColorTraitsEEC5Ev) align 2 {
  %2 = bitcast %"class.cloud_devices::SelectionCapability.67"* %0 to i8*
  tail call void @llvm.memset.p0i8.i64(i8* align 8 %2, i8 0, i64 24, i1 false) #16
  %3 = getelementptr inbounds %"class.cloud_devices::SelectionCapability.67", %"class.cloud_devices::SelectionCapability.67"* %0, i64 0, i32 0, i32 0, i32 1
  store %"struct.cloud_devices::printer::Color"* null, %"struct.cloud_devices::printer::Color"** %3, align 8
  %4 = getelementptr inbounds %"class.cloud_devices::SelectionCapability.67", %"class.cloud_devices::SelectionCapability.67"* %0, i64 0, i32 1
  store i32 -1, i32* %4, align 8
  ret void
}

; Function Attrs: nounwind ssp uwtable
define weak_odr hidden void @_ZN13cloud_devices19SelectionCapabilityINS_7printer5ColorENS1_11ColorTraitsEE5ResetEv(%"class.cloud_devices::SelectionCapability.67"*) local_unnamed_addr #0 comdat align 2 {
  %2 = getelementptr inbounds %"class.cloud_devices::SelectionCapability.67", %"class.cloud_devices::SelectionCapability.67"* %0, i64 0, i32 0, i32 0, i32 0
  %3 = load %"struct.cloud_devices::printer::Color"*, %"struct.cloud_devices::printer::Color"** %2, align 8
  %4 = getelementptr inbounds %"class.cloud_devices::SelectionCapability.67", %"class.cloud_devices::SelectionCapability.67"* %0, i64 0, i32 0, i32 0, i32 1
  %5 = load %"struct.cloud_devices::printer::Color"*, %"struct.cloud_devices::printer::Color"** %4, align 8
  %6 = icmp eq %"struct.cloud_devices::printer::Color"* %5, %3
  br i1 %6, label %29, label %7

7:                                                ; preds = %1, %27
  %8 = phi %"struct.cloud_devices::printer::Color"* [ %9, %27 ], [ %5, %1 ]
  %9 = getelementptr inbounds %"struct.cloud_devices::printer::Color", %"struct.cloud_devices::printer::Color"* %8, i64 -1
  %10 = getelementptr inbounds %"struct.cloud_devices::printer::Color", %"struct.cloud_devices::printer::Color"* %8, i64 -1, i32 2
  %11 = bitcast %"class.std::__1::basic_string"* %10 to %"struct.std::__1::basic_string<char, std::__1::char_traits<char>, std::__1::allocator<char> >::__short"*
  %12 = getelementptr inbounds %"struct.std::__1::basic_string<char, std::__1::char_traits<char>, std::__1::allocator<char> >::__short", %"struct.std::__1::basic_string<char, std::__1::char_traits<char>, std::__1::allocator<char> >::__short"* %11, i64 0, i32 1, i32 0
  %13 = load i8, i8* %12, align 1
  %14 = icmp slt i8 %13, 0
  br i1 %14, label %15, label %18

15:                                               ; preds = %7
  %16 = getelementptr inbounds %"class.std::__1::basic_string", %"class.std::__1::basic_string"* %10, i64 0, i32 0, i32 0, i32 0, i32 0, i32 0, i32 0
  %17 = load i8*, i8** %16, align 8
  tail call void @_ZdlPv(i8* %17) #17
  br label %18

18:                                               ; preds = %15, %7
  %19 = getelementptr inbounds %"struct.cloud_devices::printer::Color", %"struct.cloud_devices::printer::Color"* %8, i64 -1, i32 1
  %20 = bitcast %"class.std::__1::basic_string"* %19 to %"struct.std::__1::basic_string<char, std::__1::char_traits<char>, std::__1::allocator<char> >::__short"*
  %21 = getelementptr inbounds %"struct.std::__1::basic_string<char, std::__1::char_traits<char>, std::__1::allocator<char> >::__short", %"struct.std::__1::basic_string<char, std::__1::char_traits<char>, std::__1::allocator<char> >::__short"* %20, i64 0, i32 1, i32 0
  %22 = load i8, i8* %21, align 1
  %23 = icmp slt i8 %22, 0
  br i1 %23, label %24, label %27

24:                                               ; preds = %18
  %25 = getelementptr inbounds %"class.std::__1::basic_string", %"class.std::__1::basic_string"* %19, i64 0, i32 0, i32 0, i32 0, i32 0, i32 0, i32 0
  %26 = load i8*, i8** %25, align 8
  tail call void @_ZdlPv(i8* %26) #17
  br label %27

27:                                               ; preds = %24, %18
  %28 = icmp eq %"struct.cloud_devices::printer::Color"* %9, %3
  br i1 %28, label %29, label %7

29:                                               ; preds = %27, %1
  store %"struct.cloud_devices::printer::Color"* %3, %"struct.cloud_devices::printer::Color"** %4, align 8
  %30 = getelementptr inbounds %"class.cloud_devices::SelectionCapability.67", %"class.cloud_devices::SelectionCapability.67"* %0, i64 0, i32 1
  store i32 -1, i32* %30, align 8
  ret void
}

; Function Attrs: nounwind ssp uwtable
define weak_odr hidden void @_ZN13cloud_devices19SelectionCapabilityINS_7printer5ColorENS1_11ColorTraitsEEC2EOS4_(%"class.cloud_devices::SelectionCapability.67"*, %"class.cloud_devices::SelectionCapability.67"* dereferenceable(32)) unnamed_addr #0 comdat($_ZN13cloud_devices19SelectionCapabilityINS_7printer5ColorENS1_11ColorTraitsEEC5EOS4_) align 2 {
  %3 = bitcast %"class.cloud_devices::SelectionCapability.67"* %0 to i8*
  tail call void @llvm.memset.p0i8.i64(i8* align 8 %3, i8 0, i64 24, i1 false) #16
  %4 = bitcast %"class.cloud_devices::SelectionCapability.67"* %1 to i64*
  %5 = load i64, i64* %4, align 8
  %6 = bitcast %"class.cloud_devices::SelectionCapability.67"* %0 to i64*
  store i64 %5, i64* %6, align 8
  %7 = getelementptr inbounds %"class.cloud_devices::SelectionCapability.67", %"class.cloud_devices::SelectionCapability.67"* %1, i64 0, i32 0, i32 0, i32 1
  %8 = bitcast %"struct.cloud_devices::printer::Color"** %7 to i64*
  %9 = load i64, i64* %8, align 8
  %10 = getelementptr inbounds %"class.cloud_devices::SelectionCapability.67", %"class.cloud_devices::SelectionCapability.67"* %0, i64 0, i32 0, i32 0, i32 1
  %11 = bitcast %"struct.cloud_devices::printer::Color"** %10 to i64*
  store i64 %9, i64* %11, align 8
  %12 = getelementptr inbounds %"class.cloud_devices::SelectionCapability.67", %"class.cloud_devices::SelectionCapability.67"* %1, i64 0, i32 0, i32 0, i32 2, i32 0, i32 0
  %13 = bitcast %"struct.cloud_devices::printer::Color"** %12 to i64*
  %14 = load i64, i64* %13, align 8
  %15 = getelementptr inbounds %"class.cloud_devices::SelectionCapability.67", %"class.cloud_devices::SelectionCapability.67"* %0, i64 0, i32 0, i32 0, i32 2, i32 0, i32 0
  %16 = bitcast %"struct.cloud_devices::printer::Color"** %15 to i64*
  store i64 %14, i64* %16, align 8
  %17 = bitcast %"class.cloud_devices::SelectionCapability.67"* %1 to i8*
  tail call void @llvm.memset.p0i8.i64(i8* align 8 %17, i8 0, i64 24, i1 false) #16
  %18 = getelementptr inbounds %"class.cloud_devices::SelectionCapability.67", %"class.cloud_devices::SelectionCapability.67"* %0, i64 0, i32 1
  %19 = getelementptr inbounds %"class.cloud_devices::SelectionCapability.67", %"class.cloud_devices::SelectionCapability.67"* %1, i64 0, i32 1
  %20 = load i32, i32* %19, align 8
  store i32 %20, i32* %18, align 8
  ret void
}

; Function Attrs: nounwind ssp uwtable
define weak_odr hidden void @_ZN13cloud_devices19SelectionCapabilityINS_7printer5ColorENS1_11ColorTraitsEED2Ev(%"class.cloud_devices::SelectionCapability.67"*) unnamed_addr #0 comdat($_ZN13cloud_devices19SelectionCapabilityINS_7printer5ColorENS1_11ColorTraitsEED5Ev) align 2 {
  %2 = getelementptr inbounds %"class.cloud_devices::SelectionCapability.67", %"class.cloud_devices::SelectionCapability.67"* %0, i64 0, i32 0, i32 0, i32 0
  %3 = load %"struct.cloud_devices::printer::Color"*, %"struct.cloud_devices::printer::Color"** %2, align 8
  %4 = icmp eq %"struct.cloud_devices::printer::Color"* %3, null
  br i1 %4, label %37, label %5

5:                                                ; preds = %1
  %6 = bitcast %"struct.cloud_devices::printer::Color"* %3 to i8*
  %7 = getelementptr inbounds %"class.cloud_devices::SelectionCapability.67", %"class.cloud_devices::SelectionCapability.67"* %0, i64 0, i32 0, i32 0, i32 1
  %8 = load %"struct.cloud_devices::printer::Color"*, %"struct.cloud_devices::printer::Color"** %7, align 8
  %9 = icmp eq %"struct.cloud_devices::printer::Color"* %8, %3
  br i1 %9, label %35, label %10

10:                                               ; preds = %5, %30
  %11 = phi %"struct.cloud_devices::printer::Color"* [ %12, %30 ], [ %8, %5 ]
  %12 = getelementptr inbounds %"struct.cloud_devices::printer::Color", %"struct.cloud_devices::printer::Color"* %11, i64 -1
  %13 = getelementptr inbounds %"struct.cloud_devices::printer::Color", %"struct.cloud_devices::printer::Color"* %11, i64 -1, i32 2
  %14 = bitcast %"class.std::__1::basic_string"* %13 to %"struct.std::__1::basic_string<char, std::__1::char_traits<char>, std::__1::allocator<char> >::__short"*
  %15 = getelementptr inbounds %"struct.std::__1::basic_string<char, std::__1::char_traits<char>, std::__1::allocator<char> >::__short", %"struct.std::__1::basic_string<char, std::__1::char_traits<char>, std::__1::allocator<char> >::__short"* %14, i64 0, i32 1, i32 0
  %16 = load i8, i8* %15, align 1
  %17 = icmp slt i8 %16, 0
  br i1 %17, label %18, label %21

18:                                               ; preds = %10
  %19 = getelementptr inbounds %"class.std::__1::basic_string", %"class.std::__1::basic_string"* %13, i64 0, i32 0, i32 0, i32 0, i32 0, i32 0, i32 0
  %20 = load i8*, i8** %19, align 8
  tail call void @_ZdlPv(i8* %20) #17
  br label %21

21:                                               ; preds = %18, %10
  %22 = getelementptr inbounds %"struct.cloud_devices::printer::Color", %"struct.cloud_devices::printer::Color"* %11, i64 -1, i32 1
  %23 = bitcast %"class.std::__1::basic_string"* %22 to %"struct.std::__1::basic_string<char, std::__1::char_traits<char>, std::__1::allocator<char> >::__short"*
  %24 = getelementptr inbounds %"struct.std::__1::basic_string<char, std::__1::char_traits<char>, std::__1::allocator<char> >::__short", %"struct.std::__1::basic_string<char, std::__1::char_traits<char>, std::__1::allocator<char> >::__short"* %23, i64 0, i32 1, i32 0
  %25 = load i8, i8* %24, align 1
  %26 = icmp slt i8 %25, 0
  br i1 %26, label %27, label %30

27:                                               ; preds = %21
  %28 = getelementptr inbounds %"class.std::__1::basic_string", %"class.std::__1::basic_string"* %22, i64 0, i32 0, i32 0, i32 0, i32 0, i32 0, i32 0
  %29 = load i8*, i8** %28, align 8
  tail call void @_ZdlPv(i8* %29) #17
  br label %30

30:                                               ; preds = %27, %21
  %31 = icmp eq %"struct.cloud_devices::printer::Color"* %12, %3
  br i1 %31, label %32, label %10

32:                                               ; preds = %30
  %33 = bitcast %"class.cloud_devices::SelectionCapability.67"* %0 to i8**
  %34 = load i8*, i8** %33, align 8
  br label %35

35:                                               ; preds = %32, %5
  %36 = phi i8* [ %34, %32 ], [ %6, %5 ]
  store %"struct.cloud_devices::printer::Color"* %3, %"struct.cloud_devices::printer::Color"** %7, align 8
  tail call void @_ZdlPv(i8* %36) #17
  br label %37

37:                                               ; preds = %1, %35
  ret void
}

; Function Attrs: nounwind ssp uwtable
define weak_odr hidden dereferenceable(32) %"class.cloud_devices::SelectionCapability.67"* @_ZN13cloud_devices19SelectionCapabilityINS_7printer5ColorENS1_11ColorTraitsEEaSEOS4_(%"class.cloud_devices::SelectionCapability.67"*, %"class.cloud_devices::SelectionCapability.67"* dereferenceable(32)) local_unnamed_addr #0 comdat align 2 {
  %3 = getelementptr inbounds %"class.cloud_devices::SelectionCapability.67", %"class.cloud_devices::SelectionCapability.67"* %0, i64 0, i32 0, i32 0, i32 0
  %4 = load %"struct.cloud_devices::printer::Color"*, %"struct.cloud_devices::printer::Color"** %3, align 8
  %5 = icmp eq %"struct.cloud_devices::printer::Color"* %4, null
  br i1 %5, label %39, label %6

6:                                                ; preds = %2
  %7 = bitcast %"struct.cloud_devices::printer::Color"* %4 to i8*
  %8 = getelementptr inbounds %"class.cloud_devices::SelectionCapability.67", %"class.cloud_devices::SelectionCapability.67"* %0, i64 0, i32 0, i32 0, i32 1
  %9 = load %"struct.cloud_devices::printer::Color"*, %"struct.cloud_devices::printer::Color"** %8, align 8
  %10 = icmp eq %"struct.cloud_devices::printer::Color"* %9, %4
  br i1 %10, label %36, label %11

11:                                               ; preds = %6, %31
  %12 = phi %"struct.cloud_devices::printer::Color"* [ %13, %31 ], [ %9, %6 ]
  %13 = getelementptr inbounds %"struct.cloud_devices::printer::Color", %"struct.cloud_devices::printer::Color"* %12, i64 -1
  %14 = getelementptr inbounds %"struct.cloud_devices::printer::Color", %"struct.cloud_devices::printer::Color"* %12, i64 -1, i32 2
  %15 = bitcast %"class.std::__1::basic_string"* %14 to %"struct.std::__1::basic_string<char, std::__1::char_traits<char>, std::__1::allocator<char> >::__short"*
  %16 = getelementptr inbounds %"struct.std::__1::basic_string<char, std::__1::char_traits<char>, std::__1::allocator<char> >::__short", %"struct.std::__1::basic_string<char, std::__1::char_traits<char>, std::__1::allocator<char> >::__short"* %15, i64 0, i32 1, i32 0
  %17 = load i8, i8* %16, align 1
  %18 = icmp slt i8 %17, 0
  br i1 %18, label %19, label %22

19:                                               ; preds = %11
  %20 = getelementptr inbounds %"class.std::__1::basic_string", %"class.std::__1::basic_string"* %14, i64 0, i32 0, i32 0, i32 0, i32 0, i32 0, i32 0
  %21 = load i8*, i8** %20, align 8
  tail call void @_ZdlPv(i8* %21) #17
  br label %22

22:                                               ; preds = %19, %11
  %23 = getelementptr inbounds %"struct.cloud_devices::printer::Color", %"struct.cloud_devices::printer::Color"* %12, i64 -1, i32 1
  %24 = bitcast %"class.std::__1::basic_string"* %23 to %"struct.std::__1::basic_string<char, std::__1::char_traits<char>, std::__1::allocator<char> >::__short"*
  %25 = getelementptr inbounds %"struct.std::__1::basic_string<char, std::__1::char_traits<char>, std::__1::allocator<char> >::__short", %"struct.std::__1::basic_string<char, std::__1::char_traits<char>, std::__1::allocator<char> >::__short"* %24, i64 0, i32 1, i32 0
  %26 = load i8, i8* %25, align 1
  %27 = icmp slt i8 %26, 0
  br i1 %27, label %28, label %31

28:                                               ; preds = %22
  %29 = getelementptr inbounds %"class.std::__1::basic_string", %"class.std::__1::basic_string"* %23, i64 0, i32 0, i32 0, i32 0, i32 0, i32 0, i32 0
  %30 = load i8*, i8** %29, align 8
  tail call void @_ZdlPv(i8* %30) #17
  br label %31

31:                                               ; preds = %28, %22
  %32 = icmp eq %"struct.cloud_devices::printer::Color"* %13, %4
  br i1 %32, label %33, label %11

33:                                               ; preds = %31
  %34 = bitcast %"class.cloud_devices::SelectionCapability.67"* %0 to i8**
  %35 = load i8*, i8** %34, align 8
  br label %36

36:                                               ; preds = %33, %6
  %37 = phi i8* [ %35, %33 ], [ %7, %6 ]
  store %"struct.cloud_devices::printer::Color"* %4, %"struct.cloud_devices::printer::Color"** %8, align 8
  tail call void @_ZdlPv(i8* %37) #17
  %38 = bitcast %"class.cloud_devices::SelectionCapability.67"* %0 to i8*
  tail call void @llvm.memset.p0i8.i64(i8* align 8 %38, i8 0, i64 24, i1 false) #16
  br label %39

39:                                               ; preds = %2, %36
  %40 = bitcast %"class.cloud_devices::SelectionCapability.67"* %1 to i64*
  %41 = load i64, i64* %40, align 8
  %42 = bitcast %"class.cloud_devices::SelectionCapability.67"* %0 to i64*
  store i64 %41, i64* %42, align 8
  %43 = getelementptr inbounds %"class.cloud_devices::SelectionCapability.67", %"class.cloud_devices::SelectionCapability.67"* %1, i64 0, i32 0, i32 0, i32 1
  %44 = bitcast %"struct.cloud_devices::printer::Color"** %43 to i64*
  %45 = load i64, i64* %44, align 8
  %46 = getelementptr inbounds %"class.cloud_devices::SelectionCapability.67", %"class.cloud_devices::SelectionCapability.67"* %0, i64 0, i32 0, i32 0, i32 1
  %47 = bitcast %"struct.cloud_devices::printer::Color"** %46 to i64*
  store i64 %45, i64* %47, align 8
  %48 = getelementptr inbounds %"class.cloud_devices::SelectionCapability.67", %"class.cloud_devices::SelectionCapability.67"* %1, i64 0, i32 0, i32 0, i32 2, i32 0, i32 0
  %49 = bitcast %"struct.cloud_devices::printer::Color"** %48 to i64*
  %50 = load i64, i64* %49, align 8
  %51 = getelementptr inbounds %"class.cloud_devices::SelectionCapability.67", %"class.cloud_devices::SelectionCapability.67"* %0, i64 0, i32 0, i32 0, i32 2, i32 0, i32 0
  %52 = bitcast %"struct.cloud_devices::printer::Color"** %51 to i64*
  store i64 %50, i64* %52, align 8
  %53 = bitcast %"class.cloud_devices::SelectionCapability.67"* %1 to i8*
  tail call void @llvm.memset.p0i8.i64(i8* align 8 %53, i8 0, i64 24, i1 false) #16
  %54 = getelementptr inbounds %"class.cloud_devices::SelectionCapability.67", %"class.cloud_devices::SelectionCapability.67"* %1, i64 0, i32 1
  %55 = load i32, i32* %54, align 8
  %56 = getelementptr inbounds %"class.cloud_devices::SelectionCapability.67", %"class.cloud_devices::SelectionCapability.67"* %0, i64 0, i32 1
  store i32 %55, i32* %56, align 8
  ret %"class.cloud_devices::SelectionCapability.67"* %0
}

; Function Attrs: nounwind ssp uwtable
define weak_odr hidden zeroext i1 @_ZNK13cloud_devices19SelectionCapabilityINS_7printer5ColorENS1_11ColorTraitsEEeqERKS4_(%"class.cloud_devices::SelectionCapability.67"*, %"class.cloud_devices::SelectionCapability.67"* dereferenceable(32)) local_unnamed_addr #0 comdat align 2 {
  %3 = getelementptr inbounds %"class.cloud_devices::SelectionCapability.67", %"class.cloud_devices::SelectionCapability.67"* %0, i64 0, i32 0, i32 0, i32 1
  %4 = bitcast %"struct.cloud_devices::printer::Color"** %3 to i64*
  %5 = load i64, i64* %4, align 8
  %6 = bitcast %"class.cloud_devices::SelectionCapability.67"* %0 to i64*
  %7 = load i64, i64* %6, align 8
  %8 = sub i64 %5, %7
  %9 = getelementptr inbounds %"class.cloud_devices::SelectionCapability.67", %"class.cloud_devices::SelectionCapability.67"* %1, i64 0, i32 0, i32 0, i32 1
  %10 = bitcast %"struct.cloud_devices::printer::Color"** %9 to i64*
  %11 = load i64, i64* %10, align 8
  %12 = bitcast %"class.cloud_devices::SelectionCapability.67"* %1 to i64*
  %13 = load i64, i64* %12, align 8
  %14 = sub i64 %11, %13
  %15 = icmp eq i64 %8, %14
  %16 = inttoptr i64 %7 to %"struct.cloud_devices::printer::Color"*
  %17 = inttoptr i64 %5 to %"struct.cloud_devices::printer::Color"*
  br i1 %15, label %18, label %36

18:                                               ; preds = %2
  %19 = icmp eq %"struct.cloud_devices::printer::Color"* %16, %17
  br i1 %19, label %30, label %20

20:                                               ; preds = %18
  %21 = inttoptr i64 %13 to %"struct.cloud_devices::printer::Color"*
  br label %22

22:                                               ; preds = %20, %26
  %23 = phi %"struct.cloud_devices::printer::Color"* [ %28, %26 ], [ %21, %20 ]
  %24 = phi %"struct.cloud_devices::printer::Color"* [ %27, %26 ], [ %16, %20 ]
  %25 = tail call zeroext i1 @_ZNK13cloud_devices7printer5ColoreqERKS1_(%"struct.cloud_devices::printer::Color"* %24, %"struct.cloud_devices::printer::Color"* dereferenceable(56) %23) #16
  br i1 %25, label %26, label %36

26:                                               ; preds = %22
  %27 = getelementptr inbounds %"struct.cloud_devices::printer::Color", %"struct.cloud_devices::printer::Color"* %24, i64 1
  %28 = getelementptr inbounds %"struct.cloud_devices::printer::Color", %"struct.cloud_devices::printer::Color"* %23, i64 1
  %29 = icmp eq %"struct.cloud_devices::printer::Color"* %27, %17
  br i1 %29, label %30, label %22

30:                                               ; preds = %26, %18
  %31 = getelementptr inbounds %"class.cloud_devices::SelectionCapability.67", %"class.cloud_devices::SelectionCapability.67"* %0, i64 0, i32 1
  %32 = load i32, i32* %31, align 8
  %33 = getelementptr inbounds %"class.cloud_devices::SelectionCapability.67", %"class.cloud_devices::SelectionCapability.67"* %1, i64 0, i32 1
  %34 = load i32, i32* %33, align 8
  %35 = icmp eq i32 %32, %34
  br label %36

36:                                               ; preds = %22, %2, %30
  %37 = phi i1 [ %35, %30 ], [ false, %2 ], [ false, %22 ]
  ret i1 %37
}

; Function Attrs: nounwind ssp uwtable
define weak_odr hidden zeroext i1 @_ZN13cloud_devices19SelectionCapabilityINS_7printer5ColorENS1_11ColorTraitsEE8LoadFromERKNS_22CloudDeviceDescriptionE(%"class.cloud_devices::SelectionCapability.67"*, %"class.cloud_devices::CloudDeviceDescription"* dereferenceable(32)) local_unnamed_addr #0 comdat align 2 {
  %3 = alloca %"class.std::__1::vector.35", align 8
  %4 = bitcast %"class.std::__1::vector.35"* %3 to i8*
  call void @llvm.lifetime.start.p0i8(i64 24, i8* nonnull %4) #16
  %5 = tail call i8* @_Znwm(i64 32) #17, !noalias !32
  %6 = getelementptr inbounds %"class.std::__1::vector.35", %"class.std::__1::vector.35"* %3, i64 0, i32 0, i32 1
  %7 = bitcast %"class.std::__1::vector.35"* %3 to i8**
  store i8* %5, i8** %7, align 8, !alias.scope !32
  %8 = getelementptr inbounds i8, i8* %5, i64 32
  %9 = getelementptr inbounds %"class.std::__1::vector.35", %"class.std::__1::vector.35"* %3, i64 0, i32 0, i32 2, i32 0, i32 0
  %10 = bitcast %"class.base::BasicStringPiece"** %9 to i8**
  store i8* %8, i8** %10, align 8, !alias.scope !32
  %11 = bitcast %"class.base::BasicStringPiece"** %6 to i64*
  tail call void @llvm.memcpy.p0i8.p0i8.i64(i8* nonnull align 8 %5, i8* align 8 bitcast ([2 x %"class.base::BasicStringPiece"]* @.ref.tmp.182 to i8*), i64 32, i1 false) #16, !noalias !32
  %12 = ptrtoint i8* %8 to i64
  store i64 %12, i64* %11, align 8, !alias.scope !32
  %13 = call %"class.base::Value"* @_ZNK13cloud_devices22CloudDeviceDescription7GetItemERKNSt3__16vectorIN4base16BasicStringPieceIcNS1_11char_traitsIcEEEENS1_9allocatorIS7_EEEENS3_5Value4TypeE(%"class.cloud_devices::CloudDeviceDescription"* %1, %"class.std::__1::vector.35"* nonnull dereferenceable(24) %3, i8 zeroext 6) #16
  %14 = getelementptr inbounds %"class.std::__1::vector.35", %"class.std::__1::vector.35"* %3, i64 0, i32 0, i32 0
  %15 = load %"class.base::BasicStringPiece"*, %"class.base::BasicStringPiece"** %14, align 8
  %16 = icmp eq %"class.base::BasicStringPiece"* %15, null
  br i1 %16, label %20, label %17

17:                                               ; preds = %2
  %18 = ptrtoint %"class.base::BasicStringPiece"* %15 to i64
  store i64 %18, i64* %11, align 8
  %19 = bitcast %"class.base::BasicStringPiece"* %15 to i8*
  call void @_ZdlPv(i8* %19) #17
  br label %20

20:                                               ; preds = %2, %17
  call void @llvm.lifetime.end.p0i8(i64 24, i8* nonnull %4) #16
  %21 = icmp eq %"class.base::Value"* %13, null
  br i1 %21, label %22, label %52

22:                                               ; preds = %20
  %23 = getelementptr inbounds %"class.cloud_devices::SelectionCapability.67", %"class.cloud_devices::SelectionCapability.67"* %0, i64 0, i32 0, i32 0, i32 0
  %24 = load %"struct.cloud_devices::printer::Color"*, %"struct.cloud_devices::printer::Color"** %23, align 8
  %25 = getelementptr inbounds %"class.cloud_devices::SelectionCapability.67", %"class.cloud_devices::SelectionCapability.67"* %0, i64 0, i32 0, i32 0, i32 1
  %26 = load %"struct.cloud_devices::printer::Color"*, %"struct.cloud_devices::printer::Color"** %25, align 8
  %27 = icmp eq %"struct.cloud_devices::printer::Color"* %26, %24
  br i1 %27, label %50, label %28

28:                                               ; preds = %22, %48
  %29 = phi %"struct.cloud_devices::printer::Color"* [ %30, %48 ], [ %26, %22 ]
  %30 = getelementptr inbounds %"struct.cloud_devices::printer::Color", %"struct.cloud_devices::printer::Color"* %29, i64 -1
  %31 = getelementptr inbounds %"struct.cloud_devices::printer::Color", %"struct.cloud_devices::printer::Color"* %29, i64 -1, i32 2
  %32 = bitcast %"class.std::__1::basic_string"* %31 to %"struct.std::__1::basic_string<char, std::__1::char_traits<char>, std::__1::allocator<char> >::__short"*
  %33 = getelementptr inbounds %"struct.std::__1::basic_string<char, std::__1::char_traits<char>, std::__1::allocator<char> >::__short", %"struct.std::__1::basic_string<char, std::__1::char_traits<char>, std::__1::allocator<char> >::__short"* %32, i64 0, i32 1, i32 0
  %34 = load i8, i8* %33, align 1
  %35 = icmp slt i8 %34, 0
  br i1 %35, label %36, label %39

36:                                               ; preds = %28
  %37 = getelementptr inbounds %"class.std::__1::basic_string", %"class.std::__1::basic_string"* %31, i64 0, i32 0, i32 0, i32 0, i32 0, i32 0, i32 0
  %38 = load i8*, i8** %37, align 8
  call void @_ZdlPv(i8* %38) #17
  br label %39

39:                                               ; preds = %36, %28
  %40 = getelementptr inbounds %"struct.cloud_devices::printer::Color", %"struct.cloud_devices::printer::Color"* %29, i64 -1, i32 1
  %41 = bitcast %"class.std::__1::basic_string"* %40 to %"struct.std::__1::basic_string<char, std::__1::char_traits<char>, std::__1::allocator<char> >::__short"*
  %42 = getelementptr inbounds %"struct.std::__1::basic_string<char, std::__1::char_traits<char>, std::__1::allocator<char> >::__short", %"struct.std::__1::basic_string<char, std::__1::char_traits<char>, std::__1::allocator<char> >::__short"* %41, i64 0, i32 1, i32 0
  %43 = load i8, i8* %42, align 1
  %44 = icmp slt i8 %43, 0
  br i1 %44, label %45, label %48

45:                                               ; preds = %39
  %46 = getelementptr inbounds %"class.std::__1::basic_string", %"class.std::__1::basic_string"* %40, i64 0, i32 0, i32 0, i32 0, i32 0, i32 0, i32 0
  %47 = load i8*, i8** %46, align 8
  call void @_ZdlPv(i8* %47) #17
  br label %48

48:                                               ; preds = %45, %39
  %49 = icmp eq %"struct.cloud_devices::printer::Color"* %30, %24
  br i1 %49, label %50, label %28

50:                                               ; preds = %48, %22
  store %"struct.cloud_devices::printer::Color"* %24, %"struct.cloud_devices::printer::Color"** %25, align 8
  %51 = getelementptr inbounds %"class.cloud_devices::SelectionCapability.67", %"class.cloud_devices::SelectionCapability.67"* %0, i64 0, i32 1
  store i32 -1, i32* %51, align 8
  br label %54

52:                                               ; preds = %20
  %53 = call zeroext i1 @_ZN13cloud_devices19SelectionCapabilityINS_7printer5ColorENS1_11ColorTraitsEE8LoadFromERKN4base5ValueE(%"class.cloud_devices::SelectionCapability.67"* %0, %"class.base::Value"* nonnull dereferenceable(32) %13)
  br label %54

54:                                               ; preds = %52, %50
  %55 = phi i1 [ %53, %52 ], [ false, %50 ]
  ret i1 %55
}

; Function Attrs: nounwind ssp uwtable
define weak_odr hidden zeroext i1 @_ZN13cloud_devices19SelectionCapabilityINS_7printer5ColorENS1_11ColorTraitsEE8LoadFromERKN4base5ValueE(%"class.cloud_devices::SelectionCapability.67"*, %"class.base::Value"* dereferenceable(32)) local_unnamed_addr #0 comdat align 2 {
  %3 = alloca %"class.base::CheckedContiguousIterator", align 8
  %4 = alloca %"class.base::CheckedContiguousIterator", align 8
  %5 = alloca %"struct.cloud_devices::printer::Color", align 8
  %6 = getelementptr inbounds %"class.cloud_devices::SelectionCapability.67", %"class.cloud_devices::SelectionCapability.67"* %0, i64 0, i32 0, i32 0, i32 0
  %7 = load %"struct.cloud_devices::printer::Color"*, %"struct.cloud_devices::printer::Color"** %6, align 8
  %8 = getelementptr inbounds %"class.cloud_devices::SelectionCapability.67", %"class.cloud_devices::SelectionCapability.67"* %0, i64 0, i32 0, i32 0, i32 1
  %9 = load %"struct.cloud_devices::printer::Color"*, %"struct.cloud_devices::printer::Color"** %8, align 8
  %10 = icmp eq %"struct.cloud_devices::printer::Color"* %9, %7
  br i1 %10, label %33, label %11

11:                                               ; preds = %2, %31
  %12 = phi %"struct.cloud_devices::printer::Color"* [ %13, %31 ], [ %9, %2 ]
  %13 = getelementptr inbounds %"struct.cloud_devices::printer::Color", %"struct.cloud_devices::printer::Color"* %12, i64 -1
  %14 = getelementptr inbounds %"struct.cloud_devices::printer::Color", %"struct.cloud_devices::printer::Color"* %12, i64 -1, i32 2
  %15 = bitcast %"class.std::__1::basic_string"* %14 to %"struct.std::__1::basic_string<char, std::__1::char_traits<char>, std::__1::allocator<char> >::__short"*
  %16 = getelementptr inbounds %"struct.std::__1::basic_string<char, std::__1::char_traits<char>, std::__1::allocator<char> >::__short", %"struct.std::__1::basic_string<char, std::__1::char_traits<char>, std::__1::allocator<char> >::__short"* %15, i64 0, i32 1, i32 0
  %17 = load i8, i8* %16, align 1
  %18 = icmp slt i8 %17, 0
  br i1 %18, label %19, label %22

19:                                               ; preds = %11
  %20 = getelementptr inbounds %"class.std::__1::basic_string", %"class.std::__1::basic_string"* %14, i64 0, i32 0, i32 0, i32 0, i32 0, i32 0, i32 0
  %21 = load i8*, i8** %20, align 8
  tail call void @_ZdlPv(i8* %21) #17
  br label %22

22:                                               ; preds = %19, %11
  %23 = getelementptr inbounds %"struct.cloud_devices::printer::Color", %"struct.cloud_devices::printer::Color"* %12, i64 -1, i32 1
  %24 = bitcast %"class.std::__1::basic_string"* %23 to %"struct.std::__1::basic_string<char, std::__1::char_traits<char>, std::__1::allocator<char> >::__short"*
  %25 = getelementptr inbounds %"struct.std::__1::basic_string<char, std::__1::char_traits<char>, std::__1::allocator<char> >::__short", %"struct.std::__1::basic_string<char, std::__1::char_traits<char>, std::__1::allocator<char> >::__short"* %24, i64 0, i32 1, i32 0
  %26 = load i8, i8* %25, align 1
  %27 = icmp slt i8 %26, 0
  br i1 %27, label %28, label %31

28:                                               ; preds = %22
  %29 = getelementptr inbounds %"class.std::__1::basic_string", %"class.std::__1::basic_string"* %23, i64 0, i32 0, i32 0, i32 0, i32 0, i32 0, i32 0
  %30 = load i8*, i8** %29, align 8
  tail call void @_ZdlPv(i8* %30) #17
  br label %31

31:                                               ; preds = %28, %22
  %32 = icmp eq %"struct.cloud_devices::printer::Color"* %13, %7
  br i1 %32, label %33, label %11

33:                                               ; preds = %31, %2
  store %"struct.cloud_devices::printer::Color"* %7, %"struct.cloud_devices::printer::Color"** %8, align 8
  %34 = getelementptr inbounds %"class.cloud_devices::SelectionCapability.67", %"class.cloud_devices::SelectionCapability.67"* %0, i64 0, i32 1
  store i32 -1, i32* %34, align 8
  %35 = tail call i64 @strlen(i8* nonnull getelementptr inbounds ([0 x i8], [0 x i8]* @_ZN13cloud_devices4json10kKeyOptionE, i64 0, i64 0)) #16
  %36 = tail call %"class.base::Value"* @_ZNK4base5Value13FindKeyOfTypeENS_16BasicStringPieceIcNSt3__111char_traitsIcEEEENS0_4TypeE(%"class.base::Value"* %1, i8* getelementptr inbounds ([0 x i8], [0 x i8]* @_ZN13cloud_devices4json10kKeyOptionE, i64 0, i64 0), i64 %35, i8 zeroext 7) #16
  %37 = icmp eq %"class.base::Value"* %36, null
  br i1 %37, label %178, label %38

38:                                               ; preds = %33
  %39 = tail call %"class.std::__1::vector.27"* @_ZNK4base5Value7GetListEv(%"class.base::Value"* nonnull %36) #16
  %40 = bitcast %"class.base::CheckedContiguousIterator"* %3 to i8*
  call void @llvm.lifetime.start.p0i8(i64 24, i8* nonnull %40) #16
  %41 = getelementptr inbounds %"class.base::CheckedContiguousIterator", %"class.base::CheckedContiguousIterator"* %3, i64 0, i32 1
  %42 = icmp eq %"class.std::__1::vector.27"* %39, null
  %43 = bitcast %"class.base::CheckedContiguousIterator"* %3 to i8*
  call void @llvm.memset.p0i8.i64(i8* nonnull align 8 %43, i8 -86, i64 24, i1 false)
  br i1 %42, label %53, label %44

44:                                               ; preds = %38
  %45 = getelementptr inbounds %"class.std::__1::vector.27", %"class.std::__1::vector.27"* %39, i64 0, i32 0, i32 0
  %46 = load %"class.base::Value"*, %"class.base::Value"** %45, align 8
  %47 = getelementptr inbounds %"class.std::__1::vector.27", %"class.std::__1::vector.27"* %39, i64 0, i32 0, i32 1
  %48 = bitcast %"class.base::Value"** %47 to i64*
  %49 = load i64, i64* %48, align 8
  %50 = ptrtoint %"class.base::Value"* %46 to i64
  %51 = sub i64 %49, %50
  %52 = ashr exact i64 %51, 5
  br label %53

53:                                               ; preds = %38, %44
  %54 = phi %"class.base::Value"* [ %46, %44 ], [ null, %38 ]
  %55 = phi i64 [ %52, %44 ], [ 0, %38 ]
  %56 = getelementptr inbounds %"class.base::Value", %"class.base::Value"* %54, i64 %55
  call void @_ZN4base25CheckedContiguousIteratorIKNS_5ValueEEC2EPS2_S4_S4_(%"class.base::CheckedContiguousIterator"* nonnull %3, %"class.base::Value"* %54, %"class.base::Value"* %54, %"class.base::Value"* %56) #16
  %57 = bitcast %"class.base::CheckedContiguousIterator"* %4 to i8*
  call void @llvm.lifetime.start.p0i8(i64 24, i8* nonnull %57) #16
  %58 = getelementptr inbounds %"class.base::CheckedContiguousIterator", %"class.base::CheckedContiguousIterator"* %4, i64 0, i32 1
  %59 = bitcast %"class.base::CheckedContiguousIterator"* %4 to i8*
  call void @llvm.memset.p0i8.i64(i8* nonnull align 8 %59, i8 -86, i64 24, i1 false)
  br i1 %42, label %70, label %60

60:                                               ; preds = %53
  %61 = getelementptr inbounds %"class.std::__1::vector.27", %"class.std::__1::vector.27"* %39, i64 0, i32 0, i32 0
  %62 = load %"class.base::Value"*, %"class.base::Value"** %61, align 8
  %63 = getelementptr inbounds %"class.std::__1::vector.27", %"class.std::__1::vector.27"* %39, i64 0, i32 0, i32 1
  %64 = bitcast %"class.base::Value"** %63 to i64*
  %65 = load i64, i64* %64, align 8
  %66 = ptrtoint %"class.base::Value"* %62 to i64
  %67 = sub i64 %65, %66
  %68 = ashr exact i64 %67, 5
  %69 = getelementptr inbounds %"class.base::Value", %"class.base::Value"* %62, i64 %68
  br label %70

70:                                               ; preds = %53, %60
  %71 = phi %"class.base::Value"* [ %62, %60 ], [ null, %53 ]
  %72 = phi %"class.base::Value"* [ %69, %60 ], [ null, %53 ]
  %73 = phi i64 [ %68, %60 ], [ 0, %53 ]
  %74 = getelementptr inbounds %"class.base::Value", %"class.base::Value"* %71, i64 %73
  call void @_ZN4base25CheckedContiguousIteratorIKNS_5ValueEEC2EPS2_S4_S4_(%"class.base::CheckedContiguousIterator"* nonnull %4, %"class.base::Value"* %71, %"class.base::Value"* %72, %"class.base::Value"* %74) #16
  call void @_ZNK4base25CheckedContiguousIteratorIKNS_5ValueEE15CheckComparableERKS3_(%"class.base::CheckedContiguousIterator"* nonnull %3, %"class.base::CheckedContiguousIterator"* nonnull dereferenceable(24) %4) #16
  %75 = load %"class.base::Value"*, %"class.base::Value"** %41, align 8
  %76 = load %"class.base::Value"*, %"class.base::Value"** %58, align 8
  %77 = icmp eq %"class.base::Value"* %75, %76
  br i1 %77, label %129, label %78

78:                                               ; preds = %70
  %79 = bitcast %"struct.cloud_devices::printer::Color"* %5 to i8*
  %80 = getelementptr inbounds %"struct.cloud_devices::printer::Color", %"struct.cloud_devices::printer::Color"* %5, i64 0, i32 0
  %81 = getelementptr inbounds %"struct.cloud_devices::printer::Color", %"struct.cloud_devices::printer::Color"* %5, i64 0, i32 1
  %82 = bitcast %"class.std::__1::basic_string"* %81 to i8*
  %83 = getelementptr inbounds %"struct.cloud_devices::printer::Color", %"struct.cloud_devices::printer::Color"* %5, i64 0, i32 2
  %84 = bitcast %"class.std::__1::basic_string"* %83 to %"struct.std::__1::basic_string<char, std::__1::char_traits<char>, std::__1::allocator<char> >::__short"*
  %85 = getelementptr inbounds %"struct.std::__1::basic_string<char, std::__1::char_traits<char>, std::__1::allocator<char> >::__short", %"struct.std::__1::basic_string<char, std::__1::char_traits<char>, std::__1::allocator<char> >::__short"* %84, i64 0, i32 1, i32 0
  %86 = getelementptr inbounds %"class.std::__1::basic_string", %"class.std::__1::basic_string"* %83, i64 0, i32 0, i32 0, i32 0, i32 0, i32 0, i32 0
  %87 = bitcast %"class.std::__1::basic_string"* %81 to %"struct.std::__1::basic_string<char, std::__1::char_traits<char>, std::__1::allocator<char> >::__short"*
  %88 = getelementptr inbounds %"struct.std::__1::basic_string<char, std::__1::char_traits<char>, std::__1::allocator<char> >::__short", %"struct.std::__1::basic_string<char, std::__1::char_traits<char>, std::__1::allocator<char> >::__short"* %87, i64 0, i32 1, i32 0
  %89 = getelementptr inbounds %"class.std::__1::basic_string", %"class.std::__1::basic_string"* %81, i64 0, i32 0, i32 0, i32 0, i32 0, i32 0, i32 0
  %90 = bitcast %"struct.cloud_devices::printer::Color"* %5 to i64*
  br label %91

91:                                               ; preds = %78, %123
  %92 = call dereferenceable(32) %"class.base::Value"* @_ZNK4base25CheckedContiguousIteratorIKNS_5ValueEEdeEv(%"class.base::CheckedContiguousIterator"* nonnull %3)
  call void @llvm.lifetime.start.p0i8(i64 56, i8* nonnull %79) #16
  store i64 -6148914691236517206, i64* %90, align 8
  store i32 4, i32* %80, align 8
  call void @llvm.memset.p0i8.i64(i8* align 8 %82, i8 0, i64 48, i1 false) #16
  %93 = getelementptr inbounds %"class.base::Value", %"class.base::Value"* %92, i64 0, i32 0, i32 0, i32 0, i32 0, i32 0, i32 0, i32 0, i32 1
  %94 = load i64, i64* %93, align 8
  %95 = trunc i64 %94 to i8
  %96 = icmp eq i8 %95, 6
  br i1 %96, label %97, label %110

97:                                               ; preds = %91
  %98 = call zeroext i1 @_ZN13cloud_devices7printer11ColorTraits4LoadERKN4base5ValueEPNS0_5ColorE(%"class.base::Value"* dereferenceable(32) %92, %"struct.cloud_devices::printer::Color"* nonnull %5)
  br i1 %98, label %99, label %110

99:                                               ; preds = %97
  %100 = call i64 @strlen(i8* nonnull getelementptr inbounds ([0 x i8], [0 x i8]* @_ZN13cloud_devices4json13kKeyIsDefaultE, i64 0, i64 0)) #16
  %101 = call i16 @_ZNK4base5Value11FindBoolKeyENS_16BasicStringPieceIcNSt3__111char_traitsIcEEEE(%"class.base::Value"* %92, i8* getelementptr inbounds ([0 x i8], [0 x i8]* @_ZN13cloud_devices4json13kKeyIsDefaultE, i64 0, i64 0), i64 %100) #16
  %102 = trunc i16 %101 to i8
  %103 = icmp ne i8 %102, 0
  %104 = icmp ugt i16 %101, 255
  %105 = and i1 %104, %103
  br i1 %105, label %106, label %109

106:                                              ; preds = %99
  %107 = load i32, i32* %34, align 8
  %108 = icmp sgt i32 %107, -1
  br i1 %108, label %110, label %109

109:                                              ; preds = %106, %99
  call void @_ZN13cloud_devices19SelectionCapabilityINS_7printer5ColorENS1_11ColorTraitsEE16AddDefaultOptionERKS2_b(%"class.cloud_devices::SelectionCapability.67"* %0, %"struct.cloud_devices::printer::Color"* nonnull dereferenceable(56) %5, i1 zeroext %105)
  br label %110

110:                                              ; preds = %109, %106, %91, %97
  %111 = phi i32 [ 1, %97 ], [ 1, %91 ], [ 0, %109 ], [ 1, %106 ]
  %112 = load i8, i8* %85, align 1
  %113 = icmp slt i8 %112, 0
  br i1 %113, label %114, label %116

114:                                              ; preds = %110
  %115 = load i8*, i8** %86, align 8
  call void @_ZdlPv(i8* %115) #17
  br label %116

116:                                              ; preds = %114, %110
  %117 = load i8, i8* %88, align 1
  %118 = icmp slt i8 %117, 0
  br i1 %118, label %119, label %121

119:                                              ; preds = %116
  %120 = load i8*, i8** %89, align 8
  call void @_ZdlPv(i8* %120) #17
  br label %121

121:                                              ; preds = %116, %119
  call void @llvm.lifetime.end.p0i8(i64 56, i8* nonnull %79) #16
  %122 = icmp eq i32 %111, 0
  br i1 %122, label %123, label %128

123:                                              ; preds = %121
  %124 = call dereferenceable(24) %"class.base::CheckedContiguousIterator"* @_ZN4base25CheckedContiguousIteratorIKNS_5ValueEEppEv(%"class.base::CheckedContiguousIterator"* nonnull %3)
  call void @_ZNK4base25CheckedContiguousIteratorIKNS_5ValueEE15CheckComparableERKS3_(%"class.base::CheckedContiguousIterator"* nonnull %3, %"class.base::CheckedContiguousIterator"* nonnull dereferenceable(24) %4) #16
  %125 = load %"class.base::Value"*, %"class.base::Value"** %41, align 8
  %126 = load %"class.base::Value"*, %"class.base::Value"** %58, align 8
  %127 = icmp eq %"class.base::Value"* %125, %126
  br i1 %127, label %129, label %91

128:                                              ; preds = %121
  call void @llvm.lifetime.end.p0i8(i64 24, i8* nonnull %57) #16
  call void @llvm.lifetime.end.p0i8(i64 24, i8* nonnull %40) #16
  br label %178

129:                                              ; preds = %123, %70
  call void @llvm.lifetime.end.p0i8(i64 24, i8* nonnull %57) #16
  call void @llvm.lifetime.end.p0i8(i64 24, i8* nonnull %40) #16
  %130 = load %"struct.cloud_devices::printer::Color"*, %"struct.cloud_devices::printer::Color"** %6, align 8
  %131 = load %"struct.cloud_devices::printer::Color"*, %"struct.cloud_devices::printer::Color"** %8, align 8
  %132 = icmp eq %"struct.cloud_devices::printer::Color"* %130, %131
  br i1 %132, label %178, label %133

133:                                              ; preds = %129
  %134 = ptrtoint %"struct.cloud_devices::printer::Color"* %130 to i64
  %135 = ptrtoint %"struct.cloud_devices::printer::Color"* %131 to i64
  %136 = sub i64 %135, %134
  %137 = sdiv exact i64 %136, 56
  br label %138

138:                                              ; preds = %166, %133
  %139 = phi i64 [ 0, %133 ], [ %167, %166 ]
  %140 = getelementptr inbounds %"struct.cloud_devices::printer::Color", %"struct.cloud_devices::printer::Color"* %130, i64 %139, i32 0
  %141 = load i32, i32* %140, align 8
  %142 = and i32 %141, -2
  %143 = icmp eq i32 %142, 2
  br i1 %143, label %144, label %166

144:                                              ; preds = %138
  %145 = getelementptr inbounds %"struct.cloud_devices::printer::Color", %"struct.cloud_devices::printer::Color"* %130, i64 %139, i32 1
  %146 = bitcast %"class.std::__1::basic_string"* %145 to %"struct.std::__1::basic_string<char, std::__1::char_traits<char>, std::__1::allocator<char> >::__short"*
  %147 = getelementptr inbounds %"struct.std::__1::basic_string<char, std::__1::char_traits<char>, std::__1::allocator<char> >::__short", %"struct.std::__1::basic_string<char, std::__1::char_traits<char>, std::__1::allocator<char> >::__short"* %146, i64 0, i32 1, i32 0
  %148 = load i8, i8* %147, align 1
  %149 = icmp slt i8 %148, 0
  %150 = getelementptr inbounds %"struct.cloud_devices::printer::Color", %"struct.cloud_devices::printer::Color"* %130, i64 %139, i32 1, i32 0, i32 0, i32 0, i32 0, i32 0, i32 1
  %151 = load i64, i64* %150, align 8
  %152 = zext i8 %148 to i64
  %153 = select i1 %149, i64 %151, i64 %152
  %154 = icmp eq i64 %153, 0
  br i1 %154, label %178, label %155

155:                                              ; preds = %144
  %156 = getelementptr inbounds %"struct.cloud_devices::printer::Color", %"struct.cloud_devices::printer::Color"* %130, i64 %139, i32 2
  %157 = bitcast %"class.std::__1::basic_string"* %156 to %"struct.std::__1::basic_string<char, std::__1::char_traits<char>, std::__1::allocator<char> >::__short"*
  %158 = getelementptr inbounds %"struct.std::__1::basic_string<char, std::__1::char_traits<char>, std::__1::allocator<char> >::__short", %"struct.std::__1::basic_string<char, std::__1::char_traits<char>, std::__1::allocator<char> >::__short"* %157, i64 0, i32 1, i32 0
  %159 = load i8, i8* %158, align 1
  %160 = icmp slt i8 %159, 0
  %161 = getelementptr inbounds %"struct.cloud_devices::printer::Color", %"struct.cloud_devices::printer::Color"* %130, i64 %139, i32 2, i32 0, i32 0, i32 0, i32 0, i32 0, i32 1
  %162 = load i64, i64* %161, align 8
  %163 = zext i8 %159 to i64
  %164 = select i1 %160, i64 %162, i64 %163
  %165 = icmp eq i64 %164, 0
  br i1 %165, label %178, label %166

166:                                              ; preds = %155, %138
  %167 = add nuw i64 %139, 1
  %168 = icmp ult i64 %167, %137
  br i1 %168, label %138, label %169

169:                                              ; preds = %166
  %170 = load i32, i32* %34, align 8
  %171 = icmp sgt i32 %170, -2
  br i1 %171, label %172, label %178

172:                                              ; preds = %169
  %173 = icmp ult i64 %137, 2147483648
  br i1 %173, label %175, label %174, !prof !27

174:                                              ; preds = %172
  call void @llvm.trap() #16
  unreachable

175:                                              ; preds = %172
  %176 = trunc i64 %137 to i32
  %177 = icmp slt i32 %170, %176
  br label %178

178:                                              ; preds = %155, %144, %175, %169, %129, %128, %33
  %179 = phi i1 [ false, %128 ], [ false, %33 ], [ false, %129 ], [ false, %169 ], [ %177, %175 ], [ false, %144 ], [ false, %155 ]
  ret i1 %179
}

; Function Attrs: nounwind ssp uwtable
define weak_odr hidden void @_ZNK13cloud_devices19SelectionCapabilityINS_7printer5ColorENS1_11ColorTraitsEE6SaveToEPNS_22CloudDeviceDescriptionE(%"class.cloud_devices::SelectionCapability.67"*, %"class.cloud_devices::CloudDeviceDescription"*) local_unnamed_addr #0 comdat align 2 {
  %3 = alloca %"class.std::__1::vector.35", align 8
  %4 = bitcast %"class.std::__1::vector.35"* %3 to i8*
  call void @llvm.lifetime.start.p0i8(i64 24, i8* nonnull %4) #16
  %5 = tail call i8* @_Znwm(i64 32) #17, !noalias !35
  %6 = getelementptr inbounds %"class.std::__1::vector.35", %"class.std::__1::vector.35"* %3, i64 0, i32 0, i32 1
  %7 = bitcast %"class.std::__1::vector.35"* %3 to i8**
  store i8* %5, i8** %7, align 8, !alias.scope !35
  %8 = getelementptr inbounds i8, i8* %5, i64 32
  %9 = getelementptr inbounds %"class.std::__1::vector.35", %"class.std::__1::vector.35"* %3, i64 0, i32 0, i32 2, i32 0, i32 0
  %10 = bitcast %"class.base::BasicStringPiece"** %9 to i8**
  store i8* %8, i8** %10, align 8, !alias.scope !35
  %11 = bitcast %"class.base::BasicStringPiece"** %6 to i64*
  tail call void @llvm.memcpy.p0i8.p0i8.i64(i8* nonnull align 8 %5, i8* align 8 bitcast ([2 x %"class.base::BasicStringPiece"]* @.ref.tmp.182 to i8*), i64 32, i1 false) #16, !noalias !35
  %12 = ptrtoint i8* %8 to i64
  store i64 %12, i64* %11, align 8, !alias.scope !35
  %13 = call %"class.base::Value"* @_ZN13cloud_devices22CloudDeviceDescription10CreateItemERKNSt3__16vectorIN4base16BasicStringPieceIcNS1_11char_traitsIcEEEENS1_9allocatorIS7_EEEENS3_5Value4TypeE(%"class.cloud_devices::CloudDeviceDescription"* %1, %"class.std::__1::vector.35"* nonnull dereferenceable(24) %3, i8 zeroext 6) #16
  call void @_ZNK13cloud_devices19SelectionCapabilityINS_7printer5ColorENS1_11ColorTraitsEE6SaveToEPN4base5ValueE(%"class.cloud_devices::SelectionCapability.67"* %0, %"class.base::Value"* %13)
  %14 = getelementptr inbounds %"class.std::__1::vector.35", %"class.std::__1::vector.35"* %3, i64 0, i32 0, i32 0
  %15 = load %"class.base::BasicStringPiece"*, %"class.base::BasicStringPiece"** %14, align 8
  %16 = icmp eq %"class.base::BasicStringPiece"* %15, null
  br i1 %16, label %20, label %17

17:                                               ; preds = %2
  %18 = ptrtoint %"class.base::BasicStringPiece"* %15 to i64
  store i64 %18, i64* %11, align 8
  %19 = bitcast %"class.base::BasicStringPiece"* %15 to i8*
  call void @_ZdlPv(i8* %19) #17
  br label %20

20:                                               ; preds = %2, %17
  call void @llvm.lifetime.end.p0i8(i64 24, i8* nonnull %4) #16
  ret void
}

; Function Attrs: nounwind ssp uwtable
define weak_odr hidden void @_ZNK13cloud_devices19SelectionCapabilityINS_7printer5ColorENS1_11ColorTraitsEE6SaveToEPN4base5ValueE(%"class.cloud_devices::SelectionCapability.67"*, %"class.base::Value"*) local_unnamed_addr #0 comdat align 2 {
  %3 = alloca %"class.base::Value", align 8
  %4 = alloca %"class.base::Value", align 8
  %5 = alloca %"class.base::Value", align 8
  %6 = bitcast %"class.base::Value"* %3 to i8*
  call void @llvm.lifetime.start.p0i8(i64 32, i8* nonnull %6) #16
  %7 = bitcast %"class.base::Value"* %3 to i8*
  call void @llvm.memset.p0i8.i64(i8* nonnull align 8 %7, i8 -86, i64 32, i1 false)
  call void @_ZN4base5ValueC1ENS0_4TypeE(%"class.base::Value"* nonnull %3, i8 zeroext 7) #16
  %8 = getelementptr inbounds %"class.cloud_devices::SelectionCapability.67", %"class.cloud_devices::SelectionCapability.67"* %0, i64 0, i32 0, i32 0, i32 1
  %9 = bitcast %"struct.cloud_devices::printer::Color"** %8 to i64*
  %10 = load i64, i64* %9, align 8
  %11 = bitcast %"class.cloud_devices::SelectionCapability.67"* %0 to i64*
  %12 = load i64, i64* %11, align 8
  %13 = icmp eq i64 %10, %12
  br i1 %13, label %20, label %14

14:                                               ; preds = %2
  %15 = bitcast %"class.base::Value"* %4 to i8*
  %16 = getelementptr inbounds %"class.cloud_devices::SelectionCapability.67", %"class.cloud_devices::SelectionCapability.67"* %0, i64 0, i32 1
  %17 = bitcast %"class.base::Value"* %5 to i8*
  %18 = getelementptr inbounds %"class.cloud_devices::SelectionCapability.67", %"class.cloud_devices::SelectionCapability.67"* %0, i64 0, i32 0, i32 0, i32 0
  %19 = bitcast %"class.base::Value"* %4 to i8*
  br label %22

20:                                               ; preds = %32, %2
  %21 = call %"class.base::Value"* @_ZN4base5Value6SetKeyEPKcOS0_(%"class.base::Value"* %1, i8* getelementptr inbounds ([0 x i8], [0 x i8]* @_ZN13cloud_devices4json10kKeyOptionE, i64 0, i64 0), %"class.base::Value"* nonnull dereferenceable(32) %3) #16
  call void @_ZN4base5ValueD1Ev(%"class.base::Value"* nonnull %3) #16
  call void @llvm.lifetime.end.p0i8(i64 32, i8* nonnull %6) #16
  ret void

22:                                               ; preds = %14, %32
  %23 = phi i64 [ 0, %14 ], [ %35, %32 ]
  call void @llvm.lifetime.start.p0i8(i64 32, i8* nonnull %15) #16
  call void @llvm.memset.p0i8.i64(i8* nonnull align 8 %19, i8 -86, i64 32, i1 false)
  call void @_ZN4base5ValueC1ENS0_4TypeE(%"class.base::Value"* nonnull %4, i8 zeroext 6) #16
  %24 = icmp eq i64 %23, 2147483648
  br i1 %24, label %25, label %26, !prof !31

25:                                               ; preds = %22
  call void @llvm.trap() #16
  unreachable

26:                                               ; preds = %22
  %27 = trunc i64 %23 to i32
  %28 = load i32, i32* %16, align 8
  %29 = icmp eq i32 %28, %27
  br i1 %29, label %30, label %32

30:                                               ; preds = %26
  call void @llvm.lifetime.start.p0i8(i64 32, i8* nonnull %17) #16
  call void @_ZN4base5ValueC1Eb(%"class.base::Value"* nonnull %5, i1 zeroext true) #16
  %31 = call %"class.base::Value"* @_ZN4base5Value6SetKeyEPKcOS0_(%"class.base::Value"* nonnull %4, i8* getelementptr inbounds ([0 x i8], [0 x i8]* @_ZN13cloud_devices4json13kKeyIsDefaultE, i64 0, i64 0), %"class.base::Value"* nonnull dereferenceable(32) %5) #16
  call void @_ZN4base5ValueD1Ev(%"class.base::Value"* nonnull %5) #16
  call void @llvm.lifetime.end.p0i8(i64 32, i8* nonnull %17) #16
  br label %32

32:                                               ; preds = %30, %26
  %33 = load %"struct.cloud_devices::printer::Color"*, %"struct.cloud_devices::printer::Color"** %18, align 8
  %34 = getelementptr inbounds %"struct.cloud_devices::printer::Color", %"struct.cloud_devices::printer::Color"* %33, i64 %23
  call void @_ZN13cloud_devices7printer11ColorTraits4SaveERKNS0_5ColorEPN4base5ValueE(%"struct.cloud_devices::printer::Color"* dereferenceable(56) %34, %"class.base::Value"* nonnull %4)
  call void @_ZN4base5Value6AppendEOS0_(%"class.base::Value"* nonnull %3, %"class.base::Value"* nonnull dereferenceable(32) %4) #16
  call void @_ZN4base5ValueD1Ev(%"class.base::Value"* nonnull %4) #16
  call void @llvm.lifetime.end.p0i8(i64 32, i8* nonnull %15) #16
  %35 = add nuw nsw i64 %23, 1
  %36 = load i64, i64* %9, align 8
  %37 = load i64, i64* %11, align 8
  %38 = sub i64 %36, %37
  %39 = sdiv exact i64 %38, 56
  %40 = icmp ult i64 %35, %39
  br i1 %40, label %22, label %20
}

; Function Attrs: nounwind ssp uwtable
define linkonce_odr hidden zeroext i1 @_ZN13cloud_devices7printer11ColorTraits4LoadERKN4base5ValueEPNS0_5ColorE(%"class.base::Value"* dereferenceable(32), %"struct.cloud_devices::printer::Color"*) local_unnamed_addr #0 comdat align 2 {
  %3 = tail call %"class.std::__1::basic_string"* @_ZNK4base5Value13FindStringKeyENS_16BasicStringPieceIcNSt3__111char_traitsIcEEEE(%"class.base::Value"* %0, i8* getelementptr inbounds ([5 x i8], [5 x i8]* @_ZN13cloud_devices7printer12_GLOBAL__N_18kKeyTypeE, i64 0, i64 0), i64 4) #16
  %4 = icmp eq %"class.std::__1::basic_string"* %3, null
  br i1 %4, label %148, label %5

5:                                                ; preds = %2
  %6 = getelementptr inbounds %"struct.cloud_devices::printer::Color", %"struct.cloud_devices::printer::Color"* %1, i64 0, i32 0
  %7 = bitcast %"class.std::__1::basic_string"* %3 to %"struct.std::__1::basic_string<char, std::__1::char_traits<char>, std::__1::allocator<char> >::__short"*
  %8 = getelementptr inbounds %"struct.std::__1::basic_string<char, std::__1::char_traits<char>, std::__1::allocator<char> >::__short", %"struct.std::__1::basic_string<char, std::__1::char_traits<char>, std::__1::allocator<char> >::__short"* %7, i64 0, i32 1, i32 0
  %9 = getelementptr inbounds %"class.std::__1::basic_string", %"class.std::__1::basic_string"* %3, i64 0, i32 0, i32 0, i32 0, i32 0, i32 0, i32 1
  %10 = load i8, i8* %8, align 1
  %11 = icmp slt i8 %10, 0
  %12 = load i64, i64* %9, align 8
  %13 = zext i8 %10 to i64
  %14 = select i1 %11, i64 %12, i64 %13
  %15 = icmp eq i64 %14, 14
  br i1 %15, label %16, label %23

16:                                               ; preds = %5
  %17 = tail call i32 @_ZNKSt3__112basic_stringIcNS_11char_traitsIcEENS_9allocatorIcEEE7compareEmmPKcm(%"class.std::__1::basic_string"* nonnull %3, i64 0, i64 -1, i8* getelementptr inbounds ([15 x i8], [15 x i8]* @_ZN13cloud_devices7printer12_GLOBAL__N_115kTypeColorColorE, i64 0, i64 0), i64 14) #16
  %18 = icmp eq i32 %17, 0
  br i1 %18, label %75, label %19

19:                                               ; preds = %16
  %20 = load i8, i8* %8, align 1
  %21 = load i64, i64* %9, align 8
  %22 = zext i8 %20 to i64
  br label %23

23:                                               ; preds = %19, %5
  %24 = phi i64 [ %22, %19 ], [ %13, %5 ]
  %25 = phi i64 [ %21, %19 ], [ %12, %5 ]
  %26 = phi i8 [ %20, %19 ], [ %10, %5 ]
  %27 = icmp slt i8 %26, 0
  %28 = select i1 %27, i64 %25, i64 %24
  %29 = icmp eq i64 %28, 19
  br i1 %29, label %30, label %37

30:                                               ; preds = %23
  %31 = tail call i32 @_ZNKSt3__112basic_stringIcNS_11char_traitsIcEENS_9allocatorIcEEE7compareEmmPKcm(%"class.std::__1::basic_string"* nonnull %3, i64 0, i64 -1, i8* getelementptr inbounds ([20 x i8], [20 x i8]* @_ZN13cloud_devices7printer12_GLOBAL__N_120kTypeColorMonochromeE, i64 0, i64 0), i64 19) #16
  %32 = icmp eq i32 %31, 0
  br i1 %32, label %75, label %33

33:                                               ; preds = %30
  %34 = load i8, i8* %8, align 1
  %35 = load i64, i64* %9, align 8
  %36 = zext i8 %34 to i64
  br label %37

37:                                               ; preds = %33, %23
  %38 = phi i64 [ %36, %33 ], [ %24, %23 ]
  %39 = phi i64 [ %35, %33 ], [ %25, %23 ]
  %40 = phi i8 [ %34, %33 ], [ %26, %23 ]
  %41 = icmp slt i8 %40, 0
  %42 = select i1 %41, i64 %39, i64 %38
  %43 = icmp eq i64 %42, 12
  br i1 %43, label %44, label %51

44:                                               ; preds = %37
  %45 = tail call i32 @_ZNKSt3__112basic_stringIcNS_11char_traitsIcEENS_9allocatorIcEEE7compareEmmPKcm(%"class.std::__1::basic_string"* nonnull %3, i64 0, i64 -1, i8* getelementptr inbounds ([13 x i8], [13 x i8]* @_ZN13cloud_devices7printer12_GLOBAL__N_121kTypeColorCustomColorE, i64 0, i64 0), i64 12) #16
  %46 = icmp eq i32 %45, 0
  br i1 %46, label %75, label %47

47:                                               ; preds = %44
  %48 = load i8, i8* %8, align 1
  %49 = load i64, i64* %9, align 8
  %50 = zext i8 %48 to i64
  br label %51

51:                                               ; preds = %47, %37
  %52 = phi i64 [ %50, %47 ], [ %38, %37 ]
  %53 = phi i64 [ %49, %47 ], [ %39, %37 ]
  %54 = phi i8 [ %48, %47 ], [ %40, %37 ]
  %55 = icmp slt i8 %54, 0
  %56 = select i1 %55, i64 %53, i64 %52
  %57 = icmp eq i64 %56, 17
  br i1 %57, label %58, label %65

58:                                               ; preds = %51
  %59 = tail call i32 @_ZNKSt3__112basic_stringIcNS_11char_traitsIcEENS_9allocatorIcEEE7compareEmmPKcm(%"class.std::__1::basic_string"* nonnull %3, i64 0, i64 -1, i8* getelementptr inbounds ([18 x i8], [18 x i8]* @_ZN13cloud_devices7printer12_GLOBAL__N_126kTypeColorCustomMonochromeE, i64 0, i64 0), i64 17) #16
  %60 = icmp eq i32 %59, 0
  br i1 %60, label %75, label %61

61:                                               ; preds = %58
  %62 = load i8, i8* %8, align 1
  %63 = load i64, i64* %9, align 8
  %64 = zext i8 %62 to i64
  br label %65

65:                                               ; preds = %61, %51
  %66 = phi i64 [ %64, %61 ], [ %52, %51 ]
  %67 = phi i64 [ %63, %61 ], [ %53, %51 ]
  %68 = phi i8 [ %62, %61 ], [ %54, %51 ]
  %69 = icmp slt i8 %68, 0
  %70 = select i1 %69, i64 %67, i64 %66
  %71 = icmp eq i64 %70, 4
  br i1 %71, label %72, label %148

72:                                               ; preds = %65
  %73 = tail call i32 @_ZNKSt3__112basic_stringIcNS_11char_traitsIcEENS_9allocatorIcEEE7compareEmmPKcm(%"class.std::__1::basic_string"* nonnull %3, i64 0, i64 -1, i8* getelementptr inbounds ([5 x i8], [5 x i8]* @_ZN13cloud_devices7printer12_GLOBAL__N_114kTypeColorAutoE, i64 0, i64 0), i64 4) #16
  %74 = icmp eq i32 %73, 0
  br i1 %74, label %75, label %148

75:                                               ; preds = %72, %58, %44, %30, %16
  %76 = phi i64 [ 0, %16 ], [ 1, %30 ], [ 2, %44 ], [ 3, %58 ], [ 4, %72 ]
  %77 = getelementptr inbounds [5 x %"struct.cloud_devices::printer::(anonymous namespace)::ColorNames"], [5 x %"struct.cloud_devices::printer::(anonymous namespace)::ColorNames"]* @_ZN13cloud_devices7printer12_GLOBAL__N_111kColorNamesE, i64 0, i64 %76, i32 0
  %78 = load i32, i32* %77, align 16
  store i32 %78, i32* %6, align 4
  %79 = tail call %"class.std::__1::basic_string"* @_ZNK4base5Value13FindStringKeyENS_16BasicStringPieceIcNSt3__111char_traitsIcEEEE(%"class.base::Value"* %0, i8* getelementptr inbounds ([10 x i8], [10 x i8]* @_ZN13cloud_devices7printer12_GLOBAL__N_112kKeyVendorIdE, i64 0, i64 0), i64 9) #16
  %80 = icmp eq %"class.std::__1::basic_string"* %79, null
  br i1 %80, label %113, label %81

81:                                               ; preds = %75
  %82 = getelementptr inbounds %"struct.cloud_devices::printer::Color", %"struct.cloud_devices::printer::Color"* %1, i64 0, i32 1
  %83 = icmp eq %"class.std::__1::basic_string"* %82, %79
  br i1 %83, label %113, label %84

84:                                               ; preds = %81
  %85 = bitcast %"class.std::__1::basic_string"* %82 to %"struct.std::__1::basic_string<char, std::__1::char_traits<char>, std::__1::allocator<char> >::__short"*
  %86 = getelementptr inbounds %"struct.std::__1::basic_string<char, std::__1::char_traits<char>, std::__1::allocator<char> >::__short", %"struct.std::__1::basic_string<char, std::__1::char_traits<char>, std::__1::allocator<char> >::__short"* %85, i64 0, i32 1, i32 0
  %87 = load i8, i8* %86, align 1
  %88 = icmp slt i8 %87, 0
  %89 = bitcast %"class.std::__1::basic_string"* %79 to %"struct.std::__1::basic_string<char, std::__1::char_traits<char>, std::__1::allocator<char> >::__short"*
  %90 = getelementptr inbounds %"struct.std::__1::basic_string<char, std::__1::char_traits<char>, std::__1::allocator<char> >::__short", %"struct.std::__1::basic_string<char, std::__1::char_traits<char>, std::__1::allocator<char> >::__short"* %89, i64 0, i32 1, i32 0
  %91 = load i8, i8* %90, align 1
  %92 = icmp slt i8 %91, 0
  br i1 %88, label %103, label %93

93:                                               ; preds = %84
  br i1 %92, label %97, label %94

94:                                               ; preds = %93
  %95 = bitcast %"class.std::__1::basic_string"* %82 to i8*
  %96 = bitcast %"class.std::__1::basic_string"* %79 to i8*
  tail call void @llvm.memcpy.p0i8.p0i8.i64(i8* align 8 %95, i8* nonnull align 8 %96, i64 24, i1 false) #16
  br label %113

97:                                               ; preds = %93
  %98 = getelementptr inbounds %"class.std::__1::basic_string", %"class.std::__1::basic_string"* %79, i64 0, i32 0, i32 0, i32 0, i32 0, i32 0, i32 0
  %99 = load i8*, i8** %98, align 8
  %100 = getelementptr inbounds %"class.std::__1::basic_string", %"class.std::__1::basic_string"* %79, i64 0, i32 0, i32 0, i32 0, i32 0, i32 0, i32 1
  %101 = load i64, i64* %100, align 8
  %102 = tail call dereferenceable(24) %"class.std::__1::basic_string"* @_ZNSt3__112basic_stringIcNS_11char_traitsIcEENS_9allocatorIcEEE17__assign_no_aliasILb1EEERS5_PKcm(%"class.std::__1::basic_string"* %82, i8* %99, i64 %101) #16
  br label %113

103:                                              ; preds = %84
  %104 = getelementptr inbounds %"class.std::__1::basic_string", %"class.std::__1::basic_string"* %79, i64 0, i32 0, i32 0, i32 0, i32 0, i32 0, i32 0
  %105 = load i8*, i8** %104, align 8
  %106 = getelementptr inbounds %"class.std::__1::basic_string", %"class.std::__1::basic_string"* %79, i64 0, i32 0, i32 0, i32 0, i32 0, i32 0, i32 1
  %107 = load i64, i64* %106, align 8
  %108 = bitcast %"class.std::__1::basic_string"* %79 to i8*
  %109 = zext i8 %91 to i64
  %110 = select i1 %92, i8* %105, i8* %108
  %111 = select i1 %92, i64 %107, i64 %109
  %112 = tail call dereferenceable(24) %"class.std::__1::basic_string"* @_ZNSt3__112basic_stringIcNS_11char_traitsIcEENS_9allocatorIcEEE17__assign_no_aliasILb0EEERS5_PKcm(%"class.std::__1::basic_string"* %82, i8* %110, i64 %111) #16
  br label %113

113:                                              ; preds = %103, %97, %94, %81, %75
  %114 = tail call %"class.std::__1::basic_string"* @_ZNK4base5Value13FindStringKeyENS_16BasicStringPieceIcNSt3__111char_traitsIcEEEE(%"class.base::Value"* %0, i8* getelementptr inbounds ([20 x i8], [20 x i8]* @_ZN13cloud_devices7printer12_GLOBAL__N_121kKeyCustomDisplayNameE, i64 0, i64 0), i64 19) #16
  %115 = icmp eq %"class.std::__1::basic_string"* %114, null
  br i1 %115, label %148, label %116

116:                                              ; preds = %113
  %117 = getelementptr inbounds %"struct.cloud_devices::printer::Color", %"struct.cloud_devices::printer::Color"* %1, i64 0, i32 2
  %118 = icmp eq %"class.std::__1::basic_string"* %117, %114
  br i1 %118, label %148, label %119

119:                                              ; preds = %116
  %120 = bitcast %"class.std::__1::basic_string"* %117 to %"struct.std::__1::basic_string<char, std::__1::char_traits<char>, std::__1::allocator<char> >::__short"*
  %121 = getelementptr inbounds %"struct.std::__1::basic_string<char, std::__1::char_traits<char>, std::__1::allocator<char> >::__short", %"struct.std::__1::basic_string<char, std::__1::char_traits<char>, std::__1::allocator<char> >::__short"* %120, i64 0, i32 1, i32 0
  %122 = load i8, i8* %121, align 1
  %123 = icmp slt i8 %122, 0
  %124 = bitcast %"class.std::__1::basic_string"* %114 to %"struct.std::__1::basic_string<char, std::__1::char_traits<char>, std::__1::allocator<char> >::__short"*
  %125 = getelementptr inbounds %"struct.std::__1::basic_string<char, std::__1::char_traits<char>, std::__1::allocator<char> >::__short", %"struct.std::__1::basic_string<char, std::__1::char_traits<char>, std::__1::allocator<char> >::__short"* %124, i64 0, i32 1, i32 0
  %126 = load i8, i8* %125, align 1
  %127 = icmp slt i8 %126, 0
  br i1 %123, label %138, label %128

128:                                              ; preds = %119
  br i1 %127, label %132, label %129

129:                                              ; preds = %128
  %130 = bitcast %"class.std::__1::basic_string"* %117 to i8*
  %131 = bitcast %"class.std::__1::basic_string"* %114 to i8*
  tail call void @llvm.memcpy.p0i8.p0i8.i64(i8* align 8 %130, i8* nonnull align 8 %131, i64 24, i1 false) #16
  br label %148

132:                                              ; preds = %128
  %133 = getelementptr inbounds %"class.std::__1::basic_string", %"class.std::__1::basic_string"* %114, i64 0, i32 0, i32 0, i32 0, i32 0, i32 0, i32 0
  %134 = load i8*, i8** %133, align 8
  %135 = getelementptr inbounds %"class.std::__1::basic_string", %"class.std::__1::basic_string"* %114, i64 0, i32 0, i32 0, i32 0, i32 0, i32 0, i32 1
  %136 = load i64, i64* %135, align 8
  %137 = tail call dereferenceable(24) %"class.std::__1::basic_string"* @_ZNSt3__112basic_stringIcNS_11char_traitsIcEENS_9allocatorIcEEE17__assign_no_aliasILb1EEERS5_PKcm(%"class.std::__1::basic_string"* %117, i8* %134, i64 %136) #16
  br label %148

138:                                              ; preds = %119
  %139 = getelementptr inbounds %"class.std::__1::basic_string", %"class.std::__1::basic_string"* %114, i64 0, i32 0, i32 0, i32 0, i32 0, i32 0, i32 0
  %140 = load i8*, i8** %139, align 8
  %141 = getelementptr inbounds %"class.std::__1::basic_string", %"class.std::__1::basic_string"* %114, i64 0, i32 0, i32 0, i32 0, i32 0, i32 0, i32 1
  %142 = load i64, i64* %141, align 8
  %143 = bitcast %"class.std::__1::basic_string"* %114 to i8*
  %144 = zext i8 %126 to i64
  %145 = select i1 %127, i8* %140, i8* %143
  %146 = select i1 %127, i64 %142, i64 %144
  %147 = tail call dereferenceable(24) %"class.std::__1::basic_string"* @_ZNSt3__112basic_stringIcNS_11char_traitsIcEENS_9allocatorIcEEE17__assign_no_aliasILb0EEERS5_PKcm(%"class.std::__1::basic_string"* %117, i8* %145, i64 %146) #16
  br label %148

148:                                              ; preds = %65, %72, %138, %132, %129, %116, %113, %2
  %149 = phi i1 [ false, %2 ], [ true, %113 ], [ true, %116 ], [ true, %129 ], [ true, %132 ], [ true, %138 ], [ false, %72 ], [ false, %65 ]
  ret i1 %149
}

; Function Attrs: nounwind ssp uwtable
define weak_odr hidden void @_ZN13cloud_devices19SelectionCapabilityINS_7printer5ColorENS1_11ColorTraitsEE16AddDefaultOptionERKS2_b(%"class.cloud_devices::SelectionCapability.67"*, %"struct.cloud_devices::printer::Color"* dereferenceable(56), i1 zeroext) local_unnamed_addr #0 comdat align 2 {
  %4 = getelementptr inbounds %"class.cloud_devices::SelectionCapability.67", %"class.cloud_devices::SelectionCapability.67"* %0, i64 0, i32 0, i32 0, i32 1
  br i1 %2, label %7, label %5

5:                                                ; preds = %3
  %6 = load %"struct.cloud_devices::printer::Color"*, %"struct.cloud_devices::printer::Color"** %4, align 8
  br label %20

7:                                                ; preds = %3
  %8 = bitcast %"struct.cloud_devices::printer::Color"** %4 to i64*
  %9 = load i64, i64* %8, align 8
  %10 = bitcast %"class.cloud_devices::SelectionCapability.67"* %0 to i64*
  %11 = load i64, i64* %10, align 8
  %12 = sub i64 %9, %11
  %13 = sdiv exact i64 %12, 56
  %14 = icmp ult i64 %13, 2147483648
  br i1 %14, label %16, label %15, !prof !27

15:                                               ; preds = %7
  tail call void @llvm.trap() #16
  unreachable

16:                                               ; preds = %7
  %17 = inttoptr i64 %9 to %"struct.cloud_devices::printer::Color"*
  %18 = trunc i64 %13 to i32
  %19 = getelementptr inbounds %"class.cloud_devices::SelectionCapability.67", %"class.cloud_devices::SelectionCapability.67"* %0, i64 0, i32 1
  store i32 %18, i32* %19, align 8
  br label %20

20:                                               ; preds = %5, %16
  %21 = phi %"struct.cloud_devices::printer::Color"* [ %6, %5 ], [ %17, %16 ]
  %22 = getelementptr inbounds %"class.cloud_devices::SelectionCapability.67", %"class.cloud_devices::SelectionCapability.67"* %0, i64 0, i32 0, i32 0, i32 1
  %23 = getelementptr inbounds %"class.cloud_devices::SelectionCapability.67", %"class.cloud_devices::SelectionCapability.67"* %0, i64 0, i32 0, i32 0, i32 2, i32 0, i32 0
  %24 = load %"struct.cloud_devices::printer::Color"*, %"struct.cloud_devices::printer::Color"** %23, align 8
  %25 = icmp eq %"struct.cloud_devices::printer::Color"* %21, %24
  br i1 %25, label %63, label %26

26:                                               ; preds = %20
  %27 = getelementptr inbounds %"struct.cloud_devices::printer::Color", %"struct.cloud_devices::printer::Color"* %21, i64 0, i32 0
  %28 = getelementptr inbounds %"struct.cloud_devices::printer::Color", %"struct.cloud_devices::printer::Color"* %1, i64 0, i32 0
  %29 = load i32, i32* %28, align 8
  store i32 %29, i32* %27, align 8
  %30 = getelementptr inbounds %"struct.cloud_devices::printer::Color", %"struct.cloud_devices::printer::Color"* %21, i64 0, i32 1
  %31 = getelementptr inbounds %"struct.cloud_devices::printer::Color", %"struct.cloud_devices::printer::Color"* %1, i64 0, i32 1
  %32 = bitcast %"class.std::__1::basic_string"* %31 to %"struct.std::__1::basic_string<char, std::__1::char_traits<char>, std::__1::allocator<char> >::__short"*
  %33 = getelementptr inbounds %"struct.std::__1::basic_string<char, std::__1::char_traits<char>, std::__1::allocator<char> >::__short", %"struct.std::__1::basic_string<char, std::__1::char_traits<char>, std::__1::allocator<char> >::__short"* %32, i64 0, i32 1, i32 0
  %34 = load i8, i8* %33, align 1
  %35 = icmp slt i8 %34, 0
  br i1 %35, label %39, label %36

36:                                               ; preds = %26
  %37 = bitcast %"class.std::__1::basic_string"* %30 to i8*
  %38 = bitcast %"class.std::__1::basic_string"* %31 to i8*
  tail call void @llvm.memcpy.p0i8.p0i8.i64(i8* align 8 %37, i8* align 8 %38, i64 24, i1 false) #16
  br label %44

39:                                               ; preds = %26
  %40 = getelementptr inbounds %"class.std::__1::basic_string", %"class.std::__1::basic_string"* %31, i64 0, i32 0, i32 0, i32 0, i32 0, i32 0, i32 0
  %41 = load i8*, i8** %40, align 8
  %42 = getelementptr inbounds %"struct.cloud_devices::printer::Color", %"struct.cloud_devices::printer::Color"* %1, i64 0, i32 1, i32 0, i32 0, i32 0, i32 0, i32 0, i32 1
  %43 = load i64, i64* %42, align 8
  tail call void @_ZNSt3__112basic_stringIcNS_11char_traitsIcEENS_9allocatorIcEEE25__init_copy_ctor_externalEPKcm(%"class.std::__1::basic_string"* %30, i8* %41, i64 %43) #16
  br label %44

44:                                               ; preds = %39, %36
  %45 = getelementptr inbounds %"struct.cloud_devices::printer::Color", %"struct.cloud_devices::printer::Color"* %21, i64 0, i32 2
  %46 = getelementptr inbounds %"struct.cloud_devices::printer::Color", %"struct.cloud_devices::printer::Color"* %1, i64 0, i32 2
  %47 = bitcast %"class.std::__1::basic_string"* %46 to %"struct.std::__1::basic_string<char, std::__1::char_traits<char>, std::__1::allocator<char> >::__short"*
  %48 = getelementptr inbounds %"struct.std::__1::basic_string<char, std::__1::char_traits<char>, std::__1::allocator<char> >::__short", %"struct.std::__1::basic_string<char, std::__1::char_traits<char>, std::__1::allocator<char> >::__short"* %47, i64 0, i32 1, i32 0
  %49 = load i8, i8* %48, align 1
  %50 = icmp slt i8 %49, 0
  br i1 %50, label %54, label %51

51:                                               ; preds = %44
  %52 = bitcast %"class.std::__1::basic_string"* %45 to i8*
  %53 = bitcast %"class.std::__1::basic_string"* %46 to i8*
  tail call void @llvm.memcpy.p0i8.p0i8.i64(i8* align 8 %52, i8* align 8 %53, i64 24, i1 false) #16
  br label %59

54:                                               ; preds = %44
  %55 = getelementptr inbounds %"class.std::__1::basic_string", %"class.std::__1::basic_string"* %46, i64 0, i32 0, i32 0, i32 0, i32 0, i32 0, i32 0
  %56 = load i8*, i8** %55, align 8
  %57 = getelementptr inbounds %"struct.cloud_devices::printer::Color", %"struct.cloud_devices::printer::Color"* %1, i64 0, i32 2, i32 0, i32 0, i32 0, i32 0, i32 0, i32 1
  %58 = load i64, i64* %57, align 8
  tail call void @_ZNSt3__112basic_stringIcNS_11char_traitsIcEENS_9allocatorIcEEE25__init_copy_ctor_externalEPKcm(%"class.std::__1::basic_string"* %45, i8* %56, i64 %58) #16
  br label %59

59:                                               ; preds = %54, %51
  %60 = getelementptr inbounds %"struct.cloud_devices::printer::Color", %"struct.cloud_devices::printer::Color"* %21, i64 1
  %61 = ptrtoint %"struct.cloud_devices::printer::Color"* %60 to i64
  %62 = bitcast %"struct.cloud_devices::printer::Color"** %22 to i64*
  store i64 %61, i64* %62, align 8
  br label %65

63:                                               ; preds = %20
  %64 = getelementptr inbounds %"class.cloud_devices::SelectionCapability.67", %"class.cloud_devices::SelectionCapability.67"* %0, i64 0, i32 0
  tail call void @_ZNSt3__16vectorIN13cloud_devices7printer5ColorENS_9allocatorIS3_EEE21__push_back_slow_pathIRKS3_EEvOT_(%"class.std::__1::vector.68"* %64, %"struct.cloud_devices::printer::Color"* dereferenceable(56) %1) #16
  br label %65

65:                                               ; preds = %59, %63
  ret void
}

; Function Attrs: nounwind ssp uwtable
define weak_odr hidden zeroext i1 @_ZNK13cloud_devices19SelectionCapabilityINS_7printer5ColorENS1_11ColorTraitsEE7IsValidEv(%"class.cloud_devices::SelectionCapability.67"*) local_unnamed_addr #0 comdat align 2 {
  %2 = getelementptr inbounds %"class.cloud_devices::SelectionCapability.67", %"class.cloud_devices::SelectionCapability.67"* %0, i64 0, i32 0, i32 0, i32 0
  %3 = load %"struct.cloud_devices::printer::Color"*, %"struct.cloud_devices::printer::Color"** %2, align 8
  %4 = getelementptr inbounds %"class.cloud_devices::SelectionCapability.67", %"class.cloud_devices::SelectionCapability.67"* %0, i64 0, i32 0, i32 0, i32 1
  %5 = load %"struct.cloud_devices::printer::Color"*, %"struct.cloud_devices::printer::Color"** %4, align 8
  %6 = icmp eq %"struct.cloud_devices::printer::Color"* %3, %5
  %7 = ptrtoint %"struct.cloud_devices::printer::Color"* %5 to i64
  %8 = ptrtoint %"struct.cloud_devices::printer::Color"* %3 to i64
  br i1 %6, label %55, label %9

9:                                                ; preds = %1
  %10 = sub i64 %7, %8
  %11 = sdiv exact i64 %10, 56
  br label %12

12:                                               ; preds = %9, %40
  %13 = phi i64 [ 0, %9 ], [ %41, %40 ]
  %14 = getelementptr inbounds %"struct.cloud_devices::printer::Color", %"struct.cloud_devices::printer::Color"* %3, i64 %13, i32 0
  %15 = load i32, i32* %14, align 8
  %16 = and i32 %15, -2
  %17 = icmp eq i32 %16, 2
  br i1 %17, label %18, label %40

18:                                               ; preds = %12
  %19 = getelementptr inbounds %"struct.cloud_devices::printer::Color", %"struct.cloud_devices::printer::Color"* %3, i64 %13, i32 1
  %20 = bitcast %"class.std::__1::basic_string"* %19 to %"struct.std::__1::basic_string<char, std::__1::char_traits<char>, std::__1::allocator<char> >::__short"*
  %21 = getelementptr inbounds %"struct.std::__1::basic_string<char, std::__1::char_traits<char>, std::__1::allocator<char> >::__short", %"struct.std::__1::basic_string<char, std::__1::char_traits<char>, std::__1::allocator<char> >::__short"* %20, i64 0, i32 1, i32 0
  %22 = load i8, i8* %21, align 1
  %23 = icmp slt i8 %22, 0
  %24 = getelementptr inbounds %"struct.cloud_devices::printer::Color", %"struct.cloud_devices::printer::Color"* %3, i64 %13, i32 1, i32 0, i32 0, i32 0, i32 0, i32 0, i32 1
  %25 = load i64, i64* %24, align 8
  %26 = zext i8 %22 to i64
  %27 = select i1 %23, i64 %25, i64 %26
  %28 = icmp eq i64 %27, 0
  br i1 %28, label %55, label %29

29:                                               ; preds = %18
  %30 = getelementptr inbounds %"struct.cloud_devices::printer::Color", %"struct.cloud_devices::printer::Color"* %3, i64 %13, i32 2
  %31 = bitcast %"class.std::__1::basic_string"* %30 to %"struct.std::__1::basic_string<char, std::__1::char_traits<char>, std::__1::allocator<char> >::__short"*
  %32 = getelementptr inbounds %"struct.std::__1::basic_string<char, std::__1::char_traits<char>, std::__1::allocator<char> >::__short", %"struct.std::__1::basic_string<char, std::__1::char_traits<char>, std::__1::allocator<char> >::__short"* %31, i64 0, i32 1, i32 0
  %33 = load i8, i8* %32, align 1
  %34 = icmp slt i8 %33, 0
  %35 = getelementptr inbounds %"struct.cloud_devices::printer::Color", %"struct.cloud_devices::printer::Color"* %3, i64 %13, i32 2, i32 0, i32 0, i32 0, i32 0, i32 0, i32 1
  %36 = load i64, i64* %35, align 8
  %37 = zext i8 %33 to i64
  %38 = select i1 %34, i64 %36, i64 %37
  %39 = icmp eq i64 %38, 0
  br i1 %39, label %55, label %40

40:                                               ; preds = %29, %12
  %41 = add nuw i64 %13, 1
  %42 = icmp ult i64 %41, %11
  br i1 %42, label %12, label %43

43:                                               ; preds = %40
  %44 = getelementptr inbounds %"class.cloud_devices::SelectionCapability.67", %"class.cloud_devices::SelectionCapability.67"* %0, i64 0, i32 1
  %45 = load i32, i32* %44, align 8
  %46 = icmp sgt i32 %45, -2
  br i1 %46, label %47, label %55

47:                                               ; preds = %43
  %48 = sub i64 %7, %8
  %49 = sdiv exact i64 %48, 56
  %50 = icmp ult i64 %49, 2147483648
  br i1 %50, label %52, label %51, !prof !27

51:                                               ; preds = %47
  tail call void @llvm.trap() #16
  unreachable

52:                                               ; preds = %47
  %53 = trunc i64 %49 to i32
  %54 = icmp slt i32 %45, %53
  br label %55

55:                                               ; preds = %29, %18, %43, %52, %1
  %56 = phi i1 [ false, %1 ], [ false, %43 ], [ %54, %52 ], [ false, %18 ], [ false, %29 ]
  ret i1 %56
}

; Function Attrs: nounwind ssp uwtable
