; ModuleID = '../../components/printing/browser/print_manager.cc'
source_filename = "../../components/printing/browser/print_manager.cc"
target datalayout = "e-m:e-i64:64-f80:128-n8:16:32:64-S128"
target triple = "x86_64-unknown-linux-gnu"

module asm ".symver exp, exp@GLIBC_2.2.5"
module asm ".symver exp2, exp2@GLIBC_2.2.5"
module asm ".symver exp2f, exp2f@GLIBC_2.2.5"
module asm ".symver expf, expf@GLIBC_2.2.5"
module asm ".symver lgamma, lgamma@GLIBC_2.2.5"
module asm ".symver lgammaf, lgammaf@GLIBC_2.2.5"
module asm ".symver lgammal, lgammal@GLIBC_2.2.5"
module asm ".symver log, log@GLIBC_2.2.5"
module asm ".symver log2, log2@GLIBC_2.2.5"
module asm ".symver log2f, log2f@GLIBC_2.2.5"
module asm ".symver logf, logf@GLIBC_2.2.5"
module asm ".symver pow, pow@GLIBC_2.2.5"
module asm ".symver powf, powf@GLIBC_2.2.5"

%"class.printing::PrintManager" = type { %"class.content::WebContentsObserver", %"class.printing::mojom::PrintManagerHost", i32, i32, %"class.content::WebContentsFrameReceiverSet", %"class.std::__1::map.35" }
%"class.content::WebContentsObserver" = type { %"class.IPC::Listener", %"class.content::WebContents"* }
%"class.IPC::Listener" = type { i32 (...)** }
%"class.content::WebContents" = type <{ %"class.content::PageNavigator", %"class.base::SupportsUserData.base", [7 x i8] }>
%"class.content::PageNavigator" = type { i32 (...)** }
%"class.base::SupportsUserData.base" = type <{ i32 (...)**, %"class.std::__1::map", %"class.base::SequenceCheckerDoNothing" }>
%"class.std::__1::map" = type { %"class.std::__1::__tree" }
%"class.std::__1::__tree" = type { %"class.std::__1::__tree_end_node"*, %"class.std::__1::__compressed_pair", %"class.std::__1::__compressed_pair.1" }
%"class.std::__1::__tree_end_node" = type { %"class.std::__1::__tree_node_base"* }
%"class.std::__1::__tree_node_base" = type <{ %"class.std::__1::__tree_end_node", %"class.std::__1::__tree_node_base"*, %"class.std::__1::__tree_end_node"*, i8, [7 x i8] }>
%"class.std::__1::__compressed_pair" = type { %"struct.std::__1::__compressed_pair_elem" }
%"struct.std::__1::__compressed_pair_elem" = type { %"class.std::__1::__tree_end_node" }
%"class.std::__1::__compressed_pair.1" = type { %"struct.std::__1::__compressed_pair_elem.2" }
%"struct.std::__1::__compressed_pair_elem.2" = type { i64 }
%"class.base::SequenceCheckerDoNothing" = type { i8 }
%"class.printing::mojom::PrintManagerHost" = type { i32 (...)** }
%"class.content::WebContentsFrameReceiverSet" = type { %"class.content::WebContentsReceiverSet", %"class.content::WebContentsFrameReceiverSet<printing::mojom::PrintManagerHost>::FrameInterfaceBinder", %"class.content::RenderFrameHost"* }
%"class.content::WebContentsReceiverSet" = type { %"class.base::OnceCallback", %"class.content::WebContentsReceiverSet::Binder"* }
%"class.base::OnceCallback" = type { %"class.base::internal::CallbackBase" }
%"class.base::internal::CallbackBase" = type { %class.scoped_refptr }
%class.scoped_refptr = type { %"class.base::internal::BindStateBase"* }
%"class.base::internal::BindStateBase" = type { %"class.base::RefCountedThreadSafe", void ()*, void (%"class.base::internal::BindStateBase"*)*, i1 (%"class.base::internal::BindStateBase"*, i32)* }
%"class.base::RefCountedThreadSafe" = type { %"class.base::subtle::RefCountedThreadSafeBase" }
%"class.base::subtle::RefCountedThreadSafeBase" = type { %"class.base::AtomicRefCount" }
%"class.base::AtomicRefCount" = type { %"struct.std::__1::atomic" }
%"struct.std::__1::atomic" = type { %"struct.std::__1::__atomic_base" }
%"struct.std::__1::__atomic_base" = type { %"struct.std::__1::__atomic_base.4" }
%"struct.std::__1::__atomic_base.4" = type { %"struct.std::__1::__cxx_atomic_impl" }
%"struct.std::__1::__cxx_atomic_impl" = type { %"struct.std::__1::__cxx_atomic_base_impl" }
%"struct.std::__1::__cxx_atomic_base_impl" = type { i32 }
%"class.content::WebContentsReceiverSet::Binder" = type { i32 (...)** }
%"class.content::WebContentsFrameReceiverSet<printing::mojom::PrintManagerHost>::FrameInterfaceBinder" = type { %"class.content::WebContentsReceiverSet::Binder", %"class.content::WebContentsObserver", %"class.printing::mojom::PrintManagerHost"*, %"class.mojo::ReceiverSetBase", %"class.std::__1::map.24" }
%"class.mojo::ReceiverSetBase" = type { %"class.mojo::ReceiverSetState" }
%"class.mojo::ReceiverSetState" = type { %"class.base::RepeatingCallback", %"class.base::RepeatingCallback.5", i64, %"class.std::__1::map.6", i8*, i64, %"class.base::WeakPtrFactory" }
%"class.base::RepeatingCallback" = type { %"class.base::internal::CallbackBaseCopyable" }
%"class.base::internal::CallbackBaseCopyable" = type { %"class.base::internal::CallbackBase" }
%"class.base::RepeatingCallback.5" = type { %"class.base::internal::CallbackBaseCopyable" }
%"class.std::__1::map.6" = type { %"class.std::__1::__tree.7" }
%"class.std::__1::__tree.7" = type { %"class.std::__1::__tree_end_node"*, %"class.std::__1::__compressed_pair.8", %"class.std::__1::__compressed_pair.12" }
%"class.std::__1::__compressed_pair.8" = type { %"struct.std::__1::__compressed_pair_elem" }
%"class.std::__1::__compressed_pair.12" = type { %"struct.std::__1::__compressed_pair_elem.2" }
%"class.base::WeakPtrFactory" = type { %"class.base::internal::WeakPtrFactoryBase" }
%"class.base::internal::WeakPtrFactoryBase" = type { %"class.base::internal::WeakReferenceOwner", i64 }
%"class.base::internal::WeakReferenceOwner" = type { %class.scoped_refptr.17 }
%class.scoped_refptr.17 = type { %"class.base::internal::WeakReference::Flag"* }
%"class.base::internal::WeakReference::Flag" = type <{ %"class.base::RefCountedThreadSafe.18", %"class.base::AtomicFlag", [3 x i8] }>
%"class.base::RefCountedThreadSafe.18" = type { %"class.base::subtle::RefCountedThreadSafeBase" }
%"class.base::AtomicFlag" = type { %"struct.std::__1::atomic.19" }
%"struct.std::__1::atomic.19" = type { %"struct.std::__1::__atomic_base.20" }
%"struct.std::__1::__atomic_base.20" = type { %"struct.std::__1::__atomic_base.21" }
%"struct.std::__1::__atomic_base.21" = type { %"struct.std::__1::__cxx_atomic_impl.22" }
%"struct.std::__1::__cxx_atomic_impl.22" = type { %"struct.std::__1::__cxx_atomic_base_impl.23" }
%"struct.std::__1::__cxx_atomic_base_impl.23" = type { i8 }
%"class.std::__1::map.24" = type { %"class.std::__1::__tree.25" }
%"class.std::__1::__tree.25" = type { %"class.std::__1::__tree_end_node"*, %"class.std::__1::__compressed_pair.26", %"class.std::__1::__compressed_pair.30" }
%"class.std::__1::__compressed_pair.26" = type { %"struct.std::__1::__compressed_pair_elem" }
%"class.std::__1::__compressed_pair.30" = type { %"struct.std::__1::__compressed_pair_elem.2" }
%"class.content::RenderFrameHost" = type { %"class.IPC::Listener", %"class.IPC::Sender" }
%"class.IPC::Sender" = type { i32 (...)** }
%"class.std::__1::map.35" = type { %"class.std::__1::__tree.36" }
%"class.std::__1::__tree.36" = type { %"class.std::__1::__tree_end_node"*, %"class.std::__1::__compressed_pair.37", %"class.std::__1::__compressed_pair.41" }
%"class.std::__1::__compressed_pair.37" = type { %"struct.std::__1::__compressed_pair_elem" }
%"class.std::__1::__compressed_pair.41" = type { %"struct.std::__1::__compressed_pair_elem.2" }
%"class.std::__1::basic_string" = type { %"class.std::__1::__compressed_pair.153" }
%"class.std::__1::__compressed_pair.153" = type { %"struct.std::__1::__compressed_pair_elem.154" }
%"struct.std::__1::__compressed_pair_elem.154" = type { %"struct.std::__1::basic_string<char, std::__1::char_traits<char>, std::__1::allocator<char> >::__rep" }
%"struct.std::__1::basic_string<char, std::__1::char_traits<char>, std::__1::allocator<char> >::__rep" = type { %union.anon.155 }
%union.anon.155 = type { %"struct.std::__1::basic_string<char, std::__1::char_traits<char>, std::__1::allocator<char> >::__long" }
%"struct.std::__1::basic_string<char, std::__1::char_traits<char>, std::__1::allocator<char> >::__long" = type { i8*, i64, i64 }
%"class.std::__1::__basic_string_common" = type { i8 }
%"struct.std::__1::basic_string<char, std::__1::char_traits<char>, std::__1::allocator<char> >::__short" = type { [23 x i8], %struct.anon }
%struct.anon = type { i8 }
%"class.std::__1::__tree_node.335" = type { %"class.std::__1::__tree_node_base.base", %"struct.std::__1::__value_type.336" }
%"class.std::__1::__tree_node_base.base" = type <{ %"class.std::__1::__tree_end_node", %"class.std::__1::__tree_node_base"*, %"class.std::__1::__tree_end_node"*, i8 }>
%"struct.std::__1::__value_type.336" = type { %"struct.std::__1::pair.60" }
%"struct.std::__1::pair.60" = type { %"class.content::RenderFrameHost"*, %"class.mojo::AssociatedRemote" }
%"class.mojo::AssociatedRemote" = type { %"class.mojo::internal::AssociatedInterfacePtrState" }
%"class.mojo::internal::AssociatedInterfacePtrState" = type { %"class.mojo::internal::AssociatedInterfacePtrStateBase.base", %"class.std::__1::unique_ptr.124" }
%"class.mojo::internal::AssociatedInterfacePtrStateBase.base" = type <{ %"class.std::__1::unique_ptr.61", i32 }>
%"class.std::__1::unique_ptr.61" = type { %"class.std::__1::__compressed_pair.62" }
%"class.std::__1::__compressed_pair.62" = type { %"struct.std::__1::__compressed_pair_elem.63" }
%"struct.std::__1::__compressed_pair_elem.63" = type { %"class.mojo::InterfaceEndpointClient"* }
%"class.mojo::InterfaceEndpointClient" = type { %"class.mojo::MessageReceiverWithResponder", i8, %"class.base::RepeatingCallback", %"class.base::OnceCallback.64", %"class.absl::optional", %"class.absl::optional.65", %"class.mojo::ConnectionGroup::Ref", i32, %"class.mojo::ScopedInterfaceEndpointHandle", %"class.std::__1::unique_ptr.79", %"class.mojo::InterfaceEndpointController"*, %"class.mojo::MessageReceiverWithResponderStatus"*, %"class.mojo::InterfaceEndpointClient::HandleIncomingMessageThunk", %"class.mojo::MessageDispatcher", %"class.std::__1::map.101", %"class.std::__1::map.110", i64, %"class.base::OnceCallback", %"class.base::OnceCallback.119", i8, %class.scoped_refptr.70, %"class.mojo::internal::ControlMessageProxy", %"class.mojo::internal::ControlMessageHandler", i8*, %"class.base::WeakPtrFactory.120" }
%"class.mojo::MessageReceiverWithResponder" = type { %"class.mojo::MessageReceiver" }
%"class.mojo::MessageReceiver" = type { i32 (...)** }
%"class.base::OnceCallback.64" = type { %"class.base::internal::CallbackBase" }
%"class.absl::optional" = type { %"class.absl::optional_internal::optional_data" }
%"class.absl::optional_internal::optional_data" = type { %"class.absl::optional_internal::optional_data_base" }
%"class.absl::optional_internal::optional_data_base" = type { %"class.absl::optional_internal::optional_data_dtor_base" }
%"class.absl::optional_internal::optional_data_dtor_base" = type { i8, %union.anon }
%union.anon = type { %"class.base::TimeDelta" }
%"class.base::TimeDelta" = type { i64 }
%"class.absl::optional.65" = type { %"class.absl::optional_internal::optional_data.66" }
%"class.absl::optional_internal::optional_data.66" = type { %"class.absl::optional_internal::optional_data_base.67" }
%"class.absl::optional_internal::optional_data_base.67" = type { %"class.absl::optional_internal::optional_data_dtor_base.68" }
%"class.absl::optional_internal::optional_data_dtor_base.68" = type { i8, %union.anon.69 }
%union.anon.69 = type { %"class.base::OneShotTimer" }
%"class.base::OneShotTimer" = type { %"class.base::internal::TimerBase", %"class.base::OnceCallback" }
%"class.base::internal::TimerBase" = type { i32 (...)**, %class.scoped_refptr.70, %"class.base::SequenceCheckerDoNothing", %"class.base::internal::TaskDestructionDetector"*, %"class.base::Location", %"class.base::TimeDelta", %"class.base::TimeTicks", %"class.base::TimeTicks", %"class.base::TickClock"*, i8, %"class.base::WeakPtrFactory.72" }
%"class.base::internal::TaskDestructionDetector" = type opaque
%"class.base::Location" = type { i8*, i8*, i32, i8* }
%"class.base::TimeTicks" = type { %"class.base::time_internal::TimeBase" }
%"class.base::time_internal::TimeBase" = type { i64 }
%"class.base::TickClock" = type { i32 (...)** }
%"class.base::WeakPtrFactory.72" = type { %"class.base::internal::WeakPtrFactoryBase" }
%"class.mojo::ConnectionGroup::Ref" = type { i32, %class.scoped_refptr.77 }
%class.scoped_refptr.77 = type { %"class.mojo::ConnectionGroup"* }
%"class.mojo::ConnectionGroup" = type <{ i32 (...)**, %"class.base::RefCountedThreadSafe.130", [4 x i8], %"class.base::RepeatingCallback", %class.scoped_refptr.70, %"class.mojo::ConnectionGroup::Ref", %"struct.std::__1::atomic.131", [4 x i8] }>
%"class.base::RefCountedThreadSafe.130" = type { %"class.base::subtle::RefCountedThreadSafeBase" }
%"struct.std::__1::atomic.131" = type { %"struct.std::__1::__atomic_base.132" }
%"struct.std::__1::__atomic_base.132" = type { %"struct.std::__1::__atomic_base.133" }
%"struct.std::__1::__atomic_base.133" = type { %"struct.std::__1::__cxx_atomic_impl.134" }
%"struct.std::__1::__cxx_atomic_impl.134" = type { %"struct.std::__1::__cxx_atomic_base_impl.135" }
%"struct.std::__1::__cxx_atomic_base_impl.135" = type { i32 }
%"class.mojo::ScopedInterfaceEndpointHandle" = type { %class.scoped_refptr.78 }
%class.scoped_refptr.78 = type { %"class.mojo::ScopedInterfaceEndpointHandle::State"* }
%"class.mojo::ScopedInterfaceEndpointHandle::State" = type opaque
%"class.std::__1::unique_ptr.79" = type { %"class.std::__1::__compressed_pair.80" }
%"class.std::__1::__compressed_pair.80" = type { %"struct.std::__1::__compressed_pair_elem.81" }
%"struct.std::__1::__compressed_pair_elem.81" = type { %"class.mojo::AssociatedGroup"* }
%"class.mojo::AssociatedGroup" = type { %"class.base::RepeatingCallback.82", %class.scoped_refptr.83 }
%"class.base::RepeatingCallback.82" = type { %"class.base::internal::CallbackBaseCopyable" }
%class.scoped_refptr.83 = type { %"class.mojo::AssociatedGroupController"* }
%"class.mojo::AssociatedGroupController" = type <{ i32 (...)**, %"class.base::RefCountedThreadSafe.84", [4 x i8] }>
%"class.base::RefCountedThreadSafe.84" = type { %"class.base::subtle::RefCountedThreadSafeBase" }
%"class.mojo::InterfaceEndpointController" = type opaque
%"class.mojo::MessageReceiverWithResponderStatus" = type { %"class.mojo::MessageReceiver" }
%"class.mojo::InterfaceEndpointClient::HandleIncomingMessageThunk" = type { %"class.mojo::MessageReceiver", %"class.mojo::InterfaceEndpointClient"* }
%"class.mojo::MessageDispatcher" = type { %"class.mojo::MessageReceiver", %"class.std::__1::unique_ptr.88", %"class.std::__1::unique_ptr.94", %"class.mojo::MessageReceiver"*, %"class.base::WeakPtrFactory.100" }
%"class.std::__1::unique_ptr.88" = type { %"class.std::__1::__compressed_pair.89" }
%"class.std::__1::__compressed_pair.89" = type { %"struct.std::__1::__compressed_pair_elem.90" }
%"struct.std::__1::__compressed_pair_elem.90" = type { %"class.mojo::MessageReceiver"* }
%"class.std::__1::unique_ptr.94" = type { %"class.std::__1::__compressed_pair.95" }
%"class.std::__1::__compressed_pair.95" = type { %"struct.std::__1::__compressed_pair_elem.96" }
%"struct.std::__1::__compressed_pair_elem.96" = type { %"class.mojo::MessageFilter"* }
%"class.mojo::MessageFilter" = type { i32 (...)** }
%"class.base::WeakPtrFactory.100" = type { %"class.base::internal::WeakPtrFactoryBase" }
%"class.std::__1::map.101" = type { %"class.std::__1::__tree.102" }
%"class.std::__1::__tree.102" = type { %"class.std::__1::__tree_end_node"*, %"class.std::__1::__compressed_pair.103", %"class.std::__1::__compressed_pair.107" }
%"class.std::__1::__compressed_pair.103" = type { %"struct.std::__1::__compressed_pair_elem" }
%"class.std::__1::__compressed_pair.107" = type { %"struct.std::__1::__compressed_pair_elem.2" }
%"class.std::__1::map.110" = type { %"class.std::__1::__tree.111" }
%"class.std::__1::__tree.111" = type { %"class.std::__1::__tree_end_node"*, %"class.std::__1::__compressed_pair.112", %"class.std::__1::__compressed_pair.116" }
%"class.std::__1::__compressed_pair.112" = type { %"struct.std::__1::__compressed_pair_elem" }
%"class.std::__1::__compressed_pair.116" = type { %"struct.std::__1::__compressed_pair_elem.2" }
%"class.base::OnceCallback.119" = type { %"class.base::internal::CallbackBase" }
%class.scoped_refptr.70 = type { %"class.base::SequencedTaskRunner"* }
%"class.base::SequencedTaskRunner" = type { %"class.base::TaskRunner.base", [4 x i8] }
%"class.base::TaskRunner.base" = type <{ i32 (...)**, %"class.base::RefCountedThreadSafe.71" }>
%"class.base::RefCountedThreadSafe.71" = type { %"class.base::subtle::RefCountedThreadSafeBase" }
%"class.mojo::internal::ControlMessageProxy" = type { %"class.mojo::InterfaceEndpointClient"*, i8, %"class.base::OnceCallback" }
%"class.mojo::internal::ControlMessageHandler" = type <{ %"class.mojo::MessageReceiverWithResponderStatus", %"class.mojo::InterfaceEndpointClient"*, i32, [4 x i8] }>
%"class.base::WeakPtrFactory.120" = type { %"class.base::internal::WeakPtrFactoryBase" }
%"class.std::__1::unique_ptr.124" = type { %"class.std::__1::__compressed_pair.125" }
%"class.std::__1::__compressed_pair.125" = type { %"struct.std::__1::__compressed_pair_elem.126" }
%"struct.std::__1::__compressed_pair_elem.126" = type { %"class.printing::mojom::PrintRenderFrameProxy"* }
%"class.printing::mojom::PrintRenderFrameProxy" = type { %"class.printing::mojom::PrintRenderFrame", %"class.mojo::MessageReceiverWithResponder"* }
%"class.printing::mojom::PrintRenderFrame" = type { i32 (...)** }
%"class.std::__1::__tree_node" = type { %"class.std::__1::__tree_node_base.base", %"struct.std::__1::__value_type" }
%"struct.std::__1::__value_type" = type { %"struct.std::__1::pair.263" }
%"struct.std::__1::pair.263" = type { %"class.content::RenderFrameHost"*, %"class.std::__1::vector.264" }
%"class.std::__1::vector.264" = type { %"class.std::__1::__vector_base.265" }
%"class.std::__1::__vector_base.265" = type { i64*, i64*, %"class.std::__1::__compressed_pair.266" }
%"class.std::__1::__compressed_pair.266" = type { %"struct.std::__1::__compressed_pair_elem.267" }
%"struct.std::__1::__compressed_pair_elem.267" = type { i64* }
%"class.mojo::StructPtr" = type { %"class.std::__1::unique_ptr" }
%"class.std::__1::unique_ptr" = type { %"class.std::__1::__compressed_pair.44" }
%"class.std::__1::__compressed_pair.44" = type { %"struct.std::__1::__compressed_pair_elem.45" }
%"struct.std::__1::__compressed_pair_elem.45" = type { %"class.printing::mojom::DidPrintDocumentParams"* }
%"class.printing::mojom::DidPrintDocumentParams" = type <{ %"class.mojo::StructPtr.46", i32, %"class.gfx::Size", %"class.gfx::Rect", %"class.gfx::Point", [4 x i8] }>
%"class.mojo::StructPtr.46" = type { %"class.std::__1::unique_ptr.47" }
%"class.std::__1::unique_ptr.47" = type { %"class.std::__1::__compressed_pair.48" }
%"class.std::__1::__compressed_pair.48" = type { %"struct.std::__1::__compressed_pair_elem.49" }
%"struct.std::__1::__compressed_pair_elem.49" = type { %"class.printing::mojom::DidPrintContentParams"* }
%"class.printing::mojom::DidPrintContentParams" = type { %"class.base::ReadOnlySharedMemoryRegion", %"class.base::flat_map" }
%"class.base::ReadOnlySharedMemoryRegion" = type { %"class.base::subtle::PlatformSharedMemoryRegion" }
%"class.base::subtle::PlatformSharedMemoryRegion" = type { %"struct.base::subtle::ScopedFDPair", i32, i64, %"class.base::UnguessableToken" }
%"struct.base::subtle::ScopedFDPair" = type { %"class.base::ScopedGeneric", %"class.base::ScopedGeneric" }
%"class.base::ScopedGeneric" = type <{ i32 (...)**, %"struct.base::ScopedGeneric<int, base::internal::ScopedFDCloseTraits>::Data", i8, [3 x i8] }>
%"struct.base::ScopedGeneric<int, base::internal::ScopedFDCloseTraits>::Data" = type { i32 }
%"class.base::UnguessableToken" = type { %"class.base::Token" }
%"class.base::Token" = type { i64, i64 }
%"class.base::flat_map" = type { %"class.base::internal::flat_tree" }
%"class.base::internal::flat_tree" = type { %"class.std::__1::vector" }
%"class.std::__1::vector" = type { %"class.std::__1::__vector_base" }
%"class.std::__1::__vector_base" = type { %"struct.std::__1::pair"*, %"struct.std::__1::pair"*, %"class.std::__1::__compressed_pair.50" }
%"struct.std::__1::pair" = type opaque
%"class.std::__1::__compressed_pair.50" = type { %"struct.std::__1::__compressed_pair_elem.51" }
%"struct.std::__1::__compressed_pair_elem.51" = type { %"struct.std::__1::pair"* }
%"class.gfx::Size" = type { i32, i32 }
%"class.gfx::Rect" = type { %"class.gfx::Point", %"class.gfx::Size" }
%"class.gfx::Point" = type { i32, i32 }
%"class.base::OnceCallback.59" = type { %"class.base::internal::CallbackBase" }
%"class.mojo::PendingAssociatedReceiver.337" = type { %"class.mojo::ScopedInterfaceEndpointHandle" }
%"class.mojo::internal::AssociatedInterfacePtrStateBase" = type <{ %"class.std::__1::unique_ptr.61", i32, [4 x i8] }>
%"class.blink::AssociatedInterfaceProvider" = type { %"class.mojo::AssociatedRemote.136", %"class.std::__1::unique_ptr.144", %class.scoped_refptr.150 }
%"class.mojo::AssociatedRemote.136" = type { %"class.mojo::internal::AssociatedInterfacePtrState.137" }
%"class.mojo::internal::AssociatedInterfacePtrState.137" = type { %"class.mojo::internal::AssociatedInterfacePtrStateBase.base", %"class.std::__1::unique_ptr.138" }
%"class.std::__1::unique_ptr.138" = type { %"class.std::__1::__compressed_pair.139" }
%"class.std::__1::__compressed_pair.139" = type { %"struct.std::__1::__compressed_pair_elem.140" }
%"struct.std::__1::__compressed_pair_elem.140" = type { %"class.blink::mojom::AssociatedInterfaceProviderProxy"* }
%"class.blink::mojom::AssociatedInterfaceProviderProxy" = type { %"class.blink::mojom::AssociatedInterfaceProvider", %"class.mojo::MessageReceiverWithResponder"* }
%"class.blink::mojom::AssociatedInterfaceProvider" = type { i32 (...)** }
%"class.std::__1::unique_ptr.144" = type { %"class.std::__1::__compressed_pair.145" }
%"class.std::__1::__compressed_pair.145" = type { %"struct.std::__1::__compressed_pair_elem.146" }
%"struct.std::__1::__compressed_pair_elem.146" = type { %"class.blink::AssociatedInterfaceProvider::LocalProvider"* }
%"class.blink::AssociatedInterfaceProvider::LocalProvider" = type opaque
%class.scoped_refptr.150 = type { %"class.base::SingleThreadTaskRunner"* }
%"class.base::SingleThreadTaskRunner" = type { %"class.base::SequencedTaskRunner.base", [4 x i8] }
%"class.base::SequencedTaskRunner.base" = type { %"class.base::TaskRunner.base" }
%"class.IPC::Message" = type { %"class.base::Pickle", i8, %class.scoped_refptr.152 }
%"class.base::Pickle" = type { i32 (...)**, %"struct.base::Pickle::Header"*, i64, i64, i64 }
%"struct.base::Pickle::Header" = type { i32 }
%class.scoped_refptr.152 = type { %"class.IPC::MessageAttachmentSet"* }
%"class.IPC::MessageAttachmentSet" = type opaque
%"class.blink::mojom::CaptureHandleConfig" = type opaque
%"class.content::RenderViewHost" = type opaque
%"class.content::RenderProcessHost" = type opaque
%"class.content::NavigationHandle" = type { %"class.base::SupportsUserData.base", [7 x i8] }
%class.GURL = type { %"class.std::__1::basic_string", i8, %"struct.url::Parsed", %"class.std::__1::unique_ptr.159" }
%"struct.url::Parsed" = type { %"struct.url::Component", %"struct.url::Component", %"struct.url::Component", %"struct.url::Component", %"struct.url::Component", %"struct.url::Component", %"struct.url::Component", %"struct.url::Component", i8, %"struct.url::Parsed"* }
%"struct.url::Component" = type { i32, i32 }
%"class.std::__1::unique_ptr.159" = type { %"class.std::__1::__compressed_pair.160" }
%"class.std::__1::__compressed_pair.160" = type { %"struct.std::__1::__compressed_pair_elem.161" }
%"struct.std::__1::__compressed_pair_elem.161" = type { %class.GURL* }
%"struct.content::GlobalRequestID" = type { i32, i32 }
%"class.blink::mojom::ResourceLoadInfo" = type opaque
%"struct.content::CookieAccessDetails" = type <{ i32, [4 x i8], %class.GURL, %class.GURL, %"class.std::__1::vector.165", i8, [7 x i8] }>
%"class.std::__1::vector.165" = type { %"class.std::__1::__vector_base.166" }
%"class.std::__1::__vector_base.166" = type { %"class.net::CanonicalCookie"*, %"class.net::CanonicalCookie"*, %"class.std::__1::__compressed_pair.168" }
%"class.net::CanonicalCookie" = type { %"class.std::__1::basic_string", %"class.std::__1::basic_string", %"class.std::__1::basic_string", %"class.std::__1::basic_string", %"class.base::Time", %"class.base::Time", %"class.base::Time", i8, i8, i32, i32, i8, i32, i32 }
%"class.base::Time" = type { %"class.base::time_internal::TimeBase.167" }
%"class.base::time_internal::TimeBase.167" = type { i64 }
%"class.std::__1::__compressed_pair.168" = type { %"struct.std::__1::__compressed_pair_elem.169" }
%"struct.std::__1::__compressed_pair_elem.169" = type { %"class.net::CanonicalCookie"* }
%"struct.content::LoadCommittedDetails" = type opaque
%"struct.content::PrunedDetails" = type opaque
%"struct.content::EntryChangedDetails" = type opaque
%"struct.content::Referrer" = type <{ %class.GURL, i32, [4 x i8] }>
%"class.blink::WebInputEvent" = type { i32 (...)**, float, %"class.gfx::Vector2dF", %"class.base::TimeTicks", i32, i32 }
%"class.gfx::Vector2dF" = type { float, float }
%"class.content::NavigationEntry" = type opaque
%"class.base::FilePath" = type { %"class.std::__1::basic_string" }
%"struct.blink::UserAgentOverride" = type { %"class.std::__1::basic_string", %"class.absl::optional.173" }
%"class.absl::optional.173" = type { %"class.absl::optional_internal::optional_data.174" }
%"class.absl::optional_internal::optional_data.174" = type { %"class.absl::optional_internal::optional_data_base.175" }
%"class.absl::optional_internal::optional_data_base.175" = type { %"class.absl::optional_internal::optional_data_dtor_base.176" }
%"class.absl::optional_internal::optional_data_dtor_base.176" = type { i8, [7 x i8], %union.anon.177 }
%union.anon.177 = type { %"struct.blink::UserAgentMetadata" }
%"struct.blink::UserAgentMetadata" = type <{ %"class.std::__1::vector.178", %"class.std::__1::basic_string", %"class.std::__1::basic_string", %"class.std::__1::basic_string", %"class.std::__1::basic_string", %"class.std::__1::basic_string", i8, [7 x i8] }>
%"class.std::__1::vector.178" = type { %"class.std::__1::__vector_base.179" }
%"class.std::__1::__vector_base.179" = type { %"struct.blink::UserAgentBrandVersion"*, %"struct.blink::UserAgentBrandVersion"*, %"class.std::__1::__compressed_pair.180" }
%"struct.blink::UserAgentBrandVersion" = type { %"class.std::__1::basic_string", %"class.std::__1::basic_string" }
%"class.std::__1::__compressed_pair.180" = type { %"struct.std::__1::__compressed_pair_elem.181" }
%"struct.std::__1::__compressed_pair_elem.181" = type { %"struct.blink::UserAgentBrandVersion"* }
%"class.std::__1::vector.185" = type opaque
%"struct.content::AXEventNotificationDetails" = type opaque
%"class.std::__1::vector.186" = type opaque
%"class.std::__1::basic_string.187" = type { %"class.std::__1::__compressed_pair.188" }
%"class.std::__1::__compressed_pair.188" = type { %"struct.std::__1::__compressed_pair_elem.189" }
%"struct.std::__1::__compressed_pair_elem.189" = type { %"struct.std::__1::basic_string<char16_t, std::__1::char_traits<char16_t>, std::__1::allocator<char16_t> >::__rep" }
%"struct.std::__1::basic_string<char16_t, std::__1::char_traits<char16_t>, std::__1::allocator<char16_t> >::__rep" = type { %union.anon.190 }
%union.anon.190 = type { %"struct.std::__1::basic_string<char16_t, std::__1::char_traits<char16_t>, std::__1::allocator<char16_t> >::__long" }
%"struct.std::__1::basic_string<char16_t, std::__1::char_traits<char16_t>, std::__1::allocator<char16_t> >::__long" = type { i16*, i64, i64 }
%"class.absl::optional.196" = type opaque
%"struct.content::WebContentsObserver::MediaPlayerInfo" = type { i8, i8 }
%"struct.content::MediaPlayerId" = type opaque
%"class.content::RenderWidgetHost" = type opaque
%"struct.content::FocusedNodeDetails" = type opaque
%"class.absl::optional.197" = type { %"class.absl::optional_internal::optional_data.198" }
%"class.absl::optional_internal::optional_data.198" = type { %"class.absl::optional_internal::optional_data_base.199" }
%"class.absl::optional_internal::optional_data_base.199" = type { %"class.absl::optional_internal::optional_data_dtor_base.200" }
%"class.absl::optional_internal::optional_data_dtor_base.200" = type { i8, %union.anon.201 }
%union.anon.201 = type { %class.GURL }
%"class.mojo::ScopedHandleBase" = type { %"class.mojo::MessagePipeHandle" }
%"class.mojo::MessagePipeHandle" = type { %"class.mojo::Handle" }
%"class.mojo::Handle" = type { i32 }
%"struct.std::__1::pair.202" = type opaque
%"class.mojo::StructPtr.203" = type { %"class.std::__1::unique_ptr.204" }
%"class.std::__1::unique_ptr.204" = type { %"class.std::__1::__compressed_pair.205" }
%"class.std::__1::__compressed_pair.205" = type { %"struct.std::__1::__compressed_pair_elem.206" }
%"struct.std::__1::__compressed_pair_elem.206" = type { %"class.printing::mojom::PrintParams"* }
%"class.printing::mojom::PrintParams" = type { %"class.gfx::Size", %"class.gfx::Size", %"class.gfx::Rect", i32, i32, i32, %"class.gfx::Size", double, i32, i8, i8, i32, i32, i8, i32, i8, i8, %"class.std::__1::basic_string.187", %"class.std::__1::basic_string.187", %"class.std::__1::basic_string.187", %"class.std::__1::basic_string.187", i8, i8, i32, i8, i32 }
%"class.mojo::StructPtr.224" = type { %"class.std::__1::unique_ptr.225" }
%"class.std::__1::unique_ptr.225" = type { %"class.std::__1::__compressed_pair.226" }
%"class.std::__1::__compressed_pair.226" = type { %"struct.std::__1::__compressed_pair_elem.227" }
%"struct.std::__1::__compressed_pair_elem.227" = type { %"class.printing::mojom::ScriptedPrintParams"* }
%"class.printing::mojom::ScriptedPrintParams" = type { i32, i32, i8, i8, i8, i32 }
%"class.mojo::StructPtr.210" = type { %"class.std::__1::unique_ptr.211" }
%"class.std::__1::unique_ptr.211" = type { %"class.std::__1::__compressed_pair.212" }
%"class.std::__1::__compressed_pair.212" = type { %"struct.std::__1::__compressed_pair_elem.213" }
%"struct.std::__1::__compressed_pair_elem.213" = type { %"class.printing::mojom::PrintPagesParams"* }
%"class.printing::mojom::PrintPagesParams" = type { %"class.mojo::StructPtr.203", %"class.std::__1::vector.214" }
%"class.std::__1::vector.214" = type { %"class.std::__1::__vector_base.215" }
%"class.std::__1::__vector_base.215" = type { i32*, i32*, %"class.std::__1::__compressed_pair.216" }
%"class.std::__1::__compressed_pair.216" = type { %"struct.std::__1::__compressed_pair_elem.217" }
%"struct.std::__1::__compressed_pair_elem.217" = type { i32* }
%"class.base::Value" = type { %"class.absl::variant" }
%"class.absl::variant" = type { %"class.absl::variant_internal::VariantCopyAssignBaseNontrivial" }
%"class.absl::variant_internal::VariantCopyAssignBaseNontrivial" = type { %"class.absl::variant_internal::VariantMoveAssignBaseNontrivial" }
%"class.absl::variant_internal::VariantMoveAssignBaseNontrivial" = type { %"class.absl::variant_internal::VariantCopyBaseNontrivial" }
%"class.absl::variant_internal::VariantCopyBaseNontrivial" = type { %"class.absl::variant_internal::VariantMoveBaseNontrivial" }
%"class.absl::variant_internal::VariantMoveBaseNontrivial" = type { %"class.absl::variant_internal::VariantStateBaseDestructorNontrivial" }
%"class.absl::variant_internal::VariantStateBaseDestructorNontrivial" = type { %"class.absl::variant_internal::VariantStateBase" }
%"class.absl::variant_internal::VariantStateBase" = type { %"union.absl::variant_internal::DestructibleUnionImpl", i64 }
%"union.absl::variant_internal::DestructibleUnionImpl" = type { %"union.absl::variant_internal::DestructibleUnionImpl.231" }
%"union.absl::variant_internal::DestructibleUnionImpl.231" = type { %"union.absl::variant_internal::DestructibleUnionImpl.232" }
%"union.absl::variant_internal::DestructibleUnionImpl.232" = type { %"union.absl::variant_internal::DestructibleUnionImpl.233" }
%"union.absl::variant_internal::DestructibleUnionImpl.233" = type { %"union.absl::variant_internal::DestructibleUnionImpl.234" }
%"union.absl::variant_internal::DestructibleUnionImpl.234" = type { %"class.std::__1::basic_string" }
%"class.mojo::PendingAssociatedReceiver" = type { %"class.mojo::ScopedInterfaceEndpointHandle" }
%"class.std::__1::__vector_base_common" = type { i8 }
%"class.std::__1::__tree_node.324" = type { %"class.std::__1::__tree_node_base.base", %"struct.std::__1::__value_type.325" }
%"struct.std::__1::__value_type.325" = type { %"struct.std::__1::pair.326" }
%"struct.std::__1::pair.326" = type { i64, %"class.std::__1::unique_ptr.327" }
%"class.std::__1::unique_ptr.327" = type { %"class.std::__1::__compressed_pair.328" }
%"class.std::__1::__compressed_pair.328" = type { %"struct.std::__1::__compressed_pair_elem.329" }
%"struct.std::__1::__compressed_pair_elem.329" = type { %"class.mojo::ReceiverSetState::Entry"* }
%"class.mojo::ReceiverSetState::Entry" = type { %"class.mojo::ReceiverSetState"*, i64, %"class.std::__1::unique_ptr.271" }
%"class.std::__1::unique_ptr.271" = type { %"class.std::__1::__compressed_pair.272" }
%"class.std::__1::__compressed_pair.272" = type { %"struct.std::__1::__compressed_pair_elem.273" }
%"struct.std::__1::__compressed_pair_elem.273" = type { %"class.mojo::ReceiverSetState::ReceiverState"* }
%"class.mojo::ReceiverSetState::ReceiverState" = type { i32 (...)** }
%"class.mojo::AssociatedReceiver" = type { %"class.mojo::internal::AssociatedReceiverBase", %"class.printing::mojom::PrintManagerHostStub", %"class.base::WeakPtrFactory.280" }
%"class.mojo::internal::AssociatedReceiverBase" = type { %"class.std::__1::unique_ptr.61" }
%"class.printing::mojom::PrintManagerHostStub" = type { %"class.mojo::MessageReceiverWithResponderStatus", %"class.printing::mojom::PrintManagerHost"* }
%"class.base::WeakPtrFactory.280" = type { %"class.base::internal::WeakPtrFactoryBase" }
%"class.mojo::ReceiverSetBase<mojo::AssociatedReceiver<printing::mojom::PrintManagerHost, mojo::RawPtrImplRefTraits<printing::mojom::PrintManagerHost> >, content::RenderFrameHost *>::ReceiverEntry" = type { %"class.mojo::ReceiverSetState::ReceiverState", %"class.mojo::AssociatedReceiver", %"class.content::RenderFrameHost"* }
%"class.base::TaskRunner" = type <{ i32 (...)**, %"class.base::RefCountedThreadSafe.71", [4 x i8] }>
%"class.mojo::Message" = type { %"class.mojo::ScopedHandleBase.284", %"class.mojo::internal::Buffer", %"class.std::__1::vector.285", %"class.std::__1::vector.293", %"class.mojo::ConnectionGroup::Ref"*, i8, i8, i8* }
%"class.mojo::ScopedHandleBase.284" = type { %"class.mojo::MessageHandle" }
%"class.mojo::MessageHandle" = type { i64 }
%"class.mojo::internal::Buffer" = type { %"class.mojo::MessageHandle", i64, i8*, i64, i64 }
%"class.std::__1::vector.285" = type { %"class.std::__1::__vector_base.286" }
%"class.std::__1::__vector_base.286" = type { %"class.mojo::ScopedHandleBase.287"*, %"class.mojo::ScopedHandleBase.287"*, %"class.std::__1::__compressed_pair.288" }
%"class.mojo::ScopedHandleBase.287" = type { %"class.mojo::Handle" }
%"class.std::__1::__compressed_pair.288" = type { %"struct.std::__1::__compressed_pair_elem.289" }
%"struct.std::__1::__compressed_pair_elem.289" = type { %"class.mojo::ScopedHandleBase.287"* }
%"class.std::__1::vector.293" = type { %"class.std::__1::__vector_base.294" }
%"class.std::__1::__vector_base.294" = type { %"class.mojo::ScopedInterfaceEndpointHandle"*, %"class.mojo::ScopedInterfaceEndpointHandle"*, %"class.std::__1::__compressed_pair.295" }
%"class.std::__1::__compressed_pair.295" = type { %"struct.std::__1::__compressed_pair_elem.296" }
%"struct.std::__1::__compressed_pair_elem.296" = type { %"class.mojo::ScopedInterfaceEndpointHandle"* }
%"class.mojo::MessageReceiverWithStatus" = type { %"class.mojo::MessageReceiver" }
%"class.mojo::PendingAssociatedRemote" = type <{ %"class.mojo::ScopedInterfaceEndpointHandle", i32, [4 x i8] }>
%"class.mojo::AssociatedInterfacePtrInfo" = type <{ %"class.mojo::ScopedInterfaceEndpointHandle", i32, [4 x i8] }>

$_ZN7content27WebContentsFrameReceiverSetIN8printing5mojom16PrintManagerHostEEC2EPNS_11WebContentsEPS3_ = comdat any

$_ZN3IPC8Listener18OnChannelConnectedEi = comdat any

$_ZN3IPC8Listener14OnChannelErrorEv = comdat any

$_ZN3IPC8Listener20OnBadMessageReceivedERKNS_7MessageE = comdat any

$_ZN3IPC8Listener28OnAssociatedInterfaceRequestERKNSt3__112basic_stringIcNS1_11char_traitsIcEENS1_9allocatorIcEEEEN4mojo29ScopedInterfaceEndpointHandleE = comdat any

$_ZN3IPC8Listener15OnChannelDeniedEv = comdat any

$_ZN3IPC8Listener20OnChannelListenErrorEv = comdat any

$_ZN7content19WebContentsObserver18RenderFrameCreatedEPNS_15RenderFrameHostE = comdat any

$_ZN7content19WebContentsObserver22RenderFrameHostChangedEPNS_15RenderFrameHostES2_ = comdat any

$_ZN7content19WebContentsObserver12FrameDeletedEi = comdat any

$_ZN7content19WebContentsObserver27RenderFrameHostStateChangedEPNS_15RenderFrameHostENS1_14LifecycleStateES3_ = comdat any

$_ZN7content19WebContentsObserver20CaptureTargetChangedEv = comdat any

$_ZN7content19WebContentsObserver27OnCaptureHandleConfigUpdateERKN5blink5mojom19CaptureHandleConfigE = comdat any

$_ZN7content19WebContentsObserver15RenderViewReadyEv = comdat any

$_ZN7content19WebContentsObserver17RenderViewDeletedEPNS_14RenderViewHostE = comdat any

$_ZN7content19WebContentsObserver17RenderProcessGoneEN4base17TerminationStatusE = comdat any

$_ZN7content19WebContentsObserver21RenderViewHostChangedEPNS_14RenderViewHostES2_ = comdat any

$_ZN7content19WebContentsObserver22OnRendererUnresponsiveEPNS_17RenderProcessHostE = comdat any

$_ZN7content19WebContentsObserver20OnRendererResponsiveEPNS_17RenderProcessHostE = comdat any

$_ZN7content19WebContentsObserver18DidStartNavigationEPNS_16NavigationHandleE = comdat any

$_ZN7content19WebContentsObserver21DidRedirectNavigationEPNS_16NavigationHandleE = comdat any

$_ZN7content19WebContentsObserver23ReadyToCommitNavigationEPNS_16NavigationHandleE = comdat any

$_ZN7content19WebContentsObserver19DidFinishNavigationEPNS_16NavigationHandleE = comdat any

$_ZN7content19WebContentsObserver17DidActivatePortalEPNS_11WebContentsEN4base9TimeTicksE = comdat any

$_ZN7content19WebContentsObserver15DidStartLoadingEv = comdat any

$_ZN7content19WebContentsObserver18DidReceiveResponseEv = comdat any

$_ZN7content19WebContentsObserver14DidStopLoadingEv = comdat any

$_ZN7content19WebContentsObserver19LoadProgressChangedEd = comdat any

$_ZN7content19WebContentsObserver28DocumentAvailableInMainFrameEPNS_15RenderFrameHostE = comdat any

$_ZN7content19WebContentsObserver34DocumentOnLoadCompletedInMainFrameEPNS_15RenderFrameHostE = comdat any

$_ZN7content19WebContentsObserver16DOMContentLoadedEPNS_15RenderFrameHostE = comdat any

$_ZN7content19WebContentsObserver13DidFinishLoadEPNS_15RenderFrameHostERK4GURL = comdat any

$_ZN7content19WebContentsObserver11DidFailLoadEPNS_15RenderFrameHostERK4GURLi = comdat any

$_ZN7content19WebContentsObserver29DidChangeVisibleSecurityStateEv = comdat any

$_ZN7content19WebContentsObserver30DidLoadResourceFromMemoryCacheEPNS_15RenderFrameHostERK4GURLRKNSt3__112basic_stringIcNS6_11char_traitsIcEENS6_9allocatorIcEEEEN7network5mojom18RequestDestinationE = comdat any

$_ZN7content19WebContentsObserver20ResourceLoadCompleteEPNS_15RenderFrameHostERKNS_15GlobalRequestIDERKN5blink5mojom16ResourceLoadInfoE = comdat any

$_ZN7content19WebContentsObserver17OnCookiesAccessedEPNS_15RenderFrameHostERKNS_19CookieAccessDetailsE = comdat any

$_ZN7content19WebContentsObserver17OnCookiesAccessedEPNS_16NavigationHandleERKNS_19CookieAccessDetailsE = comdat any

$_ZN7content19WebContentsObserver24NavigationEntryCommittedERKNS_20LoadCommittedDetailsE = comdat any

$_ZN7content19WebContentsObserver20NavigationListPrunedERKNS_13PrunedDetailsE = comdat any

$_ZN7content19WebContentsObserver24NavigationEntriesDeletedEv = comdat any

$_ZN7content19WebContentsObserver22NavigationEntryChangedERKNS_19EntryChangedDetailsE = comdat any

$_ZN7content19WebContentsObserver19DidOpenRequestedURLEPNS_11WebContentsEPNS_15RenderFrameHostERK4GURLRKNS_8ReferrerE21WindowOpenDispositionN2ui14PageTransitionEbb = comdat any

$_ZN7content19WebContentsObserver29DidFirstVisuallyNonEmptyPaintEv = comdat any

$_ZN7content19WebContentsObserver17NavigationStoppedEv = comdat any

$_ZN7content19WebContentsObserver21DidGetUserInteractionERKN5blink13WebInputEventE = comdat any

$_ZN7content19WebContentsObserver20DidGetIgnoredUIEventEv = comdat any

$_ZN7content19WebContentsObserver19OnVisibilityChangedENS_10VisibilityE = comdat any

$_ZN7content19WebContentsObserver19MainFrameWasResizedEb = comdat any

$_ZN7content19WebContentsObserver16FrameNameChangedEPNS_15RenderFrameHostERKNSt3__112basic_stringIcNS3_11char_traitsIcEENS3_9allocatorIcEEEE = comdat any

$_ZN7content19WebContentsObserver27FrameReceivedUserActivationEPNS_15RenderFrameHostE = comdat any

$_ZN7content19WebContentsObserver24FrameDisplayStateChangedEPNS_15RenderFrameHostEb = comdat any

$_ZN7content19WebContentsObserver16FrameSizeChangedEPNS_15RenderFrameHostERKN3gfx4SizeE = comdat any

$_ZN7content19WebContentsObserver11TitleWasSetEPNS_15NavigationEntryE = comdat any

$_ZN7content19WebContentsObserver16AppCacheAccessedERK4GURLb = comdat any

$_ZN7content19WebContentsObserver21PepperInstanceCreatedEv = comdat any

$_ZN7content19WebContentsObserver21PepperInstanceDeletedEv = comdat any

$_ZN7content19WebContentsObserver18ViewportFitChangedEN5blink5mojom11ViewportFitE = comdat any

$_ZN7content19WebContentsObserver13PluginCrashedERKN4base8FilePathEi = comdat any

$_ZN7content19WebContentsObserver23PluginHungStatusChangedEiRKN4base8FilePathEb = comdat any

$_ZN7content19WebContentsObserver23InnerWebContentsCreatedEPNS_11WebContentsE = comdat any

$_ZN7content19WebContentsObserver24InnerWebContentsAttachedEPNS_11WebContentsEPNS_15RenderFrameHostEb = comdat any

$_ZN7content19WebContentsObserver24InnerWebContentsDetachedEPNS_11WebContentsE = comdat any

$_ZN7content19WebContentsObserver24DidCloneToNewWebContentsEPNS_11WebContentsES2_ = comdat any

$_ZN7content19WebContentsObserver20WebContentsDestroyedEv = comdat any

$_ZN7content19WebContentsObserver20UserAgentOverrideSetERKN5blink17UserAgentOverrideE = comdat any

$_ZN7content19WebContentsObserver19DidUpdateFaviconURLEPNS_15RenderFrameHostERKNSt3__16vectorIN4mojo9StructPtrIN5blink5mojom10FaviconURLEEENS3_9allocatorISA_EEEE = comdat any

$_ZN7content19WebContentsObserver19OnAudioStateChangedEb = comdat any

$_ZN7content19WebContentsObserver24OnFrameAudioStateChangedEPNS_15RenderFrameHostEb = comdat any

$_ZN7content19WebContentsObserver37OnIsConnectedToBluetoothDeviceChangedEb = comdat any

$_ZN7content19WebContentsObserver25DidUpdateAudioMutingStateEb = comdat any

$_ZN7content19WebContentsObserver29DidToggleFullscreenModeForTabEbb = comdat any

$_ZN7content19WebContentsObserver20DidAcquireFullscreenEPNS_15RenderFrameHostE = comdat any

$_ZN7content19WebContentsObserver32DidChangeVerticalScrollDirectionEN3viz23VerticalScrollDirectionE = comdat any

$_ZN7content19WebContentsObserver27BeforeFormRepostWarningShowEv = comdat any

$_ZN7content19WebContentsObserver17BeforeUnloadFiredEbRKN4base9TimeTicksE = comdat any

$_ZN7content19WebContentsObserver27BeforeUnloadDialogCancelledEv = comdat any

$_ZN7content19WebContentsObserver30AXTreeIDForMainFrameHasChangedEv = comdat any

$_ZN7content19WebContentsObserver26AccessibilityEventReceivedERKNS_26AXEventNotificationDetailsE = comdat any

$_ZN7content19WebContentsObserver36AccessibilityLocationChangesReceivedERKNSt3__16vectorINS_35AXLocationChangeNotificationDetailsENS1_9allocatorIS3_EEEE = comdat any

$_ZN7content19WebContentsObserver19DidChangeThemeColorEv = comdat any

$_ZN7content19WebContentsObserver24OnBackgroundColorChangedEv = comdat any

$_ZN7content19WebContentsObserver24OnDidAddMessageToConsoleEPNS_15RenderFrameHostEN5blink5mojom19ConsoleMessageLevelERKNSt3__112basic_stringIDsNS6_11char_traitsIDsEENS6_9allocatorIDsEEEEiSE_RKN4absl8optionalISC_EE = comdat any

$_ZN7content19WebContentsObserver19MediaStartedPlayingERKNS0_15MediaPlayerInfoERKNS_13MediaPlayerIdE = comdat any

$_ZN7content19WebContentsObserver19MediaStoppedPlayingERKNS0_15MediaPlayerInfoERKNS_13MediaPlayerIdENS0_18MediaStoppedReasonE = comdat any

$_ZN7content19WebContentsObserver12MediaResizedERKN3gfx4SizeERKNS_13MediaPlayerIdE = comdat any

$_ZN7content19WebContentsObserver33MediaEffectivelyFullscreenChangedEb = comdat any

$_ZN7content19WebContentsObserver28MediaPictureInPictureChangedEb = comdat any

$_ZN7content19WebContentsObserver23MediaMutedStatusChangedERKNS_13MediaPlayerIdEb = comdat any

$_ZN7content19WebContentsObserver20MediaBufferUnderflowERKNS_13MediaPlayerIdE = comdat any

$_ZN7content19WebContentsObserver15MediaPlayerSeekERKNS_13MediaPlayerIdE = comdat any

$_ZN7content19WebContentsObserver14MediaDestroyedERKNS_13MediaPlayerIdE = comdat any

$_ZN7content19WebContentsObserver24OnPageScaleFactorChangedEf = comdat any

$_ZN7content19WebContentsObserver7OnPasteEv = comdat any

$_ZN7content19WebContentsObserver20OnWebContentsFocusedEPNS_16RenderWidgetHostE = comdat any

$_ZN7content19WebContentsObserver22OnWebContentsLostFocusEPNS_16RenderWidgetHostE = comdat any

$_ZN7content19WebContentsObserver20OnFocusChangedInPageEPNS_18FocusedNodeDetailsE = comdat any

$_ZN7content19WebContentsObserver23DidUpdateWebManifestURLEPNS_15RenderFrameHostERKN4absl8optionalI4GURLEE = comdat any

$_ZN7content19WebContentsObserver27OnInterfaceRequestFromFrameEPNS_15RenderFrameHostERKNSt3__112basic_stringIcNS3_11char_traitsIcEENS3_9allocatorIcEEEEPN4mojo16ScopedHandleBaseINSC_17MessagePipeHandleEEE = comdat any

$_ZN7content19WebContentsObserver27AudioContextPlaybackStartedERKNSt3__14pairIPNS_15RenderFrameHostEiEE = comdat any

$_ZN7content19WebContentsObserver27AudioContextPlaybackStoppedERKNSt3__14pairIPNS_15RenderFrameHostEiEE = comdat any

$_ZN7content19WebContentsObserver23OnServiceWorkerAccessedEPNS_15RenderFrameHostERK4GURLNS_24AllowServiceWorkerResultE = comdat any

$_ZN7content19WebContentsObserver23OnServiceWorkerAccessedEPNS_16NavigationHandleERK4GURLNS_24AllowServiceWorkerResultE = comdat any

$_ZN7content27WebContentsFrameReceiverSetIN8printing5mojom16PrintManagerHostEE20FrameInterfaceBinderD2Ev = comdat any

$_ZThn8_N7content27WebContentsFrameReceiverSetIN8printing5mojom16PrintManagerHostEE20FrameInterfaceBinderD1Ev = comdat any

$_ZN7content27WebContentsFrameReceiverSetIN8printing5mojom16PrintManagerHostEE20FrameInterfaceBinderD0Ev = comdat any

$_ZN7content27WebContentsFrameReceiverSetIN8printing5mojom16PrintManagerHostEE20FrameInterfaceBinder18OnReceiverForFrameEPNS_15RenderFrameHostEN4mojo29ScopedInterfaceEndpointHandleE = comdat any

$_ZN7content27WebContentsFrameReceiverSetIN8printing5mojom16PrintManagerHostEE20FrameInterfaceBinder17CloseAllReceiversEv = comdat any

$_ZN7content27WebContentsFrameReceiverSetIN8printing5mojom16PrintManagerHostEE20FrameInterfaceBinder18RenderFrameDeletedEPNS_15RenderFrameHostE = comdat any

$_ZThn8_N7content27WebContentsFrameReceiverSetIN8printing5mojom16PrintManagerHostEE20FrameInterfaceBinderD0Ev = comdat any

$_ZThn8_N7content27WebContentsFrameReceiverSetIN8printing5mojom16PrintManagerHostEE20FrameInterfaceBinder18RenderFrameDeletedEPNS_15RenderFrameHostE = comdat any

$_ZNSt3__16__treeINS_12__value_typeIPN7content15RenderFrameHostENS_6vectorImNS_9allocatorImEEEEEENS_19__map_value_compareIS4_S9_NS_4lessIS4_EELb1EEENS6_IS9_EEE7destroyEPNS_11__tree_nodeIS9_PvEE = comdat any

$_ZN4mojo15ReceiverSetBaseINS_18AssociatedReceiverIN8printing5mojom16PrintManagerHostENS_19RawPtrImplRefTraitsIS4_EEEEPN7content15RenderFrameHostEE7AddImplEPS4_NS_25PendingAssociatedReceiverIS4_EESA_13scoped_refptrIN4base19SequencedTaskRunnerEE = comdat any

$_ZN4mojo15ReceiverSetBaseINS_18AssociatedReceiverIN8printing5mojom16PrintManagerHostENS_19RawPtrImplRefTraitsIS4_EEEEPN7content15RenderFrameHostEE13ReceiverEntryD2Ev = comdat any

$_ZN4mojo15ReceiverSetBaseINS_18AssociatedReceiverIN8printing5mojom16PrintManagerHostENS_19RawPtrImplRefTraitsIS4_EEEEPN7content15RenderFrameHostEE13ReceiverEntryD0Ev = comdat any

$_ZNK4mojo15ReceiverSetBaseINS_18AssociatedReceiverIN8printing5mojom16PrintManagerHostENS_19RawPtrImplRefTraitsIS4_EEEEPN7content15RenderFrameHostEE13ReceiverEntry10GetContextEv = comdat any

$_ZN4mojo15ReceiverSetBaseINS_18AssociatedReceiverIN8printing5mojom16PrintManagerHostENS_19RawPtrImplRefTraitsIS4_EEEEPN7content15RenderFrameHostEE13ReceiverEntry20InstallDispatchHooksENSt3__110unique_ptrINS_13MessageFilterENSD_14default_deleteISF_EEEEN4base17RepeatingCallbackIFvjRKNSD_12basic_stringIcNSD_11char_traitsIcEENSD_9allocatorIcEEEEEEE = comdat any

$_ZN4mojo15ReceiverSetBaseINS_18AssociatedReceiverIN8printing5mojom16PrintManagerHostENS_19RawPtrImplRefTraitsIS4_EEEEPN7content15RenderFrameHostEE13ReceiverEntry15FlushForTestingEv = comdat any

$_ZN4mojo18AssociatedReceiverIN8printing5mojom16PrintManagerHostENS_19RawPtrImplRefTraitsIS3_EEE4BindENS_25PendingAssociatedReceiverIS3_EE13scoped_refptrIN4base19SequencedTaskRunnerEE = comdat any

$_ZN4mojo15MessageReceiverD2Ev = comdat any

$_ZN8printing5mojom20PrintManagerHostStubIN4mojo19RawPtrImplRefTraitsINS0_16PrintManagerHostEEEED0Ev = comdat any

$_ZN8printing5mojom20PrintManagerHostStubIN4mojo19RawPtrImplRefTraitsINS0_16PrintManagerHostEEEE6AcceptEPNS2_7MessageE = comdat any

$_ZN8printing5mojom20PrintManagerHostStubIN4mojo19RawPtrImplRefTraitsINS0_16PrintManagerHostEEEE19AcceptWithResponderEPNS2_7MessageENSt3__110unique_ptrINS2_25MessageReceiverWithStatusENS9_14default_deleteISB_EEEE = comdat any

$_ZNSt3__127__tree_balance_after_insertIPNS_16__tree_node_baseIPvEEEEvT_S5_ = comdat any

$_ZNSt3__16__treeINS_12__value_typeImNS_10unique_ptrIN4mojo16ReceiverSetState5EntryENS_14default_deleteIS5_EEEEEENS_19__map_value_compareImS9_NS_4lessImEELb1EEENS_9allocatorIS9_EEE7destroyEPNS_11__tree_nodeIS9_PvEE = comdat any

$_ZNSt3__113__tree_removeIPNS_16__tree_node_baseIPvEEEEvT_S5_ = comdat any

$_ZNSt3__16__treeINS_12__value_typeIPN7content15RenderFrameHostEN4mojo16AssociatedRemoteIN8printing5mojom16PrintRenderFrameEEEEENS_19__map_value_compareIS4_SB_NS_4lessIS4_EELb1EEENS_9allocatorISB_EEE7destroyEPNS_11__tree_nodeISB_PvEE = comdat any

$_ZNSt3__16__treeINS_12__value_typeIPN7content15RenderFrameHostEN4mojo16AssociatedRemoteIN8printing5mojom16PrintRenderFrameEEEEENS_19__map_value_compareIS4_SB_NS_4lessIS4_EELb1EEENS_9allocatorISB_EEE5eraseENS_21__tree_const_iteratorISB_PNS_11__tree_nodeISB_PvEElEE = comdat any

$_ZN5blink27AssociatedInterfaceProvider12GetInterfaceIN8printing5mojom16PrintRenderFrameEEEvN4mojo25PendingAssociatedReceiverIT_EE = comdat any

$_ZN4mojo16AssociatedRemoteIN8printing5mojom16PrintRenderFrameEE30BindNewEndpointAndPassReceiverE13scoped_refptrIN4base19SequencedTaskRunnerEE = comdat any

$_ZN4mojo16AssociatedRemoteIN8printing5mojom16PrintRenderFrameEE4BindENS_23PendingAssociatedRemoteIS3_EE13scoped_refptrIN4base19SequencedTaskRunnerEE = comdat any

$_ZN4mojo8internal27AssociatedInterfacePtrStateIN8printing5mojom16PrintRenderFrameEE4BindENS_26AssociatedInterfacePtrInfoIS4_EE13scoped_refptrIN4base19SequencedTaskRunnerEE = comdat any

$_ZNSt3__16__treeINS_12__value_typeIPN7content15RenderFrameHostEN4mojo16AssociatedRemoteIN8printing5mojom16PrintRenderFrameEEEEENS_19__map_value_compareIS4_SB_NS_4lessIS4_EELb1EEENS_9allocatorISB_EEE25__emplace_unique_key_argsIS4_JNS_4pairIKS4_SA_EEEEENSK_INS_15__tree_iteratorISB_PNS_11__tree_nodeISB_PvEElEEbEERKT_DpOT0_ = comdat any

$_ZTVN7content27WebContentsFrameReceiverSetIN8printing5mojom16PrintManagerHostEE20FrameInterfaceBinderE = comdat any

$_ZTVN4mojo15ReceiverSetBaseINS_18AssociatedReceiverIN8printing5mojom16PrintManagerHostENS_19RawPtrImplRefTraitsIS4_EEEEPN7content15RenderFrameHostEE13ReceiverEntryE = comdat any

$_ZTVN8printing5mojom20PrintManagerHostStubIN4mojo19RawPtrImplRefTraitsINS0_16PrintManagerHostEEEEE = comdat any

@_ZTVN8printing12PrintManagerE = hidden unnamed_addr constant { [114 x i8*], [23 x i8*] } { [114 x i8*] [i8* null, i8* null, i8* bitcast (i1 (%"class.content::WebContentsObserver"*, %"class.IPC::Message"*)* @_ZN7content19WebContentsObserver17OnMessageReceivedERKN3IPC7MessageE to i8*), i8* bitcast (void (%"class.IPC::Listener"*, i32)* @_ZN3IPC8Listener18OnChannelConnectedEi to i8*), i8* bitcast (void (%"class.IPC::Listener"*)* @_ZN3IPC8Listener14OnChannelErrorEv to i8*), i8* bitcast (void (%"class.IPC::Listener"*, %"class.IPC::Message"*)* @_ZN3IPC8Listener20OnBadMessageReceivedERKNS_7MessageE to i8*), i8* bitcast (void (%"class.IPC::Listener"*, %"class.std::__1::basic_string"*, %"class.mojo::ScopedInterfaceEndpointHandle"*)* @_ZN3IPC8Listener28OnAssociatedInterfaceRequestERKNSt3__112basic_stringIcNS1_11char_traitsIcEENS1_9allocatorIcEEEEN4mojo29ScopedInterfaceEndpointHandleE to i8*), i8* bitcast (void (%"class.IPC::Listener"*)* @_ZN3IPC8Listener15OnChannelDeniedEv to i8*), i8* bitcast (void (%"class.IPC::Listener"*)* @_ZN3IPC8Listener20OnChannelListenErrorEv to i8*), i8* bitcast (void (%"class.printing::PrintManager"*)* @_ZN8printing12PrintManagerD2Ev to i8*), i8* bitcast (void (%"class.printing::PrintManager"*)* @_ZN8printing12PrintManagerD0Ev to i8*), i8* bitcast (void (%"class.content::WebContentsObserver"*, %"class.content::RenderFrameHost"*)* @_ZN7content19WebContentsObserver18RenderFrameCreatedEPNS_15RenderFrameHostE to i8*), i8* bitcast (void (%"class.printing::PrintManager"*, %"class.content::RenderFrameHost"*)* @_ZN8printing12PrintManager18RenderFrameDeletedEPN7content15RenderFrameHostE to i8*), i8* bitcast (void (%"class.content::WebContentsObserver"*, %"class.content::RenderFrameHost"*, %"class.content::RenderFrameHost"*)* @_ZN7content19WebContentsObserver22RenderFrameHostChangedEPNS_15RenderFrameHostES2_ to i8*), i8* bitcast (void (%"class.content::WebContentsObserver"*, i32)* @_ZN7content19WebContentsObserver12FrameDeletedEi to i8*), i8* bitcast (void (%"class.content::WebContentsObserver"*, %"class.content::RenderFrameHost"*, i32, i32)* @_ZN7content19WebContentsObserver27RenderFrameHostStateChangedEPNS_15RenderFrameHostENS1_14LifecycleStateES3_ to i8*), i8* bitcast (void (%"class.content::WebContentsObserver"*)* @_ZN7content19WebContentsObserver20CaptureTargetChangedEv to i8*), i8* bitcast (void (%"class.content::WebContentsObserver"*, %"class.blink::mojom::CaptureHandleConfig"*)* @_ZN7content19WebContentsObserver27OnCaptureHandleConfigUpdateERKN5blink5mojom19CaptureHandleConfigE to i8*), i8* bitcast (void (%"class.content::WebContentsObserver"*)* @_ZN7content19WebContentsObserver15RenderViewReadyEv to i8*), i8* bitcast (void (%"class.content::WebContentsObserver"*, %"class.content::RenderViewHost"*)* @_ZN7content19WebContentsObserver17RenderViewDeletedEPNS_14RenderViewHostE to i8*), i8* bitcast (void (%"class.content::WebContentsObserver"*, i32)* @_ZN7content19WebContentsObserver17RenderProcessGoneEN4base17TerminationStatusE to i8*), i8* bitcast (void (%"class.content::WebContentsObserver"*, %"class.content::RenderViewHost"*, %"class.content::RenderViewHost"*)* @_ZN7content19WebContentsObserver21RenderViewHostChangedEPNS_14RenderViewHostES2_ to i8*), i8* bitcast (void (%"class.content::WebContentsObserver"*, %"class.content::RenderProcessHost"*)* @_ZN7content19WebContentsObserver22OnRendererUnresponsiveEPNS_17RenderProcessHostE to i8*), i8* bitcast (void (%"class.content::WebContentsObserver"*, %"class.content::RenderProcessHost"*)* @_ZN7content19WebContentsObserver20OnRendererResponsiveEPNS_17RenderProcessHostE to i8*), i8* bitcast (void (%"class.content::WebContentsObserver"*, %"class.content::NavigationHandle"*)* @_ZN7content19WebContentsObserver18DidStartNavigationEPNS_16NavigationHandleE to i8*), i8* bitcast (void (%"class.content::WebContentsObserver"*, %"class.content::NavigationHandle"*)* @_ZN7content19WebContentsObserver21DidRedirectNavigationEPNS_16NavigationHandleE to i8*), i8* bitcast (void (%"class.content::WebContentsObserver"*, %"class.content::NavigationHandle"*)* @_ZN7content19WebContentsObserver23ReadyToCommitNavigationEPNS_16NavigationHandleE to i8*), i8* bitcast (void (%"class.content::WebContentsObserver"*, %"class.content::NavigationHandle"*)* @_ZN7content19WebContentsObserver19DidFinishNavigationEPNS_16NavigationHandleE to i8*), i8* bitcast (void (%"class.content::WebContentsObserver"*, %"class.content::WebContents"*, i64)* @_ZN7content19WebContentsObserver17DidActivatePortalEPNS_11WebContentsEN4base9TimeTicksE to i8*), i8* bitcast (void (%"class.content::WebContentsObserver"*)* @_ZN7content19WebContentsObserver15DidStartLoadingEv to i8*), i8* bitcast (void (%"class.content::WebContentsObserver"*)* @_ZN7content19WebContentsObserver18DidReceiveResponseEv to i8*), i8* bitcast (void (%"class.content::WebContentsObserver"*)* @_ZN7content19WebContentsObserver14DidStopLoadingEv to i8*), i8* bitcast (void (%"class.content::WebContentsObserver"*, double)* @_ZN7content19WebContentsObserver19LoadProgressChangedEd to i8*), i8* bitcast (void (%"class.content::WebContentsObserver"*, %"class.content::RenderFrameHost"*)* @_ZN7content19WebContentsObserver28DocumentAvailableInMainFrameEPNS_15RenderFrameHostE to i8*), i8* bitcast (void (%"class.content::WebContentsObserver"*, %"class.content::RenderFrameHost"*)* @_ZN7content19WebContentsObserver34DocumentOnLoadCompletedInMainFrameEPNS_15RenderFrameHostE to i8*), i8* bitcast (void (%"class.content::WebContentsObserver"*, %"class.content::RenderFrameHost"*)* @_ZN7content19WebContentsObserver16DOMContentLoadedEPNS_15RenderFrameHostE to i8*), i8* bitcast (void (%"class.content::WebContentsObserver"*, %"class.content::RenderFrameHost"*, %class.GURL*)* @_ZN7content19WebContentsObserver13DidFinishLoadEPNS_15RenderFrameHostERK4GURL to i8*), i8* bitcast (void (%"class.content::WebContentsObserver"*, %"class.content::RenderFrameHost"*, %class.GURL*, i32)* @_ZN7content19WebContentsObserver11DidFailLoadEPNS_15RenderFrameHostERK4GURLi to i8*), i8* bitcast (void (%"class.content::WebContentsObserver"*)* @_ZN7content19WebContentsObserver29DidChangeVisibleSecurityStateEv to i8*), i8* bitcast (void (%"class.content::WebContentsObserver"*, %"class.content::RenderFrameHost"*, %class.GURL*, %"class.std::__1::basic_string"*, i32)* @_ZN7content19WebContentsObserver30DidLoadResourceFromMemoryCacheEPNS_15RenderFrameHostERK4GURLRKNSt3__112basic_stringIcNS6_11char_traitsIcEENS6_9allocatorIcEEEEN7network5mojom18RequestDestinationE to i8*), i8* bitcast (void (%"class.content::WebContentsObserver"*, %"class.content::RenderFrameHost"*, %"struct.content::GlobalRequestID"*, %"class.blink::mojom::ResourceLoadInfo"*)* @_ZN7content19WebContentsObserver20ResourceLoadCompleteEPNS_15RenderFrameHostERKNS_15GlobalRequestIDERKN5blink5mojom16ResourceLoadInfoE to i8*), i8* bitcast (void (%"class.content::WebContentsObserver"*, %"class.content::RenderFrameHost"*, %"struct.content::CookieAccessDetails"*)* @_ZN7content19WebContentsObserver17OnCookiesAccessedEPNS_15RenderFrameHostERKNS_19CookieAccessDetailsE to i8*), i8* bitcast (void (%"class.content::WebContentsObserver"*, %"class.content::NavigationHandle"*, %"struct.content::CookieAccessDetails"*)* @_ZN7content19WebContentsObserver17OnCookiesAccessedEPNS_16NavigationHandleERKNS_19CookieAccessDetailsE to i8*), i8* bitcast (void (%"class.content::WebContentsObserver"*, %"struct.content::LoadCommittedDetails"*)* @_ZN7content19WebContentsObserver24NavigationEntryCommittedERKNS_20LoadCommittedDetailsE to i8*), i8* bitcast (void (%"class.content::WebContentsObserver"*, %"struct.content::PrunedDetails"*)* @_ZN7content19WebContentsObserver20NavigationListPrunedERKNS_13PrunedDetailsE to i8*), i8* bitcast (void (%"class.content::WebContentsObserver"*)* @_ZN7content19WebContentsObserver24NavigationEntriesDeletedEv to i8*), i8* bitcast (void (%"class.content::WebContentsObserver"*, %"struct.content::EntryChangedDetails"*)* @_ZN7content19WebContentsObserver22NavigationEntryChangedERKNS_19EntryChangedDetailsE to i8*), i8* bitcast (void (%"class.content::WebContentsObserver"*, %"class.content::WebContents"*, %"class.content::RenderFrameHost"*, %class.GURL*, %"struct.content::Referrer"*, i32, i32, i1, i1)* @_ZN7content19WebContentsObserver19DidOpenRequestedURLEPNS_11WebContentsEPNS_15RenderFrameHostERK4GURLRKNS_8ReferrerE21WindowOpenDispositionN2ui14PageTransitionEbb to i8*), i8* bitcast (void (%"class.content::WebContentsObserver"*)* @_ZN7content19WebContentsObserver29DidFirstVisuallyNonEmptyPaintEv to i8*), i8* bitcast (void (%"class.content::WebContentsObserver"*)* @_ZN7content19WebContentsObserver17NavigationStoppedEv to i8*), i8* bitcast (void (%"class.content::WebContentsObserver"*, %"class.blink::WebInputEvent"*)* @_ZN7content19WebContentsObserver21DidGetUserInteractionERKN5blink13WebInputEventE to i8*), i8* bitcast (void (%"class.content::WebContentsObserver"*)* @_ZN7content19WebContentsObserver20DidGetIgnoredUIEventEv to i8*), i8* bitcast (void (%"class.content::WebContentsObserver"*, i32)* @_ZN7content19WebContentsObserver19OnVisibilityChangedENS_10VisibilityE to i8*), i8* bitcast (void (%"class.content::WebContentsObserver"*, i1)* @_ZN7content19WebContentsObserver19MainFrameWasResizedEb to i8*), i8* bitcast (void (%"class.content::WebContentsObserver"*, %"class.content::RenderFrameHost"*, %"class.std::__1::basic_string"*)* @_ZN7content19WebContentsObserver16FrameNameChangedEPNS_15RenderFrameHostERKNSt3__112basic_stringIcNS3_11char_traitsIcEENS3_9allocatorIcEEEE to i8*), i8* bitcast (void (%"class.content::WebContentsObserver"*, %"class.content::RenderFrameHost"*)* @_ZN7content19WebContentsObserver27FrameReceivedUserActivationEPNS_15RenderFrameHostE to i8*), i8* bitcast (void (%"class.content::WebContentsObserver"*, %"class.content::RenderFrameHost"*, i1)* @_ZN7content19WebContentsObserver24FrameDisplayStateChangedEPNS_15RenderFrameHostEb to i8*), i8* bitcast (void (%"class.content::WebContentsObserver"*, %"class.content::RenderFrameHost"*, %"class.gfx::Size"*)* @_ZN7content19WebContentsObserver16FrameSizeChangedEPNS_15RenderFrameHostERKN3gfx4SizeE to i8*), i8* bitcast (void (%"class.content::WebContentsObserver"*, %"class.content::NavigationEntry"*)* @_ZN7content19WebContentsObserver11TitleWasSetEPNS_15NavigationEntryE to i8*), i8* bitcast (void (%"class.content::WebContentsObserver"*, %class.GURL*, i1)* @_ZN7content19WebContentsObserver16AppCacheAccessedERK4GURLb to i8*), i8* bitcast (void (%"class.content::WebContentsObserver"*)* @_ZN7content19WebContentsObserver21PepperInstanceCreatedEv to i8*), i8* bitcast (void (%"class.content::WebContentsObserver"*)* @_ZN7content19WebContentsObserver21PepperInstanceDeletedEv to i8*), i8* bitcast (void (%"class.content::WebContentsObserver"*, i32)* @_ZN7content19WebContentsObserver18ViewportFitChangedEN5blink5mojom11ViewportFitE to i8*), i8* bitcast (void (%"class.content::WebContentsObserver"*, %"class.base::FilePath"*, i32)* @_ZN7content19WebContentsObserver13PluginCrashedERKN4base8FilePathEi to i8*), i8* bitcast (void (%"class.content::WebContentsObserver"*, i32, %"class.base::FilePath"*, i1)* @_ZN7content19WebContentsObserver23PluginHungStatusChangedEiRKN4base8FilePathEb to i8*), i8* bitcast (void (%"class.content::WebContentsObserver"*, %"class.content::WebContents"*)* @_ZN7content19WebContentsObserver23InnerWebContentsCreatedEPNS_11WebContentsE to i8*), i8* bitcast (void (%"class.content::WebContentsObserver"*, %"class.content::WebContents"*, %"class.content::RenderFrameHost"*, i1)* @_ZN7content19WebContentsObserver24InnerWebContentsAttachedEPNS_11WebContentsEPNS_15RenderFrameHostEb to i8*), i8* bitcast (void (%"class.content::WebContentsObserver"*, %"class.content::WebContents"*)* @_ZN7content19WebContentsObserver24InnerWebContentsDetachedEPNS_11WebContentsE to i8*), i8* bitcast (void (%"class.content::WebContentsObserver"*, %"class.content::WebContents"*, %"class.content::WebContents"*)* @_ZN7content19WebContentsObserver24DidCloneToNewWebContentsEPNS_11WebContentsES2_ to i8*), i8* bitcast (void (%"class.content::WebContentsObserver"*)* @_ZN7content19WebContentsObserver20WebContentsDestroyedEv to i8*), i8* bitcast (void (%"class.content::WebContentsObserver"*, %"struct.blink::UserAgentOverride"*)* @_ZN7content19WebContentsObserver20UserAgentOverrideSetERKN5blink17UserAgentOverrideE to i8*), i8* bitcast (void (%"class.content::WebContentsObserver"*, %"class.content::RenderFrameHost"*, %"class.std::__1::vector.185"*)* @_ZN7content19WebContentsObserver19DidUpdateFaviconURLEPNS_15RenderFrameHostERKNSt3__16vectorIN4mojo9StructPtrIN5blink5mojom10FaviconURLEEENS3_9allocatorISA_EEEE to i8*), i8* bitcast (void (%"class.content::WebContentsObserver"*, i1)* @_ZN7content19WebContentsObserver19OnAudioStateChangedEb to i8*), i8* bitcast (void (%"class.content::WebContentsObserver"*, %"class.content::RenderFrameHost"*, i1)* @_ZN7content19WebContentsObserver24OnFrameAudioStateChangedEPNS_15RenderFrameHostEb to i8*), i8* bitcast (void (%"class.content::WebContentsObserver"*, i1)* @_ZN7content19WebContentsObserver37OnIsConnectedToBluetoothDeviceChangedEb to i8*), i8* bitcast (void (%"class.content::WebContentsObserver"*, i1)* @_ZN7content19WebContentsObserver25DidUpdateAudioMutingStateEb to i8*), i8* bitcast (void (%"class.content::WebContentsObserver"*, i1, i1)* @_ZN7content19WebContentsObserver29DidToggleFullscreenModeForTabEbb to i8*), i8* bitcast (void (%"class.content::WebContentsObserver"*, %"class.content::RenderFrameHost"*)* @_ZN7content19WebContentsObserver20DidAcquireFullscreenEPNS_15RenderFrameHostE to i8*), i8* bitcast (void (%"class.content::WebContentsObserver"*, i32)* @_ZN7content19WebContentsObserver32DidChangeVerticalScrollDirectionEN3viz23VerticalScrollDirectionE to i8*), i8* bitcast (void (%"class.content::WebContentsObserver"*)* @_ZN7content19WebContentsObserver27BeforeFormRepostWarningShowEv to i8*), i8* bitcast (void (%"class.content::WebContentsObserver"*, i1, %"class.base::TimeTicks"*)* @_ZN7content19WebContentsObserver17BeforeUnloadFiredEbRKN4base9TimeTicksE to i8*), i8* bitcast (void (%"class.content::WebContentsObserver"*)* @_ZN7content19WebContentsObserver27BeforeUnloadDialogCancelledEv to i8*), i8* bitcast (void (%"class.content::WebContentsObserver"*)* @_ZN7content19WebContentsObserver30AXTreeIDForMainFrameHasChangedEv to i8*), i8* bitcast (void (%"class.content::WebContentsObserver"*, %"struct.content::AXEventNotificationDetails"*)* @_ZN7content19WebContentsObserver26AccessibilityEventReceivedERKNS_26AXEventNotificationDetailsE to i8*), i8* bitcast (void (%"class.content::WebContentsObserver"*, %"class.std::__1::vector.186"*)* @_ZN7content19WebContentsObserver36AccessibilityLocationChangesReceivedERKNSt3__16vectorINS_35AXLocationChangeNotificationDetailsENS1_9allocatorIS3_EEEE to i8*), i8* bitcast (void (%"class.content::WebContentsObserver"*)* @_ZN7content19WebContentsObserver19DidChangeThemeColorEv to i8*), i8* bitcast (void (%"class.content::WebContentsObserver"*)* @_ZN7content19WebContentsObserver24OnBackgroundColorChangedEv to i8*), i8* bitcast (void (%"class.content::WebContentsObserver"*, %"class.content::RenderFrameHost"*, i32, %"class.std::__1::basic_string.187"*, i32, %"class.std::__1::basic_string.187"*, %"class.absl::optional.196"*)* @_ZN7content19WebContentsObserver24OnDidAddMessageToConsoleEPNS_15RenderFrameHostEN5blink5mojom19ConsoleMessageLevelERKNSt3__112basic_stringIDsNS6_11char_traitsIDsEENS6_9allocatorIDsEEEEiSE_RKN4absl8optionalISC_EE to i8*), i8* bitcast (void (%"class.content::WebContentsObserver"*, %"struct.content::WebContentsObserver::MediaPlayerInfo"*, %"struct.content::MediaPlayerId"*)* @_ZN7content19WebContentsObserver19MediaStartedPlayingERKNS0_15MediaPlayerInfoERKNS_13MediaPlayerIdE to i8*), i8* bitcast (void (%"class.content::WebContentsObserver"*, %"struct.content::WebContentsObserver::MediaPlayerInfo"*, %"struct.content::MediaPlayerId"*, i32)* @_ZN7content19WebContentsObserver19MediaStoppedPlayingERKNS0_15MediaPlayerInfoERKNS_13MediaPlayerIdENS0_18MediaStoppedReasonE to i8*), i8* bitcast (void (%"class.content::WebContentsObserver"*, %"class.gfx::Size"*, %"struct.content::MediaPlayerId"*)* @_ZN7content19WebContentsObserver12MediaResizedERKN3gfx4SizeERKNS_13MediaPlayerIdE to i8*), i8* bitcast (void (%"class.content::WebContentsObserver"*, i1)* @_ZN7content19WebContentsObserver33MediaEffectivelyFullscreenChangedEb to i8*), i8* bitcast (void (%"class.content::WebContentsObserver"*, i1)* @_ZN7content19WebContentsObserver28MediaPictureInPictureChangedEb to i8*), i8* bitcast (void (%"class.content::WebContentsObserver"*, %"struct.content::MediaPlayerId"*, i1)* @_ZN7content19WebContentsObserver23MediaMutedStatusChangedERKNS_13MediaPlayerIdEb to i8*), i8* bitcast (void (%"class.content::WebContentsObserver"*, %"struct.content::MediaPlayerId"*)* @_ZN7content19WebContentsObserver20MediaBufferUnderflowERKNS_13MediaPlayerIdE to i8*), i8* bitcast (void (%"class.content::WebContentsObserver"*, %"struct.content::MediaPlayerId"*)* @_ZN7content19WebContentsObserver15MediaPlayerSeekERKNS_13MediaPlayerIdE to i8*), i8* bitcast (void (%"class.content::WebContentsObserver"*, %"struct.content::MediaPlayerId"*)* @_ZN7content19WebContentsObserver14MediaDestroyedERKNS_13MediaPlayerIdE to i8*), i8* bitcast (void (%"class.content::WebContentsObserver"*, float)* @_ZN7content19WebContentsObserver24OnPageScaleFactorChangedEf to i8*), i8* bitcast (void (%"class.content::WebContentsObserver"*)* @_ZN7content19WebContentsObserver7OnPasteEv to i8*), i8* bitcast (i1 (%"class.content::WebContentsObserver"*, %"class.IPC::Message"*, %"class.content::RenderFrameHost"*)* @_ZN7content19WebContentsObserver17OnMessageReceivedERKN3IPC7MessageEPNS_15RenderFrameHostE to i8*), i8* bitcast (void (%"class.content::WebContentsObserver"*, %"class.content::RenderWidgetHost"*)* @_ZN7content19WebContentsObserver20OnWebContentsFocusedEPNS_16RenderWidgetHostE to i8*), i8* bitcast (void (%"class.content::WebContentsObserver"*, %"class.content::RenderWidgetHost"*)* @_ZN7content19WebContentsObserver22OnWebContentsLostFocusEPNS_16RenderWidgetHostE to i8*), i8* bitcast (void (%"class.content::WebContentsObserver"*, %"struct.content::FocusedNodeDetails"*)* @_ZN7content19WebContentsObserver20OnFocusChangedInPageEPNS_18FocusedNodeDetailsE to i8*), i8* bitcast (void (%"class.content::WebContentsObserver"*, %"class.content::RenderFrameHost"*, %"class.absl::optional.197"*)* @_ZN7content19WebContentsObserver23DidUpdateWebManifestURLEPNS_15RenderFrameHostERKN4absl8optionalI4GURLEE to i8*), i8* bitcast (void (%"class.content::WebContentsObserver"*, %"class.content::RenderFrameHost"*, %"class.std::__1::basic_string"*, %"class.mojo::ScopedHandleBase"*)* @_ZN7content19WebContentsObserver27OnInterfaceRequestFromFrameEPNS_15RenderFrameHostERKNSt3__112basic_stringIcNS3_11char_traitsIcEENS3_9allocatorIcEEEEPN4mojo16ScopedHandleBaseINSC_17MessagePipeHandleEEE to i8*), i8* bitcast (void (%"class.content::WebContentsObserver"*, %"struct.std::__1::pair.202"*)* @_ZN7content19WebContentsObserver27AudioContextPlaybackStartedERKNSt3__14pairIPNS_15RenderFrameHostEiEE to i8*), i8* bitcast (void (%"class.content::WebContentsObserver"*, %"struct.std::__1::pair.202"*)* @_ZN7content19WebContentsObserver27AudioContextPlaybackStoppedERKNSt3__14pairIPNS_15RenderFrameHostEiEE to i8*), i8* bitcast (void (%"class.content::WebContentsObserver"*, %"class.content::RenderFrameHost"*, %class.GURL*, i24)* @_ZN7content19WebContentsObserver23OnServiceWorkerAccessedEPNS_15RenderFrameHostERK4GURLNS_24AllowServiceWorkerResultE to i8*), i8* bitcast (void (%"class.content::WebContentsObserver"*, %"class.content::NavigationHandle"*, %class.GURL*, i24)* @_ZN7content19WebContentsObserver23OnServiceWorkerAccessedEPNS_16NavigationHandleERK4GURLNS_24AllowServiceWorkerResultE to i8*), i8* bitcast (void (%"class.printing::PrintManager"*, i32, i32)* @_ZN8printing12PrintManager23DidGetPrintedPagesCountEij to i8*), i8* bitcast (void (%"class.printing::PrintManager"*, %"class.mojo::StructPtr"*, %"class.base::OnceCallback.59"*)* @_ZN8printing12PrintManager16DidPrintDocumentEN4mojo9StructPtrINS_5mojom22DidPrintDocumentParamsEEEN4base12OnceCallbackIFvbEEE to i8*), i8* bitcast (void (%"class.printing::PrintManager"*)* @_ZN8printing12PrintManager18DidShowPrintDialogEv to i8*), i8* bitcast (void (%"class.printing::PrintManager"*)* @_ZN8printing12PrintManager31ShowInvalidPrinterSettingsErrorEv to i8*), i8* bitcast (void (%"class.printing::PrintManager"*, i32)* @_ZN8printing12PrintManager14PrintingFailedEi to i8*)], [23 x i8*] [i8* inttoptr (i64 -16 to i8*), i8* null, i8* bitcast (void (%"class.printing::PrintManager"*)* @_ZThn16_N8printing12PrintManagerD1Ev to i8*), i8* bitcast (void (%"class.printing::PrintManager"*)* @_ZThn16_N8printing12PrintManagerD0Ev to i8*), i8* bitcast (void (%"class.printing::PrintManager"*, i32, i32)* @_ZThn16_N8printing12PrintManager23DidGetPrintedPagesCountEij to i8*), i8* bitcast (i1 (%"class.printing::mojom::PrintManagerHost"*, %"class.mojo::StructPtr.203"*)* @_ZN8printing5mojom16PrintManagerHost23GetDefaultPrintSettingsEPN4mojo9StructPtrINS0_11PrintParamsEEE to i8*), i8* bitcast (void ()* @__cxa_pure_virtual to i8*), i8* bitcast (void (%"class.printing::PrintManager"*)* @_ZThn16_N8printing12PrintManager18DidShowPrintDialogEv to i8*), i8* bitcast (i1 (%"class.printing::mojom::PrintManagerHost"*, %"class.mojo::StructPtr"*, i8*)* @_ZN8printing5mojom16PrintManagerHost16DidPrintDocumentEN4mojo9StructPtrINS0_22DidPrintDocumentParamsEEEPb to i8*), i8* bitcast (void (%"class.printing::PrintManager"*, %"class.mojo::StructPtr"*, %"class.base::OnceCallback.59"*)* @_ZThn16_N8printing12PrintManager16DidPrintDocumentEN4mojo9StructPtrINS_5mojom22DidPrintDocumentParamsEEEN4base12OnceCallbackIFvbEEE to i8*), i8* bitcast (i1 (%"class.printing::mojom::PrintManagerHost"*, %"class.mojo::StructPtr.224"*, %"class.mojo::StructPtr.210"*)* @_ZN8printing5mojom16PrintManagerHost13ScriptedPrintEN4mojo9StructPtrINS0_19ScriptedPrintParamsEEEPNS3_INS0_16PrintPagesParamsEEE to i8*), i8* bitcast (void ()* @__cxa_pure_virtual to i8*), i8* bitcast (void (%"class.printing::PrintManager"*)* @_ZThn16_N8printing12PrintManager31ShowInvalidPrinterSettingsErrorEv to i8*), i8* bitcast (void (%"class.printing::PrintManager"*, i32)* @_ZThn16_N8printing12PrintManager14PrintingFailedEi to i8*), i8* bitcast (i1 (%"class.printing::mojom::PrintManagerHost"*, i32, %"class.base::Value"*, %"class.mojo::StructPtr.210"*, i8*)* @_ZN8printing5mojom16PrintManagerHost19UpdatePrintSettingsEiN4base5ValueEPN4mojo9StructPtrINS0_16PrintPagesParamsEEEPb to i8*), i8* bitcast (void ()* @__cxa_pure_virtual to i8*), i8* bitcast (i1 (%"class.printing::mojom::PrintManagerHost"*)* @_ZN8printing5mojom16PrintManagerHost25SetupScriptedPrintPreviewEv to i8*), i8* bitcast (void ()* @__cxa_pure_virtual to i8*), i8* bitcast (void ()* @__cxa_pure_virtual to i8*), i8* bitcast (void ()* @__cxa_pure_virtual to i8*), i8* bitcast (i1 (%"class.printing::mojom::PrintManagerHost"*, i32, i32, i8*)* @_ZN8printing5mojom16PrintManagerHost14CheckForCancelEiiPb to i8*), i8* bitcast (void ()* @__cxa_pure_virtual to i8*), i8* bitcast (void ()* @__cxa_pure_virtual to i8*)] }, align 8
@_ZTVN7content27WebContentsFrameReceiverSetIN8printing5mojom16PrintManagerHostEE20FrameInterfaceBinderE = linkonce_odr hidden unnamed_addr constant { [7 x i8*], [109 x i8*] } { [7 x i8*] [i8* null, i8* null, i8* bitcast (void (%"class.content::WebContentsFrameReceiverSet<printing::mojom::PrintManagerHost>::FrameInterfaceBinder"*)* @_ZN7content27WebContentsFrameReceiverSetIN8printing5mojom16PrintManagerHostEE20FrameInterfaceBinderD2Ev to i8*), i8* bitcast (void (%"class.content::WebContentsFrameReceiverSet<printing::mojom::PrintManagerHost>::FrameInterfaceBinder"*)* @_ZN7content27WebContentsFrameReceiverSetIN8printing5mojom16PrintManagerHostEE20FrameInterfaceBinderD0Ev to i8*), i8* bitcast (void (%"class.content::WebContentsFrameReceiverSet<printing::mojom::PrintManagerHost>::FrameInterfaceBinder"*, %"class.content::RenderFrameHost"*, %"class.mojo::ScopedInterfaceEndpointHandle"*)* @_ZN7content27WebContentsFrameReceiverSetIN8printing5mojom16PrintManagerHostEE20FrameInterfaceBinder18OnReceiverForFrameEPNS_15RenderFrameHostEN4mojo29ScopedInterfaceEndpointHandleE to i8*), i8* bitcast (void (%"class.content::WebContentsFrameReceiverSet<printing::mojom::PrintManagerHost>::FrameInterfaceBinder"*)* @_ZN7content27WebContentsFrameReceiverSetIN8printing5mojom16PrintManagerHostEE20FrameInterfaceBinder17CloseAllReceiversEv to i8*), i8* bitcast (void (%"class.content::WebContentsFrameReceiverSet<printing::mojom::PrintManagerHost>::FrameInterfaceBinder"*, %"class.content::RenderFrameHost"*)* @_ZN7content27WebContentsFrameReceiverSetIN8printing5mojom16PrintManagerHostEE20FrameInterfaceBinder18RenderFrameDeletedEPNS_15RenderFrameHostE to i8*)], [109 x i8*] [i8* inttoptr (i64 -8 to i8*), i8* null, i8* bitcast (i1 (%"class.content::WebContentsObserver"*, %"class.IPC::Message"*)* @_ZN7content19WebContentsObserver17OnMessageReceivedERKN3IPC7MessageE to i8*), i8* bitcast (void (%"class.IPC::Listener"*, i32)* @_ZN3IPC8Listener18OnChannelConnectedEi to i8*), i8* bitcast (void (%"class.IPC::Listener"*)* @_ZN3IPC8Listener14OnChannelErrorEv to i8*), i8* bitcast (void (%"class.IPC::Listener"*, %"class.IPC::Message"*)* @_ZN3IPC8Listener20OnBadMessageReceivedERKNS_7MessageE to i8*), i8* bitcast (void (%"class.IPC::Listener"*, %"class.std::__1::basic_string"*, %"class.mojo::ScopedInterfaceEndpointHandle"*)* @_ZN3IPC8Listener28OnAssociatedInterfaceRequestERKNSt3__112basic_stringIcNS1_11char_traitsIcEENS1_9allocatorIcEEEEN4mojo29ScopedInterfaceEndpointHandleE to i8*), i8* bitcast (void (%"class.IPC::Listener"*)* @_ZN3IPC8Listener15OnChannelDeniedEv to i8*), i8* bitcast (void (%"class.IPC::Listener"*)* @_ZN3IPC8Listener20OnChannelListenErrorEv to i8*), i8* bitcast (void (%"class.content::WebContentsFrameReceiverSet<printing::mojom::PrintManagerHost>::FrameInterfaceBinder"*)* @_ZThn8_N7content27WebContentsFrameReceiverSetIN8printing5mojom16PrintManagerHostEE20FrameInterfaceBinderD1Ev to i8*), i8* bitcast (void (%"class.content::WebContentsFrameReceiverSet<printing::mojom::PrintManagerHost>::FrameInterfaceBinder"*)* @_ZThn8_N7content27WebContentsFrameReceiverSetIN8printing5mojom16PrintManagerHostEE20FrameInterfaceBinderD0Ev to i8*), i8* bitcast (void (%"class.content::WebContentsObserver"*, %"class.content::RenderFrameHost"*)* @_ZN7content19WebContentsObserver18RenderFrameCreatedEPNS_15RenderFrameHostE to i8*), i8* bitcast (void (%"class.content::WebContentsFrameReceiverSet<printing::mojom::PrintManagerHost>::FrameInterfaceBinder"*, %"class.content::RenderFrameHost"*)* @_ZThn8_N7content27WebContentsFrameReceiverSetIN8printing5mojom16PrintManagerHostEE20FrameInterfaceBinder18RenderFrameDeletedEPNS_15RenderFrameHostE to i8*), i8* bitcast (void (%"class.content::WebContentsObserver"*, %"class.content::RenderFrameHost"*, %"class.content::RenderFrameHost"*)* @_ZN7content19WebContentsObserver22RenderFrameHostChangedEPNS_15RenderFrameHostES2_ to i8*), i8* bitcast (void (%"class.content::WebContentsObserver"*, i32)* @_ZN7content19WebContentsObserver12FrameDeletedEi to i8*), i8* bitcast (void (%"class.content::WebContentsObserver"*, %"class.content::RenderFrameHost"*, i32, i32)* @_ZN7content19WebContentsObserver27RenderFrameHostStateChangedEPNS_15RenderFrameHostENS1_14LifecycleStateES3_ to i8*), i8* bitcast (void (%"class.content::WebContentsObserver"*)* @_ZN7content19WebContentsObserver20CaptureTargetChangedEv to i8*), i8* bitcast (void (%"class.content::WebContentsObserver"*, %"class.blink::mojom::CaptureHandleConfig"*)* @_ZN7content19WebContentsObserver27OnCaptureHandleConfigUpdateERKN5blink5mojom19CaptureHandleConfigE to i8*), i8* bitcast (void (%"class.content::WebContentsObserver"*)* @_ZN7content19WebContentsObserver15RenderViewReadyEv to i8*), i8* bitcast (void (%"class.content::WebContentsObserver"*, %"class.content::RenderViewHost"*)* @_ZN7content19WebContentsObserver17RenderViewDeletedEPNS_14RenderViewHostE to i8*), i8* bitcast (void (%"class.content::WebContentsObserver"*, i32)* @_ZN7content19WebContentsObserver17RenderProcessGoneEN4base17TerminationStatusE to i8*), i8* bitcast (void (%"class.content::WebContentsObserver"*, %"class.content::RenderViewHost"*, %"class.content::RenderViewHost"*)* @_ZN7content19WebContentsObserver21RenderViewHostChangedEPNS_14RenderViewHostES2_ to i8*), i8* bitcast (void (%"class.content::WebContentsObserver"*, %"class.content::RenderProcessHost"*)* @_ZN7content19WebContentsObserver22OnRendererUnresponsiveEPNS_17RenderProcessHostE to i8*), i8* bitcast (void (%"class.content::WebContentsObserver"*, %"class.content::RenderProcessHost"*)* @_ZN7content19WebContentsObserver20OnRendererResponsiveEPNS_17RenderProcessHostE to i8*), i8* bitcast (void (%"class.content::WebContentsObserver"*, %"class.content::NavigationHandle"*)* @_ZN7content19WebContentsObserver18DidStartNavigationEPNS_16NavigationHandleE to i8*), i8* bitcast (void (%"class.content::WebContentsObserver"*, %"class.content::NavigationHandle"*)* @_ZN7content19WebContentsObserver21DidRedirectNavigationEPNS_16NavigationHandleE to i8*), i8* bitcast (void (%"class.content::WebContentsObserver"*, %"class.content::NavigationHandle"*)* @_ZN7content19WebContentsObserver23ReadyToCommitNavigationEPNS_16NavigationHandleE to i8*), i8* bitcast (void (%"class.content::WebContentsObserver"*, %"class.content::NavigationHandle"*)* @_ZN7content19WebContentsObserver19DidFinishNavigationEPNS_16NavigationHandleE to i8*), i8* bitcast (void (%"class.content::WebContentsObserver"*, %"class.content::WebContents"*, i64)* @_ZN7content19WebContentsObserver17DidActivatePortalEPNS_11WebContentsEN4base9TimeTicksE to i8*), i8* bitcast (void (%"class.content::WebContentsObserver"*)* @_ZN7content19WebContentsObserver15DidStartLoadingEv to i8*), i8* bitcast (void (%"class.content::WebContentsObserver"*)* @_ZN7content19WebContentsObserver18DidReceiveResponseEv to i8*), i8* bitcast (void (%"class.content::WebContentsObserver"*)* @_ZN7content19WebContentsObserver14DidStopLoadingEv to i8*), i8* bitcast (void (%"class.content::WebContentsObserver"*, double)* @_ZN7content19WebContentsObserver19LoadProgressChangedEd to i8*), i8* bitcast (void (%"class.content::WebContentsObserver"*, %"class.content::RenderFrameHost"*)* @_ZN7content19WebContentsObserver28DocumentAvailableInMainFrameEPNS_15RenderFrameHostE to i8*), i8* bitcast (void (%"class.content::WebContentsObserver"*, %"class.content::RenderFrameHost"*)* @_ZN7content19WebContentsObserver34DocumentOnLoadCompletedInMainFrameEPNS_15RenderFrameHostE to i8*), i8* bitcast (void (%"class.content::WebContentsObserver"*, %"class.content::RenderFrameHost"*)* @_ZN7content19WebContentsObserver16DOMContentLoadedEPNS_15RenderFrameHostE to i8*), i8* bitcast (void (%"class.content::WebContentsObserver"*, %"class.content::RenderFrameHost"*, %class.GURL*)* @_ZN7content19WebContentsObserver13DidFinishLoadEPNS_15RenderFrameHostERK4GURL to i8*), i8* bitcast (void (%"class.content::WebContentsObserver"*, %"class.content::RenderFrameHost"*, %class.GURL*, i32)* @_ZN7content19WebContentsObserver11DidFailLoadEPNS_15RenderFrameHostERK4GURLi to i8*), i8* bitcast (void (%"class.content::WebContentsObserver"*)* @_ZN7content19WebContentsObserver29DidChangeVisibleSecurityStateEv to i8*), i8* bitcast (void (%"class.content::WebContentsObserver"*, %"class.content::RenderFrameHost"*, %class.GURL*, %"class.std::__1::basic_string"*, i32)* @_ZN7content19WebContentsObserver30DidLoadResourceFromMemoryCacheEPNS_15RenderFrameHostERK4GURLRKNSt3__112basic_stringIcNS6_11char_traitsIcEENS6_9allocatorIcEEEEN7network5mojom18RequestDestinationE to i8*), i8* bitcast (void (%"class.content::WebContentsObserver"*, %"class.content::RenderFrameHost"*, %"struct.content::GlobalRequestID"*, %"class.blink::mojom::ResourceLoadInfo"*)* @_ZN7content19WebContentsObserver20ResourceLoadCompleteEPNS_15RenderFrameHostERKNS_15GlobalRequestIDERKN5blink5mojom16ResourceLoadInfoE to i8*), i8* bitcast (void (%"class.content::WebContentsObserver"*, %"class.content::RenderFrameHost"*, %"struct.content::CookieAccessDetails"*)* @_ZN7content19WebContentsObserver17OnCookiesAccessedEPNS_15RenderFrameHostERKNS_19CookieAccessDetailsE to i8*), i8* bitcast (void (%"class.content::WebContentsObserver"*, %"class.content::NavigationHandle"*, %"struct.content::CookieAccessDetails"*)* @_ZN7content19WebContentsObserver17OnCookiesAccessedEPNS_16NavigationHandleERKNS_19CookieAccessDetailsE to i8*), i8* bitcast (void (%"class.content::WebContentsObserver"*, %"struct.content::LoadCommittedDetails"*)* @_ZN7content19WebContentsObserver24NavigationEntryCommittedERKNS_20LoadCommittedDetailsE to i8*), i8* bitcast (void (%"class.content::WebContentsObserver"*, %"struct.content::PrunedDetails"*)* @_ZN7content19WebContentsObserver20NavigationListPrunedERKNS_13PrunedDetailsE to i8*), i8* bitcast (void (%"class.content::WebContentsObserver"*)* @_ZN7content19WebContentsObserver24NavigationEntriesDeletedEv to i8*), i8* bitcast (void (%"class.content::WebContentsObserver"*, %"struct.content::EntryChangedDetails"*)* @_ZN7content19WebContentsObserver22NavigationEntryChangedERKNS_19EntryChangedDetailsE to i8*), i8* bitcast (void (%"class.content::WebContentsObserver"*, %"class.content::WebContents"*, %"class.content::RenderFrameHost"*, %class.GURL*, %"struct.content::Referrer"*, i32, i32, i1, i1)* @_ZN7content19WebContentsObserver19DidOpenRequestedURLEPNS_11WebContentsEPNS_15RenderFrameHostERK4GURLRKNS_8ReferrerE21WindowOpenDispositionN2ui14PageTransitionEbb to i8*), i8* bitcast (void (%"class.content::WebContentsObserver"*)* @_ZN7content19WebContentsObserver29DidFirstVisuallyNonEmptyPaintEv to i8*), i8* bitcast (void (%"class.content::WebContentsObserver"*)* @_ZN7content19WebContentsObserver17NavigationStoppedEv to i8*), i8* bitcast (void (%"class.content::WebContentsObserver"*, %"class.blink::WebInputEvent"*)* @_ZN7content19WebContentsObserver21DidGetUserInteractionERKN5blink13WebInputEventE to i8*), i8* bitcast (void (%"class.content::WebContentsObserver"*)* @_ZN7content19WebContentsObserver20DidGetIgnoredUIEventEv to i8*), i8* bitcast (void (%"class.content::WebContentsObserver"*, i32)* @_ZN7content19WebContentsObserver19OnVisibilityChangedENS_10VisibilityE to i8*), i8* bitcast (void (%"class.content::WebContentsObserver"*, i1)* @_ZN7content19WebContentsObserver19MainFrameWasResizedEb to i8*), i8* bitcast (void (%"class.content::WebContentsObserver"*, %"class.content::RenderFrameHost"*, %"class.std::__1::basic_string"*)* @_ZN7content19WebContentsObserver16FrameNameChangedEPNS_15RenderFrameHostERKNSt3__112basic_stringIcNS3_11char_traitsIcEENS3_9allocatorIcEEEE to i8*), i8* bitcast (void (%"class.content::WebContentsObserver"*, %"class.content::RenderFrameHost"*)* @_ZN7content19WebContentsObserver27FrameReceivedUserActivationEPNS_15RenderFrameHostE to i8*), i8* bitcast (void (%"class.content::WebContentsObserver"*, %"class.content::RenderFrameHost"*, i1)* @_ZN7content19WebContentsObserver24FrameDisplayStateChangedEPNS_15RenderFrameHostEb to i8*), i8* bitcast (void (%"class.content::WebContentsObserver"*, %"class.content::RenderFrameHost"*, %"class.gfx::Size"*)* @_ZN7content19WebContentsObserver16FrameSizeChangedEPNS_15RenderFrameHostERKN3gfx4SizeE to i8*), i8* bitcast (void (%"class.content::WebContentsObserver"*, %"class.content::NavigationEntry"*)* @_ZN7content19WebContentsObserver11TitleWasSetEPNS_15NavigationEntryE to i8*), i8* bitcast (void (%"class.content::WebContentsObserver"*, %class.GURL*, i1)* @_ZN7content19WebContentsObserver16AppCacheAccessedERK4GURLb to i8*), i8* bitcast (void (%"class.content::WebContentsObserver"*)* @_ZN7content19WebContentsObserver21PepperInstanceCreatedEv to i8*), i8* bitcast (void (%"class.content::WebContentsObserver"*)* @_ZN7content19WebContentsObserver21PepperInstanceDeletedEv to i8*), i8* bitcast (void (%"class.content::WebContentsObserver"*, i32)* @_ZN7content19WebContentsObserver18ViewportFitChangedEN5blink5mojom11ViewportFitE to i8*), i8* bitcast (void (%"class.content::WebContentsObserver"*, %"class.base::FilePath"*, i32)* @_ZN7content19WebContentsObserver13PluginCrashedERKN4base8FilePathEi to i8*), i8* bitcast (void (%"class.content::WebContentsObserver"*, i32, %"class.base::FilePath"*, i1)* @_ZN7content19WebContentsObserver23PluginHungStatusChangedEiRKN4base8FilePathEb to i8*), i8* bitcast (void (%"class.content::WebContentsObserver"*, %"class.content::WebContents"*)* @_ZN7content19WebContentsObserver23InnerWebContentsCreatedEPNS_11WebContentsE to i8*), i8* bitcast (void (%"class.content::WebContentsObserver"*, %"class.content::WebContents"*, %"class.content::RenderFrameHost"*, i1)* @_ZN7content19WebContentsObserver24InnerWebContentsAttachedEPNS_11WebContentsEPNS_15RenderFrameHostEb to i8*), i8* bitcast (void (%"class.content::WebContentsObserver"*, %"class.content::WebContents"*)* @_ZN7content19WebContentsObserver24InnerWebContentsDetachedEPNS_11WebContentsE to i8*), i8* bitcast (void (%"class.content::WebContentsObserver"*, %"class.content::WebContents"*, %"class.content::WebContents"*)* @_ZN7content19WebContentsObserver24DidCloneToNewWebContentsEPNS_11WebContentsES2_ to i8*), i8* bitcast (void (%"class.content::WebContentsObserver"*)* @_ZN7content19WebContentsObserver20WebContentsDestroyedEv to i8*), i8* bitcast (void (%"class.content::WebContentsObserver"*, %"struct.blink::UserAgentOverride"*)* @_ZN7content19WebContentsObserver20UserAgentOverrideSetERKN5blink17UserAgentOverrideE to i8*), i8* bitcast (void (%"class.content::WebContentsObserver"*, %"class.content::RenderFrameHost"*, %"class.std::__1::vector.185"*)* @_ZN7content19WebContentsObserver19DidUpdateFaviconURLEPNS_15RenderFrameHostERKNSt3__16vectorIN4mojo9StructPtrIN5blink5mojom10FaviconURLEEENS3_9allocatorISA_EEEE to i8*), i8* bitcast (void (%"class.content::WebContentsObserver"*, i1)* @_ZN7content19WebContentsObserver19OnAudioStateChangedEb to i8*), i8* bitcast (void (%"class.content::WebContentsObserver"*, %"class.content::RenderFrameHost"*, i1)* @_ZN7content19WebContentsObserver24OnFrameAudioStateChangedEPNS_15RenderFrameHostEb to i8*), i8* bitcast (void (%"class.content::WebContentsObserver"*, i1)* @_ZN7content19WebContentsObserver37OnIsConnectedToBluetoothDeviceChangedEb to i8*), i8* bitcast (void (%"class.content::WebContentsObserver"*, i1)* @_ZN7content19WebContentsObserver25DidUpdateAudioMutingStateEb to i8*), i8* bitcast (void (%"class.content::WebContentsObserver"*, i1, i1)* @_ZN7content19WebContentsObserver29DidToggleFullscreenModeForTabEbb to i8*), i8* bitcast (void (%"class.content::WebContentsObserver"*, %"class.content::RenderFrameHost"*)* @_ZN7content19WebContentsObserver20DidAcquireFullscreenEPNS_15RenderFrameHostE to i8*), i8* bitcast (void (%"class.content::WebContentsObserver"*, i32)* @_ZN7content19WebContentsObserver32DidChangeVerticalScrollDirectionEN3viz23VerticalScrollDirectionE to i8*), i8* bitcast (void (%"class.content::WebContentsObserver"*)* @_ZN7content19WebContentsObserver27BeforeFormRepostWarningShowEv to i8*), i8* bitcast (void (%"class.content::WebContentsObserver"*, i1, %"class.base::TimeTicks"*)* @_ZN7content19WebContentsObserver17BeforeUnloadFiredEbRKN4base9TimeTicksE to i8*), i8* bitcast (void (%"class.content::WebContentsObserver"*)* @_ZN7content19WebContentsObserver27BeforeUnloadDialogCancelledEv to i8*), i8* bitcast (void (%"class.content::WebContentsObserver"*)* @_ZN7content19WebContentsObserver30AXTreeIDForMainFrameHasChangedEv to i8*), i8* bitcast (void (%"class.content::WebContentsObserver"*, %"struct.content::AXEventNotificationDetails"*)* @_ZN7content19WebContentsObserver26AccessibilityEventReceivedERKNS_26AXEventNotificationDetailsE to i8*), i8* bitcast (void (%"class.content::WebContentsObserver"*, %"class.std::__1::vector.186"*)* @_ZN7content19WebContentsObserver36AccessibilityLocationChangesReceivedERKNSt3__16vectorINS_35AXLocationChangeNotificationDetailsENS1_9allocatorIS3_EEEE to i8*), i8* bitcast (void (%"class.content::WebContentsObserver"*)* @_ZN7content19WebContentsObserver19DidChangeThemeColorEv to i8*), i8* bitcast (void (%"class.content::WebContentsObserver"*)* @_ZN7content19WebContentsObserver24OnBackgroundColorChangedEv to i8*), i8* bitcast (void (%"class.content::WebContentsObserver"*, %"class.content::RenderFrameHost"*, i32, %"class.std::__1::basic_string.187"*, i32, %"class.std::__1::basic_string.187"*, %"class.absl::optional.196"*)* @_ZN7content19WebContentsObserver24OnDidAddMessageToConsoleEPNS_15RenderFrameHostEN5blink5mojom19ConsoleMessageLevelERKNSt3__112basic_stringIDsNS6_11char_traitsIDsEENS6_9allocatorIDsEEEEiSE_RKN4absl8optionalISC_EE to i8*), i8* bitcast (void (%"class.content::WebContentsObserver"*, %"struct.content::WebContentsObserver::MediaPlayerInfo"*, %"struct.content::MediaPlayerId"*)* @_ZN7content19WebContentsObserver19MediaStartedPlayingERKNS0_15MediaPlayerInfoERKNS_13MediaPlayerIdE to i8*), i8* bitcast (void (%"class.content::WebContentsObserver"*, %"struct.content::WebContentsObserver::MediaPlayerInfo"*, %"struct.content::MediaPlayerId"*, i32)* @_ZN7content19WebContentsObserver19MediaStoppedPlayingERKNS0_15MediaPlayerInfoERKNS_13MediaPlayerIdENS0_18MediaStoppedReasonE to i8*), i8* bitcast (void (%"class.content::WebContentsObserver"*, %"class.gfx::Size"*, %"struct.content::MediaPlayerId"*)* @_ZN7content19WebContentsObserver12MediaResizedERKN3gfx4SizeERKNS_13MediaPlayerIdE to i8*), i8* bitcast (void (%"class.content::WebContentsObserver"*, i1)* @_ZN7content19WebContentsObserver33MediaEffectivelyFullscreenChangedEb to i8*), i8* bitcast (void (%"class.content::WebContentsObserver"*, i1)* @_ZN7content19WebContentsObserver28MediaPictureInPictureChangedEb to i8*), i8* bitcast (void (%"class.content::WebContentsObserver"*, %"struct.content::MediaPlayerId"*, i1)* @_ZN7content19WebContentsObserver23MediaMutedStatusChangedERKNS_13MediaPlayerIdEb to i8*), i8* bitcast (void (%"class.content::WebContentsObserver"*, %"struct.content::MediaPlayerId"*)* @_ZN7content19WebContentsObserver20MediaBufferUnderflowERKNS_13MediaPlayerIdE to i8*), i8* bitcast (void (%"class.content::WebContentsObserver"*, %"struct.content::MediaPlayerId"*)* @_ZN7content19WebContentsObserver15MediaPlayerSeekERKNS_13MediaPlayerIdE to i8*), i8* bitcast (void (%"class.content::WebContentsObserver"*, %"struct.content::MediaPlayerId"*)* @_ZN7content19WebContentsObserver14MediaDestroyedERKNS_13MediaPlayerIdE to i8*), i8* bitcast (void (%"class.content::WebContentsObserver"*, float)* @_ZN7content19WebContentsObserver24OnPageScaleFactorChangedEf to i8*), i8* bitcast (void (%"class.content::WebContentsObserver"*)* @_ZN7content19WebContentsObserver7OnPasteEv to i8*), i8* bitcast (i1 (%"class.content::WebContentsObserver"*, %"class.IPC::Message"*, %"class.content::RenderFrameHost"*)* @_ZN7content19WebContentsObserver17OnMessageReceivedERKN3IPC7MessageEPNS_15RenderFrameHostE to i8*), i8* bitcast (void (%"class.content::WebContentsObserver"*, %"class.content::RenderWidgetHost"*)* @_ZN7content19WebContentsObserver20OnWebContentsFocusedEPNS_16RenderWidgetHostE to i8*), i8* bitcast (void (%"class.content::WebContentsObserver"*, %"class.content::RenderWidgetHost"*)* @_ZN7content19WebContentsObserver22OnWebContentsLostFocusEPNS_16RenderWidgetHostE to i8*), i8* bitcast (void (%"class.content::WebContentsObserver"*, %"struct.content::FocusedNodeDetails"*)* @_ZN7content19WebContentsObserver20OnFocusChangedInPageEPNS_18FocusedNodeDetailsE to i8*), i8* bitcast (void (%"class.content::WebContentsObserver"*, %"class.content::RenderFrameHost"*, %"class.absl::optional.197"*)* @_ZN7content19WebContentsObserver23DidUpdateWebManifestURLEPNS_15RenderFrameHostERKN4absl8optionalI4GURLEE to i8*), i8* bitcast (void (%"class.content::WebContentsObserver"*, %"class.content::RenderFrameHost"*, %"class.std::__1::basic_string"*, %"class.mojo::ScopedHandleBase"*)* @_ZN7content19WebContentsObserver27OnInterfaceRequestFromFrameEPNS_15RenderFrameHostERKNSt3__112basic_stringIcNS3_11char_traitsIcEENS3_9allocatorIcEEEEPN4mojo16ScopedHandleBaseINSC_17MessagePipeHandleEEE to i8*), i8* bitcast (void (%"class.content::WebContentsObserver"*, %"struct.std::__1::pair.202"*)* @_ZN7content19WebContentsObserver27AudioContextPlaybackStartedERKNSt3__14pairIPNS_15RenderFrameHostEiEE to i8*), i8* bitcast (void (%"class.content::WebContentsObserver"*, %"struct.std::__1::pair.202"*)* @_ZN7content19WebContentsObserver27AudioContextPlaybackStoppedERKNSt3__14pairIPNS_15RenderFrameHostEiEE to i8*), i8* bitcast (void (%"class.content::WebContentsObserver"*, %"class.content::RenderFrameHost"*, %class.GURL*, i24)* @_ZN7content19WebContentsObserver23OnServiceWorkerAccessedEPNS_15RenderFrameHostERK4GURLNS_24AllowServiceWorkerResultE to i8*), i8* bitcast (void (%"class.content::WebContentsObserver"*, %"class.content::NavigationHandle"*, %class.GURL*, i24)* @_ZN7content19WebContentsObserver23OnServiceWorkerAccessedEPNS_16NavigationHandleERK4GURLNS_24AllowServiceWorkerResultE to i8*)] }, comdat, align 8
@_ZTVN4mojo15ReceiverSetBaseINS_18AssociatedReceiverIN8printing5mojom16PrintManagerHostENS_19RawPtrImplRefTraitsIS4_EEEEPN7content15RenderFrameHostEE13ReceiverEntryE = linkonce_odr hidden unnamed_addr constant { [7 x i8*] } { [7 x i8*] [i8* null, i8* null, i8* bitcast (void (%"class.mojo::ReceiverSetBase<mojo::AssociatedReceiver<printing::mojom::PrintManagerHost, mojo::RawPtrImplRefTraits<printing::mojom::PrintManagerHost> >, content::RenderFrameHost *>::ReceiverEntry"*)* @_ZN4mojo15ReceiverSetBaseINS_18AssociatedReceiverIN8printing5mojom16PrintManagerHostENS_19RawPtrImplRefTraitsIS4_EEEEPN7content15RenderFrameHostEE13ReceiverEntryD2Ev to i8*), i8* bitcast (void (%"class.mojo::ReceiverSetBase<mojo::AssociatedReceiver<printing::mojom::PrintManagerHost, mojo::RawPtrImplRefTraits<printing::mojom::PrintManagerHost> >, content::RenderFrameHost *>::ReceiverEntry"*)* @_ZN4mojo15ReceiverSetBaseINS_18AssociatedReceiverIN8printing5mojom16PrintManagerHostENS_19RawPtrImplRefTraitsIS4_EEEEPN7content15RenderFrameHostEE13ReceiverEntryD0Ev to i8*), i8* bitcast (i8* (%"class.mojo::ReceiverSetBase<mojo::AssociatedReceiver<printing::mojom::PrintManagerHost, mojo::RawPtrImplRefTraits<printing::mojom::PrintManagerHost> >, content::RenderFrameHost *>::ReceiverEntry"*)* @_ZNK4mojo15ReceiverSetBaseINS_18AssociatedReceiverIN8printing5mojom16PrintManagerHostENS_19RawPtrImplRefTraitsIS4_EEEEPN7content15RenderFrameHostEE13ReceiverEntry10GetContextEv to i8*), i8* bitcast (void (%"class.mojo::ReceiverSetBase<mojo::AssociatedReceiver<printing::mojom::PrintManagerHost, mojo::RawPtrImplRefTraits<printing::mojom::PrintManagerHost> >, content::RenderFrameHost *>::ReceiverEntry"*, %"class.mojo::MessageFilter"*, %"class.base::RepeatingCallback.5"*)* @_ZN4mojo15ReceiverSetBaseINS_18AssociatedReceiverIN8printing5mojom16PrintManagerHostENS_19RawPtrImplRefTraitsIS4_EEEEPN7content15RenderFrameHostEE13ReceiverEntry20InstallDispatchHooksENSt3__110unique_ptrINS_13MessageFilterENSD_14default_deleteISF_EEEEN4base17RepeatingCallbackIFvjRKNSD_12basic_stringIcNSD_11char_traitsIcEENSD_9allocatorIcEEEEEEE to i8*), i8* bitcast (void (%"class.mojo::ReceiverSetBase<mojo::AssociatedReceiver<printing::mojom::PrintManagerHost, mojo::RawPtrImplRefTraits<printing::mojom::PrintManagerHost> >, content::RenderFrameHost *>::ReceiverEntry"*)* @_ZN4mojo15ReceiverSetBaseINS_18AssociatedReceiverIN8printing5mojom16PrintManagerHostENS_19RawPtrImplRefTraitsIS4_EEEEPN7content15RenderFrameHostEE13ReceiverEntry15FlushForTestingEv to i8*)] }, comdat, align 8
@_ZTVN8printing5mojom20PrintManagerHostStubIN4mojo19RawPtrImplRefTraitsINS0_16PrintManagerHostEEEEE = linkonce_odr hidden unnamed_addr constant { [7 x i8*] } { [7 x i8*] [i8* null, i8* null, i8* bitcast (void (%"class.mojo::MessageReceiver"*)* @_ZN4mojo15MessageReceiverD2Ev to i8*), i8* bitcast (void (%"class.printing::mojom::PrintManagerHostStub"*)* @_ZN8printing5mojom20PrintManagerHostStubIN4mojo19RawPtrImplRefTraitsINS0_16PrintManagerHostEEEED0Ev to i8*), i8* bitcast (i1 (%"class.mojo::MessageReceiver"*)* @_ZN4mojo15MessageReceiver25PrefersSerializedMessagesEv to i8*), i8* bitcast (i1 (%"class.printing::mojom::PrintManagerHostStub"*, %"class.mojo::Message"*)* @_ZN8printing5mojom20PrintManagerHostStubIN4mojo19RawPtrImplRefTraitsINS0_16PrintManagerHostEEEE6AcceptEPNS2_7MessageE to i8*), i8* bitcast (i1 (%"class.printing::mojom::PrintManagerHostStub"*, %"class.mojo::Message"*, %"class.mojo::MessageReceiverWithStatus"*)* @_ZN8printing5mojom20PrintManagerHostStubIN4mojo19RawPtrImplRefTraitsINS0_16PrintManagerHostEEEE19AcceptWithResponderEPNS2_7MessageENSt3__110unique_ptrINS2_25MessageReceiverWithStatusENS9_14default_deleteISB_EEEE to i8*)] }, comdat, align 8
@_ZN8printing5mojom16PrintManagerHost5Name_E = external constant [0 x i8], align 1
@_ZTVN8printing5mojom32PrintManagerHostRequestValidatorE = external unnamed_addr constant { [6 x i8*] }, align 8
@_ZTVN7content22WebContentsReceiverSet6BinderE = external unnamed_addr constant { [6 x i8*] }, align 8
@_ZN8printing5mojom16PrintRenderFrame5Name_E = external constant [0 x i8], align 1
@_ZTVN8printing5mojom33PrintRenderFrameResponseValidatorE = external unnamed_addr constant { [6 x i8*] }, align 8

@_ZN8printing12PrintManagerD1Ev = hidden unnamed_addr alias void (%"class.printing::PrintManager"*), void (%"class.printing::PrintManager"*)* @_ZN8printing12PrintManagerD2Ev

; Function Attrs: nounwind ssp uwtable
define hidden void @_ZN8printing12PrintManagerC2EPN7content11WebContentsE(%"class.printing::PrintManager"*, %"class.content::WebContents"*) unnamed_addr #0 align 2 {
  %3 = getelementptr inbounds %"class.printing::PrintManager", %"class.printing::PrintManager"* %0, i64 0, i32 0
  tail call void @_ZN7content19WebContentsObserverC2EPNS_11WebContentsE(%"class.content::WebContentsObserver"* %3, %"class.content::WebContents"* %1) #15
  %4 = getelementptr inbounds %"class.printing::PrintManager", %"class.printing::PrintManager"* %0, i64 0, i32 1
  %5 = getelementptr inbounds %"class.printing::mojom::PrintManagerHost", %"class.printing::mojom::PrintManagerHost"* %4, i64 0, i32 0
  %6 = getelementptr inbounds %"class.printing::PrintManager", %"class.printing::PrintManager"* %0, i64 0, i32 0, i32 0, i32 0
  store i32 (...)** bitcast (i8** getelementptr inbounds ({ [114 x i8*], [23 x i8*] }, { [114 x i8*], [23 x i8*] }* @_ZTVN8printing12PrintManagerE, i64 0, inrange i32 0, i64 2) to i32 (...)**), i32 (...)*** %6, align 8
  store i32 (...)** bitcast (i8** getelementptr inbounds ({ [114 x i8*], [23 x i8*] }, { [114 x i8*], [23 x i8*] }* @_ZTVN8printing12PrintManagerE, i64 0, inrange i32 1, i64 2) to i32 (...)**), i32 (...)*** %5, align 8
  %7 = getelementptr inbounds %"class.printing::PrintManager", %"class.printing::PrintManager"* %0, i64 0, i32 2
  store i32 0, i32* %7, align 8
  %8 = getelementptr inbounds %"class.printing::PrintManager", %"class.printing::PrintManager"* %0, i64 0, i32 3
  store i32 0, i32* %8, align 4
  %9 = getelementptr inbounds %"class.printing::PrintManager", %"class.printing::PrintManager"* %0, i64 0, i32 4
  tail call void @_ZN7content27WebContentsFrameReceiverSetIN8printing5mojom16PrintManagerHostEEC2EPNS_11WebContentsEPS3_(%"class.content::WebContentsFrameReceiverSet"* %9, %"class.content::WebContents"* %1, %"class.printing::mojom::PrintManagerHost"* %4)
  %10 = getelementptr inbounds %"class.printing::PrintManager", %"class.printing::PrintManager"* %0, i64 0, i32 5, i32 0, i32 1, i32 0, i32 0, i32 0
  %11 = getelementptr inbounds %"class.printing::PrintManager", %"class.printing::PrintManager"* %0, i64 0, i32 5, i32 0, i32 1, i32 0, i32 0
  %12 = getelementptr inbounds %"class.printing::PrintManager", %"class.printing::PrintManager"* %0, i64 0, i32 5, i32 0, i32 0
  %13 = bitcast %"class.std::__1::__tree_node_base"** %10 to i8*
  tail call void @llvm.memset.p0i8.i64(i8* align 8 %13, i8 0, i64 16, i1 false) #15
  store %"class.std::__1::__tree_end_node"* %11, %"class.std::__1::__tree_end_node"** %12, align 8
  ret void
}

declare void @_ZN7content19WebContentsObserverC2EPNS_11WebContentsE(%"class.content::WebContentsObserver"*, %"class.content::WebContents"*) unnamed_addr #1

; Function Attrs: nounwind ssp uwtable
define linkonce_odr hidden void @_ZN7content27WebContentsFrameReceiverSetIN8printing5mojom16PrintManagerHostEEC2EPNS_11WebContentsEPS3_(%"class.content::WebContentsFrameReceiverSet"*, %"class.content::WebContents"*, %"class.printing::mojom::PrintManagerHost"*) unnamed_addr #0 comdat align 2 {
  %4 = alloca %"class.std::__1::basic_string", align 8
  %5 = getelementptr inbounds %"class.content::WebContentsFrameReceiverSet", %"class.content::WebContentsFrameReceiverSet"* %0, i64 0, i32 0
  %6 = bitcast %"class.std::__1::basic_string"* %4 to i8*
  call void @llvm.lifetime.start.p0i8(i64 24, i8* nonnull %6) #15
  %7 = tail call i64 @strlen(i8* getelementptr inbounds ([0 x i8], [0 x i8]* @_ZN8printing5mojom16PrintManagerHost5Name_E, i64 0, i64 0)) #15
  %8 = icmp ugt i64 %7, -17
  br i1 %8, label %9, label %11

9:                                                ; preds = %3
  %10 = bitcast %"class.std::__1::basic_string"* %4 to %"class.std::__1::__basic_string_common"*
  call void @_ZNKSt3__121__basic_string_commonILb1EE20__throw_length_errorEv(%"class.std::__1::__basic_string_common"* nonnull %10) #16
  unreachable

11:                                               ; preds = %3
  %12 = icmp ult i64 %7, 23
  br i1 %12, label %22, label %13

13:                                               ; preds = %11
  %14 = add nuw i64 %7, 16
  %15 = and i64 %14, -16
  %16 = tail call i8* @_Znwm(i64 %15) #17
  %17 = getelementptr inbounds %"class.std::__1::basic_string", %"class.std::__1::basic_string"* %4, i64 0, i32 0, i32 0, i32 0, i32 0, i32 0, i32 0
  store i8* %16, i8** %17, align 8
  %18 = or i64 %15, -9223372036854775808
  %19 = getelementptr inbounds %"class.std::__1::basic_string", %"class.std::__1::basic_string"* %4, i64 0, i32 0, i32 0, i32 0, i32 0, i32 0, i32 2
  store i64 %18, i64* %19, align 8
  %20 = getelementptr inbounds %"class.std::__1::basic_string", %"class.std::__1::basic_string"* %4, i64 0, i32 0, i32 0, i32 0, i32 0, i32 0, i32 1
  store i64 %7, i64* %20, align 8
  %21 = bitcast %"class.std::__1::basic_string"* %4 to %"struct.std::__1::basic_string<char, std::__1::char_traits<char>, std::__1::allocator<char> >::__short"*
  br label %27

22:                                               ; preds = %11
  %23 = trunc i64 %7 to i8
  %24 = bitcast %"class.std::__1::basic_string"* %4 to %"struct.std::__1::basic_string<char, std::__1::char_traits<char>, std::__1::allocator<char> >::__short"*
  %25 = getelementptr inbounds %"struct.std::__1::basic_string<char, std::__1::char_traits<char>, std::__1::allocator<char> >::__short", %"struct.std::__1::basic_string<char, std::__1::char_traits<char>, std::__1::allocator<char> >::__short"* %24, i64 0, i32 1, i32 0
  store i8 %23, i8* %25, align 1
  %26 = icmp eq i64 %7, 0
  br i1 %26, label %30, label %27

27:                                               ; preds = %22, %13
  %28 = phi %"struct.std::__1::basic_string<char, std::__1::char_traits<char>, std::__1::allocator<char> >::__short"* [ %24, %22 ], [ %21, %13 ]
  %29 = phi i8* [ %6, %22 ], [ %16, %13 ]
  call void @llvm.memcpy.p0i8.p0i8.i64(i8* nonnull align 1 %29, i8* align 1 getelementptr inbounds ([0 x i8], [0 x i8]* @_ZN8printing5mojom16PrintManagerHost5Name_E, i64 0, i64 0), i64 %7, i1 false) #15
  br label %30

30:                                               ; preds = %22, %27
  %31 = phi %"struct.std::__1::basic_string<char, std::__1::char_traits<char>, std::__1::allocator<char> >::__short"* [ %24, %22 ], [ %28, %27 ]
  %32 = phi i8* [ %6, %22 ], [ %29, %27 ]
  %33 = getelementptr inbounds i8, i8* %32, i64 %7
  store i8 0, i8* %33, align 1
  call void @_ZN7content22WebContentsReceiverSetC2EPNS_11WebContentsERKNSt3__112basic_stringIcNS3_11char_traitsIcEENS3_9allocatorIcEEEE(%"class.content::WebContentsReceiverSet"* %5, %"class.content::WebContents"* %1, %"class.std::__1::basic_string"* nonnull dereferenceable(24) %4) #15
  %34 = getelementptr inbounds %"struct.std::__1::basic_string<char, std::__1::char_traits<char>, std::__1::allocator<char> >::__short", %"struct.std::__1::basic_string<char, std::__1::char_traits<char>, std::__1::allocator<char> >::__short"* %31, i64 0, i32 1, i32 0
  %35 = load i8, i8* %34, align 1
  %36 = icmp slt i8 %35, 0
  br i1 %36, label %37, label %40

37:                                               ; preds = %30
  %38 = getelementptr inbounds %"class.std::__1::basic_string", %"class.std::__1::basic_string"* %4, i64 0, i32 0, i32 0, i32 0, i32 0, i32 0, i32 0
  %39 = load i8*, i8** %38, align 8
  call void @_ZdlPv(i8* %39) #17
  br label %40

40:                                               ; preds = %30, %37
  call void @llvm.lifetime.end.p0i8(i64 24, i8* nonnull %6) #15
  %41 = getelementptr inbounds %"class.content::WebContentsFrameReceiverSet", %"class.content::WebContentsFrameReceiverSet"* %0, i64 0, i32 1
  %42 = getelementptr inbounds %"class.content::WebContentsFrameReceiverSet<printing::mojom::PrintManagerHost>::FrameInterfaceBinder", %"class.content::WebContentsFrameReceiverSet<printing::mojom::PrintManagerHost>::FrameInterfaceBinder"* %41, i64 0, i32 0, i32 0
  store i32 (...)** bitcast (i8** getelementptr inbounds ({ [6 x i8*] }, { [6 x i8*] }* @_ZTVN7content22WebContentsReceiverSet6BinderE, i64 0, inrange i32 0, i64 2) to i32 (...)**), i32 (...)*** %42, align 8
  %43 = getelementptr inbounds %"class.content::WebContentsFrameReceiverSet", %"class.content::WebContentsFrameReceiverSet"* %0, i64 0, i32 1, i32 1
  call void @_ZN7content19WebContentsObserverC2EPNS_11WebContentsE(%"class.content::WebContentsObserver"* %43, %"class.content::WebContents"* %1) #15
  %44 = bitcast %"class.content::WebContentsFrameReceiverSet<printing::mojom::PrintManagerHost>::FrameInterfaceBinder"* %41 to <2 x i32 (...)**>*
  store <2 x i32 (...)**> <i32 (...)** bitcast (i8** getelementptr inbounds ({ [7 x i8*], [109 x i8*] }, { [7 x i8*], [109 x i8*] }* @_ZTVN7content27WebContentsFrameReceiverSetIN8printing5mojom16PrintManagerHostEE20FrameInterfaceBinderE, i64 0, inrange i32 0, i64 2) to i32 (...)**), i32 (...)** bitcast (i8** getelementptr inbounds ({ [7 x i8*], [109 x i8*] }, { [7 x i8*], [109 x i8*] }* @_ZTVN7content27WebContentsFrameReceiverSetIN8printing5mojom16PrintManagerHostEE20FrameInterfaceBinderE, i64 0, inrange i32 1, i64 2) to i32 (...)**)>, <2 x i32 (...)**>* %44, align 8
  %45 = getelementptr inbounds %"class.content::WebContentsFrameReceiverSet", %"class.content::WebContentsFrameReceiverSet"* %0, i64 0, i32 1, i32 2
  store %"class.printing::mojom::PrintManagerHost"* %2, %"class.printing::mojom::PrintManagerHost"** %45, align 8
  %46 = getelementptr inbounds %"class.content::WebContentsFrameReceiverSet", %"class.content::WebContentsFrameReceiverSet"* %0, i64 0, i32 1, i32 3, i32 0
  call void @_ZN4mojo16ReceiverSetStateC1Ev(%"class.mojo::ReceiverSetState"* %46) #15
  %47 = getelementptr inbounds %"class.content::WebContentsFrameReceiverSet", %"class.content::WebContentsFrameReceiverSet"* %0, i64 0, i32 1, i32 4, i32 0, i32 1, i32 0, i32 0, i32 0
  %48 = getelementptr inbounds %"class.content::WebContentsFrameReceiverSet", %"class.content::WebContentsFrameReceiverSet"* %0, i64 0, i32 1, i32 4, i32 0, i32 1, i32 0, i32 0
  %49 = getelementptr inbounds %"class.content::WebContentsFrameReceiverSet", %"class.content::WebContentsFrameReceiverSet"* %0, i64 0, i32 1, i32 4, i32 0, i32 0
  %50 = bitcast %"class.std::__1::__tree_node_base"** %47 to i8*
  call void @llvm.memset.p0i8.i64(i8* align 8 %50, i8 0, i64 16, i1 false) #15
  store %"class.std::__1::__tree_end_node"* %48, %"class.std::__1::__tree_end_node"** %49, align 8
  %51 = getelementptr inbounds %"class.content::WebContentsFrameReceiverSet", %"class.content::WebContentsFrameReceiverSet"* %0, i64 0, i32 2
  store %"class.content::RenderFrameHost"* null, %"class.content::RenderFrameHost"** %51, align 8
  %52 = getelementptr inbounds %"class.content::WebContentsFrameReceiverSet<printing::mojom::PrintManagerHost>::FrameInterfaceBinder", %"class.content::WebContentsFrameReceiverSet<printing::mojom::PrintManagerHost>::FrameInterfaceBinder"* %41, i64 0, i32 0
  %53 = getelementptr inbounds %"class.content::WebContentsFrameReceiverSet", %"class.content::WebContentsFrameReceiverSet"* %0, i64 0, i32 0, i32 1
  store %"class.content::WebContentsReceiverSet::Binder"* %52, %"class.content::WebContentsReceiverSet::Binder"** %53, align 8
  ret void
}

; Function Attrs: nounwind ssp uwtable
define hidden void @_ZN8printing12PrintManagerD2Ev(%"class.printing::PrintManager"*) unnamed_addr #0 align 2 {
  %2 = getelementptr inbounds %"class.printing::PrintManager", %"class.printing::PrintManager"* %0, i64 0, i32 0, i32 0, i32 0
  store i32 (...)** bitcast (i8** getelementptr inbounds ({ [114 x i8*], [23 x i8*] }, { [114 x i8*], [23 x i8*] }* @_ZTVN8printing12PrintManagerE, i64 0, inrange i32 0, i64 2) to i32 (...)**), i32 (...)*** %2, align 8
  %3 = getelementptr inbounds %"class.printing::PrintManager", %"class.printing::PrintManager"* %0, i64 0, i32 1, i32 0
  store i32 (...)** bitcast (i8** getelementptr inbounds ({ [114 x i8*], [23 x i8*] }, { [114 x i8*], [23 x i8*] }* @_ZTVN8printing12PrintManagerE, i64 0, inrange i32 1, i64 2) to i32 (...)**), i32 (...)*** %3, align 8
  %4 = getelementptr inbounds %"class.printing::PrintManager", %"class.printing::PrintManager"* %0, i64 0, i32 5, i32 0
  %5 = getelementptr inbounds %"class.printing::PrintManager", %"class.printing::PrintManager"* %0, i64 0, i32 5, i32 0, i32 1, i32 0, i32 0
  %6 = bitcast %"class.std::__1::__tree_end_node"* %5 to %"class.std::__1::__tree_node.335"**
  %7 = load %"class.std::__1::__tree_node.335"*, %"class.std::__1::__tree_node.335"** %6, align 8
  tail call void @_ZNSt3__16__treeINS_12__value_typeIPN7content15RenderFrameHostEN4mojo16AssociatedRemoteIN8printing5mojom16PrintRenderFrameEEEEENS_19__map_value_compareIS4_SB_NS_4lessIS4_EELb1EEENS_9allocatorISB_EEE7destroyEPNS_11__tree_nodeISB_PvEE(%"class.std::__1::__tree.36"* %4, %"class.std::__1::__tree_node.335"* %7) #15
  %8 = getelementptr inbounds %"class.printing::PrintManager", %"class.printing::PrintManager"* %0, i64 0, i32 4, i32 1, i32 0, i32 0
  %9 = getelementptr inbounds %"class.printing::PrintManager", %"class.printing::PrintManager"* %0, i64 0, i32 4, i32 1, i32 1
  %10 = bitcast i32 (...)*** %8 to <2 x i32 (...)**>*
  store <2 x i32 (...)**> <i32 (...)** bitcast (i8** getelementptr inbounds ({ [7 x i8*], [109 x i8*] }, { [7 x i8*], [109 x i8*] }* @_ZTVN7content27WebContentsFrameReceiverSetIN8printing5mojom16PrintManagerHostEE20FrameInterfaceBinderE, i64 0, inrange i32 0, i64 2) to i32 (...)**), i32 (...)** bitcast (i8** getelementptr inbounds ({ [7 x i8*], [109 x i8*] }, { [7 x i8*], [109 x i8*] }* @_ZTVN7content27WebContentsFrameReceiverSetIN8printing5mojom16PrintManagerHostEE20FrameInterfaceBinderE, i64 0, inrange i32 1, i64 2) to i32 (...)**)>, <2 x i32 (...)**>* %10, align 8
  %11 = getelementptr inbounds %"class.printing::PrintManager", %"class.printing::PrintManager"* %0, i64 0, i32 4, i32 1, i32 4, i32 0
  %12 = getelementptr inbounds %"class.printing::PrintManager", %"class.printing::PrintManager"* %0, i64 0, i32 4, i32 1, i32 4, i32 0, i32 1, i32 0, i32 0
  %13 = bitcast %"class.std::__1::__tree_end_node"* %12 to %"class.std::__1::__tree_node"**
  %14 = load %"class.std::__1::__tree_node"*, %"class.std::__1::__tree_node"** %13, align 8
  tail call void @_ZNSt3__16__treeINS_12__value_typeIPN7content15RenderFrameHostENS_6vectorImNS_9allocatorImEEEEEENS_19__map_value_compareIS4_S9_NS_4lessIS4_EELb1EEENS6_IS9_EEE7destroyEPNS_11__tree_nodeIS9_PvEE(%"class.std::__1::__tree.25"* %11, %"class.std::__1::__tree_node"* %14) #15
  %15 = getelementptr inbounds %"class.printing::PrintManager", %"class.printing::PrintManager"* %0, i64 0, i32 4, i32 1, i32 3, i32 0
  tail call void @_ZN4mojo16ReceiverSetStateD1Ev(%"class.mojo::ReceiverSetState"* %15) #15
  tail call void @_ZN7content19WebContentsObserverD2Ev(%"class.content::WebContentsObserver"* %9) #15
  %16 = getelementptr inbounds %"class.printing::PrintManager", %"class.printing::PrintManager"* %0, i64 0, i32 4, i32 0
  tail call void @_ZN7content22WebContentsReceiverSetD2Ev(%"class.content::WebContentsReceiverSet"* %16) #15
  %17 = getelementptr inbounds %"class.printing::PrintManager", %"class.printing::PrintManager"* %0, i64 0, i32 0
  tail call void @_ZN7content19WebContentsObserverD2Ev(%"class.content::WebContentsObserver"* %17) #15
  ret void
}

; Function Attrs: nounwind
declare void @_ZN7content19WebContentsObserverD2Ev(%"class.content::WebContentsObserver"*) unnamed_addr #2

; Function Attrs: nounwind ssp uwtable
define hidden void @_ZThn16_N8printing12PrintManagerD1Ev(%"class.printing::PrintManager"*) unnamed_addr #0 align 2 {
  %2 = getelementptr inbounds %"class.printing::PrintManager", %"class.printing::PrintManager"* %0, i64 -1, i32 5, i32 0, i32 1
  %3 = bitcast %"class.std::__1::__compressed_pair.37"* %2 to i32 (...)***
  store i32 (...)** bitcast (i8** getelementptr inbounds ({ [114 x i8*], [23 x i8*] }, { [114 x i8*], [23 x i8*] }* @_ZTVN8printing12PrintManagerE, i64 0, inrange i32 0, i64 2) to i32 (...)**), i32 (...)*** %3, align 8
  %4 = getelementptr inbounds %"class.std::__1::__compressed_pair.37", %"class.std::__1::__compressed_pair.37"* %2, i64 2
  %5 = bitcast %"class.std::__1::__compressed_pair.37"* %4 to i32 (...)***
  store i32 (...)** bitcast (i8** getelementptr inbounds ({ [114 x i8*], [23 x i8*] }, { [114 x i8*], [23 x i8*] }* @_ZTVN8printing12PrintManagerE, i64 0, inrange i32 1, i64 2) to i32 (...)**), i32 (...)*** %5, align 8
  %6 = getelementptr inbounds %"class.std::__1::__compressed_pair.37", %"class.std::__1::__compressed_pair.37"* %2, i64 24
  %7 = bitcast %"class.std::__1::__compressed_pair.37"* %6 to %"class.std::__1::__tree.36"*
  %8 = getelementptr inbounds %"class.std::__1::__compressed_pair.37", %"class.std::__1::__compressed_pair.37"* %2, i64 25, i32 0, i32 0
  %9 = bitcast %"class.std::__1::__tree_end_node"* %8 to %"class.std::__1::__tree_node.335"**
  %10 = load %"class.std::__1::__tree_node.335"*, %"class.std::__1::__tree_node.335"** %9, align 8
  tail call void @_ZNSt3__16__treeINS_12__value_typeIPN7content15RenderFrameHostEN4mojo16AssociatedRemoteIN8printing5mojom16PrintRenderFrameEEEEENS_19__map_value_compareIS4_SB_NS_4lessIS4_EELb1EEENS_9allocatorISB_EEE7destroyEPNS_11__tree_nodeISB_PvEE(%"class.std::__1::__tree.36"* %7, %"class.std::__1::__tree_node.335"* %10) #15
  %11 = getelementptr inbounds %"class.std::__1::__compressed_pair.37", %"class.std::__1::__compressed_pair.37"* %2, i64 6
  %12 = getelementptr inbounds %"class.std::__1::__compressed_pair.37", %"class.std::__1::__compressed_pair.37"* %2, i64 7
  %13 = bitcast %"class.std::__1::__compressed_pair.37"* %12 to %"class.content::WebContentsObserver"*
  %14 = bitcast %"class.std::__1::__compressed_pair.37"* %11 to <2 x i32 (...)**>*
  store <2 x i32 (...)**> <i32 (...)** bitcast (i8** getelementptr inbounds ({ [7 x i8*], [109 x i8*] }, { [7 x i8*], [109 x i8*] }* @_ZTVN7content27WebContentsFrameReceiverSetIN8printing5mojom16PrintManagerHostEE20FrameInterfaceBinderE, i64 0, inrange i32 0, i64 2) to i32 (...)**), i32 (...)** bitcast (i8** getelementptr inbounds ({ [7 x i8*], [109 x i8*] }, { [7 x i8*], [109 x i8*] }* @_ZTVN7content27WebContentsFrameReceiverSetIN8printing5mojom16PrintManagerHostEE20FrameInterfaceBinderE, i64 0, inrange i32 1, i64 2) to i32 (...)**)>, <2 x i32 (...)**>* %14, align 8
  %15 = getelementptr inbounds %"class.std::__1::__compressed_pair.37", %"class.std::__1::__compressed_pair.37"* %2, i64 20
  %16 = bitcast %"class.std::__1::__compressed_pair.37"* %15 to %"class.std::__1::__tree.25"*
  %17 = getelementptr inbounds %"class.std::__1::__compressed_pair.37", %"class.std::__1::__compressed_pair.37"* %2, i64 21, i32 0, i32 0
  %18 = bitcast %"class.std::__1::__tree_end_node"* %17 to %"class.std::__1::__tree_node"**
  %19 = load %"class.std::__1::__tree_node"*, %"class.std::__1::__tree_node"** %18, align 8
  tail call void @_ZNSt3__16__treeINS_12__value_typeIPN7content15RenderFrameHostENS_6vectorImNS_9allocatorImEEEEEENS_19__map_value_compareIS4_S9_NS_4lessIS4_EELb1EEENS6_IS9_EEE7destroyEPNS_11__tree_nodeIS9_PvEE(%"class.std::__1::__tree.25"* %16, %"class.std::__1::__tree_node"* %19) #15
  %20 = getelementptr inbounds %"class.std::__1::__compressed_pair.37", %"class.std::__1::__compressed_pair.37"* %2, i64 10
  %21 = bitcast %"class.std::__1::__compressed_pair.37"* %20 to %"class.mojo::ReceiverSetState"*
  tail call void @_ZN4mojo16ReceiverSetStateD1Ev(%"class.mojo::ReceiverSetState"* %21) #15
  tail call void @_ZN7content19WebContentsObserverD2Ev(%"class.content::WebContentsObserver"* %13) #15
  %22 = getelementptr inbounds %"class.std::__1::__compressed_pair.37", %"class.std::__1::__compressed_pair.37"* %2, i64 4
  %23 = bitcast %"class.std::__1::__compressed_pair.37"* %22 to %"class.content::WebContentsReceiverSet"*
  tail call void @_ZN7content22WebContentsReceiverSetD2Ev(%"class.content::WebContentsReceiverSet"* %23) #15
  %24 = bitcast %"class.std::__1::__compressed_pair.37"* %2 to %"class.content::WebContentsObserver"*
  tail call void @_ZN7content19WebContentsObserverD2Ev(%"class.content::WebContentsObserver"* %24) #15
  ret void
}

; Function Attrs: noreturn nounwind ssp uwtable
define hidden void @_ZN8printing12PrintManagerD0Ev(%"class.printing::PrintManager"* nocapture readnone) unnamed_addr #3 align 2 {
  tail call void @llvm.trap() #16
  unreachable
}

; Function Attrs: cold noreturn nounwind
declare void @llvm.trap() #4

; Function Attrs: noreturn nounwind ssp uwtable
define hidden void @_ZThn16_N8printing12PrintManagerD0Ev(%"class.printing::PrintManager"* nocapture readnone) unnamed_addr #3 align 2 {
  tail call void @llvm.trap() #16
  unreachable
}

; Function Attrs: nounwind ssp uwtable
define hidden void @_ZN8printing12PrintManager18RenderFrameDeletedEPN7content15RenderFrameHostE(%"class.printing::PrintManager"*, %"class.content::RenderFrameHost"*) unnamed_addr #0 align 2 {
  %3 = getelementptr inbounds %"class.printing::PrintManager", %"class.printing::PrintManager"* %0, i64 0, i32 5, i32 0
  %4 = getelementptr inbounds %"class.printing::PrintManager", %"class.printing::PrintManager"* %0, i64 0, i32 5, i32 0, i32 1, i32 0, i32 0
  %5 = bitcast %"class.std::__1::__tree_end_node"* %4 to %"class.std::__1::__tree_node.335"**
  %6 = load %"class.std::__1::__tree_node.335"*, %"class.std::__1::__tree_node.335"** %5, align 8
  %7 = icmp eq %"class.std::__1::__tree_node.335"* %6, null
  br i1 %7, label %31, label %8

8:                                                ; preds = %2, %8
  %9 = phi %"class.std::__1::__tree_end_node"* [ %19, %8 ], [ %4, %2 ]
  %10 = phi %"class.std::__1::__tree_node.335"* [ %20, %8 ], [ %6, %2 ]
  %11 = getelementptr inbounds %"class.std::__1::__tree_node.335", %"class.std::__1::__tree_node.335"* %10, i64 0, i32 1, i32 0, i32 0
  %12 = load %"class.content::RenderFrameHost"*, %"class.content::RenderFrameHost"** %11, align 8
  %13 = icmp ult %"class.content::RenderFrameHost"* %12, %1
  %14 = getelementptr inbounds %"class.std::__1::__tree_node.335", %"class.std::__1::__tree_node.335"* %10, i64 0, i32 0, i32 1
  %15 = bitcast %"class.std::__1::__tree_node_base"** %14 to %"class.std::__1::__tree_node.335"**
  %16 = getelementptr inbounds %"class.std::__1::__tree_node.335", %"class.std::__1::__tree_node.335"* %10, i64 0, i32 0, i32 0
  %17 = bitcast %"class.std::__1::__tree_node.335"* %10 to %"class.std::__1::__tree_node.335"**
  %18 = select i1 %13, %"class.std::__1::__tree_node.335"** %15, %"class.std::__1::__tree_node.335"** %17
  %19 = select i1 %13, %"class.std::__1::__tree_end_node"* %9, %"class.std::__1::__tree_end_node"* %16
  %20 = load %"class.std::__1::__tree_node.335"*, %"class.std::__1::__tree_node.335"** %18, align 8
  %21 = icmp eq %"class.std::__1::__tree_node.335"* %20, null
  br i1 %21, label %22, label %8

22:                                               ; preds = %8
  %23 = icmp eq %"class.std::__1::__tree_end_node"* %19, %4
  br i1 %23, label %31, label %24

24:                                               ; preds = %22
  %25 = getelementptr inbounds %"class.std::__1::__tree_end_node", %"class.std::__1::__tree_end_node"* %19, i64 4
  %26 = bitcast %"class.std::__1::__tree_end_node"* %25 to %"class.content::RenderFrameHost"**
  %27 = load %"class.content::RenderFrameHost"*, %"class.content::RenderFrameHost"** %26, align 8
  %28 = icmp ugt %"class.content::RenderFrameHost"* %27, %1
  br i1 %28, label %31, label %29

29:                                               ; preds = %24
  %30 = tail call %"class.std::__1::__tree_end_node"* @_ZNSt3__16__treeINS_12__value_typeIPN7content15RenderFrameHostEN4mojo16AssociatedRemoteIN8printing5mojom16PrintRenderFrameEEEEENS_19__map_value_compareIS4_SB_NS_4lessIS4_EELb1EEENS_9allocatorISB_EEE5eraseENS_21__tree_const_iteratorISB_PNS_11__tree_nodeISB_PvEElEE(%"class.std::__1::__tree.36"* %3, %"class.std::__1::__tree_end_node"* %19) #15
  br label %31

31:                                               ; preds = %2, %22, %24, %29
  ret void
}

; Function Attrs: nofree norecurse nounwind ssp uwtable writeonly
define hidden void @_ZN8printing12PrintManager23DidGetPrintedPagesCountEij(%"class.printing::PrintManager"* nocapture, i32, i32) unnamed_addr #5 align 2 {
  %4 = getelementptr inbounds %"class.printing::PrintManager", %"class.printing::PrintManager"* %0, i64 0, i32 2
  store i32 %2, i32* %4, align 8
  ret void
}

; Function Attrs: nofree norecurse nounwind ssp uwtable writeonly
define hidden void @_ZThn16_N8printing12PrintManager23DidGetPrintedPagesCountEij(%"class.printing::PrintManager"* nocapture, i32, i32) unnamed_addr #5 align 2 {
  %4 = getelementptr inbounds %"class.printing::PrintManager", %"class.printing::PrintManager"* %0, i64 -1, i32 5, i32 0, i32 1
  %5 = getelementptr inbounds %"class.std::__1::__compressed_pair.37", %"class.std::__1::__compressed_pair.37"* %4, i64 3
  %6 = bitcast %"class.std::__1::__compressed_pair.37"* %5 to i32*
  store i32 %2, i32* %6, align 8
  ret void
}

; Function Attrs: norecurse nounwind readnone ssp uwtable
define hidden void @_ZN8printing12PrintManager18DidShowPrintDialogEv(%"class.printing::PrintManager"* nocapture) unnamed_addr #6 align 2 {
  ret void
}

; Function Attrs: norecurse nounwind readnone ssp uwtable
define hidden void @_ZThn16_N8printing12PrintManager18DidShowPrintDialogEv(%"class.printing::PrintManager"* nocapture) unnamed_addr #6 align 2 {
  ret void
}

; Function Attrs: nounwind ssp uwtable
define hidden void @_ZN8printing12PrintManager16DidPrintDocumentEN4mojo9StructPtrINS_5mojom22DidPrintDocumentParamsEEEN4base12OnceCallbackIFvbEEE(%"class.printing::PrintManager"* nocapture readnone, %"class.mojo::StructPtr"* nocapture readnone, %"class.base::OnceCallback.59"* nocapture) unnamed_addr #0 align 2 {
  %4 = alloca %"class.base::OnceCallback.59", align 8
  %5 = bitcast %"class.base::OnceCallback.59"* %4 to i8*
  call void @llvm.lifetime.start.p0i8(i64 8, i8* nonnull %5) #15
  %6 = getelementptr inbounds %"class.base::OnceCallback.59", %"class.base::OnceCallback.59"* %2, i64 0, i32 0, i32 0, i32 0
  %7 = bitcast %"class.base::OnceCallback.59"* %2 to i64*
  %8 = load i64, i64* %7, align 8
  %9 = bitcast %"class.base::OnceCallback.59"* %4 to i64*
  store i64 %8, i64* %9, align 8
  store %"class.base::internal::BindStateBase"* null, %"class.base::internal::BindStateBase"** %6, align 8
  %10 = getelementptr inbounds %"class.base::OnceCallback.59", %"class.base::OnceCallback.59"* %4, i64 0, i32 0
  %11 = inttoptr i64 %8 to %"class.base::internal::BindStateBase"*
  %12 = getelementptr inbounds %"class.base::internal::BindStateBase", %"class.base::internal::BindStateBase"* %11, i64 0, i32 1
  %13 = bitcast void ()** %12 to void (%"class.base::internal::BindStateBase"*, i1)**
  %14 = load void (%"class.base::internal::BindStateBase"*, i1)*, void (%"class.base::internal::BindStateBase"*, i1)** %13, align 8
  tail call void %14(%"class.base::internal::BindStateBase"* %11, i1 zeroext false) #15
  call void @_ZN4base8internal12CallbackBaseD2Ev(%"class.base::internal::CallbackBase"* nonnull %10) #15
  call void @llvm.lifetime.end.p0i8(i64 8, i8* nonnull %5) #15
  ret void
}

; Function Attrs: nounwind ssp uwtable
define hidden void @_ZThn16_N8printing12PrintManager16DidPrintDocumentEN4mojo9StructPtrINS_5mojom22DidPrintDocumentParamsEEEN4base12OnceCallbackIFvbEEE(%"class.printing::PrintManager"* nocapture readnone, %"class.mojo::StructPtr"* nocapture readnone, %"class.base::OnceCallback.59"* nocapture) unnamed_addr #0 align 2 {
  %4 = alloca %"class.base::OnceCallback.59", align 8
  %5 = bitcast %"class.base::OnceCallback.59"* %4 to i8*
  call void @llvm.lifetime.start.p0i8(i64 8, i8* nonnull %5) #15
  %6 = getelementptr inbounds %"class.base::OnceCallback.59", %"class.base::OnceCallback.59"* %2, i64 0, i32 0, i32 0, i32 0
  %7 = bitcast %"class.base::OnceCallback.59"* %2 to i64*
  %8 = load i64, i64* %7, align 8
  %9 = bitcast %"class.base::OnceCallback.59"* %4 to i64*
  store i64 %8, i64* %9, align 8
  store %"class.base::internal::BindStateBase"* null, %"class.base::internal::BindStateBase"** %6, align 8
  %10 = getelementptr inbounds %"class.base::OnceCallback.59", %"class.base::OnceCallback.59"* %4, i64 0, i32 0
  %11 = inttoptr i64 %8 to %"class.base::internal::BindStateBase"*
  %12 = getelementptr inbounds %"class.base::internal::BindStateBase", %"class.base::internal::BindStateBase"* %11, i64 0, i32 1
  %13 = bitcast void ()** %12 to void (%"class.base::internal::BindStateBase"*, i1)**
  %14 = load void (%"class.base::internal::BindStateBase"*, i1)*, void (%"class.base::internal::BindStateBase"*, i1)** %13, align 8
  tail call void %14(%"class.base::internal::BindStateBase"* %11, i1 zeroext false) #15
  call void @_ZN4base8internal12CallbackBaseD2Ev(%"class.base::internal::CallbackBase"* nonnull %10) #15
  call void @llvm.lifetime.end.p0i8(i64 8, i8* nonnull %5) #15
  ret void
}

; Function Attrs: norecurse nounwind readnone ssp uwtable
define hidden void @_ZN8printing12PrintManager31ShowInvalidPrinterSettingsErrorEv(%"class.printing::PrintManager"* nocapture) unnamed_addr #6 align 2 {
  ret void
}

; Function Attrs: norecurse nounwind readnone ssp uwtable
define hidden void @_ZThn16_N8printing12PrintManager31ShowInvalidPrinterSettingsErrorEv(%"class.printing::PrintManager"* nocapture) unnamed_addr #6 align 2 {
  ret void
}

; Function Attrs: norecurse nounwind readnone ssp uwtable
define hidden void @_ZN8printing12PrintManager14PrintingFailedEi(%"class.printing::PrintManager"* nocapture, i32) unnamed_addr #6 align 2 {
  ret void
}

; Function Attrs: norecurse nounwind readonly ssp uwtable
define hidden zeroext i1 @_ZNK8printing12PrintManager13IsValidCookieEi(%"class.printing::PrintManager"* nocapture readonly, i32) local_unnamed_addr #7 align 2 {
  %3 = icmp sgt i32 %1, 0
  br i1 %3, label %4, label %8

4:                                                ; preds = %2
  %5 = getelementptr inbounds %"class.printing::PrintManager", %"class.printing::PrintManager"* %0, i64 0, i32 3
  %6 = load i32, i32* %5, align 4
  %7 = icmp eq i32 %6, %1
  br label %8

8:                                                ; preds = %4, %2
  %9 = phi i1 [ false, %2 ], [ %7, %4 ]
  ret i1 %9
}

; Function Attrs: norecurse nounwind readnone ssp uwtable
define hidden void @_ZThn16_N8printing12PrintManager14PrintingFailedEi(%"class.printing::PrintManager"* nocapture, i32) unnamed_addr #6 align 2 {
  ret void
}

; Function Attrs: nounwind readonly ssp uwtable
define hidden zeroext i1 @_ZNK8printing12PrintManager27IsPrintRenderFrameConnectedEPN7content15RenderFrameHostE(%"class.printing::PrintManager"*, %"class.content::RenderFrameHost"*) local_unnamed_addr #8 align 2 {
  %3 = getelementptr inbounds %"class.printing::PrintManager", %"class.printing::PrintManager"* %0, i64 0, i32 5, i32 0, i32 1, i32 0, i32 0
  %4 = bitcast %"class.std::__1::__tree_end_node"* %3 to %"class.std::__1::__tree_node.335"**
  %5 = load %"class.std::__1::__tree_node.335"*, %"class.std::__1::__tree_node.335"** %4, align 8
  %6 = icmp eq %"class.std::__1::__tree_node.335"* %5, null
  br i1 %6, label %37, label %7

7:                                                ; preds = %2, %7
  %8 = phi %"class.std::__1::__tree_end_node"* [ %18, %7 ], [ %3, %2 ]
  %9 = phi %"class.std::__1::__tree_node.335"* [ %19, %7 ], [ %5, %2 ]
  %10 = getelementptr inbounds %"class.std::__1::__tree_node.335", %"class.std::__1::__tree_node.335"* %9, i64 0, i32 1, i32 0, i32 0
  %11 = load %"class.content::RenderFrameHost"*, %"class.content::RenderFrameHost"** %10, align 8
  %12 = icmp ult %"class.content::RenderFrameHost"* %11, %1
  %13 = getelementptr inbounds %"class.std::__1::__tree_node.335", %"class.std::__1::__tree_node.335"* %9, i64 0, i32 0, i32 1
  %14 = bitcast %"class.std::__1::__tree_node_base"** %13 to %"class.std::__1::__tree_node.335"**
  %15 = getelementptr inbounds %"class.std::__1::__tree_node.335", %"class.std::__1::__tree_node.335"* %9, i64 0, i32 0, i32 0
  %16 = bitcast %"class.std::__1::__tree_node.335"* %9 to %"class.std::__1::__tree_node.335"**
  %17 = select i1 %12, %"class.std::__1::__tree_node.335"** %14, %"class.std::__1::__tree_node.335"** %16
  %18 = select i1 %12, %"class.std::__1::__tree_end_node"* %8, %"class.std::__1::__tree_end_node"* %15
  %19 = load %"class.std::__1::__tree_node.335"*, %"class.std::__1::__tree_node.335"** %17, align 8
  %20 = icmp eq %"class.std::__1::__tree_node.335"* %19, null
  br i1 %20, label %21, label %7

21:                                               ; preds = %7
  %22 = icmp eq %"class.std::__1::__tree_end_node"* %18, %3
  br i1 %22, label %37, label %23

23:                                               ; preds = %21
  %24 = getelementptr inbounds %"class.std::__1::__tree_end_node", %"class.std::__1::__tree_end_node"* %18, i64 4
  %25 = bitcast %"class.std::__1::__tree_end_node"* %24 to %"class.content::RenderFrameHost"**
  %26 = load %"class.content::RenderFrameHost"*, %"class.content::RenderFrameHost"** %25, align 8
  %27 = icmp ugt %"class.content::RenderFrameHost"* %26, %1
  br i1 %27, label %37, label %28

28:                                               ; preds = %23
  %29 = getelementptr inbounds %"class.std::__1::__tree_end_node", %"class.std::__1::__tree_end_node"* %18, i64 5
  %30 = bitcast %"class.std::__1::__tree_end_node"* %29 to %"class.mojo::InterfaceEndpointClient"**
  %31 = load %"class.mojo::InterfaceEndpointClient"*, %"class.mojo::InterfaceEndpointClient"** %30, align 8
  %32 = icmp eq %"class.mojo::InterfaceEndpointClient"* %31, null
  br i1 %32, label %37, label %33

33:                                               ; preds = %28
  %34 = getelementptr inbounds %"class.mojo::InterfaceEndpointClient", %"class.mojo::InterfaceEndpointClient"* %31, i64 0, i32 19
  %35 = load i8, i8* %34, align 8, !range !2
  %36 = icmp eq i8 %35, 0
  br label %37

37:                                               ; preds = %28, %23, %21, %2, %33
  %38 = phi i1 [ false, %28 ], [ %36, %33 ], [ false, %2 ], [ false, %21 ], [ false, %23 ]
  ret i1 %38
}

; Function Attrs: argmemonly nounwind
declare void @llvm.lifetime.start.p0i8(i64 immarg, i8* nocapture) #9

; Function Attrs: argmemonly nounwind
declare void @llvm.lifetime.end.p0i8(i64 immarg, i8* nocapture) #9

; Function Attrs: nounwind ssp uwtable
define hidden dereferenceable(24) %"class.mojo::AssociatedRemote"* @_ZN8printing12PrintManager19GetPrintRenderFrameEPN7content15RenderFrameHostE(%"class.printing::PrintManager"*, %"class.content::RenderFrameHost"*) local_unnamed_addr #0 align 2 {
  %3 = alloca %"class.mojo::internal::AssociatedInterfacePtrState", align 8
  %4 = alloca %"class.mojo::PendingAssociatedReceiver.337", align 8
  %5 = alloca %"class.mojo::PendingAssociatedReceiver.337", align 8
  %6 = alloca %"class.mojo::AssociatedRemote", align 8
  %7 = alloca %"struct.std::__1::pair.60", align 8
  %8 = ptrtoint %"class.content::RenderFrameHost"* %1 to i64
  %9 = getelementptr inbounds %"class.printing::PrintManager", %"class.printing::PrintManager"* %0, i64 0, i32 5, i32 0, i32 1, i32 0, i32 0
  %10 = bitcast %"class.std::__1::__tree_end_node"* %9 to %"class.std::__1::__tree_node.335"**
  %11 = load %"class.std::__1::__tree_node.335"*, %"class.std::__1::__tree_node.335"** %10, align 8
  %12 = icmp eq %"class.std::__1::__tree_node.335"* %11, null
  br i1 %12, label %34, label %13

13:                                               ; preds = %2, %13
  %14 = phi %"class.std::__1::__tree_end_node"* [ %24, %13 ], [ %9, %2 ]
  %15 = phi %"class.std::__1::__tree_node.335"* [ %25, %13 ], [ %11, %2 ]
  %16 = getelementptr inbounds %"class.std::__1::__tree_node.335", %"class.std::__1::__tree_node.335"* %15, i64 0, i32 1, i32 0, i32 0
  %17 = load %"class.content::RenderFrameHost"*, %"class.content::RenderFrameHost"** %16, align 8
  %18 = icmp ult %"class.content::RenderFrameHost"* %17, %1
  %19 = getelementptr inbounds %"class.std::__1::__tree_node.335", %"class.std::__1::__tree_node.335"* %15, i64 0, i32 0, i32 1
  %20 = bitcast %"class.std::__1::__tree_node_base"** %19 to %"class.std::__1::__tree_node.335"**
  %21 = getelementptr inbounds %"class.std::__1::__tree_node.335", %"class.std::__1::__tree_node.335"* %15, i64 0, i32 0, i32 0
  %22 = bitcast %"class.std::__1::__tree_node.335"* %15 to %"class.std::__1::__tree_node.335"**
  %23 = select i1 %18, %"class.std::__1::__tree_node.335"** %20, %"class.std::__1::__tree_node.335"** %22
  %24 = select i1 %18, %"class.std::__1::__tree_end_node"* %14, %"class.std::__1::__tree_end_node"* %21
  %25 = load %"class.std::__1::__tree_node.335"*, %"class.std::__1::__tree_node.335"** %23, align 8
  %26 = icmp eq %"class.std::__1::__tree_node.335"* %25, null
  br i1 %26, label %27, label %13

27:                                               ; preds = %13
  %28 = icmp eq %"class.std::__1::__tree_end_node"* %24, %9
  br i1 %28, label %34, label %29

29:                                               ; preds = %27
  %30 = getelementptr inbounds %"class.std::__1::__tree_end_node", %"class.std::__1::__tree_end_node"* %24, i64 4
  %31 = bitcast %"class.std::__1::__tree_end_node"* %30 to %"class.content::RenderFrameHost"**
  %32 = load %"class.content::RenderFrameHost"*, %"class.content::RenderFrameHost"** %31, align 8
  %33 = icmp ugt %"class.content::RenderFrameHost"* %32, %1
  br i1 %33, label %34, label %84

34:                                               ; preds = %29, %27, %2
  %35 = bitcast %"class.mojo::AssociatedRemote"* %6 to i8*
  call void @llvm.lifetime.start.p0i8(i64 24, i8* nonnull %35) #15
  call void @llvm.memset.p0i8.i64(i8* nonnull align 8 %35, i8 -86, i64 24, i1 false)
  %36 = bitcast %"class.mojo::AssociatedRemote"* %6 to %"class.mojo::internal::AssociatedInterfacePtrStateBase"*
  call void @_ZN4mojo8internal31AssociatedInterfacePtrStateBaseC2Ev(%"class.mojo::internal::AssociatedInterfacePtrStateBase"* nonnull %36) #15
  %37 = getelementptr inbounds %"class.mojo::AssociatedRemote", %"class.mojo::AssociatedRemote"* %6, i64 0, i32 0, i32 1
  %38 = bitcast %"class.std::__1::unique_ptr.124"* %37 to i64*
  store i64 0, i64* %38, align 8
  %39 = bitcast %"class.content::RenderFrameHost"* %1 to %"class.blink::AssociatedInterfaceProvider"* (%"class.content::RenderFrameHost"*)***
  %40 = load %"class.blink::AssociatedInterfaceProvider"* (%"class.content::RenderFrameHost"*)**, %"class.blink::AssociatedInterfaceProvider"* (%"class.content::RenderFrameHost"*)*** %39, align 8
  %41 = getelementptr inbounds %"class.blink::AssociatedInterfaceProvider"* (%"class.content::RenderFrameHost"*)*, %"class.blink::AssociatedInterfaceProvider"* (%"class.content::RenderFrameHost"*)** %40, i64 54
  %42 = load %"class.blink::AssociatedInterfaceProvider"* (%"class.content::RenderFrameHost"*)*, %"class.blink::AssociatedInterfaceProvider"* (%"class.content::RenderFrameHost"*)** %41, align 8
  %43 = call %"class.blink::AssociatedInterfaceProvider"* %42(%"class.content::RenderFrameHost"* %1) #15
  %44 = bitcast %"class.mojo::PendingAssociatedReceiver.337"* %4 to i8*
  call void @llvm.lifetime.start.p0i8(i64 8, i8* nonnull %44)
  %45 = getelementptr inbounds %"class.blink::AssociatedInterfaceProvider", %"class.blink::AssociatedInterfaceProvider"* %43, i64 0, i32 2
  %46 = bitcast %class.scoped_refptr.150* %45 to %"class.base::SequencedTaskRunner"**
  %47 = load %"class.base::SequencedTaskRunner"*, %"class.base::SequencedTaskRunner"** %46, align 8
  %48 = icmp eq %"class.base::SequencedTaskRunner"* %47, null
  br i1 %48, label %52, label %49

49:                                               ; preds = %34
  %50 = getelementptr inbounds %"class.base::SequencedTaskRunner", %"class.base::SequencedTaskRunner"* %47, i64 0, i32 0, i32 1, i32 0, i32 0, i32 0, i32 0, i32 0, i32 0, i32 0, i32 0
  %51 = atomicrmw add i32* %50, i32 1 monotonic
  br label %52

52:                                               ; preds = %34, %49
  call void @_ZN4mojo16AssociatedRemoteIN8printing5mojom16PrintRenderFrameEE30BindNewEndpointAndPassReceiverE13scoped_refptrIN4base19SequencedTaskRunnerEE(%"class.mojo::PendingAssociatedReceiver.337"* nonnull sret %4, %"class.mojo::AssociatedRemote"* nonnull %6, %"class.base::SequencedTaskRunner"* %47) #15
  call void @_ZN5blink27AssociatedInterfaceProvider12GetInterfaceIN8printing5mojom16PrintRenderFrameEEEvN4mojo25PendingAssociatedReceiverIT_EE(%"class.blink::AssociatedInterfaceProvider"* %43, %"class.mojo::PendingAssociatedReceiver.337"* nonnull %4) #15
  %53 = getelementptr inbounds %"class.mojo::PendingAssociatedReceiver.337", %"class.mojo::PendingAssociatedReceiver.337"* %4, i64 0, i32 0
  call void @_ZN4mojo29ScopedInterfaceEndpointHandleD1Ev(%"class.mojo::ScopedInterfaceEndpointHandle"* nonnull %53) #15
  call void @llvm.lifetime.end.p0i8(i64 8, i8* nonnull %44)
  %54 = bitcast %"struct.std::__1::pair.60"* %7 to i8*
  call void @llvm.lifetime.start.p0i8(i64 32, i8* nonnull %54) #15
  %55 = bitcast %"struct.std::__1::pair.60"* %7 to i64*
  store i64 %8, i64* %55, align 8
  %56 = getelementptr inbounds %"struct.std::__1::pair.60", %"struct.std::__1::pair.60"* %7, i64 0, i32 1
  %57 = bitcast %"class.mojo::AssociatedRemote"* %56 to %"class.mojo::internal::AssociatedInterfacePtrStateBase"*
  call void @_ZN4mojo8internal31AssociatedInterfacePtrStateBaseC2Ev(%"class.mojo::internal::AssociatedInterfacePtrStateBase"* %57) #15
  %58 = getelementptr inbounds %"struct.std::__1::pair.60", %"struct.std::__1::pair.60"* %7, i64 0, i32 1, i32 0, i32 1
  %59 = bitcast %"class.std::__1::unique_ptr.124"* %58 to i64*
  store i64 0, i64* %59, align 8
  call void @_ZN4mojo8internal31AssociatedInterfacePtrStateBase4SwapEPS1_(%"class.mojo::internal::AssociatedInterfacePtrStateBase"* %57, %"class.mojo::internal::AssociatedInterfacePtrStateBase"* nonnull %36) #15
  %60 = load i64, i64* %38, align 8
  %61 = load i64, i64* %59, align 8
  store i64 %61, i64* %38, align 8
  store i64 %60, i64* %59, align 8
  %62 = getelementptr inbounds %"class.printing::PrintManager", %"class.printing::PrintManager"* %0, i64 0, i32 5, i32 0
  %63 = getelementptr inbounds %"struct.std::__1::pair.60", %"struct.std::__1::pair.60"* %7, i64 0, i32 0
  %64 = call { %"class.std::__1::__tree_end_node"*, i8 } @_ZNSt3__16__treeINS_12__value_typeIPN7content15RenderFrameHostEN4mojo16AssociatedRemoteIN8printing5mojom16PrintRenderFrameEEEEENS_19__map_value_compareIS4_SB_NS_4lessIS4_EELb1EEENS_9allocatorISB_EEE25__emplace_unique_key_argsIS4_JNS_4pairIKS4_SA_EEEEENSK_INS_15__tree_iteratorISB_PNS_11__tree_nodeISB_PvEElEEbEERKT_DpOT0_(%"class.std::__1::__tree.36"* %62, %"class.content::RenderFrameHost"** nonnull dereferenceable(8) %63, %"struct.std::__1::pair.60"* nonnull dereferenceable(32) %7) #15
  %65 = extractvalue { %"class.std::__1::__tree_end_node"*, i8 } %64, 0
  %66 = getelementptr inbounds %"struct.std::__1::pair.60", %"struct.std::__1::pair.60"* %7, i64 0, i32 1, i32 0, i32 1, i32 0, i32 0, i32 0
  %67 = load %"class.printing::mojom::PrintRenderFrameProxy"*, %"class.printing::mojom::PrintRenderFrameProxy"** %66, align 8
  store %"class.printing::mojom::PrintRenderFrameProxy"* null, %"class.printing::mojom::PrintRenderFrameProxy"** %66, align 8
  %68 = icmp eq %"class.printing::mojom::PrintRenderFrameProxy"* %67, null
  br i1 %68, label %74, label %69

69:                                               ; preds = %52
  %70 = bitcast %"class.printing::mojom::PrintRenderFrameProxy"* %67 to void (%"class.printing::mojom::PrintRenderFrameProxy"*)***
  %71 = load void (%"class.printing::mojom::PrintRenderFrameProxy"*)**, void (%"class.printing::mojom::PrintRenderFrameProxy"*)*** %70, align 8
  %72 = getelementptr inbounds void (%"class.printing::mojom::PrintRenderFrameProxy"*)*, void (%"class.printing::mojom::PrintRenderFrameProxy"*)** %71, i64 1
  %73 = load void (%"class.printing::mojom::PrintRenderFrameProxy"*)*, void (%"class.printing::mojom::PrintRenderFrameProxy"*)** %72, align 8
  call void %73(%"class.printing::mojom::PrintRenderFrameProxy"* nonnull %67) #15
  br label %74

74:                                               ; preds = %52, %69
  call void @_ZN4mojo8internal31AssociatedInterfacePtrStateBaseD2Ev(%"class.mojo::internal::AssociatedInterfacePtrStateBase"* %57) #15
  call void @llvm.lifetime.end.p0i8(i64 32, i8* nonnull %54) #15
  %75 = getelementptr inbounds %"class.mojo::AssociatedRemote", %"class.mojo::AssociatedRemote"* %6, i64 0, i32 0, i32 1, i32 0, i32 0, i32 0
  %76 = load %"class.printing::mojom::PrintRenderFrameProxy"*, %"class.printing::mojom::PrintRenderFrameProxy"** %75, align 8
  store %"class.printing::mojom::PrintRenderFrameProxy"* null, %"class.printing::mojom::PrintRenderFrameProxy"** %75, align 8
  %77 = icmp eq %"class.printing::mojom::PrintRenderFrameProxy"* %76, null
  br i1 %77, label %83, label %78

78:                                               ; preds = %74
  %79 = bitcast %"class.printing::mojom::PrintRenderFrameProxy"* %76 to void (%"class.printing::mojom::PrintRenderFrameProxy"*)***
  %80 = load void (%"class.printing::mojom::PrintRenderFrameProxy"*)**, void (%"class.printing::mojom::PrintRenderFrameProxy"*)*** %79, align 8
  %81 = getelementptr inbounds void (%"class.printing::mojom::PrintRenderFrameProxy"*)*, void (%"class.printing::mojom::PrintRenderFrameProxy"*)** %80, i64 1
  %82 = load void (%"class.printing::mojom::PrintRenderFrameProxy"*)*, void (%"class.printing::mojom::PrintRenderFrameProxy"*)** %81, align 8
  call void %82(%"class.printing::mojom::PrintRenderFrameProxy"* nonnull %76) #15
  br label %83

83:                                               ; preds = %74, %78
  call void @_ZN4mojo8internal31AssociatedInterfacePtrStateBaseD2Ev(%"class.mojo::internal::AssociatedInterfacePtrStateBase"* nonnull %36) #15
  call void @llvm.lifetime.end.p0i8(i64 24, i8* nonnull %35) #15
  br label %128

84:                                               ; preds = %29
  %85 = getelementptr inbounds %"class.std::__1::__tree_end_node", %"class.std::__1::__tree_end_node"* %24, i64 5
  %86 = bitcast %"class.std::__1::__tree_end_node"* %85 to %"class.mojo::AssociatedRemote"*
  %87 = bitcast %"class.std::__1::__tree_end_node"* %85 to %"class.mojo::InterfaceEndpointClient"**
  %88 = load %"class.mojo::InterfaceEndpointClient"*, %"class.mojo::InterfaceEndpointClient"** %87, align 8
  %89 = icmp eq %"class.mojo::InterfaceEndpointClient"* %88, null
  br i1 %89, label %128, label %90

90:                                               ; preds = %84
  %91 = getelementptr inbounds %"class.mojo::InterfaceEndpointClient", %"class.mojo::InterfaceEndpointClient"* %88, i64 0, i32 19
  %92 = load i8, i8* %91, align 8, !range !2
  %93 = icmp eq i8 %92, 0
  br i1 %93, label %128, label %94

94:                                               ; preds = %90
  %95 = bitcast %"class.mojo::internal::AssociatedInterfacePtrState"* %3 to i8*
  call void @llvm.lifetime.start.p0i8(i64 24, i8* nonnull %95) #15
  call void @llvm.memset.p0i8.i64(i8* nonnull align 8 %95, i8 -86, i64 24, i1 false) #15
  %96 = bitcast %"class.mojo::internal::AssociatedInterfacePtrState"* %3 to %"class.mojo::internal::AssociatedInterfacePtrStateBase"*
  call void @_ZN4mojo8internal31AssociatedInterfacePtrStateBaseC2Ev(%"class.mojo::internal::AssociatedInterfacePtrStateBase"* nonnull %96) #15
  %97 = getelementptr inbounds %"class.mojo::internal::AssociatedInterfacePtrState", %"class.mojo::internal::AssociatedInterfacePtrState"* %3, i64 0, i32 1
  %98 = bitcast %"class.std::__1::unique_ptr.124"* %97 to i64*
  store i64 0, i64* %98, align 8
  %99 = bitcast %"class.std::__1::__tree_end_node"* %85 to %"class.mojo::internal::AssociatedInterfacePtrStateBase"*
  call void @_ZN4mojo8internal31AssociatedInterfacePtrStateBase4SwapEPS1_(%"class.mojo::internal::AssociatedInterfacePtrStateBase"* %99, %"class.mojo::internal::AssociatedInterfacePtrStateBase"* nonnull %96) #15
  %100 = getelementptr inbounds %"class.std::__1::__tree_end_node", %"class.std::__1::__tree_end_node"* %24, i64 7
  %101 = load i64, i64* %98, align 8
  %102 = bitcast %"class.std::__1::__tree_end_node"* %100 to i64*
  %103 = load i64, i64* %102, align 8
  store i64 %101, i64* %102, align 8
  %104 = getelementptr inbounds %"class.mojo::internal::AssociatedInterfacePtrState", %"class.mojo::internal::AssociatedInterfacePtrState"* %3, i64 0, i32 1, i32 0, i32 0, i32 0
  store %"class.printing::mojom::PrintRenderFrameProxy"* null, %"class.printing::mojom::PrintRenderFrameProxy"** %104, align 8
  %105 = icmp eq i64 %103, 0
  br i1 %105, label %112, label %106

106:                                              ; preds = %94
  %107 = inttoptr i64 %103 to %"class.printing::mojom::PrintRenderFrameProxy"*
  %108 = inttoptr i64 %103 to void (%"class.printing::mojom::PrintRenderFrameProxy"*)***
  %109 = load void (%"class.printing::mojom::PrintRenderFrameProxy"*)**, void (%"class.printing::mojom::PrintRenderFrameProxy"*)*** %108, align 8
  %110 = getelementptr inbounds void (%"class.printing::mojom::PrintRenderFrameProxy"*)*, void (%"class.printing::mojom::PrintRenderFrameProxy"*)** %109, i64 1
  %111 = load void (%"class.printing::mojom::PrintRenderFrameProxy"*)*, void (%"class.printing::mojom::PrintRenderFrameProxy"*)** %110, align 8
  call void %111(%"class.printing::mojom::PrintRenderFrameProxy"* nonnull %107) #15
  br label %112

112:                                              ; preds = %94, %106
  call void @_ZN4mojo8internal31AssociatedInterfacePtrStateBaseD2Ev(%"class.mojo::internal::AssociatedInterfacePtrStateBase"* nonnull %96) #15
  call void @llvm.lifetime.end.p0i8(i64 24, i8* nonnull %95) #15
  %113 = bitcast %"class.content::RenderFrameHost"* %1 to %"class.blink::AssociatedInterfaceProvider"* (%"class.content::RenderFrameHost"*)***
  %114 = load %"class.blink::AssociatedInterfaceProvider"* (%"class.content::RenderFrameHost"*)**, %"class.blink::AssociatedInterfaceProvider"* (%"class.content::RenderFrameHost"*)*** %113, align 8
  %115 = getelementptr inbounds %"class.blink::AssociatedInterfaceProvider"* (%"class.content::RenderFrameHost"*)*, %"class.blink::AssociatedInterfaceProvider"* (%"class.content::RenderFrameHost"*)** %114, i64 54
  %116 = load %"class.blink::AssociatedInterfaceProvider"* (%"class.content::RenderFrameHost"*)*, %"class.blink::AssociatedInterfaceProvider"* (%"class.content::RenderFrameHost"*)** %115, align 8
  %117 = call %"class.blink::AssociatedInterfaceProvider"* %116(%"class.content::RenderFrameHost"* %1) #15
  %118 = bitcast %"class.mojo::PendingAssociatedReceiver.337"* %5 to i8*
  call void @llvm.lifetime.start.p0i8(i64 8, i8* nonnull %118)
  %119 = getelementptr inbounds %"class.blink::AssociatedInterfaceProvider", %"class.blink::AssociatedInterfaceProvider"* %117, i64 0, i32 2
  %120 = bitcast %class.scoped_refptr.150* %119 to %"class.base::SequencedTaskRunner"**
  %121 = load %"class.base::SequencedTaskRunner"*, %"class.base::SequencedTaskRunner"** %120, align 8
  %122 = icmp eq %"class.base::SequencedTaskRunner"* %121, null
  br i1 %122, label %126, label %123

123:                                              ; preds = %112
  %124 = getelementptr inbounds %"class.base::SequencedTaskRunner", %"class.base::SequencedTaskRunner"* %121, i64 0, i32 0, i32 1, i32 0, i32 0, i32 0, i32 0, i32 0, i32 0, i32 0, i32 0
  %125 = atomicrmw add i32* %124, i32 1 monotonic
  br label %126

126:                                              ; preds = %112, %123
  call void @_ZN4mojo16AssociatedRemoteIN8printing5mojom16PrintRenderFrameEE30BindNewEndpointAndPassReceiverE13scoped_refptrIN4base19SequencedTaskRunnerEE(%"class.mojo::PendingAssociatedReceiver.337"* nonnull sret %5, %"class.mojo::AssociatedRemote"* %86, %"class.base::SequencedTaskRunner"* %121) #15
  call void @_ZN5blink27AssociatedInterfaceProvider12GetInterfaceIN8printing5mojom16PrintRenderFrameEEEvN4mojo25PendingAssociatedReceiverIT_EE(%"class.blink::AssociatedInterfaceProvider"* %117, %"class.mojo::PendingAssociatedReceiver.337"* nonnull %5) #15
  %127 = getelementptr inbounds %"class.mojo::PendingAssociatedReceiver.337", %"class.mojo::PendingAssociatedReceiver.337"* %5, i64 0, i32 0
  call void @_ZN4mojo29ScopedInterfaceEndpointHandleD1Ev(%"class.mojo::ScopedInterfaceEndpointHandle"* nonnull %127) #15
  call void @llvm.lifetime.end.p0i8(i64 8, i8* nonnull %118)
  br label %128

128:                                              ; preds = %84, %90, %126, %83
  %129 = phi %"class.std::__1::__tree_end_node"* [ %65, %83 ], [ %24, %90 ], [ %24, %126 ], [ %24, %84 ]
  %130 = getelementptr inbounds %"class.std::__1::__tree_end_node", %"class.std::__1::__tree_end_node"* %129, i64 5
  %131 = bitcast %"class.std::__1::__tree_end_node"* %130 to %"class.mojo::AssociatedRemote"*
  ret %"class.mojo::AssociatedRemote"* %131
}

; Function Attrs: argmemonly nounwind
declare void @llvm.memcpy.p0i8.p0i8.i64(i8* nocapture writeonly, i8* nocapture readonly, i64, i1 immarg) #9

; Function Attrs: norecurse nounwind readonly ssp uwtable
define hidden %"class.content::RenderFrameHost"* @_ZN8printing12PrintManager21GetCurrentTargetFrameEv(%"class.printing::PrintManager"* nocapture readonly) local_unnamed_addr #7 align 2 {
  %2 = getelementptr inbounds %"class.printing::PrintManager", %"class.printing::PrintManager"* %0, i64 0, i32 4, i32 2
  %3 = load %"class.content::RenderFrameHost"*, %"class.content::RenderFrameHost"** %2, align 8
  %4 = icmp eq %"class.content::RenderFrameHost"* %3, null
  br i1 %4, label %5, label %10

5:                                                ; preds = %1
  %6 = getelementptr inbounds %"class.printing::PrintManager", %"class.printing::PrintManager"* %0, i64 0, i32 4, i32 1, i32 3, i32 0, i32 4
  %7 = bitcast i8** %6 to %"class.content::RenderFrameHost"***
  %8 = load %"class.content::RenderFrameHost"**, %"class.content::RenderFrameHost"*** %7, align 8
  %9 = load %"class.content::RenderFrameHost"*, %"class.content::RenderFrameHost"** %8, align 8
  br label %10

10:                                               ; preds = %1, %5
  %11 = phi %"class.content::RenderFrameHost"* [ %9, %5 ], [ %3, %1 ]
  ret %"class.content::RenderFrameHost"* %11
}

; Function Attrs: norecurse nounwind readnone ssp uwtable
define hidden void @_ZN8printing12PrintManager26PrintingRenderFrameDeletedEv(%"class.printing::PrintManager"* nocapture) local_unnamed_addr #6 align 2 {
  ret void
}

declare zeroext i1 @_ZN7content19WebContentsObserver17OnMessageReceivedERKN3IPC7MessageE(%"class.content::WebContentsObserver"*, %"class.IPC::Message"* dereferenceable(56)) unnamed_addr #1

; Function Attrs: nounwind ssp uwtable
define linkonce_odr hidden void @_ZN3IPC8Listener18OnChannelConnectedEi(%"class.IPC::Listener"*, i32) unnamed_addr #0 comdat align 2 {
  ret void
}

; Function Attrs: nounwind ssp uwtable
define linkonce_odr hidden void @_ZN3IPC8Listener14OnChannelErrorEv(%"class.IPC::Listener"*) unnamed_addr #0 comdat align 2 {
  ret void
}

; Function Attrs: nounwind ssp uwtable
define linkonce_odr hidden void @_ZN3IPC8Listener20OnBadMessageReceivedERKNS_7MessageE(%"class.IPC::Listener"*, %"class.IPC::Message"* dereferenceable(56)) unnamed_addr #0 comdat align 2 {
  ret void
}

; Function Attrs: nounwind ssp uwtable
define linkonce_odr hidden void @_ZN3IPC8Listener28OnAssociatedInterfaceRequestERKNSt3__112basic_stringIcNS1_11char_traitsIcEENS1_9allocatorIcEEEEN4mojo29ScopedInterfaceEndpointHandleE(%"class.IPC::Listener"*, %"class.std::__1::basic_string"* dereferenceable(24), %"class.mojo::ScopedInterfaceEndpointHandle"*) unnamed_addr #0 comdat align 2 {
  ret void
}

; Function Attrs: nounwind ssp uwtable
define linkonce_odr hidden void @_ZN3IPC8Listener15OnChannelDeniedEv(%"class.IPC::Listener"*) unnamed_addr #0 comdat align 2 {
  ret void
}

; Function Attrs: nounwind ssp uwtable
define linkonce_odr hidden void @_ZN3IPC8Listener20OnChannelListenErrorEv(%"class.IPC::Listener"*) unnamed_addr #0 comdat align 2 {
  ret void
}

; Function Attrs: nounwind ssp uwtable
define linkonce_odr hidden void @_ZN7content19WebContentsObserver18RenderFrameCreatedEPNS_15RenderFrameHostE(%"class.content::WebContentsObserver"*, %"class.content::RenderFrameHost"*) unnamed_addr #0 comdat align 2 {
  ret void
}

; Function Attrs: nounwind ssp uwtable
define linkonce_odr hidden void @_ZN7content19WebContentsObserver22RenderFrameHostChangedEPNS_15RenderFrameHostES2_(%"class.content::WebContentsObserver"*, %"class.content::RenderFrameHost"*, %"class.content::RenderFrameHost"*) unnamed_addr #0 comdat align 2 {
  ret void
}

; Function Attrs: nounwind ssp uwtable
define linkonce_odr hidden void @_ZN7content19WebContentsObserver12FrameDeletedEi(%"class.content::WebContentsObserver"*, i32) unnamed_addr #0 comdat align 2 {
  ret void
}

; Function Attrs: nounwind ssp uwtable
define linkonce_odr hidden void @_ZN7content19WebContentsObserver27RenderFrameHostStateChangedEPNS_15RenderFrameHostENS1_14LifecycleStateES3_(%"class.content::WebContentsObserver"*, %"class.content::RenderFrameHost"*, i32, i32) unnamed_addr #0 comdat align 2 {
  ret void
}

; Function Attrs: nounwind ssp uwtable
define linkonce_odr hidden void @_ZN7content19WebContentsObserver20CaptureTargetChangedEv(%"class.content::WebContentsObserver"*) unnamed_addr #0 comdat align 2 {
  ret void
}

; Function Attrs: nounwind ssp uwtable
define linkonce_odr hidden void @_ZN7content19WebContentsObserver27OnCaptureHandleConfigUpdateERKN5blink5mojom19CaptureHandleConfigE(%"class.content::WebContentsObserver"*, %"class.blink::mojom::CaptureHandleConfig"*) unnamed_addr #0 comdat align 2 {
  ret void
}

; Function Attrs: nounwind ssp uwtable
define linkonce_odr hidden void @_ZN7content19WebContentsObserver15RenderViewReadyEv(%"class.content::WebContentsObserver"*) unnamed_addr #0 comdat align 2 {
  ret void
}

; Function Attrs: nounwind ssp uwtable
define linkonce_odr hidden void @_ZN7content19WebContentsObserver17RenderViewDeletedEPNS_14RenderViewHostE(%"class.content::WebContentsObserver"*, %"class.content::RenderViewHost"*) unnamed_addr #0 comdat align 2 {
  ret void
}

; Function Attrs: nounwind ssp uwtable
define linkonce_odr hidden void @_ZN7content19WebContentsObserver17RenderProcessGoneEN4base17TerminationStatusE(%"class.content::WebContentsObserver"*, i32) unnamed_addr #0 comdat align 2 {
  ret void
}

; Function Attrs: nounwind ssp uwtable
define linkonce_odr hidden void @_ZN7content19WebContentsObserver21RenderViewHostChangedEPNS_14RenderViewHostES2_(%"class.content::WebContentsObserver"*, %"class.content::RenderViewHost"*, %"class.content::RenderViewHost"*) unnamed_addr #0 comdat align 2 {
  ret void
}

; Function Attrs: nounwind ssp uwtable
define linkonce_odr hidden void @_ZN7content19WebContentsObserver22OnRendererUnresponsiveEPNS_17RenderProcessHostE(%"class.content::WebContentsObserver"*, %"class.content::RenderProcessHost"*) unnamed_addr #0 comdat align 2 {
  ret void
}

; Function Attrs: nounwind ssp uwtable
define linkonce_odr hidden void @_ZN7content19WebContentsObserver20OnRendererResponsiveEPNS_17RenderProcessHostE(%"class.content::WebContentsObserver"*, %"class.content::RenderProcessHost"*) unnamed_addr #0 comdat align 2 {
  ret void
}

; Function Attrs: nounwind ssp uwtable
define linkonce_odr hidden void @_ZN7content19WebContentsObserver18DidStartNavigationEPNS_16NavigationHandleE(%"class.content::WebContentsObserver"*, %"class.content::NavigationHandle"*) unnamed_addr #0 comdat align 2 {
  ret void
}

; Function Attrs: nounwind ssp uwtable
define linkonce_odr hidden void @_ZN7content19WebContentsObserver21DidRedirectNavigationEPNS_16NavigationHandleE(%"class.content::WebContentsObserver"*, %"class.content::NavigationHandle"*) unnamed_addr #0 comdat align 2 {
  ret void
}

; Function Attrs: nounwind ssp uwtable
define linkonce_odr hidden void @_ZN7content19WebContentsObserver23ReadyToCommitNavigationEPNS_16NavigationHandleE(%"class.content::WebContentsObserver"*, %"class.content::NavigationHandle"*) unnamed_addr #0 comdat align 2 {
  ret void
}

; Function Attrs: nounwind ssp uwtable
define linkonce_odr hidden void @_ZN7content19WebContentsObserver19DidFinishNavigationEPNS_16NavigationHandleE(%"class.content::WebContentsObserver"*, %"class.content::NavigationHandle"*) unnamed_addr #0 comdat align 2 {
  ret void
}

; Function Attrs: nounwind ssp uwtable
define linkonce_odr hidden void @_ZN7content19WebContentsObserver17DidActivatePortalEPNS_11WebContentsEN4base9TimeTicksE(%"class.content::WebContentsObserver"*, %"class.content::WebContents"*, i64) unnamed_addr #0 comdat align 2 {
  ret void
}

; Function Attrs: nounwind ssp uwtable
define linkonce_odr hidden void @_ZN7content19WebContentsObserver15DidStartLoadingEv(%"class.content::WebContentsObserver"*) unnamed_addr #0 comdat align 2 {
  ret void
}

; Function Attrs: nounwind ssp uwtable
define linkonce_odr hidden void @_ZN7content19WebContentsObserver18DidReceiveResponseEv(%"class.content::WebContentsObserver"*) unnamed_addr #0 comdat align 2 {
  ret void
}

; Function Attrs: nounwind ssp uwtable
define linkonce_odr hidden void @_ZN7content19WebContentsObserver14DidStopLoadingEv(%"class.content::WebContentsObserver"*) unnamed_addr #0 comdat align 2 {
  ret void
}

; Function Attrs: nounwind ssp uwtable
define linkonce_odr hidden void @_ZN7content19WebContentsObserver19LoadProgressChangedEd(%"class.content::WebContentsObserver"*, double) unnamed_addr #0 comdat align 2 {
  ret void
}

; Function Attrs: nounwind ssp uwtable
define linkonce_odr hidden void @_ZN7content19WebContentsObserver28DocumentAvailableInMainFrameEPNS_15RenderFrameHostE(%"class.content::WebContentsObserver"*, %"class.content::RenderFrameHost"*) unnamed_addr #0 comdat align 2 {
  ret void
}

; Function Attrs: nounwind ssp uwtable
define linkonce_odr hidden void @_ZN7content19WebContentsObserver34DocumentOnLoadCompletedInMainFrameEPNS_15RenderFrameHostE(%"class.content::WebContentsObserver"*, %"class.content::RenderFrameHost"*) unnamed_addr #0 comdat align 2 {
  ret void
}

; Function Attrs: nounwind ssp uwtable
define linkonce_odr hidden void @_ZN7content19WebContentsObserver16DOMContentLoadedEPNS_15RenderFrameHostE(%"class.content::WebContentsObserver"*, %"class.content::RenderFrameHost"*) unnamed_addr #0 comdat align 2 {
  ret void
}

; Function Attrs: nounwind ssp uwtable
define linkonce_odr hidden void @_ZN7content19WebContentsObserver13DidFinishLoadEPNS_15RenderFrameHostERK4GURL(%"class.content::WebContentsObserver"*, %"class.content::RenderFrameHost"*, %class.GURL* dereferenceable(120)) unnamed_addr #0 comdat align 2 {
  ret void
}

; Function Attrs: nounwind ssp uwtable
define linkonce_odr hidden void @_ZN7content19WebContentsObserver11DidFailLoadEPNS_15RenderFrameHostERK4GURLi(%"class.content::WebContentsObserver"*, %"class.content::RenderFrameHost"*, %class.GURL* dereferenceable(120), i32) unnamed_addr #0 comdat align 2 {
  ret void
}

; Function Attrs: nounwind ssp uwtable
define linkonce_odr hidden void @_ZN7content19WebContentsObserver29DidChangeVisibleSecurityStateEv(%"class.content::WebContentsObserver"*) unnamed_addr #0 comdat align 2 {
  ret void
}

; Function Attrs: nounwind ssp uwtable
define linkonce_odr hidden void @_ZN7content19WebContentsObserver30DidLoadResourceFromMemoryCacheEPNS_15RenderFrameHostERK4GURLRKNSt3__112basic_stringIcNS6_11char_traitsIcEENS6_9allocatorIcEEEEN7network5mojom18RequestDestinationE(%"class.content::WebContentsObserver"*, %"class.content::RenderFrameHost"*, %class.GURL* dereferenceable(120), %"class.std::__1::basic_string"* dereferenceable(24), i32) unnamed_addr #0 comdat align 2 {
  ret void
}

; Function Attrs: nounwind ssp uwtable
define linkonce_odr hidden void @_ZN7content19WebContentsObserver20ResourceLoadCompleteEPNS_15RenderFrameHostERKNS_15GlobalRequestIDERKN5blink5mojom16ResourceLoadInfoE(%"class.content::WebContentsObserver"*, %"class.content::RenderFrameHost"*, %"struct.content::GlobalRequestID"* dereferenceable(8), %"class.blink::mojom::ResourceLoadInfo"*) unnamed_addr #0 comdat align 2 {
  ret void
}

; Function Attrs: nounwind ssp uwtable
define linkonce_odr hidden void @_ZN7content19WebContentsObserver17OnCookiesAccessedEPNS_15RenderFrameHostERKNS_19CookieAccessDetailsE(%"class.content::WebContentsObserver"*, %"class.content::RenderFrameHost"*, %"struct.content::CookieAccessDetails"* dereferenceable(280)) unnamed_addr #0 comdat align 2 {
  ret void
}

; Function Attrs: nounwind ssp uwtable
define linkonce_odr hidden void @_ZN7content19WebContentsObserver17OnCookiesAccessedEPNS_16NavigationHandleERKNS_19CookieAccessDetailsE(%"class.content::WebContentsObserver"*, %"class.content::NavigationHandle"*, %"struct.content::CookieAccessDetails"* dereferenceable(280)) unnamed_addr #0 comdat align 2 {
  ret void
}

; Function Attrs: nounwind ssp uwtable
define linkonce_odr hidden void @_ZN7content19WebContentsObserver24NavigationEntryCommittedERKNS_20LoadCommittedDetailsE(%"class.content::WebContentsObserver"*, %"struct.content::LoadCommittedDetails"*) unnamed_addr #0 comdat align 2 {
  ret void
}

; Function Attrs: nounwind ssp uwtable
define linkonce_odr hidden void @_ZN7content19WebContentsObserver20NavigationListPrunedERKNS_13PrunedDetailsE(%"class.content::WebContentsObserver"*, %"struct.content::PrunedDetails"*) unnamed_addr #0 comdat align 2 {
  ret void
}

; Function Attrs: nounwind ssp uwtable
define linkonce_odr hidden void @_ZN7content19WebContentsObserver24NavigationEntriesDeletedEv(%"class.content::WebContentsObserver"*) unnamed_addr #0 comdat align 2 {
  ret void
}

; Function Attrs: nounwind ssp uwtable
define linkonce_odr hidden void @_ZN7content19WebContentsObserver22NavigationEntryChangedERKNS_19EntryChangedDetailsE(%"class.content::WebContentsObserver"*, %"struct.content::EntryChangedDetails"*) unnamed_addr #0 comdat align 2 {
  ret void
}

; Function Attrs: nounwind ssp uwtable
define linkonce_odr hidden void @_ZN7content19WebContentsObserver19DidOpenRequestedURLEPNS_11WebContentsEPNS_15RenderFrameHostERK4GURLRKNS_8ReferrerE21WindowOpenDispositionN2ui14PageTransitionEbb(%"class.content::WebContentsObserver"*, %"class.content::WebContents"*, %"class.content::RenderFrameHost"*, %class.GURL* dereferenceable(120), %"struct.content::Referrer"* dereferenceable(128), i32, i32, i1 zeroext, i1 zeroext) unnamed_addr #0 comdat align 2 {
  ret void
}

; Function Attrs: nounwind ssp uwtable
define linkonce_odr hidden void @_ZN7content19WebContentsObserver29DidFirstVisuallyNonEmptyPaintEv(%"class.content::WebContentsObserver"*) unnamed_addr #0 comdat align 2 {
  ret void
}

; Function Attrs: nounwind ssp uwtable
define linkonce_odr hidden void @_ZN7content19WebContentsObserver17NavigationStoppedEv(%"class.content::WebContentsObserver"*) unnamed_addr #0 comdat align 2 {
  ret void
}

; Function Attrs: nounwind ssp uwtable
define linkonce_odr hidden void @_ZN7content19WebContentsObserver21DidGetUserInteractionERKN5blink13WebInputEventE(%"class.content::WebContentsObserver"*, %"class.blink::WebInputEvent"* dereferenceable(40)) unnamed_addr #0 comdat align 2 {
  ret void
}

; Function Attrs: nounwind ssp uwtable
define linkonce_odr hidden void @_ZN7content19WebContentsObserver20DidGetIgnoredUIEventEv(%"class.content::WebContentsObserver"*) unnamed_addr #0 comdat align 2 {
  ret void
}

; Function Attrs: nounwind ssp uwtable
define linkonce_odr hidden void @_ZN7content19WebContentsObserver19OnVisibilityChangedENS_10VisibilityE(%"class.content::WebContentsObserver"*, i32) unnamed_addr #0 comdat align 2 {
  ret void
}

; Function Attrs: nounwind ssp uwtable
define linkonce_odr hidden void @_ZN7content19WebContentsObserver19MainFrameWasResizedEb(%"class.content::WebContentsObserver"*, i1 zeroext) unnamed_addr #0 comdat align 2 {
  ret void
}

; Function Attrs: nounwind ssp uwtable
define linkonce_odr hidden void @_ZN7content19WebContentsObserver16FrameNameChangedEPNS_15RenderFrameHostERKNSt3__112basic_stringIcNS3_11char_traitsIcEENS3_9allocatorIcEEEE(%"class.content::WebContentsObserver"*, %"class.content::RenderFrameHost"*, %"class.std::__1::basic_string"* dereferenceable(24)) unnamed_addr #0 comdat align 2 {
  ret void
}

; Function Attrs: nounwind ssp uwtable
define linkonce_odr hidden void @_ZN7content19WebContentsObserver27FrameReceivedUserActivationEPNS_15RenderFrameHostE(%"class.content::WebContentsObserver"*, %"class.content::RenderFrameHost"*) unnamed_addr #0 comdat align 2 {
  ret void
}

; Function Attrs: nounwind ssp uwtable
define linkonce_odr hidden void @_ZN7content19WebContentsObserver24FrameDisplayStateChangedEPNS_15RenderFrameHostEb(%"class.content::WebContentsObserver"*, %"class.content::RenderFrameHost"*, i1 zeroext) unnamed_addr #0 comdat align 2 {
  ret void
}

; Function Attrs: nounwind ssp uwtable
define linkonce_odr hidden void @_ZN7content19WebContentsObserver16FrameSizeChangedEPNS_15RenderFrameHostERKN3gfx4SizeE(%"class.content::WebContentsObserver"*, %"class.content::RenderFrameHost"*, %"class.gfx::Size"* dereferenceable(8)) unnamed_addr #0 comdat align 2 {
  ret void
}

; Function Attrs: nounwind ssp uwtable
define linkonce_odr hidden void @_ZN7content19WebContentsObserver11TitleWasSetEPNS_15NavigationEntryE(%"class.content::WebContentsObserver"*, %"class.content::NavigationEntry"*) unnamed_addr #0 comdat align 2 {
  ret void
}

; Function Attrs: nounwind ssp uwtable
define linkonce_odr hidden void @_ZN7content19WebContentsObserver16AppCacheAccessedERK4GURLb(%"class.content::WebContentsObserver"*, %class.GURL* dereferenceable(120), i1 zeroext) unnamed_addr #0 comdat align 2 {
  ret void
}

; Function Attrs: nounwind ssp uwtable
define linkonce_odr hidden void @_ZN7content19WebContentsObserver21PepperInstanceCreatedEv(%"class.content::WebContentsObserver"*) unnamed_addr #0 comdat align 2 {
  ret void
}

; Function Attrs: nounwind ssp uwtable
define linkonce_odr hidden void @_ZN7content19WebContentsObserver21PepperInstanceDeletedEv(%"class.content::WebContentsObserver"*) unnamed_addr #0 comdat align 2 {
  ret void
}

; Function Attrs: nounwind ssp uwtable
define linkonce_odr hidden void @_ZN7content19WebContentsObserver18ViewportFitChangedEN5blink5mojom11ViewportFitE(%"class.content::WebContentsObserver"*, i32) unnamed_addr #0 comdat align 2 {
  ret void
}

; Function Attrs: nounwind ssp uwtable
define linkonce_odr hidden void @_ZN7content19WebContentsObserver13PluginCrashedERKN4base8FilePathEi(%"class.content::WebContentsObserver"*, %"class.base::FilePath"* dereferenceable(24), i32) unnamed_addr #0 comdat align 2 {
  ret void
}

; Function Attrs: nounwind ssp uwtable
define linkonce_odr hidden void @_ZN7content19WebContentsObserver23PluginHungStatusChangedEiRKN4base8FilePathEb(%"class.content::WebContentsObserver"*, i32, %"class.base::FilePath"* dereferenceable(24), i1 zeroext) unnamed_addr #0 comdat align 2 {
  ret void
}

; Function Attrs: nounwind ssp uwtable
define linkonce_odr hidden void @_ZN7content19WebContentsObserver23InnerWebContentsCreatedEPNS_11WebContentsE(%"class.content::WebContentsObserver"*, %"class.content::WebContents"*) unnamed_addr #0 comdat align 2 {
  ret void
}

; Function Attrs: nounwind ssp uwtable
define linkonce_odr hidden void @_ZN7content19WebContentsObserver24InnerWebContentsAttachedEPNS_11WebContentsEPNS_15RenderFrameHostEb(%"class.content::WebContentsObserver"*, %"class.content::WebContents"*, %"class.content::RenderFrameHost"*, i1 zeroext) unnamed_addr #0 comdat align 2 {
  ret void
}

; Function Attrs: nounwind ssp uwtable
define linkonce_odr hidden void @_ZN7content19WebContentsObserver24InnerWebContentsDetachedEPNS_11WebContentsE(%"class.content::WebContentsObserver"*, %"class.content::WebContents"*) unnamed_addr #0 comdat align 2 {
  ret void
}

; Function Attrs: nounwind ssp uwtable
define linkonce_odr hidden void @_ZN7content19WebContentsObserver24DidCloneToNewWebContentsEPNS_11WebContentsES2_(%"class.content::WebContentsObserver"*, %"class.content::WebContents"*, %"class.content::WebContents"*) unnamed_addr #0 comdat align 2 {
  ret void
}

; Function Attrs: nounwind ssp uwtable
define linkonce_odr hidden void @_ZN7content19WebContentsObserver20WebContentsDestroyedEv(%"class.content::WebContentsObserver"*) unnamed_addr #0 comdat align 2 {
  ret void
}

; Function Attrs: nounwind ssp uwtable
define linkonce_odr hidden void @_ZN7content19WebContentsObserver20UserAgentOverrideSetERKN5blink17UserAgentOverrideE(%"class.content::WebContentsObserver"*, %"struct.blink::UserAgentOverride"* dereferenceable(184)) unnamed_addr #0 comdat align 2 {
  ret void
}

; Function Attrs: nounwind ssp uwtable
define linkonce_odr hidden void @_ZN7content19WebContentsObserver19DidUpdateFaviconURLEPNS_15RenderFrameHostERKNSt3__16vectorIN4mojo9StructPtrIN5blink5mojom10FaviconURLEEENS3_9allocatorISA_EEEE(%"class.content::WebContentsObserver"*, %"class.content::RenderFrameHost"*, %"class.std::__1::vector.185"*) unnamed_addr #0 comdat align 2 {
  ret void
}

; Function Attrs: nounwind ssp uwtable
define linkonce_odr hidden void @_ZN7content19WebContentsObserver19OnAudioStateChangedEb(%"class.content::WebContentsObserver"*, i1 zeroext) unnamed_addr #0 comdat align 2 {
  ret void
}

; Function Attrs: nounwind ssp uwtable
define linkonce_odr hidden void @_ZN7content19WebContentsObserver24OnFrameAudioStateChangedEPNS_15RenderFrameHostEb(%"class.content::WebContentsObserver"*, %"class.content::RenderFrameHost"*, i1 zeroext) unnamed_addr #0 comdat align 2 {
  ret void
}

; Function Attrs: nounwind ssp uwtable
define linkonce_odr hidden void @_ZN7content19WebContentsObserver37OnIsConnectedToBluetoothDeviceChangedEb(%"class.content::WebContentsObserver"*, i1 zeroext) unnamed_addr #0 comdat align 2 {
  ret void
}

; Function Attrs: nounwind ssp uwtable
define linkonce_odr hidden void @_ZN7content19WebContentsObserver25DidUpdateAudioMutingStateEb(%"class.content::WebContentsObserver"*, i1 zeroext) unnamed_addr #0 comdat align 2 {
  ret void
}

; Function Attrs: nounwind ssp uwtable
define linkonce_odr hidden void @_ZN7content19WebContentsObserver29DidToggleFullscreenModeForTabEbb(%"class.content::WebContentsObserver"*, i1 zeroext, i1 zeroext) unnamed_addr #0 comdat align 2 {
  ret void
}

; Function Attrs: nounwind ssp uwtable
define linkonce_odr hidden void @_ZN7content19WebContentsObserver20DidAcquireFullscreenEPNS_15RenderFrameHostE(%"class.content::WebContentsObserver"*, %"class.content::RenderFrameHost"*) unnamed_addr #0 comdat align 2 {
  ret void
}

; Function Attrs: nounwind ssp uwtable
define linkonce_odr hidden void @_ZN7content19WebContentsObserver32DidChangeVerticalScrollDirectionEN3viz23VerticalScrollDirectionE(%"class.content::WebContentsObserver"*, i32) unnamed_addr #0 comdat align 2 {
  ret void
}

; Function Attrs: nounwind ssp uwtable
define linkonce_odr hidden void @_ZN7content19WebContentsObserver27BeforeFormRepostWarningShowEv(%"class.content::WebContentsObserver"*) unnamed_addr #0 comdat align 2 {
  ret void
}

; Function Attrs: nounwind ssp uwtable
define linkonce_odr hidden void @_ZN7content19WebContentsObserver17BeforeUnloadFiredEbRKN4base9TimeTicksE(%"class.content::WebContentsObserver"*, i1 zeroext, %"class.base::TimeTicks"* dereferenceable(8)) unnamed_addr #0 comdat align 2 {
  ret void
}

; Function Attrs: nounwind ssp uwtable
define linkonce_odr hidden void @_ZN7content19WebContentsObserver27BeforeUnloadDialogCancelledEv(%"class.content::WebContentsObserver"*) unnamed_addr #0 comdat align 2 {
  ret void
}

; Function Attrs: nounwind ssp uwtable
define linkonce_odr hidden void @_ZN7content19WebContentsObserver30AXTreeIDForMainFrameHasChangedEv(%"class.content::WebContentsObserver"*) unnamed_addr #0 comdat align 2 {
  ret void
}

; Function Attrs: nounwind ssp uwtable
define linkonce_odr hidden void @_ZN7content19WebContentsObserver26AccessibilityEventReceivedERKNS_26AXEventNotificationDetailsE(%"class.content::WebContentsObserver"*, %"struct.content::AXEventNotificationDetails"*) unnamed_addr #0 comdat align 2 {
  ret void
}

; Function Attrs: nounwind ssp uwtable
define linkonce_odr hidden void @_ZN7content19WebContentsObserver36AccessibilityLocationChangesReceivedERKNSt3__16vectorINS_35AXLocationChangeNotificationDetailsENS1_9allocatorIS3_EEEE(%"class.content::WebContentsObserver"*, %"class.std::__1::vector.186"*) unnamed_addr #0 comdat align 2 {
  ret void
}

; Function Attrs: nounwind ssp uwtable
define linkonce_odr hidden void @_ZN7content19WebContentsObserver19DidChangeThemeColorEv(%"class.content::WebContentsObserver"*) unnamed_addr #0 comdat align 2 {
  ret void
}

; Function Attrs: nounwind ssp uwtable
define linkonce_odr hidden void @_ZN7content19WebContentsObserver24OnBackgroundColorChangedEv(%"class.content::WebContentsObserver"*) unnamed_addr #0 comdat align 2 {
  ret void
}

; Function Attrs: nounwind ssp uwtable
define linkonce_odr hidden void @_ZN7content19WebContentsObserver24OnDidAddMessageToConsoleEPNS_15RenderFrameHostEN5blink5mojom19ConsoleMessageLevelERKNSt3__112basic_stringIDsNS6_11char_traitsIDsEENS6_9allocatorIDsEEEEiSE_RKN4absl8optionalISC_EE(%"class.content::WebContentsObserver"*, %"class.content::RenderFrameHost"*, i32, %"class.std::__1::basic_string.187"* dereferenceable(24), i32, %"class.std::__1::basic_string.187"* dereferenceable(24), %"class.absl::optional.196"*) unnamed_addr #0 comdat align 2 {
  ret void
}

; Function Attrs: nounwind ssp uwtable
define linkonce_odr hidden void @_ZN7content19WebContentsObserver19MediaStartedPlayingERKNS0_15MediaPlayerInfoERKNS_13MediaPlayerIdE(%"class.content::WebContentsObserver"*, %"struct.content::WebContentsObserver::MediaPlayerInfo"* dereferenceable(2), %"struct.content::MediaPlayerId"*) unnamed_addr #0 comdat align 2 {
  ret void
}

; Function Attrs: nounwind ssp uwtable
define linkonce_odr hidden void @_ZN7content19WebContentsObserver19MediaStoppedPlayingERKNS0_15MediaPlayerInfoERKNS_13MediaPlayerIdENS0_18MediaStoppedReasonE(%"class.content::WebContentsObserver"*, %"struct.content::WebContentsObserver::MediaPlayerInfo"* dereferenceable(2), %"struct.content::MediaPlayerId"*, i32) unnamed_addr #0 comdat align 2 {
  ret void
}

; Function Attrs: nounwind ssp uwtable
define linkonce_odr hidden void @_ZN7content19WebContentsObserver12MediaResizedERKN3gfx4SizeERKNS_13MediaPlayerIdE(%"class.content::WebContentsObserver"*, %"class.gfx::Size"* dereferenceable(8), %"struct.content::MediaPlayerId"*) unnamed_addr #0 comdat align 2 {
  ret void
}

; Function Attrs: nounwind ssp uwtable
define linkonce_odr hidden void @_ZN7content19WebContentsObserver33MediaEffectivelyFullscreenChangedEb(%"class.content::WebContentsObserver"*, i1 zeroext) unnamed_addr #0 comdat align 2 {
  ret void
}

; Function Attrs: nounwind ssp uwtable
define linkonce_odr hidden void @_ZN7content19WebContentsObserver28MediaPictureInPictureChangedEb(%"class.content::WebContentsObserver"*, i1 zeroext) unnamed_addr #0 comdat align 2 {
  ret void
}

; Function Attrs: nounwind ssp uwtable
define linkonce_odr hidden void @_ZN7content19WebContentsObserver23MediaMutedStatusChangedERKNS_13MediaPlayerIdEb(%"class.content::WebContentsObserver"*, %"struct.content::MediaPlayerId"*, i1 zeroext) unnamed_addr #0 comdat align 2 {
  ret void
}

; Function Attrs: nounwind ssp uwtable
define linkonce_odr hidden void @_ZN7content19WebContentsObserver20MediaBufferUnderflowERKNS_13MediaPlayerIdE(%"class.content::WebContentsObserver"*, %"struct.content::MediaPlayerId"*) unnamed_addr #0 comdat align 2 {
  ret void
}

; Function Attrs: nounwind ssp uwtable
define linkonce_odr hidden void @_ZN7content19WebContentsObserver15MediaPlayerSeekERKNS_13MediaPlayerIdE(%"class.content::WebContentsObserver"*, %"struct.content::MediaPlayerId"*) unnamed_addr #0 comdat align 2 {
  ret void
}

; Function Attrs: nounwind ssp uwtable
define linkonce_odr hidden void @_ZN7content19WebContentsObserver14MediaDestroyedERKNS_13MediaPlayerIdE(%"class.content::WebContentsObserver"*, %"struct.content::MediaPlayerId"*) unnamed_addr #0 comdat align 2 {
  ret void
}

; Function Attrs: nounwind ssp uwtable
define linkonce_odr hidden void @_ZN7content19WebContentsObserver24OnPageScaleFactorChangedEf(%"class.content::WebContentsObserver"*, float) unnamed_addr #0 comdat align 2 {
  ret void
}

; Function Attrs: nounwind ssp uwtable
define linkonce_odr hidden void @_ZN7content19WebContentsObserver7OnPasteEv(%"class.content::WebContentsObserver"*) unnamed_addr #0 comdat align 2 {
  ret void
}

declare zeroext i1 @_ZN7content19WebContentsObserver17OnMessageReceivedERKN3IPC7MessageEPNS_15RenderFrameHostE(%"class.content::WebContentsObserver"*, %"class.IPC::Message"* dereferenceable(56), %"class.content::RenderFrameHost"*) unnamed_addr #1

; Function Attrs: nounwind ssp uwtable
define linkonce_odr hidden void @_ZN7content19WebContentsObserver20OnWebContentsFocusedEPNS_16RenderWidgetHostE(%"class.content::WebContentsObserver"*, %"class.content::RenderWidgetHost"*) unnamed_addr #0 comdat align 2 {
  ret void
}

; Function Attrs: nounwind ssp uwtable
define linkonce_odr hidden void @_ZN7content19WebContentsObserver22OnWebContentsLostFocusEPNS_16RenderWidgetHostE(%"class.content::WebContentsObserver"*, %"class.content::RenderWidgetHost"*) unnamed_addr #0 comdat align 2 {
  ret void
}

; Function Attrs: nounwind ssp uwtable
define linkonce_odr hidden void @_ZN7content19WebContentsObserver20OnFocusChangedInPageEPNS_18FocusedNodeDetailsE(%"class.content::WebContentsObserver"*, %"struct.content::FocusedNodeDetails"*) unnamed_addr #0 comdat align 2 {
  ret void
}

; Function Attrs: nounwind ssp uwtable
define linkonce_odr hidden void @_ZN7content19WebContentsObserver23DidUpdateWebManifestURLEPNS_15RenderFrameHostERKN4absl8optionalI4GURLEE(%"class.content::WebContentsObserver"*, %"class.content::RenderFrameHost"*, %"class.absl::optional.197"* dereferenceable(128)) unnamed_addr #0 comdat align 2 {
  ret void
}

; Function Attrs: nounwind ssp uwtable
define linkonce_odr hidden void @_ZN7content19WebContentsObserver27OnInterfaceRequestFromFrameEPNS_15RenderFrameHostERKNSt3__112basic_stringIcNS3_11char_traitsIcEENS3_9allocatorIcEEEEPN4mojo16ScopedHandleBaseINSC_17MessagePipeHandleEEE(%"class.content::WebContentsObserver"*, %"class.content::RenderFrameHost"*, %"class.std::__1::basic_string"* dereferenceable(24), %"class.mojo::ScopedHandleBase"*) unnamed_addr #0 comdat align 2 {
  ret void
}

; Function Attrs: nounwind ssp uwtable
define linkonce_odr hidden void @_ZN7content19WebContentsObserver27AudioContextPlaybackStartedERKNSt3__14pairIPNS_15RenderFrameHostEiEE(%"class.content::WebContentsObserver"*, %"struct.std::__1::pair.202"*) unnamed_addr #0 comdat align 2 {
  ret void
}

; Function Attrs: nounwind ssp uwtable
define linkonce_odr hidden void @_ZN7content19WebContentsObserver27AudioContextPlaybackStoppedERKNSt3__14pairIPNS_15RenderFrameHostEiEE(%"class.content::WebContentsObserver"*, %"struct.std::__1::pair.202"*) unnamed_addr #0 comdat align 2 {
  ret void
}

; Function Attrs: nounwind ssp uwtable
define linkonce_odr hidden void @_ZN7content19WebContentsObserver23OnServiceWorkerAccessedEPNS_15RenderFrameHostERK4GURLNS_24AllowServiceWorkerResultE(%"class.content::WebContentsObserver"*, %"class.content::RenderFrameHost"*, %class.GURL* dereferenceable(120), i24) unnamed_addr #0 comdat align 2 {
  ret void
}

; Function Attrs: nounwind ssp uwtable
define linkonce_odr hidden void @_ZN7content19WebContentsObserver23OnServiceWorkerAccessedEPNS_16NavigationHandleERK4GURLNS_24AllowServiceWorkerResultE(%"class.content::WebContentsObserver"*, %"class.content::NavigationHandle"*, %class.GURL* dereferenceable(120), i24) unnamed_addr #0 comdat align 2 {
  ret void
}

declare zeroext i1 @_ZN8printing5mojom16PrintManagerHost23GetDefaultPrintSettingsEPN4mojo9StructPtrINS0_11PrintParamsEEE(%"class.printing::mojom::PrintManagerHost"*, %"class.mojo::StructPtr.203"*) unnamed_addr #1

declare void @__cxa_pure_virtual() unnamed_addr

declare zeroext i1 @_ZN8printing5mojom16PrintManagerHost16DidPrintDocumentEN4mojo9StructPtrINS0_22DidPrintDocumentParamsEEEPb(%"class.printing::mojom::PrintManagerHost"*, %"class.mojo::StructPtr"*, i8*) unnamed_addr #1

declare zeroext i1 @_ZN8printing5mojom16PrintManagerHost13ScriptedPrintEN4mojo9StructPtrINS0_19ScriptedPrintParamsEEEPNS3_INS0_16PrintPagesParamsEEE(%"class.printing::mojom::PrintManagerHost"*, %"class.mojo::StructPtr.224"*, %"class.mojo::StructPtr.210"*) unnamed_addr #1

declare zeroext i1 @_ZN8printing5mojom16PrintManagerHost19UpdatePrintSettingsEiN4base5ValueEPN4mojo9StructPtrINS0_16PrintPagesParamsEEEPb(%"class.printing::mojom::PrintManagerHost"*, i32, %"class.base::Value"*, %"class.mojo::StructPtr.210"*, i8*) unnamed_addr #1

declare zeroext i1 @_ZN8printing5mojom16PrintManagerHost25SetupScriptedPrintPreviewEv(%"class.printing::mojom::PrintManagerHost"*) unnamed_addr #1

declare zeroext i1 @_ZN8printing5mojom16PrintManagerHost14CheckForCancelEiiPb(%"class.printing::mojom::PrintManagerHost"*, i32, i32, i8*) unnamed_addr #1

; Function Attrs: nounwind ssp uwtable
define linkonce_odr hidden void @_ZN7content27WebContentsFrameReceiverSetIN8printing5mojom16PrintManagerHostEE20FrameInterfaceBinderD2Ev(%"class.content::WebContentsFrameReceiverSet<printing::mojom::PrintManagerHost>::FrameInterfaceBinder"*) unnamed_addr #0 comdat align 2 {
  %2 = getelementptr inbounds %"class.content::WebContentsFrameReceiverSet<printing::mojom::PrintManagerHost>::FrameInterfaceBinder", %"class.content::WebContentsFrameReceiverSet<printing::mojom::PrintManagerHost>::FrameInterfaceBinder"* %0, i64 0, i32 1
  %3 = bitcast %"class.content::WebContentsFrameReceiverSet<printing::mojom::PrintManagerHost>::FrameInterfaceBinder"* %0 to <2 x i32 (...)**>*
  store <2 x i32 (...)**> <i32 (...)** bitcast (i8** getelementptr inbounds ({ [7 x i8*], [109 x i8*] }, { [7 x i8*], [109 x i8*] }* @_ZTVN7content27WebContentsFrameReceiverSetIN8printing5mojom16PrintManagerHostEE20FrameInterfaceBinderE, i64 0, inrange i32 0, i64 2) to i32 (...)**), i32 (...)** bitcast (i8** getelementptr inbounds ({ [7 x i8*], [109 x i8*] }, { [7 x i8*], [109 x i8*] }* @_ZTVN7content27WebContentsFrameReceiverSetIN8printing5mojom16PrintManagerHostEE20FrameInterfaceBinderE, i64 0, inrange i32 1, i64 2) to i32 (...)**)>, <2 x i32 (...)**>* %3, align 8
  %4 = getelementptr inbounds %"class.content::WebContentsFrameReceiverSet<printing::mojom::PrintManagerHost>::FrameInterfaceBinder", %"class.content::WebContentsFrameReceiverSet<printing::mojom::PrintManagerHost>::FrameInterfaceBinder"* %0, i64 0, i32 4, i32 0
  %5 = getelementptr inbounds %"class.content::WebContentsFrameReceiverSet<printing::mojom::PrintManagerHost>::FrameInterfaceBinder", %"class.content::WebContentsFrameReceiverSet<printing::mojom::PrintManagerHost>::FrameInterfaceBinder"* %0, i64 0, i32 4, i32 0, i32 1, i32 0, i32 0
  %6 = bitcast %"class.std::__1::__tree_end_node"* %5 to %"class.std::__1::__tree_node"**
  %7 = load %"class.std::__1::__tree_node"*, %"class.std::__1::__tree_node"** %6, align 8
  tail call void @_ZNSt3__16__treeINS_12__value_typeIPN7content15RenderFrameHostENS_6vectorImNS_9allocatorImEEEEEENS_19__map_value_compareIS4_S9_NS_4lessIS4_EELb1EEENS6_IS9_EEE7destroyEPNS_11__tree_nodeIS9_PvEE(%"class.std::__1::__tree.25"* %4, %"class.std::__1::__tree_node"* %7) #15
  %8 = getelementptr inbounds %"class.content::WebContentsFrameReceiverSet<printing::mojom::PrintManagerHost>::FrameInterfaceBinder", %"class.content::WebContentsFrameReceiverSet<printing::mojom::PrintManagerHost>::FrameInterfaceBinder"* %0, i64 0, i32 3, i32 0
  tail call void @_ZN4mojo16ReceiverSetStateD1Ev(%"class.mojo::ReceiverSetState"* %8) #15
  tail call void @_ZN7content19WebContentsObserverD2Ev(%"class.content::WebContentsObserver"* %2) #15
  ret void
}

; Function Attrs: nounwind
declare void @_ZN7content22WebContentsReceiverSetD2Ev(%"class.content::WebContentsReceiverSet"*) unnamed_addr #2

; Function Attrs: nounwind ssp uwtable
define linkonce_odr hidden void @_ZThn8_N7content27WebContentsFrameReceiverSetIN8printing5mojom16PrintManagerHostEE20FrameInterfaceBinderD1Ev(%"class.content::WebContentsFrameReceiverSet<printing::mojom::PrintManagerHost>::FrameInterfaceBinder"*) unnamed_addr #0 comdat align 2 {
  %2 = getelementptr inbounds %"class.content::WebContentsFrameReceiverSet<printing::mojom::PrintManagerHost>::FrameInterfaceBinder", %"class.content::WebContentsFrameReceiverSet<printing::mojom::PrintManagerHost>::FrameInterfaceBinder"* %0, i64 -1, i32 4, i32 0, i32 2
  %3 = getelementptr inbounds %"class.std::__1::__compressed_pair.30", %"class.std::__1::__compressed_pair.30"* %2, i64 1
  %4 = bitcast %"class.std::__1::__compressed_pair.30"* %3 to %"class.content::WebContentsObserver"*
  %5 = bitcast %"class.std::__1::__compressed_pair.30"* %2 to <2 x i32 (...)**>*
  store <2 x i32 (...)**> <i32 (...)** bitcast (i8** getelementptr inbounds ({ [7 x i8*], [109 x i8*] }, { [7 x i8*], [109 x i8*] }* @_ZTVN7content27WebContentsFrameReceiverSetIN8printing5mojom16PrintManagerHostEE20FrameInterfaceBinderE, i64 0, inrange i32 0, i64 2) to i32 (...)**), i32 (...)** bitcast (i8** getelementptr inbounds ({ [7 x i8*], [109 x i8*] }, { [7 x i8*], [109 x i8*] }* @_ZTVN7content27WebContentsFrameReceiverSetIN8printing5mojom16PrintManagerHostEE20FrameInterfaceBinderE, i64 0, inrange i32 1, i64 2) to i32 (...)**)>, <2 x i32 (...)**>* %5, align 8
  %6 = getelementptr inbounds %"class.std::__1::__compressed_pair.30", %"class.std::__1::__compressed_pair.30"* %2, i64 14
  %7 = bitcast %"class.std::__1::__compressed_pair.30"* %6 to %"class.std::__1::__tree.25"*
  %8 = getelementptr inbounds %"class.std::__1::__compressed_pair.30", %"class.std::__1::__compressed_pair.30"* %2, i64 15
  %9 = bitcast %"class.std::__1::__compressed_pair.30"* %8 to %"class.std::__1::__tree_node"**
  %10 = load %"class.std::__1::__tree_node"*, %"class.std::__1::__tree_node"** %9, align 8
  tail call void @_ZNSt3__16__treeINS_12__value_typeIPN7content15RenderFrameHostENS_6vectorImNS_9allocatorImEEEEEENS_19__map_value_compareIS4_S9_NS_4lessIS4_EELb1EEENS6_IS9_EEE7destroyEPNS_11__tree_nodeIS9_PvEE(%"class.std::__1::__tree.25"* %7, %"class.std::__1::__tree_node"* %10) #15
  %11 = getelementptr inbounds %"class.std::__1::__compressed_pair.30", %"class.std::__1::__compressed_pair.30"* %2, i64 4
  %12 = bitcast %"class.std::__1::__compressed_pair.30"* %11 to %"class.mojo::ReceiverSetState"*
  tail call void @_ZN4mojo16ReceiverSetStateD1Ev(%"class.mojo::ReceiverSetState"* %12) #15
  tail call void @_ZN7content19WebContentsObserverD2Ev(%"class.content::WebContentsObserver"* %4) #15
  ret void
}

; Function Attrs: nounwind ssp uwtable
define linkonce_odr hidden void @_ZN7content27WebContentsFrameReceiverSetIN8printing5mojom16PrintManagerHostEE20FrameInterfaceBinderD0Ev(%"class.content::WebContentsFrameReceiverSet<printing::mojom::PrintManagerHost>::FrameInterfaceBinder"*) unnamed_addr #0 comdat align 2 {
  %2 = getelementptr inbounds %"class.content::WebContentsFrameReceiverSet<printing::mojom::PrintManagerHost>::FrameInterfaceBinder", %"class.content::WebContentsFrameReceiverSet<printing::mojom::PrintManagerHost>::FrameInterfaceBinder"* %0, i64 0, i32 1
  %3 = bitcast %"class.content::WebContentsFrameReceiverSet<printing::mojom::PrintManagerHost>::FrameInterfaceBinder"* %0 to <2 x i32 (...)**>*
  store <2 x i32 (...)**> <i32 (...)** bitcast (i8** getelementptr inbounds ({ [7 x i8*], [109 x i8*] }, { [7 x i8*], [109 x i8*] }* @_ZTVN7content27WebContentsFrameReceiverSetIN8printing5mojom16PrintManagerHostEE20FrameInterfaceBinderE, i64 0, inrange i32 0, i64 2) to i32 (...)**), i32 (...)** bitcast (i8** getelementptr inbounds ({ [7 x i8*], [109 x i8*] }, { [7 x i8*], [109 x i8*] }* @_ZTVN7content27WebContentsFrameReceiverSetIN8printing5mojom16PrintManagerHostEE20FrameInterfaceBinderE, i64 0, inrange i32 1, i64 2) to i32 (...)**)>, <2 x i32 (...)**>* %3, align 8
  %4 = getelementptr inbounds %"class.content::WebContentsFrameReceiverSet<printing::mojom::PrintManagerHost>::FrameInterfaceBinder", %"class.content::WebContentsFrameReceiverSet<printing::mojom::PrintManagerHost>::FrameInterfaceBinder"* %0, i64 0, i32 4, i32 0
  %5 = getelementptr inbounds %"class.content::WebContentsFrameReceiverSet<printing::mojom::PrintManagerHost>::FrameInterfaceBinder", %"class.content::WebContentsFrameReceiverSet<printing::mojom::PrintManagerHost>::FrameInterfaceBinder"* %0, i64 0, i32 4, i32 0, i32 1, i32 0, i32 0
  %6 = bitcast %"class.std::__1::__tree_end_node"* %5 to %"class.std::__1::__tree_node"**
  %7 = load %"class.std::__1::__tree_node"*, %"class.std::__1::__tree_node"** %6, align 8
  tail call void @_ZNSt3__16__treeINS_12__value_typeIPN7content15RenderFrameHostENS_6vectorImNS_9allocatorImEEEEEENS_19__map_value_compareIS4_S9_NS_4lessIS4_EELb1EEENS6_IS9_EEE7destroyEPNS_11__tree_nodeIS9_PvEE(%"class.std::__1::__tree.25"* %4, %"class.std::__1::__tree_node"* %7) #15
  %8 = getelementptr inbounds %"class.content::WebContentsFrameReceiverSet<printing::mojom::PrintManagerHost>::FrameInterfaceBinder", %"class.content::WebContentsFrameReceiverSet<printing::mojom::PrintManagerHost>::FrameInterfaceBinder"* %0, i64 0, i32 3, i32 0
  tail call void @_ZN4mojo16ReceiverSetStateD1Ev(%"class.mojo::ReceiverSetState"* %8) #15
  tail call void @_ZN7content19WebContentsObserverD2Ev(%"class.content::WebContentsObserver"* %2) #15
  %9 = bitcast %"class.content::WebContentsFrameReceiverSet<printing::mojom::PrintManagerHost>::FrameInterfaceBinder"* %0 to i8*
  tail call void @_ZdlPv(i8* %9) #17
  ret void
}

; Function Attrs: nounwind ssp uwtable
define linkonce_odr hidden void @_ZN7content27WebContentsFrameReceiverSetIN8printing5mojom16PrintManagerHostEE20FrameInterfaceBinder18OnReceiverForFrameEPNS_15RenderFrameHostEN4mojo29ScopedInterfaceEndpointHandleE(%"class.content::WebContentsFrameReceiverSet<printing::mojom::PrintManagerHost>::FrameInterfaceBinder"*, %"class.content::RenderFrameHost"*, %"class.mojo::ScopedInterfaceEndpointHandle"*) unnamed_addr #0 comdat align 2 {
  %4 = alloca %"class.mojo::PendingAssociatedReceiver", align 8
  %5 = alloca %"class.mojo::PendingAssociatedReceiver", align 8
  %6 = alloca %"class.mojo::ScopedInterfaceEndpointHandle", align 8
  %7 = ptrtoint %"class.content::RenderFrameHost"* %1 to i64
  %8 = getelementptr inbounds %"class.content::WebContentsFrameReceiverSet<printing::mojom::PrintManagerHost>::FrameInterfaceBinder", %"class.content::WebContentsFrameReceiverSet<printing::mojom::PrintManagerHost>::FrameInterfaceBinder"* %0, i64 0, i32 3
  %9 = getelementptr inbounds %"class.content::WebContentsFrameReceiverSet<printing::mojom::PrintManagerHost>::FrameInterfaceBinder", %"class.content::WebContentsFrameReceiverSet<printing::mojom::PrintManagerHost>::FrameInterfaceBinder"* %0, i64 0, i32 2
  %10 = load %"class.printing::mojom::PrintManagerHost"*, %"class.printing::mojom::PrintManagerHost"** %9, align 8
  call void @_ZN4mojo29ScopedInterfaceEndpointHandleC1EOS0_(%"class.mojo::ScopedInterfaceEndpointHandle"* nonnull %6, %"class.mojo::ScopedInterfaceEndpointHandle"* dereferenceable(8) %2) #15
  %11 = getelementptr inbounds %"class.mojo::PendingAssociatedReceiver", %"class.mojo::PendingAssociatedReceiver"* %5, i64 0, i32 0
  call void @_ZN4mojo29ScopedInterfaceEndpointHandleC1EOS0_(%"class.mojo::ScopedInterfaceEndpointHandle"* nonnull %11, %"class.mojo::ScopedInterfaceEndpointHandle"* nonnull dereferenceable(8) %6) #15
  %12 = bitcast %"class.mojo::PendingAssociatedReceiver"* %4 to i8*
  call void @llvm.lifetime.start.p0i8(i64 8, i8* nonnull %12)
  %13 = getelementptr inbounds %"class.mojo::PendingAssociatedReceiver", %"class.mojo::PendingAssociatedReceiver"* %4, i64 0, i32 0
  call void @_ZN4mojo29ScopedInterfaceEndpointHandleC1EOS0_(%"class.mojo::ScopedInterfaceEndpointHandle"* nonnull %13, %"class.mojo::ScopedInterfaceEndpointHandle"* nonnull dereferenceable(8) %11) #15
  %14 = call i64 @_ZN4mojo15ReceiverSetBaseINS_18AssociatedReceiverIN8printing5mojom16PrintManagerHostENS_19RawPtrImplRefTraitsIS4_EEEEPN7content15RenderFrameHostEE7AddImplEPS4_NS_25PendingAssociatedReceiverIS4_EESA_13scoped_refptrIN4base19SequencedTaskRunnerEE(%"class.mojo::ReceiverSetBase"* %8, %"class.printing::mojom::PrintManagerHost"* %10, %"class.mojo::PendingAssociatedReceiver"* nonnull %4, %"class.content::RenderFrameHost"* %1, %"class.base::SequencedTaskRunner"* null) #15
  call void @_ZN4mojo29ScopedInterfaceEndpointHandleD1Ev(%"class.mojo::ScopedInterfaceEndpointHandle"* nonnull %13) #15
  call void @llvm.lifetime.end.p0i8(i64 8, i8* nonnull %12)
  call void @_ZN4mojo29ScopedInterfaceEndpointHandleD1Ev(%"class.mojo::ScopedInterfaceEndpointHandle"* nonnull %11) #15
  call void @_ZN4mojo29ScopedInterfaceEndpointHandleD1Ev(%"class.mojo::ScopedInterfaceEndpointHandle"* nonnull %6) #15
  %15 = getelementptr inbounds %"class.content::WebContentsFrameReceiverSet<printing::mojom::PrintManagerHost>::FrameInterfaceBinder", %"class.content::WebContentsFrameReceiverSet<printing::mojom::PrintManagerHost>::FrameInterfaceBinder"* %0, i64 0, i32 4
  %16 = getelementptr inbounds %"class.content::WebContentsFrameReceiverSet<printing::mojom::PrintManagerHost>::FrameInterfaceBinder", %"class.content::WebContentsFrameReceiverSet<printing::mojom::PrintManagerHost>::FrameInterfaceBinder"* %0, i64 0, i32 4, i32 0, i32 1, i32 0, i32 0
  %17 = bitcast %"class.std::__1::__tree_end_node"* %16 to %"class.std::__1::__tree_node"**
  %18 = load %"class.std::__1::__tree_node"*, %"class.std::__1::__tree_node"** %17, align 8
  %19 = icmp eq %"class.std::__1::__tree_node"* %18, null
  br i1 %19, label %48, label %20

20:                                               ; preds = %3
  %21 = getelementptr inbounds %"class.content::WebContentsFrameReceiverSet<printing::mojom::PrintManagerHost>::FrameInterfaceBinder", %"class.content::WebContentsFrameReceiverSet<printing::mojom::PrintManagerHost>::FrameInterfaceBinder"* %0, i64 0, i32 4, i32 0, i32 1, i32 0, i32 0, i32 0
  br label %22

22:                                               ; preds = %44, %20
  %23 = phi %"class.std::__1::__tree_node"* [ %47, %44 ], [ %18, %20 ]
  %24 = phi %"class.std::__1::__tree_node_base"** [ %46, %44 ], [ %21, %20 ]
  %25 = getelementptr inbounds %"class.std::__1::__tree_node", %"class.std::__1::__tree_node"* %23, i64 0, i32 1, i32 0, i32 0
  %26 = load %"class.content::RenderFrameHost"*, %"class.content::RenderFrameHost"** %25, align 8
  %27 = icmp ugt %"class.content::RenderFrameHost"* %26, %1
  br i1 %27, label %28, label %34

28:                                               ; preds = %22
  %29 = getelementptr inbounds %"class.std::__1::__tree_node", %"class.std::__1::__tree_node"* %23, i64 0, i32 0, i32 0, i32 0
  %30 = load %"class.std::__1::__tree_node_base"*, %"class.std::__1::__tree_node_base"** %29, align 8
  %31 = icmp eq %"class.std::__1::__tree_node_base"* %30, null
  br i1 %31, label %32, label %44

32:                                               ; preds = %28
  %33 = getelementptr inbounds %"class.std::__1::__tree_node", %"class.std::__1::__tree_node"* %23, i64 0, i32 0, i32 0
  br label %50

34:                                               ; preds = %22
  %35 = icmp ult %"class.content::RenderFrameHost"* %26, %1
  br i1 %35, label %36, label %42

36:                                               ; preds = %34
  %37 = getelementptr inbounds %"class.std::__1::__tree_node", %"class.std::__1::__tree_node"* %23, i64 0, i32 0, i32 1
  %38 = load %"class.std::__1::__tree_node_base"*, %"class.std::__1::__tree_node_base"** %37, align 8
  %39 = icmp eq %"class.std::__1::__tree_node_base"* %38, null
  br i1 %39, label %40, label %44

40:                                               ; preds = %36
  %41 = getelementptr inbounds %"class.std::__1::__tree_node", %"class.std::__1::__tree_node"* %23, i64 0, i32 0, i32 0
  br label %50

42:                                               ; preds = %34
  %43 = getelementptr inbounds %"class.std::__1::__tree_node", %"class.std::__1::__tree_node"* %23, i64 0, i32 0, i32 0
  br label %50

44:                                               ; preds = %36, %28
  %45 = phi %"class.std::__1::__tree_node_base"* [ %30, %28 ], [ %38, %36 ]
  %46 = phi %"class.std::__1::__tree_node_base"** [ %29, %28 ], [ %37, %36 ]
  %47 = bitcast %"class.std::__1::__tree_node_base"* %45 to %"class.std::__1::__tree_node"*
  br label %22

48:                                               ; preds = %3
  %49 = getelementptr inbounds %"class.std::__1::__tree_end_node", %"class.std::__1::__tree_end_node"* %16, i64 0, i32 0
  br label %50

50:                                               ; preds = %48, %42, %40, %32
  %51 = phi %"class.std::__1::__tree_end_node"* [ %16, %48 ], [ %33, %32 ], [ %41, %40 ], [ %43, %42 ]
  %52 = phi %"class.std::__1::__tree_node_base"** [ %49, %48 ], [ %29, %32 ], [ %37, %40 ], [ %24, %42 ]
  %53 = bitcast %"class.std::__1::__tree_node_base"** %52 to %"class.std::__1::__tree_node"**
  %54 = load %"class.std::__1::__tree_node"*, %"class.std::__1::__tree_node"** %53, align 8
  %55 = icmp eq %"class.std::__1::__tree_node"* %54, null
  br i1 %55, label %56, label %82

56:                                               ; preds = %50
  %57 = call i8* @_Znwm(i64 64) #17, !noalias !3
  %58 = getelementptr inbounds i8, i8* %57, i64 32
  %59 = bitcast i8* %58 to i64*
  store i64 %7, i64* %59, align 8, !noalias !3
  %60 = getelementptr inbounds i8, i8* %57, i64 40
  call void @llvm.memset.p0i8.i64(i8* align 8 %60, i8 0, i64 24, i1 false) #15, !noalias !3
  %61 = bitcast i8* %57 to %"class.std::__1::__tree_node"*
  %62 = bitcast i8* %57 to %"class.std::__1::__tree_node_base"*
  %63 = getelementptr inbounds i8, i8* %57, i64 16
  %64 = bitcast i8* %63 to %"class.std::__1::__tree_end_node"**
  call void @llvm.memset.p0i8.i64(i8* nonnull align 8 %57, i8 0, i64 16, i1 false) #15
  store %"class.std::__1::__tree_end_node"* %51, %"class.std::__1::__tree_end_node"** %64, align 8
  %65 = bitcast %"class.std::__1::__tree_node_base"** %52 to i8**
  store i8* %57, i8** %65, align 8
  %66 = getelementptr inbounds %"class.std::__1::map.24", %"class.std::__1::map.24"* %15, i64 0, i32 0, i32 0
  %67 = load %"class.std::__1::__tree_end_node"*, %"class.std::__1::__tree_end_node"** %66, align 8
  %68 = getelementptr inbounds %"class.std::__1::__tree_end_node", %"class.std::__1::__tree_end_node"* %67, i64 0, i32 0
  %69 = load %"class.std::__1::__tree_node_base"*, %"class.std::__1::__tree_node_base"** %68, align 8
  %70 = icmp eq %"class.std::__1::__tree_node_base"* %69, null
  br i1 %70, label %75, label %71

71:                                               ; preds = %56
  %72 = ptrtoint %"class.std::__1::__tree_node_base"* %69 to i64
  %73 = bitcast %"class.std::__1::map.24"* %15 to i64*
  store i64 %72, i64* %73, align 8
  %74 = load %"class.std::__1::__tree_node_base"*, %"class.std::__1::__tree_node_base"** %52, align 8
  br label %75

75:                                               ; preds = %71, %56
  %76 = phi %"class.std::__1::__tree_node_base"* [ %62, %56 ], [ %74, %71 ]
  %77 = getelementptr inbounds %"class.content::WebContentsFrameReceiverSet<printing::mojom::PrintManagerHost>::FrameInterfaceBinder", %"class.content::WebContentsFrameReceiverSet<printing::mojom::PrintManagerHost>::FrameInterfaceBinder"* %0, i64 0, i32 4, i32 0, i32 1, i32 0, i32 0, i32 0
  %78 = load %"class.std::__1::__tree_node_base"*, %"class.std::__1::__tree_node_base"** %77, align 8
  call void @_ZNSt3__127__tree_balance_after_insertIPNS_16__tree_node_baseIPvEEEEvT_S5_(%"class.std::__1::__tree_node_base"* %78, %"class.std::__1::__tree_node_base"* %76) #15
  %79 = getelementptr inbounds %"class.content::WebContentsFrameReceiverSet<printing::mojom::PrintManagerHost>::FrameInterfaceBinder", %"class.content::WebContentsFrameReceiverSet<printing::mojom::PrintManagerHost>::FrameInterfaceBinder"* %0, i64 0, i32 4, i32 0, i32 2, i32 0, i32 0
  %80 = load i64, i64* %79, align 8
  %81 = add i64 %80, 1
  store i64 %81, i64* %79, align 8
  br label %82

82:                                               ; preds = %50, %75
  %83 = phi %"class.std::__1::__tree_node"* [ %61, %75 ], [ %54, %50 ]
  %84 = getelementptr inbounds %"class.std::__1::__tree_node", %"class.std::__1::__tree_node"* %83, i64 0, i32 1, i32 0, i32 1
  %85 = getelementptr inbounds %"class.std::__1::__tree_node", %"class.std::__1::__tree_node"* %83, i64 0, i32 1, i32 0, i32 1, i32 0, i32 1
  %86 = load i64*, i64** %85, align 8
  %87 = getelementptr inbounds %"class.std::__1::__tree_node", %"class.std::__1::__tree_node"* %83, i64 0, i32 1, i32 0, i32 1, i32 0, i32 2, i32 0, i32 0
  %88 = load i64*, i64** %87, align 8
  %89 = icmp eq i64* %86, %88
  %90 = ptrtoint i64* %88 to i64
  br i1 %89, label %95, label %91

91:                                               ; preds = %82
  store i64 %14, i64* %86, align 8
  %92 = getelementptr inbounds i64, i64* %86, i64 1
  %93 = ptrtoint i64* %92 to i64
  %94 = bitcast i64** %85 to i64*
  store i64 %93, i64* %94, align 8
  br label %151

95:                                               ; preds = %82
  %96 = ptrtoint i64* %86 to i64
  %97 = bitcast i64** %85 to i64*
  %98 = bitcast %"class.std::__1::vector.264"* %84 to i64*
  %99 = load i64, i64* %98, align 8
  %100 = sub i64 %96, %99
  %101 = ashr exact i64 %100, 3
  %102 = add nsw i64 %101, 1
  %103 = icmp ugt i64 %102, 2305843009213693951
  br i1 %103, label %104, label %106

104:                                              ; preds = %95
  %105 = bitcast %"class.std::__1::vector.264"* %84 to %"class.std::__1::__vector_base_common"*
  call void @_ZNKSt3__120__vector_base_commonILb1EE20__throw_length_errorEv(%"class.std::__1::__vector_base_common"* %105) #16
  unreachable

106:                                              ; preds = %95
  %107 = bitcast i64** %87 to i64*
  %108 = sub i64 %90, %99
  %109 = ashr exact i64 %108, 3
  %110 = icmp ult i64 %109, 1152921504606846975
  br i1 %110, label %111, label %119

111:                                              ; preds = %106
  %112 = ashr exact i64 %108, 2
  %113 = icmp ult i64 %112, %102
  %114 = select i1 %113, i64 %102, i64 %112
  %115 = icmp eq i64 %114, 0
  br i1 %115, label %124, label %116

116:                                              ; preds = %111
  %117 = icmp ugt i64 %114, 2305843009213693951
  br i1 %117, label %118, label %119

118:                                              ; preds = %116
  call void @abort() #16
  unreachable

119:                                              ; preds = %116, %106
  %120 = phi i64 [ %114, %116 ], [ 2305843009213693951, %106 ]
  %121 = shl i64 %120, 3
  %122 = call i8* @_Znwm(i64 %121) #17
  %123 = bitcast i8* %122 to i64*
  br label %124

124:                                              ; preds = %119, %111
  %125 = phi i64 [ %120, %119 ], [ 0, %111 ]
  %126 = phi i64* [ %123, %119 ], [ null, %111 ]
  %127 = getelementptr inbounds i64, i64* %126, i64 %101
  %128 = getelementptr inbounds i64, i64* %126, i64 %125
  %129 = ptrtoint i64* %128 to i64
  store i64 %14, i64* %127, align 8
  %130 = getelementptr inbounds i64, i64* %127, i64 1
  %131 = ptrtoint i64* %130 to i64
  %132 = getelementptr inbounds %"class.std::__1::vector.264", %"class.std::__1::vector.264"* %84, i64 0, i32 0, i32 0
  %133 = load i64*, i64** %132, align 8
  %134 = load i64, i64* %97, align 8
  %135 = ptrtoint i64* %133 to i64
  %136 = sub i64 %134, %135
  %137 = ashr exact i64 %136, 3
  %138 = sub nsw i64 0, %137
  %139 = getelementptr inbounds i64, i64* %127, i64 %138
  %140 = ptrtoint i64* %139 to i64
  %141 = icmp sgt i64 %136, 0
  br i1 %141, label %142, label %146

142:                                              ; preds = %124
  %143 = bitcast i64* %139 to i8*
  %144 = bitcast i64* %133 to i8*
  call void @llvm.memcpy.p0i8.p0i8.i64(i8* align 8 %143, i8* align 8 %144, i64 %136, i1 false) #15
  %145 = load i64*, i64** %132, align 8
  br label %146

146:                                              ; preds = %142, %124
  %147 = phi i64* [ %133, %124 ], [ %145, %142 ]
  store i64 %140, i64* %98, align 8
  store i64 %131, i64* %97, align 8
  store i64 %129, i64* %107, align 8
  %148 = icmp eq i64* %147, null
  br i1 %148, label %151, label %149

149:                                              ; preds = %146
  %150 = bitcast i64* %147 to i8*
  call void @_ZdlPv(i8* %150) #17
  br label %151

151:                                              ; preds = %91, %146, %149
  ret void
}

; Function Attrs: nounwind ssp uwtable
define linkonce_odr hidden void @_ZN7content27WebContentsFrameReceiverSetIN8printing5mojom16PrintManagerHostEE20FrameInterfaceBinder17CloseAllReceiversEv(%"class.content::WebContentsFrameReceiverSet<printing::mojom::PrintManagerHost>::FrameInterfaceBinder"*) unnamed_addr #0 comdat align 2 {
  %2 = getelementptr inbounds %"class.content::WebContentsFrameReceiverSet<printing::mojom::PrintManagerHost>::FrameInterfaceBinder", %"class.content::WebContentsFrameReceiverSet<printing::mojom::PrintManagerHost>::FrameInterfaceBinder"* %0, i64 0, i32 3, i32 0, i32 3
  %3 = getelementptr inbounds %"class.std::__1::map.6", %"class.std::__1::map.6"* %2, i64 0, i32 0
  %4 = getelementptr inbounds %"class.content::WebContentsFrameReceiverSet<printing::mojom::PrintManagerHost>::FrameInterfaceBinder", %"class.content::WebContentsFrameReceiverSet<printing::mojom::PrintManagerHost>::FrameInterfaceBinder"* %0, i64 0, i32 3, i32 0, i32 3, i32 0, i32 1, i32 0, i32 0
  %5 = bitcast %"class.std::__1::__tree_end_node"* %4 to %"class.std::__1::__tree_node.324"**
  %6 = load %"class.std::__1::__tree_node.324"*, %"class.std::__1::__tree_node.324"** %5, align 8
  tail call void @_ZNSt3__16__treeINS_12__value_typeImNS_10unique_ptrIN4mojo16ReceiverSetState5EntryENS_14default_deleteIS5_EEEEEENS_19__map_value_compareImS9_NS_4lessImEELb1EEENS_9allocatorIS9_EEE7destroyEPNS_11__tree_nodeIS9_PvEE(%"class.std::__1::__tree.7"* %3, %"class.std::__1::__tree_node.324"* %6) #15
  %7 = getelementptr inbounds %"class.content::WebContentsFrameReceiverSet<printing::mojom::PrintManagerHost>::FrameInterfaceBinder", %"class.content::WebContentsFrameReceiverSet<printing::mojom::PrintManagerHost>::FrameInterfaceBinder"* %0, i64 0, i32 3, i32 0, i32 3, i32 0, i32 2, i32 0, i32 0
  store i64 0, i64* %7, align 8
  %8 = getelementptr inbounds %"class.std::__1::map.6", %"class.std::__1::map.6"* %2, i64 0, i32 0, i32 0
  store %"class.std::__1::__tree_end_node"* %4, %"class.std::__1::__tree_end_node"** %8, align 8
  %9 = getelementptr inbounds %"class.std::__1::__tree_end_node", %"class.std::__1::__tree_end_node"* %4, i64 0, i32 0
  store %"class.std::__1::__tree_node_base"* null, %"class.std::__1::__tree_node_base"** %9, align 8
  ret void
}

; Function Attrs: nounwind ssp uwtable
define linkonce_odr hidden void @_ZN7content27WebContentsFrameReceiverSetIN8printing5mojom16PrintManagerHostEE20FrameInterfaceBinder18RenderFrameDeletedEPNS_15RenderFrameHostE(%"class.content::WebContentsFrameReceiverSet<printing::mojom::PrintManagerHost>::FrameInterfaceBinder"*, %"class.content::RenderFrameHost"*) unnamed_addr #0 comdat align 2 {
  %3 = getelementptr inbounds %"class.content::WebContentsFrameReceiverSet<printing::mojom::PrintManagerHost>::FrameInterfaceBinder", %"class.content::WebContentsFrameReceiverSet<printing::mojom::PrintManagerHost>::FrameInterfaceBinder"* %0, i64 0, i32 4
  %4 = getelementptr inbounds %"class.content::WebContentsFrameReceiverSet<printing::mojom::PrintManagerHost>::FrameInterfaceBinder", %"class.content::WebContentsFrameReceiverSet<printing::mojom::PrintManagerHost>::FrameInterfaceBinder"* %0, i64 0, i32 4, i32 0, i32 1, i32 0, i32 0
  %5 = bitcast %"class.std::__1::__tree_end_node"* %4 to %"class.std::__1::__tree_node"**
  %6 = load %"class.std::__1::__tree_node"*, %"class.std::__1::__tree_node"** %5, align 8
  %7 = icmp eq %"class.std::__1::__tree_node"* %6, null
  br i1 %7, label %96, label %8

8:                                                ; preds = %2, %8
  %9 = phi %"class.std::__1::__tree_end_node"* [ %19, %8 ], [ %4, %2 ]
  %10 = phi %"class.std::__1::__tree_node"* [ %20, %8 ], [ %6, %2 ]
  %11 = getelementptr inbounds %"class.std::__1::__tree_node", %"class.std::__1::__tree_node"* %10, i64 0, i32 1, i32 0, i32 0
  %12 = load %"class.content::RenderFrameHost"*, %"class.content::RenderFrameHost"** %11, align 8
  %13 = icmp ult %"class.content::RenderFrameHost"* %12, %1
  %14 = getelementptr inbounds %"class.std::__1::__tree_node", %"class.std::__1::__tree_node"* %10, i64 0, i32 0, i32 1
  %15 = bitcast %"class.std::__1::__tree_node_base"** %14 to %"class.std::__1::__tree_node"**
  %16 = getelementptr inbounds %"class.std::__1::__tree_node", %"class.std::__1::__tree_node"* %10, i64 0, i32 0, i32 0
  %17 = bitcast %"class.std::__1::__tree_node"* %10 to %"class.std::__1::__tree_node"**
  %18 = select i1 %13, %"class.std::__1::__tree_node"** %15, %"class.std::__1::__tree_node"** %17
  %19 = select i1 %13, %"class.std::__1::__tree_end_node"* %9, %"class.std::__1::__tree_end_node"* %16
  %20 = load %"class.std::__1::__tree_node"*, %"class.std::__1::__tree_node"** %18, align 8
  %21 = icmp eq %"class.std::__1::__tree_node"* %20, null
  br i1 %21, label %22, label %8

22:                                               ; preds = %8
  %23 = icmp eq %"class.std::__1::__tree_end_node"* %19, %4
  br i1 %23, label %96, label %24

24:                                               ; preds = %22
  %25 = getelementptr inbounds %"class.std::__1::__tree_end_node", %"class.std::__1::__tree_end_node"* %19, i64 4
  %26 = bitcast %"class.std::__1::__tree_end_node"* %25 to %"class.content::RenderFrameHost"**
  %27 = load %"class.content::RenderFrameHost"*, %"class.content::RenderFrameHost"** %26, align 8
  %28 = icmp ugt %"class.content::RenderFrameHost"* %27, %1
  br i1 %28, label %96, label %29

29:                                               ; preds = %24
  %30 = getelementptr inbounds %"class.std::__1::__tree_end_node", %"class.std::__1::__tree_end_node"* %19, i64 5
  %31 = bitcast %"class.std::__1::__tree_end_node"* %30 to i64**
  %32 = load i64*, i64** %31, align 8
  %33 = getelementptr inbounds %"class.std::__1::__tree_end_node", %"class.std::__1::__tree_end_node"* %19, i64 6
  %34 = bitcast %"class.std::__1::__tree_end_node"* %33 to i64**
  %35 = load i64*, i64** %34, align 8
  %36 = icmp eq i64* %32, %35
  br i1 %36, label %39, label %37

37:                                               ; preds = %29
  %38 = getelementptr inbounds %"class.content::WebContentsFrameReceiverSet<printing::mojom::PrintManagerHost>::FrameInterfaceBinder", %"class.content::WebContentsFrameReceiverSet<printing::mojom::PrintManagerHost>::FrameInterfaceBinder"* %0, i64 0, i32 3, i32 0
  br label %90

39:                                               ; preds = %90, %29
  %40 = getelementptr inbounds %"class.std::__1::__tree_end_node", %"class.std::__1::__tree_end_node"* %19, i64 1, i32 0
  %41 = load %"class.std::__1::__tree_node_base"*, %"class.std::__1::__tree_node_base"** %40, align 8
  %42 = icmp eq %"class.std::__1::__tree_node_base"* %41, null
  br i1 %42, label %43, label %51

43:                                               ; preds = %39
  %44 = bitcast %"class.std::__1::__tree_end_node"* %19 to %"class.std::__1::__tree_node_base"*
  %45 = getelementptr inbounds %"class.std::__1::__tree_end_node", %"class.std::__1::__tree_end_node"* %19, i64 2
  %46 = bitcast %"class.std::__1::__tree_end_node"* %45 to %"class.std::__1::__tree_end_node"**
  %47 = load %"class.std::__1::__tree_end_node"*, %"class.std::__1::__tree_end_node"** %46, align 8
  %48 = getelementptr inbounds %"class.std::__1::__tree_end_node", %"class.std::__1::__tree_end_node"* %47, i64 0, i32 0
  %49 = load %"class.std::__1::__tree_node_base"*, %"class.std::__1::__tree_node_base"** %48, align 8
  %50 = icmp eq %"class.std::__1::__tree_node_base"* %49, %44
  br i1 %50, label %67, label %58

51:                                               ; preds = %39, %51
  %52 = phi %"class.std::__1::__tree_node_base"* [ %54, %51 ], [ %41, %39 ]
  %53 = getelementptr inbounds %"class.std::__1::__tree_node_base", %"class.std::__1::__tree_node_base"* %52, i64 0, i32 0, i32 0
  %54 = load %"class.std::__1::__tree_node_base"*, %"class.std::__1::__tree_node_base"** %53, align 8
  %55 = icmp eq %"class.std::__1::__tree_node_base"* %54, null
  br i1 %55, label %56, label %51

56:                                               ; preds = %51
  %57 = getelementptr inbounds %"class.std::__1::__tree_node_base", %"class.std::__1::__tree_node_base"* %52, i64 0, i32 0
  br label %67

58:                                               ; preds = %43, %58
  %59 = phi %"class.std::__1::__tree_end_node"** [ %62, %58 ], [ %46, %43 ]
  %60 = bitcast %"class.std::__1::__tree_end_node"** %59 to %"class.std::__1::__tree_node_base"**
  %61 = load %"class.std::__1::__tree_node_base"*, %"class.std::__1::__tree_node_base"** %60, align 8
  %62 = getelementptr inbounds %"class.std::__1::__tree_node_base", %"class.std::__1::__tree_node_base"* %61, i64 0, i32 2
  %63 = load %"class.std::__1::__tree_end_node"*, %"class.std::__1::__tree_end_node"** %62, align 8
  %64 = getelementptr inbounds %"class.std::__1::__tree_end_node", %"class.std::__1::__tree_end_node"* %63, i64 0, i32 0
  %65 = load %"class.std::__1::__tree_node_base"*, %"class.std::__1::__tree_node_base"** %64, align 8
  %66 = icmp eq %"class.std::__1::__tree_node_base"* %65, %61
  br i1 %66, label %67, label %58

67:                                               ; preds = %58, %56, %43
  %68 = phi %"class.std::__1::__tree_end_node"* [ %57, %56 ], [ %47, %43 ], [ %63, %58 ]
  %69 = getelementptr inbounds %"class.std::__1::map.24", %"class.std::__1::map.24"* %3, i64 0, i32 0, i32 0
  %70 = load %"class.std::__1::__tree_end_node"*, %"class.std::__1::__tree_end_node"** %69, align 8
  %71 = icmp eq %"class.std::__1::__tree_end_node"* %70, %19
  br i1 %71, label %72, label %75

72:                                               ; preds = %67
  %73 = ptrtoint %"class.std::__1::__tree_end_node"* %68 to i64
  %74 = bitcast %"class.std::__1::map.24"* %3 to i64*
  store i64 %73, i64* %74, align 8
  br label %75

75:                                               ; preds = %72, %67
  %76 = getelementptr inbounds %"class.content::WebContentsFrameReceiverSet<printing::mojom::PrintManagerHost>::FrameInterfaceBinder", %"class.content::WebContentsFrameReceiverSet<printing::mojom::PrintManagerHost>::FrameInterfaceBinder"* %0, i64 0, i32 4, i32 0, i32 2, i32 0, i32 0
  %77 = load i64, i64* %76, align 8
  %78 = add i64 %77, -1
  store i64 %78, i64* %76, align 8
  %79 = getelementptr inbounds %"class.content::WebContentsFrameReceiverSet<printing::mojom::PrintManagerHost>::FrameInterfaceBinder", %"class.content::WebContentsFrameReceiverSet<printing::mojom::PrintManagerHost>::FrameInterfaceBinder"* %0, i64 0, i32 4, i32 0, i32 1, i32 0, i32 0, i32 0
  %80 = load %"class.std::__1::__tree_node_base"*, %"class.std::__1::__tree_node_base"** %79, align 8
  %81 = bitcast %"class.std::__1::__tree_end_node"* %19 to %"class.std::__1::__tree_node_base"*
  tail call void @_ZNSt3__113__tree_removeIPNS_16__tree_node_baseIPvEEEEvT_S5_(%"class.std::__1::__tree_node_base"* %80, %"class.std::__1::__tree_node_base"* %81) #15
  %82 = load i64*, i64** %31, align 8
  %83 = icmp eq i64* %82, null
  br i1 %83, label %88, label %84

84:                                               ; preds = %75
  %85 = ptrtoint i64* %82 to i64
  %86 = bitcast %"class.std::__1::__tree_end_node"* %33 to i64*
  store i64 %85, i64* %86, align 8
  %87 = bitcast i64* %82 to i8*
  tail call void @_ZdlPv(i8* %87) #17
  br label %88

88:                                               ; preds = %75, %84
  %89 = bitcast %"class.std::__1::__tree_end_node"* %19 to i8*
  tail call void @_ZdlPv(i8* %89) #17
  br label %96

90:                                               ; preds = %37, %90
  %91 = phi i64* [ %32, %37 ], [ %94, %90 ]
  %92 = load i64, i64* %91, align 8
  %93 = tail call zeroext i1 @_ZN4mojo16ReceiverSetState6RemoveEm(%"class.mojo::ReceiverSetState"* %38, i64 %92) #15
  %94 = getelementptr inbounds i64, i64* %91, i64 1
  %95 = icmp eq i64* %94, %35
  br i1 %95, label %39, label %90

96:                                               ; preds = %24, %22, %2, %88
  ret void
}

; Function Attrs: nounwind ssp uwtable
define linkonce_odr hidden void @_ZThn8_N7content27WebContentsFrameReceiverSetIN8printing5mojom16PrintManagerHostEE20FrameInterfaceBinderD0Ev(%"class.content::WebContentsFrameReceiverSet<printing::mojom::PrintManagerHost>::FrameInterfaceBinder"*) unnamed_addr #0 comdat align 2 {
  %2 = getelementptr inbounds %"class.content::WebContentsFrameReceiverSet<printing::mojom::PrintManagerHost>::FrameInterfaceBinder", %"class.content::WebContentsFrameReceiverSet<printing::mojom::PrintManagerHost>::FrameInterfaceBinder"* %0, i64 -1, i32 4, i32 0, i32 2
  %3 = getelementptr inbounds %"class.std::__1::__compressed_pair.30", %"class.std::__1::__compressed_pair.30"* %2, i64 1
  %4 = bitcast %"class.std::__1::__compressed_pair.30"* %3 to %"class.content::WebContentsObserver"*
  %5 = bitcast %"class.std::__1::__compressed_pair.30"* %2 to <2 x i32 (...)**>*
  store <2 x i32 (...)**> <i32 (...)** bitcast (i8** getelementptr inbounds ({ [7 x i8*], [109 x i8*] }, { [7 x i8*], [109 x i8*] }* @_ZTVN7content27WebContentsFrameReceiverSetIN8printing5mojom16PrintManagerHostEE20FrameInterfaceBinderE, i64 0, inrange i32 0, i64 2) to i32 (...)**), i32 (...)** bitcast (i8** getelementptr inbounds ({ [7 x i8*], [109 x i8*] }, { [7 x i8*], [109 x i8*] }* @_ZTVN7content27WebContentsFrameReceiverSetIN8printing5mojom16PrintManagerHostEE20FrameInterfaceBinderE, i64 0, inrange i32 1, i64 2) to i32 (...)**)>, <2 x i32 (...)**>* %5, align 8
  %6 = getelementptr inbounds %"class.std::__1::__compressed_pair.30", %"class.std::__1::__compressed_pair.30"* %2, i64 14
  %7 = bitcast %"class.std::__1::__compressed_pair.30"* %6 to %"class.std::__1::__tree.25"*
  %8 = getelementptr inbounds %"class.std::__1::__compressed_pair.30", %"class.std::__1::__compressed_pair.30"* %2, i64 15
  %9 = bitcast %"class.std::__1::__compressed_pair.30"* %8 to %"class.std::__1::__tree_node"**
  %10 = load %"class.std::__1::__tree_node"*, %"class.std::__1::__tree_node"** %9, align 8
  tail call void @_ZNSt3__16__treeINS_12__value_typeIPN7content15RenderFrameHostENS_6vectorImNS_9allocatorImEEEEEENS_19__map_value_compareIS4_S9_NS_4lessIS4_EELb1EEENS6_IS9_EEE7destroyEPNS_11__tree_nodeIS9_PvEE(%"class.std::__1::__tree.25"* %7, %"class.std::__1::__tree_node"* %10) #15
  %11 = getelementptr inbounds %"class.std::__1::__compressed_pair.30", %"class.std::__1::__compressed_pair.30"* %2, i64 4
  %12 = bitcast %"class.std::__1::__compressed_pair.30"* %11 to %"class.mojo::ReceiverSetState"*
  tail call void @_ZN4mojo16ReceiverSetStateD1Ev(%"class.mojo::ReceiverSetState"* %12) #15
  tail call void @_ZN7content19WebContentsObserverD2Ev(%"class.content::WebContentsObserver"* %4) #15
  %13 = bitcast %"class.std::__1::__compressed_pair.30"* %2 to i8*
  tail call void @_ZdlPv(i8* %13) #17
  ret void
}

; Function Attrs: nounwind ssp uwtable
define linkonce_odr hidden void @_ZThn8_N7content27WebContentsFrameReceiverSetIN8printing5mojom16PrintManagerHostEE20FrameInterfaceBinder18RenderFrameDeletedEPNS_15RenderFrameHostE(%"class.content::WebContentsFrameReceiverSet<printing::mojom::PrintManagerHost>::FrameInterfaceBinder"*, %"class.content::RenderFrameHost"*) unnamed_addr #0 comdat align 2 {
  %3 = getelementptr inbounds %"class.content::WebContentsFrameReceiverSet<printing::mojom::PrintManagerHost>::FrameInterfaceBinder", %"class.content::WebContentsFrameReceiverSet<printing::mojom::PrintManagerHost>::FrameInterfaceBinder"* %0, i64 -1, i32 4, i32 0, i32 2
  %4 = bitcast %"class.std::__1::__compressed_pair.30"* %3 to %"class.content::WebContentsFrameReceiverSet<printing::mojom::PrintManagerHost>::FrameInterfaceBinder"*
  tail call void @_ZN7content27WebContentsFrameReceiverSetIN8printing5mojom16PrintManagerHostEE20FrameInterfaceBinder18RenderFrameDeletedEPNS_15RenderFrameHostE(%"class.content::WebContentsFrameReceiverSet<printing::mojom::PrintManagerHost>::FrameInterfaceBinder"* %4, %"class.content::RenderFrameHost"* %1)
  ret void
}

; Function Attrs: nounwind ssp uwtable
define linkonce_odr hidden void @_ZNSt3__16__treeINS_12__value_typeIPN7content15RenderFrameHostENS_6vectorImNS_9allocatorImEEEEEENS_19__map_value_compareIS4_S9_NS_4lessIS4_EELb1EEENS6_IS9_EEE7destroyEPNS_11__tree_nodeIS9_PvEE(%"class.std::__1::__tree.25"*, %"class.std::__1::__tree_node"*) local_unnamed_addr #0 comdat align 2 {
  %3 = icmp eq %"class.std::__1::__tree_node"* %1, null
  br i1 %3, label %20, label %4

4:                                                ; preds = %2
  %5 = bitcast %"class.std::__1::__tree_node"* %1 to %"class.std::__1::__tree_node"**
  %6 = load %"class.std::__1::__tree_node"*, %"class.std::__1::__tree_node"** %5, align 8
  tail call void @_ZNSt3__16__treeINS_12__value_typeIPN7content15RenderFrameHostENS_6vectorImNS_9allocatorImEEEEEENS_19__map_value_compareIS4_S9_NS_4lessIS4_EELb1EEENS6_IS9_EEE7destroyEPNS_11__tree_nodeIS9_PvEE(%"class.std::__1::__tree.25"* %0, %"class.std::__1::__tree_node"* %6) #15
  %7 = getelementptr inbounds %"class.std::__1::__tree_node", %"class.std::__1::__tree_node"* %1, i64 0, i32 0, i32 1
  %8 = bitcast %"class.std::__1::__tree_node_base"** %7 to %"class.std::__1::__tree_node"**
  %9 = load %"class.std::__1::__tree_node"*, %"class.std::__1::__tree_node"** %8, align 8
  tail call void @_ZNSt3__16__treeINS_12__value_typeIPN7content15RenderFrameHostENS_6vectorImNS_9allocatorImEEEEEENS_19__map_value_compareIS4_S9_NS_4lessIS4_EELb1EEENS6_IS9_EEE7destroyEPNS_11__tree_nodeIS9_PvEE(%"class.std::__1::__tree.25"* %0, %"class.std::__1::__tree_node"* %9) #15
  %10 = getelementptr inbounds %"class.std::__1::__tree_node", %"class.std::__1::__tree_node"* %1, i64 0, i32 1, i32 0, i32 1, i32 0, i32 0
  %11 = load i64*, i64** %10, align 8
  %12 = icmp eq i64* %11, null
  br i1 %12, label %18, label %13

13:                                               ; preds = %4
  %14 = ptrtoint i64* %11 to i64
  %15 = getelementptr inbounds %"class.std::__1::__tree_node", %"class.std::__1::__tree_node"* %1, i64 0, i32 1, i32 0, i32 1, i32 0, i32 1
  %16 = bitcast i64** %15 to i64*
  store i64 %14, i64* %16, align 8
  %17 = bitcast i64* %11 to i8*
  tail call void @_ZdlPv(i8* %17) #17
  br label %18

18:                                               ; preds = %4, %13
  %19 = bitcast %"class.std::__1::__tree_node"* %1 to i8*
  tail call void @_ZdlPv(i8* %19) #17
  br label %20

20:                                               ; preds = %2, %18
  ret void
}

; Function Attrs: nobuiltin nounwind
declare void @_ZdlPv(i8*) local_unnamed_addr #10

; Function Attrs: nounwind
declare void @_ZN4mojo16ReceiverSetStateD1Ev(%"class.mojo::ReceiverSetState"*) unnamed_addr #2

declare void @_ZN4mojo29ScopedInterfaceEndpointHandleC1EOS0_(%"class.mojo::ScopedInterfaceEndpointHandle"*, %"class.mojo::ScopedInterfaceEndpointHandle"* dereferenceable(8)) unnamed_addr #1

; Function Attrs: nounwind
declare void @_ZN4mojo29ScopedInterfaceEndpointHandleD1Ev(%"class.mojo::ScopedInterfaceEndpointHandle"*) unnamed_addr #2

; Function Attrs: nounwind ssp uwtable
define linkonce_odr hidden i64 @_ZN4mojo15ReceiverSetBaseINS_18AssociatedReceiverIN8printing5mojom16PrintManagerHostENS_19RawPtrImplRefTraitsIS4_EEEEPN7content15RenderFrameHostEE7AddImplEPS4_NS_25PendingAssociatedReceiverIS4_EESA_13scoped_refptrIN4base19SequencedTaskRunnerEE(%"class.mojo::ReceiverSetBase"*, %"class.printing::mojom::PrintManagerHost"*, %"class.mojo::PendingAssociatedReceiver"*, %"class.content::RenderFrameHost"*, %"class.base::SequencedTaskRunner"*) local_unnamed_addr #0 comdat align 2 {
  %6 = alloca %"class.mojo::PendingAssociatedReceiver", align 8
  %7 = alloca %"class.mojo::PendingAssociatedReceiver", align 8
  %8 = alloca %"class.mojo::PendingAssociatedReceiver", align 8
  %9 = ptrtoint %"class.printing::mojom::PrintManagerHost"* %1 to i64
  %10 = ptrtoint %"class.content::RenderFrameHost"* %3 to i64
  %11 = getelementptr inbounds %"class.mojo::ReceiverSetBase", %"class.mojo::ReceiverSetBase"* %0, i64 0, i32 0
  %12 = bitcast %"class.mojo::PendingAssociatedReceiver"* %8 to i8*
  call void @llvm.lifetime.start.p0i8(i64 8, i8* nonnull %12)
  %13 = tail call i8* @_Znwm(i64 56) #17
  %14 = getelementptr inbounds %"class.mojo::PendingAssociatedReceiver", %"class.mojo::PendingAssociatedReceiver"* %8, i64 0, i32 0
  %15 = getelementptr inbounds %"class.mojo::PendingAssociatedReceiver", %"class.mojo::PendingAssociatedReceiver"* %2, i64 0, i32 0
  call void @_ZN4mojo29ScopedInterfaceEndpointHandleC1EOS0_(%"class.mojo::ScopedInterfaceEndpointHandle"* nonnull %14, %"class.mojo::ScopedInterfaceEndpointHandle"* dereferenceable(8) %15) #15
  %16 = bitcast %"class.mojo::PendingAssociatedReceiver"* %7 to i8*
  call void @llvm.lifetime.start.p0i8(i64 8, i8* nonnull %16) #15
  %17 = bitcast i8* %13 to i32 (...)***
  store i32 (...)** bitcast (i8** getelementptr inbounds ({ [7 x i8*] }, { [7 x i8*] }* @_ZTVN4mojo15ReceiverSetBaseINS_18AssociatedReceiverIN8printing5mojom16PrintManagerHostENS_19RawPtrImplRefTraitsIS4_EEEEPN7content15RenderFrameHostEE13ReceiverEntryE, i64 0, inrange i32 0, i64 2) to i32 (...)**), i32 (...)*** %17, align 8
  %18 = getelementptr inbounds i8, i8* %13, i64 8
  %19 = bitcast i8* %18 to %"class.mojo::AssociatedReceiver"*
  %20 = getelementptr inbounds %"class.mojo::PendingAssociatedReceiver", %"class.mojo::PendingAssociatedReceiver"* %7, i64 0, i32 0
  call void @_ZN4mojo29ScopedInterfaceEndpointHandleC1EOS0_(%"class.mojo::ScopedInterfaceEndpointHandle"* nonnull %20, %"class.mojo::ScopedInterfaceEndpointHandle"* nonnull dereferenceable(8) %14) #15
  %21 = bitcast %"class.mojo::PendingAssociatedReceiver"* %6 to i8*
  call void @llvm.lifetime.start.p0i8(i64 8, i8* nonnull %21) #15
  %22 = bitcast i8* %18 to %"class.mojo::internal::AssociatedReceiverBase"*
  call void @_ZN4mojo8internal22AssociatedReceiverBaseC2Ev(%"class.mojo::internal::AssociatedReceiverBase"* %22) #15
  %23 = getelementptr inbounds i8, i8* %13, i64 16
  %24 = bitcast i8* %23 to i32 (...)***
  store i32 (...)** bitcast (i8** getelementptr inbounds ({ [7 x i8*] }, { [7 x i8*] }* @_ZTVN8printing5mojom20PrintManagerHostStubIN4mojo19RawPtrImplRefTraitsINS0_16PrintManagerHostEEEEE, i64 0, inrange i32 0, i64 2) to i32 (...)**), i32 (...)*** %24, align 8
  %25 = getelementptr inbounds i8, i8* %13, i64 32
  %26 = bitcast i8* %25 to %"class.base::internal::WeakPtrFactoryBase"*
  %27 = ptrtoint i8* %18 to i64
  call void @_ZN4base8internal18WeakPtrFactoryBaseC2Em(%"class.base::internal::WeakPtrFactoryBase"* %26, i64 %27) #15
  %28 = getelementptr inbounds i8, i8* %13, i64 24
  %29 = bitcast i8* %28 to i64*
  store i64 %9, i64* %29, align 8
  %30 = getelementptr inbounds %"class.mojo::PendingAssociatedReceiver", %"class.mojo::PendingAssociatedReceiver"* %6, i64 0, i32 0
  call void @_ZN4mojo29ScopedInterfaceEndpointHandleC1EOS0_(%"class.mojo::ScopedInterfaceEndpointHandle"* nonnull %30, %"class.mojo::ScopedInterfaceEndpointHandle"* nonnull dereferenceable(8) %20) #15
  call void @_ZN4mojo18AssociatedReceiverIN8printing5mojom16PrintManagerHostENS_19RawPtrImplRefTraitsIS3_EEE4BindENS_25PendingAssociatedReceiverIS3_EE13scoped_refptrIN4base19SequencedTaskRunnerEE(%"class.mojo::AssociatedReceiver"* %19, %"class.mojo::PendingAssociatedReceiver"* nonnull %6, %"class.base::SequencedTaskRunner"* %4) #15
  call void @_ZN4mojo29ScopedInterfaceEndpointHandleD1Ev(%"class.mojo::ScopedInterfaceEndpointHandle"* nonnull %30) #15
  call void @llvm.lifetime.end.p0i8(i64 8, i8* nonnull %21) #15
  call void @_ZN4mojo29ScopedInterfaceEndpointHandleD1Ev(%"class.mojo::ScopedInterfaceEndpointHandle"* nonnull %20) #15
  %31 = getelementptr inbounds i8, i8* %13, i64 48
  %32 = bitcast i8* %31 to i64*
  store i64 %10, i64* %32, align 8
  call void @llvm.lifetime.end.p0i8(i64 8, i8* nonnull %16) #15
  call void @_ZN4mojo29ScopedInterfaceEndpointHandleD1Ev(%"class.mojo::ScopedInterfaceEndpointHandle"* nonnull %14) #15
  call void @llvm.lifetime.end.p0i8(i64 8, i8* nonnull %12)
  %33 = bitcast i8* %13 to %"class.mojo::ReceiverSetState::ReceiverState"*
  %34 = call i64 @_ZN4mojo16ReceiverSetState3AddENSt3__110unique_ptrINS0_13ReceiverStateENS1_14default_deleteIS3_EEEE(%"class.mojo::ReceiverSetState"* %11, %"class.mojo::ReceiverSetState::ReceiverState"* nonnull %33) #15
  ret i64 %34
}

declare i64 @_ZN4mojo16ReceiverSetState3AddENSt3__110unique_ptrINS0_13ReceiverStateENS1_14default_deleteIS3_EEEE(%"class.mojo::ReceiverSetState"*, %"class.mojo::ReceiverSetState::ReceiverState"*) local_unnamed_addr #1

; Function Attrs: nobuiltin nofree
declare noalias nonnull i8* @_Znwm(i64) local_unnamed_addr #11

; Function Attrs: nounwind ssp uwtable
define linkonce_odr hidden void @_ZN4mojo15ReceiverSetBaseINS_18AssociatedReceiverIN8printing5mojom16PrintManagerHostENS_19RawPtrImplRefTraitsIS4_EEEEPN7content15RenderFrameHostEE13ReceiverEntryD2Ev(%"class.mojo::ReceiverSetBase<mojo::AssociatedReceiver<printing::mojom::PrintManagerHost, mojo::RawPtrImplRefTraits<printing::mojom::PrintManagerHost> >, content::RenderFrameHost *>::ReceiverEntry"*) unnamed_addr #0 comdat align 2 {
  %2 = getelementptr inbounds %"class.mojo::ReceiverSetBase<mojo::AssociatedReceiver<printing::mojom::PrintManagerHost, mojo::RawPtrImplRefTraits<printing::mojom::PrintManagerHost> >, content::RenderFrameHost *>::ReceiverEntry", %"class.mojo::ReceiverSetBase<mojo::AssociatedReceiver<printing::mojom::PrintManagerHost, mojo::RawPtrImplRefTraits<printing::mojom::PrintManagerHost> >, content::RenderFrameHost *>::ReceiverEntry"* %0, i64 0, i32 0, i32 0
  store i32 (...)** bitcast (i8** getelementptr inbounds ({ [7 x i8*] }, { [7 x i8*] }* @_ZTVN4mojo15ReceiverSetBaseINS_18AssociatedReceiverIN8printing5mojom16PrintManagerHostENS_19RawPtrImplRefTraitsIS4_EEEEPN7content15RenderFrameHostEE13ReceiverEntryE, i64 0, inrange i32 0, i64 2) to i32 (...)**), i32 (...)*** %2, align 8
  %3 = getelementptr inbounds %"class.mojo::ReceiverSetBase<mojo::AssociatedReceiver<printing::mojom::PrintManagerHost, mojo::RawPtrImplRefTraits<printing::mojom::PrintManagerHost> >, content::RenderFrameHost *>::ReceiverEntry", %"class.mojo::ReceiverSetBase<mojo::AssociatedReceiver<printing::mojom::PrintManagerHost, mojo::RawPtrImplRefTraits<printing::mojom::PrintManagerHost> >, content::RenderFrameHost *>::ReceiverEntry"* %0, i64 0, i32 1, i32 2, i32 0
  tail call void @_ZN4base8internal18WeakPtrFactoryBaseD2Ev(%"class.base::internal::WeakPtrFactoryBase"* %3) #15
  %4 = getelementptr inbounds %"class.mojo::ReceiverSetBase<mojo::AssociatedReceiver<printing::mojom::PrintManagerHost, mojo::RawPtrImplRefTraits<printing::mojom::PrintManagerHost> >, content::RenderFrameHost *>::ReceiverEntry", %"class.mojo::ReceiverSetBase<mojo::AssociatedReceiver<printing::mojom::PrintManagerHost, mojo::RawPtrImplRefTraits<printing::mojom::PrintManagerHost> >, content::RenderFrameHost *>::ReceiverEntry"* %0, i64 0, i32 1, i32 0
  tail call void @_ZN4mojo8internal22AssociatedReceiverBaseD2Ev(%"class.mojo::internal::AssociatedReceiverBase"* %4) #15
  ret void
}

; Function Attrs: nounwind ssp uwtable
define linkonce_odr hidden void @_ZN4mojo15ReceiverSetBaseINS_18AssociatedReceiverIN8printing5mojom16PrintManagerHostENS_19RawPtrImplRefTraitsIS4_EEEEPN7content15RenderFrameHostEE13ReceiverEntryD0Ev(%"class.mojo::ReceiverSetBase<mojo::AssociatedReceiver<printing::mojom::PrintManagerHost, mojo::RawPtrImplRefTraits<printing::mojom::PrintManagerHost> >, content::RenderFrameHost *>::ReceiverEntry"*) unnamed_addr #0 comdat align 2 {
  %2 = getelementptr inbounds %"class.mojo::ReceiverSetBase<mojo::AssociatedReceiver<printing::mojom::PrintManagerHost, mojo::RawPtrImplRefTraits<printing::mojom::PrintManagerHost> >, content::RenderFrameHost *>::ReceiverEntry", %"class.mojo::ReceiverSetBase<mojo::AssociatedReceiver<printing::mojom::PrintManagerHost, mojo::RawPtrImplRefTraits<printing::mojom::PrintManagerHost> >, content::RenderFrameHost *>::ReceiverEntry"* %0, i64 0, i32 0, i32 0
  store i32 (...)** bitcast (i8** getelementptr inbounds ({ [7 x i8*] }, { [7 x i8*] }* @_ZTVN4mojo15ReceiverSetBaseINS_18AssociatedReceiverIN8printing5mojom16PrintManagerHostENS_19RawPtrImplRefTraitsIS4_EEEEPN7content15RenderFrameHostEE13ReceiverEntryE, i64 0, inrange i32 0, i64 2) to i32 (...)**), i32 (...)*** %2, align 8
  %3 = getelementptr inbounds %"class.mojo::ReceiverSetBase<mojo::AssociatedReceiver<printing::mojom::PrintManagerHost, mojo::RawPtrImplRefTraits<printing::mojom::PrintManagerHost> >, content::RenderFrameHost *>::ReceiverEntry", %"class.mojo::ReceiverSetBase<mojo::AssociatedReceiver<printing::mojom::PrintManagerHost, mojo::RawPtrImplRefTraits<printing::mojom::PrintManagerHost> >, content::RenderFrameHost *>::ReceiverEntry"* %0, i64 0, i32 1, i32 2, i32 0
  tail call void @_ZN4base8internal18WeakPtrFactoryBaseD2Ev(%"class.base::internal::WeakPtrFactoryBase"* %3) #15
  %4 = getelementptr inbounds %"class.mojo::ReceiverSetBase<mojo::AssociatedReceiver<printing::mojom::PrintManagerHost, mojo::RawPtrImplRefTraits<printing::mojom::PrintManagerHost> >, content::RenderFrameHost *>::ReceiverEntry", %"class.mojo::ReceiverSetBase<mojo::AssociatedReceiver<printing::mojom::PrintManagerHost, mojo::RawPtrImplRefTraits<printing::mojom::PrintManagerHost> >, content::RenderFrameHost *>::ReceiverEntry"* %0, i64 0, i32 1, i32 0
  tail call void @_ZN4mojo8internal22AssociatedReceiverBaseD2Ev(%"class.mojo::internal::AssociatedReceiverBase"* %4) #15
  %5 = bitcast %"class.mojo::ReceiverSetBase<mojo::AssociatedReceiver<printing::mojom::PrintManagerHost, mojo::RawPtrImplRefTraits<printing::mojom::PrintManagerHost> >, content::RenderFrameHost *>::ReceiverEntry"* %0 to i8*
  tail call void @_ZdlPv(i8* %5) #17
  ret void
}

; Function Attrs: nounwind ssp uwtable
define linkonce_odr hidden i8* @_ZNK4mojo15ReceiverSetBaseINS_18AssociatedReceiverIN8printing5mojom16PrintManagerHostENS_19RawPtrImplRefTraitsIS4_EEEEPN7content15RenderFrameHostEE13ReceiverEntry10GetContextEv(%"class.mojo::ReceiverSetBase<mojo::AssociatedReceiver<printing::mojom::PrintManagerHost, mojo::RawPtrImplRefTraits<printing::mojom::PrintManagerHost> >, content::RenderFrameHost *>::ReceiverEntry"*) unnamed_addr #0 comdat align 2 {
  %2 = getelementptr inbounds %"class.mojo::ReceiverSetBase<mojo::AssociatedReceiver<printing::mojom::PrintManagerHost, mojo::RawPtrImplRefTraits<printing::mojom::PrintManagerHost> >, content::RenderFrameHost *>::ReceiverEntry", %"class.mojo::ReceiverSetBase<mojo::AssociatedReceiver<printing::mojom::PrintManagerHost, mojo::RawPtrImplRefTraits<printing::mojom::PrintManagerHost> >, content::RenderFrameHost *>::ReceiverEntry"* %0, i64 0, i32 2
  %3 = bitcast %"class.content::RenderFrameHost"** %2 to i8*
  ret i8* %3
}

; Function Attrs: nounwind ssp uwtable
define linkonce_odr hidden void @_ZN4mojo15ReceiverSetBaseINS_18AssociatedReceiverIN8printing5mojom16PrintManagerHostENS_19RawPtrImplRefTraitsIS4_EEEEPN7content15RenderFrameHostEE13ReceiverEntry20InstallDispatchHooksENSt3__110unique_ptrINS_13MessageFilterENSD_14default_deleteISF_EEEEN4base17RepeatingCallbackIFvjRKNSD_12basic_stringIcNSD_11char_traitsIcEENSD_9allocatorIcEEEEEEE(%"class.mojo::ReceiverSetBase<mojo::AssociatedReceiver<printing::mojom::PrintManagerHost, mojo::RawPtrImplRefTraits<printing::mojom::PrintManagerHost> >, content::RenderFrameHost *>::ReceiverEntry"*, %"class.mojo::MessageFilter"*, %"class.base::RepeatingCallback.5"*) unnamed_addr #0 comdat align 2 {
  %4 = alloca %"class.base::OnceCallback.119", align 8
  %5 = alloca %"class.base::RepeatingCallback.5", align 8
  %6 = getelementptr inbounds %"class.mojo::ReceiverSetBase<mojo::AssociatedReceiver<printing::mojom::PrintManagerHost, mojo::RawPtrImplRefTraits<printing::mojom::PrintManagerHost> >, content::RenderFrameHost *>::ReceiverEntry", %"class.mojo::ReceiverSetBase<mojo::AssociatedReceiver<printing::mojom::PrintManagerHost, mojo::RawPtrImplRefTraits<printing::mojom::PrintManagerHost> >, content::RenderFrameHost *>::ReceiverEntry"* %0, i64 0, i32 1, i32 0
  tail call void @_ZN4mojo8internal22AssociatedReceiverBase9SetFilterENSt3__110unique_ptrINS_13MessageFilterENS2_14default_deleteIS4_EEEE(%"class.mojo::internal::AssociatedReceiverBase"* %6, %"class.mojo::MessageFilter"* %1) #15
  %7 = getelementptr inbounds %"class.base::RepeatingCallback.5", %"class.base::RepeatingCallback.5"* %2, i64 0, i32 0, i32 0, i32 0, i32 0
  %8 = bitcast %"class.base::RepeatingCallback.5"* %2 to i64*
  %9 = load i64, i64* %8, align 8
  %10 = bitcast %"class.base::RepeatingCallback.5"* %5 to i64*
  store i64 %9, i64* %10, align 8
  store %"class.base::internal::BindStateBase"* null, %"class.base::internal::BindStateBase"** %7, align 8
  %11 = getelementptr inbounds %"class.base::OnceCallback.119", %"class.base::OnceCallback.119"* %4, i64 0, i32 0
  %12 = getelementptr inbounds %"class.base::RepeatingCallback.5", %"class.base::RepeatingCallback.5"* %5, i64 0, i32 0
  call void @_ZN4base8internal12CallbackBaseC2EONS0_20CallbackBaseCopyableE(%"class.base::internal::CallbackBase"* nonnull %11, %"class.base::internal::CallbackBaseCopyable"* nonnull dereferenceable(8) %12) #15
  call void @_ZN4mojo8internal22AssociatedReceiverBase34set_disconnect_with_reason_handlerEN4base12OnceCallbackIFvjRKNSt3__112basic_stringIcNS4_11char_traitsIcEENS4_9allocatorIcEEEEEEE(%"class.mojo::internal::AssociatedReceiverBase"* %6, %"class.base::OnceCallback.119"* nonnull %4) #15
  call void @_ZN4base8internal12CallbackBaseD2Ev(%"class.base::internal::CallbackBase"* nonnull %11) #15
  %13 = getelementptr inbounds %"class.base::RepeatingCallback.5", %"class.base::RepeatingCallback.5"* %5, i64 0, i32 0, i32 0
  call void @_ZN4base8internal12CallbackBaseD2Ev(%"class.base::internal::CallbackBase"* nonnull %13) #15
  ret void
}

; Function Attrs: nounwind ssp uwtable
define linkonce_odr hidden void @_ZN4mojo15ReceiverSetBaseINS_18AssociatedReceiverIN8printing5mojom16PrintManagerHostENS_19RawPtrImplRefTraitsIS4_EEEEPN7content15RenderFrameHostEE13ReceiverEntry15FlushForTestingEv(%"class.mojo::ReceiverSetBase<mojo::AssociatedReceiver<printing::mojom::PrintManagerHost, mojo::RawPtrImplRefTraits<printing::mojom::PrintManagerHost> >, content::RenderFrameHost *>::ReceiverEntry"*) unnamed_addr #0 comdat align 2 {
  %2 = getelementptr inbounds %"class.mojo::ReceiverSetBase<mojo::AssociatedReceiver<printing::mojom::PrintManagerHost, mojo::RawPtrImplRefTraits<printing::mojom::PrintManagerHost> >, content::RenderFrameHost *>::ReceiverEntry", %"class.mojo::ReceiverSetBase<mojo::AssociatedReceiver<printing::mojom::PrintManagerHost, mojo::RawPtrImplRefTraits<printing::mojom::PrintManagerHost> >, content::RenderFrameHost *>::ReceiverEntry"* %0, i64 0, i32 1, i32 0
  tail call void @_ZN4mojo8internal22AssociatedReceiverBase15FlushForTestingEv(%"class.mojo::internal::AssociatedReceiverBase"* %2) #15
  ret void
}

; Function Attrs: nounwind ssp uwtable
define linkonce_odr hidden void @_ZN4mojo18AssociatedReceiverIN8printing5mojom16PrintManagerHostENS_19RawPtrImplRefTraitsIS3_EEE4BindENS_25PendingAssociatedReceiverIS3_EE13scoped_refptrIN4base19SequencedTaskRunnerEE(%"class.mojo::AssociatedReceiver"*, %"class.mojo::PendingAssociatedReceiver"*, %"class.base::SequencedTaskRunner"*) local_unnamed_addr #0 comdat align 2 {
  %4 = alloca %"class.mojo::ScopedInterfaceEndpointHandle", align 8
  %5 = getelementptr inbounds %"class.mojo::PendingAssociatedReceiver", %"class.mojo::PendingAssociatedReceiver"* %1, i64 0, i32 0
  %6 = tail call zeroext i1 @_ZNK4mojo29ScopedInterfaceEndpointHandle8is_validEv(%"class.mojo::ScopedInterfaceEndpointHandle"* %5) #15
  %7 = getelementptr inbounds %"class.mojo::AssociatedReceiver", %"class.mojo::AssociatedReceiver"* %0, i64 0, i32 0
  br i1 %6, label %8, label %13

8:                                                ; preds = %3
  call void @_ZN4mojo29ScopedInterfaceEndpointHandleC1EOS0_(%"class.mojo::ScopedInterfaceEndpointHandle"* nonnull %4, %"class.mojo::ScopedInterfaceEndpointHandle"* dereferenceable(8) %5) #15
  %9 = getelementptr inbounds %"class.mojo::AssociatedReceiver", %"class.mojo::AssociatedReceiver"* %0, i64 0, i32 1, i32 0
  %10 = call i8* @_Znwm(i64 8) #17
  %11 = bitcast i8* %10 to i32 (...)***
  store i32 (...)** bitcast (i8** getelementptr inbounds ({ [6 x i8*] }, { [6 x i8*] }* @_ZTVN8printing5mojom32PrintManagerHostRequestValidatorE, i64 0, inrange i32 0, i64 2) to i32 (...)**), i32 (...)*** %11, align 8
  %12 = bitcast i8* %10 to %"class.mojo::MessageReceiver"*
  call void @_ZN4mojo8internal22AssociatedReceiverBase8BindImplENS_29ScopedInterfaceEndpointHandleEPNS_34MessageReceiverWithResponderStatusENSt3__110unique_ptrINS_15MessageReceiverENS5_14default_deleteIS7_EEEEb13scoped_refptrIN4base19SequencedTaskRunnerEEjPKc(%"class.mojo::internal::AssociatedReceiverBase"* %7, %"class.mojo::ScopedInterfaceEndpointHandle"* nonnull %4, %"class.mojo::MessageReceiverWithResponderStatus"* %9, %"class.mojo::MessageReceiver"* nonnull %12, i1 zeroext true, %"class.base::SequencedTaskRunner"* %2, i32 0, i8* getelementptr inbounds ([0 x i8], [0 x i8]* @_ZN8printing5mojom16PrintManagerHost5Name_E, i64 0, i64 0)) #15
  call void @_ZN4mojo29ScopedInterfaceEndpointHandleD1Ev(%"class.mojo::ScopedInterfaceEndpointHandle"* nonnull %4) #15
  br label %23

13:                                               ; preds = %3
  tail call void @_ZN4mojo8internal22AssociatedReceiverBase5resetEv(%"class.mojo::internal::AssociatedReceiverBase"* %7) #15
  %14 = icmp eq %"class.base::SequencedTaskRunner"* %2, null
  br i1 %14, label %23, label %15

15:                                               ; preds = %13
  %16 = getelementptr inbounds %"class.base::SequencedTaskRunner", %"class.base::SequencedTaskRunner"* %2, i64 0, i32 0, i32 1
  %17 = getelementptr inbounds %"class.base::RefCountedThreadSafe.71", %"class.base::RefCountedThreadSafe.71"* %16, i64 0, i32 0, i32 0, i32 0, i32 0, i32 0, i32 0, i32 0, i32 0
  %18 = atomicrmw sub i32* %17, i32 1 acq_rel
  %19 = icmp eq i32 %18, 1
  br i1 %19, label %20, label %23

20:                                               ; preds = %15
  %21 = getelementptr inbounds %"class.base::RefCountedThreadSafe.71", %"class.base::RefCountedThreadSafe.71"* %16, i64 -2
  %22 = bitcast %"class.base::RefCountedThreadSafe.71"* %21 to %"class.base::TaskRunner"*
  tail call void @_ZN4base16TaskRunnerTraits8DestructEPKNS_10TaskRunnerE(%"class.base::TaskRunner"* %22) #15
  br label %23

23:                                               ; preds = %8, %13, %15, %20
  ret void
}

declare void @_ZN4mojo8internal22AssociatedReceiverBaseC2Ev(%"class.mojo::internal::AssociatedReceiverBase"*) unnamed_addr #1

; Function Attrs: nounwind ssp uwtable
define linkonce_odr hidden void @_ZN4mojo15MessageReceiverD2Ev(%"class.mojo::MessageReceiver"*) unnamed_addr #0 comdat align 2 {
  ret void
}

; Function Attrs: nounwind ssp uwtable
define linkonce_odr hidden void @_ZN8printing5mojom20PrintManagerHostStubIN4mojo19RawPtrImplRefTraitsINS0_16PrintManagerHostEEEED0Ev(%"class.printing::mojom::PrintManagerHostStub"*) unnamed_addr #0 comdat align 2 {
  %2 = bitcast %"class.printing::mojom::PrintManagerHostStub"* %0 to i8*
  tail call void @_ZdlPv(i8* %2) #17
  ret void
}

declare zeroext i1 @_ZN4mojo15MessageReceiver25PrefersSerializedMessagesEv(%"class.mojo::MessageReceiver"*) unnamed_addr #1

; Function Attrs: nounwind ssp uwtable
define linkonce_odr hidden zeroext i1 @_ZN8printing5mojom20PrintManagerHostStubIN4mojo19RawPtrImplRefTraitsINS0_16PrintManagerHostEEEE6AcceptEPNS2_7MessageE(%"class.printing::mojom::PrintManagerHostStub"*, %"class.mojo::Message"*) unnamed_addr #0 comdat align 2 {
  %3 = getelementptr inbounds %"class.printing::mojom::PrintManagerHostStub", %"class.printing::mojom::PrintManagerHostStub"* %0, i64 0, i32 1
  %4 = load %"class.printing::mojom::PrintManagerHost"*, %"class.printing::mojom::PrintManagerHost"** %3, align 8
  %5 = icmp eq %"class.printing::mojom::PrintManagerHost"* %4, null
  br i1 %5, label %8, label %6

6:                                                ; preds = %2
  %7 = tail call zeroext i1 @_ZN8printing5mojom28PrintManagerHostStubDispatch6AcceptEPNS0_16PrintManagerHostEPN4mojo7MessageE(%"class.printing::mojom::PrintManagerHost"* nonnull %4, %"class.mojo::Message"* %1) #15
  br label %8

8:                                                ; preds = %2, %6
  %9 = phi i1 [ %7, %6 ], [ false, %2 ]
  ret i1 %9
}

; Function Attrs: nounwind ssp uwtable
define linkonce_odr hidden zeroext i1 @_ZN8printing5mojom20PrintManagerHostStubIN4mojo19RawPtrImplRefTraitsINS0_16PrintManagerHostEEEE19AcceptWithResponderEPNS2_7MessageENSt3__110unique_ptrINS2_25MessageReceiverWithStatusENS9_14default_deleteISB_EEEE(%"class.printing::mojom::PrintManagerHostStub"*, %"class.mojo::Message"*, %"class.mojo::MessageReceiverWithStatus"*) unnamed_addr #0 comdat align 2 {
  %4 = getelementptr inbounds %"class.printing::mojom::PrintManagerHostStub", %"class.printing::mojom::PrintManagerHostStub"* %0, i64 0, i32 1
  %5 = load %"class.printing::mojom::PrintManagerHost"*, %"class.printing::mojom::PrintManagerHost"** %4, align 8
  %6 = icmp eq %"class.printing::mojom::PrintManagerHost"* %5, null
  br i1 %6, label %9, label %7

7:                                                ; preds = %3
  %8 = tail call zeroext i1 @_ZN8printing5mojom28PrintManagerHostStubDispatch19AcceptWithResponderEPNS0_16PrintManagerHostEPN4mojo7MessageENSt3__110unique_ptrINS4_25MessageReceiverWithStatusENS7_14default_deleteIS9_EEEE(%"class.printing::mojom::PrintManagerHost"* nonnull %5, %"class.mojo::Message"* %1, %"class.mojo::MessageReceiverWithStatus"* %2) #15
  br label %16

9:                                                ; preds = %3
  %10 = icmp eq %"class.mojo::MessageReceiverWithStatus"* %2, null
  br i1 %10, label %16, label %11

11:                                               ; preds = %9
  %12 = bitcast %"class.mojo::MessageReceiverWithStatus"* %2 to void (%"class.mojo::MessageReceiverWithStatus"*)***
  %13 = load void (%"class.mojo::MessageReceiverWithStatus"*)**, void (%"class.mojo::MessageReceiverWithStatus"*)*** %12, align 8
  %14 = getelementptr inbounds void (%"class.mojo::MessageReceiverWithStatus"*)*, void (%"class.mojo::MessageReceiverWithStatus"*)** %13, i64 1
  %15 = load void (%"class.mojo::MessageReceiverWithStatus"*)*, void (%"class.mojo::MessageReceiverWithStatus"*)** %14, align 8
  tail call void %15(%"class.mojo::MessageReceiverWithStatus"* nonnull %2) #15
  br label %16

16:                                               ; preds = %7, %9, %11
  %17 = phi i1 [ %8, %7 ], [ false, %9 ], [ false, %11 ]
  ret i1 %17
}

declare zeroext i1 @_ZN8printing5mojom28PrintManagerHostStubDispatch6AcceptEPNS0_16PrintManagerHostEPN4mojo7MessageE(%"class.printing::mojom::PrintManagerHost"*, %"class.mojo::Message"*) local_unnamed_addr #1

declare zeroext i1 @_ZN8printing5mojom28PrintManagerHostStubDispatch19AcceptWithResponderEPNS0_16PrintManagerHostEPN4mojo7MessageENSt3__110unique_ptrINS4_25MessageReceiverWithStatusENS7_14default_deleteIS9_EEEE(%"class.printing::mojom::PrintManagerHost"*, %"class.mojo::Message"*, %"class.mojo::MessageReceiverWithStatus"*) local_unnamed_addr #1

declare void @_ZN4base8internal18WeakPtrFactoryBaseC2Em(%"class.base::internal::WeakPtrFactoryBase"*, i64) unnamed_addr #1

declare void @_ZN4mojo8internal22AssociatedReceiverBase8BindImplENS_29ScopedInterfaceEndpointHandleEPNS_34MessageReceiverWithResponderStatusENSt3__110unique_ptrINS_15MessageReceiverENS5_14default_deleteIS7_EEEEb13scoped_refptrIN4base19SequencedTaskRunnerEEjPKc(%"class.mojo::internal::AssociatedReceiverBase"*, %"class.mojo::ScopedInterfaceEndpointHandle"*, %"class.mojo::MessageReceiverWithResponderStatus"*, %"class.mojo::MessageReceiver"*, i1 zeroext, %"class.base::SequencedTaskRunner"*, i32, i8*) local_unnamed_addr #1

; Function Attrs: argmemonly nounwind
declare void @llvm.memset.p0i8.i64(i8* nocapture writeonly, i8, i64, i1 immarg) #9

declare void @_ZN4mojo8internal22AssociatedReceiverBase5resetEv(%"class.mojo::internal::AssociatedReceiverBase"*) local_unnamed_addr #1

declare zeroext i1 @_ZNK4mojo29ScopedInterfaceEndpointHandle8is_validEv(%"class.mojo::ScopedInterfaceEndpointHandle"*) local_unnamed_addr #1

; Function Attrs: nounwind
declare void @_ZN4base8internal18WeakPtrFactoryBaseD2Ev(%"class.base::internal::WeakPtrFactoryBase"*) unnamed_addr #2

; Function Attrs: nounwind
declare void @_ZN4mojo8internal22AssociatedReceiverBaseD2Ev(%"class.mojo::internal::AssociatedReceiverBase"*) unnamed_addr #2

declare void @_ZN4mojo8internal22AssociatedReceiverBase9SetFilterENSt3__110unique_ptrINS_13MessageFilterENS2_14default_deleteIS4_EEEE(%"class.mojo::internal::AssociatedReceiverBase"*, %"class.mojo::MessageFilter"*) local_unnamed_addr #1

declare void @_ZN4mojo8internal22AssociatedReceiverBase34set_disconnect_with_reason_handlerEN4base12OnceCallbackIFvjRKNSt3__112basic_stringIcNS4_11char_traitsIcEENS4_9allocatorIcEEEEEEE(%"class.mojo::internal::AssociatedReceiverBase"*, %"class.base::OnceCallback.119"*) local_unnamed_addr #1

; Function Attrs: nounwind
declare void @_ZN4base8internal12CallbackBaseD2Ev(%"class.base::internal::CallbackBase"*) unnamed_addr #2

; Function Attrs: nounwind
declare void @_ZN4base8internal12CallbackBaseC2EONS0_20CallbackBaseCopyableE(%"class.base::internal::CallbackBase"*, %"class.base::internal::CallbackBaseCopyable"* dereferenceable(8)) unnamed_addr #2

declare void @_ZN4mojo8internal22AssociatedReceiverBase15FlushForTestingEv(%"class.mojo::internal::AssociatedReceiverBase"*) local_unnamed_addr #1

declare void @_ZN4base16TaskRunnerTraits8DestructEPKNS_10TaskRunnerE(%"class.base::TaskRunner"*) local_unnamed_addr #1

; Function Attrs: noreturn nounwind
declare void @abort() local_unnamed_addr #12

; Function Attrs: nounwind ssp uwtable
define linkonce_odr hidden void @_ZNSt3__127__tree_balance_after_insertIPNS_16__tree_node_baseIPvEEEEvT_S5_(%"class.std::__1::__tree_node_base"*, %"class.std::__1::__tree_node_base"*) local_unnamed_addr #0 comdat {
  %3 = icmp eq %"class.std::__1::__tree_node_base"* %1, %0
  %4 = getelementptr inbounds %"class.std::__1::__tree_node_base", %"class.std::__1::__tree_node_base"* %1, i64 0, i32 3
  %5 = zext i1 %3 to i8
  store i8 %5, i8* %4, align 8
  br i1 %3, label %156, label %6

6:                                                ; preds = %2, %149
  %7 = phi %"class.std::__1::__tree_node_base"* [ %20, %149 ], [ %1, %2 ]
  %8 = getelementptr inbounds %"class.std::__1::__tree_node_base", %"class.std::__1::__tree_node_base"* %7, i64 0, i32 2
  %9 = bitcast %"class.std::__1::__tree_end_node"** %8 to %"class.std::__1::__tree_node_base"**
  %10 = load %"class.std::__1::__tree_node_base"*, %"class.std::__1::__tree_node_base"** %9, align 8
  %11 = getelementptr inbounds %"class.std::__1::__tree_node_base", %"class.std::__1::__tree_node_base"* %10, i64 0, i32 3
  %12 = load i8, i8* %11, align 8, !range !2
  %13 = icmp eq i8 %12, 0
  br i1 %13, label %14, label %156

14:                                               ; preds = %6
  %15 = getelementptr inbounds %"class.std::__1::__tree_node_base", %"class.std::__1::__tree_node_base"* %10, i64 0, i32 2
  %16 = load %"class.std::__1::__tree_end_node"*, %"class.std::__1::__tree_end_node"** %15, align 8
  %17 = getelementptr inbounds %"class.std::__1::__tree_end_node", %"class.std::__1::__tree_end_node"* %16, i64 0, i32 0
  %18 = load %"class.std::__1::__tree_node_base"*, %"class.std::__1::__tree_node_base"** %17, align 8
  %19 = icmp eq %"class.std::__1::__tree_node_base"* %18, %10
  %20 = bitcast %"class.std::__1::__tree_end_node"* %16 to %"class.std::__1::__tree_node_base"*
  br i1 %19, label %21, label %87

21:                                               ; preds = %14
  %22 = getelementptr inbounds %"class.std::__1::__tree_end_node", %"class.std::__1::__tree_end_node"* %16, i64 1, i32 0
  %23 = load %"class.std::__1::__tree_node_base"*, %"class.std::__1::__tree_node_base"** %22, align 8
  %24 = icmp eq %"class.std::__1::__tree_node_base"* %23, null
  br i1 %24, label %29, label %25

25:                                               ; preds = %21
  %26 = getelementptr inbounds %"class.std::__1::__tree_node_base", %"class.std::__1::__tree_node_base"* %23, i64 0, i32 3
  %27 = load i8, i8* %26, align 8, !range !2
  %28 = icmp eq i8 %27, 0
  br i1 %28, label %149, label %29

29:                                               ; preds = %25, %21
  %30 = getelementptr inbounds %"class.std::__1::__tree_node_base", %"class.std::__1::__tree_node_base"* %10, i64 0, i32 2
  %31 = bitcast %"class.std::__1::__tree_end_node"* %16 to %"class.std::__1::__tree_node_base"*
  %32 = getelementptr inbounds %"class.std::__1::__tree_node_base", %"class.std::__1::__tree_node_base"* %10, i64 0, i32 0, i32 0
  %33 = load %"class.std::__1::__tree_node_base"*, %"class.std::__1::__tree_node_base"** %32, align 8
  %34 = icmp eq %"class.std::__1::__tree_node_base"* %33, %7
  br i1 %34, label %61, label %35

35:                                               ; preds = %29
  %36 = ptrtoint %"class.std::__1::__tree_end_node"* %16 to i64
  %37 = getelementptr inbounds %"class.std::__1::__tree_node_base", %"class.std::__1::__tree_node_base"* %10, i64 0, i32 1
  %38 = load %"class.std::__1::__tree_node_base"*, %"class.std::__1::__tree_node_base"** %37, align 8
  %39 = getelementptr inbounds %"class.std::__1::__tree_node_base", %"class.std::__1::__tree_node_base"* %38, i64 0, i32 0, i32 0
  %40 = load %"class.std::__1::__tree_node_base"*, %"class.std::__1::__tree_node_base"** %39, align 8
  store %"class.std::__1::__tree_node_base"* %40, %"class.std::__1::__tree_node_base"** %37, align 8
  %41 = icmp eq %"class.std::__1::__tree_node_base"* %40, null
  br i1 %41, label %47, label %42

42:                                               ; preds = %35
  %43 = getelementptr inbounds %"class.std::__1::__tree_node_base", %"class.std::__1::__tree_node_base"* %10, i64 0, i32 0
  %44 = getelementptr inbounds %"class.std::__1::__tree_node_base", %"class.std::__1::__tree_node_base"* %40, i64 0, i32 2
  store %"class.std::__1::__tree_end_node"* %43, %"class.std::__1::__tree_end_node"** %44, align 8
  %45 = bitcast %"class.std::__1::__tree_end_node"** %30 to i64*
  %46 = load i64, i64* %45, align 8
  br label %47

47:                                               ; preds = %35, %42
  %48 = phi i64 [ %46, %42 ], [ %36, %35 ]
  %49 = getelementptr inbounds %"class.std::__1::__tree_node_base", %"class.std::__1::__tree_node_base"* %38, i64 0, i32 2
  %50 = bitcast %"class.std::__1::__tree_end_node"** %49 to i64*
  store i64 %48, i64* %50, align 8
  %51 = load %"class.std::__1::__tree_end_node"*, %"class.std::__1::__tree_end_node"** %30, align 8
  %52 = getelementptr inbounds %"class.std::__1::__tree_end_node", %"class.std::__1::__tree_end_node"* %51, i64 0, i32 0
  %53 = load %"class.std::__1::__tree_node_base"*, %"class.std::__1::__tree_node_base"** %52, align 8
  %54 = icmp eq %"class.std::__1::__tree_node_base"* %53, %10
  %55 = getelementptr inbounds %"class.std::__1::__tree_end_node", %"class.std::__1::__tree_end_node"* %51, i64 1, i32 0
  %56 = select i1 %54, %"class.std::__1::__tree_node_base"** %52, %"class.std::__1::__tree_node_base"** %55
  store %"class.std::__1::__tree_node_base"* %38, %"class.std::__1::__tree_node_base"** %56, align 8
  store %"class.std::__1::__tree_node_base"* %10, %"class.std::__1::__tree_node_base"** %39, align 8
  %57 = getelementptr inbounds %"class.std::__1::__tree_node_base", %"class.std::__1::__tree_node_base"* %38, i64 0, i32 0
  store %"class.std::__1::__tree_end_node"* %57, %"class.std::__1::__tree_end_node"** %30, align 8
  %58 = getelementptr inbounds %"class.std::__1::__tree_node_base", %"class.std::__1::__tree_node_base"* %38, i64 0, i32 2
  %59 = bitcast %"class.std::__1::__tree_end_node"** %58 to %"class.std::__1::__tree_node_base"**
  %60 = load %"class.std::__1::__tree_node_base"*, %"class.std::__1::__tree_node_base"** %59, align 8
  br label %61

61:                                               ; preds = %47, %29
  %62 = phi %"class.std::__1::__tree_node_base"* [ %31, %29 ], [ %60, %47 ]
  %63 = phi %"class.std::__1::__tree_node_base"* [ %10, %29 ], [ %38, %47 ]
  %64 = getelementptr inbounds %"class.std::__1::__tree_node_base", %"class.std::__1::__tree_node_base"* %63, i64 0, i32 3
  store i8 1, i8* %64, align 8
  %65 = getelementptr inbounds %"class.std::__1::__tree_node_base", %"class.std::__1::__tree_node_base"* %62, i64 0, i32 3
  store i8 0, i8* %65, align 8
  %66 = getelementptr inbounds %"class.std::__1::__tree_node_base", %"class.std::__1::__tree_node_base"* %62, i64 0, i32 0, i32 0
  %67 = load %"class.std::__1::__tree_node_base"*, %"class.std::__1::__tree_node_base"** %66, align 8
  %68 = getelementptr inbounds %"class.std::__1::__tree_node_base", %"class.std::__1::__tree_node_base"* %67, i64 0, i32 1
  %69 = load %"class.std::__1::__tree_node_base"*, %"class.std::__1::__tree_node_base"** %68, align 8
  store %"class.std::__1::__tree_node_base"* %69, %"class.std::__1::__tree_node_base"** %66, align 8
  %70 = icmp eq %"class.std::__1::__tree_node_base"* %69, null
  br i1 %70, label %74, label %71

71:                                               ; preds = %61
  %72 = getelementptr inbounds %"class.std::__1::__tree_node_base", %"class.std::__1::__tree_node_base"* %62, i64 0, i32 0
  %73 = getelementptr inbounds %"class.std::__1::__tree_node_base", %"class.std::__1::__tree_node_base"* %69, i64 0, i32 2
  store %"class.std::__1::__tree_end_node"* %72, %"class.std::__1::__tree_end_node"** %73, align 8
  br label %74

74:                                               ; preds = %71, %61
  %75 = getelementptr inbounds %"class.std::__1::__tree_node_base", %"class.std::__1::__tree_node_base"* %62, i64 0, i32 2
  %76 = bitcast %"class.std::__1::__tree_end_node"** %75 to i64*
  %77 = load i64, i64* %76, align 8
  %78 = getelementptr inbounds %"class.std::__1::__tree_node_base", %"class.std::__1::__tree_node_base"* %67, i64 0, i32 2
  %79 = bitcast %"class.std::__1::__tree_end_node"** %78 to i64*
  store i64 %77, i64* %79, align 8
  %80 = load %"class.std::__1::__tree_end_node"*, %"class.std::__1::__tree_end_node"** %75, align 8
  %81 = getelementptr inbounds %"class.std::__1::__tree_end_node", %"class.std::__1::__tree_end_node"* %80, i64 0, i32 0
  %82 = load %"class.std::__1::__tree_node_base"*, %"class.std::__1::__tree_node_base"** %81, align 8
  %83 = icmp eq %"class.std::__1::__tree_node_base"* %82, %62
  %84 = getelementptr inbounds %"class.std::__1::__tree_end_node", %"class.std::__1::__tree_end_node"* %80, i64 1, i32 0
  %85 = select i1 %83, %"class.std::__1::__tree_node_base"** %81, %"class.std::__1::__tree_node_base"** %84
  store %"class.std::__1::__tree_node_base"* %67, %"class.std::__1::__tree_node_base"** %85, align 8
  store %"class.std::__1::__tree_node_base"* %62, %"class.std::__1::__tree_node_base"** %68, align 8
  %86 = getelementptr inbounds %"class.std::__1::__tree_node_base", %"class.std::__1::__tree_node_base"* %67, i64 0, i32 0
  store %"class.std::__1::__tree_end_node"* %86, %"class.std::__1::__tree_end_node"** %75, align 8
  br label %156

87:                                               ; preds = %14
  %88 = icmp eq %"class.std::__1::__tree_node_base"* %18, null
  br i1 %88, label %93, label %89

89:                                               ; preds = %87
  %90 = getelementptr inbounds %"class.std::__1::__tree_node_base", %"class.std::__1::__tree_node_base"* %18, i64 0, i32 3
  %91 = load i8, i8* %90, align 8, !range !2
  %92 = icmp eq i8 %91, 0
  br i1 %92, label %149, label %93

93:                                               ; preds = %89, %87
  %94 = getelementptr inbounds %"class.std::__1::__tree_node_base", %"class.std::__1::__tree_node_base"* %10, i64 0, i32 2
  %95 = bitcast %"class.std::__1::__tree_end_node"* %16 to %"class.std::__1::__tree_node_base"*
  %96 = getelementptr inbounds %"class.std::__1::__tree_node_base", %"class.std::__1::__tree_node_base"* %10, i64 0, i32 0, i32 0
  %97 = load %"class.std::__1::__tree_node_base"*, %"class.std::__1::__tree_node_base"** %96, align 8
  %98 = icmp eq %"class.std::__1::__tree_node_base"* %97, %7
  br i1 %98, label %99, label %123

99:                                               ; preds = %93
  %100 = ptrtoint %"class.std::__1::__tree_end_node"* %16 to i64
  %101 = getelementptr inbounds %"class.std::__1::__tree_node_base", %"class.std::__1::__tree_node_base"* %10, i64 0, i32 0, i32 0
  %102 = getelementptr inbounds %"class.std::__1::__tree_node_base", %"class.std::__1::__tree_node_base"* %7, i64 0, i32 1
  %103 = load %"class.std::__1::__tree_node_base"*, %"class.std::__1::__tree_node_base"** %102, align 8
  store %"class.std::__1::__tree_node_base"* %103, %"class.std::__1::__tree_node_base"** %101, align 8
  %104 = icmp eq %"class.std::__1::__tree_node_base"* %103, null
  br i1 %104, label %110, label %105

105:                                              ; preds = %99
  %106 = getelementptr inbounds %"class.std::__1::__tree_node_base", %"class.std::__1::__tree_node_base"* %10, i64 0, i32 0
  %107 = getelementptr inbounds %"class.std::__1::__tree_node_base", %"class.std::__1::__tree_node_base"* %103, i64 0, i32 2
  store %"class.std::__1::__tree_end_node"* %106, %"class.std::__1::__tree_end_node"** %107, align 8
  %108 = bitcast %"class.std::__1::__tree_end_node"** %94 to i64*
  %109 = load i64, i64* %108, align 8
  br label %110

110:                                              ; preds = %99, %105
  %111 = phi i64 [ %109, %105 ], [ %100, %99 ]
  %112 = bitcast %"class.std::__1::__tree_end_node"** %8 to i64*
  store i64 %111, i64* %112, align 8
  %113 = load %"class.std::__1::__tree_end_node"*, %"class.std::__1::__tree_end_node"** %94, align 8
  %114 = getelementptr inbounds %"class.std::__1::__tree_end_node", %"class.std::__1::__tree_end_node"* %113, i64 0, i32 0
  %115 = load %"class.std::__1::__tree_node_base"*, %"class.std::__1::__tree_node_base"** %114, align 8
  %116 = icmp eq %"class.std::__1::__tree_node_base"* %115, %10
  %117 = getelementptr inbounds %"class.std::__1::__tree_end_node", %"class.std::__1::__tree_end_node"* %113, i64 1, i32 0
  %118 = select i1 %116, %"class.std::__1::__tree_node_base"** %114, %"class.std::__1::__tree_node_base"** %117
  store %"class.std::__1::__tree_node_base"* %7, %"class.std::__1::__tree_node_base"** %118, align 8
  store %"class.std::__1::__tree_node_base"* %10, %"class.std::__1::__tree_node_base"** %102, align 8
  %119 = getelementptr inbounds %"class.std::__1::__tree_node_base", %"class.std::__1::__tree_node_base"* %7, i64 0, i32 0
  store %"class.std::__1::__tree_end_node"* %119, %"class.std::__1::__tree_end_node"** %94, align 8
  %120 = getelementptr inbounds %"class.std::__1::__tree_node_base", %"class.std::__1::__tree_node_base"* %7, i64 0, i32 2
  %121 = bitcast %"class.std::__1::__tree_end_node"** %120 to %"class.std::__1::__tree_node_base"**
  %122 = load %"class.std::__1::__tree_node_base"*, %"class.std::__1::__tree_node_base"** %121, align 8
  br label %123

123:                                              ; preds = %93, %110
  %124 = phi %"class.std::__1::__tree_node_base"* [ %122, %110 ], [ %95, %93 ]
  %125 = phi %"class.std::__1::__tree_node_base"* [ %7, %110 ], [ %10, %93 ]
  %126 = getelementptr inbounds %"class.std::__1::__tree_node_base", %"class.std::__1::__tree_node_base"* %125, i64 0, i32 3
  store i8 1, i8* %126, align 8
  %127 = getelementptr inbounds %"class.std::__1::__tree_node_base", %"class.std::__1::__tree_node_base"* %124, i64 0, i32 3
  store i8 0, i8* %127, align 8
  %128 = getelementptr inbounds %"class.std::__1::__tree_node_base", %"class.std::__1::__tree_node_base"* %124, i64 0, i32 1
  %129 = load %"class.std::__1::__tree_node_base"*, %"class.std::__1::__tree_node_base"** %128, align 8
  %130 = getelementptr inbounds %"class.std::__1::__tree_node_base", %"class.std::__1::__tree_node_base"* %129, i64 0, i32 0, i32 0
  %131 = load %"class.std::__1::__tree_node_base"*, %"class.std::__1::__tree_node_base"** %130, align 8
  store %"class.std::__1::__tree_node_base"* %131, %"class.std::__1::__tree_node_base"** %128, align 8
  %132 = icmp eq %"class.std::__1::__tree_node_base"* %131, null
  br i1 %132, label %136, label %133

133:                                              ; preds = %123
  %134 = getelementptr inbounds %"class.std::__1::__tree_node_base", %"class.std::__1::__tree_node_base"* %124, i64 0, i32 0
  %135 = getelementptr inbounds %"class.std::__1::__tree_node_base", %"class.std::__1::__tree_node_base"* %131, i64 0, i32 2
  store %"class.std::__1::__tree_end_node"* %134, %"class.std::__1::__tree_end_node"** %135, align 8
  br label %136

136:                                              ; preds = %133, %123
  %137 = getelementptr inbounds %"class.std::__1::__tree_node_base", %"class.std::__1::__tree_node_base"* %124, i64 0, i32 2
  %138 = bitcast %"class.std::__1::__tree_end_node"** %137 to i64*
  %139 = load i64, i64* %138, align 8
  %140 = getelementptr inbounds %"class.std::__1::__tree_node_base", %"class.std::__1::__tree_node_base"* %129, i64 0, i32 2
  %141 = bitcast %"class.std::__1::__tree_end_node"** %140 to i64*
  store i64 %139, i64* %141, align 8
  %142 = load %"class.std::__1::__tree_end_node"*, %"class.std::__1::__tree_end_node"** %137, align 8
  %143 = getelementptr inbounds %"class.std::__1::__tree_end_node", %"class.std::__1::__tree_end_node"* %142, i64 0, i32 0
  %144 = load %"class.std::__1::__tree_node_base"*, %"class.std::__1::__tree_node_base"** %143, align 8
  %145 = icmp eq %"class.std::__1::__tree_node_base"* %144, %124
  %146 = getelementptr inbounds %"class.std::__1::__tree_end_node", %"class.std::__1::__tree_end_node"* %142, i64 1, i32 0
  %147 = select i1 %145, %"class.std::__1::__tree_node_base"** %143, %"class.std::__1::__tree_node_base"** %146
  store %"class.std::__1::__tree_node_base"* %129, %"class.std::__1::__tree_node_base"** %147, align 8
  store %"class.std::__1::__tree_node_base"* %124, %"class.std::__1::__tree_node_base"** %130, align 8
  %148 = getelementptr inbounds %"class.std::__1::__tree_node_base", %"class.std::__1::__tree_node_base"* %129, i64 0, i32 0
  store %"class.std::__1::__tree_end_node"* %148, %"class.std::__1::__tree_end_node"** %137, align 8
  br label %156

149:                                              ; preds = %89, %25
  %150 = phi i8* [ %26, %25 ], [ %90, %89 ]
  store i8 1, i8* %11, align 8
  %151 = icmp eq %"class.std::__1::__tree_node_base"* %20, %0
  %152 = getelementptr inbounds %"class.std::__1::__tree_end_node", %"class.std::__1::__tree_end_node"* %16, i64 3
  %153 = bitcast %"class.std::__1::__tree_end_node"* %152 to i8*
  %154 = zext i1 %151 to i8
  store i8 %154, i8* %153, align 8
  store i8 1, i8* %150, align 8
  %155 = icmp eq %"class.std::__1::__tree_node_base"* %20, %0
  br i1 %155, label %156, label %6

156:                                              ; preds = %6, %149, %2, %136, %74
  ret void
}

; Function Attrs: noreturn
declare void @_ZNKSt3__120__vector_base_commonILb1EE20__throw_length_errorEv(%"class.std::__1::__vector_base_common"*) local_unnamed_addr #13

; Function Attrs: nounwind ssp uwtable
define linkonce_odr hidden void @_ZNSt3__16__treeINS_12__value_typeImNS_10unique_ptrIN4mojo16ReceiverSetState5EntryENS_14default_deleteIS5_EEEEEENS_19__map_value_compareImS9_NS_4lessImEELb1EEENS_9allocatorIS9_EEE7destroyEPNS_11__tree_nodeIS9_PvEE(%"class.std::__1::__tree.7"*, %"class.std::__1::__tree_node.324"*) local_unnamed_addr #0 comdat align 2 {
  %3 = icmp eq %"class.std::__1::__tree_node.324"* %1, null
  br i1 %3, label %17, label %4

4:                                                ; preds = %2
  %5 = bitcast %"class.std::__1::__tree_node.324"* %1 to %"class.std::__1::__tree_node.324"**
  %6 = load %"class.std::__1::__tree_node.324"*, %"class.std::__1::__tree_node.324"** %5, align 8
  tail call void @_ZNSt3__16__treeINS_12__value_typeImNS_10unique_ptrIN4mojo16ReceiverSetState5EntryENS_14default_deleteIS5_EEEEEENS_19__map_value_compareImS9_NS_4lessImEELb1EEENS_9allocatorIS9_EEE7destroyEPNS_11__tree_nodeIS9_PvEE(%"class.std::__1::__tree.7"* %0, %"class.std::__1::__tree_node.324"* %6) #15
  %7 = getelementptr inbounds %"class.std::__1::__tree_node.324", %"class.std::__1::__tree_node.324"* %1, i64 0, i32 0, i32 1
  %8 = bitcast %"class.std::__1::__tree_node_base"** %7 to %"class.std::__1::__tree_node.324"**
  %9 = load %"class.std::__1::__tree_node.324"*, %"class.std::__1::__tree_node.324"** %8, align 8
  tail call void @_ZNSt3__16__treeINS_12__value_typeImNS_10unique_ptrIN4mojo16ReceiverSetState5EntryENS_14default_deleteIS5_EEEEEENS_19__map_value_compareImS9_NS_4lessImEELb1EEENS_9allocatorIS9_EEE7destroyEPNS_11__tree_nodeIS9_PvEE(%"class.std::__1::__tree.7"* %0, %"class.std::__1::__tree_node.324"* %9) #15
  %10 = getelementptr inbounds %"class.std::__1::__tree_node.324", %"class.std::__1::__tree_node.324"* %1, i64 0, i32 1, i32 0, i32 1, i32 0, i32 0, i32 0
  %11 = load %"class.mojo::ReceiverSetState::Entry"*, %"class.mojo::ReceiverSetState::Entry"** %10, align 8
  store %"class.mojo::ReceiverSetState::Entry"* null, %"class.mojo::ReceiverSetState::Entry"** %10, align 8
  %12 = icmp eq %"class.mojo::ReceiverSetState::Entry"* %11, null
  br i1 %12, label %15, label %13

13:                                               ; preds = %4
  tail call void @_ZN4mojo16ReceiverSetState5EntryD1Ev(%"class.mojo::ReceiverSetState::Entry"* nonnull %11) #15
  %14 = bitcast %"class.mojo::ReceiverSetState::Entry"* %11 to i8*
  tail call void @_ZdlPv(i8* %14) #17
  br label %15

15:                                               ; preds = %4, %13
  %16 = bitcast %"class.std::__1::__tree_node.324"* %1 to i8*
  tail call void @_ZdlPv(i8* %16) #17
  br label %17

17:                                               ; preds = %2, %15
  ret void
}

; Function Attrs: nounwind
declare void @_ZN4mojo16ReceiverSetState5EntryD1Ev(%"class.mojo::ReceiverSetState::Entry"*) unnamed_addr #2

declare zeroext i1 @_ZN4mojo16ReceiverSetState6RemoveEm(%"class.mojo::ReceiverSetState"*, i64) local_unnamed_addr #1

; Function Attrs: nounwind ssp uwtable
define linkonce_odr hidden void @_ZNSt3__113__tree_removeIPNS_16__tree_node_baseIPvEEEEvT_S5_(%"class.std::__1::__tree_node_base"*, %"class.std::__1::__tree_node_base"*) local_unnamed_addr #0 comdat {
  %3 = getelementptr inbounds %"class.std::__1::__tree_node_base", %"class.std::__1::__tree_node_base"* %1, i64 0, i32 0, i32 0
  %4 = load %"class.std::__1::__tree_node_base"*, %"class.std::__1::__tree_node_base"** %3, align 8
  %5 = icmp eq %"class.std::__1::__tree_node_base"* %4, null
  br i1 %5, label %17, label %6

6:                                                ; preds = %2
  %7 = getelementptr inbounds %"class.std::__1::__tree_node_base", %"class.std::__1::__tree_node_base"* %1, i64 0, i32 1
  %8 = load %"class.std::__1::__tree_node_base"*, %"class.std::__1::__tree_node_base"** %7, align 8
  %9 = icmp eq %"class.std::__1::__tree_node_base"* %8, null
  br i1 %9, label %15, label %10

10:                                               ; preds = %6, %10
  %11 = phi %"class.std::__1::__tree_node_base"* [ %13, %10 ], [ %8, %6 ]
  %12 = getelementptr inbounds %"class.std::__1::__tree_node_base", %"class.std::__1::__tree_node_base"* %11, i64 0, i32 0, i32 0
  %13 = load %"class.std::__1::__tree_node_base"*, %"class.std::__1::__tree_node_base"** %12, align 8
  %14 = icmp eq %"class.std::__1::__tree_node_base"* %13, null
  br i1 %14, label %17, label %10

15:                                               ; preds = %6
  %16 = getelementptr inbounds %"class.std::__1::__tree_node_base", %"class.std::__1::__tree_node_base"* %1, i64 0, i32 0, i32 0
  br label %23

17:                                               ; preds = %10, %2
  %18 = phi %"class.std::__1::__tree_node_base"* [ %1, %2 ], [ %11, %10 ]
  %19 = getelementptr inbounds %"class.std::__1::__tree_node_base", %"class.std::__1::__tree_node_base"* %18, i64 0, i32 0, i32 0
  %20 = getelementptr inbounds %"class.std::__1::__tree_node_base", %"class.std::__1::__tree_node_base"* %18, i64 0, i32 1
  %21 = load %"class.std::__1::__tree_node_base"*, %"class.std::__1::__tree_node_base"** %20, align 8
  %22 = icmp eq %"class.std::__1::__tree_node_base"* %21, null
  br i1 %22, label %32, label %23

23:                                               ; preds = %15, %17
  %24 = phi %"class.std::__1::__tree_node_base"** [ %19, %17 ], [ %16, %15 ]
  %25 = phi %"class.std::__1::__tree_node_base"* [ %18, %17 ], [ %1, %15 ]
  %26 = phi %"class.std::__1::__tree_node_base"* [ %21, %17 ], [ %4, %15 ]
  %27 = getelementptr inbounds %"class.std::__1::__tree_node_base", %"class.std::__1::__tree_node_base"* %25, i64 0, i32 2
  %28 = bitcast %"class.std::__1::__tree_end_node"** %27 to i64*
  %29 = load i64, i64* %28, align 8
  %30 = getelementptr inbounds %"class.std::__1::__tree_node_base", %"class.std::__1::__tree_node_base"* %26, i64 0, i32 2
  %31 = bitcast %"class.std::__1::__tree_end_node"** %30 to i64*
  store i64 %29, i64* %31, align 8
  br label %32

32:                                               ; preds = %17, %23
  %33 = phi %"class.std::__1::__tree_node_base"** [ %24, %23 ], [ %19, %17 ]
  %34 = phi %"class.std::__1::__tree_node_base"* [ %25, %23 ], [ %18, %17 ]
  %35 = phi i1 [ true, %23 ], [ false, %17 ]
  %36 = phi %"class.std::__1::__tree_node_base"* [ %26, %23 ], [ null, %17 ]
  %37 = getelementptr inbounds %"class.std::__1::__tree_node_base", %"class.std::__1::__tree_node_base"* %34, i64 0, i32 2
  %38 = load %"class.std::__1::__tree_end_node"*, %"class.std::__1::__tree_end_node"** %37, align 8
  %39 = getelementptr inbounds %"class.std::__1::__tree_end_node", %"class.std::__1::__tree_end_node"* %38, i64 0, i32 0
  %40 = load %"class.std::__1::__tree_node_base"*, %"class.std::__1::__tree_node_base"** %39, align 8
  %41 = icmp eq %"class.std::__1::__tree_node_base"* %40, %34
  br i1 %41, label %42, label %48

42:                                               ; preds = %32
  store %"class.std::__1::__tree_node_base"* %36, %"class.std::__1::__tree_node_base"** %39, align 8
  %43 = icmp eq %"class.std::__1::__tree_node_base"* %34, %0
  br i1 %43, label %55, label %44

44:                                               ; preds = %42
  %45 = bitcast %"class.std::__1::__tree_end_node"** %37 to %"class.std::__1::__tree_node_base"**
  %46 = load %"class.std::__1::__tree_node_base"*, %"class.std::__1::__tree_node_base"** %45, align 8
  %47 = getelementptr inbounds %"class.std::__1::__tree_node_base", %"class.std::__1::__tree_node_base"* %46, i64 0, i32 1
  br label %52

48:                                               ; preds = %32
  %49 = getelementptr inbounds %"class.std::__1::__tree_end_node", %"class.std::__1::__tree_end_node"* %38, i64 1, i32 0
  store %"class.std::__1::__tree_node_base"* %36, %"class.std::__1::__tree_node_base"** %49, align 8
  %50 = load %"class.std::__1::__tree_end_node"*, %"class.std::__1::__tree_end_node"** %37, align 8
  %51 = getelementptr inbounds %"class.std::__1::__tree_end_node", %"class.std::__1::__tree_end_node"* %50, i64 0, i32 0
  br label %52

52:                                               ; preds = %48, %44
  %53 = phi %"class.std::__1::__tree_node_base"** [ %47, %44 ], [ %51, %48 ]
  %54 = load %"class.std::__1::__tree_node_base"*, %"class.std::__1::__tree_node_base"** %53, align 8
  br label %55

55:                                               ; preds = %52, %42
  %56 = phi %"class.std::__1::__tree_node_base"* [ %36, %42 ], [ %0, %52 ]
  %57 = phi %"class.std::__1::__tree_node_base"* [ null, %42 ], [ %54, %52 ]
  %58 = getelementptr inbounds %"class.std::__1::__tree_node_base", %"class.std::__1::__tree_node_base"* %34, i64 0, i32 3
  %59 = load i8, i8* %58, align 8, !range !2
  %60 = icmp ne i8 %59, 0
  %61 = icmp eq %"class.std::__1::__tree_node_base"* %34, %1
  br i1 %61, label %90, label %62

62:                                               ; preds = %55
  %63 = getelementptr inbounds %"class.std::__1::__tree_node_base", %"class.std::__1::__tree_node_base"* %1, i64 0, i32 2
  %64 = bitcast %"class.std::__1::__tree_end_node"** %63 to i64*
  %65 = load i64, i64* %64, align 8
  %66 = bitcast %"class.std::__1::__tree_end_node"** %37 to i64*
  store i64 %65, i64* %66, align 8
  %67 = load %"class.std::__1::__tree_end_node"*, %"class.std::__1::__tree_end_node"** %63, align 8
  %68 = getelementptr inbounds %"class.std::__1::__tree_end_node", %"class.std::__1::__tree_end_node"* %67, i64 0, i32 0
  %69 = load %"class.std::__1::__tree_node_base"*, %"class.std::__1::__tree_node_base"** %68, align 8
  %70 = icmp eq %"class.std::__1::__tree_node_base"* %69, %1
  %71 = inttoptr i64 %65 to %"class.std::__1::__tree_node_base"*
  %72 = getelementptr inbounds %"class.std::__1::__tree_node_base", %"class.std::__1::__tree_node_base"* %71, i64 0, i32 1
  %73 = inttoptr i64 %65 to %"class.std::__1::__tree_end_node"*
  %74 = getelementptr inbounds %"class.std::__1::__tree_end_node", %"class.std::__1::__tree_end_node"* %73, i64 0, i32 0
  %75 = select i1 %70, %"class.std::__1::__tree_node_base"** %74, %"class.std::__1::__tree_node_base"** %72
  store %"class.std::__1::__tree_node_base"* %34, %"class.std::__1::__tree_node_base"** %75, align 8
  %76 = load %"class.std::__1::__tree_node_base"*, %"class.std::__1::__tree_node_base"** %3, align 8
  store %"class.std::__1::__tree_node_base"* %76, %"class.std::__1::__tree_node_base"** %33, align 8
  %77 = getelementptr inbounds %"class.std::__1::__tree_node_base", %"class.std::__1::__tree_node_base"* %34, i64 0, i32 0
  %78 = getelementptr inbounds %"class.std::__1::__tree_node_base", %"class.std::__1::__tree_node_base"* %76, i64 0, i32 2
  store %"class.std::__1::__tree_end_node"* %77, %"class.std::__1::__tree_end_node"** %78, align 8
  %79 = getelementptr inbounds %"class.std::__1::__tree_node_base", %"class.std::__1::__tree_node_base"* %1, i64 0, i32 1
  %80 = load %"class.std::__1::__tree_node_base"*, %"class.std::__1::__tree_node_base"** %79, align 8
  %81 = getelementptr inbounds %"class.std::__1::__tree_node_base", %"class.std::__1::__tree_node_base"* %34, i64 0, i32 1
  store %"class.std::__1::__tree_node_base"* %80, %"class.std::__1::__tree_node_base"** %81, align 8
  %82 = icmp eq %"class.std::__1::__tree_node_base"* %80, null
  br i1 %82, label %85, label %83

83:                                               ; preds = %62
  %84 = getelementptr inbounds %"class.std::__1::__tree_node_base", %"class.std::__1::__tree_node_base"* %80, i64 0, i32 2
  store %"class.std::__1::__tree_end_node"* %77, %"class.std::__1::__tree_end_node"** %84, align 8
  br label %85

85:                                               ; preds = %62, %83
  %86 = getelementptr inbounds %"class.std::__1::__tree_node_base", %"class.std::__1::__tree_node_base"* %1, i64 0, i32 3
  %87 = load i8, i8* %86, align 8, !range !2
  store i8 %87, i8* %58, align 8
  %88 = icmp eq %"class.std::__1::__tree_node_base"* %56, %1
  %89 = select i1 %88, %"class.std::__1::__tree_node_base"* %34, %"class.std::__1::__tree_node_base"* %56
  br label %90

90:                                               ; preds = %85, %55
  %91 = phi %"class.std::__1::__tree_node_base"* [ %56, %55 ], [ %89, %85 ]
  %92 = icmp ne %"class.std::__1::__tree_node_base"* %91, null
  %93 = and i1 %60, %92
  br i1 %93, label %94, label %382

94:                                               ; preds = %90
  br i1 %35, label %95, label %97

95:                                               ; preds = %94
  %96 = getelementptr inbounds %"class.std::__1::__tree_node_base", %"class.std::__1::__tree_node_base"* %36, i64 0, i32 3
  store i8 1, i8* %96, align 8
  br label %382

97:                                               ; preds = %94, %371
  %98 = phi %"class.std::__1::__tree_node_base"* [ %373, %371 ], [ %91, %94 ]
  %99 = phi %"class.std::__1::__tree_node_base"* [ %381, %371 ], [ %57, %94 ]
  %100 = getelementptr inbounds %"class.std::__1::__tree_node_base", %"class.std::__1::__tree_node_base"* %99, i64 0, i32 2
  %101 = load %"class.std::__1::__tree_end_node"*, %"class.std::__1::__tree_end_node"** %100, align 8
  %102 = getelementptr inbounds %"class.std::__1::__tree_end_node", %"class.std::__1::__tree_end_node"* %101, i64 0, i32 0
  %103 = load %"class.std::__1::__tree_node_base"*, %"class.std::__1::__tree_node_base"** %102, align 8
  %104 = icmp eq %"class.std::__1::__tree_node_base"* %103, %99
  %105 = getelementptr inbounds %"class.std::__1::__tree_node_base", %"class.std::__1::__tree_node_base"* %99, i64 0, i32 3
  %106 = load i8, i8* %105, align 8, !range !2
  %107 = icmp ne i8 %106, 0
  br i1 %104, label %242, label %108

108:                                              ; preds = %97
  br i1 %107, label %141, label %109

109:                                              ; preds = %108
  store i8 1, i8* %105, align 8
  %110 = bitcast %"class.std::__1::__tree_end_node"** %100 to %"class.std::__1::__tree_node_base"**
  %111 = getelementptr inbounds %"class.std::__1::__tree_end_node", %"class.std::__1::__tree_end_node"* %101, i64 3
  %112 = bitcast %"class.std::__1::__tree_end_node"* %111 to i8*
  store i8 0, i8* %112, align 8
  %113 = load %"class.std::__1::__tree_node_base"*, %"class.std::__1::__tree_node_base"** %110, align 8
  %114 = getelementptr inbounds %"class.std::__1::__tree_node_base", %"class.std::__1::__tree_node_base"* %113, i64 0, i32 1
  %115 = load %"class.std::__1::__tree_node_base"*, %"class.std::__1::__tree_node_base"** %114, align 8
  %116 = getelementptr inbounds %"class.std::__1::__tree_node_base", %"class.std::__1::__tree_node_base"* %115, i64 0, i32 0, i32 0
  %117 = load %"class.std::__1::__tree_node_base"*, %"class.std::__1::__tree_node_base"** %116, align 8
  store %"class.std::__1::__tree_node_base"* %117, %"class.std::__1::__tree_node_base"** %114, align 8
  %118 = icmp eq %"class.std::__1::__tree_node_base"* %117, null
  br i1 %118, label %122, label %119

119:                                              ; preds = %109
  %120 = getelementptr inbounds %"class.std::__1::__tree_node_base", %"class.std::__1::__tree_node_base"* %113, i64 0, i32 0
  %121 = getelementptr inbounds %"class.std::__1::__tree_node_base", %"class.std::__1::__tree_node_base"* %117, i64 0, i32 2
  store %"class.std::__1::__tree_end_node"* %120, %"class.std::__1::__tree_end_node"** %121, align 8
  br label %122

122:                                              ; preds = %119, %109
  %123 = getelementptr inbounds %"class.std::__1::__tree_node_base", %"class.std::__1::__tree_node_base"* %113, i64 0, i32 2
  %124 = bitcast %"class.std::__1::__tree_end_node"** %123 to i64*
  %125 = load i64, i64* %124, align 8
  %126 = getelementptr inbounds %"class.std::__1::__tree_node_base", %"class.std::__1::__tree_node_base"* %115, i64 0, i32 2
  %127 = bitcast %"class.std::__1::__tree_end_node"** %126 to i64*
  store i64 %125, i64* %127, align 8
  %128 = load %"class.std::__1::__tree_end_node"*, %"class.std::__1::__tree_end_node"** %123, align 8
  %129 = getelementptr inbounds %"class.std::__1::__tree_end_node", %"class.std::__1::__tree_end_node"* %128, i64 0, i32 0
  %130 = load %"class.std::__1::__tree_node_base"*, %"class.std::__1::__tree_node_base"** %129, align 8
  %131 = icmp eq %"class.std::__1::__tree_node_base"* %130, %113
  %132 = getelementptr inbounds %"class.std::__1::__tree_end_node", %"class.std::__1::__tree_end_node"* %128, i64 1, i32 0
  %133 = select i1 %131, %"class.std::__1::__tree_node_base"** %129, %"class.std::__1::__tree_node_base"** %132
  store %"class.std::__1::__tree_node_base"* %115, %"class.std::__1::__tree_node_base"** %133, align 8
  store %"class.std::__1::__tree_node_base"* %113, %"class.std::__1::__tree_node_base"** %116, align 8
  %134 = getelementptr inbounds %"class.std::__1::__tree_node_base", %"class.std::__1::__tree_node_base"* %115, i64 0, i32 0
  store %"class.std::__1::__tree_end_node"* %134, %"class.std::__1::__tree_end_node"** %123, align 8
  %135 = getelementptr inbounds %"class.std::__1::__tree_node_base", %"class.std::__1::__tree_node_base"* %99, i64 0, i32 0, i32 0
  %136 = load %"class.std::__1::__tree_node_base"*, %"class.std::__1::__tree_node_base"** %135, align 8
  %137 = icmp eq %"class.std::__1::__tree_node_base"* %98, %136
  %138 = select i1 %137, %"class.std::__1::__tree_node_base"* %99, %"class.std::__1::__tree_node_base"* %98
  %139 = getelementptr inbounds %"class.std::__1::__tree_node_base", %"class.std::__1::__tree_node_base"* %136, i64 0, i32 1
  %140 = load %"class.std::__1::__tree_node_base"*, %"class.std::__1::__tree_node_base"** %139, align 8
  br label %141

141:                                              ; preds = %122, %108
  %142 = phi %"class.std::__1::__tree_node_base"* [ %98, %108 ], [ %138, %122 ]
  %143 = phi %"class.std::__1::__tree_node_base"* [ %99, %108 ], [ %140, %122 ]
  %144 = getelementptr inbounds %"class.std::__1::__tree_node_base", %"class.std::__1::__tree_node_base"* %143, i64 0, i32 0, i32 0
  %145 = load %"class.std::__1::__tree_node_base"*, %"class.std::__1::__tree_node_base"** %144, align 8
  %146 = icmp eq %"class.std::__1::__tree_node_base"* %145, null
  br i1 %146, label %151, label %147

147:                                              ; preds = %141
  %148 = getelementptr inbounds %"class.std::__1::__tree_node_base", %"class.std::__1::__tree_node_base"* %145, i64 0, i32 3
  %149 = load i8, i8* %148, align 8, !range !2
  %150 = icmp eq i8 %149, 0
  br i1 %150, label %172, label %151

151:                                              ; preds = %147, %141
  %152 = getelementptr inbounds %"class.std::__1::__tree_node_base", %"class.std::__1::__tree_node_base"* %143, i64 0, i32 1
  %153 = load %"class.std::__1::__tree_node_base"*, %"class.std::__1::__tree_node_base"** %152, align 8
  %154 = icmp eq %"class.std::__1::__tree_node_base"* %153, null
  br i1 %154, label %159, label %155

155:                                              ; preds = %151
  %156 = getelementptr inbounds %"class.std::__1::__tree_node_base", %"class.std::__1::__tree_node_base"* %153, i64 0, i32 3
  %157 = load i8, i8* %156, align 8, !range !2
  %158 = icmp eq i8 %157, 0
  br i1 %158, label %177, label %159

159:                                              ; preds = %155, %151
  %160 = getelementptr inbounds %"class.std::__1::__tree_node_base", %"class.std::__1::__tree_node_base"* %143, i64 0, i32 3
  store i8 0, i8* %160, align 8
  %161 = getelementptr inbounds %"class.std::__1::__tree_node_base", %"class.std::__1::__tree_node_base"* %143, i64 0, i32 2
  %162 = bitcast %"class.std::__1::__tree_end_node"** %161 to %"class.std::__1::__tree_node_base"**
  %163 = load %"class.std::__1::__tree_node_base"*, %"class.std::__1::__tree_node_base"** %162, align 8
  %164 = icmp eq %"class.std::__1::__tree_node_base"* %163, %142
  br i1 %164, label %169, label %165

165:                                              ; preds = %159
  %166 = getelementptr inbounds %"class.std::__1::__tree_node_base", %"class.std::__1::__tree_node_base"* %163, i64 0, i32 3
  %167 = load i8, i8* %166, align 8, !range !2
  %168 = icmp eq i8 %167, 0
  br i1 %168, label %169, label %371

169:                                              ; preds = %165, %159
  %170 = phi %"class.std::__1::__tree_node_base"* [ %163, %165 ], [ %142, %159 ]
  %171 = getelementptr inbounds %"class.std::__1::__tree_node_base", %"class.std::__1::__tree_node_base"* %170, i64 0, i32 3
  store i8 1, i8* %171, align 8
  br label %382

172:                                              ; preds = %147
  %173 = getelementptr inbounds %"class.std::__1::__tree_node_base", %"class.std::__1::__tree_node_base"* %143, i64 0, i32 0, i32 0
  %174 = getelementptr inbounds %"class.std::__1::__tree_node_base", %"class.std::__1::__tree_node_base"* %143, i64 0, i32 1
  %175 = load %"class.std::__1::__tree_node_base"*, %"class.std::__1::__tree_node_base"** %174, align 8
  %176 = icmp eq %"class.std::__1::__tree_node_base"* %175, null
  br i1 %176, label %185, label %179

177:                                              ; preds = %155
  %178 = getelementptr inbounds %"class.std::__1::__tree_node_base", %"class.std::__1::__tree_node_base"* %143, i64 0, i32 0, i32 0
  br label %179

179:                                              ; preds = %177, %172
  %180 = phi %"class.std::__1::__tree_node_base"** [ %173, %172 ], [ %178, %177 ]
  %181 = phi %"class.std::__1::__tree_node_base"* [ %175, %172 ], [ %153, %177 ]
  %182 = getelementptr inbounds %"class.std::__1::__tree_node_base", %"class.std::__1::__tree_node_base"* %181, i64 0, i32 3
  %183 = load i8, i8* %182, align 8, !range !2
  %184 = icmp eq i8 %183, 0
  br i1 %184, label %209, label %185

185:                                              ; preds = %179, %172
  %186 = phi %"class.std::__1::__tree_node_base"** [ %180, %179 ], [ %173, %172 ]
  %187 = getelementptr inbounds %"class.std::__1::__tree_node_base", %"class.std::__1::__tree_node_base"* %145, i64 0, i32 3
  store i8 1, i8* %187, align 8
  %188 = getelementptr inbounds %"class.std::__1::__tree_node_base", %"class.std::__1::__tree_node_base"* %143, i64 0, i32 3
  store i8 0, i8* %188, align 8
  %189 = load %"class.std::__1::__tree_node_base"*, %"class.std::__1::__tree_node_base"** %186, align 8
  %190 = getelementptr inbounds %"class.std::__1::__tree_node_base", %"class.std::__1::__tree_node_base"* %189, i64 0, i32 1
  %191 = load %"class.std::__1::__tree_node_base"*, %"class.std::__1::__tree_node_base"** %190, align 8
  store %"class.std::__1::__tree_node_base"* %191, %"class.std::__1::__tree_node_base"** %186, align 8
  %192 = icmp eq %"class.std::__1::__tree_node_base"* %191, null
  br i1 %192, label %196, label %193

193:                                              ; preds = %185
  %194 = getelementptr inbounds %"class.std::__1::__tree_node_base", %"class.std::__1::__tree_node_base"* %143, i64 0, i32 0
  %195 = getelementptr inbounds %"class.std::__1::__tree_node_base", %"class.std::__1::__tree_node_base"* %191, i64 0, i32 2
  store %"class.std::__1::__tree_end_node"* %194, %"class.std::__1::__tree_end_node"** %195, align 8
  br label %196

196:                                              ; preds = %193, %185
  %197 = getelementptr inbounds %"class.std::__1::__tree_node_base", %"class.std::__1::__tree_node_base"* %143, i64 0, i32 2
  %198 = bitcast %"class.std::__1::__tree_end_node"** %197 to i64*
  %199 = load i64, i64* %198, align 8
  %200 = getelementptr inbounds %"class.std::__1::__tree_node_base", %"class.std::__1::__tree_node_base"* %189, i64 0, i32 2
  %201 = bitcast %"class.std::__1::__tree_end_node"** %200 to i64*
  store i64 %199, i64* %201, align 8
  %202 = load %"class.std::__1::__tree_end_node"*, %"class.std::__1::__tree_end_node"** %197, align 8
  %203 = getelementptr inbounds %"class.std::__1::__tree_end_node", %"class.std::__1::__tree_end_node"* %202, i64 0, i32 0
  %204 = load %"class.std::__1::__tree_node_base"*, %"class.std::__1::__tree_node_base"** %203, align 8
  %205 = icmp eq %"class.std::__1::__tree_node_base"* %204, %143
  %206 = getelementptr inbounds %"class.std::__1::__tree_end_node", %"class.std::__1::__tree_end_node"* %202, i64 1, i32 0
  %207 = select i1 %205, %"class.std::__1::__tree_node_base"** %203, %"class.std::__1::__tree_node_base"** %206
  store %"class.std::__1::__tree_node_base"* %189, %"class.std::__1::__tree_node_base"** %207, align 8
  store %"class.std::__1::__tree_node_base"* %143, %"class.std::__1::__tree_node_base"** %190, align 8
  %208 = getelementptr inbounds %"class.std::__1::__tree_node_base", %"class.std::__1::__tree_node_base"* %189, i64 0, i32 0
  store %"class.std::__1::__tree_end_node"* %208, %"class.std::__1::__tree_end_node"** %197, align 8
  br label %209

209:                                              ; preds = %179, %196
  %210 = phi %"class.std::__1::__tree_node_base"* [ %189, %196 ], [ %143, %179 ]
  %211 = getelementptr inbounds %"class.std::__1::__tree_node_base", %"class.std::__1::__tree_node_base"* %210, i64 0, i32 2
  %212 = bitcast %"class.std::__1::__tree_end_node"** %211 to %"class.std::__1::__tree_node_base"**
  %213 = load %"class.std::__1::__tree_node_base"*, %"class.std::__1::__tree_node_base"** %212, align 8
  %214 = getelementptr inbounds %"class.std::__1::__tree_node_base", %"class.std::__1::__tree_node_base"* %213, i64 0, i32 3
  %215 = load i8, i8* %214, align 8, !range !2
  %216 = getelementptr inbounds %"class.std::__1::__tree_node_base", %"class.std::__1::__tree_node_base"* %210, i64 0, i32 3
  store i8 %215, i8* %216, align 8
  store i8 1, i8* %214, align 8
  %217 = getelementptr inbounds %"class.std::__1::__tree_node_base", %"class.std::__1::__tree_node_base"* %210, i64 0, i32 1
  %218 = load %"class.std::__1::__tree_node_base"*, %"class.std::__1::__tree_node_base"** %217, align 8
  %219 = getelementptr inbounds %"class.std::__1::__tree_node_base", %"class.std::__1::__tree_node_base"* %218, i64 0, i32 3
  store i8 1, i8* %219, align 8
  %220 = load %"class.std::__1::__tree_node_base"*, %"class.std::__1::__tree_node_base"** %212, align 8
  %221 = getelementptr inbounds %"class.std::__1::__tree_node_base", %"class.std::__1::__tree_node_base"* %220, i64 0, i32 1
  %222 = load %"class.std::__1::__tree_node_base"*, %"class.std::__1::__tree_node_base"** %221, align 8
  %223 = getelementptr inbounds %"class.std::__1::__tree_node_base", %"class.std::__1::__tree_node_base"* %222, i64 0, i32 0, i32 0
  %224 = load %"class.std::__1::__tree_node_base"*, %"class.std::__1::__tree_node_base"** %223, align 8
  store %"class.std::__1::__tree_node_base"* %224, %"class.std::__1::__tree_node_base"** %221, align 8
  %225 = icmp eq %"class.std::__1::__tree_node_base"* %224, null
  br i1 %225, label %229, label %226

226:                                              ; preds = %209
  %227 = getelementptr inbounds %"class.std::__1::__tree_node_base", %"class.std::__1::__tree_node_base"* %220, i64 0, i32 0
  %228 = getelementptr inbounds %"class.std::__1::__tree_node_base", %"class.std::__1::__tree_node_base"* %224, i64 0, i32 2
  store %"class.std::__1::__tree_end_node"* %227, %"class.std::__1::__tree_end_node"** %228, align 8
  br label %229

229:                                              ; preds = %226, %209
  %230 = getelementptr inbounds %"class.std::__1::__tree_node_base", %"class.std::__1::__tree_node_base"* %220, i64 0, i32 2
  %231 = bitcast %"class.std::__1::__tree_end_node"** %230 to i64*
  %232 = load i64, i64* %231, align 8
  %233 = getelementptr inbounds %"class.std::__1::__tree_node_base", %"class.std::__1::__tree_node_base"* %222, i64 0, i32 2
  %234 = bitcast %"class.std::__1::__tree_end_node"** %233 to i64*
  store i64 %232, i64* %234, align 8
  %235 = load %"class.std::__1::__tree_end_node"*, %"class.std::__1::__tree_end_node"** %230, align 8
  %236 = getelementptr inbounds %"class.std::__1::__tree_end_node", %"class.std::__1::__tree_end_node"* %235, i64 0, i32 0
  %237 = load %"class.std::__1::__tree_node_base"*, %"class.std::__1::__tree_node_base"** %236, align 8
  %238 = icmp eq %"class.std::__1::__tree_node_base"* %237, %220
  %239 = getelementptr inbounds %"class.std::__1::__tree_end_node", %"class.std::__1::__tree_end_node"* %235, i64 1, i32 0
  %240 = select i1 %238, %"class.std::__1::__tree_node_base"** %236, %"class.std::__1::__tree_node_base"** %239
  store %"class.std::__1::__tree_node_base"* %222, %"class.std::__1::__tree_node_base"** %240, align 8
  store %"class.std::__1::__tree_node_base"* %220, %"class.std::__1::__tree_node_base"** %223, align 8
  %241 = getelementptr inbounds %"class.std::__1::__tree_node_base", %"class.std::__1::__tree_node_base"* %222, i64 0, i32 0
  store %"class.std::__1::__tree_end_node"* %241, %"class.std::__1::__tree_end_node"** %230, align 8
  br label %382

242:                                              ; preds = %97
  br i1 %107, label %275, label %243

243:                                              ; preds = %242
  store i8 1, i8* %105, align 8
  %244 = bitcast %"class.std::__1::__tree_end_node"** %100 to %"class.std::__1::__tree_node_base"**
  %245 = getelementptr inbounds %"class.std::__1::__tree_end_node", %"class.std::__1::__tree_end_node"* %101, i64 3
  %246 = bitcast %"class.std::__1::__tree_end_node"* %245 to i8*
  store i8 0, i8* %246, align 8
  %247 = load %"class.std::__1::__tree_node_base"*, %"class.std::__1::__tree_node_base"** %244, align 8
  %248 = getelementptr inbounds %"class.std::__1::__tree_node_base", %"class.std::__1::__tree_node_base"* %247, i64 0, i32 0, i32 0
  %249 = load %"class.std::__1::__tree_node_base"*, %"class.std::__1::__tree_node_base"** %248, align 8
  %250 = getelementptr inbounds %"class.std::__1::__tree_node_base", %"class.std::__1::__tree_node_base"* %249, i64 0, i32 1
  %251 = load %"class.std::__1::__tree_node_base"*, %"class.std::__1::__tree_node_base"** %250, align 8
  store %"class.std::__1::__tree_node_base"* %251, %"class.std::__1::__tree_node_base"** %248, align 8
  %252 = icmp eq %"class.std::__1::__tree_node_base"* %251, null
  br i1 %252, label %256, label %253

253:                                              ; preds = %243
  %254 = getelementptr inbounds %"class.std::__1::__tree_node_base", %"class.std::__1::__tree_node_base"* %247, i64 0, i32 0
  %255 = getelementptr inbounds %"class.std::__1::__tree_node_base", %"class.std::__1::__tree_node_base"* %251, i64 0, i32 2
  store %"class.std::__1::__tree_end_node"* %254, %"class.std::__1::__tree_end_node"** %255, align 8
  br label %256

256:                                              ; preds = %253, %243
  %257 = getelementptr inbounds %"class.std::__1::__tree_node_base", %"class.std::__1::__tree_node_base"* %247, i64 0, i32 2
  %258 = bitcast %"class.std::__1::__tree_end_node"** %257 to i64*
  %259 = load i64, i64* %258, align 8
  %260 = getelementptr inbounds %"class.std::__1::__tree_node_base", %"class.std::__1::__tree_node_base"* %249, i64 0, i32 2
  %261 = bitcast %"class.std::__1::__tree_end_node"** %260 to i64*
  store i64 %259, i64* %261, align 8
  %262 = load %"class.std::__1::__tree_end_node"*, %"class.std::__1::__tree_end_node"** %257, align 8
  %263 = getelementptr inbounds %"class.std::__1::__tree_end_node", %"class.std::__1::__tree_end_node"* %262, i64 0, i32 0
  %264 = load %"class.std::__1::__tree_node_base"*, %"class.std::__1::__tree_node_base"** %263, align 8
  %265 = icmp eq %"class.std::__1::__tree_node_base"* %264, %247
  %266 = getelementptr inbounds %"class.std::__1::__tree_end_node", %"class.std::__1::__tree_end_node"* %262, i64 1, i32 0
  %267 = select i1 %265, %"class.std::__1::__tree_node_base"** %263, %"class.std::__1::__tree_node_base"** %266
  store %"class.std::__1::__tree_node_base"* %249, %"class.std::__1::__tree_node_base"** %267, align 8
  store %"class.std::__1::__tree_node_base"* %247, %"class.std::__1::__tree_node_base"** %250, align 8
  %268 = getelementptr inbounds %"class.std::__1::__tree_node_base", %"class.std::__1::__tree_node_base"* %249, i64 0, i32 0
  store %"class.std::__1::__tree_end_node"* %268, %"class.std::__1::__tree_end_node"** %257, align 8
  %269 = getelementptr inbounds %"class.std::__1::__tree_node_base", %"class.std::__1::__tree_node_base"* %99, i64 0, i32 1
  %270 = load %"class.std::__1::__tree_node_base"*, %"class.std::__1::__tree_node_base"** %269, align 8
  %271 = icmp eq %"class.std::__1::__tree_node_base"* %98, %270
  %272 = select i1 %271, %"class.std::__1::__tree_node_base"* %99, %"class.std::__1::__tree_node_base"* %98
  %273 = getelementptr inbounds %"class.std::__1::__tree_node_base", %"class.std::__1::__tree_node_base"* %270, i64 0, i32 0, i32 0
  %274 = load %"class.std::__1::__tree_node_base"*, %"class.std::__1::__tree_node_base"** %273, align 8
  br label %275

275:                                              ; preds = %256, %242
  %276 = phi %"class.std::__1::__tree_node_base"* [ %98, %242 ], [ %272, %256 ]
  %277 = phi %"class.std::__1::__tree_node_base"* [ %99, %242 ], [ %274, %256 ]
  %278 = getelementptr inbounds %"class.std::__1::__tree_node_base", %"class.std::__1::__tree_node_base"* %277, i64 0, i32 0, i32 0
  %279 = load %"class.std::__1::__tree_node_base"*, %"class.std::__1::__tree_node_base"** %278, align 8
  %280 = icmp eq %"class.std::__1::__tree_node_base"* %279, null
  br i1 %280, label %285, label %281

281:                                              ; preds = %275
  %282 = getelementptr inbounds %"class.std::__1::__tree_node_base", %"class.std::__1::__tree_node_base"* %279, i64 0, i32 3
  %283 = load i8, i8* %282, align 8, !range !2
  %284 = icmp eq i8 %283, 0
  br i1 %284, label %338, label %285

285:                                              ; preds = %281, %275
  %286 = getelementptr inbounds %"class.std::__1::__tree_node_base", %"class.std::__1::__tree_node_base"* %277, i64 0, i32 1
  %287 = load %"class.std::__1::__tree_node_base"*, %"class.std::__1::__tree_node_base"** %286, align 8
  %288 = icmp eq %"class.std::__1::__tree_node_base"* %287, null
  br i1 %288, label %293, label %289

289:                                              ; preds = %285
  %290 = getelementptr inbounds %"class.std::__1::__tree_node_base", %"class.std::__1::__tree_node_base"* %287, i64 0, i32 3
  %291 = load i8, i8* %290, align 8, !range !2
  %292 = icmp eq i8 %291, 0
  br i1 %292, label %305, label %293

293:                                              ; preds = %289, %285
  %294 = getelementptr inbounds %"class.std::__1::__tree_node_base", %"class.std::__1::__tree_node_base"* %277, i64 0, i32 3
  store i8 0, i8* %294, align 8
  %295 = getelementptr inbounds %"class.std::__1::__tree_node_base", %"class.std::__1::__tree_node_base"* %277, i64 0, i32 2
  %296 = bitcast %"class.std::__1::__tree_end_node"** %295 to %"class.std::__1::__tree_node_base"**
  %297 = load %"class.std::__1::__tree_node_base"*, %"class.std::__1::__tree_node_base"** %296, align 8
  %298 = getelementptr inbounds %"class.std::__1::__tree_node_base", %"class.std::__1::__tree_node_base"* %297, i64 0, i32 3
  %299 = load i8, i8* %298, align 8, !range !2
  %300 = icmp eq i8 %299, 0
  %301 = icmp eq %"class.std::__1::__tree_node_base"* %297, %276
  %302 = or i1 %301, %300
  br i1 %302, label %303, label %371

303:                                              ; preds = %293
  %304 = getelementptr inbounds %"class.std::__1::__tree_node_base", %"class.std::__1::__tree_node_base"* %297, i64 0, i32 3
  store i8 1, i8* %304, align 8
  br label %382

305:                                              ; preds = %289
  br i1 %280, label %313, label %306

306:                                              ; preds = %305
  %307 = getelementptr inbounds %"class.std::__1::__tree_node_base", %"class.std::__1::__tree_node_base"* %279, i64 0, i32 3
  %308 = load i8, i8* %307, align 8, !range !2
  %309 = icmp eq i8 %308, 0
  br i1 %309, label %338, label %310

310:                                              ; preds = %306
  %311 = getelementptr inbounds %"class.std::__1::__tree_node_base", %"class.std::__1::__tree_node_base"* %277, i64 0, i32 1
  %312 = load %"class.std::__1::__tree_node_base"*, %"class.std::__1::__tree_node_base"** %311, align 8
  br label %313

313:                                              ; preds = %310, %305
  %314 = phi %"class.std::__1::__tree_node_base"* [ %312, %310 ], [ %287, %305 ]
  %315 = getelementptr inbounds %"class.std::__1::__tree_node_base", %"class.std::__1::__tree_node_base"* %277, i64 0, i32 1
  %316 = getelementptr inbounds %"class.std::__1::__tree_node_base", %"class.std::__1::__tree_node_base"* %314, i64 0, i32 3
  store i8 1, i8* %316, align 8
  %317 = getelementptr inbounds %"class.std::__1::__tree_node_base", %"class.std::__1::__tree_node_base"* %277, i64 0, i32 3
  store i8 0, i8* %317, align 8
  %318 = load %"class.std::__1::__tree_node_base"*, %"class.std::__1::__tree_node_base"** %315, align 8
  %319 = getelementptr inbounds %"class.std::__1::__tree_node_base", %"class.std::__1::__tree_node_base"* %318, i64 0, i32 0, i32 0
  %320 = load %"class.std::__1::__tree_node_base"*, %"class.std::__1::__tree_node_base"** %319, align 8
  store %"class.std::__1::__tree_node_base"* %320, %"class.std::__1::__tree_node_base"** %315, align 8
  %321 = icmp eq %"class.std::__1::__tree_node_base"* %320, null
  br i1 %321, label %325, label %322

322:                                              ; preds = %313
  %323 = getelementptr inbounds %"class.std::__1::__tree_node_base", %"class.std::__1::__tree_node_base"* %277, i64 0, i32 0
  %324 = getelementptr inbounds %"class.std::__1::__tree_node_base", %"class.std::__1::__tree_node_base"* %320, i64 0, i32 2
  store %"class.std::__1::__tree_end_node"* %323, %"class.std::__1::__tree_end_node"** %324, align 8
  br label %325

325:                                              ; preds = %322, %313
  %326 = getelementptr inbounds %"class.std::__1::__tree_node_base", %"class.std::__1::__tree_node_base"* %277, i64 0, i32 2
  %327 = bitcast %"class.std::__1::__tree_end_node"** %326 to i64*
  %328 = load i64, i64* %327, align 8
  %329 = getelementptr inbounds %"class.std::__1::__tree_node_base", %"class.std::__1::__tree_node_base"* %318, i64 0, i32 2
  %330 = bitcast %"class.std::__1::__tree_end_node"** %329 to i64*
  store i64 %328, i64* %330, align 8
  %331 = load %"class.std::__1::__tree_end_node"*, %"class.std::__1::__tree_end_node"** %326, align 8
  %332 = getelementptr inbounds %"class.std::__1::__tree_end_node", %"class.std::__1::__tree_end_node"* %331, i64 0, i32 0
  %333 = load %"class.std::__1::__tree_node_base"*, %"class.std::__1::__tree_node_base"** %332, align 8
  %334 = icmp eq %"class.std::__1::__tree_node_base"* %333, %277
  %335 = getelementptr inbounds %"class.std::__1::__tree_end_node", %"class.std::__1::__tree_end_node"* %331, i64 1, i32 0
  %336 = select i1 %334, %"class.std::__1::__tree_node_base"** %332, %"class.std::__1::__tree_node_base"** %335
  store %"class.std::__1::__tree_node_base"* %318, %"class.std::__1::__tree_node_base"** %336, align 8
  store %"class.std::__1::__tree_node_base"* %277, %"class.std::__1::__tree_node_base"** %319, align 8
  %337 = getelementptr inbounds %"class.std::__1::__tree_node_base", %"class.std::__1::__tree_node_base"* %318, i64 0, i32 0
  store %"class.std::__1::__tree_end_node"* %337, %"class.std::__1::__tree_end_node"** %326, align 8
  br label %338

338:                                              ; preds = %281, %306, %325
  %339 = phi %"class.std::__1::__tree_node_base"* [ %318, %325 ], [ %277, %306 ], [ %277, %281 ]
  %340 = getelementptr inbounds %"class.std::__1::__tree_node_base", %"class.std::__1::__tree_node_base"* %339, i64 0, i32 2
  %341 = bitcast %"class.std::__1::__tree_end_node"** %340 to %"class.std::__1::__tree_node_base"**
  %342 = load %"class.std::__1::__tree_node_base"*, %"class.std::__1::__tree_node_base"** %341, align 8
  %343 = getelementptr inbounds %"class.std::__1::__tree_node_base", %"class.std::__1::__tree_node_base"* %342, i64 0, i32 3
  %344 = load i8, i8* %343, align 8, !range !2
  %345 = getelementptr inbounds %"class.std::__1::__tree_node_base", %"class.std::__1::__tree_node_base"* %339, i64 0, i32 3
  store i8 %344, i8* %345, align 8
  store i8 1, i8* %343, align 8
  %346 = getelementptr inbounds %"class.std::__1::__tree_node_base", %"class.std::__1::__tree_node_base"* %339, i64 0, i32 0, i32 0
  %347 = load %"class.std::__1::__tree_node_base"*, %"class.std::__1::__tree_node_base"** %346, align 8
  %348 = getelementptr inbounds %"class.std::__1::__tree_node_base", %"class.std::__1::__tree_node_base"* %347, i64 0, i32 3
  store i8 1, i8* %348, align 8
  %349 = load %"class.std::__1::__tree_node_base"*, %"class.std::__1::__tree_node_base"** %341, align 8
  %350 = getelementptr inbounds %"class.std::__1::__tree_node_base", %"class.std::__1::__tree_node_base"* %349, i64 0, i32 0, i32 0
  %351 = load %"class.std::__1::__tree_node_base"*, %"class.std::__1::__tree_node_base"** %350, align 8
  %352 = getelementptr inbounds %"class.std::__1::__tree_node_base", %"class.std::__1::__tree_node_base"* %351, i64 0, i32 1
  %353 = load %"class.std::__1::__tree_node_base"*, %"class.std::__1::__tree_node_base"** %352, align 8
  store %"class.std::__1::__tree_node_base"* %353, %"class.std::__1::__tree_node_base"** %350, align 8
  %354 = icmp eq %"class.std::__1::__tree_node_base"* %353, null
  br i1 %354, label %358, label %355

355:                                              ; preds = %338
  %356 = getelementptr inbounds %"class.std::__1::__tree_node_base", %"class.std::__1::__tree_node_base"* %349, i64 0, i32 0
  %357 = getelementptr inbounds %"class.std::__1::__tree_node_base", %"class.std::__1::__tree_node_base"* %353, i64 0, i32 2
  store %"class.std::__1::__tree_end_node"* %356, %"class.std::__1::__tree_end_node"** %357, align 8
  br label %358

358:                                              ; preds = %355, %338
  %359 = getelementptr inbounds %"class.std::__1::__tree_node_base", %"class.std::__1::__tree_node_base"* %349, i64 0, i32 2
  %360 = bitcast %"class.std::__1::__tree_end_node"** %359 to i64*
  %361 = load i64, i64* %360, align 8
  %362 = getelementptr inbounds %"class.std::__1::__tree_node_base", %"class.std::__1::__tree_node_base"* %351, i64 0, i32 2
  %363 = bitcast %"class.std::__1::__tree_end_node"** %362 to i64*
  store i64 %361, i64* %363, align 8
  %364 = load %"class.std::__1::__tree_end_node"*, %"class.std::__1::__tree_end_node"** %359, align 8
  %365 = getelementptr inbounds %"class.std::__1::__tree_end_node", %"class.std::__1::__tree_end_node"* %364, i64 0, i32 0
  %366 = load %"class.std::__1::__tree_node_base"*, %"class.std::__1::__tree_node_base"** %365, align 8
  %367 = icmp eq %"class.std::__1::__tree_node_base"* %366, %349
  %368 = getelementptr inbounds %"class.std::__1::__tree_end_node", %"class.std::__1::__tree_end_node"* %364, i64 1, i32 0
  %369 = select i1 %367, %"class.std::__1::__tree_node_base"** %365, %"class.std::__1::__tree_node_base"** %368
  store %"class.std::__1::__tree_node_base"* %351, %"class.std::__1::__tree_node_base"** %369, align 8
  store %"class.std::__1::__tree_node_base"* %349, %"class.std::__1::__tree_node_base"** %352, align 8
  %370 = getelementptr inbounds %"class.std::__1::__tree_node_base", %"class.std::__1::__tree_node_base"* %351, i64 0, i32 0
  store %"class.std::__1::__tree_end_node"* %370, %"class.std::__1::__tree_end_node"** %359, align 8
  br label %382

371:                                              ; preds = %293, %165
  %372 = phi %"class.std::__1::__tree_node_base"* [ %163, %165 ], [ %297, %293 ]
  %373 = phi %"class.std::__1::__tree_node_base"* [ %142, %165 ], [ %276, %293 ]
  %374 = getelementptr inbounds %"class.std::__1::__tree_node_base", %"class.std::__1::__tree_node_base"* %372, i64 0, i32 2
  %375 = load %"class.std::__1::__tree_end_node"*, %"class.std::__1::__tree_end_node"** %374, align 8
  %376 = getelementptr inbounds %"class.std::__1::__tree_end_node", %"class.std::__1::__tree_end_node"* %375, i64 0, i32 0
  %377 = load %"class.std::__1::__tree_node_base"*, %"class.std::__1::__tree_node_base"** %376, align 8
  %378 = icmp eq %"class.std::__1::__tree_node_base"* %377, %372
  %379 = getelementptr inbounds %"class.std::__1::__tree_end_node", %"class.std::__1::__tree_end_node"* %375, i64 1, i32 0
  %380 = select i1 %378, %"class.std::__1::__tree_node_base"** %379, %"class.std::__1::__tree_node_base"** %376
  %381 = load %"class.std::__1::__tree_node_base"*, %"class.std::__1::__tree_node_base"** %380, align 8
  br label %97

382:                                              ; preds = %95, %358, %303, %229, %169, %90
  ret void
}

declare void @_ZN4mojo8internal31AssociatedInterfacePtrStateBaseC2Ev(%"class.mojo::internal::AssociatedInterfacePtrStateBase"*) unnamed_addr #1

declare void @_ZN4mojo8internal31AssociatedInterfacePtrStateBase4SwapEPS1_(%"class.mojo::internal::AssociatedInterfacePtrStateBase"*, %"class.mojo::internal::AssociatedInterfacePtrStateBase"*) local_unnamed_addr #1

; Function Attrs: nounwind
declare void @_ZN4mojo8internal31AssociatedInterfacePtrStateBaseD2Ev(%"class.mojo::internal::AssociatedInterfacePtrStateBase"*) unnamed_addr #2

declare void @_ZN7content22WebContentsReceiverSetC2EPNS_11WebContentsERKNSt3__112basic_stringIcNS3_11char_traitsIcEENS3_9allocatorIcEEEE(%"class.content::WebContentsReceiverSet"*, %"class.content::WebContents"*, %"class.std::__1::basic_string"* dereferenceable(24)) unnamed_addr #1

; Function Attrs: noreturn
declare void @_ZNKSt3__121__basic_string_commonILb1EE20__throw_length_errorEv(%"class.std::__1::__basic_string_common"*) local_unnamed_addr #13

; Function Attrs: argmemonly nofree nounwind readonly
declare i64 @strlen(i8* nocapture) local_unnamed_addr #14

declare void @_ZN4mojo16ReceiverSetStateC1Ev(%"class.mojo::ReceiverSetState"*) unnamed_addr #1

; Function Attrs: nounwind ssp uwtable
define linkonce_odr hidden void @_ZNSt3__16__treeINS_12__value_typeIPN7content15RenderFrameHostEN4mojo16AssociatedRemoteIN8printing5mojom16PrintRenderFrameEEEEENS_19__map_value_compareIS4_SB_NS_4lessIS4_EELb1EEENS_9allocatorISB_EEE7destroyEPNS_11__tree_nodeISB_PvEE(%"class.std::__1::__tree.36"*, %"class.std::__1::__tree_node.335"*) local_unnamed_addr #0 comdat align 2 {
  %3 = icmp eq %"class.std::__1::__tree_node.335"* %1, null
  br i1 %3, label %22, label %4

4:                                                ; preds = %2
  %5 = bitcast %"class.std::__1::__tree_node.335"* %1 to %"class.std::__1::__tree_node.335"**
  %6 = load %"class.std::__1::__tree_node.335"*, %"class.std::__1::__tree_node.335"** %5, align 8
  tail call void @_ZNSt3__16__treeINS_12__value_typeIPN7content15RenderFrameHostEN4mojo16AssociatedRemoteIN8printing5mojom16PrintRenderFrameEEEEENS_19__map_value_compareIS4_SB_NS_4lessIS4_EELb1EEENS_9allocatorISB_EEE7destroyEPNS_11__tree_nodeISB_PvEE(%"class.std::__1::__tree.36"* %0, %"class.std::__1::__tree_node.335"* %6) #15
  %7 = getelementptr inbounds %"class.std::__1::__tree_node.335", %"class.std::__1::__tree_node.335"* %1, i64 0, i32 0, i32 1
  %8 = bitcast %"class.std::__1::__tree_node_base"** %7 to %"class.std::__1::__tree_node.335"**
  %9 = load %"class.std::__1::__tree_node.335"*, %"class.std::__1::__tree_node.335"** %8, align 8
  tail call void @_ZNSt3__16__treeINS_12__value_typeIPN7content15RenderFrameHostEN4mojo16AssociatedRemoteIN8printing5mojom16PrintRenderFrameEEEEENS_19__map_value_compareIS4_SB_NS_4lessIS4_EELb1EEENS_9allocatorISB_EEE7destroyEPNS_11__tree_nodeISB_PvEE(%"class.std::__1::__tree.36"* %0, %"class.std::__1::__tree_node.335"* %9) #15
  %10 = getelementptr inbounds %"class.std::__1::__tree_node.335", %"class.std::__1::__tree_node.335"* %1, i64 0, i32 1, i32 0, i32 1
  %11 = getelementptr inbounds %"class.std::__1::__tree_node.335", %"class.std::__1::__tree_node.335"* %1, i64 0, i32 1, i32 0, i32 1, i32 0, i32 1, i32 0, i32 0, i32 0
  %12 = load %"class.printing::mojom::PrintRenderFrameProxy"*, %"class.printing::mojom::PrintRenderFrameProxy"** %11, align 8
  store %"class.printing::mojom::PrintRenderFrameProxy"* null, %"class.printing::mojom::PrintRenderFrameProxy"** %11, align 8
  %13 = icmp eq %"class.printing::mojom::PrintRenderFrameProxy"* %12, null
  br i1 %13, label %19, label %14

14:                                               ; preds = %4
  %15 = bitcast %"class.printing::mojom::PrintRenderFrameProxy"* %12 to void (%"class.printing::mojom::PrintRenderFrameProxy"*)***
  %16 = load void (%"class.printing::mojom::PrintRenderFrameProxy"*)**, void (%"class.printing::mojom::PrintRenderFrameProxy"*)*** %15, align 8
  %17 = getelementptr inbounds void (%"class.printing::mojom::PrintRenderFrameProxy"*)*, void (%"class.printing::mojom::PrintRenderFrameProxy"*)** %16, i64 1
  %18 = load void (%"class.printing::mojom::PrintRenderFrameProxy"*)*, void (%"class.printing::mojom::PrintRenderFrameProxy"*)** %17, align 8
  tail call void %18(%"class.printing::mojom::PrintRenderFrameProxy"* nonnull %12) #15
  br label %19

19:                                               ; preds = %4, %14
  %20 = bitcast %"class.mojo::AssociatedRemote"* %10 to %"class.mojo::internal::AssociatedInterfacePtrStateBase"*
  tail call void @_ZN4mojo8internal31AssociatedInterfacePtrStateBaseD2Ev(%"class.mojo::internal::AssociatedInterfacePtrStateBase"* %20) #15
  %21 = bitcast %"class.std::__1::__tree_node.335"* %1 to i8*
  tail call void @_ZdlPv(i8* %21) #17
  br label %22

22:                                               ; preds = %2, %19
  ret void
}

; Function Attrs: nounwind ssp uwtable
define linkonce_odr hidden %"class.std::__1::__tree_end_node"* @_ZNSt3__16__treeINS_12__value_typeIPN7content15RenderFrameHostEN4mojo16AssociatedRemoteIN8printing5mojom16PrintRenderFrameEEEEENS_19__map_value_compareIS4_SB_NS_4lessIS4_EELb1EEENS_9allocatorISB_EEE5eraseENS_21__tree_const_iteratorISB_PNS_11__tree_nodeISB_PvEElEE(%"class.std::__1::__tree.36"*, %"class.std::__1::__tree_end_node"*) local_unnamed_addr #0 comdat align 2 {
  %3 = getelementptr inbounds %"class.std::__1::__tree_end_node", %"class.std::__1::__tree_end_node"* %1, i64 1, i32 0
  %4 = load %"class.std::__1::__tree_node_base"*, %"class.std::__1::__tree_node_base"** %3, align 8
  %5 = icmp eq %"class.std::__1::__tree_node_base"* %4, null
  br i1 %5, label %6, label %14

6:                                                ; preds = %2
  %7 = bitcast %"class.std::__1::__tree_end_node"* %1 to %"class.std::__1::__tree_node_base"*
  %8 = getelementptr inbounds %"class.std::__1::__tree_end_node", %"class.std::__1::__tree_end_node"* %1, i64 2
  %9 = bitcast %"class.std::__1::__tree_end_node"* %8 to %"class.std::__1::__tree_end_node"**
  %10 = load %"class.std::__1::__tree_end_node"*, %"class.std::__1::__tree_end_node"** %9, align 8
  %11 = getelementptr inbounds %"class.std::__1::__tree_end_node", %"class.std::__1::__tree_end_node"* %10, i64 0, i32 0
  %12 = load %"class.std::__1::__tree_node_base"*, %"class.std::__1::__tree_node_base"** %11, align 8
  %13 = icmp eq %"class.std::__1::__tree_node_base"* %12, %7
  br i1 %13, label %30, label %21

14:                                               ; preds = %2, %14
  %15 = phi %"class.std::__1::__tree_node_base"* [ %17, %14 ], [ %4, %2 ]
  %16 = getelementptr inbounds %"class.std::__1::__tree_node_base", %"class.std::__1::__tree_node_base"* %15, i64 0, i32 0, i32 0
  %17 = load %"class.std::__1::__tree_node_base"*, %"class.std::__1::__tree_node_base"** %16, align 8
  %18 = icmp eq %"class.std::__1::__tree_node_base"* %17, null
  br i1 %18, label %19, label %14

19:                                               ; preds = %14
  %20 = getelementptr inbounds %"class.std::__1::__tree_node_base", %"class.std::__1::__tree_node_base"* %15, i64 0, i32 0
  br label %30

21:                                               ; preds = %6, %21
  %22 = phi %"class.std::__1::__tree_end_node"** [ %25, %21 ], [ %9, %6 ]
  %23 = bitcast %"class.std::__1::__tree_end_node"** %22 to %"class.std::__1::__tree_node_base"**
  %24 = load %"class.std::__1::__tree_node_base"*, %"class.std::__1::__tree_node_base"** %23, align 8
  %25 = getelementptr inbounds %"class.std::__1::__tree_node_base", %"class.std::__1::__tree_node_base"* %24, i64 0, i32 2
  %26 = load %"class.std::__1::__tree_end_node"*, %"class.std::__1::__tree_end_node"** %25, align 8
  %27 = getelementptr inbounds %"class.std::__1::__tree_end_node", %"class.std::__1::__tree_end_node"* %26, i64 0, i32 0
  %28 = load %"class.std::__1::__tree_node_base"*, %"class.std::__1::__tree_node_base"** %27, align 8
  %29 = icmp eq %"class.std::__1::__tree_node_base"* %28, %24
  br i1 %29, label %30, label %21

30:                                               ; preds = %21, %19, %6
  %31 = phi %"class.std::__1::__tree_end_node"* [ %20, %19 ], [ %10, %6 ], [ %26, %21 ]
  %32 = getelementptr inbounds %"class.std::__1::__tree.36", %"class.std::__1::__tree.36"* %0, i64 0, i32 0
  %33 = load %"class.std::__1::__tree_end_node"*, %"class.std::__1::__tree_end_node"** %32, align 8
  %34 = icmp eq %"class.std::__1::__tree_end_node"* %33, %1
  br i1 %34, label %35, label %38

35:                                               ; preds = %30
  %36 = ptrtoint %"class.std::__1::__tree_end_node"* %31 to i64
  %37 = bitcast %"class.std::__1::__tree.36"* %0 to i64*
  store i64 %36, i64* %37, align 8
  br label %38

38:                                               ; preds = %30, %35
  %39 = getelementptr inbounds %"class.std::__1::__tree.36", %"class.std::__1::__tree.36"* %0, i64 0, i32 2, i32 0, i32 0
  %40 = load i64, i64* %39, align 8
  %41 = add i64 %40, -1
  store i64 %41, i64* %39, align 8
  %42 = getelementptr inbounds %"class.std::__1::__tree.36", %"class.std::__1::__tree.36"* %0, i64 0, i32 1, i32 0, i32 0, i32 0
  %43 = load %"class.std::__1::__tree_node_base"*, %"class.std::__1::__tree_node_base"** %42, align 8
  %44 = bitcast %"class.std::__1::__tree_end_node"* %1 to %"class.std::__1::__tree_node_base"*
  tail call void @_ZNSt3__113__tree_removeIPNS_16__tree_node_baseIPvEEEEvT_S5_(%"class.std::__1::__tree_node_base"* %43, %"class.std::__1::__tree_node_base"* %44) #15
  %45 = getelementptr inbounds %"class.std::__1::__tree_end_node", %"class.std::__1::__tree_end_node"* %1, i64 5
  %46 = getelementptr inbounds %"class.std::__1::__tree_end_node", %"class.std::__1::__tree_end_node"* %1, i64 7
  %47 = bitcast %"class.std::__1::__tree_end_node"* %46 to %"class.printing::mojom::PrintRenderFrameProxy"**
  %48 = load %"class.printing::mojom::PrintRenderFrameProxy"*, %"class.printing::mojom::PrintRenderFrameProxy"** %47, align 8
  store %"class.printing::mojom::PrintRenderFrameProxy"* null, %"class.printing::mojom::PrintRenderFrameProxy"** %47, align 8
  %49 = icmp eq %"class.printing::mojom::PrintRenderFrameProxy"* %48, null
  br i1 %49, label %55, label %50

50:                                               ; preds = %38
  %51 = bitcast %"class.printing::mojom::PrintRenderFrameProxy"* %48 to void (%"class.printing::mojom::PrintRenderFrameProxy"*)***
  %52 = load void (%"class.printing::mojom::PrintRenderFrameProxy"*)**, void (%"class.printing::mojom::PrintRenderFrameProxy"*)*** %51, align 8
  %53 = getelementptr inbounds void (%"class.printing::mojom::PrintRenderFrameProxy"*)*, void (%"class.printing::mojom::PrintRenderFrameProxy"*)** %52, i64 1
  %54 = load void (%"class.printing::mojom::PrintRenderFrameProxy"*)*, void (%"class.printing::mojom::PrintRenderFrameProxy"*)** %53, align 8
  tail call void %54(%"class.printing::mojom::PrintRenderFrameProxy"* nonnull %48) #15
  br label %55

55:                                               ; preds = %38, %50
  %56 = bitcast %"class.std::__1::__tree_end_node"* %45 to %"class.mojo::internal::AssociatedInterfacePtrStateBase"*
  tail call void @_ZN4mojo8internal31AssociatedInterfacePtrStateBaseD2Ev(%"class.mojo::internal::AssociatedInterfacePtrStateBase"* %56) #15
  %57 = bitcast %"class.std::__1::__tree_end_node"* %1 to i8*
  tail call void @_ZdlPv(i8* %57) #17
  ret %"class.std::__1::__tree_end_node"* %31
}

; Function Attrs: nounwind ssp uwtable
define linkonce_odr hidden void @_ZN5blink27AssociatedInterfaceProvider12GetInterfaceIN8printing5mojom16PrintRenderFrameEEEvN4mojo25PendingAssociatedReceiverIT_EE(%"class.blink::AssociatedInterfaceProvider"*, %"class.mojo::PendingAssociatedReceiver.337"*) local_unnamed_addr #0 comdat align 2 {
  %3 = alloca %"class.std::__1::basic_string", align 8
  %4 = alloca %"class.mojo::ScopedInterfaceEndpointHandle", align 8
  %5 = bitcast %"class.std::__1::basic_string"* %3 to i8*
  call void @llvm.lifetime.start.p0i8(i64 24, i8* nonnull %5) #15
  %6 = tail call i64 @strlen(i8* getelementptr inbounds ([0 x i8], [0 x i8]* @_ZN8printing5mojom16PrintRenderFrame5Name_E, i64 0, i64 0)) #15
  %7 = icmp ugt i64 %6, -17
  br i1 %7, label %8, label %10

8:                                                ; preds = %2
  %9 = bitcast %"class.std::__1::basic_string"* %3 to %"class.std::__1::__basic_string_common"*
  call void @_ZNKSt3__121__basic_string_commonILb1EE20__throw_length_errorEv(%"class.std::__1::__basic_string_common"* nonnull %9) #16
  unreachable

10:                                               ; preds = %2
  %11 = icmp ult i64 %6, 23
  br i1 %11, label %21, label %12

12:                                               ; preds = %10
  %13 = add nuw i64 %6, 16
  %14 = and i64 %13, -16
  %15 = tail call i8* @_Znwm(i64 %14) #17
  %16 = getelementptr inbounds %"class.std::__1::basic_string", %"class.std::__1::basic_string"* %3, i64 0, i32 0, i32 0, i32 0, i32 0, i32 0, i32 0
  store i8* %15, i8** %16, align 8
  %17 = or i64 %14, -9223372036854775808
  %18 = getelementptr inbounds %"class.std::__1::basic_string", %"class.std::__1::basic_string"* %3, i64 0, i32 0, i32 0, i32 0, i32 0, i32 0, i32 2
  store i64 %17, i64* %18, align 8
  %19 = getelementptr inbounds %"class.std::__1::basic_string", %"class.std::__1::basic_string"* %3, i64 0, i32 0, i32 0, i32 0, i32 0, i32 0, i32 1
  store i64 %6, i64* %19, align 8
  %20 = bitcast %"class.std::__1::basic_string"* %3 to %"struct.std::__1::basic_string<char, std::__1::char_traits<char>, std::__1::allocator<char> >::__short"*
  br label %26

21:                                               ; preds = %10
  %22 = trunc i64 %6 to i8
  %23 = bitcast %"class.std::__1::basic_string"* %3 to %"struct.std::__1::basic_string<char, std::__1::char_traits<char>, std::__1::allocator<char> >::__short"*
  %24 = getelementptr inbounds %"struct.std::__1::basic_string<char, std::__1::char_traits<char>, std::__1::allocator<char> >::__short", %"struct.std::__1::basic_string<char, std::__1::char_traits<char>, std::__1::allocator<char> >::__short"* %23, i64 0, i32 1, i32 0
  store i8 %22, i8* %24, align 1
  %25 = icmp eq i64 %6, 0
  br i1 %25, label %29, label %26

26:                                               ; preds = %21, %12
  %27 = phi %"struct.std::__1::basic_string<char, std::__1::char_traits<char>, std::__1::allocator<char> >::__short"* [ %23, %21 ], [ %20, %12 ]
  %28 = phi i8* [ %5, %21 ], [ %15, %12 ]
  call void @llvm.memcpy.p0i8.p0i8.i64(i8* nonnull align 1 %28, i8* align 1 getelementptr inbounds ([0 x i8], [0 x i8]* @_ZN8printing5mojom16PrintRenderFrame5Name_E, i64 0, i64 0), i64 %6, i1 false) #15
  br label %29

29:                                               ; preds = %21, %26
  %30 = phi %"struct.std::__1::basic_string<char, std::__1::char_traits<char>, std::__1::allocator<char> >::__short"* [ %23, %21 ], [ %27, %26 ]
  %31 = phi i8* [ %5, %21 ], [ %28, %26 ]
  %32 = getelementptr inbounds i8, i8* %31, i64 %6
  store i8 0, i8* %32, align 1
  %33 = getelementptr inbounds %"class.mojo::PendingAssociatedReceiver.337", %"class.mojo::PendingAssociatedReceiver.337"* %1, i64 0, i32 0
  call void @_ZN4mojo29ScopedInterfaceEndpointHandleC1EOS0_(%"class.mojo::ScopedInterfaceEndpointHandle"* nonnull %4, %"class.mojo::ScopedInterfaceEndpointHandle"* dereferenceable(8) %33) #15
  call void @_ZN5blink27AssociatedInterfaceProvider12GetInterfaceERKNSt3__112basic_stringIcNS1_11char_traitsIcEENS1_9allocatorIcEEEEN4mojo29ScopedInterfaceEndpointHandleE(%"class.blink::AssociatedInterfaceProvider"* %0, %"class.std::__1::basic_string"* nonnull dereferenceable(24) %3, %"class.mojo::ScopedInterfaceEndpointHandle"* nonnull %4) #15
  call void @_ZN4mojo29ScopedInterfaceEndpointHandleD1Ev(%"class.mojo::ScopedInterfaceEndpointHandle"* nonnull %4) #15
  %34 = getelementptr inbounds %"struct.std::__1::basic_string<char, std::__1::char_traits<char>, std::__1::allocator<char> >::__short", %"struct.std::__1::basic_string<char, std::__1::char_traits<char>, std::__1::allocator<char> >::__short"* %30, i64 0, i32 1, i32 0
  %35 = load i8, i8* %34, align 1
  %36 = icmp slt i8 %35, 0
  br i1 %36, label %37, label %40

37:                                               ; preds = %29
  %38 = getelementptr inbounds %"class.std::__1::basic_string", %"class.std::__1::basic_string"* %3, i64 0, i32 0, i32 0, i32 0, i32 0, i32 0, i32 0
  %39 = load i8*, i8** %38, align 8
  call void @_ZdlPv(i8* %39) #17
  br label %40

40:                                               ; preds = %29, %37
  call void @llvm.lifetime.end.p0i8(i64 24, i8* nonnull %5) #15
  ret void
}

; Function Attrs: nounwind ssp uwtable
define linkonce_odr hidden void @_ZN4mojo16AssociatedRemoteIN8printing5mojom16PrintRenderFrameEE30BindNewEndpointAndPassReceiverE13scoped_refptrIN4base19SequencedTaskRunnerEE(%"class.mojo::PendingAssociatedReceiver.337"* noalias sret, %"class.mojo::AssociatedRemote"*, %"class.base::SequencedTaskRunner"*) local_unnamed_addr #0 comdat align 2 {
  %4 = alloca %"class.mojo::ScopedInterfaceEndpointHandle", align 8
  %5 = alloca %"class.mojo::ScopedInterfaceEndpointHandle", align 8
  %6 = alloca %"class.mojo::PendingAssociatedRemote", align 8
  %7 = alloca %"class.mojo::ScopedInterfaceEndpointHandle", align 8
  %8 = alloca %"class.mojo::ScopedInterfaceEndpointHandle", align 8
  %9 = bitcast %"class.mojo::ScopedInterfaceEndpointHandle"* %4 to i8*
  call void @llvm.lifetime.start.p0i8(i64 8, i8* nonnull %9) #15
  %10 = getelementptr inbounds %"class.mojo::ScopedInterfaceEndpointHandle", %"class.mojo::ScopedInterfaceEndpointHandle"* %4, i64 0, i32 0, i32 0
  store %"class.mojo::ScopedInterfaceEndpointHandle::State"* inttoptr (i64 -6148914691236517206 to %"class.mojo::ScopedInterfaceEndpointHandle::State"*), %"class.mojo::ScopedInterfaceEndpointHandle::State"** %10, align 8
  call void @_ZN4mojo29ScopedInterfaceEndpointHandleC1Ev(%"class.mojo::ScopedInterfaceEndpointHandle"* nonnull %4) #15
  %11 = bitcast %"class.mojo::ScopedInterfaceEndpointHandle"* %5 to i8*
  call void @llvm.lifetime.start.p0i8(i64 8, i8* nonnull %11) #15
  %12 = getelementptr inbounds %"class.mojo::ScopedInterfaceEndpointHandle", %"class.mojo::ScopedInterfaceEndpointHandle"* %5, i64 0, i32 0, i32 0
  store %"class.mojo::ScopedInterfaceEndpointHandle::State"* inttoptr (i64 -6148914691236517206 to %"class.mojo::ScopedInterfaceEndpointHandle::State"*), %"class.mojo::ScopedInterfaceEndpointHandle::State"** %12, align 8
  call void @_ZN4mojo29ScopedInterfaceEndpointHandleC1Ev(%"class.mojo::ScopedInterfaceEndpointHandle"* nonnull %5) #15
  call void @_ZN4mojo29ScopedInterfaceEndpointHandle28CreatePairPendingAssociationEPS0_S1_(%"class.mojo::ScopedInterfaceEndpointHandle"* nonnull %4, %"class.mojo::ScopedInterfaceEndpointHandle"* nonnull %5) #15
  call void @_ZN4mojo29ScopedInterfaceEndpointHandleC1EOS0_(%"class.mojo::ScopedInterfaceEndpointHandle"* nonnull %7, %"class.mojo::ScopedInterfaceEndpointHandle"* nonnull dereferenceable(8) %4) #15
  %13 = getelementptr inbounds %"class.mojo::PendingAssociatedRemote", %"class.mojo::PendingAssociatedRemote"* %6, i64 0, i32 0
  call void @_ZN4mojo29ScopedInterfaceEndpointHandleC1EOS0_(%"class.mojo::ScopedInterfaceEndpointHandle"* nonnull %13, %"class.mojo::ScopedInterfaceEndpointHandle"* nonnull dereferenceable(8) %7) #15
  %14 = getelementptr inbounds %"class.mojo::PendingAssociatedRemote", %"class.mojo::PendingAssociatedRemote"* %6, i64 0, i32 1
  store i32 0, i32* %14, align 8
  call void @_ZN4mojo16AssociatedRemoteIN8printing5mojom16PrintRenderFrameEE4BindENS_23PendingAssociatedRemoteIS3_EE13scoped_refptrIN4base19SequencedTaskRunnerEE(%"class.mojo::AssociatedRemote"* %1, %"class.mojo::PendingAssociatedRemote"* nonnull %6, %"class.base::SequencedTaskRunner"* %2)
  call void @_ZN4mojo29ScopedInterfaceEndpointHandleD1Ev(%"class.mojo::ScopedInterfaceEndpointHandle"* nonnull %13) #15
  call void @_ZN4mojo29ScopedInterfaceEndpointHandleD1Ev(%"class.mojo::ScopedInterfaceEndpointHandle"* nonnull %7) #15
  call void @_ZN4mojo29ScopedInterfaceEndpointHandleC1EOS0_(%"class.mojo::ScopedInterfaceEndpointHandle"* nonnull %8, %"class.mojo::ScopedInterfaceEndpointHandle"* nonnull dereferenceable(8) %5) #15
  %15 = getelementptr inbounds %"class.mojo::PendingAssociatedReceiver.337", %"class.mojo::PendingAssociatedReceiver.337"* %0, i64 0, i32 0
  call void @_ZN4mojo29ScopedInterfaceEndpointHandleC1EOS0_(%"class.mojo::ScopedInterfaceEndpointHandle"* %15, %"class.mojo::ScopedInterfaceEndpointHandle"* nonnull dereferenceable(8) %8) #15
  call void @_ZN4mojo29ScopedInterfaceEndpointHandleD1Ev(%"class.mojo::ScopedInterfaceEndpointHandle"* nonnull %8) #15
  call void @_ZN4mojo29ScopedInterfaceEndpointHandleD1Ev(%"class.mojo::ScopedInterfaceEndpointHandle"* nonnull %5) #15
  call void @llvm.lifetime.end.p0i8(i64 8, i8* nonnull %11) #15
  call void @_ZN4mojo29ScopedInterfaceEndpointHandleD1Ev(%"class.mojo::ScopedInterfaceEndpointHandle"* nonnull %4) #15
  call void @llvm.lifetime.end.p0i8(i64 8, i8* nonnull %9) #15
  ret void
}

declare void @_ZN5blink27AssociatedInterfaceProvider12GetInterfaceERKNSt3__112basic_stringIcNS1_11char_traitsIcEENS1_9allocatorIcEEEEN4mojo29ScopedInterfaceEndpointHandleE(%"class.blink::AssociatedInterfaceProvider"*, %"class.std::__1::basic_string"* dereferenceable(24), %"class.mojo::ScopedInterfaceEndpointHandle"*) local_unnamed_addr #1

declare void @_ZN4mojo29ScopedInterfaceEndpointHandleC1Ev(%"class.mojo::ScopedInterfaceEndpointHandle"*) unnamed_addr #1

declare void @_ZN4mojo29ScopedInterfaceEndpointHandle28CreatePairPendingAssociationEPS0_S1_(%"class.mojo::ScopedInterfaceEndpointHandle"*, %"class.mojo::ScopedInterfaceEndpointHandle"*) local_unnamed_addr #1

; Function Attrs: nounwind ssp uwtable
define linkonce_odr hidden void @_ZN4mojo16AssociatedRemoteIN8printing5mojom16PrintRenderFrameEE4BindENS_23PendingAssociatedRemoteIS3_EE13scoped_refptrIN4base19SequencedTaskRunnerEE(%"class.mojo::AssociatedRemote"*, %"class.mojo::PendingAssociatedRemote"*, %"class.base::SequencedTaskRunner"*) local_unnamed_addr #0 comdat align 2 {
  %4 = alloca %"class.mojo::internal::AssociatedInterfacePtrState", align 8
  %5 = alloca %"class.mojo::AssociatedInterfacePtrInfo", align 8
  %6 = alloca %"class.mojo::ScopedInterfaceEndpointHandle", align 8
  %7 = getelementptr inbounds %"class.mojo::PendingAssociatedRemote", %"class.mojo::PendingAssociatedRemote"* %1, i64 0, i32 0
  %8 = tail call zeroext i1 @_ZNK4mojo29ScopedInterfaceEndpointHandle8is_validEv(%"class.mojo::ScopedInterfaceEndpointHandle"* %7) #15
  br i1 %8, label %27, label %9

9:                                                ; preds = %3
  %10 = bitcast %"class.mojo::internal::AssociatedInterfacePtrState"* %4 to i8*
  call void @llvm.lifetime.start.p0i8(i64 24, i8* nonnull %10) #15
  call void @llvm.memset.p0i8.i64(i8* nonnull align 8 %10, i8 -86, i64 24, i1 false) #15
  %11 = bitcast %"class.mojo::internal::AssociatedInterfacePtrState"* %4 to %"class.mojo::internal::AssociatedInterfacePtrStateBase"*
  call void @_ZN4mojo8internal31AssociatedInterfacePtrStateBaseC2Ev(%"class.mojo::internal::AssociatedInterfacePtrStateBase"* nonnull %11) #15
  %12 = getelementptr inbounds %"class.mojo::internal::AssociatedInterfacePtrState", %"class.mojo::internal::AssociatedInterfacePtrState"* %4, i64 0, i32 1
  %13 = bitcast %"class.std::__1::unique_ptr.124"* %12 to i64*
  store i64 0, i64* %13, align 8
  %14 = bitcast %"class.mojo::AssociatedRemote"* %0 to %"class.mojo::internal::AssociatedInterfacePtrStateBase"*
  call void @_ZN4mojo8internal31AssociatedInterfacePtrStateBase4SwapEPS1_(%"class.mojo::internal::AssociatedInterfacePtrStateBase"* %14, %"class.mojo::internal::AssociatedInterfacePtrStateBase"* nonnull %11) #15
  %15 = getelementptr inbounds %"class.mojo::AssociatedRemote", %"class.mojo::AssociatedRemote"* %0, i64 0, i32 0, i32 1
  %16 = load i64, i64* %13, align 8
  %17 = bitcast %"class.std::__1::unique_ptr.124"* %15 to i64*
  %18 = load i64, i64* %17, align 8
  store i64 %16, i64* %17, align 8
  %19 = getelementptr inbounds %"class.mojo::internal::AssociatedInterfacePtrState", %"class.mojo::internal::AssociatedInterfacePtrState"* %4, i64 0, i32 1, i32 0, i32 0, i32 0
  store %"class.printing::mojom::PrintRenderFrameProxy"* null, %"class.printing::mojom::PrintRenderFrameProxy"** %19, align 8
  %20 = icmp eq i64 %18, 0
  br i1 %20, label %33, label %21

21:                                               ; preds = %9
  %22 = inttoptr i64 %18 to %"class.printing::mojom::PrintRenderFrameProxy"*
  %23 = inttoptr i64 %18 to void (%"class.printing::mojom::PrintRenderFrameProxy"*)***
  %24 = load void (%"class.printing::mojom::PrintRenderFrameProxy"*)**, void (%"class.printing::mojom::PrintRenderFrameProxy"*)*** %23, align 8
  %25 = getelementptr inbounds void (%"class.printing::mojom::PrintRenderFrameProxy"*)*, void (%"class.printing::mojom::PrintRenderFrameProxy"*)** %24, i64 1
  %26 = load void (%"class.printing::mojom::PrintRenderFrameProxy"*)*, void (%"class.printing::mojom::PrintRenderFrameProxy"*)** %25, align 8
  call void %26(%"class.printing::mojom::PrintRenderFrameProxy"* nonnull %22) #15
  br label %33

27:                                               ; preds = %3
  %28 = getelementptr inbounds %"class.mojo::AssociatedRemote", %"class.mojo::AssociatedRemote"* %0, i64 0, i32 0
  call void @_ZN4mojo29ScopedInterfaceEndpointHandleC1EOS0_(%"class.mojo::ScopedInterfaceEndpointHandle"* nonnull %6, %"class.mojo::ScopedInterfaceEndpointHandle"* dereferenceable(8) %7) #15
  %29 = getelementptr inbounds %"class.mojo::PendingAssociatedRemote", %"class.mojo::PendingAssociatedRemote"* %1, i64 0, i32 1
  %30 = load i32, i32* %29, align 8
  %31 = getelementptr inbounds %"class.mojo::AssociatedInterfacePtrInfo", %"class.mojo::AssociatedInterfacePtrInfo"* %5, i64 0, i32 0
  call void @_ZN4mojo29ScopedInterfaceEndpointHandleC1EOS0_(%"class.mojo::ScopedInterfaceEndpointHandle"* nonnull %31, %"class.mojo::ScopedInterfaceEndpointHandle"* nonnull dereferenceable(8) %6) #15
  %32 = getelementptr inbounds %"class.mojo::AssociatedInterfacePtrInfo", %"class.mojo::AssociatedInterfacePtrInfo"* %5, i64 0, i32 1
  store i32 %30, i32* %32, align 8
  call void @_ZN4mojo8internal27AssociatedInterfacePtrStateIN8printing5mojom16PrintRenderFrameEE4BindENS_26AssociatedInterfacePtrInfoIS4_EE13scoped_refptrIN4base19SequencedTaskRunnerEE(%"class.mojo::internal::AssociatedInterfacePtrState"* %28, %"class.mojo::AssociatedInterfacePtrInfo"* nonnull %5, %"class.base::SequencedTaskRunner"* %2)
  call void @_ZN4mojo29ScopedInterfaceEndpointHandleD1Ev(%"class.mojo::ScopedInterfaceEndpointHandle"* nonnull %31) #15
  call void @_ZN4mojo29ScopedInterfaceEndpointHandleD1Ev(%"class.mojo::ScopedInterfaceEndpointHandle"* nonnull %6) #15
  br label %43

33:                                               ; preds = %21, %9
  call void @_ZN4mojo8internal31AssociatedInterfacePtrStateBaseD2Ev(%"class.mojo::internal::AssociatedInterfacePtrStateBase"* nonnull %11) #15
  call void @llvm.lifetime.end.p0i8(i64 24, i8* nonnull %10) #15
  %34 = icmp eq %"class.base::SequencedTaskRunner"* %2, null
  br i1 %34, label %43, label %35

35:                                               ; preds = %33
  %36 = getelementptr inbounds %"class.base::SequencedTaskRunner", %"class.base::SequencedTaskRunner"* %2, i64 0, i32 0, i32 1
  %37 = getelementptr inbounds %"class.base::RefCountedThreadSafe.71", %"class.base::RefCountedThreadSafe.71"* %36, i64 0, i32 0, i32 0, i32 0, i32 0, i32 0, i32 0, i32 0, i32 0
  %38 = atomicrmw sub i32* %37, i32 1 acq_rel
  %39 = icmp eq i32 %38, 1
  br i1 %39, label %40, label %43

40:                                               ; preds = %35
  %41 = getelementptr inbounds %"class.base::RefCountedThreadSafe.71", %"class.base::RefCountedThreadSafe.71"* %36, i64 -2
  %42 = bitcast %"class.base::RefCountedThreadSafe.71"* %41 to %"class.base::TaskRunner"*
  call void @_ZN4base16TaskRunnerTraits8DestructEPKNS_10TaskRunnerE(%"class.base::TaskRunner"* %42) #15
  br label %43

43:                                               ; preds = %27, %33, %35, %40
  ret void
}

; Function Attrs: nounwind ssp uwtable
define linkonce_odr hidden void @_ZN4mojo8internal27AssociatedInterfacePtrStateIN8printing5mojom16PrintRenderFrameEE4BindENS_26AssociatedInterfacePtrInfoIS4_EE13scoped_refptrIN4base19SequencedTaskRunnerEE(%"class.mojo::internal::AssociatedInterfacePtrState"*, %"class.mojo::AssociatedInterfacePtrInfo"*, %"class.base::SequencedTaskRunner"*) local_unnamed_addr #0 comdat align 2 {
  %4 = alloca %"class.mojo::ScopedInterfaceEndpointHandle", align 8
  %5 = bitcast %"class.mojo::internal::AssociatedInterfacePtrState"* %0 to %"class.mojo::internal::AssociatedInterfacePtrStateBase"*
  %6 = getelementptr inbounds %"class.mojo::AssociatedInterfacePtrInfo", %"class.mojo::AssociatedInterfacePtrInfo"* %1, i64 0, i32 0
  call void @_ZN4mojo29ScopedInterfaceEndpointHandleC1EOS0_(%"class.mojo::ScopedInterfaceEndpointHandle"* nonnull %4, %"class.mojo::ScopedInterfaceEndpointHandle"* dereferenceable(8) %6) #15
  %7 = getelementptr inbounds %"class.mojo::AssociatedInterfacePtrInfo", %"class.mojo::AssociatedInterfacePtrInfo"* %1, i64 0, i32 1
  %8 = load i32, i32* %7, align 8
  %9 = call i8* @_Znwm(i64 8) #17
  %10 = bitcast i8* %9 to i32 (...)***
  store i32 (...)** bitcast (i8** getelementptr inbounds ({ [6 x i8*] }, { [6 x i8*] }* @_ZTVN8printing5mojom33PrintRenderFrameResponseValidatorE, i64 0, inrange i32 0, i64 2) to i32 (...)**), i32 (...)*** %10, align 8
  %11 = bitcast i8* %9 to %"class.mojo::MessageReceiver"*
  call void @_ZN4mojo8internal31AssociatedInterfacePtrStateBase4BindENS_29ScopedInterfaceEndpointHandleEjNSt3__110unique_ptrINS_15MessageReceiverENS3_14default_deleteIS5_EEEE13scoped_refptrIN4base19SequencedTaskRunnerEEPKc(%"class.mojo::internal::AssociatedInterfacePtrStateBase"* %5, %"class.mojo::ScopedInterfaceEndpointHandle"* nonnull %4, i32 %8, %"class.mojo::MessageReceiver"* nonnull %11, %"class.base::SequencedTaskRunner"* %2, i8* getelementptr inbounds ([0 x i8], [0 x i8]* @_ZN8printing5mojom16PrintRenderFrame5Name_E, i64 0, i64 0)) #15
  call void @_ZN4mojo29ScopedInterfaceEndpointHandleD1Ev(%"class.mojo::ScopedInterfaceEndpointHandle"* nonnull %4) #15
  %12 = call i8* @_Znwm(i64 16) #17
  %13 = bitcast i8* %12 to %"class.printing::mojom::PrintRenderFrameProxy"*
  %14 = getelementptr inbounds %"class.mojo::internal::AssociatedInterfacePtrState", %"class.mojo::internal::AssociatedInterfacePtrState"* %0, i64 0, i32 0, i32 0, i32 0, i32 0, i32 0
  %15 = load %"class.mojo::InterfaceEndpointClient"*, %"class.mojo::InterfaceEndpointClient"** %14, align 8
  %16 = getelementptr inbounds %"class.mojo::InterfaceEndpointClient", %"class.mojo::InterfaceEndpointClient"* %15, i64 0, i32 0
  call void @_ZN8printing5mojom21PrintRenderFrameProxyC1EPN4mojo28MessageReceiverWithResponderE(%"class.printing::mojom::PrintRenderFrameProxy"* nonnull %13, %"class.mojo::MessageReceiverWithResponder"* %16) #15
  %17 = getelementptr inbounds %"class.mojo::internal::AssociatedInterfacePtrState", %"class.mojo::internal::AssociatedInterfacePtrState"* %0, i64 0, i32 1, i32 0, i32 0, i32 0
  %18 = load %"class.printing::mojom::PrintRenderFrameProxy"*, %"class.printing::mojom::PrintRenderFrameProxy"** %17, align 8
  %19 = bitcast %"class.printing::mojom::PrintRenderFrameProxy"** %17 to i8**
  store i8* %12, i8** %19, align 8
  %20 = icmp eq %"class.printing::mojom::PrintRenderFrameProxy"* %18, null
  br i1 %20, label %26, label %21

21:                                               ; preds = %3
  %22 = bitcast %"class.printing::mojom::PrintRenderFrameProxy"* %18 to void (%"class.printing::mojom::PrintRenderFrameProxy"*)***
  %23 = load void (%"class.printing::mojom::PrintRenderFrameProxy"*)**, void (%"class.printing::mojom::PrintRenderFrameProxy"*)*** %22, align 8
  %24 = getelementptr inbounds void (%"class.printing::mojom::PrintRenderFrameProxy"*)*, void (%"class.printing::mojom::PrintRenderFrameProxy"*)** %23, i64 1
  %25 = load void (%"class.printing::mojom::PrintRenderFrameProxy"*)*, void (%"class.printing::mojom::PrintRenderFrameProxy"*)** %24, align 8
  call void %25(%"class.printing::mojom::PrintRenderFrameProxy"* nonnull %18) #15
  br label %26

26:                                               ; preds = %21, %3
  ret void
}

declare void @_ZN4mojo8internal31AssociatedInterfacePtrStateBase4BindENS_29ScopedInterfaceEndpointHandleEjNSt3__110unique_ptrINS_15MessageReceiverENS3_14default_deleteIS5_EEEE13scoped_refptrIN4base19SequencedTaskRunnerEEPKc(%"class.mojo::internal::AssociatedInterfacePtrStateBase"*, %"class.mojo::ScopedInterfaceEndpointHandle"*, i32, %"class.mojo::MessageReceiver"*, %"class.base::SequencedTaskRunner"*, i8*) local_unnamed_addr #1

declare void @_ZN8printing5mojom21PrintRenderFrameProxyC1EPN4mojo28MessageReceiverWithResponderE(%"class.printing::mojom::PrintRenderFrameProxy"*, %"class.mojo::MessageReceiverWithResponder"*) unnamed_addr #1

; Function Attrs: nounwind ssp uwtable
define linkonce_odr hidden { %"class.std::__1::__tree_end_node"*, i8 } @_ZNSt3__16__treeINS_12__value_typeIPN7content15RenderFrameHostEN4mojo16AssociatedRemoteIN8printing5mojom16PrintRenderFrameEEEEENS_19__map_value_compareIS4_SB_NS_4lessIS4_EELb1EEENS_9allocatorISB_EEE25__emplace_unique_key_argsIS4_JNS_4pairIKS4_SA_EEEEENSK_INS_15__tree_iteratorISB_PNS_11__tree_nodeISB_PvEElEEbEERKT_DpOT0_(%"class.std::__1::__tree.36"*, %"class.content::RenderFrameHost"** dereferenceable(8), %"struct.std::__1::pair.60"* dereferenceable(32)) local_unnamed_addr #0 comdat align 2 {
  %4 = getelementptr inbounds %"class.std::__1::__tree.36", %"class.std::__1::__tree.36"* %0, i64 0, i32 1, i32 0, i32 0
  %5 = bitcast %"class.std::__1::__tree_end_node"* %4 to %"class.std::__1::__tree_node.335"**
  %6 = load %"class.std::__1::__tree_node.335"*, %"class.std::__1::__tree_node.335"** %5, align 8
  %7 = icmp eq %"class.std::__1::__tree_node.335"* %6, null
  br i1 %7, label %37, label %8

8:                                                ; preds = %3
  %9 = getelementptr inbounds %"class.std::__1::__tree.36", %"class.std::__1::__tree.36"* %0, i64 0, i32 1, i32 0, i32 0, i32 0
  %10 = load %"class.content::RenderFrameHost"*, %"class.content::RenderFrameHost"** %1, align 8
  br label %11

11:                                               ; preds = %33, %8
  %12 = phi %"class.std::__1::__tree_node.335"* [ %36, %33 ], [ %6, %8 ]
  %13 = phi %"class.std::__1::__tree_node_base"** [ %35, %33 ], [ %9, %8 ]
  %14 = getelementptr inbounds %"class.std::__1::__tree_node.335", %"class.std::__1::__tree_node.335"* %12, i64 0, i32 1, i32 0, i32 0
  %15 = load %"class.content::RenderFrameHost"*, %"class.content::RenderFrameHost"** %14, align 8
  %16 = icmp ult %"class.content::RenderFrameHost"* %10, %15
  br i1 %16, label %17, label %23

17:                                               ; preds = %11
  %18 = getelementptr inbounds %"class.std::__1::__tree_node.335", %"class.std::__1::__tree_node.335"* %12, i64 0, i32 0, i32 0, i32 0
  %19 = load %"class.std::__1::__tree_node_base"*, %"class.std::__1::__tree_node_base"** %18, align 8
  %20 = icmp eq %"class.std::__1::__tree_node_base"* %19, null
  br i1 %20, label %21, label %33

21:                                               ; preds = %17
  %22 = getelementptr inbounds %"class.std::__1::__tree_node.335", %"class.std::__1::__tree_node.335"* %12, i64 0, i32 0, i32 0
  br label %39

23:                                               ; preds = %11
  %24 = icmp ult %"class.content::RenderFrameHost"* %15, %10
  br i1 %24, label %25, label %31

25:                                               ; preds = %23
  %26 = getelementptr inbounds %"class.std::__1::__tree_node.335", %"class.std::__1::__tree_node.335"* %12, i64 0, i32 0, i32 1
  %27 = load %"class.std::__1::__tree_node_base"*, %"class.std::__1::__tree_node_base"** %26, align 8
  %28 = icmp eq %"class.std::__1::__tree_node_base"* %27, null
  br i1 %28, label %29, label %33

29:                                               ; preds = %25
  %30 = getelementptr inbounds %"class.std::__1::__tree_node.335", %"class.std::__1::__tree_node.335"* %12, i64 0, i32 0, i32 0
  br label %39

31:                                               ; preds = %23
  %32 = getelementptr inbounds %"class.std::__1::__tree_node.335", %"class.std::__1::__tree_node.335"* %12, i64 0, i32 0, i32 0
  br label %39

33:                                               ; preds = %25, %17
  %34 = phi %"class.std::__1::__tree_node_base"* [ %19, %17 ], [ %27, %25 ]
  %35 = phi %"class.std::__1::__tree_node_base"** [ %18, %17 ], [ %26, %25 ]
  %36 = bitcast %"class.std::__1::__tree_node_base"* %34 to %"class.std::__1::__tree_node.335"*
  br label %11

37:                                               ; preds = %3
  %38 = getelementptr inbounds %"class.std::__1::__tree_end_node", %"class.std::__1::__tree_end_node"* %4, i64 0, i32 0
  br label %39

39:                                               ; preds = %21, %29, %31, %37
  %40 = phi %"class.std::__1::__tree_end_node"* [ %4, %37 ], [ %22, %21 ], [ %30, %29 ], [ %32, %31 ]
  %41 = phi %"class.std::__1::__tree_node_base"** [ %38, %37 ], [ %18, %21 ], [ %26, %29 ], [ %13, %31 ]
  %42 = bitcast %"class.std::__1::__tree_node_base"** %41 to %"class.std::__1::__tree_node.335"**
  %43 = load %"class.std::__1::__tree_node.335"*, %"class.std::__1::__tree_node.335"** %42, align 8
  %44 = icmp eq %"class.std::__1::__tree_node.335"* %43, null
  br i1 %44, label %45, label %82

45:                                               ; preds = %39
  %46 = tail call i8* @_Znwm(i64 64) #17, !noalias !6
  %47 = getelementptr inbounds i8, i8* %46, i64 32
  %48 = bitcast %"struct.std::__1::pair.60"* %2 to i64*
  %49 = load i64, i64* %48, align 8, !noalias !6
  %50 = bitcast i8* %47 to i64*
  store i64 %49, i64* %50, align 8, !noalias !6
  %51 = getelementptr inbounds i8, i8* %46, i64 40
  %52 = getelementptr inbounds %"struct.std::__1::pair.60", %"struct.std::__1::pair.60"* %2, i64 0, i32 1
  %53 = bitcast i8* %51 to %"class.mojo::internal::AssociatedInterfacePtrStateBase"*
  tail call void @_ZN4mojo8internal31AssociatedInterfacePtrStateBaseC2Ev(%"class.mojo::internal::AssociatedInterfacePtrStateBase"* %53) #15, !noalias !6
  %54 = getelementptr inbounds i8, i8* %46, i64 56
  %55 = bitcast i8* %54 to i64*
  store i64 0, i64* %55, align 8, !noalias !6
  %56 = bitcast %"class.mojo::AssociatedRemote"* %52 to %"class.mojo::internal::AssociatedInterfacePtrStateBase"*
  tail call void @_ZN4mojo8internal31AssociatedInterfacePtrStateBase4SwapEPS1_(%"class.mojo::internal::AssociatedInterfacePtrStateBase"* %53, %"class.mojo::internal::AssociatedInterfacePtrStateBase"* %56) #15, !noalias !6
  %57 = getelementptr inbounds %"struct.std::__1::pair.60", %"struct.std::__1::pair.60"* %2, i64 0, i32 1, i32 0, i32 1
  %58 = bitcast %"class.std::__1::unique_ptr.124"* %57 to i64*
  %59 = load i64, i64* %58, align 8, !noalias !6
  %60 = load i64, i64* %55, align 8, !noalias !6
  store i64 %60, i64* %58, align 8, !noalias !6
  store i64 %59, i64* %55, align 8, !noalias !6
  %61 = bitcast i8* %46 to %"class.std::__1::__tree_node.335"*
  %62 = bitcast i8* %46 to %"class.std::__1::__tree_node_base"*
  %63 = getelementptr inbounds i8, i8* %46, i64 16
  %64 = bitcast i8* %63 to %"class.std::__1::__tree_end_node"**
  tail call void @llvm.memset.p0i8.i64(i8* nonnull align 8 %46, i8 0, i64 16, i1 false) #15
  store %"class.std::__1::__tree_end_node"* %40, %"class.std::__1::__tree_end_node"** %64, align 8
  %65 = bitcast %"class.std::__1::__tree_node_base"** %41 to i8**
  store i8* %46, i8** %65, align 8
  %66 = getelementptr inbounds %"class.std::__1::__tree.36", %"class.std::__1::__tree.36"* %0, i64 0, i32 0
  %67 = load %"class.std::__1::__tree_end_node"*, %"class.std::__1::__tree_end_node"** %66, align 8
  %68 = getelementptr inbounds %"class.std::__1::__tree_end_node", %"class.std::__1::__tree_end_node"* %67, i64 0, i32 0
  %69 = load %"class.std::__1::__tree_node_base"*, %"class.std::__1::__tree_node_base"** %68, align 8
  %70 = icmp eq %"class.std::__1::__tree_node_base"* %69, null
  br i1 %70, label %75, label %71

71:                                               ; preds = %45
  %72 = ptrtoint %"class.std::__1::__tree_node_base"* %69 to i64
  %73 = bitcast %"class.std::__1::__tree.36"* %0 to i64*
  store i64 %72, i64* %73, align 8
  %74 = load %"class.std::__1::__tree_node_base"*, %"class.std::__1::__tree_node_base"** %41, align 8
  br label %75

75:                                               ; preds = %71, %45
  %76 = phi %"class.std::__1::__tree_node_base"* [ %62, %45 ], [ %74, %71 ]
  %77 = getelementptr inbounds %"class.std::__1::__tree.36", %"class.std::__1::__tree.36"* %0, i64 0, i32 1, i32 0, i32 0, i32 0
  %78 = load %"class.std::__1::__tree_node_base"*, %"class.std::__1::__tree_node_base"** %77, align 8
  tail call void @_ZNSt3__127__tree_balance_after_insertIPNS_16__tree_node_baseIPvEEEEvT_S5_(%"class.std::__1::__tree_node_base"* %78, %"class.std::__1::__tree_node_base"* %76) #15
  %79 = getelementptr inbounds %"class.std::__1::__tree.36", %"class.std::__1::__tree.36"* %0, i64 0, i32 2, i32 0, i32 0
  %80 = load i64, i64* %79, align 8
  %81 = add i64 %80, 1
  store i64 %81, i64* %79, align 8
  br label %82

82:                                               ; preds = %75, %39
  %83 = phi i8 [ 1, %75 ], [ 0, %39 ]
  %84 = phi %"class.std::__1::__tree_node.335"* [ %61, %75 ], [ %43, %39 ]
  %85 = getelementptr inbounds %"class.std::__1::__tree_node.335", %"class.std::__1::__tree_node.335"* %84, i64 0, i32 0, i32 0
  %86 = insertvalue { %"class.std::__1::__tree_end_node"*, i8 } undef, %"class.std::__1::__tree_end_node"* %85, 0
  %87 = insertvalue { %"class.std::__1::__tree_end_node"*, i8 } %86, i8 %83, 1
  ret { %"class.std::__1::__tree_end_node"*, i8 } %87
}

attributes #0 = { nounwind ssp uwtable "correctly-rounded-divide-sqrt-fp-math"="false" "disable-tail-calls"="false" "less-precise-fpmad"="false" "min-legal-vector-width"="0" "no-frame-pointer-elim"="false" "no-frame-pointer-elim-non-leaf" "no-infs-fp-math"="false" "no-jump-tables"="false" "no-nans-fp-math"="false" "no-signed-zeros-fp-math"="false" "no-trapping-math"="false" "null-pointer-is-valid"="true" "stack-protector-buffer-size"="4" "target-cpu"="x86-64" "target-features"="+cx8,+fxsr,+mmx,+sse,+sse2,+sse3,+x87" "unsafe-fp-math"="false" "use-soft-float"="false" }
attributes #1 = { "correctly-rounded-divide-sqrt-fp-math"="false" "disable-tail-calls"="false" "less-precise-fpmad"="false" "no-frame-pointer-elim"="false" "no-frame-pointer-elim-non-leaf" "no-infs-fp-math"="false" "no-nans-fp-math"="false" "no-signed-zeros-fp-math"="false" "no-trapping-math"="false" "null-pointer-is-valid"="true" "stack-protector-buffer-size"="4" "target-cpu"="x86-64" "target-features"="+cx8,+fxsr,+mmx,+sse,+sse2,+sse3,+x87" "unsafe-fp-math"="false" "use-soft-float"="false" }
attributes #2 = { nounwind "correctly-rounded-divide-sqrt-fp-math"="false" "disable-tail-calls"="false" "less-precise-fpmad"="false" "no-frame-pointer-elim"="false" "no-frame-pointer-elim-non-leaf" "no-infs-fp-math"="false" "no-nans-fp-math"="false" "no-signed-zeros-fp-math"="false" "no-trapping-math"="false" "null-pointer-is-valid"="true" "stack-protector-buffer-size"="4" "target-cpu"="x86-64" "target-features"="+cx8,+fxsr,+mmx,+sse,+sse2,+sse3,+x87" "unsafe-fp-math"="false" "use-soft-float"="false" }
attributes #3 = { noreturn nounwind ssp uwtable "correctly-rounded-divide-sqrt-fp-math"="false" "disable-tail-calls"="false" "less-precise-fpmad"="false" "min-legal-vector-width"="0" "no-frame-pointer-elim"="false" "no-frame-pointer-elim-non-leaf" "no-infs-fp-math"="false" "no-jump-tables"="false" "no-nans-fp-math"="false" "no-signed-zeros-fp-math"="false" "no-trapping-math"="false" "null-pointer-is-valid"="true" "stack-protector-buffer-size"="4" "target-cpu"="x86-64" "target-features"="+cx8,+fxsr,+mmx,+sse,+sse2,+sse3,+x87" "unsafe-fp-math"="false" "use-soft-float"="false" }
attributes #4 = { cold noreturn nounwind }
attributes #5 = { nofree norecurse nounwind ssp uwtable writeonly "correctly-rounded-divide-sqrt-fp-math"="false" "disable-tail-calls"="false" "less-precise-fpmad"="false" "min-legal-vector-width"="0" "no-frame-pointer-elim"="false" "no-frame-pointer-elim-non-leaf" "no-infs-fp-math"="false" "no-jump-tables"="false" "no-nans-fp-math"="false" "no-signed-zeros-fp-math"="false" "no-trapping-math"="false" "null-pointer-is-valid"="true" "stack-protector-buffer-size"="4" "target-cpu"="x86-64" "target-features"="+cx8,+fxsr,+mmx,+sse,+sse2,+sse3,+x87" "unsafe-fp-math"="false" "use-soft-float"="false" }
attributes #6 = { norecurse nounwind readnone ssp uwtable "correctly-rounded-divide-sqrt-fp-math"="false" "disable-tail-calls"="false" "less-precise-fpmad"="false" "min-legal-vector-width"="0" "no-frame-pointer-elim"="false" "no-frame-pointer-elim-non-leaf" "no-infs-fp-math"="false" "no-jump-tables"="false" "no-nans-fp-math"="false" "no-signed-zeros-fp-math"="false" "no-trapping-math"="false" "null-pointer-is-valid"="true" "stack-protector-buffer-size"="4" "target-cpu"="x86-64" "target-features"="+cx8,+fxsr,+mmx,+sse,+sse2,+sse3,+x87" "unsafe-fp-math"="false" "use-soft-float"="false" }
attributes #7 = { norecurse nounwind readonly ssp uwtable "correctly-rounded-divide-sqrt-fp-math"="false" "disable-tail-calls"="false" "less-precise-fpmad"="false" "min-legal-vector-width"="0" "no-frame-pointer-elim"="false" "no-frame-pointer-elim-non-leaf" "no-infs-fp-math"="false" "no-jump-tables"="false" "no-nans-fp-math"="false" "no-signed-zeros-fp-math"="false" "no-trapping-math"="false" "null-pointer-is-valid"="true" "stack-protector-buffer-size"="4" "target-cpu"="x86-64" "target-features"="+cx8,+fxsr,+mmx,+sse,+sse2,+sse3,+x87" "unsafe-fp-math"="false" "use-soft-float"="false" }
attributes #8 = { nounwind readonly ssp uwtable "correctly-rounded-divide-sqrt-fp-math"="false" "disable-tail-calls"="false" "less-precise-fpmad"="false" "min-legal-vector-width"="0" "no-frame-pointer-elim"="false" "no-frame-pointer-elim-non-leaf" "no-infs-fp-math"="false" "no-jump-tables"="false" "no-nans-fp-math"="false" "no-signed-zeros-fp-math"="false" "no-trapping-math"="false" "null-pointer-is-valid"="true" "stack-protector-buffer-size"="4" "target-cpu"="x86-64" "target-features"="+cx8,+fxsr,+mmx,+sse,+sse2,+sse3,+x87" "unsafe-fp-math"="false" "use-soft-float"="false" }
attributes #9 = { argmemonly nounwind }
attributes #10 = { nobuiltin nounwind "correctly-rounded-divide-sqrt-fp-math"="false" "disable-tail-calls"="false" "less-precise-fpmad"="false" "no-frame-pointer-elim"="false" "no-frame-pointer-elim-non-leaf" "no-infs-fp-math"="false" "no-nans-fp-math"="false" "no-signed-zeros-fp-math"="false" "no-trapping-math"="false" "null-pointer-is-valid"="true" "stack-protector-buffer-size"="4" "target-cpu"="x86-64" "target-features"="+cx8,+fxsr,+mmx,+sse,+sse2,+sse3,+x87" "unsafe-fp-math"="false" "use-soft-float"="false" }
attributes #11 = { nobuiltin nofree "correctly-rounded-divide-sqrt-fp-math"="false" "disable-tail-calls"="false" "less-precise-fpmad"="false" "no-frame-pointer-elim"="false" "no-frame-pointer-elim-non-leaf" "no-infs-fp-math"="false" "no-nans-fp-math"="false" "no-signed-zeros-fp-math"="false" "no-trapping-math"="false" "null-pointer-is-valid"="true" "stack-protector-buffer-size"="4" "target-cpu"="x86-64" "target-features"="+cx8,+fxsr,+mmx,+sse,+sse2,+sse3,+x87" "unsafe-fp-math"="false" "use-soft-float"="false" }
attributes #12 = { noreturn nounwind "correctly-rounded-divide-sqrt-fp-math"="false" "disable-tail-calls"="false" "less-precise-fpmad"="false" "no-frame-pointer-elim"="false" "no-frame-pointer-elim-non-leaf" "no-infs-fp-math"="false" "no-nans-fp-math"="false" "no-signed-zeros-fp-math"="false" "no-trapping-math"="false" "null-pointer-is-valid"="true" "stack-protector-buffer-size"="4" "target-cpu"="x86-64" "target-features"="+cx8,+fxsr,+mmx,+sse,+sse2,+sse3,+x87" "unsafe-fp-math"="false" "use-soft-float"="false" }
attributes #13 = { noreturn "correctly-rounded-divide-sqrt-fp-math"="false" "disable-tail-calls"="false" "less-precise-fpmad"="false" "no-frame-pointer-elim"="false" "no-frame-pointer-elim-non-leaf" "no-infs-fp-math"="false" "no-nans-fp-math"="false" "no-signed-zeros-fp-math"="false" "no-trapping-math"="false" "null-pointer-is-valid"="true" "stack-protector-buffer-size"="4" "target-cpu"="x86-64" "target-features"="+cx8,+fxsr,+mmx,+sse,+sse2,+sse3,+x87" "unsafe-fp-math"="false" "use-soft-float"="false" }
attributes #14 = { argmemonly nofree nounwind readonly "correctly-rounded-divide-sqrt-fp-math"="false" "disable-tail-calls"="false" "less-precise-fpmad"="false" "no-frame-pointer-elim"="false" "no-frame-pointer-elim-non-leaf" "no-infs-fp-math"="false" "no-nans-fp-math"="false" "no-signed-zeros-fp-math"="false" "no-trapping-math"="false" "null-pointer-is-valid"="true" "stack-protector-buffer-size"="4" "target-cpu"="x86-64" "target-features"="+cx8,+fxsr,+mmx,+sse,+sse2,+sse3,+x87" "unsafe-fp-math"="false" "use-soft-float"="false" }
attributes #15 = { nounwind }
attributes #16 = { noreturn nounwind }
attributes #17 = { builtin nounwind }

!llvm.module.flags = !{!0, !1}

!0 = !{i32 1, !"wchar_size", i32 4}
!1 = !{i32 7, !"PIC Level", i32 2}
!2 = !{i8 0, i8 2}
!3 = !{!4}
!4 = distinct !{!4, !5, !"_ZNSt3__16__treeINS_12__value_typeIPN7content15RenderFrameHostENS_6vectorImNS_9allocatorImEEEEEENS_19__map_value_compareIS4_S9_NS_4lessIS4_EELb1EEENS6_IS9_EEE16__construct_nodeIJRKNS_21piecewise_construct_tENS_5tupleIJRKS4_EEENSK_IJEEEEEENS_10unique_ptrINS_11__tree_nodeIS9_PvEENS_22__tree_node_destructorINS6_ISS_EEEEEEDpOT_: argument 0"}
!5 = distinct !{!5, !"_ZNSt3__16__treeINS_12__value_typeIPN7content15RenderFrameHostENS_6vectorImNS_9allocatorImEEEEEENS_19__map_value_compareIS4_S9_NS_4lessIS4_EELb1EEENS6_IS9_EEE16__construct_nodeIJRKNS_21piecewise_construct_tENS_5tupleIJRKS4_EEENSK_IJEEEEEENS_10unique_ptrINS_11__tree_nodeIS9_PvEENS_22__tree_node_destructorINS6_ISS_EEEEEEDpOT_"}
!6 = !{!7}
!7 = distinct !{!7, !8, !"_ZNSt3__16__treeINS_12__value_typeIPN7content15RenderFrameHostEN4mojo16AssociatedRemoteIN8printing5mojom16PrintRenderFrameEEEEENS_19__map_value_compareIS4_SB_NS_4lessIS4_EELb1EEENS_9allocatorISB_EEE16__construct_nodeIJNS_4pairIKS4_SA_EEEEENS_10unique_ptrINS_11__tree_nodeISB_PvEENS_22__tree_node_destructorINSG_ISQ_EEEEEEDpOT_: argument 0"}
!8 = distinct !{!8, !"_ZNSt3__16__treeINS_12__value_typeIPN7content15RenderFrameHostEN4mojo16AssociatedRemoteIN8printing5mojom16PrintRenderFrameEEEEENS_19__map_value_compareIS4_SB_NS_4lessIS4_EELb1EEENS_9allocatorISB_EEE16__construct_nodeIJNS_4pairIKS4_SA_EEEEENS_10unique_ptrINS_11__tree_nodeISB_PvEENS_22__tree_node_destructorINSG_ISQ_EEEEEEDpOT_"}
