; ModuleID = '../../chrome/browser/printing/cloud_print/privet_constants.cc'
source_filename = "../../chrome/browser/printing/cloud_print/privet_constants.cc"
target datalayout = "e-m:e-i64:64-f80:128-n8:16:32:64-S128"
target triple = "x86_64-unknown-linux-gnu"

@_ZN11cloud_print15kPrivetKeyErrorE = hidden local_unnamed_addr constant [6 x i8] c"error\00", align 1
@_ZN11cloud_print19kPrivetInfoKeyTokenE = hidden local_unnamed_addr constant [15 x i8] c"x-privet-token\00", align 1
@_ZN11cloud_print21kPrivetInfoKeyAPIListE = hidden local_unnamed_addr constant [4 x i8] c"api\00", align 1
@_ZN11cloud_print16kPrivetInfoKeyIDE = hidden local_unnamed_addr constant [3 x i8] c"id\00", align 1
@_ZN11cloud_print18kPrivetKeyDeviceIDE = hidden local_unnamed_addr constant [10 x i8] c"device_id\00", align 1
@_ZN11cloud_print18kPrivetKeyClaimURLE = hidden local_unnamed_addr constant [10 x i8] c"claim_url\00", align 1
@_ZN11cloud_print20kPrivetKeyClaimTokenE = hidden local_unnamed_addr constant [6 x i8] c"token\00", align 1
@_ZN11cloud_print17kPrivetKeyTimeoutE = hidden local_unnamed_addr constant [8 x i8] c"timeout\00", align 1
@_ZN11cloud_print21kPrivetActionNameInfoE = hidden local_unnamed_addr constant [5 x i8] c"info\00", align 1
@_ZN11cloud_print15kPrivetInfoPathE = hidden local_unnamed_addr constant [13 x i8] c"/privet/info\00", align 1
@_ZN11cloud_print19kPrivetRegisterPathE = hidden local_unnamed_addr constant [17 x i8] c"/privet/register\00", align 16
@_ZN11cloud_print23kPrivetCapabilitiesPathE = hidden local_unnamed_addr constant [21 x i8] c"/privet/capabilities\00", align 16
@_ZN11cloud_print20kPrivetSubmitdocPathE = hidden local_unnamed_addr constant [26 x i8] c"/privet/printer/submitdoc\00", align 16
@_ZN11cloud_print20kPrivetCreatejobPathE = hidden local_unnamed_addr constant [26 x i8] c"/privet/printer/createjob\00", align 16
@_ZN11cloud_print22kPrivetErrorDeviceBusyE = hidden local_unnamed_addr constant [12 x i8] c"device_busy\00", align 1
@_ZN11cloud_print23kPrivetErrorPrinterBusyE = hidden local_unnamed_addr constant [13 x i8] c"printer_busy\00", align 1
@_ZN11cloud_print27kPrivetErrorInvalidPrintJobE = hidden local_unnamed_addr constant [18 x i8] c"invalid_print_job\00", align 16
@_ZN11cloud_print31kPrivetErrorInvalidDocumentTypeE = hidden local_unnamed_addr constant [22 x i8] c"invalid_document_type\00", align 16
@_ZN11cloud_print29kPrivetErrorPendingUserActionE = hidden local_unnamed_addr constant [20 x i8] c"pending_user_action\00", align 16
@_ZN11cloud_print31kPrivetErrorInvalidXPrivetTokenE = hidden local_unnamed_addr constant [23 x i8] c"invalid_x_privet_token\00", align 16
@_ZN11cloud_print19kPrivetErrorTimeoutE = hidden local_unnamed_addr constant [21 x i8] c"confirmation_timeout\00", align 16
@_ZN11cloud_print18kPrivetErrorCancelE = hidden local_unnamed_addr constant [12 x i8] c"user_cancel\00", align 1
@_ZN11cloud_print18kPrivetActionStartE = hidden local_unnamed_addr constant [6 x i8] c"start\00", align 1
@_ZN11cloud_print26kPrivetActionGetClaimTokenE = hidden local_unnamed_addr constant [14 x i8] c"getClaimToken\00", align 1
@_ZN11cloud_print21kPrivetActionCompleteE = hidden local_unnamed_addr constant [9 x i8] c"complete\00", align 1
@_ZN11cloud_print19kPrivetActionCancelE = hidden local_unnamed_addr constant [7 x i8] c"cancel\00", align 1
@_ZN11cloud_print24kPrivetDefaultDeviceTypeE = hidden local_unnamed_addr constant [19 x i8] c"_privet._tcp.local\00", align 16
@_ZN11cloud_print18kPrivetTypePrinterE = hidden local_unnamed_addr constant [8 x i8] c"printer\00", align 1
@_ZN11cloud_print17kPrivetTxtKeyNameE = hidden local_unnamed_addr constant [3 x i8] c"ty\00", align 1
@_ZN11cloud_print24kPrivetTxtKeyDescriptionE = hidden local_unnamed_addr constant [5 x i8] c"note\00", align 1
@_ZN11cloud_print20kPrivetTxtKeyVersionE = hidden local_unnamed_addr constant [8 x i8] c"txtvers\00", align 1
@_ZN11cloud_print17kPrivetTxtKeyTypeE = hidden local_unnamed_addr constant [5 x i8] c"type\00", align 1
@_ZN11cloud_print15kPrivetTxtKeyIDE = hidden local_unnamed_addr constant [3 x i8] c"id\00", align 1
@_ZN11cloud_print18kPrivetTxtKeyGcdIDE = hidden local_unnamed_addr constant [7 x i8] c"gcd_id\00", align 1
@_ZN11cloud_print25kPrivetTxtKeyDevicesClassE = hidden local_unnamed_addr constant [6 x i8] c"class\00", align 1

!llvm.module.flags = !{!0, !1}

!0 = !{i32 1, !"wchar_size", i32 4}
!1 = !{i32 7, !"PIC Level", i32 2}
