; ModuleID = 'gen/third_party/private_membership/src/private_membership_rlwe.pb.cc'
source_filename = "gen/third_party/private_membership/src/private_membership_rlwe.pb.cc"
target datalayout = "e-m:e-i64:64-f80:128-n8:16:32:64-S128"
target triple = "x86_64-unknown-linux-gnu"

module asm ".symver exp, exp@GLIBC_2.2.5"
module asm ".symver exp2, exp2@GLIBC_2.2.5"
module asm ".symver exp2f, exp2f@GLIBC_2.2.5"
module asm ".symver expf, expf@GLIBC_2.2.5"
module asm ".symver lgamma, lgamma@GLIBC_2.2.5"
module asm ".symver lgammaf, lgammaf@GLIBC_2.2.5"
module asm ".symver lgammal, lgammal@GLIBC_2.2.5"
module asm ".symver log, log@GLIBC_2.2.5"
module asm ".symver log2, log2@GLIBC_2.2.5"
module asm ".symver log2f, log2f@GLIBC_2.2.5"
module asm ".symver logf, logf@GLIBC_2.2.5"
module asm ".symver pow, pow@GLIBC_2.2.5"
module asm ".symver powf, powf@GLIBC_2.2.5"

%"class.private_membership::rlwe::PrivateMembershipRlweOprfRequestDefaultTypeInternal" = type { %"class.google::protobuf::internal::ExplicitlyConstructed" }
%"class.google::protobuf::internal::ExplicitlyConstructed" = type { %"union.google::protobuf::internal::ExplicitlyConstructed<private_membership::rlwe::PrivateMembershipRlweOprfRequest>::AlignedUnion" }
%"union.google::protobuf::internal::ExplicitlyConstructed<private_membership::rlwe::PrivateMembershipRlweOprfRequest>::AlignedUnion" = type { i64, [40 x i8] }
%"class.private_membership::rlwe::PrivateMembershipRlweOprfResponseDefaultTypeInternal" = type { %"class.google::protobuf::internal::ExplicitlyConstructed.0" }
%"class.google::protobuf::internal::ExplicitlyConstructed.0" = type { %"union.google::protobuf::internal::ExplicitlyConstructed<private_membership::rlwe::PrivateMembershipRlweOprfResponse>::AlignedUnion" }
%"union.google::protobuf::internal::ExplicitlyConstructed<private_membership::rlwe::PrivateMembershipRlweOprfResponse>::AlignedUnion" = type { i64, [72 x i8] }
%"class.private_membership::rlwe::PrivateMembershipRlweQueryRequestDefaultTypeInternal" = type { %"class.google::protobuf::internal::ExplicitlyConstructed.1" }
%"class.google::protobuf::internal::ExplicitlyConstructed.1" = type { %"union.google::protobuf::internal::ExplicitlyConstructed<private_membership::rlwe::PrivateMembershipRlweQueryRequest>::AlignedUnion" }
%"union.google::protobuf::internal::ExplicitlyConstructed<private_membership::rlwe::PrivateMembershipRlweQueryRequest>::AlignedUnion" = type { i64, [48 x i8] }
%"class.private_membership::rlwe::PrivateMembershipRlweQueryResponseDefaultTypeInternal" = type { %"class.google::protobuf::internal::ExplicitlyConstructed.2" }
%"class.google::protobuf::internal::ExplicitlyConstructed.2" = type { %"union.google::protobuf::internal::ExplicitlyConstructed<private_membership::rlwe::PrivateMembershipRlweQueryResponse>::AlignedUnion" }
%"union.google::protobuf::internal::ExplicitlyConstructed<private_membership::rlwe::PrivateMembershipRlweQueryResponse>::AlignedUnion" = type { i64, [40 x i8] }
%"class.private_membership::rlwe::RlwePlaintextIdDefaultTypeInternal" = type { %"class.google::protobuf::internal::ExplicitlyConstructed.3" }
%"class.google::protobuf::internal::ExplicitlyConstructed.3" = type { %"union.google::protobuf::internal::ExplicitlyConstructed<private_membership::rlwe::RlwePlaintextId>::AlignedUnion" }
%"union.google::protobuf::internal::ExplicitlyConstructed<private_membership::rlwe::RlwePlaintextId>::AlignedUnion" = type { i64, [32 x i8] }
%"class.private_membership::rlwe::HashedBucketsParametersDefaultTypeInternal" = type { %"class.google::protobuf::internal::ExplicitlyConstructed.4" }
%"class.google::protobuf::internal::ExplicitlyConstructed.4" = type { %"union.google::protobuf::internal::ExplicitlyConstructed<private_membership::rlwe::HashedBucketsParameters>::AlignedUnion" }
%"union.google::protobuf::internal::ExplicitlyConstructed<private_membership::rlwe::HashedBucketsParameters>::AlignedUnion" = type { i64, [24 x i8] }
%"class.private_membership::rlwe::EncryptedBucketsParametersDefaultTypeInternal" = type { %"class.google::protobuf::internal::ExplicitlyConstructed.5" }
%"class.google::protobuf::internal::ExplicitlyConstructed.5" = type { %"union.google::protobuf::internal::ExplicitlyConstructed<private_membership::rlwe::EncryptedBucketsParameters>::AlignedUnion" }
%"union.google::protobuf::internal::ExplicitlyConstructed<private_membership::rlwe::EncryptedBucketsParameters>::AlignedUnion" = type { i64, [24 x i8] }
%"class.private_membership::rlwe::RlweParametersDefaultTypeInternal" = type { %"class.google::protobuf::internal::ExplicitlyConstructed.6" }
%"class.google::protobuf::internal::ExplicitlyConstructed.6" = type { %"union.google::protobuf::internal::ExplicitlyConstructed<private_membership::rlwe::RlweParameters>::AlignedUnion" }
%"union.google::protobuf::internal::ExplicitlyConstructed<private_membership::rlwe::RlweParameters>::AlignedUnion" = type { i64, [56 x i8] }
%"class.private_membership::rlwe::Uint128DefaultTypeInternal" = type { %"class.google::protobuf::internal::ExplicitlyConstructed.7" }
%"class.google::protobuf::internal::ExplicitlyConstructed.7" = type { %"union.google::protobuf::internal::ExplicitlyConstructed<private_membership::rlwe::Uint128>::AlignedUnion" }
%"union.google::protobuf::internal::ExplicitlyConstructed<private_membership::rlwe::Uint128>::AlignedUnion" = type { i64, [32 x i8] }
%"class.private_membership::rlwe::PrivateMembershipRlweQuery_HashedBucketIdDefaultTypeInternal" = type { %"class.google::protobuf::internal::ExplicitlyConstructed.8" }
%"class.google::protobuf::internal::ExplicitlyConstructed.8" = type { %"union.google::protobuf::internal::ExplicitlyConstructed<private_membership::rlwe::PrivateMembershipRlweQuery_HashedBucketId>::AlignedUnion" }
%"union.google::protobuf::internal::ExplicitlyConstructed<private_membership::rlwe::PrivateMembershipRlweQuery_HashedBucketId>::AlignedUnion" = type { i64, [24 x i8] }
%"class.private_membership::rlwe::PrivateMembershipRlweQueryDefaultTypeInternal" = type { %"class.google::protobuf::internal::ExplicitlyConstructed.9" }
%"class.google::protobuf::internal::ExplicitlyConstructed.9" = type { %"union.google::protobuf::internal::ExplicitlyConstructed<private_membership::rlwe::PrivateMembershipRlweQuery>::AlignedUnion" }
%"union.google::protobuf::internal::ExplicitlyConstructed<private_membership::rlwe::PrivateMembershipRlweQuery>::AlignedUnion" = type { i64, [40 x i8] }
%"class.private_membership::rlwe::PrivateMembershipRlwePirResponseDefaultTypeInternal" = type { %"class.google::protobuf::internal::ExplicitlyConstructed.10" }
%"class.google::protobuf::internal::ExplicitlyConstructed.10" = type { %"union.google::protobuf::internal::ExplicitlyConstructed<private_membership::rlwe::PrivateMembershipRlwePirResponse>::AlignedUnion" }
%"union.google::protobuf::internal::ExplicitlyConstructed<private_membership::rlwe::PrivateMembershipRlwePirResponse>::AlignedUnion" = type { i64, [32 x i8] }
%"class.private_membership::rlwe::PirRequestDefaultTypeInternal" = type { %"class.google::protobuf::internal::ExplicitlyConstructed.11" }
%"class.google::protobuf::internal::ExplicitlyConstructed.11" = type { %"union.google::protobuf::internal::ExplicitlyConstructed<private_membership::rlwe::PirRequest>::AlignedUnion" }
%"union.google::protobuf::internal::ExplicitlyConstructed<private_membership::rlwe::PirRequest>::AlignedUnion" = type { i64, [48 x i8] }
%"class.private_membership::rlwe::PirResponseDefaultTypeInternal" = type { %"class.google::protobuf::internal::ExplicitlyConstructed.12" }
%"class.google::protobuf::internal::ExplicitlyConstructed.12" = type { %"union.google::protobuf::internal::ExplicitlyConstructed<private_membership::rlwe::PirResponse>::AlignedUnion" }
%"union.google::protobuf::internal::ExplicitlyConstructed<private_membership::rlwe::PirResponse>::AlignedUnion" = type { i64, [40 x i8] }
%"class.private_membership::rlwe::EncryptedBucket_EncryptedIdValuePairDefaultTypeInternal" = type { %"class.google::protobuf::internal::ExplicitlyConstructed.13" }
%"class.google::protobuf::internal::ExplicitlyConstructed.13" = type { %"union.google::protobuf::internal::ExplicitlyConstructed<private_membership::rlwe::EncryptedBucket_EncryptedIdValuePair>::AlignedUnion" }
%"union.google::protobuf::internal::ExplicitlyConstructed<private_membership::rlwe::EncryptedBucket_EncryptedIdValuePair>::AlignedUnion" = type { i64, [32 x i8] }
%"class.private_membership::rlwe::EncryptedBucketDefaultTypeInternal" = type { %"class.google::protobuf::internal::ExplicitlyConstructed.14" }
%"class.google::protobuf::internal::ExplicitlyConstructed.14" = type { %"union.google::protobuf::internal::ExplicitlyConstructed<private_membership::rlwe::EncryptedBucket>::AlignedUnion" }
%"union.google::protobuf::internal::ExplicitlyConstructed<private_membership::rlwe::EncryptedBucket>::AlignedUnion" = type { i64, [40 x i8] }
%"struct.google::protobuf::internal::SCCInfo" = type { %"struct.google::protobuf::internal::SCCInfoBase", [0 x i8*] }
%"struct.google::protobuf::internal::SCCInfoBase" = type { %"struct.std::__1::atomic", i32, i32, void ()* }
%"struct.std::__1::atomic" = type { %"struct.std::__1::__atomic_base" }
%"struct.std::__1::__atomic_base" = type { %"struct.std::__1::__atomic_base.15" }
%"struct.std::__1::__atomic_base.15" = type { %"struct.std::__1::__cxx_atomic_impl" }
%"struct.std::__1::__cxx_atomic_impl" = type { %"struct.std::__1::__cxx_atomic_base_impl" }
%"struct.std::__1::__cxx_atomic_base_impl" = type { i32 }
%"struct.google::protobuf::internal::SCCInfo.16" = type { %"struct.google::protobuf::internal::SCCInfoBase", [1 x i8*] }
%"struct.google::protobuf::internal::EnumEntry" = type <{ %"class.google::protobuf::StringPiece", i32, [4 x i8] }>
%"class.google::protobuf::StringPiece" = type { i8*, i64 }
%"class.google::protobuf::internal::ExplicitlyConstructed.20" = type { %"union.google::protobuf::internal::ExplicitlyConstructed<std::__1::basic_string<char, std::__1::char_traits<char>, std::__1::allocator<char> > >::AlignedUnion" }
%"union.google::protobuf::internal::ExplicitlyConstructed<std::__1::basic_string<char, std::__1::char_traits<char>, std::__1::allocator<char> > >::AlignedUnion" = type { i64, [16 x i8] }
%"class.private_membership::rlwe::PrivateMembershipRlweOprfRequest" = type { %"class.google::protobuf::MessageLite", %"class.google::protobuf::RepeatedPtrField", i32, %"class.google::protobuf::internal::CachedSize" }
%"class.google::protobuf::MessageLite" = type { i32 (...)**, %"class.google::protobuf::internal::InternalMetadata" }
%"class.google::protobuf::internal::InternalMetadata" = type { i8* }
%"class.google::protobuf::RepeatedPtrField" = type { %"class.google::protobuf::internal::RepeatedPtrFieldBase" }
%"class.google::protobuf::internal::RepeatedPtrFieldBase" = type { %"class.google::protobuf::Arena"*, i32, i32, %"struct.google::protobuf::internal::RepeatedPtrFieldBase::Rep"* }
%"struct.google::protobuf::internal::RepeatedPtrFieldBase::Rep" = type { i32, [268435454 x i8*] }
%"class.google::protobuf::internal::CachedSize" = type { %"struct.std::__1::atomic" }
%"class.google::protobuf::Arena" = type { %"class.google::protobuf::internal::ArenaImpl", void (%"class.std::type_info"*, i64, i8*)*, void (%"class.google::protobuf::Arena"*, i8*, i64)*, void (%"class.google::protobuf::Arena"*, i8*, i64)*, i8* }
%"class.google::protobuf::internal::ArenaImpl" = type { %"struct.std::__1::atomic.21", %"struct.std::__1::atomic.21", %"struct.std::__1::atomic.25", %"class.google::protobuf::internal::ArenaImpl::Block"*, i64, %"struct.google::protobuf::internal::ArenaImpl::Options" }
%"struct.std::__1::atomic.21" = type { %"struct.std::__1::__atomic_base.22" }
%"struct.std::__1::__atomic_base.22" = type { %"struct.std::__1::__cxx_atomic_impl.23" }
%"struct.std::__1::__cxx_atomic_impl.23" = type { %"struct.std::__1::__cxx_atomic_base_impl.24" }
%"struct.std::__1::__cxx_atomic_base_impl.24" = type { %"class.google::protobuf::internal::ArenaImpl::SerialArena"* }
%"class.google::protobuf::internal::ArenaImpl::SerialArena" = type { %"class.google::protobuf::internal::ArenaImpl"*, i8*, %"class.google::protobuf::internal::ArenaImpl::Block"*, %"struct.google::protobuf::internal::ArenaImpl::CleanupChunk"*, %"class.google::protobuf::internal::ArenaImpl::SerialArena"*, i8*, i8*, %"struct.google::protobuf::internal::ArenaImpl::CleanupNode"*, %"struct.google::protobuf::internal::ArenaImpl::CleanupNode"* }
%"struct.google::protobuf::internal::ArenaImpl::CleanupChunk" = type { i64, %"struct.google::protobuf::internal::ArenaImpl::CleanupChunk"*, [1 x %"struct.google::protobuf::internal::ArenaImpl::CleanupNode"] }
%"struct.google::protobuf::internal::ArenaImpl::CleanupNode" = type { i8*, void (i8*)* }
%"struct.std::__1::atomic.25" = type { %"struct.std::__1::__atomic_base.26" }
%"struct.std::__1::__atomic_base.26" = type { %"struct.std::__1::__atomic_base.27" }
%"struct.std::__1::__atomic_base.27" = type { %"struct.std::__1::__cxx_atomic_impl.28" }
%"struct.std::__1::__cxx_atomic_impl.28" = type { %"struct.std::__1::__cxx_atomic_base_impl.29" }
%"struct.std::__1::__cxx_atomic_base_impl.29" = type { i64 }
%"class.google::protobuf::internal::ArenaImpl::Block" = type { %"class.google::protobuf::internal::ArenaImpl::Block"*, i64, i64 }
%"struct.google::protobuf::internal::ArenaImpl::Options" = type { i64, i64, i8*, i64, i8* (i64)*, void (i8*, i64)* }
%"class.std::type_info" = type { i32 (...)**, i8* }
%"class.private_membership::rlwe::PrivateMembershipRlweOprfResponse" = type <{ %"class.google::protobuf::MessageLite", %"class.google::protobuf::RepeatedPtrField.30", %"class.private_membership::rlwe::HashedBucketsParameters"*, %"class.private_membership::rlwe::EncryptedBucketsParameters"*, %"class.private_membership::rlwe::RlweParameters"*, i64, %"class.google::protobuf::internal::CachedSize", [4 x i8] }>
%"class.google::protobuf::RepeatedPtrField.30" = type { %"class.google::protobuf::internal::RepeatedPtrFieldBase" }
%"class.private_membership::rlwe::HashedBucketsParameters" = type <{ %"class.google::protobuf::MessageLite", i32, i32, %"class.google::protobuf::internal::CachedSize", [4 x i8] }>
%"class.private_membership::rlwe::EncryptedBucketsParameters" = type <{ %"class.google::protobuf::MessageLite", i32, i32, %"class.google::protobuf::internal::CachedSize", [4 x i8] }>
%"class.private_membership::rlwe::RlweParameters" = type <{ %"class.google::protobuf::MessageLite", %"class.google::protobuf::RepeatedPtrField.31", i32, i32, i32, i32, %"class.google::protobuf::internal::CachedSize", [4 x i8] }>
%"class.google::protobuf::RepeatedPtrField.31" = type { %"class.google::protobuf::internal::RepeatedPtrFieldBase" }
%"class.private_membership::rlwe::PrivateMembershipRlweQueryRequest" = type { %"class.google::protobuf::MessageLite", %"class.google::protobuf::RepeatedPtrField.32", i64, i32, %"class.google::protobuf::internal::CachedSize" }
%"class.google::protobuf::RepeatedPtrField.32" = type { %"class.google::protobuf::internal::RepeatedPtrFieldBase" }
%"class.private_membership::rlwe::PrivateMembershipRlweQueryResponse" = type <{ %"class.google::protobuf::MessageLite", %"class.google::protobuf::RepeatedPtrField.35", %"class.google::protobuf::internal::CachedSize", [4 x i8] }>
%"class.google::protobuf::RepeatedPtrField.35" = type { %"class.google::protobuf::internal::RepeatedPtrFieldBase" }
%"class.private_membership::rlwe::RlwePlaintextId" = type <{ %"class.google::protobuf::MessageLite", %"struct.google::protobuf::internal::ArenaStringPtr", %"struct.google::protobuf::internal::ArenaStringPtr", %"class.google::protobuf::internal::CachedSize", [4 x i8] }>
%"struct.google::protobuf::internal::ArenaStringPtr" = type { %"class.std::__1::basic_string"* }
%"class.std::__1::basic_string" = type { %"class.std::__1::__compressed_pair" }
%"class.std::__1::__compressed_pair" = type { %"struct.std::__1::__compressed_pair_elem" }
%"struct.std::__1::__compressed_pair_elem" = type { %"struct.std::__1::basic_string<char, std::__1::char_traits<char>, std::__1::allocator<char> >::__rep" }
%"struct.std::__1::basic_string<char, std::__1::char_traits<char>, std::__1::allocator<char> >::__rep" = type { %union.anon }
%union.anon = type { %"struct.std::__1::basic_string<char, std::__1::char_traits<char>, std::__1::allocator<char> >::__long" }
%"struct.std::__1::basic_string<char, std::__1::char_traits<char>, std::__1::allocator<char> >::__long" = type { i8*, i64, i64 }
%"class.private_membership::rlwe::Uint128" = type <{ %"class.google::protobuf::MessageLite", i64, i64, %"class.google::protobuf::internal::CachedSize", [4 x i8] }>
%"class.private_membership::rlwe::PrivateMembershipRlweQuery_HashedBucketId" = type { %"class.google::protobuf::MessageLite", %"struct.google::protobuf::internal::ArenaStringPtr", i32, %"class.google::protobuf::internal::CachedSize" }
%"class.private_membership::rlwe::PrivateMembershipRlweQuery" = type <{ %"class.google::protobuf::MessageLite", %"struct.google::protobuf::internal::ArenaStringPtr", %"class.private_membership::rlwe::PirRequest"*, %"class.private_membership::rlwe::PrivateMembershipRlweQuery_HashedBucketId"*, %"class.google::protobuf::internal::CachedSize", [4 x i8] }>
%"class.private_membership::rlwe::PirRequest" = type <{ %"class.google::protobuf::MessageLite", %"class.google::protobuf::RepeatedPtrField.33", %"struct.google::protobuf::internal::ArenaStringPtr", %"class.google::protobuf::internal::CachedSize", [4 x i8] }>
%"class.google::protobuf::RepeatedPtrField.33" = type { %"class.google::protobuf::internal::RepeatedPtrFieldBase" }
%"class.private_membership::rlwe::PrivateMembershipRlwePirResponse" = type <{ %"class.google::protobuf::MessageLite", %"struct.google::protobuf::internal::ArenaStringPtr", %"class.private_membership::rlwe::PirResponse"*, %"class.google::protobuf::internal::CachedSize", [4 x i8] }>
%"class.private_membership::rlwe::PirResponse" = type { %"class.google::protobuf::MessageLite", %"class.google::protobuf::RepeatedPtrField.36", i32, %"class.google::protobuf::internal::CachedSize" }
%"class.google::protobuf::RepeatedPtrField.36" = type { %"class.google::protobuf::internal::RepeatedPtrFieldBase" }
%"class.private_membership::rlwe::EncryptedBucket_EncryptedIdValuePair" = type <{ %"class.google::protobuf::MessageLite", %"struct.google::protobuf::internal::ArenaStringPtr", %"struct.google::protobuf::internal::ArenaStringPtr", %"class.google::protobuf::internal::CachedSize", [4 x i8] }>
%"class.private_membership::rlwe::EncryptedBucket" = type <{ %"class.google::protobuf::MessageLite", %"class.google::protobuf::RepeatedPtrField.41", %"class.google::protobuf::internal::CachedSize", [4 x i8] }>
%"class.google::protobuf::RepeatedPtrField.41" = type { %"class.google::protobuf::internal::RepeatedPtrFieldBase" }
%"struct.std::__1::basic_string<char, std::__1::char_traits<char>, std::__1::allocator<char> >::__short" = type { [23 x i8], %struct.anon }
%struct.anon = type { i8 }
%"struct.google::protobuf::internal::InternalMetadata::Container" = type { %"struct.google::protobuf::internal::InternalMetadata::ContainerBase", %"class.std::__1::basic_string" }
%"struct.google::protobuf::internal::InternalMetadata::ContainerBase" = type { %"class.google::protobuf::Arena"* }
%"class.google::protobuf::internal::ParseContext" = type { %"class.google::protobuf::internal::EpsCopyInputStream", i32, i32, %"struct.google::protobuf::internal::ParseContext::Data" }
%"class.google::protobuf::internal::EpsCopyInputStream" = type { i8*, i8*, i8*, i32, i32, %"class.google::protobuf::io::ZeroCopyInputStream"*, [32 x i8], i64, i32, i32 }
%"class.google::protobuf::io::ZeroCopyInputStream" = type { i32 (...)** }
%"struct.google::protobuf::internal::ParseContext::Data" = type { %"class.google::protobuf::DescriptorPool"*, %"class.google::protobuf::MessageFactory"* }
%"class.google::protobuf::DescriptorPool" = type opaque
%"class.google::protobuf::MessageFactory" = type opaque
%"class.google::protobuf::io::EpsCopyOutputStream" = type <{ i8*, i8*, [32 x i8], %"class.google::protobuf::io::ZeroCopyOutputStream"*, i8, i8, i8, [5 x i8] }>
%"class.google::protobuf::io::ZeroCopyOutputStream" = type { i32 (...)** }
%"class.private_membership::DoublyEncryptedId" = type <{ %"class.google::protobuf::MessageLite", %"struct.google::protobuf::internal::ArenaStringPtr", %"struct.google::protobuf::internal::ArenaStringPtr", %"class.google::protobuf::internal::CachedSize", [4 x i8] }>
%"class.rlwe::SerializedNttPolynomial" = type <{ %"class.google::protobuf::MessageLite", %"class.google::protobuf::internal::HasBits", %"class.google::protobuf::internal::CachedSize", %"struct.google::protobuf::internal::ArenaStringPtr", i32, [4 x i8] }>
%"class.google::protobuf::internal::HasBits" = type { [1 x i32] }
%"class.rlwe::SerializedSymmetricRlweCiphertext" = type <{ %"class.google::protobuf::MessageLite", %"class.google::protobuf::internal::HasBits", %"class.google::protobuf::internal::CachedSize", %"class.google::protobuf::RepeatedPtrField.33", double, i32, [4 x i8] }>

$_ZN6google8protobuf8internal12ParseContext12ParseMessageIN18private_membership17DoublyEncryptedIdEEEPKcPT_S7_ = comdat any

$_ZN6google8protobuf8internal12ParseContext12ParseMessageIN18private_membership4rlwe23HashedBucketsParametersEEEPKcPT_S8_ = comdat any

$_ZN6google8protobuf8internal12ParseContext12ParseMessageIN18private_membership4rlwe26EncryptedBucketsParametersEEEPKcPT_S8_ = comdat any

$_ZN6google8protobuf8internal12ParseContext12ParseMessageIN18private_membership4rlwe14RlweParametersEEEPKcPT_S8_ = comdat any

$_ZN6google8protobuf8internal12ParseContext12ParseMessageIN18private_membership4rlwe26PrivateMembershipRlweQueryEEEPKcPT_S8_ = comdat any

$_ZN6google8protobuf8internal12ParseContext12ParseMessageIN18private_membership4rlwe32PrivateMembershipRlwePirResponseEEEPKcPT_S8_ = comdat any

$_ZN6google8protobuf8internal12ParseContext12ParseMessageIN18private_membership4rlwe7Uint128EEEPKcPT_S8_ = comdat any

$_ZN6google8protobuf8internal12ParseContext12ParseMessageIN18private_membership4rlwe10PirRequestEEEPKcPT_S8_ = comdat any

$_ZN6google8protobuf8internal12ParseContext12ParseMessageIN18private_membership4rlwe41PrivateMembershipRlweQuery_HashedBucketIdEEEPKcPT_S8_ = comdat any

$_ZN6google8protobuf8internal12ParseContext12ParseMessageIN18private_membership4rlwe11PirResponseEEEPKcPT_S8_ = comdat any

$_ZN6google8protobuf8internal12ParseContext12ParseMessageIN4rlwe23SerializedNttPolynomialEEEPKcPT_S7_ = comdat any

$_ZN6google8protobuf8internal12ParseContext12ParseMessageIN4rlwe33SerializedSymmetricRlweCiphertextEEEPKcPT_S7_ = comdat any

$_ZN6google8protobuf8internal12ParseContext12ParseMessageIN18private_membership4rlwe36EncryptedBucket_EncryptedIdValuePairEEEPKcPT_S8_ = comdat any

$_ZNK18private_membership4rlwe32PrivateMembershipRlweOprfRequest3NewEv = comdat any

$_ZNK18private_membership4rlwe32PrivateMembershipRlweOprfRequest3NewEPN6google8protobuf5ArenaE = comdat any

$_ZNK18private_membership4rlwe32PrivateMembershipRlweOprfRequest13GetCachedSizeEv = comdat any

$_ZNK6google8protobuf11MessageLite16InternalGetTableEv = comdat any

$_ZNK18private_membership4rlwe33PrivateMembershipRlweOprfResponse3NewEv = comdat any

$_ZNK18private_membership4rlwe33PrivateMembershipRlweOprfResponse3NewEPN6google8protobuf5ArenaE = comdat any

$_ZNK18private_membership4rlwe33PrivateMembershipRlweOprfResponse13GetCachedSizeEv = comdat any

$_ZNK18private_membership4rlwe33PrivateMembershipRlweQueryRequest3NewEv = comdat any

$_ZNK18private_membership4rlwe33PrivateMembershipRlweQueryRequest3NewEPN6google8protobuf5ArenaE = comdat any

$_ZNK18private_membership4rlwe33PrivateMembershipRlweQueryRequest13GetCachedSizeEv = comdat any

$_ZNK18private_membership4rlwe34PrivateMembershipRlweQueryResponse3NewEv = comdat any

$_ZNK18private_membership4rlwe34PrivateMembershipRlweQueryResponse3NewEPN6google8protobuf5ArenaE = comdat any

$_ZNK18private_membership4rlwe34PrivateMembershipRlweQueryResponse13GetCachedSizeEv = comdat any

$_ZNK18private_membership4rlwe15RlwePlaintextId3NewEv = comdat any

$_ZNK18private_membership4rlwe15RlwePlaintextId3NewEPN6google8protobuf5ArenaE = comdat any

$_ZNK18private_membership4rlwe15RlwePlaintextId13GetCachedSizeEv = comdat any

$_ZNK18private_membership4rlwe23HashedBucketsParameters3NewEv = comdat any

$_ZNK18private_membership4rlwe23HashedBucketsParameters3NewEPN6google8protobuf5ArenaE = comdat any

$_ZNK18private_membership4rlwe23HashedBucketsParameters13GetCachedSizeEv = comdat any

$_ZNK18private_membership4rlwe26EncryptedBucketsParameters3NewEv = comdat any

$_ZNK18private_membership4rlwe26EncryptedBucketsParameters3NewEPN6google8protobuf5ArenaE = comdat any

$_ZNK18private_membership4rlwe26EncryptedBucketsParameters13GetCachedSizeEv = comdat any

$_ZNK18private_membership4rlwe14RlweParameters3NewEv = comdat any

$_ZNK18private_membership4rlwe14RlweParameters3NewEPN6google8protobuf5ArenaE = comdat any

$_ZNK18private_membership4rlwe14RlweParameters13GetCachedSizeEv = comdat any

$_ZNK18private_membership4rlwe7Uint1283NewEv = comdat any

$_ZNK18private_membership4rlwe7Uint1283NewEPN6google8protobuf5ArenaE = comdat any

$_ZNK18private_membership4rlwe7Uint12813GetCachedSizeEv = comdat any

$_ZNK18private_membership4rlwe41PrivateMembershipRlweQuery_HashedBucketId3NewEv = comdat any

$_ZNK18private_membership4rlwe41PrivateMembershipRlweQuery_HashedBucketId3NewEPN6google8protobuf5ArenaE = comdat any

$_ZNK18private_membership4rlwe41PrivateMembershipRlweQuery_HashedBucketId13GetCachedSizeEv = comdat any

$_ZNK18private_membership4rlwe26PrivateMembershipRlweQuery3NewEv = comdat any

$_ZNK18private_membership4rlwe26PrivateMembershipRlweQuery3NewEPN6google8protobuf5ArenaE = comdat any

$_ZNK18private_membership4rlwe26PrivateMembershipRlweQuery13GetCachedSizeEv = comdat any

$_ZNK18private_membership4rlwe32PrivateMembershipRlwePirResponse3NewEv = comdat any

$_ZNK18private_membership4rlwe32PrivateMembershipRlwePirResponse3NewEPN6google8protobuf5ArenaE = comdat any

$_ZNK18private_membership4rlwe32PrivateMembershipRlwePirResponse13GetCachedSizeEv = comdat any

$_ZNK18private_membership4rlwe10PirRequest3NewEv = comdat any

$_ZNK18private_membership4rlwe10PirRequest3NewEPN6google8protobuf5ArenaE = comdat any

$_ZNK18private_membership4rlwe10PirRequest13GetCachedSizeEv = comdat any

$_ZNK18private_membership4rlwe11PirResponse3NewEv = comdat any

$_ZNK18private_membership4rlwe11PirResponse3NewEPN6google8protobuf5ArenaE = comdat any

$_ZNK18private_membership4rlwe11PirResponse13GetCachedSizeEv = comdat any

$_ZNK18private_membership4rlwe36EncryptedBucket_EncryptedIdValuePair3NewEv = comdat any

$_ZNK18private_membership4rlwe36EncryptedBucket_EncryptedIdValuePair3NewEPN6google8protobuf5ArenaE = comdat any

$_ZNK18private_membership4rlwe36EncryptedBucket_EncryptedIdValuePair13GetCachedSizeEv = comdat any

$_ZNK18private_membership4rlwe15EncryptedBucket3NewEv = comdat any

$_ZNK18private_membership4rlwe15EncryptedBucket3NewEPN6google8protobuf5ArenaE = comdat any

$_ZNK18private_membership4rlwe15EncryptedBucket13GetCachedSizeEv = comdat any

$_ZN6google8protobuf8internal21arena_destruct_objectINSt3__112basic_stringIcNS3_11char_traitsIcEENS3_9allocatorIcEEEEEEvPv = comdat any

$_ZN6google8protobuf8internal14ArenaStringPtr14CreateInstanceEPNS0_5ArenaEPKNSt3__112basic_stringIcNS5_11char_traitsIcEENS5_9allocatorIcEEEE = comdat any

$_ZNSt3__112basic_stringIcNS_11char_traitsIcEENS_9allocatorIcEEEaSERKS5_ = comdat any

$_ZN6google8protobuf8internal16InternalMetadata27mutable_unknown_fields_slowINSt3__112basic_stringIcNS4_11char_traitsIcEENS4_9allocatorIcEEEEEEPT_v = comdat any

$_ZN6google8protobuf8internal21arena_destruct_objectINS1_16InternalMetadata9ContainerINSt3__112basic_stringIcNS5_11char_traitsIcEENS5_9allocatorIcEEEEEEEEvPv = comdat any

$_ZN6google8protobuf8internal20RepeatedPtrFieldBase9MergeFromINS0_16RepeatedPtrFieldINSt3__112basic_stringIcNS5_11char_traitsIcEENS5_9allocatorIcEEEEE11TypeHandlerEEEvRKS2_ = comdat any

$_ZN6google8protobuf8internal18GenericTypeHandlerIN18private_membership17DoublyEncryptedIdEE5MergeERKS4_PS4_ = comdat any

$_ZN6google8protobuf8internal18GenericTypeHandlerIN18private_membership4rlwe26PrivateMembershipRlweQueryEE5MergeERKS5_PS5_ = comdat any

$_ZN6google8protobuf8internal18GenericTypeHandlerIN18private_membership4rlwe32PrivateMembershipRlwePirResponseEE5MergeERKS5_PS5_ = comdat any

$_ZN6google8protobuf8internal18GenericTypeHandlerIN18private_membership4rlwe7Uint128EE5MergeERKS5_PS5_ = comdat any

$_ZN6google8protobuf8internal18GenericTypeHandlerIN4rlwe23SerializedNttPolynomialEE5MergeERKS4_PS4_ = comdat any

$_ZN6google8protobuf8internal18GenericTypeHandlerIN4rlwe33SerializedSymmetricRlweCiphertextEE5MergeERKS4_PS4_ = comdat any

$_ZN6google8protobuf8internal18GenericTypeHandlerIN18private_membership4rlwe36EncryptedBucket_EncryptedIdValuePairEE5MergeERKS5_PS5_ = comdat any

@_ZN18private_membership4rlwe51_PrivateMembershipRlweOprfRequest_default_instance_E = hidden global %"class.private_membership::rlwe::PrivateMembershipRlweOprfRequestDefaultTypeInternal" zeroinitializer, align 8
@_ZN18private_membership4rlwe52_PrivateMembershipRlweOprfResponse_default_instance_E = hidden global %"class.private_membership::rlwe::PrivateMembershipRlweOprfResponseDefaultTypeInternal" zeroinitializer, align 8
@_ZN18private_membership4rlwe52_PrivateMembershipRlweQueryRequest_default_instance_E = hidden global %"class.private_membership::rlwe::PrivateMembershipRlweQueryRequestDefaultTypeInternal" zeroinitializer, align 8
@_ZN18private_membership4rlwe53_PrivateMembershipRlweQueryResponse_default_instance_E = hidden global %"class.private_membership::rlwe::PrivateMembershipRlweQueryResponseDefaultTypeInternal" zeroinitializer, align 8
@_ZN18private_membership4rlwe34_RlwePlaintextId_default_instance_E = hidden global %"class.private_membership::rlwe::RlwePlaintextIdDefaultTypeInternal" zeroinitializer, align 8
@_ZN18private_membership4rlwe42_HashedBucketsParameters_default_instance_E = hidden global %"class.private_membership::rlwe::HashedBucketsParametersDefaultTypeInternal" zeroinitializer, align 8
@_ZN18private_membership4rlwe45_EncryptedBucketsParameters_default_instance_E = hidden global %"class.private_membership::rlwe::EncryptedBucketsParametersDefaultTypeInternal" zeroinitializer, align 8
@_ZN18private_membership4rlwe33_RlweParameters_default_instance_E = hidden global %"class.private_membership::rlwe::RlweParametersDefaultTypeInternal" zeroinitializer, align 8
@_ZN18private_membership4rlwe26_Uint128_default_instance_E = hidden global %"class.private_membership::rlwe::Uint128DefaultTypeInternal" zeroinitializer, align 8
@_ZN18private_membership4rlwe60_PrivateMembershipRlweQuery_HashedBucketId_default_instance_E = hidden global %"class.private_membership::rlwe::PrivateMembershipRlweQuery_HashedBucketIdDefaultTypeInternal" zeroinitializer, align 8
@_ZN18private_membership4rlwe45_PrivateMembershipRlweQuery_default_instance_E = hidden global %"class.private_membership::rlwe::PrivateMembershipRlweQueryDefaultTypeInternal" zeroinitializer, align 8
@_ZN18private_membership4rlwe51_PrivateMembershipRlwePirResponse_default_instance_E = hidden global %"class.private_membership::rlwe::PrivateMembershipRlwePirResponseDefaultTypeInternal" zeroinitializer, align 8
@_ZN18private_membership4rlwe29_PirRequest_default_instance_E = hidden global %"class.private_membership::rlwe::PirRequestDefaultTypeInternal" zeroinitializer, align 8
@_ZN18private_membership4rlwe30_PirResponse_default_instance_E = hidden global %"class.private_membership::rlwe::PirResponseDefaultTypeInternal" zeroinitializer, align 8
@_ZN18private_membership4rlwe55_EncryptedBucket_EncryptedIdValuePair_default_instance_E = hidden global %"class.private_membership::rlwe::EncryptedBucket_EncryptedIdValuePairDefaultTypeInternal" zeroinitializer, align 8
@_ZN18private_membership4rlwe34_EncryptedBucket_default_instance_E = hidden global %"class.private_membership::rlwe::EncryptedBucketDefaultTypeInternal" zeroinitializer, align 8
@scc_info_EncryptedBucket_private_5fmembership_5frlwe_2eproto = hidden global { { { { i32 } }, i32, i32, void ()* }, [1 x i8*] } { { { { i32 } }, i32, i32, void ()* } { { { i32 } } { { i32 } { i32 -1 } }, i32 1, i32 0, void ()* @_ZL72InitDefaultsscc_info_EncryptedBucket_private_5fmembership_5frlwe_2eprotov }, [1 x i8*] [i8* bitcast ({ { { { i32 } }, i32, i32, void ()* }, [0 x i8*] }* @scc_info_EncryptedBucket_EncryptedIdValuePair_private_5fmembership_5frlwe_2eproto to i8*)] }, align 8
@scc_info_EncryptedBucket_EncryptedIdValuePair_private_5fmembership_5frlwe_2eproto = hidden global { { { { i32 } }, i32, i32, void ()* }, [0 x i8*] } { { { { i32 } }, i32, i32, void ()* } { { { i32 } } { { i32 } { i32 -1 } }, i32 0, i32 0, void ()* @_ZL93InitDefaultsscc_info_EncryptedBucket_EncryptedIdValuePair_private_5fmembership_5frlwe_2eprotov }, [0 x i8*] zeroinitializer }, align 8
@scc_info_EncryptedBucketsParameters_private_5fmembership_5frlwe_2eproto = hidden global { { { { i32 } }, i32, i32, void ()* }, [0 x i8*] } { { { { i32 } }, i32, i32, void ()* } { { { i32 } } { { i32 } { i32 -1 } }, i32 0, i32 0, void ()* @_ZL83InitDefaultsscc_info_EncryptedBucketsParameters_private_5fmembership_5frlwe_2eprotov }, [0 x i8*] zeroinitializer }, align 8
@scc_info_HashedBucketsParameters_private_5fmembership_5frlwe_2eproto = hidden global { { { { i32 } }, i32, i32, void ()* }, [0 x i8*] } { { { { i32 } }, i32, i32, void ()* } { { { i32 } } { { i32 } { i32 -1 } }, i32 0, i32 0, void ()* @_ZL80InitDefaultsscc_info_HashedBucketsParameters_private_5fmembership_5frlwe_2eprotov }, [0 x i8*] zeroinitializer }, align 8
@scc_info_SerializedNttPolynomial_serialization_2eproto = external global %"struct.google::protobuf::internal::SCCInfo", align 8
@scc_info_PirRequest_private_5fmembership_5frlwe_2eproto = hidden global { { { { i32 } }, i32, i32, void ()* }, [1 x i8*] } { { { { i32 } }, i32, i32, void ()* } { { { i32 } } { { i32 } { i32 -1 } }, i32 1, i32 0, void ()* @_ZL67InitDefaultsscc_info_PirRequest_private_5fmembership_5frlwe_2eprotov }, [1 x i8*] [i8* bitcast (%"struct.google::protobuf::internal::SCCInfo"* @scc_info_SerializedNttPolynomial_serialization_2eproto to i8*)] }, align 8
@scc_info_SerializedSymmetricRlweCiphertext_serialization_2eproto = external global %"struct.google::protobuf::internal::SCCInfo.16", align 8
@scc_info_PirResponse_private_5fmembership_5frlwe_2eproto = hidden global { { { { i32 } }, i32, i32, void ()* }, [1 x i8*] } { { { { i32 } }, i32, i32, void ()* } { { { i32 } } { { i32 } { i32 -1 } }, i32 1, i32 0, void ()* @_ZL68InitDefaultsscc_info_PirResponse_private_5fmembership_5frlwe_2eprotov }, [1 x i8*] [i8* bitcast (%"struct.google::protobuf::internal::SCCInfo.16"* @scc_info_SerializedSymmetricRlweCiphertext_serialization_2eproto to i8*)] }, align 8
@scc_info_PrivateMembershipRlweOprfRequest_private_5fmembership_5frlwe_2eproto = hidden global { { { { i32 } }, i32, i32, void ()* }, [0 x i8*] } { { { { i32 } }, i32, i32, void ()* } { { { i32 } } { { i32 } { i32 -1 } }, i32 0, i32 0, void ()* @_ZL89InitDefaultsscc_info_PrivateMembershipRlweOprfRequest_private_5fmembership_5frlwe_2eprotov }, [0 x i8*] zeroinitializer }, align 8
@scc_info_DoublyEncryptedId_private_5fmembership_2eproto = external global %"struct.google::protobuf::internal::SCCInfo", align 8
@scc_info_PrivateMembershipRlweOprfResponse_private_5fmembership_5frlwe_2eproto = hidden global { { { { i32 } }, i32, i32, void ()* }, [4 x i8*] } { { { { i32 } }, i32, i32, void ()* } { { { i32 } } { { i32 } { i32 -1 } }, i32 4, i32 0, void ()* @_ZL90InitDefaultsscc_info_PrivateMembershipRlweOprfResponse_private_5fmembership_5frlwe_2eprotov }, [4 x i8*] [i8* bitcast (%"struct.google::protobuf::internal::SCCInfo"* @scc_info_DoublyEncryptedId_private_5fmembership_2eproto to i8*), i8* bitcast ({ { { { i32 } }, i32, i32, void ()* }, [0 x i8*] }* @scc_info_HashedBucketsParameters_private_5fmembership_5frlwe_2eproto to i8*), i8* bitcast ({ { { { i32 } }, i32, i32, void ()* }, [0 x i8*] }* @scc_info_EncryptedBucketsParameters_private_5fmembership_5frlwe_2eproto to i8*), i8* bitcast ({ { { { i32 } }, i32, i32, void ()* }, [1 x i8*] }* @scc_info_RlweParameters_private_5fmembership_5frlwe_2eproto to i8*)] }, align 8
@scc_info_PrivateMembershipRlwePirResponse_private_5fmembership_5frlwe_2eproto = hidden global { { { { i32 } }, i32, i32, void ()* }, [1 x i8*] } { { { { i32 } }, i32, i32, void ()* } { { { i32 } } { { i32 } { i32 -1 } }, i32 1, i32 0, void ()* @_ZL89InitDefaultsscc_info_PrivateMembershipRlwePirResponse_private_5fmembership_5frlwe_2eprotov }, [1 x i8*] [i8* bitcast ({ { { { i32 } }, i32, i32, void ()* }, [1 x i8*] }* @scc_info_PirResponse_private_5fmembership_5frlwe_2eproto to i8*)] }, align 8
@scc_info_PrivateMembershipRlweQuery_private_5fmembership_5frlwe_2eproto = hidden global { { { { i32 } }, i32, i32, void ()* }, [2 x i8*] } { { { { i32 } }, i32, i32, void ()* } { { { i32 } } { { i32 } { i32 -1 } }, i32 2, i32 0, void ()* @_ZL83InitDefaultsscc_info_PrivateMembershipRlweQuery_private_5fmembership_5frlwe_2eprotov }, [2 x i8*] [i8* bitcast ({ { { { i32 } }, i32, i32, void ()* }, [1 x i8*] }* @scc_info_PirRequest_private_5fmembership_5frlwe_2eproto to i8*), i8* bitcast ({ { { { i32 } }, i32, i32, void ()* }, [0 x i8*] }* @scc_info_PrivateMembershipRlweQuery_HashedBucketId_private_5fmembership_5frlwe_2eproto to i8*)] }, align 8
@scc_info_PrivateMembershipRlweQuery_HashedBucketId_private_5fmembership_5frlwe_2eproto = hidden global { { { { i32 } }, i32, i32, void ()* }, [0 x i8*] } { { { { i32 } }, i32, i32, void ()* } { { { i32 } } { { i32 } { i32 -1 } }, i32 0, i32 0, void ()* @_ZL98InitDefaultsscc_info_PrivateMembershipRlweQuery_HashedBucketId_private_5fmembership_5frlwe_2eprotov }, [0 x i8*] zeroinitializer }, align 8
@scc_info_PrivateMembershipRlweQueryRequest_private_5fmembership_5frlwe_2eproto = hidden global { { { { i32 } }, i32, i32, void ()* }, [1 x i8*] } { { { { i32 } }, i32, i32, void ()* } { { { i32 } } { { i32 } { i32 -1 } }, i32 1, i32 0, void ()* @_ZL90InitDefaultsscc_info_PrivateMembershipRlweQueryRequest_private_5fmembership_5frlwe_2eprotov }, [1 x i8*] [i8* bitcast ({ { { { i32 } }, i32, i32, void ()* }, [2 x i8*] }* @scc_info_PrivateMembershipRlweQuery_private_5fmembership_5frlwe_2eproto to i8*)] }, align 8
@scc_info_PrivateMembershipRlweQueryResponse_private_5fmembership_5frlwe_2eproto = hidden global { { { { i32 } }, i32, i32, void ()* }, [1 x i8*] } { { { { i32 } }, i32, i32, void ()* } { { { i32 } } { { i32 } { i32 -1 } }, i32 1, i32 0, void ()* @_ZL91InitDefaultsscc_info_PrivateMembershipRlweQueryResponse_private_5fmembership_5frlwe_2eprotov }, [1 x i8*] [i8* bitcast ({ { { { i32 } }, i32, i32, void ()* }, [1 x i8*] }* @scc_info_PrivateMembershipRlwePirResponse_private_5fmembership_5frlwe_2eproto to i8*)] }, align 8
@scc_info_RlweParameters_private_5fmembership_5frlwe_2eproto = hidden global { { { { i32 } }, i32, i32, void ()* }, [1 x i8*] } { { { { i32 } }, i32, i32, void ()* } { { { i32 } } { { i32 } { i32 -1 } }, i32 1, i32 0, void ()* @_ZL71InitDefaultsscc_info_RlweParameters_private_5fmembership_5frlwe_2eprotov }, [1 x i8*] [i8* bitcast ({ { { { i32 } }, i32, i32, void ()* }, [0 x i8*] }* @scc_info_Uint128_private_5fmembership_5frlwe_2eproto to i8*)] }, align 8
@scc_info_RlwePlaintextId_private_5fmembership_5frlwe_2eproto = hidden global { { { { i32 } }, i32, i32, void ()* }, [0 x i8*] } { { { { i32 } }, i32, i32, void ()* } { { { i32 } } { { i32 } { i32 -1 } }, i32 0, i32 0, void ()* @_ZL72InitDefaultsscc_info_RlwePlaintextId_private_5fmembership_5frlwe_2eprotov }, [0 x i8*] zeroinitializer }, align 8
@scc_info_Uint128_private_5fmembership_5frlwe_2eproto = hidden global { { { { i32 } }, i32, i32, void ()* }, [0 x i8*] } { { { { i32 } }, i32, i32, void ()* } { { { i32 } } { { i32 } { i32 -1 } }, i32 0, i32 0, void ()* @_ZL64InitDefaultsscc_info_Uint128_private_5fmembership_5frlwe_2eprotov }, [0 x i8*] zeroinitializer }, align 8
@_ZN18private_membership4rlweL19RlweUseCase_entriesE = internal constant [5 x %"struct.google::protobuf::internal::EnumEntry"] [%"struct.google::protobuf::internal::EnumEntry" <{ %"class.google::protobuf::StringPiece" { i8* getelementptr inbounds ([82 x i8], [82 x i8]* @_ZN18private_membership4rlweL17RlweUseCase_namesE, i64 0, i64 0), i64 17 }, i32 5, [4 x i8] zeroinitializer }>, %"struct.google::protobuf::internal::EnumEntry" <{ %"class.google::protobuf::StringPiece" { i8* getelementptr inbounds ([82 x i8], [82 x i8]* @_ZN18private_membership4rlweL17RlweUseCase_namesE, i64 0, i64 17), i64 23 }, i32 0, [4 x i8] zeroinitializer }>, %"struct.google::protobuf::internal::EnumEntry" <{ %"class.google::protobuf::StringPiece" { i8* getelementptr inbounds ([82 x i8], [82 x i8]* @_ZN18private_membership4rlweL17RlweUseCase_namesE, i64 0, i64 40), i64 13 }, i32 1, [4 x i8] zeroinitializer }>, %"struct.google::protobuf::internal::EnumEntry" <{ %"class.google::protobuf::StringPiece" { i8* getelementptr inbounds ([82 x i8], [82 x i8]* @_ZN18private_membership4rlweL17RlweUseCase_namesE, i64 0, i64 53), i64 14 }, i32 2, [4 x i8] zeroinitializer }>, %"struct.google::protobuf::internal::EnumEntry" <{ %"class.google::protobuf::StringPiece" { i8* getelementptr inbounds ([82 x i8], [82 x i8]* @_ZN18private_membership4rlweL17RlweUseCase_namesE, i64 0, i64 67), i64 14 }, i32 3, [4 x i8] zeroinitializer }>], align 16
@_ZN18private_membership4rlweL17RlweUseCase_namesE = internal constant [82 x i8] c"CROS_DEVICE_STATERLWE_USE_CASE_UNDEFINEDTEST_USE_CASETEST_USE_CASE2TEST_USE_CASE3\00", align 16
@_ZZN18private_membership4rlwe16RlweUseCase_NameENS0_11RlweUseCaseEE5dummy = internal global i8 0, align 1
@_ZGVZN18private_membership4rlwe16RlweUseCase_NameENS0_11RlweUseCaseEE5dummy = internal global i64 0, align 8
@_ZN18private_membership4rlweL29RlweUseCase_entries_by_numberE = internal constant [5 x i32] [i32 1, i32 2, i32 3, i32 4, i32 0], align 16
@_ZN18private_membership4rlweL19RlweUseCase_stringsE = internal global [5 x %"class.google::protobuf::internal::ExplicitlyConstructed.20"] zeroinitializer, align 16
@_ZTVN18private_membership4rlwe32PrivateMembershipRlweOprfRequestE = hidden unnamed_addr constant { [16 x i8*] } { [16 x i8*] [i8* null, i8* null, i8* bitcast (void (%"class.private_membership::rlwe::PrivateMembershipRlweOprfRequest"*)* @_ZN18private_membership4rlwe32PrivateMembershipRlweOprfRequestD2Ev to i8*), i8* bitcast (void (%"class.private_membership::rlwe::PrivateMembershipRlweOprfRequest"*)* @_ZN18private_membership4rlwe32PrivateMembershipRlweOprfRequestD0Ev to i8*), i8* bitcast (void (%"class.std::__1::basic_string"*, %"class.private_membership::rlwe::PrivateMembershipRlweOprfRequest"*)* @_ZNK18private_membership4rlwe32PrivateMembershipRlweOprfRequest11GetTypeNameEv to i8*), i8* bitcast (%"class.private_membership::rlwe::PrivateMembershipRlweOprfRequest"* (%"class.private_membership::rlwe::PrivateMembershipRlweOprfRequest"*)* @_ZNK18private_membership4rlwe32PrivateMembershipRlweOprfRequest3NewEv to i8*), i8* bitcast (%"class.private_membership::rlwe::PrivateMembershipRlweOprfRequest"* (%"class.private_membership::rlwe::PrivateMembershipRlweOprfRequest"*, %"class.google::protobuf::Arena"*)* @_ZNK18private_membership4rlwe32PrivateMembershipRlweOprfRequest3NewEPN6google8protobuf5ArenaE to i8*), i8* bitcast (void (%"class.private_membership::rlwe::PrivateMembershipRlweOprfRequest"*)* @_ZN18private_membership4rlwe32PrivateMembershipRlweOprfRequest5ClearEv to i8*), i8* bitcast (i1 (%"class.private_membership::rlwe::PrivateMembershipRlweOprfRequest"*)* @_ZNK18private_membership4rlwe32PrivateMembershipRlweOprfRequest13IsInitializedEv to i8*), i8* bitcast (void (%"class.std::__1::basic_string"*, %"class.google::protobuf::MessageLite"*)* @_ZNK6google8protobuf11MessageLite25InitializationErrorStringEv to i8*), i8* bitcast (void (%"class.private_membership::rlwe::PrivateMembershipRlweOprfRequest"*, %"class.google::protobuf::MessageLite"*)* @_ZN18private_membership4rlwe32PrivateMembershipRlweOprfRequest21CheckTypeAndMergeFromERKN6google8protobuf11MessageLiteE to i8*), i8* bitcast (i64 (%"class.private_membership::rlwe::PrivateMembershipRlweOprfRequest"*)* @_ZNK18private_membership4rlwe32PrivateMembershipRlweOprfRequest12ByteSizeLongEv to i8*), i8* bitcast (i32 (%"class.private_membership::rlwe::PrivateMembershipRlweOprfRequest"*)* @_ZNK18private_membership4rlwe32PrivateMembershipRlweOprfRequest13GetCachedSizeEv to i8*), i8* bitcast (i8* (%"class.private_membership::rlwe::PrivateMembershipRlweOprfRequest"*, i8*, %"class.google::protobuf::internal::ParseContext"*)* @_ZN18private_membership4rlwe32PrivateMembershipRlweOprfRequest14_InternalParseEPKcPN6google8protobuf8internal12ParseContextE to i8*), i8* bitcast (i8* (%"class.private_membership::rlwe::PrivateMembershipRlweOprfRequest"*, i8*, %"class.google::protobuf::io::EpsCopyOutputStream"*)* @_ZNK18private_membership4rlwe32PrivateMembershipRlweOprfRequest18_InternalSerializeEPhPN6google8protobuf2io19EpsCopyOutputStreamE to i8*), i8* bitcast (i8* (%"class.google::protobuf::MessageLite"*)* @_ZNK6google8protobuf11MessageLite16InternalGetTableEv to i8*)] }, align 8
@.str = private unnamed_addr constant [69 x i8] c"gen/third_party/private_membership/src/private_membership_rlwe.pb.cc\00", align 1
@.str.6 = private unnamed_addr constant [57 x i8] c"private_membership.rlwe.PrivateMembershipRlweOprfRequest\00", align 1
@_ZTVN18private_membership4rlwe33PrivateMembershipRlweOprfResponseE = hidden unnamed_addr constant { [16 x i8*] } { [16 x i8*] [i8* null, i8* null, i8* bitcast (void (%"class.private_membership::rlwe::PrivateMembershipRlweOprfResponse"*)* @_ZN18private_membership4rlwe33PrivateMembershipRlweOprfResponseD2Ev to i8*), i8* bitcast (void (%"class.private_membership::rlwe::PrivateMembershipRlweOprfResponse"*)* @_ZN18private_membership4rlwe33PrivateMembershipRlweOprfResponseD0Ev to i8*), i8* bitcast (void (%"class.std::__1::basic_string"*, %"class.private_membership::rlwe::PrivateMembershipRlweOprfResponse"*)* @_ZNK18private_membership4rlwe33PrivateMembershipRlweOprfResponse11GetTypeNameEv to i8*), i8* bitcast (%"class.private_membership::rlwe::PrivateMembershipRlweOprfResponse"* (%"class.private_membership::rlwe::PrivateMembershipRlweOprfResponse"*)* @_ZNK18private_membership4rlwe33PrivateMembershipRlweOprfResponse3NewEv to i8*), i8* bitcast (%"class.private_membership::rlwe::PrivateMembershipRlweOprfResponse"* (%"class.private_membership::rlwe::PrivateMembershipRlweOprfResponse"*, %"class.google::protobuf::Arena"*)* @_ZNK18private_membership4rlwe33PrivateMembershipRlweOprfResponse3NewEPN6google8protobuf5ArenaE to i8*), i8* bitcast (void (%"class.private_membership::rlwe::PrivateMembershipRlweOprfResponse"*)* @_ZN18private_membership4rlwe33PrivateMembershipRlweOprfResponse5ClearEv to i8*), i8* bitcast (i1 (%"class.private_membership::rlwe::PrivateMembershipRlweOprfResponse"*)* @_ZNK18private_membership4rlwe33PrivateMembershipRlweOprfResponse13IsInitializedEv to i8*), i8* bitcast (void (%"class.std::__1::basic_string"*, %"class.google::protobuf::MessageLite"*)* @_ZNK6google8protobuf11MessageLite25InitializationErrorStringEv to i8*), i8* bitcast (void (%"class.private_membership::rlwe::PrivateMembershipRlweOprfResponse"*, %"class.google::protobuf::MessageLite"*)* @_ZN18private_membership4rlwe33PrivateMembershipRlweOprfResponse21CheckTypeAndMergeFromERKN6google8protobuf11MessageLiteE to i8*), i8* bitcast (i64 (%"class.private_membership::rlwe::PrivateMembershipRlweOprfResponse"*)* @_ZNK18private_membership4rlwe33PrivateMembershipRlweOprfResponse12ByteSizeLongEv to i8*), i8* bitcast (i32 (%"class.private_membership::rlwe::PrivateMembershipRlweOprfResponse"*)* @_ZNK18private_membership4rlwe33PrivateMembershipRlweOprfResponse13GetCachedSizeEv to i8*), i8* bitcast (i8* (%"class.private_membership::rlwe::PrivateMembershipRlweOprfResponse"*, i8*, %"class.google::protobuf::internal::ParseContext"*)* @_ZN18private_membership4rlwe33PrivateMembershipRlweOprfResponse14_InternalParseEPKcPN6google8protobuf8internal12ParseContextE to i8*), i8* bitcast (i8* (%"class.private_membership::rlwe::PrivateMembershipRlweOprfResponse"*, i8*, %"class.google::protobuf::io::EpsCopyOutputStream"*)* @_ZNK18private_membership4rlwe33PrivateMembershipRlweOprfResponse18_InternalSerializeEPhPN6google8protobuf2io19EpsCopyOutputStreamE to i8*), i8* bitcast (i8* (%"class.google::protobuf::MessageLite"*)* @_ZNK6google8protobuf11MessageLite16InternalGetTableEv to i8*)] }, align 8
@.str.7 = private unnamed_addr constant [58 x i8] c"private_membership.rlwe.PrivateMembershipRlweOprfResponse\00", align 1
@_ZTVN18private_membership4rlwe33PrivateMembershipRlweQueryRequestE = hidden unnamed_addr constant { [16 x i8*] } { [16 x i8*] [i8* null, i8* null, i8* bitcast (void (%"class.private_membership::rlwe::PrivateMembershipRlweQueryRequest"*)* @_ZN18private_membership4rlwe33PrivateMembershipRlweQueryRequestD2Ev to i8*), i8* bitcast (void (%"class.private_membership::rlwe::PrivateMembershipRlweQueryRequest"*)* @_ZN18private_membership4rlwe33PrivateMembershipRlweQueryRequestD0Ev to i8*), i8* bitcast (void (%"class.std::__1::basic_string"*, %"class.private_membership::rlwe::PrivateMembershipRlweQueryRequest"*)* @_ZNK18private_membership4rlwe33PrivateMembershipRlweQueryRequest11GetTypeNameEv to i8*), i8* bitcast (%"class.private_membership::rlwe::PrivateMembershipRlweQueryRequest"* (%"class.private_membership::rlwe::PrivateMembershipRlweQueryRequest"*)* @_ZNK18private_membership4rlwe33PrivateMembershipRlweQueryRequest3NewEv to i8*), i8* bitcast (%"class.private_membership::rlwe::PrivateMembershipRlweQueryRequest"* (%"class.private_membership::rlwe::PrivateMembershipRlweQueryRequest"*, %"class.google::protobuf::Arena"*)* @_ZNK18private_membership4rlwe33PrivateMembershipRlweQueryRequest3NewEPN6google8protobuf5ArenaE to i8*), i8* bitcast (void (%"class.private_membership::rlwe::PrivateMembershipRlweQueryRequest"*)* @_ZN18private_membership4rlwe33PrivateMembershipRlweQueryRequest5ClearEv to i8*), i8* bitcast (i1 (%"class.private_membership::rlwe::PrivateMembershipRlweQueryRequest"*)* @_ZNK18private_membership4rlwe33PrivateMembershipRlweQueryRequest13IsInitializedEv to i8*), i8* bitcast (void (%"class.std::__1::basic_string"*, %"class.google::protobuf::MessageLite"*)* @_ZNK6google8protobuf11MessageLite25InitializationErrorStringEv to i8*), i8* bitcast (void (%"class.private_membership::rlwe::PrivateMembershipRlweQueryRequest"*, %"class.google::protobuf::MessageLite"*)* @_ZN18private_membership4rlwe33PrivateMembershipRlweQueryRequest21CheckTypeAndMergeFromERKN6google8protobuf11MessageLiteE to i8*), i8* bitcast (i64 (%"class.private_membership::rlwe::PrivateMembershipRlweQueryRequest"*)* @_ZNK18private_membership4rlwe33PrivateMembershipRlweQueryRequest12ByteSizeLongEv to i8*), i8* bitcast (i32 (%"class.private_membership::rlwe::PrivateMembershipRlweQueryRequest"*)* @_ZNK18private_membership4rlwe33PrivateMembershipRlweQueryRequest13GetCachedSizeEv to i8*), i8* bitcast (i8* (%"class.private_membership::rlwe::PrivateMembershipRlweQueryRequest"*, i8*, %"class.google::protobuf::internal::ParseContext"*)* @_ZN18private_membership4rlwe33PrivateMembershipRlweQueryRequest14_InternalParseEPKcPN6google8protobuf8internal12ParseContextE to i8*), i8* bitcast (i8* (%"class.private_membership::rlwe::PrivateMembershipRlweQueryRequest"*, i8*, %"class.google::protobuf::io::EpsCopyOutputStream"*)* @_ZNK18private_membership4rlwe33PrivateMembershipRlweQueryRequest18_InternalSerializeEPhPN6google8protobuf2io19EpsCopyOutputStreamE to i8*), i8* bitcast (i8* (%"class.google::protobuf::MessageLite"*)* @_ZNK6google8protobuf11MessageLite16InternalGetTableEv to i8*)] }, align 8
@.str.8 = private unnamed_addr constant [58 x i8] c"private_membership.rlwe.PrivateMembershipRlweQueryRequest\00", align 1
@_ZTVN18private_membership4rlwe34PrivateMembershipRlweQueryResponseE = hidden unnamed_addr constant { [16 x i8*] } { [16 x i8*] [i8* null, i8* null, i8* bitcast (void (%"class.private_membership::rlwe::PrivateMembershipRlweQueryResponse"*)* @_ZN18private_membership4rlwe34PrivateMembershipRlweQueryResponseD2Ev to i8*), i8* bitcast (void (%"class.private_membership::rlwe::PrivateMembershipRlweQueryResponse"*)* @_ZN18private_membership4rlwe34PrivateMembershipRlweQueryResponseD0Ev to i8*), i8* bitcast (void (%"class.std::__1::basic_string"*, %"class.private_membership::rlwe::PrivateMembershipRlweQueryResponse"*)* @_ZNK18private_membership4rlwe34PrivateMembershipRlweQueryResponse11GetTypeNameEv to i8*), i8* bitcast (%"class.private_membership::rlwe::PrivateMembershipRlweQueryResponse"* (%"class.private_membership::rlwe::PrivateMembershipRlweQueryResponse"*)* @_ZNK18private_membership4rlwe34PrivateMembershipRlweQueryResponse3NewEv to i8*), i8* bitcast (%"class.private_membership::rlwe::PrivateMembershipRlweQueryResponse"* (%"class.private_membership::rlwe::PrivateMembershipRlweQueryResponse"*, %"class.google::protobuf::Arena"*)* @_ZNK18private_membership4rlwe34PrivateMembershipRlweQueryResponse3NewEPN6google8protobuf5ArenaE to i8*), i8* bitcast (void (%"class.private_membership::rlwe::PrivateMembershipRlweQueryResponse"*)* @_ZN18private_membership4rlwe34PrivateMembershipRlweQueryResponse5ClearEv to i8*), i8* bitcast (i1 (%"class.private_membership::rlwe::PrivateMembershipRlweQueryResponse"*)* @_ZNK18private_membership4rlwe34PrivateMembershipRlweQueryResponse13IsInitializedEv to i8*), i8* bitcast (void (%"class.std::__1::basic_string"*, %"class.google::protobuf::MessageLite"*)* @_ZNK6google8protobuf11MessageLite25InitializationErrorStringEv to i8*), i8* bitcast (void (%"class.private_membership::rlwe::PrivateMembershipRlweQueryResponse"*, %"class.google::protobuf::MessageLite"*)* @_ZN18private_membership4rlwe34PrivateMembershipRlweQueryResponse21CheckTypeAndMergeFromERKN6google8protobuf11MessageLiteE to i8*), i8* bitcast (i64 (%"class.private_membership::rlwe::PrivateMembershipRlweQueryResponse"*)* @_ZNK18private_membership4rlwe34PrivateMembershipRlweQueryResponse12ByteSizeLongEv to i8*), i8* bitcast (i32 (%"class.private_membership::rlwe::PrivateMembershipRlweQueryResponse"*)* @_ZNK18private_membership4rlwe34PrivateMembershipRlweQueryResponse13GetCachedSizeEv to i8*), i8* bitcast (i8* (%"class.private_membership::rlwe::PrivateMembershipRlweQueryResponse"*, i8*, %"class.google::protobuf::internal::ParseContext"*)* @_ZN18private_membership4rlwe34PrivateMembershipRlweQueryResponse14_InternalParseEPKcPN6google8protobuf8internal12ParseContextE to i8*), i8* bitcast (i8* (%"class.private_membership::rlwe::PrivateMembershipRlweQueryResponse"*, i8*, %"class.google::protobuf::io::EpsCopyOutputStream"*)* @_ZNK18private_membership4rlwe34PrivateMembershipRlweQueryResponse18_InternalSerializeEPhPN6google8protobuf2io19EpsCopyOutputStreamE to i8*), i8* bitcast (i8* (%"class.google::protobuf::MessageLite"*)* @_ZNK6google8protobuf11MessageLite16InternalGetTableEv to i8*)] }, align 8
@.str.9 = private unnamed_addr constant [59 x i8] c"private_membership.rlwe.PrivateMembershipRlweQueryResponse\00", align 1
@_ZTVN18private_membership4rlwe15RlwePlaintextIdE = hidden unnamed_addr constant { [16 x i8*] } { [16 x i8*] [i8* null, i8* null, i8* bitcast (void (%"class.private_membership::rlwe::RlwePlaintextId"*)* @_ZN18private_membership4rlwe15RlwePlaintextIdD2Ev to i8*), i8* bitcast (void (%"class.private_membership::rlwe::RlwePlaintextId"*)* @_ZN18private_membership4rlwe15RlwePlaintextIdD0Ev to i8*), i8* bitcast (void (%"class.std::__1::basic_string"*, %"class.private_membership::rlwe::RlwePlaintextId"*)* @_ZNK18private_membership4rlwe15RlwePlaintextId11GetTypeNameEv to i8*), i8* bitcast (%"class.private_membership::rlwe::RlwePlaintextId"* (%"class.private_membership::rlwe::RlwePlaintextId"*)* @_ZNK18private_membership4rlwe15RlwePlaintextId3NewEv to i8*), i8* bitcast (%"class.private_membership::rlwe::RlwePlaintextId"* (%"class.private_membership::rlwe::RlwePlaintextId"*, %"class.google::protobuf::Arena"*)* @_ZNK18private_membership4rlwe15RlwePlaintextId3NewEPN6google8protobuf5ArenaE to i8*), i8* bitcast (void (%"class.private_membership::rlwe::RlwePlaintextId"*)* @_ZN18private_membership4rlwe15RlwePlaintextId5ClearEv to i8*), i8* bitcast (i1 (%"class.private_membership::rlwe::RlwePlaintextId"*)* @_ZNK18private_membership4rlwe15RlwePlaintextId13IsInitializedEv to i8*), i8* bitcast (void (%"class.std::__1::basic_string"*, %"class.google::protobuf::MessageLite"*)* @_ZNK6google8protobuf11MessageLite25InitializationErrorStringEv to i8*), i8* bitcast (void (%"class.private_membership::rlwe::RlwePlaintextId"*, %"class.google::protobuf::MessageLite"*)* @_ZN18private_membership4rlwe15RlwePlaintextId21CheckTypeAndMergeFromERKN6google8protobuf11MessageLiteE to i8*), i8* bitcast (i64 (%"class.private_membership::rlwe::RlwePlaintextId"*)* @_ZNK18private_membership4rlwe15RlwePlaintextId12ByteSizeLongEv to i8*), i8* bitcast (i32 (%"class.private_membership::rlwe::RlwePlaintextId"*)* @_ZNK18private_membership4rlwe15RlwePlaintextId13GetCachedSizeEv to i8*), i8* bitcast (i8* (%"class.private_membership::rlwe::RlwePlaintextId"*, i8*, %"class.google::protobuf::internal::ParseContext"*)* @_ZN18private_membership4rlwe15RlwePlaintextId14_InternalParseEPKcPN6google8protobuf8internal12ParseContextE to i8*), i8* bitcast (i8* (%"class.private_membership::rlwe::RlwePlaintextId"*, i8*, %"class.google::protobuf::io::EpsCopyOutputStream"*)* @_ZNK18private_membership4rlwe15RlwePlaintextId18_InternalSerializeEPhPN6google8protobuf2io19EpsCopyOutputStreamE to i8*), i8* bitcast (i8* (%"class.google::protobuf::MessageLite"*)* @_ZNK6google8protobuf11MessageLite16InternalGetTableEv to i8*)] }, align 8
@.str.10 = private unnamed_addr constant [57 x i8] c"private_membership.rlwe.RlwePlaintextId.non_sensitive_id\00", align 1
@.str.11 = private unnamed_addr constant [53 x i8] c"private_membership.rlwe.RlwePlaintextId.sensitive_id\00", align 1
@.str.12 = private unnamed_addr constant [40 x i8] c"private_membership.rlwe.RlwePlaintextId\00", align 1
@_ZTVN18private_membership4rlwe23HashedBucketsParametersE = hidden unnamed_addr constant { [16 x i8*] } { [16 x i8*] [i8* null, i8* null, i8* bitcast (void (%"class.private_membership::rlwe::HashedBucketsParameters"*)* @_ZN18private_membership4rlwe23HashedBucketsParametersD2Ev to i8*), i8* bitcast (void (%"class.private_membership::rlwe::HashedBucketsParameters"*)* @_ZN18private_membership4rlwe23HashedBucketsParametersD0Ev to i8*), i8* bitcast (void (%"class.std::__1::basic_string"*, %"class.private_membership::rlwe::HashedBucketsParameters"*)* @_ZNK18private_membership4rlwe23HashedBucketsParameters11GetTypeNameEv to i8*), i8* bitcast (%"class.private_membership::rlwe::HashedBucketsParameters"* (%"class.private_membership::rlwe::HashedBucketsParameters"*)* @_ZNK18private_membership4rlwe23HashedBucketsParameters3NewEv to i8*), i8* bitcast (%"class.private_membership::rlwe::HashedBucketsParameters"* (%"class.private_membership::rlwe::HashedBucketsParameters"*, %"class.google::protobuf::Arena"*)* @_ZNK18private_membership4rlwe23HashedBucketsParameters3NewEPN6google8protobuf5ArenaE to i8*), i8* bitcast (void (%"class.private_membership::rlwe::HashedBucketsParameters"*)* @_ZN18private_membership4rlwe23HashedBucketsParameters5ClearEv to i8*), i8* bitcast (i1 (%"class.private_membership::rlwe::HashedBucketsParameters"*)* @_ZNK18private_membership4rlwe23HashedBucketsParameters13IsInitializedEv to i8*), i8* bitcast (void (%"class.std::__1::basic_string"*, %"class.google::protobuf::MessageLite"*)* @_ZNK6google8protobuf11MessageLite25InitializationErrorStringEv to i8*), i8* bitcast (void (%"class.private_membership::rlwe::HashedBucketsParameters"*, %"class.google::protobuf::MessageLite"*)* @_ZN18private_membership4rlwe23HashedBucketsParameters21CheckTypeAndMergeFromERKN6google8protobuf11MessageLiteE to i8*), i8* bitcast (i64 (%"class.private_membership::rlwe::HashedBucketsParameters"*)* @_ZNK18private_membership4rlwe23HashedBucketsParameters12ByteSizeLongEv to i8*), i8* bitcast (i32 (%"class.private_membership::rlwe::HashedBucketsParameters"*)* @_ZNK18private_membership4rlwe23HashedBucketsParameters13GetCachedSizeEv to i8*), i8* bitcast (i8* (%"class.private_membership::rlwe::HashedBucketsParameters"*, i8*, %"class.google::protobuf::internal::ParseContext"*)* @_ZN18private_membership4rlwe23HashedBucketsParameters14_InternalParseEPKcPN6google8protobuf8internal12ParseContextE to i8*), i8* bitcast (i8* (%"class.private_membership::rlwe::HashedBucketsParameters"*, i8*, %"class.google::protobuf::io::EpsCopyOutputStream"*)* @_ZNK18private_membership4rlwe23HashedBucketsParameters18_InternalSerializeEPhPN6google8protobuf2io19EpsCopyOutputStreamE to i8*), i8* bitcast (i8* (%"class.google::protobuf::MessageLite"*)* @_ZNK6google8protobuf11MessageLite16InternalGetTableEv to i8*)] }, align 8
@.str.13 = private unnamed_addr constant [48 x i8] c"private_membership.rlwe.HashedBucketsParameters\00", align 1
@_ZTVN18private_membership4rlwe26EncryptedBucketsParametersE = hidden unnamed_addr constant { [16 x i8*] } { [16 x i8*] [i8* null, i8* null, i8* bitcast (void (%"class.private_membership::rlwe::EncryptedBucketsParameters"*)* @_ZN18private_membership4rlwe26EncryptedBucketsParametersD2Ev to i8*), i8* bitcast (void (%"class.private_membership::rlwe::EncryptedBucketsParameters"*)* @_ZN18private_membership4rlwe26EncryptedBucketsParametersD0Ev to i8*), i8* bitcast (void (%"class.std::__1::basic_string"*, %"class.private_membership::rlwe::EncryptedBucketsParameters"*)* @_ZNK18private_membership4rlwe26EncryptedBucketsParameters11GetTypeNameEv to i8*), i8* bitcast (%"class.private_membership::rlwe::EncryptedBucketsParameters"* (%"class.private_membership::rlwe::EncryptedBucketsParameters"*)* @_ZNK18private_membership4rlwe26EncryptedBucketsParameters3NewEv to i8*), i8* bitcast (%"class.private_membership::rlwe::EncryptedBucketsParameters"* (%"class.private_membership::rlwe::EncryptedBucketsParameters"*, %"class.google::protobuf::Arena"*)* @_ZNK18private_membership4rlwe26EncryptedBucketsParameters3NewEPN6google8protobuf5ArenaE to i8*), i8* bitcast (void (%"class.private_membership::rlwe::EncryptedBucketsParameters"*)* @_ZN18private_membership4rlwe26EncryptedBucketsParameters5ClearEv to i8*), i8* bitcast (i1 (%"class.private_membership::rlwe::EncryptedBucketsParameters"*)* @_ZNK18private_membership4rlwe26EncryptedBucketsParameters13IsInitializedEv to i8*), i8* bitcast (void (%"class.std::__1::basic_string"*, %"class.google::protobuf::MessageLite"*)* @_ZNK6google8protobuf11MessageLite25InitializationErrorStringEv to i8*), i8* bitcast (void (%"class.private_membership::rlwe::EncryptedBucketsParameters"*, %"class.google::protobuf::MessageLite"*)* @_ZN18private_membership4rlwe26EncryptedBucketsParameters21CheckTypeAndMergeFromERKN6google8protobuf11MessageLiteE to i8*), i8* bitcast (i64 (%"class.private_membership::rlwe::EncryptedBucketsParameters"*)* @_ZNK18private_membership4rlwe26EncryptedBucketsParameters12ByteSizeLongEv to i8*), i8* bitcast (i32 (%"class.private_membership::rlwe::EncryptedBucketsParameters"*)* @_ZNK18private_membership4rlwe26EncryptedBucketsParameters13GetCachedSizeEv to i8*), i8* bitcast (i8* (%"class.private_membership::rlwe::EncryptedBucketsParameters"*, i8*, %"class.google::protobuf::internal::ParseContext"*)* @_ZN18private_membership4rlwe26EncryptedBucketsParameters14_InternalParseEPKcPN6google8protobuf8internal12ParseContextE to i8*), i8* bitcast (i8* (%"class.private_membership::rlwe::EncryptedBucketsParameters"*, i8*, %"class.google::protobuf::io::EpsCopyOutputStream"*)* @_ZNK18private_membership4rlwe26EncryptedBucketsParameters18_InternalSerializeEPhPN6google8protobuf2io19EpsCopyOutputStreamE to i8*), i8* bitcast (i8* (%"class.google::protobuf::MessageLite"*)* @_ZNK6google8protobuf11MessageLite16InternalGetTableEv to i8*)] }, align 8
@.str.14 = private unnamed_addr constant [51 x i8] c"private_membership.rlwe.EncryptedBucketsParameters\00", align 1
@_ZTVN18private_membership4rlwe14RlweParametersE = hidden unnamed_addr constant { [16 x i8*] } { [16 x i8*] [i8* null, i8* null, i8* bitcast (void (%"class.private_membership::rlwe::RlweParameters"*)* @_ZN18private_membership4rlwe14RlweParametersD2Ev to i8*), i8* bitcast (void (%"class.private_membership::rlwe::RlweParameters"*)* @_ZN18private_membership4rlwe14RlweParametersD0Ev to i8*), i8* bitcast (void (%"class.std::__1::basic_string"*, %"class.private_membership::rlwe::RlweParameters"*)* @_ZNK18private_membership4rlwe14RlweParameters11GetTypeNameEv to i8*), i8* bitcast (%"class.private_membership::rlwe::RlweParameters"* (%"class.private_membership::rlwe::RlweParameters"*)* @_ZNK18private_membership4rlwe14RlweParameters3NewEv to i8*), i8* bitcast (%"class.private_membership::rlwe::RlweParameters"* (%"class.private_membership::rlwe::RlweParameters"*, %"class.google::protobuf::Arena"*)* @_ZNK18private_membership4rlwe14RlweParameters3NewEPN6google8protobuf5ArenaE to i8*), i8* bitcast (void (%"class.private_membership::rlwe::RlweParameters"*)* @_ZN18private_membership4rlwe14RlweParameters5ClearEv to i8*), i8* bitcast (i1 (%"class.private_membership::rlwe::RlweParameters"*)* @_ZNK18private_membership4rlwe14RlweParameters13IsInitializedEv to i8*), i8* bitcast (void (%"class.std::__1::basic_string"*, %"class.google::protobuf::MessageLite"*)* @_ZNK6google8protobuf11MessageLite25InitializationErrorStringEv to i8*), i8* bitcast (void (%"class.private_membership::rlwe::RlweParameters"*, %"class.google::protobuf::MessageLite"*)* @_ZN18private_membership4rlwe14RlweParameters21CheckTypeAndMergeFromERKN6google8protobuf11MessageLiteE to i8*), i8* bitcast (i64 (%"class.private_membership::rlwe::RlweParameters"*)* @_ZNK18private_membership4rlwe14RlweParameters12ByteSizeLongEv to i8*), i8* bitcast (i32 (%"class.private_membership::rlwe::RlweParameters"*)* @_ZNK18private_membership4rlwe14RlweParameters13GetCachedSizeEv to i8*), i8* bitcast (i8* (%"class.private_membership::rlwe::RlweParameters"*, i8*, %"class.google::protobuf::internal::ParseContext"*)* @_ZN18private_membership4rlwe14RlweParameters14_InternalParseEPKcPN6google8protobuf8internal12ParseContextE to i8*), i8* bitcast (i8* (%"class.private_membership::rlwe::RlweParameters"*, i8*, %"class.google::protobuf::io::EpsCopyOutputStream"*)* @_ZNK18private_membership4rlwe14RlweParameters18_InternalSerializeEPhPN6google8protobuf2io19EpsCopyOutputStreamE to i8*), i8* bitcast (i8* (%"class.google::protobuf::MessageLite"*)* @_ZNK6google8protobuf11MessageLite16InternalGetTableEv to i8*)] }, align 8
@.str.15 = private unnamed_addr constant [39 x i8] c"private_membership.rlwe.RlweParameters\00", align 1
@_ZTVN18private_membership4rlwe7Uint128E = hidden unnamed_addr constant { [16 x i8*] } { [16 x i8*] [i8* null, i8* null, i8* bitcast (void (%"class.private_membership::rlwe::Uint128"*)* @_ZN18private_membership4rlwe7Uint128D2Ev to i8*), i8* bitcast (void (%"class.private_membership::rlwe::Uint128"*)* @_ZN18private_membership4rlwe7Uint128D0Ev to i8*), i8* bitcast (void (%"class.std::__1::basic_string"*, %"class.private_membership::rlwe::Uint128"*)* @_ZNK18private_membership4rlwe7Uint12811GetTypeNameEv to i8*), i8* bitcast (%"class.private_membership::rlwe::Uint128"* (%"class.private_membership::rlwe::Uint128"*)* @_ZNK18private_membership4rlwe7Uint1283NewEv to i8*), i8* bitcast (%"class.private_membership::rlwe::Uint128"* (%"class.private_membership::rlwe::Uint128"*, %"class.google::protobuf::Arena"*)* @_ZNK18private_membership4rlwe7Uint1283NewEPN6google8protobuf5ArenaE to i8*), i8* bitcast (void (%"class.private_membership::rlwe::Uint128"*)* @_ZN18private_membership4rlwe7Uint1285ClearEv to i8*), i8* bitcast (i1 (%"class.private_membership::rlwe::Uint128"*)* @_ZNK18private_membership4rlwe7Uint12813IsInitializedEv to i8*), i8* bitcast (void (%"class.std::__1::basic_string"*, %"class.google::protobuf::MessageLite"*)* @_ZNK6google8protobuf11MessageLite25InitializationErrorStringEv to i8*), i8* bitcast (void (%"class.private_membership::rlwe::Uint128"*, %"class.google::protobuf::MessageLite"*)* @_ZN18private_membership4rlwe7Uint12821CheckTypeAndMergeFromERKN6google8protobuf11MessageLiteE to i8*), i8* bitcast (i64 (%"class.private_membership::rlwe::Uint128"*)* @_ZNK18private_membership4rlwe7Uint12812ByteSizeLongEv to i8*), i8* bitcast (i32 (%"class.private_membership::rlwe::Uint128"*)* @_ZNK18private_membership4rlwe7Uint12813GetCachedSizeEv to i8*), i8* bitcast (i8* (%"class.private_membership::rlwe::Uint128"*, i8*, %"class.google::protobuf::internal::ParseContext"*)* @_ZN18private_membership4rlwe7Uint12814_InternalParseEPKcPN6google8protobuf8internal12ParseContextE to i8*), i8* bitcast (i8* (%"class.private_membership::rlwe::Uint128"*, i8*, %"class.google::protobuf::io::EpsCopyOutputStream"*)* @_ZNK18private_membership4rlwe7Uint12818_InternalSerializeEPhPN6google8protobuf2io19EpsCopyOutputStreamE to i8*), i8* bitcast (i8* (%"class.google::protobuf::MessageLite"*)* @_ZNK6google8protobuf11MessageLite16InternalGetTableEv to i8*)] }, align 8
@.str.16 = private unnamed_addr constant [32 x i8] c"private_membership.rlwe.Uint128\00", align 1
@_ZTVN18private_membership4rlwe41PrivateMembershipRlweQuery_HashedBucketIdE = hidden unnamed_addr constant { [16 x i8*] } { [16 x i8*] [i8* null, i8* null, i8* bitcast (void (%"class.private_membership::rlwe::PrivateMembershipRlweQuery_HashedBucketId"*)* @_ZN18private_membership4rlwe41PrivateMembershipRlweQuery_HashedBucketIdD2Ev to i8*), i8* bitcast (void (%"class.private_membership::rlwe::PrivateMembershipRlweQuery_HashedBucketId"*)* @_ZN18private_membership4rlwe41PrivateMembershipRlweQuery_HashedBucketIdD0Ev to i8*), i8* bitcast (void (%"class.std::__1::basic_string"*, %"class.private_membership::rlwe::PrivateMembershipRlweQuery_HashedBucketId"*)* @_ZNK18private_membership4rlwe41PrivateMembershipRlweQuery_HashedBucketId11GetTypeNameEv to i8*), i8* bitcast (%"class.private_membership::rlwe::PrivateMembershipRlweQuery_HashedBucketId"* (%"class.private_membership::rlwe::PrivateMembershipRlweQuery_HashedBucketId"*)* @_ZNK18private_membership4rlwe41PrivateMembershipRlweQuery_HashedBucketId3NewEv to i8*), i8* bitcast (%"class.private_membership::rlwe::PrivateMembershipRlweQuery_HashedBucketId"* (%"class.private_membership::rlwe::PrivateMembershipRlweQuery_HashedBucketId"*, %"class.google::protobuf::Arena"*)* @_ZNK18private_membership4rlwe41PrivateMembershipRlweQuery_HashedBucketId3NewEPN6google8protobuf5ArenaE to i8*), i8* bitcast (void (%"class.private_membership::rlwe::PrivateMembershipRlweQuery_HashedBucketId"*)* @_ZN18private_membership4rlwe41PrivateMembershipRlweQuery_HashedBucketId5ClearEv to i8*), i8* bitcast (i1 (%"class.private_membership::rlwe::PrivateMembershipRlweQuery_HashedBucketId"*)* @_ZNK18private_membership4rlwe41PrivateMembershipRlweQuery_HashedBucketId13IsInitializedEv to i8*), i8* bitcast (void (%"class.std::__1::basic_string"*, %"class.google::protobuf::MessageLite"*)* @_ZNK6google8protobuf11MessageLite25InitializationErrorStringEv to i8*), i8* bitcast (void (%"class.private_membership::rlwe::PrivateMembershipRlweQuery_HashedBucketId"*, %"class.google::protobuf::MessageLite"*)* @_ZN18private_membership4rlwe41PrivateMembershipRlweQuery_HashedBucketId21CheckTypeAndMergeFromERKN6google8protobuf11MessageLiteE to i8*), i8* bitcast (i64 (%"class.private_membership::rlwe::PrivateMembershipRlweQuery_HashedBucketId"*)* @_ZNK18private_membership4rlwe41PrivateMembershipRlweQuery_HashedBucketId12ByteSizeLongEv to i8*), i8* bitcast (i32 (%"class.private_membership::rlwe::PrivateMembershipRlweQuery_HashedBucketId"*)* @_ZNK18private_membership4rlwe41PrivateMembershipRlweQuery_HashedBucketId13GetCachedSizeEv to i8*), i8* bitcast (i8* (%"class.private_membership::rlwe::PrivateMembershipRlweQuery_HashedBucketId"*, i8*, %"class.google::protobuf::internal::ParseContext"*)* @_ZN18private_membership4rlwe41PrivateMembershipRlweQuery_HashedBucketId14_InternalParseEPKcPN6google8protobuf8internal12ParseContextE to i8*), i8* bitcast (i8* (%"class.private_membership::rlwe::PrivateMembershipRlweQuery_HashedBucketId"*, i8*, %"class.google::protobuf::io::EpsCopyOutputStream"*)* @_ZNK18private_membership4rlwe41PrivateMembershipRlweQuery_HashedBucketId18_InternalSerializeEPhPN6google8protobuf2io19EpsCopyOutputStreamE to i8*), i8* bitcast (i8* (%"class.google::protobuf::MessageLite"*)* @_ZNK6google8protobuf11MessageLite16InternalGetTableEv to i8*)] }, align 8
@.str.17 = private unnamed_addr constant [66 x i8] c"private_membership.rlwe.PrivateMembershipRlweQuery.HashedBucketId\00", align 1
@_ZTVN18private_membership4rlwe26PrivateMembershipRlweQueryE = hidden unnamed_addr constant { [16 x i8*] } { [16 x i8*] [i8* null, i8* null, i8* bitcast (void (%"class.private_membership::rlwe::PrivateMembershipRlweQuery"*)* @_ZN18private_membership4rlwe26PrivateMembershipRlweQueryD2Ev to i8*), i8* bitcast (void (%"class.private_membership::rlwe::PrivateMembershipRlweQuery"*)* @_ZN18private_membership4rlwe26PrivateMembershipRlweQueryD0Ev to i8*), i8* bitcast (void (%"class.std::__1::basic_string"*, %"class.private_membership::rlwe::PrivateMembershipRlweQuery"*)* @_ZNK18private_membership4rlwe26PrivateMembershipRlweQuery11GetTypeNameEv to i8*), i8* bitcast (%"class.private_membership::rlwe::PrivateMembershipRlweQuery"* (%"class.private_membership::rlwe::PrivateMembershipRlweQuery"*)* @_ZNK18private_membership4rlwe26PrivateMembershipRlweQuery3NewEv to i8*), i8* bitcast (%"class.private_membership::rlwe::PrivateMembershipRlweQuery"* (%"class.private_membership::rlwe::PrivateMembershipRlweQuery"*, %"class.google::protobuf::Arena"*)* @_ZNK18private_membership4rlwe26PrivateMembershipRlweQuery3NewEPN6google8protobuf5ArenaE to i8*), i8* bitcast (void (%"class.private_membership::rlwe::PrivateMembershipRlweQuery"*)* @_ZN18private_membership4rlwe26PrivateMembershipRlweQuery5ClearEv to i8*), i8* bitcast (i1 (%"class.private_membership::rlwe::PrivateMembershipRlweQuery"*)* @_ZNK18private_membership4rlwe26PrivateMembershipRlweQuery13IsInitializedEv to i8*), i8* bitcast (void (%"class.std::__1::basic_string"*, %"class.google::protobuf::MessageLite"*)* @_ZNK6google8protobuf11MessageLite25InitializationErrorStringEv to i8*), i8* bitcast (void (%"class.private_membership::rlwe::PrivateMembershipRlweQuery"*, %"class.google::protobuf::MessageLite"*)* @_ZN18private_membership4rlwe26PrivateMembershipRlweQuery21CheckTypeAndMergeFromERKN6google8protobuf11MessageLiteE to i8*), i8* bitcast (i64 (%"class.private_membership::rlwe::PrivateMembershipRlweQuery"*)* @_ZNK18private_membership4rlwe26PrivateMembershipRlweQuery12ByteSizeLongEv to i8*), i8* bitcast (i32 (%"class.private_membership::rlwe::PrivateMembershipRlweQuery"*)* @_ZNK18private_membership4rlwe26PrivateMembershipRlweQuery13GetCachedSizeEv to i8*), i8* bitcast (i8* (%"class.private_membership::rlwe::PrivateMembershipRlweQuery"*, i8*, %"class.google::protobuf::internal::ParseContext"*)* @_ZN18private_membership4rlwe26PrivateMembershipRlweQuery14_InternalParseEPKcPN6google8protobuf8internal12ParseContextE to i8*), i8* bitcast (i8* (%"class.private_membership::rlwe::PrivateMembershipRlweQuery"*, i8*, %"class.google::protobuf::io::EpsCopyOutputStream"*)* @_ZNK18private_membership4rlwe26PrivateMembershipRlweQuery18_InternalSerializeEPhPN6google8protobuf2io19EpsCopyOutputStreamE to i8*), i8* bitcast (i8* (%"class.google::protobuf::MessageLite"*)* @_ZNK6google8protobuf11MessageLite16InternalGetTableEv to i8*)] }, align 8
@.str.18 = private unnamed_addr constant [51 x i8] c"private_membership.rlwe.PrivateMembershipRlweQuery\00", align 1
@_ZTVN18private_membership4rlwe32PrivateMembershipRlwePirResponseE = hidden unnamed_addr constant { [16 x i8*] } { [16 x i8*] [i8* null, i8* null, i8* bitcast (void (%"class.private_membership::rlwe::PrivateMembershipRlwePirResponse"*)* @_ZN18private_membership4rlwe32PrivateMembershipRlwePirResponseD2Ev to i8*), i8* bitcast (void (%"class.private_membership::rlwe::PrivateMembershipRlwePirResponse"*)* @_ZN18private_membership4rlwe32PrivateMembershipRlwePirResponseD0Ev to i8*), i8* bitcast (void (%"class.std::__1::basic_string"*, %"class.private_membership::rlwe::PrivateMembershipRlwePirResponse"*)* @_ZNK18private_membership4rlwe32PrivateMembershipRlwePirResponse11GetTypeNameEv to i8*), i8* bitcast (%"class.private_membership::rlwe::PrivateMembershipRlwePirResponse"* (%"class.private_membership::rlwe::PrivateMembershipRlwePirResponse"*)* @_ZNK18private_membership4rlwe32PrivateMembershipRlwePirResponse3NewEv to i8*), i8* bitcast (%"class.private_membership::rlwe::PrivateMembershipRlwePirResponse"* (%"class.private_membership::rlwe::PrivateMembershipRlwePirResponse"*, %"class.google::protobuf::Arena"*)* @_ZNK18private_membership4rlwe32PrivateMembershipRlwePirResponse3NewEPN6google8protobuf5ArenaE to i8*), i8* bitcast (void (%"class.private_membership::rlwe::PrivateMembershipRlwePirResponse"*)* @_ZN18private_membership4rlwe32PrivateMembershipRlwePirResponse5ClearEv to i8*), i8* bitcast (i1 (%"class.private_membership::rlwe::PrivateMembershipRlwePirResponse"*)* @_ZNK18private_membership4rlwe32PrivateMembershipRlwePirResponse13IsInitializedEv to i8*), i8* bitcast (void (%"class.std::__1::basic_string"*, %"class.google::protobuf::MessageLite"*)* @_ZNK6google8protobuf11MessageLite25InitializationErrorStringEv to i8*), i8* bitcast (void (%"class.private_membership::rlwe::PrivateMembershipRlwePirResponse"*, %"class.google::protobuf::MessageLite"*)* @_ZN18private_membership4rlwe32PrivateMembershipRlwePirResponse21CheckTypeAndMergeFromERKN6google8protobuf11MessageLiteE to i8*), i8* bitcast (i64 (%"class.private_membership::rlwe::PrivateMembershipRlwePirResponse"*)* @_ZNK18private_membership4rlwe32PrivateMembershipRlwePirResponse12ByteSizeLongEv to i8*), i8* bitcast (i32 (%"class.private_membership::rlwe::PrivateMembershipRlwePirResponse"*)* @_ZNK18private_membership4rlwe32PrivateMembershipRlwePirResponse13GetCachedSizeEv to i8*), i8* bitcast (i8* (%"class.private_membership::rlwe::PrivateMembershipRlwePirResponse"*, i8*, %"class.google::protobuf::internal::ParseContext"*)* @_ZN18private_membership4rlwe32PrivateMembershipRlwePirResponse14_InternalParseEPKcPN6google8protobuf8internal12ParseContextE to i8*), i8* bitcast (i8* (%"class.private_membership::rlwe::PrivateMembershipRlwePirResponse"*, i8*, %"class.google::protobuf::io::EpsCopyOutputStream"*)* @_ZNK18private_membership4rlwe32PrivateMembershipRlwePirResponse18_InternalSerializeEPhPN6google8protobuf2io19EpsCopyOutputStreamE to i8*), i8* bitcast (i8* (%"class.google::protobuf::MessageLite"*)* @_ZNK6google8protobuf11MessageLite16InternalGetTableEv to i8*)] }, align 8
@.str.19 = private unnamed_addr constant [57 x i8] c"private_membership.rlwe.PrivateMembershipRlwePirResponse\00", align 1
@_ZTVN18private_membership4rlwe10PirRequestE = hidden unnamed_addr constant { [16 x i8*] } { [16 x i8*] [i8* null, i8* null, i8* bitcast (void (%"class.private_membership::rlwe::PirRequest"*)* @_ZN18private_membership4rlwe10PirRequestD2Ev to i8*), i8* bitcast (void (%"class.private_membership::rlwe::PirRequest"*)* @_ZN18private_membership4rlwe10PirRequestD0Ev to i8*), i8* bitcast (void (%"class.std::__1::basic_string"*, %"class.private_membership::rlwe::PirRequest"*)* @_ZNK18private_membership4rlwe10PirRequest11GetTypeNameEv to i8*), i8* bitcast (%"class.private_membership::rlwe::PirRequest"* (%"class.private_membership::rlwe::PirRequest"*)* @_ZNK18private_membership4rlwe10PirRequest3NewEv to i8*), i8* bitcast (%"class.private_membership::rlwe::PirRequest"* (%"class.private_membership::rlwe::PirRequest"*, %"class.google::protobuf::Arena"*)* @_ZNK18private_membership4rlwe10PirRequest3NewEPN6google8protobuf5ArenaE to i8*), i8* bitcast (void (%"class.private_membership::rlwe::PirRequest"*)* @_ZN18private_membership4rlwe10PirRequest5ClearEv to i8*), i8* bitcast (i1 (%"class.private_membership::rlwe::PirRequest"*)* @_ZNK18private_membership4rlwe10PirRequest13IsInitializedEv to i8*), i8* bitcast (void (%"class.std::__1::basic_string"*, %"class.google::protobuf::MessageLite"*)* @_ZNK6google8protobuf11MessageLite25InitializationErrorStringEv to i8*), i8* bitcast (void (%"class.private_membership::rlwe::PirRequest"*, %"class.google::protobuf::MessageLite"*)* @_ZN18private_membership4rlwe10PirRequest21CheckTypeAndMergeFromERKN6google8protobuf11MessageLiteE to i8*), i8* bitcast (i64 (%"class.private_membership::rlwe::PirRequest"*)* @_ZNK18private_membership4rlwe10PirRequest12ByteSizeLongEv to i8*), i8* bitcast (i32 (%"class.private_membership::rlwe::PirRequest"*)* @_ZNK18private_membership4rlwe10PirRequest13GetCachedSizeEv to i8*), i8* bitcast (i8* (%"class.private_membership::rlwe::PirRequest"*, i8*, %"class.google::protobuf::internal::ParseContext"*)* @_ZN18private_membership4rlwe10PirRequest14_InternalParseEPKcPN6google8protobuf8internal12ParseContextE to i8*), i8* bitcast (i8* (%"class.private_membership::rlwe::PirRequest"*, i8*, %"class.google::protobuf::io::EpsCopyOutputStream"*)* @_ZNK18private_membership4rlwe10PirRequest18_InternalSerializeEPhPN6google8protobuf2io19EpsCopyOutputStreamE to i8*), i8* bitcast (i8* (%"class.google::protobuf::MessageLite"*)* @_ZNK6google8protobuf11MessageLite16InternalGetTableEv to i8*)] }, align 8
@.str.20 = private unnamed_addr constant [35 x i8] c"private_membership.rlwe.PirRequest\00", align 1
@_ZTVN18private_membership4rlwe11PirResponseE = hidden unnamed_addr constant { [16 x i8*] } { [16 x i8*] [i8* null, i8* null, i8* bitcast (void (%"class.private_membership::rlwe::PirResponse"*)* @_ZN18private_membership4rlwe11PirResponseD2Ev to i8*), i8* bitcast (void (%"class.private_membership::rlwe::PirResponse"*)* @_ZN18private_membership4rlwe11PirResponseD0Ev to i8*), i8* bitcast (void (%"class.std::__1::basic_string"*, %"class.private_membership::rlwe::PirResponse"*)* @_ZNK18private_membership4rlwe11PirResponse11GetTypeNameEv to i8*), i8* bitcast (%"class.private_membership::rlwe::PirResponse"* (%"class.private_membership::rlwe::PirResponse"*)* @_ZNK18private_membership4rlwe11PirResponse3NewEv to i8*), i8* bitcast (%"class.private_membership::rlwe::PirResponse"* (%"class.private_membership::rlwe::PirResponse"*, %"class.google::protobuf::Arena"*)* @_ZNK18private_membership4rlwe11PirResponse3NewEPN6google8protobuf5ArenaE to i8*), i8* bitcast (void (%"class.private_membership::rlwe::PirResponse"*)* @_ZN18private_membership4rlwe11PirResponse5ClearEv to i8*), i8* bitcast (i1 (%"class.private_membership::rlwe::PirResponse"*)* @_ZNK18private_membership4rlwe11PirResponse13IsInitializedEv to i8*), i8* bitcast (void (%"class.std::__1::basic_string"*, %"class.google::protobuf::MessageLite"*)* @_ZNK6google8protobuf11MessageLite25InitializationErrorStringEv to i8*), i8* bitcast (void (%"class.private_membership::rlwe::PirResponse"*, %"class.google::protobuf::MessageLite"*)* @_ZN18private_membership4rlwe11PirResponse21CheckTypeAndMergeFromERKN6google8protobuf11MessageLiteE to i8*), i8* bitcast (i64 (%"class.private_membership::rlwe::PirResponse"*)* @_ZNK18private_membership4rlwe11PirResponse12ByteSizeLongEv to i8*), i8* bitcast (i32 (%"class.private_membership::rlwe::PirResponse"*)* @_ZNK18private_membership4rlwe11PirResponse13GetCachedSizeEv to i8*), i8* bitcast (i8* (%"class.private_membership::rlwe::PirResponse"*, i8*, %"class.google::protobuf::internal::ParseContext"*)* @_ZN18private_membership4rlwe11PirResponse14_InternalParseEPKcPN6google8protobuf8internal12ParseContextE to i8*), i8* bitcast (i8* (%"class.private_membership::rlwe::PirResponse"*, i8*, %"class.google::protobuf::io::EpsCopyOutputStream"*)* @_ZNK18private_membership4rlwe11PirResponse18_InternalSerializeEPhPN6google8protobuf2io19EpsCopyOutputStreamE to i8*), i8* bitcast (i8* (%"class.google::protobuf::MessageLite"*)* @_ZNK6google8protobuf11MessageLite16InternalGetTableEv to i8*)] }, align 8
@.str.21 = private unnamed_addr constant [36 x i8] c"private_membership.rlwe.PirResponse\00", align 1
@_ZTVN18private_membership4rlwe36EncryptedBucket_EncryptedIdValuePairE = hidden unnamed_addr constant { [16 x i8*] } { [16 x i8*] [i8* null, i8* null, i8* bitcast (void (%"class.private_membership::rlwe::EncryptedBucket_EncryptedIdValuePair"*)* @_ZN18private_membership4rlwe36EncryptedBucket_EncryptedIdValuePairD2Ev to i8*), i8* bitcast (void (%"class.private_membership::rlwe::EncryptedBucket_EncryptedIdValuePair"*)* @_ZN18private_membership4rlwe36EncryptedBucket_EncryptedIdValuePairD0Ev to i8*), i8* bitcast (void (%"class.std::__1::basic_string"*, %"class.private_membership::rlwe::EncryptedBucket_EncryptedIdValuePair"*)* @_ZNK18private_membership4rlwe36EncryptedBucket_EncryptedIdValuePair11GetTypeNameEv to i8*), i8* bitcast (%"class.private_membership::rlwe::EncryptedBucket_EncryptedIdValuePair"* (%"class.private_membership::rlwe::EncryptedBucket_EncryptedIdValuePair"*)* @_ZNK18private_membership4rlwe36EncryptedBucket_EncryptedIdValuePair3NewEv to i8*), i8* bitcast (%"class.private_membership::rlwe::EncryptedBucket_EncryptedIdValuePair"* (%"class.private_membership::rlwe::EncryptedBucket_EncryptedIdValuePair"*, %"class.google::protobuf::Arena"*)* @_ZNK18private_membership4rlwe36EncryptedBucket_EncryptedIdValuePair3NewEPN6google8protobuf5ArenaE to i8*), i8* bitcast (void (%"class.private_membership::rlwe::EncryptedBucket_EncryptedIdValuePair"*)* @_ZN18private_membership4rlwe36EncryptedBucket_EncryptedIdValuePair5ClearEv to i8*), i8* bitcast (i1 (%"class.private_membership::rlwe::EncryptedBucket_EncryptedIdValuePair"*)* @_ZNK18private_membership4rlwe36EncryptedBucket_EncryptedIdValuePair13IsInitializedEv to i8*), i8* bitcast (void (%"class.std::__1::basic_string"*, %"class.google::protobuf::MessageLite"*)* @_ZNK6google8protobuf11MessageLite25InitializationErrorStringEv to i8*), i8* bitcast (void (%"class.private_membership::rlwe::EncryptedBucket_EncryptedIdValuePair"*, %"class.google::protobuf::MessageLite"*)* @_ZN18private_membership4rlwe36EncryptedBucket_EncryptedIdValuePair21CheckTypeAndMergeFromERKN6google8protobuf11MessageLiteE to i8*), i8* bitcast (i64 (%"class.private_membership::rlwe::EncryptedBucket_EncryptedIdValuePair"*)* @_ZNK18private_membership4rlwe36EncryptedBucket_EncryptedIdValuePair12ByteSizeLongEv to i8*), i8* bitcast (i32 (%"class.private_membership::rlwe::EncryptedBucket_EncryptedIdValuePair"*)* @_ZNK18private_membership4rlwe36EncryptedBucket_EncryptedIdValuePair13GetCachedSizeEv to i8*), i8* bitcast (i8* (%"class.private_membership::rlwe::EncryptedBucket_EncryptedIdValuePair"*, i8*, %"class.google::protobuf::internal::ParseContext"*)* @_ZN18private_membership4rlwe36EncryptedBucket_EncryptedIdValuePair14_InternalParseEPKcPN6google8protobuf8internal12ParseContextE to i8*), i8* bitcast (i8* (%"class.private_membership::rlwe::EncryptedBucket_EncryptedIdValuePair"*, i8*, %"class.google::protobuf::io::EpsCopyOutputStream"*)* @_ZNK18private_membership4rlwe36EncryptedBucket_EncryptedIdValuePair18_InternalSerializeEPhPN6google8protobuf2io19EpsCopyOutputStreamE to i8*), i8* bitcast (i8* (%"class.google::protobuf::MessageLite"*)* @_ZNK6google8protobuf11MessageLite16InternalGetTableEv to i8*)] }, align 8
@.str.22 = private unnamed_addr constant [61 x i8] c"private_membership.rlwe.EncryptedBucket.EncryptedIdValuePair\00", align 1
@_ZTVN18private_membership4rlwe15EncryptedBucketE = hidden unnamed_addr constant { [16 x i8*] } { [16 x i8*] [i8* null, i8* null, i8* bitcast (void (%"class.private_membership::rlwe::EncryptedBucket"*)* @_ZN18private_membership4rlwe15EncryptedBucketD2Ev to i8*), i8* bitcast (void (%"class.private_membership::rlwe::EncryptedBucket"*)* @_ZN18private_membership4rlwe15EncryptedBucketD0Ev to i8*), i8* bitcast (void (%"class.std::__1::basic_string"*, %"class.private_membership::rlwe::EncryptedBucket"*)* @_ZNK18private_membership4rlwe15EncryptedBucket11GetTypeNameEv to i8*), i8* bitcast (%"class.private_membership::rlwe::EncryptedBucket"* (%"class.private_membership::rlwe::EncryptedBucket"*)* @_ZNK18private_membership4rlwe15EncryptedBucket3NewEv to i8*), i8* bitcast (%"class.private_membership::rlwe::EncryptedBucket"* (%"class.private_membership::rlwe::EncryptedBucket"*, %"class.google::protobuf::Arena"*)* @_ZNK18private_membership4rlwe15EncryptedBucket3NewEPN6google8protobuf5ArenaE to i8*), i8* bitcast (void (%"class.private_membership::rlwe::EncryptedBucket"*)* @_ZN18private_membership4rlwe15EncryptedBucket5ClearEv to i8*), i8* bitcast (i1 (%"class.private_membership::rlwe::EncryptedBucket"*)* @_ZNK18private_membership4rlwe15EncryptedBucket13IsInitializedEv to i8*), i8* bitcast (void (%"class.std::__1::basic_string"*, %"class.google::protobuf::MessageLite"*)* @_ZNK6google8protobuf11MessageLite25InitializationErrorStringEv to i8*), i8* bitcast (void (%"class.private_membership::rlwe::EncryptedBucket"*, %"class.google::protobuf::MessageLite"*)* @_ZN18private_membership4rlwe15EncryptedBucket21CheckTypeAndMergeFromERKN6google8protobuf11MessageLiteE to i8*), i8* bitcast (i64 (%"class.private_membership::rlwe::EncryptedBucket"*)* @_ZNK18private_membership4rlwe15EncryptedBucket12ByteSizeLongEv to i8*), i8* bitcast (i32 (%"class.private_membership::rlwe::EncryptedBucket"*)* @_ZNK18private_membership4rlwe15EncryptedBucket13GetCachedSizeEv to i8*), i8* bitcast (i8* (%"class.private_membership::rlwe::EncryptedBucket"*, i8*, %"class.google::protobuf::internal::ParseContext"*)* @_ZN18private_membership4rlwe15EncryptedBucket14_InternalParseEPKcPN6google8protobuf8internal12ParseContextE to i8*), i8* bitcast (i8* (%"class.private_membership::rlwe::EncryptedBucket"*, i8*, %"class.google::protobuf::io::EpsCopyOutputStream"*)* @_ZNK18private_membership4rlwe15EncryptedBucket18_InternalSerializeEPhPN6google8protobuf2io19EpsCopyOutputStreamE to i8*), i8* bitcast (i8* (%"class.google::protobuf::MessageLite"*)* @_ZNK6google8protobuf11MessageLite16InternalGetTableEv to i8*)] }, align 8
@.str.23 = private unnamed_addr constant [40 x i8] c"private_membership.rlwe.EncryptedBucket\00", align 1
@_ZN6google8protobuf8internal26fixed_address_empty_stringE = external global %"class.google::protobuf::internal::ExplicitlyConstructed.20", align 8
@.str.33 = private unnamed_addr constant [25 x i8] c"size_t to int conversion\00", align 1
@llvm.global_ctors = appending global [0 x { i32, void ()*, i8* }] zeroinitializer

@_ZN18private_membership4rlwe32PrivateMembershipRlweOprfRequestC1EPN6google8protobuf5ArenaE = hidden unnamed_addr alias void (%"class.private_membership::rlwe::PrivateMembershipRlweOprfRequest"*, %"class.google::protobuf::Arena"*), void (%"class.private_membership::rlwe::PrivateMembershipRlweOprfRequest"*, %"class.google::protobuf::Arena"*)* @_ZN18private_membership4rlwe32PrivateMembershipRlweOprfRequestC2EPN6google8protobuf5ArenaE
@_ZN18private_membership4rlwe32PrivateMembershipRlweOprfRequestC1ERKS1_ = hidden unnamed_addr alias void (%"class.private_membership::rlwe::PrivateMembershipRlweOprfRequest"*, %"class.private_membership::rlwe::PrivateMembershipRlweOprfRequest"*), void (%"class.private_membership::rlwe::PrivateMembershipRlweOprfRequest"*, %"class.private_membership::rlwe::PrivateMembershipRlweOprfRequest"*)* @_ZN18private_membership4rlwe32PrivateMembershipRlweOprfRequestC2ERKS1_
@_ZN18private_membership4rlwe32PrivateMembershipRlweOprfRequestD1Ev = hidden unnamed_addr alias void (%"class.private_membership::rlwe::PrivateMembershipRlweOprfRequest"*), void (%"class.private_membership::rlwe::PrivateMembershipRlweOprfRequest"*)* @_ZN18private_membership4rlwe32PrivateMembershipRlweOprfRequestD2Ev
@_ZN18private_membership4rlwe33PrivateMembershipRlweOprfResponseC1EPN6google8protobuf5ArenaE = hidden unnamed_addr alias void (%"class.private_membership::rlwe::PrivateMembershipRlweOprfResponse"*, %"class.google::protobuf::Arena"*), void (%"class.private_membership::rlwe::PrivateMembershipRlweOprfResponse"*, %"class.google::protobuf::Arena"*)* @_ZN18private_membership4rlwe33PrivateMembershipRlweOprfResponseC2EPN6google8protobuf5ArenaE
@_ZN18private_membership4rlwe33PrivateMembershipRlweOprfResponseC1ERKS1_ = hidden unnamed_addr alias void (%"class.private_membership::rlwe::PrivateMembershipRlweOprfResponse"*, %"class.private_membership::rlwe::PrivateMembershipRlweOprfResponse"*), void (%"class.private_membership::rlwe::PrivateMembershipRlweOprfResponse"*, %"class.private_membership::rlwe::PrivateMembershipRlweOprfResponse"*)* @_ZN18private_membership4rlwe33PrivateMembershipRlweOprfResponseC2ERKS1_
@_ZN18private_membership4rlwe33PrivateMembershipRlweOprfResponseD1Ev = hidden unnamed_addr alias void (%"class.private_membership::rlwe::PrivateMembershipRlweOprfResponse"*), void (%"class.private_membership::rlwe::PrivateMembershipRlweOprfResponse"*)* @_ZN18private_membership4rlwe33PrivateMembershipRlweOprfResponseD2Ev
@_ZN18private_membership4rlwe33PrivateMembershipRlweQueryRequestC1EPN6google8protobuf5ArenaE = hidden unnamed_addr alias void (%"class.private_membership::rlwe::PrivateMembershipRlweQueryRequest"*, %"class.google::protobuf::Arena"*), void (%"class.private_membership::rlwe::PrivateMembershipRlweQueryRequest"*, %"class.google::protobuf::Arena"*)* @_ZN18private_membership4rlwe33PrivateMembershipRlweQueryRequestC2EPN6google8protobuf5ArenaE
@_ZN18private_membership4rlwe33PrivateMembershipRlweQueryRequestC1ERKS1_ = hidden unnamed_addr alias void (%"class.private_membership::rlwe::PrivateMembershipRlweQueryRequest"*, %"class.private_membership::rlwe::PrivateMembershipRlweQueryRequest"*), void (%"class.private_membership::rlwe::PrivateMembershipRlweQueryRequest"*, %"class.private_membership::rlwe::PrivateMembershipRlweQueryRequest"*)* @_ZN18private_membership4rlwe33PrivateMembershipRlweQueryRequestC2ERKS1_
@_ZN18private_membership4rlwe33PrivateMembershipRlweQueryRequestD1Ev = hidden unnamed_addr alias void (%"class.private_membership::rlwe::PrivateMembershipRlweQueryRequest"*), void (%"class.private_membership::rlwe::PrivateMembershipRlweQueryRequest"*)* @_ZN18private_membership4rlwe33PrivateMembershipRlweQueryRequestD2Ev
@_ZN18private_membership4rlwe34PrivateMembershipRlweQueryResponseC1EPN6google8protobuf5ArenaE = hidden unnamed_addr alias void (%"class.private_membership::rlwe::PrivateMembershipRlweQueryResponse"*, %"class.google::protobuf::Arena"*), void (%"class.private_membership::rlwe::PrivateMembershipRlweQueryResponse"*, %"class.google::protobuf::Arena"*)* @_ZN18private_membership4rlwe34PrivateMembershipRlweQueryResponseC2EPN6google8protobuf5ArenaE
@_ZN18private_membership4rlwe34PrivateMembershipRlweQueryResponseC1ERKS1_ = hidden unnamed_addr alias void (%"class.private_membership::rlwe::PrivateMembershipRlweQueryResponse"*, %"class.private_membership::rlwe::PrivateMembershipRlweQueryResponse"*), void (%"class.private_membership::rlwe::PrivateMembershipRlweQueryResponse"*, %"class.private_membership::rlwe::PrivateMembershipRlweQueryResponse"*)* @_ZN18private_membership4rlwe34PrivateMembershipRlweQueryResponseC2ERKS1_
@_ZN18private_membership4rlwe34PrivateMembershipRlweQueryResponseD1Ev = hidden unnamed_addr alias void (%"class.private_membership::rlwe::PrivateMembershipRlweQueryResponse"*), void (%"class.private_membership::rlwe::PrivateMembershipRlweQueryResponse"*)* @_ZN18private_membership4rlwe34PrivateMembershipRlweQueryResponseD2Ev
@_ZN18private_membership4rlwe15RlwePlaintextIdC1EPN6google8protobuf5ArenaE = hidden unnamed_addr alias void (%"class.private_membership::rlwe::RlwePlaintextId"*, %"class.google::protobuf::Arena"*), void (%"class.private_membership::rlwe::RlwePlaintextId"*, %"class.google::protobuf::Arena"*)* @_ZN18private_membership4rlwe15RlwePlaintextIdC2EPN6google8protobuf5ArenaE
@_ZN18private_membership4rlwe15RlwePlaintextIdC1ERKS1_ = hidden unnamed_addr alias void (%"class.private_membership::rlwe::RlwePlaintextId"*, %"class.private_membership::rlwe::RlwePlaintextId"*), void (%"class.private_membership::rlwe::RlwePlaintextId"*, %"class.private_membership::rlwe::RlwePlaintextId"*)* @_ZN18private_membership4rlwe15RlwePlaintextIdC2ERKS1_
@_ZN18private_membership4rlwe15RlwePlaintextIdD1Ev = hidden unnamed_addr alias void (%"class.private_membership::rlwe::RlwePlaintextId"*), void (%"class.private_membership::rlwe::RlwePlaintextId"*)* @_ZN18private_membership4rlwe15RlwePlaintextIdD2Ev
@_ZN18private_membership4rlwe23HashedBucketsParametersC1EPN6google8protobuf5ArenaE = hidden unnamed_addr alias void (%"class.private_membership::rlwe::HashedBucketsParameters"*, %"class.google::protobuf::Arena"*), void (%"class.private_membership::rlwe::HashedBucketsParameters"*, %"class.google::protobuf::Arena"*)* @_ZN18private_membership4rlwe23HashedBucketsParametersC2EPN6google8protobuf5ArenaE
@_ZN18private_membership4rlwe23HashedBucketsParametersC1ERKS1_ = hidden unnamed_addr alias void (%"class.private_membership::rlwe::HashedBucketsParameters"*, %"class.private_membership::rlwe::HashedBucketsParameters"*), void (%"class.private_membership::rlwe::HashedBucketsParameters"*, %"class.private_membership::rlwe::HashedBucketsParameters"*)* @_ZN18private_membership4rlwe23HashedBucketsParametersC2ERKS1_
@_ZN18private_membership4rlwe23HashedBucketsParametersD1Ev = hidden unnamed_addr alias void (%"class.private_membership::rlwe::HashedBucketsParameters"*), void (%"class.private_membership::rlwe::HashedBucketsParameters"*)* @_ZN18private_membership4rlwe23HashedBucketsParametersD2Ev
@_ZN18private_membership4rlwe26EncryptedBucketsParametersC1EPN6google8protobuf5ArenaE = hidden unnamed_addr alias void (%"class.private_membership::rlwe::EncryptedBucketsParameters"*, %"class.google::protobuf::Arena"*), void (%"class.private_membership::rlwe::EncryptedBucketsParameters"*, %"class.google::protobuf::Arena"*)* @_ZN18private_membership4rlwe26EncryptedBucketsParametersC2EPN6google8protobuf5ArenaE
@_ZN18private_membership4rlwe26EncryptedBucketsParametersC1ERKS1_ = hidden unnamed_addr alias void (%"class.private_membership::rlwe::EncryptedBucketsParameters"*, %"class.private_membership::rlwe::EncryptedBucketsParameters"*), void (%"class.private_membership::rlwe::EncryptedBucketsParameters"*, %"class.private_membership::rlwe::EncryptedBucketsParameters"*)* @_ZN18private_membership4rlwe26EncryptedBucketsParametersC2ERKS1_
@_ZN18private_membership4rlwe26EncryptedBucketsParametersD1Ev = hidden unnamed_addr alias void (%"class.private_membership::rlwe::EncryptedBucketsParameters"*), void (%"class.private_membership::rlwe::EncryptedBucketsParameters"*)* @_ZN18private_membership4rlwe26EncryptedBucketsParametersD2Ev
@_ZN18private_membership4rlwe14RlweParametersC1EPN6google8protobuf5ArenaE = hidden unnamed_addr alias void (%"class.private_membership::rlwe::RlweParameters"*, %"class.google::protobuf::Arena"*), void (%"class.private_membership::rlwe::RlweParameters"*, %"class.google::protobuf::Arena"*)* @_ZN18private_membership4rlwe14RlweParametersC2EPN6google8protobuf5ArenaE
@_ZN18private_membership4rlwe14RlweParametersC1ERKS1_ = hidden unnamed_addr alias void (%"class.private_membership::rlwe::RlweParameters"*, %"class.private_membership::rlwe::RlweParameters"*), void (%"class.private_membership::rlwe::RlweParameters"*, %"class.private_membership::rlwe::RlweParameters"*)* @_ZN18private_membership4rlwe14RlweParametersC2ERKS1_
@_ZN18private_membership4rlwe14RlweParametersD1Ev = hidden unnamed_addr alias void (%"class.private_membership::rlwe::RlweParameters"*), void (%"class.private_membership::rlwe::RlweParameters"*)* @_ZN18private_membership4rlwe14RlweParametersD2Ev
@_ZN18private_membership4rlwe7Uint128C1EPN6google8protobuf5ArenaE = hidden unnamed_addr alias void (%"class.private_membership::rlwe::Uint128"*, %"class.google::protobuf::Arena"*), void (%"class.private_membership::rlwe::Uint128"*, %"class.google::protobuf::Arena"*)* @_ZN18private_membership4rlwe7Uint128C2EPN6google8protobuf5ArenaE
@_ZN18private_membership4rlwe7Uint128C1ERKS1_ = hidden unnamed_addr alias void (%"class.private_membership::rlwe::Uint128"*, %"class.private_membership::rlwe::Uint128"*), void (%"class.private_membership::rlwe::Uint128"*, %"class.private_membership::rlwe::Uint128"*)* @_ZN18private_membership4rlwe7Uint128C2ERKS1_
@_ZN18private_membership4rlwe7Uint128D1Ev = hidden unnamed_addr alias void (%"class.private_membership::rlwe::Uint128"*), void (%"class.private_membership::rlwe::Uint128"*)* @_ZN18private_membership4rlwe7Uint128D2Ev
@_ZN18private_membership4rlwe41PrivateMembershipRlweQuery_HashedBucketIdC1EPN6google8protobuf5ArenaE = hidden unnamed_addr alias void (%"class.private_membership::rlwe::PrivateMembershipRlweQuery_HashedBucketId"*, %"class.google::protobuf::Arena"*), void (%"class.private_membership::rlwe::PrivateMembershipRlweQuery_HashedBucketId"*, %"class.google::protobuf::Arena"*)* @_ZN18private_membership4rlwe41PrivateMembershipRlweQuery_HashedBucketIdC2EPN6google8protobuf5ArenaE
@_ZN18private_membership4rlwe41PrivateMembershipRlweQuery_HashedBucketIdC1ERKS1_ = hidden unnamed_addr alias void (%"class.private_membership::rlwe::PrivateMembershipRlweQuery_HashedBucketId"*, %"class.private_membership::rlwe::PrivateMembershipRlweQuery_HashedBucketId"*), void (%"class.private_membership::rlwe::PrivateMembershipRlweQuery_HashedBucketId"*, %"class.private_membership::rlwe::PrivateMembershipRlweQuery_HashedBucketId"*)* @_ZN18private_membership4rlwe41PrivateMembershipRlweQuery_HashedBucketIdC2ERKS1_
@_ZN18private_membership4rlwe41PrivateMembershipRlweQuery_HashedBucketIdD1Ev = hidden unnamed_addr alias void (%"class.private_membership::rlwe::PrivateMembershipRlweQuery_HashedBucketId"*), void (%"class.private_membership::rlwe::PrivateMembershipRlweQuery_HashedBucketId"*)* @_ZN18private_membership4rlwe41PrivateMembershipRlweQuery_HashedBucketIdD2Ev
@_ZN18private_membership4rlwe26PrivateMembershipRlweQueryC1EPN6google8protobuf5ArenaE = hidden unnamed_addr alias void (%"class.private_membership::rlwe::PrivateMembershipRlweQuery"*, %"class.google::protobuf::Arena"*), void (%"class.private_membership::rlwe::PrivateMembershipRlweQuery"*, %"class.google::protobuf::Arena"*)* @_ZN18private_membership4rlwe26PrivateMembershipRlweQueryC2EPN6google8protobuf5ArenaE
@_ZN18private_membership4rlwe26PrivateMembershipRlweQueryC1ERKS1_ = hidden unnamed_addr alias void (%"class.private_membership::rlwe::PrivateMembershipRlweQuery"*, %"class.private_membership::rlwe::PrivateMembershipRlweQuery"*), void (%"class.private_membership::rlwe::PrivateMembershipRlweQuery"*, %"class.private_membership::rlwe::PrivateMembershipRlweQuery"*)* @_ZN18private_membership4rlwe26PrivateMembershipRlweQueryC2ERKS1_
@_ZN18private_membership4rlwe26PrivateMembershipRlweQueryD1Ev = hidden unnamed_addr alias void (%"class.private_membership::rlwe::PrivateMembershipRlweQuery"*), void (%"class.private_membership::rlwe::PrivateMembershipRlweQuery"*)* @_ZN18private_membership4rlwe26PrivateMembershipRlweQueryD2Ev
@_ZN18private_membership4rlwe32PrivateMembershipRlwePirResponseC1EPN6google8protobuf5ArenaE = hidden unnamed_addr alias void (%"class.private_membership::rlwe::PrivateMembershipRlwePirResponse"*, %"class.google::protobuf::Arena"*), void (%"class.private_membership::rlwe::PrivateMembershipRlwePirResponse"*, %"class.google::protobuf::Arena"*)* @_ZN18private_membership4rlwe32PrivateMembershipRlwePirResponseC2EPN6google8protobuf5ArenaE
@_ZN18private_membership4rlwe32PrivateMembershipRlwePirResponseC1ERKS1_ = hidden unnamed_addr alias void (%"class.private_membership::rlwe::PrivateMembershipRlwePirResponse"*, %"class.private_membership::rlwe::PrivateMembershipRlwePirResponse"*), void (%"class.private_membership::rlwe::PrivateMembershipRlwePirResponse"*, %"class.private_membership::rlwe::PrivateMembershipRlwePirResponse"*)* @_ZN18private_membership4rlwe32PrivateMembershipRlwePirResponseC2ERKS1_
@_ZN18private_membership4rlwe32PrivateMembershipRlwePirResponseD1Ev = hidden unnamed_addr alias void (%"class.private_membership::rlwe::PrivateMembershipRlwePirResponse"*), void (%"class.private_membership::rlwe::PrivateMembershipRlwePirResponse"*)* @_ZN18private_membership4rlwe32PrivateMembershipRlwePirResponseD2Ev
@_ZN18private_membership4rlwe10PirRequestC1EPN6google8protobuf5ArenaE = hidden unnamed_addr alias void (%"class.private_membership::rlwe::PirRequest"*, %"class.google::protobuf::Arena"*), void (%"class.private_membership::rlwe::PirRequest"*, %"class.google::protobuf::Arena"*)* @_ZN18private_membership4rlwe10PirRequestC2EPN6google8protobuf5ArenaE
@_ZN18private_membership4rlwe10PirRequestC1ERKS1_ = hidden unnamed_addr alias void (%"class.private_membership::rlwe::PirRequest"*, %"class.private_membership::rlwe::PirRequest"*), void (%"class.private_membership::rlwe::PirRequest"*, %"class.private_membership::rlwe::PirRequest"*)* @_ZN18private_membership4rlwe10PirRequestC2ERKS1_
@_ZN18private_membership4rlwe10PirRequestD1Ev = hidden unnamed_addr alias void (%"class.private_membership::rlwe::PirRequest"*), void (%"class.private_membership::rlwe::PirRequest"*)* @_ZN18private_membership4rlwe10PirRequestD2Ev
@_ZN18private_membership4rlwe11PirResponseC1EPN6google8protobuf5ArenaE = hidden unnamed_addr alias void (%"class.private_membership::rlwe::PirResponse"*, %"class.google::protobuf::Arena"*), void (%"class.private_membership::rlwe::PirResponse"*, %"class.google::protobuf::Arena"*)* @_ZN18private_membership4rlwe11PirResponseC2EPN6google8protobuf5ArenaE
@_ZN18private_membership4rlwe11PirResponseC1ERKS1_ = hidden unnamed_addr alias void (%"class.private_membership::rlwe::PirResponse"*, %"class.private_membership::rlwe::PirResponse"*), void (%"class.private_membership::rlwe::PirResponse"*, %"class.private_membership::rlwe::PirResponse"*)* @_ZN18private_membership4rlwe11PirResponseC2ERKS1_
@_ZN18private_membership4rlwe11PirResponseD1Ev = hidden unnamed_addr alias void (%"class.private_membership::rlwe::PirResponse"*), void (%"class.private_membership::rlwe::PirResponse"*)* @_ZN18private_membership4rlwe11PirResponseD2Ev
@_ZN18private_membership4rlwe36EncryptedBucket_EncryptedIdValuePairC1EPN6google8protobuf5ArenaE = hidden unnamed_addr alias void (%"class.private_membership::rlwe::EncryptedBucket_EncryptedIdValuePair"*, %"class.google::protobuf::Arena"*), void (%"class.private_membership::rlwe::EncryptedBucket_EncryptedIdValuePair"*, %"class.google::protobuf::Arena"*)* @_ZN18private_membership4rlwe36EncryptedBucket_EncryptedIdValuePairC2EPN6google8protobuf5ArenaE
@_ZN18private_membership4rlwe36EncryptedBucket_EncryptedIdValuePairC1ERKS1_ = hidden unnamed_addr alias void (%"class.private_membership::rlwe::EncryptedBucket_EncryptedIdValuePair"*, %"class.private_membership::rlwe::EncryptedBucket_EncryptedIdValuePair"*), void (%"class.private_membership::rlwe::EncryptedBucket_EncryptedIdValuePair"*, %"class.private_membership::rlwe::EncryptedBucket_EncryptedIdValuePair"*)* @_ZN18private_membership4rlwe36EncryptedBucket_EncryptedIdValuePairC2ERKS1_
@_ZN18private_membership4rlwe36EncryptedBucket_EncryptedIdValuePairD1Ev = hidden unnamed_addr alias void (%"class.private_membership::rlwe::EncryptedBucket_EncryptedIdValuePair"*), void (%"class.private_membership::rlwe::EncryptedBucket_EncryptedIdValuePair"*)* @_ZN18private_membership4rlwe36EncryptedBucket_EncryptedIdValuePairD2Ev
@_ZN18private_membership4rlwe15EncryptedBucketC1EPN6google8protobuf5ArenaE = hidden unnamed_addr alias void (%"class.private_membership::rlwe::EncryptedBucket"*, %"class.google::protobuf::Arena"*), void (%"class.private_membership::rlwe::EncryptedBucket"*, %"class.google::protobuf::Arena"*)* @_ZN18private_membership4rlwe15EncryptedBucketC2EPN6google8protobuf5ArenaE
@_ZN18private_membership4rlwe15EncryptedBucketC1ERKS1_ = hidden unnamed_addr alias void (%"class.private_membership::rlwe::EncryptedBucket"*, %"class.private_membership::rlwe::EncryptedBucket"*), void (%"class.private_membership::rlwe::EncryptedBucket"*, %"class.private_membership::rlwe::EncryptedBucket"*)* @_ZN18private_membership4rlwe15EncryptedBucketC2ERKS1_
@_ZN18private_membership4rlwe15EncryptedBucketD1Ev = hidden unnamed_addr alias void (%"class.private_membership::rlwe::EncryptedBucket"*), void (%"class.private_membership::rlwe::EncryptedBucket"*)* @_ZN18private_membership4rlwe15EncryptedBucketD2Ev

; Function Attrs: nounwind ssp uwtable
define internal void @_ZL72InitDefaultsscc_info_EncryptedBucket_private_5fmembership_5frlwe_2eprotov() #0 {
  tail call void @_ZN6google8protobuf8internal13VerifyVersionEiiPKc(i32 3013000, i32 3013000, i8* getelementptr inbounds ([69 x i8], [69 x i8]* @.str, i64 0, i64 0)) #14
  store %"class.google::protobuf::Arena"* null, %"class.google::protobuf::Arena"** bitcast (i8* getelementptr inbounds (%"class.private_membership::rlwe::EncryptedBucketDefaultTypeInternal", %"class.private_membership::rlwe::EncryptedBucketDefaultTypeInternal"* @_ZN18private_membership4rlwe34_EncryptedBucket_default_instance_E, i64 0, i32 0, i32 0, i32 1, i64 0) to %"class.google::protobuf::Arena"**), align 8
  store i32 (...)** bitcast (i8** getelementptr inbounds ({ [16 x i8*] }, { [16 x i8*] }* @_ZTVN18private_membership4rlwe15EncryptedBucketE, i64 0, inrange i32 0, i64 2) to i32 (...)**), i32 (...)*** bitcast (%"class.private_membership::rlwe::EncryptedBucketDefaultTypeInternal"* @_ZN18private_membership4rlwe34_EncryptedBucket_default_instance_E to i32 (...)***), align 8
  tail call void @llvm.memset.p0i8.i64(i8* align 8 getelementptr inbounds (%"class.private_membership::rlwe::EncryptedBucketDefaultTypeInternal", %"class.private_membership::rlwe::EncryptedBucketDefaultTypeInternal"* @_ZN18private_membership4rlwe34_EncryptedBucket_default_instance_E, i64 0, i32 0, i32 0, i32 1, i64 8), i8 0, i64 28, i1 false) #14
  %1 = load atomic i32, i32* getelementptr inbounds ({ { { { i32 } }, i32, i32, void ()* }, [1 x i8*] }, { { { { i32 } }, i32, i32, void ()* }, [1 x i8*] }* @scc_info_EncryptedBucket_private_5fmembership_5frlwe_2eproto, i64 0, i32 0, i32 0, i32 0, i32 0) acquire, align 8
  %2 = icmp eq i32 %1, 0
  br i1 %2, label %4, label %3, !prof !2

3:                                                ; preds = %0
  tail call void @_ZN6google8protobuf8internal11InitSCCImplEPNS1_11SCCInfoBaseE(%"struct.google::protobuf::internal::SCCInfoBase"* bitcast ({ { { { i32 } }, i32, i32, void ()* }, [1 x i8*] }* @scc_info_EncryptedBucket_private_5fmembership_5frlwe_2eproto to %"struct.google::protobuf::internal::SCCInfoBase"*)) #14
  br label %4

4:                                                ; preds = %0, %3
  tail call void @_ZN6google8protobuf8internal13OnShutdownRunEPFvPKvES3_(void (i8*)* nonnull @_ZN6google8protobuf8internal14DestroyMessageEPKv, i8* bitcast (%"class.private_membership::rlwe::EncryptedBucketDefaultTypeInternal"* @_ZN18private_membership4rlwe34_EncryptedBucket_default_instance_E to i8*)) #14
  ret void
}

; Function Attrs: nounwind ssp uwtable
define internal void @_ZL93InitDefaultsscc_info_EncryptedBucket_EncryptedIdValuePair_private_5fmembership_5frlwe_2eprotov() #0 {
  tail call void @_ZN6google8protobuf8internal13VerifyVersionEiiPKc(i32 3013000, i32 3013000, i8* getelementptr inbounds ([69 x i8], [69 x i8]* @.str, i64 0, i64 0)) #14
  store %"class.google::protobuf::Arena"* null, %"class.google::protobuf::Arena"** bitcast (i8* getelementptr inbounds (%"class.private_membership::rlwe::EncryptedBucket_EncryptedIdValuePairDefaultTypeInternal", %"class.private_membership::rlwe::EncryptedBucket_EncryptedIdValuePairDefaultTypeInternal"* @_ZN18private_membership4rlwe55_EncryptedBucket_EncryptedIdValuePair_default_instance_E, i64 0, i32 0, i32 0, i32 1, i64 0) to %"class.google::protobuf::Arena"**), align 8
  store i32 (...)** bitcast (i8** getelementptr inbounds ({ [16 x i8*] }, { [16 x i8*] }* @_ZTVN18private_membership4rlwe36EncryptedBucket_EncryptedIdValuePairE, i64 0, inrange i32 0, i64 2) to i32 (...)**), i32 (...)*** bitcast (%"class.private_membership::rlwe::EncryptedBucket_EncryptedIdValuePairDefaultTypeInternal"* @_ZN18private_membership4rlwe55_EncryptedBucket_EncryptedIdValuePair_default_instance_E to i32 (...)***), align 8
  store i32 0, i32* bitcast (i8* getelementptr inbounds (%"class.private_membership::rlwe::EncryptedBucket_EncryptedIdValuePairDefaultTypeInternal", %"class.private_membership::rlwe::EncryptedBucket_EncryptedIdValuePairDefaultTypeInternal"* @_ZN18private_membership4rlwe55_EncryptedBucket_EncryptedIdValuePair_default_instance_E, i64 0, i32 0, i32 0, i32 1, i64 24) to i32*), align 8
  %1 = load atomic i32, i32* getelementptr inbounds ({ { { { i32 } }, i32, i32, void ()* }, [0 x i8*] }, { { { { i32 } }, i32, i32, void ()* }, [0 x i8*] }* @scc_info_EncryptedBucket_EncryptedIdValuePair_private_5fmembership_5frlwe_2eproto, i64 0, i32 0, i32 0, i32 0, i32 0) acquire, align 8
  %2 = icmp eq i32 %1, 0
  br i1 %2, label %4, label %3, !prof !2

3:                                                ; preds = %0
  tail call void @_ZN6google8protobuf8internal11InitSCCImplEPNS1_11SCCInfoBaseE(%"struct.google::protobuf::internal::SCCInfoBase"* bitcast ({ { { { i32 } }, i32, i32, void ()* }, [0 x i8*] }* @scc_info_EncryptedBucket_EncryptedIdValuePair_private_5fmembership_5frlwe_2eproto to %"struct.google::protobuf::internal::SCCInfoBase"*)) #14
  br label %4

4:                                                ; preds = %0, %3
  store <2 x %"class.std::__1::basic_string"*> <%"class.std::__1::basic_string"* bitcast (%"class.google::protobuf::internal::ExplicitlyConstructed.20"* @_ZN6google8protobuf8internal26fixed_address_empty_stringE to %"class.std::__1::basic_string"*), %"class.std::__1::basic_string"* bitcast (%"class.google::protobuf::internal::ExplicitlyConstructed.20"* @_ZN6google8protobuf8internal26fixed_address_empty_stringE to %"class.std::__1::basic_string"*)>, <2 x %"class.std::__1::basic_string"*>* bitcast (i8* getelementptr inbounds (%"class.private_membership::rlwe::EncryptedBucket_EncryptedIdValuePairDefaultTypeInternal", %"class.private_membership::rlwe::EncryptedBucket_EncryptedIdValuePairDefaultTypeInternal"* @_ZN18private_membership4rlwe55_EncryptedBucket_EncryptedIdValuePair_default_instance_E, i64 0, i32 0, i32 0, i32 1, i64 8) to <2 x %"class.std::__1::basic_string"*>*), align 8
  tail call void @_ZN6google8protobuf8internal13OnShutdownRunEPFvPKvES3_(void (i8*)* nonnull @_ZN6google8protobuf8internal14DestroyMessageEPKv, i8* bitcast (%"class.private_membership::rlwe::EncryptedBucket_EncryptedIdValuePairDefaultTypeInternal"* @_ZN18private_membership4rlwe55_EncryptedBucket_EncryptedIdValuePair_default_instance_E to i8*)) #14
  ret void
}

; Function Attrs: nounwind ssp uwtable
define internal void @_ZL83InitDefaultsscc_info_EncryptedBucketsParameters_private_5fmembership_5frlwe_2eprotov() #0 {
  tail call void @_ZN6google8protobuf8internal13VerifyVersionEiiPKc(i32 3013000, i32 3013000, i8* getelementptr inbounds ([69 x i8], [69 x i8]* @.str, i64 0, i64 0)) #14
  store %"class.google::protobuf::Arena"* null, %"class.google::protobuf::Arena"** bitcast (i8* getelementptr inbounds (%"class.private_membership::rlwe::EncryptedBucketsParametersDefaultTypeInternal", %"class.private_membership::rlwe::EncryptedBucketsParametersDefaultTypeInternal"* @_ZN18private_membership4rlwe45_EncryptedBucketsParameters_default_instance_E, i64 0, i32 0, i32 0, i32 1, i64 0) to %"class.google::protobuf::Arena"**), align 8
  store i32 (...)** bitcast (i8** getelementptr inbounds ({ [16 x i8*] }, { [16 x i8*] }* @_ZTVN18private_membership4rlwe26EncryptedBucketsParametersE, i64 0, inrange i32 0, i64 2) to i32 (...)**), i32 (...)*** bitcast (%"class.private_membership::rlwe::EncryptedBucketsParametersDefaultTypeInternal"* @_ZN18private_membership4rlwe45_EncryptedBucketsParameters_default_instance_E to i32 (...)***), align 8
  store i32 0, i32* bitcast (i8* getelementptr inbounds (%"class.private_membership::rlwe::EncryptedBucketsParametersDefaultTypeInternal", %"class.private_membership::rlwe::EncryptedBucketsParametersDefaultTypeInternal"* @_ZN18private_membership4rlwe45_EncryptedBucketsParameters_default_instance_E, i64 0, i32 0, i32 0, i32 1, i64 16) to i32*), align 8
  store i64 0, i64* bitcast (i8* getelementptr inbounds (%"class.private_membership::rlwe::EncryptedBucketsParametersDefaultTypeInternal", %"class.private_membership::rlwe::EncryptedBucketsParametersDefaultTypeInternal"* @_ZN18private_membership4rlwe45_EncryptedBucketsParameters_default_instance_E, i64 0, i32 0, i32 0, i32 1, i64 8) to i64*), align 8
  tail call void @_ZN6google8protobuf8internal13OnShutdownRunEPFvPKvES3_(void (i8*)* nonnull @_ZN6google8protobuf8internal14DestroyMessageEPKv, i8* bitcast (%"class.private_membership::rlwe::EncryptedBucketsParametersDefaultTypeInternal"* @_ZN18private_membership4rlwe45_EncryptedBucketsParameters_default_instance_E to i8*)) #14
  ret void
}

; Function Attrs: nounwind ssp uwtable
define internal void @_ZL80InitDefaultsscc_info_HashedBucketsParameters_private_5fmembership_5frlwe_2eprotov() #0 {
  tail call void @_ZN6google8protobuf8internal13VerifyVersionEiiPKc(i32 3013000, i32 3013000, i8* getelementptr inbounds ([69 x i8], [69 x i8]* @.str, i64 0, i64 0)) #14
  store %"class.google::protobuf::Arena"* null, %"class.google::protobuf::Arena"** bitcast (i8* getelementptr inbounds (%"class.private_membership::rlwe::HashedBucketsParametersDefaultTypeInternal", %"class.private_membership::rlwe::HashedBucketsParametersDefaultTypeInternal"* @_ZN18private_membership4rlwe42_HashedBucketsParameters_default_instance_E, i64 0, i32 0, i32 0, i32 1, i64 0) to %"class.google::protobuf::Arena"**), align 8
  store i32 (...)** bitcast (i8** getelementptr inbounds ({ [16 x i8*] }, { [16 x i8*] }* @_ZTVN18private_membership4rlwe23HashedBucketsParametersE, i64 0, inrange i32 0, i64 2) to i32 (...)**), i32 (...)*** bitcast (%"class.private_membership::rlwe::HashedBucketsParametersDefaultTypeInternal"* @_ZN18private_membership4rlwe42_HashedBucketsParameters_default_instance_E to i32 (...)***), align 8
  store i32 0, i32* bitcast (i8* getelementptr inbounds (%"class.private_membership::rlwe::HashedBucketsParametersDefaultTypeInternal", %"class.private_membership::rlwe::HashedBucketsParametersDefaultTypeInternal"* @_ZN18private_membership4rlwe42_HashedBucketsParameters_default_instance_E, i64 0, i32 0, i32 0, i32 1, i64 16) to i32*), align 8
  store i64 0, i64* bitcast (i8* getelementptr inbounds (%"class.private_membership::rlwe::HashedBucketsParametersDefaultTypeInternal", %"class.private_membership::rlwe::HashedBucketsParametersDefaultTypeInternal"* @_ZN18private_membership4rlwe42_HashedBucketsParameters_default_instance_E, i64 0, i32 0, i32 0, i32 1, i64 8) to i64*), align 8
  tail call void @_ZN6google8protobuf8internal13OnShutdownRunEPFvPKvES3_(void (i8*)* nonnull @_ZN6google8protobuf8internal14DestroyMessageEPKv, i8* bitcast (%"class.private_membership::rlwe::HashedBucketsParametersDefaultTypeInternal"* @_ZN18private_membership4rlwe42_HashedBucketsParameters_default_instance_E to i8*)) #14
  ret void
}

; Function Attrs: nounwind ssp uwtable
define internal void @_ZL67InitDefaultsscc_info_PirRequest_private_5fmembership_5frlwe_2eprotov() #0 {
  tail call void @_ZN6google8protobuf8internal13VerifyVersionEiiPKc(i32 3013000, i32 3013000, i8* getelementptr inbounds ([69 x i8], [69 x i8]* @.str, i64 0, i64 0)) #14
  store %"class.google::protobuf::Arena"* null, %"class.google::protobuf::Arena"** bitcast (i8* getelementptr inbounds (%"class.private_membership::rlwe::PirRequestDefaultTypeInternal", %"class.private_membership::rlwe::PirRequestDefaultTypeInternal"* @_ZN18private_membership4rlwe29_PirRequest_default_instance_E, i64 0, i32 0, i32 0, i32 1, i64 0) to %"class.google::protobuf::Arena"**), align 8
  store i32 (...)** bitcast (i8** getelementptr inbounds ({ [16 x i8*] }, { [16 x i8*] }* @_ZTVN18private_membership4rlwe10PirRequestE, i64 0, inrange i32 0, i64 2) to i32 (...)**), i32 (...)*** bitcast (%"class.private_membership::rlwe::PirRequestDefaultTypeInternal"* @_ZN18private_membership4rlwe29_PirRequest_default_instance_E to i32 (...)***), align 8
  store i32 0, i32* bitcast (i8* getelementptr inbounds (%"class.private_membership::rlwe::PirRequestDefaultTypeInternal", %"class.private_membership::rlwe::PirRequestDefaultTypeInternal"* @_ZN18private_membership4rlwe29_PirRequest_default_instance_E, i64 0, i32 0, i32 0, i32 1, i64 40) to i32*), align 8
  tail call void @llvm.memset.p0i8.i64(i8* align 8 getelementptr inbounds (%"class.private_membership::rlwe::PirRequestDefaultTypeInternal", %"class.private_membership::rlwe::PirRequestDefaultTypeInternal"* @_ZN18private_membership4rlwe29_PirRequest_default_instance_E, i64 0, i32 0, i32 0, i32 1, i64 8), i8 0, i64 24, i1 false) #14
  %1 = load atomic i32, i32* getelementptr inbounds ({ { { { i32 } }, i32, i32, void ()* }, [1 x i8*] }, { { { { i32 } }, i32, i32, void ()* }, [1 x i8*] }* @scc_info_PirRequest_private_5fmembership_5frlwe_2eproto, i64 0, i32 0, i32 0, i32 0, i32 0) acquire, align 8
  %2 = icmp eq i32 %1, 0
  br i1 %2, label %4, label %3, !prof !2

3:                                                ; preds = %0
  tail call void @_ZN6google8protobuf8internal11InitSCCImplEPNS1_11SCCInfoBaseE(%"struct.google::protobuf::internal::SCCInfoBase"* bitcast ({ { { { i32 } }, i32, i32, void ()* }, [1 x i8*] }* @scc_info_PirRequest_private_5fmembership_5frlwe_2eproto to %"struct.google::protobuf::internal::SCCInfoBase"*)) #14
  br label %4

4:                                                ; preds = %0, %3
  store %"class.std::__1::basic_string"* bitcast (%"class.google::protobuf::internal::ExplicitlyConstructed.20"* @_ZN6google8protobuf8internal26fixed_address_empty_stringE to %"class.std::__1::basic_string"*), %"class.std::__1::basic_string"** bitcast (i8* getelementptr inbounds (%"class.private_membership::rlwe::PirRequestDefaultTypeInternal", %"class.private_membership::rlwe::PirRequestDefaultTypeInternal"* @_ZN18private_membership4rlwe29_PirRequest_default_instance_E, i64 0, i32 0, i32 0, i32 1, i64 32) to %"class.std::__1::basic_string"**), align 8
  tail call void @_ZN6google8protobuf8internal13OnShutdownRunEPFvPKvES3_(void (i8*)* nonnull @_ZN6google8protobuf8internal14DestroyMessageEPKv, i8* bitcast (%"class.private_membership::rlwe::PirRequestDefaultTypeInternal"* @_ZN18private_membership4rlwe29_PirRequest_default_instance_E to i8*)) #14
  ret void
}

; Function Attrs: nounwind ssp uwtable
define internal void @_ZL68InitDefaultsscc_info_PirResponse_private_5fmembership_5frlwe_2eprotov() #0 {
  tail call void @_ZN6google8protobuf8internal13VerifyVersionEiiPKc(i32 3013000, i32 3013000, i8* getelementptr inbounds ([69 x i8], [69 x i8]* @.str, i64 0, i64 0)) #14
  store %"class.google::protobuf::Arena"* null, %"class.google::protobuf::Arena"** bitcast (i8* getelementptr inbounds (%"class.private_membership::rlwe::PirResponseDefaultTypeInternal", %"class.private_membership::rlwe::PirResponseDefaultTypeInternal"* @_ZN18private_membership4rlwe30_PirResponse_default_instance_E, i64 0, i32 0, i32 0, i32 1, i64 0) to %"class.google::protobuf::Arena"**), align 8
  store i32 (...)** bitcast (i8** getelementptr inbounds ({ [16 x i8*] }, { [16 x i8*] }* @_ZTVN18private_membership4rlwe11PirResponseE, i64 0, inrange i32 0, i64 2) to i32 (...)**), i32 (...)*** bitcast (%"class.private_membership::rlwe::PirResponseDefaultTypeInternal"* @_ZN18private_membership4rlwe30_PirResponse_default_instance_E to i32 (...)***), align 8
  store i32 0, i32* bitcast (i8* getelementptr inbounds (%"class.private_membership::rlwe::PirResponseDefaultTypeInternal", %"class.private_membership::rlwe::PirResponseDefaultTypeInternal"* @_ZN18private_membership4rlwe30_PirResponse_default_instance_E, i64 0, i32 0, i32 0, i32 1, i64 36) to i32*), align 4
  tail call void @llvm.memset.p0i8.i64(i8* align 8 getelementptr inbounds (%"class.private_membership::rlwe::PirResponseDefaultTypeInternal", %"class.private_membership::rlwe::PirResponseDefaultTypeInternal"* @_ZN18private_membership4rlwe30_PirResponse_default_instance_E, i64 0, i32 0, i32 0, i32 1, i64 8), i8 0, i64 24, i1 false) #14
  %1 = load atomic i32, i32* getelementptr inbounds ({ { { { i32 } }, i32, i32, void ()* }, [1 x i8*] }, { { { { i32 } }, i32, i32, void ()* }, [1 x i8*] }* @scc_info_PirResponse_private_5fmembership_5frlwe_2eproto, i64 0, i32 0, i32 0, i32 0, i32 0) acquire, align 8
  %2 = icmp eq i32 %1, 0
  br i1 %2, label %4, label %3, !prof !2

3:                                                ; preds = %0
  tail call void @_ZN6google8protobuf8internal11InitSCCImplEPNS1_11SCCInfoBaseE(%"struct.google::protobuf::internal::SCCInfoBase"* bitcast ({ { { { i32 } }, i32, i32, void ()* }, [1 x i8*] }* @scc_info_PirResponse_private_5fmembership_5frlwe_2eproto to %"struct.google::protobuf::internal::SCCInfoBase"*)) #14
  br label %4

4:                                                ; preds = %0, %3
  store i32 0, i32* bitcast (i8* getelementptr inbounds (%"class.private_membership::rlwe::PirResponseDefaultTypeInternal", %"class.private_membership::rlwe::PirResponseDefaultTypeInternal"* @_ZN18private_membership4rlwe30_PirResponse_default_instance_E, i64 0, i32 0, i32 0, i32 1, i64 32) to i32*), align 8
  tail call void @_ZN6google8protobuf8internal13OnShutdownRunEPFvPKvES3_(void (i8*)* nonnull @_ZN6google8protobuf8internal14DestroyMessageEPKv, i8* bitcast (%"class.private_membership::rlwe::PirResponseDefaultTypeInternal"* @_ZN18private_membership4rlwe30_PirResponse_default_instance_E to i8*)) #14
  ret void
}

; Function Attrs: nounwind ssp uwtable
define internal void @_ZL89InitDefaultsscc_info_PrivateMembershipRlweOprfRequest_private_5fmembership_5frlwe_2eprotov() #0 {
  tail call void @_ZN6google8protobuf8internal13VerifyVersionEiiPKc(i32 3013000, i32 3013000, i8* getelementptr inbounds ([69 x i8], [69 x i8]* @.str, i64 0, i64 0)) #14
  store %"class.google::protobuf::Arena"* null, %"class.google::protobuf::Arena"** bitcast (i8* getelementptr inbounds (%"class.private_membership::rlwe::PrivateMembershipRlweOprfRequestDefaultTypeInternal", %"class.private_membership::rlwe::PrivateMembershipRlweOprfRequestDefaultTypeInternal"* @_ZN18private_membership4rlwe51_PrivateMembershipRlweOprfRequest_default_instance_E, i64 0, i32 0, i32 0, i32 1, i64 0) to %"class.google::protobuf::Arena"**), align 8
  store i32 (...)** bitcast (i8** getelementptr inbounds ({ [16 x i8*] }, { [16 x i8*] }* @_ZTVN18private_membership4rlwe32PrivateMembershipRlweOprfRequestE, i64 0, inrange i32 0, i64 2) to i32 (...)**), i32 (...)*** bitcast (%"class.private_membership::rlwe::PrivateMembershipRlweOprfRequestDefaultTypeInternal"* @_ZN18private_membership4rlwe51_PrivateMembershipRlweOprfRequest_default_instance_E to i32 (...)***), align 8
  store i32 0, i32* bitcast (i8* getelementptr inbounds (%"class.private_membership::rlwe::PrivateMembershipRlweOprfRequestDefaultTypeInternal", %"class.private_membership::rlwe::PrivateMembershipRlweOprfRequestDefaultTypeInternal"* @_ZN18private_membership4rlwe51_PrivateMembershipRlweOprfRequest_default_instance_E, i64 0, i32 0, i32 0, i32 1, i64 36) to i32*), align 4
  tail call void @llvm.memset.p0i8.i64(i8* align 8 getelementptr inbounds (%"class.private_membership::rlwe::PrivateMembershipRlweOprfRequestDefaultTypeInternal", %"class.private_membership::rlwe::PrivateMembershipRlweOprfRequestDefaultTypeInternal"* @_ZN18private_membership4rlwe51_PrivateMembershipRlweOprfRequest_default_instance_E, i64 0, i32 0, i32 0, i32 1, i64 8), i8 0, i64 24, i1 false) #14
  %1 = load atomic i32, i32* getelementptr inbounds ({ { { { i32 } }, i32, i32, void ()* }, [0 x i8*] }, { { { { i32 } }, i32, i32, void ()* }, [0 x i8*] }* @scc_info_PrivateMembershipRlweOprfRequest_private_5fmembership_5frlwe_2eproto, i64 0, i32 0, i32 0, i32 0, i32 0) acquire, align 8
  %2 = icmp eq i32 %1, 0
  br i1 %2, label %4, label %3, !prof !2

3:                                                ; preds = %0
  tail call void @_ZN6google8protobuf8internal11InitSCCImplEPNS1_11SCCInfoBaseE(%"struct.google::protobuf::internal::SCCInfoBase"* bitcast ({ { { { i32 } }, i32, i32, void ()* }, [0 x i8*] }* @scc_info_PrivateMembershipRlweOprfRequest_private_5fmembership_5frlwe_2eproto to %"struct.google::protobuf::internal::SCCInfoBase"*)) #14
  br label %4

4:                                                ; preds = %0, %3
  store i32 0, i32* bitcast (i8* getelementptr inbounds (%"class.private_membership::rlwe::PrivateMembershipRlweOprfRequestDefaultTypeInternal", %"class.private_membership::rlwe::PrivateMembershipRlweOprfRequestDefaultTypeInternal"* @_ZN18private_membership4rlwe51_PrivateMembershipRlweOprfRequest_default_instance_E, i64 0, i32 0, i32 0, i32 1, i64 32) to i32*), align 8
  tail call void @_ZN6google8protobuf8internal13OnShutdownRunEPFvPKvES3_(void (i8*)* nonnull @_ZN6google8protobuf8internal14DestroyMessageEPKv, i8* bitcast (%"class.private_membership::rlwe::PrivateMembershipRlweOprfRequestDefaultTypeInternal"* @_ZN18private_membership4rlwe51_PrivateMembershipRlweOprfRequest_default_instance_E to i8*)) #14
  ret void
}

; Function Attrs: nounwind ssp uwtable
define internal void @_ZL90InitDefaultsscc_info_PrivateMembershipRlweOprfResponse_private_5fmembership_5frlwe_2eprotov() #0 {
  tail call void @_ZN6google8protobuf8internal13VerifyVersionEiiPKc(i32 3013000, i32 3013000, i8* getelementptr inbounds ([69 x i8], [69 x i8]* @.str, i64 0, i64 0)) #14
  store %"class.google::protobuf::Arena"* null, %"class.google::protobuf::Arena"** bitcast (i8* getelementptr inbounds (%"class.private_membership::rlwe::PrivateMembershipRlweOprfResponseDefaultTypeInternal", %"class.private_membership::rlwe::PrivateMembershipRlweOprfResponseDefaultTypeInternal"* @_ZN18private_membership4rlwe52_PrivateMembershipRlweOprfResponse_default_instance_E, i64 0, i32 0, i32 0, i32 1, i64 0) to %"class.google::protobuf::Arena"**), align 8
  store i32 (...)** bitcast (i8** getelementptr inbounds ({ [16 x i8*] }, { [16 x i8*] }* @_ZTVN18private_membership4rlwe33PrivateMembershipRlweOprfResponseE, i64 0, inrange i32 0, i64 2) to i32 (...)**), i32 (...)*** bitcast (%"class.private_membership::rlwe::PrivateMembershipRlweOprfResponseDefaultTypeInternal"* @_ZN18private_membership4rlwe52_PrivateMembershipRlweOprfResponse_default_instance_E to i32 (...)***), align 8
  store i32 0, i32* bitcast (i8* getelementptr inbounds (%"class.private_membership::rlwe::PrivateMembershipRlweOprfResponseDefaultTypeInternal", %"class.private_membership::rlwe::PrivateMembershipRlweOprfResponseDefaultTypeInternal"* @_ZN18private_membership4rlwe52_PrivateMembershipRlweOprfResponse_default_instance_E, i64 0, i32 0, i32 0, i32 1, i64 64) to i32*), align 8
  tail call void @llvm.memset.p0i8.i64(i8* align 8 getelementptr inbounds (%"class.private_membership::rlwe::PrivateMembershipRlweOprfResponseDefaultTypeInternal", %"class.private_membership::rlwe::PrivateMembershipRlweOprfResponseDefaultTypeInternal"* @_ZN18private_membership4rlwe52_PrivateMembershipRlweOprfResponse_default_instance_E, i64 0, i32 0, i32 0, i32 1, i64 8), i8 0, i64 24, i1 false) #14
  %1 = load atomic i32, i32* getelementptr inbounds ({ { { { i32 } }, i32, i32, void ()* }, [4 x i8*] }, { { { { i32 } }, i32, i32, void ()* }, [4 x i8*] }* @scc_info_PrivateMembershipRlweOprfResponse_private_5fmembership_5frlwe_2eproto, i64 0, i32 0, i32 0, i32 0, i32 0) acquire, align 8
  %2 = icmp eq i32 %1, 0
  br i1 %2, label %4, label %3, !prof !2

3:                                                ; preds = %0
  tail call void @_ZN6google8protobuf8internal11InitSCCImplEPNS1_11SCCInfoBaseE(%"struct.google::protobuf::internal::SCCInfoBase"* bitcast ({ { { { i32 } }, i32, i32, void ()* }, [4 x i8*] }* @scc_info_PrivateMembershipRlweOprfResponse_private_5fmembership_5frlwe_2eproto to %"struct.google::protobuf::internal::SCCInfoBase"*)) #14
  br label %4

4:                                                ; preds = %0, %3
  tail call void @llvm.memset.p0i8.i64(i8* align 8 getelementptr inbounds (%"class.private_membership::rlwe::PrivateMembershipRlweOprfResponseDefaultTypeInternal", %"class.private_membership::rlwe::PrivateMembershipRlweOprfResponseDefaultTypeInternal"* @_ZN18private_membership4rlwe52_PrivateMembershipRlweOprfResponse_default_instance_E, i64 0, i32 0, i32 0, i32 1, i64 32), i8 0, i64 32, i1 false) #14
  tail call void @_ZN6google8protobuf8internal13OnShutdownRunEPFvPKvES3_(void (i8*)* nonnull @_ZN6google8protobuf8internal14DestroyMessageEPKv, i8* bitcast (%"class.private_membership::rlwe::PrivateMembershipRlweOprfResponseDefaultTypeInternal"* @_ZN18private_membership4rlwe52_PrivateMembershipRlweOprfResponse_default_instance_E to i8*)) #14
  ret void
}

; Function Attrs: nounwind ssp uwtable
define internal void @_ZL89InitDefaultsscc_info_PrivateMembershipRlwePirResponse_private_5fmembership_5frlwe_2eprotov() #0 {
  tail call void @_ZN6google8protobuf8internal13VerifyVersionEiiPKc(i32 3013000, i32 3013000, i8* getelementptr inbounds ([69 x i8], [69 x i8]* @.str, i64 0, i64 0)) #14
  store %"class.google::protobuf::Arena"* null, %"class.google::protobuf::Arena"** bitcast (i8* getelementptr inbounds (%"class.private_membership::rlwe::PrivateMembershipRlwePirResponseDefaultTypeInternal", %"class.private_membership::rlwe::PrivateMembershipRlwePirResponseDefaultTypeInternal"* @_ZN18private_membership4rlwe51_PrivateMembershipRlwePirResponse_default_instance_E, i64 0, i32 0, i32 0, i32 1, i64 0) to %"class.google::protobuf::Arena"**), align 8
  store i32 (...)** bitcast (i8** getelementptr inbounds ({ [16 x i8*] }, { [16 x i8*] }* @_ZTVN18private_membership4rlwe32PrivateMembershipRlwePirResponseE, i64 0, inrange i32 0, i64 2) to i32 (...)**), i32 (...)*** bitcast (%"class.private_membership::rlwe::PrivateMembershipRlwePirResponseDefaultTypeInternal"* @_ZN18private_membership4rlwe51_PrivateMembershipRlwePirResponse_default_instance_E to i32 (...)***), align 8
  store i32 0, i32* bitcast (i8* getelementptr inbounds (%"class.private_membership::rlwe::PrivateMembershipRlwePirResponseDefaultTypeInternal", %"class.private_membership::rlwe::PrivateMembershipRlwePirResponseDefaultTypeInternal"* @_ZN18private_membership4rlwe51_PrivateMembershipRlwePirResponse_default_instance_E, i64 0, i32 0, i32 0, i32 1, i64 24) to i32*), align 8
  %1 = load atomic i32, i32* getelementptr inbounds ({ { { { i32 } }, i32, i32, void ()* }, [1 x i8*] }, { { { { i32 } }, i32, i32, void ()* }, [1 x i8*] }* @scc_info_PrivateMembershipRlwePirResponse_private_5fmembership_5frlwe_2eproto, i64 0, i32 0, i32 0, i32 0, i32 0) acquire, align 8
  %2 = icmp eq i32 %1, 0
  br i1 %2, label %4, label %3, !prof !2

3:                                                ; preds = %0
  tail call void @_ZN6google8protobuf8internal11InitSCCImplEPNS1_11SCCInfoBaseE(%"struct.google::protobuf::internal::SCCInfoBase"* bitcast ({ { { { i32 } }, i32, i32, void ()* }, [1 x i8*] }* @scc_info_PrivateMembershipRlwePirResponse_private_5fmembership_5frlwe_2eproto to %"struct.google::protobuf::internal::SCCInfoBase"*)) #14
  br label %4

4:                                                ; preds = %0, %3
  store %"class.std::__1::basic_string"* bitcast (%"class.google::protobuf::internal::ExplicitlyConstructed.20"* @_ZN6google8protobuf8internal26fixed_address_empty_stringE to %"class.std::__1::basic_string"*), %"class.std::__1::basic_string"** bitcast (i8* getelementptr inbounds (%"class.private_membership::rlwe::PrivateMembershipRlwePirResponseDefaultTypeInternal", %"class.private_membership::rlwe::PrivateMembershipRlwePirResponseDefaultTypeInternal"* @_ZN18private_membership4rlwe51_PrivateMembershipRlwePirResponse_default_instance_E, i64 0, i32 0, i32 0, i32 1, i64 8) to %"class.std::__1::basic_string"**), align 8
  store %"class.private_membership::rlwe::PirResponse"* null, %"class.private_membership::rlwe::PirResponse"** bitcast (i8* getelementptr inbounds (%"class.private_membership::rlwe::PrivateMembershipRlwePirResponseDefaultTypeInternal", %"class.private_membership::rlwe::PrivateMembershipRlwePirResponseDefaultTypeInternal"* @_ZN18private_membership4rlwe51_PrivateMembershipRlwePirResponse_default_instance_E, i64 0, i32 0, i32 0, i32 1, i64 16) to %"class.private_membership::rlwe::PirResponse"**), align 8
  tail call void @_ZN6google8protobuf8internal13OnShutdownRunEPFvPKvES3_(void (i8*)* nonnull @_ZN6google8protobuf8internal14DestroyMessageEPKv, i8* bitcast (%"class.private_membership::rlwe::PrivateMembershipRlwePirResponseDefaultTypeInternal"* @_ZN18private_membership4rlwe51_PrivateMembershipRlwePirResponse_default_instance_E to i8*)) #14
  ret void
}

; Function Attrs: nounwind ssp uwtable
define internal void @_ZL83InitDefaultsscc_info_PrivateMembershipRlweQuery_private_5fmembership_5frlwe_2eprotov() #0 {
  tail call void @_ZN6google8protobuf8internal13VerifyVersionEiiPKc(i32 3013000, i32 3013000, i8* getelementptr inbounds ([69 x i8], [69 x i8]* @.str, i64 0, i64 0)) #14
  store %"class.google::protobuf::Arena"* null, %"class.google::protobuf::Arena"** bitcast (i8* getelementptr inbounds (%"class.private_membership::rlwe::PrivateMembershipRlweQueryDefaultTypeInternal", %"class.private_membership::rlwe::PrivateMembershipRlweQueryDefaultTypeInternal"* @_ZN18private_membership4rlwe45_PrivateMembershipRlweQuery_default_instance_E, i64 0, i32 0, i32 0, i32 1, i64 0) to %"class.google::protobuf::Arena"**), align 8
  store i32 (...)** bitcast (i8** getelementptr inbounds ({ [16 x i8*] }, { [16 x i8*] }* @_ZTVN18private_membership4rlwe26PrivateMembershipRlweQueryE, i64 0, inrange i32 0, i64 2) to i32 (...)**), i32 (...)*** bitcast (%"class.private_membership::rlwe::PrivateMembershipRlweQueryDefaultTypeInternal"* @_ZN18private_membership4rlwe45_PrivateMembershipRlweQuery_default_instance_E to i32 (...)***), align 8
  store i32 0, i32* bitcast (i8* getelementptr inbounds (%"class.private_membership::rlwe::PrivateMembershipRlweQueryDefaultTypeInternal", %"class.private_membership::rlwe::PrivateMembershipRlweQueryDefaultTypeInternal"* @_ZN18private_membership4rlwe45_PrivateMembershipRlweQuery_default_instance_E, i64 0, i32 0, i32 0, i32 1, i64 32) to i32*), align 8
  %1 = load atomic i32, i32* getelementptr inbounds ({ { { { i32 } }, i32, i32, void ()* }, [2 x i8*] }, { { { { i32 } }, i32, i32, void ()* }, [2 x i8*] }* @scc_info_PrivateMembershipRlweQuery_private_5fmembership_5frlwe_2eproto, i64 0, i32 0, i32 0, i32 0, i32 0) acquire, align 8
  %2 = icmp eq i32 %1, 0
  br i1 %2, label %4, label %3, !prof !2

3:                                                ; preds = %0
  tail call void @_ZN6google8protobuf8internal11InitSCCImplEPNS1_11SCCInfoBaseE(%"struct.google::protobuf::internal::SCCInfoBase"* bitcast ({ { { { i32 } }, i32, i32, void ()* }, [2 x i8*] }* @scc_info_PrivateMembershipRlweQuery_private_5fmembership_5frlwe_2eproto to %"struct.google::protobuf::internal::SCCInfoBase"*)) #14
  br label %4

4:                                                ; preds = %0, %3
  store %"class.std::__1::basic_string"* bitcast (%"class.google::protobuf::internal::ExplicitlyConstructed.20"* @_ZN6google8protobuf8internal26fixed_address_empty_stringE to %"class.std::__1::basic_string"*), %"class.std::__1::basic_string"** bitcast (i8* getelementptr inbounds (%"class.private_membership::rlwe::PrivateMembershipRlweQueryDefaultTypeInternal", %"class.private_membership::rlwe::PrivateMembershipRlweQueryDefaultTypeInternal"* @_ZN18private_membership4rlwe45_PrivateMembershipRlweQuery_default_instance_E, i64 0, i32 0, i32 0, i32 1, i64 8) to %"class.std::__1::basic_string"**), align 8
  tail call void @llvm.memset.p0i8.i64(i8* align 8 getelementptr inbounds (%"class.private_membership::rlwe::PrivateMembershipRlweQueryDefaultTypeInternal", %"class.private_membership::rlwe::PrivateMembershipRlweQueryDefaultTypeInternal"* @_ZN18private_membership4rlwe45_PrivateMembershipRlweQuery_default_instance_E, i64 0, i32 0, i32 0, i32 1, i64 16), i8 0, i64 16, i1 false) #14
  tail call void @_ZN6google8protobuf8internal13OnShutdownRunEPFvPKvES3_(void (i8*)* nonnull @_ZN6google8protobuf8internal14DestroyMessageEPKv, i8* bitcast (%"class.private_membership::rlwe::PrivateMembershipRlweQueryDefaultTypeInternal"* @_ZN18private_membership4rlwe45_PrivateMembershipRlweQuery_default_instance_E to i8*)) #14
  ret void
}

; Function Attrs: nounwind ssp uwtable
define internal void @_ZL98InitDefaultsscc_info_PrivateMembershipRlweQuery_HashedBucketId_private_5fmembership_5frlwe_2eprotov() #0 {
  tail call void @_ZN6google8protobuf8internal13VerifyVersionEiiPKc(i32 3013000, i32 3013000, i8* getelementptr inbounds ([69 x i8], [69 x i8]* @.str, i64 0, i64 0)) #14
  store %"class.google::protobuf::Arena"* null, %"class.google::protobuf::Arena"** bitcast (i8* getelementptr inbounds (%"class.private_membership::rlwe::PrivateMembershipRlweQuery_HashedBucketIdDefaultTypeInternal", %"class.private_membership::rlwe::PrivateMembershipRlweQuery_HashedBucketIdDefaultTypeInternal"* @_ZN18private_membership4rlwe60_PrivateMembershipRlweQuery_HashedBucketId_default_instance_E, i64 0, i32 0, i32 0, i32 1, i64 0) to %"class.google::protobuf::Arena"**), align 8
  store i32 (...)** bitcast (i8** getelementptr inbounds ({ [16 x i8*] }, { [16 x i8*] }* @_ZTVN18private_membership4rlwe41PrivateMembershipRlweQuery_HashedBucketIdE, i64 0, inrange i32 0, i64 2) to i32 (...)**), i32 (...)*** bitcast (%"class.private_membership::rlwe::PrivateMembershipRlweQuery_HashedBucketIdDefaultTypeInternal"* @_ZN18private_membership4rlwe60_PrivateMembershipRlweQuery_HashedBucketId_default_instance_E to i32 (...)***), align 8
  store i32 0, i32* bitcast (i8* getelementptr inbounds (%"class.private_membership::rlwe::PrivateMembershipRlweQuery_HashedBucketIdDefaultTypeInternal", %"class.private_membership::rlwe::PrivateMembershipRlweQuery_HashedBucketIdDefaultTypeInternal"* @_ZN18private_membership4rlwe60_PrivateMembershipRlweQuery_HashedBucketId_default_instance_E, i64 0, i32 0, i32 0, i32 1, i64 20) to i32*), align 4
  %1 = load atomic i32, i32* getelementptr inbounds ({ { { { i32 } }, i32, i32, void ()* }, [0 x i8*] }, { { { { i32 } }, i32, i32, void ()* }, [0 x i8*] }* @scc_info_PrivateMembershipRlweQuery_HashedBucketId_private_5fmembership_5frlwe_2eproto, i64 0, i32 0, i32 0, i32 0, i32 0) acquire, align 8
  %2 = icmp eq i32 %1, 0
  br i1 %2, label %4, label %3, !prof !2

3:                                                ; preds = %0
  tail call void @_ZN6google8protobuf8internal11InitSCCImplEPNS1_11SCCInfoBaseE(%"struct.google::protobuf::internal::SCCInfoBase"* bitcast ({ { { { i32 } }, i32, i32, void ()* }, [0 x i8*] }* @scc_info_PrivateMembershipRlweQuery_HashedBucketId_private_5fmembership_5frlwe_2eproto to %"struct.google::protobuf::internal::SCCInfoBase"*)) #14
  br label %4

4:                                                ; preds = %0, %3
  store %"class.std::__1::basic_string"* bitcast (%"class.google::protobuf::internal::ExplicitlyConstructed.20"* @_ZN6google8protobuf8internal26fixed_address_empty_stringE to %"class.std::__1::basic_string"*), %"class.std::__1::basic_string"** bitcast (i8* getelementptr inbounds (%"class.private_membership::rlwe::PrivateMembershipRlweQuery_HashedBucketIdDefaultTypeInternal", %"class.private_membership::rlwe::PrivateMembershipRlweQuery_HashedBucketIdDefaultTypeInternal"* @_ZN18private_membership4rlwe60_PrivateMembershipRlweQuery_HashedBucketId_default_instance_E, i64 0, i32 0, i32 0, i32 1, i64 8) to %"class.std::__1::basic_string"**), align 8
  store i32 0, i32* bitcast (i8* getelementptr inbounds (%"class.private_membership::rlwe::PrivateMembershipRlweQuery_HashedBucketIdDefaultTypeInternal", %"class.private_membership::rlwe::PrivateMembershipRlweQuery_HashedBucketIdDefaultTypeInternal"* @_ZN18private_membership4rlwe60_PrivateMembershipRlweQuery_HashedBucketId_default_instance_E, i64 0, i32 0, i32 0, i32 1, i64 16) to i32*), align 8
  tail call void @_ZN6google8protobuf8internal13OnShutdownRunEPFvPKvES3_(void (i8*)* nonnull @_ZN6google8protobuf8internal14DestroyMessageEPKv, i8* bitcast (%"class.private_membership::rlwe::PrivateMembershipRlweQuery_HashedBucketIdDefaultTypeInternal"* @_ZN18private_membership4rlwe60_PrivateMembershipRlweQuery_HashedBucketId_default_instance_E to i8*)) #14
  ret void
}

; Function Attrs: nounwind ssp uwtable
define internal void @_ZL90InitDefaultsscc_info_PrivateMembershipRlweQueryRequest_private_5fmembership_5frlwe_2eprotov() #0 {
  tail call void @_ZN6google8protobuf8internal13VerifyVersionEiiPKc(i32 3013000, i32 3013000, i8* getelementptr inbounds ([69 x i8], [69 x i8]* @.str, i64 0, i64 0)) #14
  store %"class.google::protobuf::Arena"* null, %"class.google::protobuf::Arena"** bitcast (i8* getelementptr inbounds (%"class.private_membership::rlwe::PrivateMembershipRlweQueryRequestDefaultTypeInternal", %"class.private_membership::rlwe::PrivateMembershipRlweQueryRequestDefaultTypeInternal"* @_ZN18private_membership4rlwe52_PrivateMembershipRlweQueryRequest_default_instance_E, i64 0, i32 0, i32 0, i32 1, i64 0) to %"class.google::protobuf::Arena"**), align 8
  store i32 (...)** bitcast (i8** getelementptr inbounds ({ [16 x i8*] }, { [16 x i8*] }* @_ZTVN18private_membership4rlwe33PrivateMembershipRlweQueryRequestE, i64 0, inrange i32 0, i64 2) to i32 (...)**), i32 (...)*** bitcast (%"class.private_membership::rlwe::PrivateMembershipRlweQueryRequestDefaultTypeInternal"* @_ZN18private_membership4rlwe52_PrivateMembershipRlweQueryRequest_default_instance_E to i32 (...)***), align 8
  store i32 0, i32* bitcast (i8* getelementptr inbounds (%"class.private_membership::rlwe::PrivateMembershipRlweQueryRequestDefaultTypeInternal", %"class.private_membership::rlwe::PrivateMembershipRlweQueryRequestDefaultTypeInternal"* @_ZN18private_membership4rlwe52_PrivateMembershipRlweQueryRequest_default_instance_E, i64 0, i32 0, i32 0, i32 1, i64 44) to i32*), align 4
  tail call void @llvm.memset.p0i8.i64(i8* align 8 getelementptr inbounds (%"class.private_membership::rlwe::PrivateMembershipRlweQueryRequestDefaultTypeInternal", %"class.private_membership::rlwe::PrivateMembershipRlweQueryRequestDefaultTypeInternal"* @_ZN18private_membership4rlwe52_PrivateMembershipRlweQueryRequest_default_instance_E, i64 0, i32 0, i32 0, i32 1, i64 8), i8 0, i64 24, i1 false) #14
  %1 = load atomic i32, i32* getelementptr inbounds ({ { { { i32 } }, i32, i32, void ()* }, [1 x i8*] }, { { { { i32 } }, i32, i32, void ()* }, [1 x i8*] }* @scc_info_PrivateMembershipRlweQueryRequest_private_5fmembership_5frlwe_2eproto, i64 0, i32 0, i32 0, i32 0, i32 0) acquire, align 8
  %2 = icmp eq i32 %1, 0
  br i1 %2, label %4, label %3, !prof !2

3:                                                ; preds = %0
  tail call void @_ZN6google8protobuf8internal11InitSCCImplEPNS1_11SCCInfoBaseE(%"struct.google::protobuf::internal::SCCInfoBase"* bitcast ({ { { { i32 } }, i32, i32, void ()* }, [1 x i8*] }* @scc_info_PrivateMembershipRlweQueryRequest_private_5fmembership_5frlwe_2eproto to %"struct.google::protobuf::internal::SCCInfoBase"*)) #14
  br label %4

4:                                                ; preds = %0, %3
  tail call void @llvm.memset.p0i8.i64(i8* align 8 getelementptr inbounds (%"class.private_membership::rlwe::PrivateMembershipRlweQueryRequestDefaultTypeInternal", %"class.private_membership::rlwe::PrivateMembershipRlweQueryRequestDefaultTypeInternal"* @_ZN18private_membership4rlwe52_PrivateMembershipRlweQueryRequest_default_instance_E, i64 0, i32 0, i32 0, i32 1, i64 32), i8 0, i64 12, i1 false) #14
  tail call void @_ZN6google8protobuf8internal13OnShutdownRunEPFvPKvES3_(void (i8*)* nonnull @_ZN6google8protobuf8internal14DestroyMessageEPKv, i8* bitcast (%"class.private_membership::rlwe::PrivateMembershipRlweQueryRequestDefaultTypeInternal"* @_ZN18private_membership4rlwe52_PrivateMembershipRlweQueryRequest_default_instance_E to i8*)) #14
  ret void
}

; Function Attrs: nounwind ssp uwtable
define internal void @_ZL91InitDefaultsscc_info_PrivateMembershipRlweQueryResponse_private_5fmembership_5frlwe_2eprotov() #0 {
  tail call void @_ZN6google8protobuf8internal13VerifyVersionEiiPKc(i32 3013000, i32 3013000, i8* getelementptr inbounds ([69 x i8], [69 x i8]* @.str, i64 0, i64 0)) #14
  store %"class.google::protobuf::Arena"* null, %"class.google::protobuf::Arena"** bitcast (i8* getelementptr inbounds (%"class.private_membership::rlwe::PrivateMembershipRlweQueryResponseDefaultTypeInternal", %"class.private_membership::rlwe::PrivateMembershipRlweQueryResponseDefaultTypeInternal"* @_ZN18private_membership4rlwe53_PrivateMembershipRlweQueryResponse_default_instance_E, i64 0, i32 0, i32 0, i32 1, i64 0) to %"class.google::protobuf::Arena"**), align 8
  store i32 (...)** bitcast (i8** getelementptr inbounds ({ [16 x i8*] }, { [16 x i8*] }* @_ZTVN18private_membership4rlwe34PrivateMembershipRlweQueryResponseE, i64 0, inrange i32 0, i64 2) to i32 (...)**), i32 (...)*** bitcast (%"class.private_membership::rlwe::PrivateMembershipRlweQueryResponseDefaultTypeInternal"* @_ZN18private_membership4rlwe53_PrivateMembershipRlweQueryResponse_default_instance_E to i32 (...)***), align 8
  tail call void @llvm.memset.p0i8.i64(i8* align 8 getelementptr inbounds (%"class.private_membership::rlwe::PrivateMembershipRlweQueryResponseDefaultTypeInternal", %"class.private_membership::rlwe::PrivateMembershipRlweQueryResponseDefaultTypeInternal"* @_ZN18private_membership4rlwe53_PrivateMembershipRlweQueryResponse_default_instance_E, i64 0, i32 0, i32 0, i32 1, i64 8), i8 0, i64 28, i1 false) #14
  %1 = load atomic i32, i32* getelementptr inbounds ({ { { { i32 } }, i32, i32, void ()* }, [1 x i8*] }, { { { { i32 } }, i32, i32, void ()* }, [1 x i8*] }* @scc_info_PrivateMembershipRlweQueryResponse_private_5fmembership_5frlwe_2eproto, i64 0, i32 0, i32 0, i32 0, i32 0) acquire, align 8
  %2 = icmp eq i32 %1, 0
  br i1 %2, label %4, label %3, !prof !2

3:                                                ; preds = %0
  tail call void @_ZN6google8protobuf8internal11InitSCCImplEPNS1_11SCCInfoBaseE(%"struct.google::protobuf::internal::SCCInfoBase"* bitcast ({ { { { i32 } }, i32, i32, void ()* }, [1 x i8*] }* @scc_info_PrivateMembershipRlweQueryResponse_private_5fmembership_5frlwe_2eproto to %"struct.google::protobuf::internal::SCCInfoBase"*)) #14
  br label %4

4:                                                ; preds = %0, %3
  tail call void @_ZN6google8protobuf8internal13OnShutdownRunEPFvPKvES3_(void (i8*)* nonnull @_ZN6google8protobuf8internal14DestroyMessageEPKv, i8* bitcast (%"class.private_membership::rlwe::PrivateMembershipRlweQueryResponseDefaultTypeInternal"* @_ZN18private_membership4rlwe53_PrivateMembershipRlweQueryResponse_default_instance_E to i8*)) #14
  ret void
}

; Function Attrs: nounwind ssp uwtable
define internal void @_ZL71InitDefaultsscc_info_RlweParameters_private_5fmembership_5frlwe_2eprotov() #0 {
  tail call void @_ZN6google8protobuf8internal13VerifyVersionEiiPKc(i32 3013000, i32 3013000, i8* getelementptr inbounds ([69 x i8], [69 x i8]* @.str, i64 0, i64 0)) #14
  store %"class.google::protobuf::Arena"* null, %"class.google::protobuf::Arena"** bitcast (i8* getelementptr inbounds (%"class.private_membership::rlwe::RlweParametersDefaultTypeInternal", %"class.private_membership::rlwe::RlweParametersDefaultTypeInternal"* @_ZN18private_membership4rlwe33_RlweParameters_default_instance_E, i64 0, i32 0, i32 0, i32 1, i64 0) to %"class.google::protobuf::Arena"**), align 8
  store i32 (...)** bitcast (i8** getelementptr inbounds ({ [16 x i8*] }, { [16 x i8*] }* @_ZTVN18private_membership4rlwe14RlweParametersE, i64 0, inrange i32 0, i64 2) to i32 (...)**), i32 (...)*** bitcast (%"class.private_membership::rlwe::RlweParametersDefaultTypeInternal"* @_ZN18private_membership4rlwe33_RlweParameters_default_instance_E to i32 (...)***), align 8
  store i32 0, i32* bitcast (i8* getelementptr inbounds (%"class.private_membership::rlwe::RlweParametersDefaultTypeInternal", %"class.private_membership::rlwe::RlweParametersDefaultTypeInternal"* @_ZN18private_membership4rlwe33_RlweParameters_default_instance_E, i64 0, i32 0, i32 0, i32 1, i64 48) to i32*), align 8
  tail call void @llvm.memset.p0i8.i64(i8* align 8 getelementptr inbounds (%"class.private_membership::rlwe::RlweParametersDefaultTypeInternal", %"class.private_membership::rlwe::RlweParametersDefaultTypeInternal"* @_ZN18private_membership4rlwe33_RlweParameters_default_instance_E, i64 0, i32 0, i32 0, i32 1, i64 8), i8 0, i64 24, i1 false) #14
  %1 = load atomic i32, i32* getelementptr inbounds ({ { { { i32 } }, i32, i32, void ()* }, [1 x i8*] }, { { { { i32 } }, i32, i32, void ()* }, [1 x i8*] }* @scc_info_RlweParameters_private_5fmembership_5frlwe_2eproto, i64 0, i32 0, i32 0, i32 0, i32 0) acquire, align 8
  %2 = icmp eq i32 %1, 0
  br i1 %2, label %4, label %3, !prof !2

3:                                                ; preds = %0
  tail call void @_ZN6google8protobuf8internal11InitSCCImplEPNS1_11SCCInfoBaseE(%"struct.google::protobuf::internal::SCCInfoBase"* bitcast ({ { { { i32 } }, i32, i32, void ()* }, [1 x i8*] }* @scc_info_RlweParameters_private_5fmembership_5frlwe_2eproto to %"struct.google::protobuf::internal::SCCInfoBase"*)) #14
  br label %4

4:                                                ; preds = %0, %3
  tail call void @llvm.memset.p0i8.i64(i8* align 8 getelementptr inbounds (%"class.private_membership::rlwe::RlweParametersDefaultTypeInternal", %"class.private_membership::rlwe::RlweParametersDefaultTypeInternal"* @_ZN18private_membership4rlwe33_RlweParameters_default_instance_E, i64 0, i32 0, i32 0, i32 1, i64 32), i8 0, i64 16, i1 false) #14
  tail call void @_ZN6google8protobuf8internal13OnShutdownRunEPFvPKvES3_(void (i8*)* nonnull @_ZN6google8protobuf8internal14DestroyMessageEPKv, i8* bitcast (%"class.private_membership::rlwe::RlweParametersDefaultTypeInternal"* @_ZN18private_membership4rlwe33_RlweParameters_default_instance_E to i8*)) #14
  ret void
}

; Function Attrs: nounwind ssp uwtable
define internal void @_ZL72InitDefaultsscc_info_RlwePlaintextId_private_5fmembership_5frlwe_2eprotov() #0 {
  tail call void @_ZN6google8protobuf8internal13VerifyVersionEiiPKc(i32 3013000, i32 3013000, i8* getelementptr inbounds ([69 x i8], [69 x i8]* @.str, i64 0, i64 0)) #14
  store %"class.google::protobuf::Arena"* null, %"class.google::protobuf::Arena"** bitcast (i8* getelementptr inbounds (%"class.private_membership::rlwe::RlwePlaintextIdDefaultTypeInternal", %"class.private_membership::rlwe::RlwePlaintextIdDefaultTypeInternal"* @_ZN18private_membership4rlwe34_RlwePlaintextId_default_instance_E, i64 0, i32 0, i32 0, i32 1, i64 0) to %"class.google::protobuf::Arena"**), align 8
  store i32 (...)** bitcast (i8** getelementptr inbounds ({ [16 x i8*] }, { [16 x i8*] }* @_ZTVN18private_membership4rlwe15RlwePlaintextIdE, i64 0, inrange i32 0, i64 2) to i32 (...)**), i32 (...)*** bitcast (%"class.private_membership::rlwe::RlwePlaintextIdDefaultTypeInternal"* @_ZN18private_membership4rlwe34_RlwePlaintextId_default_instance_E to i32 (...)***), align 8
  store i32 0, i32* bitcast (i8* getelementptr inbounds (%"class.private_membership::rlwe::RlwePlaintextIdDefaultTypeInternal", %"class.private_membership::rlwe::RlwePlaintextIdDefaultTypeInternal"* @_ZN18private_membership4rlwe34_RlwePlaintextId_default_instance_E, i64 0, i32 0, i32 0, i32 1, i64 24) to i32*), align 8
  %1 = load atomic i32, i32* getelementptr inbounds ({ { { { i32 } }, i32, i32, void ()* }, [0 x i8*] }, { { { { i32 } }, i32, i32, void ()* }, [0 x i8*] }* @scc_info_RlwePlaintextId_private_5fmembership_5frlwe_2eproto, i64 0, i32 0, i32 0, i32 0, i32 0) acquire, align 8
  %2 = icmp eq i32 %1, 0
  br i1 %2, label %4, label %3, !prof !2

3:                                                ; preds = %0
  tail call void @_ZN6google8protobuf8internal11InitSCCImplEPNS1_11SCCInfoBaseE(%"struct.google::protobuf::internal::SCCInfoBase"* bitcast ({ { { { i32 } }, i32, i32, void ()* }, [0 x i8*] }* @scc_info_RlwePlaintextId_private_5fmembership_5frlwe_2eproto to %"struct.google::protobuf::internal::SCCInfoBase"*)) #14
  br label %4

4:                                                ; preds = %0, %3
  store <2 x %"class.std::__1::basic_string"*> <%"class.std::__1::basic_string"* bitcast (%"class.google::protobuf::internal::ExplicitlyConstructed.20"* @_ZN6google8protobuf8internal26fixed_address_empty_stringE to %"class.std::__1::basic_string"*), %"class.std::__1::basic_string"* bitcast (%"class.google::protobuf::internal::ExplicitlyConstructed.20"* @_ZN6google8protobuf8internal26fixed_address_empty_stringE to %"class.std::__1::basic_string"*)>, <2 x %"class.std::__1::basic_string"*>* bitcast (i8* getelementptr inbounds (%"class.private_membership::rlwe::RlwePlaintextIdDefaultTypeInternal", %"class.private_membership::rlwe::RlwePlaintextIdDefaultTypeInternal"* @_ZN18private_membership4rlwe34_RlwePlaintextId_default_instance_E, i64 0, i32 0, i32 0, i32 1, i64 8) to <2 x %"class.std::__1::basic_string"*>*), align 8
  tail call void @_ZN6google8protobuf8internal13OnShutdownRunEPFvPKvES3_(void (i8*)* nonnull @_ZN6google8protobuf8internal14DestroyMessageEPKv, i8* bitcast (%"class.private_membership::rlwe::RlwePlaintextIdDefaultTypeInternal"* @_ZN18private_membership4rlwe34_RlwePlaintextId_default_instance_E to i8*)) #14
  ret void
}

; Function Attrs: nounwind ssp uwtable
define internal void @_ZL64InitDefaultsscc_info_Uint128_private_5fmembership_5frlwe_2eprotov() #0 {
  tail call void @_ZN6google8protobuf8internal13VerifyVersionEiiPKc(i32 3013000, i32 3013000, i8* getelementptr inbounds ([69 x i8], [69 x i8]* @.str, i64 0, i64 0)) #14
  store %"class.google::protobuf::Arena"* null, %"class.google::protobuf::Arena"** bitcast (i8* getelementptr inbounds (%"class.private_membership::rlwe::Uint128DefaultTypeInternal", %"class.private_membership::rlwe::Uint128DefaultTypeInternal"* @_ZN18private_membership4rlwe26_Uint128_default_instance_E, i64 0, i32 0, i32 0, i32 1, i64 0) to %"class.google::protobuf::Arena"**), align 8
  store i32 (...)** bitcast (i8** getelementptr inbounds ({ [16 x i8*] }, { [16 x i8*] }* @_ZTVN18private_membership4rlwe7Uint128E, i64 0, inrange i32 0, i64 2) to i32 (...)**), i32 (...)*** bitcast (%"class.private_membership::rlwe::Uint128DefaultTypeInternal"* @_ZN18private_membership4rlwe26_Uint128_default_instance_E to i32 (...)***), align 8
  tail call void @llvm.memset.p0i8.i64(i8* align 8 getelementptr inbounds (%"class.private_membership::rlwe::Uint128DefaultTypeInternal", %"class.private_membership::rlwe::Uint128DefaultTypeInternal"* @_ZN18private_membership4rlwe26_Uint128_default_instance_E, i64 0, i32 0, i32 0, i32 1, i64 8), i8 0, i64 20, i1 false) #14
  tail call void @_ZN6google8protobuf8internal13OnShutdownRunEPFvPKvES3_(void (i8*)* nonnull @_ZN6google8protobuf8internal14DestroyMessageEPKv, i8* bitcast (%"class.private_membership::rlwe::Uint128DefaultTypeInternal"* @_ZN18private_membership4rlwe26_Uint128_default_instance_E to i8*)) #14
  ret void
}

; Function Attrs: norecurse nounwind readnone ssp uwtable
define hidden zeroext i1 @_ZN18private_membership4rlwe19RlweUseCase_IsValidEi(i32) local_unnamed_addr #1 {
  %2 = icmp ult i32 %0, 6
  br i1 %2, label %3, label %8

3:                                                ; preds = %1
  %4 = trunc i32 %0 to i6
  %5 = lshr i6 -17, %4
  %6 = and i6 %5, 1
  %7 = icmp ne i6 %6, 0
  ret i1 %7

8:                                                ; preds = %1
  ret i1 false
}

; Function Attrs: argmemonly nounwind
declare {}* @llvm.invariant.start.p0i8(i64 immarg, i8* nocapture) #2

; Function Attrs: nounwind ssp uwtable
define hidden dereferenceable(24) %"class.std::__1::basic_string"* @_ZN18private_membership4rlwe16RlweUseCase_NameENS0_11RlweUseCaseE(i32) local_unnamed_addr #0 {
  %2 = load atomic i8, i8* bitcast (i64* @_ZGVZN18private_membership4rlwe16RlweUseCase_NameENS0_11RlweUseCaseEE5dummy to i8*) acquire, align 8
  %3 = icmp eq i8 %2, 0
  br i1 %3, label %4, label %11, !prof !3

4:                                                ; preds = %1
  %5 = tail call i32 @__cxa_guard_acquire(i64* nonnull @_ZGVZN18private_membership4rlwe16RlweUseCase_NameENS0_11RlweUseCaseEE5dummy) #14
  %6 = icmp eq i32 %5, 0
  br i1 %6, label %11, label %7

7:                                                ; preds = %4
  %8 = tail call zeroext i1 @_ZN6google8protobuf8internal21InitializeEnumStringsEPKNS1_9EnumEntryEPKimPNS1_21ExplicitlyConstructedINSt3__112basic_stringIcNS8_11char_traitsIcEENS8_9allocatorIcEEEEEE(%"struct.google::protobuf::internal::EnumEntry"* getelementptr inbounds ([5 x %"struct.google::protobuf::internal::EnumEntry"], [5 x %"struct.google::protobuf::internal::EnumEntry"]* @_ZN18private_membership4rlweL19RlweUseCase_entriesE, i64 0, i64 0), i32* getelementptr inbounds ([5 x i32], [5 x i32]* @_ZN18private_membership4rlweL29RlweUseCase_entries_by_numberE, i64 0, i64 0), i64 5, %"class.google::protobuf::internal::ExplicitlyConstructed.20"* getelementptr inbounds ([5 x %"class.google::protobuf::internal::ExplicitlyConstructed.20"], [5 x %"class.google::protobuf::internal::ExplicitlyConstructed.20"]* @_ZN18private_membership4rlweL19RlweUseCase_stringsE, i64 0, i64 0)) #14
  %9 = zext i1 %8 to i8
  store i8 %9, i8* @_ZZN18private_membership4rlwe16RlweUseCase_NameENS0_11RlweUseCaseEE5dummy, align 1
  %10 = tail call {}* @llvm.invariant.start.p0i8(i64 1, i8* nonnull @_ZZN18private_membership4rlwe16RlweUseCase_NameENS0_11RlweUseCaseEE5dummy)
  tail call void @__cxa_guard_release(i64* nonnull @_ZGVZN18private_membership4rlwe16RlweUseCase_NameENS0_11RlweUseCaseEE5dummy) #14
  br label %11

11:                                               ; preds = %4, %7, %1
  %12 = tail call i32 @_ZN6google8protobuf8internal14LookUpEnumNameEPKNS1_9EnumEntryEPKimi(%"struct.google::protobuf::internal::EnumEntry"* getelementptr inbounds ([5 x %"struct.google::protobuf::internal::EnumEntry"], [5 x %"struct.google::protobuf::internal::EnumEntry"]* @_ZN18private_membership4rlweL19RlweUseCase_entriesE, i64 0, i64 0), i32* getelementptr inbounds ([5 x i32], [5 x i32]* @_ZN18private_membership4rlweL29RlweUseCase_entries_by_numberE, i64 0, i64 0), i64 5, i32 %0) #14
  %13 = icmp eq i32 %12, -1
  br i1 %13, label %14, label %16

14:                                               ; preds = %11
  %15 = tail call dereferenceable(24) %"class.std::__1::basic_string"* @_ZN6google8protobuf8internal14GetEmptyStringEv() #14
  br label %20

16:                                               ; preds = %11
  %17 = sext i32 %12 to i64
  %18 = getelementptr inbounds [5 x %"class.google::protobuf::internal::ExplicitlyConstructed.20"], [5 x %"class.google::protobuf::internal::ExplicitlyConstructed.20"]* @_ZN18private_membership4rlweL19RlweUseCase_stringsE, i64 0, i64 %17
  %19 = bitcast %"class.google::protobuf::internal::ExplicitlyConstructed.20"* %18 to %"class.std::__1::basic_string"*
  br label %20

20:                                               ; preds = %16, %14
  %21 = phi %"class.std::__1::basic_string"* [ %15, %14 ], [ %19, %16 ]
  ret %"class.std::__1::basic_string"* %21
}

; Function Attrs: nofree nounwind
declare i32 @__cxa_guard_acquire(i64*) local_unnamed_addr #3

declare zeroext i1 @_ZN6google8protobuf8internal21InitializeEnumStringsEPKNS1_9EnumEntryEPKimPNS1_21ExplicitlyConstructedINSt3__112basic_stringIcNS8_11char_traitsIcEENS8_9allocatorIcEEEEEE(%"struct.google::protobuf::internal::EnumEntry"*, i32*, i64, %"class.google::protobuf::internal::ExplicitlyConstructed.20"*) local_unnamed_addr #4

; Function Attrs: nofree nounwind
declare void @__cxa_guard_release(i64*) local_unnamed_addr #3

; Function Attrs: argmemonly nounwind
declare void @llvm.lifetime.start.p0i8(i64 immarg, i8* nocapture) #2

declare i32 @_ZN6google8protobuf8internal14LookUpEnumNameEPKNS1_9EnumEntryEPKimi(%"struct.google::protobuf::internal::EnumEntry"*, i32*, i64, i32) local_unnamed_addr #4

declare dereferenceable(24) %"class.std::__1::basic_string"* @_ZN6google8protobuf8internal14GetEmptyStringEv() local_unnamed_addr #4

; Function Attrs: argmemonly nounwind
declare void @llvm.lifetime.end.p0i8(i64 immarg, i8* nocapture) #2

; Function Attrs: nounwind ssp uwtable
define hidden zeroext i1 @_ZN18private_membership4rlwe17RlweUseCase_ParseERKNSt3__112basic_stringIcNS1_11char_traitsIcEENS1_9allocatorIcEEEEPNS0_11RlweUseCaseE(%"class.std::__1::basic_string"* dereferenceable(24), i32* nocapture) local_unnamed_addr #0 {
  %3 = alloca i32, align 4
  %4 = bitcast i32* %3 to i8*
  call void @llvm.lifetime.start.p0i8(i64 4, i8* nonnull %4) #14
  store i32 -1431655766, i32* %3, align 4
  %5 = bitcast %"class.std::__1::basic_string"* %0 to %"struct.std::__1::basic_string<char, std::__1::char_traits<char>, std::__1::allocator<char> >::__short"*
  %6 = getelementptr inbounds %"struct.std::__1::basic_string<char, std::__1::char_traits<char>, std::__1::allocator<char> >::__short", %"struct.std::__1::basic_string<char, std::__1::char_traits<char>, std::__1::allocator<char> >::__short"* %5, i64 0, i32 1, i32 0
  %7 = load i8, i8* %6, align 1
  %8 = icmp slt i8 %7, 0
  %9 = getelementptr inbounds %"class.std::__1::basic_string", %"class.std::__1::basic_string"* %0, i64 0, i32 0, i32 0, i32 0, i32 0, i32 0, i32 0
  %10 = load i8*, i8** %9, align 8
  %11 = bitcast %"class.std::__1::basic_string"* %0 to i8*
  %12 = select i1 %8, i8* %10, i8* %11
  br i1 %8, label %15, label %13

13:                                               ; preds = %2
  %14 = zext i8 %7 to i64
  br label %20

15:                                               ; preds = %2
  %16 = getelementptr inbounds %"class.std::__1::basic_string", %"class.std::__1::basic_string"* %0, i64 0, i32 0, i32 0, i32 0, i32 0, i32 0, i32 1
  %17 = load i64, i64* %16, align 8
  %18 = icmp slt i64 %17, 0
  br i1 %18, label %19, label %20

19:                                               ; preds = %15
  tail call void @_ZN6google8protobuf11StringPiece18LogFatalSizeTooBigEmPKc(i64 %17, i8* getelementptr inbounds ([25 x i8], [25 x i8]* @.str.33, i64 0, i64 0)) #14
  br label %20

20:                                               ; preds = %13, %15, %19
  %21 = phi i64 [ %14, %13 ], [ %17, %15 ], [ %17, %19 ]
  %22 = call zeroext i1 @_ZN6google8protobuf8internal15LookUpEnumValueEPKNS1_9EnumEntryEmNS0_11StringPieceEPi(%"struct.google::protobuf::internal::EnumEntry"* getelementptr inbounds ([5 x %"struct.google::protobuf::internal::EnumEntry"], [5 x %"struct.google::protobuf::internal::EnumEntry"]* @_ZN18private_membership4rlweL19RlweUseCase_entriesE, i64 0, i64 0), i64 5, i8* %12, i64 %21, i32* nonnull %3) #14
  br i1 %22, label %23, label %25

23:                                               ; preds = %20
  %24 = load i32, i32* %3, align 4
  store i32 %24, i32* %1, align 4
  br label %25

25:                                               ; preds = %23, %20
  call void @llvm.lifetime.end.p0i8(i64 4, i8* nonnull %4) #14
  ret i1 %22
}

declare zeroext i1 @_ZN6google8protobuf8internal15LookUpEnumValueEPKNS1_9EnumEntryEmNS0_11StringPieceEPi(%"struct.google::protobuf::internal::EnumEntry"*, i64, i8*, i64, i32*) local_unnamed_addr #4

; Function Attrs: nounwind ssp uwtable
define hidden void @_ZN18private_membership4rlwe32PrivateMembershipRlweOprfRequestC2EPN6google8protobuf5ArenaE(%"class.private_membership::rlwe::PrivateMembershipRlweOprfRequest"* nocapture, %"class.google::protobuf::Arena"*) unnamed_addr #0 align 2 {
  %3 = getelementptr inbounds %"class.private_membership::rlwe::PrivateMembershipRlweOprfRequest", %"class.private_membership::rlwe::PrivateMembershipRlweOprfRequest"* %0, i64 0, i32 0, i32 0
  %4 = getelementptr inbounds %"class.private_membership::rlwe::PrivateMembershipRlweOprfRequest", %"class.private_membership::rlwe::PrivateMembershipRlweOprfRequest"* %0, i64 0, i32 0, i32 1
  %5 = bitcast %"class.google::protobuf::internal::InternalMetadata"* %4 to %"class.google::protobuf::Arena"**
  store %"class.google::protobuf::Arena"* %1, %"class.google::protobuf::Arena"** %5, align 8
  store i32 (...)** bitcast (i8** getelementptr inbounds ({ [16 x i8*] }, { [16 x i8*] }* @_ZTVN18private_membership4rlwe32PrivateMembershipRlweOprfRequestE, i64 0, inrange i32 0, i64 2) to i32 (...)**), i32 (...)*** %3, align 8
  %6 = getelementptr inbounds %"class.private_membership::rlwe::PrivateMembershipRlweOprfRequest", %"class.private_membership::rlwe::PrivateMembershipRlweOprfRequest"* %0, i64 0, i32 1, i32 0, i32 0
  store %"class.google::protobuf::Arena"* %1, %"class.google::protobuf::Arena"** %6, align 8
  %7 = getelementptr inbounds %"class.private_membership::rlwe::PrivateMembershipRlweOprfRequest", %"class.private_membership::rlwe::PrivateMembershipRlweOprfRequest"* %0, i64 0, i32 1, i32 0, i32 1
  %8 = bitcast i32* %7 to i8*
  tail call void @llvm.memset.p0i8.i64(i8* align 8 %8, i8 0, i64 16, i1 false) #14
  %9 = getelementptr inbounds %"class.private_membership::rlwe::PrivateMembershipRlweOprfRequest", %"class.private_membership::rlwe::PrivateMembershipRlweOprfRequest"* %0, i64 0, i32 3, i32 0, i32 0, i32 0, i32 0, i32 0, i32 0
  store i32 0, i32* %9, align 4
  %10 = load atomic i32, i32* getelementptr inbounds ({ { { { i32 } }, i32, i32, void ()* }, [0 x i8*] }, { { { { i32 } }, i32, i32, void ()* }, [0 x i8*] }* @scc_info_PrivateMembershipRlweOprfRequest_private_5fmembership_5frlwe_2eproto, i64 0, i32 0, i32 0, i32 0, i32 0) acquire, align 8
  %11 = icmp eq i32 %10, 0
  br i1 %11, label %13, label %12, !prof !2

12:                                               ; preds = %2
  tail call void @_ZN6google8protobuf8internal11InitSCCImplEPNS1_11SCCInfoBaseE(%"struct.google::protobuf::internal::SCCInfoBase"* bitcast ({ { { { i32 } }, i32, i32, void ()* }, [0 x i8*] }* @scc_info_PrivateMembershipRlweOprfRequest_private_5fmembership_5frlwe_2eproto to %"struct.google::protobuf::internal::SCCInfoBase"*)) #14
  br label %13

13:                                               ; preds = %2, %12
  %14 = getelementptr inbounds %"class.private_membership::rlwe::PrivateMembershipRlweOprfRequest", %"class.private_membership::rlwe::PrivateMembershipRlweOprfRequest"* %0, i64 0, i32 2
  store i32 0, i32* %14, align 8
  ret void
}

; Function Attrs: nounwind ssp uwtable
define hidden void @_ZN18private_membership4rlwe32PrivateMembershipRlweOprfRequestC2ERKS1_(%"class.private_membership::rlwe::PrivateMembershipRlweOprfRequest"*, %"class.private_membership::rlwe::PrivateMembershipRlweOprfRequest"* dereferenceable(48)) unnamed_addr #0 align 2 {
  %3 = getelementptr inbounds %"class.private_membership::rlwe::PrivateMembershipRlweOprfRequest", %"class.private_membership::rlwe::PrivateMembershipRlweOprfRequest"* %0, i64 0, i32 0, i32 0
  %4 = getelementptr inbounds %"class.private_membership::rlwe::PrivateMembershipRlweOprfRequest", %"class.private_membership::rlwe::PrivateMembershipRlweOprfRequest"* %0, i64 0, i32 0, i32 1, i32 0
  store i8* null, i8** %4, align 8
  store i32 (...)** bitcast (i8** getelementptr inbounds ({ [16 x i8*] }, { [16 x i8*] }* @_ZTVN18private_membership4rlwe32PrivateMembershipRlweOprfRequestE, i64 0, inrange i32 0, i64 2) to i32 (...)**), i32 (...)*** %3, align 8
  %5 = getelementptr inbounds %"class.private_membership::rlwe::PrivateMembershipRlweOprfRequest", %"class.private_membership::rlwe::PrivateMembershipRlweOprfRequest"* %0, i64 0, i32 1
  %6 = getelementptr inbounds %"class.google::protobuf::RepeatedPtrField", %"class.google::protobuf::RepeatedPtrField"* %5, i64 0, i32 0
  %7 = bitcast %"class.google::protobuf::RepeatedPtrField"* %5 to i8*
  tail call void @llvm.memset.p0i8.i64(i8* align 8 %7, i8 0, i64 24, i1 false) #14
  %8 = getelementptr inbounds %"class.private_membership::rlwe::PrivateMembershipRlweOprfRequest", %"class.private_membership::rlwe::PrivateMembershipRlweOprfRequest"* %1, i64 0, i32 1, i32 0
  tail call void @_ZN6google8protobuf8internal20RepeatedPtrFieldBase9MergeFromINS0_16RepeatedPtrFieldINSt3__112basic_stringIcNS5_11char_traitsIcEENS5_9allocatorIcEEEEE11TypeHandlerEEEvRKS2_(%"class.google::protobuf::internal::RepeatedPtrFieldBase"* %6, %"class.google::protobuf::internal::RepeatedPtrFieldBase"* dereferenceable(24) %8) #14
  %9 = getelementptr inbounds %"class.private_membership::rlwe::PrivateMembershipRlweOprfRequest", %"class.private_membership::rlwe::PrivateMembershipRlweOprfRequest"* %0, i64 0, i32 3, i32 0, i32 0, i32 0, i32 0, i32 0, i32 0
  store i32 0, i32* %9, align 4
  %10 = getelementptr inbounds %"class.private_membership::rlwe::PrivateMembershipRlweOprfRequest", %"class.private_membership::rlwe::PrivateMembershipRlweOprfRequest"* %0, i64 0, i32 0, i32 1
  %11 = getelementptr inbounds %"class.private_membership::rlwe::PrivateMembershipRlweOprfRequest", %"class.private_membership::rlwe::PrivateMembershipRlweOprfRequest"* %1, i64 0, i32 0, i32 1
  %12 = bitcast %"class.google::protobuf::internal::InternalMetadata"* %11 to i64*
  %13 = load i64, i64* %12, align 8
  %14 = and i64 %13, 1
  %15 = icmp eq i64 %14, 0
  br i1 %15, label %45, label %16

16:                                               ; preds = %2
  %17 = and i64 %13, -2
  %18 = inttoptr i64 %17 to %"struct.google::protobuf::internal::InternalMetadata::Container"*
  %19 = getelementptr inbounds %"struct.google::protobuf::internal::InternalMetadata::Container", %"struct.google::protobuf::internal::InternalMetadata::Container"* %18, i64 0, i32 1
  %20 = bitcast %"class.google::protobuf::internal::InternalMetadata"* %10 to i64*
  %21 = load i64, i64* %20, align 8
  %22 = and i64 %21, 1
  %23 = icmp eq i64 %22, 0
  br i1 %23, label %28, label %24, !prof !4

24:                                               ; preds = %16
  %25 = and i64 %21, -2
  %26 = inttoptr i64 %25 to %"struct.google::protobuf::internal::InternalMetadata::Container"*
  %27 = getelementptr inbounds %"struct.google::protobuf::internal::InternalMetadata::Container", %"struct.google::protobuf::internal::InternalMetadata::Container"* %26, i64 0, i32 1
  br label %30

28:                                               ; preds = %16
  %29 = tail call %"class.std::__1::basic_string"* @_ZN6google8protobuf8internal16InternalMetadata27mutable_unknown_fields_slowINSt3__112basic_stringIcNS4_11char_traitsIcEENS4_9allocatorIcEEEEEEPT_v(%"class.google::protobuf::internal::InternalMetadata"* %10) #14
  br label %30

30:                                               ; preds = %28, %24
  %31 = phi %"class.std::__1::basic_string"* [ %27, %24 ], [ %29, %28 ]
  %32 = bitcast %"class.std::__1::basic_string"* %19 to %"struct.std::__1::basic_string<char, std::__1::char_traits<char>, std::__1::allocator<char> >::__short"*
  %33 = getelementptr inbounds %"struct.std::__1::basic_string<char, std::__1::char_traits<char>, std::__1::allocator<char> >::__short", %"struct.std::__1::basic_string<char, std::__1::char_traits<char>, std::__1::allocator<char> >::__short"* %32, i64 0, i32 1, i32 0
  %34 = load i8, i8* %33, align 1
  %35 = icmp slt i8 %34, 0
  %36 = getelementptr inbounds %"class.std::__1::basic_string", %"class.std::__1::basic_string"* %19, i64 0, i32 0, i32 0, i32 0, i32 0, i32 0, i32 0
  %37 = load i8*, i8** %36, align 8
  %38 = getelementptr inbounds %"struct.google::protobuf::internal::InternalMetadata::Container", %"struct.google::protobuf::internal::InternalMetadata::Container"* %18, i64 0, i32 1, i32 0, i32 0, i32 0, i32 0, i32 0, i32 1
  %39 = load i64, i64* %38, align 8
  %40 = bitcast %"class.std::__1::basic_string"* %19 to i8*
  %41 = zext i8 %34 to i64
  %42 = select i1 %35, i8* %37, i8* %40
  %43 = select i1 %35, i64 %39, i64 %41
  %44 = tail call dereferenceable(24) %"class.std::__1::basic_string"* @_ZNSt3__112basic_stringIcNS_11char_traitsIcEENS_9allocatorIcEEE6appendEPKcm(%"class.std::__1::basic_string"* %31, i8* %42, i64 %43) #14
  br label %45

45:                                               ; preds = %2, %30
  %46 = getelementptr inbounds %"class.private_membership::rlwe::PrivateMembershipRlweOprfRequest", %"class.private_membership::rlwe::PrivateMembershipRlweOprfRequest"* %1, i64 0, i32 2
  %47 = load i32, i32* %46, align 8
  %48 = getelementptr inbounds %"class.private_membership::rlwe::PrivateMembershipRlweOprfRequest", %"class.private_membership::rlwe::PrivateMembershipRlweOprfRequest"* %0, i64 0, i32 2
  store i32 %47, i32* %48, align 8
  ret void
}

; Function Attrs: nounwind ssp uwtable
define hidden void @_ZN18private_membership4rlwe32PrivateMembershipRlweOprfRequestD2Ev(%"class.private_membership::rlwe::PrivateMembershipRlweOprfRequest"*) unnamed_addr #0 align 2 {
  %2 = getelementptr inbounds %"class.private_membership::rlwe::PrivateMembershipRlweOprfRequest", %"class.private_membership::rlwe::PrivateMembershipRlweOprfRequest"* %0, i64 0, i32 0, i32 0
  store i32 (...)** bitcast (i8** getelementptr inbounds ({ [16 x i8*] }, { [16 x i8*] }* @_ZTVN18private_membership4rlwe32PrivateMembershipRlweOprfRequestE, i64 0, inrange i32 0, i64 2) to i32 (...)**), i32 (...)*** %2, align 8
  %3 = getelementptr inbounds %"class.private_membership::rlwe::PrivateMembershipRlweOprfRequest", %"class.private_membership::rlwe::PrivateMembershipRlweOprfRequest"* %0, i64 0, i32 0, i32 1
  %4 = bitcast %"class.google::protobuf::internal::InternalMetadata"* %3 to i64*
  %5 = load i64, i64* %4, align 8
  %6 = and i64 %5, 1
  %7 = icmp eq i64 %6, 0
  br i1 %7, label %28, label %8

8:                                                ; preds = %1
  %9 = and i64 %5, -2
  %10 = inttoptr i64 %9 to %"struct.google::protobuf::internal::InternalMetadata::ContainerBase"*
  %11 = getelementptr inbounds %"struct.google::protobuf::internal::InternalMetadata::ContainerBase", %"struct.google::protobuf::internal::InternalMetadata::ContainerBase"* %10, i64 0, i32 0
  %12 = load %"class.google::protobuf::Arena"*, %"class.google::protobuf::Arena"** %11, align 8
  %13 = icmp ne %"class.google::protobuf::Arena"* %12, null
  %14 = icmp eq i64 %9, 0
  %15 = or i1 %14, %13
  br i1 %15, label %28, label %16

16:                                               ; preds = %8
  %17 = inttoptr i64 %9 to %"struct.google::protobuf::internal::InternalMetadata::Container"*
  %18 = getelementptr inbounds %"struct.google::protobuf::internal::InternalMetadata::Container", %"struct.google::protobuf::internal::InternalMetadata::Container"* %17, i64 0, i32 1
  %19 = bitcast %"class.std::__1::basic_string"* %18 to %"struct.std::__1::basic_string<char, std::__1::char_traits<char>, std::__1::allocator<char> >::__short"*
  %20 = getelementptr inbounds %"struct.std::__1::basic_string<char, std::__1::char_traits<char>, std::__1::allocator<char> >::__short", %"struct.std::__1::basic_string<char, std::__1::char_traits<char>, std::__1::allocator<char> >::__short"* %19, i64 0, i32 1, i32 0
  %21 = load i8, i8* %20, align 1
  %22 = icmp slt i8 %21, 0
  br i1 %22, label %23, label %26

23:                                               ; preds = %16
  %24 = getelementptr inbounds %"class.std::__1::basic_string", %"class.std::__1::basic_string"* %18, i64 0, i32 0, i32 0, i32 0, i32 0, i32 0, i32 0
  %25 = load i8*, i8** %24, align 8
  tail call void @_ZdlPv(i8* %25) #15
  br label %26

26:                                               ; preds = %23, %16
  %27 = inttoptr i64 %9 to i8*
  tail call void @_ZdlPv(i8* %27) #15
  br label %28

28:                                               ; preds = %1, %8, %26
  %29 = getelementptr inbounds %"class.private_membership::rlwe::PrivateMembershipRlweOprfRequest", %"class.private_membership::rlwe::PrivateMembershipRlweOprfRequest"* %0, i64 0, i32 1
  tail call void @_ZN6google8protobuf16RepeatedPtrFieldINSt3__112basic_stringIcNS2_11char_traitsIcEENS2_9allocatorIcEEEEED1Ev(%"class.google::protobuf::RepeatedPtrField"* %29) #14
  ret void
}

; Function Attrs: nounwind
declare void @_ZN6google8protobuf16RepeatedPtrFieldINSt3__112basic_stringIcNS2_11char_traitsIcEENS2_9allocatorIcEEEEED1Ev(%"class.google::protobuf::RepeatedPtrField"*) unnamed_addr #5

; Function Attrs: nounwind ssp uwtable
define hidden void @_ZN18private_membership4rlwe32PrivateMembershipRlweOprfRequestD0Ev(%"class.private_membership::rlwe::PrivateMembershipRlweOprfRequest"*) unnamed_addr #0 align 2 {
  %2 = getelementptr inbounds %"class.private_membership::rlwe::PrivateMembershipRlweOprfRequest", %"class.private_membership::rlwe::PrivateMembershipRlweOprfRequest"* %0, i64 0, i32 0, i32 0
  store i32 (...)** bitcast (i8** getelementptr inbounds ({ [16 x i8*] }, { [16 x i8*] }* @_ZTVN18private_membership4rlwe32PrivateMembershipRlweOprfRequestE, i64 0, inrange i32 0, i64 2) to i32 (...)**), i32 (...)*** %2, align 8
  %3 = getelementptr inbounds %"class.private_membership::rlwe::PrivateMembershipRlweOprfRequest", %"class.private_membership::rlwe::PrivateMembershipRlweOprfRequest"* %0, i64 0, i32 0, i32 1
  %4 = bitcast %"class.google::protobuf::internal::InternalMetadata"* %3 to i64*
  %5 = load i64, i64* %4, align 8
  %6 = and i64 %5, 1
  %7 = icmp eq i64 %6, 0
  br i1 %7, label %28, label %8

8:                                                ; preds = %1
  %9 = and i64 %5, -2
  %10 = inttoptr i64 %9 to %"struct.google::protobuf::internal::InternalMetadata::ContainerBase"*
  %11 = getelementptr inbounds %"struct.google::protobuf::internal::InternalMetadata::ContainerBase", %"struct.google::protobuf::internal::InternalMetadata::ContainerBase"* %10, i64 0, i32 0
  %12 = load %"class.google::protobuf::Arena"*, %"class.google::protobuf::Arena"** %11, align 8
  %13 = icmp ne %"class.google::protobuf::Arena"* %12, null
  %14 = icmp eq i64 %9, 0
  %15 = or i1 %14, %13
  br i1 %15, label %28, label %16

16:                                               ; preds = %8
  %17 = inttoptr i64 %9 to %"struct.google::protobuf::internal::InternalMetadata::Container"*
  %18 = getelementptr inbounds %"struct.google::protobuf::internal::InternalMetadata::Container", %"struct.google::protobuf::internal::InternalMetadata::Container"* %17, i64 0, i32 1
  %19 = bitcast %"class.std::__1::basic_string"* %18 to %"struct.std::__1::basic_string<char, std::__1::char_traits<char>, std::__1::allocator<char> >::__short"*
  %20 = getelementptr inbounds %"struct.std::__1::basic_string<char, std::__1::char_traits<char>, std::__1::allocator<char> >::__short", %"struct.std::__1::basic_string<char, std::__1::char_traits<char>, std::__1::allocator<char> >::__short"* %19, i64 0, i32 1, i32 0
  %21 = load i8, i8* %20, align 1
  %22 = icmp slt i8 %21, 0
  br i1 %22, label %23, label %26

23:                                               ; preds = %16
  %24 = getelementptr inbounds %"class.std::__1::basic_string", %"class.std::__1::basic_string"* %18, i64 0, i32 0, i32 0, i32 0, i32 0, i32 0, i32 0
  %25 = load i8*, i8** %24, align 8
  tail call void @_ZdlPv(i8* %25) #15
  br label %26

26:                                               ; preds = %23, %16
  %27 = inttoptr i64 %9 to i8*
  tail call void @_ZdlPv(i8* %27) #15
  br label %28

28:                                               ; preds = %1, %8, %26
  %29 = getelementptr inbounds %"class.private_membership::rlwe::PrivateMembershipRlweOprfRequest", %"class.private_membership::rlwe::PrivateMembershipRlweOprfRequest"* %0, i64 0, i32 1
  tail call void @_ZN6google8protobuf16RepeatedPtrFieldINSt3__112basic_stringIcNS2_11char_traitsIcEENS2_9allocatorIcEEEEED1Ev(%"class.google::protobuf::RepeatedPtrField"* %29) #14
  %30 = bitcast %"class.private_membership::rlwe::PrivateMembershipRlweOprfRequest"* %0 to i8*
  tail call void @_ZdlPv(i8* %30) #15
  ret void
}

; Function Attrs: nobuiltin nounwind
declare void @_ZdlPv(i8*) local_unnamed_addr #6

; Function Attrs: norecurse nounwind readnone ssp uwtable
define hidden void @_ZN18private_membership4rlwe32PrivateMembershipRlweOprfRequest9ArenaDtorEPv(i8* nocapture) local_unnamed_addr #1 align 2 {
  ret void
}

; Function Attrs: nofree norecurse nounwind ssp uwtable
define hidden void @_ZNK18private_membership4rlwe32PrivateMembershipRlweOprfRequest13SetCachedSizeEi(%"class.private_membership::rlwe::PrivateMembershipRlweOprfRequest"* nocapture, i32) local_unnamed_addr #7 align 2 {
  %3 = getelementptr inbounds %"class.private_membership::rlwe::PrivateMembershipRlweOprfRequest", %"class.private_membership::rlwe::PrivateMembershipRlweOprfRequest"* %0, i64 0, i32 3, i32 0, i32 0, i32 0, i32 0, i32 0, i32 0
  store atomic i32 %1, i32* %3 monotonic, align 4
  ret void
}

; Function Attrs: nounwind ssp uwtable
define hidden dereferenceable(48) %"class.private_membership::rlwe::PrivateMembershipRlweOprfRequest"* @_ZN18private_membership4rlwe32PrivateMembershipRlweOprfRequest16default_instanceEv() local_unnamed_addr #0 align 2 {
  %1 = load atomic i32, i32* getelementptr inbounds ({ { { { i32 } }, i32, i32, void ()* }, [0 x i8*] }, { { { { i32 } }, i32, i32, void ()* }, [0 x i8*] }* @scc_info_PrivateMembershipRlweOprfRequest_private_5fmembership_5frlwe_2eproto, i64 0, i32 0, i32 0, i32 0, i32 0) acquire, align 8
  %2 = icmp eq i32 %1, 0
  br i1 %2, label %4, label %3, !prof !2

3:                                                ; preds = %0
  tail call void @_ZN6google8protobuf8internal11InitSCCImplEPNS1_11SCCInfoBaseE(%"struct.google::protobuf::internal::SCCInfoBase"* bitcast ({ { { { i32 } }, i32, i32, void ()* }, [0 x i8*] }* @scc_info_PrivateMembershipRlweOprfRequest_private_5fmembership_5frlwe_2eproto to %"struct.google::protobuf::internal::SCCInfoBase"*)) #14
  br label %4

4:                                                ; preds = %0, %3
  ret %"class.private_membership::rlwe::PrivateMembershipRlweOprfRequest"* bitcast (%"class.private_membership::rlwe::PrivateMembershipRlweOprfRequestDefaultTypeInternal"* @_ZN18private_membership4rlwe51_PrivateMembershipRlweOprfRequest_default_instance_E to %"class.private_membership::rlwe::PrivateMembershipRlweOprfRequest"*)
}

; Function Attrs: nofree norecurse nounwind ssp uwtable
define hidden void @_ZN18private_membership4rlwe32PrivateMembershipRlweOprfRequest5ClearEv(%"class.private_membership::rlwe::PrivateMembershipRlweOprfRequest"* nocapture) unnamed_addr #7 align 2 {
  %2 = getelementptr inbounds %"class.private_membership::rlwe::PrivateMembershipRlweOprfRequest", %"class.private_membership::rlwe::PrivateMembershipRlweOprfRequest"* %0, i64 0, i32 1, i32 0, i32 1
  %3 = load i32, i32* %2, align 8
  %4 = icmp sgt i32 %3, 0
  br i1 %4, label %5, label %51

5:                                                ; preds = %1
  %6 = getelementptr inbounds %"class.private_membership::rlwe::PrivateMembershipRlweOprfRequest", %"class.private_membership::rlwe::PrivateMembershipRlweOprfRequest"* %0, i64 0, i32 1, i32 0, i32 3
  %7 = load %"struct.google::protobuf::internal::RepeatedPtrFieldBase::Rep"*, %"struct.google::protobuf::internal::RepeatedPtrFieldBase::Rep"** %6, align 8
  %8 = zext i32 %3 to i64
  %9 = and i64 %8, 1
  %10 = icmp eq i32 %3, 1
  br i1 %10, label %35, label %11

11:                                               ; preds = %5
  %12 = sub nsw i64 %8, %9
  br label %13

13:                                               ; preds = %79, %11
  %14 = phi i64 [ 0, %11 ], [ %29, %79 ]
  %15 = phi i64 [ %12, %11 ], [ %80, %79 ]
  %16 = or i64 %14, 1
  %17 = getelementptr inbounds %"struct.google::protobuf::internal::RepeatedPtrFieldBase::Rep", %"struct.google::protobuf::internal::RepeatedPtrFieldBase::Rep"* %7, i64 0, i32 1, i64 %14
  %18 = load i8*, i8** %17, align 8
  %19 = getelementptr inbounds i8, i8* %18, i64 23
  %20 = load i8, i8* %19, align 1
  %21 = icmp slt i8 %20, 0
  br i1 %21, label %22, label %27

22:                                               ; preds = %13
  %23 = bitcast i8* %18 to i8**
  %24 = load i8*, i8** %23, align 8
  store i8 0, i8* %24, align 1
  %25 = getelementptr inbounds i8, i8* %18, i64 8
  %26 = bitcast i8* %25 to i64*
  store i64 0, i64* %26, align 8
  br label %28

27:                                               ; preds = %13
  store i8 0, i8* %18, align 1
  store i8 0, i8* %19, align 1
  br label %28

28:                                               ; preds = %27, %22
  %29 = add nuw nsw i64 %14, 2
  %30 = getelementptr inbounds %"struct.google::protobuf::internal::RepeatedPtrFieldBase::Rep", %"struct.google::protobuf::internal::RepeatedPtrFieldBase::Rep"* %7, i64 0, i32 1, i64 %16
  %31 = load i8*, i8** %30, align 8
  %32 = getelementptr inbounds i8, i8* %31, i64 23
  %33 = load i8, i8* %32, align 1
  %34 = icmp slt i8 %33, 0
  br i1 %34, label %74, label %73

35:                                               ; preds = %79, %5
  %36 = phi i64 [ 0, %5 ], [ %29, %79 ]
  %37 = icmp eq i64 %9, 0
  br i1 %37, label %50, label %38

38:                                               ; preds = %35
  %39 = getelementptr inbounds %"struct.google::protobuf::internal::RepeatedPtrFieldBase::Rep", %"struct.google::protobuf::internal::RepeatedPtrFieldBase::Rep"* %7, i64 0, i32 1, i64 %36
  %40 = load i8*, i8** %39, align 8
  %41 = getelementptr inbounds i8, i8* %40, i64 23
  %42 = load i8, i8* %41, align 1
  %43 = icmp slt i8 %42, 0
  br i1 %43, label %45, label %44

44:                                               ; preds = %38
  store i8 0, i8* %40, align 1
  store i8 0, i8* %41, align 1
  br label %50

45:                                               ; preds = %38
  %46 = bitcast i8* %40 to i8**
  %47 = load i8*, i8** %46, align 8
  store i8 0, i8* %47, align 1
  %48 = getelementptr inbounds i8, i8* %40, i64 8
  %49 = bitcast i8* %48 to i64*
  store i64 0, i64* %49, align 8
  br label %50

50:                                               ; preds = %45, %44, %35
  store i32 0, i32* %2, align 8
  br label %51

51:                                               ; preds = %1, %50
  %52 = getelementptr inbounds %"class.private_membership::rlwe::PrivateMembershipRlweOprfRequest", %"class.private_membership::rlwe::PrivateMembershipRlweOprfRequest"* %0, i64 0, i32 2
  store i32 0, i32* %52, align 8
  %53 = getelementptr inbounds %"class.private_membership::rlwe::PrivateMembershipRlweOprfRequest", %"class.private_membership::rlwe::PrivateMembershipRlweOprfRequest"* %0, i64 0, i32 0, i32 1
  %54 = bitcast %"class.google::protobuf::internal::InternalMetadata"* %53 to i64*
  %55 = load i64, i64* %54, align 8
  %56 = and i64 %55, 1
  %57 = icmp eq i64 %56, 0
  br i1 %57, label %72, label %58

58:                                               ; preds = %51
  %59 = and i64 %55, -2
  %60 = inttoptr i64 %59 to %"struct.google::protobuf::internal::InternalMetadata::Container"*
  %61 = getelementptr inbounds %"struct.google::protobuf::internal::InternalMetadata::Container", %"struct.google::protobuf::internal::InternalMetadata::Container"* %60, i64 0, i32 1
  %62 = bitcast %"class.std::__1::basic_string"* %61 to %"struct.std::__1::basic_string<char, std::__1::char_traits<char>, std::__1::allocator<char> >::__short"*
  %63 = getelementptr inbounds %"struct.std::__1::basic_string<char, std::__1::char_traits<char>, std::__1::allocator<char> >::__short", %"struct.std::__1::basic_string<char, std::__1::char_traits<char>, std::__1::allocator<char> >::__short"* %62, i64 0, i32 1, i32 0
  %64 = load i8, i8* %63, align 1
  %65 = icmp slt i8 %64, 0
  br i1 %65, label %66, label %70

66:                                               ; preds = %58
  %67 = getelementptr inbounds %"class.std::__1::basic_string", %"class.std::__1::basic_string"* %61, i64 0, i32 0, i32 0, i32 0, i32 0, i32 0, i32 0
  %68 = load i8*, i8** %67, align 8
  store i8 0, i8* %68, align 1
  %69 = getelementptr inbounds %"struct.google::protobuf::internal::InternalMetadata::Container", %"struct.google::protobuf::internal::InternalMetadata::Container"* %60, i64 0, i32 1, i32 0, i32 0, i32 0, i32 0, i32 0, i32 1
  store i64 0, i64* %69, align 8
  br label %72

70:                                               ; preds = %58
  %71 = bitcast %"class.std::__1::basic_string"* %61 to i8*
  store i8 0, i8* %71, align 2
  store i8 0, i8* %63, align 1
  br label %72

72:                                               ; preds = %51, %66, %70
  ret void

73:                                               ; preds = %28
  store i8 0, i8* %31, align 1
  store i8 0, i8* %32, align 1
  br label %79

74:                                               ; preds = %28
  %75 = bitcast i8* %31 to i8**
  %76 = load i8*, i8** %75, align 8
  store i8 0, i8* %76, align 1
  %77 = getelementptr inbounds i8, i8* %31, i64 8
  %78 = bitcast i8* %77 to i64*
  store i64 0, i64* %78, align 8
  br label %79

79:                                               ; preds = %74, %73
  %80 = add i64 %15, -2
  %81 = icmp eq i64 %80, 0
  br i1 %81, label %35, label %13
}

; Function Attrs: nounwind ssp uwtable
define hidden i8* @_ZN18private_membership4rlwe32PrivateMembershipRlweOprfRequest14_InternalParseEPKcPN6google8protobuf8internal12ParseContextE(%"class.private_membership::rlwe::PrivateMembershipRlweOprfRequest"*, i8*, %"class.google::protobuf::internal::ParseContext"*) unnamed_addr #0 align 2 {
  %4 = getelementptr inbounds %"class.google::protobuf::internal::ParseContext", %"class.google::protobuf::internal::ParseContext"* %2, i64 0, i32 0
  %5 = getelementptr inbounds %"class.google::protobuf::internal::ParseContext", %"class.google::protobuf::internal::ParseContext"* %2, i64 0, i32 2
  %6 = getelementptr inbounds %"class.google::protobuf::internal::ParseContext", %"class.google::protobuf::internal::ParseContext"* %2, i64 0, i32 0, i32 0
  %7 = getelementptr inbounds %"class.google::protobuf::internal::ParseContext", %"class.google::protobuf::internal::ParseContext"* %2, i64 0, i32 0, i32 1
  %8 = bitcast i8** %7 to i64*
  %9 = getelementptr inbounds %"class.google::protobuf::internal::ParseContext", %"class.google::protobuf::internal::ParseContext"* %2, i64 0, i32 0, i32 4
  %10 = getelementptr inbounds %"class.private_membership::rlwe::PrivateMembershipRlweOprfRequest", %"class.private_membership::rlwe::PrivateMembershipRlweOprfRequest"* %0, i64 0, i32 2
  %11 = getelementptr inbounds %"class.private_membership::rlwe::PrivateMembershipRlweOprfRequest", %"class.private_membership::rlwe::PrivateMembershipRlweOprfRequest"* %0, i64 0, i32 1
  %12 = getelementptr inbounds %"class.google::protobuf::RepeatedPtrField", %"class.google::protobuf::RepeatedPtrField"* %11, i64 0, i32 0
  %13 = getelementptr inbounds %"class.private_membership::rlwe::PrivateMembershipRlweOprfRequest", %"class.private_membership::rlwe::PrivateMembershipRlweOprfRequest"* %0, i64 0, i32 1, i32 0, i32 3
  %14 = getelementptr inbounds %"class.private_membership::rlwe::PrivateMembershipRlweOprfRequest", %"class.private_membership::rlwe::PrivateMembershipRlweOprfRequest"* %0, i64 0, i32 1, i32 0, i32 1
  %15 = getelementptr inbounds %"class.private_membership::rlwe::PrivateMembershipRlweOprfRequest", %"class.private_membership::rlwe::PrivateMembershipRlweOprfRequest"* %0, i64 0, i32 1, i32 0, i32 2
  %16 = getelementptr inbounds %"class.google::protobuf::RepeatedPtrField", %"class.google::protobuf::RepeatedPtrField"* %11, i64 0, i32 0, i32 0
  %17 = getelementptr inbounds %"class.private_membership::rlwe::PrivateMembershipRlweOprfRequest", %"class.private_membership::rlwe::PrivateMembershipRlweOprfRequest"* %0, i64 0, i32 0, i32 1
  %18 = bitcast %"class.google::protobuf::internal::InternalMetadata"* %17 to i64*
  br label %19

19:                                               ; preds = %181, %3
  %20 = phi i8* [ %1, %3 ], [ %182, %181 ]
  %21 = load i32, i32* %5, align 4
  %22 = load i8*, i8** %6, align 8
  %23 = icmp ult i8* %20, %22
  br i1 %23, label %37, label %24, !prof !2

24:                                               ; preds = %19
  %25 = load i64, i64* %8, align 8
  %26 = ptrtoint i8* %20 to i64
  %27 = sub i64 %26, %25
  %28 = load i32, i32* %9, align 4
  %29 = sext i32 %28 to i64
  %30 = icmp eq i64 %27, %29
  br i1 %30, label %183, label %31

31:                                               ; preds = %24
  %32 = tail call { i8*, i8 } @_ZN6google8protobuf8internal18EpsCopyInputStream12DoneFallbackEPKci(%"class.google::protobuf::internal::EpsCopyInputStream"* %4, i8* %20, i32 %21) #14
  %33 = extractvalue { i8*, i8 } %32, 0
  %34 = extractvalue { i8*, i8 } %32, 1
  %35 = and i8 %34, 1
  %36 = icmp eq i8 %35, 0
  br i1 %36, label %37, label %183

37:                                               ; preds = %31, %19
  %38 = phi i8* [ %33, %31 ], [ %20, %19 ]
  %39 = load i8, i8* %38, align 1
  %40 = zext i8 %39 to i32
  %41 = icmp sgt i8 %39, -1
  %42 = getelementptr inbounds i8, i8* %38, i64 1
  br i1 %41, label %56, label %43

43:                                               ; preds = %37
  %44 = load i8, i8* %42, align 1
  %45 = zext i8 %44 to i32
  %46 = shl nuw nsw i32 %45, 7
  %47 = add nsw i32 %40, -128
  %48 = add nsw i32 %47, %46
  %49 = icmp sgt i8 %44, -1
  br i1 %49, label %50, label %52

50:                                               ; preds = %43
  %51 = getelementptr inbounds i8, i8* %38, i64 2
  br label %56

52:                                               ; preds = %43
  %53 = tail call { i8*, i32 } @_ZN6google8protobuf8internal15ReadTagFallbackEPKcj(i8* %38, i32 %48) #14
  %54 = extractvalue { i8*, i32 } %53, 0
  %55 = extractvalue { i8*, i32 } %53, 1
  br label %56

56:                                               ; preds = %37, %50, %52
  %57 = phi i32 [ %48, %50 ], [ %55, %52 ], [ %40, %37 ]
  %58 = phi i8* [ %51, %50 ], [ %54, %52 ], [ %42, %37 ]
  %59 = icmp eq i8* %58, null
  br i1 %59, label %183, label %60, !prof !4

60:                                               ; preds = %56
  %61 = lshr i32 %57, 3
  switch i32 %61, label %159 [
    i32 1, label %62
    i32 2, label %128
  ]

62:                                               ; preds = %60
  %63 = and i32 %57, 255
  %64 = icmp eq i32 %63, 10
  br i1 %64, label %65, label %159, !prof !2

65:                                               ; preds = %62
  %66 = getelementptr inbounds i8, i8* %58, i64 -1
  br label %67

67:                                               ; preds = %125, %65
  %68 = phi i8* [ %66, %65 ], [ %120, %125 ]
  %69 = getelementptr inbounds i8, i8* %68, i64 1
  %70 = load %"struct.google::protobuf::internal::RepeatedPtrFieldBase::Rep"*, %"struct.google::protobuf::internal::RepeatedPtrFieldBase::Rep"** %13, align 8
  %71 = icmp eq %"struct.google::protobuf::internal::RepeatedPtrFieldBase::Rep"* %70, null
  br i1 %71, label %72, label %74

72:                                               ; preds = %67
  %73 = load i32, i32* %15, align 4
  br label %87

74:                                               ; preds = %67
  %75 = load i32, i32* %14, align 8
  %76 = getelementptr inbounds %"struct.google::protobuf::internal::RepeatedPtrFieldBase::Rep", %"struct.google::protobuf::internal::RepeatedPtrFieldBase::Rep"* %70, i64 0, i32 0
  %77 = load i32, i32* %76, align 8
  %78 = icmp slt i32 %75, %77
  br i1 %78, label %79, label %84

79:                                               ; preds = %74
  %80 = add nsw i32 %75, 1
  store i32 %80, i32* %14, align 8
  %81 = sext i32 %75 to i64
  %82 = getelementptr inbounds %"struct.google::protobuf::internal::RepeatedPtrFieldBase::Rep", %"struct.google::protobuf::internal::RepeatedPtrFieldBase::Rep"* %70, i64 0, i32 1, i64 %81
  %83 = load i8*, i8** %82, align 8
  br label %117

84:                                               ; preds = %74
  %85 = load i32, i32* %15, align 4
  %86 = icmp eq i32 %77, %85
  br i1 %86, label %87, label %93

87:                                               ; preds = %84, %72
  %88 = phi i32 [ %73, %72 ], [ %77, %84 ]
  %89 = add nsw i32 %88, 1
  tail call void @_ZN6google8protobuf8internal20RepeatedPtrFieldBase7ReserveEi(%"class.google::protobuf::internal::RepeatedPtrFieldBase"* %12, i32 %89) #14
  %90 = load %"struct.google::protobuf::internal::RepeatedPtrFieldBase::Rep"*, %"struct.google::protobuf::internal::RepeatedPtrFieldBase::Rep"** %13, align 8
  %91 = getelementptr inbounds %"struct.google::protobuf::internal::RepeatedPtrFieldBase::Rep", %"struct.google::protobuf::internal::RepeatedPtrFieldBase::Rep"* %90, i64 0, i32 0
  %92 = load i32, i32* %91, align 8
  br label %93

93:                                               ; preds = %87, %84
  %94 = phi i32 [ %92, %87 ], [ %77, %84 ]
  %95 = phi %"struct.google::protobuf::internal::RepeatedPtrFieldBase::Rep"* [ %90, %87 ], [ %70, %84 ]
  %96 = getelementptr inbounds %"struct.google::protobuf::internal::RepeatedPtrFieldBase::Rep", %"struct.google::protobuf::internal::RepeatedPtrFieldBase::Rep"* %95, i64 0, i32 0
  %97 = add nsw i32 %94, 1
  store i32 %97, i32* %96, align 8
  %98 = load %"class.google::protobuf::Arena"*, %"class.google::protobuf::Arena"** %16, align 8
  %99 = icmp eq %"class.google::protobuf::Arena"* %98, null
  br i1 %99, label %100, label %102

100:                                              ; preds = %93
  %101 = tail call i8* @_Znwm(i64 24) #15
  tail call void @llvm.memset.p0i8.i64(i8* nonnull align 8 %101, i8 0, i64 24, i1 false) #14
  br label %110

102:                                              ; preds = %93
  %103 = getelementptr inbounds %"class.google::protobuf::Arena", %"class.google::protobuf::Arena"* %98, i64 0, i32 4
  %104 = load i8*, i8** %103, align 8
  %105 = icmp eq i8* %104, null
  br i1 %105, label %107, label %106, !prof !2

106:                                              ; preds = %102
  tail call void @_ZNK6google8protobuf5Arena17OnArenaAllocationEPKSt9type_infom(%"class.google::protobuf::Arena"* nonnull %98, %"class.std::type_info"* null, i64 24) #14
  br label %107

107:                                              ; preds = %106, %102
  %108 = getelementptr inbounds %"class.google::protobuf::Arena", %"class.google::protobuf::Arena"* %98, i64 0, i32 0
  %109 = tail call i8* @_ZN6google8protobuf8internal9ArenaImpl28AllocateAlignedAndAddCleanupEmPFvPvE(%"class.google::protobuf::internal::ArenaImpl"* %108, i64 24, void (i8*)* nonnull @_ZN6google8protobuf8internal21arena_destruct_objectINSt3__112basic_stringIcNS3_11char_traitsIcEENS3_9allocatorIcEEEEEEvPv) #14
  tail call void @llvm.memset.p0i8.i64(i8* align 8 %109, i8 0, i64 24, i1 false) #14
  br label %110

110:                                              ; preds = %107, %100
  %111 = phi i8* [ %101, %100 ], [ %109, %107 ]
  %112 = load %"struct.google::protobuf::internal::RepeatedPtrFieldBase::Rep"*, %"struct.google::protobuf::internal::RepeatedPtrFieldBase::Rep"** %13, align 8
  %113 = load i32, i32* %14, align 8
  %114 = add nsw i32 %113, 1
  store i32 %114, i32* %14, align 8
  %115 = sext i32 %113 to i64
  %116 = getelementptr inbounds %"struct.google::protobuf::internal::RepeatedPtrFieldBase::Rep", %"struct.google::protobuf::internal::RepeatedPtrFieldBase::Rep"* %112, i64 0, i32 1, i64 %115
  store i8* %111, i8** %116, align 8
  br label %117

117:                                              ; preds = %79, %110
  %118 = phi i8* [ %83, %79 ], [ %111, %110 ]
  %119 = bitcast i8* %118 to %"class.std::__1::basic_string"*
  %120 = tail call i8* @_ZN6google8protobuf8internal24InlineGreedyStringParserEPNSt3__112basic_stringIcNS2_11char_traitsIcEENS2_9allocatorIcEEEEPKcPNS1_12ParseContextE(%"class.std::__1::basic_string"* %119, i8* %69, %"class.google::protobuf::internal::ParseContext"* %2) #14
  %121 = icmp eq i8* %120, null
  br i1 %121, label %183, label %122, !prof !4

122:                                              ; preds = %117
  %123 = load i8*, i8** %6, align 8
  %124 = icmp ugt i8* %123, %120
  br i1 %124, label %125, label %181

125:                                              ; preds = %122
  %126 = load i8, i8* %120, align 1
  %127 = icmp eq i8 %126, 10
  br i1 %127, label %67, label %181

128:                                              ; preds = %60
  %129 = and i32 %57, 255
  %130 = icmp eq i32 %129, 16
  br i1 %130, label %131, label %159, !prof !2

131:                                              ; preds = %128
  %132 = load i8, i8* %58, align 1
  %133 = icmp slt i8 %132, 0
  br i1 %133, label %137, label %134

134:                                              ; preds = %131
  %135 = zext i8 %132 to i64
  %136 = getelementptr inbounds i8, i8* %58, i64 1
  br label %153

137:                                              ; preds = %131
  %138 = zext i8 %132 to i32
  %139 = getelementptr inbounds i8, i8* %58, i64 1
  %140 = load i8, i8* %139, align 1
  %141 = zext i8 %140 to i32
  %142 = shl nuw nsw i32 %141, 7
  %143 = add nsw i32 %138, -128
  %144 = add nuw nsw i32 %143, %142
  %145 = icmp slt i8 %140, 0
  br i1 %145, label %149, label %146

146:                                              ; preds = %137
  %147 = zext i32 %144 to i64
  %148 = getelementptr inbounds i8, i8* %58, i64 2
  br label %153

149:                                              ; preds = %137
  %150 = tail call { i8*, i64 } @_ZN6google8protobuf8internal17VarintParseSlow64EPKcj(i8* nonnull %58, i32 %144) #14
  %151 = extractvalue { i8*, i64 } %150, 0
  %152 = extractvalue { i8*, i64 } %150, 1
  br label %153

153:                                              ; preds = %134, %146, %149
  %154 = phi i64 [ %152, %149 ], [ %147, %146 ], [ %135, %134 ]
  %155 = phi i8* [ %151, %149 ], [ %148, %146 ], [ %136, %134 ]
  %156 = icmp eq i8* %155, null
  br i1 %156, label %183, label %157, !prof !4

157:                                              ; preds = %153
  %158 = trunc i64 %154 to i32
  store i32 %158, i32* %10, align 8
  br label %181

159:                                              ; preds = %60, %128, %62
  %160 = and i32 %57, 7
  %161 = icmp eq i32 %160, 4
  %162 = icmp eq i32 %57, 0
  %163 = or i1 %162, %161
  br i1 %163, label %164, label %167

164:                                              ; preds = %159
  %165 = add i32 %57, -1
  %166 = getelementptr inbounds %"class.google::protobuf::internal::ParseContext", %"class.google::protobuf::internal::ParseContext"* %2, i64 0, i32 0, i32 8
  store i32 %165, i32* %166, align 8
  br label %183

167:                                              ; preds = %159
  %168 = load i64, i64* %18, align 8
  %169 = and i64 %168, 1
  %170 = icmp eq i64 %169, 0
  br i1 %170, label %175, label %171, !prof !4

171:                                              ; preds = %167
  %172 = and i64 %168, -2
  %173 = inttoptr i64 %172 to %"struct.google::protobuf::internal::InternalMetadata::Container"*
  %174 = getelementptr inbounds %"struct.google::protobuf::internal::InternalMetadata::Container", %"struct.google::protobuf::internal::InternalMetadata::Container"* %173, i64 0, i32 1
  br label %177

175:                                              ; preds = %167
  %176 = tail call %"class.std::__1::basic_string"* @_ZN6google8protobuf8internal16InternalMetadata27mutable_unknown_fields_slowINSt3__112basic_stringIcNS4_11char_traitsIcEENS4_9allocatorIcEEEEEEPT_v(%"class.google::protobuf::internal::InternalMetadata"* %17) #14
  br label %177

177:                                              ; preds = %171, %175
  %178 = phi %"class.std::__1::basic_string"* [ %174, %171 ], [ %176, %175 ]
  %179 = tail call i8* @_ZN6google8protobuf8internal17UnknownFieldParseEjPNSt3__112basic_stringIcNS2_11char_traitsIcEENS2_9allocatorIcEEEEPKcPNS1_12ParseContextE(i32 %57, %"class.std::__1::basic_string"* %178, i8* nonnull %58, %"class.google::protobuf::internal::ParseContext"* %2) #14
  %180 = icmp eq i8* %179, null
  br i1 %180, label %183, label %181

181:                                              ; preds = %122, %125, %177, %157
  %182 = phi i8* [ %179, %177 ], [ %155, %157 ], [ %120, %125 ], [ %120, %122 ]
  br label %19

183:                                              ; preds = %31, %177, %24, %153, %56, %117, %164
  %184 = phi i8* [ %58, %164 ], [ null, %117 ], [ null, %177 ], [ %20, %24 ], [ null, %153 ], [ null, %56 ], [ %33, %31 ]
  ret i8* %184
}

declare i8* @_ZN6google8protobuf8internal24InlineGreedyStringParserEPNSt3__112basic_stringIcNS2_11char_traitsIcEENS2_9allocatorIcEEEEPKcPNS1_12ParseContextE(%"class.std::__1::basic_string"*, i8*, %"class.google::protobuf::internal::ParseContext"*) local_unnamed_addr #4

declare i8* @_ZN6google8protobuf8internal17UnknownFieldParseEjPNSt3__112basic_stringIcNS2_11char_traitsIcEENS2_9allocatorIcEEEEPKcPNS1_12ParseContextE(i32, %"class.std::__1::basic_string"*, i8*, %"class.google::protobuf::internal::ParseContext"*) local_unnamed_addr #4

; Function Attrs: nounwind ssp uwtable
define hidden i8* @_ZNK18private_membership4rlwe32PrivateMembershipRlweOprfRequest18_InternalSerializeEPhPN6google8protobuf2io19EpsCopyOutputStreamE(%"class.private_membership::rlwe::PrivateMembershipRlweOprfRequest"* nocapture readonly, i8*, %"class.google::protobuf::io::EpsCopyOutputStream"*) unnamed_addr #0 align 2 {
  %4 = getelementptr inbounds %"class.private_membership::rlwe::PrivateMembershipRlweOprfRequest", %"class.private_membership::rlwe::PrivateMembershipRlweOprfRequest"* %0, i64 0, i32 1, i32 0, i32 1
  %5 = load i32, i32* %4, align 8
  %6 = icmp sgt i32 %5, 0
  br i1 %6, label %7, label %11

7:                                                ; preds = %3
  %8 = getelementptr inbounds %"class.private_membership::rlwe::PrivateMembershipRlweOprfRequest", %"class.private_membership::rlwe::PrivateMembershipRlweOprfRequest"* %0, i64 0, i32 1, i32 0, i32 3
  %9 = bitcast %"class.google::protobuf::io::EpsCopyOutputStream"* %2 to i64*
  %10 = zext i32 %5 to i64
  br label %16

11:                                               ; preds = %53, %3
  %12 = phi i8* [ %1, %3 ], [ %54, %53 ]
  %13 = getelementptr inbounds %"class.private_membership::rlwe::PrivateMembershipRlweOprfRequest", %"class.private_membership::rlwe::PrivateMembershipRlweOprfRequest"* %0, i64 0, i32 2
  %14 = load i32, i32* %13, align 8
  %15 = icmp eq i32 %14, 0
  br i1 %15, label %94, label %57

16:                                               ; preds = %53, %7
  %17 = phi i64 [ 0, %7 ], [ %55, %53 ]
  %18 = phi i8* [ %1, %7 ], [ %54, %53 ]
  %19 = load %"struct.google::protobuf::internal::RepeatedPtrFieldBase::Rep"*, %"struct.google::protobuf::internal::RepeatedPtrFieldBase::Rep"** %8, align 8
  %20 = getelementptr inbounds %"struct.google::protobuf::internal::RepeatedPtrFieldBase::Rep", %"struct.google::protobuf::internal::RepeatedPtrFieldBase::Rep"* %19, i64 0, i32 1, i64 %17
  %21 = bitcast i8** %20 to %"class.std::__1::basic_string"**
  %22 = load %"class.std::__1::basic_string"*, %"class.std::__1::basic_string"** %21, align 8
  %23 = bitcast %"class.std::__1::basic_string"* %22 to %"struct.std::__1::basic_string<char, std::__1::char_traits<char>, std::__1::allocator<char> >::__short"*
  %24 = getelementptr inbounds %"struct.std::__1::basic_string<char, std::__1::char_traits<char>, std::__1::allocator<char> >::__short", %"struct.std::__1::basic_string<char, std::__1::char_traits<char>, std::__1::allocator<char> >::__short"* %23, i64 0, i32 1, i32 0
  %25 = load i8, i8* %24, align 1
  %26 = icmp slt i8 %25, 0
  br i1 %26, label %29, label %27

27:                                               ; preds = %16
  %28 = zext i8 %25 to i64
  br label %33

29:                                               ; preds = %16
  %30 = getelementptr inbounds %"class.std::__1::basic_string", %"class.std::__1::basic_string"* %22, i64 0, i32 0, i32 0, i32 0, i32 0, i32 0, i32 1
  %31 = load i64, i64* %30, align 8
  %32 = icmp sgt i64 %31, 127
  br i1 %32, label %40, label %33, !prof !4

33:                                               ; preds = %29, %27
  %34 = phi i64 [ %28, %27 ], [ %31, %29 ]
  %35 = load i64, i64* %9, align 8
  %36 = ptrtoint i8* %18 to i64
  %37 = sub i64 14, %36
  %38 = add i64 %37, %35
  %39 = icmp slt i64 %38, %34
  br i1 %39, label %40, label %42, !prof !4

40:                                               ; preds = %33, %29
  %41 = tail call i8* @_ZN6google8protobuf2io19EpsCopyOutputStream18WriteStringOutlineEjRKNSt3__112basic_stringIcNS3_11char_traitsIcEENS3_9allocatorIcEEEEPh(%"class.google::protobuf::io::EpsCopyOutputStream"* %2, i32 1, %"class.std::__1::basic_string"* dereferenceable(24) %22, i8* %18) #14
  br label %53

42:                                               ; preds = %33
  store i8 10, i8* %18, align 1
  %43 = getelementptr inbounds i8, i8* %18, i64 1
  %44 = trunc i64 %34 to i8
  %45 = getelementptr inbounds i8, i8* %18, i64 2
  store i8 %44, i8* %43, align 1
  %46 = load i8, i8* %24, align 1
  %47 = icmp slt i8 %46, 0
  %48 = getelementptr inbounds %"class.std::__1::basic_string", %"class.std::__1::basic_string"* %22, i64 0, i32 0, i32 0, i32 0, i32 0, i32 0, i32 0
  %49 = load i8*, i8** %48, align 8
  %50 = bitcast %"class.std::__1::basic_string"* %22 to i8*
  %51 = select i1 %47, i8* %49, i8* %50
  tail call void @llvm.memcpy.p0i8.p0i8.i64(i8* align 1 %45, i8* align 1 %51, i64 %34, i1 false) #14
  %52 = getelementptr inbounds i8, i8* %45, i64 %34
  br label %53

53:                                               ; preds = %40, %42
  %54 = phi i8* [ %41, %40 ], [ %52, %42 ]
  %55 = add nuw nsw i64 %17, 1
  %56 = icmp eq i64 %55, %10
  br i1 %56, label %11, label %16

57:                                               ; preds = %11
  %58 = getelementptr inbounds %"class.google::protobuf::io::EpsCopyOutputStream", %"class.google::protobuf::io::EpsCopyOutputStream"* %2, i64 0, i32 0
  %59 = load i8*, i8** %58, align 8
  %60 = icmp ugt i8* %59, %12
  br i1 %60, label %64, label %61, !prof !2

61:                                               ; preds = %57
  %62 = tail call i8* @_ZN6google8protobuf2io19EpsCopyOutputStream19EnsureSpaceFallbackEPh(%"class.google::protobuf::io::EpsCopyOutputStream"* %2, i8* %12) #14
  %63 = load i32, i32* %13, align 8
  br label %64

64:                                               ; preds = %57, %61
  %65 = phi i32 [ %63, %61 ], [ %14, %57 ]
  %66 = phi i8* [ %62, %61 ], [ %12, %57 ]
  store i8 16, i8* %66, align 1
  %67 = getelementptr inbounds i8, i8* %66, i64 1
  %68 = icmp ult i32 %65, 128
  %69 = trunc i32 %65 to i8
  br i1 %68, label %70, label %72

70:                                               ; preds = %64
  store i8 %69, i8* %67, align 1
  %71 = getelementptr inbounds i8, i8* %66, i64 2
  br label %94

72:                                               ; preds = %64
  %73 = sext i32 %65 to i64
  %74 = or i8 %69, -128
  store i8 %74, i8* %67, align 1
  %75 = lshr i64 %73, 7
  %76 = icmp ult i32 %65, 16384
  br i1 %76, label %77, label %81

77:                                               ; preds = %72
  %78 = trunc i64 %75 to i8
  %79 = getelementptr inbounds i8, i8* %66, i64 2
  store i8 %78, i8* %79, align 1
  %80 = getelementptr inbounds i8, i8* %66, i64 3
  br label %94

81:                                               ; preds = %72
  %82 = getelementptr inbounds i8, i8* %66, i64 2
  br label %83

83:                                               ; preds = %83, %81
  %84 = phi i64 [ %75, %81 ], [ %88, %83 ]
  %85 = phi i8* [ %82, %81 ], [ %89, %83 ]
  %86 = trunc i64 %84 to i8
  %87 = or i8 %86, -128
  store i8 %87, i8* %85, align 1
  %88 = lshr i64 %84, 7
  %89 = getelementptr inbounds i8, i8* %85, i64 1
  %90 = icmp ugt i64 %84, 16383
  br i1 %90, label %83, label %91, !prof !4

91:                                               ; preds = %83
  %92 = trunc i64 %88 to i8
  %93 = getelementptr inbounds i8, i8* %85, i64 2
  store i8 %92, i8* %89, align 1
  br label %94

94:                                               ; preds = %91, %77, %70, %11
  %95 = phi i8* [ %12, %11 ], [ %71, %70 ], [ %80, %77 ], [ %93, %91 ]
  %96 = getelementptr inbounds %"class.private_membership::rlwe::PrivateMembershipRlweOprfRequest", %"class.private_membership::rlwe::PrivateMembershipRlweOprfRequest"* %0, i64 0, i32 0, i32 1
  %97 = bitcast %"class.google::protobuf::internal::InternalMetadata"* %96 to i64*
  %98 = load i64, i64* %97, align 8
  %99 = and i64 %98, 1
  %100 = icmp eq i64 %99, 0
  br i1 %100, label %132, label %101, !prof !2

101:                                              ; preds = %94
  %102 = and i64 %98, -2
  %103 = inttoptr i64 %102 to %"struct.google::protobuf::internal::InternalMetadata::Container"*
  %104 = getelementptr inbounds %"struct.google::protobuf::internal::InternalMetadata::Container", %"struct.google::protobuf::internal::InternalMetadata::Container"* %103, i64 0, i32 1
  %105 = bitcast %"class.std::__1::basic_string"* %104 to %"struct.std::__1::basic_string<char, std::__1::char_traits<char>, std::__1::allocator<char> >::__short"*
  %106 = getelementptr inbounds %"struct.std::__1::basic_string<char, std::__1::char_traits<char>, std::__1::allocator<char> >::__short", %"struct.std::__1::basic_string<char, std::__1::char_traits<char>, std::__1::allocator<char> >::__short"* %105, i64 0, i32 1, i32 0
  %107 = load i8, i8* %106, align 1
  %108 = icmp slt i8 %107, 0
  br i1 %108, label %109, label %114

109:                                              ; preds = %101
  %110 = getelementptr inbounds %"class.std::__1::basic_string", %"class.std::__1::basic_string"* %104, i64 0, i32 0, i32 0, i32 0, i32 0, i32 0, i32 0
  %111 = load i8*, i8** %110, align 8
  %112 = getelementptr inbounds %"struct.google::protobuf::internal::InternalMetadata::Container", %"struct.google::protobuf::internal::InternalMetadata::Container"* %103, i64 0, i32 1, i32 0, i32 0, i32 0, i32 0, i32 0, i32 1
  %113 = load i64, i64* %112, align 8
  br label %117

114:                                              ; preds = %101
  %115 = bitcast %"class.std::__1::basic_string"* %104 to i8*
  %116 = zext i8 %107 to i64
  br label %117

117:                                              ; preds = %109, %114
  %118 = phi i8* [ %111, %109 ], [ %115, %114 ]
  %119 = phi i64 [ %113, %109 ], [ %116, %114 ]
  %120 = bitcast %"class.google::protobuf::io::EpsCopyOutputStream"* %2 to i64*
  %121 = load i64, i64* %120, align 8
  %122 = ptrtoint i8* %95 to i64
  %123 = sub i64 %121, %122
  %124 = shl i64 %119, 32
  %125 = ashr exact i64 %124, 32
  %126 = icmp slt i64 %123, %125
  br i1 %126, label %127, label %130, !prof !4

127:                                              ; preds = %117
  %128 = trunc i64 %119 to i32
  %129 = tail call i8* @_ZN6google8protobuf2io19EpsCopyOutputStream16WriteRawFallbackEPKviPh(%"class.google::protobuf::io::EpsCopyOutputStream"* %2, i8* %118, i32 %128, i8* %95) #14
  br label %132

130:                                              ; preds = %117
  tail call void @llvm.memcpy.p0i8.p0i8.i64(i8* align 1 %95, i8* align 1 %118, i64 %125, i1 false) #14
  %131 = getelementptr inbounds i8, i8* %95, i64 %125
  br label %132

132:                                              ; preds = %94, %130, %127
  %133 = phi i8* [ %95, %94 ], [ %129, %127 ], [ %131, %130 ]
  ret i8* %133
}

; Function Attrs: nounwind ssp uwtable
define hidden i64 @_ZNK18private_membership4rlwe32PrivateMembershipRlweOprfRequest12ByteSizeLongEv(%"class.private_membership::rlwe::PrivateMembershipRlweOprfRequest"* nocapture) unnamed_addr #0 align 2 {
  %2 = getelementptr inbounds %"class.private_membership::rlwe::PrivateMembershipRlweOprfRequest", %"class.private_membership::rlwe::PrivateMembershipRlweOprfRequest"* %0, i64 0, i32 1, i32 0, i32 1
  %3 = load i32, i32* %2, align 8
  %4 = zext i32 %3 to i64
  %5 = icmp sgt i32 %3, 0
  br i1 %5, label %6, label %9

6:                                                ; preds = %1
  %7 = getelementptr inbounds %"class.private_membership::rlwe::PrivateMembershipRlweOprfRequest", %"class.private_membership::rlwe::PrivateMembershipRlweOprfRequest"* %0, i64 0, i32 1, i32 0, i32 3
  %8 = load %"struct.google::protobuf::internal::RepeatedPtrFieldBase::Rep"*, %"struct.google::protobuf::internal::RepeatedPtrFieldBase::Rep"** %7, align 8
  br label %14

9:                                                ; preds = %14, %1
  %10 = phi i64 [ %4, %1 ], [ %37, %14 ]
  %11 = getelementptr inbounds %"class.private_membership::rlwe::PrivateMembershipRlweOprfRequest", %"class.private_membership::rlwe::PrivateMembershipRlweOprfRequest"* %0, i64 0, i32 2
  %12 = load i32, i32* %11, align 8
  %13 = icmp eq i32 %12, 0
  br i1 %13, label %54, label %40

14:                                               ; preds = %14, %6
  %15 = phi i64 [ 0, %6 ], [ %38, %14 ]
  %16 = phi i64 [ %4, %6 ], [ %37, %14 ]
  %17 = getelementptr inbounds %"struct.google::protobuf::internal::RepeatedPtrFieldBase::Rep", %"struct.google::protobuf::internal::RepeatedPtrFieldBase::Rep"* %8, i64 0, i32 1, i64 %15
  %18 = bitcast i8** %17 to %"class.std::__1::basic_string"**
  %19 = load %"class.std::__1::basic_string"*, %"class.std::__1::basic_string"** %18, align 8
  %20 = bitcast %"class.std::__1::basic_string"* %19 to %"struct.std::__1::basic_string<char, std::__1::char_traits<char>, std::__1::allocator<char> >::__short"*
  %21 = getelementptr inbounds %"struct.std::__1::basic_string<char, std::__1::char_traits<char>, std::__1::allocator<char> >::__short", %"struct.std::__1::basic_string<char, std::__1::char_traits<char>, std::__1::allocator<char> >::__short"* %20, i64 0, i32 1, i32 0
  %22 = load i8, i8* %21, align 1
  %23 = icmp slt i8 %22, 0
  %24 = getelementptr inbounds %"class.std::__1::basic_string", %"class.std::__1::basic_string"* %19, i64 0, i32 0, i32 0, i32 0, i32 0, i32 0, i32 1
  %25 = load i64, i64* %24, align 8
  %26 = zext i8 %22 to i64
  %27 = select i1 %23, i64 %25, i64 %26
  %28 = trunc i64 %27 to i32
  %29 = or i32 %28, 1
  %30 = tail call i32 @llvm.ctlz.i32(i32 %29, i1 true) #14, !range !5
  %31 = xor i32 %30, 31
  %32 = mul nuw nsw i32 %31, 9
  %33 = add nuw nsw i32 %32, 73
  %34 = lshr i32 %33, 6
  %35 = zext i32 %34 to i64
  %36 = add i64 %27, %16
  %37 = add i64 %36, %35
  %38 = add nuw nsw i64 %15, 1
  %39 = icmp eq i64 %38, %4
  br i1 %39, label %9, label %14

40:                                               ; preds = %9
  %41 = icmp slt i32 %12, 0
  br i1 %41, label %51, label %42

42:                                               ; preds = %40
  %43 = or i32 %12, 1
  %44 = tail call i32 @llvm.ctlz.i32(i32 %43, i1 true) #14, !range !5
  %45 = xor i32 %44, 31
  %46 = mul nuw nsw i32 %45, 9
  %47 = add nuw nsw i32 %46, 73
  %48 = lshr i32 %47, 6
  %49 = add nuw nsw i32 %48, 1
  %50 = zext i32 %49 to i64
  br label %51

51:                                               ; preds = %40, %42
  %52 = phi i64 [ %50, %42 ], [ 11, %40 ]
  %53 = add i64 %52, %10
  br label %54

54:                                               ; preds = %9, %51
  %55 = phi i64 [ %53, %51 ], [ %10, %9 ]
  %56 = getelementptr inbounds %"class.private_membership::rlwe::PrivateMembershipRlweOprfRequest", %"class.private_membership::rlwe::PrivateMembershipRlweOprfRequest"* %0, i64 0, i32 0, i32 1
  %57 = bitcast %"class.google::protobuf::internal::InternalMetadata"* %56 to i64*
  %58 = load i64, i64* %57, align 8
  %59 = and i64 %58, 1
  %60 = icmp eq i64 %59, 0
  br i1 %60, label %77, label %61, !prof !2

61:                                               ; preds = %54
  %62 = and i64 %58, -2
  %63 = inttoptr i64 %62 to %"struct.google::protobuf::internal::InternalMetadata::Container"*
  %64 = getelementptr inbounds %"struct.google::protobuf::internal::InternalMetadata::Container", %"struct.google::protobuf::internal::InternalMetadata::Container"* %63, i64 0, i32 1
  %65 = bitcast %"class.std::__1::basic_string"* %64 to %"struct.std::__1::basic_string<char, std::__1::char_traits<char>, std::__1::allocator<char> >::__short"*
  %66 = getelementptr inbounds %"struct.std::__1::basic_string<char, std::__1::char_traits<char>, std::__1::allocator<char> >::__short", %"struct.std::__1::basic_string<char, std::__1::char_traits<char>, std::__1::allocator<char> >::__short"* %65, i64 0, i32 1, i32 0
  %67 = load i8, i8* %66, align 1
  %68 = icmp slt i8 %67, 0
  br i1 %68, label %69, label %72

69:                                               ; preds = %61
  %70 = getelementptr inbounds %"struct.google::protobuf::internal::InternalMetadata::Container", %"struct.google::protobuf::internal::InternalMetadata::Container"* %63, i64 0, i32 1, i32 0, i32 0, i32 0, i32 0, i32 0, i32 1
  %71 = load i64, i64* %70, align 8
  br label %74

72:                                               ; preds = %61
  %73 = zext i8 %67 to i64
  br label %74

74:                                               ; preds = %69, %72
  %75 = phi i64 [ %71, %69 ], [ %73, %72 ]
  %76 = add i64 %75, %55
  br label %77

77:                                               ; preds = %54, %74
  %78 = phi i64 [ %76, %74 ], [ %55, %54 ]
  %79 = trunc i64 %78 to i32
  %80 = getelementptr inbounds %"class.private_membership::rlwe::PrivateMembershipRlweOprfRequest", %"class.private_membership::rlwe::PrivateMembershipRlweOprfRequest"* %0, i64 0, i32 3, i32 0, i32 0, i32 0, i32 0, i32 0, i32 0
  store atomic i32 %79, i32* %80 monotonic, align 4
  ret i64 %78
}

; Function Attrs: nounwind ssp uwtable
define hidden void @_ZN18private_membership4rlwe32PrivateMembershipRlweOprfRequest21CheckTypeAndMergeFromERKN6google8protobuf11MessageLiteE(%"class.private_membership::rlwe::PrivateMembershipRlweOprfRequest"*, %"class.google::protobuf::MessageLite"* dereferenceable(16)) unnamed_addr #0 align 2 {
  %3 = getelementptr inbounds %"class.private_membership::rlwe::PrivateMembershipRlweOprfRequest", %"class.private_membership::rlwe::PrivateMembershipRlweOprfRequest"* %0, i64 0, i32 0, i32 1
  %4 = getelementptr inbounds %"class.google::protobuf::MessageLite", %"class.google::protobuf::MessageLite"* %1, i64 0, i32 1
  %5 = bitcast %"class.google::protobuf::internal::InternalMetadata"* %4 to i64*
  %6 = load i64, i64* %5, align 8
  %7 = and i64 %6, 1
  %8 = icmp eq i64 %7, 0
  br i1 %8, label %38, label %9

9:                                                ; preds = %2
  %10 = and i64 %6, -2
  %11 = inttoptr i64 %10 to %"struct.google::protobuf::internal::InternalMetadata::Container"*
  %12 = getelementptr inbounds %"struct.google::protobuf::internal::InternalMetadata::Container", %"struct.google::protobuf::internal::InternalMetadata::Container"* %11, i64 0, i32 1
  %13 = bitcast %"class.google::protobuf::internal::InternalMetadata"* %3 to i64*
  %14 = load i64, i64* %13, align 8
  %15 = and i64 %14, 1
  %16 = icmp eq i64 %15, 0
  br i1 %16, label %21, label %17, !prof !4

17:                                               ; preds = %9
  %18 = and i64 %14, -2
  %19 = inttoptr i64 %18 to %"struct.google::protobuf::internal::InternalMetadata::Container"*
  %20 = getelementptr inbounds %"struct.google::protobuf::internal::InternalMetadata::Container", %"struct.google::protobuf::internal::InternalMetadata::Container"* %19, i64 0, i32 1
  br label %23

21:                                               ; preds = %9
  %22 = tail call %"class.std::__1::basic_string"* @_ZN6google8protobuf8internal16InternalMetadata27mutable_unknown_fields_slowINSt3__112basic_stringIcNS4_11char_traitsIcEENS4_9allocatorIcEEEEEEPT_v(%"class.google::protobuf::internal::InternalMetadata"* %3) #14
  br label %23

23:                                               ; preds = %21, %17
  %24 = phi %"class.std::__1::basic_string"* [ %20, %17 ], [ %22, %21 ]
  %25 = bitcast %"class.std::__1::basic_string"* %12 to %"struct.std::__1::basic_string<char, std::__1::char_traits<char>, std::__1::allocator<char> >::__short"*
  %26 = getelementptr inbounds %"struct.std::__1::basic_string<char, std::__1::char_traits<char>, std::__1::allocator<char> >::__short", %"struct.std::__1::basic_string<char, std::__1::char_traits<char>, std::__1::allocator<char> >::__short"* %25, i64 0, i32 1, i32 0
  %27 = load i8, i8* %26, align 1
  %28 = icmp slt i8 %27, 0
  %29 = getelementptr inbounds %"class.std::__1::basic_string", %"class.std::__1::basic_string"* %12, i64 0, i32 0, i32 0, i32 0, i32 0, i32 0, i32 0
  %30 = load i8*, i8** %29, align 8
  %31 = getelementptr inbounds %"struct.google::protobuf::internal::InternalMetadata::Container", %"struct.google::protobuf::internal::InternalMetadata::Container"* %11, i64 0, i32 1, i32 0, i32 0, i32 0, i32 0, i32 0, i32 1
  %32 = load i64, i64* %31, align 8
  %33 = bitcast %"class.std::__1::basic_string"* %12 to i8*
  %34 = zext i8 %27 to i64
  %35 = select i1 %28, i8* %30, i8* %33
  %36 = select i1 %28, i64 %32, i64 %34
  %37 = tail call dereferenceable(24) %"class.std::__1::basic_string"* @_ZNSt3__112basic_stringIcNS_11char_traitsIcEENS_9allocatorIcEEE6appendEPKcm(%"class.std::__1::basic_string"* %24, i8* %35, i64 %36) #14
  br label %38

38:                                               ; preds = %23, %2
  %39 = getelementptr inbounds %"class.private_membership::rlwe::PrivateMembershipRlweOprfRequest", %"class.private_membership::rlwe::PrivateMembershipRlweOprfRequest"* %0, i64 0, i32 1, i32 0
  %40 = getelementptr inbounds %"class.google::protobuf::MessageLite", %"class.google::protobuf::MessageLite"* %1, i64 1
  %41 = bitcast %"class.google::protobuf::MessageLite"* %40 to %"class.google::protobuf::internal::RepeatedPtrFieldBase"*
  tail call void @_ZN6google8protobuf8internal20RepeatedPtrFieldBase9MergeFromINS0_16RepeatedPtrFieldINSt3__112basic_stringIcNS5_11char_traitsIcEENS5_9allocatorIcEEEEE11TypeHandlerEEEvRKS2_(%"class.google::protobuf::internal::RepeatedPtrFieldBase"* %39, %"class.google::protobuf::internal::RepeatedPtrFieldBase"* dereferenceable(24) %41) #14
  %42 = getelementptr inbounds %"class.google::protobuf::MessageLite", %"class.google::protobuf::MessageLite"* %1, i64 2, i32 1
  %43 = bitcast %"class.google::protobuf::internal::InternalMetadata"* %42 to i32*
  %44 = load i32, i32* %43, align 8
  %45 = icmp eq i32 %44, 0
  br i1 %45, label %48, label %46

46:                                               ; preds = %38
  %47 = getelementptr inbounds %"class.private_membership::rlwe::PrivateMembershipRlweOprfRequest", %"class.private_membership::rlwe::PrivateMembershipRlweOprfRequest"* %0, i64 0, i32 2
  store i32 %44, i32* %47, align 8
  br label %48

48:                                               ; preds = %38, %46
  ret void
}

; Function Attrs: nounwind ssp uwtable
define hidden void @_ZN18private_membership4rlwe32PrivateMembershipRlweOprfRequest9MergeFromERKS1_(%"class.private_membership::rlwe::PrivateMembershipRlweOprfRequest"*, %"class.private_membership::rlwe::PrivateMembershipRlweOprfRequest"* dereferenceable(48)) local_unnamed_addr #0 align 2 {
  %3 = getelementptr inbounds %"class.private_membership::rlwe::PrivateMembershipRlweOprfRequest", %"class.private_membership::rlwe::PrivateMembershipRlweOprfRequest"* %0, i64 0, i32 0, i32 1
  %4 = getelementptr inbounds %"class.private_membership::rlwe::PrivateMembershipRlweOprfRequest", %"class.private_membership::rlwe::PrivateMembershipRlweOprfRequest"* %1, i64 0, i32 0, i32 1
  %5 = bitcast %"class.google::protobuf::internal::InternalMetadata"* %4 to i64*
  %6 = load i64, i64* %5, align 8
  %7 = and i64 %6, 1
  %8 = icmp eq i64 %7, 0
  br i1 %8, label %38, label %9

9:                                                ; preds = %2
  %10 = and i64 %6, -2
  %11 = inttoptr i64 %10 to %"struct.google::protobuf::internal::InternalMetadata::Container"*
  %12 = getelementptr inbounds %"struct.google::protobuf::internal::InternalMetadata::Container", %"struct.google::protobuf::internal::InternalMetadata::Container"* %11, i64 0, i32 1
  %13 = bitcast %"class.google::protobuf::internal::InternalMetadata"* %3 to i64*
  %14 = load i64, i64* %13, align 8
  %15 = and i64 %14, 1
  %16 = icmp eq i64 %15, 0
  br i1 %16, label %21, label %17, !prof !4

17:                                               ; preds = %9
  %18 = and i64 %14, -2
  %19 = inttoptr i64 %18 to %"struct.google::protobuf::internal::InternalMetadata::Container"*
  %20 = getelementptr inbounds %"struct.google::protobuf::internal::InternalMetadata::Container", %"struct.google::protobuf::internal::InternalMetadata::Container"* %19, i64 0, i32 1
  br label %23

21:                                               ; preds = %9
  %22 = tail call %"class.std::__1::basic_string"* @_ZN6google8protobuf8internal16InternalMetadata27mutable_unknown_fields_slowINSt3__112basic_stringIcNS4_11char_traitsIcEENS4_9allocatorIcEEEEEEPT_v(%"class.google::protobuf::internal::InternalMetadata"* %3) #14
  br label %23

23:                                               ; preds = %21, %17
  %24 = phi %"class.std::__1::basic_string"* [ %20, %17 ], [ %22, %21 ]
  %25 = bitcast %"class.std::__1::basic_string"* %12 to %"struct.std::__1::basic_string<char, std::__1::char_traits<char>, std::__1::allocator<char> >::__short"*
  %26 = getelementptr inbounds %"struct.std::__1::basic_string<char, std::__1::char_traits<char>, std::__1::allocator<char> >::__short", %"struct.std::__1::basic_string<char, std::__1::char_traits<char>, std::__1::allocator<char> >::__short"* %25, i64 0, i32 1, i32 0
  %27 = load i8, i8* %26, align 1
  %28 = icmp slt i8 %27, 0
  %29 = getelementptr inbounds %"class.std::__1::basic_string", %"class.std::__1::basic_string"* %12, i64 0, i32 0, i32 0, i32 0, i32 0, i32 0, i32 0
  %30 = load i8*, i8** %29, align 8
  %31 = getelementptr inbounds %"struct.google::protobuf::internal::InternalMetadata::Container", %"struct.google::protobuf::internal::InternalMetadata::Container"* %11, i64 0, i32 1, i32 0, i32 0, i32 0, i32 0, i32 0, i32 1
  %32 = load i64, i64* %31, align 8
  %33 = bitcast %"class.std::__1::basic_string"* %12 to i8*
  %34 = zext i8 %27 to i64
  %35 = select i1 %28, i8* %30, i8* %33
  %36 = select i1 %28, i64 %32, i64 %34
  %37 = tail call dereferenceable(24) %"class.std::__1::basic_string"* @_ZNSt3__112basic_stringIcNS_11char_traitsIcEENS_9allocatorIcEEE6appendEPKcm(%"class.std::__1::basic_string"* %24, i8* %35, i64 %36) #14
  br label %38

38:                                               ; preds = %2, %23
  %39 = getelementptr inbounds %"class.private_membership::rlwe::PrivateMembershipRlweOprfRequest", %"class.private_membership::rlwe::PrivateMembershipRlweOprfRequest"* %0, i64 0, i32 1, i32 0
  %40 = getelementptr inbounds %"class.private_membership::rlwe::PrivateMembershipRlweOprfRequest", %"class.private_membership::rlwe::PrivateMembershipRlweOprfRequest"* %1, i64 0, i32 1, i32 0
  tail call void @_ZN6google8protobuf8internal20RepeatedPtrFieldBase9MergeFromINS0_16RepeatedPtrFieldINSt3__112basic_stringIcNS5_11char_traitsIcEENS5_9allocatorIcEEEEE11TypeHandlerEEEvRKS2_(%"class.google::protobuf::internal::RepeatedPtrFieldBase"* %39, %"class.google::protobuf::internal::RepeatedPtrFieldBase"* dereferenceable(24) %40) #14
  %41 = getelementptr inbounds %"class.private_membership::rlwe::PrivateMembershipRlweOprfRequest", %"class.private_membership::rlwe::PrivateMembershipRlweOprfRequest"* %1, i64 0, i32 2
  %42 = load i32, i32* %41, align 8
  %43 = icmp eq i32 %42, 0
  br i1 %43, label %46, label %44

44:                                               ; preds = %38
  %45 = getelementptr inbounds %"class.private_membership::rlwe::PrivateMembershipRlweOprfRequest", %"class.private_membership::rlwe::PrivateMembershipRlweOprfRequest"* %0, i64 0, i32 2
  store i32 %42, i32* %45, align 8
  br label %46

46:                                               ; preds = %38, %44
  ret void
}

; Function Attrs: nounwind ssp uwtable
define hidden void @_ZN18private_membership4rlwe32PrivateMembershipRlweOprfRequest8CopyFromERKS1_(%"class.private_membership::rlwe::PrivateMembershipRlweOprfRequest"*, %"class.private_membership::rlwe::PrivateMembershipRlweOprfRequest"* dereferenceable(48)) local_unnamed_addr #0 align 2 {
  %3 = icmp eq %"class.private_membership::rlwe::PrivateMembershipRlweOprfRequest"* %1, %0
  br i1 %3, label %116, label %4

4:                                                ; preds = %2
  %5 = getelementptr inbounds %"class.private_membership::rlwe::PrivateMembershipRlweOprfRequest", %"class.private_membership::rlwe::PrivateMembershipRlweOprfRequest"* %0, i64 0, i32 1, i32 0, i32 1
  %6 = load i32, i32* %5, align 8
  %7 = icmp sgt i32 %6, 0
  br i1 %7, label %8, label %54

8:                                                ; preds = %4
  %9 = getelementptr inbounds %"class.private_membership::rlwe::PrivateMembershipRlweOprfRequest", %"class.private_membership::rlwe::PrivateMembershipRlweOprfRequest"* %0, i64 0, i32 1, i32 0, i32 3
  %10 = load %"struct.google::protobuf::internal::RepeatedPtrFieldBase::Rep"*, %"struct.google::protobuf::internal::RepeatedPtrFieldBase::Rep"** %9, align 8
  %11 = zext i32 %6 to i64
  %12 = and i64 %11, 1
  %13 = icmp eq i32 %6, 1
  br i1 %13, label %38, label %14

14:                                               ; preds = %8
  %15 = sub nsw i64 %11, %12
  br label %16

16:                                               ; preds = %123, %14
  %17 = phi i64 [ 0, %14 ], [ %32, %123 ]
  %18 = phi i64 [ %15, %14 ], [ %124, %123 ]
  %19 = or i64 %17, 1
  %20 = getelementptr inbounds %"struct.google::protobuf::internal::RepeatedPtrFieldBase::Rep", %"struct.google::protobuf::internal::RepeatedPtrFieldBase::Rep"* %10, i64 0, i32 1, i64 %17
  %21 = load i8*, i8** %20, align 8
  %22 = getelementptr inbounds i8, i8* %21, i64 23
  %23 = load i8, i8* %22, align 1
  %24 = icmp slt i8 %23, 0
  br i1 %24, label %25, label %30

25:                                               ; preds = %16
  %26 = bitcast i8* %21 to i8**
  %27 = load i8*, i8** %26, align 8
  store i8 0, i8* %27, align 1
  %28 = getelementptr inbounds i8, i8* %21, i64 8
  %29 = bitcast i8* %28 to i64*
  store i64 0, i64* %29, align 8
  br label %31

30:                                               ; preds = %16
  store i8 0, i8* %21, align 1
  store i8 0, i8* %22, align 1
  br label %31

31:                                               ; preds = %30, %25
  %32 = add nuw nsw i64 %17, 2
  %33 = getelementptr inbounds %"struct.google::protobuf::internal::RepeatedPtrFieldBase::Rep", %"struct.google::protobuf::internal::RepeatedPtrFieldBase::Rep"* %10, i64 0, i32 1, i64 %19
  %34 = load i8*, i8** %33, align 8
  %35 = getelementptr inbounds i8, i8* %34, i64 23
  %36 = load i8, i8* %35, align 1
  %37 = icmp slt i8 %36, 0
  br i1 %37, label %118, label %117

38:                                               ; preds = %123, %8
  %39 = phi i64 [ 0, %8 ], [ %32, %123 ]
  %40 = icmp eq i64 %12, 0
  br i1 %40, label %53, label %41

41:                                               ; preds = %38
  %42 = getelementptr inbounds %"struct.google::protobuf::internal::RepeatedPtrFieldBase::Rep", %"struct.google::protobuf::internal::RepeatedPtrFieldBase::Rep"* %10, i64 0, i32 1, i64 %39
  %43 = load i8*, i8** %42, align 8
  %44 = getelementptr inbounds i8, i8* %43, i64 23
  %45 = load i8, i8* %44, align 1
  %46 = icmp slt i8 %45, 0
  br i1 %46, label %48, label %47

47:                                               ; preds = %41
  store i8 0, i8* %43, align 1
  store i8 0, i8* %44, align 1
  br label %53

48:                                               ; preds = %41
  %49 = bitcast i8* %43 to i8**
  %50 = load i8*, i8** %49, align 8
  store i8 0, i8* %50, align 1
  %51 = getelementptr inbounds i8, i8* %43, i64 8
  %52 = bitcast i8* %51 to i64*
  store i64 0, i64* %52, align 8
  br label %53

53:                                               ; preds = %48, %47, %38
  store i32 0, i32* %5, align 8
  br label %54

54:                                               ; preds = %53, %4
  %55 = getelementptr inbounds %"class.private_membership::rlwe::PrivateMembershipRlweOprfRequest", %"class.private_membership::rlwe::PrivateMembershipRlweOprfRequest"* %0, i64 0, i32 2
  store i32 0, i32* %55, align 8
  %56 = getelementptr inbounds %"class.private_membership::rlwe::PrivateMembershipRlweOprfRequest", %"class.private_membership::rlwe::PrivateMembershipRlweOprfRequest"* %0, i64 0, i32 0, i32 1
  %57 = bitcast %"class.google::protobuf::internal::InternalMetadata"* %56 to i64*
  %58 = load i64, i64* %57, align 8
  %59 = and i64 %58, 1
  %60 = icmp eq i64 %59, 0
  br i1 %60, label %75, label %61

61:                                               ; preds = %54
  %62 = and i64 %58, -2
  %63 = inttoptr i64 %62 to %"struct.google::protobuf::internal::InternalMetadata::Container"*
  %64 = getelementptr inbounds %"struct.google::protobuf::internal::InternalMetadata::Container", %"struct.google::protobuf::internal::InternalMetadata::Container"* %63, i64 0, i32 1
  %65 = bitcast %"class.std::__1::basic_string"* %64 to %"struct.std::__1::basic_string<char, std::__1::char_traits<char>, std::__1::allocator<char> >::__short"*
  %66 = getelementptr inbounds %"struct.std::__1::basic_string<char, std::__1::char_traits<char>, std::__1::allocator<char> >::__short", %"struct.std::__1::basic_string<char, std::__1::char_traits<char>, std::__1::allocator<char> >::__short"* %65, i64 0, i32 1, i32 0
  %67 = load i8, i8* %66, align 1
  %68 = icmp slt i8 %67, 0
  br i1 %68, label %69, label %73

69:                                               ; preds = %61
  %70 = getelementptr inbounds %"class.std::__1::basic_string", %"class.std::__1::basic_string"* %64, i64 0, i32 0, i32 0, i32 0, i32 0, i32 0, i32 0
  %71 = load i8*, i8** %70, align 8
  store i8 0, i8* %71, align 1
  %72 = getelementptr inbounds %"struct.google::protobuf::internal::InternalMetadata::Container", %"struct.google::protobuf::internal::InternalMetadata::Container"* %63, i64 0, i32 1, i32 0, i32 0, i32 0, i32 0, i32 0, i32 1
  store i64 0, i64* %72, align 8
  br label %75

73:                                               ; preds = %61
  %74 = bitcast %"class.std::__1::basic_string"* %64 to i8*
  store i8 0, i8* %74, align 2
  store i8 0, i8* %66, align 1
  br label %75

75:                                               ; preds = %54, %69, %73
  %76 = getelementptr inbounds %"class.private_membership::rlwe::PrivateMembershipRlweOprfRequest", %"class.private_membership::rlwe::PrivateMembershipRlweOprfRequest"* %1, i64 0, i32 0, i32 1
  %77 = bitcast %"class.google::protobuf::internal::InternalMetadata"* %76 to i64*
  %78 = load i64, i64* %77, align 8
  %79 = and i64 %78, 1
  %80 = icmp eq i64 %79, 0
  br i1 %80, label %109, label %81

81:                                               ; preds = %75
  %82 = and i64 %78, -2
  %83 = inttoptr i64 %82 to %"struct.google::protobuf::internal::InternalMetadata::Container"*
  %84 = getelementptr inbounds %"struct.google::protobuf::internal::InternalMetadata::Container", %"struct.google::protobuf::internal::InternalMetadata::Container"* %83, i64 0, i32 1
  %85 = load i64, i64* %57, align 8
  %86 = and i64 %85, 1
  %87 = icmp eq i64 %86, 0
  br i1 %87, label %92, label %88, !prof !4

88:                                               ; preds = %81
  %89 = and i64 %85, -2
  %90 = inttoptr i64 %89 to %"struct.google::protobuf::internal::InternalMetadata::Container"*
  %91 = getelementptr inbounds %"struct.google::protobuf::internal::InternalMetadata::Container", %"struct.google::protobuf::internal::InternalMetadata::Container"* %90, i64 0, i32 1
  br label %94

92:                                               ; preds = %81
  %93 = tail call %"class.std::__1::basic_string"* @_ZN6google8protobuf8internal16InternalMetadata27mutable_unknown_fields_slowINSt3__112basic_stringIcNS4_11char_traitsIcEENS4_9allocatorIcEEEEEEPT_v(%"class.google::protobuf::internal::InternalMetadata"* %56) #14
  br label %94

94:                                               ; preds = %92, %88
  %95 = phi %"class.std::__1::basic_string"* [ %91, %88 ], [ %93, %92 ]
  %96 = bitcast %"class.std::__1::basic_string"* %84 to %"struct.std::__1::basic_string<char, std::__1::char_traits<char>, std::__1::allocator<char> >::__short"*
  %97 = getelementptr inbounds %"struct.std::__1::basic_string<char, std::__1::char_traits<char>, std::__1::allocator<char> >::__short", %"struct.std::__1::basic_string<char, std::__1::char_traits<char>, std::__1::allocator<char> >::__short"* %96, i64 0, i32 1, i32 0
  %98 = load i8, i8* %97, align 1
  %99 = icmp slt i8 %98, 0
  %100 = getelementptr inbounds %"class.std::__1::basic_string", %"class.std::__1::basic_string"* %84, i64 0, i32 0, i32 0, i32 0, i32 0, i32 0, i32 0
  %101 = load i8*, i8** %100, align 8
  %102 = getelementptr inbounds %"struct.google::protobuf::internal::InternalMetadata::Container", %"struct.google::protobuf::internal::InternalMetadata::Container"* %83, i64 0, i32 1, i32 0, i32 0, i32 0, i32 0, i32 0, i32 1
  %103 = load i64, i64* %102, align 8
  %104 = bitcast %"class.std::__1::basic_string"* %84 to i8*
  %105 = zext i8 %98 to i64
  %106 = select i1 %99, i8* %101, i8* %104
  %107 = select i1 %99, i64 %103, i64 %105
  %108 = tail call dereferenceable(24) %"class.std::__1::basic_string"* @_ZNSt3__112basic_stringIcNS_11char_traitsIcEENS_9allocatorIcEEE6appendEPKcm(%"class.std::__1::basic_string"* %95, i8* %106, i64 %107) #14
  br label %109

109:                                              ; preds = %94, %75
  %110 = getelementptr inbounds %"class.private_membership::rlwe::PrivateMembershipRlweOprfRequest", %"class.private_membership::rlwe::PrivateMembershipRlweOprfRequest"* %0, i64 0, i32 1, i32 0
  %111 = getelementptr inbounds %"class.private_membership::rlwe::PrivateMembershipRlweOprfRequest", %"class.private_membership::rlwe::PrivateMembershipRlweOprfRequest"* %1, i64 0, i32 1, i32 0
  tail call void @_ZN6google8protobuf8internal20RepeatedPtrFieldBase9MergeFromINS0_16RepeatedPtrFieldINSt3__112basic_stringIcNS5_11char_traitsIcEENS5_9allocatorIcEEEEE11TypeHandlerEEEvRKS2_(%"class.google::protobuf::internal::RepeatedPtrFieldBase"* %110, %"class.google::protobuf::internal::RepeatedPtrFieldBase"* dereferenceable(24) %111) #14
  %112 = getelementptr inbounds %"class.private_membership::rlwe::PrivateMembershipRlweOprfRequest", %"class.private_membership::rlwe::PrivateMembershipRlweOprfRequest"* %1, i64 0, i32 2
  %113 = load i32, i32* %112, align 8
  %114 = icmp eq i32 %113, 0
  br i1 %114, label %116, label %115

115:                                              ; preds = %109
  store i32 %113, i32* %55, align 8
  br label %116

116:                                              ; preds = %115, %109, %2
  ret void

117:                                              ; preds = %31
  store i8 0, i8* %34, align 1
  store i8 0, i8* %35, align 1
  br label %123

118:                                              ; preds = %31
  %119 = bitcast i8* %34 to i8**
  %120 = load i8*, i8** %119, align 8
  store i8 0, i8* %120, align 1
  %121 = getelementptr inbounds i8, i8* %34, i64 8
  %122 = bitcast i8* %121 to i64*
  store i64 0, i64* %122, align 8
  br label %123

123:                                              ; preds = %118, %117
  %124 = add i64 %18, -2
  %125 = icmp eq i64 %124, 0
  br i1 %125, label %38, label %16
}

; Function Attrs: norecurse nounwind readnone ssp uwtable
define hidden zeroext i1 @_ZNK18private_membership4rlwe32PrivateMembershipRlweOprfRequest13IsInitializedEv(%"class.private_membership::rlwe::PrivateMembershipRlweOprfRequest"* nocapture readnone) unnamed_addr #1 align 2 {
  ret i1 true
}

; Function Attrs: nounwind ssp uwtable
define hidden void @_ZN18private_membership4rlwe32PrivateMembershipRlweOprfRequest12InternalSwapEPS1_(%"class.private_membership::rlwe::PrivateMembershipRlweOprfRequest"*, %"class.private_membership::rlwe::PrivateMembershipRlweOprfRequest"*) local_unnamed_addr #0 align 2 {
  %3 = getelementptr inbounds %"class.private_membership::rlwe::PrivateMembershipRlweOprfRequest", %"class.private_membership::rlwe::PrivateMembershipRlweOprfRequest"* %0, i64 0, i32 0, i32 1
  %4 = getelementptr inbounds %"class.private_membership::rlwe::PrivateMembershipRlweOprfRequest", %"class.private_membership::rlwe::PrivateMembershipRlweOprfRequest"* %1, i64 0, i32 0, i32 1
  %5 = bitcast %"class.google::protobuf::internal::InternalMetadata"* %3 to i64*
  %6 = load i64, i64* %5, align 8
  %7 = bitcast %"class.google::protobuf::internal::InternalMetadata"* %4 to i64*
  %8 = load i64, i64* %7, align 8
  %9 = or i64 %8, %6
  %10 = and i64 %9, 1
  %11 = icmp eq i64 %10, 0
  br i1 %11, label %43, label %12

12:                                               ; preds = %2
  %13 = and i64 %8, 1
  %14 = icmp eq i64 %13, 0
  br i1 %14, label %19, label %15, !prof !4

15:                                               ; preds = %12
  %16 = and i64 %8, -2
  %17 = inttoptr i64 %16 to %"struct.google::protobuf::internal::InternalMetadata::Container"*
  %18 = getelementptr inbounds %"struct.google::protobuf::internal::InternalMetadata::Container", %"struct.google::protobuf::internal::InternalMetadata::Container"* %17, i64 0, i32 1
  br label %22

19:                                               ; preds = %12
  %20 = tail call %"class.std::__1::basic_string"* @_ZN6google8protobuf8internal16InternalMetadata27mutable_unknown_fields_slowINSt3__112basic_stringIcNS4_11char_traitsIcEENS4_9allocatorIcEEEEEEPT_v(%"class.google::protobuf::internal::InternalMetadata"* %4) #14
  %21 = load i64, i64* %5, align 8
  br label %22

22:                                               ; preds = %19, %15
  %23 = phi i64 [ %6, %15 ], [ %21, %19 ]
  %24 = phi %"class.std::__1::basic_string"* [ %18, %15 ], [ %20, %19 ]
  %25 = and i64 %23, 1
  %26 = icmp eq i64 %25, 0
  br i1 %26, label %31, label %27, !prof !4

27:                                               ; preds = %22
  %28 = and i64 %23, -2
  %29 = inttoptr i64 %28 to %"struct.google::protobuf::internal::InternalMetadata::Container"*
  %30 = getelementptr inbounds %"struct.google::protobuf::internal::InternalMetadata::Container", %"struct.google::protobuf::internal::InternalMetadata::Container"* %29, i64 0, i32 1
  br label %33

31:                                               ; preds = %22
  %32 = tail call %"class.std::__1::basic_string"* @_ZN6google8protobuf8internal16InternalMetadata27mutable_unknown_fields_slowINSt3__112basic_stringIcNS4_11char_traitsIcEENS4_9allocatorIcEEEEEEPT_v(%"class.google::protobuf::internal::InternalMetadata"* %3) #14
  br label %33

33:                                               ; preds = %31, %27
  %34 = phi %"class.std::__1::basic_string"* [ %30, %27 ], [ %32, %31 ]
  %35 = bitcast %"class.std::__1::basic_string"* %34 to <2 x i64>*
  %36 = load <2 x i64>, <2 x i64>* %35, align 8
  %37 = getelementptr inbounds %"class.std::__1::basic_string", %"class.std::__1::basic_string"* %34, i64 0, i32 0, i32 0, i32 0, i32 0, i32 0, i32 2
  %38 = load i64, i64* %37, align 8
  %39 = bitcast %"class.std::__1::basic_string"* %34 to i8*
  %40 = bitcast %"class.std::__1::basic_string"* %24 to i8*
  tail call void @llvm.memcpy.p0i8.p0i8.i64(i8* align 8 %39, i8* align 8 %40, i64 24, i1 false) #14
  %41 = bitcast %"class.std::__1::basic_string"* %24 to <2 x i64>*
  store <2 x i64> %36, <2 x i64>* %41, align 8
  %42 = getelementptr inbounds %"class.std::__1::basic_string", %"class.std::__1::basic_string"* %24, i64 0, i32 0, i32 0, i32 0, i32 0, i32 0, i32 2
  store i64 %38, i64* %42, align 8
  br label %43

43:                                               ; preds = %2, %33
  %44 = getelementptr inbounds %"class.private_membership::rlwe::PrivateMembershipRlweOprfRequest", %"class.private_membership::rlwe::PrivateMembershipRlweOprfRequest"* %0, i64 0, i32 1, i32 0, i32 1
  %45 = bitcast i32* %44 to i8*
  %46 = getelementptr inbounds %"class.private_membership::rlwe::PrivateMembershipRlweOprfRequest", %"class.private_membership::rlwe::PrivateMembershipRlweOprfRequest"* %1, i64 0, i32 1, i32 0, i32 1
  %47 = bitcast i32* %46 to i8*
  %48 = bitcast i32* %44 to i128*
  %49 = load i128, i128* %48, align 1
  tail call void @llvm.memcpy.p0i8.p0i8.i64(i8* align 1 %45, i8* align 1 %47, i64 16, i1 false) #14
  %50 = bitcast i32* %46 to i128*
  store i128 %49, i128* %50, align 1
  %51 = getelementptr inbounds %"class.private_membership::rlwe::PrivateMembershipRlweOprfRequest", %"class.private_membership::rlwe::PrivateMembershipRlweOprfRequest"* %0, i64 0, i32 2
  %52 = getelementptr inbounds %"class.private_membership::rlwe::PrivateMembershipRlweOprfRequest", %"class.private_membership::rlwe::PrivateMembershipRlweOprfRequest"* %1, i64 0, i32 2
  %53 = load i32, i32* %51, align 4
  %54 = load i32, i32* %52, align 4
  store i32 %54, i32* %51, align 4
  store i32 %53, i32* %52, align 4
  ret void
}

; Function Attrs: nounwind ssp uwtable
define hidden void @_ZNK18private_membership4rlwe32PrivateMembershipRlweOprfRequest11GetTypeNameEv(%"class.std::__1::basic_string"* noalias sret, %"class.private_membership::rlwe::PrivateMembershipRlweOprfRequest"* nocapture readnone) unnamed_addr #0 align 2 {
  %3 = tail call i8* @_Znwm(i64 64) #15
  %4 = getelementptr inbounds %"class.std::__1::basic_string", %"class.std::__1::basic_string"* %0, i64 0, i32 0, i32 0, i32 0, i32 0, i32 0, i32 0
  store i8* %3, i8** %4, align 8
  %5 = getelementptr inbounds %"class.std::__1::basic_string", %"class.std::__1::basic_string"* %0, i64 0, i32 0, i32 0, i32 0, i32 0, i32 0, i32 1
  %6 = bitcast i64* %5 to <2 x i64>*
  store <2 x i64> <i64 56, i64 -9223372036854775744>, <2 x i64>* %6, align 8
  tail call void @llvm.memcpy.p0i8.p0i8.i64(i8* nonnull align 1 %3, i8* align 1 getelementptr inbounds ([57 x i8], [57 x i8]* @.str.6, i64 0, i64 0), i64 56, i1 false) #14
  %7 = getelementptr inbounds i8, i8* %3, i64 56
  store i8 0, i8* %7, align 1
  ret void
}

; Function Attrs: norecurse nounwind readonly ssp uwtable
define hidden dereferenceable(32) %"class.private_membership::rlwe::HashedBucketsParameters"* @_ZN18private_membership4rlwe33PrivateMembershipRlweOprfResponse9_Internal25hashed_buckets_parametersEPKS1_(%"class.private_membership::rlwe::PrivateMembershipRlweOprfResponse"* nocapture readonly) local_unnamed_addr #8 align 2 {
  %2 = getelementptr inbounds %"class.private_membership::rlwe::PrivateMembershipRlweOprfResponse", %"class.private_membership::rlwe::PrivateMembershipRlweOprfResponse"* %0, i64 0, i32 2
  %3 = load %"class.private_membership::rlwe::HashedBucketsParameters"*, %"class.private_membership::rlwe::HashedBucketsParameters"** %2, align 8
  ret %"class.private_membership::rlwe::HashedBucketsParameters"* %3
}

; Function Attrs: norecurse nounwind readonly ssp uwtable
define hidden dereferenceable(32) %"class.private_membership::rlwe::EncryptedBucketsParameters"* @_ZN18private_membership4rlwe33PrivateMembershipRlweOprfResponse9_Internal28encrypted_buckets_parametersEPKS1_(%"class.private_membership::rlwe::PrivateMembershipRlweOprfResponse"* nocapture readonly) local_unnamed_addr #8 align 2 {
  %2 = getelementptr inbounds %"class.private_membership::rlwe::PrivateMembershipRlweOprfResponse", %"class.private_membership::rlwe::PrivateMembershipRlweOprfResponse"* %0, i64 0, i32 3
  %3 = load %"class.private_membership::rlwe::EncryptedBucketsParameters"*, %"class.private_membership::rlwe::EncryptedBucketsParameters"** %2, align 8
  ret %"class.private_membership::rlwe::EncryptedBucketsParameters"* %3
}

; Function Attrs: norecurse nounwind readonly ssp uwtable
define hidden dereferenceable(64) %"class.private_membership::rlwe::RlweParameters"* @_ZN18private_membership4rlwe33PrivateMembershipRlweOprfResponse9_Internal15rlwe_parametersEPKS1_(%"class.private_membership::rlwe::PrivateMembershipRlweOprfResponse"* nocapture readonly) local_unnamed_addr #8 align 2 {
  %2 = getelementptr inbounds %"class.private_membership::rlwe::PrivateMembershipRlweOprfResponse", %"class.private_membership::rlwe::PrivateMembershipRlweOprfResponse"* %0, i64 0, i32 4
  %3 = load %"class.private_membership::rlwe::RlweParameters"*, %"class.private_membership::rlwe::RlweParameters"** %2, align 8
  ret %"class.private_membership::rlwe::RlweParameters"* %3
}

; Function Attrs: nounwind ssp uwtable
define hidden void @_ZN18private_membership4rlwe33PrivateMembershipRlweOprfResponse26clear_doubly_encrypted_idsEv(%"class.private_membership::rlwe::PrivateMembershipRlweOprfResponse"* nocapture) local_unnamed_addr #0 align 2 {
  %2 = getelementptr inbounds %"class.private_membership::rlwe::PrivateMembershipRlweOprfResponse", %"class.private_membership::rlwe::PrivateMembershipRlweOprfResponse"* %0, i64 0, i32 1, i32 0, i32 1
  %3 = load i32, i32* %2, align 8
  %4 = icmp sgt i32 %3, 0
  br i1 %4, label %5, label %17

5:                                                ; preds = %1
  %6 = getelementptr inbounds %"class.private_membership::rlwe::PrivateMembershipRlweOprfResponse", %"class.private_membership::rlwe::PrivateMembershipRlweOprfResponse"* %0, i64 0, i32 1, i32 0, i32 3
  %7 = load %"struct.google::protobuf::internal::RepeatedPtrFieldBase::Rep"*, %"struct.google::protobuf::internal::RepeatedPtrFieldBase::Rep"** %6, align 8
  %8 = zext i32 %3 to i64
  br label %9

9:                                                ; preds = %9, %5
  %10 = phi i64 [ %11, %9 ], [ 0, %5 ]
  %11 = add nuw nsw i64 %10, 1
  %12 = getelementptr inbounds %"struct.google::protobuf::internal::RepeatedPtrFieldBase::Rep", %"struct.google::protobuf::internal::RepeatedPtrFieldBase::Rep"* %7, i64 0, i32 1, i64 %10
  %13 = bitcast i8** %12 to %"class.private_membership::DoublyEncryptedId"**
  %14 = load %"class.private_membership::DoublyEncryptedId"*, %"class.private_membership::DoublyEncryptedId"** %13, align 8
  tail call void @_ZN18private_membership17DoublyEncryptedId5ClearEv(%"class.private_membership::DoublyEncryptedId"* %14) #14
  %15 = icmp eq i64 %11, %8
  br i1 %15, label %16, label %9

16:                                               ; preds = %9
  store i32 0, i32* %2, align 8
  br label %17

17:                                               ; preds = %1, %16
  ret void
}

; Function Attrs: nounwind ssp uwtable
define hidden void @_ZN18private_membership4rlwe33PrivateMembershipRlweOprfResponseC2EPN6google8protobuf5ArenaE(%"class.private_membership::rlwe::PrivateMembershipRlweOprfResponse"* nocapture, %"class.google::protobuf::Arena"*) unnamed_addr #0 align 2 {
  %3 = getelementptr inbounds %"class.private_membership::rlwe::PrivateMembershipRlweOprfResponse", %"class.private_membership::rlwe::PrivateMembershipRlweOprfResponse"* %0, i64 0, i32 0, i32 0
  %4 = getelementptr inbounds %"class.private_membership::rlwe::PrivateMembershipRlweOprfResponse", %"class.private_membership::rlwe::PrivateMembershipRlweOprfResponse"* %0, i64 0, i32 0, i32 1
  %5 = bitcast %"class.google::protobuf::internal::InternalMetadata"* %4 to %"class.google::protobuf::Arena"**
  store %"class.google::protobuf::Arena"* %1, %"class.google::protobuf::Arena"** %5, align 8
  store i32 (...)** bitcast (i8** getelementptr inbounds ({ [16 x i8*] }, { [16 x i8*] }* @_ZTVN18private_membership4rlwe33PrivateMembershipRlweOprfResponseE, i64 0, inrange i32 0, i64 2) to i32 (...)**), i32 (...)*** %3, align 8
  %6 = getelementptr inbounds %"class.private_membership::rlwe::PrivateMembershipRlweOprfResponse", %"class.private_membership::rlwe::PrivateMembershipRlweOprfResponse"* %0, i64 0, i32 1, i32 0, i32 0
  store %"class.google::protobuf::Arena"* %1, %"class.google::protobuf::Arena"** %6, align 8
  %7 = getelementptr inbounds %"class.private_membership::rlwe::PrivateMembershipRlweOprfResponse", %"class.private_membership::rlwe::PrivateMembershipRlweOprfResponse"* %0, i64 0, i32 1, i32 0, i32 1
  %8 = bitcast i32* %7 to i8*
  tail call void @llvm.memset.p0i8.i64(i8* align 8 %8, i8 0, i64 16, i1 false) #14
  %9 = getelementptr inbounds %"class.private_membership::rlwe::PrivateMembershipRlweOprfResponse", %"class.private_membership::rlwe::PrivateMembershipRlweOprfResponse"* %0, i64 0, i32 6, i32 0, i32 0, i32 0, i32 0, i32 0, i32 0
  store i32 0, i32* %9, align 4
  %10 = load atomic i32, i32* getelementptr inbounds ({ { { { i32 } }, i32, i32, void ()* }, [4 x i8*] }, { { { { i32 } }, i32, i32, void ()* }, [4 x i8*] }* @scc_info_PrivateMembershipRlweOprfResponse_private_5fmembership_5frlwe_2eproto, i64 0, i32 0, i32 0, i32 0, i32 0) acquire, align 8
  %11 = icmp eq i32 %10, 0
  br i1 %11, label %13, label %12, !prof !2

12:                                               ; preds = %2
  tail call void @_ZN6google8protobuf8internal11InitSCCImplEPNS1_11SCCInfoBaseE(%"struct.google::protobuf::internal::SCCInfoBase"* bitcast ({ { { { i32 } }, i32, i32, void ()* }, [4 x i8*] }* @scc_info_PrivateMembershipRlweOprfResponse_private_5fmembership_5frlwe_2eproto to %"struct.google::protobuf::internal::SCCInfoBase"*)) #14
  br label %13

13:                                               ; preds = %2, %12
  %14 = getelementptr inbounds %"class.private_membership::rlwe::PrivateMembershipRlweOprfResponse", %"class.private_membership::rlwe::PrivateMembershipRlweOprfResponse"* %0, i64 0, i32 2
  %15 = bitcast %"class.private_membership::rlwe::HashedBucketsParameters"** %14 to i8*
  tail call void @llvm.memset.p0i8.i64(i8* align 1 %15, i8 0, i64 32, i1 false) #14
  ret void
}

; Function Attrs: nounwind ssp uwtable
define hidden void @_ZN18private_membership4rlwe33PrivateMembershipRlweOprfResponseC2ERKS1_(%"class.private_membership::rlwe::PrivateMembershipRlweOprfResponse"*, %"class.private_membership::rlwe::PrivateMembershipRlweOprfResponse"* readonly dereferenceable(80)) unnamed_addr #0 align 2 {
  %3 = getelementptr inbounds %"class.private_membership::rlwe::PrivateMembershipRlweOprfResponse", %"class.private_membership::rlwe::PrivateMembershipRlweOprfResponse"* %0, i64 0, i32 0, i32 0
  %4 = getelementptr inbounds %"class.private_membership::rlwe::PrivateMembershipRlweOprfResponse", %"class.private_membership::rlwe::PrivateMembershipRlweOprfResponse"* %0, i64 0, i32 0, i32 1, i32 0
  store i8* null, i8** %4, align 8
  store i32 (...)** bitcast (i8** getelementptr inbounds ({ [16 x i8*] }, { [16 x i8*] }* @_ZTVN18private_membership4rlwe33PrivateMembershipRlweOprfResponseE, i64 0, inrange i32 0, i64 2) to i32 (...)**), i32 (...)*** %3, align 8
  %5 = getelementptr inbounds %"class.private_membership::rlwe::PrivateMembershipRlweOprfResponse", %"class.private_membership::rlwe::PrivateMembershipRlweOprfResponse"* %0, i64 0, i32 1
  %6 = bitcast %"class.google::protobuf::RepeatedPtrField.30"* %5 to i8*
  tail call void @llvm.memset.p0i8.i64(i8* align 8 %6, i8 0, i64 24, i1 false) #14
  %7 = getelementptr inbounds %"class.private_membership::rlwe::PrivateMembershipRlweOprfResponse", %"class.private_membership::rlwe::PrivateMembershipRlweOprfResponse"* %1, i64 0, i32 1, i32 0, i32 1
  %8 = load i32, i32* %7, align 8
  %9 = icmp eq i32 %8, 0
  br i1 %9, label %65, label %10

10:                                               ; preds = %2
  %11 = getelementptr inbounds %"class.google::protobuf::RepeatedPtrField.30", %"class.google::protobuf::RepeatedPtrField.30"* %5, i64 0, i32 0
  %12 = getelementptr inbounds %"class.private_membership::rlwe::PrivateMembershipRlweOprfResponse", %"class.private_membership::rlwe::PrivateMembershipRlweOprfResponse"* %1, i64 0, i32 1, i32 0, i32 3
  %13 = load %"struct.google::protobuf::internal::RepeatedPtrFieldBase::Rep"*, %"struct.google::protobuf::internal::RepeatedPtrFieldBase::Rep"** %12, align 8
  %14 = tail call i8** @_ZN6google8protobuf8internal20RepeatedPtrFieldBase14InternalExtendEi(%"class.google::protobuf::internal::RepeatedPtrFieldBase"* %11, i32 %8) #14
  %15 = getelementptr inbounds %"class.private_membership::rlwe::PrivateMembershipRlweOprfResponse", %"class.private_membership::rlwe::PrivateMembershipRlweOprfResponse"* %0, i64 0, i32 1, i32 0, i32 3
  %16 = load %"struct.google::protobuf::internal::RepeatedPtrFieldBase::Rep"*, %"struct.google::protobuf::internal::RepeatedPtrFieldBase::Rep"** %15, align 8
  %17 = getelementptr inbounds %"struct.google::protobuf::internal::RepeatedPtrFieldBase::Rep", %"struct.google::protobuf::internal::RepeatedPtrFieldBase::Rep"* %16, i64 0, i32 0
  %18 = load i32, i32* %17, align 8
  %19 = getelementptr inbounds %"class.private_membership::rlwe::PrivateMembershipRlweOprfResponse", %"class.private_membership::rlwe::PrivateMembershipRlweOprfResponse"* %0, i64 0, i32 1, i32 0, i32 1
  %20 = load i32, i32* %19, align 8
  %21 = sub i32 %18, %20
  %22 = icmp sgt i32 %21, 0
  %23 = icmp sgt i32 %8, 0
  %24 = and i1 %23, %22
  br i1 %24, label %25, label %28

25:                                               ; preds = %10
  %26 = sext i32 %8 to i64
  %27 = sext i32 %21 to i64
  br label %34

28:                                               ; preds = %34, %10
  %29 = getelementptr inbounds %"class.google::protobuf::RepeatedPtrField.30", %"class.google::protobuf::RepeatedPtrField.30"* %5, i64 0, i32 0, i32 0
  %30 = load %"class.google::protobuf::Arena"*, %"class.google::protobuf::Arena"** %29, align 8
  %31 = icmp slt i32 %21, %8
  br i1 %31, label %32, label %57

32:                                               ; preds = %28
  %33 = sext i32 %21 to i64
  br label %46

34:                                               ; preds = %34, %25
  %35 = phi i64 [ 0, %25 ], [ %42, %34 ]
  %36 = getelementptr inbounds %"struct.google::protobuf::internal::RepeatedPtrFieldBase::Rep", %"struct.google::protobuf::internal::RepeatedPtrFieldBase::Rep"* %13, i64 0, i32 1, i64 %35
  %37 = bitcast i8** %36 to %"class.private_membership::DoublyEncryptedId"**
  %38 = load %"class.private_membership::DoublyEncryptedId"*, %"class.private_membership::DoublyEncryptedId"** %37, align 8
  %39 = getelementptr inbounds i8*, i8** %14, i64 %35
  %40 = bitcast i8** %39 to %"class.private_membership::DoublyEncryptedId"**
  %41 = load %"class.private_membership::DoublyEncryptedId"*, %"class.private_membership::DoublyEncryptedId"** %40, align 8
  tail call void @_ZN6google8protobuf8internal18GenericTypeHandlerIN18private_membership17DoublyEncryptedIdEE5MergeERKS4_PS4_(%"class.private_membership::DoublyEncryptedId"* dereferenceable(40) %38, %"class.private_membership::DoublyEncryptedId"* %41) #14
  %42 = add nuw nsw i64 %35, 1
  %43 = icmp slt i64 %42, %27
  %44 = icmp slt i64 %42, %26
  %45 = and i1 %43, %44
  br i1 %45, label %34, label %28

46:                                               ; preds = %46, %32
  %47 = phi i64 [ %33, %32 ], [ %54, %46 ]
  %48 = getelementptr inbounds %"struct.google::protobuf::internal::RepeatedPtrFieldBase::Rep", %"struct.google::protobuf::internal::RepeatedPtrFieldBase::Rep"* %13, i64 0, i32 1, i64 %47
  %49 = bitcast i8** %48 to %"class.private_membership::DoublyEncryptedId"**
  %50 = load %"class.private_membership::DoublyEncryptedId"*, %"class.private_membership::DoublyEncryptedId"** %49, align 8
  %51 = tail call %"class.private_membership::DoublyEncryptedId"* @_ZN6google8protobuf5Arena18CreateMaybeMessageIN18private_membership17DoublyEncryptedIdEJEEEPT_PS1_DpOT0_(%"class.google::protobuf::Arena"* %30) #14
  tail call void @_ZN6google8protobuf8internal18GenericTypeHandlerIN18private_membership17DoublyEncryptedIdEE5MergeERKS4_PS4_(%"class.private_membership::DoublyEncryptedId"* dereferenceable(40) %50, %"class.private_membership::DoublyEncryptedId"* %51) #14
  %52 = getelementptr inbounds i8*, i8** %14, i64 %47
  %53 = bitcast i8** %52 to %"class.private_membership::DoublyEncryptedId"**
  store %"class.private_membership::DoublyEncryptedId"* %51, %"class.private_membership::DoublyEncryptedId"** %53, align 8
  %54 = add nsw i64 %47, 1
  %55 = trunc i64 %54 to i32
  %56 = icmp eq i32 %8, %55
  br i1 %56, label %57, label %46

57:                                               ; preds = %46, %28
  %58 = load i32, i32* %19, align 8
  %59 = add nsw i32 %58, %8
  store i32 %59, i32* %19, align 8
  %60 = load %"struct.google::protobuf::internal::RepeatedPtrFieldBase::Rep"*, %"struct.google::protobuf::internal::RepeatedPtrFieldBase::Rep"** %15, align 8
  %61 = getelementptr inbounds %"struct.google::protobuf::internal::RepeatedPtrFieldBase::Rep", %"struct.google::protobuf::internal::RepeatedPtrFieldBase::Rep"* %60, i64 0, i32 0
  %62 = load i32, i32* %61, align 8
  %63 = icmp slt i32 %62, %59
  br i1 %63, label %64, label %65

64:                                               ; preds = %57
  store i32 %59, i32* %61, align 8
  br label %65

65:                                               ; preds = %2, %57, %64
  %66 = getelementptr inbounds %"class.private_membership::rlwe::PrivateMembershipRlweOprfResponse", %"class.private_membership::rlwe::PrivateMembershipRlweOprfResponse"* %0, i64 0, i32 6, i32 0, i32 0, i32 0, i32 0, i32 0, i32 0
  store i32 0, i32* %66, align 4
  %67 = getelementptr inbounds %"class.private_membership::rlwe::PrivateMembershipRlweOprfResponse", %"class.private_membership::rlwe::PrivateMembershipRlweOprfResponse"* %0, i64 0, i32 0, i32 1
  %68 = getelementptr inbounds %"class.private_membership::rlwe::PrivateMembershipRlweOprfResponse", %"class.private_membership::rlwe::PrivateMembershipRlweOprfResponse"* %1, i64 0, i32 0, i32 1
  %69 = bitcast %"class.google::protobuf::internal::InternalMetadata"* %68 to i64*
  %70 = load i64, i64* %69, align 8
  %71 = and i64 %70, 1
  %72 = icmp eq i64 %71, 0
  br i1 %72, label %102, label %73

73:                                               ; preds = %65
  %74 = and i64 %70, -2
  %75 = inttoptr i64 %74 to %"struct.google::protobuf::internal::InternalMetadata::Container"*
  %76 = getelementptr inbounds %"struct.google::protobuf::internal::InternalMetadata::Container", %"struct.google::protobuf::internal::InternalMetadata::Container"* %75, i64 0, i32 1
  %77 = bitcast %"class.google::protobuf::internal::InternalMetadata"* %67 to i64*
  %78 = load i64, i64* %77, align 8
  %79 = and i64 %78, 1
  %80 = icmp eq i64 %79, 0
  br i1 %80, label %85, label %81, !prof !4

81:                                               ; preds = %73
  %82 = and i64 %78, -2
  %83 = inttoptr i64 %82 to %"struct.google::protobuf::internal::InternalMetadata::Container"*
  %84 = getelementptr inbounds %"struct.google::protobuf::internal::InternalMetadata::Container", %"struct.google::protobuf::internal::InternalMetadata::Container"* %83, i64 0, i32 1
  br label %87

85:                                               ; preds = %73
  %86 = tail call %"class.std::__1::basic_string"* @_ZN6google8protobuf8internal16InternalMetadata27mutable_unknown_fields_slowINSt3__112basic_stringIcNS4_11char_traitsIcEENS4_9allocatorIcEEEEEEPT_v(%"class.google::protobuf::internal::InternalMetadata"* %67) #14
  br label %87

87:                                               ; preds = %85, %81
  %88 = phi %"class.std::__1::basic_string"* [ %84, %81 ], [ %86, %85 ]
  %89 = bitcast %"class.std::__1::basic_string"* %76 to %"struct.std::__1::basic_string<char, std::__1::char_traits<char>, std::__1::allocator<char> >::__short"*
  %90 = getelementptr inbounds %"struct.std::__1::basic_string<char, std::__1::char_traits<char>, std::__1::allocator<char> >::__short", %"struct.std::__1::basic_string<char, std::__1::char_traits<char>, std::__1::allocator<char> >::__short"* %89, i64 0, i32 1, i32 0
  %91 = load i8, i8* %90, align 1
  %92 = icmp slt i8 %91, 0
  %93 = getelementptr inbounds %"class.std::__1::basic_string", %"class.std::__1::basic_string"* %76, i64 0, i32 0, i32 0, i32 0, i32 0, i32 0, i32 0
  %94 = load i8*, i8** %93, align 8
  %95 = getelementptr inbounds %"struct.google::protobuf::internal::InternalMetadata::Container", %"struct.google::protobuf::internal::InternalMetadata::Container"* %75, i64 0, i32 1, i32 0, i32 0, i32 0, i32 0, i32 0, i32 1
  %96 = load i64, i64* %95, align 8
  %97 = bitcast %"class.std::__1::basic_string"* %76 to i8*
  %98 = zext i8 %91 to i64
  %99 = select i1 %92, i8* %94, i8* %97
  %100 = select i1 %92, i64 %96, i64 %98
  %101 = tail call dereferenceable(24) %"class.std::__1::basic_string"* @_ZNSt3__112basic_stringIcNS_11char_traitsIcEENS_9allocatorIcEEE6appendEPKcm(%"class.std::__1::basic_string"* %88, i8* %99, i64 %100) #14
  br label %102

102:                                              ; preds = %65, %87
  %103 = icmp eq %"class.private_membership::rlwe::PrivateMembershipRlweOprfResponse"* %1, bitcast (%"class.private_membership::rlwe::PrivateMembershipRlweOprfResponseDefaultTypeInternal"* @_ZN18private_membership4rlwe52_PrivateMembershipRlweOprfResponse_default_instance_E to %"class.private_membership::rlwe::PrivateMembershipRlweOprfResponse"*)
  br i1 %103, label %104, label %107

104:                                              ; preds = %102
  %105 = getelementptr inbounds %"class.private_membership::rlwe::PrivateMembershipRlweOprfResponse", %"class.private_membership::rlwe::PrivateMembershipRlweOprfResponse"* %0, i64 0, i32 2
  %106 = bitcast %"class.private_membership::rlwe::HashedBucketsParameters"** %105 to i8*
  call void @llvm.memset.p0i8.i64(i8* align 8 %106, i8 0, i64 16, i1 false)
  br label %206

107:                                              ; preds = %102
  %108 = getelementptr inbounds %"class.private_membership::rlwe::PrivateMembershipRlweOprfResponse", %"class.private_membership::rlwe::PrivateMembershipRlweOprfResponse"* %1, i64 0, i32 2
  %109 = load %"class.private_membership::rlwe::HashedBucketsParameters"*, %"class.private_membership::rlwe::HashedBucketsParameters"** %108, align 8
  %110 = icmp eq %"class.private_membership::rlwe::HashedBucketsParameters"* %109, null
  br i1 %110, label %150, label %111

111:                                              ; preds = %107
  %112 = tail call i8* @_Znwm(i64 32) #15
  %113 = bitcast i8* %112 to i32 (...)***
  %114 = getelementptr inbounds i8, i8* %112, i64 8
  %115 = bitcast i8* %114 to i8**
  store i8* null, i8** %115, align 8
  store i32 (...)** bitcast (i8** getelementptr inbounds ({ [16 x i8*] }, { [16 x i8*] }* @_ZTVN18private_membership4rlwe23HashedBucketsParametersE, i64 0, inrange i32 0, i64 2) to i32 (...)**), i32 (...)*** %113, align 8
  %116 = getelementptr inbounds i8, i8* %112, i64 24
  %117 = bitcast i8* %116 to i32*
  store i32 0, i32* %117, align 4
  %118 = getelementptr inbounds %"class.private_membership::rlwe::HashedBucketsParameters", %"class.private_membership::rlwe::HashedBucketsParameters"* %109, i64 0, i32 0, i32 1
  %119 = bitcast %"class.google::protobuf::internal::InternalMetadata"* %118 to i64*
  %120 = load i64, i64* %119, align 8
  %121 = and i64 %120, 1
  %122 = icmp eq i64 %121, 0
  br i1 %122, label %142, label %123

123:                                              ; preds = %111
  %124 = bitcast i8* %114 to %"class.google::protobuf::internal::InternalMetadata"*
  %125 = and i64 %120, -2
  %126 = inttoptr i64 %125 to %"struct.google::protobuf::internal::InternalMetadata::Container"*
  %127 = getelementptr inbounds %"struct.google::protobuf::internal::InternalMetadata::Container", %"struct.google::protobuf::internal::InternalMetadata::Container"* %126, i64 0, i32 1
  %128 = tail call %"class.std::__1::basic_string"* @_ZN6google8protobuf8internal16InternalMetadata27mutable_unknown_fields_slowINSt3__112basic_stringIcNS4_11char_traitsIcEENS4_9allocatorIcEEEEEEPT_v(%"class.google::protobuf::internal::InternalMetadata"* %124) #14
  %129 = bitcast %"class.std::__1::basic_string"* %127 to %"struct.std::__1::basic_string<char, std::__1::char_traits<char>, std::__1::allocator<char> >::__short"*
  %130 = getelementptr inbounds %"struct.std::__1::basic_string<char, std::__1::char_traits<char>, std::__1::allocator<char> >::__short", %"struct.std::__1::basic_string<char, std::__1::char_traits<char>, std::__1::allocator<char> >::__short"* %129, i64 0, i32 1, i32 0
  %131 = load i8, i8* %130, align 1
  %132 = icmp slt i8 %131, 0
  %133 = getelementptr inbounds %"class.std::__1::basic_string", %"class.std::__1::basic_string"* %127, i64 0, i32 0, i32 0, i32 0, i32 0, i32 0, i32 0
  %134 = load i8*, i8** %133, align 8
  %135 = getelementptr inbounds %"struct.google::protobuf::internal::InternalMetadata::Container", %"struct.google::protobuf::internal::InternalMetadata::Container"* %126, i64 0, i32 1, i32 0, i32 0, i32 0, i32 0, i32 0, i32 1
  %136 = load i64, i64* %135, align 8
  %137 = bitcast %"class.std::__1::basic_string"* %127 to i8*
  %138 = zext i8 %131 to i64
  %139 = select i1 %132, i8* %134, i8* %137
  %140 = select i1 %132, i64 %136, i64 %138
  %141 = tail call dereferenceable(24) %"class.std::__1::basic_string"* @_ZNSt3__112basic_stringIcNS_11char_traitsIcEENS_9allocatorIcEEE6appendEPKcm(%"class.std::__1::basic_string"* %128, i8* %139, i64 %140) #14
  br label %142

142:                                              ; preds = %123, %111
  %143 = getelementptr inbounds i8, i8* %112, i64 16
  %144 = getelementptr inbounds %"class.private_membership::rlwe::HashedBucketsParameters", %"class.private_membership::rlwe::HashedBucketsParameters"* %109, i64 0, i32 1
  %145 = bitcast i32* %144 to i64*
  %146 = bitcast i8* %143 to i64*
  %147 = load i64, i64* %145, align 8
  store i64 %147, i64* %146, align 8
  %148 = getelementptr inbounds %"class.private_membership::rlwe::PrivateMembershipRlweOprfResponse", %"class.private_membership::rlwe::PrivateMembershipRlweOprfResponse"* %0, i64 0, i32 2
  %149 = bitcast %"class.private_membership::rlwe::HashedBucketsParameters"** %148 to i8**
  store i8* %112, i8** %149, align 8
  br label %152

150:                                              ; preds = %107
  %151 = getelementptr inbounds %"class.private_membership::rlwe::PrivateMembershipRlweOprfResponse", %"class.private_membership::rlwe::PrivateMembershipRlweOprfResponse"* %0, i64 0, i32 2
  store %"class.private_membership::rlwe::HashedBucketsParameters"* null, %"class.private_membership::rlwe::HashedBucketsParameters"** %151, align 8
  br label %152

152:                                              ; preds = %142, %150
  %153 = getelementptr inbounds %"class.private_membership::rlwe::PrivateMembershipRlweOprfResponse", %"class.private_membership::rlwe::PrivateMembershipRlweOprfResponse"* %1, i64 0, i32 3
  %154 = load %"class.private_membership::rlwe::EncryptedBucketsParameters"*, %"class.private_membership::rlwe::EncryptedBucketsParameters"** %153, align 8
  %155 = icmp eq %"class.private_membership::rlwe::EncryptedBucketsParameters"* %154, null
  br i1 %155, label %195, label %156

156:                                              ; preds = %152
  %157 = tail call i8* @_Znwm(i64 32) #15
  %158 = bitcast i8* %157 to i32 (...)***
  %159 = getelementptr inbounds i8, i8* %157, i64 8
  %160 = bitcast i8* %159 to i8**
  store i8* null, i8** %160, align 8
  store i32 (...)** bitcast (i8** getelementptr inbounds ({ [16 x i8*] }, { [16 x i8*] }* @_ZTVN18private_membership4rlwe26EncryptedBucketsParametersE, i64 0, inrange i32 0, i64 2) to i32 (...)**), i32 (...)*** %158, align 8
  %161 = getelementptr inbounds i8, i8* %157, i64 24
  %162 = bitcast i8* %161 to i32*
  store i32 0, i32* %162, align 4
  %163 = getelementptr inbounds %"class.private_membership::rlwe::EncryptedBucketsParameters", %"class.private_membership::rlwe::EncryptedBucketsParameters"* %154, i64 0, i32 0, i32 1
  %164 = bitcast %"class.google::protobuf::internal::InternalMetadata"* %163 to i64*
  %165 = load i64, i64* %164, align 8
  %166 = and i64 %165, 1
  %167 = icmp eq i64 %166, 0
  br i1 %167, label %187, label %168

168:                                              ; preds = %156
  %169 = bitcast i8* %159 to %"class.google::protobuf::internal::InternalMetadata"*
  %170 = and i64 %165, -2
  %171 = inttoptr i64 %170 to %"struct.google::protobuf::internal::InternalMetadata::Container"*
  %172 = getelementptr inbounds %"struct.google::protobuf::internal::InternalMetadata::Container", %"struct.google::protobuf::internal::InternalMetadata::Container"* %171, i64 0, i32 1
  %173 = tail call %"class.std::__1::basic_string"* @_ZN6google8protobuf8internal16InternalMetadata27mutable_unknown_fields_slowINSt3__112basic_stringIcNS4_11char_traitsIcEENS4_9allocatorIcEEEEEEPT_v(%"class.google::protobuf::internal::InternalMetadata"* %169) #14
  %174 = bitcast %"class.std::__1::basic_string"* %172 to %"struct.std::__1::basic_string<char, std::__1::char_traits<char>, std::__1::allocator<char> >::__short"*
  %175 = getelementptr inbounds %"struct.std::__1::basic_string<char, std::__1::char_traits<char>, std::__1::allocator<char> >::__short", %"struct.std::__1::basic_string<char, std::__1::char_traits<char>, std::__1::allocator<char> >::__short"* %174, i64 0, i32 1, i32 0
  %176 = load i8, i8* %175, align 1
  %177 = icmp slt i8 %176, 0
  %178 = getelementptr inbounds %"class.std::__1::basic_string", %"class.std::__1::basic_string"* %172, i64 0, i32 0, i32 0, i32 0, i32 0, i32 0, i32 0
  %179 = load i8*, i8** %178, align 8
  %180 = getelementptr inbounds %"struct.google::protobuf::internal::InternalMetadata::Container", %"struct.google::protobuf::internal::InternalMetadata::Container"* %171, i64 0, i32 1, i32 0, i32 0, i32 0, i32 0, i32 0, i32 1
  %181 = load i64, i64* %180, align 8
  %182 = bitcast %"class.std::__1::basic_string"* %172 to i8*
  %183 = zext i8 %176 to i64
  %184 = select i1 %177, i8* %179, i8* %182
  %185 = select i1 %177, i64 %181, i64 %183
  %186 = tail call dereferenceable(24) %"class.std::__1::basic_string"* @_ZNSt3__112basic_stringIcNS_11char_traitsIcEENS_9allocatorIcEEE6appendEPKcm(%"class.std::__1::basic_string"* %173, i8* %184, i64 %185) #14
  br label %187

187:                                              ; preds = %168, %156
  %188 = getelementptr inbounds i8, i8* %157, i64 16
  %189 = getelementptr inbounds %"class.private_membership::rlwe::EncryptedBucketsParameters", %"class.private_membership::rlwe::EncryptedBucketsParameters"* %154, i64 0, i32 1
  %190 = bitcast i32* %189 to i64*
  %191 = bitcast i8* %188 to i64*
  %192 = load i64, i64* %190, align 8
  store i64 %192, i64* %191, align 8
  %193 = getelementptr inbounds %"class.private_membership::rlwe::PrivateMembershipRlweOprfResponse", %"class.private_membership::rlwe::PrivateMembershipRlweOprfResponse"* %0, i64 0, i32 3
  %194 = bitcast %"class.private_membership::rlwe::EncryptedBucketsParameters"** %193 to i8**
  store i8* %157, i8** %194, align 8
  br label %197

195:                                              ; preds = %152
  %196 = getelementptr inbounds %"class.private_membership::rlwe::PrivateMembershipRlweOprfResponse", %"class.private_membership::rlwe::PrivateMembershipRlweOprfResponse"* %0, i64 0, i32 3
  store %"class.private_membership::rlwe::EncryptedBucketsParameters"* null, %"class.private_membership::rlwe::EncryptedBucketsParameters"** %196, align 8
  br label %197

197:                                              ; preds = %187, %195
  %198 = getelementptr inbounds %"class.private_membership::rlwe::PrivateMembershipRlweOprfResponse", %"class.private_membership::rlwe::PrivateMembershipRlweOprfResponse"* %1, i64 0, i32 4
  %199 = load %"class.private_membership::rlwe::RlweParameters"*, %"class.private_membership::rlwe::RlweParameters"** %198, align 8
  %200 = icmp eq %"class.private_membership::rlwe::RlweParameters"* %199, null
  br i1 %200, label %206, label %201

201:                                              ; preds = %197
  %202 = tail call i8* @_Znwm(i64 64) #15
  %203 = bitcast i8* %202 to %"class.private_membership::rlwe::RlweParameters"*
  tail call void @_ZN18private_membership4rlwe14RlweParametersC2ERKS1_(%"class.private_membership::rlwe::RlweParameters"* nonnull %203, %"class.private_membership::rlwe::RlweParameters"* nonnull dereferenceable(64) %199)
  %204 = getelementptr inbounds %"class.private_membership::rlwe::PrivateMembershipRlweOprfResponse", %"class.private_membership::rlwe::PrivateMembershipRlweOprfResponse"* %0, i64 0, i32 4
  %205 = bitcast %"class.private_membership::rlwe::RlweParameters"** %204 to i8**
  store i8* %202, i8** %205, align 8
  br label %208

206:                                              ; preds = %197, %104
  %207 = getelementptr inbounds %"class.private_membership::rlwe::PrivateMembershipRlweOprfResponse", %"class.private_membership::rlwe::PrivateMembershipRlweOprfResponse"* %0, i64 0, i32 4
  store %"class.private_membership::rlwe::RlweParameters"* null, %"class.private_membership::rlwe::RlweParameters"** %207, align 8
  br label %208

208:                                              ; preds = %206, %201
  %209 = getelementptr inbounds %"class.private_membership::rlwe::PrivateMembershipRlweOprfResponse", %"class.private_membership::rlwe::PrivateMembershipRlweOprfResponse"* %1, i64 0, i32 5
  %210 = load i64, i64* %209, align 8
  %211 = getelementptr inbounds %"class.private_membership::rlwe::PrivateMembershipRlweOprfResponse", %"class.private_membership::rlwe::PrivateMembershipRlweOprfResponse"* %0, i64 0, i32 5
  store i64 %210, i64* %211, align 8
  ret void
}

; Function Attrs: nobuiltin nofree
declare noalias nonnull i8* @_Znwm(i64) local_unnamed_addr #9

; Function Attrs: nounwind ssp uwtable
define hidden void @_ZN18private_membership4rlwe33PrivateMembershipRlweOprfResponseD2Ev(%"class.private_membership::rlwe::PrivateMembershipRlweOprfResponse"*) unnamed_addr #0 align 2 {
  %2 = getelementptr inbounds %"class.private_membership::rlwe::PrivateMembershipRlweOprfResponse", %"class.private_membership::rlwe::PrivateMembershipRlweOprfResponse"* %0, i64 0, i32 0, i32 0
  store i32 (...)** bitcast (i8** getelementptr inbounds ({ [16 x i8*] }, { [16 x i8*] }* @_ZTVN18private_membership4rlwe33PrivateMembershipRlweOprfResponseE, i64 0, inrange i32 0, i64 2) to i32 (...)**), i32 (...)*** %2, align 8
  %3 = icmp eq %"class.private_membership::rlwe::PrivateMembershipRlweOprfResponse"* %0, bitcast (%"class.private_membership::rlwe::PrivateMembershipRlweOprfResponseDefaultTypeInternal"* @_ZN18private_membership4rlwe52_PrivateMembershipRlweOprfResponse_default_instance_E to %"class.private_membership::rlwe::PrivateMembershipRlweOprfResponse"*)
  br i1 %3, label %31, label %4

4:                                                ; preds = %1
  %5 = getelementptr inbounds %"class.private_membership::rlwe::PrivateMembershipRlweOprfResponse", %"class.private_membership::rlwe::PrivateMembershipRlweOprfResponse"* %0, i64 0, i32 2
  %6 = load %"class.private_membership::rlwe::HashedBucketsParameters"*, %"class.private_membership::rlwe::HashedBucketsParameters"** %5, align 8
  %7 = icmp eq %"class.private_membership::rlwe::HashedBucketsParameters"* %6, null
  br i1 %7, label %13, label %8

8:                                                ; preds = %4
  %9 = bitcast %"class.private_membership::rlwe::HashedBucketsParameters"* %6 to void (%"class.private_membership::rlwe::HashedBucketsParameters"*)***
  %10 = load void (%"class.private_membership::rlwe::HashedBucketsParameters"*)**, void (%"class.private_membership::rlwe::HashedBucketsParameters"*)*** %9, align 8
  %11 = getelementptr inbounds void (%"class.private_membership::rlwe::HashedBucketsParameters"*)*, void (%"class.private_membership::rlwe::HashedBucketsParameters"*)** %10, i64 1
  %12 = load void (%"class.private_membership::rlwe::HashedBucketsParameters"*)*, void (%"class.private_membership::rlwe::HashedBucketsParameters"*)** %11, align 8
  tail call void %12(%"class.private_membership::rlwe::HashedBucketsParameters"* nonnull %6) #14
  br label %13

13:                                               ; preds = %8, %4
  %14 = getelementptr inbounds %"class.private_membership::rlwe::PrivateMembershipRlweOprfResponse", %"class.private_membership::rlwe::PrivateMembershipRlweOprfResponse"* %0, i64 0, i32 3
  %15 = load %"class.private_membership::rlwe::EncryptedBucketsParameters"*, %"class.private_membership::rlwe::EncryptedBucketsParameters"** %14, align 8
  %16 = icmp eq %"class.private_membership::rlwe::EncryptedBucketsParameters"* %15, null
  br i1 %16, label %22, label %17

17:                                               ; preds = %13
  %18 = bitcast %"class.private_membership::rlwe::EncryptedBucketsParameters"* %15 to void (%"class.private_membership::rlwe::EncryptedBucketsParameters"*)***
  %19 = load void (%"class.private_membership::rlwe::EncryptedBucketsParameters"*)**, void (%"class.private_membership::rlwe::EncryptedBucketsParameters"*)*** %18, align 8
  %20 = getelementptr inbounds void (%"class.private_membership::rlwe::EncryptedBucketsParameters"*)*, void (%"class.private_membership::rlwe::EncryptedBucketsParameters"*)** %19, i64 1
  %21 = load void (%"class.private_membership::rlwe::EncryptedBucketsParameters"*)*, void (%"class.private_membership::rlwe::EncryptedBucketsParameters"*)** %20, align 8
  tail call void %21(%"class.private_membership::rlwe::EncryptedBucketsParameters"* nonnull %15) #14
  br label %22

22:                                               ; preds = %17, %13
  %23 = getelementptr inbounds %"class.private_membership::rlwe::PrivateMembershipRlweOprfResponse", %"class.private_membership::rlwe::PrivateMembershipRlweOprfResponse"* %0, i64 0, i32 4
  %24 = load %"class.private_membership::rlwe::RlweParameters"*, %"class.private_membership::rlwe::RlweParameters"** %23, align 8
  %25 = icmp eq %"class.private_membership::rlwe::RlweParameters"* %24, null
  br i1 %25, label %31, label %26

26:                                               ; preds = %22
  %27 = bitcast %"class.private_membership::rlwe::RlweParameters"* %24 to void (%"class.private_membership::rlwe::RlweParameters"*)***
  %28 = load void (%"class.private_membership::rlwe::RlweParameters"*)**, void (%"class.private_membership::rlwe::RlweParameters"*)*** %27, align 8
  %29 = getelementptr inbounds void (%"class.private_membership::rlwe::RlweParameters"*)*, void (%"class.private_membership::rlwe::RlweParameters"*)** %28, i64 1
  %30 = load void (%"class.private_membership::rlwe::RlweParameters"*)*, void (%"class.private_membership::rlwe::RlweParameters"*)** %29, align 8
  tail call void %30(%"class.private_membership::rlwe::RlweParameters"* nonnull %24) #14
  br label %31

31:                                               ; preds = %1, %22, %26
  %32 = getelementptr inbounds %"class.private_membership::rlwe::PrivateMembershipRlweOprfResponse", %"class.private_membership::rlwe::PrivateMembershipRlweOprfResponse"* %0, i64 0, i32 0, i32 1
  %33 = bitcast %"class.google::protobuf::internal::InternalMetadata"* %32 to i64*
  %34 = load i64, i64* %33, align 8
  %35 = and i64 %34, 1
  %36 = icmp eq i64 %35, 0
  br i1 %36, label %57, label %37

37:                                               ; preds = %31
  %38 = and i64 %34, -2
  %39 = inttoptr i64 %38 to %"struct.google::protobuf::internal::InternalMetadata::ContainerBase"*
  %40 = getelementptr inbounds %"struct.google::protobuf::internal::InternalMetadata::ContainerBase", %"struct.google::protobuf::internal::InternalMetadata::ContainerBase"* %39, i64 0, i32 0
  %41 = load %"class.google::protobuf::Arena"*, %"class.google::protobuf::Arena"** %40, align 8
  %42 = icmp ne %"class.google::protobuf::Arena"* %41, null
  %43 = icmp eq i64 %38, 0
  %44 = or i1 %43, %42
  br i1 %44, label %57, label %45

45:                                               ; preds = %37
  %46 = inttoptr i64 %38 to %"struct.google::protobuf::internal::InternalMetadata::Container"*
  %47 = getelementptr inbounds %"struct.google::protobuf::internal::InternalMetadata::Container", %"struct.google::protobuf::internal::InternalMetadata::Container"* %46, i64 0, i32 1
  %48 = bitcast %"class.std::__1::basic_string"* %47 to %"struct.std::__1::basic_string<char, std::__1::char_traits<char>, std::__1::allocator<char> >::__short"*
  %49 = getelementptr inbounds %"struct.std::__1::basic_string<char, std::__1::char_traits<char>, std::__1::allocator<char> >::__short", %"struct.std::__1::basic_string<char, std::__1::char_traits<char>, std::__1::allocator<char> >::__short"* %48, i64 0, i32 1, i32 0
  %50 = load i8, i8* %49, align 1
  %51 = icmp slt i8 %50, 0
  br i1 %51, label %52, label %55

52:                                               ; preds = %45
  %53 = getelementptr inbounds %"class.std::__1::basic_string", %"class.std::__1::basic_string"* %47, i64 0, i32 0, i32 0, i32 0, i32 0, i32 0, i32 0
  %54 = load i8*, i8** %53, align 8
  tail call void @_ZdlPv(i8* %54) #15
  br label %55

55:                                               ; preds = %52, %45
  %56 = inttoptr i64 %38 to i8*
  tail call void @_ZdlPv(i8* %56) #15
  br label %57

57:                                               ; preds = %31, %37, %55
  %58 = getelementptr inbounds %"class.private_membership::rlwe::PrivateMembershipRlweOprfResponse", %"class.private_membership::rlwe::PrivateMembershipRlweOprfResponse"* %0, i64 0, i32 1, i32 0, i32 3
  %59 = load %"struct.google::protobuf::internal::RepeatedPtrFieldBase::Rep"*, %"struct.google::protobuf::internal::RepeatedPtrFieldBase::Rep"** %58, align 8
  %60 = icmp eq %"struct.google::protobuf::internal::RepeatedPtrFieldBase::Rep"* %59, null
  %61 = bitcast %"struct.google::protobuf::internal::RepeatedPtrFieldBase::Rep"* %59 to i8*
  br i1 %60, label %91, label %62

62:                                               ; preds = %57
  %63 = getelementptr inbounds %"class.private_membership::rlwe::PrivateMembershipRlweOprfResponse", %"class.private_membership::rlwe::PrivateMembershipRlweOprfResponse"* %0, i64 0, i32 1, i32 0, i32 0
  %64 = load %"class.google::protobuf::Arena"*, %"class.google::protobuf::Arena"** %63, align 8
  %65 = icmp eq %"class.google::protobuf::Arena"* %64, null
  br i1 %65, label %66, label %91

66:                                               ; preds = %62
  %67 = getelementptr inbounds %"struct.google::protobuf::internal::RepeatedPtrFieldBase::Rep", %"struct.google::protobuf::internal::RepeatedPtrFieldBase::Rep"* %59, i64 0, i32 0
  %68 = load i32, i32* %67, align 8
  %69 = icmp sgt i32 %68, 0
  br i1 %69, label %70, label %75

70:                                               ; preds = %66
  %71 = zext i32 %68 to i64
  br label %77

72:                                               ; preds = %88
  %73 = bitcast %"struct.google::protobuf::internal::RepeatedPtrFieldBase::Rep"** %58 to i8**
  %74 = load i8*, i8** %73, align 8
  br label %75

75:                                               ; preds = %72, %66
  %76 = phi i8* [ %74, %72 ], [ %61, %66 ]
  tail call void @_ZdlPv(i8* %76) #14
  br label %91

77:                                               ; preds = %88, %70
  %78 = phi i64 [ 0, %70 ], [ %89, %88 ]
  %79 = getelementptr inbounds %"struct.google::protobuf::internal::RepeatedPtrFieldBase::Rep", %"struct.google::protobuf::internal::RepeatedPtrFieldBase::Rep"* %59, i64 0, i32 1, i64 %78
  %80 = bitcast i8** %79 to %"class.private_membership::DoublyEncryptedId"**
  %81 = load %"class.private_membership::DoublyEncryptedId"*, %"class.private_membership::DoublyEncryptedId"** %80, align 8
  %82 = icmp eq %"class.private_membership::DoublyEncryptedId"* %81, null
  br i1 %82, label %88, label %83

83:                                               ; preds = %77
  %84 = bitcast %"class.private_membership::DoublyEncryptedId"* %81 to void (%"class.private_membership::DoublyEncryptedId"*)***
  %85 = load void (%"class.private_membership::DoublyEncryptedId"*)**, void (%"class.private_membership::DoublyEncryptedId"*)*** %84, align 8
  %86 = getelementptr inbounds void (%"class.private_membership::DoublyEncryptedId"*)*, void (%"class.private_membership::DoublyEncryptedId"*)** %85, i64 1
  %87 = load void (%"class.private_membership::DoublyEncryptedId"*)*, void (%"class.private_membership::DoublyEncryptedId"*)** %86, align 8
  tail call void %87(%"class.private_membership::DoublyEncryptedId"* nonnull %81) #14
  br label %88

88:                                               ; preds = %83, %77
  %89 = add nuw nsw i64 %78, 1
  %90 = icmp eq i64 %89, %71
  br i1 %90, label %72, label %77

91:                                               ; preds = %57, %62, %75
  store %"struct.google::protobuf::internal::RepeatedPtrFieldBase::Rep"* null, %"struct.google::protobuf::internal::RepeatedPtrFieldBase::Rep"** %58, align 8
  ret void
}

; Function Attrs: nounwind ssp uwtable
define hidden void @_ZN18private_membership4rlwe33PrivateMembershipRlweOprfResponseD0Ev(%"class.private_membership::rlwe::PrivateMembershipRlweOprfResponse"*) unnamed_addr #0 align 2 {
  tail call void @_ZN18private_membership4rlwe33PrivateMembershipRlweOprfResponseD2Ev(%"class.private_membership::rlwe::PrivateMembershipRlweOprfResponse"* %0) #14
  %2 = bitcast %"class.private_membership::rlwe::PrivateMembershipRlweOprfResponse"* %0 to i8*
  tail call void @_ZdlPv(i8* %2) #15
  ret void
}

; Function Attrs: norecurse nounwind readnone ssp uwtable
define hidden void @_ZN18private_membership4rlwe33PrivateMembershipRlweOprfResponse9ArenaDtorEPv(i8* nocapture) local_unnamed_addr #1 align 2 {
  ret void
}

; Function Attrs: nofree norecurse nounwind ssp uwtable
define hidden void @_ZNK18private_membership4rlwe33PrivateMembershipRlweOprfResponse13SetCachedSizeEi(%"class.private_membership::rlwe::PrivateMembershipRlweOprfResponse"* nocapture, i32) local_unnamed_addr #7 align 2 {
  %3 = getelementptr inbounds %"class.private_membership::rlwe::PrivateMembershipRlweOprfResponse", %"class.private_membership::rlwe::PrivateMembershipRlweOprfResponse"* %0, i64 0, i32 6, i32 0, i32 0, i32 0, i32 0, i32 0, i32 0
  store atomic i32 %1, i32* %3 monotonic, align 4
  ret void
}

; Function Attrs: nounwind ssp uwtable
define hidden dereferenceable(80) %"class.private_membership::rlwe::PrivateMembershipRlweOprfResponse"* @_ZN18private_membership4rlwe33PrivateMembershipRlweOprfResponse16default_instanceEv() local_unnamed_addr #0 align 2 {
  %1 = load atomic i32, i32* getelementptr inbounds ({ { { { i32 } }, i32, i32, void ()* }, [4 x i8*] }, { { { { i32 } }, i32, i32, void ()* }, [4 x i8*] }* @scc_info_PrivateMembershipRlweOprfResponse_private_5fmembership_5frlwe_2eproto, i64 0, i32 0, i32 0, i32 0, i32 0) acquire, align 8
  %2 = icmp eq i32 %1, 0
  br i1 %2, label %4, label %3, !prof !2

3:                                                ; preds = %0
  tail call void @_ZN6google8protobuf8internal11InitSCCImplEPNS1_11SCCInfoBaseE(%"struct.google::protobuf::internal::SCCInfoBase"* bitcast ({ { { { i32 } }, i32, i32, void ()* }, [4 x i8*] }* @scc_info_PrivateMembershipRlweOprfResponse_private_5fmembership_5frlwe_2eproto to %"struct.google::protobuf::internal::SCCInfoBase"*)) #14
  br label %4

4:                                                ; preds = %0, %3
  ret %"class.private_membership::rlwe::PrivateMembershipRlweOprfResponse"* bitcast (%"class.private_membership::rlwe::PrivateMembershipRlweOprfResponseDefaultTypeInternal"* @_ZN18private_membership4rlwe52_PrivateMembershipRlweOprfResponse_default_instance_E to %"class.private_membership::rlwe::PrivateMembershipRlweOprfResponse"*)
}

; Function Attrs: nounwind ssp uwtable
define hidden void @_ZN18private_membership4rlwe33PrivateMembershipRlweOprfResponse5ClearEv(%"class.private_membership::rlwe::PrivateMembershipRlweOprfResponse"* nocapture) unnamed_addr #0 align 2 {
  %2 = getelementptr inbounds %"class.private_membership::rlwe::PrivateMembershipRlweOprfResponse", %"class.private_membership::rlwe::PrivateMembershipRlweOprfResponse"* %0, i64 0, i32 1, i32 0, i32 1
  %3 = load i32, i32* %2, align 8
  %4 = icmp sgt i32 %3, 0
  br i1 %4, label %5, label %17

5:                                                ; preds = %1
  %6 = getelementptr inbounds %"class.private_membership::rlwe::PrivateMembershipRlweOprfResponse", %"class.private_membership::rlwe::PrivateMembershipRlweOprfResponse"* %0, i64 0, i32 1, i32 0, i32 3
  %7 = load %"struct.google::protobuf::internal::RepeatedPtrFieldBase::Rep"*, %"struct.google::protobuf::internal::RepeatedPtrFieldBase::Rep"** %6, align 8
  %8 = zext i32 %3 to i64
  br label %9

9:                                                ; preds = %9, %5
  %10 = phi i64 [ %11, %9 ], [ 0, %5 ]
  %11 = add nuw nsw i64 %10, 1
  %12 = getelementptr inbounds %"struct.google::protobuf::internal::RepeatedPtrFieldBase::Rep", %"struct.google::protobuf::internal::RepeatedPtrFieldBase::Rep"* %7, i64 0, i32 1, i64 %10
  %13 = bitcast i8** %12 to %"class.private_membership::DoublyEncryptedId"**
  %14 = load %"class.private_membership::DoublyEncryptedId"*, %"class.private_membership::DoublyEncryptedId"** %13, align 8
  tail call void @_ZN18private_membership17DoublyEncryptedId5ClearEv(%"class.private_membership::DoublyEncryptedId"* %14) #14
  %15 = icmp eq i64 %11, %8
  br i1 %15, label %16, label %9

16:                                               ; preds = %9
  store i32 0, i32* %2, align 8
  br label %17

17:                                               ; preds = %1, %16
  %18 = getelementptr inbounds %"class.private_membership::rlwe::PrivateMembershipRlweOprfResponse", %"class.private_membership::rlwe::PrivateMembershipRlweOprfResponse"* %0, i64 0, i32 0, i32 1
  %19 = bitcast %"class.google::protobuf::internal::InternalMetadata"* %18 to i64*
  %20 = load i64, i64* %19, align 8
  %21 = and i64 %20, 1
  %22 = icmp eq i64 %21, 0
  %23 = and i64 %20, -2
  br i1 %22, label %28, label %24, !prof !2

24:                                               ; preds = %17
  %25 = inttoptr i64 %23 to %"struct.google::protobuf::internal::InternalMetadata::ContainerBase"*
  %26 = getelementptr inbounds %"struct.google::protobuf::internal::InternalMetadata::ContainerBase", %"struct.google::protobuf::internal::InternalMetadata::ContainerBase"* %25, i64 0, i32 0
  %27 = load %"class.google::protobuf::Arena"*, %"class.google::protobuf::Arena"** %26, align 8
  br label %30

28:                                               ; preds = %17
  %29 = inttoptr i64 %23 to %"class.google::protobuf::Arena"*
  br label %30

30:                                               ; preds = %24, %28
  %31 = phi %"class.google::protobuf::Arena"* [ %27, %24 ], [ %29, %28 ]
  %32 = icmp eq %"class.google::protobuf::Arena"* %31, null
  br i1 %32, label %33, label %44

33:                                               ; preds = %30
  %34 = getelementptr inbounds %"class.private_membership::rlwe::PrivateMembershipRlweOprfResponse", %"class.private_membership::rlwe::PrivateMembershipRlweOprfResponse"* %0, i64 0, i32 2
  %35 = load %"class.private_membership::rlwe::HashedBucketsParameters"*, %"class.private_membership::rlwe::HashedBucketsParameters"** %34, align 8
  %36 = icmp eq %"class.private_membership::rlwe::HashedBucketsParameters"* %35, null
  br i1 %36, label %44, label %37

37:                                               ; preds = %33
  %38 = bitcast %"class.private_membership::rlwe::HashedBucketsParameters"* %35 to void (%"class.private_membership::rlwe::HashedBucketsParameters"*)***
  %39 = load void (%"class.private_membership::rlwe::HashedBucketsParameters"*)**, void (%"class.private_membership::rlwe::HashedBucketsParameters"*)*** %38, align 8
  %40 = getelementptr inbounds void (%"class.private_membership::rlwe::HashedBucketsParameters"*)*, void (%"class.private_membership::rlwe::HashedBucketsParameters"*)** %39, i64 1
  %41 = load void (%"class.private_membership::rlwe::HashedBucketsParameters"*)*, void (%"class.private_membership::rlwe::HashedBucketsParameters"*)** %40, align 8
  tail call void %41(%"class.private_membership::rlwe::HashedBucketsParameters"* nonnull %35) #14
  %42 = load i64, i64* %19, align 8
  %43 = and i64 %42, -2
  br label %44

44:                                               ; preds = %33, %37, %30
  %45 = phi i64 [ %23, %33 ], [ %43, %37 ], [ %23, %30 ]
  %46 = phi i64 [ %20, %33 ], [ %42, %37 ], [ %20, %30 ]
  %47 = getelementptr inbounds %"class.private_membership::rlwe::PrivateMembershipRlweOprfResponse", %"class.private_membership::rlwe::PrivateMembershipRlweOprfResponse"* %0, i64 0, i32 2
  store %"class.private_membership::rlwe::HashedBucketsParameters"* null, %"class.private_membership::rlwe::HashedBucketsParameters"** %47, align 8
  %48 = and i64 %46, 1
  %49 = icmp eq i64 %48, 0
  br i1 %49, label %54, label %50, !prof !2

50:                                               ; preds = %44
  %51 = inttoptr i64 %45 to %"struct.google::protobuf::internal::InternalMetadata::ContainerBase"*
  %52 = getelementptr inbounds %"struct.google::protobuf::internal::InternalMetadata::ContainerBase", %"struct.google::protobuf::internal::InternalMetadata::ContainerBase"* %51, i64 0, i32 0
  %53 = load %"class.google::protobuf::Arena"*, %"class.google::protobuf::Arena"** %52, align 8
  br label %56

54:                                               ; preds = %44
  %55 = inttoptr i64 %45 to %"class.google::protobuf::Arena"*
  br label %56

56:                                               ; preds = %50, %54
  %57 = phi %"class.google::protobuf::Arena"* [ %53, %50 ], [ %55, %54 ]
  %58 = icmp eq %"class.google::protobuf::Arena"* %57, null
  br i1 %58, label %59, label %70

59:                                               ; preds = %56
  %60 = getelementptr inbounds %"class.private_membership::rlwe::PrivateMembershipRlweOprfResponse", %"class.private_membership::rlwe::PrivateMembershipRlweOprfResponse"* %0, i64 0, i32 3
  %61 = load %"class.private_membership::rlwe::EncryptedBucketsParameters"*, %"class.private_membership::rlwe::EncryptedBucketsParameters"** %60, align 8
  %62 = icmp eq %"class.private_membership::rlwe::EncryptedBucketsParameters"* %61, null
  br i1 %62, label %70, label %63

63:                                               ; preds = %59
  %64 = bitcast %"class.private_membership::rlwe::EncryptedBucketsParameters"* %61 to void (%"class.private_membership::rlwe::EncryptedBucketsParameters"*)***
  %65 = load void (%"class.private_membership::rlwe::EncryptedBucketsParameters"*)**, void (%"class.private_membership::rlwe::EncryptedBucketsParameters"*)*** %64, align 8
  %66 = getelementptr inbounds void (%"class.private_membership::rlwe::EncryptedBucketsParameters"*)*, void (%"class.private_membership::rlwe::EncryptedBucketsParameters"*)** %65, i64 1
  %67 = load void (%"class.private_membership::rlwe::EncryptedBucketsParameters"*)*, void (%"class.private_membership::rlwe::EncryptedBucketsParameters"*)** %66, align 8
  tail call void %67(%"class.private_membership::rlwe::EncryptedBucketsParameters"* nonnull %61) #14
  %68 = load i64, i64* %19, align 8
  %69 = and i64 %68, -2
  br label %70

70:                                               ; preds = %59, %63, %56
  %71 = phi i64 [ %45, %59 ], [ %69, %63 ], [ %45, %56 ]
  %72 = phi i64 [ %46, %59 ], [ %68, %63 ], [ %46, %56 ]
  %73 = getelementptr inbounds %"class.private_membership::rlwe::PrivateMembershipRlweOprfResponse", %"class.private_membership::rlwe::PrivateMembershipRlweOprfResponse"* %0, i64 0, i32 3
  store %"class.private_membership::rlwe::EncryptedBucketsParameters"* null, %"class.private_membership::rlwe::EncryptedBucketsParameters"** %73, align 8
  %74 = and i64 %72, 1
  %75 = icmp eq i64 %74, 0
  br i1 %75, label %80, label %76, !prof !2

76:                                               ; preds = %70
  %77 = inttoptr i64 %71 to %"struct.google::protobuf::internal::InternalMetadata::ContainerBase"*
  %78 = getelementptr inbounds %"struct.google::protobuf::internal::InternalMetadata::ContainerBase", %"struct.google::protobuf::internal::InternalMetadata::ContainerBase"* %77, i64 0, i32 0
  %79 = load %"class.google::protobuf::Arena"*, %"class.google::protobuf::Arena"** %78, align 8
  br label %82

80:                                               ; preds = %70
  %81 = inttoptr i64 %71 to %"class.google::protobuf::Arena"*
  br label %82

82:                                               ; preds = %76, %80
  %83 = phi %"class.google::protobuf::Arena"* [ %79, %76 ], [ %81, %80 ]
  %84 = icmp eq %"class.google::protobuf::Arena"* %83, null
  br i1 %84, label %85, label %96

85:                                               ; preds = %82
  %86 = getelementptr inbounds %"class.private_membership::rlwe::PrivateMembershipRlweOprfResponse", %"class.private_membership::rlwe::PrivateMembershipRlweOprfResponse"* %0, i64 0, i32 4
  %87 = load %"class.private_membership::rlwe::RlweParameters"*, %"class.private_membership::rlwe::RlweParameters"** %86, align 8
  %88 = icmp eq %"class.private_membership::rlwe::RlweParameters"* %87, null
  br i1 %88, label %96, label %89

89:                                               ; preds = %85
  %90 = bitcast %"class.private_membership::rlwe::RlweParameters"* %87 to void (%"class.private_membership::rlwe::RlweParameters"*)***
  %91 = load void (%"class.private_membership::rlwe::RlweParameters"*)**, void (%"class.private_membership::rlwe::RlweParameters"*)*** %90, align 8
  %92 = getelementptr inbounds void (%"class.private_membership::rlwe::RlweParameters"*)*, void (%"class.private_membership::rlwe::RlweParameters"*)** %91, i64 1
  %93 = load void (%"class.private_membership::rlwe::RlweParameters"*)*, void (%"class.private_membership::rlwe::RlweParameters"*)** %92, align 8
  tail call void %93(%"class.private_membership::rlwe::RlweParameters"* nonnull %87) #14
  %94 = load i64, i64* %19, align 8
  %95 = and i64 %94, 1
  br label %96

96:                                               ; preds = %85, %89, %82
  %97 = phi i64 [ %74, %85 ], [ %95, %89 ], [ %74, %82 ]
  %98 = phi i64 [ %72, %85 ], [ %94, %89 ], [ %72, %82 ]
  %99 = getelementptr inbounds %"class.private_membership::rlwe::PrivateMembershipRlweOprfResponse", %"class.private_membership::rlwe::PrivateMembershipRlweOprfResponse"* %0, i64 0, i32 4
  %100 = icmp eq i64 %97, 0
  %101 = bitcast %"class.private_membership::rlwe::RlweParameters"** %99 to i8*
  call void @llvm.memset.p0i8.i64(i8* align 8 %101, i8 0, i64 16, i1 false)
  br i1 %100, label %116, label %102

102:                                              ; preds = %96
  %103 = and i64 %98, -2
  %104 = inttoptr i64 %103 to %"struct.google::protobuf::internal::InternalMetadata::Container"*
  %105 = getelementptr inbounds %"struct.google::protobuf::internal::InternalMetadata::Container", %"struct.google::protobuf::internal::InternalMetadata::Container"* %104, i64 0, i32 1
  %106 = bitcast %"class.std::__1::basic_string"* %105 to %"struct.std::__1::basic_string<char, std::__1::char_traits<char>, std::__1::allocator<char> >::__short"*
  %107 = getelementptr inbounds %"struct.std::__1::basic_string<char, std::__1::char_traits<char>, std::__1::allocator<char> >::__short", %"struct.std::__1::basic_string<char, std::__1::char_traits<char>, std::__1::allocator<char> >::__short"* %106, i64 0, i32 1, i32 0
  %108 = load i8, i8* %107, align 1
  %109 = icmp slt i8 %108, 0
  br i1 %109, label %110, label %114

110:                                              ; preds = %102
  %111 = getelementptr inbounds %"class.std::__1::basic_string", %"class.std::__1::basic_string"* %105, i64 0, i32 0, i32 0, i32 0, i32 0, i32 0, i32 0
  %112 = load i8*, i8** %111, align 8
  store i8 0, i8* %112, align 1
  %113 = getelementptr inbounds %"struct.google::protobuf::internal::InternalMetadata::Container", %"struct.google::protobuf::internal::InternalMetadata::Container"* %104, i64 0, i32 1, i32 0, i32 0, i32 0, i32 0, i32 0, i32 1
  store i64 0, i64* %113, align 8
  br label %116

114:                                              ; preds = %102
  %115 = bitcast %"class.std::__1::basic_string"* %105 to i8*
  store i8 0, i8* %115, align 2
  store i8 0, i8* %107, align 1
  br label %116

116:                                              ; preds = %96, %110, %114
  ret void
}

; Function Attrs: nounwind ssp uwtable
define hidden i8* @_ZN18private_membership4rlwe33PrivateMembershipRlweOprfResponse14_InternalParseEPKcPN6google8protobuf8internal12ParseContextE(%"class.private_membership::rlwe::PrivateMembershipRlweOprfResponse"*, i8*, %"class.google::protobuf::internal::ParseContext"*) unnamed_addr #0 align 2 {
  %4 = getelementptr inbounds %"class.google::protobuf::internal::ParseContext", %"class.google::protobuf::internal::ParseContext"* %2, i64 0, i32 0
  %5 = getelementptr inbounds %"class.google::protobuf::internal::ParseContext", %"class.google::protobuf::internal::ParseContext"* %2, i64 0, i32 2
  %6 = getelementptr inbounds %"class.google::protobuf::internal::ParseContext", %"class.google::protobuf::internal::ParseContext"* %2, i64 0, i32 0, i32 0
  %7 = getelementptr inbounds %"class.google::protobuf::internal::ParseContext", %"class.google::protobuf::internal::ParseContext"* %2, i64 0, i32 0, i32 1
  %8 = bitcast i8** %7 to i64*
  %9 = getelementptr inbounds %"class.google::protobuf::internal::ParseContext", %"class.google::protobuf::internal::ParseContext"* %2, i64 0, i32 0, i32 4
  %10 = getelementptr inbounds %"class.private_membership::rlwe::PrivateMembershipRlweOprfResponse", %"class.private_membership::rlwe::PrivateMembershipRlweOprfResponse"* %0, i64 0, i32 5
  %11 = getelementptr inbounds %"class.private_membership::rlwe::PrivateMembershipRlweOprfResponse", %"class.private_membership::rlwe::PrivateMembershipRlweOprfResponse"* %0, i64 0, i32 4
  %12 = getelementptr inbounds %"class.private_membership::rlwe::PrivateMembershipRlweOprfResponse", %"class.private_membership::rlwe::PrivateMembershipRlweOprfResponse"* %0, i64 0, i32 0, i32 1
  %13 = bitcast %"class.google::protobuf::internal::InternalMetadata"* %12 to i64*
  %14 = getelementptr inbounds %"class.private_membership::rlwe::PrivateMembershipRlweOprfResponse", %"class.private_membership::rlwe::PrivateMembershipRlweOprfResponse"* %0, i64 0, i32 3
  %15 = getelementptr inbounds %"class.private_membership::rlwe::PrivateMembershipRlweOprfResponse", %"class.private_membership::rlwe::PrivateMembershipRlweOprfResponse"* %0, i64 0, i32 2
  %16 = getelementptr inbounds %"class.private_membership::rlwe::PrivateMembershipRlweOprfResponse", %"class.private_membership::rlwe::PrivateMembershipRlweOprfResponse"* %0, i64 0, i32 1
  %17 = getelementptr inbounds %"class.google::protobuf::RepeatedPtrField.30", %"class.google::protobuf::RepeatedPtrField.30"* %16, i64 0, i32 0
  %18 = getelementptr inbounds %"class.private_membership::rlwe::PrivateMembershipRlweOprfResponse", %"class.private_membership::rlwe::PrivateMembershipRlweOprfResponse"* %0, i64 0, i32 1, i32 0, i32 3
  %19 = getelementptr inbounds %"class.private_membership::rlwe::PrivateMembershipRlweOprfResponse", %"class.private_membership::rlwe::PrivateMembershipRlweOprfResponse"* %0, i64 0, i32 1, i32 0, i32 1
  %20 = getelementptr inbounds %"class.private_membership::rlwe::PrivateMembershipRlweOprfResponse", %"class.private_membership::rlwe::PrivateMembershipRlweOprfResponse"* %0, i64 0, i32 1, i32 0, i32 2
  %21 = getelementptr inbounds %"class.google::protobuf::RepeatedPtrField.30", %"class.google::protobuf::RepeatedPtrField.30"* %16, i64 0, i32 0, i32 0
  br label %22

22:                                               ; preds = %243, %3
  %23 = phi i8* [ %1, %3 ], [ %244, %243 ]
  %24 = load i32, i32* %5, align 4
  %25 = load i8*, i8** %6, align 8
  %26 = icmp ult i8* %23, %25
  br i1 %26, label %40, label %27, !prof !2

27:                                               ; preds = %22
  %28 = load i64, i64* %8, align 8
  %29 = ptrtoint i8* %23 to i64
  %30 = sub i64 %29, %28
  %31 = load i32, i32* %9, align 4
  %32 = sext i32 %31 to i64
  %33 = icmp eq i64 %30, %32
  br i1 %33, label %245, label %34

34:                                               ; preds = %27
  %35 = tail call { i8*, i8 } @_ZN6google8protobuf8internal18EpsCopyInputStream12DoneFallbackEPKci(%"class.google::protobuf::internal::EpsCopyInputStream"* %4, i8* %23, i32 %24) #14
  %36 = extractvalue { i8*, i8 } %35, 0
  %37 = extractvalue { i8*, i8 } %35, 1
  %38 = and i8 %37, 1
  %39 = icmp eq i8 %38, 0
  br i1 %39, label %40, label %245

40:                                               ; preds = %34, %22
  %41 = phi i8* [ %36, %34 ], [ %23, %22 ]
  %42 = load i8, i8* %41, align 1
  %43 = zext i8 %42 to i32
  %44 = icmp sgt i8 %42, -1
  %45 = getelementptr inbounds i8, i8* %41, i64 1
  br i1 %44, label %59, label %46

46:                                               ; preds = %40
  %47 = load i8, i8* %45, align 1
  %48 = zext i8 %47 to i32
  %49 = shl nuw nsw i32 %48, 7
  %50 = add nsw i32 %43, -128
  %51 = add nsw i32 %50, %49
  %52 = icmp sgt i8 %47, -1
  br i1 %52, label %53, label %55

53:                                               ; preds = %46
  %54 = getelementptr inbounds i8, i8* %41, i64 2
  br label %59

55:                                               ; preds = %46
  %56 = tail call { i8*, i32 } @_ZN6google8protobuf8internal15ReadTagFallbackEPKcj(i8* %41, i32 %51) #14
  %57 = extractvalue { i8*, i32 } %56, 0
  %58 = extractvalue { i8*, i32 } %56, 1
  br label %59

59:                                               ; preds = %40, %53, %55
  %60 = phi i32 [ %51, %53 ], [ %58, %55 ], [ %43, %40 ]
  %61 = phi i8* [ %54, %53 ], [ %57, %55 ], [ %45, %40 ]
  %62 = icmp eq i8* %61, null
  br i1 %62, label %245, label %63, !prof !4

63:                                               ; preds = %59
  %64 = lshr i32 %60, 3
  switch i32 %64, label %221 [
    i32 1, label %65
    i32 2, label %120
    i32 3, label %144
    i32 4, label %168
    i32 5, label %192
  ]

65:                                               ; preds = %63
  %66 = and i32 %60, 255
  %67 = icmp eq i32 %66, 10
  br i1 %67, label %68, label %221, !prof !2

68:                                               ; preds = %65
  %69 = getelementptr inbounds i8, i8* %61, i64 -1
  br label %70

70:                                               ; preds = %117, %68
  %71 = phi i8* [ %69, %68 ], [ %112, %117 ]
  %72 = getelementptr inbounds i8, i8* %71, i64 1
  %73 = load %"struct.google::protobuf::internal::RepeatedPtrFieldBase::Rep"*, %"struct.google::protobuf::internal::RepeatedPtrFieldBase::Rep"** %18, align 8
  %74 = icmp eq %"struct.google::protobuf::internal::RepeatedPtrFieldBase::Rep"* %73, null
  br i1 %74, label %75, label %77

75:                                               ; preds = %70
  %76 = load i32, i32* %20, align 4
  br label %91

77:                                               ; preds = %70
  %78 = load i32, i32* %19, align 8
  %79 = getelementptr inbounds %"struct.google::protobuf::internal::RepeatedPtrFieldBase::Rep", %"struct.google::protobuf::internal::RepeatedPtrFieldBase::Rep"* %73, i64 0, i32 0
  %80 = load i32, i32* %79, align 8
  %81 = icmp slt i32 %78, %80
  br i1 %81, label %82, label %88

82:                                               ; preds = %77
  %83 = add nsw i32 %78, 1
  store i32 %83, i32* %19, align 8
  %84 = sext i32 %78 to i64
  %85 = getelementptr inbounds %"struct.google::protobuf::internal::RepeatedPtrFieldBase::Rep", %"struct.google::protobuf::internal::RepeatedPtrFieldBase::Rep"* %73, i64 0, i32 1, i64 %84
  %86 = bitcast i8** %85 to %"class.private_membership::DoublyEncryptedId"**
  %87 = load %"class.private_membership::DoublyEncryptedId"*, %"class.private_membership::DoublyEncryptedId"** %86, align 8
  br label %110

88:                                               ; preds = %77
  %89 = load i32, i32* %20, align 4
  %90 = icmp eq i32 %80, %89
  br i1 %90, label %91, label %97

91:                                               ; preds = %88, %75
  %92 = phi i32 [ %76, %75 ], [ %80, %88 ]
  %93 = add nsw i32 %92, 1
  tail call void @_ZN6google8protobuf8internal20RepeatedPtrFieldBase7ReserveEi(%"class.google::protobuf::internal::RepeatedPtrFieldBase"* %17, i32 %93) #14
  %94 = load %"struct.google::protobuf::internal::RepeatedPtrFieldBase::Rep"*, %"struct.google::protobuf::internal::RepeatedPtrFieldBase::Rep"** %18, align 8
  %95 = getelementptr inbounds %"struct.google::protobuf::internal::RepeatedPtrFieldBase::Rep", %"struct.google::protobuf::internal::RepeatedPtrFieldBase::Rep"* %94, i64 0, i32 0
  %96 = load i32, i32* %95, align 8
  br label %97

97:                                               ; preds = %91, %88
  %98 = phi i32 [ %96, %91 ], [ %80, %88 ]
  %99 = phi %"struct.google::protobuf::internal::RepeatedPtrFieldBase::Rep"* [ %94, %91 ], [ %73, %88 ]
  %100 = getelementptr inbounds %"struct.google::protobuf::internal::RepeatedPtrFieldBase::Rep", %"struct.google::protobuf::internal::RepeatedPtrFieldBase::Rep"* %99, i64 0, i32 0
  %101 = add nsw i32 %98, 1
  store i32 %101, i32* %100, align 8
  %102 = load %"class.google::protobuf::Arena"*, %"class.google::protobuf::Arena"** %21, align 8
  %103 = tail call %"class.private_membership::DoublyEncryptedId"* @_ZN6google8protobuf5Arena18CreateMaybeMessageIN18private_membership17DoublyEncryptedIdEJEEEPT_PS1_DpOT0_(%"class.google::protobuf::Arena"* %102) #14
  %104 = load %"struct.google::protobuf::internal::RepeatedPtrFieldBase::Rep"*, %"struct.google::protobuf::internal::RepeatedPtrFieldBase::Rep"** %18, align 8
  %105 = load i32, i32* %19, align 8
  %106 = add nsw i32 %105, 1
  store i32 %106, i32* %19, align 8
  %107 = sext i32 %105 to i64
  %108 = getelementptr inbounds %"struct.google::protobuf::internal::RepeatedPtrFieldBase::Rep", %"struct.google::protobuf::internal::RepeatedPtrFieldBase::Rep"* %104, i64 0, i32 1, i64 %107
  %109 = bitcast i8** %108 to %"class.private_membership::DoublyEncryptedId"**
  store %"class.private_membership::DoublyEncryptedId"* %103, %"class.private_membership::DoublyEncryptedId"** %109, align 8
  br label %110

110:                                              ; preds = %82, %97
  %111 = phi %"class.private_membership::DoublyEncryptedId"* [ %87, %82 ], [ %103, %97 ]
  %112 = tail call i8* @_ZN6google8protobuf8internal12ParseContext12ParseMessageIN18private_membership17DoublyEncryptedIdEEEPKcPT_S7_(%"class.google::protobuf::internal::ParseContext"* %2, %"class.private_membership::DoublyEncryptedId"* %111, i8* %72)
  %113 = icmp eq i8* %112, null
  br i1 %113, label %245, label %114, !prof !4

114:                                              ; preds = %110
  %115 = load i8*, i8** %6, align 8
  %116 = icmp ugt i8* %115, %112
  br i1 %116, label %117, label %243

117:                                              ; preds = %114
  %118 = load i8, i8* %112, align 1
  %119 = icmp eq i8 %118, 10
  br i1 %119, label %70, label %243

120:                                              ; preds = %63
  %121 = and i32 %60, 255
  %122 = icmp eq i32 %121, 18
  br i1 %122, label %123, label %221, !prof !2

123:                                              ; preds = %120
  %124 = load %"class.private_membership::rlwe::HashedBucketsParameters"*, %"class.private_membership::rlwe::HashedBucketsParameters"** %15, align 8
  %125 = icmp eq %"class.private_membership::rlwe::HashedBucketsParameters"* %124, null
  br i1 %125, label %126, label %140

126:                                              ; preds = %123
  %127 = load i64, i64* %13, align 8
  %128 = and i64 %127, 1
  %129 = icmp eq i64 %128, 0
  %130 = and i64 %127, -2
  br i1 %129, label %135, label %131, !prof !2

131:                                              ; preds = %126
  %132 = inttoptr i64 %130 to %"struct.google::protobuf::internal::InternalMetadata::ContainerBase"*
  %133 = getelementptr inbounds %"struct.google::protobuf::internal::InternalMetadata::ContainerBase", %"struct.google::protobuf::internal::InternalMetadata::ContainerBase"* %132, i64 0, i32 0
  %134 = load %"class.google::protobuf::Arena"*, %"class.google::protobuf::Arena"** %133, align 8
  br label %137

135:                                              ; preds = %126
  %136 = inttoptr i64 %130 to %"class.google::protobuf::Arena"*
  br label %137

137:                                              ; preds = %135, %131
  %138 = phi %"class.google::protobuf::Arena"* [ %134, %131 ], [ %136, %135 ]
  %139 = tail call %"class.private_membership::rlwe::HashedBucketsParameters"* @_ZN6google8protobuf5Arena18CreateMaybeMessageIN18private_membership4rlwe23HashedBucketsParametersEJEEEPT_PS1_DpOT0_(%"class.google::protobuf::Arena"* %138) #14
  store %"class.private_membership::rlwe::HashedBucketsParameters"* %139, %"class.private_membership::rlwe::HashedBucketsParameters"** %15, align 8
  br label %140

140:                                              ; preds = %123, %137
  %141 = phi %"class.private_membership::rlwe::HashedBucketsParameters"* [ %139, %137 ], [ %124, %123 ]
  %142 = tail call i8* @_ZN6google8protobuf8internal12ParseContext12ParseMessageIN18private_membership4rlwe23HashedBucketsParametersEEEPKcPT_S8_(%"class.google::protobuf::internal::ParseContext"* %2, %"class.private_membership::rlwe::HashedBucketsParameters"* %141, i8* nonnull %61)
  %143 = icmp eq i8* %142, null
  br i1 %143, label %245, label %243

144:                                              ; preds = %63
  %145 = and i32 %60, 255
  %146 = icmp eq i32 %145, 26
  br i1 %146, label %147, label %221, !prof !2

147:                                              ; preds = %144
  %148 = load %"class.private_membership::rlwe::EncryptedBucketsParameters"*, %"class.private_membership::rlwe::EncryptedBucketsParameters"** %14, align 8
  %149 = icmp eq %"class.private_membership::rlwe::EncryptedBucketsParameters"* %148, null
  br i1 %149, label %150, label %164

150:                                              ; preds = %147
  %151 = load i64, i64* %13, align 8
  %152 = and i64 %151, 1
  %153 = icmp eq i64 %152, 0
  %154 = and i64 %151, -2
  br i1 %153, label %159, label %155, !prof !2

155:                                              ; preds = %150
  %156 = inttoptr i64 %154 to %"struct.google::protobuf::internal::InternalMetadata::ContainerBase"*
  %157 = getelementptr inbounds %"struct.google::protobuf::internal::InternalMetadata::ContainerBase", %"struct.google::protobuf::internal::InternalMetadata::ContainerBase"* %156, i64 0, i32 0
  %158 = load %"class.google::protobuf::Arena"*, %"class.google::protobuf::Arena"** %157, align 8
  br label %161

159:                                              ; preds = %150
  %160 = inttoptr i64 %154 to %"class.google::protobuf::Arena"*
  br label %161

161:                                              ; preds = %159, %155
  %162 = phi %"class.google::protobuf::Arena"* [ %158, %155 ], [ %160, %159 ]
  %163 = tail call %"class.private_membership::rlwe::EncryptedBucketsParameters"* @_ZN6google8protobuf5Arena18CreateMaybeMessageIN18private_membership4rlwe26EncryptedBucketsParametersEJEEEPT_PS1_DpOT0_(%"class.google::protobuf::Arena"* %162) #14
  store %"class.private_membership::rlwe::EncryptedBucketsParameters"* %163, %"class.private_membership::rlwe::EncryptedBucketsParameters"** %14, align 8
  br label %164

164:                                              ; preds = %147, %161
  %165 = phi %"class.private_membership::rlwe::EncryptedBucketsParameters"* [ %163, %161 ], [ %148, %147 ]
  %166 = tail call i8* @_ZN6google8protobuf8internal12ParseContext12ParseMessageIN18private_membership4rlwe26EncryptedBucketsParametersEEEPKcPT_S8_(%"class.google::protobuf::internal::ParseContext"* %2, %"class.private_membership::rlwe::EncryptedBucketsParameters"* %165, i8* nonnull %61)
  %167 = icmp eq i8* %166, null
  br i1 %167, label %245, label %243

168:                                              ; preds = %63
  %169 = and i32 %60, 255
  %170 = icmp eq i32 %169, 34
  br i1 %170, label %171, label %221, !prof !2

171:                                              ; preds = %168
  %172 = load %"class.private_membership::rlwe::RlweParameters"*, %"class.private_membership::rlwe::RlweParameters"** %11, align 8
  %173 = icmp eq %"class.private_membership::rlwe::RlweParameters"* %172, null
  br i1 %173, label %174, label %188

174:                                              ; preds = %171
  %175 = load i64, i64* %13, align 8
  %176 = and i64 %175, 1
  %177 = icmp eq i64 %176, 0
  %178 = and i64 %175, -2
  br i1 %177, label %183, label %179, !prof !2

179:                                              ; preds = %174
  %180 = inttoptr i64 %178 to %"struct.google::protobuf::internal::InternalMetadata::ContainerBase"*
  %181 = getelementptr inbounds %"struct.google::protobuf::internal::InternalMetadata::ContainerBase", %"struct.google::protobuf::internal::InternalMetadata::ContainerBase"* %180, i64 0, i32 0
  %182 = load %"class.google::protobuf::Arena"*, %"class.google::protobuf::Arena"** %181, align 8
  br label %185

183:                                              ; preds = %174
  %184 = inttoptr i64 %178 to %"class.google::protobuf::Arena"*
  br label %185

185:                                              ; preds = %183, %179
  %186 = phi %"class.google::protobuf::Arena"* [ %182, %179 ], [ %184, %183 ]
  %187 = tail call %"class.private_membership::rlwe::RlweParameters"* @_ZN6google8protobuf5Arena18CreateMaybeMessageIN18private_membership4rlwe14RlweParametersEJEEEPT_PS1_DpOT0_(%"class.google::protobuf::Arena"* %186) #14
  store %"class.private_membership::rlwe::RlweParameters"* %187, %"class.private_membership::rlwe::RlweParameters"** %11, align 8
  br label %188

188:                                              ; preds = %171, %185
  %189 = phi %"class.private_membership::rlwe::RlweParameters"* [ %187, %185 ], [ %172, %171 ]
  %190 = tail call i8* @_ZN6google8protobuf8internal12ParseContext12ParseMessageIN18private_membership4rlwe14RlweParametersEEEPKcPT_S8_(%"class.google::protobuf::internal::ParseContext"* %2, %"class.private_membership::rlwe::RlweParameters"* %189, i8* nonnull %61)
  %191 = icmp eq i8* %190, null
  br i1 %191, label %245, label %243

192:                                              ; preds = %63
  %193 = and i32 %60, 255
  %194 = icmp eq i32 %193, 40
  br i1 %194, label %195, label %221, !prof !2

195:                                              ; preds = %192
  %196 = load i8, i8* %61, align 1
  %197 = icmp slt i8 %196, 0
  br i1 %197, label %201, label %198

198:                                              ; preds = %195
  %199 = zext i8 %196 to i64
  %200 = getelementptr inbounds i8, i8* %61, i64 1
  br label %217

201:                                              ; preds = %195
  %202 = zext i8 %196 to i32
  %203 = getelementptr inbounds i8, i8* %61, i64 1
  %204 = load i8, i8* %203, align 1
  %205 = zext i8 %204 to i32
  %206 = shl nuw nsw i32 %205, 7
  %207 = add nsw i32 %202, -128
  %208 = add nuw nsw i32 %207, %206
  %209 = icmp slt i8 %204, 0
  br i1 %209, label %213, label %210

210:                                              ; preds = %201
  %211 = zext i32 %208 to i64
  %212 = getelementptr inbounds i8, i8* %61, i64 2
  br label %217

213:                                              ; preds = %201
  %214 = tail call { i8*, i64 } @_ZN6google8protobuf8internal17VarintParseSlow64EPKcj(i8* nonnull %61, i32 %208) #14
  %215 = extractvalue { i8*, i64 } %214, 0
  %216 = extractvalue { i8*, i64 } %214, 1
  br label %217

217:                                              ; preds = %198, %210, %213
  %218 = phi i64 [ %216, %213 ], [ %211, %210 ], [ %199, %198 ]
  %219 = phi i8* [ %215, %213 ], [ %212, %210 ], [ %200, %198 ]
  store i64 %218, i64* %10, align 8
  %220 = icmp eq i8* %219, null
  br i1 %220, label %245, label %243

221:                                              ; preds = %63, %192, %168, %144, %120, %65
  %222 = and i32 %60, 7
  %223 = icmp eq i32 %222, 4
  %224 = icmp eq i32 %60, 0
  %225 = or i1 %224, %223
  br i1 %225, label %226, label %229

226:                                              ; preds = %221
  %227 = add i32 %60, -1
  %228 = getelementptr inbounds %"class.google::protobuf::internal::ParseContext", %"class.google::protobuf::internal::ParseContext"* %2, i64 0, i32 0, i32 8
  store i32 %227, i32* %228, align 8
  br label %245

229:                                              ; preds = %221
  %230 = load i64, i64* %13, align 8
  %231 = and i64 %230, 1
  %232 = icmp eq i64 %231, 0
  br i1 %232, label %237, label %233, !prof !4

233:                                              ; preds = %229
  %234 = and i64 %230, -2
  %235 = inttoptr i64 %234 to %"struct.google::protobuf::internal::InternalMetadata::Container"*
  %236 = getelementptr inbounds %"struct.google::protobuf::internal::InternalMetadata::Container", %"struct.google::protobuf::internal::InternalMetadata::Container"* %235, i64 0, i32 1
  br label %239

237:                                              ; preds = %229
  %238 = tail call %"class.std::__1::basic_string"* @_ZN6google8protobuf8internal16InternalMetadata27mutable_unknown_fields_slowINSt3__112basic_stringIcNS4_11char_traitsIcEENS4_9allocatorIcEEEEEEPT_v(%"class.google::protobuf::internal::InternalMetadata"* %12) #14
  br label %239

239:                                              ; preds = %233, %237
  %240 = phi %"class.std::__1::basic_string"* [ %236, %233 ], [ %238, %237 ]
  %241 = tail call i8* @_ZN6google8protobuf8internal17UnknownFieldParseEjPNSt3__112basic_stringIcNS2_11char_traitsIcEENS2_9allocatorIcEEEEPKcPNS1_12ParseContextE(i32 %60, %"class.std::__1::basic_string"* %240, i8* nonnull %61, %"class.google::protobuf::internal::ParseContext"* %2) #14
  %242 = icmp eq i8* %241, null
  br i1 %242, label %245, label %243

243:                                              ; preds = %117, %114, %239, %217, %188, %164, %140
  %244 = phi i8* [ %241, %239 ], [ %219, %217 ], [ %190, %188 ], [ %166, %164 ], [ %142, %140 ], [ %112, %114 ], [ %112, %117 ]
  br label %22

245:                                              ; preds = %34, %239, %217, %188, %164, %140, %27, %59, %110, %226
  %246 = phi i8* [ %61, %226 ], [ null, %110 ], [ null, %239 ], [ null, %217 ], [ null, %188 ], [ null, %164 ], [ null, %140 ], [ %23, %27 ], [ null, %59 ], [ %36, %34 ]
  ret i8* %246
}

; Function Attrs: nounwind ssp uwtable
define linkonce_odr hidden i8* @_ZN6google8protobuf8internal12ParseContext12ParseMessageIN18private_membership17DoublyEncryptedIdEEEPKcPT_S7_(%"class.google::protobuf::internal::ParseContext"*, %"class.private_membership::DoublyEncryptedId"*, i8*) local_unnamed_addr #0 comdat align 2 {
  %4 = load i8, i8* %2, align 1
  %5 = zext i8 %4 to i32
  %6 = icmp sgt i8 %4, -1
  br i1 %6, label %7, label %9

7:                                                ; preds = %3
  %8 = getelementptr inbounds i8, i8* %2, i64 1
  br label %13

9:                                                ; preds = %3
  %10 = tail call { i8*, i32 } @_ZN6google8protobuf8internal16ReadSizeFallbackEPKcj(i8* %2, i32 %5) #14
  %11 = extractvalue { i8*, i32 } %10, 0
  %12 = extractvalue { i8*, i32 } %10, 1
  br label %13

13:                                               ; preds = %7, %9
  %14 = phi i8* [ %11, %9 ], [ %8, %7 ]
  %15 = phi i32 [ %12, %9 ], [ %5, %7 ]
  %16 = icmp eq i8* %14, null
  br i1 %16, label %55, label %17

17:                                               ; preds = %13
  %18 = getelementptr inbounds %"class.google::protobuf::internal::ParseContext", %"class.google::protobuf::internal::ParseContext"* %0, i64 0, i32 0, i32 1
  %19 = bitcast i8** %18 to i64*
  %20 = load i64, i64* %19, align 8
  %21 = ptrtoint i8* %14 to i64
  %22 = sub i64 %21, %20
  %23 = trunc i64 %22 to i32
  %24 = add nsw i32 %15, %23
  %25 = inttoptr i64 %20 to i8*
  %26 = icmp slt i32 %24, 0
  %27 = select i1 %26, i32 %24, i32 0
  %28 = sext i32 %27 to i64
  %29 = getelementptr inbounds i8, i8* %25, i64 %28
  %30 = getelementptr inbounds %"class.google::protobuf::internal::ParseContext", %"class.google::protobuf::internal::ParseContext"* %0, i64 0, i32 0, i32 0
  store i8* %29, i8** %30, align 8
  %31 = getelementptr inbounds %"class.google::protobuf::internal::ParseContext", %"class.google::protobuf::internal::ParseContext"* %0, i64 0, i32 0, i32 4
  %32 = load i32, i32* %31, align 4
  store i32 %24, i32* %31, align 4
  %33 = sub nsw i32 %32, %24
  %34 = getelementptr inbounds %"class.google::protobuf::internal::ParseContext", %"class.google::protobuf::internal::ParseContext"* %0, i64 0, i32 1
  %35 = load i32, i32* %34, align 8
  %36 = add nsw i32 %35, -1
  store i32 %36, i32* %34, align 8
  %37 = icmp slt i32 %35, 1
  br i1 %37, label %55, label %38

38:                                               ; preds = %17
  %39 = tail call i8* @_ZN18private_membership17DoublyEncryptedId14_InternalParseEPKcPN6google8protobuf8internal12ParseContextE(%"class.private_membership::DoublyEncryptedId"* %1, i8* nonnull %14, %"class.google::protobuf::internal::ParseContext"* %0) #14
  %40 = icmp eq i8* %39, null
  br i1 %40, label %55, label %41, !prof !4

41:                                               ; preds = %38
  %42 = load i32, i32* %34, align 8
  %43 = add nsw i32 %42, 1
  store i32 %43, i32* %34, align 8
  %44 = getelementptr inbounds %"class.google::protobuf::internal::ParseContext", %"class.google::protobuf::internal::ParseContext"* %0, i64 0, i32 0, i32 8
  %45 = load i32, i32* %44, align 8
  %46 = icmp eq i32 %45, 0
  br i1 %46, label %47, label %55, !prof !2

47:                                               ; preds = %41
  %48 = load i32, i32* %31, align 4
  %49 = add nsw i32 %48, %33
  store i32 %49, i32* %31, align 4
  %50 = load i8*, i8** %18, align 8
  %51 = icmp slt i32 %49, 0
  %52 = select i1 %51, i32 %49, i32 0
  %53 = sext i32 %52 to i64
  %54 = getelementptr inbounds i8, i8* %50, i64 %53
  store i8* %54, i8** %30, align 8
  br label %55

55:                                               ; preds = %13, %38, %17, %41, %47
  %56 = phi i8* [ %39, %47 ], [ null, %41 ], [ null, %17 ], [ null, %38 ], [ null, %13 ]
  ret i8* %56
}

; Function Attrs: nounwind ssp uwtable
define linkonce_odr hidden i8* @_ZN6google8protobuf8internal12ParseContext12ParseMessageIN18private_membership4rlwe23HashedBucketsParametersEEEPKcPT_S8_(%"class.google::protobuf::internal::ParseContext"*, %"class.private_membership::rlwe::HashedBucketsParameters"*, i8*) local_unnamed_addr #0 comdat align 2 {
  %4 = load i8, i8* %2, align 1
  %5 = zext i8 %4 to i32
  %6 = icmp sgt i8 %4, -1
  br i1 %6, label %7, label %9

7:                                                ; preds = %3
  %8 = getelementptr inbounds i8, i8* %2, i64 1
  br label %13

9:                                                ; preds = %3
  %10 = tail call { i8*, i32 } @_ZN6google8protobuf8internal16ReadSizeFallbackEPKcj(i8* %2, i32 %5) #14
  %11 = extractvalue { i8*, i32 } %10, 0
  %12 = extractvalue { i8*, i32 } %10, 1
  br label %13

13:                                               ; preds = %7, %9
  %14 = phi i8* [ %11, %9 ], [ %8, %7 ]
  %15 = phi i32 [ %12, %9 ], [ %5, %7 ]
  %16 = icmp eq i8* %14, null
  br i1 %16, label %55, label %17

17:                                               ; preds = %13
  %18 = getelementptr inbounds %"class.google::protobuf::internal::ParseContext", %"class.google::protobuf::internal::ParseContext"* %0, i64 0, i32 0, i32 1
  %19 = bitcast i8** %18 to i64*
  %20 = load i64, i64* %19, align 8
  %21 = ptrtoint i8* %14 to i64
  %22 = sub i64 %21, %20
  %23 = trunc i64 %22 to i32
  %24 = add nsw i32 %15, %23
  %25 = inttoptr i64 %20 to i8*
  %26 = icmp slt i32 %24, 0
  %27 = select i1 %26, i32 %24, i32 0
  %28 = sext i32 %27 to i64
  %29 = getelementptr inbounds i8, i8* %25, i64 %28
  %30 = getelementptr inbounds %"class.google::protobuf::internal::ParseContext", %"class.google::protobuf::internal::ParseContext"* %0, i64 0, i32 0, i32 0
  store i8* %29, i8** %30, align 8
  %31 = getelementptr inbounds %"class.google::protobuf::internal::ParseContext", %"class.google::protobuf::internal::ParseContext"* %0, i64 0, i32 0, i32 4
  %32 = load i32, i32* %31, align 4
  store i32 %24, i32* %31, align 4
  %33 = sub nsw i32 %32, %24
  %34 = getelementptr inbounds %"class.google::protobuf::internal::ParseContext", %"class.google::protobuf::internal::ParseContext"* %0, i64 0, i32 1
  %35 = load i32, i32* %34, align 8
  %36 = add nsw i32 %35, -1
  store i32 %36, i32* %34, align 8
  %37 = icmp slt i32 %35, 1
  br i1 %37, label %55, label %38

38:                                               ; preds = %17
  %39 = tail call i8* @_ZN18private_membership4rlwe23HashedBucketsParameters14_InternalParseEPKcPN6google8protobuf8internal12ParseContextE(%"class.private_membership::rlwe::HashedBucketsParameters"* %1, i8* nonnull %14, %"class.google::protobuf::internal::ParseContext"* %0)
  %40 = icmp eq i8* %39, null
  br i1 %40, label %55, label %41, !prof !4

41:                                               ; preds = %38
  %42 = load i32, i32* %34, align 8
  %43 = add nsw i32 %42, 1
  store i32 %43, i32* %34, align 8
  %44 = getelementptr inbounds %"class.google::protobuf::internal::ParseContext", %"class.google::protobuf::internal::ParseContext"* %0, i64 0, i32 0, i32 8
  %45 = load i32, i32* %44, align 8
  %46 = icmp eq i32 %45, 0
  br i1 %46, label %47, label %55, !prof !2

47:                                               ; preds = %41
  %48 = load i32, i32* %31, align 4
  %49 = add nsw i32 %48, %33
  store i32 %49, i32* %31, align 4
  %50 = load i8*, i8** %18, align 8
  %51 = icmp slt i32 %49, 0
  %52 = select i1 %51, i32 %49, i32 0
  %53 = sext i32 %52 to i64
  %54 = getelementptr inbounds i8, i8* %50, i64 %53
  store i8* %54, i8** %30, align 8
  br label %55

55:                                               ; preds = %13, %38, %17, %41, %47
  %56 = phi i8* [ %39, %47 ], [ null, %41 ], [ null, %17 ], [ null, %38 ], [ null, %13 ]
  ret i8* %56
}

; Function Attrs: nounwind ssp uwtable
define linkonce_odr hidden i8* @_ZN6google8protobuf8internal12ParseContext12ParseMessageIN18private_membership4rlwe26EncryptedBucketsParametersEEEPKcPT_S8_(%"class.google::protobuf::internal::ParseContext"*, %"class.private_membership::rlwe::EncryptedBucketsParameters"*, i8*) local_unnamed_addr #0 comdat align 2 {
  %4 = load i8, i8* %2, align 1
  %5 = zext i8 %4 to i32
  %6 = icmp sgt i8 %4, -1
  br i1 %6, label %7, label %9

7:                                                ; preds = %3
  %8 = getelementptr inbounds i8, i8* %2, i64 1
  br label %13

9:                                                ; preds = %3
  %10 = tail call { i8*, i32 } @_ZN6google8protobuf8internal16ReadSizeFallbackEPKcj(i8* %2, i32 %5) #14
  %11 = extractvalue { i8*, i32 } %10, 0
  %12 = extractvalue { i8*, i32 } %10, 1
  br label %13

13:                                               ; preds = %7, %9
  %14 = phi i8* [ %11, %9 ], [ %8, %7 ]
  %15 = phi i32 [ %12, %9 ], [ %5, %7 ]
  %16 = icmp eq i8* %14, null
  br i1 %16, label %55, label %17

17:                                               ; preds = %13
  %18 = getelementptr inbounds %"class.google::protobuf::internal::ParseContext", %"class.google::protobuf::internal::ParseContext"* %0, i64 0, i32 0, i32 1
  %19 = bitcast i8** %18 to i64*
  %20 = load i64, i64* %19, align 8
  %21 = ptrtoint i8* %14 to i64
  %22 = sub i64 %21, %20
  %23 = trunc i64 %22 to i32
  %24 = add nsw i32 %15, %23
  %25 = inttoptr i64 %20 to i8*
  %26 = icmp slt i32 %24, 0
  %27 = select i1 %26, i32 %24, i32 0
  %28 = sext i32 %27 to i64
  %29 = getelementptr inbounds i8, i8* %25, i64 %28
  %30 = getelementptr inbounds %"class.google::protobuf::internal::ParseContext", %"class.google::protobuf::internal::ParseContext"* %0, i64 0, i32 0, i32 0
  store i8* %29, i8** %30, align 8
  %31 = getelementptr inbounds %"class.google::protobuf::internal::ParseContext", %"class.google::protobuf::internal::ParseContext"* %0, i64 0, i32 0, i32 4
  %32 = load i32, i32* %31, align 4
  store i32 %24, i32* %31, align 4
  %33 = sub nsw i32 %32, %24
  %34 = getelementptr inbounds %"class.google::protobuf::internal::ParseContext", %"class.google::protobuf::internal::ParseContext"* %0, i64 0, i32 1
  %35 = load i32, i32* %34, align 8
  %36 = add nsw i32 %35, -1
  store i32 %36, i32* %34, align 8
  %37 = icmp slt i32 %35, 1
  br i1 %37, label %55, label %38

38:                                               ; preds = %17
  %39 = tail call i8* @_ZN18private_membership4rlwe26EncryptedBucketsParameters14_InternalParseEPKcPN6google8protobuf8internal12ParseContextE(%"class.private_membership::rlwe::EncryptedBucketsParameters"* %1, i8* nonnull %14, %"class.google::protobuf::internal::ParseContext"* %0)
  %40 = icmp eq i8* %39, null
  br i1 %40, label %55, label %41, !prof !4

41:                                               ; preds = %38
  %42 = load i32, i32* %34, align 8
  %43 = add nsw i32 %42, 1
  store i32 %43, i32* %34, align 8
  %44 = getelementptr inbounds %"class.google::protobuf::internal::ParseContext", %"class.google::protobuf::internal::ParseContext"* %0, i64 0, i32 0, i32 8
  %45 = load i32, i32* %44, align 8
  %46 = icmp eq i32 %45, 0
  br i1 %46, label %47, label %55, !prof !2

47:                                               ; preds = %41
  %48 = load i32, i32* %31, align 4
  %49 = add nsw i32 %48, %33
  store i32 %49, i32* %31, align 4
  %50 = load i8*, i8** %18, align 8
  %51 = icmp slt i32 %49, 0
  %52 = select i1 %51, i32 %49, i32 0
  %53 = sext i32 %52 to i64
  %54 = getelementptr inbounds i8, i8* %50, i64 %53
  store i8* %54, i8** %30, align 8
  br label %55

55:                                               ; preds = %13, %38, %17, %41, %47
  %56 = phi i8* [ %39, %47 ], [ null, %41 ], [ null, %17 ], [ null, %38 ], [ null, %13 ]
  ret i8* %56
}

; Function Attrs: nounwind ssp uwtable
define linkonce_odr hidden i8* @_ZN6google8protobuf8internal12ParseContext12ParseMessageIN18private_membership4rlwe14RlweParametersEEEPKcPT_S8_(%"class.google::protobuf::internal::ParseContext"*, %"class.private_membership::rlwe::RlweParameters"*, i8*) local_unnamed_addr #0 comdat align 2 {
  %4 = load i8, i8* %2, align 1
  %5 = zext i8 %4 to i32
  %6 = icmp sgt i8 %4, -1
  br i1 %6, label %7, label %9

7:                                                ; preds = %3
  %8 = getelementptr inbounds i8, i8* %2, i64 1
  br label %13

9:                                                ; preds = %3
  %10 = tail call { i8*, i32 } @_ZN6google8protobuf8internal16ReadSizeFallbackEPKcj(i8* %2, i32 %5) #14
  %11 = extractvalue { i8*, i32 } %10, 0
  %12 = extractvalue { i8*, i32 } %10, 1
  br label %13

13:                                               ; preds = %7, %9
  %14 = phi i8* [ %11, %9 ], [ %8, %7 ]
  %15 = phi i32 [ %12, %9 ], [ %5, %7 ]
  %16 = icmp eq i8* %14, null
  br i1 %16, label %55, label %17

17:                                               ; preds = %13
  %18 = getelementptr inbounds %"class.google::protobuf::internal::ParseContext", %"class.google::protobuf::internal::ParseContext"* %0, i64 0, i32 0, i32 1
  %19 = bitcast i8** %18 to i64*
  %20 = load i64, i64* %19, align 8
  %21 = ptrtoint i8* %14 to i64
  %22 = sub i64 %21, %20
  %23 = trunc i64 %22 to i32
  %24 = add nsw i32 %15, %23
  %25 = inttoptr i64 %20 to i8*
  %26 = icmp slt i32 %24, 0
  %27 = select i1 %26, i32 %24, i32 0
  %28 = sext i32 %27 to i64
  %29 = getelementptr inbounds i8, i8* %25, i64 %28
  %30 = getelementptr inbounds %"class.google::protobuf::internal::ParseContext", %"class.google::protobuf::internal::ParseContext"* %0, i64 0, i32 0, i32 0
  store i8* %29, i8** %30, align 8
  %31 = getelementptr inbounds %"class.google::protobuf::internal::ParseContext", %"class.google::protobuf::internal::ParseContext"* %0, i64 0, i32 0, i32 4
  %32 = load i32, i32* %31, align 4
  store i32 %24, i32* %31, align 4
  %33 = sub nsw i32 %32, %24
  %34 = getelementptr inbounds %"class.google::protobuf::internal::ParseContext", %"class.google::protobuf::internal::ParseContext"* %0, i64 0, i32 1
  %35 = load i32, i32* %34, align 8
  %36 = add nsw i32 %35, -1
  store i32 %36, i32* %34, align 8
  %37 = icmp slt i32 %35, 1
  br i1 %37, label %55, label %38

38:                                               ; preds = %17
  %39 = tail call i8* @_ZN18private_membership4rlwe14RlweParameters14_InternalParseEPKcPN6google8protobuf8internal12ParseContextE(%"class.private_membership::rlwe::RlweParameters"* %1, i8* nonnull %14, %"class.google::protobuf::internal::ParseContext"* %0)
  %40 = icmp eq i8* %39, null
  br i1 %40, label %55, label %41, !prof !4

41:                                               ; preds = %38
  %42 = load i32, i32* %34, align 8
  %43 = add nsw i32 %42, 1
  store i32 %43, i32* %34, align 8
  %44 = getelementptr inbounds %"class.google::protobuf::internal::ParseContext", %"class.google::protobuf::internal::ParseContext"* %0, i64 0, i32 0, i32 8
  %45 = load i32, i32* %44, align 8
  %46 = icmp eq i32 %45, 0
  br i1 %46, label %47, label %55, !prof !2

47:                                               ; preds = %41
  %48 = load i32, i32* %31, align 4
  %49 = add nsw i32 %48, %33
  store i32 %49, i32* %31, align 4
  %50 = load i8*, i8** %18, align 8
  %51 = icmp slt i32 %49, 0
  %52 = select i1 %51, i32 %49, i32 0
  %53 = sext i32 %52 to i64
  %54 = getelementptr inbounds i8, i8* %50, i64 %53
  store i8* %54, i8** %30, align 8
  br label %55

55:                                               ; preds = %13, %38, %17, %41, %47
  %56 = phi i8* [ %39, %47 ], [ null, %41 ], [ null, %17 ], [ null, %38 ], [ null, %13 ]
  ret i8* %56
}

; Function Attrs: nounwind ssp uwtable
define hidden i8* @_ZNK18private_membership4rlwe33PrivateMembershipRlweOprfResponse18_InternalSerializeEPhPN6google8protobuf2io19EpsCopyOutputStreamE(%"class.private_membership::rlwe::PrivateMembershipRlweOprfResponse"* readonly, i8*, %"class.google::protobuf::io::EpsCopyOutputStream"*) unnamed_addr #0 align 2 {
  %4 = getelementptr inbounds %"class.private_membership::rlwe::PrivateMembershipRlweOprfResponse", %"class.private_membership::rlwe::PrivateMembershipRlweOprfResponse"* %0, i64 0, i32 1, i32 0, i32 1
  %5 = load i32, i32* %4, align 8
  %6 = icmp eq i32 %5, 0
  br i1 %6, label %10, label %7

7:                                                ; preds = %3
  %8 = getelementptr inbounds %"class.google::protobuf::io::EpsCopyOutputStream", %"class.google::protobuf::io::EpsCopyOutputStream"* %2, i64 0, i32 0
  %9 = getelementptr inbounds %"class.private_membership::rlwe::PrivateMembershipRlweOprfResponse", %"class.private_membership::rlwe::PrivateMembershipRlweOprfResponse"* %0, i64 0, i32 1, i32 0, i32 3
  br label %17

10:                                               ; preds = %59, %3
  %11 = phi i8* [ %1, %3 ], [ %61, %59 ]
  %12 = icmp eq %"class.private_membership::rlwe::PrivateMembershipRlweOprfResponse"* %0, bitcast (%"class.private_membership::rlwe::PrivateMembershipRlweOprfResponseDefaultTypeInternal"* @_ZN18private_membership4rlwe52_PrivateMembershipRlweOprfResponse_default_instance_E to %"class.private_membership::rlwe::PrivateMembershipRlweOprfResponse"*)
  br i1 %12, label %199, label %13

13:                                               ; preds = %10
  %14 = getelementptr inbounds %"class.private_membership::rlwe::PrivateMembershipRlweOprfResponse", %"class.private_membership::rlwe::PrivateMembershipRlweOprfResponse"* %0, i64 0, i32 2
  %15 = load %"class.private_membership::rlwe::HashedBucketsParameters"*, %"class.private_membership::rlwe::HashedBucketsParameters"** %14, align 8
  %16 = icmp eq %"class.private_membership::rlwe::HashedBucketsParameters"* %15, null
  br i1 %16, label %106, label %64

17:                                               ; preds = %59, %7
  %18 = phi i32 [ 0, %7 ], [ %62, %59 ]
  %19 = phi i8* [ %1, %7 ], [ %61, %59 ]
  %20 = load i8*, i8** %8, align 8
  %21 = icmp ugt i8* %20, %19
  br i1 %21, label %24, label %22, !prof !2

22:                                               ; preds = %17
  %23 = tail call i8* @_ZN6google8protobuf2io19EpsCopyOutputStream19EnsureSpaceFallbackEPh(%"class.google::protobuf::io::EpsCopyOutputStream"* %2, i8* %19) #14
  br label %24

24:                                               ; preds = %17, %22
  %25 = phi i8* [ %23, %22 ], [ %19, %17 ]
  %26 = load %"struct.google::protobuf::internal::RepeatedPtrFieldBase::Rep"*, %"struct.google::protobuf::internal::RepeatedPtrFieldBase::Rep"** %9, align 8
  %27 = sext i32 %18 to i64
  %28 = getelementptr inbounds %"struct.google::protobuf::internal::RepeatedPtrFieldBase::Rep", %"struct.google::protobuf::internal::RepeatedPtrFieldBase::Rep"* %26, i64 0, i32 1, i64 %27
  %29 = bitcast i8** %28 to %"class.private_membership::DoublyEncryptedId"**
  %30 = load %"class.private_membership::DoublyEncryptedId"*, %"class.private_membership::DoublyEncryptedId"** %29, align 8
  store i8 10, i8* %25, align 1
  %31 = getelementptr inbounds i8, i8* %25, i64 1
  %32 = getelementptr inbounds %"class.private_membership::DoublyEncryptedId", %"class.private_membership::DoublyEncryptedId"* %30, i64 0, i32 3, i32 0, i32 0, i32 0, i32 0, i32 0, i32 0
  %33 = load atomic i32, i32* %32 monotonic, align 4
  %34 = icmp ult i32 %33, 128
  %35 = trunc i32 %33 to i8
  br i1 %34, label %36, label %38

36:                                               ; preds = %24
  store i8 %35, i8* %31, align 1
  %37 = getelementptr inbounds i8, i8* %25, i64 2
  br label %59

38:                                               ; preds = %24
  %39 = or i8 %35, -128
  store i8 %39, i8* %31, align 1
  %40 = lshr i32 %33, 7
  %41 = icmp ult i32 %33, 16384
  br i1 %41, label %42, label %46

42:                                               ; preds = %38
  %43 = trunc i32 %40 to i8
  %44 = getelementptr inbounds i8, i8* %25, i64 2
  store i8 %43, i8* %44, align 1
  %45 = getelementptr inbounds i8, i8* %25, i64 3
  br label %59

46:                                               ; preds = %38
  %47 = getelementptr inbounds i8, i8* %25, i64 2
  br label %48

48:                                               ; preds = %48, %46
  %49 = phi i32 [ %40, %46 ], [ %53, %48 ]
  %50 = phi i8* [ %47, %46 ], [ %54, %48 ]
  %51 = trunc i32 %49 to i8
  %52 = or i8 %51, -128
  store i8 %52, i8* %50, align 1
  %53 = lshr i32 %49, 7
  %54 = getelementptr inbounds i8, i8* %50, i64 1
  %55 = icmp ugt i32 %49, 16383
  br i1 %55, label %48, label %56, !prof !4

56:                                               ; preds = %48
  %57 = trunc i32 %53 to i8
  %58 = getelementptr inbounds i8, i8* %50, i64 2
  store i8 %57, i8* %54, align 1
  br label %59

59:                                               ; preds = %36, %42, %56
  %60 = phi i8* [ %37, %36 ], [ %45, %42 ], [ %58, %56 ]
  %61 = tail call i8* @_ZNK18private_membership17DoublyEncryptedId18_InternalSerializeEPhPN6google8protobuf2io19EpsCopyOutputStreamE(%"class.private_membership::DoublyEncryptedId"* %30, i8* %60, %"class.google::protobuf::io::EpsCopyOutputStream"* %2) #14
  %62 = add nuw i32 %18, 1
  %63 = icmp eq i32 %62, %5
  br i1 %63, label %10, label %17

64:                                               ; preds = %13
  %65 = getelementptr inbounds %"class.google::protobuf::io::EpsCopyOutputStream", %"class.google::protobuf::io::EpsCopyOutputStream"* %2, i64 0, i32 0
  %66 = load i8*, i8** %65, align 8
  %67 = icmp ugt i8* %66, %11
  br i1 %67, label %71, label %68, !prof !2

68:                                               ; preds = %64
  %69 = tail call i8* @_ZN6google8protobuf2io19EpsCopyOutputStream19EnsureSpaceFallbackEPh(%"class.google::protobuf::io::EpsCopyOutputStream"* %2, i8* %11) #14
  %70 = load %"class.private_membership::rlwe::HashedBucketsParameters"*, %"class.private_membership::rlwe::HashedBucketsParameters"** %14, align 8
  br label %71

71:                                               ; preds = %64, %68
  %72 = phi %"class.private_membership::rlwe::HashedBucketsParameters"* [ %70, %68 ], [ %15, %64 ]
  %73 = phi i8* [ %69, %68 ], [ %11, %64 ]
  store i8 18, i8* %73, align 1
  %74 = getelementptr inbounds i8, i8* %73, i64 1
  %75 = getelementptr inbounds %"class.private_membership::rlwe::HashedBucketsParameters", %"class.private_membership::rlwe::HashedBucketsParameters"* %72, i64 0, i32 3, i32 0, i32 0, i32 0, i32 0, i32 0, i32 0
  %76 = load atomic i32, i32* %75 monotonic, align 4
  %77 = icmp ult i32 %76, 128
  %78 = trunc i32 %76 to i8
  br i1 %77, label %79, label %80

79:                                               ; preds = %71
  store i8 %78, i8* %74, align 1
  br label %97

80:                                               ; preds = %71
  %81 = or i8 %78, -128
  store i8 %81, i8* %74, align 1
  %82 = lshr i32 %76, 7
  %83 = icmp ult i32 %76, 16384
  br i1 %83, label %84, label %87

84:                                               ; preds = %80
  %85 = trunc i32 %82 to i8
  %86 = getelementptr inbounds i8, i8* %73, i64 2
  store i8 %85, i8* %86, align 1
  br label %97

87:                                               ; preds = %80
  %88 = getelementptr inbounds i8, i8* %73, i64 2
  br label %89

89:                                               ; preds = %89, %87
  %90 = phi i32 [ %82, %87 ], [ %94, %89 ]
  %91 = phi i8* [ %88, %87 ], [ %95, %89 ]
  %92 = trunc i32 %90 to i8
  %93 = or i8 %92, -128
  store i8 %93, i8* %91, align 1
  %94 = lshr i32 %90, 7
  %95 = getelementptr inbounds i8, i8* %91, i64 1
  %96 = icmp ugt i32 %90, 16383
  br i1 %96, label %89, label %100, !prof !4

97:                                               ; preds = %84, %79
  %98 = phi i64 [ 3, %84 ], [ 2, %79 ]
  %99 = getelementptr inbounds i8, i8* %73, i64 %98
  br label %103

100:                                              ; preds = %89
  %101 = trunc i32 %94 to i8
  %102 = getelementptr inbounds i8, i8* %91, i64 2
  store i8 %101, i8* %95, align 1
  br label %103

103:                                              ; preds = %97, %100
  %104 = phi i8* [ %102, %100 ], [ %99, %97 ]
  %105 = tail call i8* @_ZNK18private_membership4rlwe23HashedBucketsParameters18_InternalSerializeEPhPN6google8protobuf2io19EpsCopyOutputStreamE(%"class.private_membership::rlwe::HashedBucketsParameters"* %72, i8* %104, %"class.google::protobuf::io::EpsCopyOutputStream"* %2) #14
  br label %106

106:                                              ; preds = %103, %13
  %107 = phi i8* [ %11, %13 ], [ %105, %103 ]
  %108 = getelementptr inbounds %"class.private_membership::rlwe::PrivateMembershipRlweOprfResponse", %"class.private_membership::rlwe::PrivateMembershipRlweOprfResponse"* %0, i64 0, i32 3
  %109 = load %"class.private_membership::rlwe::EncryptedBucketsParameters"*, %"class.private_membership::rlwe::EncryptedBucketsParameters"** %108, align 8
  %110 = icmp eq %"class.private_membership::rlwe::EncryptedBucketsParameters"* %109, null
  br i1 %110, label %153, label %111

111:                                              ; preds = %106
  %112 = getelementptr inbounds %"class.google::protobuf::io::EpsCopyOutputStream", %"class.google::protobuf::io::EpsCopyOutputStream"* %2, i64 0, i32 0
  %113 = load i8*, i8** %112, align 8
  %114 = icmp ugt i8* %113, %107
  br i1 %114, label %118, label %115, !prof !2

115:                                              ; preds = %111
  %116 = tail call i8* @_ZN6google8protobuf2io19EpsCopyOutputStream19EnsureSpaceFallbackEPh(%"class.google::protobuf::io::EpsCopyOutputStream"* %2, i8* %107) #14
  %117 = load %"class.private_membership::rlwe::EncryptedBucketsParameters"*, %"class.private_membership::rlwe::EncryptedBucketsParameters"** %108, align 8
  br label %118

118:                                              ; preds = %111, %115
  %119 = phi %"class.private_membership::rlwe::EncryptedBucketsParameters"* [ %117, %115 ], [ %109, %111 ]
  %120 = phi i8* [ %116, %115 ], [ %107, %111 ]
  store i8 26, i8* %120, align 1
  %121 = getelementptr inbounds i8, i8* %120, i64 1
  %122 = getelementptr inbounds %"class.private_membership::rlwe::EncryptedBucketsParameters", %"class.private_membership::rlwe::EncryptedBucketsParameters"* %119, i64 0, i32 3, i32 0, i32 0, i32 0, i32 0, i32 0, i32 0
  %123 = load atomic i32, i32* %122 monotonic, align 4
  %124 = icmp ult i32 %123, 128
  %125 = trunc i32 %123 to i8
  br i1 %124, label %126, label %127

126:                                              ; preds = %118
  store i8 %125, i8* %121, align 1
  br label %144

127:                                              ; preds = %118
  %128 = or i8 %125, -128
  store i8 %128, i8* %121, align 1
  %129 = lshr i32 %123, 7
  %130 = icmp ult i32 %123, 16384
  br i1 %130, label %131, label %134

131:                                              ; preds = %127
  %132 = trunc i32 %129 to i8
  %133 = getelementptr inbounds i8, i8* %120, i64 2
  store i8 %132, i8* %133, align 1
  br label %144

134:                                              ; preds = %127
  %135 = getelementptr inbounds i8, i8* %120, i64 2
  br label %136

136:                                              ; preds = %136, %134
  %137 = phi i32 [ %129, %134 ], [ %141, %136 ]
  %138 = phi i8* [ %135, %134 ], [ %142, %136 ]
  %139 = trunc i32 %137 to i8
  %140 = or i8 %139, -128
  store i8 %140, i8* %138, align 1
  %141 = lshr i32 %137, 7
  %142 = getelementptr inbounds i8, i8* %138, i64 1
  %143 = icmp ugt i32 %137, 16383
  br i1 %143, label %136, label %147, !prof !4

144:                                              ; preds = %131, %126
  %145 = phi i64 [ 3, %131 ], [ 2, %126 ]
  %146 = getelementptr inbounds i8, i8* %120, i64 %145
  br label %150

147:                                              ; preds = %136
  %148 = trunc i32 %141 to i8
  %149 = getelementptr inbounds i8, i8* %138, i64 2
  store i8 %148, i8* %142, align 1
  br label %150

150:                                              ; preds = %144, %147
  %151 = phi i8* [ %149, %147 ], [ %146, %144 ]
  %152 = tail call i8* @_ZNK18private_membership4rlwe26EncryptedBucketsParameters18_InternalSerializeEPhPN6google8protobuf2io19EpsCopyOutputStreamE(%"class.private_membership::rlwe::EncryptedBucketsParameters"* %119, i8* %151, %"class.google::protobuf::io::EpsCopyOutputStream"* %2) #14
  br label %153

153:                                              ; preds = %150, %106
  %154 = phi i8* [ %107, %106 ], [ %152, %150 ]
  %155 = getelementptr inbounds %"class.private_membership::rlwe::PrivateMembershipRlweOprfResponse", %"class.private_membership::rlwe::PrivateMembershipRlweOprfResponse"* %0, i64 0, i32 4
  %156 = load %"class.private_membership::rlwe::RlweParameters"*, %"class.private_membership::rlwe::RlweParameters"** %155, align 8
  %157 = icmp eq %"class.private_membership::rlwe::RlweParameters"* %156, null
  br i1 %157, label %199, label %158

158:                                              ; preds = %153
  %159 = getelementptr inbounds %"class.google::protobuf::io::EpsCopyOutputStream", %"class.google::protobuf::io::EpsCopyOutputStream"* %2, i64 0, i32 0
  %160 = load i8*, i8** %159, align 8
  %161 = icmp ugt i8* %160, %154
  br i1 %161, label %165, label %162, !prof !2

162:                                              ; preds = %158
  %163 = tail call i8* @_ZN6google8protobuf2io19EpsCopyOutputStream19EnsureSpaceFallbackEPh(%"class.google::protobuf::io::EpsCopyOutputStream"* %2, i8* %154) #14
  %164 = load %"class.private_membership::rlwe::RlweParameters"*, %"class.private_membership::rlwe::RlweParameters"** %155, align 8
  br label %165

165:                                              ; preds = %158, %162
  %166 = phi %"class.private_membership::rlwe::RlweParameters"* [ %164, %162 ], [ %156, %158 ]
  %167 = phi i8* [ %163, %162 ], [ %154, %158 ]
  store i8 34, i8* %167, align 1
  %168 = getelementptr inbounds i8, i8* %167, i64 1
  %169 = getelementptr inbounds %"class.private_membership::rlwe::RlweParameters", %"class.private_membership::rlwe::RlweParameters"* %166, i64 0, i32 6, i32 0, i32 0, i32 0, i32 0, i32 0, i32 0
  %170 = load atomic i32, i32* %169 monotonic, align 4
  %171 = icmp ult i32 %170, 128
  %172 = trunc i32 %170 to i8
  br i1 %171, label %173, label %175

173:                                              ; preds = %165
  store i8 %172, i8* %168, align 1
  %174 = getelementptr inbounds i8, i8* %167, i64 2
  br label %196

175:                                              ; preds = %165
  %176 = or i8 %172, -128
  store i8 %176, i8* %168, align 1
  %177 = lshr i32 %170, 7
  %178 = icmp ult i32 %170, 16384
  br i1 %178, label %179, label %183

179:                                              ; preds = %175
  %180 = trunc i32 %177 to i8
  %181 = getelementptr inbounds i8, i8* %167, i64 2
  store i8 %180, i8* %181, align 1
  %182 = getelementptr inbounds i8, i8* %167, i64 3
  br label %196

183:                                              ; preds = %175
  %184 = getelementptr inbounds i8, i8* %167, i64 2
  br label %185

185:                                              ; preds = %185, %183
  %186 = phi i32 [ %177, %183 ], [ %190, %185 ]
  %187 = phi i8* [ %184, %183 ], [ %191, %185 ]
  %188 = trunc i32 %186 to i8
  %189 = or i8 %188, -128
  store i8 %189, i8* %187, align 1
  %190 = lshr i32 %186, 7
  %191 = getelementptr inbounds i8, i8* %187, i64 1
  %192 = icmp ugt i32 %186, 16383
  br i1 %192, label %185, label %193, !prof !4

193:                                              ; preds = %185
  %194 = trunc i32 %190 to i8
  %195 = getelementptr inbounds i8, i8* %187, i64 2
  store i8 %194, i8* %191, align 1
  br label %196

196:                                              ; preds = %173, %179, %193
  %197 = phi i8* [ %174, %173 ], [ %182, %179 ], [ %195, %193 ]
  %198 = tail call i8* @_ZNK18private_membership4rlwe14RlweParameters18_InternalSerializeEPhPN6google8protobuf2io19EpsCopyOutputStreamE(%"class.private_membership::rlwe::RlweParameters"* %166, i8* %197, %"class.google::protobuf::io::EpsCopyOutputStream"* %2) #14
  br label %199

199:                                              ; preds = %153, %10, %196
  %200 = phi i8* [ %198, %196 ], [ %154, %153 ], [ %11, %10 ]
  %201 = getelementptr inbounds %"class.private_membership::rlwe::PrivateMembershipRlweOprfResponse", %"class.private_membership::rlwe::PrivateMembershipRlweOprfResponse"* %0, i64 0, i32 5
  %202 = load i64, i64* %201, align 8
  %203 = icmp eq i64 %202, 0
  br i1 %203, label %240, label %204

204:                                              ; preds = %199
  %205 = getelementptr inbounds %"class.google::protobuf::io::EpsCopyOutputStream", %"class.google::protobuf::io::EpsCopyOutputStream"* %2, i64 0, i32 0
  %206 = load i8*, i8** %205, align 8
  %207 = icmp ugt i8* %206, %200
  br i1 %207, label %211, label %208, !prof !2

208:                                              ; preds = %204
  %209 = tail call i8* @_ZN6google8protobuf2io19EpsCopyOutputStream19EnsureSpaceFallbackEPh(%"class.google::protobuf::io::EpsCopyOutputStream"* %2, i8* %200) #14
  %210 = load i64, i64* %201, align 8
  br label %211

211:                                              ; preds = %204, %208
  %212 = phi i64 [ %210, %208 ], [ %202, %204 ]
  %213 = phi i8* [ %209, %208 ], [ %200, %204 ]
  store i8 40, i8* %213, align 1
  %214 = getelementptr inbounds i8, i8* %213, i64 1
  %215 = icmp ult i64 %212, 128
  %216 = trunc i64 %212 to i8
  br i1 %215, label %217, label %219

217:                                              ; preds = %211
  store i8 %216, i8* %214, align 1
  %218 = getelementptr inbounds i8, i8* %213, i64 2
  br label %240

219:                                              ; preds = %211
  %220 = or i8 %216, -128
  store i8 %220, i8* %214, align 1
  %221 = lshr i64 %212, 7
  %222 = icmp ult i64 %212, 16384
  br i1 %222, label %223, label %227

223:                                              ; preds = %219
  %224 = trunc i64 %221 to i8
  %225 = getelementptr inbounds i8, i8* %213, i64 2
  store i8 %224, i8* %225, align 1
  %226 = getelementptr inbounds i8, i8* %213, i64 3
  br label %240

227:                                              ; preds = %219
  %228 = getelementptr inbounds i8, i8* %213, i64 2
  br label %229

229:                                              ; preds = %229, %227
  %230 = phi i64 [ %221, %227 ], [ %234, %229 ]
  %231 = phi i8* [ %228, %227 ], [ %235, %229 ]
  %232 = trunc i64 %230 to i8
  %233 = or i8 %232, -128
  store i8 %233, i8* %231, align 1
  %234 = lshr i64 %230, 7
  %235 = getelementptr inbounds i8, i8* %231, i64 1
  %236 = icmp ugt i64 %230, 16383
  br i1 %236, label %229, label %237, !prof !4

237:                                              ; preds = %229
  %238 = trunc i64 %234 to i8
  %239 = getelementptr inbounds i8, i8* %231, i64 2
  store i8 %238, i8* %235, align 1
  br label %240

240:                                              ; preds = %237, %223, %217, %199
  %241 = phi i8* [ %200, %199 ], [ %218, %217 ], [ %226, %223 ], [ %239, %237 ]
  %242 = getelementptr inbounds %"class.private_membership::rlwe::PrivateMembershipRlweOprfResponse", %"class.private_membership::rlwe::PrivateMembershipRlweOprfResponse"* %0, i64 0, i32 0, i32 1
  %243 = bitcast %"class.google::protobuf::internal::InternalMetadata"* %242 to i64*
  %244 = load i64, i64* %243, align 8
  %245 = and i64 %244, 1
  %246 = icmp eq i64 %245, 0
  br i1 %246, label %278, label %247, !prof !2

247:                                              ; preds = %240
  %248 = and i64 %244, -2
  %249 = inttoptr i64 %248 to %"struct.google::protobuf::internal::InternalMetadata::Container"*
  %250 = getelementptr inbounds %"struct.google::protobuf::internal::InternalMetadata::Container", %"struct.google::protobuf::internal::InternalMetadata::Container"* %249, i64 0, i32 1
  %251 = bitcast %"class.std::__1::basic_string"* %250 to %"struct.std::__1::basic_string<char, std::__1::char_traits<char>, std::__1::allocator<char> >::__short"*
  %252 = getelementptr inbounds %"struct.std::__1::basic_string<char, std::__1::char_traits<char>, std::__1::allocator<char> >::__short", %"struct.std::__1::basic_string<char, std::__1::char_traits<char>, std::__1::allocator<char> >::__short"* %251, i64 0, i32 1, i32 0
  %253 = load i8, i8* %252, align 1
  %254 = icmp slt i8 %253, 0
  br i1 %254, label %255, label %260

255:                                              ; preds = %247
  %256 = getelementptr inbounds %"class.std::__1::basic_string", %"class.std::__1::basic_string"* %250, i64 0, i32 0, i32 0, i32 0, i32 0, i32 0, i32 0
  %257 = load i8*, i8** %256, align 8
  %258 = getelementptr inbounds %"struct.google::protobuf::internal::InternalMetadata::Container", %"struct.google::protobuf::internal::InternalMetadata::Container"* %249, i64 0, i32 1, i32 0, i32 0, i32 0, i32 0, i32 0, i32 1
  %259 = load i64, i64* %258, align 8
  br label %263

260:                                              ; preds = %247
  %261 = bitcast %"class.std::__1::basic_string"* %250 to i8*
  %262 = zext i8 %253 to i64
  br label %263

263:                                              ; preds = %255, %260
  %264 = phi i8* [ %257, %255 ], [ %261, %260 ]
  %265 = phi i64 [ %259, %255 ], [ %262, %260 ]
  %266 = bitcast %"class.google::protobuf::io::EpsCopyOutputStream"* %2 to i64*
  %267 = load i64, i64* %266, align 8
  %268 = ptrtoint i8* %241 to i64
  %269 = sub i64 %267, %268
  %270 = shl i64 %265, 32
  %271 = ashr exact i64 %270, 32
  %272 = icmp slt i64 %269, %271
  br i1 %272, label %273, label %276, !prof !4

273:                                              ; preds = %263
  %274 = trunc i64 %265 to i32
  %275 = tail call i8* @_ZN6google8protobuf2io19EpsCopyOutputStream16WriteRawFallbackEPKviPh(%"class.google::protobuf::io::EpsCopyOutputStream"* %2, i8* %264, i32 %274, i8* %241) #14
  br label %278

276:                                              ; preds = %263
  tail call void @llvm.memcpy.p0i8.p0i8.i64(i8* align 1 %241, i8* align 1 %264, i64 %271, i1 false) #14
  %277 = getelementptr inbounds i8, i8* %241, i64 %271
  br label %278

278:                                              ; preds = %240, %276, %273
  %279 = phi i8* [ %241, %240 ], [ %275, %273 ], [ %277, %276 ]
  ret i8* %279
}

; Function Attrs: nounwind ssp uwtable
define hidden i64 @_ZNK18private_membership4rlwe33PrivateMembershipRlweOprfResponse12ByteSizeLongEv(%"class.private_membership::rlwe::PrivateMembershipRlweOprfResponse"*) unnamed_addr #0 align 2 {
  %2 = getelementptr inbounds %"class.private_membership::rlwe::PrivateMembershipRlweOprfResponse", %"class.private_membership::rlwe::PrivateMembershipRlweOprfResponse"* %0, i64 0, i32 1, i32 0, i32 1
  %3 = load i32, i32* %2, align 8
  %4 = sext i32 %3 to i64
  %5 = getelementptr inbounds %"class.private_membership::rlwe::PrivateMembershipRlweOprfResponse", %"class.private_membership::rlwe::PrivateMembershipRlweOprfResponse"* %0, i64 0, i32 1, i32 0, i32 3
  %6 = load %"struct.google::protobuf::internal::RepeatedPtrFieldBase::Rep"*, %"struct.google::protobuf::internal::RepeatedPtrFieldBase::Rep"** %5, align 8
  %7 = icmp eq %"struct.google::protobuf::internal::RepeatedPtrFieldBase::Rep"* %6, null
  %8 = getelementptr inbounds %"struct.google::protobuf::internal::RepeatedPtrFieldBase::Rep", %"struct.google::protobuf::internal::RepeatedPtrFieldBase::Rep"* %6, i64 0, i32 1, i64 0
  %9 = select i1 %7, i8** null, i8** %8
  %10 = getelementptr inbounds i8*, i8** %9, i64 %4
  %11 = icmp eq i32 %3, 0
  br i1 %11, label %12, label %19

12:                                               ; preds = %19, %1
  %13 = phi i64 [ 0, %1 ], [ %34, %19 ]
  %14 = icmp eq %"class.private_membership::rlwe::PrivateMembershipRlweOprfResponse"* %0, bitcast (%"class.private_membership::rlwe::PrivateMembershipRlweOprfResponseDefaultTypeInternal"* @_ZN18private_membership4rlwe52_PrivateMembershipRlweOprfResponse_default_instance_E to %"class.private_membership::rlwe::PrivateMembershipRlweOprfResponse"*)
  br i1 %14, label %202, label %15

15:                                               ; preds = %12
  %16 = getelementptr inbounds %"class.private_membership::rlwe::PrivateMembershipRlweOprfResponse", %"class.private_membership::rlwe::PrivateMembershipRlweOprfResponse"* %0, i64 0, i32 2
  %17 = load %"class.private_membership::rlwe::HashedBucketsParameters"*, %"class.private_membership::rlwe::HashedBucketsParameters"** %16, align 8
  %18 = icmp eq %"class.private_membership::rlwe::HashedBucketsParameters"* %17, null
  br i1 %18, label %108, label %37

19:                                               ; preds = %1, %19
  %20 = phi i64 [ %34, %19 ], [ %4, %1 ]
  %21 = phi i8** [ %35, %19 ], [ %9, %1 ]
  %22 = bitcast i8** %21 to %"class.private_membership::DoublyEncryptedId"**
  %23 = load %"class.private_membership::DoublyEncryptedId"*, %"class.private_membership::DoublyEncryptedId"** %22, align 8
  %24 = tail call i64 @_ZNK18private_membership17DoublyEncryptedId12ByteSizeLongEv(%"class.private_membership::DoublyEncryptedId"* %23) #14
  %25 = trunc i64 %24 to i32
  %26 = or i32 %25, 1
  %27 = tail call i32 @llvm.ctlz.i32(i32 %26, i1 true) #14, !range !5
  %28 = xor i32 %27, 31
  %29 = mul nuw nsw i32 %28, 9
  %30 = add nuw nsw i32 %29, 73
  %31 = lshr i32 %30, 6
  %32 = zext i32 %31 to i64
  %33 = add i64 %24, %20
  %34 = add i64 %33, %32
  %35 = getelementptr inbounds i8*, i8** %21, i64 1
  %36 = icmp eq i8** %35, %10
  br i1 %36, label %12, label %19

37:                                               ; preds = %15
  %38 = getelementptr inbounds %"class.private_membership::rlwe::HashedBucketsParameters", %"class.private_membership::rlwe::HashedBucketsParameters"* %17, i64 0, i32 1
  %39 = load i32, i32* %38, align 8
  %40 = icmp eq i32 %39, 0
  br i1 %40, label %52, label %41

41:                                               ; preds = %37
  %42 = icmp slt i32 %39, 0
  br i1 %42, label %52, label %43

43:                                               ; preds = %41
  %44 = or i32 %39, 1
  %45 = tail call i32 @llvm.ctlz.i32(i32 %44, i1 true) #14, !range !5
  %46 = xor i32 %45, 31
  %47 = mul nuw nsw i32 %46, 9
  %48 = add nuw nsw i32 %47, 73
  %49 = lshr i32 %48, 6
  %50 = add nuw nsw i32 %49, 1
  %51 = zext i32 %50 to i64
  br label %52

52:                                               ; preds = %43, %41, %37
  %53 = phi i64 [ 0, %37 ], [ %51, %43 ], [ 11, %41 ]
  %54 = getelementptr inbounds %"class.private_membership::rlwe::HashedBucketsParameters", %"class.private_membership::rlwe::HashedBucketsParameters"* %17, i64 0, i32 2
  %55 = load i32, i32* %54, align 4
  %56 = icmp eq i32 %55, 0
  br i1 %56, label %71, label %57

57:                                               ; preds = %52
  %58 = icmp slt i32 %55, 0
  br i1 %58, label %68, label %59

59:                                               ; preds = %57
  %60 = or i32 %55, 1
  %61 = tail call i32 @llvm.ctlz.i32(i32 %60, i1 true) #14, !range !5
  %62 = xor i32 %61, 31
  %63 = mul nuw nsw i32 %62, 9
  %64 = add nuw nsw i32 %63, 73
  %65 = lshr i32 %64, 6
  %66 = add nuw nsw i32 %65, 1
  %67 = zext i32 %66 to i64
  br label %68

68:                                               ; preds = %59, %57
  %69 = phi i64 [ %67, %59 ], [ 11, %57 ]
  %70 = add nuw nsw i64 %69, %53
  br label %71

71:                                               ; preds = %68, %52
  %72 = phi i64 [ %70, %68 ], [ %53, %52 ]
  %73 = getelementptr inbounds %"class.private_membership::rlwe::HashedBucketsParameters", %"class.private_membership::rlwe::HashedBucketsParameters"* %17, i64 0, i32 0, i32 1
  %74 = bitcast %"class.google::protobuf::internal::InternalMetadata"* %73 to i64*
  %75 = load i64, i64* %74, align 8
  %76 = and i64 %75, 1
  %77 = icmp eq i64 %76, 0
  br i1 %77, label %94, label %78, !prof !2

78:                                               ; preds = %71
  %79 = and i64 %75, -2
  %80 = inttoptr i64 %79 to %"struct.google::protobuf::internal::InternalMetadata::Container"*
  %81 = getelementptr inbounds %"struct.google::protobuf::internal::InternalMetadata::Container", %"struct.google::protobuf::internal::InternalMetadata::Container"* %80, i64 0, i32 1
  %82 = bitcast %"class.std::__1::basic_string"* %81 to %"struct.std::__1::basic_string<char, std::__1::char_traits<char>, std::__1::allocator<char> >::__short"*
  %83 = getelementptr inbounds %"struct.std::__1::basic_string<char, std::__1::char_traits<char>, std::__1::allocator<char> >::__short", %"struct.std::__1::basic_string<char, std::__1::char_traits<char>, std::__1::allocator<char> >::__short"* %82, i64 0, i32 1, i32 0
  %84 = load i8, i8* %83, align 1
  %85 = icmp slt i8 %84, 0
  br i1 %85, label %86, label %89

86:                                               ; preds = %78
  %87 = getelementptr inbounds %"struct.google::protobuf::internal::InternalMetadata::Container", %"struct.google::protobuf::internal::InternalMetadata::Container"* %80, i64 0, i32 1, i32 0, i32 0, i32 0, i32 0, i32 0, i32 1
  %88 = load i64, i64* %87, align 8
  br label %91

89:                                               ; preds = %78
  %90 = zext i8 %84 to i64
  br label %91

91:                                               ; preds = %89, %86
  %92 = phi i64 [ %88, %86 ], [ %90, %89 ]
  %93 = add i64 %92, %72
  br label %94

94:                                               ; preds = %71, %91
  %95 = phi i64 [ %93, %91 ], [ %72, %71 ]
  %96 = trunc i64 %95 to i32
  %97 = getelementptr inbounds %"class.private_membership::rlwe::HashedBucketsParameters", %"class.private_membership::rlwe::HashedBucketsParameters"* %17, i64 0, i32 3, i32 0, i32 0, i32 0, i32 0, i32 0, i32 0
  store atomic i32 %96, i32* %97 monotonic, align 4
  %98 = or i32 %96, 1
  %99 = tail call i32 @llvm.ctlz.i32(i32 %98, i1 true) #14, !range !5
  %100 = xor i32 %99, 31
  %101 = mul nuw nsw i32 %100, 9
  %102 = add nuw nsw i32 %101, 73
  %103 = lshr i32 %102, 6
  %104 = zext i32 %103 to i64
  %105 = add i64 %13, 1
  %106 = add i64 %105, %95
  %107 = add i64 %106, %104
  br label %108

108:                                              ; preds = %15, %94
  %109 = phi i64 [ %13, %15 ], [ %107, %94 ]
  %110 = getelementptr inbounds %"class.private_membership::rlwe::PrivateMembershipRlweOprfResponse", %"class.private_membership::rlwe::PrivateMembershipRlweOprfResponse"* %0, i64 0, i32 3
  %111 = load %"class.private_membership::rlwe::EncryptedBucketsParameters"*, %"class.private_membership::rlwe::EncryptedBucketsParameters"** %110, align 8
  %112 = icmp eq %"class.private_membership::rlwe::EncryptedBucketsParameters"* %111, null
  br i1 %112, label %184, label %113

113:                                              ; preds = %108
  %114 = getelementptr inbounds %"class.private_membership::rlwe::EncryptedBucketsParameters", %"class.private_membership::rlwe::EncryptedBucketsParameters"* %111, i64 0, i32 1
  %115 = load i32, i32* %114, align 8
  %116 = icmp eq i32 %115, 0
  br i1 %116, label %128, label %117

117:                                              ; preds = %113
  %118 = icmp slt i32 %115, 0
  br i1 %118, label %128, label %119

119:                                              ; preds = %117
  %120 = or i32 %115, 1
  %121 = tail call i32 @llvm.ctlz.i32(i32 %120, i1 true) #14, !range !5
  %122 = xor i32 %121, 31
  %123 = mul nuw nsw i32 %122, 9
  %124 = add nuw nsw i32 %123, 73
  %125 = lshr i32 %124, 6
  %126 = add nuw nsw i32 %125, 1
  %127 = zext i32 %126 to i64
  br label %128

128:                                              ; preds = %119, %117, %113
  %129 = phi i64 [ 0, %113 ], [ %127, %119 ], [ 11, %117 ]
  %130 = getelementptr inbounds %"class.private_membership::rlwe::EncryptedBucketsParameters", %"class.private_membership::rlwe::EncryptedBucketsParameters"* %111, i64 0, i32 2
  %131 = load i32, i32* %130, align 4
  %132 = icmp eq i32 %131, 0
  br i1 %132, label %147, label %133

133:                                              ; preds = %128
  %134 = icmp slt i32 %131, 0
  br i1 %134, label %144, label %135

135:                                              ; preds = %133
  %136 = or i32 %131, 1
  %137 = tail call i32 @llvm.ctlz.i32(i32 %136, i1 true) #14, !range !5
  %138 = xor i32 %137, 31
  %139 = mul nuw nsw i32 %138, 9
  %140 = add nuw nsw i32 %139, 73
  %141 = lshr i32 %140, 6
  %142 = add nuw nsw i32 %141, 1
  %143 = zext i32 %142 to i64
  br label %144

144:                                              ; preds = %135, %133
  %145 = phi i64 [ %143, %135 ], [ 11, %133 ]
  %146 = add nuw nsw i64 %145, %129
  br label %147

147:                                              ; preds = %144, %128
  %148 = phi i64 [ %146, %144 ], [ %129, %128 ]
  %149 = getelementptr inbounds %"class.private_membership::rlwe::EncryptedBucketsParameters", %"class.private_membership::rlwe::EncryptedBucketsParameters"* %111, i64 0, i32 0, i32 1
  %150 = bitcast %"class.google::protobuf::internal::InternalMetadata"* %149 to i64*
  %151 = load i64, i64* %150, align 8
  %152 = and i64 %151, 1
  %153 = icmp eq i64 %152, 0
  br i1 %153, label %170, label %154, !prof !2

154:                                              ; preds = %147
  %155 = and i64 %151, -2
  %156 = inttoptr i64 %155 to %"struct.google::protobuf::internal::InternalMetadata::Container"*
  %157 = getelementptr inbounds %"struct.google::protobuf::internal::InternalMetadata::Container", %"struct.google::protobuf::internal::InternalMetadata::Container"* %156, i64 0, i32 1
  %158 = bitcast %"class.std::__1::basic_string"* %157 to %"struct.std::__1::basic_string<char, std::__1::char_traits<char>, std::__1::allocator<char> >::__short"*
  %159 = getelementptr inbounds %"struct.std::__1::basic_string<char, std::__1::char_traits<char>, std::__1::allocator<char> >::__short", %"struct.std::__1::basic_string<char, std::__1::char_traits<char>, std::__1::allocator<char> >::__short"* %158, i64 0, i32 1, i32 0
  %160 = load i8, i8* %159, align 1
  %161 = icmp slt i8 %160, 0
  br i1 %161, label %162, label %165

162:                                              ; preds = %154
  %163 = getelementptr inbounds %"struct.google::protobuf::internal::InternalMetadata::Container", %"struct.google::protobuf::internal::InternalMetadata::Container"* %156, i64 0, i32 1, i32 0, i32 0, i32 0, i32 0, i32 0, i32 1
  %164 = load i64, i64* %163, align 8
  br label %167

165:                                              ; preds = %154
  %166 = zext i8 %160 to i64
  br label %167

167:                                              ; preds = %165, %162
  %168 = phi i64 [ %164, %162 ], [ %166, %165 ]
  %169 = add i64 %168, %148
  br label %170

170:                                              ; preds = %147, %167
  %171 = phi i64 [ %169, %167 ], [ %148, %147 ]
  %172 = trunc i64 %171 to i32
  %173 = getelementptr inbounds %"class.private_membership::rlwe::EncryptedBucketsParameters", %"class.private_membership::rlwe::EncryptedBucketsParameters"* %111, i64 0, i32 3, i32 0, i32 0, i32 0, i32 0, i32 0, i32 0
  store atomic i32 %172, i32* %173 monotonic, align 4
  %174 = or i32 %172, 1
  %175 = tail call i32 @llvm.ctlz.i32(i32 %174, i1 true) #14, !range !5
  %176 = xor i32 %175, 31
  %177 = mul nuw nsw i32 %176, 9
  %178 = add nuw nsw i32 %177, 73
  %179 = lshr i32 %178, 6
  %180 = zext i32 %179 to i64
  %181 = add i64 %109, 1
  %182 = add i64 %181, %171
  %183 = add i64 %182, %180
  br label %184

184:                                              ; preds = %108, %170
  %185 = phi i64 [ %109, %108 ], [ %183, %170 ]
  %186 = getelementptr inbounds %"class.private_membership::rlwe::PrivateMembershipRlweOprfResponse", %"class.private_membership::rlwe::PrivateMembershipRlweOprfResponse"* %0, i64 0, i32 4
  %187 = load %"class.private_membership::rlwe::RlweParameters"*, %"class.private_membership::rlwe::RlweParameters"** %186, align 8
  %188 = icmp eq %"class.private_membership::rlwe::RlweParameters"* %187, null
  br i1 %188, label %202, label %189

189:                                              ; preds = %184
  %190 = tail call i64 @_ZNK18private_membership4rlwe14RlweParameters12ByteSizeLongEv(%"class.private_membership::rlwe::RlweParameters"* nonnull %187) #14
  %191 = trunc i64 %190 to i32
  %192 = or i32 %191, 1
  %193 = tail call i32 @llvm.ctlz.i32(i32 %192, i1 true) #14, !range !5
  %194 = xor i32 %193, 31
  %195 = mul nuw nsw i32 %194, 9
  %196 = add nuw nsw i32 %195, 73
  %197 = lshr i32 %196, 6
  %198 = zext i32 %197 to i64
  %199 = add i64 %185, 1
  %200 = add i64 %199, %190
  %201 = add i64 %200, %198
  br label %202

202:                                              ; preds = %184, %12, %189
  %203 = phi i64 [ %201, %189 ], [ %185, %184 ], [ %13, %12 ]
  %204 = getelementptr inbounds %"class.private_membership::rlwe::PrivateMembershipRlweOprfResponse", %"class.private_membership::rlwe::PrivateMembershipRlweOprfResponse"* %0, i64 0, i32 5
  %205 = load i64, i64* %204, align 8
  %206 = icmp eq i64 %205, 0
  br i1 %206, label %216, label %207

207:                                              ; preds = %202
  %208 = or i64 %205, 1
  %209 = tail call i64 @llvm.ctlz.i64(i64 %208, i1 true) #14, !range !6
  %210 = xor i64 %209, 63
  %211 = mul nuw nsw i64 %210, 9
  %212 = add nuw nsw i64 %211, 73
  %213 = lshr i64 %212, 6
  %214 = add i64 %203, 1
  %215 = add i64 %214, %213
  br label %216

216:                                              ; preds = %202, %207
  %217 = phi i64 [ %215, %207 ], [ %203, %202 ]
  %218 = getelementptr inbounds %"class.private_membership::rlwe::PrivateMembershipRlweOprfResponse", %"class.private_membership::rlwe::PrivateMembershipRlweOprfResponse"* %0, i64 0, i32 0, i32 1
  %219 = bitcast %"class.google::protobuf::internal::InternalMetadata"* %218 to i64*
  %220 = load i64, i64* %219, align 8
  %221 = and i64 %220, 1
  %222 = icmp eq i64 %221, 0
  br i1 %222, label %239, label %223, !prof !2

223:                                              ; preds = %216
  %224 = and i64 %220, -2
  %225 = inttoptr i64 %224 to %"struct.google::protobuf::internal::InternalMetadata::Container"*
  %226 = getelementptr inbounds %"struct.google::protobuf::internal::InternalMetadata::Container", %"struct.google::protobuf::internal::InternalMetadata::Container"* %225, i64 0, i32 1
  %227 = bitcast %"class.std::__1::basic_string"* %226 to %"struct.std::__1::basic_string<char, std::__1::char_traits<char>, std::__1::allocator<char> >::__short"*
  %228 = getelementptr inbounds %"struct.std::__1::basic_string<char, std::__1::char_traits<char>, std::__1::allocator<char> >::__short", %"struct.std::__1::basic_string<char, std::__1::char_traits<char>, std::__1::allocator<char> >::__short"* %227, i64 0, i32 1, i32 0
  %229 = load i8, i8* %228, align 1
  %230 = icmp slt i8 %229, 0
  br i1 %230, label %231, label %234

231:                                              ; preds = %223
  %232 = getelementptr inbounds %"struct.google::protobuf::internal::InternalMetadata::Container", %"struct.google::protobuf::internal::InternalMetadata::Container"* %225, i64 0, i32 1, i32 0, i32 0, i32 0, i32 0, i32 0, i32 1
  %233 = load i64, i64* %232, align 8
  br label %236

234:                                              ; preds = %223
  %235 = zext i8 %229 to i64
  br label %236

236:                                              ; preds = %231, %234
  %237 = phi i64 [ %233, %231 ], [ %235, %234 ]
  %238 = add i64 %237, %217
  br label %239

239:                                              ; preds = %216, %236
  %240 = phi i64 [ %238, %236 ], [ %217, %216 ]
  %241 = trunc i64 %240 to i32
  %242 = getelementptr inbounds %"class.private_membership::rlwe::PrivateMembershipRlweOprfResponse", %"class.private_membership::rlwe::PrivateMembershipRlweOprfResponse"* %0, i64 0, i32 6, i32 0, i32 0, i32 0, i32 0, i32 0, i32 0
  store atomic i32 %241, i32* %242 monotonic, align 4
  ret i64 %240
}

; Function Attrs: nounwind ssp uwtable
define hidden void @_ZN18private_membership4rlwe33PrivateMembershipRlweOprfResponse21CheckTypeAndMergeFromERKN6google8protobuf11MessageLiteE(%"class.private_membership::rlwe::PrivateMembershipRlweOprfResponse"*, %"class.google::protobuf::MessageLite"* readonly dereferenceable(16)) unnamed_addr #0 align 2 {
  %3 = bitcast %"class.google::protobuf::MessageLite"* %1 to %"class.private_membership::rlwe::PrivateMembershipRlweOprfResponse"*
  tail call void @_ZN18private_membership4rlwe33PrivateMembershipRlweOprfResponse9MergeFromERKS1_(%"class.private_membership::rlwe::PrivateMembershipRlweOprfResponse"* %0, %"class.private_membership::rlwe::PrivateMembershipRlweOprfResponse"* dereferenceable(80) %3)
  ret void
}

; Function Attrs: nounwind ssp uwtable
define hidden void @_ZN18private_membership4rlwe33PrivateMembershipRlweOprfResponse9MergeFromERKS1_(%"class.private_membership::rlwe::PrivateMembershipRlweOprfResponse"*, %"class.private_membership::rlwe::PrivateMembershipRlweOprfResponse"* readonly dereferenceable(80)) local_unnamed_addr #0 align 2 {
  %3 = getelementptr inbounds %"class.private_membership::rlwe::PrivateMembershipRlweOprfResponse", %"class.private_membership::rlwe::PrivateMembershipRlweOprfResponse"* %0, i64 0, i32 0, i32 1
  %4 = getelementptr inbounds %"class.private_membership::rlwe::PrivateMembershipRlweOprfResponse", %"class.private_membership::rlwe::PrivateMembershipRlweOprfResponse"* %1, i64 0, i32 0, i32 1
  %5 = bitcast %"class.google::protobuf::internal::InternalMetadata"* %4 to i64*
  %6 = load i64, i64* %5, align 8
  %7 = and i64 %6, 1
  %8 = icmp eq i64 %7, 0
  br i1 %8, label %38, label %9

9:                                                ; preds = %2
  %10 = and i64 %6, -2
  %11 = inttoptr i64 %10 to %"struct.google::protobuf::internal::InternalMetadata::Container"*
  %12 = getelementptr inbounds %"struct.google::protobuf::internal::InternalMetadata::Container", %"struct.google::protobuf::internal::InternalMetadata::Container"* %11, i64 0, i32 1
  %13 = bitcast %"class.google::protobuf::internal::InternalMetadata"* %3 to i64*
  %14 = load i64, i64* %13, align 8
  %15 = and i64 %14, 1
  %16 = icmp eq i64 %15, 0
  br i1 %16, label %21, label %17, !prof !4

17:                                               ; preds = %9
  %18 = and i64 %14, -2
  %19 = inttoptr i64 %18 to %"struct.google::protobuf::internal::InternalMetadata::Container"*
  %20 = getelementptr inbounds %"struct.google::protobuf::internal::InternalMetadata::Container", %"struct.google::protobuf::internal::InternalMetadata::Container"* %19, i64 0, i32 1
  br label %23

21:                                               ; preds = %9
  %22 = tail call %"class.std::__1::basic_string"* @_ZN6google8protobuf8internal16InternalMetadata27mutable_unknown_fields_slowINSt3__112basic_stringIcNS4_11char_traitsIcEENS4_9allocatorIcEEEEEEPT_v(%"class.google::protobuf::internal::InternalMetadata"* %3) #14
  br label %23

23:                                               ; preds = %21, %17
  %24 = phi %"class.std::__1::basic_string"* [ %20, %17 ], [ %22, %21 ]
  %25 = bitcast %"class.std::__1::basic_string"* %12 to %"struct.std::__1::basic_string<char, std::__1::char_traits<char>, std::__1::allocator<char> >::__short"*
  %26 = getelementptr inbounds %"struct.std::__1::basic_string<char, std::__1::char_traits<char>, std::__1::allocator<char> >::__short", %"struct.std::__1::basic_string<char, std::__1::char_traits<char>, std::__1::allocator<char> >::__short"* %25, i64 0, i32 1, i32 0
  %27 = load i8, i8* %26, align 1
  %28 = icmp slt i8 %27, 0
  %29 = getelementptr inbounds %"class.std::__1::basic_string", %"class.std::__1::basic_string"* %12, i64 0, i32 0, i32 0, i32 0, i32 0, i32 0, i32 0
  %30 = load i8*, i8** %29, align 8
  %31 = getelementptr inbounds %"struct.google::protobuf::internal::InternalMetadata::Container", %"struct.google::protobuf::internal::InternalMetadata::Container"* %11, i64 0, i32 1, i32 0, i32 0, i32 0, i32 0, i32 0, i32 1
  %32 = load i64, i64* %31, align 8
  %33 = bitcast %"class.std::__1::basic_string"* %12 to i8*
  %34 = zext i8 %27 to i64
  %35 = select i1 %28, i8* %30, i8* %33
  %36 = select i1 %28, i64 %32, i64 %34
  %37 = tail call dereferenceable(24) %"class.std::__1::basic_string"* @_ZNSt3__112basic_stringIcNS_11char_traitsIcEENS_9allocatorIcEEE6appendEPKcm(%"class.std::__1::basic_string"* %24, i8* %35, i64 %36) #14
  br label %38

38:                                               ; preds = %2, %23
  %39 = getelementptr inbounds %"class.private_membership::rlwe::PrivateMembershipRlweOprfResponse", %"class.private_membership::rlwe::PrivateMembershipRlweOprfResponse"* %0, i64 0, i32 1
  %40 = getelementptr inbounds %"class.private_membership::rlwe::PrivateMembershipRlweOprfResponse", %"class.private_membership::rlwe::PrivateMembershipRlweOprfResponse"* %1, i64 0, i32 1, i32 0, i32 1
  %41 = load i32, i32* %40, align 8
  %42 = icmp eq i32 %41, 0
  br i1 %42, label %98, label %43

43:                                               ; preds = %38
  %44 = getelementptr inbounds %"class.google::protobuf::RepeatedPtrField.30", %"class.google::protobuf::RepeatedPtrField.30"* %39, i64 0, i32 0
  %45 = getelementptr inbounds %"class.private_membership::rlwe::PrivateMembershipRlweOprfResponse", %"class.private_membership::rlwe::PrivateMembershipRlweOprfResponse"* %1, i64 0, i32 1, i32 0, i32 3
  %46 = load %"struct.google::protobuf::internal::RepeatedPtrFieldBase::Rep"*, %"struct.google::protobuf::internal::RepeatedPtrFieldBase::Rep"** %45, align 8
  %47 = tail call i8** @_ZN6google8protobuf8internal20RepeatedPtrFieldBase14InternalExtendEi(%"class.google::protobuf::internal::RepeatedPtrFieldBase"* %44, i32 %41) #14
  %48 = getelementptr inbounds %"class.private_membership::rlwe::PrivateMembershipRlweOprfResponse", %"class.private_membership::rlwe::PrivateMembershipRlweOprfResponse"* %0, i64 0, i32 1, i32 0, i32 3
  %49 = load %"struct.google::protobuf::internal::RepeatedPtrFieldBase::Rep"*, %"struct.google::protobuf::internal::RepeatedPtrFieldBase::Rep"** %48, align 8
  %50 = getelementptr inbounds %"struct.google::protobuf::internal::RepeatedPtrFieldBase::Rep", %"struct.google::protobuf::internal::RepeatedPtrFieldBase::Rep"* %49, i64 0, i32 0
  %51 = load i32, i32* %50, align 8
  %52 = getelementptr inbounds %"class.private_membership::rlwe::PrivateMembershipRlweOprfResponse", %"class.private_membership::rlwe::PrivateMembershipRlweOprfResponse"* %0, i64 0, i32 1, i32 0, i32 1
  %53 = load i32, i32* %52, align 8
  %54 = sub i32 %51, %53
  %55 = icmp sgt i32 %54, 0
  %56 = icmp sgt i32 %41, 0
  %57 = and i1 %56, %55
  br i1 %57, label %58, label %61

58:                                               ; preds = %43
  %59 = sext i32 %41 to i64
  %60 = sext i32 %54 to i64
  br label %67

61:                                               ; preds = %67, %43
  %62 = getelementptr inbounds %"class.google::protobuf::RepeatedPtrField.30", %"class.google::protobuf::RepeatedPtrField.30"* %39, i64 0, i32 0, i32 0
  %63 = load %"class.google::protobuf::Arena"*, %"class.google::protobuf::Arena"** %62, align 8
  %64 = icmp slt i32 %54, %41
  br i1 %64, label %65, label %90

65:                                               ; preds = %61
  %66 = sext i32 %54 to i64
  br label %79

67:                                               ; preds = %67, %58
  %68 = phi i64 [ 0, %58 ], [ %75, %67 ]
  %69 = getelementptr inbounds %"struct.google::protobuf::internal::RepeatedPtrFieldBase::Rep", %"struct.google::protobuf::internal::RepeatedPtrFieldBase::Rep"* %46, i64 0, i32 1, i64 %68
  %70 = bitcast i8** %69 to %"class.private_membership::DoublyEncryptedId"**
  %71 = load %"class.private_membership::DoublyEncryptedId"*, %"class.private_membership::DoublyEncryptedId"** %70, align 8
  %72 = getelementptr inbounds i8*, i8** %47, i64 %68
  %73 = bitcast i8** %72 to %"class.private_membership::DoublyEncryptedId"**
  %74 = load %"class.private_membership::DoublyEncryptedId"*, %"class.private_membership::DoublyEncryptedId"** %73, align 8
  tail call void @_ZN6google8protobuf8internal18GenericTypeHandlerIN18private_membership17DoublyEncryptedIdEE5MergeERKS4_PS4_(%"class.private_membership::DoublyEncryptedId"* dereferenceable(40) %71, %"class.private_membership::DoublyEncryptedId"* %74) #14
  %75 = add nuw nsw i64 %68, 1
  %76 = icmp slt i64 %75, %60
  %77 = icmp slt i64 %75, %59
  %78 = and i1 %76, %77
  br i1 %78, label %67, label %61

79:                                               ; preds = %79, %65
  %80 = phi i64 [ %66, %65 ], [ %87, %79 ]
  %81 = getelementptr inbounds %"struct.google::protobuf::internal::RepeatedPtrFieldBase::Rep", %"struct.google::protobuf::internal::RepeatedPtrFieldBase::Rep"* %46, i64 0, i32 1, i64 %80
  %82 = bitcast i8** %81 to %"class.private_membership::DoublyEncryptedId"**
  %83 = load %"class.private_membership::DoublyEncryptedId"*, %"class.private_membership::DoublyEncryptedId"** %82, align 8
  %84 = tail call %"class.private_membership::DoublyEncryptedId"* @_ZN6google8protobuf5Arena18CreateMaybeMessageIN18private_membership17DoublyEncryptedIdEJEEEPT_PS1_DpOT0_(%"class.google::protobuf::Arena"* %63) #14
  tail call void @_ZN6google8protobuf8internal18GenericTypeHandlerIN18private_membership17DoublyEncryptedIdEE5MergeERKS4_PS4_(%"class.private_membership::DoublyEncryptedId"* dereferenceable(40) %83, %"class.private_membership::DoublyEncryptedId"* %84) #14
  %85 = getelementptr inbounds i8*, i8** %47, i64 %80
  %86 = bitcast i8** %85 to %"class.private_membership::DoublyEncryptedId"**
  store %"class.private_membership::DoublyEncryptedId"* %84, %"class.private_membership::DoublyEncryptedId"** %86, align 8
  %87 = add nsw i64 %80, 1
  %88 = trunc i64 %87 to i32
  %89 = icmp eq i32 %41, %88
  br i1 %89, label %90, label %79

90:                                               ; preds = %79, %61
  %91 = load i32, i32* %52, align 8
  %92 = add nsw i32 %91, %41
  store i32 %92, i32* %52, align 8
  %93 = load %"struct.google::protobuf::internal::RepeatedPtrFieldBase::Rep"*, %"struct.google::protobuf::internal::RepeatedPtrFieldBase::Rep"** %48, align 8
  %94 = getelementptr inbounds %"struct.google::protobuf::internal::RepeatedPtrFieldBase::Rep", %"struct.google::protobuf::internal::RepeatedPtrFieldBase::Rep"* %93, i64 0, i32 0
  %95 = load i32, i32* %94, align 8
  %96 = icmp slt i32 %95, %92
  br i1 %96, label %97, label %98

97:                                               ; preds = %90
  store i32 %92, i32* %94, align 8
  br label %98

98:                                               ; preds = %38, %90, %97
  %99 = icmp eq %"class.private_membership::rlwe::PrivateMembershipRlweOprfResponse"* %1, bitcast (%"class.private_membership::rlwe::PrivateMembershipRlweOprfResponseDefaultTypeInternal"* @_ZN18private_membership4rlwe52_PrivateMembershipRlweOprfResponse_default_instance_E to %"class.private_membership::rlwe::PrivateMembershipRlweOprfResponse"*)
  br i1 %99, label %281, label %100

100:                                              ; preds = %98
  %101 = getelementptr inbounds %"class.private_membership::rlwe::PrivateMembershipRlweOprfResponse", %"class.private_membership::rlwe::PrivateMembershipRlweOprfResponse"* %1, i64 0, i32 2
  %102 = load %"class.private_membership::rlwe::HashedBucketsParameters"*, %"class.private_membership::rlwe::HashedBucketsParameters"** %101, align 8
  %103 = icmp eq %"class.private_membership::rlwe::HashedBucketsParameters"* %102, null
  br i1 %103, label %176, label %104

104:                                              ; preds = %100
  %105 = getelementptr inbounds %"class.private_membership::rlwe::PrivateMembershipRlweOprfResponse", %"class.private_membership::rlwe::PrivateMembershipRlweOprfResponse"* %0, i64 0, i32 2
  %106 = load %"class.private_membership::rlwe::HashedBucketsParameters"*, %"class.private_membership::rlwe::HashedBucketsParameters"** %105, align 8
  %107 = icmp eq %"class.private_membership::rlwe::HashedBucketsParameters"* %106, null
  br i1 %107, label %108, label %124

108:                                              ; preds = %104
  %109 = bitcast %"class.google::protobuf::internal::InternalMetadata"* %3 to i64*
  %110 = load i64, i64* %109, align 8
  %111 = and i64 %110, 1
  %112 = icmp eq i64 %111, 0
  %113 = and i64 %110, -2
  br i1 %112, label %118, label %114, !prof !2

114:                                              ; preds = %108
  %115 = inttoptr i64 %113 to %"struct.google::protobuf::internal::InternalMetadata::ContainerBase"*
  %116 = getelementptr inbounds %"struct.google::protobuf::internal::InternalMetadata::ContainerBase", %"struct.google::protobuf::internal::InternalMetadata::ContainerBase"* %115, i64 0, i32 0
  %117 = load %"class.google::protobuf::Arena"*, %"class.google::protobuf::Arena"** %116, align 8
  br label %120

118:                                              ; preds = %108
  %119 = inttoptr i64 %113 to %"class.google::protobuf::Arena"*
  br label %120

120:                                              ; preds = %118, %114
  %121 = phi %"class.google::protobuf::Arena"* [ %117, %114 ], [ %119, %118 ]
  %122 = tail call %"class.private_membership::rlwe::HashedBucketsParameters"* @_ZN6google8protobuf5Arena18CreateMaybeMessageIN18private_membership4rlwe23HashedBucketsParametersEJEEEPT_PS1_DpOT0_(%"class.google::protobuf::Arena"* %121) #14
  store %"class.private_membership::rlwe::HashedBucketsParameters"* %122, %"class.private_membership::rlwe::HashedBucketsParameters"** %105, align 8
  %123 = load %"class.private_membership::rlwe::HashedBucketsParameters"*, %"class.private_membership::rlwe::HashedBucketsParameters"** %101, align 8
  br label %124

124:                                              ; preds = %104, %120
  %125 = phi %"class.private_membership::rlwe::HashedBucketsParameters"* [ %123, %120 ], [ %102, %104 ]
  %126 = phi %"class.private_membership::rlwe::HashedBucketsParameters"* [ %122, %120 ], [ %106, %104 ]
  %127 = icmp eq %"class.private_membership::rlwe::HashedBucketsParameters"* %125, null
  %128 = select i1 %127, %"class.private_membership::rlwe::HashedBucketsParameters"* bitcast (%"class.private_membership::rlwe::HashedBucketsParametersDefaultTypeInternal"* @_ZN18private_membership4rlwe42_HashedBucketsParameters_default_instance_E to %"class.private_membership::rlwe::HashedBucketsParameters"*), %"class.private_membership::rlwe::HashedBucketsParameters"* %125
  %129 = getelementptr inbounds %"class.private_membership::rlwe::HashedBucketsParameters", %"class.private_membership::rlwe::HashedBucketsParameters"* %126, i64 0, i32 0, i32 1
  %130 = getelementptr inbounds %"class.private_membership::rlwe::HashedBucketsParameters", %"class.private_membership::rlwe::HashedBucketsParameters"* %128, i64 0, i32 0, i32 1
  %131 = bitcast %"class.google::protobuf::internal::InternalMetadata"* %130 to i64*
  %132 = load i64, i64* %131, align 8
  %133 = and i64 %132, 1
  %134 = icmp eq i64 %133, 0
  br i1 %134, label %164, label %135

135:                                              ; preds = %124
  %136 = and i64 %132, -2
  %137 = inttoptr i64 %136 to %"struct.google::protobuf::internal::InternalMetadata::Container"*
  %138 = getelementptr inbounds %"struct.google::protobuf::internal::InternalMetadata::Container", %"struct.google::protobuf::internal::InternalMetadata::Container"* %137, i64 0, i32 1
  %139 = bitcast %"class.google::protobuf::internal::InternalMetadata"* %129 to i64*
  %140 = load i64, i64* %139, align 8
  %141 = and i64 %140, 1
  %142 = icmp eq i64 %141, 0
  br i1 %142, label %147, label %143, !prof !4

143:                                              ; preds = %135
  %144 = and i64 %140, -2
  %145 = inttoptr i64 %144 to %"struct.google::protobuf::internal::InternalMetadata::Container"*
  %146 = getelementptr inbounds %"struct.google::protobuf::internal::InternalMetadata::Container", %"struct.google::protobuf::internal::InternalMetadata::Container"* %145, i64 0, i32 1
  br label %149

147:                                              ; preds = %135
  %148 = tail call %"class.std::__1::basic_string"* @_ZN6google8protobuf8internal16InternalMetadata27mutable_unknown_fields_slowINSt3__112basic_stringIcNS4_11char_traitsIcEENS4_9allocatorIcEEEEEEPT_v(%"class.google::protobuf::internal::InternalMetadata"* %129) #14
  br label %149

149:                                              ; preds = %147, %143
  %150 = phi %"class.std::__1::basic_string"* [ %146, %143 ], [ %148, %147 ]
  %151 = bitcast %"class.std::__1::basic_string"* %138 to %"struct.std::__1::basic_string<char, std::__1::char_traits<char>, std::__1::allocator<char> >::__short"*
  %152 = getelementptr inbounds %"struct.std::__1::basic_string<char, std::__1::char_traits<char>, std::__1::allocator<char> >::__short", %"struct.std::__1::basic_string<char, std::__1::char_traits<char>, std::__1::allocator<char> >::__short"* %151, i64 0, i32 1, i32 0
  %153 = load i8, i8* %152, align 1
  %154 = icmp slt i8 %153, 0
  %155 = getelementptr inbounds %"class.std::__1::basic_string", %"class.std::__1::basic_string"* %138, i64 0, i32 0, i32 0, i32 0, i32 0, i32 0, i32 0
  %156 = load i8*, i8** %155, align 8
  %157 = getelementptr inbounds %"struct.google::protobuf::internal::InternalMetadata::Container", %"struct.google::protobuf::internal::InternalMetadata::Container"* %137, i64 0, i32 1, i32 0, i32 0, i32 0, i32 0, i32 0, i32 1
  %158 = load i64, i64* %157, align 8
  %159 = bitcast %"class.std::__1::basic_string"* %138 to i8*
  %160 = zext i8 %153 to i64
  %161 = select i1 %154, i8* %156, i8* %159
  %162 = select i1 %154, i64 %158, i64 %160
  %163 = tail call dereferenceable(24) %"class.std::__1::basic_string"* @_ZNSt3__112basic_stringIcNS_11char_traitsIcEENS_9allocatorIcEEE6appendEPKcm(%"class.std::__1::basic_string"* %150, i8* %161, i64 %162) #14
  br label %164

164:                                              ; preds = %149, %124
  %165 = getelementptr inbounds %"class.private_membership::rlwe::HashedBucketsParameters", %"class.private_membership::rlwe::HashedBucketsParameters"* %128, i64 0, i32 1
  %166 = load i32, i32* %165, align 8
  %167 = icmp eq i32 %166, 0
  br i1 %167, label %170, label %168

168:                                              ; preds = %164
  %169 = getelementptr inbounds %"class.private_membership::rlwe::HashedBucketsParameters", %"class.private_membership::rlwe::HashedBucketsParameters"* %126, i64 0, i32 1
  store i32 %166, i32* %169, align 8
  br label %170

170:                                              ; preds = %168, %164
  %171 = getelementptr inbounds %"class.private_membership::rlwe::HashedBucketsParameters", %"class.private_membership::rlwe::HashedBucketsParameters"* %128, i64 0, i32 2
  %172 = load i32, i32* %171, align 4
  %173 = icmp eq i32 %172, 0
  br i1 %173, label %176, label %174

174:                                              ; preds = %170
  %175 = getelementptr inbounds %"class.private_membership::rlwe::HashedBucketsParameters", %"class.private_membership::rlwe::HashedBucketsParameters"* %126, i64 0, i32 2
  store i32 %172, i32* %175, align 4
  br label %176

176:                                              ; preds = %100, %170, %174
  %177 = getelementptr inbounds %"class.private_membership::rlwe::PrivateMembershipRlweOprfResponse", %"class.private_membership::rlwe::PrivateMembershipRlweOprfResponse"* %1, i64 0, i32 3
  %178 = load %"class.private_membership::rlwe::EncryptedBucketsParameters"*, %"class.private_membership::rlwe::EncryptedBucketsParameters"** %177, align 8
  %179 = icmp eq %"class.private_membership::rlwe::EncryptedBucketsParameters"* %178, null
  br i1 %179, label %252, label %180

180:                                              ; preds = %176
  %181 = getelementptr inbounds %"class.private_membership::rlwe::PrivateMembershipRlweOprfResponse", %"class.private_membership::rlwe::PrivateMembershipRlweOprfResponse"* %0, i64 0, i32 3
  %182 = load %"class.private_membership::rlwe::EncryptedBucketsParameters"*, %"class.private_membership::rlwe::EncryptedBucketsParameters"** %181, align 8
  %183 = icmp eq %"class.private_membership::rlwe::EncryptedBucketsParameters"* %182, null
  br i1 %183, label %184, label %200

184:                                              ; preds = %180
  %185 = bitcast %"class.google::protobuf::internal::InternalMetadata"* %3 to i64*
  %186 = load i64, i64* %185, align 8
  %187 = and i64 %186, 1
  %188 = icmp eq i64 %187, 0
  %189 = and i64 %186, -2
  br i1 %188, label %194, label %190, !prof !2

190:                                              ; preds = %184
  %191 = inttoptr i64 %189 to %"struct.google::protobuf::internal::InternalMetadata::ContainerBase"*
  %192 = getelementptr inbounds %"struct.google::protobuf::internal::InternalMetadata::ContainerBase", %"struct.google::protobuf::internal::InternalMetadata::ContainerBase"* %191, i64 0, i32 0
  %193 = load %"class.google::protobuf::Arena"*, %"class.google::protobuf::Arena"** %192, align 8
  br label %196

194:                                              ; preds = %184
  %195 = inttoptr i64 %189 to %"class.google::protobuf::Arena"*
  br label %196

196:                                              ; preds = %194, %190
  %197 = phi %"class.google::protobuf::Arena"* [ %193, %190 ], [ %195, %194 ]
  %198 = tail call %"class.private_membership::rlwe::EncryptedBucketsParameters"* @_ZN6google8protobuf5Arena18CreateMaybeMessageIN18private_membership4rlwe26EncryptedBucketsParametersEJEEEPT_PS1_DpOT0_(%"class.google::protobuf::Arena"* %197) #14
  store %"class.private_membership::rlwe::EncryptedBucketsParameters"* %198, %"class.private_membership::rlwe::EncryptedBucketsParameters"** %181, align 8
  %199 = load %"class.private_membership::rlwe::EncryptedBucketsParameters"*, %"class.private_membership::rlwe::EncryptedBucketsParameters"** %177, align 8
  br label %200

200:                                              ; preds = %180, %196
  %201 = phi %"class.private_membership::rlwe::EncryptedBucketsParameters"* [ %199, %196 ], [ %178, %180 ]
  %202 = phi %"class.private_membership::rlwe::EncryptedBucketsParameters"* [ %198, %196 ], [ %182, %180 ]
  %203 = icmp eq %"class.private_membership::rlwe::EncryptedBucketsParameters"* %201, null
  %204 = select i1 %203, %"class.private_membership::rlwe::EncryptedBucketsParameters"* bitcast (%"class.private_membership::rlwe::EncryptedBucketsParametersDefaultTypeInternal"* @_ZN18private_membership4rlwe45_EncryptedBucketsParameters_default_instance_E to %"class.private_membership::rlwe::EncryptedBucketsParameters"*), %"class.private_membership::rlwe::EncryptedBucketsParameters"* %201
  %205 = getelementptr inbounds %"class.private_membership::rlwe::EncryptedBucketsParameters", %"class.private_membership::rlwe::EncryptedBucketsParameters"* %202, i64 0, i32 0, i32 1
  %206 = getelementptr inbounds %"class.private_membership::rlwe::EncryptedBucketsParameters", %"class.private_membership::rlwe::EncryptedBucketsParameters"* %204, i64 0, i32 0, i32 1
  %207 = bitcast %"class.google::protobuf::internal::InternalMetadata"* %206 to i64*
  %208 = load i64, i64* %207, align 8
  %209 = and i64 %208, 1
  %210 = icmp eq i64 %209, 0
  br i1 %210, label %240, label %211

211:                                              ; preds = %200
  %212 = and i64 %208, -2
  %213 = inttoptr i64 %212 to %"struct.google::protobuf::internal::InternalMetadata::Container"*
  %214 = getelementptr inbounds %"struct.google::protobuf::internal::InternalMetadata::Container", %"struct.google::protobuf::internal::InternalMetadata::Container"* %213, i64 0, i32 1
  %215 = bitcast %"class.google::protobuf::internal::InternalMetadata"* %205 to i64*
  %216 = load i64, i64* %215, align 8
  %217 = and i64 %216, 1
  %218 = icmp eq i64 %217, 0
  br i1 %218, label %223, label %219, !prof !4

219:                                              ; preds = %211
  %220 = and i64 %216, -2
  %221 = inttoptr i64 %220 to %"struct.google::protobuf::internal::InternalMetadata::Container"*
  %222 = getelementptr inbounds %"struct.google::protobuf::internal::InternalMetadata::Container", %"struct.google::protobuf::internal::InternalMetadata::Container"* %221, i64 0, i32 1
  br label %225

223:                                              ; preds = %211
  %224 = tail call %"class.std::__1::basic_string"* @_ZN6google8protobuf8internal16InternalMetadata27mutable_unknown_fields_slowINSt3__112basic_stringIcNS4_11char_traitsIcEENS4_9allocatorIcEEEEEEPT_v(%"class.google::protobuf::internal::InternalMetadata"* %205) #14
  br label %225

225:                                              ; preds = %223, %219
  %226 = phi %"class.std::__1::basic_string"* [ %222, %219 ], [ %224, %223 ]
  %227 = bitcast %"class.std::__1::basic_string"* %214 to %"struct.std::__1::basic_string<char, std::__1::char_traits<char>, std::__1::allocator<char> >::__short"*
  %228 = getelementptr inbounds %"struct.std::__1::basic_string<char, std::__1::char_traits<char>, std::__1::allocator<char> >::__short", %"struct.std::__1::basic_string<char, std::__1::char_traits<char>, std::__1::allocator<char> >::__short"* %227, i64 0, i32 1, i32 0
  %229 = load i8, i8* %228, align 1
  %230 = icmp slt i8 %229, 0
  %231 = getelementptr inbounds %"class.std::__1::basic_string", %"class.std::__1::basic_string"* %214, i64 0, i32 0, i32 0, i32 0, i32 0, i32 0, i32 0
  %232 = load i8*, i8** %231, align 8
  %233 = getelementptr inbounds %"struct.google::protobuf::internal::InternalMetadata::Container", %"struct.google::protobuf::internal::InternalMetadata::Container"* %213, i64 0, i32 1, i32 0, i32 0, i32 0, i32 0, i32 0, i32 1
  %234 = load i64, i64* %233, align 8
  %235 = bitcast %"class.std::__1::basic_string"* %214 to i8*
  %236 = zext i8 %229 to i64
  %237 = select i1 %230, i8* %232, i8* %235
  %238 = select i1 %230, i64 %234, i64 %236
  %239 = tail call dereferenceable(24) %"class.std::__1::basic_string"* @_ZNSt3__112basic_stringIcNS_11char_traitsIcEENS_9allocatorIcEEE6appendEPKcm(%"class.std::__1::basic_string"* %226, i8* %237, i64 %238) #14
  br label %240

240:                                              ; preds = %225, %200
  %241 = getelementptr inbounds %"class.private_membership::rlwe::EncryptedBucketsParameters", %"class.private_membership::rlwe::EncryptedBucketsParameters"* %204, i64 0, i32 1
  %242 = load i32, i32* %241, align 8
  %243 = icmp eq i32 %242, 0
  br i1 %243, label %246, label %244

244:                                              ; preds = %240
  %245 = getelementptr inbounds %"class.private_membership::rlwe::EncryptedBucketsParameters", %"class.private_membership::rlwe::EncryptedBucketsParameters"* %202, i64 0, i32 1
  store i32 %242, i32* %245, align 8
  br label %246

246:                                              ; preds = %244, %240
  %247 = getelementptr inbounds %"class.private_membership::rlwe::EncryptedBucketsParameters", %"class.private_membership::rlwe::EncryptedBucketsParameters"* %204, i64 0, i32 2
  %248 = load i32, i32* %247, align 4
  %249 = icmp eq i32 %248, 0
  br i1 %249, label %252, label %250

250:                                              ; preds = %246
  %251 = getelementptr inbounds %"class.private_membership::rlwe::EncryptedBucketsParameters", %"class.private_membership::rlwe::EncryptedBucketsParameters"* %202, i64 0, i32 2
  store i32 %248, i32* %251, align 4
  br label %252

252:                                              ; preds = %176, %246, %250
  %253 = getelementptr inbounds %"class.private_membership::rlwe::PrivateMembershipRlweOprfResponse", %"class.private_membership::rlwe::PrivateMembershipRlweOprfResponse"* %1, i64 0, i32 4
  %254 = load %"class.private_membership::rlwe::RlweParameters"*, %"class.private_membership::rlwe::RlweParameters"** %253, align 8
  %255 = icmp eq %"class.private_membership::rlwe::RlweParameters"* %254, null
  br i1 %255, label %281, label %256

256:                                              ; preds = %252
  %257 = getelementptr inbounds %"class.private_membership::rlwe::PrivateMembershipRlweOprfResponse", %"class.private_membership::rlwe::PrivateMembershipRlweOprfResponse"* %0, i64 0, i32 4
  %258 = load %"class.private_membership::rlwe::RlweParameters"*, %"class.private_membership::rlwe::RlweParameters"** %257, align 8
  %259 = icmp eq %"class.private_membership::rlwe::RlweParameters"* %258, null
  br i1 %259, label %260, label %276

260:                                              ; preds = %256
  %261 = bitcast %"class.google::protobuf::internal::InternalMetadata"* %3 to i64*
  %262 = load i64, i64* %261, align 8
  %263 = and i64 %262, 1
  %264 = icmp eq i64 %263, 0
  %265 = and i64 %262, -2
  br i1 %264, label %270, label %266, !prof !2

266:                                              ; preds = %260
  %267 = inttoptr i64 %265 to %"struct.google::protobuf::internal::InternalMetadata::ContainerBase"*
  %268 = getelementptr inbounds %"struct.google::protobuf::internal::InternalMetadata::ContainerBase", %"struct.google::protobuf::internal::InternalMetadata::ContainerBase"* %267, i64 0, i32 0
  %269 = load %"class.google::protobuf::Arena"*, %"class.google::protobuf::Arena"** %268, align 8
  br label %272

270:                                              ; preds = %260
  %271 = inttoptr i64 %265 to %"class.google::protobuf::Arena"*
  br label %272

272:                                              ; preds = %270, %266
  %273 = phi %"class.google::protobuf::Arena"* [ %269, %266 ], [ %271, %270 ]
  %274 = tail call %"class.private_membership::rlwe::RlweParameters"* @_ZN6google8protobuf5Arena18CreateMaybeMessageIN18private_membership4rlwe14RlweParametersEJEEEPT_PS1_DpOT0_(%"class.google::protobuf::Arena"* %273) #14
  store %"class.private_membership::rlwe::RlweParameters"* %274, %"class.private_membership::rlwe::RlweParameters"** %257, align 8
  %275 = load %"class.private_membership::rlwe::RlweParameters"*, %"class.private_membership::rlwe::RlweParameters"** %253, align 8
  br label %276

276:                                              ; preds = %256, %272
  %277 = phi %"class.private_membership::rlwe::RlweParameters"* [ %275, %272 ], [ %254, %256 ]
  %278 = phi %"class.private_membership::rlwe::RlweParameters"* [ %274, %272 ], [ %258, %256 ]
  %279 = icmp eq %"class.private_membership::rlwe::RlweParameters"* %277, null
  %280 = select i1 %279, %"class.private_membership::rlwe::RlweParameters"* bitcast (%"class.private_membership::rlwe::RlweParametersDefaultTypeInternal"* @_ZN18private_membership4rlwe33_RlweParameters_default_instance_E to %"class.private_membership::rlwe::RlweParameters"*), %"class.private_membership::rlwe::RlweParameters"* %277
  tail call void @_ZN18private_membership4rlwe14RlweParameters9MergeFromERKS1_(%"class.private_membership::rlwe::RlweParameters"* %278, %"class.private_membership::rlwe::RlweParameters"* dereferenceable(64) %280)
  br label %281

281:                                              ; preds = %252, %98, %276
  %282 = getelementptr inbounds %"class.private_membership::rlwe::PrivateMembershipRlweOprfResponse", %"class.private_membership::rlwe::PrivateMembershipRlweOprfResponse"* %1, i64 0, i32 5
  %283 = load i64, i64* %282, align 8
  %284 = icmp eq i64 %283, 0
  br i1 %284, label %287, label %285

285:                                              ; preds = %281
  %286 = getelementptr inbounds %"class.private_membership::rlwe::PrivateMembershipRlweOprfResponse", %"class.private_membership::rlwe::PrivateMembershipRlweOprfResponse"* %0, i64 0, i32 5
  store i64 %283, i64* %286, align 8
  br label %287

287:                                              ; preds = %281, %285
  ret void
}

; Function Attrs: nounwind ssp uwtable
define hidden void @_ZN18private_membership4rlwe23HashedBucketsParameters9MergeFromERKS1_(%"class.private_membership::rlwe::HashedBucketsParameters"*, %"class.private_membership::rlwe::HashedBucketsParameters"* nocapture readonly dereferenceable(32)) local_unnamed_addr #0 align 2 {
  %3 = getelementptr inbounds %"class.private_membership::rlwe::HashedBucketsParameters", %"class.private_membership::rlwe::HashedBucketsParameters"* %0, i64 0, i32 0, i32 1
  %4 = getelementptr inbounds %"class.private_membership::rlwe::HashedBucketsParameters", %"class.private_membership::rlwe::HashedBucketsParameters"* %1, i64 0, i32 0, i32 1
  %5 = bitcast %"class.google::protobuf::internal::InternalMetadata"* %4 to i64*
  %6 = load i64, i64* %5, align 8
  %7 = and i64 %6, 1
  %8 = icmp eq i64 %7, 0
  br i1 %8, label %38, label %9

9:                                                ; preds = %2
  %10 = and i64 %6, -2
  %11 = inttoptr i64 %10 to %"struct.google::protobuf::internal::InternalMetadata::Container"*
  %12 = getelementptr inbounds %"struct.google::protobuf::internal::InternalMetadata::Container", %"struct.google::protobuf::internal::InternalMetadata::Container"* %11, i64 0, i32 1
  %13 = bitcast %"class.google::protobuf::internal::InternalMetadata"* %3 to i64*
  %14 = load i64, i64* %13, align 8
  %15 = and i64 %14, 1
  %16 = icmp eq i64 %15, 0
  br i1 %16, label %21, label %17, !prof !4

17:                                               ; preds = %9
  %18 = and i64 %14, -2
  %19 = inttoptr i64 %18 to %"struct.google::protobuf::internal::InternalMetadata::Container"*
  %20 = getelementptr inbounds %"struct.google::protobuf::internal::InternalMetadata::Container", %"struct.google::protobuf::internal::InternalMetadata::Container"* %19, i64 0, i32 1
  br label %23

21:                                               ; preds = %9
  %22 = tail call %"class.std::__1::basic_string"* @_ZN6google8protobuf8internal16InternalMetadata27mutable_unknown_fields_slowINSt3__112basic_stringIcNS4_11char_traitsIcEENS4_9allocatorIcEEEEEEPT_v(%"class.google::protobuf::internal::InternalMetadata"* %3) #14
  br label %23

23:                                               ; preds = %21, %17
  %24 = phi %"class.std::__1::basic_string"* [ %20, %17 ], [ %22, %21 ]
  %25 = bitcast %"class.std::__1::basic_string"* %12 to %"struct.std::__1::basic_string<char, std::__1::char_traits<char>, std::__1::allocator<char> >::__short"*
  %26 = getelementptr inbounds %"struct.std::__1::basic_string<char, std::__1::char_traits<char>, std::__1::allocator<char> >::__short", %"struct.std::__1::basic_string<char, std::__1::char_traits<char>, std::__1::allocator<char> >::__short"* %25, i64 0, i32 1, i32 0
  %27 = load i8, i8* %26, align 1
  %28 = icmp slt i8 %27, 0
  %29 = getelementptr inbounds %"class.std::__1::basic_string", %"class.std::__1::basic_string"* %12, i64 0, i32 0, i32 0, i32 0, i32 0, i32 0, i32 0
  %30 = load i8*, i8** %29, align 8
  %31 = getelementptr inbounds %"struct.google::protobuf::internal::InternalMetadata::Container", %"struct.google::protobuf::internal::InternalMetadata::Container"* %11, i64 0, i32 1, i32 0, i32 0, i32 0, i32 0, i32 0, i32 1
  %32 = load i64, i64* %31, align 8
  %33 = bitcast %"class.std::__1::basic_string"* %12 to i8*
  %34 = zext i8 %27 to i64
  %35 = select i1 %28, i8* %30, i8* %33
  %36 = select i1 %28, i64 %32, i64 %34
  %37 = tail call dereferenceable(24) %"class.std::__1::basic_string"* @_ZNSt3__112basic_stringIcNS_11char_traitsIcEENS_9allocatorIcEEE6appendEPKcm(%"class.std::__1::basic_string"* %24, i8* %35, i64 %36) #14
  br label %38

38:                                               ; preds = %2, %23
  %39 = getelementptr inbounds %"class.private_membership::rlwe::HashedBucketsParameters", %"class.private_membership::rlwe::HashedBucketsParameters"* %1, i64 0, i32 1
  %40 = load i32, i32* %39, align 8
  %41 = icmp eq i32 %40, 0
  br i1 %41, label %44, label %42

42:                                               ; preds = %38
  %43 = getelementptr inbounds %"class.private_membership::rlwe::HashedBucketsParameters", %"class.private_membership::rlwe::HashedBucketsParameters"* %0, i64 0, i32 1
  store i32 %40, i32* %43, align 8
  br label %44

44:                                               ; preds = %38, %42
  %45 = getelementptr inbounds %"class.private_membership::rlwe::HashedBucketsParameters", %"class.private_membership::rlwe::HashedBucketsParameters"* %1, i64 0, i32 2
  %46 = load i32, i32* %45, align 4
  %47 = icmp eq i32 %46, 0
  br i1 %47, label %50, label %48

48:                                               ; preds = %44
  %49 = getelementptr inbounds %"class.private_membership::rlwe::HashedBucketsParameters", %"class.private_membership::rlwe::HashedBucketsParameters"* %0, i64 0, i32 2
  store i32 %46, i32* %49, align 4
  br label %50

50:                                               ; preds = %44, %48
  ret void
}

; Function Attrs: nounwind ssp uwtable
define hidden void @_ZN18private_membership4rlwe26EncryptedBucketsParameters9MergeFromERKS1_(%"class.private_membership::rlwe::EncryptedBucketsParameters"*, %"class.private_membership::rlwe::EncryptedBucketsParameters"* nocapture readonly dereferenceable(32)) local_unnamed_addr #0 align 2 {
  %3 = getelementptr inbounds %"class.private_membership::rlwe::EncryptedBucketsParameters", %"class.private_membership::rlwe::EncryptedBucketsParameters"* %0, i64 0, i32 0, i32 1
  %4 = getelementptr inbounds %"class.private_membership::rlwe::EncryptedBucketsParameters", %"class.private_membership::rlwe::EncryptedBucketsParameters"* %1, i64 0, i32 0, i32 1
  %5 = bitcast %"class.google::protobuf::internal::InternalMetadata"* %4 to i64*
  %6 = load i64, i64* %5, align 8
  %7 = and i64 %6, 1
  %8 = icmp eq i64 %7, 0
  br i1 %8, label %38, label %9

9:                                                ; preds = %2
  %10 = and i64 %6, -2
  %11 = inttoptr i64 %10 to %"struct.google::protobuf::internal::InternalMetadata::Container"*
  %12 = getelementptr inbounds %"struct.google::protobuf::internal::InternalMetadata::Container", %"struct.google::protobuf::internal::InternalMetadata::Container"* %11, i64 0, i32 1
  %13 = bitcast %"class.google::protobuf::internal::InternalMetadata"* %3 to i64*
  %14 = load i64, i64* %13, align 8
  %15 = and i64 %14, 1
  %16 = icmp eq i64 %15, 0
  br i1 %16, label %21, label %17, !prof !4

17:                                               ; preds = %9
  %18 = and i64 %14, -2
  %19 = inttoptr i64 %18 to %"struct.google::protobuf::internal::InternalMetadata::Container"*
  %20 = getelementptr inbounds %"struct.google::protobuf::internal::InternalMetadata::Container", %"struct.google::protobuf::internal::InternalMetadata::Container"* %19, i64 0, i32 1
  br label %23

21:                                               ; preds = %9
  %22 = tail call %"class.std::__1::basic_string"* @_ZN6google8protobuf8internal16InternalMetadata27mutable_unknown_fields_slowINSt3__112basic_stringIcNS4_11char_traitsIcEENS4_9allocatorIcEEEEEEPT_v(%"class.google::protobuf::internal::InternalMetadata"* %3) #14
  br label %23

23:                                               ; preds = %21, %17
  %24 = phi %"class.std::__1::basic_string"* [ %20, %17 ], [ %22, %21 ]
  %25 = bitcast %"class.std::__1::basic_string"* %12 to %"struct.std::__1::basic_string<char, std::__1::char_traits<char>, std::__1::allocator<char> >::__short"*
  %26 = getelementptr inbounds %"struct.std::__1::basic_string<char, std::__1::char_traits<char>, std::__1::allocator<char> >::__short", %"struct.std::__1::basic_string<char, std::__1::char_traits<char>, std::__1::allocator<char> >::__short"* %25, i64 0, i32 1, i32 0
  %27 = load i8, i8* %26, align 1
  %28 = icmp slt i8 %27, 0
  %29 = getelementptr inbounds %"class.std::__1::basic_string", %"class.std::__1::basic_string"* %12, i64 0, i32 0, i32 0, i32 0, i32 0, i32 0, i32 0
  %30 = load i8*, i8** %29, align 8
  %31 = getelementptr inbounds %"struct.google::protobuf::internal::InternalMetadata::Container", %"struct.google::protobuf::internal::InternalMetadata::Container"* %11, i64 0, i32 1, i32 0, i32 0, i32 0, i32 0, i32 0, i32 1
  %32 = load i64, i64* %31, align 8
  %33 = bitcast %"class.std::__1::basic_string"* %12 to i8*
  %34 = zext i8 %27 to i64
  %35 = select i1 %28, i8* %30, i8* %33
  %36 = select i1 %28, i64 %32, i64 %34
  %37 = tail call dereferenceable(24) %"class.std::__1::basic_string"* @_ZNSt3__112basic_stringIcNS_11char_traitsIcEENS_9allocatorIcEEE6appendEPKcm(%"class.std::__1::basic_string"* %24, i8* %35, i64 %36) #14
  br label %38

38:                                               ; preds = %2, %23
  %39 = getelementptr inbounds %"class.private_membership::rlwe::EncryptedBucketsParameters", %"class.private_membership::rlwe::EncryptedBucketsParameters"* %1, i64 0, i32 1
  %40 = load i32, i32* %39, align 8
  %41 = icmp eq i32 %40, 0
  br i1 %41, label %44, label %42

42:                                               ; preds = %38
  %43 = getelementptr inbounds %"class.private_membership::rlwe::EncryptedBucketsParameters", %"class.private_membership::rlwe::EncryptedBucketsParameters"* %0, i64 0, i32 1
  store i32 %40, i32* %43, align 8
  br label %44

44:                                               ; preds = %38, %42
  %45 = getelementptr inbounds %"class.private_membership::rlwe::EncryptedBucketsParameters", %"class.private_membership::rlwe::EncryptedBucketsParameters"* %1, i64 0, i32 2
  %46 = load i32, i32* %45, align 4
  %47 = icmp eq i32 %46, 0
  br i1 %47, label %50, label %48

48:                                               ; preds = %44
  %49 = getelementptr inbounds %"class.private_membership::rlwe::EncryptedBucketsParameters", %"class.private_membership::rlwe::EncryptedBucketsParameters"* %0, i64 0, i32 2
  store i32 %46, i32* %49, align 4
  br label %50

50:                                               ; preds = %44, %48
  ret void
}

; Function Attrs: nounwind ssp uwtable
define hidden void @_ZN18private_membership4rlwe14RlweParameters9MergeFromERKS1_(%"class.private_membership::rlwe::RlweParameters"*, %"class.private_membership::rlwe::RlweParameters"* nocapture readonly dereferenceable(64)) local_unnamed_addr #0 align 2 {
  %3 = getelementptr inbounds %"class.private_membership::rlwe::RlweParameters", %"class.private_membership::rlwe::RlweParameters"* %0, i64 0, i32 0, i32 1
  %4 = getelementptr inbounds %"class.private_membership::rlwe::RlweParameters", %"class.private_membership::rlwe::RlweParameters"* %1, i64 0, i32 0, i32 1
  %5 = bitcast %"class.google::protobuf::internal::InternalMetadata"* %4 to i64*
  %6 = load i64, i64* %5, align 8
  %7 = and i64 %6, 1
  %8 = icmp eq i64 %7, 0
  br i1 %8, label %38, label %9

9:                                                ; preds = %2
  %10 = and i64 %6, -2
  %11 = inttoptr i64 %10 to %"struct.google::protobuf::internal::InternalMetadata::Container"*
  %12 = getelementptr inbounds %"struct.google::protobuf::internal::InternalMetadata::Container", %"struct.google::protobuf::internal::InternalMetadata::Container"* %11, i64 0, i32 1
  %13 = bitcast %"class.google::protobuf::internal::InternalMetadata"* %3 to i64*
  %14 = load i64, i64* %13, align 8
  %15 = and i64 %14, 1
  %16 = icmp eq i64 %15, 0
  br i1 %16, label %21, label %17, !prof !4

17:                                               ; preds = %9
  %18 = and i64 %14, -2
  %19 = inttoptr i64 %18 to %"struct.google::protobuf::internal::InternalMetadata::Container"*
  %20 = getelementptr inbounds %"struct.google::protobuf::internal::InternalMetadata::Container", %"struct.google::protobuf::internal::InternalMetadata::Container"* %19, i64 0, i32 1
  br label %23

21:                                               ; preds = %9
  %22 = tail call %"class.std::__1::basic_string"* @_ZN6google8protobuf8internal16InternalMetadata27mutable_unknown_fields_slowINSt3__112basic_stringIcNS4_11char_traitsIcEENS4_9allocatorIcEEEEEEPT_v(%"class.google::protobuf::internal::InternalMetadata"* %3) #14
  br label %23

23:                                               ; preds = %21, %17
  %24 = phi %"class.std::__1::basic_string"* [ %20, %17 ], [ %22, %21 ]
  %25 = bitcast %"class.std::__1::basic_string"* %12 to %"struct.std::__1::basic_string<char, std::__1::char_traits<char>, std::__1::allocator<char> >::__short"*
  %26 = getelementptr inbounds %"struct.std::__1::basic_string<char, std::__1::char_traits<char>, std::__1::allocator<char> >::__short", %"struct.std::__1::basic_string<char, std::__1::char_traits<char>, std::__1::allocator<char> >::__short"* %25, i64 0, i32 1, i32 0
  %27 = load i8, i8* %26, align 1
  %28 = icmp slt i8 %27, 0
  %29 = getelementptr inbounds %"class.std::__1::basic_string", %"class.std::__1::basic_string"* %12, i64 0, i32 0, i32 0, i32 0, i32 0, i32 0, i32 0
  %30 = load i8*, i8** %29, align 8
  %31 = getelementptr inbounds %"struct.google::protobuf::internal::InternalMetadata::Container", %"struct.google::protobuf::internal::InternalMetadata::Container"* %11, i64 0, i32 1, i32 0, i32 0, i32 0, i32 0, i32 0, i32 1
  %32 = load i64, i64* %31, align 8
  %33 = bitcast %"class.std::__1::basic_string"* %12 to i8*
  %34 = zext i8 %27 to i64
  %35 = select i1 %28, i8* %30, i8* %33
  %36 = select i1 %28, i64 %32, i64 %34
  %37 = tail call dereferenceable(24) %"class.std::__1::basic_string"* @_ZNSt3__112basic_stringIcNS_11char_traitsIcEENS_9allocatorIcEEE6appendEPKcm(%"class.std::__1::basic_string"* %24, i8* %35, i64 %36) #14
  br label %38

38:                                               ; preds = %2, %23
  %39 = getelementptr inbounds %"class.private_membership::rlwe::RlweParameters", %"class.private_membership::rlwe::RlweParameters"* %0, i64 0, i32 1
  %40 = getelementptr inbounds %"class.private_membership::rlwe::RlweParameters", %"class.private_membership::rlwe::RlweParameters"* %1, i64 0, i32 1, i32 0, i32 1
  %41 = load i32, i32* %40, align 8
  %42 = icmp eq i32 %41, 0
  br i1 %42, label %98, label %43

43:                                               ; preds = %38
  %44 = getelementptr inbounds %"class.google::protobuf::RepeatedPtrField.31", %"class.google::protobuf::RepeatedPtrField.31"* %39, i64 0, i32 0
  %45 = getelementptr inbounds %"class.private_membership::rlwe::RlweParameters", %"class.private_membership::rlwe::RlweParameters"* %1, i64 0, i32 1, i32 0, i32 3
  %46 = load %"struct.google::protobuf::internal::RepeatedPtrFieldBase::Rep"*, %"struct.google::protobuf::internal::RepeatedPtrFieldBase::Rep"** %45, align 8
  %47 = tail call i8** @_ZN6google8protobuf8internal20RepeatedPtrFieldBase14InternalExtendEi(%"class.google::protobuf::internal::RepeatedPtrFieldBase"* %44, i32 %41) #14
  %48 = getelementptr inbounds %"class.private_membership::rlwe::RlweParameters", %"class.private_membership::rlwe::RlweParameters"* %0, i64 0, i32 1, i32 0, i32 3
  %49 = load %"struct.google::protobuf::internal::RepeatedPtrFieldBase::Rep"*, %"struct.google::protobuf::internal::RepeatedPtrFieldBase::Rep"** %48, align 8
  %50 = getelementptr inbounds %"struct.google::protobuf::internal::RepeatedPtrFieldBase::Rep", %"struct.google::protobuf::internal::RepeatedPtrFieldBase::Rep"* %49, i64 0, i32 0
  %51 = load i32, i32* %50, align 8
  %52 = getelementptr inbounds %"class.private_membership::rlwe::RlweParameters", %"class.private_membership::rlwe::RlweParameters"* %0, i64 0, i32 1, i32 0, i32 1
  %53 = load i32, i32* %52, align 8
  %54 = sub i32 %51, %53
  %55 = icmp sgt i32 %54, 0
  %56 = icmp sgt i32 %41, 0
  %57 = and i1 %56, %55
  br i1 %57, label %58, label %61

58:                                               ; preds = %43
  %59 = sext i32 %41 to i64
  %60 = sext i32 %54 to i64
  br label %67

61:                                               ; preds = %67, %43
  %62 = getelementptr inbounds %"class.google::protobuf::RepeatedPtrField.31", %"class.google::protobuf::RepeatedPtrField.31"* %39, i64 0, i32 0, i32 0
  %63 = load %"class.google::protobuf::Arena"*, %"class.google::protobuf::Arena"** %62, align 8
  %64 = icmp slt i32 %54, %41
  br i1 %64, label %65, label %90

65:                                               ; preds = %61
  %66 = sext i32 %54 to i64
  br label %79

67:                                               ; preds = %67, %58
  %68 = phi i64 [ 0, %58 ], [ %75, %67 ]
  %69 = getelementptr inbounds %"struct.google::protobuf::internal::RepeatedPtrFieldBase::Rep", %"struct.google::protobuf::internal::RepeatedPtrFieldBase::Rep"* %46, i64 0, i32 1, i64 %68
  %70 = bitcast i8** %69 to %"class.private_membership::rlwe::Uint128"**
  %71 = load %"class.private_membership::rlwe::Uint128"*, %"class.private_membership::rlwe::Uint128"** %70, align 8
  %72 = getelementptr inbounds i8*, i8** %47, i64 %68
  %73 = bitcast i8** %72 to %"class.private_membership::rlwe::Uint128"**
  %74 = load %"class.private_membership::rlwe::Uint128"*, %"class.private_membership::rlwe::Uint128"** %73, align 8
  tail call void @_ZN6google8protobuf8internal18GenericTypeHandlerIN18private_membership4rlwe7Uint128EE5MergeERKS5_PS5_(%"class.private_membership::rlwe::Uint128"* dereferenceable(40) %71, %"class.private_membership::rlwe::Uint128"* %74) #14
  %75 = add nuw nsw i64 %68, 1
  %76 = icmp slt i64 %75, %60
  %77 = icmp slt i64 %75, %59
  %78 = and i1 %76, %77
  br i1 %78, label %67, label %61

79:                                               ; preds = %79, %65
  %80 = phi i64 [ %66, %65 ], [ %87, %79 ]
  %81 = getelementptr inbounds %"struct.google::protobuf::internal::RepeatedPtrFieldBase::Rep", %"struct.google::protobuf::internal::RepeatedPtrFieldBase::Rep"* %46, i64 0, i32 1, i64 %80
  %82 = bitcast i8** %81 to %"class.private_membership::rlwe::Uint128"**
  %83 = load %"class.private_membership::rlwe::Uint128"*, %"class.private_membership::rlwe::Uint128"** %82, align 8
  %84 = tail call %"class.private_membership::rlwe::Uint128"* @_ZN6google8protobuf5Arena18CreateMaybeMessageIN18private_membership4rlwe7Uint128EJEEEPT_PS1_DpOT0_(%"class.google::protobuf::Arena"* %63) #14
  tail call void @_ZN6google8protobuf8internal18GenericTypeHandlerIN18private_membership4rlwe7Uint128EE5MergeERKS5_PS5_(%"class.private_membership::rlwe::Uint128"* dereferenceable(40) %83, %"class.private_membership::rlwe::Uint128"* %84) #14
  %85 = getelementptr inbounds i8*, i8** %47, i64 %80
  %86 = bitcast i8** %85 to %"class.private_membership::rlwe::Uint128"**
  store %"class.private_membership::rlwe::Uint128"* %84, %"class.private_membership::rlwe::Uint128"** %86, align 8
  %87 = add nsw i64 %80, 1
  %88 = trunc i64 %87 to i32
  %89 = icmp eq i32 %41, %88
  br i1 %89, label %90, label %79

90:                                               ; preds = %79, %61
  %91 = load i32, i32* %52, align 8
  %92 = add nsw i32 %91, %41
  store i32 %92, i32* %52, align 8
  %93 = load %"struct.google::protobuf::internal::RepeatedPtrFieldBase::Rep"*, %"struct.google::protobuf::internal::RepeatedPtrFieldBase::Rep"** %48, align 8
  %94 = getelementptr inbounds %"struct.google::protobuf::internal::RepeatedPtrFieldBase::Rep", %"struct.google::protobuf::internal::RepeatedPtrFieldBase::Rep"* %93, i64 0, i32 0
  %95 = load i32, i32* %94, align 8
  %96 = icmp slt i32 %95, %92
  br i1 %96, label %97, label %98

97:                                               ; preds = %90
  store i32 %92, i32* %94, align 8
  br label %98

98:                                               ; preds = %38, %90, %97
  %99 = getelementptr inbounds %"class.private_membership::rlwe::RlweParameters", %"class.private_membership::rlwe::RlweParameters"* %1, i64 0, i32 2
  %100 = load i32, i32* %99, align 8
  %101 = icmp eq i32 %100, 0
  br i1 %101, label %104, label %102

102:                                              ; preds = %98
  %103 = getelementptr inbounds %"class.private_membership::rlwe::RlweParameters", %"class.private_membership::rlwe::RlweParameters"* %0, i64 0, i32 2
  store i32 %100, i32* %103, align 8
  br label %104

104:                                              ; preds = %98, %102
  %105 = getelementptr inbounds %"class.private_membership::rlwe::RlweParameters", %"class.private_membership::rlwe::RlweParameters"* %1, i64 0, i32 3
  %106 = load i32, i32* %105, align 4
  %107 = icmp eq i32 %106, 0
  br i1 %107, label %110, label %108

108:                                              ; preds = %104
  %109 = getelementptr inbounds %"class.private_membership::rlwe::RlweParameters", %"class.private_membership::rlwe::RlweParameters"* %0, i64 0, i32 3
  store i32 %106, i32* %109, align 4
  br label %110

110:                                              ; preds = %104, %108
  %111 = getelementptr inbounds %"class.private_membership::rlwe::RlweParameters", %"class.private_membership::rlwe::RlweParameters"* %1, i64 0, i32 4
  %112 = load i32, i32* %111, align 8
  %113 = icmp eq i32 %112, 0
  br i1 %113, label %116, label %114

114:                                              ; preds = %110
  %115 = getelementptr inbounds %"class.private_membership::rlwe::RlweParameters", %"class.private_membership::rlwe::RlweParameters"* %0, i64 0, i32 4
  store i32 %112, i32* %115, align 8
  br label %116

116:                                              ; preds = %110, %114
  %117 = getelementptr inbounds %"class.private_membership::rlwe::RlweParameters", %"class.private_membership::rlwe::RlweParameters"* %1, i64 0, i32 5
  %118 = load i32, i32* %117, align 4
  %119 = icmp eq i32 %118, 0
  br i1 %119, label %122, label %120

120:                                              ; preds = %116
  %121 = getelementptr inbounds %"class.private_membership::rlwe::RlweParameters", %"class.private_membership::rlwe::RlweParameters"* %0, i64 0, i32 5
  store i32 %118, i32* %121, align 4
  br label %122

122:                                              ; preds = %116, %120
  ret void
}

; Function Attrs: nounwind ssp uwtable
define hidden void @_ZN18private_membership4rlwe33PrivateMembershipRlweOprfResponse8CopyFromERKS1_(%"class.private_membership::rlwe::PrivateMembershipRlweOprfResponse"*, %"class.private_membership::rlwe::PrivateMembershipRlweOprfResponse"* readonly dereferenceable(80)) local_unnamed_addr #0 align 2 {
  %3 = icmp eq %"class.private_membership::rlwe::PrivateMembershipRlweOprfResponse"* %1, %0
  br i1 %3, label %5, label %4

4:                                                ; preds = %2
  tail call void @_ZN18private_membership4rlwe33PrivateMembershipRlweOprfResponse5ClearEv(%"class.private_membership::rlwe::PrivateMembershipRlweOprfResponse"* %0)
  tail call void @_ZN18private_membership4rlwe33PrivateMembershipRlweOprfResponse9MergeFromERKS1_(%"class.private_membership::rlwe::PrivateMembershipRlweOprfResponse"* %0, %"class.private_membership::rlwe::PrivateMembershipRlweOprfResponse"* dereferenceable(80) %1)
  br label %5

5:                                                ; preds = %2, %4
  ret void
}

; Function Attrs: norecurse nounwind readnone ssp uwtable
define hidden zeroext i1 @_ZNK18private_membership4rlwe33PrivateMembershipRlweOprfResponse13IsInitializedEv(%"class.private_membership::rlwe::PrivateMembershipRlweOprfResponse"* nocapture readnone) unnamed_addr #1 align 2 {
  ret i1 true
}

; Function Attrs: nounwind ssp uwtable
define hidden void @_ZN18private_membership4rlwe33PrivateMembershipRlweOprfResponse12InternalSwapEPS1_(%"class.private_membership::rlwe::PrivateMembershipRlweOprfResponse"*, %"class.private_membership::rlwe::PrivateMembershipRlweOprfResponse"*) local_unnamed_addr #0 align 2 {
  %3 = getelementptr inbounds %"class.private_membership::rlwe::PrivateMembershipRlweOprfResponse", %"class.private_membership::rlwe::PrivateMembershipRlweOprfResponse"* %0, i64 0, i32 0, i32 1
  %4 = getelementptr inbounds %"class.private_membership::rlwe::PrivateMembershipRlweOprfResponse", %"class.private_membership::rlwe::PrivateMembershipRlweOprfResponse"* %1, i64 0, i32 0, i32 1
  %5 = bitcast %"class.google::protobuf::internal::InternalMetadata"* %3 to i64*
  %6 = load i64, i64* %5, align 8
  %7 = bitcast %"class.google::protobuf::internal::InternalMetadata"* %4 to i64*
  %8 = load i64, i64* %7, align 8
  %9 = or i64 %8, %6
  %10 = and i64 %9, 1
  %11 = icmp eq i64 %10, 0
  br i1 %11, label %43, label %12

12:                                               ; preds = %2
  %13 = and i64 %8, 1
  %14 = icmp eq i64 %13, 0
  br i1 %14, label %19, label %15, !prof !4

15:                                               ; preds = %12
  %16 = and i64 %8, -2
  %17 = inttoptr i64 %16 to %"struct.google::protobuf::internal::InternalMetadata::Container"*
  %18 = getelementptr inbounds %"struct.google::protobuf::internal::InternalMetadata::Container", %"struct.google::protobuf::internal::InternalMetadata::Container"* %17, i64 0, i32 1
  br label %22

19:                                               ; preds = %12
  %20 = tail call %"class.std::__1::basic_string"* @_ZN6google8protobuf8internal16InternalMetadata27mutable_unknown_fields_slowINSt3__112basic_stringIcNS4_11char_traitsIcEENS4_9allocatorIcEEEEEEPT_v(%"class.google::protobuf::internal::InternalMetadata"* %4) #14
  %21 = load i64, i64* %5, align 8
  br label %22

22:                                               ; preds = %19, %15
  %23 = phi i64 [ %6, %15 ], [ %21, %19 ]
  %24 = phi %"class.std::__1::basic_string"* [ %18, %15 ], [ %20, %19 ]
  %25 = and i64 %23, 1
  %26 = icmp eq i64 %25, 0
  br i1 %26, label %31, label %27, !prof !4

27:                                               ; preds = %22
  %28 = and i64 %23, -2
  %29 = inttoptr i64 %28 to %"struct.google::protobuf::internal::InternalMetadata::Container"*
  %30 = getelementptr inbounds %"struct.google::protobuf::internal::InternalMetadata::Container", %"struct.google::protobuf::internal::InternalMetadata::Container"* %29, i64 0, i32 1
  br label %33

31:                                               ; preds = %22
  %32 = tail call %"class.std::__1::basic_string"* @_ZN6google8protobuf8internal16InternalMetadata27mutable_unknown_fields_slowINSt3__112basic_stringIcNS4_11char_traitsIcEENS4_9allocatorIcEEEEEEPT_v(%"class.google::protobuf::internal::InternalMetadata"* %3) #14
  br label %33

33:                                               ; preds = %31, %27
  %34 = phi %"class.std::__1::basic_string"* [ %30, %27 ], [ %32, %31 ]
  %35 = bitcast %"class.std::__1::basic_string"* %34 to <2 x i64>*
  %36 = load <2 x i64>, <2 x i64>* %35, align 8
  %37 = getelementptr inbounds %"class.std::__1::basic_string", %"class.std::__1::basic_string"* %34, i64 0, i32 0, i32 0, i32 0, i32 0, i32 0, i32 2
  %38 = load i64, i64* %37, align 8
  %39 = bitcast %"class.std::__1::basic_string"* %34 to i8*
  %40 = bitcast %"class.std::__1::basic_string"* %24 to i8*
  tail call void @llvm.memcpy.p0i8.p0i8.i64(i8* align 8 %39, i8* align 8 %40, i64 24, i1 false) #14
  %41 = bitcast %"class.std::__1::basic_string"* %24 to <2 x i64>*
  store <2 x i64> %36, <2 x i64>* %41, align 8
  %42 = getelementptr inbounds %"class.std::__1::basic_string", %"class.std::__1::basic_string"* %24, i64 0, i32 0, i32 0, i32 0, i32 0, i32 0, i32 2
  store i64 %38, i64* %42, align 8
  br label %43

43:                                               ; preds = %2, %33
  %44 = getelementptr inbounds %"class.private_membership::rlwe::PrivateMembershipRlweOprfResponse", %"class.private_membership::rlwe::PrivateMembershipRlweOprfResponse"* %0, i64 0, i32 1, i32 0, i32 1
  %45 = bitcast i32* %44 to i8*
  %46 = getelementptr inbounds %"class.private_membership::rlwe::PrivateMembershipRlweOprfResponse", %"class.private_membership::rlwe::PrivateMembershipRlweOprfResponse"* %1, i64 0, i32 1, i32 0, i32 1
  %47 = bitcast i32* %46 to i8*
  %48 = bitcast i32* %44 to i128*
  %49 = load i128, i128* %48, align 1
  tail call void @llvm.memcpy.p0i8.p0i8.i64(i8* align 1 %45, i8* align 1 %47, i64 16, i1 false) #14
  %50 = bitcast i32* %46 to i128*
  store i128 %49, i128* %50, align 1
  %51 = getelementptr inbounds %"class.private_membership::rlwe::PrivateMembershipRlweOprfResponse", %"class.private_membership::rlwe::PrivateMembershipRlweOprfResponse"* %0, i64 0, i32 2
  %52 = bitcast %"class.private_membership::rlwe::HashedBucketsParameters"** %51 to i8*
  %53 = getelementptr inbounds %"class.private_membership::rlwe::PrivateMembershipRlweOprfResponse", %"class.private_membership::rlwe::PrivateMembershipRlweOprfResponse"* %1, i64 0, i32 2
  %54 = bitcast %"class.private_membership::rlwe::HashedBucketsParameters"** %53 to i8*
  %55 = bitcast %"class.private_membership::rlwe::HashedBucketsParameters"** %51 to i128*
  %56 = load i128, i128* %55, align 1
  tail call void @llvm.memcpy.p0i8.p0i8.i64(i8* align 1 %52, i8* align 1 %54, i64 16, i1 false) #14
  %57 = bitcast %"class.private_membership::rlwe::HashedBucketsParameters"** %53 to i128*
  store i128 %56, i128* %57, align 1
  %58 = getelementptr inbounds %"class.private_membership::rlwe::HashedBucketsParameters"*, %"class.private_membership::rlwe::HashedBucketsParameters"** %51, i64 2
  %59 = bitcast %"class.private_membership::rlwe::HashedBucketsParameters"** %58 to i8*
  %60 = getelementptr inbounds %"class.private_membership::rlwe::HashedBucketsParameters"*, %"class.private_membership::rlwe::HashedBucketsParameters"** %53, i64 2
  %61 = bitcast %"class.private_membership::rlwe::HashedBucketsParameters"** %60 to i8*
  %62 = bitcast %"class.private_membership::rlwe::HashedBucketsParameters"** %58 to i128*
  %63 = load i128, i128* %62, align 1
  tail call void @llvm.memcpy.p0i8.p0i8.i64(i8* align 1 %59, i8* align 1 %61, i64 16, i1 false) #14
  %64 = bitcast %"class.private_membership::rlwe::HashedBucketsParameters"** %60 to i128*
  store i128 %63, i128* %64, align 1
  ret void
}

; Function Attrs: nounwind ssp uwtable
define hidden void @_ZNK18private_membership4rlwe33PrivateMembershipRlweOprfResponse11GetTypeNameEv(%"class.std::__1::basic_string"* noalias sret, %"class.private_membership::rlwe::PrivateMembershipRlweOprfResponse"* nocapture readnone) unnamed_addr #0 align 2 {
  %3 = tail call i8* @_Znwm(i64 64) #15
  %4 = getelementptr inbounds %"class.std::__1::basic_string", %"class.std::__1::basic_string"* %0, i64 0, i32 0, i32 0, i32 0, i32 0, i32 0, i32 0
  store i8* %3, i8** %4, align 8
  %5 = getelementptr inbounds %"class.std::__1::basic_string", %"class.std::__1::basic_string"* %0, i64 0, i32 0, i32 0, i32 0, i32 0, i32 0, i32 1
  %6 = bitcast i64* %5 to <2 x i64>*
  store <2 x i64> <i64 57, i64 -9223372036854775744>, <2 x i64>* %6, align 8
  tail call void @llvm.memcpy.p0i8.p0i8.i64(i8* nonnull align 1 %3, i8* align 1 getelementptr inbounds ([58 x i8], [58 x i8]* @.str.7, i64 0, i64 0), i64 57, i1 false) #14
  %7 = getelementptr inbounds i8, i8* %3, i64 57
  store i8 0, i8* %7, align 1
  ret void
}

; Function Attrs: nounwind ssp uwtable
define hidden void @_ZN18private_membership4rlwe33PrivateMembershipRlweQueryRequestC2EPN6google8protobuf5ArenaE(%"class.private_membership::rlwe::PrivateMembershipRlweQueryRequest"* nocapture, %"class.google::protobuf::Arena"*) unnamed_addr #0 align 2 {
  %3 = getelementptr inbounds %"class.private_membership::rlwe::PrivateMembershipRlweQueryRequest", %"class.private_membership::rlwe::PrivateMembershipRlweQueryRequest"* %0, i64 0, i32 0, i32 0
  %4 = getelementptr inbounds %"class.private_membership::rlwe::PrivateMembershipRlweQueryRequest", %"class.private_membership::rlwe::PrivateMembershipRlweQueryRequest"* %0, i64 0, i32 0, i32 1
  %5 = bitcast %"class.google::protobuf::internal::InternalMetadata"* %4 to %"class.google::protobuf::Arena"**
  store %"class.google::protobuf::Arena"* %1, %"class.google::protobuf::Arena"** %5, align 8
  store i32 (...)** bitcast (i8** getelementptr inbounds ({ [16 x i8*] }, { [16 x i8*] }* @_ZTVN18private_membership4rlwe33PrivateMembershipRlweQueryRequestE, i64 0, inrange i32 0, i64 2) to i32 (...)**), i32 (...)*** %3, align 8
  %6 = getelementptr inbounds %"class.private_membership::rlwe::PrivateMembershipRlweQueryRequest", %"class.private_membership::rlwe::PrivateMembershipRlweQueryRequest"* %0, i64 0, i32 1, i32 0, i32 0
  store %"class.google::protobuf::Arena"* %1, %"class.google::protobuf::Arena"** %6, align 8
  %7 = getelementptr inbounds %"class.private_membership::rlwe::PrivateMembershipRlweQueryRequest", %"class.private_membership::rlwe::PrivateMembershipRlweQueryRequest"* %0, i64 0, i32 1, i32 0, i32 1
  %8 = bitcast i32* %7 to i8*
  tail call void @llvm.memset.p0i8.i64(i8* align 8 %8, i8 0, i64 16, i1 false) #14
  %9 = getelementptr inbounds %"class.private_membership::rlwe::PrivateMembershipRlweQueryRequest", %"class.private_membership::rlwe::PrivateMembershipRlweQueryRequest"* %0, i64 0, i32 4, i32 0, i32 0, i32 0, i32 0, i32 0, i32 0
  store i32 0, i32* %9, align 4
  %10 = load atomic i32, i32* getelementptr inbounds ({ { { { i32 } }, i32, i32, void ()* }, [1 x i8*] }, { { { { i32 } }, i32, i32, void ()* }, [1 x i8*] }* @scc_info_PrivateMembershipRlweQueryRequest_private_5fmembership_5frlwe_2eproto, i64 0, i32 0, i32 0, i32 0, i32 0) acquire, align 8
  %11 = icmp eq i32 %10, 0
  br i1 %11, label %13, label %12, !prof !2

12:                                               ; preds = %2
  tail call void @_ZN6google8protobuf8internal11InitSCCImplEPNS1_11SCCInfoBaseE(%"struct.google::protobuf::internal::SCCInfoBase"* bitcast ({ { { { i32 } }, i32, i32, void ()* }, [1 x i8*] }* @scc_info_PrivateMembershipRlweQueryRequest_private_5fmembership_5frlwe_2eproto to %"struct.google::protobuf::internal::SCCInfoBase"*)) #14
  br label %13

13:                                               ; preds = %2, %12
  %14 = getelementptr inbounds %"class.private_membership::rlwe::PrivateMembershipRlweQueryRequest", %"class.private_membership::rlwe::PrivateMembershipRlweQueryRequest"* %0, i64 0, i32 2
  %15 = bitcast i64* %14 to i8*
  tail call void @llvm.memset.p0i8.i64(i8* align 1 %15, i8 0, i64 12, i1 false) #14
  ret void
}

; Function Attrs: nounwind ssp uwtable
define hidden void @_ZN18private_membership4rlwe33PrivateMembershipRlweQueryRequestC2ERKS1_(%"class.private_membership::rlwe::PrivateMembershipRlweQueryRequest"*, %"class.private_membership::rlwe::PrivateMembershipRlweQueryRequest"* nocapture readonly dereferenceable(56)) unnamed_addr #0 align 2 {
  %3 = getelementptr inbounds %"class.private_membership::rlwe::PrivateMembershipRlweQueryRequest", %"class.private_membership::rlwe::PrivateMembershipRlweQueryRequest"* %0, i64 0, i32 0, i32 0
  %4 = getelementptr inbounds %"class.private_membership::rlwe::PrivateMembershipRlweQueryRequest", %"class.private_membership::rlwe::PrivateMembershipRlweQueryRequest"* %0, i64 0, i32 0, i32 1, i32 0
  store i8* null, i8** %4, align 8
  store i32 (...)** bitcast (i8** getelementptr inbounds ({ [16 x i8*] }, { [16 x i8*] }* @_ZTVN18private_membership4rlwe33PrivateMembershipRlweQueryRequestE, i64 0, inrange i32 0, i64 2) to i32 (...)**), i32 (...)*** %3, align 8
  %5 = getelementptr inbounds %"class.private_membership::rlwe::PrivateMembershipRlweQueryRequest", %"class.private_membership::rlwe::PrivateMembershipRlweQueryRequest"* %0, i64 0, i32 1
  %6 = bitcast %"class.google::protobuf::RepeatedPtrField.32"* %5 to i8*
  tail call void @llvm.memset.p0i8.i64(i8* align 8 %6, i8 0, i64 24, i1 false) #14
  %7 = getelementptr inbounds %"class.private_membership::rlwe::PrivateMembershipRlweQueryRequest", %"class.private_membership::rlwe::PrivateMembershipRlweQueryRequest"* %1, i64 0, i32 1, i32 0, i32 1
  %8 = load i32, i32* %7, align 8
  %9 = icmp eq i32 %8, 0
  br i1 %9, label %65, label %10

10:                                               ; preds = %2
  %11 = getelementptr inbounds %"class.google::protobuf::RepeatedPtrField.32", %"class.google::protobuf::RepeatedPtrField.32"* %5, i64 0, i32 0
  %12 = getelementptr inbounds %"class.private_membership::rlwe::PrivateMembershipRlweQueryRequest", %"class.private_membership::rlwe::PrivateMembershipRlweQueryRequest"* %1, i64 0, i32 1, i32 0, i32 3
  %13 = load %"struct.google::protobuf::internal::RepeatedPtrFieldBase::Rep"*, %"struct.google::protobuf::internal::RepeatedPtrFieldBase::Rep"** %12, align 8
  %14 = tail call i8** @_ZN6google8protobuf8internal20RepeatedPtrFieldBase14InternalExtendEi(%"class.google::protobuf::internal::RepeatedPtrFieldBase"* %11, i32 %8) #14
  %15 = getelementptr inbounds %"class.private_membership::rlwe::PrivateMembershipRlweQueryRequest", %"class.private_membership::rlwe::PrivateMembershipRlweQueryRequest"* %0, i64 0, i32 1, i32 0, i32 3
  %16 = load %"struct.google::protobuf::internal::RepeatedPtrFieldBase::Rep"*, %"struct.google::protobuf::internal::RepeatedPtrFieldBase::Rep"** %15, align 8
  %17 = getelementptr inbounds %"struct.google::protobuf::internal::RepeatedPtrFieldBase::Rep", %"struct.google::protobuf::internal::RepeatedPtrFieldBase::Rep"* %16, i64 0, i32 0
  %18 = load i32, i32* %17, align 8
  %19 = getelementptr inbounds %"class.private_membership::rlwe::PrivateMembershipRlweQueryRequest", %"class.private_membership::rlwe::PrivateMembershipRlweQueryRequest"* %0, i64 0, i32 1, i32 0, i32 1
  %20 = load i32, i32* %19, align 8
  %21 = sub i32 %18, %20
  %22 = icmp sgt i32 %21, 0
  %23 = icmp sgt i32 %8, 0
  %24 = and i1 %23, %22
  br i1 %24, label %25, label %28

25:                                               ; preds = %10
  %26 = sext i32 %8 to i64
  %27 = sext i32 %21 to i64
  br label %34

28:                                               ; preds = %34, %10
  %29 = getelementptr inbounds %"class.google::protobuf::RepeatedPtrField.32", %"class.google::protobuf::RepeatedPtrField.32"* %5, i64 0, i32 0, i32 0
  %30 = load %"class.google::protobuf::Arena"*, %"class.google::protobuf::Arena"** %29, align 8
  %31 = icmp slt i32 %21, %8
  br i1 %31, label %32, label %57

32:                                               ; preds = %28
  %33 = sext i32 %21 to i64
  br label %46

34:                                               ; preds = %34, %25
  %35 = phi i64 [ 0, %25 ], [ %42, %34 ]
  %36 = getelementptr inbounds %"struct.google::protobuf::internal::RepeatedPtrFieldBase::Rep", %"struct.google::protobuf::internal::RepeatedPtrFieldBase::Rep"* %13, i64 0, i32 1, i64 %35
  %37 = bitcast i8** %36 to %"class.private_membership::rlwe::PrivateMembershipRlweQuery"**
  %38 = load %"class.private_membership::rlwe::PrivateMembershipRlweQuery"*, %"class.private_membership::rlwe::PrivateMembershipRlweQuery"** %37, align 8
  %39 = getelementptr inbounds i8*, i8** %14, i64 %35
  %40 = bitcast i8** %39 to %"class.private_membership::rlwe::PrivateMembershipRlweQuery"**
  %41 = load %"class.private_membership::rlwe::PrivateMembershipRlweQuery"*, %"class.private_membership::rlwe::PrivateMembershipRlweQuery"** %40, align 8
  tail call void @_ZN6google8protobuf8internal18GenericTypeHandlerIN18private_membership4rlwe26PrivateMembershipRlweQueryEE5MergeERKS5_PS5_(%"class.private_membership::rlwe::PrivateMembershipRlweQuery"* dereferenceable(48) %38, %"class.private_membership::rlwe::PrivateMembershipRlweQuery"* %41) #14
  %42 = add nuw nsw i64 %35, 1
  %43 = icmp slt i64 %42, %27
  %44 = icmp slt i64 %42, %26
  %45 = and i1 %43, %44
  br i1 %45, label %34, label %28

46:                                               ; preds = %46, %32
  %47 = phi i64 [ %33, %32 ], [ %54, %46 ]
  %48 = getelementptr inbounds %"struct.google::protobuf::internal::RepeatedPtrFieldBase::Rep", %"struct.google::protobuf::internal::RepeatedPtrFieldBase::Rep"* %13, i64 0, i32 1, i64 %47
  %49 = bitcast i8** %48 to %"class.private_membership::rlwe::PrivateMembershipRlweQuery"**
  %50 = load %"class.private_membership::rlwe::PrivateMembershipRlweQuery"*, %"class.private_membership::rlwe::PrivateMembershipRlweQuery"** %49, align 8
  %51 = tail call %"class.private_membership::rlwe::PrivateMembershipRlweQuery"* @_ZN6google8protobuf5Arena18CreateMaybeMessageIN18private_membership4rlwe26PrivateMembershipRlweQueryEJEEEPT_PS1_DpOT0_(%"class.google::protobuf::Arena"* %30) #14
  tail call void @_ZN6google8protobuf8internal18GenericTypeHandlerIN18private_membership4rlwe26PrivateMembershipRlweQueryEE5MergeERKS5_PS5_(%"class.private_membership::rlwe::PrivateMembershipRlweQuery"* dereferenceable(48) %50, %"class.private_membership::rlwe::PrivateMembershipRlweQuery"* %51) #14
  %52 = getelementptr inbounds i8*, i8** %14, i64 %47
  %53 = bitcast i8** %52 to %"class.private_membership::rlwe::PrivateMembershipRlweQuery"**
  store %"class.private_membership::rlwe::PrivateMembershipRlweQuery"* %51, %"class.private_membership::rlwe::PrivateMembershipRlweQuery"** %53, align 8
  %54 = add nsw i64 %47, 1
  %55 = trunc i64 %54 to i32
  %56 = icmp eq i32 %8, %55
  br i1 %56, label %57, label %46

57:                                               ; preds = %46, %28
  %58 = load i32, i32* %19, align 8
  %59 = add nsw i32 %58, %8
  store i32 %59, i32* %19, align 8
  %60 = load %"struct.google::protobuf::internal::RepeatedPtrFieldBase::Rep"*, %"struct.google::protobuf::internal::RepeatedPtrFieldBase::Rep"** %15, align 8
  %61 = getelementptr inbounds %"struct.google::protobuf::internal::RepeatedPtrFieldBase::Rep", %"struct.google::protobuf::internal::RepeatedPtrFieldBase::Rep"* %60, i64 0, i32 0
  %62 = load i32, i32* %61, align 8
  %63 = icmp slt i32 %62, %59
  br i1 %63, label %64, label %65

64:                                               ; preds = %57
  store i32 %59, i32* %61, align 8
  br label %65

65:                                               ; preds = %2, %57, %64
  %66 = getelementptr inbounds %"class.private_membership::rlwe::PrivateMembershipRlweQueryRequest", %"class.private_membership::rlwe::PrivateMembershipRlweQueryRequest"* %0, i64 0, i32 4, i32 0, i32 0, i32 0, i32 0, i32 0, i32 0
  store i32 0, i32* %66, align 4
  %67 = getelementptr inbounds %"class.private_membership::rlwe::PrivateMembershipRlweQueryRequest", %"class.private_membership::rlwe::PrivateMembershipRlweQueryRequest"* %0, i64 0, i32 0, i32 1
  %68 = getelementptr inbounds %"class.private_membership::rlwe::PrivateMembershipRlweQueryRequest", %"class.private_membership::rlwe::PrivateMembershipRlweQueryRequest"* %1, i64 0, i32 0, i32 1
  %69 = bitcast %"class.google::protobuf::internal::InternalMetadata"* %68 to i64*
  %70 = load i64, i64* %69, align 8
  %71 = and i64 %70, 1
  %72 = icmp eq i64 %71, 0
  br i1 %72, label %102, label %73

73:                                               ; preds = %65
  %74 = and i64 %70, -2
  %75 = inttoptr i64 %74 to %"struct.google::protobuf::internal::InternalMetadata::Container"*
  %76 = getelementptr inbounds %"struct.google::protobuf::internal::InternalMetadata::Container", %"struct.google::protobuf::internal::InternalMetadata::Container"* %75, i64 0, i32 1
  %77 = bitcast %"class.google::protobuf::internal::InternalMetadata"* %67 to i64*
  %78 = load i64, i64* %77, align 8
  %79 = and i64 %78, 1
  %80 = icmp eq i64 %79, 0
  br i1 %80, label %85, label %81, !prof !4

81:                                               ; preds = %73
  %82 = and i64 %78, -2
  %83 = inttoptr i64 %82 to %"struct.google::protobuf::internal::InternalMetadata::Container"*
  %84 = getelementptr inbounds %"struct.google::protobuf::internal::InternalMetadata::Container", %"struct.google::protobuf::internal::InternalMetadata::Container"* %83, i64 0, i32 1
  br label %87

85:                                               ; preds = %73
  %86 = tail call %"class.std::__1::basic_string"* @_ZN6google8protobuf8internal16InternalMetadata27mutable_unknown_fields_slowINSt3__112basic_stringIcNS4_11char_traitsIcEENS4_9allocatorIcEEEEEEPT_v(%"class.google::protobuf::internal::InternalMetadata"* %67) #14
  br label %87

87:                                               ; preds = %85, %81
  %88 = phi %"class.std::__1::basic_string"* [ %84, %81 ], [ %86, %85 ]
  %89 = bitcast %"class.std::__1::basic_string"* %76 to %"struct.std::__1::basic_string<char, std::__1::char_traits<char>, std::__1::allocator<char> >::__short"*
  %90 = getelementptr inbounds %"struct.std::__1::basic_string<char, std::__1::char_traits<char>, std::__1::allocator<char> >::__short", %"struct.std::__1::basic_string<char, std::__1::char_traits<char>, std::__1::allocator<char> >::__short"* %89, i64 0, i32 1, i32 0
  %91 = load i8, i8* %90, align 1
  %92 = icmp slt i8 %91, 0
  %93 = getelementptr inbounds %"class.std::__1::basic_string", %"class.std::__1::basic_string"* %76, i64 0, i32 0, i32 0, i32 0, i32 0, i32 0, i32 0
  %94 = load i8*, i8** %93, align 8
  %95 = getelementptr inbounds %"struct.google::protobuf::internal::InternalMetadata::Container", %"struct.google::protobuf::internal::InternalMetadata::Container"* %75, i64 0, i32 1, i32 0, i32 0, i32 0, i32 0, i32 0, i32 1
  %96 = load i64, i64* %95, align 8
  %97 = bitcast %"class.std::__1::basic_string"* %76 to i8*
  %98 = zext i8 %91 to i64
  %99 = select i1 %92, i8* %94, i8* %97
  %100 = select i1 %92, i64 %96, i64 %98
  %101 = tail call dereferenceable(24) %"class.std::__1::basic_string"* @_ZNSt3__112basic_stringIcNS_11char_traitsIcEENS_9allocatorIcEEE6appendEPKcm(%"class.std::__1::basic_string"* %88, i8* %99, i64 %100) #14
  br label %102

102:                                              ; preds = %65, %87
  %103 = getelementptr inbounds %"class.private_membership::rlwe::PrivateMembershipRlweQueryRequest", %"class.private_membership::rlwe::PrivateMembershipRlweQueryRequest"* %0, i64 0, i32 2
  %104 = bitcast i64* %103 to i8*
  %105 = getelementptr inbounds %"class.private_membership::rlwe::PrivateMembershipRlweQueryRequest", %"class.private_membership::rlwe::PrivateMembershipRlweQueryRequest"* %1, i64 0, i32 2
  %106 = bitcast i64* %105 to i8*
  tail call void @llvm.memcpy.p0i8.p0i8.i64(i8* align 8 %104, i8* align 8 %106, i64 12, i1 false)
  ret void
}

; Function Attrs: argmemonly nounwind
declare void @llvm.memcpy.p0i8.p0i8.i64(i8* nocapture writeonly, i8* nocapture readonly, i64, i1 immarg) #2

; Function Attrs: nounwind ssp uwtable
define hidden void @_ZN18private_membership4rlwe33PrivateMembershipRlweQueryRequestD2Ev(%"class.private_membership::rlwe::PrivateMembershipRlweQueryRequest"* nocapture) unnamed_addr #0 align 2 {
  %2 = getelementptr inbounds %"class.private_membership::rlwe::PrivateMembershipRlweQueryRequest", %"class.private_membership::rlwe::PrivateMembershipRlweQueryRequest"* %0, i64 0, i32 0, i32 0
  store i32 (...)** bitcast (i8** getelementptr inbounds ({ [16 x i8*] }, { [16 x i8*] }* @_ZTVN18private_membership4rlwe33PrivateMembershipRlweQueryRequestE, i64 0, inrange i32 0, i64 2) to i32 (...)**), i32 (...)*** %2, align 8
  %3 = getelementptr inbounds %"class.private_membership::rlwe::PrivateMembershipRlweQueryRequest", %"class.private_membership::rlwe::PrivateMembershipRlweQueryRequest"* %0, i64 0, i32 0, i32 1
  %4 = bitcast %"class.google::protobuf::internal::InternalMetadata"* %3 to i64*
  %5 = load i64, i64* %4, align 8
  %6 = and i64 %5, 1
  %7 = icmp eq i64 %6, 0
  br i1 %7, label %28, label %8

8:                                                ; preds = %1
  %9 = and i64 %5, -2
  %10 = inttoptr i64 %9 to %"struct.google::protobuf::internal::InternalMetadata::ContainerBase"*
  %11 = getelementptr inbounds %"struct.google::protobuf::internal::InternalMetadata::ContainerBase", %"struct.google::protobuf::internal::InternalMetadata::ContainerBase"* %10, i64 0, i32 0
  %12 = load %"class.google::protobuf::Arena"*, %"class.google::protobuf::Arena"** %11, align 8
  %13 = icmp ne %"class.google::protobuf::Arena"* %12, null
  %14 = icmp eq i64 %9, 0
  %15 = or i1 %14, %13
  br i1 %15, label %28, label %16

16:                                               ; preds = %8
  %17 = inttoptr i64 %9 to %"struct.google::protobuf::internal::InternalMetadata::Container"*
  %18 = getelementptr inbounds %"struct.google::protobuf::internal::InternalMetadata::Container", %"struct.google::protobuf::internal::InternalMetadata::Container"* %17, i64 0, i32 1
  %19 = bitcast %"class.std::__1::basic_string"* %18 to %"struct.std::__1::basic_string<char, std::__1::char_traits<char>, std::__1::allocator<char> >::__short"*
  %20 = getelementptr inbounds %"struct.std::__1::basic_string<char, std::__1::char_traits<char>, std::__1::allocator<char> >::__short", %"struct.std::__1::basic_string<char, std::__1::char_traits<char>, std::__1::allocator<char> >::__short"* %19, i64 0, i32 1, i32 0
  %21 = load i8, i8* %20, align 1
  %22 = icmp slt i8 %21, 0
  br i1 %22, label %23, label %26

23:                                               ; preds = %16
  %24 = getelementptr inbounds %"class.std::__1::basic_string", %"class.std::__1::basic_string"* %18, i64 0, i32 0, i32 0, i32 0, i32 0, i32 0, i32 0
  %25 = load i8*, i8** %24, align 8
  tail call void @_ZdlPv(i8* %25) #15
  br label %26

26:                                               ; preds = %23, %16
  %27 = inttoptr i64 %9 to i8*
  tail call void @_ZdlPv(i8* %27) #15
  br label %28

28:                                               ; preds = %1, %8, %26
  %29 = getelementptr inbounds %"class.private_membership::rlwe::PrivateMembershipRlweQueryRequest", %"class.private_membership::rlwe::PrivateMembershipRlweQueryRequest"* %0, i64 0, i32 1, i32 0, i32 3
  %30 = load %"struct.google::protobuf::internal::RepeatedPtrFieldBase::Rep"*, %"struct.google::protobuf::internal::RepeatedPtrFieldBase::Rep"** %29, align 8
  %31 = icmp eq %"struct.google::protobuf::internal::RepeatedPtrFieldBase::Rep"* %30, null
  %32 = bitcast %"struct.google::protobuf::internal::RepeatedPtrFieldBase::Rep"* %30 to i8*
  br i1 %31, label %62, label %33

33:                                               ; preds = %28
  %34 = getelementptr inbounds %"class.private_membership::rlwe::PrivateMembershipRlweQueryRequest", %"class.private_membership::rlwe::PrivateMembershipRlweQueryRequest"* %0, i64 0, i32 1, i32 0, i32 0
  %35 = load %"class.google::protobuf::Arena"*, %"class.google::protobuf::Arena"** %34, align 8
  %36 = icmp eq %"class.google::protobuf::Arena"* %35, null
  br i1 %36, label %37, label %62

37:                                               ; preds = %33
  %38 = getelementptr inbounds %"struct.google::protobuf::internal::RepeatedPtrFieldBase::Rep", %"struct.google::protobuf::internal::RepeatedPtrFieldBase::Rep"* %30, i64 0, i32 0
  %39 = load i32, i32* %38, align 8
  %40 = icmp sgt i32 %39, 0
  br i1 %40, label %41, label %46

41:                                               ; preds = %37
  %42 = zext i32 %39 to i64
  br label %48

43:                                               ; preds = %59
  %44 = bitcast %"struct.google::protobuf::internal::RepeatedPtrFieldBase::Rep"** %29 to i8**
  %45 = load i8*, i8** %44, align 8
  br label %46

46:                                               ; preds = %43, %37
  %47 = phi i8* [ %45, %43 ], [ %32, %37 ]
  tail call void @_ZdlPv(i8* %47) #14
  br label %62

48:                                               ; preds = %59, %41
  %49 = phi i64 [ 0, %41 ], [ %60, %59 ]
  %50 = getelementptr inbounds %"struct.google::protobuf::internal::RepeatedPtrFieldBase::Rep", %"struct.google::protobuf::internal::RepeatedPtrFieldBase::Rep"* %30, i64 0, i32 1, i64 %49
  %51 = bitcast i8** %50 to %"class.private_membership::rlwe::PrivateMembershipRlweQuery"**
  %52 = load %"class.private_membership::rlwe::PrivateMembershipRlweQuery"*, %"class.private_membership::rlwe::PrivateMembershipRlweQuery"** %51, align 8
  %53 = icmp eq %"class.private_membership::rlwe::PrivateMembershipRlweQuery"* %52, null
  br i1 %53, label %59, label %54

54:                                               ; preds = %48
  %55 = bitcast %"class.private_membership::rlwe::PrivateMembershipRlweQuery"* %52 to void (%"class.private_membership::rlwe::PrivateMembershipRlweQuery"*)***
  %56 = load void (%"class.private_membership::rlwe::PrivateMembershipRlweQuery"*)**, void (%"class.private_membership::rlwe::PrivateMembershipRlweQuery"*)*** %55, align 8
  %57 = getelementptr inbounds void (%"class.private_membership::rlwe::PrivateMembershipRlweQuery"*)*, void (%"class.private_membership::rlwe::PrivateMembershipRlweQuery"*)** %56, i64 1
  %58 = load void (%"class.private_membership::rlwe::PrivateMembershipRlweQuery"*)*, void (%"class.private_membership::rlwe::PrivateMembershipRlweQuery"*)** %57, align 8
  tail call void %58(%"class.private_membership::rlwe::PrivateMembershipRlweQuery"* nonnull %52) #14
  br label %59

59:                                               ; preds = %54, %48
  %60 = add nuw nsw i64 %49, 1
  %61 = icmp eq i64 %60, %42
  br i1 %61, label %43, label %48

62:                                               ; preds = %28, %33, %46
  store %"struct.google::protobuf::internal::RepeatedPtrFieldBase::Rep"* null, %"struct.google::protobuf::internal::RepeatedPtrFieldBase::Rep"** %29, align 8
  ret void
}

; Function Attrs: nounwind ssp uwtable
define hidden void @_ZN18private_membership4rlwe33PrivateMembershipRlweQueryRequestD0Ev(%"class.private_membership::rlwe::PrivateMembershipRlweQueryRequest"*) unnamed_addr #0 align 2 {
  tail call void @_ZN18private_membership4rlwe33PrivateMembershipRlweQueryRequestD2Ev(%"class.private_membership::rlwe::PrivateMembershipRlweQueryRequest"* %0) #14
  %2 = bitcast %"class.private_membership::rlwe::PrivateMembershipRlweQueryRequest"* %0 to i8*
  tail call void @_ZdlPv(i8* %2) #15
  ret void
}

; Function Attrs: norecurse nounwind readnone ssp uwtable
define hidden void @_ZN18private_membership4rlwe33PrivateMembershipRlweQueryRequest9ArenaDtorEPv(i8* nocapture) local_unnamed_addr #1 align 2 {
  ret void
}

; Function Attrs: nofree norecurse nounwind ssp uwtable
define hidden void @_ZNK18private_membership4rlwe33PrivateMembershipRlweQueryRequest13SetCachedSizeEi(%"class.private_membership::rlwe::PrivateMembershipRlweQueryRequest"* nocapture, i32) local_unnamed_addr #7 align 2 {
  %3 = getelementptr inbounds %"class.private_membership::rlwe::PrivateMembershipRlweQueryRequest", %"class.private_membership::rlwe::PrivateMembershipRlweQueryRequest"* %0, i64 0, i32 4, i32 0, i32 0, i32 0, i32 0, i32 0, i32 0
  store atomic i32 %1, i32* %3 monotonic, align 4
  ret void
}

; Function Attrs: nounwind ssp uwtable
define hidden dereferenceable(56) %"class.private_membership::rlwe::PrivateMembershipRlweQueryRequest"* @_ZN18private_membership4rlwe33PrivateMembershipRlweQueryRequest16default_instanceEv() local_unnamed_addr #0 align 2 {
  %1 = load atomic i32, i32* getelementptr inbounds ({ { { { i32 } }, i32, i32, void ()* }, [1 x i8*] }, { { { { i32 } }, i32, i32, void ()* }, [1 x i8*] }* @scc_info_PrivateMembershipRlweQueryRequest_private_5fmembership_5frlwe_2eproto, i64 0, i32 0, i32 0, i32 0, i32 0) acquire, align 8
  %2 = icmp eq i32 %1, 0
  br i1 %2, label %4, label %3, !prof !2

3:                                                ; preds = %0
  tail call void @_ZN6google8protobuf8internal11InitSCCImplEPNS1_11SCCInfoBaseE(%"struct.google::protobuf::internal::SCCInfoBase"* bitcast ({ { { { i32 } }, i32, i32, void ()* }, [1 x i8*] }* @scc_info_PrivateMembershipRlweQueryRequest_private_5fmembership_5frlwe_2eproto to %"struct.google::protobuf::internal::SCCInfoBase"*)) #14
  br label %4

4:                                                ; preds = %0, %3
  ret %"class.private_membership::rlwe::PrivateMembershipRlweQueryRequest"* bitcast (%"class.private_membership::rlwe::PrivateMembershipRlweQueryRequestDefaultTypeInternal"* @_ZN18private_membership4rlwe52_PrivateMembershipRlweQueryRequest_default_instance_E to %"class.private_membership::rlwe::PrivateMembershipRlweQueryRequest"*)
}

; Function Attrs: nounwind ssp uwtable
define hidden void @_ZN18private_membership4rlwe33PrivateMembershipRlweQueryRequest5ClearEv(%"class.private_membership::rlwe::PrivateMembershipRlweQueryRequest"* nocapture) unnamed_addr #0 align 2 {
  %2 = getelementptr inbounds %"class.private_membership::rlwe::PrivateMembershipRlweQueryRequest", %"class.private_membership::rlwe::PrivateMembershipRlweQueryRequest"* %0, i64 0, i32 1, i32 0, i32 1
  %3 = load i32, i32* %2, align 8
  %4 = icmp sgt i32 %3, 0
  br i1 %4, label %5, label %17

5:                                                ; preds = %1
  %6 = getelementptr inbounds %"class.private_membership::rlwe::PrivateMembershipRlweQueryRequest", %"class.private_membership::rlwe::PrivateMembershipRlweQueryRequest"* %0, i64 0, i32 1, i32 0, i32 3
  %7 = load %"struct.google::protobuf::internal::RepeatedPtrFieldBase::Rep"*, %"struct.google::protobuf::internal::RepeatedPtrFieldBase::Rep"** %6, align 8
  %8 = zext i32 %3 to i64
  br label %9

9:                                                ; preds = %9, %5
  %10 = phi i64 [ %11, %9 ], [ 0, %5 ]
  %11 = add nuw nsw i64 %10, 1
  %12 = getelementptr inbounds %"struct.google::protobuf::internal::RepeatedPtrFieldBase::Rep", %"struct.google::protobuf::internal::RepeatedPtrFieldBase::Rep"* %7, i64 0, i32 1, i64 %10
  %13 = bitcast i8** %12 to %"class.private_membership::rlwe::PrivateMembershipRlweQuery"**
  %14 = load %"class.private_membership::rlwe::PrivateMembershipRlweQuery"*, %"class.private_membership::rlwe::PrivateMembershipRlweQuery"** %13, align 8
  tail call void @_ZN18private_membership4rlwe26PrivateMembershipRlweQuery5ClearEv(%"class.private_membership::rlwe::PrivateMembershipRlweQuery"* %14) #14
  %15 = icmp eq i64 %11, %8
  br i1 %15, label %16, label %9

16:                                               ; preds = %9
  store i32 0, i32* %2, align 8
  br label %17

17:                                               ; preds = %1, %16
  %18 = getelementptr inbounds %"class.private_membership::rlwe::PrivateMembershipRlweQueryRequest", %"class.private_membership::rlwe::PrivateMembershipRlweQueryRequest"* %0, i64 0, i32 2
  %19 = bitcast i64* %18 to i8*
  tail call void @llvm.memset.p0i8.i64(i8* align 8 %19, i8 0, i64 12, i1 false)
  %20 = getelementptr inbounds %"class.private_membership::rlwe::PrivateMembershipRlweQueryRequest", %"class.private_membership::rlwe::PrivateMembershipRlweQueryRequest"* %0, i64 0, i32 0, i32 1
  %21 = bitcast %"class.google::protobuf::internal::InternalMetadata"* %20 to i64*
  %22 = load i64, i64* %21, align 8
  %23 = and i64 %22, 1
  %24 = icmp eq i64 %23, 0
  br i1 %24, label %39, label %25

25:                                               ; preds = %17
  %26 = and i64 %22, -2
  %27 = inttoptr i64 %26 to %"struct.google::protobuf::internal::InternalMetadata::Container"*
  %28 = getelementptr inbounds %"struct.google::protobuf::internal::InternalMetadata::Container", %"struct.google::protobuf::internal::InternalMetadata::Container"* %27, i64 0, i32 1
  %29 = bitcast %"class.std::__1::basic_string"* %28 to %"struct.std::__1::basic_string<char, std::__1::char_traits<char>, std::__1::allocator<char> >::__short"*
  %30 = getelementptr inbounds %"struct.std::__1::basic_string<char, std::__1::char_traits<char>, std::__1::allocator<char> >::__short", %"struct.std::__1::basic_string<char, std::__1::char_traits<char>, std::__1::allocator<char> >::__short"* %29, i64 0, i32 1, i32 0
  %31 = load i8, i8* %30, align 1
  %32 = icmp slt i8 %31, 0
  br i1 %32, label %33, label %37

33:                                               ; preds = %25
  %34 = getelementptr inbounds %"class.std::__1::basic_string", %"class.std::__1::basic_string"* %28, i64 0, i32 0, i32 0, i32 0, i32 0, i32 0, i32 0
  %35 = load i8*, i8** %34, align 8
  store i8 0, i8* %35, align 1
  %36 = getelementptr inbounds %"struct.google::protobuf::internal::InternalMetadata::Container", %"struct.google::protobuf::internal::InternalMetadata::Container"* %27, i64 0, i32 1, i32 0, i32 0, i32 0, i32 0, i32 0, i32 1
  store i64 0, i64* %36, align 8
  br label %39

37:                                               ; preds = %25
  %38 = bitcast %"class.std::__1::basic_string"* %28 to i8*
  store i8 0, i8* %38, align 2
  store i8 0, i8* %30, align 1
  br label %39

39:                                               ; preds = %17, %33, %37
  ret void
}

; Function Attrs: argmemonly nounwind
declare void @llvm.memset.p0i8.i64(i8* nocapture writeonly, i8, i64, i1 immarg) #2

; Function Attrs: nounwind ssp uwtable
define hidden i8* @_ZN18private_membership4rlwe33PrivateMembershipRlweQueryRequest14_InternalParseEPKcPN6google8protobuf8internal12ParseContextE(%"class.private_membership::rlwe::PrivateMembershipRlweQueryRequest"*, i8*, %"class.google::protobuf::internal::ParseContext"*) unnamed_addr #0 align 2 {
  %4 = getelementptr inbounds %"class.google::protobuf::internal::ParseContext", %"class.google::protobuf::internal::ParseContext"* %2, i64 0, i32 0
  %5 = getelementptr inbounds %"class.google::protobuf::internal::ParseContext", %"class.google::protobuf::internal::ParseContext"* %2, i64 0, i32 2
  %6 = getelementptr inbounds %"class.google::protobuf::internal::ParseContext", %"class.google::protobuf::internal::ParseContext"* %2, i64 0, i32 0, i32 0
  %7 = getelementptr inbounds %"class.google::protobuf::internal::ParseContext", %"class.google::protobuf::internal::ParseContext"* %2, i64 0, i32 0, i32 1
  %8 = bitcast i8** %7 to i64*
  %9 = getelementptr inbounds %"class.google::protobuf::internal::ParseContext", %"class.google::protobuf::internal::ParseContext"* %2, i64 0, i32 0, i32 4
  %10 = getelementptr inbounds %"class.private_membership::rlwe::PrivateMembershipRlweQueryRequest", %"class.private_membership::rlwe::PrivateMembershipRlweQueryRequest"* %0, i64 0, i32 2
  %11 = getelementptr inbounds %"class.private_membership::rlwe::PrivateMembershipRlweQueryRequest", %"class.private_membership::rlwe::PrivateMembershipRlweQueryRequest"* %0, i64 0, i32 3
  %12 = getelementptr inbounds %"class.private_membership::rlwe::PrivateMembershipRlweQueryRequest", %"class.private_membership::rlwe::PrivateMembershipRlweQueryRequest"* %0, i64 0, i32 1
  %13 = getelementptr inbounds %"class.google::protobuf::RepeatedPtrField.32", %"class.google::protobuf::RepeatedPtrField.32"* %12, i64 0, i32 0
  %14 = getelementptr inbounds %"class.private_membership::rlwe::PrivateMembershipRlweQueryRequest", %"class.private_membership::rlwe::PrivateMembershipRlweQueryRequest"* %0, i64 0, i32 1, i32 0, i32 3
  %15 = getelementptr inbounds %"class.private_membership::rlwe::PrivateMembershipRlweQueryRequest", %"class.private_membership::rlwe::PrivateMembershipRlweQueryRequest"* %0, i64 0, i32 1, i32 0, i32 1
  %16 = getelementptr inbounds %"class.private_membership::rlwe::PrivateMembershipRlweQueryRequest", %"class.private_membership::rlwe::PrivateMembershipRlweQueryRequest"* %0, i64 0, i32 1, i32 0, i32 2
  %17 = getelementptr inbounds %"class.google::protobuf::RepeatedPtrField.32", %"class.google::protobuf::RepeatedPtrField.32"* %12, i64 0, i32 0, i32 0
  %18 = getelementptr inbounds %"class.private_membership::rlwe::PrivateMembershipRlweQueryRequest", %"class.private_membership::rlwe::PrivateMembershipRlweQueryRequest"* %0, i64 0, i32 0, i32 1
  %19 = bitcast %"class.google::protobuf::internal::InternalMetadata"* %18 to i64*
  br label %20

20:                                               ; preds = %200, %3
  %21 = phi i8* [ %1, %3 ], [ %201, %200 ]
  %22 = load i32, i32* %5, align 4
  %23 = load i8*, i8** %6, align 8
  %24 = icmp ult i8* %21, %23
  br i1 %24, label %38, label %25, !prof !2

25:                                               ; preds = %20
  %26 = load i64, i64* %8, align 8
  %27 = ptrtoint i8* %21 to i64
  %28 = sub i64 %27, %26
  %29 = load i32, i32* %9, align 4
  %30 = sext i32 %29 to i64
  %31 = icmp eq i64 %28, %30
  br i1 %31, label %202, label %32

32:                                               ; preds = %25
  %33 = tail call { i8*, i8 } @_ZN6google8protobuf8internal18EpsCopyInputStream12DoneFallbackEPKci(%"class.google::protobuf::internal::EpsCopyInputStream"* %4, i8* %21, i32 %22) #14
  %34 = extractvalue { i8*, i8 } %33, 0
  %35 = extractvalue { i8*, i8 } %33, 1
  %36 = and i8 %35, 1
  %37 = icmp eq i8 %36, 0
  br i1 %37, label %38, label %202

38:                                               ; preds = %32, %20
  %39 = phi i8* [ %34, %32 ], [ %21, %20 ]
  %40 = load i8, i8* %39, align 1
  %41 = zext i8 %40 to i32
  %42 = icmp sgt i8 %40, -1
  %43 = getelementptr inbounds i8, i8* %39, i64 1
  br i1 %42, label %57, label %44

44:                                               ; preds = %38
  %45 = load i8, i8* %43, align 1
  %46 = zext i8 %45 to i32
  %47 = shl nuw nsw i32 %46, 7
  %48 = add nsw i32 %41, -128
  %49 = add nsw i32 %48, %47
  %50 = icmp sgt i8 %45, -1
  br i1 %50, label %51, label %53

51:                                               ; preds = %44
  %52 = getelementptr inbounds i8, i8* %39, i64 2
  br label %57

53:                                               ; preds = %44
  %54 = tail call { i8*, i32 } @_ZN6google8protobuf8internal15ReadTagFallbackEPKcj(i8* %39, i32 %49) #14
  %55 = extractvalue { i8*, i32 } %54, 0
  %56 = extractvalue { i8*, i32 } %54, 1
  br label %57

57:                                               ; preds = %38, %51, %53
  %58 = phi i32 [ %49, %51 ], [ %56, %53 ], [ %41, %38 ]
  %59 = phi i8* [ %52, %51 ], [ %55, %53 ], [ %43, %38 ]
  %60 = icmp eq i8* %59, null
  br i1 %60, label %202, label %61, !prof !4

61:                                               ; preds = %57
  %62 = lshr i32 %58, 3
  switch i32 %62, label %178 [
    i32 1, label %63
    i32 2, label %118
    i32 3, label %149
  ]

63:                                               ; preds = %61
  %64 = and i32 %58, 255
  %65 = icmp eq i32 %64, 10
  br i1 %65, label %66, label %178, !prof !2

66:                                               ; preds = %63
  %67 = getelementptr inbounds i8, i8* %59, i64 -1
  br label %68

68:                                               ; preds = %115, %66
  %69 = phi i8* [ %67, %66 ], [ %110, %115 ]
  %70 = getelementptr inbounds i8, i8* %69, i64 1
  %71 = load %"struct.google::protobuf::internal::RepeatedPtrFieldBase::Rep"*, %"struct.google::protobuf::internal::RepeatedPtrFieldBase::Rep"** %14, align 8
  %72 = icmp eq %"struct.google::protobuf::internal::RepeatedPtrFieldBase::Rep"* %71, null
  br i1 %72, label %73, label %75

73:                                               ; preds = %68
  %74 = load i32, i32* %16, align 4
  br label %89

75:                                               ; preds = %68
  %76 = load i32, i32* %15, align 8
  %77 = getelementptr inbounds %"struct.google::protobuf::internal::RepeatedPtrFieldBase::Rep", %"struct.google::protobuf::internal::RepeatedPtrFieldBase::Rep"* %71, i64 0, i32 0
  %78 = load i32, i32* %77, align 8
  %79 = icmp slt i32 %76, %78
  br i1 %79, label %80, label %86

80:                                               ; preds = %75
  %81 = add nsw i32 %76, 1
  store i32 %81, i32* %15, align 8
  %82 = sext i32 %76 to i64
  %83 = getelementptr inbounds %"struct.google::protobuf::internal::RepeatedPtrFieldBase::Rep", %"struct.google::protobuf::internal::RepeatedPtrFieldBase::Rep"* %71, i64 0, i32 1, i64 %82
  %84 = bitcast i8** %83 to %"class.private_membership::rlwe::PrivateMembershipRlweQuery"**
  %85 = load %"class.private_membership::rlwe::PrivateMembershipRlweQuery"*, %"class.private_membership::rlwe::PrivateMembershipRlweQuery"** %84, align 8
  br label %108

86:                                               ; preds = %75
  %87 = load i32, i32* %16, align 4
  %88 = icmp eq i32 %78, %87
  br i1 %88, label %89, label %95

89:                                               ; preds = %86, %73
  %90 = phi i32 [ %74, %73 ], [ %78, %86 ]
  %91 = add nsw i32 %90, 1
  tail call void @_ZN6google8protobuf8internal20RepeatedPtrFieldBase7ReserveEi(%"class.google::protobuf::internal::RepeatedPtrFieldBase"* %13, i32 %91) #14
  %92 = load %"struct.google::protobuf::internal::RepeatedPtrFieldBase::Rep"*, %"struct.google::protobuf::internal::RepeatedPtrFieldBase::Rep"** %14, align 8
  %93 = getelementptr inbounds %"struct.google::protobuf::internal::RepeatedPtrFieldBase::Rep", %"struct.google::protobuf::internal::RepeatedPtrFieldBase::Rep"* %92, i64 0, i32 0
  %94 = load i32, i32* %93, align 8
  br label %95

95:                                               ; preds = %89, %86
  %96 = phi i32 [ %94, %89 ], [ %78, %86 ]
  %97 = phi %"struct.google::protobuf::internal::RepeatedPtrFieldBase::Rep"* [ %92, %89 ], [ %71, %86 ]
  %98 = getelementptr inbounds %"struct.google::protobuf::internal::RepeatedPtrFieldBase::Rep", %"struct.google::protobuf::internal::RepeatedPtrFieldBase::Rep"* %97, i64 0, i32 0
  %99 = add nsw i32 %96, 1
  store i32 %99, i32* %98, align 8
  %100 = load %"class.google::protobuf::Arena"*, %"class.google::protobuf::Arena"** %17, align 8
  %101 = tail call %"class.private_membership::rlwe::PrivateMembershipRlweQuery"* @_ZN6google8protobuf5Arena18CreateMaybeMessageIN18private_membership4rlwe26PrivateMembershipRlweQueryEJEEEPT_PS1_DpOT0_(%"class.google::protobuf::Arena"* %100) #14
  %102 = load %"struct.google::protobuf::internal::RepeatedPtrFieldBase::Rep"*, %"struct.google::protobuf::internal::RepeatedPtrFieldBase::Rep"** %14, align 8
  %103 = load i32, i32* %15, align 8
  %104 = add nsw i32 %103, 1
  store i32 %104, i32* %15, align 8
  %105 = sext i32 %103 to i64
  %106 = getelementptr inbounds %"struct.google::protobuf::internal::RepeatedPtrFieldBase::Rep", %"struct.google::protobuf::internal::RepeatedPtrFieldBase::Rep"* %102, i64 0, i32 1, i64 %105
  %107 = bitcast i8** %106 to %"class.private_membership::rlwe::PrivateMembershipRlweQuery"**
  store %"class.private_membership::rlwe::PrivateMembershipRlweQuery"* %101, %"class.private_membership::rlwe::PrivateMembershipRlweQuery"** %107, align 8
  br label %108

108:                                              ; preds = %80, %95
  %109 = phi %"class.private_membership::rlwe::PrivateMembershipRlweQuery"* [ %85, %80 ], [ %101, %95 ]
  %110 = tail call i8* @_ZN6google8protobuf8internal12ParseContext12ParseMessageIN18private_membership4rlwe26PrivateMembershipRlweQueryEEEPKcPT_S8_(%"class.google::protobuf::internal::ParseContext"* %2, %"class.private_membership::rlwe::PrivateMembershipRlweQuery"* %109, i8* %70)
  %111 = icmp eq i8* %110, null
  br i1 %111, label %202, label %112, !prof !4

112:                                              ; preds = %108
  %113 = load i8*, i8** %6, align 8
  %114 = icmp ugt i8* %113, %110
  br i1 %114, label %115, label %200

115:                                              ; preds = %112
  %116 = load i8, i8* %110, align 1
  %117 = icmp eq i8 %116, 10
  br i1 %117, label %68, label %200

118:                                              ; preds = %61
  %119 = and i32 %58, 255
  %120 = icmp eq i32 %119, 16
  br i1 %120, label %121, label %178, !prof !2

121:                                              ; preds = %118
  %122 = load i8, i8* %59, align 1
  %123 = icmp slt i8 %122, 0
  br i1 %123, label %127, label %124

124:                                              ; preds = %121
  %125 = zext i8 %122 to i64
  %126 = getelementptr inbounds i8, i8* %59, i64 1
  br label %143

127:                                              ; preds = %121
  %128 = zext i8 %122 to i32
  %129 = getelementptr inbounds i8, i8* %59, i64 1
  %130 = load i8, i8* %129, align 1
  %131 = zext i8 %130 to i32
  %132 = shl nuw nsw i32 %131, 7
  %133 = add nsw i32 %128, -128
  %134 = add nuw nsw i32 %133, %132
  %135 = icmp slt i8 %130, 0
  br i1 %135, label %139, label %136

136:                                              ; preds = %127
  %137 = zext i32 %134 to i64
  %138 = getelementptr inbounds i8, i8* %59, i64 2
  br label %143

139:                                              ; preds = %127
  %140 = tail call { i8*, i64 } @_ZN6google8protobuf8internal17VarintParseSlow64EPKcj(i8* nonnull %59, i32 %134) #14
  %141 = extractvalue { i8*, i64 } %140, 0
  %142 = extractvalue { i8*, i64 } %140, 1
  br label %143

143:                                              ; preds = %124, %136, %139
  %144 = phi i64 [ %142, %139 ], [ %137, %136 ], [ %125, %124 ]
  %145 = phi i8* [ %141, %139 ], [ %138, %136 ], [ %126, %124 ]
  %146 = icmp eq i8* %145, null
  br i1 %146, label %202, label %147, !prof !4

147:                                              ; preds = %143
  %148 = trunc i64 %144 to i32
  store i32 %148, i32* %11, align 8
  br label %200

149:                                              ; preds = %61
  %150 = and i32 %58, 255
  %151 = icmp eq i32 %150, 24
  br i1 %151, label %152, label %178, !prof !2

152:                                              ; preds = %149
  %153 = load i8, i8* %59, align 1
  %154 = icmp slt i8 %153, 0
  br i1 %154, label %158, label %155

155:                                              ; preds = %152
  %156 = zext i8 %153 to i64
  %157 = getelementptr inbounds i8, i8* %59, i64 1
  br label %174

158:                                              ; preds = %152
  %159 = zext i8 %153 to i32
  %160 = getelementptr inbounds i8, i8* %59, i64 1
  %161 = load i8, i8* %160, align 1
  %162 = zext i8 %161 to i32
  %163 = shl nuw nsw i32 %162, 7
  %164 = add nsw i32 %159, -128
  %165 = add nuw nsw i32 %164, %163
  %166 = icmp slt i8 %161, 0
  br i1 %166, label %170, label %167

167:                                              ; preds = %158
  %168 = zext i32 %165 to i64
  %169 = getelementptr inbounds i8, i8* %59, i64 2
  br label %174

170:                                              ; preds = %158
  %171 = tail call { i8*, i64 } @_ZN6google8protobuf8internal17VarintParseSlow64EPKcj(i8* nonnull %59, i32 %165) #14
  %172 = extractvalue { i8*, i64 } %171, 0
  %173 = extractvalue { i8*, i64 } %171, 1
  br label %174

174:                                              ; preds = %155, %167, %170
  %175 = phi i64 [ %173, %170 ], [ %168, %167 ], [ %156, %155 ]
  %176 = phi i8* [ %172, %170 ], [ %169, %167 ], [ %157, %155 ]
  store i64 %175, i64* %10, align 8
  %177 = icmp eq i8* %176, null
  br i1 %177, label %202, label %200

178:                                              ; preds = %61, %149, %118, %63
  %179 = and i32 %58, 7
  %180 = icmp eq i32 %179, 4
  %181 = icmp eq i32 %58, 0
  %182 = or i1 %181, %180
  br i1 %182, label %183, label %186

183:                                              ; preds = %178
  %184 = add i32 %58, -1
  %185 = getelementptr inbounds %"class.google::protobuf::internal::ParseContext", %"class.google::protobuf::internal::ParseContext"* %2, i64 0, i32 0, i32 8
  store i32 %184, i32* %185, align 8
  br label %202

186:                                              ; preds = %178
  %187 = load i64, i64* %19, align 8
  %188 = and i64 %187, 1
  %189 = icmp eq i64 %188, 0
  br i1 %189, label %194, label %190, !prof !4

190:                                              ; preds = %186
  %191 = and i64 %187, -2
  %192 = inttoptr i64 %191 to %"struct.google::protobuf::internal::InternalMetadata::Container"*
  %193 = getelementptr inbounds %"struct.google::protobuf::internal::InternalMetadata::Container", %"struct.google::protobuf::internal::InternalMetadata::Container"* %192, i64 0, i32 1
  br label %196

194:                                              ; preds = %186
  %195 = tail call %"class.std::__1::basic_string"* @_ZN6google8protobuf8internal16InternalMetadata27mutable_unknown_fields_slowINSt3__112basic_stringIcNS4_11char_traitsIcEENS4_9allocatorIcEEEEEEPT_v(%"class.google::protobuf::internal::InternalMetadata"* %18) #14
  br label %196

196:                                              ; preds = %190, %194
  %197 = phi %"class.std::__1::basic_string"* [ %193, %190 ], [ %195, %194 ]
  %198 = tail call i8* @_ZN6google8protobuf8internal17UnknownFieldParseEjPNSt3__112basic_stringIcNS2_11char_traitsIcEENS2_9allocatorIcEEEEPKcPNS1_12ParseContextE(i32 %58, %"class.std::__1::basic_string"* %197, i8* nonnull %59, %"class.google::protobuf::internal::ParseContext"* %2) #14
  %199 = icmp eq i8* %198, null
  br i1 %199, label %202, label %200

200:                                              ; preds = %115, %112, %196, %174, %147
  %201 = phi i8* [ %198, %196 ], [ %176, %174 ], [ %145, %147 ], [ %110, %112 ], [ %110, %115 ]
  br label %20

202:                                              ; preds = %32, %196, %174, %25, %143, %57, %108, %183
  %203 = phi i8* [ %59, %183 ], [ null, %108 ], [ null, %196 ], [ null, %174 ], [ %21, %25 ], [ null, %143 ], [ null, %57 ], [ %34, %32 ]
  ret i8* %203
}

; Function Attrs: nounwind ssp uwtable
define linkonce_odr hidden i8* @_ZN6google8protobuf8internal12ParseContext12ParseMessageIN18private_membership4rlwe26PrivateMembershipRlweQueryEEEPKcPT_S8_(%"class.google::protobuf::internal::ParseContext"*, %"class.private_membership::rlwe::PrivateMembershipRlweQuery"*, i8*) local_unnamed_addr #0 comdat align 2 {
  %4 = load i8, i8* %2, align 1
  %5 = zext i8 %4 to i32
  %6 = icmp sgt i8 %4, -1
  br i1 %6, label %7, label %9

7:                                                ; preds = %3
  %8 = getelementptr inbounds i8, i8* %2, i64 1
  br label %13

9:                                                ; preds = %3
  %10 = tail call { i8*, i32 } @_ZN6google8protobuf8internal16ReadSizeFallbackEPKcj(i8* %2, i32 %5) #14
  %11 = extractvalue { i8*, i32 } %10, 0
  %12 = extractvalue { i8*, i32 } %10, 1
  br label %13

13:                                               ; preds = %7, %9
  %14 = phi i8* [ %11, %9 ], [ %8, %7 ]
  %15 = phi i32 [ %12, %9 ], [ %5, %7 ]
  %16 = icmp eq i8* %14, null
  br i1 %16, label %55, label %17

17:                                               ; preds = %13
  %18 = getelementptr inbounds %"class.google::protobuf::internal::ParseContext", %"class.google::protobuf::internal::ParseContext"* %0, i64 0, i32 0, i32 1
  %19 = bitcast i8** %18 to i64*
  %20 = load i64, i64* %19, align 8
  %21 = ptrtoint i8* %14 to i64
  %22 = sub i64 %21, %20
  %23 = trunc i64 %22 to i32
  %24 = add nsw i32 %15, %23
  %25 = inttoptr i64 %20 to i8*
  %26 = icmp slt i32 %24, 0
  %27 = select i1 %26, i32 %24, i32 0
  %28 = sext i32 %27 to i64
  %29 = getelementptr inbounds i8, i8* %25, i64 %28
  %30 = getelementptr inbounds %"class.google::protobuf::internal::ParseContext", %"class.google::protobuf::internal::ParseContext"* %0, i64 0, i32 0, i32 0
  store i8* %29, i8** %30, align 8
  %31 = getelementptr inbounds %"class.google::protobuf::internal::ParseContext", %"class.google::protobuf::internal::ParseContext"* %0, i64 0, i32 0, i32 4
  %32 = load i32, i32* %31, align 4
  store i32 %24, i32* %31, align 4
  %33 = sub nsw i32 %32, %24
  %34 = getelementptr inbounds %"class.google::protobuf::internal::ParseContext", %"class.google::protobuf::internal::ParseContext"* %0, i64 0, i32 1
  %35 = load i32, i32* %34, align 8
  %36 = add nsw i32 %35, -1
  store i32 %36, i32* %34, align 8
  %37 = icmp slt i32 %35, 1
  br i1 %37, label %55, label %38

38:                                               ; preds = %17
  %39 = tail call i8* @_ZN18private_membership4rlwe26PrivateMembershipRlweQuery14_InternalParseEPKcPN6google8protobuf8internal12ParseContextE(%"class.private_membership::rlwe::PrivateMembershipRlweQuery"* %1, i8* nonnull %14, %"class.google::protobuf::internal::ParseContext"* %0)
  %40 = icmp eq i8* %39, null
  br i1 %40, label %55, label %41, !prof !4

41:                                               ; preds = %38
  %42 = load i32, i32* %34, align 8
  %43 = add nsw i32 %42, 1
  store i32 %43, i32* %34, align 8
  %44 = getelementptr inbounds %"class.google::protobuf::internal::ParseContext", %"class.google::protobuf::internal::ParseContext"* %0, i64 0, i32 0, i32 8
  %45 = load i32, i32* %44, align 8
  %46 = icmp eq i32 %45, 0
  br i1 %46, label %47, label %55, !prof !2

47:                                               ; preds = %41
  %48 = load i32, i32* %31, align 4
  %49 = add nsw i32 %48, %33
  store i32 %49, i32* %31, align 4
  %50 = load i8*, i8** %18, align 8
  %51 = icmp slt i32 %49, 0
  %52 = select i1 %51, i32 %49, i32 0
  %53 = sext i32 %52 to i64
  %54 = getelementptr inbounds i8, i8* %50, i64 %53
  store i8* %54, i8** %30, align 8
  br label %55

55:                                               ; preds = %13, %38, %17, %41, %47
  %56 = phi i8* [ %39, %47 ], [ null, %41 ], [ null, %17 ], [ null, %38 ], [ null, %13 ]
  ret i8* %56
}

; Function Attrs: nounwind ssp uwtable
define hidden i8* @_ZNK18private_membership4rlwe33PrivateMembershipRlweQueryRequest18_InternalSerializeEPhPN6google8protobuf2io19EpsCopyOutputStreamE(%"class.private_membership::rlwe::PrivateMembershipRlweQueryRequest"* nocapture readonly, i8*, %"class.google::protobuf::io::EpsCopyOutputStream"*) unnamed_addr #0 align 2 {
