; ModuleID = 'gen/third_party/perfetto/protos/perfetto/trace/profiling/profile_packet.pb.cc'
source_filename = "gen/third_party/perfetto/protos/perfetto/trace/profiling/profile_packet.pb.cc"
target datalayout = "e-m:e-i64:64-f80:128-n8:16:32:64-S128"
target triple = "x86_64-unknown-linux-gnu"

module asm ".symver exp, exp@GLIBC_2.2.5"
module asm ".symver exp2, exp2@GLIBC_2.2.5"
module asm ".symver exp2f, exp2f@GLIBC_2.2.5"
module asm ".symver expf, expf@GLIBC_2.2.5"
module asm ".symver lgamma, lgamma@GLIBC_2.2.5"
module asm ".symver lgammaf, lgammaf@GLIBC_2.2.5"
module asm ".symver lgammal, lgammal@GLIBC_2.2.5"
module asm ".symver log, log@GLIBC_2.2.5"
module asm ".symver log2, log2@GLIBC_2.2.5"
module asm ".symver log2f, log2f@GLIBC_2.2.5"
module asm ".symver logf, logf@GLIBC_2.2.5"
module asm ".symver pow, pow@GLIBC_2.2.5"
module asm ".symver powf, powf@GLIBC_2.2.5"

%"class.perfetto::protos::ProfilePacket_HeapSampleDefaultTypeInternal" = type { %"class.google::protobuf::internal::ExplicitlyConstructed" }
%"class.google::protobuf::internal::ExplicitlyConstructed" = type { %"union.google::protobuf::internal::ExplicitlyConstructed<perfetto::protos::ProfilePacket_HeapSample>::AlignedUnion" }
%"union.google::protobuf::internal::ExplicitlyConstructed<perfetto::protos::ProfilePacket_HeapSample>::AlignedUnion" = type { i64, [80 x i8] }
%"class.perfetto::protos::ProfilePacket_Histogram_BucketDefaultTypeInternal" = type { %"class.google::protobuf::internal::ExplicitlyConstructed.0" }
%"class.google::protobuf::internal::ExplicitlyConstructed.0" = type { %"union.google::protobuf::internal::ExplicitlyConstructed<perfetto::protos::ProfilePacket_Histogram_Bucket>::AlignedUnion" }
%"union.google::protobuf::internal::ExplicitlyConstructed<perfetto::protos::ProfilePacket_Histogram_Bucket>::AlignedUnion" = type { i64, [40 x i8] }
%"class.perfetto::protos::ProfilePacket_HistogramDefaultTypeInternal" = type { %"class.google::protobuf::internal::ExplicitlyConstructed.1" }
%"class.google::protobuf::internal::ExplicitlyConstructed.1" = type { %"union.google::protobuf::internal::ExplicitlyConstructed<perfetto::protos::ProfilePacket_Histogram>::AlignedUnion" }
%"union.google::protobuf::internal::ExplicitlyConstructed<perfetto::protos::ProfilePacket_Histogram>::AlignedUnion" = type { i64, [40 x i8] }
%"class.perfetto::protos::ProfilePacket_ProcessStatsDefaultTypeInternal" = type { %"class.google::protobuf::internal::ExplicitlyConstructed.2" }
%"class.google::protobuf::internal::ExplicitlyConstructed.2" = type { %"union.google::protobuf::internal::ExplicitlyConstructed<perfetto::protos::ProfilePacket_ProcessStats>::AlignedUnion" }
%"union.google::protobuf::internal::ExplicitlyConstructed<perfetto::protos::ProfilePacket_ProcessStats>::AlignedUnion" = type { i64, [64 x i8] }
%"class.perfetto::protos::ProfilePacket_ProcessHeapSamplesDefaultTypeInternal" = type { %"class.google::protobuf::internal::ExplicitlyConstructed.3" }
%"class.google::protobuf::internal::ExplicitlyConstructed.3" = type { %"union.google::protobuf::internal::ExplicitlyConstructed<perfetto::protos::ProfilePacket_ProcessHeapSamples>::AlignedUnion" }
%"union.google::protobuf::internal::ExplicitlyConstructed<perfetto::protos::ProfilePacket_ProcessHeapSamples>::AlignedUnion" = type { i64, [104 x i8] }
%"class.perfetto::protos::ProfilePacketDefaultTypeInternal" = type { %"class.google::protobuf::internal::ExplicitlyConstructed.4" }
%"class.google::protobuf::internal::ExplicitlyConstructed.4" = type { %"union.google::protobuf::internal::ExplicitlyConstructed<perfetto::protos::ProfilePacket>::AlignedUnion" }
%"union.google::protobuf::internal::ExplicitlyConstructed<perfetto::protos::ProfilePacket>::AlignedUnion" = type { i64, [152 x i8] }
%"class.perfetto::protos::StreamingAllocationDefaultTypeInternal" = type { %"class.google::protobuf::internal::ExplicitlyConstructed.5" }
%"class.google::protobuf::internal::ExplicitlyConstructed.5" = type { %"union.google::protobuf::internal::ExplicitlyConstructed<perfetto::protos::StreamingAllocation>::AlignedUnion" }
%"union.google::protobuf::internal::ExplicitlyConstructed<perfetto::protos::StreamingAllocation>::AlignedUnion" = type { i64, [112 x i8] }
%"class.perfetto::protos::StreamingFreeDefaultTypeInternal" = type { %"class.google::protobuf::internal::ExplicitlyConstructed.6" }
%"class.google::protobuf::internal::ExplicitlyConstructed.6" = type { %"union.google::protobuf::internal::ExplicitlyConstructed<perfetto::protos::StreamingFree>::AlignedUnion" }
%"union.google::protobuf::internal::ExplicitlyConstructed<perfetto::protos::StreamingFree>::AlignedUnion" = type { i64, [64 x i8] }
%"class.perfetto::protos::StreamingProfilePacketDefaultTypeInternal" = type { %"class.google::protobuf::internal::ExplicitlyConstructed.7" }
%"class.google::protobuf::internal::ExplicitlyConstructed.7" = type { %"union.google::protobuf::internal::ExplicitlyConstructed<perfetto::protos::StreamingProfilePacket>::AlignedUnion" }
%"union.google::protobuf::internal::ExplicitlyConstructed<perfetto::protos::StreamingProfilePacket>::AlignedUnion" = type { i64, [56 x i8] }
%"class.perfetto::protos::ProfilingDefaultTypeInternal" = type { %"class.google::protobuf::internal::ExplicitlyConstructed.8" }
%"class.google::protobuf::internal::ExplicitlyConstructed.8" = type { %"union.google::protobuf::internal::ExplicitlyConstructed<perfetto::protos::Profiling>::AlignedUnion" }
%"union.google::protobuf::internal::ExplicitlyConstructed<perfetto::protos::Profiling>::AlignedUnion" = type { i64, [16 x i8] }
%"class.perfetto::protos::PerfSample_ProducerEventDefaultTypeInternal" = type { %"class.google::protobuf::internal::ExplicitlyConstructed.9" }
%"class.google::protobuf::internal::ExplicitlyConstructed.9" = type { %"union.google::protobuf::internal::ExplicitlyConstructed<perfetto::protos::PerfSample_ProducerEvent>::AlignedUnion" }
%"union.google::protobuf::internal::ExplicitlyConstructed<perfetto::protos::PerfSample_ProducerEvent>::AlignedUnion" = type { i64, [24 x i8] }
%"class.perfetto::protos::PerfSampleDefaultTypeInternal" = type { %"class.google::protobuf::internal::ExplicitlyConstructed.10" }
%"class.google::protobuf::internal::ExplicitlyConstructed.10" = type { %"union.google::protobuf::internal::ExplicitlyConstructed<perfetto::protos::PerfSample>::AlignedUnion" }
%"union.google::protobuf::internal::ExplicitlyConstructed<perfetto::protos::PerfSample>::AlignedUnion" = type { i64, [80 x i8] }
%"class.perfetto::protos::PerfSampleDefaultsDefaultTypeInternal" = type { %"class.google::protobuf::internal::ExplicitlyConstructed.11" }
%"class.google::protobuf::internal::ExplicitlyConstructed.11" = type { %"union.google::protobuf::internal::ExplicitlyConstructed<perfetto::protos::PerfSampleDefaults>::AlignedUnion" }
%"union.google::protobuf::internal::ExplicitlyConstructed<perfetto::protos::PerfSampleDefaults>::AlignedUnion" = type { i64, [24 x i8] }
%"struct.google::protobuf::internal::SCCInfo.13" = type { %"struct.google::protobuf::internal::SCCInfoBase", [1 x i8*] }
%"struct.google::protobuf::internal::SCCInfoBase" = type { %"struct.std::__1::atomic", i32, i32, void ()* }
%"struct.std::__1::atomic" = type { %"struct.std::__1::__atomic_base" }
%"struct.std::__1::__atomic_base" = type { %"struct.std::__1::__atomic_base.12" }
%"struct.std::__1::__atomic_base.12" = type { %"struct.std::__1::__cxx_atomic_impl" }
%"struct.std::__1::__cxx_atomic_impl" = type { %"struct.std::__1::__cxx_atomic_base_impl" }
%"struct.std::__1::__cxx_atomic_base_impl" = type { i32 }
%"struct.google::protobuf::internal::SCCInfo" = type { %"struct.google::protobuf::internal::SCCInfoBase", [0 x i8*] }
%"struct.google::protobuf::internal::EnumEntry" = type <{ %"class.google::protobuf::StringPiece", i32, [4 x i8] }>
%"class.google::protobuf::StringPiece" = type { i8*, i64 }
%"class.google::protobuf::internal::ExplicitlyConstructed.17" = type { %"union.google::protobuf::internal::ExplicitlyConstructed<std::__1::basic_string<char, std::__1::char_traits<char>, std::__1::allocator<char> > >::AlignedUnion" }
%"union.google::protobuf::internal::ExplicitlyConstructed<std::__1::basic_string<char, std::__1::char_traits<char>, std::__1::allocator<char> > >::AlignedUnion" = type { i64, [16 x i8] }
%"class.perfetto::protos::PerfEvents_TimebaseDefaultTypeInternal" = type opaque
%"class.perfetto::protos::ProfilePacket_HeapSample" = type { %"class.google::protobuf::MessageLite", %"class.google::protobuf::internal::HasBits", %"class.google::protobuf::internal::CachedSize", i64, i64, i64, i64, i64, i64, i64, i64 }
%"class.google::protobuf::MessageLite" = type { i32 (...)**, %"class.google::protobuf::internal::InternalMetadata" }
%"class.google::protobuf::internal::InternalMetadata" = type { i8* }
%"class.google::protobuf::internal::HasBits" = type { [1 x i32] }
%"class.google::protobuf::internal::CachedSize" = type { %"struct.std::__1::atomic" }
%"class.google::protobuf::Arena" = type { %"class.google::protobuf::internal::ArenaImpl", void (%"class.std::type_info"*, i64, i8*)*, void (%"class.google::protobuf::Arena"*, i8*, i64)*, void (%"class.google::protobuf::Arena"*, i8*, i64)*, i8* }
%"class.google::protobuf::internal::ArenaImpl" = type { %"struct.std::__1::atomic.18", %"struct.std::__1::atomic.18", %"struct.std::__1::atomic.22", %"class.google::protobuf::internal::ArenaImpl::Block"*, i64, %"struct.google::protobuf::internal::ArenaImpl::Options" }
%"struct.std::__1::atomic.18" = type { %"struct.std::__1::__atomic_base.19" }
%"struct.std::__1::__atomic_base.19" = type { %"struct.std::__1::__cxx_atomic_impl.20" }
%"struct.std::__1::__cxx_atomic_impl.20" = type { %"struct.std::__1::__cxx_atomic_base_impl.21" }
%"struct.std::__1::__cxx_atomic_base_impl.21" = type { %"class.google::protobuf::internal::ArenaImpl::SerialArena"* }
%"class.google::protobuf::internal::ArenaImpl::SerialArena" = type { %"class.google::protobuf::internal::ArenaImpl"*, i8*, %"class.google::protobuf::internal::ArenaImpl::Block"*, %"struct.google::protobuf::internal::ArenaImpl::CleanupChunk"*, %"class.google::protobuf::internal::ArenaImpl::SerialArena"*, i8*, i8*, %"struct.google::protobuf::internal::ArenaImpl::CleanupNode"*, %"struct.google::protobuf::internal::ArenaImpl::CleanupNode"* }
%"struct.google::protobuf::internal::ArenaImpl::CleanupChunk" = type { i64, %"struct.google::protobuf::internal::ArenaImpl::CleanupChunk"*, [1 x %"struct.google::protobuf::internal::ArenaImpl::CleanupNode"] }
%"struct.google::protobuf::internal::ArenaImpl::CleanupNode" = type { i8*, void (i8*)* }
%"struct.std::__1::atomic.22" = type { %"struct.std::__1::__atomic_base.23" }
%"struct.std::__1::__atomic_base.23" = type { %"struct.std::__1::__atomic_base.24" }
%"struct.std::__1::__atomic_base.24" = type { %"struct.std::__1::__cxx_atomic_impl.25" }
%"struct.std::__1::__cxx_atomic_impl.25" = type { %"struct.std::__1::__cxx_atomic_base_impl.26" }
%"struct.std::__1::__cxx_atomic_base_impl.26" = type { i64 }
%"class.google::protobuf::internal::ArenaImpl::Block" = type { %"class.google::protobuf::internal::ArenaImpl::Block"*, i64, i64 }
%"struct.google::protobuf::internal::ArenaImpl::Options" = type { i64, i64, i8*, i64, i8* (i64)*, void (i8*, i64)* }
%"class.std::type_info" = type { i32 (...)**, i8* }
%"class.perfetto::protos::ProfilePacket_Histogram_Bucket" = type <{ %"class.google::protobuf::MessageLite", %"class.google::protobuf::internal::HasBits", %"class.google::protobuf::internal::CachedSize", i64, i64, i8, [7 x i8] }>
%"class.perfetto::protos::ProfilePacket_Histogram" = type <{ %"class.google::protobuf::MessageLite", %"class.google::protobuf::RepeatedPtrField", %"class.google::protobuf::internal::CachedSize", [4 x i8] }>
%"class.google::protobuf::RepeatedPtrField" = type { %"class.google::protobuf::internal::RepeatedPtrFieldBase" }
%"class.google::protobuf::internal::RepeatedPtrFieldBase" = type { %"class.google::protobuf::Arena"*, i32, i32, %"struct.google::protobuf::internal::RepeatedPtrFieldBase::Rep"* }
%"struct.google::protobuf::internal::RepeatedPtrFieldBase::Rep" = type { i32, [268435454 x i8*] }
%"class.perfetto::protos::ProfilePacket_ProcessStats" = type { %"class.google::protobuf::MessageLite", %"class.google::protobuf::internal::HasBits", %"class.google::protobuf::internal::CachedSize", %"class.perfetto::protos::ProfilePacket_Histogram"*, i64, i64, i64, i64, i64 }
%"class.perfetto::protos::ProfilePacket_ProcessHeapSamples" = type <{ %"class.google::protobuf::MessageLite", %"class.google::protobuf::internal::HasBits", %"class.google::protobuf::internal::CachedSize", %"class.google::protobuf::RepeatedPtrField.27", %"struct.google::protobuf::internal::ArenaStringPtr", %"class.perfetto::protos::ProfilePacket_ProcessStats"*, i64, i8, i8, i8, i8, i8, i8, [2 x i8], i64, i64, i64, i32, [4 x i8] }>
%"class.google::protobuf::RepeatedPtrField.27" = type { %"class.google::protobuf::internal::RepeatedPtrFieldBase" }
%"struct.google::protobuf::internal::ArenaStringPtr" = type { %"class.std::__1::basic_string"* }
%"class.std::__1::basic_string" = type { %"class.std::__1::__compressed_pair" }
%"class.std::__1::__compressed_pair" = type { %"struct.std::__1::__compressed_pair_elem" }
%"struct.std::__1::__compressed_pair_elem" = type { %"struct.std::__1::basic_string<char, std::__1::char_traits<char>, std::__1::allocator<char> >::__rep" }
%"struct.std::__1::basic_string<char, std::__1::char_traits<char>, std::__1::allocator<char> >::__rep" = type { %union.anon }
%union.anon = type { %"struct.std::__1::basic_string<char, std::__1::char_traits<char>, std::__1::allocator<char> >::__long" }
%"struct.std::__1::basic_string<char, std::__1::char_traits<char>, std::__1::allocator<char> >::__long" = type { i8*, i64, i64 }
%"class.perfetto::protos::ProfilePacket" = type <{ %"class.google::protobuf::MessageLite", %"class.google::protobuf::internal::HasBits", %"class.google::protobuf::internal::CachedSize", %"class.google::protobuf::RepeatedPtrField.29", %"class.google::protobuf::RepeatedPtrField.30", %"class.google::protobuf::RepeatedPtrField.31", %"class.google::protobuf::RepeatedPtrField.32", %"class.google::protobuf::RepeatedPtrField.33", i64, i8, [7 x i8] }>
%"class.google::protobuf::RepeatedPtrField.29" = type { %"class.google::protobuf::internal::RepeatedPtrFieldBase" }
%"class.google::protobuf::RepeatedPtrField.30" = type { %"class.google::protobuf::internal::RepeatedPtrFieldBase" }
%"class.google::protobuf::RepeatedPtrField.31" = type { %"class.google::protobuf::internal::RepeatedPtrFieldBase" }
%"class.google::protobuf::RepeatedPtrField.32" = type { %"class.google::protobuf::internal::RepeatedPtrFieldBase" }
%"class.google::protobuf::RepeatedPtrField.33" = type { %"class.google::protobuf::internal::RepeatedPtrFieldBase" }
%"class.perfetto::protos::StreamingAllocation" = type <{ %"class.google::protobuf::MessageLite", %"class.google::protobuf::RepeatedField", %"class.google::protobuf::RepeatedField", %"class.google::protobuf::RepeatedField", %"class.google::protobuf::RepeatedField", %"class.google::protobuf::RepeatedField.39", %"class.google::protobuf::RepeatedField", %"class.google::protobuf::internal::CachedSize", [4 x i8] }>
%"class.google::protobuf::RepeatedField.39" = type { i32, i32, i8* }
%"class.google::protobuf::RepeatedField" = type { i32, i32, i8* }
%"class.perfetto::protos::StreamingFree" = type <{ %"class.google::protobuf::MessageLite", %"class.google::protobuf::RepeatedField", %"class.google::protobuf::RepeatedField.39", %"class.google::protobuf::RepeatedField", %"class.google::protobuf::internal::CachedSize", [4 x i8] }>
%"class.perfetto::protos::StreamingProfilePacket" = type <{ %"class.google::protobuf::MessageLite", %"class.google::protobuf::internal::HasBits", %"class.google::protobuf::internal::CachedSize", %"class.google::protobuf::RepeatedField", %"class.google::protobuf::RepeatedField.40", i32, [4 x i8] }>
%"class.google::protobuf::RepeatedField.40" = type { i32, i32, i8* }
%"class.perfetto::protos::Profiling" = type <{ %"class.google::protobuf::MessageLite", %"class.google::protobuf::internal::CachedSize", [4 x i8] }>
%"class.perfetto::protos::PerfSample_ProducerEvent" = type <{ %"class.google::protobuf::MessageLite", %"union.perfetto::protos::PerfSample_ProducerEvent::OptionalSourceStopReasonUnion", %"class.google::protobuf::internal::CachedSize", [1 x i32], [4 x i8] }>
%"union.perfetto::protos::PerfSample_ProducerEvent::OptionalSourceStopReasonUnion" = type { i32 }
%"class.perfetto::protos::PerfSample" = type { %"class.google::protobuf::MessageLite", %"class.google::protobuf::internal::HasBits", %"class.google::protobuf::internal::CachedSize", %"class.perfetto::protos::PerfSample_ProducerEvent"*, i32, i32, i64, i32, i32, i64, i64, %"union.perfetto::protos::PerfSample::OptionalUnwindErrorUnion", %"union.perfetto::protos::PerfSample::OptionalSampleSkippedReasonUnion", [2 x i32] }
%"union.perfetto::protos::PerfSample::OptionalUnwindErrorUnion" = type { i32 }
%"union.perfetto::protos::PerfSample::OptionalSampleSkippedReasonUnion" = type { i32 }
%"class.perfetto::protos::PerfSampleDefaults" = type { %"class.google::protobuf::MessageLite", %"class.google::protobuf::internal::HasBits", %"class.google::protobuf::internal::CachedSize", %"class.perfetto::protos::PerfEvents_Timebase"* }
%"class.perfetto::protos::PerfEvents_Timebase" = type <{ %"class.google::protobuf::MessageLite", %"union.perfetto::protos::PerfEvents_Timebase::IntervalUnion", %"union.perfetto::protos::PerfEvents_Timebase::EventUnion", %"class.google::protobuf::internal::CachedSize", [2 x i32], [4 x i8] }>
%"union.perfetto::protos::PerfEvents_Timebase::IntervalUnion" = type { i64 }
%"union.perfetto::protos::PerfEvents_Timebase::EventUnion" = type { %"class.perfetto::protos::PerfEvents_Tracepoint"* }
%"class.perfetto::protos::PerfEvents_Tracepoint" = type { %"class.google::protobuf::MessageLite", %"class.google::protobuf::internal::HasBits", %"class.google::protobuf::internal::CachedSize", %"struct.google::protobuf::internal::ArenaStringPtr", %"struct.google::protobuf::internal::ArenaStringPtr" }
%"struct.std::__1::basic_string<char, std::__1::char_traits<char>, std::__1::allocator<char> >::__short" = type { [23 x i8], %struct.anon }
%struct.anon = type { i8 }
%"struct.google::protobuf::internal::InternalMetadata::Container" = type { %"struct.google::protobuf::internal::InternalMetadata::ContainerBase", %"class.std::__1::basic_string" }
%"struct.google::protobuf::internal::InternalMetadata::ContainerBase" = type { %"class.google::protobuf::Arena"* }
%"class.google::protobuf::internal::ParseContext" = type { %"class.google::protobuf::internal::EpsCopyInputStream", i32, i32, %"struct.google::protobuf::internal::ParseContext::Data" }
%"class.google::protobuf::internal::EpsCopyInputStream" = type { i8*, i8*, i8*, i32, i32, %"class.google::protobuf::io::ZeroCopyInputStream"*, [32 x i8], i64, i32, i32 }
%"class.google::protobuf::io::ZeroCopyInputStream" = type { i32 (...)** }
%"struct.google::protobuf::internal::ParseContext::Data" = type { %"class.google::protobuf::DescriptorPool"*, %"class.google::protobuf::MessageFactory"* }
%"class.google::protobuf::DescriptorPool" = type opaque
%"class.google::protobuf::MessageFactory" = type opaque
%"class.google::protobuf::io::EpsCopyOutputStream" = type <{ i8*, i8*, [32 x i8], %"class.google::protobuf::io::ZeroCopyOutputStream"*, i8, i8, i8, [5 x i8] }>
%"class.google::protobuf::io::ZeroCopyOutputStream" = type { i32 (...)** }
%"class.perfetto::protos::InternedString" = type { %"class.google::protobuf::MessageLite", %"class.google::protobuf::internal::HasBits", %"class.google::protobuf::internal::CachedSize", %"struct.google::protobuf::internal::ArenaStringPtr", i64 }
%"class.perfetto::protos::Mapping" = type { %"class.google::protobuf::MessageLite", %"class.google::protobuf::internal::HasBits", %"class.google::protobuf::internal::CachedSize", %"class.google::protobuf::RepeatedField", i64, i64, i64, i64, i64, i64, i64 }
%"class.perfetto::protos::Frame" = type { %"class.google::protobuf::MessageLite", %"class.google::protobuf::internal::HasBits", %"class.google::protobuf::internal::CachedSize", i64, i64, i64, i64 }
%"class.perfetto::protos::Callstack" = type { %"class.google::protobuf::MessageLite", %"class.google::protobuf::internal::HasBits", %"class.google::protobuf::internal::CachedSize", %"class.google::protobuf::RepeatedField", i64 }

$_ZN6google8protobuf8internal12ParseContext12ParseMessageIN8perfetto6protos30ProfilePacket_Histogram_BucketEEEPKcPT_S8_ = comdat any

$_ZN6google8protobuf8internal12ParseContext12ParseMessageIN8perfetto6protos23ProfilePacket_HistogramEEEPKcPT_S8_ = comdat any

$_ZN6google8protobuf8internal12ParseContext12ParseMessageIN8perfetto6protos24ProfilePacket_HeapSampleEEEPKcPT_S8_ = comdat any

$_ZN6google8protobuf8internal12ParseContext12ParseMessageIN8perfetto6protos26ProfilePacket_ProcessStatsEEEPKcPT_S8_ = comdat any

$_ZN6google8protobuf8internal12ParseContext12ParseMessageIN8perfetto6protos14InternedStringEEEPKcPT_S8_ = comdat any

$_ZN6google8protobuf8internal12ParseContext12ParseMessageIN8perfetto6protos5FrameEEEPKcPT_S8_ = comdat any

$_ZN6google8protobuf8internal12ParseContext12ParseMessageIN8perfetto6protos9CallstackEEEPKcPT_S8_ = comdat any

$_ZN6google8protobuf8internal12ParseContext12ParseMessageIN8perfetto6protos7MappingEEEPKcPT_S8_ = comdat any

$_ZN6google8protobuf8internal12ParseContext12ParseMessageIN8perfetto6protos32ProfilePacket_ProcessHeapSamplesEEEPKcPT_S8_ = comdat any

$_ZN6google8protobuf8internal12ParseContext12ParseMessageIN8perfetto6protos24PerfSample_ProducerEventEEEPKcPT_S8_ = comdat any

$_ZN6google8protobuf8internal12ParseContext12ParseMessageIN8perfetto6protos19PerfEvents_TimebaseEEEPKcPT_S8_ = comdat any

$_ZNK8perfetto6protos24ProfilePacket_HeapSample3NewEv = comdat any

$_ZNK8perfetto6protos24ProfilePacket_HeapSample3NewEPN6google8protobuf5ArenaE = comdat any

$_ZNK8perfetto6protos24ProfilePacket_HeapSample13GetCachedSizeEv = comdat any

$_ZNK6google8protobuf11MessageLite16InternalGetTableEv = comdat any

$_ZNK8perfetto6protos30ProfilePacket_Histogram_Bucket3NewEv = comdat any

$_ZNK8perfetto6protos30ProfilePacket_Histogram_Bucket3NewEPN6google8protobuf5ArenaE = comdat any

$_ZNK8perfetto6protos30ProfilePacket_Histogram_Bucket13GetCachedSizeEv = comdat any

$_ZNK8perfetto6protos23ProfilePacket_Histogram3NewEv = comdat any

$_ZNK8perfetto6protos23ProfilePacket_Histogram3NewEPN6google8protobuf5ArenaE = comdat any

$_ZNK8perfetto6protos23ProfilePacket_Histogram13GetCachedSizeEv = comdat any

$_ZNK8perfetto6protos26ProfilePacket_ProcessStats3NewEv = comdat any

$_ZNK8perfetto6protos26ProfilePacket_ProcessStats3NewEPN6google8protobuf5ArenaE = comdat any

$_ZNK8perfetto6protos26ProfilePacket_ProcessStats13GetCachedSizeEv = comdat any

$_ZNK8perfetto6protos32ProfilePacket_ProcessHeapSamples3NewEv = comdat any

$_ZNK8perfetto6protos32ProfilePacket_ProcessHeapSamples3NewEPN6google8protobuf5ArenaE = comdat any

$_ZNK8perfetto6protos32ProfilePacket_ProcessHeapSamples13GetCachedSizeEv = comdat any

$_ZNK8perfetto6protos13ProfilePacket3NewEv = comdat any

$_ZNK8perfetto6protos13ProfilePacket3NewEPN6google8protobuf5ArenaE = comdat any

$_ZNK8perfetto6protos13ProfilePacket13GetCachedSizeEv = comdat any

$_ZNK8perfetto6protos19StreamingAllocation3NewEv = comdat any

$_ZNK8perfetto6protos19StreamingAllocation3NewEPN6google8protobuf5ArenaE = comdat any

$_ZNK8perfetto6protos19StreamingAllocation13GetCachedSizeEv = comdat any

$_ZNK8perfetto6protos13StreamingFree3NewEv = comdat any

$_ZNK8perfetto6protos13StreamingFree3NewEPN6google8protobuf5ArenaE = comdat any

$_ZNK8perfetto6protos13StreamingFree13GetCachedSizeEv = comdat any

$_ZNK8perfetto6protos22StreamingProfilePacket3NewEv = comdat any

$_ZNK8perfetto6protos22StreamingProfilePacket3NewEPN6google8protobuf5ArenaE = comdat any

$_ZNK8perfetto6protos22StreamingProfilePacket13GetCachedSizeEv = comdat any

$_ZNK8perfetto6protos9Profiling3NewEv = comdat any

$_ZNK8perfetto6protos9Profiling3NewEPN6google8protobuf5ArenaE = comdat any

$_ZNK8perfetto6protos9Profiling13GetCachedSizeEv = comdat any

$_ZNK8perfetto6protos24PerfSample_ProducerEvent3NewEv = comdat any

$_ZNK8perfetto6protos24PerfSample_ProducerEvent3NewEPN6google8protobuf5ArenaE = comdat any

$_ZNK8perfetto6protos24PerfSample_ProducerEvent13GetCachedSizeEv = comdat any

$_ZNK8perfetto6protos10PerfSample3NewEv = comdat any

$_ZNK8perfetto6protos10PerfSample3NewEPN6google8protobuf5ArenaE = comdat any

$_ZNK8perfetto6protos10PerfSample13GetCachedSizeEv = comdat any

$_ZNK8perfetto6protos18PerfSampleDefaults3NewEv = comdat any

$_ZNK8perfetto6protos18PerfSampleDefaults3NewEPN6google8protobuf5ArenaE = comdat any

$_ZNK8perfetto6protos18PerfSampleDefaults13GetCachedSizeEv = comdat any

$_ZN6google8protobuf8internal14ArenaStringPtr14CreateInstanceEPNS0_5ArenaEPKNSt3__112basic_stringIcNS5_11char_traitsIcEENS5_9allocatorIcEEEE = comdat any

$_ZN6google8protobuf8internal21arena_destruct_objectINSt3__112basic_stringIcNS3_11char_traitsIcEENS3_9allocatorIcEEEEEEvPv = comdat any

$_ZN6google8protobuf8internal16InternalMetadata27mutable_unknown_fields_slowINSt3__112basic_stringIcNS4_11char_traitsIcEENS4_9allocatorIcEEEEEEPT_v = comdat any

$_ZN6google8protobuf8internal21arena_destruct_objectINS1_16InternalMetadata9ContainerINSt3__112basic_stringIcNS5_11char_traitsIcEENS5_9allocatorIcEEEEEEEEvPv = comdat any

$_ZN6google8protobuf8internal18GenericTypeHandlerIN8perfetto6protos30ProfilePacket_Histogram_BucketEE5MergeERKS5_PS5_ = comdat any

$_ZN6google8protobuf8internal18GenericTypeHandlerIN8perfetto6protos24ProfilePacket_HeapSampleEE5MergeERKS5_PS5_ = comdat any

$_ZN6google8protobuf8internal18GenericTypeHandlerIN8perfetto6protos14InternedStringEE5MergeERKS5_PS5_ = comdat any

$_ZN6google8protobuf8internal18GenericTypeHandlerIN8perfetto6protos5FrameEE5MergeERKS5_PS5_ = comdat any

$_ZN6google8protobuf8internal18GenericTypeHandlerIN8perfetto6protos9CallstackEE5MergeERKS5_PS5_ = comdat any

$_ZN6google8protobuf8internal18GenericTypeHandlerIN8perfetto6protos7MappingEE5MergeERKS5_PS5_ = comdat any

$_ZN6google8protobuf8internal18GenericTypeHandlerIN8perfetto6protos32ProfilePacket_ProcessHeapSamplesEE5MergeERKS5_PS5_ = comdat any

@_ZN8perfetto6protos43_ProfilePacket_HeapSample_default_instance_E = hidden global %"class.perfetto::protos::ProfilePacket_HeapSampleDefaultTypeInternal" zeroinitializer, align 8
@_ZN8perfetto6protos49_ProfilePacket_Histogram_Bucket_default_instance_E = hidden global %"class.perfetto::protos::ProfilePacket_Histogram_BucketDefaultTypeInternal" zeroinitializer, align 8
@_ZN8perfetto6protos42_ProfilePacket_Histogram_default_instance_E = hidden global %"class.perfetto::protos::ProfilePacket_HistogramDefaultTypeInternal" zeroinitializer, align 8
@_ZN8perfetto6protos45_ProfilePacket_ProcessStats_default_instance_E = hidden global %"class.perfetto::protos::ProfilePacket_ProcessStatsDefaultTypeInternal" zeroinitializer, align 8
@_ZN8perfetto6protos51_ProfilePacket_ProcessHeapSamples_default_instance_E = hidden global %"class.perfetto::protos::ProfilePacket_ProcessHeapSamplesDefaultTypeInternal" zeroinitializer, align 8
@_ZN8perfetto6protos32_ProfilePacket_default_instance_E = hidden global %"class.perfetto::protos::ProfilePacketDefaultTypeInternal" zeroinitializer, align 8
@_ZN8perfetto6protos38_StreamingAllocation_default_instance_E = hidden global %"class.perfetto::protos::StreamingAllocationDefaultTypeInternal" zeroinitializer, align 8
@_ZN8perfetto6protos32_StreamingFree_default_instance_E = hidden global %"class.perfetto::protos::StreamingFreeDefaultTypeInternal" zeroinitializer, align 8
@_ZN8perfetto6protos41_StreamingProfilePacket_default_instance_E = hidden global %"class.perfetto::protos::StreamingProfilePacketDefaultTypeInternal" zeroinitializer, align 8
@_ZN8perfetto6protos28_Profiling_default_instance_E = hidden global %"class.perfetto::protos::ProfilingDefaultTypeInternal" zeroinitializer, align 8
@_ZN8perfetto6protos43_PerfSample_ProducerEvent_default_instance_E = hidden global %"class.perfetto::protos::PerfSample_ProducerEventDefaultTypeInternal" zeroinitializer, align 8
@_ZN8perfetto6protos29_PerfSample_default_instance_E = hidden global %"class.perfetto::protos::PerfSampleDefaultTypeInternal" zeroinitializer, align 8
@_ZN8perfetto6protos37_PerfSampleDefaults_default_instance_E = hidden global %"class.perfetto::protos::PerfSampleDefaultsDefaultTypeInternal" zeroinitializer, align 8
@scc_info_PerfSample_protos_2fperfetto_2ftrace_2fprofiling_2fprofile_5fpacket_2eproto = hidden global { { { { i32 } }, i32, i32, void ()* }, [1 x i8*] } { { { { i32 } }, i32, i32, void ()* } { { { i32 } } { { i32 } { i32 -1 } }, i32 1, i32 0, void ()* @_ZL96InitDefaultsscc_info_PerfSample_protos_2fperfetto_2ftrace_2fprofiling_2fprofile_5fpacket_2eprotov }, [1 x i8*] [i8* bitcast ({ { { { i32 } }, i32, i32, void ()* }, [0 x i8*] }* @scc_info_PerfSample_ProducerEvent_protos_2fperfetto_2ftrace_2fprofiling_2fprofile_5fpacket_2eproto to i8*)] }, align 8
@scc_info_PerfSample_ProducerEvent_protos_2fperfetto_2ftrace_2fprofiling_2fprofile_5fpacket_2eproto = hidden global { { { { i32 } }, i32, i32, void ()* }, [0 x i8*] } { { { { i32 } }, i32, i32, void ()* } { { { i32 } } { { i32 } { i32 -1 } }, i32 0, i32 0, void ()* @_ZL110InitDefaultsscc_info_PerfSample_ProducerEvent_protos_2fperfetto_2ftrace_2fprofiling_2fprofile_5fpacket_2eprotov }, [0 x i8*] zeroinitializer }, align 8
@scc_info_PerfEvents_Timebase_protos_2fperfetto_2fcommon_2fperf_5fevents_2eproto = external global %"struct.google::protobuf::internal::SCCInfo.13", align 8
@scc_info_PerfSampleDefaults_protos_2fperfetto_2ftrace_2fprofiling_2fprofile_5fpacket_2eproto = hidden global { { { { i32 } }, i32, i32, void ()* }, [1 x i8*] } { { { { i32 } }, i32, i32, void ()* } { { { i32 } } { { i32 } { i32 -1 } }, i32 1, i32 0, void ()* @_ZL104InitDefaultsscc_info_PerfSampleDefaults_protos_2fperfetto_2ftrace_2fprofiling_2fprofile_5fpacket_2eprotov }, [1 x i8*] [i8* bitcast (%"struct.google::protobuf::internal::SCCInfo.13"* @scc_info_PerfEvents_Timebase_protos_2fperfetto_2fcommon_2fperf_5fevents_2eproto to i8*)] }, align 8
@scc_info_InternedString_protos_2fperfetto_2ftrace_2fprofiling_2fprofile_5fcommon_2eproto = external global %"struct.google::protobuf::internal::SCCInfo", align 8
@scc_info_Mapping_protos_2fperfetto_2ftrace_2fprofiling_2fprofile_5fcommon_2eproto = external global %"struct.google::protobuf::internal::SCCInfo", align 8
@scc_info_Frame_protos_2fperfetto_2ftrace_2fprofiling_2fprofile_5fcommon_2eproto = external global %"struct.google::protobuf::internal::SCCInfo", align 8
@scc_info_Callstack_protos_2fperfetto_2ftrace_2fprofiling_2fprofile_5fcommon_2eproto = external global %"struct.google::protobuf::internal::SCCInfo", align 8
@scc_info_ProfilePacket_protos_2fperfetto_2ftrace_2fprofiling_2fprofile_5fpacket_2eproto = hidden global { { { { i32 } }, i32, i32, void ()* }, [5 x i8*] } { { { { i32 } }, i32, i32, void ()* } { { { i32 } } { { i32 } { i32 -1 } }, i32 5, i32 0, void ()* @_ZL99InitDefaultsscc_info_ProfilePacket_protos_2fperfetto_2ftrace_2fprofiling_2fprofile_5fpacket_2eprotov }, [5 x i8*] [i8* bitcast (%"struct.google::protobuf::internal::SCCInfo"* @scc_info_InternedString_protos_2fperfetto_2ftrace_2fprofiling_2fprofile_5fcommon_2eproto to i8*), i8* bitcast (%"struct.google::protobuf::internal::SCCInfo"* @scc_info_Mapping_protos_2fperfetto_2ftrace_2fprofiling_2fprofile_5fcommon_2eproto to i8*), i8* bitcast (%"struct.google::protobuf::internal::SCCInfo"* @scc_info_Frame_protos_2fperfetto_2ftrace_2fprofiling_2fprofile_5fcommon_2eproto to i8*), i8* bitcast (%"struct.google::protobuf::internal::SCCInfo"* @scc_info_Callstack_protos_2fperfetto_2ftrace_2fprofiling_2fprofile_5fcommon_2eproto to i8*), i8* bitcast ({ { { { i32 } }, i32, i32, void ()* }, [2 x i8*] }* @scc_info_ProfilePacket_ProcessHeapSamples_protos_2fperfetto_2ftrace_2fprofiling_2fprofile_5fpacket_2eproto to i8*)] }, align 8
@scc_info_ProfilePacket_HeapSample_protos_2fperfetto_2ftrace_2fprofiling_2fprofile_5fpacket_2eproto = hidden global { { { { i32 } }, i32, i32, void ()* }, [0 x i8*] } { { { { i32 } }, i32, i32, void ()* } { { { i32 } } { { i32 } { i32 -1 } }, i32 0, i32 0, void ()* @_ZL110InitDefaultsscc_info_ProfilePacket_HeapSample_protos_2fperfetto_2ftrace_2fprofiling_2fprofile_5fpacket_2eprotov }, [0 x i8*] zeroinitializer }, align 8
@scc_info_ProfilePacket_Histogram_protos_2fperfetto_2ftrace_2fprofiling_2fprofile_5fpacket_2eproto = hidden global { { { { i32 } }, i32, i32, void ()* }, [1 x i8*] } { { { { i32 } }, i32, i32, void ()* } { { { i32 } } { { i32 } { i32 -1 } }, i32 1, i32 0, void ()* @_ZL109InitDefaultsscc_info_ProfilePacket_Histogram_protos_2fperfetto_2ftrace_2fprofiling_2fprofile_5fpacket_2eprotov }, [1 x i8*] [i8* bitcast ({ { { { i32 } }, i32, i32, void ()* }, [0 x i8*] }* @scc_info_ProfilePacket_Histogram_Bucket_protos_2fperfetto_2ftrace_2fprofiling_2fprofile_5fpacket_2eproto to i8*)] }, align 8
@scc_info_ProfilePacket_Histogram_Bucket_protos_2fperfetto_2ftrace_2fprofiling_2fprofile_5fpacket_2eproto = hidden global { { { { i32 } }, i32, i32, void ()* }, [0 x i8*] } { { { { i32 } }, i32, i32, void ()* } { { { i32 } } { { i32 } { i32 -1 } }, i32 0, i32 0, void ()* @_ZL116InitDefaultsscc_info_ProfilePacket_Histogram_Bucket_protos_2fperfetto_2ftrace_2fprofiling_2fprofile_5fpacket_2eprotov }, [0 x i8*] zeroinitializer }, align 8
@scc_info_ProfilePacket_ProcessHeapSamples_protos_2fperfetto_2ftrace_2fprofiling_2fprofile_5fpacket_2eproto = hidden global { { { { i32 } }, i32, i32, void ()* }, [2 x i8*] } { { { { i32 } }, i32, i32, void ()* } { { { i32 } } { { i32 } { i32 -1 } }, i32 2, i32 0, void ()* @_ZL118InitDefaultsscc_info_ProfilePacket_ProcessHeapSamples_protos_2fperfetto_2ftrace_2fprofiling_2fprofile_5fpacket_2eprotov }, [2 x i8*] [i8* bitcast ({ { { { i32 } }, i32, i32, void ()* }, [1 x i8*] }* @scc_info_ProfilePacket_ProcessStats_protos_2fperfetto_2ftrace_2fprofiling_2fprofile_5fpacket_2eproto to i8*), i8* bitcast ({ { { { i32 } }, i32, i32, void ()* }, [0 x i8*] }* @scc_info_ProfilePacket_HeapSample_protos_2fperfetto_2ftrace_2fprofiling_2fprofile_5fpacket_2eproto to i8*)] }, align 8
@scc_info_ProfilePacket_ProcessStats_protos_2fperfetto_2ftrace_2fprofiling_2fprofile_5fpacket_2eproto = hidden global { { { { i32 } }, i32, i32, void ()* }, [1 x i8*] } { { { { i32 } }, i32, i32, void ()* } { { { i32 } } { { i32 } { i32 -1 } }, i32 1, i32 0, void ()* @_ZL112InitDefaultsscc_info_ProfilePacket_ProcessStats_protos_2fperfetto_2ftrace_2fprofiling_2fprofile_5fpacket_2eprotov }, [1 x i8*] [i8* bitcast ({ { { { i32 } }, i32, i32, void ()* }, [1 x i8*] }* @scc_info_ProfilePacket_Histogram_protos_2fperfetto_2ftrace_2fprofiling_2fprofile_5fpacket_2eproto to i8*)] }, align 8
@scc_info_Profiling_protos_2fperfetto_2ftrace_2fprofiling_2fprofile_5fpacket_2eproto = hidden global { { { { i32 } }, i32, i32, void ()* }, [0 x i8*] } { { { { i32 } }, i32, i32, void ()* } { { { i32 } } { { i32 } { i32 -1 } }, i32 0, i32 0, void ()* @_ZL95InitDefaultsscc_info_Profiling_protos_2fperfetto_2ftrace_2fprofiling_2fprofile_5fpacket_2eprotov }, [0 x i8*] zeroinitializer }, align 8
@scc_info_StreamingAllocation_protos_2fperfetto_2ftrace_2fprofiling_2fprofile_5fpacket_2eproto = hidden global { { { { i32 } }, i32, i32, void ()* }, [0 x i8*] } { { { { i32 } }, i32, i32, void ()* } { { { i32 } } { { i32 } { i32 -1 } }, i32 0, i32 0, void ()* @_ZL105InitDefaultsscc_info_StreamingAllocation_protos_2fperfetto_2ftrace_2fprofiling_2fprofile_5fpacket_2eprotov }, [0 x i8*] zeroinitializer }, align 8
@scc_info_StreamingFree_protos_2fperfetto_2ftrace_2fprofiling_2fprofile_5fpacket_2eproto = hidden global { { { { i32 } }, i32, i32, void ()* }, [0 x i8*] } { { { { i32 } }, i32, i32, void ()* } { { { i32 } } { { i32 } { i32 -1 } }, i32 0, i32 0, void ()* @_ZL99InitDefaultsscc_info_StreamingFree_protos_2fperfetto_2ftrace_2fprofiling_2fprofile_5fpacket_2eprotov }, [0 x i8*] zeroinitializer }, align 8
@scc_info_StreamingProfilePacket_protos_2fperfetto_2ftrace_2fprofiling_2fprofile_5fpacket_2eproto = hidden global { { { { i32 } }, i32, i32, void ()* }, [0 x i8*] } { { { { i32 } }, i32, i32, void ()* } { { { i32 } } { { i32 } { i32 -1 } }, i32 0, i32 0, void ()* @_ZL108InitDefaultsscc_info_StreamingProfilePacket_protos_2fperfetto_2ftrace_2fprofiling_2fprofile_5fpacket_2eprotov }, [0 x i8*] zeroinitializer }, align 8
@_ZN8perfetto6protosL52ProfilePacket_ProcessHeapSamples_ClientError_entriesE = internal constant [3 x %"struct.google::protobuf::internal::EnumEntry"] [%"struct.google::protobuf::internal::EnumEntry" <{ %"class.google::protobuf::StringPiece" { i8* getelementptr inbounds ([75 x i8], [75 x i8]* @_ZN8perfetto6protosL50ProfilePacket_ProcessHeapSamples_ClientError_namesE, i64 0, i64 0), i64 24 }, i32 1, [4 x i8] zeroinitializer }>, %"struct.google::protobuf::internal::EnumEntry" <{ %"class.google::protobuf::StringPiece" { i8* getelementptr inbounds ([75 x i8], [75 x i8]* @_ZN8perfetto6protosL50ProfilePacket_ProcessHeapSamples_ClientError_namesE, i64 0, i64 24), i64 33 }, i32 2, [4 x i8] zeroinitializer }>, %"struct.google::protobuf::internal::EnumEntry" <{ %"class.google::protobuf::StringPiece" { i8* getelementptr inbounds ([75 x i8], [75 x i8]* @_ZN8perfetto6protosL50ProfilePacket_ProcessHeapSamples_ClientError_namesE, i64 0, i64 57), i64 17 }, i32 0, [4 x i8] zeroinitializer }>], align 16
@_ZN8perfetto6protosL50ProfilePacket_ProcessHeapSamples_ClientError_namesE = internal constant [75 x i8] c"CLIENT_ERROR_HIT_TIMEOUTCLIENT_ERROR_INVALID_STACK_BOUNDSCLIENT_ERROR_NONE\00", align 16
@_ZZN8perfetto6protos49ProfilePacket_ProcessHeapSamples_ClientError_NameENS0_44ProfilePacket_ProcessHeapSamples_ClientErrorEE5dummy = internal global i8 0, align 1
@_ZGVZN8perfetto6protos49ProfilePacket_ProcessHeapSamples_ClientError_NameENS0_44ProfilePacket_ProcessHeapSamples_ClientErrorEE5dummy = internal global i64 0, align 8
@_ZN8perfetto6protosL62ProfilePacket_ProcessHeapSamples_ClientError_entries_by_numberE = internal constant [3 x i32] [i32 2, i32 0, i32 1], align 4
@_ZN8perfetto6protosL52ProfilePacket_ProcessHeapSamples_ClientError_stringsE = internal global [3 x %"class.google::protobuf::internal::ExplicitlyConstructed.17"] zeroinitializer, align 16
@_ZN8perfetto6protos32ProfilePacket_ProcessHeapSamples17CLIENT_ERROR_NONEE = hidden local_unnamed_addr constant i32 0, align 4
@_ZN8perfetto6protos32ProfilePacket_ProcessHeapSamples24CLIENT_ERROR_HIT_TIMEOUTE = hidden local_unnamed_addr constant i32 1, align 4
@_ZN8perfetto6protos32ProfilePacket_ProcessHeapSamples33CLIENT_ERROR_INVALID_STACK_BOUNDSE = hidden local_unnamed_addr constant i32 2, align 4
@_ZN8perfetto6protos32ProfilePacket_ProcessHeapSamples15ClientError_MINE = hidden local_unnamed_addr constant i32 0, align 4
@_ZN8perfetto6protos32ProfilePacket_ProcessHeapSamples15ClientError_MAXE = hidden local_unnamed_addr constant i32 2, align 4
@_ZN8perfetto6protos32ProfilePacket_ProcessHeapSamples21ClientError_ARRAYSIZEE = hidden local_unnamed_addr constant i32 3, align 4
@_ZN8perfetto6protosL25Profiling_CpuMode_entriesE = internal constant [6 x %"struct.google::protobuf::internal::EnumEntry"] [%"struct.google::protobuf::internal::EnumEntry" <{ %"class.google::protobuf::StringPiece" { i8* getelementptr inbounds ([80 x i8], [80 x i8]* @_ZN8perfetto6protosL23Profiling_CpuMode_namesE, i64 0, i64 0), i64 17 }, i32 4, [4 x i8] zeroinitializer }>, %"struct.google::protobuf::internal::EnumEntry" <{ %"class.google::protobuf::StringPiece" { i8* getelementptr inbounds ([80 x i8], [80 x i8]* @_ZN8perfetto6protosL23Profiling_CpuMode_namesE, i64 0, i64 17), i64 15 }, i32 5, [4 x i8] zeroinitializer }>, %"struct.google::protobuf::internal::EnumEntry" <{ %"class.google::protobuf::StringPiece" { i8* getelementptr inbounds ([80 x i8], [80 x i8]* @_ZN8perfetto6protosL23Profiling_CpuMode_namesE, i64 0, i64 32), i64 15 }, i32 3, [4 x i8] zeroinitializer }>, %"struct.google::protobuf::internal::EnumEntry" <{ %"class.google::protobuf::StringPiece" { i8* getelementptr inbounds ([80 x i8], [80 x i8]* @_ZN8perfetto6protosL23Profiling_CpuMode_namesE, i64 0, i64 47), i64 11 }, i32 1, [4 x i8] zeroinitializer }>, %"struct.google::protobuf::internal::EnumEntry" <{ %"class.google::protobuf::StringPiece" { i8* getelementptr inbounds ([80 x i8], [80 x i8]* @_ZN8perfetto6protosL23Profiling_CpuMode_namesE, i64 0, i64 58), i64 12 }, i32 0, [4 x i8] zeroinitializer }>, %"struct.google::protobuf::internal::EnumEntry" <{ %"class.google::protobuf::StringPiece" { i8* getelementptr inbounds ([80 x i8], [80 x i8]* @_ZN8perfetto6protosL23Profiling_CpuMode_namesE, i64 0, i64 70), i64 9 }, i32 2, [4 x i8] zeroinitializer }>], align 16
@_ZN8perfetto6protosL23Profiling_CpuMode_namesE = internal constant [80 x i8] c"MODE_GUEST_KERNELMODE_GUEST_USERMODE_HYPERVISORMODE_KERNELMODE_UNKNOWNMODE_USER\00", align 16
@_ZZN8perfetto6protos22Profiling_CpuMode_NameENS0_17Profiling_CpuModeEE5dummy = internal global i8 0, align 1
@_ZGVZN8perfetto6protos22Profiling_CpuMode_NameENS0_17Profiling_CpuModeEE5dummy = internal global i64 0, align 8
@_ZN8perfetto6protosL35Profiling_CpuMode_entries_by_numberE = internal constant [6 x i32] [i32 4, i32 3, i32 5, i32 2, i32 0, i32 1], align 16
@_ZN8perfetto6protosL25Profiling_CpuMode_stringsE = internal global [6 x %"class.google::protobuf::internal::ExplicitlyConstructed.17"] zeroinitializer, align 16
@_ZN8perfetto6protos9Profiling12MODE_UNKNOWNE = hidden local_unnamed_addr constant i32 0, align 4
@_ZN8perfetto6protos9Profiling11MODE_KERNELE = hidden local_unnamed_addr constant i32 1, align 4
@_ZN8perfetto6protos9Profiling9MODE_USERE = hidden local_unnamed_addr constant i32 2, align 4
@_ZN8perfetto6protos9Profiling15MODE_HYPERVISORE = hidden local_unnamed_addr constant i32 3, align 4
@_ZN8perfetto6protos9Profiling17MODE_GUEST_KERNELE = hidden local_unnamed_addr constant i32 4, align 4
@_ZN8perfetto6protos9Profiling15MODE_GUEST_USERE = hidden local_unnamed_addr constant i32 5, align 4
@_ZN8perfetto6protos9Profiling11CpuMode_MINE = hidden local_unnamed_addr constant i32 0, align 4
@_ZN8perfetto6protos9Profiling11CpuMode_MAXE = hidden local_unnamed_addr constant i32 5, align 4
@_ZN8perfetto6protos9Profiling17CpuMode_ARRAYSIZEE = hidden local_unnamed_addr constant i32 6, align 4
@_ZN8perfetto6protosL34Profiling_StackUnwindError_entriesE = internal constant [12 x %"struct.google::protobuf::internal::EnumEntry"] [%"struct.google::protobuf::internal::EnumEntry" <{ %"class.google::protobuf::StringPiece" { i8* getelementptr inbounds ([305 x i8], [305 x i8]* @_ZN8perfetto6protosL32Profiling_StackUnwindError_namesE, i64 0, i64 0), i64 24 }, i32 8, [4 x i8] zeroinitializer }>, %"struct.google::protobuf::internal::EnumEntry" <{ %"class.google::protobuf::StringPiece" { i8* getelementptr inbounds ([305 x i8], [305 x i8]* @_ZN8perfetto6protosL32Profiling_StackUnwindError_namesE, i64 0, i64 24), i64 24 }, i32 5, [4 x i8] zeroinitializer }>, %"struct.google::protobuf::internal::EnumEntry" <{ %"class.google::protobuf::StringPiece" { i8* getelementptr inbounds ([305 x i8], [305 x i8]* @_ZN8perfetto6protosL32Profiling_StackUnwindError_namesE, i64 0, i64 48), i64 32 }, i32 6, [4 x i8] zeroinitializer }>, %"struct.google::protobuf::internal::EnumEntry" <{ %"class.google::protobuf::StringPiece" { i8* getelementptr inbounds ([305 x i8], [305 x i8]* @_ZN8perfetto6protosL32Profiling_StackUnwindError_namesE, i64 0, i64 80), i64 27 }, i32 2, [4 x i8] zeroinitializer }>, %"struct.google::protobuf::internal::EnumEntry" <{ %"class.google::protobuf::StringPiece" { i8* getelementptr inbounds ([305 x i8], [305 x i8]* @_ZN8perfetto6protosL32Profiling_StackUnwindError_namesE, i64 0, i64 107), i64 17 }, i32 1, [4 x i8] zeroinitializer }>, %"struct.google::protobuf::internal::EnumEntry" <{ %"class.google::protobuf::StringPiece" { i8* getelementptr inbounds ([305 x i8], [305 x i8]* @_ZN8perfetto6protosL32Profiling_StackUnwindError_namesE, i64 0, i64 124), i64 27 }, i32 7, [4 x i8] zeroinitializer }>, %"struct.google::protobuf::internal::EnumEntry" <{ %"class.google::protobuf::StringPiece" { i8* getelementptr inbounds ([305 x i8], [305 x i8]* @_ZN8perfetto6protosL32Profiling_StackUnwindError_namesE, i64 0, i64 151), i64 24 }, i32 9, [4 x i8] zeroinitializer }>, %"struct.google::protobuf::internal::EnumEntry" <{ %"class.google::protobuf::StringPiece" { i8* getelementptr inbounds ([305 x i8], [305 x i8]* @_ZN8perfetto6protosL32Profiling_StackUnwindError_namesE, i64 0, i64 175), i64 34 }, i32 11, [4 x i8] zeroinitializer }>, %"struct.google::protobuf::internal::EnumEntry" <{ %"class.google::protobuf::StringPiece" { i8* getelementptr inbounds ([305 x i8], [305 x i8]* @_ZN8perfetto6protosL32Profiling_StackUnwindError_namesE, i64 0, i64 209), i64 27 }, i32 10, [4 x i8] zeroinitializer }>, %"struct.google::protobuf::internal::EnumEntry" <{ %"class.google::protobuf::StringPiece" { i8* getelementptr inbounds ([305 x i8], [305 x i8]* @_ZN8perfetto6protosL32Profiling_StackUnwindError_namesE, i64 0, i64 236), i64 20 }, i32 0, [4 x i8] zeroinitializer }>, %"struct.google::protobuf::internal::EnumEntry" <{ %"class.google::protobuf::StringPiece" { i8* getelementptr inbounds ([305 x i8], [305 x i8]* @_ZN8perfetto6protosL32Profiling_StackUnwindError_namesE, i64 0, i64 256), i64 24 }, i32 4, [4 x i8] zeroinitializer }>, %"struct.google::protobuf::internal::EnumEntry" <{ %"class.google::protobuf::StringPiece" { i8* getelementptr inbounds ([305 x i8], [305 x i8]* @_ZN8perfetto6protosL32Profiling_StackUnwindError_namesE, i64 0, i64 280), i64 24 }, i32 3, [4 x i8] zeroinitializer }>], align 16
@_ZN8perfetto6protosL32Profiling_StackUnwindError_namesE = internal constant [305 x i8] c"UNWIND_ERROR_INVALID_ELFUNWIND_ERROR_INVALID_MAPUNWIND_ERROR_MAX_FRAMES_EXCEEDEDUNWIND_ERROR_MEMORY_INVALIDUNWIND_ERROR_NONEUNWIND_ERROR_REPEATED_FRAMEUNWIND_ERROR_SYSTEM_CALLUNWIND_ERROR_THREAD_DOES_NOT_EXISTUNWIND_ERROR_THREAD_TIMEOUTUNWIND_ERROR_UNKNOWNUNWIND_ERROR_UNSUPPORTEDUNWIND_ERROR_UNWIND_INFO\00", align 16
@_ZZN8perfetto6protos31Profiling_StackUnwindError_NameENS0_26Profiling_StackUnwindErrorEE5dummy = internal global i8 0, align 1
@_ZGVZN8perfetto6protos31Profiling_StackUnwindError_NameENS0_26Profiling_StackUnwindErrorEE5dummy = internal global i64 0, align 8
@_ZN8perfetto6protosL44Profiling_StackUnwindError_entries_by_numberE = internal constant [12 x i32] [i32 9, i32 4, i32 3, i32 11, i32 10, i32 1, i32 2, i32 5, i32 0, i32 6, i32 8, i32 7], align 16
@_ZN8perfetto6protosL34Profiling_StackUnwindError_stringsE = internal global [12 x %"class.google::protobuf::internal::ExplicitlyConstructed.17"] zeroinitializer, align 16
@_ZN8perfetto6protos9Profiling20UNWIND_ERROR_UNKNOWNE = hidden local_unnamed_addr constant i32 0, align 4
@_ZN8perfetto6protos9Profiling17UNWIND_ERROR_NONEE = hidden local_unnamed_addr constant i32 1, align 4
@_ZN8perfetto6protos9Profiling27UNWIND_ERROR_MEMORY_INVALIDE = hidden local_unnamed_addr constant i32 2, align 4
@_ZN8perfetto6protos9Profiling24UNWIND_ERROR_UNWIND_INFOE = hidden local_unnamed_addr constant i32 3, align 4
@_ZN8perfetto6protos9Profiling24UNWIND_ERROR_UNSUPPORTEDE = hidden local_unnamed_addr constant i32 4, align 4
@_ZN8perfetto6protos9Profiling24UNWIND_ERROR_INVALID_MAPE = hidden local_unnamed_addr constant i32 5, align 4
@_ZN8perfetto6protos9Profiling32UNWIND_ERROR_MAX_FRAMES_EXCEEDEDE = hidden local_unnamed_addr constant i32 6, align 4
@_ZN8perfetto6protos9Profiling27UNWIND_ERROR_REPEATED_FRAMEE = hidden local_unnamed_addr constant i32 7, align 4
@_ZN8perfetto6protos9Profiling24UNWIND_ERROR_INVALID_ELFE = hidden local_unnamed_addr constant i32 8, align 4
@_ZN8perfetto6protos9Profiling24UNWIND_ERROR_SYSTEM_CALLE = hidden local_unnamed_addr constant i32 9, align 4
@_ZN8perfetto6protos9Profiling27UNWIND_ERROR_THREAD_TIMEOUTE = hidden local_unnamed_addr constant i32 10, align 4
@_ZN8perfetto6protos9Profiling34UNWIND_ERROR_THREAD_DOES_NOT_EXISTE = hidden local_unnamed_addr constant i32 11, align 4
@_ZN8perfetto6protos9Profiling20StackUnwindError_MINE = hidden local_unnamed_addr constant i32 0, align 4
@_ZN8perfetto6protos9Profiling20StackUnwindError_MAXE = hidden local_unnamed_addr constant i32 11, align 4
@_ZN8perfetto6protos9Profiling26StackUnwindError_ARRAYSIZEE = hidden local_unnamed_addr constant i32 12, align 4
@_ZN8perfetto6protosL53PerfSample_ProducerEvent_DataSourceStopReason_entriesE = internal constant [2 x %"struct.google::protobuf::internal::EnumEntry"] [%"struct.google::protobuf::internal::EnumEntry" <{ %"class.google::protobuf::StringPiece" { i8* getelementptr inbounds ([45 x i8], [45 x i8]* @_ZN8perfetto6protosL51PerfSample_ProducerEvent_DataSourceStopReason_namesE, i64 0, i64 0), i64 23 }, i32 1, [4 x i8] zeroinitializer }>, %"struct.google::protobuf::internal::EnumEntry" <{ %"class.google::protobuf::StringPiece" { i8* getelementptr inbounds ([45 x i8], [45 x i8]* @_ZN8perfetto6protosL51PerfSample_ProducerEvent_DataSourceStopReason_namesE, i64 0, i64 23), i64 21 }, i32 0, [4 x i8] zeroinitializer }>], align 16
@_ZN8perfetto6protosL51PerfSample_ProducerEvent_DataSourceStopReason_namesE = internal constant [45 x i8] c"PROFILER_STOP_GUARDRAILPROFILER_STOP_UNKNOWN\00", align 16
@_ZZN8perfetto6protos50PerfSample_ProducerEvent_DataSourceStopReason_NameENS0_45PerfSample_ProducerEvent_DataSourceStopReasonEE5dummy = internal global i8 0, align 1
@_ZGVZN8perfetto6protos50PerfSample_ProducerEvent_DataSourceStopReason_NameENS0_45PerfSample_ProducerEvent_DataSourceStopReasonEE5dummy = internal global i64 0, align 8
@_ZN8perfetto6protosL63PerfSample_ProducerEvent_DataSourceStopReason_entries_by_numberE = internal constant [2 x i32] [i32 1, i32 0], align 4
@_ZN8perfetto6protosL53PerfSample_ProducerEvent_DataSourceStopReason_stringsE = internal global [2 x %"class.google::protobuf::internal::ExplicitlyConstructed.17"] zeroinitializer, align 16
@_ZN8perfetto6protos24PerfSample_ProducerEvent21PROFILER_STOP_UNKNOWNE = hidden local_unnamed_addr constant i32 0, align 4
@_ZN8perfetto6protos24PerfSample_ProducerEvent23PROFILER_STOP_GUARDRAILE = hidden local_unnamed_addr constant i32 1, align 4
@_ZN8perfetto6protos24PerfSample_ProducerEvent24DataSourceStopReason_MINE = hidden local_unnamed_addr constant i32 0, align 4
@_ZN8perfetto6protos24PerfSample_ProducerEvent24DataSourceStopReason_MAXE = hidden local_unnamed_addr constant i32 1, align 4
@_ZN8perfetto6protos24PerfSample_ProducerEvent30DataSourceStopReason_ARRAYSIZEE = hidden local_unnamed_addr constant i32 2, align 4
@_ZN8perfetto6protosL35PerfSample_SampleSkipReason_entriesE = internal constant [4 x %"struct.google::protobuf::internal::EnumEntry"] [%"struct.google::protobuf::internal::EnumEntry" <{ %"class.google::protobuf::StringPiece" { i8* getelementptr inbounds ([100 x i8], [100 x i8]* @_ZN8perfetto6protosL33PerfSample_SampleSkipReason_namesE, i64 0, i64 0), i64 24 }, i32 1, [4 x i8] zeroinitializer }>, %"struct.google::protobuf::internal::EnumEntry" <{ %"class.google::protobuf::StringPiece" { i8* getelementptr inbounds ([100 x i8], [100 x i8]* @_ZN8perfetto6protosL33PerfSample_SampleSkipReason_namesE, i64 0, i64 24), i64 21 }, i32 0, [4 x i8] zeroinitializer }>, %"struct.google::protobuf::internal::EnumEntry" <{ %"class.google::protobuf::StringPiece" { i8* getelementptr inbounds ([100 x i8], [100 x i8]* @_ZN8perfetto6protosL33PerfSample_SampleSkipReason_namesE, i64 0, i64 45), i64 28 }, i32 3, [4 x i8] zeroinitializer }>, %"struct.google::protobuf::internal::EnumEntry" <{ %"class.google::protobuf::StringPiece" { i8* getelementptr inbounds ([100 x i8], [100 x i8]* @_ZN8perfetto6protosL33PerfSample_SampleSkipReason_namesE, i64 0, i64 73), i64 26 }, i32 2, [4 x i8] zeroinitializer }>], align 16
@_ZN8perfetto6protosL33PerfSample_SampleSkipReason_namesE = internal constant [100 x i8] c"PROFILER_SKIP_READ_STAGEPROFILER_SKIP_UNKNOWNPROFILER_SKIP_UNWIND_ENQUEUEPROFILER_SKIP_UNWIND_STAGE\00", align 16
@_ZZN8perfetto6protos32PerfSample_SampleSkipReason_NameENS0_27PerfSample_SampleSkipReasonEE5dummy = internal global i8 0, align 1
@_ZGVZN8perfetto6protos32PerfSample_SampleSkipReason_NameENS0_27PerfSample_SampleSkipReasonEE5dummy = internal global i64 0, align 8
@_ZN8perfetto6protosL45PerfSample_SampleSkipReason_entries_by_numberE = internal constant [4 x i32] [i32 1, i32 0, i32 3, i32 2], align 16
@_ZN8perfetto6protosL35PerfSample_SampleSkipReason_stringsE = internal global [4 x %"class.google::protobuf::internal::ExplicitlyConstructed.17"] zeroinitializer, align 16
@_ZN8perfetto6protos10PerfSample21PROFILER_SKIP_UNKNOWNE = hidden local_unnamed_addr constant i32 0, align 4
@_ZN8perfetto6protos10PerfSample24PROFILER_SKIP_READ_STAGEE = hidden local_unnamed_addr constant i32 1, align 4
@_ZN8perfetto6protos10PerfSample26PROFILER_SKIP_UNWIND_STAGEE = hidden local_unnamed_addr constant i32 2, align 4
@_ZN8perfetto6protos10PerfSample28PROFILER_SKIP_UNWIND_ENQUEUEE = hidden local_unnamed_addr constant i32 3, align 4
@_ZN8perfetto6protos10PerfSample20SampleSkipReason_MINE = hidden local_unnamed_addr constant i32 0, align 4
@_ZN8perfetto6protos10PerfSample20SampleSkipReason_MAXE = hidden local_unnamed_addr constant i32 3, align 4
@_ZN8perfetto6protos10PerfSample26SampleSkipReason_ARRAYSIZEE = hidden local_unnamed_addr constant i32 4, align 4
@_ZTVN8perfetto6protos24ProfilePacket_HeapSampleE = hidden unnamed_addr constant { [16 x i8*] } { [16 x i8*] [i8* null, i8* null, i8* bitcast (void (%"class.perfetto::protos::ProfilePacket_HeapSample"*)* @_ZN8perfetto6protos24ProfilePacket_HeapSampleD2Ev to i8*), i8* bitcast (void (%"class.perfetto::protos::ProfilePacket_HeapSample"*)* @_ZN8perfetto6protos24ProfilePacket_HeapSampleD0Ev to i8*), i8* bitcast (void (%"class.std::__1::basic_string"*, %"class.perfetto::protos::ProfilePacket_HeapSample"*)* @_ZNK8perfetto6protos24ProfilePacket_HeapSample11GetTypeNameEv to i8*), i8* bitcast (%"class.perfetto::protos::ProfilePacket_HeapSample"* (%"class.perfetto::protos::ProfilePacket_HeapSample"*)* @_ZNK8perfetto6protos24ProfilePacket_HeapSample3NewEv to i8*), i8* bitcast (%"class.perfetto::protos::ProfilePacket_HeapSample"* (%"class.perfetto::protos::ProfilePacket_HeapSample"*, %"class.google::protobuf::Arena"*)* @_ZNK8perfetto6protos24ProfilePacket_HeapSample3NewEPN6google8protobuf5ArenaE to i8*), i8* bitcast (void (%"class.perfetto::protos::ProfilePacket_HeapSample"*)* @_ZN8perfetto6protos24ProfilePacket_HeapSample5ClearEv to i8*), i8* bitcast (i1 (%"class.perfetto::protos::ProfilePacket_HeapSample"*)* @_ZNK8perfetto6protos24ProfilePacket_HeapSample13IsInitializedEv to i8*), i8* bitcast (void (%"class.std::__1::basic_string"*, %"class.google::protobuf::MessageLite"*)* @_ZNK6google8protobuf11MessageLite25InitializationErrorStringEv to i8*), i8* bitcast (void (%"class.perfetto::protos::ProfilePacket_HeapSample"*, %"class.google::protobuf::MessageLite"*)* @_ZN8perfetto6protos24ProfilePacket_HeapSample21CheckTypeAndMergeFromERKN6google8protobuf11MessageLiteE to i8*), i8* bitcast (i64 (%"class.perfetto::protos::ProfilePacket_HeapSample"*)* @_ZNK8perfetto6protos24ProfilePacket_HeapSample12ByteSizeLongEv to i8*), i8* bitcast (i32 (%"class.perfetto::protos::ProfilePacket_HeapSample"*)* @_ZNK8perfetto6protos24ProfilePacket_HeapSample13GetCachedSizeEv to i8*), i8* bitcast (i8* (%"class.perfetto::protos::ProfilePacket_HeapSample"*, i8*, %"class.google::protobuf::internal::ParseContext"*)* @_ZN8perfetto6protos24ProfilePacket_HeapSample14_InternalParseEPKcPN6google8protobuf8internal12ParseContextE to i8*), i8* bitcast (i8* (%"class.perfetto::protos::ProfilePacket_HeapSample"*, i8*, %"class.google::protobuf::io::EpsCopyOutputStream"*)* @_ZNK8perfetto6protos24ProfilePacket_HeapSample18_InternalSerializeEPhPN6google8protobuf2io19EpsCopyOutputStreamE to i8*), i8* bitcast (i8* (%"class.google::protobuf::MessageLite"*)* @_ZNK6google8protobuf11MessageLite16InternalGetTableEv to i8*)] }, align 8
@.str = private unnamed_addr constant [78 x i8] c"gen/third_party/perfetto/protos/perfetto/trace/profiling/profile_packet.pb.cc\00", align 1
@.str.10 = private unnamed_addr constant [41 x i8] c"perfetto.protos.ProfilePacket.HeapSample\00", align 1
@_ZTVN8perfetto6protos30ProfilePacket_Histogram_BucketE = hidden unnamed_addr constant { [16 x i8*] } { [16 x i8*] [i8* null, i8* null, i8* bitcast (void (%"class.perfetto::protos::ProfilePacket_Histogram_Bucket"*)* @_ZN8perfetto6protos30ProfilePacket_Histogram_BucketD2Ev to i8*), i8* bitcast (void (%"class.perfetto::protos::ProfilePacket_Histogram_Bucket"*)* @_ZN8perfetto6protos30ProfilePacket_Histogram_BucketD0Ev to i8*), i8* bitcast (void (%"class.std::__1::basic_string"*, %"class.perfetto::protos::ProfilePacket_Histogram_Bucket"*)* @_ZNK8perfetto6protos30ProfilePacket_Histogram_Bucket11GetTypeNameEv to i8*), i8* bitcast (%"class.perfetto::protos::ProfilePacket_Histogram_Bucket"* (%"class.perfetto::protos::ProfilePacket_Histogram_Bucket"*)* @_ZNK8perfetto6protos30ProfilePacket_Histogram_Bucket3NewEv to i8*), i8* bitcast (%"class.perfetto::protos::ProfilePacket_Histogram_Bucket"* (%"class.perfetto::protos::ProfilePacket_Histogram_Bucket"*, %"class.google::protobuf::Arena"*)* @_ZNK8perfetto6protos30ProfilePacket_Histogram_Bucket3NewEPN6google8protobuf5ArenaE to i8*), i8* bitcast (void (%"class.perfetto::protos::ProfilePacket_Histogram_Bucket"*)* @_ZN8perfetto6protos30ProfilePacket_Histogram_Bucket5ClearEv to i8*), i8* bitcast (i1 (%"class.perfetto::protos::ProfilePacket_Histogram_Bucket"*)* @_ZNK8perfetto6protos30ProfilePacket_Histogram_Bucket13IsInitializedEv to i8*), i8* bitcast (void (%"class.std::__1::basic_string"*, %"class.google::protobuf::MessageLite"*)* @_ZNK6google8protobuf11MessageLite25InitializationErrorStringEv to i8*), i8* bitcast (void (%"class.perfetto::protos::ProfilePacket_Histogram_Bucket"*, %"class.google::protobuf::MessageLite"*)* @_ZN8perfetto6protos30ProfilePacket_Histogram_Bucket21CheckTypeAndMergeFromERKN6google8protobuf11MessageLiteE to i8*), i8* bitcast (i64 (%"class.perfetto::protos::ProfilePacket_Histogram_Bucket"*)* @_ZNK8perfetto6protos30ProfilePacket_Histogram_Bucket12ByteSizeLongEv to i8*), i8* bitcast (i32 (%"class.perfetto::protos::ProfilePacket_Histogram_Bucket"*)* @_ZNK8perfetto6protos30ProfilePacket_Histogram_Bucket13GetCachedSizeEv to i8*), i8* bitcast (i8* (%"class.perfetto::protos::ProfilePacket_Histogram_Bucket"*, i8*, %"class.google::protobuf::internal::ParseContext"*)* @_ZN8perfetto6protos30ProfilePacket_Histogram_Bucket14_InternalParseEPKcPN6google8protobuf8internal12ParseContextE to i8*), i8* bitcast (i8* (%"class.perfetto::protos::ProfilePacket_Histogram_Bucket"*, i8*, %"class.google::protobuf::io::EpsCopyOutputStream"*)* @_ZNK8perfetto6protos30ProfilePacket_Histogram_Bucket18_InternalSerializeEPhPN6google8protobuf2io19EpsCopyOutputStreamE to i8*), i8* bitcast (i8* (%"class.google::protobuf::MessageLite"*)* @_ZNK6google8protobuf11MessageLite16InternalGetTableEv to i8*)] }, align 8
@.str.11 = private unnamed_addr constant [47 x i8] c"perfetto.protos.ProfilePacket.Histogram.Bucket\00", align 1
@_ZTVN8perfetto6protos23ProfilePacket_HistogramE = hidden unnamed_addr constant { [16 x i8*] } { [16 x i8*] [i8* null, i8* null, i8* bitcast (void (%"class.perfetto::protos::ProfilePacket_Histogram"*)* @_ZN8perfetto6protos23ProfilePacket_HistogramD2Ev to i8*), i8* bitcast (void (%"class.perfetto::protos::ProfilePacket_Histogram"*)* @_ZN8perfetto6protos23ProfilePacket_HistogramD0Ev to i8*), i8* bitcast (void (%"class.std::__1::basic_string"*, %"class.perfetto::protos::ProfilePacket_Histogram"*)* @_ZNK8perfetto6protos23ProfilePacket_Histogram11GetTypeNameEv to i8*), i8* bitcast (%"class.perfetto::protos::ProfilePacket_Histogram"* (%"class.perfetto::protos::ProfilePacket_Histogram"*)* @_ZNK8perfetto6protos23ProfilePacket_Histogram3NewEv to i8*), i8* bitcast (%"class.perfetto::protos::ProfilePacket_Histogram"* (%"class.perfetto::protos::ProfilePacket_Histogram"*, %"class.google::protobuf::Arena"*)* @_ZNK8perfetto6protos23ProfilePacket_Histogram3NewEPN6google8protobuf5ArenaE to i8*), i8* bitcast (void (%"class.perfetto::protos::ProfilePacket_Histogram"*)* @_ZN8perfetto6protos23ProfilePacket_Histogram5ClearEv to i8*), i8* bitcast (i1 (%"class.perfetto::protos::ProfilePacket_Histogram"*)* @_ZNK8perfetto6protos23ProfilePacket_Histogram13IsInitializedEv to i8*), i8* bitcast (void (%"class.std::__1::basic_string"*, %"class.google::protobuf::MessageLite"*)* @_ZNK6google8protobuf11MessageLite25InitializationErrorStringEv to i8*), i8* bitcast (void (%"class.perfetto::protos::ProfilePacket_Histogram"*, %"class.google::protobuf::MessageLite"*)* @_ZN8perfetto6protos23ProfilePacket_Histogram21CheckTypeAndMergeFromERKN6google8protobuf11MessageLiteE to i8*), i8* bitcast (i64 (%"class.perfetto::protos::ProfilePacket_Histogram"*)* @_ZNK8perfetto6protos23ProfilePacket_Histogram12ByteSizeLongEv to i8*), i8* bitcast (i32 (%"class.perfetto::protos::ProfilePacket_Histogram"*)* @_ZNK8perfetto6protos23ProfilePacket_Histogram13GetCachedSizeEv to i8*), i8* bitcast (i8* (%"class.perfetto::protos::ProfilePacket_Histogram"*, i8*, %"class.google::protobuf::internal::ParseContext"*)* @_ZN8perfetto6protos23ProfilePacket_Histogram14_InternalParseEPKcPN6google8protobuf8internal12ParseContextE to i8*), i8* bitcast (i8* (%"class.perfetto::protos::ProfilePacket_Histogram"*, i8*, %"class.google::protobuf::io::EpsCopyOutputStream"*)* @_ZNK8perfetto6protos23ProfilePacket_Histogram18_InternalSerializeEPhPN6google8protobuf2io19EpsCopyOutputStreamE to i8*), i8* bitcast (i8* (%"class.google::protobuf::MessageLite"*)* @_ZNK6google8protobuf11MessageLite16InternalGetTableEv to i8*)] }, align 8
@.str.12 = private unnamed_addr constant [40 x i8] c"perfetto.protos.ProfilePacket.Histogram\00", align 1
@_ZTVN8perfetto6protos26ProfilePacket_ProcessStatsE = hidden unnamed_addr constant { [16 x i8*] } { [16 x i8*] [i8* null, i8* null, i8* bitcast (void (%"class.perfetto::protos::ProfilePacket_ProcessStats"*)* @_ZN8perfetto6protos26ProfilePacket_ProcessStatsD2Ev to i8*), i8* bitcast (void (%"class.perfetto::protos::ProfilePacket_ProcessStats"*)* @_ZN8perfetto6protos26ProfilePacket_ProcessStatsD0Ev to i8*), i8* bitcast (void (%"class.std::__1::basic_string"*, %"class.perfetto::protos::ProfilePacket_ProcessStats"*)* @_ZNK8perfetto6protos26ProfilePacket_ProcessStats11GetTypeNameEv to i8*), i8* bitcast (%"class.perfetto::protos::ProfilePacket_ProcessStats"* (%"class.perfetto::protos::ProfilePacket_ProcessStats"*)* @_ZNK8perfetto6protos26ProfilePacket_ProcessStats3NewEv to i8*), i8* bitcast (%"class.perfetto::protos::ProfilePacket_ProcessStats"* (%"class.perfetto::protos::ProfilePacket_ProcessStats"*, %"class.google::protobuf::Arena"*)* @_ZNK8perfetto6protos26ProfilePacket_ProcessStats3NewEPN6google8protobuf5ArenaE to i8*), i8* bitcast (void (%"class.perfetto::protos::ProfilePacket_ProcessStats"*)* @_ZN8perfetto6protos26ProfilePacket_ProcessStats5ClearEv to i8*), i8* bitcast (i1 (%"class.perfetto::protos::ProfilePacket_ProcessStats"*)* @_ZNK8perfetto6protos26ProfilePacket_ProcessStats13IsInitializedEv to i8*), i8* bitcast (void (%"class.std::__1::basic_string"*, %"class.google::protobuf::MessageLite"*)* @_ZNK6google8protobuf11MessageLite25InitializationErrorStringEv to i8*), i8* bitcast (void (%"class.perfetto::protos::ProfilePacket_ProcessStats"*, %"class.google::protobuf::MessageLite"*)* @_ZN8perfetto6protos26ProfilePacket_ProcessStats21CheckTypeAndMergeFromERKN6google8protobuf11MessageLiteE to i8*), i8* bitcast (i64 (%"class.perfetto::protos::ProfilePacket_ProcessStats"*)* @_ZNK8perfetto6protos26ProfilePacket_ProcessStats12ByteSizeLongEv to i8*), i8* bitcast (i32 (%"class.perfetto::protos::ProfilePacket_ProcessStats"*)* @_ZNK8perfetto6protos26ProfilePacket_ProcessStats13GetCachedSizeEv to i8*), i8* bitcast (i8* (%"class.perfetto::protos::ProfilePacket_ProcessStats"*, i8*, %"class.google::protobuf::internal::ParseContext"*)* @_ZN8perfetto6protos26ProfilePacket_ProcessStats14_InternalParseEPKcPN6google8protobuf8internal12ParseContextE to i8*), i8* bitcast (i8* (%"class.perfetto::protos::ProfilePacket_ProcessStats"*, i8*, %"class.google::protobuf::io::EpsCopyOutputStream"*)* @_ZNK8perfetto6protos26ProfilePacket_ProcessStats18_InternalSerializeEPhPN6google8protobuf2io19EpsCopyOutputStreamE to i8*), i8* bitcast (i8* (%"class.google::protobuf::MessageLite"*)* @_ZNK6google8protobuf11MessageLite16InternalGetTableEv to i8*)] }, align 8
@.str.14 = private unnamed_addr constant [43 x i8] c"perfetto.protos.ProfilePacket.ProcessStats\00", align 1
@_ZTVN8perfetto6protos32ProfilePacket_ProcessHeapSamplesE = hidden unnamed_addr constant { [16 x i8*] } { [16 x i8*] [i8* null, i8* null, i8* bitcast (void (%"class.perfetto::protos::ProfilePacket_ProcessHeapSamples"*)* @_ZN8perfetto6protos32ProfilePacket_ProcessHeapSamplesD2Ev to i8*), i8* bitcast (void (%"class.perfetto::protos::ProfilePacket_ProcessHeapSamples"*)* @_ZN8perfetto6protos32ProfilePacket_ProcessHeapSamplesD0Ev to i8*), i8* bitcast (void (%"class.std::__1::basic_string"*, %"class.perfetto::protos::ProfilePacket_ProcessHeapSamples"*)* @_ZNK8perfetto6protos32ProfilePacket_ProcessHeapSamples11GetTypeNameEv to i8*), i8* bitcast (%"class.perfetto::protos::ProfilePacket_ProcessHeapSamples"* (%"class.perfetto::protos::ProfilePacket_ProcessHeapSamples"*)* @_ZNK8perfetto6protos32ProfilePacket_ProcessHeapSamples3NewEv to i8*), i8* bitcast (%"class.perfetto::protos::ProfilePacket_ProcessHeapSamples"* (%"class.perfetto::protos::ProfilePacket_ProcessHeapSamples"*, %"class.google::protobuf::Arena"*)* @_ZNK8perfetto6protos32ProfilePacket_ProcessHeapSamples3NewEPN6google8protobuf5ArenaE to i8*), i8* bitcast (void (%"class.perfetto::protos::ProfilePacket_ProcessHeapSamples"*)* @_ZN8perfetto6protos32ProfilePacket_ProcessHeapSamples5ClearEv to i8*), i8* bitcast (i1 (%"class.perfetto::protos::ProfilePacket_ProcessHeapSamples"*)* @_ZNK8perfetto6protos32ProfilePacket_ProcessHeapSamples13IsInitializedEv to i8*), i8* bitcast (void (%"class.std::__1::basic_string"*, %"class.google::protobuf::MessageLite"*)* @_ZNK6google8protobuf11MessageLite25InitializationErrorStringEv to i8*), i8* bitcast (void (%"class.perfetto::protos::ProfilePacket_ProcessHeapSamples"*, %"class.google::protobuf::MessageLite"*)* @_ZN8perfetto6protos32ProfilePacket_ProcessHeapSamples21CheckTypeAndMergeFromERKN6google8protobuf11MessageLiteE to i8*), i8* bitcast (i64 (%"class.perfetto::protos::ProfilePacket_ProcessHeapSamples"*)* @_ZNK8perfetto6protos32ProfilePacket_ProcessHeapSamples12ByteSizeLongEv to i8*), i8* bitcast (i32 (%"class.perfetto::protos::ProfilePacket_ProcessHeapSamples"*)* @_ZNK8perfetto6protos32ProfilePacket_ProcessHeapSamples13GetCachedSizeEv to i8*), i8* bitcast (i8* (%"class.perfetto::protos::ProfilePacket_ProcessHeapSamples"*, i8*, %"class.google::protobuf::internal::ParseContext"*)* @_ZN8perfetto6protos32ProfilePacket_ProcessHeapSamples14_InternalParseEPKcPN6google8protobuf8internal12ParseContextE to i8*), i8* bitcast (i8* (%"class.perfetto::protos::ProfilePacket_ProcessHeapSamples"*, i8*, %"class.google::protobuf::io::EpsCopyOutputStream"*)* @_ZNK8perfetto6protos32ProfilePacket_ProcessHeapSamples18_InternalSerializeEPhPN6google8protobuf2io19EpsCopyOutputStreamE to i8*), i8* bitcast (i8* (%"class.google::protobuf::MessageLite"*)* @_ZNK6google8protobuf11MessageLite16InternalGetTableEv to i8*)] }, align 8
@.str.16 = private unnamed_addr constant [49 x i8] c"perfetto.protos.ProfilePacket.ProcessHeapSamples\00", align 1
@_ZTVN8perfetto6protos13ProfilePacketE = hidden unnamed_addr constant { [16 x i8*] } { [16 x i8*] [i8* null, i8* null, i8* bitcast (void (%"class.perfetto::protos::ProfilePacket"*)* @_ZN8perfetto6protos13ProfilePacketD2Ev to i8*), i8* bitcast (void (%"class.perfetto::protos::ProfilePacket"*)* @_ZN8perfetto6protos13ProfilePacketD0Ev to i8*), i8* bitcast (void (%"class.std::__1::basic_string"*, %"class.perfetto::protos::ProfilePacket"*)* @_ZNK8perfetto6protos13ProfilePacket11GetTypeNameEv to i8*), i8* bitcast (%"class.perfetto::protos::ProfilePacket"* (%"class.perfetto::protos::ProfilePacket"*)* @_ZNK8perfetto6protos13ProfilePacket3NewEv to i8*), i8* bitcast (%"class.perfetto::protos::ProfilePacket"* (%"class.perfetto::protos::ProfilePacket"*, %"class.google::protobuf::Arena"*)* @_ZNK8perfetto6protos13ProfilePacket3NewEPN6google8protobuf5ArenaE to i8*), i8* bitcast (void (%"class.perfetto::protos::ProfilePacket"*)* @_ZN8perfetto6protos13ProfilePacket5ClearEv to i8*), i8* bitcast (i1 (%"class.perfetto::protos::ProfilePacket"*)* @_ZNK8perfetto6protos13ProfilePacket13IsInitializedEv to i8*), i8* bitcast (void (%"class.std::__1::basic_string"*, %"class.google::protobuf::MessageLite"*)* @_ZNK6google8protobuf11MessageLite25InitializationErrorStringEv to i8*), i8* bitcast (void (%"class.perfetto::protos::ProfilePacket"*, %"class.google::protobuf::MessageLite"*)* @_ZN8perfetto6protos13ProfilePacket21CheckTypeAndMergeFromERKN6google8protobuf11MessageLiteE to i8*), i8* bitcast (i64 (%"class.perfetto::protos::ProfilePacket"*)* @_ZNK8perfetto6protos13ProfilePacket12ByteSizeLongEv to i8*), i8* bitcast (i32 (%"class.perfetto::protos::ProfilePacket"*)* @_ZNK8perfetto6protos13ProfilePacket13GetCachedSizeEv to i8*), i8* bitcast (i8* (%"class.perfetto::protos::ProfilePacket"*, i8*, %"class.google::protobuf::internal::ParseContext"*)* @_ZN8perfetto6protos13ProfilePacket14_InternalParseEPKcPN6google8protobuf8internal12ParseContextE to i8*), i8* bitcast (i8* (%"class.perfetto::protos::ProfilePacket"*, i8*, %"class.google::protobuf::io::EpsCopyOutputStream"*)* @_ZNK8perfetto6protos13ProfilePacket18_InternalSerializeEPhPN6google8protobuf2io19EpsCopyOutputStreamE to i8*), i8* bitcast (i8* (%"class.google::protobuf::MessageLite"*)* @_ZNK6google8protobuf11MessageLite16InternalGetTableEv to i8*)] }, align 8
@.str.17 = private unnamed_addr constant [30 x i8] c"perfetto.protos.ProfilePacket\00", align 1
@_ZTVN8perfetto6protos19StreamingAllocationE = hidden unnamed_addr constant { [16 x i8*] } { [16 x i8*] [i8* null, i8* null, i8* bitcast (void (%"class.perfetto::protos::StreamingAllocation"*)* @_ZN8perfetto6protos19StreamingAllocationD2Ev to i8*), i8* bitcast (void (%"class.perfetto::protos::StreamingAllocation"*)* @_ZN8perfetto6protos19StreamingAllocationD0Ev to i8*), i8* bitcast (void (%"class.std::__1::basic_string"*, %"class.perfetto::protos::StreamingAllocation"*)* @_ZNK8perfetto6protos19StreamingAllocation11GetTypeNameEv to i8*), i8* bitcast (%"class.perfetto::protos::StreamingAllocation"* (%"class.perfetto::protos::StreamingAllocation"*)* @_ZNK8perfetto6protos19StreamingAllocation3NewEv to i8*), i8* bitcast (%"class.perfetto::protos::StreamingAllocation"* (%"class.perfetto::protos::StreamingAllocation"*, %"class.google::protobuf::Arena"*)* @_ZNK8perfetto6protos19StreamingAllocation3NewEPN6google8protobuf5ArenaE to i8*), i8* bitcast (void (%"class.perfetto::protos::StreamingAllocation"*)* @_ZN8perfetto6protos19StreamingAllocation5ClearEv to i8*), i8* bitcast (i1 (%"class.perfetto::protos::StreamingAllocation"*)* @_ZNK8perfetto6protos19StreamingAllocation13IsInitializedEv to i8*), i8* bitcast (void (%"class.std::__1::basic_string"*, %"class.google::protobuf::MessageLite"*)* @_ZNK6google8protobuf11MessageLite25InitializationErrorStringEv to i8*), i8* bitcast (void (%"class.perfetto::protos::StreamingAllocation"*, %"class.google::protobuf::MessageLite"*)* @_ZN8perfetto6protos19StreamingAllocation21CheckTypeAndMergeFromERKN6google8protobuf11MessageLiteE to i8*), i8* bitcast (i64 (%"class.perfetto::protos::StreamingAllocation"*)* @_ZNK8perfetto6protos19StreamingAllocation12ByteSizeLongEv to i8*), i8* bitcast (i32 (%"class.perfetto::protos::StreamingAllocation"*)* @_ZNK8perfetto6protos19StreamingAllocation13GetCachedSizeEv to i8*), i8* bitcast (i8* (%"class.perfetto::protos::StreamingAllocation"*, i8*, %"class.google::protobuf::internal::ParseContext"*)* @_ZN8perfetto6protos19StreamingAllocation14_InternalParseEPKcPN6google8protobuf8internal12ParseContextE to i8*), i8* bitcast (i8* (%"class.perfetto::protos::StreamingAllocation"*, i8*, %"class.google::protobuf::io::EpsCopyOutputStream"*)* @_ZNK8perfetto6protos19StreamingAllocation18_InternalSerializeEPhPN6google8protobuf2io19EpsCopyOutputStreamE to i8*), i8* bitcast (i8* (%"class.google::protobuf::MessageLite"*)* @_ZNK6google8protobuf11MessageLite16InternalGetTableEv to i8*)] }, align 8
@.str.18 = private unnamed_addr constant [36 x i8] c"perfetto.protos.StreamingAllocation\00", align 1
@_ZTVN8perfetto6protos13StreamingFreeE = hidden unnamed_addr constant { [16 x i8*] } { [16 x i8*] [i8* null, i8* null, i8* bitcast (void (%"class.perfetto::protos::StreamingFree"*)* @_ZN8perfetto6protos13StreamingFreeD2Ev to i8*), i8* bitcast (void (%"class.perfetto::protos::StreamingFree"*)* @_ZN8perfetto6protos13StreamingFreeD0Ev to i8*), i8* bitcast (void (%"class.std::__1::basic_string"*, %"class.perfetto::protos::StreamingFree"*)* @_ZNK8perfetto6protos13StreamingFree11GetTypeNameEv to i8*), i8* bitcast (%"class.perfetto::protos::StreamingFree"* (%"class.perfetto::protos::StreamingFree"*)* @_ZNK8perfetto6protos13StreamingFree3NewEv to i8*), i8* bitcast (%"class.perfetto::protos::StreamingFree"* (%"class.perfetto::protos::StreamingFree"*, %"class.google::protobuf::Arena"*)* @_ZNK8perfetto6protos13StreamingFree3NewEPN6google8protobuf5ArenaE to i8*), i8* bitcast (void (%"class.perfetto::protos::StreamingFree"*)* @_ZN8perfetto6protos13StreamingFree5ClearEv to i8*), i8* bitcast (i1 (%"class.perfetto::protos::StreamingFree"*)* @_ZNK8perfetto6protos13StreamingFree13IsInitializedEv to i8*), i8* bitcast (void (%"class.std::__1::basic_string"*, %"class.google::protobuf::MessageLite"*)* @_ZNK6google8protobuf11MessageLite25InitializationErrorStringEv to i8*), i8* bitcast (void (%"class.perfetto::protos::StreamingFree"*, %"class.google::protobuf::MessageLite"*)* @_ZN8perfetto6protos13StreamingFree21CheckTypeAndMergeFromERKN6google8protobuf11MessageLiteE to i8*), i8* bitcast (i64 (%"class.perfetto::protos::StreamingFree"*)* @_ZNK8perfetto6protos13StreamingFree12ByteSizeLongEv to i8*), i8* bitcast (i32 (%"class.perfetto::protos::StreamingFree"*)* @_ZNK8perfetto6protos13StreamingFree13GetCachedSizeEv to i8*), i8* bitcast (i8* (%"class.perfetto::protos::StreamingFree"*, i8*, %"class.google::protobuf::internal::ParseContext"*)* @_ZN8perfetto6protos13StreamingFree14_InternalParseEPKcPN6google8protobuf8internal12ParseContextE to i8*), i8* bitcast (i8* (%"class.perfetto::protos::StreamingFree"*, i8*, %"class.google::protobuf::io::EpsCopyOutputStream"*)* @_ZNK8perfetto6protos13StreamingFree18_InternalSerializeEPhPN6google8protobuf2io19EpsCopyOutputStreamE to i8*), i8* bitcast (i8* (%"class.google::protobuf::MessageLite"*)* @_ZNK6google8protobuf11MessageLite16InternalGetTableEv to i8*)] }, align 8
@.str.19 = private unnamed_addr constant [30 x i8] c"perfetto.protos.StreamingFree\00", align 1
@_ZTVN8perfetto6protos22StreamingProfilePacketE = hidden unnamed_addr constant { [16 x i8*] } { [16 x i8*] [i8* null, i8* null, i8* bitcast (void (%"class.perfetto::protos::StreamingProfilePacket"*)* @_ZN8perfetto6protos22StreamingProfilePacketD2Ev to i8*), i8* bitcast (void (%"class.perfetto::protos::StreamingProfilePacket"*)* @_ZN8perfetto6protos22StreamingProfilePacketD0Ev to i8*), i8* bitcast (void (%"class.std::__1::basic_string"*, %"class.perfetto::protos::StreamingProfilePacket"*)* @_ZNK8perfetto6protos22StreamingProfilePacket11GetTypeNameEv to i8*), i8* bitcast (%"class.perfetto::protos::StreamingProfilePacket"* (%"class.perfetto::protos::StreamingProfilePacket"*)* @_ZNK8perfetto6protos22StreamingProfilePacket3NewEv to i8*), i8* bitcast (%"class.perfetto::protos::StreamingProfilePacket"* (%"class.perfetto::protos::StreamingProfilePacket"*, %"class.google::protobuf::Arena"*)* @_ZNK8perfetto6protos22StreamingProfilePacket3NewEPN6google8protobuf5ArenaE to i8*), i8* bitcast (void (%"class.perfetto::protos::StreamingProfilePacket"*)* @_ZN8perfetto6protos22StreamingProfilePacket5ClearEv to i8*), i8* bitcast (i1 (%"class.perfetto::protos::StreamingProfilePacket"*)* @_ZNK8perfetto6protos22StreamingProfilePacket13IsInitializedEv to i8*), i8* bitcast (void (%"class.std::__1::basic_string"*, %"class.google::protobuf::MessageLite"*)* @_ZNK6google8protobuf11MessageLite25InitializationErrorStringEv to i8*), i8* bitcast (void (%"class.perfetto::protos::StreamingProfilePacket"*, %"class.google::protobuf::MessageLite"*)* @_ZN8perfetto6protos22StreamingProfilePacket21CheckTypeAndMergeFromERKN6google8protobuf11MessageLiteE to i8*), i8* bitcast (i64 (%"class.perfetto::protos::StreamingProfilePacket"*)* @_ZNK8perfetto6protos22StreamingProfilePacket12ByteSizeLongEv to i8*), i8* bitcast (i32 (%"class.perfetto::protos::StreamingProfilePacket"*)* @_ZNK8perfetto6protos22StreamingProfilePacket13GetCachedSizeEv to i8*), i8* bitcast (i8* (%"class.perfetto::protos::StreamingProfilePacket"*, i8*, %"class.google::protobuf::internal::ParseContext"*)* @_ZN8perfetto6protos22StreamingProfilePacket14_InternalParseEPKcPN6google8protobuf8internal12ParseContextE to i8*), i8* bitcast (i8* (%"class.perfetto::protos::StreamingProfilePacket"*, i8*, %"class.google::protobuf::io::EpsCopyOutputStream"*)* @_ZNK8perfetto6protos22StreamingProfilePacket18_InternalSerializeEPhPN6google8protobuf2io19EpsCopyOutputStreamE to i8*), i8* bitcast (i8* (%"class.google::protobuf::MessageLite"*)* @_ZNK6google8protobuf11MessageLite16InternalGetTableEv to i8*)] }, align 8
@.str.20 = private unnamed_addr constant [39 x i8] c"perfetto.protos.StreamingProfilePacket\00", align 1
@_ZTVN8perfetto6protos9ProfilingE = hidden unnamed_addr constant { [16 x i8*] } { [16 x i8*] [i8* null, i8* null, i8* bitcast (void (%"class.perfetto::protos::Profiling"*)* @_ZN8perfetto6protos9ProfilingD2Ev to i8*), i8* bitcast (void (%"class.perfetto::protos::Profiling"*)* @_ZN8perfetto6protos9ProfilingD0Ev to i8*), i8* bitcast (void (%"class.std::__1::basic_string"*, %"class.perfetto::protos::Profiling"*)* @_ZNK8perfetto6protos9Profiling11GetTypeNameEv to i8*), i8* bitcast (%"class.perfetto::protos::Profiling"* (%"class.perfetto::protos::Profiling"*)* @_ZNK8perfetto6protos9Profiling3NewEv to i8*), i8* bitcast (%"class.perfetto::protos::Profiling"* (%"class.perfetto::protos::Profiling"*, %"class.google::protobuf::Arena"*)* @_ZNK8perfetto6protos9Profiling3NewEPN6google8protobuf5ArenaE to i8*), i8* bitcast (void (%"class.perfetto::protos::Profiling"*)* @_ZN8perfetto6protos9Profiling5ClearEv to i8*), i8* bitcast (i1 (%"class.perfetto::protos::Profiling"*)* @_ZNK8perfetto6protos9Profiling13IsInitializedEv to i8*), i8* bitcast (void (%"class.std::__1::basic_string"*, %"class.google::protobuf::MessageLite"*)* @_ZNK6google8protobuf11MessageLite25InitializationErrorStringEv to i8*), i8* bitcast (void (%"class.perfetto::protos::Profiling"*, %"class.google::protobuf::MessageLite"*)* @_ZN8perfetto6protos9Profiling21CheckTypeAndMergeFromERKN6google8protobuf11MessageLiteE to i8*), i8* bitcast (i64 (%"class.perfetto::protos::Profiling"*)* @_ZNK8perfetto6protos9Profiling12ByteSizeLongEv to i8*), i8* bitcast (i32 (%"class.perfetto::protos::Profiling"*)* @_ZNK8perfetto6protos9Profiling13GetCachedSizeEv to i8*), i8* bitcast (i8* (%"class.perfetto::protos::Profiling"*, i8*, %"class.google::protobuf::internal::ParseContext"*)* @_ZN8perfetto6protos9Profiling14_InternalParseEPKcPN6google8protobuf8internal12ParseContextE to i8*), i8* bitcast (i8* (%"class.perfetto::protos::Profiling"*, i8*, %"class.google::protobuf::io::EpsCopyOutputStream"*)* @_ZNK8perfetto6protos9Profiling18_InternalSerializeEPhPN6google8protobuf2io19EpsCopyOutputStreamE to i8*), i8* bitcast (i8* (%"class.google::protobuf::MessageLite"*)* @_ZNK6google8protobuf11MessageLite16InternalGetTableEv to i8*)] }, align 8
@.str.21 = private unnamed_addr constant [26 x i8] c"perfetto.protos.Profiling\00", align 1
@_ZTVN8perfetto6protos24PerfSample_ProducerEventE = hidden unnamed_addr constant { [16 x i8*] } { [16 x i8*] [i8* null, i8* null, i8* bitcast (void (%"class.perfetto::protos::PerfSample_ProducerEvent"*)* @_ZN8perfetto6protos24PerfSample_ProducerEventD2Ev to i8*), i8* bitcast (void (%"class.perfetto::protos::PerfSample_ProducerEvent"*)* @_ZN8perfetto6protos24PerfSample_ProducerEventD0Ev to i8*), i8* bitcast (void (%"class.std::__1::basic_string"*, %"class.perfetto::protos::PerfSample_ProducerEvent"*)* @_ZNK8perfetto6protos24PerfSample_ProducerEvent11GetTypeNameEv to i8*), i8* bitcast (%"class.perfetto::protos::PerfSample_ProducerEvent"* (%"class.perfetto::protos::PerfSample_ProducerEvent"*)* @_ZNK8perfetto6protos24PerfSample_ProducerEvent3NewEv to i8*), i8* bitcast (%"class.perfetto::protos::PerfSample_ProducerEvent"* (%"class.perfetto::protos::PerfSample_ProducerEvent"*, %"class.google::protobuf::Arena"*)* @_ZNK8perfetto6protos24PerfSample_ProducerEvent3NewEPN6google8protobuf5ArenaE to i8*), i8* bitcast (void (%"class.perfetto::protos::PerfSample_ProducerEvent"*)* @_ZN8perfetto6protos24PerfSample_ProducerEvent5ClearEv to i8*), i8* bitcast (i1 (%"class.perfetto::protos::PerfSample_ProducerEvent"*)* @_ZNK8perfetto6protos24PerfSample_ProducerEvent13IsInitializedEv to i8*), i8* bitcast (void (%"class.std::__1::basic_string"*, %"class.google::protobuf::MessageLite"*)* @_ZNK6google8protobuf11MessageLite25InitializationErrorStringEv to i8*), i8* bitcast (void (%"class.perfetto::protos::PerfSample_ProducerEvent"*, %"class.google::protobuf::MessageLite"*)* @_ZN8perfetto6protos24PerfSample_ProducerEvent21CheckTypeAndMergeFromERKN6google8protobuf11MessageLiteE to i8*), i8* bitcast (i64 (%"class.perfetto::protos::PerfSample_ProducerEvent"*)* @_ZNK8perfetto6protos24PerfSample_ProducerEvent12ByteSizeLongEv to i8*), i8* bitcast (i32 (%"class.perfetto::protos::PerfSample_ProducerEvent"*)* @_ZNK8perfetto6protos24PerfSample_ProducerEvent13GetCachedSizeEv to i8*), i8* bitcast (i8* (%"class.perfetto::protos::PerfSample_ProducerEvent"*, i8*, %"class.google::protobuf::internal::ParseContext"*)* @_ZN8perfetto6protos24PerfSample_ProducerEvent14_InternalParseEPKcPN6google8protobuf8internal12ParseContextE to i8*), i8* bitcast (i8* (%"class.perfetto::protos::PerfSample_ProducerEvent"*, i8*, %"class.google::protobuf::io::EpsCopyOutputStream"*)* @_ZNK8perfetto6protos24PerfSample_ProducerEvent18_InternalSerializeEPhPN6google8protobuf2io19EpsCopyOutputStreamE to i8*), i8* bitcast (i8* (%"class.google::protobuf::MessageLite"*)* @_ZNK6google8protobuf11MessageLite16InternalGetTableEv to i8*)] }, align 8
@.str.22 = private unnamed_addr constant [41 x i8] c"perfetto.protos.PerfSample.ProducerEvent\00", align 1
@_ZTVN8perfetto6protos10PerfSampleE = hidden unnamed_addr constant { [16 x i8*] } { [16 x i8*] [i8* null, i8* null, i8* bitcast (void (%"class.perfetto::protos::PerfSample"*)* @_ZN8perfetto6protos10PerfSampleD2Ev to i8*), i8* bitcast (void (%"class.perfetto::protos::PerfSample"*)* @_ZN8perfetto6protos10PerfSampleD0Ev to i8*), i8* bitcast (void (%"class.std::__1::basic_string"*, %"class.perfetto::protos::PerfSample"*)* @_ZNK8perfetto6protos10PerfSample11GetTypeNameEv to i8*), i8* bitcast (%"class.perfetto::protos::PerfSample"* (%"class.perfetto::protos::PerfSample"*)* @_ZNK8perfetto6protos10PerfSample3NewEv to i8*), i8* bitcast (%"class.perfetto::protos::PerfSample"* (%"class.perfetto::protos::PerfSample"*, %"class.google::protobuf::Arena"*)* @_ZNK8perfetto6protos10PerfSample3NewEPN6google8protobuf5ArenaE to i8*), i8* bitcast (void (%"class.perfetto::protos::PerfSample"*)* @_ZN8perfetto6protos10PerfSample5ClearEv to i8*), i8* bitcast (i1 (%"class.perfetto::protos::PerfSample"*)* @_ZNK8perfetto6protos10PerfSample13IsInitializedEv to i8*), i8* bitcast (void (%"class.std::__1::basic_string"*, %"class.google::protobuf::MessageLite"*)* @_ZNK6google8protobuf11MessageLite25InitializationErrorStringEv to i8*), i8* bitcast (void (%"class.perfetto::protos::PerfSample"*, %"class.google::protobuf::MessageLite"*)* @_ZN8perfetto6protos10PerfSample21CheckTypeAndMergeFromERKN6google8protobuf11MessageLiteE to i8*), i8* bitcast (i64 (%"class.perfetto::protos::PerfSample"*)* @_ZNK8perfetto6protos10PerfSample12ByteSizeLongEv to i8*), i8* bitcast (i32 (%"class.perfetto::protos::PerfSample"*)* @_ZNK8perfetto6protos10PerfSample13GetCachedSizeEv to i8*), i8* bitcast (i8* (%"class.perfetto::protos::PerfSample"*, i8*, %"class.google::protobuf::internal::ParseContext"*)* @_ZN8perfetto6protos10PerfSample14_InternalParseEPKcPN6google8protobuf8internal12ParseContextE to i8*), i8* bitcast (i8* (%"class.perfetto::protos::PerfSample"*, i8*, %"class.google::protobuf::io::EpsCopyOutputStream"*)* @_ZNK8perfetto6protos10PerfSample18_InternalSerializeEPhPN6google8protobuf2io19EpsCopyOutputStreamE to i8*), i8* bitcast (i8* (%"class.google::protobuf::MessageLite"*)* @_ZNK6google8protobuf11MessageLite16InternalGetTableEv to i8*)] }, align 8
@.str.24 = private unnamed_addr constant [27 x i8] c"perfetto.protos.PerfSample\00", align 1
@_ZTVN8perfetto6protos18PerfSampleDefaultsE = hidden unnamed_addr constant { [16 x i8*] } { [16 x i8*] [i8* null, i8* null, i8* bitcast (void (%"class.perfetto::protos::PerfSampleDefaults"*)* @_ZN8perfetto6protos18PerfSampleDefaultsD2Ev to i8*), i8* bitcast (void (%"class.perfetto::protos::PerfSampleDefaults"*)* @_ZN8perfetto6protos18PerfSampleDefaultsD0Ev to i8*), i8* bitcast (void (%"class.std::__1::basic_string"*, %"class.perfetto::protos::PerfSampleDefaults"*)* @_ZNK8perfetto6protos18PerfSampleDefaults11GetTypeNameEv to i8*), i8* bitcast (%"class.perfetto::protos::PerfSampleDefaults"* (%"class.perfetto::protos::PerfSampleDefaults"*)* @_ZNK8perfetto6protos18PerfSampleDefaults3NewEv to i8*), i8* bitcast (%"class.perfetto::protos::PerfSampleDefaults"* (%"class.perfetto::protos::PerfSampleDefaults"*, %"class.google::protobuf::Arena"*)* @_ZNK8perfetto6protos18PerfSampleDefaults3NewEPN6google8protobuf5ArenaE to i8*), i8* bitcast (void (%"class.perfetto::protos::PerfSampleDefaults"*)* @_ZN8perfetto6protos18PerfSampleDefaults5ClearEv to i8*), i8* bitcast (i1 (%"class.perfetto::protos::PerfSampleDefaults"*)* @_ZNK8perfetto6protos18PerfSampleDefaults13IsInitializedEv to i8*), i8* bitcast (void (%"class.std::__1::basic_string"*, %"class.google::protobuf::MessageLite"*)* @_ZNK6google8protobuf11MessageLite25InitializationErrorStringEv to i8*), i8* bitcast (void (%"class.perfetto::protos::PerfSampleDefaults"*, %"class.google::protobuf::MessageLite"*)* @_ZN8perfetto6protos18PerfSampleDefaults21CheckTypeAndMergeFromERKN6google8protobuf11MessageLiteE to i8*), i8* bitcast (i64 (%"class.perfetto::protos::PerfSampleDefaults"*)* @_ZNK8perfetto6protos18PerfSampleDefaults12ByteSizeLongEv to i8*), i8* bitcast (i32 (%"class.perfetto::protos::PerfSampleDefaults"*)* @_ZNK8perfetto6protos18PerfSampleDefaults13GetCachedSizeEv to i8*), i8* bitcast (i8* (%"class.perfetto::protos::PerfSampleDefaults"*, i8*, %"class.google::protobuf::internal::ParseContext"*)* @_ZN8perfetto6protos18PerfSampleDefaults14_InternalParseEPKcPN6google8protobuf8internal12ParseContextE to i8*), i8* bitcast (i8* (%"class.perfetto::protos::PerfSampleDefaults"*, i8*, %"class.google::protobuf::io::EpsCopyOutputStream"*)* @_ZNK8perfetto6protos18PerfSampleDefaults18_InternalSerializeEPhPN6google8protobuf2io19EpsCopyOutputStreamE to i8*), i8* bitcast (i8* (%"class.google::protobuf::MessageLite"*)* @_ZNK6google8protobuf11MessageLite16InternalGetTableEv to i8*)] }, align 8
@.str.26 = private unnamed_addr constant [35 x i8] c"perfetto.protos.PerfSampleDefaults\00", align 1
@_ZN6google8protobuf8internal26fixed_address_empty_stringE = external global %"class.google::protobuf::internal::ExplicitlyConstructed.17", align 8
@_ZN8perfetto6protos38_PerfEvents_Timebase_default_instance_E = external global %"class.perfetto::protos::PerfEvents_TimebaseDefaultTypeInternal", align 1
@.str.42 = private unnamed_addr constant [25 x i8] c"size_t to int conversion\00", align 1
@llvm.global_ctors = appending global [0 x { i32, void ()*, i8* }] zeroinitializer

@_ZN8perfetto6protos24ProfilePacket_HeapSampleC1EPN6google8protobuf5ArenaE = hidden unnamed_addr alias void (%"class.perfetto::protos::ProfilePacket_HeapSample"*, %"class.google::protobuf::Arena"*), void (%"class.perfetto::protos::ProfilePacket_HeapSample"*, %"class.google::protobuf::Arena"*)* @_ZN8perfetto6protos24ProfilePacket_HeapSampleC2EPN6google8protobuf5ArenaE
@_ZN8perfetto6protos24ProfilePacket_HeapSampleC1ERKS1_ = hidden unnamed_addr alias void (%"class.perfetto::protos::ProfilePacket_HeapSample"*, %"class.perfetto::protos::ProfilePacket_HeapSample"*), void (%"class.perfetto::protos::ProfilePacket_HeapSample"*, %"class.perfetto::protos::ProfilePacket_HeapSample"*)* @_ZN8perfetto6protos24ProfilePacket_HeapSampleC2ERKS1_
@_ZN8perfetto6protos24ProfilePacket_HeapSampleD1Ev = hidden unnamed_addr alias void (%"class.perfetto::protos::ProfilePacket_HeapSample"*), void (%"class.perfetto::protos::ProfilePacket_HeapSample"*)* @_ZN8perfetto6protos24ProfilePacket_HeapSampleD2Ev
@_ZN8perfetto6protos30ProfilePacket_Histogram_BucketC1EPN6google8protobuf5ArenaE = hidden unnamed_addr alias void (%"class.perfetto::protos::ProfilePacket_Histogram_Bucket"*, %"class.google::protobuf::Arena"*), void (%"class.perfetto::protos::ProfilePacket_Histogram_Bucket"*, %"class.google::protobuf::Arena"*)* @_ZN8perfetto6protos30ProfilePacket_Histogram_BucketC2EPN6google8protobuf5ArenaE
@_ZN8perfetto6protos30ProfilePacket_Histogram_BucketC1ERKS1_ = hidden unnamed_addr alias void (%"class.perfetto::protos::ProfilePacket_Histogram_Bucket"*, %"class.perfetto::protos::ProfilePacket_Histogram_Bucket"*), void (%"class.perfetto::protos::ProfilePacket_Histogram_Bucket"*, %"class.perfetto::protos::ProfilePacket_Histogram_Bucket"*)* @_ZN8perfetto6protos30ProfilePacket_Histogram_BucketC2ERKS1_
@_ZN8perfetto6protos30ProfilePacket_Histogram_BucketD1Ev = hidden unnamed_addr alias void (%"class.perfetto::protos::ProfilePacket_Histogram_Bucket"*), void (%"class.perfetto::protos::ProfilePacket_Histogram_Bucket"*)* @_ZN8perfetto6protos30ProfilePacket_Histogram_BucketD2Ev
@_ZN8perfetto6protos23ProfilePacket_HistogramC1EPN6google8protobuf5ArenaE = hidden unnamed_addr alias void (%"class.perfetto::protos::ProfilePacket_Histogram"*, %"class.google::protobuf::Arena"*), void (%"class.perfetto::protos::ProfilePacket_Histogram"*, %"class.google::protobuf::Arena"*)* @_ZN8perfetto6protos23ProfilePacket_HistogramC2EPN6google8protobuf5ArenaE
@_ZN8perfetto6protos23ProfilePacket_HistogramC1ERKS1_ = hidden unnamed_addr alias void (%"class.perfetto::protos::ProfilePacket_Histogram"*, %"class.perfetto::protos::ProfilePacket_Histogram"*), void (%"class.perfetto::protos::ProfilePacket_Histogram"*, %"class.perfetto::protos::ProfilePacket_Histogram"*)* @_ZN8perfetto6protos23ProfilePacket_HistogramC2ERKS1_
@_ZN8perfetto6protos23ProfilePacket_HistogramD1Ev = hidden unnamed_addr alias void (%"class.perfetto::protos::ProfilePacket_Histogram"*), void (%"class.perfetto::protos::ProfilePacket_Histogram"*)* @_ZN8perfetto6protos23ProfilePacket_HistogramD2Ev
@_ZN8perfetto6protos26ProfilePacket_ProcessStatsC1EPN6google8protobuf5ArenaE = hidden unnamed_addr alias void (%"class.perfetto::protos::ProfilePacket_ProcessStats"*, %"class.google::protobuf::Arena"*), void (%"class.perfetto::protos::ProfilePacket_ProcessStats"*, %"class.google::protobuf::Arena"*)* @_ZN8perfetto6protos26ProfilePacket_ProcessStatsC2EPN6google8protobuf5ArenaE
@_ZN8perfetto6protos26ProfilePacket_ProcessStatsC1ERKS1_ = hidden unnamed_addr alias void (%"class.perfetto::protos::ProfilePacket_ProcessStats"*, %"class.perfetto::protos::ProfilePacket_ProcessStats"*), void (%"class.perfetto::protos::ProfilePacket_ProcessStats"*, %"class.perfetto::protos::ProfilePacket_ProcessStats"*)* @_ZN8perfetto6protos26ProfilePacket_ProcessStatsC2ERKS1_
@_ZN8perfetto6protos26ProfilePacket_ProcessStatsD1Ev = hidden unnamed_addr alias void (%"class.perfetto::protos::ProfilePacket_ProcessStats"*), void (%"class.perfetto::protos::ProfilePacket_ProcessStats"*)* @_ZN8perfetto6protos26ProfilePacket_ProcessStatsD2Ev
@_ZN8perfetto6protos32ProfilePacket_ProcessHeapSamplesC1EPN6google8protobuf5ArenaE = hidden unnamed_addr alias void (%"class.perfetto::protos::ProfilePacket_ProcessHeapSamples"*, %"class.google::protobuf::Arena"*), void (%"class.perfetto::protos::ProfilePacket_ProcessHeapSamples"*, %"class.google::protobuf::Arena"*)* @_ZN8perfetto6protos32ProfilePacket_ProcessHeapSamplesC2EPN6google8protobuf5ArenaE
@_ZN8perfetto6protos32ProfilePacket_ProcessHeapSamplesC1ERKS1_ = hidden unnamed_addr alias void (%"class.perfetto::protos::ProfilePacket_ProcessHeapSamples"*, %"class.perfetto::protos::ProfilePacket_ProcessHeapSamples"*), void (%"class.perfetto::protos::ProfilePacket_ProcessHeapSamples"*, %"class.perfetto::protos::ProfilePacket_ProcessHeapSamples"*)* @_ZN8perfetto6protos32ProfilePacket_ProcessHeapSamplesC2ERKS1_
@_ZN8perfetto6protos32ProfilePacket_ProcessHeapSamplesD1Ev = hidden unnamed_addr alias void (%"class.perfetto::protos::ProfilePacket_ProcessHeapSamples"*), void (%"class.perfetto::protos::ProfilePacket_ProcessHeapSamples"*)* @_ZN8perfetto6protos32ProfilePacket_ProcessHeapSamplesD2Ev
@_ZN8perfetto6protos13ProfilePacketC1EPN6google8protobuf5ArenaE = hidden unnamed_addr alias void (%"class.perfetto::protos::ProfilePacket"*, %"class.google::protobuf::Arena"*), void (%"class.perfetto::protos::ProfilePacket"*, %"class.google::protobuf::Arena"*)* @_ZN8perfetto6protos13ProfilePacketC2EPN6google8protobuf5ArenaE
@_ZN8perfetto6protos13ProfilePacketC1ERKS1_ = hidden unnamed_addr alias void (%"class.perfetto::protos::ProfilePacket"*, %"class.perfetto::protos::ProfilePacket"*), void (%"class.perfetto::protos::ProfilePacket"*, %"class.perfetto::protos::ProfilePacket"*)* @_ZN8perfetto6protos13ProfilePacketC2ERKS1_
@_ZN8perfetto6protos13ProfilePacketD1Ev = hidden unnamed_addr alias void (%"class.perfetto::protos::ProfilePacket"*), void (%"class.perfetto::protos::ProfilePacket"*)* @_ZN8perfetto6protos13ProfilePacketD2Ev
@_ZN8perfetto6protos19StreamingAllocationC1EPN6google8protobuf5ArenaE = hidden unnamed_addr alias void (%"class.perfetto::protos::StreamingAllocation"*, %"class.google::protobuf::Arena"*), void (%"class.perfetto::protos::StreamingAllocation"*, %"class.google::protobuf::Arena"*)* @_ZN8perfetto6protos19StreamingAllocationC2EPN6google8protobuf5ArenaE
@_ZN8perfetto6protos19StreamingAllocationC1ERKS1_ = hidden unnamed_addr alias void (%"class.perfetto::protos::StreamingAllocation"*, %"class.perfetto::protos::StreamingAllocation"*), void (%"class.perfetto::protos::StreamingAllocation"*, %"class.perfetto::protos::StreamingAllocation"*)* @_ZN8perfetto6protos19StreamingAllocationC2ERKS1_
@_ZN8perfetto6protos19StreamingAllocationD1Ev = hidden unnamed_addr alias void (%"class.perfetto::protos::StreamingAllocation"*), void (%"class.perfetto::protos::StreamingAllocation"*)* @_ZN8perfetto6protos19StreamingAllocationD2Ev
@_ZN8perfetto6protos13StreamingFreeC1EPN6google8protobuf5ArenaE = hidden unnamed_addr alias void (%"class.perfetto::protos::StreamingFree"*, %"class.google::protobuf::Arena"*), void (%"class.perfetto::protos::StreamingFree"*, %"class.google::protobuf::Arena"*)* @_ZN8perfetto6protos13StreamingFreeC2EPN6google8protobuf5ArenaE
@_ZN8perfetto6protos13StreamingFreeC1ERKS1_ = hidden unnamed_addr alias void (%"class.perfetto::protos::StreamingFree"*, %"class.perfetto::protos::StreamingFree"*), void (%"class.perfetto::protos::StreamingFree"*, %"class.perfetto::protos::StreamingFree"*)* @_ZN8perfetto6protos13StreamingFreeC2ERKS1_
@_ZN8perfetto6protos13StreamingFreeD1Ev = hidden unnamed_addr alias void (%"class.perfetto::protos::StreamingFree"*), void (%"class.perfetto::protos::StreamingFree"*)* @_ZN8perfetto6protos13StreamingFreeD2Ev
@_ZN8perfetto6protos22StreamingProfilePacketC1EPN6google8protobuf5ArenaE = hidden unnamed_addr alias void (%"class.perfetto::protos::StreamingProfilePacket"*, %"class.google::protobuf::Arena"*), void (%"class.perfetto::protos::StreamingProfilePacket"*, %"class.google::protobuf::Arena"*)* @_ZN8perfetto6protos22StreamingProfilePacketC2EPN6google8protobuf5ArenaE
@_ZN8perfetto6protos22StreamingProfilePacketC1ERKS1_ = hidden unnamed_addr alias void (%"class.perfetto::protos::StreamingProfilePacket"*, %"class.perfetto::protos::StreamingProfilePacket"*), void (%"class.perfetto::protos::StreamingProfilePacket"*, %"class.perfetto::protos::StreamingProfilePacket"*)* @_ZN8perfetto6protos22StreamingProfilePacketC2ERKS1_
@_ZN8perfetto6protos22StreamingProfilePacketD1Ev = hidden unnamed_addr alias void (%"class.perfetto::protos::StreamingProfilePacket"*), void (%"class.perfetto::protos::StreamingProfilePacket"*)* @_ZN8perfetto6protos22StreamingProfilePacketD2Ev
@_ZN8perfetto6protos9ProfilingC1EPN6google8protobuf5ArenaE = hidden unnamed_addr alias void (%"class.perfetto::protos::Profiling"*, %"class.google::protobuf::Arena"*), void (%"class.perfetto::protos::Profiling"*, %"class.google::protobuf::Arena"*)* @_ZN8perfetto6protos9ProfilingC2EPN6google8protobuf5ArenaE
@_ZN8perfetto6protos9ProfilingC1ERKS1_ = hidden unnamed_addr alias void (%"class.perfetto::protos::Profiling"*, %"class.perfetto::protos::Profiling"*), void (%"class.perfetto::protos::Profiling"*, %"class.perfetto::protos::Profiling"*)* @_ZN8perfetto6protos9ProfilingC2ERKS1_
@_ZN8perfetto6protos9ProfilingD1Ev = hidden unnamed_addr alias void (%"class.perfetto::protos::Profiling"*), void (%"class.perfetto::protos::Profiling"*)* @_ZN8perfetto6protos9ProfilingD2Ev
@_ZN8perfetto6protos24PerfSample_ProducerEventC1EPN6google8protobuf5ArenaE = hidden unnamed_addr alias void (%"class.perfetto::protos::PerfSample_ProducerEvent"*, %"class.google::protobuf::Arena"*), void (%"class.perfetto::protos::PerfSample_ProducerEvent"*, %"class.google::protobuf::Arena"*)* @_ZN8perfetto6protos24PerfSample_ProducerEventC2EPN6google8protobuf5ArenaE
@_ZN8perfetto6protos24PerfSample_ProducerEventC1ERKS1_ = hidden unnamed_addr alias void (%"class.perfetto::protos::PerfSample_ProducerEvent"*, %"class.perfetto::protos::PerfSample_ProducerEvent"*), void (%"class.perfetto::protos::PerfSample_ProducerEvent"*, %"class.perfetto::protos::PerfSample_ProducerEvent"*)* @_ZN8perfetto6protos24PerfSample_ProducerEventC2ERKS1_
@_ZN8perfetto6protos24PerfSample_ProducerEventD1Ev = hidden unnamed_addr alias void (%"class.perfetto::protos::PerfSample_ProducerEvent"*), void (%"class.perfetto::protos::PerfSample_ProducerEvent"*)* @_ZN8perfetto6protos24PerfSample_ProducerEventD2Ev
@_ZN8perfetto6protos10PerfSampleC1EPN6google8protobuf5ArenaE = hidden unnamed_addr alias void (%"class.perfetto::protos::PerfSample"*, %"class.google::protobuf::Arena"*), void (%"class.perfetto::protos::PerfSample"*, %"class.google::protobuf::Arena"*)* @_ZN8perfetto6protos10PerfSampleC2EPN6google8protobuf5ArenaE
@_ZN8perfetto6protos10PerfSampleC1ERKS1_ = hidden unnamed_addr alias void (%"class.perfetto::protos::PerfSample"*, %"class.perfetto::protos::PerfSample"*), void (%"class.perfetto::protos::PerfSample"*, %"class.perfetto::protos::PerfSample"*)* @_ZN8perfetto6protos10PerfSampleC2ERKS1_
@_ZN8perfetto6protos10PerfSampleD1Ev = hidden unnamed_addr alias void (%"class.perfetto::protos::PerfSample"*), void (%"class.perfetto::protos::PerfSample"*)* @_ZN8perfetto6protos10PerfSampleD2Ev
@_ZN8perfetto6protos18PerfSampleDefaultsC1EPN6google8protobuf5ArenaE = hidden unnamed_addr alias void (%"class.perfetto::protos::PerfSampleDefaults"*, %"class.google::protobuf::Arena"*), void (%"class.perfetto::protos::PerfSampleDefaults"*, %"class.google::protobuf::Arena"*)* @_ZN8perfetto6protos18PerfSampleDefaultsC2EPN6google8protobuf5ArenaE
@_ZN8perfetto6protos18PerfSampleDefaultsC1ERKS1_ = hidden unnamed_addr alias void (%"class.perfetto::protos::PerfSampleDefaults"*, %"class.perfetto::protos::PerfSampleDefaults"*), void (%"class.perfetto::protos::PerfSampleDefaults"*, %"class.perfetto::protos::PerfSampleDefaults"*)* @_ZN8perfetto6protos18PerfSampleDefaultsC2ERKS1_
@_ZN8perfetto6protos18PerfSampleDefaultsD1Ev = hidden unnamed_addr alias void (%"class.perfetto::protos::PerfSampleDefaults"*), void (%"class.perfetto::protos::PerfSampleDefaults"*)* @_ZN8perfetto6protos18PerfSampleDefaultsD2Ev

; Function Attrs: nounwind ssp uwtable
define internal void @_ZL96InitDefaultsscc_info_PerfSample_protos_2fperfetto_2ftrace_2fprofiling_2fprofile_5fpacket_2eprotov() #0 {
  tail call void @_ZN6google8protobuf8internal13VerifyVersionEiiPKc(i32 3013000, i32 3013000, i8* getelementptr inbounds ([78 x i8], [78 x i8]* @.str, i64 0, i64 0)) #14
  store %"class.google::protobuf::Arena"* null, %"class.google::protobuf::Arena"** bitcast (i8* getelementptr inbounds (%"class.perfetto::protos::PerfSampleDefaultTypeInternal", %"class.perfetto::protos::PerfSampleDefaultTypeInternal"* @_ZN8perfetto6protos29_PerfSample_default_instance_E, i64 0, i32 0, i32 0, i32 1, i64 0) to %"class.google::protobuf::Arena"**), align 8
  store i32 (...)** bitcast (i8** getelementptr inbounds ({ [16 x i8*] }, { [16 x i8*] }* @_ZTVN8perfetto6protos10PerfSampleE, i64 0, inrange i32 0, i64 2) to i32 (...)**), i32 (...)*** bitcast (%"class.perfetto::protos::PerfSampleDefaultTypeInternal"* @_ZN8perfetto6protos29_PerfSample_default_instance_E to i32 (...)***), align 8
  store i32 0, i32* bitcast (i8* getelementptr inbounds (%"class.perfetto::protos::PerfSampleDefaultTypeInternal", %"class.perfetto::protos::PerfSampleDefaultTypeInternal"* @_ZN8perfetto6protos29_PerfSample_default_instance_E, i64 0, i32 0, i32 0, i32 1, i64 8) to i32*), align 8
  store i32 0, i32* bitcast (i8* getelementptr inbounds (%"class.perfetto::protos::PerfSampleDefaultTypeInternal", %"class.perfetto::protos::PerfSampleDefaultTypeInternal"* @_ZN8perfetto6protos29_PerfSample_default_instance_E, i64 0, i32 0, i32 0, i32 1, i64 12) to i32*), align 4
  %1 = load atomic i32, i32* getelementptr inbounds ({ { { { i32 } }, i32, i32, void ()* }, [1 x i8*] }, { { { { i32 } }, i32, i32, void ()* }, [1 x i8*] }* @scc_info_PerfSample_protos_2fperfetto_2ftrace_2fprofiling_2fprofile_5fpacket_2eproto, i64 0, i32 0, i32 0, i32 0, i32 0) acquire, align 8
  %2 = icmp eq i32 %1, 0
  br i1 %2, label %4, label %3, !prof !2

3:                                                ; preds = %0
  tail call void @_ZN6google8protobuf8internal11InitSCCImplEPNS1_11SCCInfoBaseE(%"struct.google::protobuf::internal::SCCInfoBase"* bitcast ({ { { { i32 } }, i32, i32, void ()* }, [1 x i8*] }* @scc_info_PerfSample_protos_2fperfetto_2ftrace_2fprofiling_2fprofile_5fpacket_2eproto to %"struct.google::protobuf::internal::SCCInfoBase"*)) #14
  br label %4

4:                                                ; preds = %0, %3
  tail call void @llvm.memset.p0i8.i64(i8* align 8 getelementptr inbounds (%"class.perfetto::protos::PerfSampleDefaultTypeInternal", %"class.perfetto::protos::PerfSampleDefaultTypeInternal"* @_ZN8perfetto6protos29_PerfSample_default_instance_E, i64 0, i32 0, i32 0, i32 1, i64 16), i8 0, i64 48, i1 false) #14
  store i32 0, i32* bitcast (i8* getelementptr inbounds (%"class.perfetto::protos::PerfSampleDefaultTypeInternal", %"class.perfetto::protos::PerfSampleDefaultTypeInternal"* @_ZN8perfetto6protos29_PerfSample_default_instance_E, i64 0, i32 0, i32 0, i32 1, i64 72) to i32*), align 8
  store i32 0, i32* bitcast (i8* getelementptr inbounds (%"class.perfetto::protos::PerfSampleDefaultTypeInternal", %"class.perfetto::protos::PerfSampleDefaultTypeInternal"* @_ZN8perfetto6protos29_PerfSample_default_instance_E, i64 0, i32 0, i32 0, i32 1, i64 76) to i32*), align 4
  tail call void @_ZN6google8protobuf8internal13OnShutdownRunEPFvPKvES3_(void (i8*)* nonnull @_ZN6google8protobuf8internal14DestroyMessageEPKv, i8* bitcast (%"class.perfetto::protos::PerfSampleDefaultTypeInternal"* @_ZN8perfetto6protos29_PerfSample_default_instance_E to i8*)) #14
  ret void
}

; Function Attrs: nounwind ssp uwtable
define internal void @_ZL110InitDefaultsscc_info_PerfSample_ProducerEvent_protos_2fperfetto_2ftrace_2fprofiling_2fprofile_5fpacket_2eprotov() #0 {
  tail call void @_ZN6google8protobuf8internal13VerifyVersionEiiPKc(i32 3013000, i32 3013000, i8* getelementptr inbounds ([78 x i8], [78 x i8]* @.str, i64 0, i64 0)) #14
  store %"class.google::protobuf::Arena"* null, %"class.google::protobuf::Arena"** bitcast (i8* getelementptr inbounds (%"class.perfetto::protos::PerfSample_ProducerEventDefaultTypeInternal", %"class.perfetto::protos::PerfSample_ProducerEventDefaultTypeInternal"* @_ZN8perfetto6protos43_PerfSample_ProducerEvent_default_instance_E, i64 0, i32 0, i32 0, i32 1, i64 0) to %"class.google::protobuf::Arena"**), align 8
  store i32 (...)** bitcast (i8** getelementptr inbounds ({ [16 x i8*] }, { [16 x i8*] }* @_ZTVN8perfetto6protos24PerfSample_ProducerEventE, i64 0, inrange i32 0, i64 2) to i32 (...)**), i32 (...)*** bitcast (%"class.perfetto::protos::PerfSample_ProducerEventDefaultTypeInternal"* @_ZN8perfetto6protos43_PerfSample_ProducerEvent_default_instance_E to i32 (...)***), align 8
  store i32 0, i32* bitcast (i8* getelementptr inbounds (%"class.perfetto::protos::PerfSample_ProducerEventDefaultTypeInternal", %"class.perfetto::protos::PerfSample_ProducerEventDefaultTypeInternal"* @_ZN8perfetto6protos43_PerfSample_ProducerEvent_default_instance_E, i64 0, i32 0, i32 0, i32 1, i64 12) to i32*), align 4
  store i32 0, i32* bitcast (i8* getelementptr inbounds (%"class.perfetto::protos::PerfSample_ProducerEventDefaultTypeInternal", %"class.perfetto::protos::PerfSample_ProducerEventDefaultTypeInternal"* @_ZN8perfetto6protos43_PerfSample_ProducerEvent_default_instance_E, i64 0, i32 0, i32 0, i32 1, i64 16) to i32*), align 8
  tail call void @_ZN6google8protobuf8internal13OnShutdownRunEPFvPKvES3_(void (i8*)* nonnull @_ZN6google8protobuf8internal14DestroyMessageEPKv, i8* bitcast (%"class.perfetto::protos::PerfSample_ProducerEventDefaultTypeInternal"* @_ZN8perfetto6protos43_PerfSample_ProducerEvent_default_instance_E to i8*)) #14
  ret void
}

; Function Attrs: nounwind ssp uwtable
define internal void @_ZL104InitDefaultsscc_info_PerfSampleDefaults_protos_2fperfetto_2ftrace_2fprofiling_2fprofile_5fpacket_2eprotov() #0 {
  tail call void @_ZN6google8protobuf8internal13VerifyVersionEiiPKc(i32 3013000, i32 3013000, i8* getelementptr inbounds ([78 x i8], [78 x i8]* @.str, i64 0, i64 0)) #14
  store %"class.google::protobuf::Arena"* null, %"class.google::protobuf::Arena"** bitcast (i8* getelementptr inbounds (%"class.perfetto::protos::PerfSampleDefaultsDefaultTypeInternal", %"class.perfetto::protos::PerfSampleDefaultsDefaultTypeInternal"* @_ZN8perfetto6protos37_PerfSampleDefaults_default_instance_E, i64 0, i32 0, i32 0, i32 1, i64 0) to %"class.google::protobuf::Arena"**), align 8
  store i32 (...)** bitcast (i8** getelementptr inbounds ({ [16 x i8*] }, { [16 x i8*] }* @_ZTVN8perfetto6protos18PerfSampleDefaultsE, i64 0, inrange i32 0, i64 2) to i32 (...)**), i32 (...)*** bitcast (%"class.perfetto::protos::PerfSampleDefaultsDefaultTypeInternal"* @_ZN8perfetto6protos37_PerfSampleDefaults_default_instance_E to i32 (...)***), align 8
  store i32 0, i32* bitcast (i8* getelementptr inbounds (%"class.perfetto::protos::PerfSampleDefaultsDefaultTypeInternal", %"class.perfetto::protos::PerfSampleDefaultsDefaultTypeInternal"* @_ZN8perfetto6protos37_PerfSampleDefaults_default_instance_E, i64 0, i32 0, i32 0, i32 1, i64 8) to i32*), align 8
  store i32 0, i32* bitcast (i8* getelementptr inbounds (%"class.perfetto::protos::PerfSampleDefaultsDefaultTypeInternal", %"class.perfetto::protos::PerfSampleDefaultsDefaultTypeInternal"* @_ZN8perfetto6protos37_PerfSampleDefaults_default_instance_E, i64 0, i32 0, i32 0, i32 1, i64 12) to i32*), align 4
  %1 = load atomic i32, i32* getelementptr inbounds ({ { { { i32 } }, i32, i32, void ()* }, [1 x i8*] }, { { { { i32 } }, i32, i32, void ()* }, [1 x i8*] }* @scc_info_PerfSampleDefaults_protos_2fperfetto_2ftrace_2fprofiling_2fprofile_5fpacket_2eproto, i64 0, i32 0, i32 0, i32 0, i32 0) acquire, align 8
  %2 = icmp eq i32 %1, 0
  br i1 %2, label %4, label %3, !prof !2

3:                                                ; preds = %0
  tail call void @_ZN6google8protobuf8internal11InitSCCImplEPNS1_11SCCInfoBaseE(%"struct.google::protobuf::internal::SCCInfoBase"* bitcast ({ { { { i32 } }, i32, i32, void ()* }, [1 x i8*] }* @scc_info_PerfSampleDefaults_protos_2fperfetto_2ftrace_2fprofiling_2fprofile_5fpacket_2eproto to %"struct.google::protobuf::internal::SCCInfoBase"*)) #14
  br label %4

4:                                                ; preds = %0, %3
  store %"class.perfetto::protos::PerfEvents_Timebase"* null, %"class.perfetto::protos::PerfEvents_Timebase"** bitcast (i8* getelementptr inbounds (%"class.perfetto::protos::PerfSampleDefaultsDefaultTypeInternal", %"class.perfetto::protos::PerfSampleDefaultsDefaultTypeInternal"* @_ZN8perfetto6protos37_PerfSampleDefaults_default_instance_E, i64 0, i32 0, i32 0, i32 1, i64 16) to %"class.perfetto::protos::PerfEvents_Timebase"**), align 8
  tail call void @_ZN6google8protobuf8internal13OnShutdownRunEPFvPKvES3_(void (i8*)* nonnull @_ZN6google8protobuf8internal14DestroyMessageEPKv, i8* bitcast (%"class.perfetto::protos::PerfSampleDefaultsDefaultTypeInternal"* @_ZN8perfetto6protos37_PerfSampleDefaults_default_instance_E to i8*)) #14
  ret void
}

; Function Attrs: nounwind ssp uwtable
define internal void @_ZL99InitDefaultsscc_info_ProfilePacket_protos_2fperfetto_2ftrace_2fprofiling_2fprofile_5fpacket_2eprotov() #0 {
  tail call void @_ZN6google8protobuf8internal13VerifyVersionEiiPKc(i32 3013000, i32 3013000, i8* getelementptr inbounds ([78 x i8], [78 x i8]* @.str, i64 0, i64 0)) #14
  store %"class.google::protobuf::Arena"* null, %"class.google::protobuf::Arena"** bitcast (i8* getelementptr inbounds (%"class.perfetto::protos::ProfilePacketDefaultTypeInternal", %"class.perfetto::protos::ProfilePacketDefaultTypeInternal"* @_ZN8perfetto6protos32_ProfilePacket_default_instance_E, i64 0, i32 0, i32 0, i32 1, i64 0) to %"class.google::protobuf::Arena"**), align 8
  store i32 (...)** bitcast (i8** getelementptr inbounds ({ [16 x i8*] }, { [16 x i8*] }* @_ZTVN8perfetto6protos13ProfilePacketE, i64 0, inrange i32 0, i64 2) to i32 (...)**), i32 (...)*** bitcast (%"class.perfetto::protos::ProfilePacketDefaultTypeInternal"* @_ZN8perfetto6protos32_ProfilePacket_default_instance_E to i32 (...)***), align 8
  tail call void @llvm.memset.p0i8.i64(i8* align 8 getelementptr inbounds (%"class.perfetto::protos::ProfilePacketDefaultTypeInternal", %"class.perfetto::protos::ProfilePacketDefaultTypeInternal"* @_ZN8perfetto6protos32_ProfilePacket_default_instance_E, i64 0, i32 0, i32 0, i32 1, i64 8), i8 0, i64 128, i1 false) #14
  %1 = load atomic i32, i32* getelementptr inbounds ({ { { { i32 } }, i32, i32, void ()* }, [5 x i8*] }, { { { { i32 } }, i32, i32, void ()* }, [5 x i8*] }* @scc_info_ProfilePacket_protos_2fperfetto_2ftrace_2fprofiling_2fprofile_5fpacket_2eproto, i64 0, i32 0, i32 0, i32 0, i32 0) acquire, align 8
  %2 = icmp eq i32 %1, 0
  br i1 %2, label %4, label %3, !prof !2

3:                                                ; preds = %0
  tail call void @_ZN6google8protobuf8internal11InitSCCImplEPNS1_11SCCInfoBaseE(%"struct.google::protobuf::internal::SCCInfoBase"* bitcast ({ { { { i32 } }, i32, i32, void ()* }, [5 x i8*] }* @scc_info_ProfilePacket_protos_2fperfetto_2ftrace_2fprofiling_2fprofile_5fpacket_2eproto to %"struct.google::protobuf::internal::SCCInfoBase"*)) #14
  br label %4

4:                                                ; preds = %0, %3
  tail call void @llvm.memset.p0i8.i64(i8* align 8 getelementptr inbounds (%"class.perfetto::protos::ProfilePacketDefaultTypeInternal", %"class.perfetto::protos::ProfilePacketDefaultTypeInternal"* @_ZN8perfetto6protos32_ProfilePacket_default_instance_E, i64 0, i32 0, i32 0, i32 1, i64 136), i8 0, i64 9, i1 false) #14
  tail call void @_ZN6google8protobuf8internal13OnShutdownRunEPFvPKvES3_(void (i8*)* nonnull @_ZN6google8protobuf8internal14DestroyMessageEPKv, i8* bitcast (%"class.perfetto::protos::ProfilePacketDefaultTypeInternal"* @_ZN8perfetto6protos32_ProfilePacket_default_instance_E to i8*)) #14
  ret void
}

; Function Attrs: nounwind ssp uwtable
define internal void @_ZL110InitDefaultsscc_info_ProfilePacket_HeapSample_protos_2fperfetto_2ftrace_2fprofiling_2fprofile_5fpacket_2eprotov() #0 {
  tail call void @_ZN6google8protobuf8internal13VerifyVersionEiiPKc(i32 3013000, i32 3013000, i8* getelementptr inbounds ([78 x i8], [78 x i8]* @.str, i64 0, i64 0)) #14
  store %"class.google::protobuf::Arena"* null, %"class.google::protobuf::Arena"** bitcast (i8* getelementptr inbounds (%"class.perfetto::protos::ProfilePacket_HeapSampleDefaultTypeInternal", %"class.perfetto::protos::ProfilePacket_HeapSampleDefaultTypeInternal"* @_ZN8perfetto6protos43_ProfilePacket_HeapSample_default_instance_E, i64 0, i32 0, i32 0, i32 1, i64 0) to %"class.google::protobuf::Arena"**), align 8
  store i32 (...)** bitcast (i8** getelementptr inbounds ({ [16 x i8*] }, { [16 x i8*] }* @_ZTVN8perfetto6protos24ProfilePacket_HeapSampleE, i64 0, inrange i32 0, i64 2) to i32 (...)**), i32 (...)*** bitcast (%"class.perfetto::protos::ProfilePacket_HeapSampleDefaultTypeInternal"* @_ZN8perfetto6protos43_ProfilePacket_HeapSample_default_instance_E to i32 (...)***), align 8
  tail call void @llvm.memset.p0i8.i64(i8* align 8 getelementptr inbounds (%"class.perfetto::protos::ProfilePacket_HeapSampleDefaultTypeInternal", %"class.perfetto::protos::ProfilePacket_HeapSampleDefaultTypeInternal"* @_ZN8perfetto6protos43_ProfilePacket_HeapSample_default_instance_E, i64 0, i32 0, i32 0, i32 1, i64 8), i8 0, i64 72, i1 false) #14
  tail call void @_ZN6google8protobuf8internal13OnShutdownRunEPFvPKvES3_(void (i8*)* nonnull @_ZN6google8protobuf8internal14DestroyMessageEPKv, i8* bitcast (%"class.perfetto::protos::ProfilePacket_HeapSampleDefaultTypeInternal"* @_ZN8perfetto6protos43_ProfilePacket_HeapSample_default_instance_E to i8*)) #14
  ret void
}

; Function Attrs: nounwind ssp uwtable
define internal void @_ZL109InitDefaultsscc_info_ProfilePacket_Histogram_protos_2fperfetto_2ftrace_2fprofiling_2fprofile_5fpacket_2eprotov() #0 {
  tail call void @_ZN6google8protobuf8internal13VerifyVersionEiiPKc(i32 3013000, i32 3013000, i8* getelementptr inbounds ([78 x i8], [78 x i8]* @.str, i64 0, i64 0)) #14
  store %"class.google::protobuf::Arena"* null, %"class.google::protobuf::Arena"** bitcast (i8* getelementptr inbounds (%"class.perfetto::protos::ProfilePacket_HistogramDefaultTypeInternal", %"class.perfetto::protos::ProfilePacket_HistogramDefaultTypeInternal"* @_ZN8perfetto6protos42_ProfilePacket_Histogram_default_instance_E, i64 0, i32 0, i32 0, i32 1, i64 0) to %"class.google::protobuf::Arena"**), align 8
  store i32 (...)** bitcast (i8** getelementptr inbounds ({ [16 x i8*] }, { [16 x i8*] }* @_ZTVN8perfetto6protos23ProfilePacket_HistogramE, i64 0, inrange i32 0, i64 2) to i32 (...)**), i32 (...)*** bitcast (%"class.perfetto::protos::ProfilePacket_HistogramDefaultTypeInternal"* @_ZN8perfetto6protos42_ProfilePacket_Histogram_default_instance_E to i32 (...)***), align 8
  tail call void @llvm.memset.p0i8.i64(i8* align 8 getelementptr inbounds (%"class.perfetto::protos::ProfilePacket_HistogramDefaultTypeInternal", %"class.perfetto::protos::ProfilePacket_HistogramDefaultTypeInternal"* @_ZN8perfetto6protos42_ProfilePacket_Histogram_default_instance_E, i64 0, i32 0, i32 0, i32 1, i64 8), i8 0, i64 28, i1 false) #14
  %1 = load atomic i32, i32* getelementptr inbounds ({ { { { i32 } }, i32, i32, void ()* }, [1 x i8*] }, { { { { i32 } }, i32, i32, void ()* }, [1 x i8*] }* @scc_info_ProfilePacket_Histogram_protos_2fperfetto_2ftrace_2fprofiling_2fprofile_5fpacket_2eproto, i64 0, i32 0, i32 0, i32 0, i32 0) acquire, align 8
  %2 = icmp eq i32 %1, 0
  br i1 %2, label %4, label %3, !prof !2

3:                                                ; preds = %0
  tail call void @_ZN6google8protobuf8internal11InitSCCImplEPNS1_11SCCInfoBaseE(%"struct.google::protobuf::internal::SCCInfoBase"* bitcast ({ { { { i32 } }, i32, i32, void ()* }, [1 x i8*] }* @scc_info_ProfilePacket_Histogram_protos_2fperfetto_2ftrace_2fprofiling_2fprofile_5fpacket_2eproto to %"struct.google::protobuf::internal::SCCInfoBase"*)) #14
  br label %4

4:                                                ; preds = %0, %3
  tail call void @_ZN6google8protobuf8internal13OnShutdownRunEPFvPKvES3_(void (i8*)* nonnull @_ZN6google8protobuf8internal14DestroyMessageEPKv, i8* bitcast (%"class.perfetto::protos::ProfilePacket_HistogramDefaultTypeInternal"* @_ZN8perfetto6protos42_ProfilePacket_Histogram_default_instance_E to i8*)) #14
  ret void
}

; Function Attrs: nounwind ssp uwtable
define internal void @_ZL116InitDefaultsscc_info_ProfilePacket_Histogram_Bucket_protos_2fperfetto_2ftrace_2fprofiling_2fprofile_5fpacket_2eprotov() #0 {
  tail call void @_ZN6google8protobuf8internal13VerifyVersionEiiPKc(i32 3013000, i32 3013000, i8* getelementptr inbounds ([78 x i8], [78 x i8]* @.str, i64 0, i64 0)) #14
  store %"class.google::protobuf::Arena"* null, %"class.google::protobuf::Arena"** bitcast (i8* getelementptr inbounds (%"class.perfetto::protos::ProfilePacket_Histogram_BucketDefaultTypeInternal", %"class.perfetto::protos::ProfilePacket_Histogram_BucketDefaultTypeInternal"* @_ZN8perfetto6protos49_ProfilePacket_Histogram_Bucket_default_instance_E, i64 0, i32 0, i32 0, i32 1, i64 0) to %"class.google::protobuf::Arena"**), align 8
  store i32 (...)** bitcast (i8** getelementptr inbounds ({ [16 x i8*] }, { [16 x i8*] }* @_ZTVN8perfetto6protos30ProfilePacket_Histogram_BucketE, i64 0, inrange i32 0, i64 2) to i32 (...)**), i32 (...)*** bitcast (%"class.perfetto::protos::ProfilePacket_Histogram_BucketDefaultTypeInternal"* @_ZN8perfetto6protos49_ProfilePacket_Histogram_Bucket_default_instance_E to i32 (...)***), align 8
  tail call void @llvm.memset.p0i8.i64(i8* align 8 getelementptr inbounds (%"class.perfetto::protos::ProfilePacket_Histogram_BucketDefaultTypeInternal", %"class.perfetto::protos::ProfilePacket_Histogram_BucketDefaultTypeInternal"* @_ZN8perfetto6protos49_ProfilePacket_Histogram_Bucket_default_instance_E, i64 0, i32 0, i32 0, i32 1, i64 8), i8 0, i64 25, i1 false) #14
  tail call void @_ZN6google8protobuf8internal13OnShutdownRunEPFvPKvES3_(void (i8*)* nonnull @_ZN6google8protobuf8internal14DestroyMessageEPKv, i8* bitcast (%"class.perfetto::protos::ProfilePacket_Histogram_BucketDefaultTypeInternal"* @_ZN8perfetto6protos49_ProfilePacket_Histogram_Bucket_default_instance_E to i8*)) #14
  ret void
}

; Function Attrs: nounwind ssp uwtable
define internal void @_ZL118InitDefaultsscc_info_ProfilePacket_ProcessHeapSamples_protos_2fperfetto_2ftrace_2fprofiling_2fprofile_5fpacket_2eprotov() #0 {
  tail call void @_ZN6google8protobuf8internal13VerifyVersionEiiPKc(i32 3013000, i32 3013000, i8* getelementptr inbounds ([78 x i8], [78 x i8]* @.str, i64 0, i64 0)) #14
  store %"class.google::protobuf::Arena"* null, %"class.google::protobuf::Arena"** bitcast (i8* getelementptr inbounds (%"class.perfetto::protos::ProfilePacket_ProcessHeapSamplesDefaultTypeInternal", %"class.perfetto::protos::ProfilePacket_ProcessHeapSamplesDefaultTypeInternal"* @_ZN8perfetto6protos51_ProfilePacket_ProcessHeapSamples_default_instance_E, i64 0, i32 0, i32 0, i32 1, i64 0) to %"class.google::protobuf::Arena"**), align 8
  store i32 (...)** bitcast (i8** getelementptr inbounds ({ [16 x i8*] }, { [16 x i8*] }* @_ZTVN8perfetto6protos32ProfilePacket_ProcessHeapSamplesE, i64 0, inrange i32 0, i64 2) to i32 (...)**), i32 (...)*** bitcast (%"class.perfetto::protos::ProfilePacket_ProcessHeapSamplesDefaultTypeInternal"* @_ZN8perfetto6protos51_ProfilePacket_ProcessHeapSamples_default_instance_E to i32 (...)***), align 8
  tail call void @llvm.memset.p0i8.i64(i8* align 8 getelementptr inbounds (%"class.perfetto::protos::ProfilePacket_ProcessHeapSamplesDefaultTypeInternal", %"class.perfetto::protos::ProfilePacket_ProcessHeapSamplesDefaultTypeInternal"* @_ZN8perfetto6protos51_ProfilePacket_ProcessHeapSamples_default_instance_E, i64 0, i32 0, i32 0, i32 1, i64 8), i8 0, i64 32, i1 false) #14
  %1 = load atomic i32, i32* getelementptr inbounds ({ { { { i32 } }, i32, i32, void ()* }, [2 x i8*] }, { { { { i32 } }, i32, i32, void ()* }, [2 x i8*] }* @scc_info_ProfilePacket_ProcessHeapSamples_protos_2fperfetto_2ftrace_2fprofiling_2fprofile_5fpacket_2eproto, i64 0, i32 0, i32 0, i32 0, i32 0) acquire, align 8
  %2 = icmp eq i32 %1, 0
  br i1 %2, label %4, label %3, !prof !2

3:                                                ; preds = %0
  tail call void @_ZN6google8protobuf8internal11InitSCCImplEPNS1_11SCCInfoBaseE(%"struct.google::protobuf::internal::SCCInfoBase"* bitcast ({ { { { i32 } }, i32, i32, void ()* }, [2 x i8*] }* @scc_info_ProfilePacket_ProcessHeapSamples_protos_2fperfetto_2ftrace_2fprofiling_2fprofile_5fpacket_2eproto to %"struct.google::protobuf::internal::SCCInfoBase"*)) #14
  br label %4

4:                                                ; preds = %0, %3
  store %"class.std::__1::basic_string"* bitcast (%"class.google::protobuf::internal::ExplicitlyConstructed.17"* @_ZN6google8protobuf8internal26fixed_address_empty_stringE to %"class.std::__1::basic_string"*), %"class.std::__1::basic_string"** bitcast (i8* getelementptr inbounds (%"class.perfetto::protos::ProfilePacket_ProcessHeapSamplesDefaultTypeInternal", %"class.perfetto::protos::ProfilePacket_ProcessHeapSamplesDefaultTypeInternal"* @_ZN8perfetto6protos51_ProfilePacket_ProcessHeapSamples_default_instance_E, i64 0, i32 0, i32 0, i32 1, i64 40) to %"class.std::__1::basic_string"**), align 8
  tail call void @llvm.memset.p0i8.i64(i8* align 8 getelementptr inbounds (%"class.perfetto::protos::ProfilePacket_ProcessHeapSamplesDefaultTypeInternal", %"class.perfetto::protos::ProfilePacket_ProcessHeapSamplesDefaultTypeInternal"* @_ZN8perfetto6protos51_ProfilePacket_ProcessHeapSamples_default_instance_E, i64 0, i32 0, i32 0, i32 1, i64 48), i8 0, i64 52, i1 false) #14
  tail call void @_ZN6google8protobuf8internal13OnShutdownRunEPFvPKvES3_(void (i8*)* nonnull @_ZN6google8protobuf8internal14DestroyMessageEPKv, i8* bitcast (%"class.perfetto::protos::ProfilePacket_ProcessHeapSamplesDefaultTypeInternal"* @_ZN8perfetto6protos51_ProfilePacket_ProcessHeapSamples_default_instance_E to i8*)) #14
  ret void
}

; Function Attrs: nounwind ssp uwtable
define internal void @_ZL112InitDefaultsscc_info_ProfilePacket_ProcessStats_protos_2fperfetto_2ftrace_2fprofiling_2fprofile_5fpacket_2eprotov() #0 {
  tail call void @_ZN6google8protobuf8internal13VerifyVersionEiiPKc(i32 3013000, i32 3013000, i8* getelementptr inbounds ([78 x i8], [78 x i8]* @.str, i64 0, i64 0)) #14
  store %"class.google::protobuf::Arena"* null, %"class.google::protobuf::Arena"** bitcast (i8* getelementptr inbounds (%"class.perfetto::protos::ProfilePacket_ProcessStatsDefaultTypeInternal", %"class.perfetto::protos::ProfilePacket_ProcessStatsDefaultTypeInternal"* @_ZN8perfetto6protos45_ProfilePacket_ProcessStats_default_instance_E, i64 0, i32 0, i32 0, i32 1, i64 0) to %"class.google::protobuf::Arena"**), align 8
  store i32 (...)** bitcast (i8** getelementptr inbounds ({ [16 x i8*] }, { [16 x i8*] }* @_ZTVN8perfetto6protos26ProfilePacket_ProcessStatsE, i64 0, inrange i32 0, i64 2) to i32 (...)**), i32 (...)*** bitcast (%"class.perfetto::protos::ProfilePacket_ProcessStatsDefaultTypeInternal"* @_ZN8perfetto6protos45_ProfilePacket_ProcessStats_default_instance_E to i32 (...)***), align 8
  store i32 0, i32* bitcast (i8* getelementptr inbounds (%"class.perfetto::protos::ProfilePacket_ProcessStatsDefaultTypeInternal", %"class.perfetto::protos::ProfilePacket_ProcessStatsDefaultTypeInternal"* @_ZN8perfetto6protos45_ProfilePacket_ProcessStats_default_instance_E, i64 0, i32 0, i32 0, i32 1, i64 8) to i32*), align 8
  store i32 0, i32* bitcast (i8* getelementptr inbounds (%"class.perfetto::protos::ProfilePacket_ProcessStatsDefaultTypeInternal", %"class.perfetto::protos::ProfilePacket_ProcessStatsDefaultTypeInternal"* @_ZN8perfetto6protos45_ProfilePacket_ProcessStats_default_instance_E, i64 0, i32 0, i32 0, i32 1, i64 12) to i32*), align 4
  %1 = load atomic i32, i32* getelementptr inbounds ({ { { { i32 } }, i32, i32, void ()* }, [1 x i8*] }, { { { { i32 } }, i32, i32, void ()* }, [1 x i8*] }* @scc_info_ProfilePacket_ProcessStats_protos_2fperfetto_2ftrace_2fprofiling_2fprofile_5fpacket_2eproto, i64 0, i32 0, i32 0, i32 0, i32 0) acquire, align 8
  %2 = icmp eq i32 %1, 0
  br i1 %2, label %4, label %3, !prof !2

3:                                                ; preds = %0
  tail call void @_ZN6google8protobuf8internal11InitSCCImplEPNS1_11SCCInfoBaseE(%"struct.google::protobuf::internal::SCCInfoBase"* bitcast ({ { { { i32 } }, i32, i32, void ()* }, [1 x i8*] }* @scc_info_ProfilePacket_ProcessStats_protos_2fperfetto_2ftrace_2fprofiling_2fprofile_5fpacket_2eproto to %"struct.google::protobuf::internal::SCCInfoBase"*)) #14
  br label %4

4:                                                ; preds = %0, %3
  tail call void @llvm.memset.p0i8.i64(i8* align 8 getelementptr inbounds (%"class.perfetto::protos::ProfilePacket_ProcessStatsDefaultTypeInternal", %"class.perfetto::protos::ProfilePacket_ProcessStatsDefaultTypeInternal"* @_ZN8perfetto6protos45_ProfilePacket_ProcessStats_default_instance_E, i64 0, i32 0, i32 0, i32 1, i64 16), i8 0, i64 48, i1 false) #14
  tail call void @_ZN6google8protobuf8internal13OnShutdownRunEPFvPKvES3_(void (i8*)* nonnull @_ZN6google8protobuf8internal14DestroyMessageEPKv, i8* bitcast (%"class.perfetto::protos::ProfilePacket_ProcessStatsDefaultTypeInternal"* @_ZN8perfetto6protos45_ProfilePacket_ProcessStats_default_instance_E to i8*)) #14
  ret void
}

; Function Attrs: nounwind ssp uwtable
define internal void @_ZL95InitDefaultsscc_info_Profiling_protos_2fperfetto_2ftrace_2fprofiling_2fprofile_5fpacket_2eprotov() #0 {
  tail call void @_ZN6google8protobuf8internal13VerifyVersionEiiPKc(i32 3013000, i32 3013000, i8* getelementptr inbounds ([78 x i8], [78 x i8]* @.str, i64 0, i64 0)) #14
  store %"class.google::protobuf::Arena"* null, %"class.google::protobuf::Arena"** bitcast (i8* getelementptr inbounds (%"class.perfetto::protos::ProfilingDefaultTypeInternal", %"class.perfetto::protos::ProfilingDefaultTypeInternal"* @_ZN8perfetto6protos28_Profiling_default_instance_E, i64 0, i32 0, i32 0, i32 1, i64 0) to %"class.google::protobuf::Arena"**), align 8
  store i32 (...)** bitcast (i8** getelementptr inbounds ({ [16 x i8*] }, { [16 x i8*] }* @_ZTVN8perfetto6protos9ProfilingE, i64 0, inrange i32 0, i64 2) to i32 (...)**), i32 (...)*** bitcast (%"class.perfetto::protos::ProfilingDefaultTypeInternal"* @_ZN8perfetto6protos28_Profiling_default_instance_E to i32 (...)***), align 8
  store i32 0, i32* bitcast (i8* getelementptr inbounds (%"class.perfetto::protos::ProfilingDefaultTypeInternal", %"class.perfetto::protos::ProfilingDefaultTypeInternal"* @_ZN8perfetto6protos28_Profiling_default_instance_E, i64 0, i32 0, i32 0, i32 1, i64 8) to i32*), align 8
  tail call void @_ZN6google8protobuf8internal13OnShutdownRunEPFvPKvES3_(void (i8*)* nonnull @_ZN6google8protobuf8internal14DestroyMessageEPKv, i8* bitcast (%"class.perfetto::protos::ProfilingDefaultTypeInternal"* @_ZN8perfetto6protos28_Profiling_default_instance_E to i8*)) #14
  ret void
}

; Function Attrs: nounwind ssp uwtable
define internal void @_ZL105InitDefaultsscc_info_StreamingAllocation_protos_2fperfetto_2ftrace_2fprofiling_2fprofile_5fpacket_2eprotov() #0 {
  tail call void @_ZN6google8protobuf8internal13VerifyVersionEiiPKc(i32 3013000, i32 3013000, i8* getelementptr inbounds ([78 x i8], [78 x i8]* @.str, i64 0, i64 0)) #14
  store %"class.google::protobuf::Arena"* null, %"class.google::protobuf::Arena"** bitcast (i8* getelementptr inbounds (%"class.perfetto::protos::StreamingAllocationDefaultTypeInternal", %"class.perfetto::protos::StreamingAllocationDefaultTypeInternal"* @_ZN8perfetto6protos38_StreamingAllocation_default_instance_E, i64 0, i32 0, i32 0, i32 1, i64 0) to %"class.google::protobuf::Arena"**), align 8
  store i32 (...)** bitcast (i8** getelementptr inbounds ({ [16 x i8*] }, { [16 x i8*] }* @_ZTVN8perfetto6protos19StreamingAllocationE, i64 0, inrange i32 0, i64 2) to i32 (...)**), i32 (...)*** bitcast (%"class.perfetto::protos::StreamingAllocationDefaultTypeInternal"* @_ZN8perfetto6protos38_StreamingAllocation_default_instance_E to i32 (...)***), align 8
  tail call void @llvm.memset.p0i8.i64(i8* align 8 getelementptr inbounds (%"class.perfetto::protos::StreamingAllocationDefaultTypeInternal", %"class.perfetto::protos::StreamingAllocationDefaultTypeInternal"* @_ZN8perfetto6protos38_StreamingAllocation_default_instance_E, i64 0, i32 0, i32 0, i32 1, i64 8), i8 0, i64 100, i1 false) #14
  tail call void @_ZN6google8protobuf8internal13OnShutdownRunEPFvPKvES3_(void (i8*)* nonnull @_ZN6google8protobuf8internal14DestroyMessageEPKv, i8* bitcast (%"class.perfetto::protos::StreamingAllocationDefaultTypeInternal"* @_ZN8perfetto6protos38_StreamingAllocation_default_instance_E to i8*)) #14
  ret void
}

; Function Attrs: nounwind ssp uwtable
define internal void @_ZL99InitDefaultsscc_info_StreamingFree_protos_2fperfetto_2ftrace_2fprofiling_2fprofile_5fpacket_2eprotov() #0 {
  tail call void @_ZN6google8protobuf8internal13VerifyVersionEiiPKc(i32 3013000, i32 3013000, i8* getelementptr inbounds ([78 x i8], [78 x i8]* @.str, i64 0, i64 0)) #14
  store %"class.google::protobuf::Arena"* null, %"class.google::protobuf::Arena"** bitcast (i8* getelementptr inbounds (%"class.perfetto::protos::StreamingFreeDefaultTypeInternal", %"class.perfetto::protos::StreamingFreeDefaultTypeInternal"* @_ZN8perfetto6protos32_StreamingFree_default_instance_E, i64 0, i32 0, i32 0, i32 1, i64 0) to %"class.google::protobuf::Arena"**), align 8
  store i32 (...)** bitcast (i8** getelementptr inbounds ({ [16 x i8*] }, { [16 x i8*] }* @_ZTVN8perfetto6protos13StreamingFreeE, i64 0, inrange i32 0, i64 2) to i32 (...)**), i32 (...)*** bitcast (%"class.perfetto::protos::StreamingFreeDefaultTypeInternal"* @_ZN8perfetto6protos32_StreamingFree_default_instance_E to i32 (...)***), align 8
  tail call void @llvm.memset.p0i8.i64(i8* align 8 getelementptr inbounds (%"class.perfetto::protos::StreamingFreeDefaultTypeInternal", %"class.perfetto::protos::StreamingFreeDefaultTypeInternal"* @_ZN8perfetto6protos32_StreamingFree_default_instance_E, i64 0, i32 0, i32 0, i32 1, i64 8), i8 0, i64 52, i1 false) #14
  tail call void @_ZN6google8protobuf8internal13OnShutdownRunEPFvPKvES3_(void (i8*)* nonnull @_ZN6google8protobuf8internal14DestroyMessageEPKv, i8* bitcast (%"class.perfetto::protos::StreamingFreeDefaultTypeInternal"* @_ZN8perfetto6protos32_StreamingFree_default_instance_E to i8*)) #14
  ret void
}

; Function Attrs: nounwind ssp uwtable
define internal void @_ZL108InitDefaultsscc_info_StreamingProfilePacket_protos_2fperfetto_2ftrace_2fprofiling_2fprofile_5fpacket_2eprotov() #0 {
  tail call void @_ZN6google8protobuf8internal13VerifyVersionEiiPKc(i32 3013000, i32 3013000, i8* getelementptr inbounds ([78 x i8], [78 x i8]* @.str, i64 0, i64 0)) #14
  store %"class.google::protobuf::Arena"* null, %"class.google::protobuf::Arena"** bitcast (i8* getelementptr inbounds (%"class.perfetto::protos::StreamingProfilePacketDefaultTypeInternal", %"class.perfetto::protos::StreamingProfilePacketDefaultTypeInternal"* @_ZN8perfetto6protos41_StreamingProfilePacket_default_instance_E, i64 0, i32 0, i32 0, i32 1, i64 0) to %"class.google::protobuf::Arena"**), align 8
  store i32 (...)** bitcast (i8** getelementptr inbounds ({ [16 x i8*] }, { [16 x i8*] }* @_ZTVN8perfetto6protos22StreamingProfilePacketE, i64 0, inrange i32 0, i64 2) to i32 (...)**), i32 (...)*** bitcast (%"class.perfetto::protos::StreamingProfilePacketDefaultTypeInternal"* @_ZN8perfetto6protos41_StreamingProfilePacket_default_instance_E to i32 (...)***), align 8
  tail call void @llvm.memset.p0i8.i64(i8* align 8 getelementptr inbounds (%"class.perfetto::protos::StreamingProfilePacketDefaultTypeInternal", %"class.perfetto::protos::StreamingProfilePacketDefaultTypeInternal"* @_ZN8perfetto6protos41_StreamingProfilePacket_default_instance_E, i64 0, i32 0, i32 0, i32 1, i64 8), i8 0, i64 44, i1 false) #14
  tail call void @_ZN6google8protobuf8internal13OnShutdownRunEPFvPKvES3_(void (i8*)* nonnull @_ZN6google8protobuf8internal14DestroyMessageEPKv, i8* bitcast (%"class.perfetto::protos::StreamingProfilePacketDefaultTypeInternal"* @_ZN8perfetto6protos41_StreamingProfilePacket_default_instance_E to i8*)) #14
  ret void
}

; Function Attrs: norecurse nounwind readnone ssp uwtable
define hidden zeroext i1 @_ZN8perfetto6protos52ProfilePacket_ProcessHeapSamples_ClientError_IsValidEi(i32) local_unnamed_addr #1 {
  %2 = icmp ult i32 %0, 3
  ret i1 %2
}

; Function Attrs: argmemonly nounwind
declare {}* @llvm.invariant.start.p0i8(i64 immarg, i8* nocapture) #2

; Function Attrs: nounwind ssp uwtable
define hidden dereferenceable(24) %"class.std::__1::basic_string"* @_ZN8perfetto6protos49ProfilePacket_ProcessHeapSamples_ClientError_NameENS0_44ProfilePacket_ProcessHeapSamples_ClientErrorE(i32) local_unnamed_addr #0 {
  %2 = load atomic i8, i8* bitcast (i64* @_ZGVZN8perfetto6protos49ProfilePacket_ProcessHeapSamples_ClientError_NameENS0_44ProfilePacket_ProcessHeapSamples_ClientErrorEE5dummy to i8*) acquire, align 8
  %3 = icmp eq i8 %2, 0
  br i1 %3, label %4, label %11, !prof !3

4:                                                ; preds = %1
  %5 = tail call i32 @__cxa_guard_acquire(i64* nonnull @_ZGVZN8perfetto6protos49ProfilePacket_ProcessHeapSamples_ClientError_NameENS0_44ProfilePacket_ProcessHeapSamples_ClientErrorEE5dummy) #14
  %6 = icmp eq i32 %5, 0
  br i1 %6, label %11, label %7

7:                                                ; preds = %4
  %8 = tail call zeroext i1 @_ZN6google8protobuf8internal21InitializeEnumStringsEPKNS1_9EnumEntryEPKimPNS1_21ExplicitlyConstructedINSt3__112basic_stringIcNS8_11char_traitsIcEENS8_9allocatorIcEEEEEE(%"struct.google::protobuf::internal::EnumEntry"* getelementptr inbounds ([3 x %"struct.google::protobuf::internal::EnumEntry"], [3 x %"struct.google::protobuf::internal::EnumEntry"]* @_ZN8perfetto6protosL52ProfilePacket_ProcessHeapSamples_ClientError_entriesE, i64 0, i64 0), i32* getelementptr inbounds ([3 x i32], [3 x i32]* @_ZN8perfetto6protosL62ProfilePacket_ProcessHeapSamples_ClientError_entries_by_numberE, i64 0, i64 0), i64 3, %"class.google::protobuf::internal::ExplicitlyConstructed.17"* getelementptr inbounds ([3 x %"class.google::protobuf::internal::ExplicitlyConstructed.17"], [3 x %"class.google::protobuf::internal::ExplicitlyConstructed.17"]* @_ZN8perfetto6protosL52ProfilePacket_ProcessHeapSamples_ClientError_stringsE, i64 0, i64 0)) #14
  %9 = zext i1 %8 to i8
  store i8 %9, i8* @_ZZN8perfetto6protos49ProfilePacket_ProcessHeapSamples_ClientError_NameENS0_44ProfilePacket_ProcessHeapSamples_ClientErrorEE5dummy, align 1
  %10 = tail call {}* @llvm.invariant.start.p0i8(i64 1, i8* nonnull @_ZZN8perfetto6protos49ProfilePacket_ProcessHeapSamples_ClientError_NameENS0_44ProfilePacket_ProcessHeapSamples_ClientErrorEE5dummy)
  tail call void @__cxa_guard_release(i64* nonnull @_ZGVZN8perfetto6protos49ProfilePacket_ProcessHeapSamples_ClientError_NameENS0_44ProfilePacket_ProcessHeapSamples_ClientErrorEE5dummy) #14
  br label %11

11:                                               ; preds = %4, %7, %1
  %12 = tail call i32 @_ZN6google8protobuf8internal14LookUpEnumNameEPKNS1_9EnumEntryEPKimi(%"struct.google::protobuf::internal::EnumEntry"* getelementptr inbounds ([3 x %"struct.google::protobuf::internal::EnumEntry"], [3 x %"struct.google::protobuf::internal::EnumEntry"]* @_ZN8perfetto6protosL52ProfilePacket_ProcessHeapSamples_ClientError_entriesE, i64 0, i64 0), i32* getelementptr inbounds ([3 x i32], [3 x i32]* @_ZN8perfetto6protosL62ProfilePacket_ProcessHeapSamples_ClientError_entries_by_numberE, i64 0, i64 0), i64 3, i32 %0) #14
  %13 = icmp eq i32 %12, -1
  br i1 %13, label %14, label %16

14:                                               ; preds = %11
  %15 = tail call dereferenceable(24) %"class.std::__1::basic_string"* @_ZN6google8protobuf8internal14GetEmptyStringEv() #14
  br label %20

16:                                               ; preds = %11
  %17 = sext i32 %12 to i64
  %18 = getelementptr inbounds [3 x %"class.google::protobuf::internal::ExplicitlyConstructed.17"], [3 x %"class.google::protobuf::internal::ExplicitlyConstructed.17"]* @_ZN8perfetto6protosL52ProfilePacket_ProcessHeapSamples_ClientError_stringsE, i64 0, i64 %17
  %19 = bitcast %"class.google::protobuf::internal::ExplicitlyConstructed.17"* %18 to %"class.std::__1::basic_string"*
  br label %20

20:                                               ; preds = %16, %14
  %21 = phi %"class.std::__1::basic_string"* [ %15, %14 ], [ %19, %16 ]
  ret %"class.std::__1::basic_string"* %21
}

; Function Attrs: nofree nounwind
declare i32 @__cxa_guard_acquire(i64*) local_unnamed_addr #3

declare zeroext i1 @_ZN6google8protobuf8internal21InitializeEnumStringsEPKNS1_9EnumEntryEPKimPNS1_21ExplicitlyConstructedINSt3__112basic_stringIcNS8_11char_traitsIcEENS8_9allocatorIcEEEEEE(%"struct.google::protobuf::internal::EnumEntry"*, i32*, i64, %"class.google::protobuf::internal::ExplicitlyConstructed.17"*) local_unnamed_addr #4

; Function Attrs: nofree nounwind
declare void @__cxa_guard_release(i64*) local_unnamed_addr #3

; Function Attrs: argmemonly nounwind
declare void @llvm.lifetime.start.p0i8(i64 immarg, i8* nocapture) #2

declare i32 @_ZN6google8protobuf8internal14LookUpEnumNameEPKNS1_9EnumEntryEPKimi(%"struct.google::protobuf::internal::EnumEntry"*, i32*, i64, i32) local_unnamed_addr #4

declare dereferenceable(24) %"class.std::__1::basic_string"* @_ZN6google8protobuf8internal14GetEmptyStringEv() local_unnamed_addr #4

; Function Attrs: argmemonly nounwind
declare void @llvm.lifetime.end.p0i8(i64 immarg, i8* nocapture) #2

; Function Attrs: nounwind ssp uwtable
define hidden zeroext i1 @_ZN8perfetto6protos50ProfilePacket_ProcessHeapSamples_ClientError_ParseERKNSt3__112basic_stringIcNS1_11char_traitsIcEENS1_9allocatorIcEEEEPNS0_44ProfilePacket_ProcessHeapSamples_ClientErrorE(%"class.std::__1::basic_string"* dereferenceable(24), i32* nocapture) local_unnamed_addr #0 {
  %3 = alloca i32, align 4
  %4 = bitcast i32* %3 to i8*
  call void @llvm.lifetime.start.p0i8(i64 4, i8* nonnull %4) #14
  store i32 -1431655766, i32* %3, align 4
  %5 = bitcast %"class.std::__1::basic_string"* %0 to %"struct.std::__1::basic_string<char, std::__1::char_traits<char>, std::__1::allocator<char> >::__short"*
  %6 = getelementptr inbounds %"struct.std::__1::basic_string<char, std::__1::char_traits<char>, std::__1::allocator<char> >::__short", %"struct.std::__1::basic_string<char, std::__1::char_traits<char>, std::__1::allocator<char> >::__short"* %5, i64 0, i32 1, i32 0
  %7 = load i8, i8* %6, align 1
  %8 = icmp slt i8 %7, 0
  %9 = getelementptr inbounds %"class.std::__1::basic_string", %"class.std::__1::basic_string"* %0, i64 0, i32 0, i32 0, i32 0, i32 0, i32 0, i32 0
  %10 = load i8*, i8** %9, align 8
  %11 = bitcast %"class.std::__1::basic_string"* %0 to i8*
  %12 = select i1 %8, i8* %10, i8* %11
  br i1 %8, label %15, label %13

13:                                               ; preds = %2
  %14 = zext i8 %7 to i64
  br label %20

15:                                               ; preds = %2
  %16 = getelementptr inbounds %"class.std::__1::basic_string", %"class.std::__1::basic_string"* %0, i64 0, i32 0, i32 0, i32 0, i32 0, i32 0, i32 1
  %17 = load i64, i64* %16, align 8
  %18 = icmp slt i64 %17, 0
  br i1 %18, label %19, label %20

19:                                               ; preds = %15
  tail call void @_ZN6google8protobuf11StringPiece18LogFatalSizeTooBigEmPKc(i64 %17, i8* getelementptr inbounds ([25 x i8], [25 x i8]* @.str.42, i64 0, i64 0)) #14
  br label %20

20:                                               ; preds = %13, %15, %19
  %21 = phi i64 [ %14, %13 ], [ %17, %15 ], [ %17, %19 ]
  %22 = call zeroext i1 @_ZN6google8protobuf8internal15LookUpEnumValueEPKNS1_9EnumEntryEmNS0_11StringPieceEPi(%"struct.google::protobuf::internal::EnumEntry"* getelementptr inbounds ([3 x %"struct.google::protobuf::internal::EnumEntry"], [3 x %"struct.google::protobuf::internal::EnumEntry"]* @_ZN8perfetto6protosL52ProfilePacket_ProcessHeapSamples_ClientError_entriesE, i64 0, i64 0), i64 3, i8* %12, i64 %21, i32* nonnull %3) #14
  br i1 %22, label %23, label %25

23:                                               ; preds = %20
  %24 = load i32, i32* %3, align 4
  store i32 %24, i32* %1, align 4
  br label %25

25:                                               ; preds = %23, %20
  call void @llvm.lifetime.end.p0i8(i64 4, i8* nonnull %4) #14
  ret i1 %22
}

declare zeroext i1 @_ZN6google8protobuf8internal15LookUpEnumValueEPKNS1_9EnumEntryEmNS0_11StringPieceEPi(%"struct.google::protobuf::internal::EnumEntry"*, i64, i8*, i64, i32*) local_unnamed_addr #4

; Function Attrs: norecurse nounwind readnone ssp uwtable
define hidden zeroext i1 @_ZN8perfetto6protos25Profiling_CpuMode_IsValidEi(i32) local_unnamed_addr #1 {
  %2 = icmp ult i32 %0, 6
  ret i1 %2
}

; Function Attrs: nounwind ssp uwtable
define hidden dereferenceable(24) %"class.std::__1::basic_string"* @_ZN8perfetto6protos22Profiling_CpuMode_NameENS0_17Profiling_CpuModeE(i32) local_unnamed_addr #0 {
  %2 = load atomic i8, i8* bitcast (i64* @_ZGVZN8perfetto6protos22Profiling_CpuMode_NameENS0_17Profiling_CpuModeEE5dummy to i8*) acquire, align 8
  %3 = icmp eq i8 %2, 0
  br i1 %3, label %4, label %11, !prof !3

4:                                                ; preds = %1
  %5 = tail call i32 @__cxa_guard_acquire(i64* nonnull @_ZGVZN8perfetto6protos22Profiling_CpuMode_NameENS0_17Profiling_CpuModeEE5dummy) #14
  %6 = icmp eq i32 %5, 0
  br i1 %6, label %11, label %7

7:                                                ; preds = %4
  %8 = tail call zeroext i1 @_ZN6google8protobuf8internal21InitializeEnumStringsEPKNS1_9EnumEntryEPKimPNS1_21ExplicitlyConstructedINSt3__112basic_stringIcNS8_11char_traitsIcEENS8_9allocatorIcEEEEEE(%"struct.google::protobuf::internal::EnumEntry"* getelementptr inbounds ([6 x %"struct.google::protobuf::internal::EnumEntry"], [6 x %"struct.google::protobuf::internal::EnumEntry"]* @_ZN8perfetto6protosL25Profiling_CpuMode_entriesE, i64 0, i64 0), i32* getelementptr inbounds ([6 x i32], [6 x i32]* @_ZN8perfetto6protosL35Profiling_CpuMode_entries_by_numberE, i64 0, i64 0), i64 6, %"class.google::protobuf::internal::ExplicitlyConstructed.17"* getelementptr inbounds ([6 x %"class.google::protobuf::internal::ExplicitlyConstructed.17"], [6 x %"class.google::protobuf::internal::ExplicitlyConstructed.17"]* @_ZN8perfetto6protosL25Profiling_CpuMode_stringsE, i64 0, i64 0)) #14
  %9 = zext i1 %8 to i8
  store i8 %9, i8* @_ZZN8perfetto6protos22Profiling_CpuMode_NameENS0_17Profiling_CpuModeEE5dummy, align 1
  %10 = tail call {}* @llvm.invariant.start.p0i8(i64 1, i8* nonnull @_ZZN8perfetto6protos22Profiling_CpuMode_NameENS0_17Profiling_CpuModeEE5dummy)
  tail call void @__cxa_guard_release(i64* nonnull @_ZGVZN8perfetto6protos22Profiling_CpuMode_NameENS0_17Profiling_CpuModeEE5dummy) #14
  br label %11

11:                                               ; preds = %4, %7, %1
  %12 = tail call i32 @_ZN6google8protobuf8internal14LookUpEnumNameEPKNS1_9EnumEntryEPKimi(%"struct.google::protobuf::internal::EnumEntry"* getelementptr inbounds ([6 x %"struct.google::protobuf::internal::EnumEntry"], [6 x %"struct.google::protobuf::internal::EnumEntry"]* @_ZN8perfetto6protosL25Profiling_CpuMode_entriesE, i64 0, i64 0), i32* getelementptr inbounds ([6 x i32], [6 x i32]* @_ZN8perfetto6protosL35Profiling_CpuMode_entries_by_numberE, i64 0, i64 0), i64 6, i32 %0) #14
  %13 = icmp eq i32 %12, -1
  br i1 %13, label %14, label %16

14:                                               ; preds = %11
  %15 = tail call dereferenceable(24) %"class.std::__1::basic_string"* @_ZN6google8protobuf8internal14GetEmptyStringEv() #14
  br label %20

16:                                               ; preds = %11
  %17 = sext i32 %12 to i64
  %18 = getelementptr inbounds [6 x %"class.google::protobuf::internal::ExplicitlyConstructed.17"], [6 x %"class.google::protobuf::internal::ExplicitlyConstructed.17"]* @_ZN8perfetto6protosL25Profiling_CpuMode_stringsE, i64 0, i64 %17
  %19 = bitcast %"class.google::protobuf::internal::ExplicitlyConstructed.17"* %18 to %"class.std::__1::basic_string"*
  br label %20

20:                                               ; preds = %16, %14
  %21 = phi %"class.std::__1::basic_string"* [ %15, %14 ], [ %19, %16 ]
  ret %"class.std::__1::basic_string"* %21
}

; Function Attrs: nounwind ssp uwtable
define hidden zeroext i1 @_ZN8perfetto6protos23Profiling_CpuMode_ParseERKNSt3__112basic_stringIcNS1_11char_traitsIcEENS1_9allocatorIcEEEEPNS0_17Profiling_CpuModeE(%"class.std::__1::basic_string"* dereferenceable(24), i32* nocapture) local_unnamed_addr #0 {
  %3 = alloca i32, align 4
  %4 = bitcast i32* %3 to i8*
  call void @llvm.lifetime.start.p0i8(i64 4, i8* nonnull %4) #14
  store i32 -1431655766, i32* %3, align 4
  %5 = bitcast %"class.std::__1::basic_string"* %0 to %"struct.std::__1::basic_string<char, std::__1::char_traits<char>, std::__1::allocator<char> >::__short"*
  %6 = getelementptr inbounds %"struct.std::__1::basic_string<char, std::__1::char_traits<char>, std::__1::allocator<char> >::__short", %"struct.std::__1::basic_string<char, std::__1::char_traits<char>, std::__1::allocator<char> >::__short"* %5, i64 0, i32 1, i32 0
  %7 = load i8, i8* %6, align 1
  %8 = icmp slt i8 %7, 0
  %9 = getelementptr inbounds %"class.std::__1::basic_string", %"class.std::__1::basic_string"* %0, i64 0, i32 0, i32 0, i32 0, i32 0, i32 0, i32 0
  %10 = load i8*, i8** %9, align 8
  %11 = bitcast %"class.std::__1::basic_string"* %0 to i8*
  %12 = select i1 %8, i8* %10, i8* %11
  br i1 %8, label %15, label %13

13:                                               ; preds = %2
  %14 = zext i8 %7 to i64
  br label %20

15:                                               ; preds = %2
  %16 = getelementptr inbounds %"class.std::__1::basic_string", %"class.std::__1::basic_string"* %0, i64 0, i32 0, i32 0, i32 0, i32 0, i32 0, i32 1
  %17 = load i64, i64* %16, align 8
  %18 = icmp slt i64 %17, 0
  br i1 %18, label %19, label %20

19:                                               ; preds = %15
  tail call void @_ZN6google8protobuf11StringPiece18LogFatalSizeTooBigEmPKc(i64 %17, i8* getelementptr inbounds ([25 x i8], [25 x i8]* @.str.42, i64 0, i64 0)) #14
  br label %20

20:                                               ; preds = %13, %15, %19
  %21 = phi i64 [ %14, %13 ], [ %17, %15 ], [ %17, %19 ]
  %22 = call zeroext i1 @_ZN6google8protobuf8internal15LookUpEnumValueEPKNS1_9EnumEntryEmNS0_11StringPieceEPi(%"struct.google::protobuf::internal::EnumEntry"* getelementptr inbounds ([6 x %"struct.google::protobuf::internal::EnumEntry"], [6 x %"struct.google::protobuf::internal::EnumEntry"]* @_ZN8perfetto6protosL25Profiling_CpuMode_entriesE, i64 0, i64 0), i64 6, i8* %12, i64 %21, i32* nonnull %3) #14
  br i1 %22, label %23, label %25

23:                                               ; preds = %20
  %24 = load i32, i32* %3, align 4
  store i32 %24, i32* %1, align 4
  br label %25

25:                                               ; preds = %23, %20
  call void @llvm.lifetime.end.p0i8(i64 4, i8* nonnull %4) #14
  ret i1 %22
}

; Function Attrs: norecurse nounwind readnone ssp uwtable
define hidden zeroext i1 @_ZN8perfetto6protos34Profiling_StackUnwindError_IsValidEi(i32) local_unnamed_addr #1 {
  %2 = icmp ult i32 %0, 12
  ret i1 %2
}

; Function Attrs: nounwind ssp uwtable
define hidden dereferenceable(24) %"class.std::__1::basic_string"* @_ZN8perfetto6protos31Profiling_StackUnwindError_NameENS0_26Profiling_StackUnwindErrorE(i32) local_unnamed_addr #0 {
  %2 = load atomic i8, i8* bitcast (i64* @_ZGVZN8perfetto6protos31Profiling_StackUnwindError_NameENS0_26Profiling_StackUnwindErrorEE5dummy to i8*) acquire, align 8
  %3 = icmp eq i8 %2, 0
  br i1 %3, label %4, label %11, !prof !3

4:                                                ; preds = %1
  %5 = tail call i32 @__cxa_guard_acquire(i64* nonnull @_ZGVZN8perfetto6protos31Profiling_StackUnwindError_NameENS0_26Profiling_StackUnwindErrorEE5dummy) #14
  %6 = icmp eq i32 %5, 0
  br i1 %6, label %11, label %7

7:                                                ; preds = %4
  %8 = tail call zeroext i1 @_ZN6google8protobuf8internal21InitializeEnumStringsEPKNS1_9EnumEntryEPKimPNS1_21ExplicitlyConstructedINSt3__112basic_stringIcNS8_11char_traitsIcEENS8_9allocatorIcEEEEEE(%"struct.google::protobuf::internal::EnumEntry"* getelementptr inbounds ([12 x %"struct.google::protobuf::internal::EnumEntry"], [12 x %"struct.google::protobuf::internal::EnumEntry"]* @_ZN8perfetto6protosL34Profiling_StackUnwindError_entriesE, i64 0, i64 0), i32* getelementptr inbounds ([12 x i32], [12 x i32]* @_ZN8perfetto6protosL44Profiling_StackUnwindError_entries_by_numberE, i64 0, i64 0), i64 12, %"class.google::protobuf::internal::ExplicitlyConstructed.17"* getelementptr inbounds ([12 x %"class.google::protobuf::internal::ExplicitlyConstructed.17"], [12 x %"class.google::protobuf::internal::ExplicitlyConstructed.17"]* @_ZN8perfetto6protosL34Profiling_StackUnwindError_stringsE, i64 0, i64 0)) #14
  %9 = zext i1 %8 to i8
  store i8 %9, i8* @_ZZN8perfetto6protos31Profiling_StackUnwindError_NameENS0_26Profiling_StackUnwindErrorEE5dummy, align 1
  %10 = tail call {}* @llvm.invariant.start.p0i8(i64 1, i8* nonnull @_ZZN8perfetto6protos31Profiling_StackUnwindError_NameENS0_26Profiling_StackUnwindErrorEE5dummy)
  tail call void @__cxa_guard_release(i64* nonnull @_ZGVZN8perfetto6protos31Profiling_StackUnwindError_NameENS0_26Profiling_StackUnwindErrorEE5dummy) #14
  br label %11

11:                                               ; preds = %4, %7, %1
  %12 = tail call i32 @_ZN6google8protobuf8internal14LookUpEnumNameEPKNS1_9EnumEntryEPKimi(%"struct.google::protobuf::internal::EnumEntry"* getelementptr inbounds ([12 x %"struct.google::protobuf::internal::EnumEntry"], [12 x %"struct.google::protobuf::internal::EnumEntry"]* @_ZN8perfetto6protosL34Profiling_StackUnwindError_entriesE, i64 0, i64 0), i32* getelementptr inbounds ([12 x i32], [12 x i32]* @_ZN8perfetto6protosL44Profiling_StackUnwindError_entries_by_numberE, i64 0, i64 0), i64 12, i32 %0) #14
  %13 = icmp eq i32 %12, -1
  br i1 %13, label %14, label %16

14:                                               ; preds = %11
  %15 = tail call dereferenceable(24) %"class.std::__1::basic_string"* @_ZN6google8protobuf8internal14GetEmptyStringEv() #14
  br label %20

16:                                               ; preds = %11
  %17 = sext i32 %12 to i64
  %18 = getelementptr inbounds [12 x %"class.google::protobuf::internal::ExplicitlyConstructed.17"], [12 x %"class.google::protobuf::internal::ExplicitlyConstructed.17"]* @_ZN8perfetto6protosL34Profiling_StackUnwindError_stringsE, i64 0, i64 %17
  %19 = bitcast %"class.google::protobuf::internal::ExplicitlyConstructed.17"* %18 to %"class.std::__1::basic_string"*
  br label %20

20:                                               ; preds = %16, %14
  %21 = phi %"class.std::__1::basic_string"* [ %15, %14 ], [ %19, %16 ]
  ret %"class.std::__1::basic_string"* %21
}

; Function Attrs: nounwind ssp uwtable
define hidden zeroext i1 @_ZN8perfetto6protos32Profiling_StackUnwindError_ParseERKNSt3__112basic_stringIcNS1_11char_traitsIcEENS1_9allocatorIcEEEEPNS0_26Profiling_StackUnwindErrorE(%"class.std::__1::basic_string"* dereferenceable(24), i32* nocapture) local_unnamed_addr #0 {
  %3 = alloca i32, align 4
  %4 = bitcast i32* %3 to i8*
  call void @llvm.lifetime.start.p0i8(i64 4, i8* nonnull %4) #14
  store i32 -1431655766, i32* %3, align 4
  %5 = bitcast %"class.std::__1::basic_string"* %0 to %"struct.std::__1::basic_string<char, std::__1::char_traits<char>, std::__1::allocator<char> >::__short"*
  %6 = getelementptr inbounds %"struct.std::__1::basic_string<char, std::__1::char_traits<char>, std::__1::allocator<char> >::__short", %"struct.std::__1::basic_string<char, std::__1::char_traits<char>, std::__1::allocator<char> >::__short"* %5, i64 0, i32 1, i32 0
  %7 = load i8, i8* %6, align 1
  %8 = icmp slt i8 %7, 0
  %9 = getelementptr inbounds %"class.std::__1::basic_string", %"class.std::__1::basic_string"* %0, i64 0, i32 0, i32 0, i32 0, i32 0, i32 0, i32 0
  %10 = load i8*, i8** %9, align 8
  %11 = bitcast %"class.std::__1::basic_string"* %0 to i8*
  %12 = select i1 %8, i8* %10, i8* %11
  br i1 %8, label %15, label %13

13:                                               ; preds = %2
  %14 = zext i8 %7 to i64
  br label %20

15:                                               ; preds = %2
  %16 = getelementptr inbounds %"class.std::__1::basic_string", %"class.std::__1::basic_string"* %0, i64 0, i32 0, i32 0, i32 0, i32 0, i32 0, i32 1
  %17 = load i64, i64* %16, align 8
  %18 = icmp slt i64 %17, 0
  br i1 %18, label %19, label %20

19:                                               ; preds = %15
  tail call void @_ZN6google8protobuf11StringPiece18LogFatalSizeTooBigEmPKc(i64 %17, i8* getelementptr inbounds ([25 x i8], [25 x i8]* @.str.42, i64 0, i64 0)) #14
  br label %20

20:                                               ; preds = %13, %15, %19
  %21 = phi i64 [ %14, %13 ], [ %17, %15 ], [ %17, %19 ]
  %22 = call zeroext i1 @_ZN6google8protobuf8internal15LookUpEnumValueEPKNS1_9EnumEntryEmNS0_11StringPieceEPi(%"struct.google::protobuf::internal::EnumEntry"* getelementptr inbounds ([12 x %"struct.google::protobuf::internal::EnumEntry"], [12 x %"struct.google::protobuf::internal::EnumEntry"]* @_ZN8perfetto6protosL34Profiling_StackUnwindError_entriesE, i64 0, i64 0), i64 12, i8* %12, i64 %21, i32* nonnull %3) #14
  br i1 %22, label %23, label %25

23:                                               ; preds = %20
  %24 = load i32, i32* %3, align 4
  store i32 %24, i32* %1, align 4
  br label %25

25:                                               ; preds = %23, %20
  call void @llvm.lifetime.end.p0i8(i64 4, i8* nonnull %4) #14
  ret i1 %22
}

; Function Attrs: norecurse nounwind readnone ssp uwtable
define hidden zeroext i1 @_ZN8perfetto6protos53PerfSample_ProducerEvent_DataSourceStopReason_IsValidEi(i32) local_unnamed_addr #1 {
  %2 = icmp ult i32 %0, 2
  ret i1 %2
}

; Function Attrs: nounwind ssp uwtable
define hidden dereferenceable(24) %"class.std::__1::basic_string"* @_ZN8perfetto6protos50PerfSample_ProducerEvent_DataSourceStopReason_NameENS0_45PerfSample_ProducerEvent_DataSourceStopReasonE(i32) local_unnamed_addr #0 {
  %2 = load atomic i8, i8* bitcast (i64* @_ZGVZN8perfetto6protos50PerfSample_ProducerEvent_DataSourceStopReason_NameENS0_45PerfSample_ProducerEvent_DataSourceStopReasonEE5dummy to i8*) acquire, align 8
  %3 = icmp eq i8 %2, 0
  br i1 %3, label %4, label %11, !prof !3

4:                                                ; preds = %1
  %5 = tail call i32 @__cxa_guard_acquire(i64* nonnull @_ZGVZN8perfetto6protos50PerfSample_ProducerEvent_DataSourceStopReason_NameENS0_45PerfSample_ProducerEvent_DataSourceStopReasonEE5dummy) #14
  %6 = icmp eq i32 %5, 0
  br i1 %6, label %11, label %7

7:                                                ; preds = %4
  %8 = tail call zeroext i1 @_ZN6google8protobuf8internal21InitializeEnumStringsEPKNS1_9EnumEntryEPKimPNS1_21ExplicitlyConstructedINSt3__112basic_stringIcNS8_11char_traitsIcEENS8_9allocatorIcEEEEEE(%"struct.google::protobuf::internal::EnumEntry"* getelementptr inbounds ([2 x %"struct.google::protobuf::internal::EnumEntry"], [2 x %"struct.google::protobuf::internal::EnumEntry"]* @_ZN8perfetto6protosL53PerfSample_ProducerEvent_DataSourceStopReason_entriesE, i64 0, i64 0), i32* getelementptr inbounds ([2 x i32], [2 x i32]* @_ZN8perfetto6protosL63PerfSample_ProducerEvent_DataSourceStopReason_entries_by_numberE, i64 0, i64 0), i64 2, %"class.google::protobuf::internal::ExplicitlyConstructed.17"* getelementptr inbounds ([2 x %"class.google::protobuf::internal::ExplicitlyConstructed.17"], [2 x %"class.google::protobuf::internal::ExplicitlyConstructed.17"]* @_ZN8perfetto6protosL53PerfSample_ProducerEvent_DataSourceStopReason_stringsE, i64 0, i64 0)) #14
  %9 = zext i1 %8 to i8
  store i8 %9, i8* @_ZZN8perfetto6protos50PerfSample_ProducerEvent_DataSourceStopReason_NameENS0_45PerfSample_ProducerEvent_DataSourceStopReasonEE5dummy, align 1
  %10 = tail call {}* @llvm.invariant.start.p0i8(i64 1, i8* nonnull @_ZZN8perfetto6protos50PerfSample_ProducerEvent_DataSourceStopReason_NameENS0_45PerfSample_ProducerEvent_DataSourceStopReasonEE5dummy)
  tail call void @__cxa_guard_release(i64* nonnull @_ZGVZN8perfetto6protos50PerfSample_ProducerEvent_DataSourceStopReason_NameENS0_45PerfSample_ProducerEvent_DataSourceStopReasonEE5dummy) #14
  br label %11

11:                                               ; preds = %4, %7, %1
  %12 = tail call i32 @_ZN6google8protobuf8internal14LookUpEnumNameEPKNS1_9EnumEntryEPKimi(%"struct.google::protobuf::internal::EnumEntry"* getelementptr inbounds ([2 x %"struct.google::protobuf::internal::EnumEntry"], [2 x %"struct.google::protobuf::internal::EnumEntry"]* @_ZN8perfetto6protosL53PerfSample_ProducerEvent_DataSourceStopReason_entriesE, i64 0, i64 0), i32* getelementptr inbounds ([2 x i32], [2 x i32]* @_ZN8perfetto6protosL63PerfSample_ProducerEvent_DataSourceStopReason_entries_by_numberE, i64 0, i64 0), i64 2, i32 %0) #14
  %13 = icmp eq i32 %12, -1
  br i1 %13, label %14, label %16

14:                                               ; preds = %11
  %15 = tail call dereferenceable(24) %"class.std::__1::basic_string"* @_ZN6google8protobuf8internal14GetEmptyStringEv() #14
  br label %20

16:                                               ; preds = %11
  %17 = sext i32 %12 to i64
  %18 = getelementptr inbounds [2 x %"class.google::protobuf::internal::ExplicitlyConstructed.17"], [2 x %"class.google::protobuf::internal::ExplicitlyConstructed.17"]* @_ZN8perfetto6protosL53PerfSample_ProducerEvent_DataSourceStopReason_stringsE, i64 0, i64 %17
  %19 = bitcast %"class.google::protobuf::internal::ExplicitlyConstructed.17"* %18 to %"class.std::__1::basic_string"*
  br label %20

20:                                               ; preds = %16, %14
  %21 = phi %"class.std::__1::basic_string"* [ %15, %14 ], [ %19, %16 ]
  ret %"class.std::__1::basic_string"* %21
}

; Function Attrs: nounwind ssp uwtable
define hidden zeroext i1 @_ZN8perfetto6protos51PerfSample_ProducerEvent_DataSourceStopReason_ParseERKNSt3__112basic_stringIcNS1_11char_traitsIcEENS1_9allocatorIcEEEEPNS0_45PerfSample_ProducerEvent_DataSourceStopReasonE(%"class.std::__1::basic_string"* dereferenceable(24), i32* nocapture) local_unnamed_addr #0 {
  %3 = alloca i32, align 4
  %4 = bitcast i32* %3 to i8*
  call void @llvm.lifetime.start.p0i8(i64 4, i8* nonnull %4) #14
  store i32 -1431655766, i32* %3, align 4
  %5 = bitcast %"class.std::__1::basic_string"* %0 to %"struct.std::__1::basic_string<char, std::__1::char_traits<char>, std::__1::allocator<char> >::__short"*
  %6 = getelementptr inbounds %"struct.std::__1::basic_string<char, std::__1::char_traits<char>, std::__1::allocator<char> >::__short", %"struct.std::__1::basic_string<char, std::__1::char_traits<char>, std::__1::allocator<char> >::__short"* %5, i64 0, i32 1, i32 0
  %7 = load i8, i8* %6, align 1
  %8 = icmp slt i8 %7, 0
  %9 = getelementptr inbounds %"class.std::__1::basic_string", %"class.std::__1::basic_string"* %0, i64 0, i32 0, i32 0, i32 0, i32 0, i32 0, i32 0
  %10 = load i8*, i8** %9, align 8
  %11 = bitcast %"class.std::__1::basic_string"* %0 to i8*
  %12 = select i1 %8, i8* %10, i8* %11
  br i1 %8, label %15, label %13

13:                                               ; preds = %2
  %14 = zext i8 %7 to i64
  br label %20

15:                                               ; preds = %2
  %16 = getelementptr inbounds %"class.std::__1::basic_string", %"class.std::__1::basic_string"* %0, i64 0, i32 0, i32 0, i32 0, i32 0, i32 0, i32 1
  %17 = load i64, i64* %16, align 8
  %18 = icmp slt i64 %17, 0
  br i1 %18, label %19, label %20

19:                                               ; preds = %15
  tail call void @_ZN6google8protobuf11StringPiece18LogFatalSizeTooBigEmPKc(i64 %17, i8* getelementptr inbounds ([25 x i8], [25 x i8]* @.str.42, i64 0, i64 0)) #14
  br label %20

20:                                               ; preds = %13, %15, %19
  %21 = phi i64 [ %14, %13 ], [ %17, %15 ], [ %17, %19 ]
  %22 = call zeroext i1 @_ZN6google8protobuf8internal15LookUpEnumValueEPKNS1_9EnumEntryEmNS0_11StringPieceEPi(%"struct.google::protobuf::internal::EnumEntry"* getelementptr inbounds ([2 x %"struct.google::protobuf::internal::EnumEntry"], [2 x %"struct.google::protobuf::internal::EnumEntry"]* @_ZN8perfetto6protosL53PerfSample_ProducerEvent_DataSourceStopReason_entriesE, i64 0, i64 0), i64 2, i8* %12, i64 %21, i32* nonnull %3) #14
  br i1 %22, label %23, label %25

23:                                               ; preds = %20
  %24 = load i32, i32* %3, align 4
  store i32 %24, i32* %1, align 4
  br label %25

25:                                               ; preds = %23, %20
  call void @llvm.lifetime.end.p0i8(i64 4, i8* nonnull %4) #14
  ret i1 %22
}

; Function Attrs: norecurse nounwind readnone ssp uwtable
define hidden zeroext i1 @_ZN8perfetto6protos35PerfSample_SampleSkipReason_IsValidEi(i32) local_unnamed_addr #1 {
  %2 = icmp ult i32 %0, 4
  ret i1 %2
}

; Function Attrs: nounwind ssp uwtable
define hidden dereferenceable(24) %"class.std::__1::basic_string"* @_ZN8perfetto6protos32PerfSample_SampleSkipReason_NameENS0_27PerfSample_SampleSkipReasonE(i32) local_unnamed_addr #0 {
  %2 = load atomic i8, i8* bitcast (i64* @_ZGVZN8perfetto6protos32PerfSample_SampleSkipReason_NameENS0_27PerfSample_SampleSkipReasonEE5dummy to i8*) acquire, align 8
  %3 = icmp eq i8 %2, 0
  br i1 %3, label %4, label %11, !prof !3

4:                                                ; preds = %1
  %5 = tail call i32 @__cxa_guard_acquire(i64* nonnull @_ZGVZN8perfetto6protos32PerfSample_SampleSkipReason_NameENS0_27PerfSample_SampleSkipReasonEE5dummy) #14
  %6 = icmp eq i32 %5, 0
  br i1 %6, label %11, label %7

7:                                                ; preds = %4
  %8 = tail call zeroext i1 @_ZN6google8protobuf8internal21InitializeEnumStringsEPKNS1_9EnumEntryEPKimPNS1_21ExplicitlyConstructedINSt3__112basic_stringIcNS8_11char_traitsIcEENS8_9allocatorIcEEEEEE(%"struct.google::protobuf::internal::EnumEntry"* getelementptr inbounds ([4 x %"struct.google::protobuf::internal::EnumEntry"], [4 x %"struct.google::protobuf::internal::EnumEntry"]* @_ZN8perfetto6protosL35PerfSample_SampleSkipReason_entriesE, i64 0, i64 0), i32* getelementptr inbounds ([4 x i32], [4 x i32]* @_ZN8perfetto6protosL45PerfSample_SampleSkipReason_entries_by_numberE, i64 0, i64 0), i64 4, %"class.google::protobuf::internal::ExplicitlyConstructed.17"* getelementptr inbounds ([4 x %"class.google::protobuf::internal::ExplicitlyConstructed.17"], [4 x %"class.google::protobuf::internal::ExplicitlyConstructed.17"]* @_ZN8perfetto6protosL35PerfSample_SampleSkipReason_stringsE, i64 0, i64 0)) #14
  %9 = zext i1 %8 to i8
  store i8 %9, i8* @_ZZN8perfetto6protos32PerfSample_SampleSkipReason_NameENS0_27PerfSample_SampleSkipReasonEE5dummy, align 1
  %10 = tail call {}* @llvm.invariant.start.p0i8(i64 1, i8* nonnull @_ZZN8perfetto6protos32PerfSample_SampleSkipReason_NameENS0_27PerfSample_SampleSkipReasonEE5dummy)
  tail call void @__cxa_guard_release(i64* nonnull @_ZGVZN8perfetto6protos32PerfSample_SampleSkipReason_NameENS0_27PerfSample_SampleSkipReasonEE5dummy) #14
  br label %11

11:                                               ; preds = %4, %7, %1
  %12 = tail call i32 @_ZN6google8protobuf8internal14LookUpEnumNameEPKNS1_9EnumEntryEPKimi(%"struct.google::protobuf::internal::EnumEntry"* getelementptr inbounds ([4 x %"struct.google::protobuf::internal::EnumEntry"], [4 x %"struct.google::protobuf::internal::EnumEntry"]* @_ZN8perfetto6protosL35PerfSample_SampleSkipReason_entriesE, i64 0, i64 0), i32* getelementptr inbounds ([4 x i32], [4 x i32]* @_ZN8perfetto6protosL45PerfSample_SampleSkipReason_entries_by_numberE, i64 0, i64 0), i64 4, i32 %0) #14
  %13 = icmp eq i32 %12, -1
  br i1 %13, label %14, label %16

14:                                               ; preds = %11
  %15 = tail call dereferenceable(24) %"class.std::__1::basic_string"* @_ZN6google8protobuf8internal14GetEmptyStringEv() #14
  br label %20

16:                                               ; preds = %11
  %17 = sext i32 %12 to i64
  %18 = getelementptr inbounds [4 x %"class.google::protobuf::internal::ExplicitlyConstructed.17"], [4 x %"class.google::protobuf::internal::ExplicitlyConstructed.17"]* @_ZN8perfetto6protosL35PerfSample_SampleSkipReason_stringsE, i64 0, i64 %17
  %19 = bitcast %"class.google::protobuf::internal::ExplicitlyConstructed.17"* %18 to %"class.std::__1::basic_string"*
  br label %20

20:                                               ; preds = %16, %14
  %21 = phi %"class.std::__1::basic_string"* [ %15, %14 ], [ %19, %16 ]
  ret %"class.std::__1::basic_string"* %21
}

; Function Attrs: nounwind ssp uwtable
define hidden zeroext i1 @_ZN8perfetto6protos33PerfSample_SampleSkipReason_ParseERKNSt3__112basic_stringIcNS1_11char_traitsIcEENS1_9allocatorIcEEEEPNS0_27PerfSample_SampleSkipReasonE(%"class.std::__1::basic_string"* dereferenceable(24), i32* nocapture) local_unnamed_addr #0 {
  %3 = alloca i32, align 4
  %4 = bitcast i32* %3 to i8*
  call void @llvm.lifetime.start.p0i8(i64 4, i8* nonnull %4) #14
  store i32 -1431655766, i32* %3, align 4
  %5 = bitcast %"class.std::__1::basic_string"* %0 to %"struct.std::__1::basic_string<char, std::__1::char_traits<char>, std::__1::allocator<char> >::__short"*
  %6 = getelementptr inbounds %"struct.std::__1::basic_string<char, std::__1::char_traits<char>, std::__1::allocator<char> >::__short", %"struct.std::__1::basic_string<char, std::__1::char_traits<char>, std::__1::allocator<char> >::__short"* %5, i64 0, i32 1, i32 0
  %7 = load i8, i8* %6, align 1
  %8 = icmp slt i8 %7, 0
  %9 = getelementptr inbounds %"class.std::__1::basic_string", %"class.std::__1::basic_string"* %0, i64 0, i32 0, i32 0, i32 0, i32 0, i32 0, i32 0
  %10 = load i8*, i8** %9, align 8
  %11 = bitcast %"class.std::__1::basic_string"* %0 to i8*
  %12 = select i1 %8, i8* %10, i8* %11
  br i1 %8, label %15, label %13

13:                                               ; preds = %2
  %14 = zext i8 %7 to i64
  br label %20

15:                                               ; preds = %2
  %16 = getelementptr inbounds %"class.std::__1::basic_string", %"class.std::__1::basic_string"* %0, i64 0, i32 0, i32 0, i32 0, i32 0, i32 0, i32 1
  %17 = load i64, i64* %16, align 8
  %18 = icmp slt i64 %17, 0
  br i1 %18, label %19, label %20

19:                                               ; preds = %15
  tail call void @_ZN6google8protobuf11StringPiece18LogFatalSizeTooBigEmPKc(i64 %17, i8* getelementptr inbounds ([25 x i8], [25 x i8]* @.str.42, i64 0, i64 0)) #14
  br label %20

20:                                               ; preds = %13, %15, %19
  %21 = phi i64 [ %14, %13 ], [ %17, %15 ], [ %17, %19 ]
  %22 = call zeroext i1 @_ZN6google8protobuf8internal15LookUpEnumValueEPKNS1_9EnumEntryEmNS0_11StringPieceEPi(%"struct.google::protobuf::internal::EnumEntry"* getelementptr inbounds ([4 x %"struct.google::protobuf::internal::EnumEntry"], [4 x %"struct.google::protobuf::internal::EnumEntry"]* @_ZN8perfetto6protosL35PerfSample_SampleSkipReason_entriesE, i64 0, i64 0), i64 4, i8* %12, i64 %21, i32* nonnull %3) #14
  br i1 %22, label %23, label %25

23:                                               ; preds = %20
  %24 = load i32, i32* %3, align 4
  store i32 %24, i32* %1, align 4
  br label %25

25:                                               ; preds = %23, %20
  call void @llvm.lifetime.end.p0i8(i64 4, i8* nonnull %4) #14
  ret i1 %22
}

; Function Attrs: nounwind ssp uwtable
define hidden void @_ZN8perfetto6protos24ProfilePacket_HeapSampleC2EPN6google8protobuf5ArenaE(%"class.perfetto::protos::ProfilePacket_HeapSample"* nocapture, %"class.google::protobuf::Arena"*) unnamed_addr #0 align 2 {
  %3 = getelementptr inbounds %"class.perfetto::protos::ProfilePacket_HeapSample", %"class.perfetto::protos::ProfilePacket_HeapSample"* %0, i64 0, i32 0, i32 0
  %4 = getelementptr inbounds %"class.perfetto::protos::ProfilePacket_HeapSample", %"class.perfetto::protos::ProfilePacket_HeapSample"* %0, i64 0, i32 0, i32 1
  %5 = bitcast %"class.google::protobuf::internal::InternalMetadata"* %4 to %"class.google::protobuf::Arena"**
  store %"class.google::protobuf::Arena"* %1, %"class.google::protobuf::Arena"** %5, align 8
  store i32 (...)** bitcast (i8** getelementptr inbounds ({ [16 x i8*] }, { [16 x i8*] }* @_ZTVN8perfetto6protos24ProfilePacket_HeapSampleE, i64 0, inrange i32 0, i64 2) to i32 (...)**), i32 (...)*** %3, align 8
  %6 = getelementptr inbounds %"class.perfetto::protos::ProfilePacket_HeapSample", %"class.perfetto::protos::ProfilePacket_HeapSample"* %0, i64 0, i32 1, i32 0, i64 0
  %7 = bitcast i32* %6 to i8*
  call void @llvm.memset.p0i8.i64(i8* align 4 %7, i8 0, i64 72, i1 false)
  ret void
}

; Function Attrs: nounwind ssp uwtable
define hidden void @_ZN8perfetto6protos24ProfilePacket_HeapSampleC2ERKS1_(%"class.perfetto::protos::ProfilePacket_HeapSample"*, %"class.perfetto::protos::ProfilePacket_HeapSample"* nocapture readonly dereferenceable(88)) unnamed_addr #0 align 2 {
  %3 = getelementptr inbounds %"class.perfetto::protos::ProfilePacket_HeapSample", %"class.perfetto::protos::ProfilePacket_HeapSample"* %0, i64 0, i32 0, i32 0
  %4 = getelementptr inbounds %"class.perfetto::protos::ProfilePacket_HeapSample", %"class.perfetto::protos::ProfilePacket_HeapSample"* %0, i64 0, i32 0, i32 1, i32 0
  store i8* null, i8** %4, align 8
  store i32 (...)** bitcast (i8** getelementptr inbounds ({ [16 x i8*] }, { [16 x i8*] }* @_ZTVN8perfetto6protos24ProfilePacket_HeapSampleE, i64 0, inrange i32 0, i64 2) to i32 (...)**), i32 (...)*** %3, align 8
  %5 = getelementptr inbounds %"class.perfetto::protos::ProfilePacket_HeapSample", %"class.perfetto::protos::ProfilePacket_HeapSample"* %1, i64 0, i32 1, i32 0, i64 0
  %6 = getelementptr inbounds %"class.perfetto::protos::ProfilePacket_HeapSample", %"class.perfetto::protos::ProfilePacket_HeapSample"* %0, i64 0, i32 1, i32 0, i64 0
  %7 = load i32, i32* %5, align 8
  store i32 %7, i32* %6, align 8
  %8 = getelementptr inbounds %"class.perfetto::protos::ProfilePacket_HeapSample", %"class.perfetto::protos::ProfilePacket_HeapSample"* %0, i64 0, i32 2, i32 0, i32 0, i32 0, i32 0, i32 0, i32 0
  store i32 0, i32* %8, align 4
  %9 = getelementptr inbounds %"class.perfetto::protos::ProfilePacket_HeapSample", %"class.perfetto::protos::ProfilePacket_HeapSample"* %1, i64 0, i32 0, i32 1
  %10 = bitcast %"class.google::protobuf::internal::InternalMetadata"* %9 to i64*
  %11 = load i64, i64* %10, align 8
  %12 = and i64 %11, 1
  %13 = icmp eq i64 %12, 0
  br i1 %13, label %33, label %14

14:                                               ; preds = %2
  %15 = getelementptr inbounds %"class.perfetto::protos::ProfilePacket_HeapSample", %"class.perfetto::protos::ProfilePacket_HeapSample"* %0, i64 0, i32 0, i32 1
  %16 = and i64 %11, -2
  %17 = inttoptr i64 %16 to %"struct.google::protobuf::internal::InternalMetadata::Container"*
  %18 = getelementptr inbounds %"struct.google::protobuf::internal::InternalMetadata::Container", %"struct.google::protobuf::internal::InternalMetadata::Container"* %17, i64 0, i32 1
  %19 = tail call %"class.std::__1::basic_string"* @_ZN6google8protobuf8internal16InternalMetadata27mutable_unknown_fields_slowINSt3__112basic_stringIcNS4_11char_traitsIcEENS4_9allocatorIcEEEEEEPT_v(%"class.google::protobuf::internal::InternalMetadata"* %15) #14
  %20 = bitcast %"class.std::__1::basic_string"* %18 to %"struct.std::__1::basic_string<char, std::__1::char_traits<char>, std::__1::allocator<char> >::__short"*
  %21 = getelementptr inbounds %"struct.std::__1::basic_string<char, std::__1::char_traits<char>, std::__1::allocator<char> >::__short", %"struct.std::__1::basic_string<char, std::__1::char_traits<char>, std::__1::allocator<char> >::__short"* %20, i64 0, i32 1, i32 0
  %22 = load i8, i8* %21, align 1
  %23 = icmp slt i8 %22, 0
  %24 = getelementptr inbounds %"class.std::__1::basic_string", %"class.std::__1::basic_string"* %18, i64 0, i32 0, i32 0, i32 0, i32 0, i32 0, i32 0
  %25 = load i8*, i8** %24, align 8
  %26 = getelementptr inbounds %"struct.google::protobuf::internal::InternalMetadata::Container", %"struct.google::protobuf::internal::InternalMetadata::Container"* %17, i64 0, i32 1, i32 0, i32 0, i32 0, i32 0, i32 0, i32 1
  %27 = load i64, i64* %26, align 8
  %28 = bitcast %"class.std::__1::basic_string"* %18 to i8*
  %29 = zext i8 %22 to i64
  %30 = select i1 %23, i8* %25, i8* %28
  %31 = select i1 %23, i64 %27, i64 %29
  %32 = tail call dereferenceable(24) %"class.std::__1::basic_string"* @_ZNSt3__112basic_stringIcNS_11char_traitsIcEENS_9allocatorIcEEE6appendEPKcm(%"class.std::__1::basic_string"* %19, i8* %30, i64 %31) #14
  br label %33

33:                                               ; preds = %2, %14
  %34 = getelementptr inbounds %"class.perfetto::protos::ProfilePacket_HeapSample", %"class.perfetto::protos::ProfilePacket_HeapSample"* %0, i64 0, i32 3
  %35 = bitcast i64* %34 to i8*
  %36 = getelementptr inbounds %"class.perfetto::protos::ProfilePacket_HeapSample", %"class.perfetto::protos::ProfilePacket_HeapSample"* %1, i64 0, i32 3
  %37 = bitcast i64* %36 to i8*
  tail call void @llvm.memcpy.p0i8.p0i8.i64(i8* align 8 %35, i8* align 8 %37, i64 64, i1 false)
  ret void
}

; Function Attrs: argmemonly nounwind
declare void @llvm.memcpy.p0i8.p0i8.i64(i8* nocapture writeonly, i8* nocapture readonly, i64, i1 immarg) #2

; Function Attrs: nounwind ssp uwtable
define hidden void @_ZN8perfetto6protos24ProfilePacket_HeapSampleD2Ev(%"class.perfetto::protos::ProfilePacket_HeapSample"* nocapture) unnamed_addr #0 align 2 {
  %2 = getelementptr inbounds %"class.perfetto::protos::ProfilePacket_HeapSample", %"class.perfetto::protos::ProfilePacket_HeapSample"* %0, i64 0, i32 0, i32 0
  store i32 (...)** bitcast (i8** getelementptr inbounds ({ [16 x i8*] }, { [16 x i8*] }* @_ZTVN8perfetto6protos24ProfilePacket_HeapSampleE, i64 0, inrange i32 0, i64 2) to i32 (...)**), i32 (...)*** %2, align 8
  %3 = getelementptr inbounds %"class.perfetto::protos::ProfilePacket_HeapSample", %"class.perfetto::protos::ProfilePacket_HeapSample"* %0, i64 0, i32 0, i32 1
  %4 = bitcast %"class.google::protobuf::internal::InternalMetadata"* %3 to i64*
  %5 = load i64, i64* %4, align 8
  %6 = and i64 %5, 1
  %7 = icmp eq i64 %6, 0
  br i1 %7, label %28, label %8

8:                                                ; preds = %1
  %9 = and i64 %5, -2
  %10 = inttoptr i64 %9 to %"struct.google::protobuf::internal::InternalMetadata::ContainerBase"*
  %11 = getelementptr inbounds %"struct.google::protobuf::internal::InternalMetadata::ContainerBase", %"struct.google::protobuf::internal::InternalMetadata::ContainerBase"* %10, i64 0, i32 0
  %12 = load %"class.google::protobuf::Arena"*, %"class.google::protobuf::Arena"** %11, align 8
  %13 = icmp ne %"class.google::protobuf::Arena"* %12, null
  %14 = icmp eq i64 %9, 0
  %15 = or i1 %14, %13
  br i1 %15, label %28, label %16

16:                                               ; preds = %8
  %17 = inttoptr i64 %9 to %"struct.google::protobuf::internal::InternalMetadata::Container"*
  %18 = getelementptr inbounds %"struct.google::protobuf::internal::InternalMetadata::Container", %"struct.google::protobuf::internal::InternalMetadata::Container"* %17, i64 0, i32 1
  %19 = bitcast %"class.std::__1::basic_string"* %18 to %"struct.std::__1::basic_string<char, std::__1::char_traits<char>, std::__1::allocator<char> >::__short"*
  %20 = getelementptr inbounds %"struct.std::__1::basic_string<char, std::__1::char_traits<char>, std::__1::allocator<char> >::__short", %"struct.std::__1::basic_string<char, std::__1::char_traits<char>, std::__1::allocator<char> >::__short"* %19, i64 0, i32 1, i32 0
  %21 = load i8, i8* %20, align 1
  %22 = icmp slt i8 %21, 0
  br i1 %22, label %23, label %26

23:                                               ; preds = %16
  %24 = getelementptr inbounds %"class.std::__1::basic_string", %"class.std::__1::basic_string"* %18, i64 0, i32 0, i32 0, i32 0, i32 0, i32 0, i32 0
  %25 = load i8*, i8** %24, align 8
  tail call void @_ZdlPv(i8* %25) #15
  br label %26

26:                                               ; preds = %23, %16
  %27 = inttoptr i64 %9 to i8*
  tail call void @_ZdlPv(i8* %27) #15
  br label %28

28:                                               ; preds = %1, %8, %26
  ret void
}

; Function Attrs: nounwind ssp uwtable
define hidden void @_ZN8perfetto6protos24ProfilePacket_HeapSampleD0Ev(%"class.perfetto::protos::ProfilePacket_HeapSample"*) unnamed_addr #0 align 2 {
  %2 = getelementptr inbounds %"class.perfetto::protos::ProfilePacket_HeapSample", %"class.perfetto::protos::ProfilePacket_HeapSample"* %0, i64 0, i32 0, i32 0
  store i32 (...)** bitcast (i8** getelementptr inbounds ({ [16 x i8*] }, { [16 x i8*] }* @_ZTVN8perfetto6protos24ProfilePacket_HeapSampleE, i64 0, inrange i32 0, i64 2) to i32 (...)**), i32 (...)*** %2, align 8
  %3 = getelementptr inbounds %"class.perfetto::protos::ProfilePacket_HeapSample", %"class.perfetto::protos::ProfilePacket_HeapSample"* %0, i64 0, i32 0, i32 1
  %4 = bitcast %"class.google::protobuf::internal::InternalMetadata"* %3 to i64*
  %5 = load i64, i64* %4, align 8
  %6 = and i64 %5, 1
  %7 = icmp eq i64 %6, 0
  br i1 %7, label %28, label %8

8:                                                ; preds = %1
  %9 = and i64 %5, -2
  %10 = inttoptr i64 %9 to %"struct.google::protobuf::internal::InternalMetadata::ContainerBase"*
  %11 = getelementptr inbounds %"struct.google::protobuf::internal::InternalMetadata::ContainerBase", %"struct.google::protobuf::internal::InternalMetadata::ContainerBase"* %10, i64 0, i32 0
  %12 = load %"class.google::protobuf::Arena"*, %"class.google::protobuf::Arena"** %11, align 8
  %13 = icmp ne %"class.google::protobuf::Arena"* %12, null
  %14 = icmp eq i64 %9, 0
  %15 = or i1 %14, %13
  br i1 %15, label %28, label %16

16:                                               ; preds = %8
  %17 = inttoptr i64 %9 to %"struct.google::protobuf::internal::InternalMetadata::Container"*
  %18 = getelementptr inbounds %"struct.google::protobuf::internal::InternalMetadata::Container", %"struct.google::protobuf::internal::InternalMetadata::Container"* %17, i64 0, i32 1
  %19 = bitcast %"class.std::__1::basic_string"* %18 to %"struct.std::__1::basic_string<char, std::__1::char_traits<char>, std::__1::allocator<char> >::__short"*
  %20 = getelementptr inbounds %"struct.std::__1::basic_string<char, std::__1::char_traits<char>, std::__1::allocator<char> >::__short", %"struct.std::__1::basic_string<char, std::__1::char_traits<char>, std::__1::allocator<char> >::__short"* %19, i64 0, i32 1, i32 0
  %21 = load i8, i8* %20, align 1
  %22 = icmp slt i8 %21, 0
  br i1 %22, label %23, label %26

23:                                               ; preds = %16
  %24 = getelementptr inbounds %"class.std::__1::basic_string", %"class.std::__1::basic_string"* %18, i64 0, i32 0, i32 0, i32 0, i32 0, i32 0, i32 0
  %25 = load i8*, i8** %24, align 8
  tail call void @_ZdlPv(i8* %25) #15
  br label %26

26:                                               ; preds = %23, %16
  %27 = inttoptr i64 %9 to i8*
  tail call void @_ZdlPv(i8* %27) #15
  br label %28

28:                                               ; preds = %1, %8, %26
  %29 = bitcast %"class.perfetto::protos::ProfilePacket_HeapSample"* %0 to i8*
  tail call void @_ZdlPv(i8* %29) #15
  ret void
}

; Function Attrs: nobuiltin nounwind
declare void @_ZdlPv(i8*) local_unnamed_addr #5

; Function Attrs: norecurse nounwind readnone ssp uwtable
define hidden void @_ZN8perfetto6protos24ProfilePacket_HeapSample9ArenaDtorEPv(i8* nocapture) local_unnamed_addr #1 align 2 {
  ret void
}

; Function Attrs: nofree norecurse nounwind ssp uwtable
define hidden void @_ZNK8perfetto6protos24ProfilePacket_HeapSample13SetCachedSizeEi(%"class.perfetto::protos::ProfilePacket_HeapSample"* nocapture, i32) local_unnamed_addr #6 align 2 {
  %3 = getelementptr inbounds %"class.perfetto::protos::ProfilePacket_HeapSample", %"class.perfetto::protos::ProfilePacket_HeapSample"* %0, i64 0, i32 2, i32 0, i32 0, i32 0, i32 0, i32 0, i32 0
  store atomic i32 %1, i32* %3 monotonic, align 4
  ret void
}

; Function Attrs: nounwind ssp uwtable
define hidden dereferenceable(88) %"class.perfetto::protos::ProfilePacket_HeapSample"* @_ZN8perfetto6protos24ProfilePacket_HeapSample16default_instanceEv() local_unnamed_addr #0 align 2 {
  %1 = load atomic i32, i32* getelementptr inbounds ({ { { { i32 } }, i32, i32, void ()* }, [0 x i8*] }, { { { { i32 } }, i32, i32, void ()* }, [0 x i8*] }* @scc_info_ProfilePacket_HeapSample_protos_2fperfetto_2ftrace_2fprofiling_2fprofile_5fpacket_2eproto, i64 0, i32 0, i32 0, i32 0, i32 0) acquire, align 8
  %2 = icmp eq i32 %1, 0
  br i1 %2, label %4, label %3, !prof !2

3:                                                ; preds = %0
  tail call void @_ZN6google8protobuf8internal11InitSCCImplEPNS1_11SCCInfoBaseE(%"struct.google::protobuf::internal::SCCInfoBase"* bitcast ({ { { { i32 } }, i32, i32, void ()* }, [0 x i8*] }* @scc_info_ProfilePacket_HeapSample_protos_2fperfetto_2ftrace_2fprofiling_2fprofile_5fpacket_2eproto to %"struct.google::protobuf::internal::SCCInfoBase"*)) #14
  br label %4

4:                                                ; preds = %0, %3
  ret %"class.perfetto::protos::ProfilePacket_HeapSample"* bitcast (%"class.perfetto::protos::ProfilePacket_HeapSampleDefaultTypeInternal"* @_ZN8perfetto6protos43_ProfilePacket_HeapSample_default_instance_E to %"class.perfetto::protos::ProfilePacket_HeapSample"*)
}

; Function Attrs: nounwind ssp uwtable
define hidden void @_ZN8perfetto6protos24ProfilePacket_HeapSample5ClearEv(%"class.perfetto::protos::ProfilePacket_HeapSample"* nocapture) unnamed_addr #0 align 2 {
  %2 = getelementptr inbounds %"class.perfetto::protos::ProfilePacket_HeapSample", %"class.perfetto::protos::ProfilePacket_HeapSample"* %0, i64 0, i32 1, i32 0, i64 0
  %3 = load i32, i32* %2, align 4
  %4 = and i32 %3, 255
  %5 = icmp eq i32 %4, 0
  br i1 %5, label %9, label %6

6:                                                ; preds = %1
  %7 = getelementptr inbounds %"class.perfetto::protos::ProfilePacket_HeapSample", %"class.perfetto::protos::ProfilePacket_HeapSample"* %0, i64 0, i32 3
  %8 = bitcast i64* %7 to i8*
  tail call void @llvm.memset.p0i8.i64(i8* align 8 %8, i8 0, i64 64, i1 false)
  br label %9

9:                                                ; preds = %1, %6
  store i32 0, i32* %2, align 4
  %10 = getelementptr inbounds %"class.perfetto::protos::ProfilePacket_HeapSample", %"class.perfetto::protos::ProfilePacket_HeapSample"* %0, i64 0, i32 0, i32 1
  %11 = bitcast %"class.google::protobuf::internal::InternalMetadata"* %10 to i64*
  %12 = load i64, i64* %11, align 8
  %13 = and i64 %12, 1
  %14 = icmp eq i64 %13, 0
  br i1 %14, label %29, label %15

15:                                               ; preds = %9
  %16 = and i64 %12, -2
  %17 = inttoptr i64 %16 to %"struct.google::protobuf::internal::InternalMetadata::Container"*
  %18 = getelementptr inbounds %"struct.google::protobuf::internal::InternalMetadata::Container", %"struct.google::protobuf::internal::InternalMetadata::Container"* %17, i64 0, i32 1
  %19 = bitcast %"class.std::__1::basic_string"* %18 to %"struct.std::__1::basic_string<char, std::__1::char_traits<char>, std::__1::allocator<char> >::__short"*
  %20 = getelementptr inbounds %"struct.std::__1::basic_string<char, std::__1::char_traits<char>, std::__1::allocator<char> >::__short", %"struct.std::__1::basic_string<char, std::__1::char_traits<char>, std::__1::allocator<char> >::__short"* %19, i64 0, i32 1, i32 0
  %21 = load i8, i8* %20, align 1
  %22 = icmp slt i8 %21, 0
  br i1 %22, label %23, label %27

23:                                               ; preds = %15
  %24 = getelementptr inbounds %"class.std::__1::basic_string", %"class.std::__1::basic_string"* %18, i64 0, i32 0, i32 0, i32 0, i32 0, i32 0, i32 0
  %25 = load i8*, i8** %24, align 8
  store i8 0, i8* %25, align 1
  %26 = getelementptr inbounds %"struct.google::protobuf::internal::InternalMetadata::Container", %"struct.google::protobuf::internal::InternalMetadata::Container"* %17, i64 0, i32 1, i32 0, i32 0, i32 0, i32 0, i32 0, i32 1
  store i64 0, i64* %26, align 8
  br label %29

27:                                               ; preds = %15
  %28 = bitcast %"class.std::__1::basic_string"* %18 to i8*
  store i8 0, i8* %28, align 2
  store i8 0, i8* %20, align 1
  br label %29

29:                                               ; preds = %9, %23, %27
  ret void
}

; Function Attrs: argmemonly nounwind
declare void @llvm.memset.p0i8.i64(i8* nocapture writeonly, i8, i64, i1 immarg) #2

; Function Attrs: nounwind ssp uwtable
define hidden i8* @_ZN8perfetto6protos24ProfilePacket_HeapSample14_InternalParseEPKcPN6google8protobuf8internal12ParseContextE(%"class.perfetto::protos::ProfilePacket_HeapSample"*, i8*, %"class.google::protobuf::internal::ParseContext"*) unnamed_addr #0 align 2 {
  %4 = getelementptr inbounds %"class.google::protobuf::internal::ParseContext", %"class.google::protobuf::internal::ParseContext"* %2, i64 0, i32 0
  %5 = getelementptr inbounds %"class.google::protobuf::internal::ParseContext", %"class.google::protobuf::internal::ParseContext"* %2, i64 0, i32 2
  %6 = getelementptr inbounds %"class.google::protobuf::internal::ParseContext", %"class.google::protobuf::internal::ParseContext"* %2, i64 0, i32 0, i32 0
  %7 = getelementptr inbounds %"class.google::protobuf::internal::ParseContext", %"class.google::protobuf::internal::ParseContext"* %2, i64 0, i32 0, i32 1
  %8 = bitcast i8** %7 to i64*
  %9 = getelementptr inbounds %"class.google::protobuf::internal::ParseContext", %"class.google::protobuf::internal::ParseContext"* %2, i64 0, i32 0, i32 4
  %10 = getelementptr inbounds %"class.perfetto::protos::ProfilePacket_HeapSample", %"class.perfetto::protos::ProfilePacket_HeapSample"* %0, i64 0, i32 10
  %11 = getelementptr inbounds %"class.perfetto::protos::ProfilePacket_HeapSample", %"class.perfetto::protos::ProfilePacket_HeapSample"* %0, i64 0, i32 9
  %12 = getelementptr inbounds %"class.perfetto::protos::ProfilePacket_HeapSample", %"class.perfetto::protos::ProfilePacket_HeapSample"* %0, i64 0, i32 8
  %13 = getelementptr inbounds %"class.perfetto::protos::ProfilePacket_HeapSample", %"class.perfetto::protos::ProfilePacket_HeapSample"* %0, i64 0, i32 7
  %14 = getelementptr inbounds %"class.perfetto::protos::ProfilePacket_HeapSample", %"class.perfetto::protos::ProfilePacket_HeapSample"* %0, i64 0, i32 6
  %15 = getelementptr inbounds %"class.perfetto::protos::ProfilePacket_HeapSample", %"class.perfetto::protos::ProfilePacket_HeapSample"* %0, i64 0, i32 5
  %16 = getelementptr inbounds %"class.perfetto::protos::ProfilePacket_HeapSample", %"class.perfetto::protos::ProfilePacket_HeapSample"* %0, i64 0, i32 4
  %17 = getelementptr inbounds %"class.perfetto::protos::ProfilePacket_HeapSample", %"class.perfetto::protos::ProfilePacket_HeapSample"* %0, i64 0, i32 3
  %18 = getelementptr inbounds %"class.perfetto::protos::ProfilePacket_HeapSample", %"class.perfetto::protos::ProfilePacket_HeapSample"* %0, i64 0, i32 0, i32 1
  %19 = bitcast %"class.google::protobuf::internal::InternalMetadata"* %18 to i64*
  br label %20

20:                                               ; preds = %326, %3
  %21 = phi i8* [ %1, %3 ], [ %327, %326 ]
  %22 = phi i32 [ 0, %3 ], [ %328, %326 ]
  %23 = load i32, i32* %5, align 4
  %24 = load i8*, i8** %6, align 8
  %25 = icmp ult i8* %21, %24
  br i1 %25, label %39, label %26, !prof !2

26:                                               ; preds = %20
  %27 = load i64, i64* %8, align 8
  %28 = ptrtoint i8* %21 to i64
  %29 = sub i64 %28, %27
  %30 = load i32, i32* %9, align 4
  %31 = sext i32 %30 to i64
  %32 = icmp eq i64 %29, %31
  br i1 %32, label %329, label %33

33:                                               ; preds = %26
  %34 = tail call { i8*, i8 } @_ZN6google8protobuf8internal18EpsCopyInputStream12DoneFallbackEPKci(%"class.google::protobuf::internal::EpsCopyInputStream"* %4, i8* %21, i32 %23) #14
  %35 = extractvalue { i8*, i8 } %34, 0
  %36 = extractvalue { i8*, i8 } %34, 1
  %37 = and i8 %36, 1
  %38 = icmp eq i8 %37, 0
  br i1 %38, label %39, label %329

39:                                               ; preds = %33, %20
  %40 = phi i8* [ %35, %33 ], [ %21, %20 ]
  %41 = load i8, i8* %40, align 1
  %42 = zext i8 %41 to i32
  %43 = icmp sgt i8 %41, -1
  %44 = getelementptr inbounds i8, i8* %40, i64 1
  br i1 %43, label %58, label %45

45:                                               ; preds = %39
  %46 = load i8, i8* %44, align 1
  %47 = zext i8 %46 to i32
  %48 = shl nuw nsw i32 %47, 7
  %49 = add nsw i32 %42, -128
  %50 = add nsw i32 %49, %48
  %51 = icmp sgt i8 %46, -1
  br i1 %51, label %52, label %54

52:                                               ; preds = %45
  %53 = getelementptr inbounds i8, i8* %40, i64 2
  br label %58

54:                                               ; preds = %45
  %55 = tail call { i8*, i32 } @_ZN6google8protobuf8internal15ReadTagFallbackEPKcj(i8* %40, i32 %50) #14
  %56 = extractvalue { i8*, i32 } %55, 0
  %57 = extractvalue { i8*, i32 } %55, 1
  br label %58

58:                                               ; preds = %39, %52, %54
  %59 = phi i32 [ %50, %52 ], [ %57, %54 ], [ %42, %39 ]
  %60 = phi i8* [ %53, %52 ], [ %56, %54 ], [ %44, %39 ]
  %61 = icmp eq i8* %60, null
  br i1 %61, label %329, label %62, !prof !4

62:                                               ; preds = %58
  %63 = lshr i32 %59, 3
  switch i32 %63, label %304 [
    i32 1, label %64
    i32 2, label %94
    i32 3, label %124
    i32 4, label %154
    i32 5, label %184
    i32 6, label %214
    i32 8, label %244
    i32 9, label %274
  ]

64:                                               ; preds = %62
  %65 = and i32 %59, 255
  %66 = icmp eq i32 %65, 8
  br i1 %66, label %67, label %304, !prof !2

67:                                               ; preds = %64
  %68 = or i32 %22, 1
  %69 = load i8, i8* %60, align 1
  %70 = icmp slt i8 %69, 0
  br i1 %70, label %74, label %71

71:                                               ; preds = %67
  %72 = zext i8 %69 to i64
  %73 = getelementptr inbounds i8, i8* %60, i64 1
  br label %90

74:                                               ; preds = %67
  %75 = zext i8 %69 to i32
  %76 = getelementptr inbounds i8, i8* %60, i64 1
  %77 = load i8, i8* %76, align 1
  %78 = zext i8 %77 to i32
  %79 = shl nuw nsw i32 %78, 7
  %80 = add nsw i32 %75, -128
  %81 = add nuw nsw i32 %80, %79
  %82 = icmp slt i8 %77, 0
  br i1 %82, label %86, label %83

83:                                               ; preds = %74
  %84 = zext i32 %81 to i64
  %85 = getelementptr inbounds i8, i8* %60, i64 2
  br label %90

86:                                               ; preds = %74
  %87 = tail call { i8*, i64 } @_ZN6google8protobuf8internal17VarintParseSlow64EPKcj(i8* nonnull %60, i32 %81) #14
  %88 = extractvalue { i8*, i64 } %87, 0
  %89 = extractvalue { i8*, i64 } %87, 1
  br label %90

90:                                               ; preds = %71, %83, %86
  %91 = phi i64 [ %89, %86 ], [ %84, %83 ], [ %72, %71 ]
  %92 = phi i8* [ %88, %86 ], [ %85, %83 ], [ %73, %71 ]
  store i64 %91, i64* %17, align 8
  %93 = icmp eq i8* %92, null
  br i1 %93, label %329, label %326

94:                                               ; preds = %62
  %95 = and i32 %59, 255
  %96 = icmp eq i32 %95, 16
  br i1 %96, label %97, label %304, !prof !2

97:                                               ; preds = %94
  %98 = or i32 %22, 2
  %99 = load i8, i8* %60, align 1
  %100 = icmp slt i8 %99, 0
  br i1 %100, label %104, label %101

101:                                              ; preds = %97
  %102 = zext i8 %99 to i64
  %103 = getelementptr inbounds i8, i8* %60, i64 1
  br label %120

104:                                              ; preds = %97
  %105 = zext i8 %99 to i32
  %106 = getelementptr inbounds i8, i8* %60, i64 1
  %107 = load i8, i8* %106, align 1
  %108 = zext i8 %107 to i32
  %109 = shl nuw nsw i32 %108, 7
  %110 = add nsw i32 %105, -128
  %111 = add nuw nsw i32 %110, %109
  %112 = icmp slt i8 %107, 0
  br i1 %112, label %116, label %113

113:                                              ; preds = %104
  %114 = zext i32 %111 to i64
  %115 = getelementptr inbounds i8, i8* %60, i64 2
  br label %120

116:                                              ; preds = %104
  %117 = tail call { i8*, i64 } @_ZN6google8protobuf8internal17VarintParseSlow64EPKcj(i8* nonnull %60, i32 %111) #14
  %118 = extractvalue { i8*, i64 } %117, 0
  %119 = extractvalue { i8*, i64 } %117, 1
  br label %120

120:                                              ; preds = %101, %113, %116
  %121 = phi i64 [ %119, %116 ], [ %114, %113 ], [ %102, %101 ]
  %122 = phi i8* [ %118, %116 ], [ %115, %113 ], [ %103, %101 ]
  store i64 %121, i64* %16, align 8
  %123 = icmp eq i8* %122, null
  br i1 %123, label %329, label %326

124:                                              ; preds = %62
  %125 = and i32 %59, 255
  %126 = icmp eq i32 %125, 24
  br i1 %126, label %127, label %304, !prof !2

127:                                              ; preds = %124
  %128 = or i32 %22, 4
  %129 = load i8, i8* %60, align 1
  %130 = icmp slt i8 %129, 0
  br i1 %130, label %134, label %131

131:                                              ; preds = %127
  %132 = zext i8 %129 to i64
  %133 = getelementptr inbounds i8, i8* %60, i64 1
  br label %150

134:                                              ; preds = %127
  %135 = zext i8 %129 to i32
  %136 = getelementptr inbounds i8, i8* %60, i64 1
  %137 = load i8, i8* %136, align 1
  %138 = zext i8 %137 to i32
  %139 = shl nuw nsw i32 %138, 7
  %140 = add nsw i32 %135, -128
  %141 = add nuw nsw i32 %140, %139
  %142 = icmp slt i8 %137, 0
  br i1 %142, label %146, label %143

143:                                              ; preds = %134
  %144 = zext i32 %141 to i64
  %145 = getelementptr inbounds i8, i8* %60, i64 2
  br label %150

146:                                              ; preds = %134
  %147 = tail call { i8*, i64 } @_ZN6google8protobuf8internal17VarintParseSlow64EPKcj(i8* nonnull %60, i32 %141) #14
  %148 = extractvalue { i8*, i64 } %147, 0
  %149 = extractvalue { i8*, i64 } %147, 1
  br label %150

150:                                              ; preds = %131, %143, %146
  %151 = phi i64 [ %149, %146 ], [ %144, %143 ], [ %132, %131 ]
  %152 = phi i8* [ %148, %146 ], [ %145, %143 ], [ %133, %131 ]
  store i64 %151, i64* %15, align 8
  %153 = icmp eq i8* %152, null
  br i1 %153, label %329, label %326

154:                                              ; preds = %62
  %155 = and i32 %59, 255
  %156 = icmp eq i32 %155, 32
  br i1 %156, label %157, label %304, !prof !2

157:                                              ; preds = %154
  %158 = or i32 %22, 8
  %159 = load i8, i8* %60, align 1
  %160 = icmp slt i8 %159, 0
  br i1 %160, label %164, label %161

161:                                              ; preds = %157
  %162 = zext i8 %159 to i64
  %163 = getelementptr inbounds i8, i8* %60, i64 1
  br label %180

164:                                              ; preds = %157
  %165 = zext i8 %159 to i32
  %166 = getelementptr inbounds i8, i8* %60, i64 1
  %167 = load i8, i8* %166, align 1
  %168 = zext i8 %167 to i32
  %169 = shl nuw nsw i32 %168, 7
  %170 = add nsw i32 %165, -128
  %171 = add nuw nsw i32 %170, %169
  %172 = icmp slt i8 %167, 0
  br i1 %172, label %176, label %173

173:                                              ; preds = %164
  %174 = zext i32 %171 to i64
  %175 = getelementptr inbounds i8, i8* %60, i64 2
  br label %180

176:                                              ; preds = %164
  %177 = tail call { i8*, i64 } @_ZN6google8protobuf8internal17VarintParseSlow64EPKcj(i8* nonnull %60, i32 %171) #14
  %178 = extractvalue { i8*, i64 } %177, 0
  %179 = extractvalue { i8*, i64 } %177, 1
  br label %180

180:                                              ; preds = %161, %173, %176
  %181 = phi i64 [ %179, %176 ], [ %174, %173 ], [ %162, %161 ]
  %182 = phi i8* [ %178, %176 ], [ %175, %173 ], [ %163, %161 ]
  store i64 %181, i64* %14, align 8
  %183 = icmp eq i8* %182, null
  br i1 %183, label %329, label %326

184:                                              ; preds = %62
  %185 = and i32 %59, 255
  %186 = icmp eq i32 %185, 40
  br i1 %186, label %187, label %304, !prof !2

187:                                              ; preds = %184
  %188 = or i32 %22, 16
  %189 = load i8, i8* %60, align 1
  %190 = icmp slt i8 %189, 0
  br i1 %190, label %194, label %191

191:                                              ; preds = %187
  %192 = zext i8 %189 to i64
  %193 = getelementptr inbounds i8, i8* %60, i64 1
  br label %210

194:                                              ; preds = %187
  %195 = zext i8 %189 to i32
  %196 = getelementptr inbounds i8, i8* %60, i64 1
  %197 = load i8, i8* %196, align 1
  %198 = zext i8 %197 to i32
  %199 = shl nuw nsw i32 %198, 7
  %200 = add nsw i32 %195, -128
  %201 = add nuw nsw i32 %200, %199
  %202 = icmp slt i8 %197, 0
  br i1 %202, label %206, label %203

203:                                              ; preds = %194
  %204 = zext i32 %201 to i64
  %205 = getelementptr inbounds i8, i8* %60, i64 2
  br label %210

206:                                              ; preds = %194
  %207 = tail call { i8*, i64 } @_ZN6google8protobuf8internal17VarintParseSlow64EPKcj(i8* nonnull %60, i32 %201) #14
  %208 = extractvalue { i8*, i64 } %207, 0
  %209 = extractvalue { i8*, i64 } %207, 1
  br label %210

210:                                              ; preds = %191, %203, %206
  %211 = phi i64 [ %209, %206 ], [ %204, %203 ], [ %192, %191 ]
  %212 = phi i8* [ %208, %206 ], [ %205, %203 ], [ %193, %191 ]
  store i64 %211, i64* %13, align 8
  %213 = icmp eq i8* %212, null
  br i1 %213, label %329, label %326

214:                                              ; preds = %62
  %215 = and i32 %59, 255
  %216 = icmp eq i32 %215, 48
  br i1 %216, label %217, label %304, !prof !2

217:                                              ; preds = %214
  %218 = or i32 %22, 32
  %219 = load i8, i8* %60, align 1
  %220 = icmp slt i8 %219, 0
  br i1 %220, label %224, label %221

221:                                              ; preds = %217
  %222 = zext i8 %219 to i64
  %223 = getelementptr inbounds i8, i8* %60, i64 1
  br label %240

224:                                              ; preds = %217
  %225 = zext i8 %219 to i32
  %226 = getelementptr inbounds i8, i8* %60, i64 1
  %227 = load i8, i8* %226, align 1
  %228 = zext i8 %227 to i32
  %229 = shl nuw nsw i32 %228, 7
  %230 = add nsw i32 %225, -128
  %231 = add nuw nsw i32 %230, %229
  %232 = icmp slt i8 %227, 0
  br i1 %232, label %236, label %233

233:                                              ; preds = %224
  %234 = zext i32 %231 to i64
  %235 = getelementptr inbounds i8, i8* %60, i64 2
  br label %240

236:                                              ; preds = %224
  %237 = tail call { i8*, i64 } @_ZN6google8protobuf8internal17VarintParseSlow64EPKcj(i8* nonnull %60, i32 %231) #14
  %238 = extractvalue { i8*, i64 } %237, 0
  %239 = extractvalue { i8*, i64 } %237, 1
  br label %240

240:                                              ; preds = %221, %233, %236
  %241 = phi i64 [ %239, %236 ], [ %234, %233 ], [ %222, %221 ]
  %242 = phi i8* [ %238, %236 ], [ %235, %233 ], [ %223, %221 ]
  store i64 %241, i64* %12, align 8
  %243 = icmp eq i8* %242, null
  br i1 %243, label %329, label %326

244:                                              ; preds = %62
  %245 = and i32 %59, 255
  %246 = icmp eq i32 %245, 64
  br i1 %246, label %247, label %304, !prof !2

247:                                              ; preds = %244
  %248 = or i32 %22, 64
  %249 = load i8, i8* %60, align 1
  %250 = icmp slt i8 %249, 0
  br i1 %250, label %254, label %251

251:                                              ; preds = %247
  %252 = zext i8 %249 to i64
  %253 = getelementptr inbounds i8, i8* %60, i64 1
  br label %270

254:                                              ; preds = %247
  %255 = zext i8 %249 to i32
  %256 = getelementptr inbounds i8, i8* %60, i64 1
  %257 = load i8, i8* %256, align 1
  %258 = zext i8 %257 to i32
  %259 = shl nuw nsw i32 %258, 7
  %260 = add nsw i32 %255, -128
  %261 = add nuw nsw i32 %260, %259
  %262 = icmp slt i8 %257, 0
  br i1 %262, label %266, label %263

263:                                              ; preds = %254
  %264 = zext i32 %261 to i64
  %265 = getelementptr inbounds i8, i8* %60, i64 2
  br label %270

266:                                              ; preds = %254
  %267 = tail call { i8*, i64 } @_ZN6google8protobuf8internal17VarintParseSlow64EPKcj(i8* nonnull %60, i32 %261) #14
  %268 = extractvalue { i8*, i64 } %267, 0
  %269 = extractvalue { i8*, i64 } %267, 1
  br label %270

270:                                              ; preds = %251, %263, %266
  %271 = phi i64 [ %269, %266 ], [ %264, %263 ], [ %252, %251 ]
  %272 = phi i8* [ %268, %266 ], [ %265, %263 ], [ %253, %251 ]
  store i64 %271, i64* %11, align 8
  %273 = icmp eq i8* %272, null
  br i1 %273, label %329, label %326

274:                                              ; preds = %62
  %275 = and i32 %59, 255
  %276 = icmp eq i32 %275, 72
  br i1 %276, label %277, label %304, !prof !2

277:                                              ; preds = %274
  %278 = or i32 %22, 128
  %279 = load i8, i8* %60, align 1
  %280 = icmp slt i8 %279, 0
  br i1 %280, label %284, label %281

281:                                              ; preds = %277
  %282 = zext i8 %279 to i64
  %283 = getelementptr inbounds i8, i8* %60, i64 1
  br label %300

284:                                              ; preds = %277
  %285 = zext i8 %279 to i32
  %286 = getelementptr inbounds i8, i8* %60, i64 1
  %287 = load i8, i8* %286, align 1
  %288 = zext i8 %287 to i32
  %289 = shl nuw nsw i32 %288, 7
  %290 = add nsw i32 %285, -128
  %291 = add nuw nsw i32 %290, %289
  %292 = icmp slt i8 %287, 0
  br i1 %292, label %296, label %293

293:                                              ; preds = %284
  %294 = zext i32 %291 to i64
  %295 = getelementptr inbounds i8, i8* %60, i64 2
  br label %300

296:                                              ; preds = %284
  %297 = tail call { i8*, i64 } @_ZN6google8protobuf8internal17VarintParseSlow64EPKcj(i8* nonnull %60, i32 %291) #14
  %298 = extractvalue { i8*, i64 } %297, 0
  %299 = extractvalue { i8*, i64 } %297, 1
  br label %300

300:                                              ; preds = %281, %293, %296
  %301 = phi i64 [ %299, %296 ], [ %294, %293 ], [ %282, %281 ]
  %302 = phi i8* [ %298, %296 ], [ %295, %293 ], [ %283, %281 ]
  store i64 %301, i64* %10, align 8
  %303 = icmp eq i8* %302, null
  br i1 %303, label %329, label %326

304:                                              ; preds = %62, %274, %244, %214, %184, %154, %124, %94, %64
  %305 = and i32 %59, 7
  %306 = icmp eq i32 %305, 4
  %307 = icmp eq i32 %59, 0
  %308 = or i1 %307, %306
  br i1 %308, label %309, label %312

309:                                              ; preds = %304
  %310 = add i32 %59, -1
  %311 = getelementptr inbounds %"class.google::protobuf::internal::ParseContext", %"class.google::protobuf::internal::ParseContext"* %2, i64 0, i32 0, i32 8
  store i32 %310, i32* %311, align 8
  br label %329

312:                                              ; preds = %304
  %313 = load i64, i64* %19, align 8
  %314 = and i64 %313, 1
  %315 = icmp eq i64 %314, 0
  br i1 %315, label %320, label %316, !prof !4

316:                                              ; preds = %312
  %317 = and i64 %313, -2
  %318 = inttoptr i64 %317 to %"struct.google::protobuf::internal::InternalMetadata::Container"*
  %319 = getelementptr inbounds %"struct.google::protobuf::internal::InternalMetadata::Container", %"struct.google::protobuf::internal::InternalMetadata::Container"* %318, i64 0, i32 1
  br label %322

320:                                              ; preds = %312
  %321 = tail call %"class.std::__1::basic_string"* @_ZN6google8protobuf8internal16InternalMetadata27mutable_unknown_fields_slowINSt3__112basic_stringIcNS4_11char_traitsIcEENS4_9allocatorIcEEEEEEPT_v(%"class.google::protobuf::internal::InternalMetadata"* %18) #14
  br label %322

322:                                              ; preds = %316, %320
  %323 = phi %"class.std::__1::basic_string"* [ %319, %316 ], [ %321, %320 ]
  %324 = tail call i8* @_ZN6google8protobuf8internal17UnknownFieldParseEjPNSt3__112basic_stringIcNS2_11char_traitsIcEENS2_9allocatorIcEEEEPKcPNS1_12ParseContextE(i32 %59, %"class.std::__1::basic_string"* %323, i8* nonnull %60, %"class.google::protobuf::internal::ParseContext"* %2) #14
  %325 = icmp eq i8* %324, null
  br i1 %325, label %329, label %326

326:                                              ; preds = %322, %300, %270, %240, %210, %180, %150, %120, %90
  %327 = phi i8* [ %324, %322 ], [ %302, %300 ], [ %272, %270 ], [ %242, %240 ], [ %212, %210 ], [ %182, %180 ], [ %152, %150 ], [ %122, %120 ], [ %92, %90 ]
  %328 = phi i32 [ %22, %322 ], [ %278, %300 ], [ %248, %270 ], [ %218, %240 ], [ %188, %210 ], [ %158, %180 ], [ %128, %150 ], [ %98, %120 ], [ %68, %90 ]
  br label %20

329:                                              ; preds = %33, %322, %300, %270, %240, %210, %180, %150, %120, %90, %26, %58, %309
  %330 = phi i8* [ %60, %309 ], [ null, %322 ], [ null, %300 ], [ null, %270 ], [ null, %240 ], [ null, %210 ], [ null, %180 ], [ null, %150 ], [ null, %120 ], [ null, %90 ], [ %21, %26 ], [ null, %58 ], [ %35, %33 ]
  %331 = phi i32 [ %22, %309 ], [ %22, %322 ], [ %278, %300 ], [ %248, %270 ], [ %218, %240 ], [ %188, %210 ], [ %158, %180 ], [ %128, %150 ], [ %98, %120 ], [ %68, %90 ], [ %22, %26 ], [ %22, %58 ], [ %22, %33 ]
  %332 = getelementptr inbounds %"class.perfetto::protos::ProfilePacket_HeapSample", %"class.perfetto::protos::ProfilePacket_HeapSample"* %0, i64 0, i32 1, i32 0, i64 0
  %333 = load i32, i32* %332, align 4
  %334 = or i32 %333, %331
  store i32 %334, i32* %332, align 4
  ret i8* %330
}

declare i8* @_ZN6google8protobuf8internal17UnknownFieldParseEjPNSt3__112basic_stringIcNS2_11char_traitsIcEENS2_9allocatorIcEEEEPKcPNS1_12ParseContextE(i32, %"class.std::__1::basic_string"*, i8*, %"class.google::protobuf::internal::ParseContext"*) local_unnamed_addr #4

; Function Attrs: nounwind ssp uwtable
define hidden i8* @_ZNK8perfetto6protos24ProfilePacket_HeapSample18_InternalSerializeEPhPN6google8protobuf2io19EpsCopyOutputStreamE(%"class.perfetto::protos::ProfilePacket_HeapSample"* nocapture readonly, i8*, %"class.google::protobuf::io::EpsCopyOutputStream"*) unnamed_addr #0 align 2 {
  %4 = getelementptr inbounds %"class.perfetto::protos::ProfilePacket_HeapSample", %"class.perfetto::protos::ProfilePacket_HeapSample"* %0, i64 0, i32 1, i32 0, i64 0
  %5 = load i32, i32* %4, align 4
  %6 = and i32 %5, 1
  %7 = icmp eq i32 %6, 0
  br i1 %7, label %44, label %8

8:                                                ; preds = %3
  %9 = getelementptr inbounds %"class.google::protobuf::io::EpsCopyOutputStream", %"class.google::protobuf::io::EpsCopyOutputStream"* %2, i64 0, i32 0
  %10 = load i8*, i8** %9, align 8
  %11 = icmp ugt i8* %10, %1
  br i1 %11, label %14, label %12, !prof !2

12:                                               ; preds = %8
  %13 = tail call i8* @_ZN6google8protobuf2io19EpsCopyOutputStream19EnsureSpaceFallbackEPh(%"class.google::protobuf::io::EpsCopyOutputStream"* %2, i8* %1) #14
  br label %14

14:                                               ; preds = %8, %12
  %15 = phi i8* [ %13, %12 ], [ %1, %8 ]
  %16 = getelementptr inbounds %"class.perfetto::protos::ProfilePacket_HeapSample", %"class.perfetto::protos::ProfilePacket_HeapSample"* %0, i64 0, i32 3
  %17 = load i64, i64* %16, align 8
  store i8 8, i8* %15, align 1
  %18 = getelementptr inbounds i8, i8* %15, i64 1
  %19 = icmp ult i64 %17, 128
  %20 = trunc i64 %17 to i8
  br i1 %19, label %21, label %23

21:                                               ; preds = %14
  store i8 %20, i8* %18, align 1
  %22 = getelementptr inbounds i8, i8* %15, i64 2
  br label %44

23:                                               ; preds = %14
  %24 = or i8 %20, -128
  store i8 %24, i8* %18, align 1
  %25 = lshr i64 %17, 7
  %26 = icmp ult i64 %17, 16384
  br i1 %26, label %27, label %31

27:                                               ; preds = %23
  %28 = trunc i64 %25 to i8
  %29 = getelementptr inbounds i8, i8* %15, i64 2
  store i8 %28, i8* %29, align 1
  %30 = getelementptr inbounds i8, i8* %15, i64 3
  br label %44

31:                                               ; preds = %23
  %32 = getelementptr inbounds i8, i8* %15, i64 2
  br label %33

33:                                               ; preds = %33, %31
  %34 = phi i64 [ %25, %31 ], [ %38, %33 ]
  %35 = phi i8* [ %32, %31 ], [ %39, %33 ]
  %36 = trunc i64 %34 to i8
  %37 = or i8 %36, -128
  store i8 %37, i8* %35, align 1
  %38 = lshr i64 %34, 7
  %39 = getelementptr inbounds i8, i8* %35, i64 1
  %40 = icmp ugt i64 %34, 16383
  br i1 %40, label %33, label %41, !prof !4

41:                                               ; preds = %33
  %42 = trunc i64 %38 to i8
  %43 = getelementptr inbounds i8, i8* %35, i64 2
  store i8 %42, i8* %39, align 1
  br label %44

44:                                               ; preds = %41, %27, %21, %3
  %45 = phi i8* [ %1, %3 ], [ %22, %21 ], [ %30, %27 ], [ %43, %41 ]
  %46 = and i32 %5, 2
  %47 = icmp eq i32 %46, 0
  br i1 %47, label %84, label %48

48:                                               ; preds = %44
  %49 = getelementptr inbounds %"class.google::protobuf::io::EpsCopyOutputStream", %"class.google::protobuf::io::EpsCopyOutputStream"* %2, i64 0, i32 0
  %50 = load i8*, i8** %49, align 8
  %51 = icmp ugt i8* %50, %45
  br i1 %51, label %54, label %52, !prof !2

52:                                               ; preds = %48
  %53 = tail call i8* @_ZN6google8protobuf2io19EpsCopyOutputStream19EnsureSpaceFallbackEPh(%"class.google::protobuf::io::EpsCopyOutputStream"* %2, i8* %45) #14
  br label %54

54:                                               ; preds = %48, %52
  %55 = phi i8* [ %53, %52 ], [ %45, %48 ]
  %56 = getelementptr inbounds %"class.perfetto::protos::ProfilePacket_HeapSample", %"class.perfetto::protos::ProfilePacket_HeapSample"* %0, i64 0, i32 4
  %57 = load i64, i64* %56, align 8
  store i8 16, i8* %55, align 1
  %58 = getelementptr inbounds i8, i8* %55, i64 1
  %59 = icmp ult i64 %57, 128
  %60 = trunc i64 %57 to i8
  br i1 %59, label %61, label %63

61:                                               ; preds = %54
  store i8 %60, i8* %58, align 1
  %62 = getelementptr inbounds i8, i8* %55, i64 2
  br label %84

63:                                               ; preds = %54
  %64 = or i8 %60, -128
  store i8 %64, i8* %58, align 1
  %65 = lshr i64 %57, 7
  %66 = icmp ult i64 %57, 16384
  br i1 %66, label %67, label %71

67:                                               ; preds = %63
  %68 = trunc i64 %65 to i8
  %69 = getelementptr inbounds i8, i8* %55, i64 2
  store i8 %68, i8* %69, align 1
  %70 = getelementptr inbounds i8, i8* %55, i64 3
  br label %84

71:                                               ; preds = %63
  %72 = getelementptr inbounds i8, i8* %55, i64 2
  br label %73

73:                                               ; preds = %73, %71
  %74 = phi i64 [ %65, %71 ], [ %78, %73 ]
  %75 = phi i8* [ %72, %71 ], [ %79, %73 ]
  %76 = trunc i64 %74 to i8
  %77 = or i8 %76, -128
  store i8 %77, i8* %75, align 1
  %78 = lshr i64 %74, 7
  %79 = getelementptr inbounds i8, i8* %75, i64 1
  %80 = icmp ugt i64 %74, 16383
  br i1 %80, label %73, label %81, !prof !4

81:                                               ; preds = %73
  %82 = trunc i64 %78 to i8
  %83 = getelementptr inbounds i8, i8* %75, i64 2
  store i8 %82, i8* %79, align 1
  br label %84

84:                                               ; preds = %81, %67, %61, %44
  %85 = phi i8* [ %45, %44 ], [ %62, %61 ], [ %70, %67 ], [ %83, %81 ]
  %86 = and i32 %5, 4
  %87 = icmp eq i32 %86, 0
  br i1 %87, label %124, label %88

88:                                               ; preds = %84
  %89 = getelementptr inbounds %"class.google::protobuf::io::EpsCopyOutputStream", %"class.google::protobuf::io::EpsCopyOutputStream"* %2, i64 0, i32 0
  %90 = load i8*, i8** %89, align 8
  %91 = icmp ugt i8* %90, %85
  br i1 %91, label %94, label %92, !prof !2

92:                                               ; preds = %88
  %93 = tail call i8* @_ZN6google8protobuf2io19EpsCopyOutputStream19EnsureSpaceFallbackEPh(%"class.google::protobuf::io::EpsCopyOutputStream"* %2, i8* %85) #14
  br label %94

94:                                               ; preds = %88, %92
  %95 = phi i8* [ %93, %92 ], [ %85, %88 ]
  %96 = getelementptr inbounds %"class.perfetto::protos::ProfilePacket_HeapSample", %"class.perfetto::protos::ProfilePacket_HeapSample"* %0, i64 0, i32 5
  %97 = load i64, i64* %96, align 8
  store i8 24, i8* %95, align 1
  %98 = getelementptr inbounds i8, i8* %95, i64 1
  %99 = icmp ult i64 %97, 128
  %100 = trunc i64 %97 to i8
  br i1 %99, label %101, label %103

101:                                              ; preds = %94
  store i8 %100, i8* %98, align 1
  %102 = getelementptr inbounds i8, i8* %95, i64 2
  br label %124

103:                                              ; preds = %94
  %104 = or i8 %100, -128
  store i8 %104, i8* %98, align 1
  %105 = lshr i64 %97, 7
  %106 = icmp ult i64 %97, 16384
  br i1 %106, label %107, label %111

107:                                              ; preds = %103
  %108 = trunc i64 %105 to i8
  %109 = getelementptr inbounds i8, i8* %95, i64 2
  store i8 %108, i8* %109, align 1
  %110 = getelementptr inbounds i8, i8* %95, i64 3
  br label %124

111:                                              ; preds = %103
  %112 = getelementptr inbounds i8, i8* %95, i64 2
  br label %113

113:                                              ; preds = %113, %111
  %114 = phi i64 [ %105, %111 ], [ %118, %113 ]
  %115 = phi i8* [ %112, %111 ], [ %119, %113 ]
  %116 = trunc i64 %114 to i8
  %117 = or i8 %116, -128
  store i8 %117, i8* %115, align 1
  %118 = lshr i64 %114, 7
  %119 = getelementptr inbounds i8, i8* %115, i64 1
  %120 = icmp ugt i64 %114, 16383
  br i1 %120, label %113, label %121, !prof !4

121:                                              ; preds = %113
  %122 = trunc i64 %118 to i8
  %123 = getelementptr inbounds i8, i8* %115, i64 2
  store i8 %122, i8* %119, align 1
  br label %124

124:                                              ; preds = %121, %107, %101, %84
  %125 = phi i8* [ %85, %84 ], [ %102, %101 ], [ %110, %107 ], [ %123, %121 ]
  %126 = and i32 %5, 8
  %127 = icmp eq i32 %126, 0
  br i1 %127, label %164, label %128

128:                                              ; preds = %124
  %129 = getelementptr inbounds %"class.google::protobuf::io::EpsCopyOutputStream", %"class.google::protobuf::io::EpsCopyOutputStream"* %2, i64 0, i32 0
  %130 = load i8*, i8** %129, align 8
  %131 = icmp ugt i8* %130, %125
  br i1 %131, label %134, label %132, !prof !2

132:                                              ; preds = %128
  %133 = tail call i8* @_ZN6google8protobuf2io19EpsCopyOutputStream19EnsureSpaceFallbackEPh(%"class.google::protobuf::io::EpsCopyOutputStream"* %2, i8* %125) #14
  br label %134

134:                                              ; preds = %128, %132
  %135 = phi i8* [ %133, %132 ], [ %125, %128 ]
  %136 = getelementptr inbounds %"class.perfetto::protos::ProfilePacket_HeapSample", %"class.perfetto::protos::ProfilePacket_HeapSample"* %0, i64 0, i32 6
  %137 = load i64, i64* %136, align 8
  store i8 32, i8* %135, align 1
  %138 = getelementptr inbounds i8, i8* %135, i64 1
  %139 = icmp ult i64 %137, 128
  %140 = trunc i64 %137 to i8
  br i1 %139, label %141, label %143

141:                                              ; preds = %134
  store i8 %140, i8* %138, align 1
  %142 = getelementptr inbounds i8, i8* %135, i64 2
  br label %164

143:                                              ; preds = %134
  %144 = or i8 %140, -128
  store i8 %144, i8* %138, align 1
  %145 = lshr i64 %137, 7
  %146 = icmp ult i64 %137, 16384
  br i1 %146, label %147, label %151

147:                                              ; preds = %143
  %148 = trunc i64 %145 to i8
  %149 = getelementptr inbounds i8, i8* %135, i64 2
  store i8 %148, i8* %149, align 1
  %150 = getelementptr inbounds i8, i8* %135, i64 3
  br label %164

151:                                              ; preds = %143
  %152 = getelementptr inbounds i8, i8* %135, i64 2
  br label %153

153:                                              ; preds = %153, %151
  %154 = phi i64 [ %145, %151 ], [ %158, %153 ]
  %155 = phi i8* [ %152, %151 ], [ %159, %153 ]
  %156 = trunc i64 %154 to i8
  %157 = or i8 %156, -128
  store i8 %157, i8* %155, align 1
  %158 = lshr i64 %154, 7
  %159 = getelementptr inbounds i8, i8* %155, i64 1
  %160 = icmp ugt i64 %154, 16383
  br i1 %160, label %153, label %161, !prof !4

161:                                              ; preds = %153
  %162 = trunc i64 %158 to i8
  %163 = getelementptr inbounds i8, i8* %155, i64 2
  store i8 %162, i8* %159, align 1
  br label %164

164:                                              ; preds = %161, %147, %141, %124
  %165 = phi i8* [ %125, %124 ], [ %142, %141 ], [ %150, %147 ], [ %163, %161 ]
  %166 = and i32 %5, 16
  %167 = icmp eq i32 %166, 0
  br i1 %167, label %204, label %168

168:                                              ; preds = %164
  %169 = getelementptr inbounds %"class.google::protobuf::io::EpsCopyOutputStream", %"class.google::protobuf::io::EpsCopyOutputStream"* %2, i64 0, i32 0
  %170 = load i8*, i8** %169, align 8
  %171 = icmp ugt i8* %170, %165
  br i1 %171, label %174, label %172, !prof !2

172:                                              ; preds = %168
  %173 = tail call i8* @_ZN6google8protobuf2io19EpsCopyOutputStream19EnsureSpaceFallbackEPh(%"class.google::protobuf::io::EpsCopyOutputStream"* %2, i8* %165) #14
  br label %174

174:                                              ; preds = %168, %172
  %175 = phi i8* [ %173, %172 ], [ %165, %168 ]
  %176 = getelementptr inbounds %"class.perfetto::protos::ProfilePacket_HeapSample", %"class.perfetto::protos::ProfilePacket_HeapSample"* %0, i64 0, i32 7
  %177 = load i64, i64* %176, align 8
  store i8 40, i8* %175, align 1
  %178 = getelementptr inbounds i8, i8* %175, i64 1
  %179 = icmp ult i64 %177, 128
  %180 = trunc i64 %177 to i8
  br i1 %179, label %181, label %183

181:                                              ; preds = %174
  store i8 %180, i8* %178, align 1
  %182 = getelementptr inbounds i8, i8* %175, i64 2
  br label %204

183:                                              ; preds = %174
  %184 = or i8 %180, -128
  store i8 %184, i8* %178, align 1
  %185 = lshr i64 %177, 7
  %186 = icmp ult i64 %177, 16384
  br i1 %186, label %187, label %191

187:                                              ; preds = %183
  %188 = trunc i64 %185 to i8
  %189 = getelementptr inbounds i8, i8* %175, i64 2
  store i8 %188, i8* %189, align 1
  %190 = getelementptr inbounds i8, i8* %175, i64 3
  br label %204

191:                                              ; preds = %183
  %192 = getelementptr inbounds i8, i8* %175, i64 2
  br label %193

193:                                              ; preds = %193, %191
  %194 = phi i64 [ %185, %191 ], [ %198, %193 ]
  %195 = phi i8* [ %192, %191 ], [ %199, %193 ]
  %196 = trunc i64 %194 to i8
  %197 = or i8 %196, -128
  store i8 %197, i8* %195, align 1
  %198 = lshr i64 %194, 7
  %199 = getelementptr inbounds i8, i8* %195, i64 1
  %200 = icmp ugt i64 %194, 16383
  br i1 %200, label %193, label %201, !prof !4

201:                                              ; preds = %193
  %202 = trunc i64 %198 to i8
  %203 = getelementptr inbounds i8, i8* %195, i64 2
  store i8 %202, i8* %199, align 1
  br label %204

204:                                              ; preds = %201, %187, %181, %164
  %205 = phi i8* [ %165, %164 ], [ %182, %181 ], [ %190, %187 ], [ %203, %201 ]
  %206 = and i32 %5, 32
  %207 = icmp eq i32 %206, 0
  br i1 %207, label %244, label %208

208:                                              ; preds = %204
  %209 = getelementptr inbounds %"class.google::protobuf::io::EpsCopyOutputStream", %"class.google::protobuf::io::EpsCopyOutputStream"* %2, i64 0, i32 0
  %210 = load i8*, i8** %209, align 8
  %211 = icmp ugt i8* %210, %205
  br i1 %211, label %214, label %212, !prof !2

212:                                              ; preds = %208
  %213 = tail call i8* @_ZN6google8protobuf2io19EpsCopyOutputStream19EnsureSpaceFallbackEPh(%"class.google::protobuf::io::EpsCopyOutputStream"* %2, i8* %205) #14
  br label %214

214:                                              ; preds = %208, %212
  %215 = phi i8* [ %213, %212 ], [ %205, %208 ]
  %216 = getelementptr inbounds %"class.perfetto::protos::ProfilePacket_HeapSample", %"class.perfetto::protos::ProfilePacket_HeapSample"* %0, i64 0, i32 8
  %217 = load i64, i64* %216, align 8
  store i8 48, i8* %215, align 1
  %218 = getelementptr inbounds i8, i8* %215, i64 1
  %219 = icmp ult i64 %217, 128
  %220 = trunc i64 %217 to i8
  br i1 %219, label %221, label %223

221:                                              ; preds = %214
  store i8 %220, i8* %218, align 1
  %222 = getelementptr inbounds i8, i8* %215, i64 2
  br label %244

223:                                              ; preds = %214
  %224 = or i8 %220, -128
  store i8 %224, i8* %218, align 1
  %225 = lshr i64 %217, 7
  %226 = icmp ult i64 %217, 16384
  br i1 %226, label %227, label %231

227:                                              ; preds = %223
  %228 = trunc i64 %225 to i8
  %229 = getelementptr inbounds i8, i8* %215, i64 2
  store i8 %228, i8* %229, align 1
  %230 = getelementptr inbounds i8, i8* %215, i64 3
  br label %244

231:                                              ; preds = %223
  %232 = getelementptr inbounds i8, i8* %215, i64 2
  br label %233

233:                                              ; preds = %233, %231
  %234 = phi i64 [ %225, %231 ], [ %238, %233 ]
  %235 = phi i8* [ %232, %231 ], [ %239, %233 ]
  %236 = trunc i64 %234 to i8
  %237 = or i8 %236, -128
  store i8 %237, i8* %235, align 1
  %238 = lshr i64 %234, 7
  %239 = getelementptr inbounds i8, i8* %235, i64 1
  %240 = icmp ugt i64 %234, 16383
  br i1 %240, label %233, label %241, !prof !4

241:                                              ; preds = %233
  %242 = trunc i64 %238 to i8
  %243 = getelementptr inbounds i8, i8* %235, i64 2
  store i8 %242, i8* %239, align 1
  br label %244

244:                                              ; preds = %241, %227, %221, %204
  %245 = phi i8* [ %205, %204 ], [ %222, %221 ], [ %230, %227 ], [ %243, %241 ]
  %246 = and i32 %5, 64
  %247 = icmp eq i32 %246, 0
  br i1 %247, label %284, label %248

248:                                              ; preds = %244
  %249 = getelementptr inbounds %"class.google::protobuf::io::EpsCopyOutputStream", %"class.google::protobuf::io::EpsCopyOutputStream"* %2, i64 0, i32 0
  %250 = load i8*, i8** %249, align 8
  %251 = icmp ugt i8* %250, %245
  br i1 %251, label %254, label %252, !prof !2

252:                                              ; preds = %248
  %253 = tail call i8* @_ZN6google8protobuf2io19EpsCopyOutputStream19EnsureSpaceFallbackEPh(%"class.google::protobuf::io::EpsCopyOutputStream"* %2, i8* %245) #14
  br label %254

254:                                              ; preds = %248, %252
  %255 = phi i8* [ %253, %252 ], [ %245, %248 ]
  %256 = getelementptr inbounds %"class.perfetto::protos::ProfilePacket_HeapSample", %"class.perfetto::protos::ProfilePacket_HeapSample"* %0, i64 0, i32 9
  %257 = load i64, i64* %256, align 8
  store i8 64, i8* %255, align 1
  %258 = getelementptr inbounds i8, i8* %255, i64 1
  %259 = icmp ult i64 %257, 128
  %260 = trunc i64 %257 to i8
  br i1 %259, label %261, label %263

261:                                              ; preds = %254
  store i8 %260, i8* %258, align 1
  %262 = getelementptr inbounds i8, i8* %255, i64 2
  br label %284

263:                                              ; preds = %254
  %264 = or i8 %260, -128
  store i8 %264, i8* %258, align 1
  %265 = lshr i64 %257, 7
  %266 = icmp ult i64 %257, 16384
  br i1 %266, label %267, label %271

267:                                              ; preds = %263
  %268 = trunc i64 %265 to i8
  %269 = getelementptr inbounds i8, i8* %255, i64 2
  store i8 %268, i8* %269, align 1
  %270 = getelementptr inbounds i8, i8* %255, i64 3
  br label %284

271:                                              ; preds = %263
  %272 = getelementptr inbounds i8, i8* %255, i64 2
  br label %273

273:                                              ; preds = %273, %271
  %274 = phi i64 [ %265, %271 ], [ %278, %273 ]
  %275 = phi i8* [ %272, %271 ], [ %279, %273 ]
  %276 = trunc i64 %274 to i8
  %277 = or i8 %276, -128
  store i8 %277, i8* %275, align 1
  %278 = lshr i64 %274, 7
  %279 = getelementptr inbounds i8, i8* %275, i64 1
  %280 = icmp ugt i64 %274, 16383
  br i1 %280, label %273, label %281, !prof !4

281:                                              ; preds = %273
  %282 = trunc i64 %278 to i8
  %283 = getelementptr inbounds i8, i8* %275, i64 2
  store i8 %282, i8* %279, align 1
  br label %284

284:                                              ; preds = %281, %267, %261, %244
  %285 = phi i8* [ %245, %244 ], [ %262, %261 ], [ %270, %267 ], [ %283, %281 ]
  %286 = trunc i32 %5 to i8
  %287 = icmp slt i8 %286, 0
  br i1 %287, label %288, label %324

288:                                              ; preds = %284
  %289 = getelementptr inbounds %"class.google::protobuf::io::EpsCopyOutputStream", %"class.google::protobuf::io::EpsCopyOutputStream"* %2, i64 0, i32 0
  %290 = load i8*, i8** %289, align 8
  %291 = icmp ugt i8* %290, %285
  br i1 %291, label %294, label %292, !prof !2

292:                                              ; preds = %288
  %293 = tail call i8* @_ZN6google8protobuf2io19EpsCopyOutputStream19EnsureSpaceFallbackEPh(%"class.google::protobuf::io::EpsCopyOutputStream"* %2, i8* %285) #14
  br label %294

294:                                              ; preds = %288, %292
  %295 = phi i8* [ %293, %292 ], [ %285, %288 ]
  %296 = getelementptr inbounds %"class.perfetto::protos::ProfilePacket_HeapSample", %"class.perfetto::protos::ProfilePacket_HeapSample"* %0, i64 0, i32 10
  %297 = load i64, i64* %296, align 8
  store i8 72, i8* %295, align 1
  %298 = getelementptr inbounds i8, i8* %295, i64 1
  %299 = icmp ult i64 %297, 128
  %300 = trunc i64 %297 to i8
  br i1 %299, label %301, label %303

301:                                              ; preds = %294
  store i8 %300, i8* %298, align 1
  %302 = getelementptr inbounds i8, i8* %295, i64 2
  br label %324

303:                                              ; preds = %294
  %304 = or i8 %300, -128
  store i8 %304, i8* %298, align 1
  %305 = lshr i64 %297, 7
  %306 = icmp ult i64 %297, 16384
  br i1 %306, label %307, label %311

307:                                              ; preds = %303
  %308 = trunc i64 %305 to i8
  %309 = getelementptr inbounds i8, i8* %295, i64 2
  store i8 %308, i8* %309, align 1
  %310 = getelementptr inbounds i8, i8* %295, i64 3
  br label %324

311:                                              ; preds = %303
  %312 = getelementptr inbounds i8, i8* %295, i64 2
  br label %313

313:                                              ; preds = %313, %311
  %314 = phi i64 [ %305, %311 ], [ %318, %313 ]
  %315 = phi i8* [ %312, %311 ], [ %319, %313 ]
  %316 = trunc i64 %314 to i8
  %317 = or i8 %316, -128
  store i8 %317, i8* %315, align 1
  %318 = lshr i64 %314, 7
  %319 = getelementptr inbounds i8, i8* %315, i64 1
  %320 = icmp ugt i64 %314, 16383
  br i1 %320, label %313, label %321, !prof !4

321:                                              ; preds = %313
  %322 = trunc i64 %318 to i8
  %323 = getelementptr inbounds i8, i8* %315, i64 2
  store i8 %322, i8* %319, align 1
  br label %324

324:                                              ; preds = %321, %307, %301, %284
  %325 = phi i8* [ %285, %284 ], [ %302, %301 ], [ %310, %307 ], [ %323, %321 ]
  %326 = getelementptr inbounds %"class.perfetto::protos::ProfilePacket_HeapSample", %"class.perfetto::protos::ProfilePacket_HeapSample"* %0, i64 0, i32 0, i32 1
  %327 = bitcast %"class.google::protobuf::internal::InternalMetadata"* %326 to i64*
  %328 = load i64, i64* %327, align 8
  %329 = and i64 %328, 1
  %330 = icmp eq i64 %329, 0
  br i1 %330, label %362, label %331, !prof !2

331:                                              ; preds = %324
  %332 = and i64 %328, -2
  %333 = inttoptr i64 %332 to %"struct.google::protobuf::internal::InternalMetadata::Container"*
  %334 = getelementptr inbounds %"struct.google::protobuf::internal::InternalMetadata::Container", %"struct.google::protobuf::internal::InternalMetadata::Container"* %333, i64 0, i32 1
  %335 = bitcast %"class.std::__1::basic_string"* %334 to %"struct.std::__1::basic_string<char, std::__1::char_traits<char>, std::__1::allocator<char> >::__short"*
  %336 = getelementptr inbounds %"struct.std::__1::basic_string<char, std::__1::char_traits<char>, std::__1::allocator<char> >::__short", %"struct.std::__1::basic_string<char, std::__1::char_traits<char>, std::__1::allocator<char> >::__short"* %335, i64 0, i32 1, i32 0
  %337 = load i8, i8* %336, align 1
  %338 = icmp slt i8 %337, 0
  br i1 %338, label %339, label %344

339:                                              ; preds = %331
  %340 = getelementptr inbounds %"class.std::__1::basic_string", %"class.std::__1::basic_string"* %334, i64 0, i32 0, i32 0, i32 0, i32 0, i32 0, i32 0
  %341 = load i8*, i8** %340, align 8
  %342 = getelementptr inbounds %"struct.google::protobuf::internal::InternalMetadata::Container", %"struct.google::protobuf::internal::InternalMetadata::Container"* %333, i64 0, i32 1, i32 0, i32 0, i32 0, i32 0, i32 0, i32 1
  %343 = load i64, i64* %342, align 8
  br label %347

344:                                              ; preds = %331
  %345 = bitcast %"class.std::__1::basic_string"* %334 to i8*
  %346 = zext i8 %337 to i64
  br label %347

347:                                              ; preds = %339, %344
  %348 = phi i8* [ %341, %339 ], [ %345, %344 ]
  %349 = phi i64 [ %343, %339 ], [ %346, %344 ]
  %350 = bitcast %"class.google::protobuf::io::EpsCopyOutputStream"* %2 to i64*
  %351 = load i64, i64* %350, align 8
  %352 = ptrtoint i8* %325 to i64
  %353 = sub i64 %351, %352
  %354 = shl i64 %349, 32
  %355 = ashr exact i64 %354, 32
  %356 = icmp slt i64 %353, %355
  br i1 %356, label %357, label %360, !prof !4

357:                                              ; preds = %347
  %358 = trunc i64 %349 to i32
  %359 = tail call i8* @_ZN6google8protobuf2io19EpsCopyOutputStream16WriteRawFallbackEPKviPh(%"class.google::protobuf::io::EpsCopyOutputStream"* %2, i8* %348, i32 %358, i8* %325) #14
  br label %362

360:                                              ; preds = %347
  tail call void @llvm.memcpy.p0i8.p0i8.i64(i8* align 1 %325, i8* align 1 %348, i64 %355, i1 false) #14
  %361 = getelementptr inbounds i8, i8* %325, i64 %355
  br label %362

362:                                              ; preds = %324, %360, %357
  %363 = phi i8* [ %325, %324 ], [ %359, %357 ], [ %361, %360 ]
  ret i8* %363
}

; Function Attrs: nounwind ssp uwtable
define hidden i64 @_ZNK8perfetto6protos24ProfilePacket_HeapSample12ByteSizeLongEv(%"class.perfetto::protos::ProfilePacket_HeapSample"* nocapture) unnamed_addr #0 align 2 {
  %2 = getelementptr inbounds %"class.perfetto::protos::ProfilePacket_HeapSample", %"class.perfetto::protos::ProfilePacket_HeapSample"* %0, i64 0, i32 1, i32 0, i64 0
  %3 = load i32, i32* %2, align 4
  %4 = and i32 %3, 255
  %5 = icmp eq i32 %4, 0
  br i1 %5, label %124, label %6

6:                                                ; preds = %1
  %7 = and i32 %3, 1
  %8 = icmp eq i32 %7, 0
  br i1 %8, label %19, label %9

9:                                                ; preds = %6
  %10 = getelementptr inbounds %"class.perfetto::protos::ProfilePacket_HeapSample", %"class.perfetto::protos::ProfilePacket_HeapSample"* %0, i64 0, i32 3
  %11 = load i64, i64* %10, align 8
  %12 = or i64 %11, 1
  %13 = tail call i64 @llvm.ctlz.i64(i64 %12, i1 true) #14, !range !5
  %14 = xor i64 %13, 63
  %15 = mul nuw nsw i64 %14, 9
  %16 = add nuw nsw i64 %15, 73
  %17 = lshr i64 %16, 6
  %18 = add nuw nsw i64 %17, 1
  br label %19

19:                                               ; preds = %6, %9
  %20 = phi i64 [ %18, %9 ], [ 0, %6 ]
  %21 = and i32 %3, 2
  %22 = icmp eq i32 %21, 0
  br i1 %22, label %34, label %23

23:                                               ; preds = %19
  %24 = getelementptr inbounds %"class.perfetto::protos::ProfilePacket_HeapSample", %"class.perfetto::protos::ProfilePacket_HeapSample"* %0, i64 0, i32 4
  %25 = load i64, i64* %24, align 8
  %26 = or i64 %25, 1
  %27 = tail call i64 @llvm.ctlz.i64(i64 %26, i1 true) #14, !range !5
  %28 = xor i64 %27, 63
  %29 = mul nuw nsw i64 %28, 9
  %30 = add nuw nsw i64 %29, 73
  %31 = lshr i64 %30, 6
  %32 = add nuw nsw i64 %20, 1
  %33 = add nuw nsw i64 %32, %31
  br label %34

34:                                               ; preds = %19, %23
  %35 = phi i64 [ %33, %23 ], [ %20, %19 ]
  %36 = and i32 %3, 4
  %37 = icmp eq i32 %36, 0
  br i1 %37, label %49, label %38

38:                                               ; preds = %34
  %39 = getelementptr inbounds %"class.perfetto::protos::ProfilePacket_HeapSample", %"class.perfetto::protos::ProfilePacket_HeapSample"* %0, i64 0, i32 5
  %40 = load i64, i64* %39, align 8
  %41 = or i64 %40, 1
  %42 = tail call i64 @llvm.ctlz.i64(i64 %41, i1 true) #14, !range !5
  %43 = xor i64 %42, 63
  %44 = mul nuw nsw i64 %43, 9
  %45 = add nuw nsw i64 %44, 73
  %46 = lshr i64 %45, 6
  %47 = add nuw nsw i64 %35, 1
  %48 = add nuw nsw i64 %47, %46
  br label %49

49:                                               ; preds = %34, %38
  %50 = phi i64 [ %48, %38 ], [ %35, %34 ]
  %51 = and i32 %3, 8
  %52 = icmp eq i32 %51, 0
  br i1 %52, label %64, label %53

53:                                               ; preds = %49
  %54 = getelementptr inbounds %"class.perfetto::protos::ProfilePacket_HeapSample", %"class.perfetto::protos::ProfilePacket_HeapSample"* %0, i64 0, i32 6
  %55 = load i64, i64* %54, align 8
  %56 = or i64 %55, 1
  %57 = tail call i64 @llvm.ctlz.i64(i64 %56, i1 true) #14, !range !5
  %58 = xor i64 %57, 63
  %59 = mul nuw nsw i64 %58, 9
  %60 = add nuw nsw i64 %59, 73
  %61 = lshr i64 %60, 6
  %62 = add nuw nsw i64 %50, 1
  %63 = add nuw nsw i64 %62, %61
  br label %64

64:                                               ; preds = %49, %53
  %65 = phi i64 [ %63, %53 ], [ %50, %49 ]
  %66 = and i32 %3, 16
  %67 = icmp eq i32 %66, 0
  br i1 %67, label %79, label %68

68:                                               ; preds = %64
  %69 = getelementptr inbounds %"class.perfetto::protos::ProfilePacket_HeapSample", %"class.perfetto::protos::ProfilePacket_HeapSample"* %0, i64 0, i32 7
  %70 = load i64, i64* %69, align 8
  %71 = or i64 %70, 1
  %72 = tail call i64 @llvm.ctlz.i64(i64 %71, i1 true) #14, !range !5
  %73 = xor i64 %72, 63
  %74 = mul nuw nsw i64 %73, 9
  %75 = add nuw nsw i64 %74, 73
  %76 = lshr i64 %75, 6
  %77 = add nuw nsw i64 %65, 1
  %78 = add nuw nsw i64 %77, %76
  br label %79

79:                                               ; preds = %64, %68
  %80 = phi i64 [ %78, %68 ], [ %65, %64 ]
  %81 = and i32 %3, 32
  %82 = icmp eq i32 %81, 0
  br i1 %82, label %94, label %83

83:                                               ; preds = %79
  %84 = getelementptr inbounds %"class.perfetto::protos::ProfilePacket_HeapSample", %"class.perfetto::protos::ProfilePacket_HeapSample"* %0, i64 0, i32 8
  %85 = load i64, i64* %84, align 8
  %86 = or i64 %85, 1
  %87 = tail call i64 @llvm.ctlz.i64(i64 %86, i1 true) #14, !range !5
  %88 = xor i64 %87, 63
  %89 = mul nuw nsw i64 %88, 9
  %90 = add nuw nsw i64 %89, 73
  %91 = lshr i64 %90, 6
  %92 = add nuw nsw i64 %80, 1
  %93 = add nuw nsw i64 %92, %91
  br label %94

94:                                               ; preds = %79, %83
  %95 = phi i64 [ %93, %83 ], [ %80, %79 ]
  %96 = and i32 %3, 64
  %97 = icmp eq i32 %96, 0
  br i1 %97, label %109, label %98

98:                                               ; preds = %94
  %99 = getelementptr inbounds %"class.perfetto::protos::ProfilePacket_HeapSample", %"class.perfetto::protos::ProfilePacket_HeapSample"* %0, i64 0, i32 9
  %100 = load i64, i64* %99, align 8
  %101 = or i64 %100, 1
  %102 = tail call i64 @llvm.ctlz.i64(i64 %101, i1 true) #14, !range !5
  %103 = xor i64 %102, 63
  %104 = mul nuw nsw i64 %103, 9
  %105 = add nuw nsw i64 %104, 73
  %106 = lshr i64 %105, 6
  %107 = add nuw nsw i64 %95, 1
  %108 = add nuw nsw i64 %107, %106
  br label %109

109:                                              ; preds = %94, %98
  %110 = phi i64 [ %108, %98 ], [ %95, %94 ]
  %111 = trunc i32 %3 to i8
  %112 = icmp slt i8 %111, 0
  br i1 %112, label %113, label %124

113:                                              ; preds = %109
  %114 = getelementptr inbounds %"class.perfetto::protos::ProfilePacket_HeapSample", %"class.perfetto::protos::ProfilePacket_HeapSample"* %0, i64 0, i32 10
  %115 = load i64, i64* %114, align 8
  %116 = or i64 %115, 1
  %117 = tail call i64 @llvm.ctlz.i64(i64 %116, i1 true) #14, !range !5
  %118 = xor i64 %117, 63
  %119 = mul nuw nsw i64 %118, 9
  %120 = add nuw nsw i64 %119, 73
  %121 = lshr i64 %120, 6
  %122 = add nuw nsw i64 %110, 1
  %123 = add nuw nsw i64 %122, %121
  br label %124

124:                                              ; preds = %1, %109, %113
  %125 = phi i64 [ %123, %113 ], [ %110, %109 ], [ 0, %1 ]
  %126 = getelementptr inbounds %"class.perfetto::protos::ProfilePacket_HeapSample", %"class.perfetto::protos::ProfilePacket_HeapSample"* %0, i64 0, i32 0, i32 1
  %127 = bitcast %"class.google::protobuf::internal::InternalMetadata"* %126 to i64*
  %128 = load i64, i64* %127, align 8
  %129 = and i64 %128, 1
  %130 = icmp eq i64 %129, 0
  br i1 %130, label %147, label %131, !prof !2

131:                                              ; preds = %124
  %132 = and i64 %128, -2
  %133 = inttoptr i64 %132 to %"struct.google::protobuf::internal::InternalMetadata::Container"*
  %134 = getelementptr inbounds %"struct.google::protobuf::internal::InternalMetadata::Container", %"struct.google::protobuf::internal::InternalMetadata::Container"* %133, i64 0, i32 1
  %135 = bitcast %"class.std::__1::basic_string"* %134 to %"struct.std::__1::basic_string<char, std::__1::char_traits<char>, std::__1::allocator<char> >::__short"*
  %136 = getelementptr inbounds %"struct.std::__1::basic_string<char, std::__1::char_traits<char>, std::__1::allocator<char> >::__short", %"struct.std::__1::basic_string<char, std::__1::char_traits<char>, std::__1::allocator<char> >::__short"* %135, i64 0, i32 1, i32 0
  %137 = load i8, i8* %136, align 1
  %138 = icmp slt i8 %137, 0
  br i1 %138, label %139, label %142

139:                                              ; preds = %131
  %140 = getelementptr inbounds %"struct.google::protobuf::internal::InternalMetadata::Container", %"struct.google::protobuf::internal::InternalMetadata::Container"* %133, i64 0, i32 1, i32 0, i32 0, i32 0, i32 0, i32 0, i32 1
  %141 = load i64, i64* %140, align 8
  br label %144

142:                                              ; preds = %131
  %143 = zext i8 %137 to i64
  br label %144

144:                                              ; preds = %139, %142
  %145 = phi i64 [ %141, %139 ], [ %143, %142 ]
  %146 = add i64 %145, %125
  br label %147

147:                                              ; preds = %124, %144
  %148 = phi i64 [ %146, %144 ], [ %125, %124 ]
  %149 = trunc i64 %148 to i32
  %150 = getelementptr inbounds %"class.perfetto::protos::ProfilePacket_HeapSample", %"class.perfetto::protos::ProfilePacket_HeapSample"* %0, i64 0, i32 2, i32 0, i32 0, i32 0, i32 0, i32 0, i32 0
  store atomic i32 %149, i32* %150 monotonic, align 4
  ret i64 %148
}

; Function Attrs: nounwind ssp uwtable
define hidden void @_ZN8perfetto6protos24ProfilePacket_HeapSample21CheckTypeAndMergeFromERKN6google8protobuf11MessageLiteE(%"class.perfetto::protos::ProfilePacket_HeapSample"*, %"class.google::protobuf::MessageLite"* nocapture readonly dereferenceable(16)) unnamed_addr #0 align 2 {
  %3 = bitcast %"class.google::protobuf::MessageLite"* %1 to %"class.perfetto::protos::ProfilePacket_HeapSample"*
  tail call void @_ZN8perfetto6protos24ProfilePacket_HeapSample9MergeFromERKS1_(%"class.perfetto::protos::ProfilePacket_HeapSample"* %0, %"class.perfetto::protos::ProfilePacket_HeapSample"* dereferenceable(88) %3)
  ret void
}

; Function Attrs: nounwind ssp uwtable
define hidden void @_ZN8perfetto6protos24ProfilePacket_HeapSample9MergeFromERKS1_(%"class.perfetto::protos::ProfilePacket_HeapSample"*, %"class.perfetto::protos::ProfilePacket_HeapSample"* nocapture readonly dereferenceable(88)) local_unnamed_addr #0 align 2 {
  %3 = getelementptr inbounds %"class.perfetto::protos::ProfilePacket_HeapSample", %"class.perfetto::protos::ProfilePacket_HeapSample"* %0, i64 0, i32 0, i32 1
  %4 = getelementptr inbounds %"class.perfetto::protos::ProfilePacket_HeapSample", %"class.perfetto::protos::ProfilePacket_HeapSample"* %1, i64 0, i32 0, i32 1
  %5 = bitcast %"class.google::protobuf::internal::InternalMetadata"* %4 to i64*
  %6 = load i64, i64* %5, align 8
  %7 = and i64 %6, 1
  %8 = icmp eq i64 %7, 0
  br i1 %8, label %38, label %9

9:                                                ; preds = %2
  %10 = and i64 %6, -2
  %11 = inttoptr i64 %10 to %"struct.google::protobuf::internal::InternalMetadata::Container"*
  %12 = getelementptr inbounds %"struct.google::protobuf::internal::InternalMetadata::Container", %"struct.google::protobuf::internal::InternalMetadata::Container"* %11, i64 0, i32 1
  %13 = bitcast %"class.google::protobuf::internal::InternalMetadata"* %3 to i64*
  %14 = load i64, i64* %13, align 8
  %15 = and i64 %14, 1
  %16 = icmp eq i64 %15, 0
  br i1 %16, label %21, label %17, !prof !4

17:                                               ; preds = %9
  %18 = and i64 %14, -2
  %19 = inttoptr i64 %18 to %"struct.google::protobuf::internal::InternalMetadata::Container"*
  %20 = getelementptr inbounds %"struct.google::protobuf::internal::InternalMetadata::Container", %"struct.google::protobuf::internal::InternalMetadata::Container"* %19, i64 0, i32 1
  br label %23

21:                                               ; preds = %9
  %22 = tail call %"class.std::__1::basic_string"* @_ZN6google8protobuf8internal16InternalMetadata27mutable_unknown_fields_slowINSt3__112basic_stringIcNS4_11char_traitsIcEENS4_9allocatorIcEEEEEEPT_v(%"class.google::protobuf::internal::InternalMetadata"* %3) #14
  br label %23

23:                                               ; preds = %21, %17
  %24 = phi %"class.std::__1::basic_string"* [ %20, %17 ], [ %22, %21 ]
  %25 = bitcast %"class.std::__1::basic_string"* %12 to %"struct.std::__1::basic_string<char, std::__1::char_traits<char>, std::__1::allocator<char> >::__short"*
  %26 = getelementptr inbounds %"struct.std::__1::basic_string<char, std::__1::char_traits<char>, std::__1::allocator<char> >::__short", %"struct.std::__1::basic_string<char, std::__1::char_traits<char>, std::__1::allocator<char> >::__short"* %25, i64 0, i32 1, i32 0
  %27 = load i8, i8* %26, align 1
  %28 = icmp slt i8 %27, 0
  %29 = getelementptr inbounds %"class.std::__1::basic_string", %"class.std::__1::basic_string"* %12, i64 0, i32 0, i32 0, i32 0, i32 0, i32 0, i32 0
  %30 = load i8*, i8** %29, align 8
  %31 = getelementptr inbounds %"struct.google::protobuf::internal::InternalMetadata::Container", %"struct.google::protobuf::internal::InternalMetadata::Container"* %11, i64 0, i32 1, i32 0, i32 0, i32 0, i32 0, i32 0, i32 1
  %32 = load i64, i64* %31, align 8
  %33 = bitcast %"class.std::__1::basic_string"* %12 to i8*
  %34 = zext i8 %27 to i64
  %35 = select i1 %28, i8* %30, i8* %33
  %36 = select i1 %28, i64 %32, i64 %34
  %37 = tail call dereferenceable(24) %"class.std::__1::basic_string"* @_ZNSt3__112basic_stringIcNS_11char_traitsIcEENS_9allocatorIcEEE6appendEPKcm(%"class.std::__1::basic_string"* %24, i8* %35, i64 %36) #14
  br label %38

38:                                               ; preds = %2, %23
  %39 = getelementptr inbounds %"class.perfetto::protos::ProfilePacket_HeapSample", %"class.perfetto::protos::ProfilePacket_HeapSample"* %1, i64 0, i32 1, i32 0, i64 0
  %40 = load i32, i32* %39, align 4
  %41 = and i32 %40, 255
  %42 = icmp eq i32 %41, 0
  br i1 %42, label %103, label %43

43:                                               ; preds = %38
  %44 = and i32 %40, 1
  %45 = icmp eq i32 %44, 0
  br i1 %45, label %50, label %46

46:                                               ; preds = %43
  %47 = getelementptr inbounds %"class.perfetto::protos::ProfilePacket_HeapSample", %"class.perfetto::protos::ProfilePacket_HeapSample"* %1, i64 0, i32 3
  %48 = load i64, i64* %47, align 8
  %49 = getelementptr inbounds %"class.perfetto::protos::ProfilePacket_HeapSample", %"class.perfetto::protos::ProfilePacket_HeapSample"* %0, i64 0, i32 3
  store i64 %48, i64* %49, align 8
  br label %50

50:                                               ; preds = %43, %46
  %51 = and i32 %40, 2
  %52 = icmp eq i32 %51, 0
  br i1 %52, label %57, label %53

53:                                               ; preds = %50
  %54 = getelementptr inbounds %"class.perfetto::protos::ProfilePacket_HeapSample", %"class.perfetto::protos::ProfilePacket_HeapSample"* %1, i64 0, i32 4
  %55 = load i64, i64* %54, align 8
  %56 = getelementptr inbounds %"class.perfetto::protos::ProfilePacket_HeapSample", %"class.perfetto::protos::ProfilePacket_HeapSample"* %0, i64 0, i32 4
  store i64 %55, i64* %56, align 8
  br label %57

57:                                               ; preds = %50, %53
  %58 = and i32 %40, 4
  %59 = icmp eq i32 %58, 0
  br i1 %59, label %64, label %60

60:                                               ; preds = %57
  %61 = getelementptr inbounds %"class.perfetto::protos::ProfilePacket_HeapSample", %"class.perfetto::protos::ProfilePacket_HeapSample"* %1, i64 0, i32 5
  %62 = load i64, i64* %61, align 8
  %63 = getelementptr inbounds %"class.perfetto::protos::ProfilePacket_HeapSample", %"class.perfetto::protos::ProfilePacket_HeapSample"* %0, i64 0, i32 5
  store i64 %62, i64* %63, align 8
  br label %64

64:                                               ; preds = %57, %60
  %65 = and i32 %40, 8
  %66 = icmp eq i32 %65, 0
  br i1 %66, label %71, label %67

67:                                               ; preds = %64
  %68 = getelementptr inbounds %"class.perfetto::protos::ProfilePacket_HeapSample", %"class.perfetto::protos::ProfilePacket_HeapSample"* %1, i64 0, i32 6
  %69 = load i64, i64* %68, align 8
  %70 = getelementptr inbounds %"class.perfetto::protos::ProfilePacket_HeapSample", %"class.perfetto::protos::ProfilePacket_HeapSample"* %0, i64 0, i32 6
  store i64 %69, i64* %70, align 8
  br label %71

71:                                               ; preds = %64, %67
  %72 = and i32 %40, 16
  %73 = icmp eq i32 %72, 0
  br i1 %73, label %78, label %74

74:                                               ; preds = %71
  %75 = getelementptr inbounds %"class.perfetto::protos::ProfilePacket_HeapSample", %"class.perfetto::protos::ProfilePacket_HeapSample"* %1, i64 0, i32 7
  %76 = load i64, i64* %75, align 8
  %77 = getelementptr inbounds %"class.perfetto::protos::ProfilePacket_HeapSample", %"class.perfetto::protos::ProfilePacket_HeapSample"* %0, i64 0, i32 7
  store i64 %76, i64* %77, align 8
  br label %78

78:                                               ; preds = %71, %74
  %79 = and i32 %40, 32
  %80 = icmp eq i32 %79, 0
  br i1 %80, label %85, label %81

81:                                               ; preds = %78
  %82 = getelementptr inbounds %"class.perfetto::protos::ProfilePacket_HeapSample", %"class.perfetto::protos::ProfilePacket_HeapSample"* %1, i64 0, i32 8
  %83 = load i64, i64* %82, align 8
  %84 = getelementptr inbounds %"class.perfetto::protos::ProfilePacket_HeapSample", %"class.perfetto::protos::ProfilePacket_HeapSample"* %0, i64 0, i32 8
  store i64 %83, i64* %84, align 8
  br label %85

85:                                               ; preds = %78, %81
  %86 = and i32 %40, 64
  %87 = icmp eq i32 %86, 0
  br i1 %87, label %92, label %88

88:                                               ; preds = %85
  %89 = getelementptr inbounds %"class.perfetto::protos::ProfilePacket_HeapSample", %"class.perfetto::protos::ProfilePacket_HeapSample"* %1, i64 0, i32 9
  %90 = load i64, i64* %89, align 8
  %91 = getelementptr inbounds %"class.perfetto::protos::ProfilePacket_HeapSample", %"class.perfetto::protos::ProfilePacket_HeapSample"* %0, i64 0, i32 9
  store i64 %90, i64* %91, align 8
  br label %92

92:                                               ; preds = %85, %88
  %93 = trunc i32 %40 to i8
  %94 = icmp slt i8 %93, 0
  br i1 %94, label %95, label %99

95:                                               ; preds = %92
  %96 = getelementptr inbounds %"class.perfetto::protos::ProfilePacket_HeapSample", %"class.perfetto::protos::ProfilePacket_HeapSample"* %1, i64 0, i32 10
  %97 = load i64, i64* %96, align 8
  %98 = getelementptr inbounds %"class.perfetto::protos::ProfilePacket_HeapSample", %"class.perfetto::protos::ProfilePacket_HeapSample"* %0, i64 0, i32 10
  store i64 %97, i64* %98, align 8
  br label %99

99:                                               ; preds = %95, %92
  %100 = getelementptr inbounds %"class.perfetto::protos::ProfilePacket_HeapSample", %"class.perfetto::protos::ProfilePacket_HeapSample"* %0, i64 0, i32 1, i32 0, i64 0
  %101 = load i32, i32* %100, align 4
  %102 = or i32 %101, %40
  store i32 %102, i32* %100, align 4
  br label %103

103:                                              ; preds = %38, %99
  ret void
}

; Function Attrs: nounwind ssp uwtable
define hidden void @_ZN8perfetto6protos24ProfilePacket_HeapSample8CopyFromERKS1_(%"class.perfetto::protos::ProfilePacket_HeapSample"*, %"class.perfetto::protos::ProfilePacket_HeapSample"* readonly dereferenceable(88)) local_unnamed_addr #0 align 2 {
  %3 = icmp eq %"class.perfetto::protos::ProfilePacket_HeapSample"* %1, %0
  br i1 %3, label %33, label %4

4:                                                ; preds = %2
  %5 = getelementptr inbounds %"class.perfetto::protos::ProfilePacket_HeapSample", %"class.perfetto::protos::ProfilePacket_HeapSample"* %0, i64 0, i32 1, i32 0, i64 0
  %6 = load i32, i32* %5, align 4
  %7 = and i32 %6, 255
  %8 = icmp eq i32 %7, 0
  br i1 %8, label %12, label %9

9:                                                ; preds = %4
  %10 = getelementptr inbounds %"class.perfetto::protos::ProfilePacket_HeapSample", %"class.perfetto::protos::ProfilePacket_HeapSample"* %0, i64 0, i32 3
  %11 = bitcast i64* %10 to i8*
  tail call void @llvm.memset.p0i8.i64(i8* align 8 %11, i8 0, i64 64, i1 false) #14
  br label %12

12:                                               ; preds = %9, %4
  store i32 0, i32* %5, align 4
  %13 = getelementptr inbounds %"class.perfetto::protos::ProfilePacket_HeapSample", %"class.perfetto::protos::ProfilePacket_HeapSample"* %0, i64 0, i32 0, i32 1
  %14 = bitcast %"class.google::protobuf::internal::InternalMetadata"* %13 to i64*
  %15 = load i64, i64* %14, align 8
  %16 = and i64 %15, 1
  %17 = icmp eq i64 %16, 0
  br i1 %17, label %32, label %18

18:                                               ; preds = %12
  %19 = and i64 %15, -2
  %20 = inttoptr i64 %19 to %"struct.google::protobuf::internal::InternalMetadata::Container"*
  %21 = getelementptr inbounds %"struct.google::protobuf::internal::InternalMetadata::Container", %"struct.google::protobuf::internal::InternalMetadata::Container"* %20, i64 0, i32 1
  %22 = bitcast %"class.std::__1::basic_string"* %21 to %"struct.std::__1::basic_string<char, std::__1::char_traits<char>, std::__1::allocator<char> >::__short"*
  %23 = getelementptr inbounds %"struct.std::__1::basic_string<char, std::__1::char_traits<char>, std::__1::allocator<char> >::__short", %"struct.std::__1::basic_string<char, std::__1::char_traits<char>, std::__1::allocator<char> >::__short"* %22, i64 0, i32 1, i32 0
  %24 = load i8, i8* %23, align 1
  %25 = icmp slt i8 %24, 0
  br i1 %25, label %26, label %30

26:                                               ; preds = %18
  %27 = getelementptr inbounds %"class.std::__1::basic_string", %"class.std::__1::basic_string"* %21, i64 0, i32 0, i32 0, i32 0, i32 0, i32 0, i32 0
  %28 = load i8*, i8** %27, align 8
  store i8 0, i8* %28, align 1
  %29 = getelementptr inbounds %"struct.google::protobuf::internal::InternalMetadata::Container", %"struct.google::protobuf::internal::InternalMetadata::Container"* %20, i64 0, i32 1, i32 0, i32 0, i32 0, i32 0, i32 0, i32 1
  store i64 0, i64* %29, align 8
  br label %32

30:                                               ; preds = %18
  %31 = bitcast %"class.std::__1::basic_string"* %21 to i8*
  store i8 0, i8* %31, align 2
  store i8 0, i8* %23, align 1
  br label %32

32:                                               ; preds = %12, %26, %30
  tail call void @_ZN8perfetto6protos24ProfilePacket_HeapSample9MergeFromERKS1_(%"class.perfetto::protos::ProfilePacket_HeapSample"* %0, %"class.perfetto::protos::ProfilePacket_HeapSample"* dereferenceable(88) %1)
  br label %33

33:                                               ; preds = %2, %32
  ret void
}

; Function Attrs: norecurse nounwind readnone ssp uwtable
define hidden zeroext i1 @_ZNK8perfetto6protos24ProfilePacket_HeapSample13IsInitializedEv(%"class.perfetto::protos::ProfilePacket_HeapSample"* nocapture readnone) unnamed_addr #1 align 2 {
  ret i1 true
}

; Function Attrs: nounwind ssp uwtable
define hidden void @_ZN8perfetto6protos24ProfilePacket_HeapSample12InternalSwapEPS1_(%"class.perfetto::protos::ProfilePacket_HeapSample"*, %"class.perfetto::protos::ProfilePacket_HeapSample"*) local_unnamed_addr #0 align 2 {
  %3 = getelementptr inbounds %"class.perfetto::protos::ProfilePacket_HeapSample", %"class.perfetto::protos::ProfilePacket_HeapSample"* %0, i64 0, i32 0, i32 1
  %4 = getelementptr inbounds %"class.perfetto::protos::ProfilePacket_HeapSample", %"class.perfetto::protos::ProfilePacket_HeapSample"* %1, i64 0, i32 0, i32 1
  %5 = bitcast %"class.google::protobuf::internal::InternalMetadata"* %3 to i64*
  %6 = load i64, i64* %5, align 8
  %7 = bitcast %"class.google::protobuf::internal::InternalMetadata"* %4 to i64*
  %8 = load i64, i64* %7, align 8
  %9 = or i64 %8, %6
  %10 = and i64 %9, 1
  %11 = icmp eq i64 %10, 0
  br i1 %11, label %43, label %12

12:                                               ; preds = %2
  %13 = and i64 %8, 1
  %14 = icmp eq i64 %13, 0
  br i1 %14, label %19, label %15, !prof !4

15:                                               ; preds = %12
  %16 = and i64 %8, -2
  %17 = inttoptr i64 %16 to %"struct.google::protobuf::internal::InternalMetadata::Container"*
  %18 = getelementptr inbounds %"struct.google::protobuf::internal::InternalMetadata::Container", %"struct.google::protobuf::internal::InternalMetadata::Container"* %17, i64 0, i32 1
  br label %22

19:                                               ; preds = %12
  %20 = tail call %"class.std::__1::basic_string"* @_ZN6google8protobuf8internal16InternalMetadata27mutable_unknown_fields_slowINSt3__112basic_stringIcNS4_11char_traitsIcEENS4_9allocatorIcEEEEEEPT_v(%"class.google::protobuf::internal::InternalMetadata"* %4) #14
  %21 = load i64, i64* %5, align 8
  br label %22

22:                                               ; preds = %19, %15
  %23 = phi i64 [ %6, %15 ], [ %21, %19 ]
  %24 = phi %"class.std::__1::basic_string"* [ %18, %15 ], [ %20, %19 ]
  %25 = and i64 %23, 1
  %26 = icmp eq i64 %25, 0
  br i1 %26, label %31, label %27, !prof !4

27:                                               ; preds = %22
  %28 = and i64 %23, -2
  %29 = inttoptr i64 %28 to %"struct.google::protobuf::internal::InternalMetadata::Container"*
  %30 = getelementptr inbounds %"struct.google::protobuf::internal::InternalMetadata::Container", %"struct.google::protobuf::internal::InternalMetadata::Container"* %29, i64 0, i32 1
  br label %33

31:                                               ; preds = %22
  %32 = tail call %"class.std::__1::basic_string"* @_ZN6google8protobuf8internal16InternalMetadata27mutable_unknown_fields_slowINSt3__112basic_stringIcNS4_11char_traitsIcEENS4_9allocatorIcEEEEEEPT_v(%"class.google::protobuf::internal::InternalMetadata"* %3) #14
  br label %33

33:                                               ; preds = %31, %27
  %34 = phi %"class.std::__1::basic_string"* [ %30, %27 ], [ %32, %31 ]
  %35 = bitcast %"class.std::__1::basic_string"* %34 to <2 x i64>*
  %36 = load <2 x i64>, <2 x i64>* %35, align 8
  %37 = getelementptr inbounds %"class.std::__1::basic_string", %"class.std::__1::basic_string"* %34, i64 0, i32 0, i32 0, i32 0, i32 0, i32 0, i32 2
  %38 = load i64, i64* %37, align 8
  %39 = bitcast %"class.std::__1::basic_string"* %34 to i8*
  %40 = bitcast %"class.std::__1::basic_string"* %24 to i8*
  tail call void @llvm.memcpy.p0i8.p0i8.i64(i8* align 8 %39, i8* align 8 %40, i64 24, i1 false) #14
  %41 = bitcast %"class.std::__1::basic_string"* %24 to <2 x i64>*
  store <2 x i64> %36, <2 x i64>* %41, align 8
  %42 = getelementptr inbounds %"class.std::__1::basic_string", %"class.std::__1::basic_string"* %24, i64 0, i32 0, i32 0, i32 0, i32 0, i32 0, i32 2
  store i64 %38, i64* %42, align 8
  br label %43

43:                                               ; preds = %2, %33
  %44 = getelementptr inbounds %"class.perfetto::protos::ProfilePacket_HeapSample", %"class.perfetto::protos::ProfilePacket_HeapSample"* %0, i64 0, i32 1, i32 0, i64 0
  %45 = getelementptr inbounds %"class.perfetto::protos::ProfilePacket_HeapSample", %"class.perfetto::protos::ProfilePacket_HeapSample"* %1, i64 0, i32 1, i32 0, i64 0
  %46 = load i32, i32* %44, align 4
  %47 = load i32, i32* %45, align 4
  store i32 %47, i32* %44, align 4
  store i32 %46, i32* %45, align 4
  %48 = getelementptr inbounds %"class.perfetto::protos::ProfilePacket_HeapSample", %"class.perfetto::protos::ProfilePacket_HeapSample"* %0, i64 0, i32 3
  %49 = bitcast i64* %48 to i8*
  %50 = getelementptr inbounds %"class.perfetto::protos::ProfilePacket_HeapSample", %"class.perfetto::protos::ProfilePacket_HeapSample"* %1, i64 0, i32 3
  %51 = bitcast i64* %50 to i8*
  %52 = bitcast i64* %48 to i128*
  %53 = load i128, i128* %52, align 1
  tail call void @llvm.memcpy.p0i8.p0i8.i64(i8* align 1 %49, i8* align 1 %51, i64 16, i1 false) #14
  %54 = bitcast i64* %50 to i128*
  store i128 %53, i128* %54, align 1
  %55 = getelementptr inbounds i64, i64* %48, i64 2
  %56 = bitcast i64* %55 to i8*
  %57 = getelementptr inbounds i64, i64* %50, i64 2
  %58 = bitcast i64* %57 to i8*
  %59 = bitcast i64* %55 to i128*
  %60 = load i128, i128* %59, align 1
  tail call void @llvm.memcpy.p0i8.p0i8.i64(i8* align 1 %56, i8* align 1 %58, i64 16, i1 false) #14
  %61 = bitcast i64* %57 to i128*
  store i128 %60, i128* %61, align 1
  %62 = getelementptr inbounds i64, i64* %48, i64 4
  %63 = bitcast i64* %62 to i8*
  %64 = getelementptr inbounds i64, i64* %50, i64 4
  %65 = bitcast i64* %64 to i8*
  %66 = bitcast i64* %62 to i128*
  %67 = load i128, i128* %66, align 1
  tail call void @llvm.memcpy.p0i8.p0i8.i64(i8* align 1 %63, i8* align 1 %65, i64 16, i1 false) #14
  %68 = bitcast i64* %64 to i128*
  store i128 %67, i128* %68, align 1
  %69 = getelementptr inbounds i64, i64* %48, i64 6
  %70 = bitcast i64* %69 to i8*
  %71 = getelementptr inbounds i64, i64* %50, i64 6
  %72 = bitcast i64* %71 to i8*
  %73 = bitcast i64* %69 to i128*
  %74 = load i128, i128* %73, align 1
  tail call void @llvm.memcpy.p0i8.p0i8.i64(i8* align 1 %70, i8* align 1 %72, i64 16, i1 false) #14
  %75 = bitcast i64* %71 to i128*
  store i128 %74, i128* %75, align 1
  ret void
}

; Function Attrs: nounwind ssp uwtable
define hidden void @_ZNK8perfetto6protos24ProfilePacket_HeapSample11GetTypeNameEv(%"class.std::__1::basic_string"* noalias sret, %"class.perfetto::protos::ProfilePacket_HeapSample"* nocapture readnone) unnamed_addr #0 align 2 {
  %3 = tail call i8* @_Znwm(i64 48) #15
  %4 = getelementptr inbounds %"class.std::__1::basic_string", %"class.std::__1::basic_string"* %0, i64 0, i32 0, i32 0, i32 0, i32 0, i32 0, i32 0
  store i8* %3, i8** %4, align 8
  %5 = getelementptr inbounds %"class.std::__1::basic_string", %"class.std::__1::basic_string"* %0, i64 0, i32 0, i32 0, i32 0, i32 0, i32 0, i32 1
  %6 = bitcast i64* %5 to <2 x i64>*
  store <2 x i64> <i64 40, i64 -9223372036854775760>, <2 x i64>* %6, align 8
  tail call void @llvm.memcpy.p0i8.p0i8.i64(i8* nonnull align 1 %3, i8* align 1 getelementptr inbounds ([41 x i8], [41 x i8]* @.str.10, i64 0, i64 0), i64 40, i1 false) #14
  %7 = getelementptr inbounds i8, i8* %3, i64 40
  store i8 0, i8* %7, align 1
  ret void
}

; Function Attrs: nounwind ssp uwtable
define hidden void @_ZN8perfetto6protos30ProfilePacket_Histogram_BucketC2EPN6google8protobuf5ArenaE(%"class.perfetto::protos::ProfilePacket_Histogram_Bucket"* nocapture, %"class.google::protobuf::Arena"*) unnamed_addr #0 align 2 {
  %3 = getelementptr inbounds %"class.perfetto::protos::ProfilePacket_Histogram_Bucket", %"class.perfetto::protos::ProfilePacket_Histogram_Bucket"* %0, i64 0, i32 0, i32 0
  %4 = getelementptr inbounds %"class.perfetto::protos::ProfilePacket_Histogram_Bucket", %"class.perfetto::protos::ProfilePacket_Histogram_Bucket"* %0, i64 0, i32 0, i32 1
  %5 = bitcast %"class.google::protobuf::internal::InternalMetadata"* %4 to %"class.google::protobuf::Arena"**
  store %"class.google::protobuf::Arena"* %1, %"class.google::protobuf::Arena"** %5, align 8
  store i32 (...)** bitcast (i8** getelementptr inbounds ({ [16 x i8*] }, { [16 x i8*] }* @_ZTVN8perfetto6protos30ProfilePacket_Histogram_BucketE, i64 0, inrange i32 0, i64 2) to i32 (...)**), i32 (...)*** %3, align 8
  %6 = getelementptr inbounds %"class.perfetto::protos::ProfilePacket_Histogram_Bucket", %"class.perfetto::protos::ProfilePacket_Histogram_Bucket"* %0, i64 0, i32 1, i32 0, i64 0
  %7 = bitcast i32* %6 to i8*
  call void @llvm.memset.p0i8.i64(i8* align 4 %7, i8 0, i64 25, i1 false)
  ret void
}

; Function Attrs: nounwind ssp uwtable
define hidden void @_ZN8perfetto6protos30ProfilePacket_Histogram_BucketC2ERKS1_(%"class.perfetto::protos::ProfilePacket_Histogram_Bucket"*, %"class.perfetto::protos::ProfilePacket_Histogram_Bucket"* nocapture readonly dereferenceable(48)) unnamed_addr #0 align 2 {
  %3 = getelementptr inbounds %"class.perfetto::protos::ProfilePacket_Histogram_Bucket", %"class.perfetto::protos::ProfilePacket_Histogram_Bucket"* %0, i64 0, i32 0, i32 0
  %4 = getelementptr inbounds %"class.perfetto::protos::ProfilePacket_Histogram_Bucket", %"class.perfetto::protos::ProfilePacket_Histogram_Bucket"* %0, i64 0, i32 0, i32 1, i32 0
  store i8* null, i8** %4, align 8
  store i32 (...)** bitcast (i8** getelementptr inbounds ({ [16 x i8*] }, { [16 x i8*] }* @_ZTVN8perfetto6protos30ProfilePacket_Histogram_BucketE, i64 0, inrange i32 0, i64 2) to i32 (...)**), i32 (...)*** %3, align 8
  %5 = getelementptr inbounds %"class.perfetto::protos::ProfilePacket_Histogram_Bucket", %"class.perfetto::protos::ProfilePacket_Histogram_Bucket"* %1, i64 0, i32 1, i32 0, i64 0
  %6 = getelementptr inbounds %"class.perfetto::protos::ProfilePacket_Histogram_Bucket", %"class.perfetto::protos::ProfilePacket_Histogram_Bucket"* %0, i64 0, i32 1, i32 0, i64 0
  %7 = load i32, i32* %5, align 8
  store i32 %7, i32* %6, align 8
  %8 = getelementptr inbounds %"class.perfetto::protos::ProfilePacket_Histogram_Bucket", %"class.perfetto::protos::ProfilePacket_Histogram_Bucket"* %0, i64 0, i32 2, i32 0, i32 0, i32 0, i32 0, i32 0, i32 0
  store i32 0, i32* %8, align 4
  %9 = getelementptr inbounds %"class.perfetto::protos::ProfilePacket_Histogram_Bucket", %"class.perfetto::protos::ProfilePacket_Histogram_Bucket"* %1, i64 0, i32 0, i32 1
  %10 = bitcast %"class.google::protobuf::internal::InternalMetadata"* %9 to i64*
  %11 = load i64, i64* %10, align 8
  %12 = and i64 %11, 1
  %13 = icmp eq i64 %12, 0
  br i1 %13, label %33, label %14

14:                                               ; preds = %2
  %15 = getelementptr inbounds %"class.perfetto::protos::ProfilePacket_Histogram_Bucket", %"class.perfetto::protos::ProfilePacket_Histogram_Bucket"* %0, i64 0, i32 0, i32 1
  %16 = and i64 %11, -2
  %17 = inttoptr i64 %16 to %"struct.google::protobuf::internal::InternalMetadata::Container"*
  %18 = getelementptr inbounds %"struct.google::protobuf::internal::InternalMetadata::Container", %"struct.google::protobuf::internal::InternalMetadata::Container"* %17, i64 0, i32 1
  %19 = tail call %"class.std::__1::basic_string"* @_ZN6google8protobuf8internal16InternalMetadata27mutable_unknown_fields_slowINSt3__112basic_stringIcNS4_11char_traitsIcEENS4_9allocatorIcEEEEEEPT_v(%"class.google::protobuf::internal::InternalMetadata"* %15) #14
  %20 = bitcast %"class.std::__1::basic_string"* %18 to %"struct.std::__1::basic_string<char, std::__1::char_traits<char>, std::__1::allocator<char> >::__short"*
  %21 = getelementptr inbounds %"struct.std::__1::basic_string<char, std::__1::char_traits<char>, std::__1::allocator<char> >::__short", %"struct.std::__1::basic_string<char, std::__1::char_traits<char>, std::__1::allocator<char> >::__short"* %20, i64 0, i32 1, i32 0
  %22 = load i8, i8* %21, align 1
  %23 = icmp slt i8 %22, 0
  %24 = getelementptr inbounds %"class.std::__1::basic_string", %"class.std::__1::basic_string"* %18, i64 0, i32 0, i32 0, i32 0, i32 0, i32 0, i32 0
  %25 = load i8*, i8** %24, align 8
  %26 = getelementptr inbounds %"struct.google::protobuf::internal::InternalMetadata::Container", %"struct.google::protobuf::internal::InternalMetadata::Container"* %17, i64 0, i32 1, i32 0, i32 0, i32 0, i32 0, i32 0, i32 1
  %27 = load i64, i64* %26, align 8
  %28 = bitcast %"class.std::__1::basic_string"* %18 to i8*
  %29 = zext i8 %22 to i64
  %30 = select i1 %23, i8* %25, i8* %28
  %31 = select i1 %23, i64 %27, i64 %29
  %32 = tail call dereferenceable(24) %"class.std::__1::basic_string"* @_ZNSt3__112basic_stringIcNS_11char_traitsIcEENS_9allocatorIcEEE6appendEPKcm(%"class.std::__1::basic_string"* %19, i8* %30, i64 %31) #14
  br label %33

33:                                               ; preds = %2, %14
  %34 = getelementptr inbounds %"class.perfetto::protos::ProfilePacket_Histogram_Bucket", %"class.perfetto::protos::ProfilePacket_Histogram_Bucket"* %0, i64 0, i32 3
  %35 = bitcast i64* %34 to i8*
  %36 = getelementptr inbounds %"class.perfetto::protos::ProfilePacket_Histogram_Bucket", %"class.perfetto::protos::ProfilePacket_Histogram_Bucket"* %1, i64 0, i32 3
  %37 = bitcast i64* %36 to i8*
  tail call void @llvm.memcpy.p0i8.p0i8.i64(i8* align 8 %35, i8* align 8 %37, i64 17, i1 false)
  ret void
}

; Function Attrs: nounwind ssp uwtable
define hidden void @_ZN8perfetto6protos30ProfilePacket_Histogram_BucketD2Ev(%"class.perfetto::protos::ProfilePacket_Histogram_Bucket"* nocapture) unnamed_addr #0 align 2 {
  %2 = getelementptr inbounds %"class.perfetto::protos::ProfilePacket_Histogram_Bucket", %"class.perfetto::protos::ProfilePacket_Histogram_Bucket"* %0, i64 0, i32 0, i32 0
  store i32 (...)** bitcast (i8** getelementptr inbounds ({ [16 x i8*] }, { [16 x i8*] }* @_ZTVN8perfetto6protos30ProfilePacket_Histogram_BucketE, i64 0, inrange i32 0, i64 2) to i32 (...)**), i32 (...)*** %2, align 8
  %3 = getelementptr inbounds %"class.perfetto::protos::ProfilePacket_Histogram_Bucket", %"class.perfetto::protos::ProfilePacket_Histogram_Bucket"* %0, i64 0, i32 0, i32 1
  %4 = bitcast %"class.google::protobuf::internal::InternalMetadata"* %3 to i64*
  %5 = load i64, i64* %4, align 8
  %6 = and i64 %5, 1
  %7 = icmp eq i64 %6, 0
  br i1 %7, label %28, label %8

8:                                                ; preds = %1
  %9 = and i64 %5, -2
  %10 = inttoptr i64 %9 to %"struct.google::protobuf::internal::InternalMetadata::ContainerBase"*
  %11 = getelementptr inbounds %"struct.google::protobuf::internal::InternalMetadata::ContainerBase", %"struct.google::protobuf::internal::InternalMetadata::ContainerBase"* %10, i64 0, i32 0
  %12 = load %"class.google::protobuf::Arena"*, %"class.google::protobuf::Arena"** %11, align 8
  %13 = icmp ne %"class.google::protobuf::Arena"* %12, null
  %14 = icmp eq i64 %9, 0
  %15 = or i1 %14, %13
  br i1 %15, label %28, label %16

16:                                               ; preds = %8
  %17 = inttoptr i64 %9 to %"struct.google::protobuf::internal::InternalMetadata::Container"*
  %18 = getelementptr inbounds %"struct.google::protobuf::internal::InternalMetadata::Container", %"struct.google::protobuf::internal::InternalMetadata::Container"* %17, i64 0, i32 1
  %19 = bitcast %"class.std::__1::basic_string"* %18 to %"struct.std::__1::basic_string<char, std::__1::char_traits<char>, std::__1::allocator<char> >::__short"*
  %20 = getelementptr inbounds %"struct.std::__1::basic_string<char, std::__1::char_traits<char>, std::__1::allocator<char> >::__short", %"struct.std::__1::basic_string<char, std::__1::char_traits<char>, std::__1::allocator<char> >::__short"* %19, i64 0, i32 1, i32 0
  %21 = load i8, i8* %20, align 1
  %22 = icmp slt i8 %21, 0
  br i1 %22, label %23, label %26

23:                                               ; preds = %16
  %24 = getelementptr inbounds %"class.std::__1::basic_string", %"class.std::__1::basic_string"* %18, i64 0, i32 0, i32 0, i32 0, i32 0, i32 0, i32 0
  %25 = load i8*, i8** %24, align 8
  tail call void @_ZdlPv(i8* %25) #15
  br label %26

26:                                               ; preds = %23, %16
  %27 = inttoptr i64 %9 to i8*
  tail call void @_ZdlPv(i8* %27) #15
  br label %28

28:                                               ; preds = %1, %8, %26
  ret void
}

; Function Attrs: nounwind ssp uwtable
define hidden void @_ZN8perfetto6protos30ProfilePacket_Histogram_BucketD0Ev(%"class.perfetto::protos::ProfilePacket_Histogram_Bucket"*) unnamed_addr #0 align 2 {
  %2 = getelementptr inbounds %"class.perfetto::protos::ProfilePacket_Histogram_Bucket", %"class.perfetto::protos::ProfilePacket_Histogram_Bucket"* %0, i64 0, i32 0, i32 0
  store i32 (...)** bitcast (i8** getelementptr inbounds ({ [16 x i8*] }, { [16 x i8*] }* @_ZTVN8perfetto6protos30ProfilePacket_Histogram_BucketE, i64 0, inrange i32 0, i64 2) to i32 (...)**), i32 (...)*** %2, align 8
  %3 = getelementptr inbounds %"class.perfetto::protos::ProfilePacket_Histogram_Bucket", %"class.perfetto::protos::ProfilePacket_Histogram_Bucket"* %0, i64 0, i32 0, i32 1
  %4 = bitcast %"class.google::protobuf::internal::InternalMetadata"* %3 to i64*
  %5 = load i64, i64* %4, align 8
  %6 = and i64 %5, 1
  %7 = icmp eq i64 %6, 0
  br i1 %7, label %28, label %8

8:                                                ; preds = %1
  %9 = and i64 %5, -2
  %10 = inttoptr i64 %9 to %"struct.google::protobuf::internal::InternalMetadata::ContainerBase"*
  %11 = getelementptr inbounds %"struct.google::protobuf::internal::InternalMetadata::ContainerBase", %"struct.google::protobuf::internal::InternalMetadata::ContainerBase"* %10, i64 0, i32 0
  %12 = load %"class.google::protobuf::Arena"*, %"class.google::protobuf::Arena"** %11, align 8
  %13 = icmp ne %"class.google::protobuf::Arena"* %12, null
  %14 = icmp eq i64 %9, 0
  %15 = or i1 %14, %13
  br i1 %15, label %28, label %16

16:                                               ; preds = %8
  %17 = inttoptr i64 %9 to %"struct.google::protobuf::internal::InternalMetadata::Container"*
  %18 = getelementptr inbounds %"struct.google::protobuf::internal::InternalMetadata::Container", %"struct.google::protobuf::internal::InternalMetadata::Container"* %17, i64 0, i32 1
  %19 = bitcast %"class.std::__1::basic_string"* %18 to %"struct.std::__1::basic_string<char, std::__1::char_traits<char>, std::__1::allocator<char> >::__short"*
  %20 = getelementptr inbounds %"struct.std::__1::basic_string<char, std::__1::char_traits<char>, std::__1::allocator<char> >::__short", %"struct.std::__1::basic_string<char, std::__1::char_traits<char>, std::__1::allocator<char> >::__short"* %19, i64 0, i32 1, i32 0
  %21 = load i8, i8* %20, align 1
  %22 = icmp slt i8 %21, 0
  br i1 %22, label %23, label %26

23:                                               ; preds = %16
  %24 = getelementptr inbounds %"class.std::__1::basic_string", %"class.std::__1::basic_string"* %18, i64 0, i32 0, i32 0, i32 0, i32 0, i32 0, i32 0
  %25 = load i8*, i8** %24, align 8
  tail call void @_ZdlPv(i8* %25) #15
  br label %26

26:                                               ; preds = %23, %16
  %27 = inttoptr i64 %9 to i8*
  tail call void @_ZdlPv(i8* %27) #15
  br label %28

28:                                               ; preds = %1, %8, %26
  %29 = bitcast %"class.perfetto::protos::ProfilePacket_Histogram_Bucket"* %0 to i8*
  tail call void @_ZdlPv(i8* %29) #15
  ret void
}

; Function Attrs: norecurse nounwind readnone ssp uwtable
define hidden void @_ZN8perfetto6protos30ProfilePacket_Histogram_Bucket9ArenaDtorEPv(i8* nocapture) local_unnamed_addr #1 align 2 {
  ret void
}

; Function Attrs: nofree norecurse nounwind ssp uwtable
define hidden void @_ZNK8perfetto6protos30ProfilePacket_Histogram_Bucket13SetCachedSizeEi(%"class.perfetto::protos::ProfilePacket_Histogram_Bucket"* nocapture, i32) local_unnamed_addr #6 align 2 {
  %3 = getelementptr inbounds %"class.perfetto::protos::ProfilePacket_Histogram_Bucket", %"class.perfetto::protos::ProfilePacket_Histogram_Bucket"* %0, i64 0, i32 2, i32 0, i32 0, i32 0, i32 0, i32 0, i32 0
  store atomic i32 %1, i32* %3 monotonic, align 4
  ret void
}

; Function Attrs: nounwind ssp uwtable
define hidden dereferenceable(48) %"class.perfetto::protos::ProfilePacket_Histogram_Bucket"* @_ZN8perfetto6protos30ProfilePacket_Histogram_Bucket16default_instanceEv() local_unnamed_addr #0 align 2 {
  %1 = load atomic i32, i32* getelementptr inbounds ({ { { { i32 } }, i32, i32, void ()* }, [0 x i8*] }, { { { { i32 } }, i32, i32, void ()* }, [0 x i8*] }* @scc_info_ProfilePacket_Histogram_Bucket_protos_2fperfetto_2ftrace_2fprofiling_2fprofile_5fpacket_2eproto, i64 0, i32 0, i32 0, i32 0, i32 0) acquire, align 8
  %2 = icmp eq i32 %1, 0
  br i1 %2, label %4, label %3, !prof !2

3:                                                ; preds = %0
  tail call void @_ZN6google8protobuf8internal11InitSCCImplEPNS1_11SCCInfoBaseE(%"struct.google::protobuf::internal::SCCInfoBase"* bitcast ({ { { { i32 } }, i32, i32, void ()* }, [0 x i8*] }* @scc_info_ProfilePacket_Histogram_Bucket_protos_2fperfetto_2ftrace_2fprofiling_2fprofile_5fpacket_2eproto to %"struct.google::protobuf::internal::SCCInfoBase"*)) #14
  br label %4

4:                                                ; preds = %0, %3
  ret %"class.perfetto::protos::ProfilePacket_Histogram_Bucket"* bitcast (%"class.perfetto::protos::ProfilePacket_Histogram_BucketDefaultTypeInternal"* @_ZN8perfetto6protos49_ProfilePacket_Histogram_Bucket_default_instance_E to %"class.perfetto::protos::ProfilePacket_Histogram_Bucket"*)
}

; Function Attrs: nounwind ssp uwtable
define hidden void @_ZN8perfetto6protos30ProfilePacket_Histogram_Bucket5ClearEv(%"class.perfetto::protos::ProfilePacket_Histogram_Bucket"* nocapture) unnamed_addr #0 align 2 {
  %2 = getelementptr inbounds %"class.perfetto::protos::ProfilePacket_Histogram_Bucket", %"class.perfetto::protos::ProfilePacket_Histogram_Bucket"* %0, i64 0, i32 1, i32 0, i64 0
  %3 = load i32, i32* %2, align 4
  %4 = and i32 %3, 7
  %5 = icmp eq i32 %4, 0
  br i1 %5, label %9, label %6

6:                                                ; preds = %1
  %7 = getelementptr inbounds %"class.perfetto::protos::ProfilePacket_Histogram_Bucket", %"class.perfetto::protos::ProfilePacket_Histogram_Bucket"* %0, i64 0, i32 3
  %8 = bitcast i64* %7 to i8*
  tail call void @llvm.memset.p0i8.i64(i8* align 8 %8, i8 0, i64 17, i1 false)
  br label %9

9:                                                ; preds = %1, %6
  store i32 0, i32* %2, align 4
  %10 = getelementptr inbounds %"class.perfetto::protos::ProfilePacket_Histogram_Bucket", %"class.perfetto::protos::ProfilePacket_Histogram_Bucket"* %0, i64 0, i32 0, i32 1
  %11 = bitcast %"class.google::protobuf::internal::InternalMetadata"* %10 to i64*
  %12 = load i64, i64* %11, align 8
  %13 = and i64 %12, 1
  %14 = icmp eq i64 %13, 0
  br i1 %14, label %29, label %15

15:                                               ; preds = %9
  %16 = and i64 %12, -2
  %17 = inttoptr i64 %16 to %"struct.google::protobuf::internal::InternalMetadata::Container"*
  %18 = getelementptr inbounds %"struct.google::protobuf::internal::InternalMetadata::Container", %"struct.google::protobuf::internal::InternalMetadata::Container"* %17, i64 0, i32 1
  %19 = bitcast %"class.std::__1::basic_string"* %18 to %"struct.std::__1::basic_string<char, std::__1::char_traits<char>, std::__1::allocator<char> >::__short"*
  %20 = getelementptr inbounds %"struct.std::__1::basic_string<char, std::__1::char_traits<char>, std::__1::allocator<char> >::__short", %"struct.std::__1::basic_string<char, std::__1::char_traits<char>, std::__1::allocator<char> >::__short"* %19, i64 0, i32 1, i32 0
  %21 = load i8, i8* %20, align 1
  %22 = icmp slt i8 %21, 0
  br i1 %22, label %23, label %27

23:                                               ; preds = %15
  %24 = getelementptr inbounds %"class.std::__1::basic_string", %"class.std::__1::basic_string"* %18, i64 0, i32 0, i32 0, i32 0, i32 0, i32 0, i32 0
  %25 = load i8*, i8** %24, align 8
  store i8 0, i8* %25, align 1
  %26 = getelementptr inbounds %"struct.google::protobuf::internal::InternalMetadata::Container", %"struct.google::protobuf::internal::InternalMetadata::Container"* %17, i64 0, i32 1, i32 0, i32 0, i32 0, i32 0, i32 0, i32 1
  store i64 0, i64* %26, align 8
  br label %29

27:                                               ; preds = %15
  %28 = bitcast %"class.std::__1::basic_string"* %18 to i8*
  store i8 0, i8* %28, align 2
  store i8 0, i8* %20, align 1
  br label %29

29:                                               ; preds = %9, %23, %27
  ret void
}

; Function Attrs: nounwind ssp uwtable
define hidden i8* @_ZN8perfetto6protos30ProfilePacket_Histogram_Bucket14_InternalParseEPKcPN6google8protobuf8internal12ParseContextE(%"class.perfetto::protos::ProfilePacket_Histogram_Bucket"*, i8*, %"class.google::protobuf::internal::ParseContext"*) unnamed_addr #0 align 2 {
  %4 = getelementptr inbounds %"class.google::protobuf::internal::ParseContext", %"class.google::protobuf::internal::ParseContext"* %2, i64 0, i32 0
  %5 = getelementptr inbounds %"class.google::protobuf::internal::ParseContext", %"class.google::protobuf::internal::ParseContext"* %2, i64 0, i32 2
  %6 = getelementptr inbounds %"class.google::protobuf::internal::ParseContext", %"class.google::protobuf::internal::ParseContext"* %2, i64 0, i32 0, i32 0
  %7 = getelementptr inbounds %"class.google::protobuf::internal::ParseContext", %"class.google::protobuf::internal::ParseContext"* %2, i64 0, i32 0, i32 1
  %8 = bitcast i8** %7 to i64*
  %9 = getelementptr inbounds %"class.google::protobuf::internal::ParseContext", %"class.google::protobuf::internal::ParseContext"* %2, i64 0, i32 0, i32 4
  %10 = getelementptr inbounds %"class.perfetto::protos::ProfilePacket_Histogram_Bucket", %"class.perfetto::protos::ProfilePacket_Histogram_Bucket"* %0, i64 0, i32 4
  %11 = getelementptr inbounds %"class.perfetto::protos::ProfilePacket_Histogram_Bucket", %"class.perfetto::protos::ProfilePacket_Histogram_Bucket"* %0, i64 0, i32 5
  %12 = getelementptr inbounds %"class.perfetto::protos::ProfilePacket_Histogram_Bucket", %"class.perfetto::protos::ProfilePacket_Histogram_Bucket"* %0, i64 0, i32 3
  %13 = getelementptr inbounds %"class.perfetto::protos::ProfilePacket_Histogram_Bucket", %"class.perfetto::protos::ProfilePacket_Histogram_Bucket"* %0, i64 0, i32 0, i32 1
  %14 = bitcast %"class.google::protobuf::internal::InternalMetadata"* %13 to i64*
  br label %15

15:                                               ; preds = %153, %3
  %16 = phi i8* [ %1, %3 ], [ %154, %153 ]
  %17 = phi i32 [ 0, %3 ], [ %155, %153 ]
  br label %18

18:                                               ; preds = %15, %174
  %19 = phi i8* [ %176, %174 ], [ %16, %15 ]
  %20 = load i32, i32* %5, align 4
  %21 = load i8*, i8** %6, align 8
  %22 = icmp ult i8* %19, %21
  br i1 %22, label %36, label %23, !prof !2

23:                                               ; preds = %18
  %24 = load i64, i64* %8, align 8
  %25 = ptrtoint i8* %19 to i64
  %26 = sub i64 %25, %24
  %27 = load i32, i32* %9, align 4
  %28 = sext i32 %27 to i64
  %29 = icmp eq i64 %26, %28
  br i1 %29, label %178, label %30

30:                                               ; preds = %23
  %31 = tail call { i8*, i8 } @_ZN6google8protobuf8internal18EpsCopyInputStream12DoneFallbackEPKci(%"class.google::protobuf::internal::EpsCopyInputStream"* %4, i8* %19, i32 %20) #14
  %32 = extractvalue { i8*, i8 } %31, 0
  %33 = extractvalue { i8*, i8 } %31, 1
  %34 = and i8 %33, 1
  %35 = icmp eq i8 %34, 0
  br i1 %35, label %36, label %178

36:                                               ; preds = %30, %18
  %37 = phi i8* [ %32, %30 ], [ %19, %18 ]
  %38 = load i8, i8* %37, align 1
  %39 = zext i8 %38 to i32
  %40 = icmp sgt i8 %38, -1
  %41 = getelementptr inbounds i8, i8* %37, i64 1
  br i1 %40, label %55, label %42

42:                                               ; preds = %36
  %43 = load i8, i8* %41, align 1
  %44 = zext i8 %43 to i32
  %45 = shl nuw nsw i32 %44, 7
  %46 = add nsw i32 %39, -128
  %47 = add nsw i32 %46, %45
  %48 = icmp sgt i8 %43, -1
  br i1 %48, label %49, label %51

49:                                               ; preds = %42
  %50 = getelementptr inbounds i8, i8* %37, i64 2
  br label %55

51:                                               ; preds = %42
  %52 = tail call { i8*, i32 } @_ZN6google8protobuf8internal15ReadTagFallbackEPKcj(i8* %37, i32 %47) #14
  %53 = extractvalue { i8*, i32 } %52, 0
  %54 = extractvalue { i8*, i32 } %52, 1
  br label %55

55:                                               ; preds = %36, %49, %51
  %56 = phi i32 [ %47, %49 ], [ %54, %51 ], [ %39, %36 ]
  %57 = phi i8* [ %50, %49 ], [ %53, %51 ], [ %41, %36 ]
  %58 = icmp eq i8* %57, null
  br i1 %58, label %178, label %59, !prof !4

59:                                               ; preds = %55
  %60 = lshr i32 %56, 3
  switch i32 %60, label %156 [
    i32 1, label %61
    i32 2, label %91
    i32 3, label %123
  ]

61:                                               ; preds = %59
  %62 = and i32 %56, 255
  %63 = icmp eq i32 %62, 8
  br i1 %63, label %64, label %156, !prof !2

64:                                               ; preds = %61
  %65 = or i32 %17, 1
  %66 = load i8, i8* %57, align 1
  %67 = icmp slt i8 %66, 0
  br i1 %67, label %71, label %68

68:                                               ; preds = %64
  %69 = zext i8 %66 to i64
  %70 = getelementptr inbounds i8, i8* %57, i64 1
  br label %87

71:                                               ; preds = %64
  %72 = zext i8 %66 to i32
  %73 = getelementptr inbounds i8, i8* %57, i64 1
  %74 = load i8, i8* %73, align 1
  %75 = zext i8 %74 to i32
  %76 = shl nuw nsw i32 %75, 7
  %77 = add nsw i32 %72, -128
  %78 = add nuw nsw i32 %77, %76
  %79 = icmp slt i8 %74, 0
  br i1 %79, label %83, label %80

80:                                               ; preds = %71
  %81 = zext i32 %78 to i64
  %82 = getelementptr inbounds i8, i8* %57, i64 2
  br label %87

83:                                               ; preds = %71
  %84 = tail call { i8*, i64 } @_ZN6google8protobuf8internal17VarintParseSlow64EPKcj(i8* nonnull %57, i32 %78) #14
  %85 = extractvalue { i8*, i64 } %84, 0
  %86 = extractvalue { i8*, i64 } %84, 1
  br label %87

87:                                               ; preds = %68, %80, %83
  %88 = phi i64 [ %86, %83 ], [ %81, %80 ], [ %69, %68 ]
  %89 = phi i8* [ %85, %83 ], [ %82, %80 ], [ %70, %68 ]
  store i64 %88, i64* %12, align 8
  %90 = icmp eq i8* %89, null
  br i1 %90, label %178, label %153

91:                                               ; preds = %59
  %92 = and i32 %56, 255
  %93 = icmp eq i32 %92, 16
  br i1 %93, label %94, label %156, !prof !2

94:                                               ; preds = %91
  %95 = or i32 %17, 4
  %96 = load i8, i8* %57, align 1
  %97 = icmp slt i8 %96, 0
  br i1 %97, label %101, label %98

98:                                               ; preds = %94
  %99 = zext i8 %96 to i64
  %100 = getelementptr inbounds i8, i8* %57, i64 1
  br label %117

101:                                              ; preds = %94
  %102 = zext i8 %96 to i32
  %103 = getelementptr inbounds i8, i8* %57, i64 1
  %104 = load i8, i8* %103, align 1
  %105 = zext i8 %104 to i32
  %106 = shl nuw nsw i32 %105, 7
  %107 = add nsw i32 %102, -128
  %108 = add nuw nsw i32 %107, %106
  %109 = icmp slt i8 %104, 0
  br i1 %109, label %113, label %110

110:                                              ; preds = %101
  %111 = zext i32 %108 to i64
  %112 = getelementptr inbounds i8, i8* %57, i64 2
  br label %117

113:                                              ; preds = %101
  %114 = tail call { i8*, i64 } @_ZN6google8protobuf8internal17VarintParseSlow64EPKcj(i8* nonnull %57, i32 %108) #14
  %115 = extractvalue { i8*, i64 } %114, 0
  %116 = extractvalue { i8*, i64 } %114, 1
  br label %117

117:                                              ; preds = %98, %110, %113
  %118 = phi i64 [ %116, %113 ], [ %111, %110 ], [ %99, %98 ]
  %119 = phi i8* [ %115, %113 ], [ %112, %110 ], [ %100, %98 ]
  %120 = icmp ne i64 %118, 0
  %121 = zext i1 %120 to i8
  store i8 %121, i8* %11, align 8
  %122 = icmp eq i8* %119, null
  br i1 %122, label %178, label %153

123:                                              ; preds = %59
  %124 = and i32 %56, 255
  %125 = icmp eq i32 %124, 24
  br i1 %125, label %126, label %156, !prof !2

126:                                              ; preds = %123
  %127 = or i32 %17, 2
  %128 = load i8, i8* %57, align 1
  %129 = icmp slt i8 %128, 0
  br i1 %129, label %133, label %130

130:                                              ; preds = %126
  %131 = zext i8 %128 to i64
  %132 = getelementptr inbounds i8, i8* %57, i64 1
  br label %149

133:                                              ; preds = %126
  %134 = zext i8 %128 to i32
  %135 = getelementptr inbounds i8, i8* %57, i64 1
  %136 = load i8, i8* %135, align 1
  %137 = zext i8 %136 to i32
  %138 = shl nuw nsw i32 %137, 7
  %139 = add nsw i32 %134, -128
  %140 = add nuw nsw i32 %139, %138
  %141 = icmp slt i8 %136, 0
  br i1 %141, label %145, label %142

142:                                              ; preds = %133
  %143 = zext i32 %140 to i64
  %144 = getelementptr inbounds i8, i8* %57, i64 2
  br label %149

145:                                              ; preds = %133
  %146 = tail call { i8*, i64 } @_ZN6google8protobuf8internal17VarintParseSlow64EPKcj(i8* nonnull %57, i32 %140) #14
  %147 = extractvalue { i8*, i64 } %146, 0
  %148 = extractvalue { i8*, i64 } %146, 1
  br label %149

149:                                              ; preds = %130, %142, %145
  %150 = phi i64 [ %148, %145 ], [ %143, %142 ], [ %131, %130 ]
  %151 = phi i8* [ %147, %145 ], [ %144, %142 ], [ %132, %130 ]
  store i64 %150, i64* %10, align 8
  %152 = icmp eq i8* %151, null
  br i1 %152, label %178, label %153

153:                                              ; preds = %149, %117, %87
  %154 = phi i8* [ %89, %87 ], [ %119, %117 ], [ %151, %149 ]
  %155 = phi i32 [ %65, %87 ], [ %95, %117 ], [ %127, %149 ]
  br label %15

156:                                              ; preds = %59, %123, %91, %61
  %157 = and i32 %56, 7
  %158 = icmp eq i32 %157, 4
  %159 = icmp eq i32 %56, 0
  %160 = or i1 %159, %158
  br i1 %160, label %161, label %164

161:                                              ; preds = %156
  %162 = add i32 %56, -1
  %163 = getelementptr inbounds %"class.google::protobuf::internal::ParseContext", %"class.google::protobuf::internal::ParseContext"* %2, i64 0, i32 0, i32 8
  store i32 %162, i32* %163, align 8
  br label %178

164:                                              ; preds = %156
  %165 = load i64, i64* %14, align 8
  %166 = and i64 %165, 1
  %167 = icmp eq i64 %166, 0
  br i1 %167, label %172, label %168, !prof !4

168:                                              ; preds = %164
  %169 = and i64 %165, -2
  %170 = inttoptr i64 %169 to %"struct.google::protobuf::internal::InternalMetadata::Container"*
  %171 = getelementptr inbounds %"struct.google::protobuf::internal::InternalMetadata::Container", %"struct.google::protobuf::internal::InternalMetadata::Container"* %170, i64 0, i32 1
  br label %174

172:                                              ; preds = %164
  %173 = tail call %"class.std::__1::basic_string"* @_ZN6google8protobuf8internal16InternalMetadata27mutable_unknown_fields_slowINSt3__112basic_stringIcNS4_11char_traitsIcEENS4_9allocatorIcEEEEEEPT_v(%"class.google::protobuf::internal::InternalMetadata"* %13) #14
  br label %174

174:                                              ; preds = %168, %172
  %175 = phi %"class.std::__1::basic_string"* [ %171, %168 ], [ %173, %172 ]
  %176 = tail call i8* @_ZN6google8protobuf8internal17UnknownFieldParseEjPNSt3__112basic_stringIcNS2_11char_traitsIcEENS2_9allocatorIcEEEEPKcPNS1_12ParseContextE(i32 %56, %"class.std::__1::basic_string"* %175, i8* nonnull %57, %"class.google::protobuf::internal::ParseContext"* %2) #14
  %177 = icmp eq i8* %176, null
  br i1 %177, label %178, label %18

178:                                              ; preds = %30, %174, %23, %55, %149, %117, %87, %161
  %179 = phi i8* [ %57, %161 ], [ %32, %30 ], [ null, %55 ], [ %19, %23 ], [ null, %174 ], [ null, %149 ], [ null, %117 ], [ null, %87 ]
  %180 = phi i32 [ %17, %161 ], [ %17, %30 ], [ %17, %174 ], [ %17, %23 ], [ %17, %55 ], [ %65, %87 ], [ %95, %117 ], [ %127, %149 ]
  %181 = getelementptr inbounds %"class.perfetto::protos::ProfilePacket_Histogram_Bucket", %"class.perfetto::protos::ProfilePacket_Histogram_Bucket"* %0, i64 0, i32 1, i32 0, i64 0
  %182 = load i32, i32* %181, align 4
  %183 = or i32 %182, %180
  store i32 %183, i32* %181, align 4
  ret i8* %179
}

; Function Attrs: nounwind ssp uwtable
define hidden i8* @_ZNK8perfetto6protos30ProfilePacket_Histogram_Bucket18_InternalSerializeEPhPN6google8protobuf2io19EpsCopyOutputStreamE(%"class.perfetto::protos::ProfilePacket_Histogram_Bucket"* nocapture readonly, i8*, %"class.google::protobuf::io::EpsCopyOutputStream"*) unnamed_addr #0 align 2 {
  %4 = getelementptr inbounds %"class.perfetto::protos::ProfilePacket_Histogram_Bucket", %"class.perfetto::protos::ProfilePacket_Histogram_Bucket"* %0, i64 0, i32 1, i32 0, i64 0
  %5 = load i32, i32* %4, align 4
  %6 = and i32 %5, 1
  %7 = icmp eq i32 %6, 0
  br i1 %7, label %44, label %8

8:                                                ; preds = %3
  %9 = getelementptr inbounds %"class.google::protobuf::io::EpsCopyOutputStream", %"class.google::protobuf::io::EpsCopyOutputStream"* %2, i64 0, i32 0
  %10 = load i8*, i8** %9, align 8
  %11 = icmp ugt i8* %10, %1
  br i1 %11, label %14, label %12, !prof !2

12:                                               ; preds = %8
  %13 = tail call i8* @_ZN6google8protobuf2io19EpsCopyOutputStream19EnsureSpaceFallbackEPh(%"class.google::protobuf::io::EpsCopyOutputStream"* %2, i8* %1) #14
  br label %14

14:                                               ; preds = %8, %12
  %15 = phi i8* [ %13, %12 ], [ %1, %8 ]
  %16 = getelementptr inbounds %"class.perfetto::protos::ProfilePacket_Histogram_Bucket", %"class.perfetto::protos::ProfilePacket_Histogram_Bucket"* %0, i64 0, i32 3
  %17 = load i64, i64* %16, align 8
  store i8 8, i8* %15, align 1
  %18 = getelementptr inbounds i8, i8* %15, i64 1
  %19 = icmp ult i64 %17, 128
  %20 = trunc i64 %17 to i8
  br i1 %19, label %21, label %23

21:                                               ; preds = %14
  store i8 %20, i8* %18, align 1
  %22 = getelementptr inbounds i8, i8* %15, i64 2
  br label %44

23:                                               ; preds = %14
  %24 = or i8 %20, -128
  store i8 %24, i8* %18, align 1
  %25 = lshr i64 %17, 7
  %26 = icmp ult i64 %17, 16384
  br i1 %26, label %27, label %31

27:                                               ; preds = %23
  %28 = trunc i64 %25 to i8
  %29 = getelementptr inbounds i8, i8* %15, i64 2
  store i8 %28, i8* %29, align 1
  %30 = getelementptr inbounds i8, i8* %15, i64 3
  br label %44

31:                                               ; preds = %23
  %32 = getelementptr inbounds i8, i8* %15, i64 2
  br label %33

33:                                               ; preds = %33, %31
  %34 = phi i64 [ %25, %31 ], [ %38, %33 ]
  %35 = phi i8* [ %32, %31 ], [ %39, %33 ]
  %36 = trunc i64 %34 to i8
  %37 = or i8 %36, -128
  store i8 %37, i8* %35, align 1
  %38 = lshr i64 %34, 7
  %39 = getelementptr inbounds i8, i8* %35, i64 1
  %40 = icmp ugt i64 %34, 16383
  br i1 %40, label %33, label %41, !prof !4

41:                                               ; preds = %33
  %42 = trunc i64 %38 to i8
  %43 = getelementptr inbounds i8, i8* %35, i64 2
  store i8 %42, i8* %39, align 1
  br label %44

44:                                               ; preds = %41, %27, %21, %3
  %45 = phi i8* [ %1, %3 ], [ %22, %21 ], [ %30, %27 ], [ %43, %41 ]
  %46 = and i32 %5, 4
  %47 = icmp eq i32 %46, 0
  br i1 %47, label %60, label %48

48:                                               ; preds = %44
  %49 = getelementptr inbounds %"class.google::protobuf::io::EpsCopyOutputStream", %"class.google::protobuf::io::EpsCopyOutputStream"* %2, i64 0, i32 0
  %50 = load i8*, i8** %49, align 8
  %51 = icmp ugt i8* %50, %45
  br i1 %51, label %54, label %52, !prof !2

52:                                               ; preds = %48
  %53 = tail call i8* @_ZN6google8protobuf2io19EpsCopyOutputStream19EnsureSpaceFallbackEPh(%"class.google::protobuf::io::EpsCopyOutputStream"* %2, i8* %45) #14
  br label %54

54:                                               ; preds = %48, %52
  %55 = phi i8* [ %53, %52 ], [ %45, %48 ]
  %56 = getelementptr inbounds %"class.perfetto::protos::ProfilePacket_Histogram_Bucket", %"class.perfetto::protos::ProfilePacket_Histogram_Bucket"* %0, i64 0, i32 5
  %57 = load i8, i8* %56, align 8, !range !6
  store i8 16, i8* %55, align 1
  %58 = getelementptr inbounds i8, i8* %55, i64 1
  store i8 %57, i8* %58, align 1
  %59 = getelementptr inbounds i8, i8* %55, i64 2
  br label %60

60:                                               ; preds = %44, %54
  %61 = phi i8* [ %59, %54 ], [ %45, %44 ]
  %62 = and i32 %5, 2
  %63 = icmp eq i32 %62, 0
  br i1 %63, label %100, label %64

64:                                               ; preds = %60
  %65 = getelementptr inbounds %"class.google::protobuf::io::EpsCopyOutputStream", %"class.google::protobuf::io::EpsCopyOutputStream"* %2, i64 0, i32 0
  %66 = load i8*, i8** %65, align 8
  %67 = icmp ugt i8* %66, %61
  br i1 %67, label %70, label %68, !prof !2

68:                                               ; preds = %64
  %69 = tail call i8* @_ZN6google8protobuf2io19EpsCopyOutputStream19EnsureSpaceFallbackEPh(%"class.google::protobuf::io::EpsCopyOutputStream"* %2, i8* %61) #14
  br label %70

70:                                               ; preds = %64, %68
  %71 = phi i8* [ %69, %68 ], [ %61, %64 ]
  %72 = getelementptr inbounds %"class.perfetto::protos::ProfilePacket_Histogram_Bucket", %"class.perfetto::protos::ProfilePacket_Histogram_Bucket"* %0, i64 0, i32 4
  %73 = load i64, i64* %72, align 8
  store i8 24, i8* %71, align 1
  %74 = getelementptr inbounds i8, i8* %71, i64 1
  %75 = icmp ult i64 %73, 128
  %76 = trunc i64 %73 to i8
  br i1 %75, label %77, label %79

77:                                               ; preds = %70
  store i8 %76, i8* %74, align 1
  %78 = getelementptr inbounds i8, i8* %71, i64 2
  br label %100

79:                                               ; preds = %70
  %80 = or i8 %76, -128
  store i8 %80, i8* %74, align 1
  %81 = lshr i64 %73, 7
  %82 = icmp ult i64 %73, 16384
  br i1 %82, label %83, label %87

83:                                               ; preds = %79
  %84 = trunc i64 %81 to i8
  %85 = getelementptr inbounds i8, i8* %71, i64 2
  store i8 %84, i8* %85, align 1
  %86 = getelementptr inbounds i8, i8* %71, i64 3
  br label %100

87:                                               ; preds = %79
  %88 = getelementptr inbounds i8, i8* %71, i64 2
  br label %89

89:                                               ; preds = %89, %87
  %90 = phi i64 [ %81, %87 ], [ %94, %89 ]
  %91 = phi i8* [ %88, %87 ], [ %95, %89 ]
  %92 = trunc i64 %90 to i8
  %93 = or i8 %92, -128
  store i8 %93, i8* %91, align 1
  %94 = lshr i64 %90, 7
  %95 = getelementptr inbounds i8, i8* %91, i64 1
  %96 = icmp ugt i64 %90, 16383
  br i1 %96, label %89, label %97, !prof !4

97:                                               ; preds = %89
  %98 = trunc i64 %94 to i8
  %99 = getelementptr inbounds i8, i8* %91, i64 2
  store i8 %98, i8* %95, align 1
  br label %100

100:                                              ; preds = %97, %83, %77, %60
  %101 = phi i8* [ %61, %60 ], [ %78, %77 ], [ %86, %83 ], [ %99, %97 ]
  %102 = getelementptr inbounds %"class.perfetto::protos::ProfilePacket_Histogram_Bucket", %"class.perfetto::protos::ProfilePacket_Histogram_Bucket"* %0, i64 0, i32 0, i32 1
  %103 = bitcast %"class.google::protobuf::internal::InternalMetadata"* %102 to i64*
  %104 = load i64, i64* %103, align 8
  %105 = and i64 %104, 1
  %106 = icmp eq i64 %105, 0
  br i1 %106, label %138, label %107, !prof !2

107:                                              ; preds = %100
  %108 = and i64 %104, -2
  %109 = inttoptr i64 %108 to %"struct.google::protobuf::internal::InternalMetadata::Container"*
  %110 = getelementptr inbounds %"struct.google::protobuf::internal::InternalMetadata::Container", %"struct.google::protobuf::internal::InternalMetadata::Container"* %109, i64 0, i32 1
  %111 = bitcast %"class.std::__1::basic_string"* %110 to %"struct.std::__1::basic_string<char, std::__1::char_traits<char>, std::__1::allocator<char> >::__short"*
  %112 = getelementptr inbounds %"struct.std::__1::basic_string<char, std::__1::char_traits<char>, std::__1::allocator<char> >::__short", %"struct.std::__1::basic_string<char, std::__1::char_traits<char>, std::__1::allocator<char> >::__short"* %111, i64 0, i32 1, i32 0
  %113 = load i8, i8* %112, align 1
  %114 = icmp slt i8 %113, 0
  br i1 %114, label %115, label %120

115:                                              ; preds = %107
  %116 = getelementptr inbounds %"class.std::__1::basic_string", %"class.std::__1::basic_string"* %110, i64 0, i32 0, i32 0, i32 0, i32 0, i32 0, i32 0
  %117 = load i8*, i8** %116, align 8
  %118 = getelementptr inbounds %"struct.google::protobuf::internal::InternalMetadata::Container", %"struct.google::protobuf::internal::InternalMetadata::Container"* %109, i64 0, i32 1, i32 0, i32 0, i32 0, i32 0, i32 0, i32 1
  %119 = load i64, i64* %118, align 8
  br label %123

120:                                              ; preds = %107
  %121 = bitcast %"class.std::__1::basic_string"* %110 to i8*
  %122 = zext i8 %113 to i64
  br label %123

123:                                              ; preds = %115, %120
  %124 = phi i8* [ %117, %115 ], [ %121, %120 ]
  %125 = phi i64 [ %119, %115 ], [ %122, %120 ]
  %126 = bitcast %"class.google::protobuf::io::EpsCopyOutputStream"* %2 to i64*
  %127 = load i64, i64* %126, align 8
  %128 = ptrtoint i8* %101 to i64
  %129 = sub i64 %127, %128
  %130 = shl i64 %125, 32
  %131 = ashr exact i64 %130, 32
  %132 = icmp slt i64 %129, %131
  br i1 %132, label %133, label %136, !prof !4

133:                                              ; preds = %123
  %134 = trunc i64 %125 to i32
  %135 = tail call i8* @_ZN6google8protobuf2io19EpsCopyOutputStream16WriteRawFallbackEPKviPh(%"class.google::protobuf::io::EpsCopyOutputStream"* %2, i8* %124, i32 %134, i8* %101) #14
  br label %138

136:                                              ; preds = %123
  tail call void @llvm.memcpy.p0i8.p0i8.i64(i8* align 1 %101, i8* align 1 %124, i64 %131, i1 false) #14
  %137 = getelementptr inbounds i8, i8* %101, i64 %131
  br label %138

138:                                              ; preds = %100, %136, %133
  %139 = phi i8* [ %101, %100 ], [ %135, %133 ], [ %137, %136 ]
  ret i8* %139
}

; Function Attrs: nounwind ssp uwtable
define hidden i64 @_ZNK8perfetto6protos30ProfilePacket_Histogram_Bucket12ByteSizeLongEv(%"class.perfetto::protos::ProfilePacket_Histogram_Bucket"* nocapture) unnamed_addr #0 align 2 {
  %2 = getelementptr inbounds %"class.perfetto::protos::ProfilePacket_Histogram_Bucket", %"class.perfetto::protos::ProfilePacket_Histogram_Bucket"* %0, i64 0, i32 1, i32 0, i64 0
  %3 = load i32, i32* %2, align 4
  %4 = and i32 %3, 7
  %5 = icmp eq i32 %4, 0
  br i1 %5, label %40, label %6

6:                                                ; preds = %1
  %7 = and i32 %3, 1
  %8 = icmp eq i32 %7, 0
  br i1 %8, label %19, label %9

9:                                                ; preds = %6
  %10 = getelementptr inbounds %"class.perfetto::protos::ProfilePacket_Histogram_Bucket", %"class.perfetto::protos::ProfilePacket_Histogram_Bucket"* %0, i64 0, i32 3
  %11 = load i64, i64* %10, align 8
  %12 = or i64 %11, 1
  %13 = tail call i64 @llvm.ctlz.i64(i64 %12, i1 true) #14, !range !5
  %14 = xor i64 %13, 63
  %15 = mul nuw nsw i64 %14, 9
  %16 = add nuw nsw i64 %15, 73
  %17 = lshr i64 %16, 6
  %18 = add nuw nsw i64 %17, 1
  br label %19

19:                                               ; preds = %6, %9
  %20 = phi i64 [ %18, %9 ], [ 0, %6 ]
  %21 = and i32 %3, 2
  %22 = icmp eq i32 %21, 0
  br i1 %22, label %34, label %23

23:                                               ; preds = %19
  %24 = getelementptr inbounds %"class.perfetto::protos::ProfilePacket_Histogram_Bucket", %"class.perfetto::protos::ProfilePacket_Histogram_Bucket"* %0, i64 0, i32 4
  %25 = load i64, i64* %24, align 8
  %26 = or i64 %25, 1
  %27 = tail call i64 @llvm.ctlz.i64(i64 %26, i1 true) #14, !range !5
  %28 = xor i64 %27, 63
  %29 = mul nuw nsw i64 %28, 9
  %30 = add nuw nsw i64 %29, 73
  %31 = lshr i64 %30, 6
  %32 = add nuw nsw i64 %20, 1
  %33 = add nuw nsw i64 %32, %31
  br label %34

34:                                               ; preds = %19, %23
  %35 = phi i64 [ %33, %23 ], [ %20, %19 ]
  %36 = and i32 %3, 4
  %37 = icmp eq i32 %36, 0
  %38 = add nuw nsw i64 %35, 2
  %39 = select i1 %37, i64 %35, i64 %38
  br label %40

40:                                               ; preds = %34, %1
  %41 = phi i64 [ 0, %1 ], [ %39, %34 ]
  %42 = getelementptr inbounds %"class.perfetto::protos::ProfilePacket_Histogram_Bucket", %"class.perfetto::protos::ProfilePacket_Histogram_Bucket"* %0, i64 0, i32 0, i32 1
  %43 = bitcast %"class.google::protobuf::internal::InternalMetadata"* %42 to i64*
  %44 = load i64, i64* %43, align 8
  %45 = and i64 %44, 1
  %46 = icmp eq i64 %45, 0
  br i1 %46, label %63, label %47, !prof !2

47:                                               ; preds = %40
  %48 = and i64 %44, -2
  %49 = inttoptr i64 %48 to %"struct.google::protobuf::internal::InternalMetadata::Container"*
  %50 = getelementptr inbounds %"struct.google::protobuf::internal::InternalMetadata::Container", %"struct.google::protobuf::internal::InternalMetadata::Container"* %49, i64 0, i32 1
  %51 = bitcast %"class.std::__1::basic_string"* %50 to %"struct.std::__1::basic_string<char, std::__1::char_traits<char>, std::__1::allocator<char> >::__short"*
  %52 = getelementptr inbounds %"struct.std::__1::basic_string<char, std::__1::char_traits<char>, std::__1::allocator<char> >::__short", %"struct.std::__1::basic_string<char, std::__1::char_traits<char>, std::__1::allocator<char> >::__short"* %51, i64 0, i32 1, i32 0
  %53 = load i8, i8* %52, align 1
  %54 = icmp slt i8 %53, 0
  br i1 %54, label %55, label %58

55:                                               ; preds = %47
  %56 = getelementptr inbounds %"struct.google::protobuf::internal::InternalMetadata::Container", %"struct.google::protobuf::internal::InternalMetadata::Container"* %49, i64 0, i32 1, i32 0, i32 0, i32 0, i32 0, i32 0, i32 1
  %57 = load i64, i64* %56, align 8
  br label %60

58:                                               ; preds = %47
  %59 = zext i8 %53 to i64
  br label %60

60:                                               ; preds = %55, %58
  %61 = phi i64 [ %57, %55 ], [ %59, %58 ]
  %62 = add i64 %61, %41
  br label %63

63:                                               ; preds = %40, %60
  %64 = phi i64 [ %62, %60 ], [ %41, %40 ]
  %65 = trunc i64 %64 to i32
  %66 = getelementptr inbounds %"class.perfetto::protos::ProfilePacket_Histogram_Bucket", %"class.perfetto::protos::ProfilePacket_Histogram_Bucket"* %0, i64 0, i32 2, i32 0, i32 0, i32 0, i32 0, i32 0, i32 0
  store atomic i32 %65, i32* %66 monotonic, align 4
  ret i64 %64
}

; Function Attrs: nounwind ssp uwtable
define hidden void @_ZN8perfetto6protos30ProfilePacket_Histogram_Bucket21CheckTypeAndMergeFromERKN6google8protobuf11MessageLiteE(%"class.perfetto::protos::ProfilePacket_Histogram_Bucket"*, %"class.google::protobuf::MessageLite"* nocapture readonly dereferenceable(16)) unnamed_addr #0 align 2 {
  %3 = bitcast %"class.google::protobuf::MessageLite"* %1 to %"class.perfetto::protos::ProfilePacket_Histogram_Bucket"*
  tail call void @_ZN8perfetto6protos30ProfilePacket_Histogram_Bucket9MergeFromERKS1_(%"class.perfetto::protos::ProfilePacket_Histogram_Bucket"* %0, %"class.perfetto::protos::ProfilePacket_Histogram_Bucket"* dereferenceable(48) %3)
  ret void
}

; Function Attrs: nounwind ssp uwtable
define hidden void @_ZN8perfetto6protos30ProfilePacket_Histogram_Bucket9MergeFromERKS1_(%"class.perfetto::protos::ProfilePacket_Histogram_Bucket"*, %"class.perfetto::protos::ProfilePacket_Histogram_Bucket"* nocapture readonly dereferenceable(48)) local_unnamed_addr #0 align 2 {
  %3 = getelementptr inbounds %"class.perfetto::protos::ProfilePacket_Histogram_Bucket", %"class.perfetto::protos::ProfilePacket_Histogram_Bucket"* %0, i64 0, i32 0, i32 1
  %4 = getelementptr inbounds %"class.perfetto::protos::ProfilePacket_Histogram_Bucket", %"class.perfetto::protos::ProfilePacket_Histogram_Bucket"* %1, i64 0, i32 0, i32 1
  %5 = bitcast %"class.google::protobuf::internal::InternalMetadata"* %4 to i64*
  %6 = load i64, i64* %5, align 8
  %7 = and i64 %6, 1
  %8 = icmp eq i64 %7, 0
  br i1 %8, label %38, label %9

9:                                                ; preds = %2
  %10 = and i64 %6, -2
  %11 = inttoptr i64 %10 to %"struct.google::protobuf::internal::InternalMetadata::Container"*
  %12 = getelementptr inbounds %"struct.google::protobuf::internal::InternalMetadata::Container", %"struct.google::protobuf::internal::InternalMetadata::Container"* %11, i64 0, i32 1
  %13 = bitcast %"class.google::protobuf::internal::InternalMetadata"* %3 to i64*
  %14 = load i64, i64* %13, align 8
  %15 = and i64 %14, 1
  %16 = icmp eq i64 %15, 0
  br i1 %16, label %21, label %17, !prof !4

17:                                               ; preds = %9
  %18 = and i64 %14, -2
  %19 = inttoptr i64 %18 to %"struct.google::protobuf::internal::InternalMetadata::Container"*
  %20 = getelementptr inbounds %"struct.google::protobuf::internal::InternalMetadata::Container", %"struct.google::protobuf::internal::InternalMetadata::Container"* %19, i64 0, i32 1
  br label %23

21:                                               ; preds = %9
  %22 = tail call %"class.std::__1::basic_string"* @_ZN6google8protobuf8internal16InternalMetadata27mutable_unknown_fields_slowINSt3__112basic_stringIcNS4_11char_traitsIcEENS4_9allocatorIcEEEEEEPT_v(%"class.google::protobuf::internal::InternalMetadata"* %3) #14
  br label %23

23:                                               ; preds = %21, %17
  %24 = phi %"class.std::__1::basic_string"* [ %20, %17 ], [ %22, %21 ]
  %25 = bitcast %"class.std::__1::basic_string"* %12 to %"struct.std::__1::basic_string<char, std::__1::char_traits<char>, std::__1::allocator<char> >::__short"*
  %26 = getelementptr inbounds %"struct.std::__1::basic_string<char, std::__1::char_traits<char>, std::__1::allocator<char> >::__short", %"struct.std::__1::basic_string<char, std::__1::char_traits<char>, std::__1::allocator<char> >::__short"* %25, i64 0, i32 1, i32 0
  %27 = load i8, i8* %26, align 1
  %28 = icmp slt i8 %27, 0
  %29 = getelementptr inbounds %"class.std::__1::basic_string", %"class.std::__1::basic_string"* %12, i64 0, i32 0, i32 0, i32 0, i32 0, i32 0, i32 0
  %30 = load i8*, i8** %29, align 8
  %31 = getelementptr inbounds %"struct.google::protobuf::internal::InternalMetadata::Container", %"struct.google::protobuf::internal::InternalMetadata::Container"* %11, i64 0, i32 1, i32 0, i32 0, i32 0, i32 0, i32 0, i32 1
  %32 = load i64, i64* %31, align 8
  %33 = bitcast %"class.std::__1::basic_string"* %12 to i8*
  %34 = zext i8 %27 to i64
  %35 = select i1 %28, i8* %30, i8* %33
  %36 = select i1 %28, i64 %32, i64 %34
  %37 = tail call dereferenceable(24) %"class.std::__1::basic_string"* @_ZNSt3__112basic_stringIcNS_11char_traitsIcEENS_9allocatorIcEEE6appendEPKcm(%"class.std::__1::basic_string"* %24, i8* %35, i64 %36) #14
  br label %38

38:                                               ; preds = %2, %23
  %39 = getelementptr inbounds %"class.perfetto::protos::ProfilePacket_Histogram_Bucket", %"class.perfetto::protos::ProfilePacket_Histogram_Bucket"* %1, i64 0, i32 1, i32 0, i64 0
  %40 = load i32, i32* %39, align 4
  %41 = and i32 %40, 7
  %42 = icmp eq i32 %41, 0
  br i1 %42, label %68, label %43

43:                                               ; preds = %38
  %44 = and i32 %40, 1
  %45 = icmp eq i32 %44, 0
  br i1 %45, label %50, label %46

46:                                               ; preds = %43
  %47 = getelementptr inbounds %"class.perfetto::protos::ProfilePacket_Histogram_Bucket", %"class.perfetto::protos::ProfilePacket_Histogram_Bucket"* %1, i64 0, i32 3
  %48 = load i64, i64* %47, align 8
  %49 = getelementptr inbounds %"class.perfetto::protos::ProfilePacket_Histogram_Bucket", %"class.perfetto::protos::ProfilePacket_Histogram_Bucket"* %0, i64 0, i32 3
  store i64 %48, i64* %49, align 8
  br label %50

50:                                               ; preds = %43, %46
  %51 = and i32 %40, 2
  %52 = icmp eq i32 %51, 0
  br i1 %52, label %57, label %53

53:                                               ; preds = %50
  %54 = getelementptr inbounds %"class.perfetto::protos::ProfilePacket_Histogram_Bucket", %"class.perfetto::protos::ProfilePacket_Histogram_Bucket"* %1, i64 0, i32 4
  %55 = load i64, i64* %54, align 8
  %56 = getelementptr inbounds %"class.perfetto::protos::ProfilePacket_Histogram_Bucket", %"class.perfetto::protos::ProfilePacket_Histogram_Bucket"* %0, i64 0, i32 4
  store i64 %55, i64* %56, align 8
  br label %57

57:                                               ; preds = %50, %53
  %58 = and i32 %40, 4
  %59 = icmp eq i32 %58, 0
  br i1 %59, label %64, label %60

60:                                               ; preds = %57
  %61 = getelementptr inbounds %"class.perfetto::protos::ProfilePacket_Histogram_Bucket", %"class.perfetto::protos::ProfilePacket_Histogram_Bucket"* %1, i64 0, i32 5
  %62 = load i8, i8* %61, align 8, !range !6
  %63 = getelementptr inbounds %"class.perfetto::protos::ProfilePacket_Histogram_Bucket", %"class.perfetto::protos::ProfilePacket_Histogram_Bucket"* %0, i64 0, i32 5
  store i8 %62, i8* %63, align 8
  br label %64

64:                                               ; preds = %57, %60
  %65 = getelementptr inbounds %"class.perfetto::protos::ProfilePacket_Histogram_Bucket", %"class.perfetto::protos::ProfilePacket_Histogram_Bucket"* %0, i64 0, i32 1, i32 0, i64 0
  %66 = load i32, i32* %65, align 4
  %67 = or i32 %66, %40
  store i32 %67, i32* %65, align 4
  br label %68

68:                                               ; preds = %38, %64
  ret void
}

; Function Attrs: nounwind ssp uwtable
define hidden void @_ZN8perfetto6protos30ProfilePacket_Histogram_Bucket8CopyFromERKS1_(%"class.perfetto::protos::ProfilePacket_Histogram_Bucket"*, %"class.perfetto::protos::ProfilePacket_Histogram_Bucket"* readonly dereferenceable(48)) local_unnamed_addr #0 align 2 {
  %3 = icmp eq %"class.perfetto::protos::ProfilePacket_Histogram_Bucket"* %1, %0
  br i1 %3, label %33, label %4

4:                                                ; preds = %2
  %5 = getelementptr inbounds %"class.perfetto::protos::ProfilePacket_Histogram_Bucket", %"class.perfetto::protos::ProfilePacket_Histogram_Bucket"* %0, i64 0, i32 1, i32 0, i64 0
  %6 = load i32, i32* %5, align 4
  %7 = and i32 %6, 7
  %8 = icmp eq i32 %7, 0
  br i1 %8, label %12, label %9

9:                                                ; preds = %4
  %10 = getelementptr inbounds %"class.perfetto::protos::ProfilePacket_Histogram_Bucket", %"class.perfetto::protos::ProfilePacket_Histogram_Bucket"* %0, i64 0, i32 3
  %11 = bitcast i64* %10 to i8*
  tail call void @llvm.memset.p0i8.i64(i8* align 8 %11, i8 0, i64 17, i1 false) #14
  br label %12

12:                                               ; preds = %9, %4
  store i32 0, i32* %5, align 4
  %13 = getelementptr inbounds %"class.perfetto::protos::ProfilePacket_Histogram_Bucket", %"class.perfetto::protos::ProfilePacket_Histogram_Bucket"* %0, i64 0, i32 0, i32 1
  %14 = bitcast %"class.google::protobuf::internal::InternalMetadata"* %13 to i64*
  %15 = load i64, i64* %14, align 8
  %16 = and i64 %15, 1
  %17 = icmp eq i64 %16, 0
  br i1 %17, label %32, label %18

18:                                               ; preds = %12
  %19 = and i64 %15, -2
  %20 = inttoptr i64 %19 to %"struct.google::protobuf::internal::InternalMetadata::Container"*
  %21 = getelementptr inbounds %"struct.google::protobuf::internal::InternalMetadata::Container", %"struct.google::protobuf::internal::InternalMetadata::Container"* %20, i64 0, i32 1
  %22 = bitcast %"class.std::__1::basic_string"* %21 to %"struct.std::__1::basic_string<char, std::__1::char_traits<char>, std::__1::allocator<char> >::__short"*
  %23 = getelementptr inbounds %"struct.std::__1::basic_string<char, std::__1::char_traits<char>, std::__1::allocator<char> >::__short", %"struct.std::__1::basic_string<char, std::__1::char_traits<char>, std::__1::allocator<char> >::__short"* %22, i64 0, i32 1, i32 0
  %24 = load i8, i8* %23, align 1
  %25 = icmp slt i8 %24, 0
  br i1 %25, label %26, label %30

26:                                               ; preds = %18
  %27 = getelementptr inbounds %"class.std::__1::basic_string", %"class.std::__1::basic_string"* %21, i64 0, i32 0, i32 0, i32 0, i32 0, i32 0, i32 0
  %28 = load i8*, i8** %27, align 8
  store i8 0, i8* %28, align 1
  %29 = getelementptr inbounds %"struct.google::protobuf::internal::InternalMetadata::Container", %"struct.google::protobuf::internal::InternalMetadata::Container"* %20, i64 0, i32 1, i32 0, i32 0, i32 0, i32 0, i32 0, i32 1
  store i64 0, i64* %29, align 8
  br label %32

30:                                               ; preds = %18
  %31 = bitcast %"class.std::__1::basic_string"* %21 to i8*
  store i8 0, i8* %31, align 2
  store i8 0, i8* %23, align 1
  br label %32

32:                                               ; preds = %12, %26, %30
  tail call void @_ZN8perfetto6protos30ProfilePacket_Histogram_Bucket9MergeFromERKS1_(%"class.perfetto::protos::ProfilePacket_Histogram_Bucket"* %0, %"class.perfetto::protos::ProfilePacket_Histogram_Bucket"* dereferenceable(48) %1)
  br label %33

33:                                               ; preds = %2, %32
  ret void
}

; Function Attrs: norecurse nounwind readnone ssp uwtable
define hidden zeroext i1 @_ZNK8perfetto6protos30ProfilePacket_Histogram_Bucket13IsInitializedEv(%"class.perfetto::protos::ProfilePacket_Histogram_Bucket"* nocapture readnone) unnamed_addr #1 align 2 {
  ret i1 true
}

; Function Attrs: nounwind ssp uwtable
define hidden void @_ZN8perfetto6protos30ProfilePacket_Histogram_Bucket12InternalSwapEPS1_(%"class.perfetto::protos::ProfilePacket_Histogram_Bucket"*, %"class.perfetto::protos::ProfilePacket_Histogram_Bucket"*) local_unnamed_addr #0 align 2 {
  %3 = getelementptr inbounds %"class.perfetto::protos::ProfilePacket_Histogram_Bucket", %"class.perfetto::protos::ProfilePacket_Histogram_Bucket"* %0, i64 0, i32 0, i32 1
  %4 = getelementptr inbounds %"class.perfetto::protos::ProfilePacket_Histogram_Bucket", %"class.perfetto::protos::ProfilePacket_Histogram_Bucket"* %1, i64 0, i32 0, i32 1
  %5 = bitcast %"class.google::protobuf::internal::InternalMetadata"* %3 to i64*
  %6 = load i64, i64* %5, align 8
  %7 = bitcast %"class.google::protobuf::internal::InternalMetadata"* %4 to i64*
  %8 = load i64, i64* %7, align 8
  %9 = or i64 %8, %6
  %10 = and i64 %9, 1
  %11 = icmp eq i64 %10, 0
  br i1 %11, label %43, label %12

12:                                               ; preds = %2
  %13 = and i64 %8, 1
  %14 = icmp eq i64 %13, 0
  br i1 %14, label %19, label %15, !prof !4

15:                                               ; preds = %12
  %16 = and i64 %8, -2
  %17 = inttoptr i64 %16 to %"struct.google::protobuf::internal::InternalMetadata::Container"*
  %18 = getelementptr inbounds %"struct.google::protobuf::internal::InternalMetadata::Container", %"struct.google::protobuf::internal::InternalMetadata::Container"* %17, i64 0, i32 1
  br label %22

19:                                               ; preds = %12
  %20 = tail call %"class.std::__1::basic_string"* @_ZN6google8protobuf8internal16InternalMetadata27mutable_unknown_fields_slowINSt3__112basic_stringIcNS4_11char_traitsIcEENS4_9allocatorIcEEEEEEPT_v(%"class.google::protobuf::internal::InternalMetadata"* %4) #14
  %21 = load i64, i64* %5, align 8
  br label %22

22:                                               ; preds = %19, %15
  %23 = phi i64 [ %6, %15 ], [ %21, %19 ]
  %24 = phi %"class.std::__1::basic_string"* [ %18, %15 ], [ %20, %19 ]
  %25 = and i64 %23, 1
  %26 = icmp eq i64 %25, 0
  br i1 %26, label %31, label %27, !prof !4

27:                                               ; preds = %22
  %28 = and i64 %23, -2
  %29 = inttoptr i64 %28 to %"struct.google::protobuf::internal::InternalMetadata::Container"*
  %30 = getelementptr inbounds %"struct.google::protobuf::internal::InternalMetadata::Container", %"struct.google::protobuf::internal::InternalMetadata::Container"* %29, i64 0, i32 1
  br label %33

31:                                               ; preds = %22
  %32 = tail call %"class.std::__1::basic_string"* @_ZN6google8protobuf8internal16InternalMetadata27mutable_unknown_fields_slowINSt3__112basic_stringIcNS4_11char_traitsIcEENS4_9allocatorIcEEEEEEPT_v(%"class.google::protobuf::internal::InternalMetadata"* %3) #14
  br label %33

33:                                               ; preds = %31, %27
  %34 = phi %"class.std::__1::basic_string"* [ %30, %27 ], [ %32, %31 ]
  %35 = bitcast %"class.std::__1::basic_string"* %34 to <2 x i64>*
  %36 = load <2 x i64>, <2 x i64>* %35, align 8
  %37 = getelementptr inbounds %"class.std::__1::basic_string", %"class.std::__1::basic_string"* %34, i64 0, i32 0, i32 0, i32 0, i32 0, i32 0, i32 2
  %38 = load i64, i64* %37, align 8
  %39 = bitcast %"class.std::__1::basic_string"* %34 to i8*
  %40 = bitcast %"class.std::__1::basic_string"* %24 to i8*
  tail call void @llvm.memcpy.p0i8.p0i8.i64(i8* align 8 %39, i8* align 8 %40, i64 24, i1 false) #14
  %41 = bitcast %"class.std::__1::basic_string"* %24 to <2 x i64>*
  store <2 x i64> %36, <2 x i64>* %41, align 8
  %42 = getelementptr inbounds %"class.std::__1::basic_string", %"class.std::__1::basic_string"* %24, i64 0, i32 0, i32 0, i32 0, i32 0, i32 0, i32 2
  store i64 %38, i64* %42, align 8
  br label %43

43:                                               ; preds = %2, %33
  %44 = getelementptr inbounds %"class.perfetto::protos::ProfilePacket_Histogram_Bucket", %"class.perfetto::protos::ProfilePacket_Histogram_Bucket"* %0, i64 0, i32 1, i32 0, i64 0
  %45 = getelementptr inbounds %"class.perfetto::protos::ProfilePacket_Histogram_Bucket", %"class.perfetto::protos::ProfilePacket_Histogram_Bucket"* %1, i64 0, i32 1, i32 0, i64 0
  %46 = load i32, i32* %44, align 4
  %47 = load i32, i32* %45, align 4
  store i32 %47, i32* %44, align 4
  store i32 %46, i32* %45, align 4
  %48 = getelementptr inbounds %"class.perfetto::protos::ProfilePacket_Histogram_Bucket", %"class.perfetto::protos::ProfilePacket_Histogram_Bucket"* %0, i64 0, i32 3
  %49 = bitcast i64* %48 to i8*
  %50 = getelementptr inbounds %"class.perfetto::protos::ProfilePacket_Histogram_Bucket", %"class.perfetto::protos::ProfilePacket_Histogram_Bucket"* %1, i64 0, i32 3
  %51 = bitcast i64* %50 to i8*
  %52 = bitcast i64* %48 to i128*
  %53 = load i128, i128* %52, align 1
  tail call void @llvm.memcpy.p0i8.p0i8.i64(i8* align 1 %49, i8* align 1 %51, i64 16, i1 false) #14
  %54 = bitcast i64* %50 to i128*
  store i128 %53, i128* %54, align 1
  %55 = getelementptr inbounds i64, i64* %48, i64 2
  %56 = bitcast i64* %55 to i8*
  %57 = getelementptr inbounds i64, i64* %50, i64 2
  %58 = bitcast i64* %57 to i8*
  %59 = load i8, i8* %56, align 1
  %60 = load i8, i8* %58, align 1
  store i8 %60, i8* %56, align 1
  store i8 %59, i8* %58, align 1
  ret void
}

; Function Attrs: nounwind ssp uwtable
define hidden void @_ZNK8perfetto6protos30ProfilePacket_Histogram_Bucket11GetTypeNameEv(%"class.std::__1::basic_string"* noalias sret, %"class.perfetto::protos::ProfilePacket_Histogram_Bucket"* nocapture readnone) unnamed_addr #0 align 2 {
  %3 = tail call i8* @_Znwm(i64 48) #15
  %4 = getelementptr inbounds %"class.std::__1::basic_string", %"class.std::__1::basic_string"* %0, i64 0, i32 0, i32 0, i32 0, i32 0, i32 0, i32 0
  store i8* %3, i8** %4, align 8
  %5 = getelementptr inbounds %"class.std::__1::basic_string", %"class.std::__1::basic_string"* %0, i64 0, i32 0, i32 0, i32 0, i32 0, i32 0, i32 1
  %6 = bitcast i64* %5 to <2 x i64>*
  store <2 x i64> <i64 46, i64 -9223372036854775760>, <2 x i64>* %6, align 8
  tail call void @llvm.memcpy.p0i8.p0i8.i64(i8* nonnull align 1 %3, i8* align 1 getelementptr inbounds ([47 x i8], [47 x i8]* @.str.11, i64 0, i64 0), i64 46, i1 false) #14
  %7 = getelementptr inbounds i8, i8* %3, i64 46
  store i8 0, i8* %7, align 1
  ret void
}

; Function Attrs: nounwind ssp uwtable
define hidden void @_ZN8perfetto6protos23ProfilePacket_HistogramC2EPN6google8protobuf5ArenaE(%"class.perfetto::protos::ProfilePacket_Histogram"* nocapture, %"class.google::protobuf::Arena"*) unnamed_addr #0 align 2 {
  %3 = getelementptr inbounds %"class.perfetto::protos::ProfilePacket_Histogram", %"class.perfetto::protos::ProfilePacket_Histogram"* %0, i64 0, i32 0, i32 0
  %4 = getelementptr inbounds %"class.perfetto::protos::ProfilePacket_Histogram", %"class.perfetto::protos::ProfilePacket_Histogram"* %0, i64 0, i32 0, i32 1
  %5 = bitcast %"class.google::protobuf::internal::InternalMetadata"* %4 to %"class.google::protobuf::Arena"**
  store %"class.google::protobuf::Arena"* %1, %"class.google::protobuf::Arena"** %5, align 8
  store i32 (...)** bitcast (i8** getelementptr inbounds ({ [16 x i8*] }, { [16 x i8*] }* @_ZTVN8perfetto6protos23ProfilePacket_HistogramE, i64 0, inrange i32 0, i64 2) to i32 (...)**), i32 (...)*** %3, align 8
  %6 = getelementptr inbounds %"class.perfetto::protos::ProfilePacket_Histogram", %"class.perfetto::protos::ProfilePacket_Histogram"* %0, i64 0, i32 1, i32 0, i32 0
  store %"class.google::protobuf::Arena"* %1, %"class.google::protobuf::Arena"** %6, align 8
  %7 = getelementptr inbounds %"class.perfetto::protos::ProfilePacket_Histogram", %"class.perfetto::protos::ProfilePacket_Histogram"* %0, i64 0, i32 1, i32 0, i32 1
  %8 = bitcast i32* %7 to i8*
  call void @llvm.memset.p0i8.i64(i8* align 8 %8, i8 0, i64 20, i1 false)
  %9 = load atomic i32, i32* getelementptr inbounds ({ { { { i32 } }, i32, i32, void ()* }, [1 x i8*] }, { { { { i32 } }, i32, i32, void ()* }, [1 x i8*] }* @scc_info_ProfilePacket_Histogram_protos_2fperfetto_2ftrace_2fprofiling_2fprofile_5fpacket_2eproto, i64 0, i32 0, i32 0, i32 0, i32 0) acquire, align 8
  %10 = icmp eq i32 %9, 0
  br i1 %10, label %12, label %11, !prof !2

11:                                               ; preds = %2
  tail call void @_ZN6google8protobuf8internal11InitSCCImplEPNS1_11SCCInfoBaseE(%"struct.google::protobuf::internal::SCCInfoBase"* bitcast ({ { { { i32 } }, i32, i32, void ()* }, [1 x i8*] }* @scc_info_ProfilePacket_Histogram_protos_2fperfetto_2ftrace_2fprofiling_2fprofile_5fpacket_2eproto to %"struct.google::protobuf::internal::SCCInfoBase"*)) #14
  br label %12

12:                                               ; preds = %2, %11
  ret void
}

; Function Attrs: nounwind ssp uwtable
define hidden void @_ZN8perfetto6protos23ProfilePacket_HistogramC2ERKS1_(%"class.perfetto::protos::ProfilePacket_Histogram"*, %"class.perfetto::protos::ProfilePacket_Histogram"* nocapture readonly dereferenceable(48)) unnamed_addr #0 align 2 {
  %3 = getelementptr inbounds %"class.perfetto::protos::ProfilePacket_Histogram", %"class.perfetto::protos::ProfilePacket_Histogram"* %0, i64 0, i32 0, i32 0
  %4 = getelementptr inbounds %"class.perfetto::protos::ProfilePacket_Histogram", %"class.perfetto::protos::ProfilePacket_Histogram"* %0, i64 0, i32 0, i32 1, i32 0
  store i8* null, i8** %4, align 8
  store i32 (...)** bitcast (i8** getelementptr inbounds ({ [16 x i8*] }, { [16 x i8*] }* @_ZTVN8perfetto6protos23ProfilePacket_HistogramE, i64 0, inrange i32 0, i64 2) to i32 (...)**), i32 (...)*** %3, align 8
  %5 = getelementptr inbounds %"class.perfetto::protos::ProfilePacket_Histogram", %"class.perfetto::protos::ProfilePacket_Histogram"* %0, i64 0, i32 1
  %6 = bitcast %"class.google::protobuf::RepeatedPtrField"* %5 to i8*
  tail call void @llvm.memset.p0i8.i64(i8* align 8 %6, i8 0, i64 24, i1 false) #14
  %7 = getelementptr inbounds %"class.perfetto::protos::ProfilePacket_Histogram", %"class.perfetto::protos::ProfilePacket_Histogram"* %1, i64 0, i32 1, i32 0, i32 1
  %8 = load i32, i32* %7, align 8
  %9 = icmp eq i32 %8, 0
  br i1 %9, label %65, label %10

10:                                               ; preds = %2
  %11 = getelementptr inbounds %"class.google::protobuf::RepeatedPtrField", %"class.google::protobuf::RepeatedPtrField"* %5, i64 0, i32 0
  %12 = getelementptr inbounds %"class.perfetto::protos::ProfilePacket_Histogram", %"class.perfetto::protos::ProfilePacket_Histogram"* %1, i64 0, i32 1, i32 0, i32 3
  %13 = load %"struct.google::protobuf::internal::RepeatedPtrFieldBase::Rep"*, %"struct.google::protobuf::internal::RepeatedPtrFieldBase::Rep"** %12, align 8
  %14 = tail call i8** @_ZN6google8protobuf8internal20RepeatedPtrFieldBase14InternalExtendEi(%"class.google::protobuf::internal::RepeatedPtrFieldBase"* %11, i32 %8) #14
  %15 = getelementptr inbounds %"class.perfetto::protos::ProfilePacket_Histogram", %"class.perfetto::protos::ProfilePacket_Histogram"* %0, i64 0, i32 1, i32 0, i32 3
  %16 = load %"struct.google::protobuf::internal::RepeatedPtrFieldBase::Rep"*, %"struct.google::protobuf::internal::RepeatedPtrFieldBase::Rep"** %15, align 8
  %17 = getelementptr inbounds %"struct.google::protobuf::internal::RepeatedPtrFieldBase::Rep", %"struct.google::protobuf::internal::RepeatedPtrFieldBase::Rep"* %16, i64 0, i32 0
  %18 = load i32, i32* %17, align 8
  %19 = getelementptr inbounds %"class.perfetto::protos::ProfilePacket_Histogram", %"class.perfetto::protos::ProfilePacket_Histogram"* %0, i64 0, i32 1, i32 0, i32 1
  %20 = load i32, i32* %19, align 8
  %21 = sub i32 %18, %20
  %22 = icmp sgt i32 %21, 0
  %23 = icmp sgt i32 %8, 0
  %24 = and i1 %23, %22
  br i1 %24, label %25, label %28

25:                                               ; preds = %10
  %26 = sext i32 %8 to i64
  %27 = sext i32 %21 to i64
  br label %34

28:                                               ; preds = %34, %10
  %29 = getelementptr inbounds %"class.google::protobuf::RepeatedPtrField", %"class.google::protobuf::RepeatedPtrField"* %5, i64 0, i32 0, i32 0
  %30 = load %"class.google::protobuf::Arena"*, %"class.google::protobuf::Arena"** %29, align 8
  %31 = icmp slt i32 %21, %8
  br i1 %31, label %32, label %57

32:                                               ; preds = %28
  %33 = sext i32 %21 to i64
  br label %46

34:                                               ; preds = %34, %25
  %35 = phi i64 [ 0, %25 ], [ %42, %34 ]
  %36 = getelementptr inbounds %"struct.google::protobuf::internal::RepeatedPtrFieldBase::Rep", %"struct.google::protobuf::internal::RepeatedPtrFieldBase::Rep"* %13, i64 0, i32 1, i64 %35
  %37 = bitcast i8** %36 to %"class.perfetto::protos::ProfilePacket_Histogram_Bucket"**
  %38 = load %"class.perfetto::protos::ProfilePacket_Histogram_Bucket"*, %"class.perfetto::protos::ProfilePacket_Histogram_Bucket"** %37, align 8
  %39 = getelementptr inbounds i8*, i8** %14, i64 %35
  %40 = bitcast i8** %39 to %"class.perfetto::protos::ProfilePacket_Histogram_Bucket"**
  %41 = load %"class.perfetto::protos::ProfilePacket_Histogram_Bucket"*, %"class.perfetto::protos::ProfilePacket_Histogram_Bucket"** %40, align 8
  tail call void @_ZN6google8protobuf8internal18GenericTypeHandlerIN8perfetto6protos30ProfilePacket_Histogram_BucketEE5MergeERKS5_PS5_(%"class.perfetto::protos::ProfilePacket_Histogram_Bucket"* dereferenceable(48) %38, %"class.perfetto::protos::ProfilePacket_Histogram_Bucket"* %41) #14
  %42 = add nuw nsw i64 %35, 1
  %43 = icmp slt i64 %42, %27
  %44 = icmp slt i64 %42, %26
  %45 = and i1 %43, %44
  br i1 %45, label %34, label %28

46:                                               ; preds = %46, %32
  %47 = phi i64 [ %33, %32 ], [ %54, %46 ]
  %48 = getelementptr inbounds %"struct.google::protobuf::internal::RepeatedPtrFieldBase::Rep", %"struct.google::protobuf::internal::RepeatedPtrFieldBase::Rep"* %13, i64 0, i32 1, i64 %47
  %49 = bitcast i8** %48 to %"class.perfetto::protos::ProfilePacket_Histogram_Bucket"**
  %50 = load %"class.perfetto::protos::ProfilePacket_Histogram_Bucket"*, %"class.perfetto::protos::ProfilePacket_Histogram_Bucket"** %49, align 8
  %51 = tail call %"class.perfetto::protos::ProfilePacket_Histogram_Bucket"* @_ZN6google8protobuf5Arena18CreateMaybeMessageIN8perfetto6protos30ProfilePacket_Histogram_BucketEJEEEPT_PS1_DpOT0_(%"class.google::protobuf::Arena"* %30) #14
  tail call void @_ZN6google8protobuf8internal18GenericTypeHandlerIN8perfetto6protos30ProfilePacket_Histogram_BucketEE5MergeERKS5_PS5_(%"class.perfetto::protos::ProfilePacket_Histogram_Bucket"* dereferenceable(48) %50, %"class.perfetto::protos::ProfilePacket_Histogram_Bucket"* %51) #14
  %52 = getelementptr inbounds i8*, i8** %14, i64 %47
  %53 = bitcast i8** %52 to %"class.perfetto::protos::ProfilePacket_Histogram_Bucket"**
  store %"class.perfetto::protos::ProfilePacket_Histogram_Bucket"* %51, %"class.perfetto::protos::ProfilePacket_Histogram_Bucket"** %53, align 8
  %54 = add nsw i64 %47, 1
  %55 = trunc i64 %54 to i32
  %56 = icmp eq i32 %8, %55
  br i1 %56, label %57, label %46

57:                                               ; preds = %46, %28
  %58 = load i32, i32* %19, align 8
  %59 = add nsw i32 %58, %8
  store i32 %59, i32* %19, align 8
  %60 = load %"struct.google::protobuf::internal::RepeatedPtrFieldBase::Rep"*, %"struct.google::protobuf::internal::RepeatedPtrFieldBase::Rep"** %15, align 8
  %61 = getelementptr inbounds %"struct.google::protobuf::internal::RepeatedPtrFieldBase::Rep", %"struct.google::protobuf::internal::RepeatedPtrFieldBase::Rep"* %60, i64 0, i32 0
  %62 = load i32, i32* %61, align 8
  %63 = icmp slt i32 %62, %59
  br i1 %63, label %64, label %65

64:                                               ; preds = %57
  store i32 %59, i32* %61, align 8
  br label %65

65:                                               ; preds = %2, %57, %64
  %66 = getelementptr inbounds %"class.perfetto::protos::ProfilePacket_Histogram", %"class.perfetto::protos::ProfilePacket_Histogram"* %0, i64 0, i32 2, i32 0, i32 0, i32 0, i32 0, i32 0, i32 0
  store i32 0, i32* %66, align 4
  %67 = getelementptr inbounds %"class.perfetto::protos::ProfilePacket_Histogram", %"class.perfetto::protos::ProfilePacket_Histogram"* %0, i64 0, i32 0, i32 1
  %68 = getelementptr inbounds %"class.perfetto::protos::ProfilePacket_Histogram", %"class.perfetto::protos::ProfilePacket_Histogram"* %1, i64 0, i32 0, i32 1
  %69 = bitcast %"class.google::protobuf::internal::InternalMetadata"* %68 to i64*
  %70 = load i64, i64* %69, align 8
  %71 = and i64 %70, 1
  %72 = icmp eq i64 %71, 0
  br i1 %72, label %102, label %73

73:                                               ; preds = %65
  %74 = and i64 %70, -2
  %75 = inttoptr i64 %74 to %"struct.google::protobuf::internal::InternalMetadata::Container"*
  %76 = getelementptr inbounds %"struct.google::protobuf::internal::InternalMetadata::Container", %"struct.google::protobuf::internal::InternalMetadata::Container"* %75, i64 0, i32 1
  %77 = bitcast %"class.google::protobuf::internal::InternalMetadata"* %67 to i64*
  %78 = load i64, i64* %77, align 8
  %79 = and i64 %78, 1
  %80 = icmp eq i64 %79, 0
  br i1 %80, label %85, label %81, !prof !4

81:                                               ; preds = %73
  %82 = and i64 %78, -2
  %83 = inttoptr i64 %82 to %"struct.google::protobuf::internal::InternalMetadata::Container"*
  %84 = getelementptr inbounds %"struct.google::protobuf::internal::InternalMetadata::Container", %"struct.google::protobuf::internal::InternalMetadata::Container"* %83, i64 0, i32 1
  br label %87

85:                                               ; preds = %73
  %86 = tail call %"class.std::__1::basic_string"* @_ZN6google8protobuf8internal16InternalMetadata27mutable_unknown_fields_slowINSt3__112basic_stringIcNS4_11char_traitsIcEENS4_9allocatorIcEEEEEEPT_v(%"class.google::protobuf::internal::InternalMetadata"* %67) #14
  br label %87

87:                                               ; preds = %85, %81
  %88 = phi %"class.std::__1::basic_string"* [ %84, %81 ], [ %86, %85 ]
  %89 = bitcast %"class.std::__1::basic_string"* %76 to %"struct.std::__1::basic_string<char, std::__1::char_traits<char>, std::__1::allocator<char> >::__short"*
  %90 = getelementptr inbounds %"struct.std::__1::basic_string<char, std::__1::char_traits<char>, std::__1::allocator<char> >::__short", %"struct.std::__1::basic_string<char, std::__1::char_traits<char>, std::__1::allocator<char> >::__short"* %89, i64 0, i32 1, i32 0
  %91 = load i8, i8* %90, align 1
  %92 = icmp slt i8 %91, 0
  %93 = getelementptr inbounds %"class.std::__1::basic_string", %"class.std::__1::basic_string"* %76, i64 0, i32 0, i32 0, i32 0, i32 0, i32 0, i32 0
  %94 = load i8*, i8** %93, align 8
  %95 = getelementptr inbounds %"struct.google::protobuf::internal::InternalMetadata::Container", %"struct.google::protobuf::internal::InternalMetadata::Container"* %75, i64 0, i32 1, i32 0, i32 0, i32 0, i32 0, i32 0, i32 1
  %96 = load i64, i64* %95, align 8
  %97 = bitcast %"class.std::__1::basic_string"* %76 to i8*
  %98 = zext i8 %91 to i64
  %99 = select i1 %92, i8* %94, i8* %97
  %100 = select i1 %92, i64 %96, i64 %98
  %101 = tail call dereferenceable(24) %"class.std::__1::basic_string"* @_ZNSt3__112basic_stringIcNS_11char_traitsIcEENS_9allocatorIcEEE6appendEPKcm(%"class.std::__1::basic_string"* %88, i8* %99, i64 %100) #14
  br label %102

102:                                              ; preds = %65, %87
  ret void
}

; Function Attrs: nounwind ssp uwtable
define hidden void @_ZN8perfetto6protos23ProfilePacket_HistogramD2Ev(%"class.perfetto::protos::ProfilePacket_Histogram"* nocapture) unnamed_addr #0 align 2 {
  %2 = getelementptr inbounds %"class.perfetto::protos::ProfilePacket_Histogram", %"class.perfetto::protos::ProfilePacket_Histogram"* %0, i64 0, i32 0, i32 0
  store i32 (...)** bitcast (i8** getelementptr inbounds ({ [16 x i8*] }, { [16 x i8*] }* @_ZTVN8perfetto6protos23ProfilePacket_HistogramE, i64 0, inrange i32 0, i64 2) to i32 (...)**), i32 (...)*** %2, align 8
  %3 = getelementptr inbounds %"class.perfetto::protos::ProfilePacket_Histogram", %"class.perfetto::protos::ProfilePacket_Histogram"* %0, i64 0, i32 0, i32 1
  %4 = bitcast %"class.google::protobuf::internal::InternalMetadata"* %3 to i64*
  %5 = load i64, i64* %4, align 8
  %6 = and i64 %5, 1
  %7 = icmp eq i64 %6, 0
  br i1 %7, label %28, label %8

8:                                                ; preds = %1
  %9 = and i64 %5, -2
  %10 = inttoptr i64 %9 to %"struct.google::protobuf::internal::InternalMetadata::ContainerBase"*
  %11 = getelementptr inbounds %"struct.google::protobuf::internal::InternalMetadata::ContainerBase", %"struct.google::protobuf::internal::InternalMetadata::ContainerBase"* %10, i64 0, i32 0
  %12 = load %"class.google::protobuf::Arena"*, %"class.google::protobuf::Arena"** %11, align 8
  %13 = icmp ne %"class.google::protobuf::Arena"* %12, null
  %14 = icmp eq i64 %9, 0
  %15 = or i1 %14, %13
  br i1 %15, label %28, label %16

16:                                               ; preds = %8
  %17 = inttoptr i64 %9 to %"struct.google::protobuf::internal::InternalMetadata::Container"*
  %18 = getelementptr inbounds %"struct.google::protobuf::internal::InternalMetadata::Container", %"struct.google::protobuf::internal::InternalMetadata::Container"* %17, i64 0, i32 1
  %19 = bitcast %"class.std::__1::basic_string"* %18 to %"struct.std::__1::basic_string<char, std::__1::char_traits<char>, std::__1::allocator<char> >::__short"*
  %20 = getelementptr inbounds %"struct.std::__1::basic_string<char, std::__1::char_traits<char>, std::__1::allocator<char> >::__short", %"struct.std::__1::basic_string<char, std::__1::char_traits<char>, std::__1::allocator<char> >::__short"* %19, i64 0, i32 1, i32 0
  %21 = load i8, i8* %20, align 1
  %22 = icmp slt i8 %21, 0
  br i1 %22, label %23, label %26

23:                                               ; preds = %16
  %24 = getelementptr inbounds %"class.std::__1::basic_string", %"class.std::__1::basic_string"* %18, i64 0, i32 0, i32 0, i32 0, i32 0, i32 0, i32 0
  %25 = load i8*, i8** %24, align 8
  tail call void @_ZdlPv(i8* %25) #15
  br label %26

26:                                               ; preds = %23, %16
  %27 = inttoptr i64 %9 to i8*
  tail call void @_ZdlPv(i8* %27) #15
  br label %28

28:                                               ; preds = %1, %8, %26
  %29 = getelementptr inbounds %"class.perfetto::protos::ProfilePacket_Histogram", %"class.perfetto::protos::ProfilePacket_Histogram"* %0, i64 0, i32 1, i32 0, i32 3
  %30 = load %"struct.google::protobuf::internal::RepeatedPtrFieldBase::Rep"*, %"struct.google::protobuf::internal::RepeatedPtrFieldBase::Rep"** %29, align 8
  %31 = icmp eq %"struct.google::protobuf::internal::RepeatedPtrFieldBase::Rep"* %30, null
  %32 = bitcast %"struct.google::protobuf::internal::RepeatedPtrFieldBase::Rep"* %30 to i8*
  br i1 %31, label %62, label %33

33:                                               ; preds = %28
  %34 = getelementptr inbounds %"class.perfetto::protos::ProfilePacket_Histogram", %"class.perfetto::protos::ProfilePacket_Histogram"* %0, i64 0, i32 1, i32 0, i32 0
  %35 = load %"class.google::protobuf::Arena"*, %"class.google::protobuf::Arena"** %34, align 8
  %36 = icmp eq %"class.google::protobuf::Arena"* %35, null
  br i1 %36, label %37, label %62

37:                                               ; preds = %33
  %38 = getelementptr inbounds %"struct.google::protobuf::internal::RepeatedPtrFieldBase::Rep", %"struct.google::protobuf::internal::RepeatedPtrFieldBase::Rep"* %30, i64 0, i32 0
  %39 = load i32, i32* %38, align 8
  %40 = icmp sgt i32 %39, 0
  br i1 %40, label %41, label %46

41:                                               ; preds = %37
  %42 = zext i32 %39 to i64
  br label %48

43:                                               ; preds = %59
  %44 = bitcast %"struct.google::protobuf::internal::RepeatedPtrFieldBase::Rep"** %29 to i8**
  %45 = load i8*, i8** %44, align 8
  br label %46

46:                                               ; preds = %43, %37
  %47 = phi i8* [ %45, %43 ], [ %32, %37 ]
  tail call void @_ZdlPv(i8* %47) #14
  br label %62

48:                                               ; preds = %59, %41
  %49 = phi i64 [ 0, %41 ], [ %60, %59 ]
  %50 = getelementptr inbounds %"struct.google::protobuf::internal::RepeatedPtrFieldBase::Rep", %"struct.google::protobuf::internal::RepeatedPtrFieldBase::Rep"* %30, i64 0, i32 1, i64 %49
  %51 = bitcast i8** %50 to %"class.perfetto::protos::ProfilePacket_Histogram_Bucket"**
  %52 = load %"class.perfetto::protos::ProfilePacket_Histogram_Bucket"*, %"class.perfetto::protos::ProfilePacket_Histogram_Bucket"** %51, align 8
  %53 = icmp eq %"class.perfetto::protos::ProfilePacket_Histogram_Bucket"* %52, null
  br i1 %53, label %59, label %54

54:                                               ; preds = %48
  %55 = bitcast %"class.perfetto::protos::ProfilePacket_Histogram_Bucket"* %52 to void (%"class.perfetto::protos::ProfilePacket_Histogram_Bucket"*)***
  %56 = load void (%"class.perfetto::protos::ProfilePacket_Histogram_Bucket"*)**, void (%"class.perfetto::protos::ProfilePacket_Histogram_Bucket"*)*** %55, align 8
  %57 = getelementptr inbounds void (%"class.perfetto::protos::ProfilePacket_Histogram_Bucket"*)*, void (%"class.perfetto::protos::ProfilePacket_Histogram_Bucket"*)** %56, i64 1
  %58 = load void (%"class.perfetto::protos::ProfilePacket_Histogram_Bucket"*)*, void (%"class.perfetto::protos::ProfilePacket_Histogram_Bucket"*)** %57, align 8
  tail call void %58(%"class.perfetto::protos::ProfilePacket_Histogram_Bucket"* nonnull %52) #14
  br label %59

59:                                               ; preds = %54, %48
  %60 = add nuw nsw i64 %49, 1
  %61 = icmp eq i64 %60, %42
  br i1 %61, label %43, label %48

62:                                               ; preds = %28, %33, %46
  store %"struct.google::protobuf::internal::RepeatedPtrFieldBase::Rep"* null, %"struct.google::protobuf::internal::RepeatedPtrFieldBase::Rep"** %29, align 8
  ret void
}

; Function Attrs: nounwind ssp uwtable
define hidden void @_ZN8perfetto6protos23ProfilePacket_HistogramD0Ev(%"class.perfetto::protos::ProfilePacket_Histogram"*) unnamed_addr #0 align 2 {
  tail call void @_ZN8perfetto6protos23ProfilePacket_HistogramD2Ev(%"class.perfetto::protos::ProfilePacket_Histogram"* %0) #14
  %2 = bitcast %"class.perfetto::protos::ProfilePacket_Histogram"* %0 to i8*
  tail call void @_ZdlPv(i8* %2) #15
  ret void
}

; Function Attrs: norecurse nounwind readnone ssp uwtable
define hidden void @_ZN8perfetto6protos23ProfilePacket_Histogram9ArenaDtorEPv(i8* nocapture) local_unnamed_addr #1 align 2 {
  ret void
}

; Function Attrs: nofree norecurse nounwind ssp uwtable
define hidden void @_ZNK8perfetto6protos23ProfilePacket_Histogram13SetCachedSizeEi(%"class.perfetto::protos::ProfilePacket_Histogram"* nocapture, i32) local_unnamed_addr #6 align 2 {
  %3 = getelementptr inbounds %"class.perfetto::protos::ProfilePacket_Histogram", %"class.perfetto::protos::ProfilePacket_Histogram"* %0, i64 0, i32 2, i32 0, i32 0, i32 0, i32 0, i32 0, i32 0
  store atomic i32 %1, i32* %3 monotonic, align 4
  ret void
}

; Function Attrs: nounwind ssp uwtable
define hidden dereferenceable(48) %"class.perfetto::protos::ProfilePacket_Histogram"* @_ZN8perfetto6protos23ProfilePacket_Histogram16default_instanceEv() local_unnamed_addr #0 align 2 {
  %1 = load atomic i32, i32* getelementptr inbounds ({ { { { i32 } }, i32, i32, void ()* }, [1 x i8*] }, { { { { i32 } }, i32, i32, void ()* }, [1 x i8*] }* @scc_info_ProfilePacket_Histogram_protos_2fperfetto_2ftrace_2fprofiling_2fprofile_5fpacket_2eproto, i64 0, i32 0, i32 0, i32 0, i32 0) acquire, align 8
  %2 = icmp eq i32 %1, 0
  br i1 %2, label %4, label %3, !prof !2

3:                                                ; preds = %0
  tail call void @_ZN6google8protobuf8internal11InitSCCImplEPNS1_11SCCInfoBaseE(%"struct.google::protobuf::internal::SCCInfoBase"* bitcast ({ { { { i32 } }, i32, i32, void ()* }, [1 x i8*] }* @scc_info_ProfilePacket_Histogram_protos_2fperfetto_2ftrace_2fprofiling_2fprofile_5fpacket_2eproto to %"struct.google::protobuf::internal::SCCInfoBase"*)) #14
  br label %4

4:                                                ; preds = %0, %3
  ret %"class.perfetto::protos::ProfilePacket_Histogram"* bitcast (%"class.perfetto::protos::ProfilePacket_HistogramDefaultTypeInternal"* @_ZN8perfetto6protos42_ProfilePacket_Histogram_default_instance_E to %"class.perfetto::protos::ProfilePacket_Histogram"*)
}

; Function Attrs: nounwind ssp uwtable
define hidden void @_ZN8perfetto6protos23ProfilePacket_Histogram5ClearEv(%"class.perfetto::protos::ProfilePacket_Histogram"* nocapture) unnamed_addr #0 align 2 {
  %2 = getelementptr inbounds %"class.perfetto::protos::ProfilePacket_Histogram", %"class.perfetto::protos::ProfilePacket_Histogram"* %0, i64 0, i32 1, i32 0, i32 1
  %3 = load i32, i32* %2, align 8
  %4 = icmp sgt i32 %3, 0
  br i1 %4, label %5, label %45

5:                                                ; preds = %1
  %6 = getelementptr inbounds %"class.perfetto::protos::ProfilePacket_Histogram", %"class.perfetto::protos::ProfilePacket_Histogram"* %0, i64 0, i32 1, i32 0, i32 3
  %7 = load %"struct.google::protobuf::internal::RepeatedPtrFieldBase::Rep"*, %"struct.google::protobuf::internal::RepeatedPtrFieldBase::Rep"** %6, align 8
  %8 = zext i32 %3 to i64
  br label %9

9:                                                ; preds = %42, %5
  %10 = phi i64 [ %11, %42 ], [ 0, %5 ]
  %11 = add nuw nsw i64 %10, 1
  %12 = getelementptr inbounds %"struct.google::protobuf::internal::RepeatedPtrFieldBase::Rep", %"struct.google::protobuf::internal::RepeatedPtrFieldBase::Rep"* %7, i64 0, i32 1, i64 %10
  %13 = bitcast i8** %12 to %"class.perfetto::protos::ProfilePacket_Histogram_Bucket"**
  %14 = load %"class.perfetto::protos::ProfilePacket_Histogram_Bucket"*, %"class.perfetto::protos::ProfilePacket_Histogram_Bucket"** %13, align 8
  %15 = getelementptr inbounds %"class.perfetto::protos::ProfilePacket_Histogram_Bucket", %"class.perfetto::protos::ProfilePacket_Histogram_Bucket"* %14, i64 0, i32 1, i32 0, i64 0
  %16 = load i32, i32* %15, align 4
  %17 = and i32 %16, 7
  %18 = icmp eq i32 %17, 0
  br i1 %18, label %22, label %19

19:                                               ; preds = %9
  %20 = getelementptr inbounds %"class.perfetto::protos::ProfilePacket_Histogram_Bucket", %"class.perfetto::protos::ProfilePacket_Histogram_Bucket"* %14, i64 0, i32 3
  %21 = bitcast i64* %20 to i8*
  tail call void @llvm.memset.p0i8.i64(i8* align 8 %21, i8 0, i64 17, i1 false) #14
  br label %22

22:                                               ; preds = %19, %9
  store i32 0, i32* %15, align 4
  %23 = getelementptr inbounds %"class.perfetto::protos::ProfilePacket_Histogram_Bucket", %"class.perfetto::protos::ProfilePacket_Histogram_Bucket"* %14, i64 0, i32 0, i32 1
  %24 = bitcast %"class.google::protobuf::internal::InternalMetadata"* %23 to i64*
  %25 = load i64, i64* %24, align 8
  %26 = and i64 %25, 1
  %27 = icmp eq i64 %26, 0
  br i1 %27, label %42, label %28

28:                                               ; preds = %22
  %29 = and i64 %25, -2
  %30 = inttoptr i64 %29 to %"struct.google::protobuf::internal::InternalMetadata::Container"*
  %31 = getelementptr inbounds %"struct.google::protobuf::internal::InternalMetadata::Container", %"struct.google::protobuf::internal::InternalMetadata::Container"* %30, i64 0, i32 1
  %32 = bitcast %"class.std::__1::basic_string"* %31 to %"struct.std::__1::basic_string<char, std::__1::char_traits<char>, std::__1::allocator<char> >::__short"*
  %33 = getelementptr inbounds %"struct.std::__1::basic_string<char, std::__1::char_traits<char>, std::__1::allocator<char> >::__short", %"struct.std::__1::basic_string<char, std::__1::char_traits<char>, std::__1::allocator<char> >::__short"* %32, i64 0, i32 1, i32 0
  %34 = load i8, i8* %33, align 1
  %35 = icmp slt i8 %34, 0
  br i1 %35, label %36, label %40

36:                                               ; preds = %28
  %37 = getelementptr inbounds %"class.std::__1::basic_string", %"class.std::__1::basic_string"* %31, i64 0, i32 0, i32 0, i32 0, i32 0, i32 0, i32 0
  %38 = load i8*, i8** %37, align 8
  store i8 0, i8* %38, align 1
  %39 = getelementptr inbounds %"struct.google::protobuf::internal::InternalMetadata::Container", %"struct.google::protobuf::internal::InternalMetadata::Container"* %30, i64 0, i32 1, i32 0, i32 0, i32 0, i32 0, i32 0, i32 1
  store i64 0, i64* %39, align 8
  br label %42

40:                                               ; preds = %28
  %41 = bitcast %"class.std::__1::basic_string"* %31 to i8*
  store i8 0, i8* %41, align 2
  store i8 0, i8* %33, align 1
  br label %42

42:                                               ; preds = %40, %36, %22
  %43 = icmp eq i64 %11, %8
  br i1 %43, label %44, label %9

44:                                               ; preds = %42
  store i32 0, i32* %2, align 8
  br label %45

45:                                               ; preds = %1, %44
  %46 = getelementptr inbounds %"class.perfetto::protos::ProfilePacket_Histogram", %"class.perfetto::protos::ProfilePacket_Histogram"* %0, i64 0, i32 0, i32 1
  %47 = bitcast %"class.google::protobuf::internal::InternalMetadata"* %46 to i64*
  %48 = load i64, i64* %47, align 8
  %49 = and i64 %48, 1
  %50 = icmp eq i64 %49, 0
  br i1 %50, label %65, label %51

51:                                               ; preds = %45
  %52 = and i64 %48, -2
  %53 = inttoptr i64 %52 to %"struct.google::protobuf::internal::InternalMetadata::Container"*
  %54 = getelementptr inbounds %"struct.google::protobuf::internal::InternalMetadata::Container", %"struct.google::protobuf::internal::InternalMetadata::Container"* %53, i64 0, i32 1
  %55 = bitcast %"class.std::__1::basic_string"* %54 to %"struct.std::__1::basic_string<char, std::__1::char_traits<char>, std::__1::allocator<char> >::__short"*
  %56 = getelementptr inbounds %"struct.std::__1::basic_string<char, std::__1::char_traits<char>, std::__1::allocator<char> >::__short", %"struct.std::__1::basic_string<char, std::__1::char_traits<char>, std::__1::allocator<char> >::__short"* %55, i64 0, i32 1, i32 0
  %57 = load i8, i8* %56, align 1
  %58 = icmp slt i8 %57, 0
  br i1 %58, label %59, label %63

59:                                               ; preds = %51
  %60 = getelementptr inbounds %"class.std::__1::basic_string", %"class.std::__1::basic_string"* %54, i64 0, i32 0, i32 0, i32 0, i32 0, i32 0, i32 0
  %61 = load i8*, i8** %60, align 8
  store i8 0, i8* %61, align 1
  %62 = getelementptr inbounds %"struct.google::protobuf::internal::InternalMetadata::Container", %"struct.google::protobuf::internal::InternalMetadata::Container"* %53, i64 0, i32 1, i32 0, i32 0, i32 0, i32 0, i32 0, i32 1
  store i64 0, i64* %62, align 8
  br label %65

63:                                               ; preds = %51
  %64 = bitcast %"class.std::__1::basic_string"* %54 to i8*
  store i8 0, i8* %64, align 2
  store i8 0, i8* %56, align 1
  br label %65

65:                                               ; preds = %45, %59, %63
  ret void
}

; Function Attrs: nounwind ssp uwtable
define hidden i8* @_ZN8perfetto6protos23ProfilePacket_Histogram14_InternalParseEPKcPN6google8protobuf8internal12ParseContextE(%"class.perfetto::protos::ProfilePacket_Histogram"*, i8*, %"class.google::protobuf::internal::ParseContext"*) unnamed_addr #0 align 2 {
  %4 = getelementptr inbounds %"class.google::protobuf::internal::ParseContext", %"class.google::protobuf::internal::ParseContext"* %2, i64 0, i32 0
  %5 = getelementptr inbounds %"class.google::protobuf::internal::ParseContext", %"class.google::protobuf::internal::ParseContext"* %2, i64 0, i32 2
  %6 = getelementptr inbounds %"class.google::protobuf::internal::ParseContext", %"class.google::protobuf::internal::ParseContext"* %2, i64 0, i32 0, i32 0
  %7 = getelementptr inbounds %"class.google::protobuf::internal::ParseContext", %"class.google::protobuf::internal::ParseContext"* %2, i64 0, i32 0, i32 1
  %8 = bitcast i8** %7 to i64*
  %9 = getelementptr inbounds %"class.google::protobuf::internal::ParseContext", %"class.google::protobuf::internal::ParseContext"* %2, i64 0, i32 0, i32 4
  %10 = getelementptr inbounds %"class.perfetto::protos::ProfilePacket_Histogram", %"class.perfetto::protos::ProfilePacket_Histogram"* %0, i64 0, i32 0, i32 1
  %11 = bitcast %"class.google::protobuf::internal::InternalMetadata"* %10 to i64*
  %12 = getelementptr inbounds %"class.perfetto::protos::ProfilePacket_Histogram", %"class.perfetto::protos::ProfilePacket_Histogram"* %0, i64 0, i32 1
  %13 = getelementptr inbounds %"class.google::protobuf::RepeatedPtrField", %"class.google::protobuf::RepeatedPtrField"* %12, i64 0, i32 0
  %14 = getelementptr inbounds %"class.perfetto::protos::ProfilePacket_Histogram", %"class.perfetto::protos::ProfilePacket_Histogram"* %0, i64 0, i32 1, i32 0, i32 3
  %15 = getelementptr inbounds %"class.perfetto::protos::ProfilePacket_Histogram", %"class.perfetto::protos::ProfilePacket_Histogram"* %0, i64 0, i32 1, i32 0, i32 1
  %16 = getelementptr inbounds %"class.perfetto::protos::ProfilePacket_Histogram", %"class.perfetto::protos::ProfilePacket_Histogram"* %0, i64 0, i32 1, i32 0, i32 2
  %17 = getelementptr inbounds %"class.google::protobuf::RepeatedPtrField", %"class.google::protobuf::RepeatedPtrField"* %12, i64 0, i32 0, i32 0
  br label %18

18:                                               ; preds = %135, %3
  %19 = phi i8* [ %1, %3 ], [ %136, %135 ]
  %20 = load i32, i32* %5, align 4
  %21 = load i8*, i8** %6, align 8
  %22 = icmp ult i8* %19, %21
  br i1 %22, label %36, label %23, !prof !2

23:                                               ; preds = %18
  %24 = load i64, i64* %8, align 8
  %25 = ptrtoint i8* %19 to i64
  %26 = sub i64 %25, %24
  %27 = load i32, i32* %9, align 4
  %28 = sext i32 %27 to i64
  %29 = icmp eq i64 %26, %28
  br i1 %29, label %137, label %30

30:                                               ; preds = %23
  %31 = tail call { i8*, i8 } @_ZN6google8protobuf8internal18EpsCopyInputStream12DoneFallbackEPKci(%"class.google::protobuf::internal::EpsCopyInputStream"* %4, i8* %19, i32 %20) #14
  %32 = extractvalue { i8*, i8 } %31, 0
  %33 = extractvalue { i8*, i8 } %31, 1
  %34 = and i8 %33, 1
  %35 = icmp eq i8 %34, 0
  br i1 %35, label %36, label %137

36:                                               ; preds = %30, %18
  %37 = phi i8* [ %32, %30 ], [ %19, %18 ]
  %38 = load i8, i8* %37, align 1
  %39 = zext i8 %38 to i32
  %40 = icmp sgt i8 %38, -1
  %41 = getelementptr inbounds i8, i8* %37, i64 1
  br i1 %40, label %55, label %42

42:                                               ; preds = %36
  %43 = load i8, i8* %41, align 1
  %44 = zext i8 %43 to i32
  %45 = shl nuw nsw i32 %44, 7
  %46 = add nsw i32 %39, -128
  %47 = add nsw i32 %46, %45
  %48 = icmp sgt i8 %43, -1
  br i1 %48, label %49, label %51

49:                                               ; preds = %42
  %50 = getelementptr inbounds i8, i8* %37, i64 2
  br label %55

51:                                               ; preds = %42
  %52 = tail call { i8*, i32 } @_ZN6google8protobuf8internal15ReadTagFallbackEPKcj(i8* %37, i32 %47) #14
  %53 = extractvalue { i8*, i32 } %52, 0
  %54 = extractvalue { i8*, i32 } %52, 1
  br label %55

55:                                               ; preds = %36, %49, %51
  %56 = phi i32 [ %47, %49 ], [ %54, %51 ], [ %39, %36 ]
  %57 = phi i8* [ %50, %49 ], [ %53, %51 ], [ %41, %36 ]
  %58 = icmp eq i8* %57, null
  br i1 %58, label %137, label %59, !prof !4

59:                                               ; preds = %55
  %60 = icmp eq i32 %56, 10
  br i1 %60, label %61, label %113, !prof !7

61:                                               ; preds = %59
  %62 = getelementptr inbounds i8, i8* %57, i64 -1
  br label %63

63:                                               ; preds = %110, %61
  %64 = phi i8* [ %62, %61 ], [ %105, %110 ]
  %65 = getelementptr inbounds i8, i8* %64, i64 1
  %66 = load %"struct.google::protobuf::internal::RepeatedPtrFieldBase::Rep"*, %"struct.google::protobuf::internal::RepeatedPtrFieldBase::Rep"** %14, align 8
  %67 = icmp eq %"struct.google::protobuf::internal::RepeatedPtrFieldBase::Rep"* %66, null
  br i1 %67, label %68, label %70

68:                                               ; preds = %63
  %69 = load i32, i32* %16, align 4
  br label %84

70:                                               ; preds = %63
  %71 = load i32, i32* %15, align 8
  %72 = getelementptr inbounds %"struct.google::protobuf::internal::RepeatedPtrFieldBase::Rep", %"struct.google::protobuf::internal::RepeatedPtrFieldBase::Rep"* %66, i64 0, i32 0
  %73 = load i32, i32* %72, align 8
  %74 = icmp slt i32 %71, %73
  br i1 %74, label %75, label %81

75:                                               ; preds = %70
  %76 = add nsw i32 %71, 1
  store i32 %76, i32* %15, align 8
  %77 = sext i32 %71 to i64
  %78 = getelementptr inbounds %"struct.google::protobuf::internal::RepeatedPtrFieldBase::Rep", %"struct.google::protobuf::internal::RepeatedPtrFieldBase::Rep"* %66, i64 0, i32 1, i64 %77
  %79 = bitcast i8** %78 to %"class.perfetto::protos::ProfilePacket_Histogram_Bucket"**
  %80 = load %"class.perfetto::protos::ProfilePacket_Histogram_Bucket"*, %"class.perfetto::protos::ProfilePacket_Histogram_Bucket"** %79, align 8
  br label %103

81:                                               ; preds = %70
  %82 = load i32, i32* %16, align 4
  %83 = icmp eq i32 %73, %82
  br i1 %83, label %84, label %90

84:                                               ; preds = %81, %68
  %85 = phi i32 [ %69, %68 ], [ %73, %81 ]
  %86 = add nsw i32 %85, 1
  tail call void @_ZN6google8protobuf8internal20RepeatedPtrFieldBase7ReserveEi(%"class.google::protobuf::internal::RepeatedPtrFieldBase"* %13, i32 %86) #14
  %87 = load %"struct.google::protobuf::internal::RepeatedPtrFieldBase::Rep"*, %"struct.google::protobuf::internal::RepeatedPtrFieldBase::Rep"** %14, align 8
  %88 = getelementptr inbounds %"struct.google::protobuf::internal::RepeatedPtrFieldBase::Rep", %"struct.google::protobuf::internal::RepeatedPtrFieldBase::Rep"* %87, i64 0, i32 0
  %89 = load i32, i32* %88, align 8
  br label %90

90:                                               ; preds = %84, %81
  %91 = phi i32 [ %89, %84 ], [ %73, %81 ]
  %92 = phi %"struct.google::protobuf::internal::RepeatedPtrFieldBase::Rep"* [ %87, %84 ], [ %66, %81 ]
  %93 = getelementptr inbounds %"struct.google::protobuf::internal::RepeatedPtrFieldBase::Rep", %"struct.google::protobuf::internal::RepeatedPtrFieldBase::Rep"* %92, i64 0, i32 0
  %94 = add nsw i32 %91, 1
  store i32 %94, i32* %93, align 8
  %95 = load %"class.google::protobuf::Arena"*, %"class.google::protobuf::Arena"** %17, align 8
  %96 = tail call %"class.perfetto::protos::ProfilePacket_Histogram_Bucket"* @_ZN6google8protobuf5Arena18CreateMaybeMessageIN8perfetto6protos30ProfilePacket_Histogram_BucketEJEEEPT_PS1_DpOT0_(%"class.google::protobuf::Arena"* %95) #14
  %97 = load %"struct.google::protobuf::internal::RepeatedPtrFieldBase::Rep"*, %"struct.google::protobuf::internal::RepeatedPtrFieldBase::Rep"** %14, align 8
  %98 = load i32, i32* %15, align 8
  %99 = add nsw i32 %98, 1
  store i32 %99, i32* %15, align 8
  %100 = sext i32 %98 to i64
  %101 = getelementptr inbounds %"struct.google::protobuf::internal::RepeatedPtrFieldBase::Rep", %"struct.google::protobuf::internal::RepeatedPtrFieldBase::Rep"* %97, i64 0, i32 1, i64 %100
  %102 = bitcast i8** %101 to %"class.perfetto::protos::ProfilePacket_Histogram_Bucket"**
  store %"class.perfetto::protos::ProfilePacket_Histogram_Bucket"* %96, %"class.perfetto::protos::ProfilePacket_Histogram_Bucket"** %102, align 8
  br label %103

103:                                              ; preds = %75, %90
  %104 = phi %"class.perfetto::protos::ProfilePacket_Histogram_Bucket"* [ %80, %75 ], [ %96, %90 ]
  %105 = tail call i8* @_ZN6google8protobuf8internal12ParseContext12ParseMessageIN8perfetto6protos30ProfilePacket_Histogram_BucketEEEPKcPT_S8_(%"class.google::protobuf::internal::ParseContext"* %2, %"class.perfetto::protos::ProfilePacket_Histogram_Bucket"* %104, i8* %65)
  %106 = icmp eq i8* %105, null
  br i1 %106, label %137, label %107, !prof !4

107:                                              ; preds = %103
  %108 = load i8*, i8** %6, align 8
  %109 = icmp ugt i8* %108, %105
  br i1 %109, label %110, label %135

110:                                              ; preds = %107
  %111 = load i8, i8* %105, align 1
  %112 = icmp eq i8 %111, 10
  br i1 %112, label %63, label %135

113:                                              ; preds = %59
  %114 = and i32 %56, 7
  %115 = icmp eq i32 %114, 4
  %116 = icmp eq i32 %56, 0
  %117 = or i1 %116, %115
  br i1 %117, label %118, label %121

118:                                              ; preds = %113
  %119 = add i32 %56, -1
  %120 = getelementptr inbounds %"class.google::protobuf::internal::ParseContext", %"class.google::protobuf::internal::ParseContext"* %2, i64 0, i32 0, i32 8
  store i32 %119, i32* %120, align 8
  br label %137

121:                                              ; preds = %113
  %122 = load i64, i64* %11, align 8
  %123 = and i64 %122, 1
  %124 = icmp eq i64 %123, 0
  br i1 %124, label %129, label %125, !prof !4

125:                                              ; preds = %121
  %126 = and i64 %122, -2
  %127 = inttoptr i64 %126 to %"struct.google::protobuf::internal::InternalMetadata::Container"*
  %128 = getelementptr inbounds %"struct.google::protobuf::internal::InternalMetadata::Container", %"struct.google::protobuf::internal::InternalMetadata::Container"* %127, i64 0, i32 1
  br label %131

129:                                              ; preds = %121
  %130 = tail call %"class.std::__1::basic_string"* @_ZN6google8protobuf8internal16InternalMetadata27mutable_unknown_fields_slowINSt3__112basic_stringIcNS4_11char_traitsIcEENS4_9allocatorIcEEEEEEPT_v(%"class.google::protobuf::internal::InternalMetadata"* %10) #14
  br label %131

131:                                              ; preds = %125, %129
  %132 = phi %"class.std::__1::basic_string"* [ %128, %125 ], [ %130, %129 ]
  %133 = tail call i8* @_ZN6google8protobuf8internal17UnknownFieldParseEjPNSt3__112basic_stringIcNS2_11char_traitsIcEENS2_9allocatorIcEEEEPKcPNS1_12ParseContextE(i32 %56, %"class.std::__1::basic_string"* %132, i8* nonnull %57, %"class.google::protobuf::internal::ParseContext"* %2) #14
  %134 = icmp eq i8* %133, null
  br i1 %134, label %137, label %135

135:                                              ; preds = %110, %107, %131
  %136 = phi i8* [ %133, %131 ], [ %105, %107 ], [ %105, %110 ]
  br label %18

137:                                              ; preds = %30, %131, %23, %55, %103, %118
  %138 = phi i8* [ %57, %118 ], [ null, %103 ], [ null, %131 ], [ %19, %23 ], [ null, %55 ], [ %32, %30 ]
  ret i8* %138
}

; Function Attrs: nounwind ssp uwtable
define linkonce_odr hidden i8* @_ZN6google8protobuf8internal12ParseContext12ParseMessageIN8perfetto6protos30ProfilePacket_Histogram_BucketEEEPKcPT_S8_(%"class.google::protobuf::internal::ParseContext"*, %"class.perfetto::protos::ProfilePacket_Histogram_Bucket"*, i8*) local_unnamed_addr #0 comdat align 2 {
  %4 = load i8, i8* %2, align 1
  %5 = zext i8 %4 to i32
  %6 = icmp sgt i8 %4, -1
  br i1 %6, label %7, label %9

7:                                                ; preds = %3
  %8 = getelementptr inbounds i8, i8* %2, i64 1
  br label %13

9:                                                ; preds = %3
  %10 = tail call { i8*, i32 } @_ZN6google8protobuf8internal16ReadSizeFallbackEPKcj(i8* %2, i32 %5) #14
  %11 = extractvalue { i8*, i32 } %10, 0
  %12 = extractvalue { i8*, i32 } %10, 1
  br label %13

13:                                               ; preds = %7, %9
  %14 = phi i8* [ %11, %9 ], [ %8, %7 ]
  %15 = phi i32 [ %12, %9 ], [ %5, %7 ]
  %16 = icmp eq i8* %14, null
  br i1 %16, label %55, label %17

17:                                               ; preds = %13
  %18 = getelementptr inbounds %"class.google::protobuf::internal::ParseContext", %"class.google::protobuf::internal::ParseContext"* %0, i64 0, i32 0, i32 1
  %19 = bitcast i8** %18 to i64*
  %20 = load i64, i64* %19, align 8
  %21 = ptrtoint i8* %14 to i64
  %22 = sub i64 %21, %20
  %23 = trunc i64 %22 to i32
  %24 = add nsw i32 %15, %23
  %25 = inttoptr i64 %20 to i8*
  %26 = icmp slt i32 %24, 0
  %27 = select i1 %26, i32 %24, i32 0
  %28 = sext i32 %27 to i64
  %29 = getelementptr inbounds i8, i8* %25, i64 %28
  %30 = getelementptr inbounds %"class.google::protobuf::internal::ParseContext", %"class.google::protobuf::internal::ParseContext"* %0, i64 0, i32 0, i32 0
  store i8* %29, i8** %30, align 8
  %31 = getelementptr inbounds %"class.google::protobuf::internal::ParseContext", %"class.google::protobuf::internal::ParseContext"* %0, i64 0, i32 0, i32 4
  %32 = load i32, i32* %31, align 4
  store i32 %24, i32* %31, align 4
  %33 = sub nsw i32 %32, %24
  %34 = getelementptr inbounds %"class.google::protobuf::internal::ParseContext", %"class.google::protobuf::internal::ParseContext"* %0, i64 0, i32 1
  %35 = load i32, i32* %34, align 8
  %36 = add nsw i32 %35, -1
  store i32 %36, i32* %34, align 8
  %37 = icmp slt i32 %35, 1
  br i1 %37, label %55, label %38

38:                                               ; preds = %17
  %39 = tail call i8* @_ZN8perfetto6protos30ProfilePacket_Histogram_Bucket14_InternalParseEPKcPN6google8protobuf8internal12ParseContextE(%"class.perfetto::protos::ProfilePacket_Histogram_Bucket"* %1, i8* nonnull %14, %"class.google::protobuf::internal::ParseContext"* %0)
  %40 = icmp eq i8* %39, null
  br i1 %40, label %55, label %41, !prof !4

41:                                               ; preds = %38
  %42 = load i32, i32* %34, align 8
  %43 = add nsw i32 %42, 1
  store i32 %43, i32* %34, align 8
  %44 = getelementptr inbounds %"class.google::protobuf::internal::ParseContext", %"class.google::protobuf::internal::ParseContext"* %0, i64 0, i32 0, i32 8
  %45 = load i32, i32* %44, align 8
  %46 = icmp eq i32 %45, 0
  br i1 %46, label %47, label %55, !prof !2

47:                                               ; preds = %41
  %48 = load i32, i32* %31, align 4
  %49 = add nsw i32 %48, %33
  store i32 %49, i32* %31, align 4
  %50 = load i8*, i8** %18, align 8
  %51 = icmp slt i32 %49, 0
  %52 = select i1 %51, i32 %49, i32 0
  %53 = sext i32 %52 to i64
  %54 = getelementptr inbounds i8, i8* %50, i64 %53
  store i8* %54, i8** %30, align 8
  br label %55

55:                                               ; preds = %13, %38, %17, %41, %47
  %56 = phi i8* [ %39, %47 ], [ null, %41 ], [ null, %17 ], [ null, %38 ], [ null, %13 ]
  ret i8* %56
}

; Function Attrs: nounwind ssp uwtable
define hidden i8* @_ZNK8perfetto6protos23ProfilePacket_Histogram18_InternalSerializeEPhPN6google8protobuf2io19EpsCopyOutputStreamE(%"class.perfetto::protos::ProfilePacket_Histogram"* nocapture readonly, i8*, %"class.google::protobuf::io::EpsCopyOutputStream"*) unnamed_addr #0 align 2 {
  %4 = getelementptr inbounds %"class.perfetto::protos::ProfilePacket_Histogram", %"class.perfetto::protos::ProfilePacket_Histogram"* %0, i64 0, i32 1, i32 0, i32 1
  %5 = load i32, i32* %4, align 8
  %6 = icmp eq i32 %5, 0
  br i1 %6, label %10, label %7

7:                                                ; preds = %3
  %8 = getelementptr inbounds %"class.google::protobuf::io::EpsCopyOutputStream", %"class.google::protobuf::io::EpsCopyOutputStream"* %2, i64 0, i32 0
  %9 = getelementptr inbounds %"class.perfetto::protos::ProfilePacket_Histogram", %"class.perfetto::protos::ProfilePacket_Histogram"* %0, i64 0, i32 1, i32 0, i32 3
  br label %17

10:                                               ; preds = %59, %3
  %11 = phi i8* [ %1, %3 ], [ %61, %59 ]
  %12 = getelementptr inbounds %"class.perfetto::protos::ProfilePacket_Histogram", %"class.perfetto::protos::ProfilePacket_Histogram"* %0, i64 0, i32 0, i32 1
  %13 = bitcast %"class.google::protobuf::internal::InternalMetadata"* %12 to i64*
  %14 = load i64, i64* %13, align 8
  %15 = and i64 %14, 1
  %16 = icmp eq i64 %15, 0
  br i1 %16, label %95, label %64, !prof !2

17:                                               ; preds = %59, %7
  %18 = phi i32 [ 0, %7 ], [ %62, %59 ]
  %19 = phi i8* [ %1, %7 ], [ %61, %59 ]
  %20 = load i8*, i8** %8, align 8
  %21 = icmp ugt i8* %20, %19
  br i1 %21, label %24, label %22, !prof !2

22:                                               ; preds = %17
  %23 = tail call i8* @_ZN6google8protobuf2io19EpsCopyOutputStream19EnsureSpaceFallbackEPh(%"class.google::protobuf::io::EpsCopyOutputStream"* %2, i8* %19) #14
  br label %24

24:                                               ; preds = %17, %22
  %25 = phi i8* [ %23, %22 ], [ %19, %17 ]
  %26 = load %"struct.google::protobuf::internal::RepeatedPtrFieldBase::Rep"*, %"struct.google::protobuf::internal::RepeatedPtrFieldBase::Rep"** %9, align 8
  %27 = sext i32 %18 to i64
  %28 = getelementptr inbounds %"struct.google::protobuf::internal::RepeatedPtrFieldBase::Rep", %"struct.google::protobuf::internal::RepeatedPtrFieldBase::Rep"* %26, i64 0, i32 1, i64 %27
  %29 = bitcast i8** %28 to %"class.perfetto::protos::ProfilePacket_Histogram_Bucket"**
  %30 = load %"class.perfetto::protos::ProfilePacket_Histogram_Bucket"*, %"class.perfetto::protos::ProfilePacket_Histogram_Bucket"** %29, align 8
  store i8 10, i8* %25, align 1
  %31 = getelementptr inbounds i8, i8* %25, i64 1
  %32 = getelementptr inbounds %"class.perfetto::protos::ProfilePacket_Histogram_Bucket", %"class.perfetto::protos::ProfilePacket_Histogram_Bucket"* %30, i64 0, i32 2, i32 0, i32 0, i32 0, i32 0, i32 0, i32 0
  %33 = load atomic i32, i32* %32 monotonic, align 4
  %34 = icmp ult i32 %33, 128
  %35 = trunc i32 %33 to i8
  br i1 %34, label %36, label %38

36:                                               ; preds = %24
  store i8 %35, i8* %31, align 1
  %37 = getelementptr inbounds i8, i8* %25, i64 2
  br label %59

38:                                               ; preds = %24
  %39 = or i8 %35, -128
  store i8 %39, i8* %31, align 1
  %40 = lshr i32 %33, 7
  %41 = icmp ult i32 %33, 16384
  br i1 %41, label %42, label %46

42:                                               ; preds = %38
  %43 = trunc i32 %40 to i8
  %44 = getelementptr inbounds i8, i8* %25, i64 2
  store i8 %43, i8* %44, align 1
  %45 = getelementptr inbounds i8, i8* %25, i64 3
  br label %59

46:                                               ; preds = %38
  %47 = getelementptr inbounds i8, i8* %25, i64 2
  br label %48

48:                                               ; preds = %48, %46
  %49 = phi i32 [ %40, %46 ], [ %53, %48 ]
  %50 = phi i8* [ %47, %46 ], [ %54, %48 ]
  %51 = trunc i32 %49 to i8
  %52 = or i8 %51, -128
  store i8 %52, i8* %50, align 1
  %53 = lshr i32 %49, 7
  %54 = getelementptr inbounds i8, i8* %50, i64 1
  %55 = icmp ugt i32 %49, 16383
  br i1 %55, label %48, label %56, !prof !4

56:                                               ; preds = %48
  %57 = trunc i32 %53 to i8
  %58 = getelementptr inbounds i8, i8* %50, i64 2
  store i8 %57, i8* %54, align 1
  br label %59

59:                                               ; preds = %36, %42, %56
  %60 = phi i8* [ %37, %36 ], [ %45, %42 ], [ %58, %56 ]
  %61 = tail call i8* @_ZNK8perfetto6protos30ProfilePacket_Histogram_Bucket18_InternalSerializeEPhPN6google8protobuf2io19EpsCopyOutputStreamE(%"class.perfetto::protos::ProfilePacket_Histogram_Bucket"* %30, i8* %60, %"class.google::protobuf::io::EpsCopyOutputStream"* %2) #14
  %62 = add nuw i32 %18, 1
  %63 = icmp eq i32 %62, %5
  br i1 %63, label %10, label %17

64:                                               ; preds = %10
  %65 = and i64 %14, -2
  %66 = inttoptr i64 %65 to %"struct.google::protobuf::internal::InternalMetadata::Container"*
  %67 = getelementptr inbounds %"struct.google::protobuf::internal::InternalMetadata::Container", %"struct.google::protobuf::internal::InternalMetadata::Container"* %66, i64 0, i32 1
  %68 = bitcast %"class.std::__1::basic_string"* %67 to %"struct.std::__1::basic_string<char, std::__1::char_traits<char>, std::__1::allocator<char> >::__short"*
  %69 = getelementptr inbounds %"struct.std::__1::basic_string<char, std::__1::char_traits<char>, std::__1::allocator<char> >::__short", %"struct.std::__1::basic_string<char, std::__1::char_traits<char>, std::__1::allocator<char> >::__short"* %68, i64 0, i32 1, i32 0
  %70 = load i8, i8* %69, align 1
  %71 = icmp slt i8 %70, 0
  br i1 %71, label %72, label %77

72:                                               ; preds = %64
  %73 = getelementptr inbounds %"class.std::__1::basic_string", %"class.std::__1::basic_string"* %67, i64 0, i32 0, i32 0, i32 0, i32 0, i32 0, i32 0
  %74 = load i8*, i8** %73, align 8
  %75 = getelementptr inbounds %"struct.google::protobuf::internal::InternalMetadata::Container", %"struct.google::protobuf::internal::InternalMetadata::Container"* %66, i64 0, i32 1, i32 0, i32 0, i32 0, i32 0, i32 0, i32 1
  %76 = load i64, i64* %75, align 8
  br label %80

77:                                               ; preds = %64
  %78 = bitcast %"class.std::__1::basic_string"* %67 to i8*
  %79 = zext i8 %70 to i64
  br label %80

80:                                               ; preds = %72, %77
  %81 = phi i8* [ %74, %72 ], [ %78, %77 ]
  %82 = phi i64 [ %76, %72 ], [ %79, %77 ]
  %83 = bitcast %"class.google::protobuf::io::EpsCopyOutputStream"* %2 to i64*
  %84 = load i64, i64* %83, align 8
  %85 = ptrtoint i8* %11 to i64
  %86 = sub i64 %84, %85
  %87 = shl i64 %82, 32
  %88 = ashr exact i64 %87, 32
  %89 = icmp slt i64 %86, %88
  br i1 %89, label %90, label %93, !prof !4

90:                                               ; preds = %80
  %91 = trunc i64 %82 to i32
  %92 = tail call i8* @_ZN6google8protobuf2io19EpsCopyOutputStream16WriteRawFallbackEPKviPh(%"class.google::protobuf::io::EpsCopyOutputStream"* %2, i8* %81, i32 %91, i8* %11) #14
  br label %95

93:                                               ; preds = %80
  tail call void @llvm.memcpy.p0i8.p0i8.i64(i8* align 1 %11, i8* align 1 %81, i64 %88, i1 false) #14
  %94 = getelementptr inbounds i8, i8* %11, i64 %88
  br label %95

95:                                               ; preds = %10, %93, %90
  %96 = phi i8* [ %11, %10 ], [ %92, %90 ], [ %94, %93 ]
  ret i8* %96
}

; Function Attrs: nounwind ssp uwtable
define hidden i64 @_ZNK8perfetto6protos23ProfilePacket_Histogram12ByteSizeLongEv(%"class.perfetto::protos::ProfilePacket_Histogram"* nocapture) unnamed_addr #0 align 2 {
  %2 = getelementptr inbounds %"class.perfetto::protos::ProfilePacket_Histogram", %"class.perfetto::protos::ProfilePacket_Histogram"* %0, i64 0, i32 1, i32 0, i32 1
  %3 = load i32, i32* %2, align 8
  %4 = sext i32 %3 to i64
  %5 = getelementptr inbounds %"class.perfetto::protos::ProfilePacket_Histogram", %"class.perfetto::protos::ProfilePacket_Histogram"* %0, i64 0, i32 1, i32 0, i32 3
  %6 = load %"struct.google::protobuf::internal::RepeatedPtrFieldBase::Rep"*, %"struct.google::protobuf::internal::RepeatedPtrFieldBase::Rep"** %5, align 8
  %7 = icmp eq %"struct.google::protobuf::internal::RepeatedPtrFieldBase::Rep"* %6, null
  %8 = getelementptr inbounds %"struct.google::protobuf::internal::RepeatedPtrFieldBase::Rep", %"struct.google::protobuf::internal::RepeatedPtrFieldBase::Rep"* %6, i64 0, i32 1, i64 0
  %9 = select i1 %7, i8** null, i8** %8
  %10 = getelementptr inbounds i8*, i8** %9, i64 %4
  %11 = icmp eq i32 %3, 0
  br i1 %11, label %12, label %19

12:                                               ; preds = %85, %1
  %13 = phi i64 [ 0, %1 ], [ %97, %85 ]
  %14 = getelementptr inbounds %"class.perfetto::protos::ProfilePacket_Histogram", %"class.perfetto::protos::ProfilePacket_Histogram"* %0, i64 0, i32 0, i32 1
  %15 = bitcast %"class.google::protobuf::internal::InternalMetadata"* %14 to i64*
  %16 = load i64, i64* %15, align 8
  %17 = and i64 %16, 1
  %18 = icmp eq i64 %17, 0
  br i1 %18, label %116, label %100, !prof !2

19:                                               ; preds = %1, %85
  %20 = phi i64 [ %97, %85 ], [ %4, %1 ]
  %21 = phi i8** [ %98, %85 ], [ %9, %1 ]
  %22 = bitcast i8** %21 to %"class.perfetto::protos::ProfilePacket_Histogram_Bucket"**
  %23 = load %"class.perfetto::protos::ProfilePacket_Histogram_Bucket"*, %"class.perfetto::protos::ProfilePacket_Histogram_Bucket"** %22, align 8
  %24 = getelementptr inbounds %"class.perfetto::protos::ProfilePacket_Histogram_Bucket", %"class.perfetto::protos::ProfilePacket_Histogram_Bucket"* %23, i64 0, i32 1, i32 0, i64 0
  %25 = load i32, i32* %24, align 4
  %26 = and i32 %25, 7
  %27 = icmp eq i32 %26, 0
  br i1 %27, label %62, label %28

28:                                               ; preds = %19
  %29 = and i32 %25, 1
  %30 = icmp eq i32 %29, 0
  br i1 %30, label %41, label %31

31:                                               ; preds = %28
  %32 = getelementptr inbounds %"class.perfetto::protos::ProfilePacket_Histogram_Bucket", %"class.perfetto::protos::ProfilePacket_Histogram_Bucket"* %23, i64 0, i32 3
  %33 = load i64, i64* %32, align 8
  %34 = or i64 %33, 1
  %35 = tail call i64 @llvm.ctlz.i64(i64 %34, i1 true) #14, !range !5
  %36 = xor i64 %35, 63
  %37 = mul nuw nsw i64 %36, 9
  %38 = add nuw nsw i64 %37, 73
  %39 = lshr i64 %38, 6
  %40 = add nuw nsw i64 %39, 1
  br label %41

41:                                               ; preds = %31, %28
  %42 = phi i64 [ %40, %31 ], [ 0, %28 ]
  %43 = and i32 %25, 2
  %44 = icmp eq i32 %43, 0
  br i1 %44, label %56, label %45

45:                                               ; preds = %41
  %46 = getelementptr inbounds %"class.perfetto::protos::ProfilePacket_Histogram_Bucket", %"class.perfetto::protos::ProfilePacket_Histogram_Bucket"* %23, i64 0, i32 4
  %47 = load i64, i64* %46, align 8
  %48 = or i64 %47, 1
  %49 = tail call i64 @llvm.ctlz.i64(i64 %48, i1 true) #14, !range !5
  %50 = xor i64 %49, 63
  %51 = mul nuw nsw i64 %50, 9
  %52 = add nuw nsw i64 %51, 73
  %53 = lshr i64 %52, 6
  %54 = add nuw nsw i64 %42, 1
  %55 = add nuw nsw i64 %54, %53
  br label %56

56:                                               ; preds = %45, %41
  %57 = phi i64 [ %55, %45 ], [ %42, %41 ]
  %58 = and i32 %25, 4
  %59 = icmp eq i32 %58, 0
  %60 = add nuw nsw i64 %57, 2
  %61 = select i1 %59, i64 %57, i64 %60
  br label %62

62:                                               ; preds = %56, %19
  %63 = phi i64 [ 0, %19 ], [ %61, %56 ]
  %64 = getelementptr inbounds %"class.perfetto::protos::ProfilePacket_Histogram_Bucket", %"class.perfetto::protos::ProfilePacket_Histogram_Bucket"* %23, i64 0, i32 0, i32 1
  %65 = bitcast %"class.google::protobuf::internal::InternalMetadata"* %64 to i64*
  %66 = load i64, i64* %65, align 8
  %67 = and i64 %66, 1
  %68 = icmp eq i64 %67, 0
  br i1 %68, label %85, label %69, !prof !2

69:                                               ; preds = %62
  %70 = and i64 %66, -2
  %71 = inttoptr i64 %70 to %"struct.google::protobuf::internal::InternalMetadata::Container"*
  %72 = getelementptr inbounds %"struct.google::protobuf::internal::InternalMetadata::Container", %"struct.google::protobuf::internal::InternalMetadata::Container"* %71, i64 0, i32 1
  %73 = bitcast %"class.std::__1::basic_string"* %72 to %"struct.std::__1::basic_string<char, std::__1::char_traits<char>, std::__1::allocator<char> >::__short"*
  %74 = getelementptr inbounds %"struct.std::__1::basic_string<char, std::__1::char_traits<char>, std::__1::allocator<char> >::__short", %"struct.std::__1::basic_string<char, std::__1::char_traits<char>, std::__1::allocator<char> >::__short"* %73, i64 0, i32 1, i32 0
  %75 = load i8, i8* %74, align 1
  %76 = icmp slt i8 %75, 0
  br i1 %76, label %77, label %80

77:                                               ; preds = %69
  %78 = getelementptr inbounds %"struct.google::protobuf::internal::InternalMetadata::Container", %"struct.google::protobuf::internal::InternalMetadata::Container"* %71, i64 0, i32 1, i32 0, i32 0, i32 0, i32 0, i32 0, i32 1
  %79 = load i64, i64* %78, align 8
  br label %82

80:                                               ; preds = %69
  %81 = zext i8 %75 to i64
  br label %82

82:                                               ; preds = %80, %77
  %83 = phi i64 [ %79, %77 ], [ %81, %80 ]
  %84 = add i64 %83, %63
  br label %85

85:                                               ; preds = %62, %82
  %86 = phi i64 [ %84, %82 ], [ %63, %62 ]
  %87 = trunc i64 %86 to i32
  %88 = getelementptr inbounds %"class.perfetto::protos::ProfilePacket_Histogram_Bucket", %"class.perfetto::protos::ProfilePacket_Histogram_Bucket"* %23, i64 0, i32 2, i32 0, i32 0, i32 0, i32 0, i32 0, i32 0
  store atomic i32 %87, i32* %88 monotonic, align 4
  %89 = or i32 %87, 1
  %90 = tail call i32 @llvm.ctlz.i32(i32 %89, i1 true) #14, !range !8
  %91 = xor i32 %90, 31
  %92 = mul nuw nsw i32 %91, 9
  %93 = add nuw nsw i32 %92, 73
  %94 = lshr i32 %93, 6
  %95 = zext i32 %94 to i64
  %96 = add i64 %86, %20
  %97 = add i64 %96, %95
  %98 = getelementptr inbounds i8*, i8** %21, i64 1
  %99 = icmp eq i8** %98, %10
  br i1 %99, label %12, label %19

100:                                              ; preds = %12
  %101 = and i64 %16, -2
  %102 = inttoptr i64 %101 to %"struct.google::protobuf::internal::InternalMetadata::Container"*
  %103 = getelementptr inbounds %"struct.google::protobuf::internal::InternalMetadata::Container", %"struct.google::protobuf::internal::InternalMetadata::Container"* %102, i64 0, i32 1
  %104 = bitcast %"class.std::__1::basic_string"* %103 to %"struct.std::__1::basic_string<char, std::__1::char_traits<char>, std::__1::allocator<char> >::__short"*
  %105 = getelementptr inbounds %"struct.std::__1::basic_string<char, std::__1::char_traits<char>, std::__1::allocator<char> >::__short", %"struct.std::__1::basic_string<char, std::__1::char_traits<char>, std::__1::allocator<char> >::__short"* %104, i64 0, i32 1, i32 0
  %106 = load i8, i8* %105, align 1
  %107 = icmp slt i8 %106, 0
  br i1 %107, label %108, label %111

108:                                              ; preds = %100
  %109 = getelementptr inbounds %"struct.google::protobuf::internal::InternalMetadata::Container", %"struct.google::protobuf::internal::InternalMetadata::Container"* %102, i64 0, i32 1, i32 0, i32 0, i32 0, i32 0, i32 0, i32 1
  %110 = load i64, i64* %109, align 8
  br label %113

111:                                              ; preds = %100
  %112 = zext i8 %106 to i64
  br label %113

113:                                              ; preds = %108, %111
  %114 = phi i64 [ %110, %108 ], [ %112, %111 ]
  %115 = add i64 %114, %13
  br label %116

116:                                              ; preds = %12, %113
  %117 = phi i64 [ %115, %113 ], [ %13, %12 ]
  %118 = trunc i64 %117 to i32
  %119 = getelementptr inbounds %"class.perfetto::protos::ProfilePacket_Histogram", %"class.perfetto::protos::ProfilePacket_Histogram"* %0, i64 0, i32 2, i32 0, i32 0, i32 0, i32 0, i32 0, i32 0
  store atomic i32 %118, i32* %119 monotonic, align 4
  ret i64 %117
}

; Function Attrs: nounwind ssp uwtable
define hidden void @_ZN8perfetto6protos23ProfilePacket_Histogram21CheckTypeAndMergeFromERKN6google8protobuf11MessageLiteE(%"class.perfetto::protos::ProfilePacket_Histogram"*, %"class.google::protobuf::MessageLite"* nocapture readonly dereferenceable(16)) unnamed_addr #0 align 2 {
  %3 = bitcast %"class.google::protobuf::MessageLite"* %1 to %"class.perfetto::protos::ProfilePacket_Histogram"*
  tail call void @_ZN8perfetto6protos23ProfilePacket_Histogram9MergeFromERKS1_(%"class.perfetto::protos::ProfilePacket_Histogram"* %0, %"class.perfetto::protos::ProfilePacket_Histogram"* dereferenceable(48) %3)
  ret void
}

; Function Attrs: nounwind ssp uwtable
define hidden void @_ZN8perfetto6protos23ProfilePacket_Histogram9MergeFromERKS1_(%"class.perfetto::protos::ProfilePacket_Histogram"*, %"class.perfetto::protos::ProfilePacket_Histogram"* nocapture readonly dereferenceable(48)) local_unnamed_addr #0 align 2 {
  %3 = getelementptr inbounds %"class.perfetto::protos::ProfilePacket_Histogram", %"class.perfetto::protos::ProfilePacket_Histogram"* %0, i64 0, i32 0, i32 1
  %4 = getelementptr inbounds %"class.perfetto::protos::ProfilePacket_Histogram", %"class.perfetto::protos::ProfilePacket_Histogram"* %1, i64 0, i32 0, i32 1
  %5 = bitcast %"class.google::protobuf::internal::InternalMetadata"* %4 to i64*
  %6 = load i64, i64* %5, align 8
  %7 = and i64 %6, 1
  %8 = icmp eq i64 %7, 0
  br i1 %8, label %38, label %9

9:                                                ; preds = %2
  %10 = and i64 %6, -2
  %11 = inttoptr i64 %10 to %"struct.google::protobuf::internal::InternalMetadata::Container"*
  %12 = getelementptr inbounds %"struct.google::protobuf::internal::InternalMetadata::Container", %"struct.google::protobuf::internal::InternalMetadata::Container"* %11, i64 0, i32 1
  %13 = bitcast %"class.google::protobuf::internal::InternalMetadata"* %3 to i64*
  %14 = load i64, i64* %13, align 8
  %15 = and i64 %14, 1
  %16 = icmp eq i64 %15, 0
  br i1 %16, label %21, label %17, !prof !4

17:                                               ; preds = %9
  %18 = and i64 %14, -2
  %19 = inttoptr i64 %18 to %"struct.google::protobuf::internal::InternalMetadata::Container"*
  %20 = getelementptr inbounds %"struct.google::protobuf::internal::InternalMetadata::Container", %"struct.google::protobuf::internal::InternalMetadata::Container"* %19, i64 0, i32 1
  br label %23

21:                                               ; preds = %9
  %22 = tail call %"class.std::__1::basic_string"* @_ZN6google8protobuf8internal16InternalMetadata27mutable_unknown_fields_slowINSt3__112basic_stringIcNS4_11char_traitsIcEENS4_9allocatorIcEEEEEEPT_v(%"class.google::protobuf::internal::InternalMetadata"* %3) #14
  br label %23

23:                                               ; preds = %21, %17
  %24 = phi %"class.std::__1::basic_string"* [ %20, %17 ], [ %22, %21 ]
  %25 = bitcast %"class.std::__1::basic_string"* %12 to %"struct.std::__1::basic_string<char, std::__1::char_traits<char>, std::__1::allocator<char> >::__short"*
  %26 = getelementptr inbounds %"struct.std::__1::basic_string<char, std::__1::char_traits<char>, std::__1::allocator<char> >::__short", %"struct.std::__1::basic_string<char, std::__1::char_traits<char>, std::__1::allocator<char> >::__short"* %25, i64 0, i32 1, i32 0
  %27 = load i8, i8* %26, align 1
  %28 = icmp slt i8 %27, 0
  %29 = getelementptr inbounds %"class.std::__1::basic_string", %"class.std::__1::basic_string"* %12, i64 0, i32 0, i32 0, i32 0, i32 0, i32 0, i32 0
  %30 = load i8*, i8** %29, align 8
  %31 = getelementptr inbounds %"struct.google::protobuf::internal::InternalMetadata::Container", %"struct.google::protobuf::internal::InternalMetadata::Container"* %11, i64 0, i32 1, i32 0, i32 0, i32 0, i32 0, i32 0, i32 1
  %32 = load i64, i64* %31, align 8
  %33 = bitcast %"class.std::__1::basic_string"* %12 to i8*
  %34 = zext i8 %27 to i64
  %35 = select i1 %28, i8* %30, i8* %33
  %36 = select i1 %28, i64 %32, i64 %34
  %37 = tail call dereferenceable(24) %"class.std::__1::basic_string"* @_ZNSt3__112basic_stringIcNS_11char_traitsIcEENS_9allocatorIcEEE6appendEPKcm(%"class.std::__1::basic_string"* %24, i8* %35, i64 %36) #14
  br label %38

38:                                               ; preds = %2, %23
  %39 = getelementptr inbounds %"class.perfetto::protos::ProfilePacket_Histogram", %"class.perfetto::protos::ProfilePacket_Histogram"* %0, i64 0, i32 1
  %40 = getelementptr inbounds %"class.perfetto::protos::ProfilePacket_Histogram", %"class.perfetto::protos::ProfilePacket_Histogram"* %1, i64 0, i32 1, i32 0, i32 1
  %41 = load i32, i32* %40, align 8
  %42 = icmp eq i32 %41, 0
  br i1 %42, label %98, label %43

43:                                               ; preds = %38
  %44 = getelementptr inbounds %"class.google::protobuf::RepeatedPtrField", %"class.google::protobuf::RepeatedPtrField"* %39, i64 0, i32 0
  %45 = getelementptr inbounds %"class.perfetto::protos::ProfilePacket_Histogram", %"class.perfetto::protos::ProfilePacket_Histogram"* %1, i64 0, i32 1, i32 0, i32 3
  %46 = load %"struct.google::protobuf::internal::RepeatedPtrFieldBase::Rep"*, %"struct.google::protobuf::internal::RepeatedPtrFieldBase::Rep"** %45, align 8
  %47 = tail call i8** @_ZN6google8protobuf8internal20RepeatedPtrFieldBase14InternalExtendEi(%"class.google::protobuf::internal::RepeatedPtrFieldBase"* %44, i32 %41) #14
  %48 = getelementptr inbounds %"class.perfetto::protos::ProfilePacket_Histogram", %"class.perfetto::protos::ProfilePacket_Histogram"* %0, i64 0, i32 1, i32 0, i32 3
  %49 = load %"struct.google::protobuf::internal::RepeatedPtrFieldBase::Rep"*, %"struct.google::protobuf::internal::RepeatedPtrFieldBase::Rep"** %48, align 8
  %50 = getelementptr inbounds %"struct.google::protobuf::internal::RepeatedPtrFieldBase::Rep", %"struct.google::protobuf::internal::RepeatedPtrFieldBase::Rep"* %49, i64 0, i32 0
  %51 = load i32, i32* %50, align 8
  %52 = getelementptr inbounds %"class.perfetto::protos::ProfilePacket_Histogram", %"class.perfetto::protos::ProfilePacket_Histogram"* %0, i64 0, i32 1, i32 0, i32 1
  %53 = load i32, i32* %52, align 8
  %54 = sub i32 %51, %53
  %55 = icmp sgt i32 %54, 0
  %56 = icmp sgt i32 %41, 0
  %57 = and i1 %56, %55
  br i1 %57, label %58, label %61

58:                                               ; preds = %43
  %59 = sext i32 %41 to i64
  %60 = sext i32 %54 to i64
  br label %67

61:                                               ; preds = %67, %43
  %62 = getelementptr inbounds %"class.google::protobuf::RepeatedPtrField", %"class.google::protobuf::RepeatedPtrField"* %39, i64 0, i32 0, i32 0
  %63 = load %"class.google::protobuf::Arena"*, %"class.google::protobuf::Arena"** %62, align 8
  %64 = icmp slt i32 %54, %41
  br i1 %64, label %65, label %90

65:                                               ; preds = %61
  %66 = sext i32 %54 to i64
  br label %79

67:                                               ; preds = %67, %58
  %68 = phi i64 [ 0, %58 ], [ %75, %67 ]
  %69 = getelementptr inbounds %"struct.google::protobuf::internal::RepeatedPtrFieldBase::Rep", %"struct.google::protobuf::internal::RepeatedPtrFieldBase::Rep"* %46, i64 0, i32 1, i64 %68
  %70 = bitcast i8** %69 to %"class.perfetto::protos::ProfilePacket_Histogram_Bucket"**
  %71 = load %"class.perfetto::protos::ProfilePacket_Histogram_Bucket"*, %"class.perfetto::protos::ProfilePacket_Histogram_Bucket"** %70, align 8
  %72 = getelementptr inbounds i8*, i8** %47, i64 %68
  %73 = bitcast i8** %72 to %"class.perfetto::protos::ProfilePacket_Histogram_Bucket"**
  %74 = load %"class.perfetto::protos::ProfilePacket_Histogram_Bucket"*, %"class.perfetto::protos::ProfilePacket_Histogram_Bucket"** %73, align 8
  tail call void @_ZN6google8protobuf8internal18GenericTypeHandlerIN8perfetto6protos30ProfilePacket_Histogram_BucketEE5MergeERKS5_PS5_(%"class.perfetto::protos::ProfilePacket_Histogram_Bucket"* dereferenceable(48) %71, %"class.perfetto::protos::ProfilePacket_Histogram_Bucket"* %74) #14
  %75 = add nuw nsw i64 %68, 1
  %76 = icmp slt i64 %75, %60
  %77 = icmp slt i64 %75, %59
  %78 = and i1 %76, %77
  br i1 %78, label %67, label %61

79:                                               ; preds = %79, %65
  %80 = phi i64 [ %66, %65 ], [ %87, %79 ]
  %81 = getelementptr inbounds %"struct.google::protobuf::internal::RepeatedPtrFieldBase::Rep", %"struct.google::protobuf::internal::RepeatedPtrFieldBase::Rep"* %46, i64 0, i32 1, i64 %80
  %82 = bitcast i8** %81 to %"class.perfetto::protos::ProfilePacket_Histogram_Bucket"**
  %83 = load %"class.perfetto::protos::ProfilePacket_Histogram_Bucket"*, %"class.perfetto::protos::ProfilePacket_Histogram_Bucket"** %82, align 8
  %84 = tail call %"class.perfetto::protos::ProfilePacket_Histogram_Bucket"* @_ZN6google8protobuf5Arena18CreateMaybeMessageIN8perfetto6protos30ProfilePacket_Histogram_BucketEJEEEPT_PS1_DpOT0_(%"class.google::protobuf::Arena"* %63) #14
  tail call void @_ZN6google8protobuf8internal18GenericTypeHandlerIN8perfetto6protos30ProfilePacket_Histogram_BucketEE5MergeERKS5_PS5_(%"class.perfetto::protos::ProfilePacket_Histogram_Bucket"* dereferenceable(48) %83, %"class.perfetto::protos::ProfilePacket_Histogram_Bucket"* %84) #14
  %85 = getelementptr inbounds i8*, i8** %47, i64 %80
  %86 = bitcast i8** %85 to %"class.perfetto::protos::ProfilePacket_Histogram_Bucket"**
  store %"class.perfetto::protos::ProfilePacket_Histogram_Bucket"* %84, %"class.perfetto::protos::ProfilePacket_Histogram_Bucket"** %86, align 8
  %87 = add nsw i64 %80, 1
  %88 = trunc i64 %87 to i32
  %89 = icmp eq i32 %41, %88
  br i1 %89, label %90, label %79

90:                                               ; preds = %79, %61
  %91 = load i32, i32* %52, align 8
  %92 = add nsw i32 %91, %41
  store i32 %92, i32* %52, align 8
  %93 = load %"struct.google::protobuf::internal::RepeatedPtrFieldBase::Rep"*, %"struct.google::protobuf::internal::RepeatedPtrFieldBase::Rep"** %48, align 8
  %94 = getelementptr inbounds %"struct.google::protobuf::internal::RepeatedPtrFieldBase::Rep", %"struct.google::protobuf::internal::RepeatedPtrFieldBase::Rep"* %93, i64 0, i32 0
  %95 = load i32, i32* %94, align 8
  %96 = icmp slt i32 %95, %92
  br i1 %96, label %97, label %98

97:                                               ; preds = %90
  store i32 %92, i32* %94, align 8
  br label %98

98:                                               ; preds = %38, %90, %97
  ret void
}

; Function Attrs: nounwind ssp uwtable
define hidden void @_ZN8perfetto6protos23ProfilePacket_Histogram8CopyFromERKS1_(%"class.perfetto::protos::ProfilePacket_Histogram"*, %"class.perfetto::protos::ProfilePacket_Histogram"* readonly dereferenceable(48)) local_unnamed_addr #0 align 2 {
  %3 = icmp eq %"class.perfetto::protos::ProfilePacket_Histogram"* %1, %0
  br i1 %3, label %69, label %4

4:                                                ; preds = %2
  %5 = getelementptr inbounds %"class.perfetto::protos::ProfilePacket_Histogram", %"class.perfetto::protos::ProfilePacket_Histogram"* %0, i64 0, i32 1, i32 0, i32 1
  %6 = load i32, i32* %5, align 8
  %7 = icmp sgt i32 %6, 0
  br i1 %7, label %8, label %48

8:                                                ; preds = %4
  %9 = getelementptr inbounds %"class.perfetto::protos::ProfilePacket_Histogram", %"class.perfetto::protos::ProfilePacket_Histogram"* %0, i64 0, i32 1, i32 0, i32 3
  %10 = load %"struct.google::protobuf::internal::RepeatedPtrFieldBase::Rep"*, %"struct.google::protobuf::internal::RepeatedPtrFieldBase::Rep"** %9, align 8
  %11 = zext i32 %6 to i64
  br label %12

12:                                               ; preds = %45, %8
  %13 = phi i64 [ %14, %45 ], [ 0, %8 ]
  %14 = add nuw nsw i64 %13, 1
  %15 = getelementptr inbounds %"struct.google::protobuf::internal::RepeatedPtrFieldBase::Rep", %"struct.google::protobuf::internal::RepeatedPtrFieldBase::Rep"* %10, i64 0, i32 1, i64 %13
  %16 = bitcast i8** %15 to %"class.perfetto::protos::ProfilePacket_Histogram_Bucket"**
  %17 = load %"class.perfetto::protos::ProfilePacket_Histogram_Bucket"*, %"class.perfetto::protos::ProfilePacket_Histogram_Bucket"** %16, align 8
  %18 = getelementptr inbounds %"class.perfetto::protos::ProfilePacket_Histogram_Bucket", %"class.perfetto::protos::ProfilePacket_Histogram_Bucket"* %17, i64 0, i32 1, i32 0, i64 0
  %19 = load i32, i32* %18, align 4
  %20 = and i32 %19, 7
  %21 = icmp eq i32 %20, 0
  br i1 %21, label %25, label %22

22:                                               ; preds = %12
  %23 = getelementptr inbounds %"class.perfetto::protos::ProfilePacket_Histogram_Bucket", %"class.perfetto::protos::ProfilePacket_Histogram_Bucket"* %17, i64 0, i32 3
  %24 = bitcast i64* %23 to i8*
  tail call void @llvm.memset.p0i8.i64(i8* align 8 %24, i8 0, i64 17, i1 false) #14
  br label %25

25:                                               ; preds = %22, %12
  store i32 0, i32* %18, align 4
  %26 = getelementptr inbounds %"class.perfetto::protos::ProfilePacket_Histogram_Bucket", %"class.perfetto::protos::ProfilePacket_Histogram_Bucket"* %17, i64 0, i32 0, i32 1
  %27 = bitcast %"class.google::protobuf::internal::InternalMetadata"* %26 to i64*
  %28 = load i64, i64* %27, align 8
  %29 = and i64 %28, 1
  %30 = icmp eq i64 %29, 0
  br i1 %30, label %45, label %31

31:                                               ; preds = %25
  %32 = and i64 %28, -2
  %33 = inttoptr i64 %32 to %"struct.google::protobuf::internal::InternalMetadata::Container"*
  %34 = getelementptr inbounds %"struct.google::protobuf::internal::InternalMetadata::Container", %"struct.google::protobuf::internal::InternalMetadata::Container"* %33, i64 0, i32 1
  %35 = bitcast %"class.std::__1::basic_string"* %34 to %"struct.std::__1::basic_string<char, std::__1::char_traits<char>, std::__1::allocator<char> >::__short"*
  %36 = getelementptr inbounds %"struct.std::__1::basic_string<char, std::__1::char_traits<char>, std::__1::allocator<char> >::__short", %"struct.std::__1::basic_string<char, std::__1::char_traits<char>, std::__1::allocator<char> >::__short"* %35, i64 0, i32 1, i32 0
  %37 = load i8, i8* %36, align 1
  %38 = icmp slt i8 %37, 0
  br i1 %38, label %39, label %43

39:                                               ; preds = %31
  %40 = getelementptr inbounds %"class.std::__1::basic_string", %"class.std::__1::basic_string"* %34, i64 0, i32 0, i32 0, i32 0, i32 0, i32 0, i32 0
  %41 = load i8*, i8** %40, align 8
  store i8 0, i8* %41, align 1
  %42 = getelementptr inbounds %"struct.google::protobuf::internal::InternalMetadata::Container", %"struct.google::protobuf::internal::InternalMetadata::Container"* %33, i64 0, i32 1, i32 0, i32 0, i32 0, i32 0, i32 0, i32 1
  store i64 0, i64* %42, align 8
  br label %45

43:                                               ; preds = %31
  %44 = bitcast %"class.std::__1::basic_string"* %34 to i8*
  store i8 0, i8* %44, align 2
  store i8 0, i8* %36, align 1
  br label %45

45:                                               ; preds = %43, %39, %25
  %46 = icmp eq i64 %14, %11
  br i1 %46, label %47, label %12

47:                                               ; preds = %45
  store i32 0, i32* %5, align 8
  br label %48

48:                                               ; preds = %47, %4
  %49 = getelementptr inbounds %"class.perfetto::protos::ProfilePacket_Histogram", %"class.perfetto::protos::ProfilePacket_Histogram"* %0, i64 0, i32 0, i32 1
  %50 = bitcast %"class.google::protobuf::internal::InternalMetadata"* %49 to i64*
  %51 = load i64, i64* %50, align 8
  %52 = and i64 %51, 1
  %53 = icmp eq i64 %52, 0
  br i1 %53, label %68, label %54

54:                                               ; preds = %48
  %55 = and i64 %51, -2
  %56 = inttoptr i64 %55 to %"struct.google::protobuf::internal::InternalMetadata::Container"*
  %57 = getelementptr inbounds %"struct.google::protobuf::internal::InternalMetadata::Container", %"struct.google::protobuf::internal::InternalMetadata::Container"* %56, i64 0, i32 1
  %58 = bitcast %"class.std::__1::basic_string"* %57 to %"struct.std::__1::basic_string<char, std::__1::char_traits<char>, std::__1::allocator<char> >::__short"*
  %59 = getelementptr inbounds %"struct.std::__1::basic_string<char, std::__1::char_traits<char>, std::__1::allocator<char> >::__short", %"struct.std::__1::basic_string<char, std::__1::char_traits<char>, std::__1::allocator<char> >::__short"* %58, i64 0, i32 1, i32 0
  %60 = load i8, i8* %59, align 1
  %61 = icmp slt i8 %60, 0
  br i1 %61, label %62, label %66

62:                                               ; preds = %54
  %63 = getelementptr inbounds %"class.std::__1::basic_string", %"class.std::__1::basic_string"* %57, i64 0, i32 0, i32 0, i32 0, i32 0, i32 0, i32 0
  %64 = load i8*, i8** %63, align 8
  store i8 0, i8* %64, align 1
  %65 = getelementptr inbounds %"struct.google::protobuf::internal::InternalMetadata::Container", %"struct.google::protobuf::internal::InternalMetadata::Container"* %56, i64 0, i32 1, i32 0, i32 0, i32 0, i32 0, i32 0, i32 1
  store i64 0, i64* %65, align 8
  br label %68

66:                                               ; preds = %54
  %67 = bitcast %"class.std::__1::basic_string"* %57 to i8*
  store i8 0, i8* %67, align 2
  store i8 0, i8* %59, align 1
  br label %68

68:                                               ; preds = %48, %62, %66
  tail call void @_ZN8perfetto6protos23ProfilePacket_Histogram9MergeFromERKS1_(%"class.perfetto::protos::ProfilePacket_Histogram"* %0, %"class.perfetto::protos::ProfilePacket_Histogram"* dereferenceable(48) %1)
  br label %69

69:                                               ; preds = %2, %68
  ret void
}

; Function Attrs: norecurse nounwind readnone ssp uwtable
define hidden zeroext i1 @_ZNK8perfetto6protos23ProfilePacket_Histogram13IsInitializedEv(%"class.perfetto::protos::ProfilePacket_Histogram"* nocapture readnone) unnamed_addr #1 align 2 {
  ret i1 true
}

; Function Attrs: nounwind ssp uwtable
define hidden void @_ZN8perfetto6protos23ProfilePacket_Histogram12InternalSwapEPS1_(%"class.perfetto::protos::ProfilePacket_Histogram"*, %"class.perfetto::protos::ProfilePacket_Histogram"*) local_unnamed_addr #0 align 2 {
  %3 = getelementptr inbounds %"class.perfetto::protos::ProfilePacket_Histogram", %"class.perfetto::protos::ProfilePacket_Histogram"* %0, i64 0, i32 0, i32 1
  %4 = getelementptr inbounds %"class.perfetto::protos::ProfilePacket_Histogram", %"class.perfetto::protos::ProfilePacket_Histogram"* %1, i64 0, i32 0, i32 1
  %5 = bitcast %"class.google::protobuf::internal::InternalMetadata"* %3 to i64*
  %6 = load i64, i64* %5, align 8
  %7 = bitcast %"class.google::protobuf::internal::InternalMetadata"* %4 to i64*
  %8 = load i64, i64* %7, align 8
  %9 = or i64 %8, %6
  %10 = and i64 %9, 1
  %11 = icmp eq i64 %10, 0
  br i1 %11, label %43, label %12

12:                                               ; preds = %2
  %13 = and i64 %8, 1
  %14 = icmp eq i64 %13, 0
  br i1 %14, label %19, label %15, !prof !4

15:                                               ; preds = %12
  %16 = and i64 %8, -2
  %17 = inttoptr i64 %16 to %"struct.google::protobuf::internal::InternalMetadata::Container"*
  %18 = getelementptr inbounds %"struct.google::protobuf::internal::InternalMetadata::Container", %"struct.google::protobuf::internal::InternalMetadata::Container"* %17, i64 0, i32 1
  br label %22

19:                                               ; preds = %12
  %20 = tail call %"class.std::__1::basic_string"* @_ZN6google8protobuf8internal16InternalMetadata27mutable_unknown_fields_slowINSt3__112basic_stringIcNS4_11char_traitsIcEENS4_9allocatorIcEEEEEEPT_v(%"class.google::protobuf::internal::InternalMetadata"* %4) #14
  %21 = load i64, i64* %5, align 8
  br label %22

22:                                               ; preds = %19, %15
  %23 = phi i64 [ %6, %15 ], [ %21, %19 ]
  %24 = phi %"class.std::__1::basic_string"* [ %18, %15 ], [ %20, %19 ]
  %25 = and i64 %23, 1
  %26 = icmp eq i64 %25, 0
  br i1 %26, label %31, label %27, !prof !4

27:                                               ; preds = %22
  %28 = and i64 %23, -2
  %29 = inttoptr i64 %28 to %"struct.google::protobuf::internal::InternalMetadata::Container"*
  %30 = getelementptr inbounds %"struct.google::protobuf::internal::InternalMetadata::Container", %"struct.google::protobuf::internal::InternalMetadata::Container"* %29, i64 0, i32 1
  br label %33

31:                                               ; preds = %22
  %32 = tail call %"class.std::__1::basic_string"* @_ZN6google8protobuf8internal16InternalMetadata27mutable_unknown_fields_slowINSt3__112basic_stringIcNS4_11char_traitsIcEENS4_9allocatorIcEEEEEEPT_v(%"class.google::protobuf::internal::InternalMetadata"* %3) #14
  br label %33

33:                                               ; preds = %31, %27
  %34 = phi %"class.std::__1::basic_string"* [ %30, %27 ], [ %32, %31 ]
  %35 = bitcast %"class.std::__1::basic_string"* %34 to <2 x i64>*
  %36 = load <2 x i64>, <2 x i64>* %35, align 8
  %37 = getelementptr inbounds %"class.std::__1::basic_string", %"class.std::__1::basic_string"* %34, i64 0, i32 0, i32 0, i32 0, i32 0, i32 0, i32 2
  %38 = load i64, i64* %37, align 8
  %39 = bitcast %"class.std::__1::basic_string"* %34 to i8*
  %40 = bitcast %"class.std::__1::basic_string"* %24 to i8*
  tail call void @llvm.memcpy.p0i8.p0i8.i64(i8* align 8 %39, i8* align 8 %40, i64 24, i1 false) #14
  %41 = bitcast %"class.std::__1::basic_string"* %24 to <2 x i64>*
  store <2 x i64> %36, <2 x i64>* %41, align 8
  %42 = getelementptr inbounds %"class.std::__1::basic_string", %"class.std::__1::basic_string"* %24, i64 0, i32 0, i32 0, i32 0, i32 0, i32 0, i32 2
  store i64 %38, i64* %42, align 8
  br label %43

43:                                               ; preds = %2, %33
  %44 = getelementptr inbounds %"class.perfetto::protos::ProfilePacket_Histogram", %"class.perfetto::protos::ProfilePacket_Histogram"* %0, i64 0, i32 1, i32 0, i32 1
  %45 = bitcast i32* %44 to i8*
  %46 = getelementptr inbounds %"class.perfetto::protos::ProfilePacket_Histogram", %"class.perfetto::protos::ProfilePacket_Histogram"* %1, i64 0, i32 1, i32 0, i32 1
  %47 = bitcast i32* %46 to i8*
  %48 = bitcast i32* %44 to i128*
  %49 = load i128, i128* %48, align 1
  tail call void @llvm.memcpy.p0i8.p0i8.i64(i8* align 1 %45, i8* align 1 %47, i64 16, i1 false) #14
  %50 = bitcast i32* %46 to i128*
  store i128 %49, i128* %50, align 1
  ret void
}

; Function Attrs: nounwind ssp uwtable
define hidden void @_ZNK8perfetto6protos23ProfilePacket_Histogram11GetTypeNameEv(%"class.std::__1::basic_string"* noalias sret, %"class.perfetto::protos::ProfilePacket_Histogram"* nocapture readnone) unnamed_addr #0 align 2 {
  %3 = tail call i8* @_Znwm(i64 48) #15
  %4 = getelementptr inbounds %"class.std::__1::basic_string", %"class.std::__1::basic_string"* %0, i64 0, i32 0, i32 0, i32 0, i32 0, i32 0, i32 0
  store i8* %3, i8** %4, align 8
  %5 = getelementptr inbounds %"class.std::__1::basic_string", %"class.std::__1::basic_string"* %0, i64 0, i32 0, i32 0, i32 0, i32 0, i32 0, i32 1
  %6 = bitcast i64* %5 to <2 x i64>*
  store <2 x i64> <i64 39, i64 -9223372036854775760>, <2 x i64>* %6, align 8
  tail call void @llvm.memcpy.p0i8.p0i8.i64(i8* nonnull align 1 %3, i8* align 1 getelementptr inbounds ([40 x i8], [40 x i8]* @.str.12, i64 0, i64 0), i64 39, i1 false) #14
  %7 = getelementptr inbounds i8, i8* %3, i64 39
  store i8 0, i8* %7, align 1
  ret void
}

; Function Attrs: norecurse nounwind readonly ssp uwtable
define hidden dereferenceable(48) %"class.perfetto::protos::ProfilePacket_Histogram"* @_ZN8perfetto6protos26ProfilePacket_ProcessStats9_Internal17unwinding_time_usEPKS1_(%"class.perfetto::protos::ProfilePacket_ProcessStats"* nocapture readonly) local_unnamed_addr #7 align 2 {
  %2 = getelementptr inbounds %"class.perfetto::protos::ProfilePacket_ProcessStats", %"class.perfetto::protos::ProfilePacket_ProcessStats"* %0, i64 0, i32 3
  %3 = load %"class.perfetto::protos::ProfilePacket_Histogram"*, %"class.perfetto::protos::ProfilePacket_Histogram"** %2, align 8
  ret %"class.perfetto::protos::ProfilePacket_Histogram"* %3
}

; Function Attrs: nounwind ssp uwtable
define hidden void @_ZN8perfetto6protos26ProfilePacket_ProcessStatsC2EPN6google8protobuf5ArenaE(%"class.perfetto::protos::ProfilePacket_ProcessStats"* nocapture, %"class.google::protobuf::Arena"*) unnamed_addr #0 align 2 {
  %3 = getelementptr inbounds %"class.perfetto::protos::ProfilePacket_ProcessStats", %"class.perfetto::protos::ProfilePacket_ProcessStats"* %0, i64 0, i32 0, i32 0
  %4 = getelementptr inbounds %"class.perfetto::protos::ProfilePacket_ProcessStats", %"class.perfetto::protos::ProfilePacket_ProcessStats"* %0, i64 0, i32 0, i32 1
  %5 = bitcast %"class.google::protobuf::internal::InternalMetadata"* %4 to %"class.google::protobuf::Arena"**
  store %"class.google::protobuf::Arena"* %1, %"class.google::protobuf::Arena"** %5, align 8
  store i32 (...)** bitcast (i8** getelementptr inbounds ({ [16 x i8*] }, { [16 x i8*] }* @_ZTVN8perfetto6protos26ProfilePacket_ProcessStatsE, i64 0, inrange i32 0, i64 2) to i32 (...)**), i32 (...)*** %3, align 8
  %6 = getelementptr inbounds %"class.perfetto::protos::ProfilePacket_ProcessStats", %"class.perfetto::protos::ProfilePacket_ProcessStats"* %0, i64 0, i32 1, i32 0, i64 0
  store i32 0, i32* %6, align 4
  %7 = getelementptr inbounds %"class.perfetto::protos::ProfilePacket_ProcessStats", %"class.perfetto::protos::ProfilePacket_ProcessStats"* %0, i64 0, i32 2, i32 0, i32 0, i32 0, i32 0, i32 0, i32 0
  store i32 0, i32* %7, align 4
  %8 = load atomic i32, i32* getelementptr inbounds ({ { { { i32 } }, i32, i32, void ()* }, [1 x i8*] }, { { { { i32 } }, i32, i32, void ()* }, [1 x i8*] }* @scc_info_ProfilePacket_ProcessStats_protos_2fperfetto_2ftrace_2fprofiling_2fprofile_5fpacket_2eproto, i64 0, i32 0, i32 0, i32 0, i32 0) acquire, align 8
  %9 = icmp eq i32 %8, 0
  br i1 %9, label %11, label %10, !prof !2

10:                                               ; preds = %2
  tail call void @_ZN6google8protobuf8internal11InitSCCImplEPNS1_11SCCInfoBaseE(%"struct.google::protobuf::internal::SCCInfoBase"* bitcast ({ { { { i32 } }, i32, i32, void ()* }, [1 x i8*] }* @scc_info_ProfilePacket_ProcessStats_protos_2fperfetto_2ftrace_2fprofiling_2fprofile_5fpacket_2eproto to %"struct.google::protobuf::internal::SCCInfoBase"*)) #14
  br label %11

11:                                               ; preds = %2, %10
  %12 = getelementptr inbounds %"class.perfetto::protos::ProfilePacket_ProcessStats", %"class.perfetto::protos::ProfilePacket_ProcessStats"* %0, i64 0, i32 3
  %13 = bitcast %"class.perfetto::protos::ProfilePacket_Histogram"** %12 to i8*
  tail call void @llvm.memset.p0i8.i64(i8* align 1 %13, i8 0, i64 48, i1 false) #14
  ret void
}

; Function Attrs: nounwind ssp uwtable
define hidden void @_ZN8perfetto6protos26ProfilePacket_ProcessStatsC2ERKS1_(%"class.perfetto::protos::ProfilePacket_ProcessStats"*, %"class.perfetto::protos::ProfilePacket_ProcessStats"* nocapture readonly dereferenceable(72)) unnamed_addr #0 align 2 {
  %3 = getelementptr inbounds %"class.perfetto::protos::ProfilePacket_ProcessStats", %"class.perfetto::protos::ProfilePacket_ProcessStats"* %0, i64 0, i32 0, i32 0
  %4 = getelementptr inbounds %"class.perfetto::protos::ProfilePacket_ProcessStats", %"class.perfetto::protos::ProfilePacket_ProcessStats"* %0, i64 0, i32 0, i32 1, i32 0
  store i8* null, i8** %4, align 8
  store i32 (...)** bitcast (i8** getelementptr inbounds ({ [16 x i8*] }, { [16 x i8*] }* @_ZTVN8perfetto6protos26ProfilePacket_ProcessStatsE, i64 0, inrange i32 0, i64 2) to i32 (...)**), i32 (...)*** %3, align 8
  %5 = getelementptr inbounds %"class.perfetto::protos::ProfilePacket_ProcessStats", %"class.perfetto::protos::ProfilePacket_ProcessStats"* %1, i64 0, i32 1, i32 0, i64 0
  %6 = getelementptr inbounds %"class.perfetto::protos::ProfilePacket_ProcessStats", %"class.perfetto::protos::ProfilePacket_ProcessStats"* %0, i64 0, i32 1, i32 0, i64 0
  %7 = load i32, i32* %5, align 8
  store i32 %7, i32* %6, align 8
  %8 = getelementptr inbounds %"class.perfetto::protos::ProfilePacket_ProcessStats", %"class.perfetto::protos::ProfilePacket_ProcessStats"* %0, i64 0, i32 2, i32 0, i32 0, i32 0, i32 0, i32 0, i32 0
  store i32 0, i32* %8, align 4
  %9 = getelementptr inbounds %"class.perfetto::protos::ProfilePacket_ProcessStats", %"class.perfetto::protos::ProfilePacket_ProcessStats"* %1, i64 0, i32 0, i32 1
  %10 = bitcast %"class.google::protobuf::internal::InternalMetadata"* %9 to i64*
  %11 = load i64, i64* %10, align 8
  %12 = and i64 %11, 1
  %13 = icmp eq i64 %12, 0
  br i1 %13, label %33, label %14

14:                                               ; preds = %2
  %15 = getelementptr inbounds %"class.perfetto::protos::ProfilePacket_ProcessStats", %"class.perfetto::protos::ProfilePacket_ProcessStats"* %0, i64 0, i32 0, i32 1
  %16 = and i64 %11, -2
  %17 = inttoptr i64 %16 to %"struct.google::protobuf::internal::InternalMetadata::Container"*
  %18 = getelementptr inbounds %"struct.google::protobuf::internal::InternalMetadata::Container", %"struct.google::protobuf::internal::InternalMetadata::Container"* %17, i64 0, i32 1
  %19 = tail call %"class.std::__1::basic_string"* @_ZN6google8protobuf8internal16InternalMetadata27mutable_unknown_fields_slowINSt3__112basic_stringIcNS4_11char_traitsIcEENS4_9allocatorIcEEEEEEPT_v(%"class.google::protobuf::internal::InternalMetadata"* %15) #14
  %20 = bitcast %"class.std::__1::basic_string"* %18 to %"struct.std::__1::basic_string<char, std::__1::char_traits<char>, std::__1::allocator<char> >::__short"*
  %21 = getelementptr inbounds %"struct.std::__1::basic_string<char, std::__1::char_traits<char>, std::__1::allocator<char> >::__short", %"struct.std::__1::basic_string<char, std::__1::char_traits<char>, std::__1::allocator<char> >::__short"* %20, i64 0, i32 1, i32 0
  %22 = load i8, i8* %21, align 1
  %23 = icmp slt i8 %22, 0
  %24 = getelementptr inbounds %"class.std::__1::basic_string", %"class.std::__1::basic_string"* %18, i64 0, i32 0, i32 0, i32 0, i32 0, i32 0, i32 0
  %25 = load i8*, i8** %24, align 8
  %26 = getelementptr inbounds %"struct.google::protobuf::internal::InternalMetadata::Container", %"struct.google::protobuf::internal::InternalMetadata::Container"* %17, i64 0, i32 1, i32 0, i32 0, i32 0, i32 0, i32 0, i32 1
  %27 = load i64, i64* %26, align 8
  %28 = bitcast %"class.std::__1::basic_string"* %18 to i8*
  %29 = zext i8 %22 to i64
  %30 = select i1 %23, i8* %25, i8* %28
  %31 = select i1 %23, i64 %27, i64 %29
  %32 = tail call dereferenceable(24) %"class.std::__1::basic_string"* @_ZNSt3__112basic_stringIcNS_11char_traitsIcEENS_9allocatorIcEEE6appendEPKcm(%"class.std::__1::basic_string"* %19, i8* %30, i64 %31) #14
  br label %33

33:                                               ; preds = %2, %14
  %34 = load i32, i32* %5, align 4
  %35 = and i32 %34, 1
  %36 = icmp eq i32 %35, 0
  br i1 %36, label %44, label %37

37:                                               ; preds = %33
  %38 = getelementptr inbounds %"class.perfetto::protos::ProfilePacket_ProcessStats", %"class.perfetto::protos::ProfilePacket_ProcessStats"* %1, i64 0, i32 3
  %39 = load %"class.perfetto::protos::ProfilePacket_Histogram"*, %"class.perfetto::protos::ProfilePacket_Histogram"** %38, align 8, !nonnull !9
  %40 = tail call i8* @_Znwm(i64 48) #15
  %41 = bitcast i8* %40 to %"class.perfetto::protos::ProfilePacket_Histogram"*
  tail call void @_ZN8perfetto6protos23ProfilePacket_HistogramC2ERKS1_(%"class.perfetto::protos::ProfilePacket_Histogram"* nonnull %41, %"class.perfetto::protos::ProfilePacket_Histogram"* nonnull dereferenceable(48) %39)
  %42 = getelementptr inbounds %"class.perfetto::protos::ProfilePacket_ProcessStats", %"class.perfetto::protos::ProfilePacket_ProcessStats"* %0, i64 0, i32 3
  %43 = bitcast %"class.perfetto::protos::ProfilePacket_Histogram"** %42 to i8**
  store i8* %40, i8** %43, align 8
  br label %46

44:                                               ; preds = %33
  %45 = getelementptr inbounds %"class.perfetto::protos::ProfilePacket_ProcessStats", %"class.perfetto::protos::ProfilePacket_ProcessStats"* %0, i64 0, i32 3
  store %"class.perfetto::protos::ProfilePacket_Histogram"* null, %"class.perfetto::protos::ProfilePacket_Histogram"** %45, align 8
  br label %46

46:                                               ; preds = %44, %37
  %47 = getelementptr inbounds %"class.perfetto::protos::ProfilePacket_ProcessStats", %"class.perfetto::protos::ProfilePacket_ProcessStats"* %0, i64 0, i32 4
  %48 = bitcast i64* %47 to i8*
  %49 = getelementptr inbounds %"class.perfetto::protos::ProfilePacket_ProcessStats", %"class.perfetto::protos::ProfilePacket_ProcessStats"* %1, i64 0, i32 4
  %50 = bitcast i64* %49 to i8*
  tail call void @llvm.memcpy.p0i8.p0i8.i64(i8* align 8 %48, i8* align 8 %50, i64 40, i1 false)
  ret void
}

; Function Attrs: nobuiltin nofree
declare noalias nonnull i8* @_Znwm(i64) local_unnamed_addr #8

; Function Attrs: nounwind ssp uwtable
define hidden void @_ZN8perfetto6protos26ProfilePacket_ProcessStatsD2Ev(%"class.perfetto::protos::ProfilePacket_ProcessStats"*) unnamed_addr #0 align 2 {
  %2 = getelementptr inbounds %"class.perfetto::protos::ProfilePacket_ProcessStats", %"class.perfetto::protos::ProfilePacket_ProcessStats"* %0, i64 0, i32 0, i32 0
  store i32 (...)** bitcast (i8** getelementptr inbounds ({ [16 x i8*] }, { [16 x i8*] }* @_ZTVN8perfetto6protos26ProfilePacket_ProcessStatsE, i64 0, inrange i32 0, i64 2) to i32 (...)**), i32 (...)*** %2, align 8
  %3 = icmp eq %"class.perfetto::protos::ProfilePacket_ProcessStats"* %0, bitcast (%"class.perfetto::protos::ProfilePacket_ProcessStatsDefaultTypeInternal"* @_ZN8perfetto6protos45_ProfilePacket_ProcessStats_default_instance_E to %"class.perfetto::protos::ProfilePacket_ProcessStats"*)
  br i1 %3, label %13, label %4

4:                                                ; preds = %1
  %5 = getelementptr inbounds %"class.perfetto::protos::ProfilePacket_ProcessStats", %"class.perfetto::protos::ProfilePacket_ProcessStats"* %0, i64 0, i32 3
  %6 = load %"class.perfetto::protos::ProfilePacket_Histogram"*, %"class.perfetto::protos::ProfilePacket_Histogram"** %5, align 8
  %7 = icmp eq %"class.perfetto::protos::ProfilePacket_Histogram"* %6, null
  br i1 %7, label %13, label %8

8:                                                ; preds = %4
  %9 = bitcast %"class.perfetto::protos::ProfilePacket_Histogram"* %6 to void (%"class.perfetto::protos::ProfilePacket_Histogram"*)***
  %10 = load void (%"class.perfetto::protos::ProfilePacket_Histogram"*)**, void (%"class.perfetto::protos::ProfilePacket_Histogram"*)*** %9, align 8
  %11 = getelementptr inbounds void (%"class.perfetto::protos::ProfilePacket_Histogram"*)*, void (%"class.perfetto::protos::ProfilePacket_Histogram"*)** %10, i64 1
  %12 = load void (%"class.perfetto::protos::ProfilePacket_Histogram"*)*, void (%"class.perfetto::protos::ProfilePacket_Histogram"*)** %11, align 8
  tail call void %12(%"class.perfetto::protos::ProfilePacket_Histogram"* nonnull %6) #14
  br label %13

13:                                               ; preds = %1, %4, %8
  %14 = getelementptr inbounds %"class.perfetto::protos::ProfilePacket_ProcessStats", %"class.perfetto::protos::ProfilePacket_ProcessStats"* %0, i64 0, i32 0, i32 1
  %15 = bitcast %"class.google::protobuf::internal::InternalMetadata"* %14 to i64*
  %16 = load i64, i64* %15, align 8
  %17 = and i64 %16, 1
  %18 = icmp eq i64 %17, 0
  br i1 %18, label %39, label %19

19:                                               ; preds = %13
  %20 = and i64 %16, -2
  %21 = inttoptr i64 %20 to %"struct.google::protobuf::internal::InternalMetadata::ContainerBase"*
  %22 = getelementptr inbounds %"struct.google::protobuf::internal::InternalMetadata::ContainerBase", %"struct.google::protobuf::internal::InternalMetadata::ContainerBase"* %21, i64 0, i32 0
  %23 = load %"class.google::protobuf::Arena"*, %"class.google::protobuf::Arena"** %22, align 8
  %24 = icmp ne %"class.google::protobuf::Arena"* %23, null
  %25 = icmp eq i64 %20, 0
  %26 = or i1 %25, %24
  br i1 %26, label %39, label %27

27:                                               ; preds = %19
  %28 = inttoptr i64 %20 to %"struct.google::protobuf::internal::InternalMetadata::Container"*
  %29 = getelementptr inbounds %"struct.google::protobuf::internal::InternalMetadata::Container", %"struct.google::protobuf::internal::InternalMetadata::Container"* %28, i64 0, i32 1
  %30 = bitcast %"class.std::__1::basic_string"* %29 to %"struct.std::__1::basic_string<char, std::__1::char_traits<char>, std::__1::allocator<char> >::__short"*
  %31 = getelementptr inbounds %"struct.std::__1::basic_string<char, std::__1::char_traits<char>, std::__1::allocator<char> >::__short", %"struct.std::__1::basic_string<char, std::__1::char_traits<char>, std::__1::allocator<char> >::__short"* %30, i64 0, i32 1, i32 0
  %32 = load i8, i8* %31, align 1
  %33 = icmp slt i8 %32, 0
  br i1 %33, label %34, label %37

34:                                               ; preds = %27
  %35 = getelementptr inbounds %"class.std::__1::basic_string", %"class.std::__1::basic_string"* %29, i64 0, i32 0, i32 0, i32 0, i32 0, i32 0, i32 0
  %36 = load i8*, i8** %35, align 8
  tail call void @_ZdlPv(i8* %36) #15
  br label %37

37:                                               ; preds = %34, %27
  %38 = inttoptr i64 %20 to i8*
  tail call void @_ZdlPv(i8* %38) #15
  br label %39

39:                                               ; preds = %13, %19, %37
  ret void
}

; Function Attrs: nounwind ssp uwtable
define hidden void @_ZN8perfetto6protos26ProfilePacket_ProcessStatsD0Ev(%"class.perfetto::protos::ProfilePacket_ProcessStats"*) unnamed_addr #0 align 2 {
  %2 = getelementptr inbounds %"class.perfetto::protos::ProfilePacket_ProcessStats", %"class.perfetto::protos::ProfilePacket_ProcessStats"* %0, i64 0, i32 0, i32 0
  store i32 (...)** bitcast (i8** getelementptr inbounds ({ [16 x i8*] }, { [16 x i8*] }* @_ZTVN8perfetto6protos26ProfilePacket_ProcessStatsE, i64 0, inrange i32 0, i64 2) to i32 (...)**), i32 (...)*** %2, align 8
  %3 = icmp eq %"class.perfetto::protos::ProfilePacket_ProcessStats"* %0, bitcast (%"class.perfetto::protos::ProfilePacket_ProcessStatsDefaultTypeInternal"* @_ZN8perfetto6protos45_ProfilePacket_ProcessStats_default_instance_E to %"class.perfetto::protos::ProfilePacket_ProcessStats"*)
  br i1 %3, label %13, label %4

4:                                                ; preds = %1
  %5 = getelementptr inbounds %"class.perfetto::protos::ProfilePacket_ProcessStats", %"class.perfetto::protos::ProfilePacket_ProcessStats"* %0, i64 0, i32 3
  %6 = load %"class.perfetto::protos::ProfilePacket_Histogram"*, %"class.perfetto::protos::ProfilePacket_Histogram"** %5, align 8
  %7 = icmp eq %"class.perfetto::protos::ProfilePacket_Histogram"* %6, null
  br i1 %7, label %13, label %8

8:                                                ; preds = %4
  %9 = bitcast %"class.perfetto::protos::ProfilePacket_Histogram"* %6 to void (%"class.perfetto::protos::ProfilePacket_Histogram"*)***
  %10 = load void (%"class.perfetto::protos::ProfilePacket_Histogram"*)**, void (%"class.perfetto::protos::ProfilePacket_Histogram"*)*** %9, align 8
  %11 = getelementptr inbounds void (%"class.perfetto::protos::ProfilePacket_Histogram"*)*, void (%"class.perfetto::protos::ProfilePacket_Histogram"*)** %10, i64 1
  %12 = load void (%"class.perfetto::protos::ProfilePacket_Histogram"*)*, void (%"class.perfetto::protos::ProfilePacket_Histogram"*)** %11, align 8
  tail call void %12(%"class.perfetto::protos::ProfilePacket_Histogram"* nonnull %6) #14
  br label %13

13:                                               ; preds = %8, %4, %1
  %14 = getelementptr inbounds %"class.perfetto::protos::ProfilePacket_ProcessStats", %"class.perfetto::protos::ProfilePacket_ProcessStats"* %0, i64 0, i32 0, i32 1
  %15 = bitcast %"class.google::protobuf::internal::InternalMetadata"* %14 to i64*
  %16 = load i64, i64* %15, align 8
  %17 = and i64 %16, 1
  %18 = icmp eq i64 %17, 0
  br i1 %18, label %39, label %19

19:                                               ; preds = %13
  %20 = and i64 %16, -2
  %21 = inttoptr i64 %20 to %"struct.google::protobuf::internal::InternalMetadata::ContainerBase"*
  %22 = getelementptr inbounds %"struct.google::protobuf::internal::InternalMetadata::ContainerBase", %"struct.google::protobuf::internal::InternalMetadata::ContainerBase"* %21, i64 0, i32 0
  %23 = load %"class.google::protobuf::Arena"*, %"class.google::protobuf::Arena"** %22, align 8
  %24 = icmp ne %"class.google::protobuf::Arena"* %23, null
  %25 = icmp eq i64 %20, 0
  %26 = or i1 %25, %24
  br i1 %26, label %39, label %27

27:                                               ; preds = %19
  %28 = inttoptr i64 %20 to %"struct.google::protobuf::internal::InternalMetadata::Container"*
  %29 = getelementptr inbounds %"struct.google::protobuf::internal::InternalMetadata::Container", %"struct.google::protobuf::internal::InternalMetadata::Container"* %28, i64 0, i32 1
  %30 = bitcast %"class.std::__1::basic_string"* %29 to %"struct.std::__1::basic_string<char, std::__1::char_traits<char>, std::__1::allocator<char> >::__short"*
  %31 = getelementptr inbounds %"struct.std::__1::basic_string<char, std::__1::char_traits<char>, std::__1::allocator<char> >::__short", %"struct.std::__1::basic_string<char, std::__1::char_traits<char>, std::__1::allocator<char> >::__short"* %30, i64 0, i32 1, i32 0
  %32 = load i8, i8* %31, align 1
  %33 = icmp slt i8 %32, 0
  br i1 %33, label %34, label %37

34:                                               ; preds = %27
  %35 = getelementptr inbounds %"class.std::__1::basic_string", %"class.std::__1::basic_string"* %29, i64 0, i32 0, i32 0, i32 0, i32 0, i32 0, i32 0
  %36 = load i8*, i8** %35, align 8
  tail call void @_ZdlPv(i8* %36) #15
  br label %37

37:                                               ; preds = %34, %27
  %38 = inttoptr i64 %20 to i8*
  tail call void @_ZdlPv(i8* %38) #15
  br label %39

39:                                               ; preds = %13, %19, %37
  %40 = bitcast %"class.perfetto::protos::ProfilePacket_ProcessStats"* %0 to i8*
  tail call void @_ZdlPv(i8* %40) #15
  ret void
}

; Function Attrs: norecurse nounwind readnone ssp uwtable
define hidden void @_ZN8perfetto6protos26ProfilePacket_ProcessStats9ArenaDtorEPv(i8* nocapture) local_unnamed_addr #1 align 2 {
  ret void
}

; Function Attrs: nofree norecurse nounwind ssp uwtable
define hidden void @_ZNK8perfetto6protos26ProfilePacket_ProcessStats13SetCachedSizeEi(%"class.perfetto::protos::ProfilePacket_ProcessStats"* nocapture, i32) local_unnamed_addr #6 align 2 {
  %3 = getelementptr inbounds %"class.perfetto::protos::ProfilePacket_ProcessStats", %"class.perfetto::protos::ProfilePacket_ProcessStats"* %0, i64 0, i32 2, i32 0, i32 0, i32 0, i32 0, i32 0, i32 0
  store atomic i32 %1, i32* %3 monotonic, align 4
  ret void
}

; Function Attrs: nounwind ssp uwtable
define hidden dereferenceable(72) %"class.perfetto::protos::ProfilePacket_ProcessStats"* @_ZN8perfetto6protos26ProfilePacket_ProcessStats16default_instanceEv() local_unnamed_addr #0 align 2 {
  %1 = load atomic i32, i32* getelementptr inbounds ({ { { { i32 } }, i32, i32, void ()* }, [1 x i8*] }, { { { { i32 } }, i32, i32, void ()* }, [1 x i8*] }* @scc_info_ProfilePacket_ProcessStats_protos_2fperfetto_2ftrace_2fprofiling_2fprofile_5fpacket_2eproto, i64 0, i32 0, i32 0, i32 0, i32 0) acquire, align 8
  %2 = icmp eq i32 %1, 0
  br i1 %2, label %4, label %3, !prof !2

3:                                                ; preds = %0
  tail call void @_ZN6google8protobuf8internal11InitSCCImplEPNS1_11SCCInfoBaseE(%"struct.google::protobuf::internal::SCCInfoBase"* bitcast ({ { { { i32 } }, i32, i32, void ()* }, [1 x i8*] }* @scc_info_ProfilePacket_ProcessStats_protos_2fperfetto_2ftrace_2fprofiling_2fprofile_5fpacket_2eproto to %"struct.google::protobuf::internal::SCCInfoBase"*)) #14
  br label %4

4:                                                ; preds = %0, %3
  ret %"class.perfetto::protos::ProfilePacket_ProcessStats"* bitcast (%"class.perfetto::protos::ProfilePacket_ProcessStatsDefaultTypeInternal"* @_ZN8perfetto6protos45_ProfilePacket_ProcessStats_default_instance_E to %"class.perfetto::protos::ProfilePacket_ProcessStats"*)
}

; Function Attrs: nounwind ssp uwtable
define hidden void @_ZN8perfetto6protos26ProfilePacket_ProcessStats5ClearEv(%"class.perfetto::protos::ProfilePacket_ProcessStats"* nocapture) unnamed_addr #0 align 2 {
  %2 = getelementptr inbounds %"class.perfetto::protos::ProfilePacket_ProcessStats", %"class.perfetto::protos::ProfilePacket_ProcessStats"* %0, i64 0, i32 1, i32 0, i64 0
  %3 = load i32, i32* %2, align 4
  %4 = and i32 %3, 1
  %5 = icmp eq i32 %4, 0
  br i1 %5, label %72, label %6

6:                                                ; preds = %1
  %7 = getelementptr inbounds %"class.perfetto::protos::ProfilePacket_ProcessStats", %"class.perfetto::protos::ProfilePacket_ProcessStats"* %0, i64 0, i32 3
  %8 = load %"class.perfetto::protos::ProfilePacket_Histogram"*, %"class.perfetto::protos::ProfilePacket_Histogram"** %7, align 8
  %9 = getelementptr inbounds %"class.perfetto::protos::ProfilePacket_Histogram", %"class.perfetto::protos::ProfilePacket_Histogram"* %8, i64 0, i32 1, i32 0, i32 1
  %10 = load i32, i32* %9, align 8
  %11 = icmp sgt i32 %10, 0
  br i1 %11, label %12, label %52

12:                                               ; preds = %6
  %13 = getelementptr inbounds %"class.perfetto::protos::ProfilePacket_Histogram", %"class.perfetto::protos::ProfilePacket_Histogram"* %8, i64 0, i32 1, i32 0, i32 3
  %14 = load %"struct.google::protobuf::internal::RepeatedPtrFieldBase::Rep"*, %"struct.google::protobuf::internal::RepeatedPtrFieldBase::Rep"** %13, align 8
  %15 = zext i32 %10 to i64
  br label %16

16:                                               ; preds = %49, %12
  %17 = phi i64 [ %18, %49 ], [ 0, %12 ]
  %18 = add nuw nsw i64 %17, 1
  %19 = getelementptr inbounds %"struct.google::protobuf::internal::RepeatedPtrFieldBase::Rep", %"struct.google::protobuf::internal::RepeatedPtrFieldBase::Rep"* %14, i64 0, i32 1, i64 %17
  %20 = bitcast i8** %19 to %"class.perfetto::protos::ProfilePacket_Histogram_Bucket"**
  %21 = load %"class.perfetto::protos::ProfilePacket_Histogram_Bucket"*, %"class.perfetto::protos::ProfilePacket_Histogram_Bucket"** %20, align 8
  %22 = getelementptr inbounds %"class.perfetto::protos::ProfilePacket_Histogram_Bucket", %"class.perfetto::protos::ProfilePacket_Histogram_Bucket"* %21, i64 0, i32 1, i32 0, i64 0
  %23 = load i32, i32* %22, align 4
  %24 = and i32 %23, 7
  %25 = icmp eq i32 %24, 0
  br i1 %25, label %29, label %26

26:                                               ; preds = %16
  %27 = getelementptr inbounds %"class.perfetto::protos::ProfilePacket_Histogram_Bucket", %"class.perfetto::protos::ProfilePacket_Histogram_Bucket"* %21, i64 0, i32 3
  %28 = bitcast i64* %27 to i8*
  tail call void @llvm.memset.p0i8.i64(i8* align 8 %28, i8 0, i64 17, i1 false) #14
  br label %29

29:                                               ; preds = %26, %16
  store i32 0, i32* %22, align 4
  %30 = getelementptr inbounds %"class.perfetto::protos::ProfilePacket_Histogram_Bucket", %"class.perfetto::protos::ProfilePacket_Histogram_Bucket"* %21, i64 0, i32 0, i32 1
  %31 = bitcast %"class.google::protobuf::internal::InternalMetadata"* %30 to i64*
  %32 = load i64, i64* %31, align 8
  %33 = and i64 %32, 1
  %34 = icmp eq i64 %33, 0
  br i1 %34, label %49, label %35

35:                                               ; preds = %29
  %36 = and i64 %32, -2
  %37 = inttoptr i64 %36 to %"struct.google::protobuf::internal::InternalMetadata::Container"*
  %38 = getelementptr inbounds %"struct.google::protobuf::internal::InternalMetadata::Container", %"struct.google::protobuf::internal::InternalMetadata::Container"* %37, i64 0, i32 1
  %39 = bitcast %"class.std::__1::basic_string"* %38 to %"struct.std::__1::basic_string<char, std::__1::char_traits<char>, std::__1::allocator<char> >::__short"*
  %40 = getelementptr inbounds %"struct.std::__1::basic_string<char, std::__1::char_traits<char>, std::__1::allocator<char> >::__short", %"struct.std::__1::basic_string<char, std::__1::char_traits<char>, std::__1::allocator<char> >::__short"* %39, i64 0, i32 1, i32 0
  %41 = load i8, i8* %40, align 1
  %42 = icmp slt i8 %41, 0
  br i1 %42, label %43, label %47

43:                                               ; preds = %35
  %44 = getelementptr inbounds %"class.std::__1::basic_string", %"class.std::__1::basic_string"* %38, i64 0, i32 0, i32 0, i32 0, i32 0, i32 0, i32 0
  %45 = load i8*, i8** %44, align 8
  store i8 0, i8* %45, align 1
  %46 = getelementptr inbounds %"struct.google::protobuf::internal::InternalMetadata::Container", %"struct.google::protobuf::internal::InternalMetadata::Container"* %37, i64 0, i32 1, i32 0, i32 0, i32 0, i32 0, i32 0, i32 1
  store i64 0, i64* %46, align 8
  br label %49

47:                                               ; preds = %35
  %48 = bitcast %"class.std::__1::basic_string"* %38 to i8*
  store i8 0, i8* %48, align 2
  store i8 0, i8* %40, align 1
  br label %49

49:                                               ; preds = %47, %43, %29
  %50 = icmp eq i64 %18, %15
  br i1 %50, label %51, label %16

51:                                               ; preds = %49
  store i32 0, i32* %9, align 8
  br label %52

52:                                               ; preds = %51, %6
  %53 = getelementptr inbounds %"class.perfetto::protos::ProfilePacket_Histogram", %"class.perfetto::protos::ProfilePacket_Histogram"* %8, i64 0, i32 0, i32 1
  %54 = bitcast %"class.google::protobuf::internal::InternalMetadata"* %53 to i64*
  %55 = load i64, i64* %54, align 8
  %56 = and i64 %55, 1
  %57 = icmp eq i64 %56, 0
  br i1 %57, label %72, label %58

58:                                               ; preds = %52
  %59 = and i64 %55, -2
  %60 = inttoptr i64 %59 to %"struct.google::protobuf::internal::InternalMetadata::Container"*
  %61 = getelementptr inbounds %"struct.google::protobuf::internal::InternalMetadata::Container", %"struct.google::protobuf::internal::InternalMetadata::Container"* %60, i64 0, i32 1
  %62 = bitcast %"class.std::__1::basic_string"* %61 to %"struct.std::__1::basic_string<char, std::__1::char_traits<char>, std::__1::allocator<char> >::__short"*
  %63 = getelementptr inbounds %"struct.std::__1::basic_string<char, std::__1::char_traits<char>, std::__1::allocator<char> >::__short", %"struct.std::__1::basic_string<char, std::__1::char_traits<char>, std::__1::allocator<char> >::__short"* %62, i64 0, i32 1, i32 0
  %64 = load i8, i8* %63, align 1
  %65 = icmp slt i8 %64, 0
  br i1 %65, label %66, label %70

66:                                               ; preds = %58
  %67 = getelementptr inbounds %"class.std::__1::basic_string", %"class.std::__1::basic_string"* %61, i64 0, i32 0, i32 0, i32 0, i32 0, i32 0, i32 0
  %68 = load i8*, i8** %67, align 8
  store i8 0, i8* %68, align 1
  %69 = getelementptr inbounds %"struct.google::protobuf::internal::InternalMetadata::Container", %"struct.google::protobuf::internal::InternalMetadata::Container"* %60, i64 0, i32 1, i32 0, i32 0, i32 0, i32 0, i32 0, i32 1
  store i64 0, i64* %69, align 8
  br label %72

70:                                               ; preds = %58
  %71 = bitcast %"class.std::__1::basic_string"* %61 to i8*
  store i8 0, i8* %71, align 2
  store i8 0, i8* %63, align 1
  br label %72

72:                                               ; preds = %70, %66, %52, %1
  %73 = and i32 %3, 62
  %74 = icmp eq i32 %73, 0
  br i1 %74, label %78, label %75

75:                                               ; preds = %72
  %76 = getelementptr inbounds %"class.perfetto::protos::ProfilePacket_ProcessStats", %"class.perfetto::protos::ProfilePacket_ProcessStats"* %0, i64 0, i32 4
  %77 = bitcast i64* %76 to i8*
  tail call void @llvm.memset.p0i8.i64(i8* align 8 %77, i8 0, i64 40, i1 false)
  br label %78

78:                                               ; preds = %72, %75
  store i32 0, i32* %2, align 4
  %79 = getelementptr inbounds %"class.perfetto::protos::ProfilePacket_ProcessStats", %"class.perfetto::protos::ProfilePacket_ProcessStats"* %0, i64 0, i32 0, i32 1
  %80 = bitcast %"class.google::protobuf::internal::InternalMetadata"* %79 to i64*
  %81 = load i64, i64* %80, align 8
  %82 = and i64 %81, 1
  %83 = icmp eq i64 %82, 0
  br i1 %83, label %98, label %84

84:                                               ; preds = %78
  %85 = and i64 %81, -2
  %86 = inttoptr i64 %85 to %"struct.google::protobuf::internal::InternalMetadata::Container"*
  %87 = getelementptr inbounds %"struct.google::protobuf::internal::InternalMetadata::Container", %"struct.google::protobuf::internal::InternalMetadata::Container"* %86, i64 0, i32 1
  %88 = bitcast %"class.std::__1::basic_string"* %87 to %"struct.std::__1::basic_string<char, std::__1::char_traits<char>, std::__1::allocator<char> >::__short"*
  %89 = getelementptr inbounds %"struct.std::__1::basic_string<char, std::__1::char_traits<char>, std::__1::allocator<char> >::__short", %"struct.std::__1::basic_string<char, std::__1::char_traits<char>, std::__1::allocator<char> >::__short"* %88, i64 0, i32 1, i32 0
  %90 = load i8, i8* %89, align 1
  %91 = icmp slt i8 %90, 0
  br i1 %91, label %92, label %96

92:                                               ; preds = %84
  %93 = getelementptr inbounds %"class.std::__1::basic_string", %"class.std::__1::basic_string"* %87, i64 0, i32 0, i32 0, i32 0, i32 0, i32 0, i32 0
  %94 = load i8*, i8** %93, align 8
  store i8 0, i8* %94, align 1
  %95 = getelementptr inbounds %"struct.google::protobuf::internal::InternalMetadata::Container", %"struct.google::protobuf::internal::InternalMetadata::Container"* %86, i64 0, i32 1, i32 0, i32 0, i32 0, i32 0, i32 0, i32 1
  store i64 0, i64* %95, align 8
  br label %98

96:                                               ; preds = %84
  %97 = bitcast %"class.std::__1::basic_string"* %87 to i8*
  store i8 0, i8* %97, align 2
  store i8 0, i8* %89, align 1
  br label %98

98:                                               ; preds = %78, %92, %96
  ret void
}

; Function Attrs: nounwind ssp uwtable
define hidden i8* @_ZN8perfetto6protos26ProfilePacket_ProcessStats14_InternalParseEPKcPN6google8protobuf8internal12ParseContextE(%"class.perfetto::protos::ProfilePacket_ProcessStats"*, i8*, %"class.google::protobuf::internal::ParseContext"*) unnamed_addr #0 align 2 {
  %4 = getelementptr inbounds %"class.google::protobuf::internal::ParseContext", %"class.google::protobuf::internal::ParseContext"* %2, i64 0, i32 0
  %5 = getelementptr inbounds %"class.google::protobuf::internal::ParseContext", %"class.google::protobuf::internal::ParseContext"* %2, i64 0, i32 2
  %6 = getelementptr inbounds %"class.google::protobuf::internal::ParseContext", %"class.google::protobuf::internal::ParseContext"* %2, i64 0, i32 0, i32 0
  %7 = getelementptr inbounds %"class.google::protobuf::internal::ParseContext", %"class.google::protobuf::internal::ParseContext"* %2, i64 0, i32 0, i32 1
  %8 = bitcast i8** %7 to i64*
  %9 = getelementptr inbounds %"class.google::protobuf::internal::ParseContext", %"class.google::protobuf::internal::ParseContext"* %2, i64 0, i32 0, i32 4
  %10 = getelementptr inbounds %"class.perfetto::protos::ProfilePacket_ProcessStats", %"class.perfetto::protos::ProfilePacket_ProcessStats"* %0, i64 0, i32 8
  %11 = getelementptr inbounds %"class.perfetto::protos::ProfilePacket_ProcessStats", %"class.perfetto::protos::ProfilePacket_ProcessStats"* %0, i64 0, i32 7
  %12 = getelementptr inbounds %"class.perfetto::protos::ProfilePacket_ProcessStats", %"class.perfetto::protos::ProfilePacket_ProcessStats"* %0, i64 0, i32 1, i32 0, i64 0
  %13 = getelementptr inbounds %"class.perfetto::protos::ProfilePacket_ProcessStats", %"class.perfetto::protos::ProfilePacket_ProcessStats"* %0, i64 0, i32 3
  %14 = getelementptr inbounds %"class.perfetto::protos::ProfilePacket_ProcessStats", %"class.perfetto::protos::ProfilePacket_ProcessStats"* %0, i64 0, i32 0, i32 1
  %15 = bitcast %"class.google::protobuf::internal::InternalMetadata"* %14 to i64*
  %16 = getelementptr inbounds %"class.perfetto::protos::ProfilePacket_ProcessStats", %"class.perfetto::protos::ProfilePacket_ProcessStats"* %0, i64 0, i32 6
  %17 = getelementptr inbounds %"class.perfetto::protos::ProfilePacket_ProcessStats", %"class.perfetto::protos::ProfilePacket_ProcessStats"* %0, i64 0, i32 5
  %18 = getelementptr inbounds %"class.perfetto::protos::ProfilePacket_ProcessStats", %"class.perfetto::protos::ProfilePacket_ProcessStats"* %0, i64 0, i32 4
  br label %19

19:                                               ; preds = %241, %3
  %20 = phi i8* [ %1, %3 ], [ %242, %241 ]
  %21 = phi i32 [ 0, %3 ], [ %243, %241 ]
  br label %22

22:                                               ; preds = %266, %19
  %23 = phi i8* [ %20, %19 ], [ %267, %266 ]
  %24 = load i32, i32* %5, align 4
  %25 = load i8*, i8** %6, align 8
  %26 = icmp ult i8* %23, %25
  br i1 %26, label %40, label %27, !prof !2

27:                                               ; preds = %22
  %28 = load i64, i64* %8, align 8
  %29 = ptrtoint i8* %23 to i64
  %30 = sub i64 %29, %28
  %31 = load i32, i32* %9, align 4
  %32 = sext i32 %31 to i64
  %33 = icmp eq i64 %30, %32
  br i1 %33, label %268, label %34

34:                                               ; preds = %27
  %35 = tail call { i8*, i8 } @_ZN6google8protobuf8internal18EpsCopyInputStream12DoneFallbackEPKci(%"class.google::protobuf::internal::EpsCopyInputStream"* %4, i8* %23, i32 %24) #14
  %36 = extractvalue { i8*, i8 } %35, 0
  %37 = extractvalue { i8*, i8 } %35, 1
  %38 = and i8 %37, 1
  %39 = icmp eq i8 %38, 0
  br i1 %39, label %40, label %268

40:                                               ; preds = %34, %22
  %41 = phi i8* [ %36, %34 ], [ %23, %22 ]
  %42 = load i8, i8* %41, align 1
  %43 = zext i8 %42 to i32
  %44 = icmp sgt i8 %42, -1
  %45 = getelementptr inbounds i8, i8* %41, i64 1
  br i1 %44, label %59, label %46

46:                                               ; preds = %40
  %47 = load i8, i8* %45, align 1
  %48 = zext i8 %47 to i32
  %49 = shl nuw nsw i32 %48, 7
  %50 = add nsw i32 %43, -128
  %51 = add nsw i32 %50, %49
  %52 = icmp sgt i8 %47, -1
  br i1 %52, label %53, label %55

53:                                               ; preds = %46
  %54 = getelementptr inbounds i8, i8* %41, i64 2
  br label %59

55:                                               ; preds = %46
  %56 = tail call { i8*, i32 } @_ZN6google8protobuf8internal15ReadTagFallbackEPKcj(i8* %41, i32 %51) #14
  %57 = extractvalue { i8*, i32 } %56, 0
  %58 = extractvalue { i8*, i32 } %56, 1
  br label %59

59:                                               ; preds = %40, %53, %55
  %60 = phi i32 [ %51, %53 ], [ %58, %55 ], [ %43, %40 ]
  %61 = phi i8* [ %54, %53 ], [ %57, %55 ], [ %45, %40 ]
  %62 = icmp eq i8* %61, null
  br i1 %62, label %268, label %63, !prof !4

63:                                               ; preds = %59
  %64 = lshr i32 %60, 3
  switch i32 %64, label %244 [
    i32 1, label %65
    i32 2, label %95
    i32 3, label %125
    i32 4, label %155
    i32 5, label %181
    i32 6, label %211
  ]

65:                                               ; preds = %63
  %66 = and i32 %60, 255
  %67 = icmp eq i32 %66, 8
  br i1 %67, label %68, label %244, !prof !2

68:                                               ; preds = %65
  %69 = or i32 %21, 2
  %70 = load i8, i8* %61, align 1
  %71 = icmp slt i8 %70, 0
  br i1 %71, label %75, label %72

72:                                               ; preds = %68
  %73 = zext i8 %70 to i64
  %74 = getelementptr inbounds i8, i8* %61, i64 1
  br label %91

75:                                               ; preds = %68
  %76 = zext i8 %70 to i32
  %77 = getelementptr inbounds i8, i8* %61, i64 1
  %78 = load i8, i8* %77, align 1
  %79 = zext i8 %78 to i32
  %80 = shl nuw nsw i32 %79, 7
  %81 = add nsw i32 %76, -128
  %82 = add nuw nsw i32 %81, %80
  %83 = icmp slt i8 %78, 0
  br i1 %83, label %87, label %84

84:                                               ; preds = %75
  %85 = zext i32 %82 to i64
  %86 = getelementptr inbounds i8, i8* %61, i64 2
  br label %91

87:                                               ; preds = %75
  %88 = tail call { i8*, i64 } @_ZN6google8protobuf8internal17VarintParseSlow64EPKcj(i8* nonnull %61, i32 %82) #14
  %89 = extractvalue { i8*, i64 } %88, 0
  %90 = extractvalue { i8*, i64 } %88, 1
  br label %91

91:                                               ; preds = %72, %84, %87
  %92 = phi i64 [ %90, %87 ], [ %85, %84 ], [ %73, %72 ]
  %93 = phi i8* [ %89, %87 ], [ %86, %84 ], [ %74, %72 ]
  store i64 %92, i64* %18, align 8
  %94 = icmp eq i8* %93, null
  br i1 %94, label %268, label %241

95:                                               ; preds = %63
  %96 = and i32 %60, 255
  %97 = icmp eq i32 %96, 16
  br i1 %97, label %98, label %244, !prof !2

98:                                               ; preds = %95
  %99 = or i32 %21, 4
  %100 = load i8, i8* %61, align 1
  %101 = icmp slt i8 %100, 0
  br i1 %101, label %105, label %102

102:                                              ; preds = %98
  %103 = zext i8 %100 to i64
  %104 = getelementptr inbounds i8, i8* %61, i64 1
  br label %121

105:                                              ; preds = %98
  %106 = zext i8 %100 to i32
  %107 = getelementptr inbounds i8, i8* %61, i64 1
  %108 = load i8, i8* %107, align 1
  %109 = zext i8 %108 to i32
  %110 = shl nuw nsw i32 %109, 7
  %111 = add nsw i32 %106, -128
  %112 = add nuw nsw i32 %111, %110
  %113 = icmp slt i8 %108, 0
  br i1 %113, label %117, label %114

114:                                              ; preds = %105
  %115 = zext i32 %112 to i64
  %116 = getelementptr inbounds i8, i8* %61, i64 2
  br label %121

117:                                              ; preds = %105
  %118 = tail call { i8*, i64 } @_ZN6google8protobuf8internal17VarintParseSlow64EPKcj(i8* nonnull %61, i32 %112) #14
  %119 = extractvalue { i8*, i64 } %118, 0
  %120 = extractvalue { i8*, i64 } %118, 1
  br label %121

121:                                              ; preds = %102, %114, %117
  %122 = phi i64 [ %120, %117 ], [ %115, %114 ], [ %103, %102 ]
  %123 = phi i8* [ %119, %117 ], [ %116, %114 ], [ %104, %102 ]
  store i64 %122, i64* %17, align 8
  %124 = icmp eq i8* %123, null
  br i1 %124, label %268, label %241

125:                                              ; preds = %63
  %126 = and i32 %60, 255
  %127 = icmp eq i32 %126, 24
  br i1 %127, label %128, label %244, !prof !2

128:                                              ; preds = %125
  %129 = or i32 %21, 8
  %130 = load i8, i8* %61, align 1
  %131 = icmp slt i8 %130, 0
  br i1 %131, label %135, label %132

132:                                              ; preds = %128
  %133 = zext i8 %130 to i64
  %134 = getelementptr inbounds i8, i8* %61, i64 1
  br label %151

135:                                              ; preds = %128
  %136 = zext i8 %130 to i32
  %137 = getelementptr inbounds i8, i8* %61, i64 1
  %138 = load i8, i8* %137, align 1
  %139 = zext i8 %138 to i32
  %140 = shl nuw nsw i32 %139, 7
  %141 = add nsw i32 %136, -128
  %142 = add nuw nsw i32 %141, %140
  %143 = icmp slt i8 %138, 0
  br i1 %143, label %147, label %144

144:                                              ; preds = %135
  %145 = zext i32 %142 to i64
  %146 = getelementptr inbounds i8, i8* %61, i64 2
  br label %151

147:                                              ; preds = %135
  %148 = tail call { i8*, i64 } @_ZN6google8protobuf8internal17VarintParseSlow64EPKcj(i8* nonnull %61, i32 %142) #14
  %149 = extractvalue { i8*, i64 } %148, 0
  %150 = extractvalue { i8*, i64 } %148, 1
  br label %151

151:                                              ; preds = %132, %144, %147
  %152 = phi i64 [ %150, %147 ], [ %145, %144 ], [ %133, %132 ]
  %153 = phi i8* [ %149, %147 ], [ %146, %144 ], [ %134, %132 ]
  store i64 %152, i64* %16, align 8
  %154 = icmp eq i8* %153, null
  br i1 %154, label %268, label %241

155:                                              ; preds = %63
  %156 = and i32 %60, 255
  %157 = icmp eq i32 %156, 34
  br i1 %157, label %158, label %244, !prof !2

158:                                              ; preds = %155
  %159 = load i32, i32* %12, align 4
  %160 = or i32 %159, 1
  store i32 %160, i32* %12, align 4
  %161 = load %"class.perfetto::protos::ProfilePacket_Histogram"*, %"class.perfetto::protos::ProfilePacket_Histogram"** %13, align 8
  %162 = icmp eq %"class.perfetto::protos::ProfilePacket_Histogram"* %161, null
  br i1 %162, label %163, label %177

163:                                              ; preds = %158
  %164 = load i64, i64* %15, align 8
  %165 = and i64 %164, 1
  %166 = icmp eq i64 %165, 0
  %167 = and i64 %164, -2
  br i1 %166, label %172, label %168, !prof !2

168:                                              ; preds = %163
  %169 = inttoptr i64 %167 to %"struct.google::protobuf::internal::InternalMetadata::ContainerBase"*
  %170 = getelementptr inbounds %"struct.google::protobuf::internal::InternalMetadata::ContainerBase", %"struct.google::protobuf::internal::InternalMetadata::ContainerBase"* %169, i64 0, i32 0
  %171 = load %"class.google::protobuf::Arena"*, %"class.google::protobuf::Arena"** %170, align 8
  br label %174

172:                                              ; preds = %163
  %173 = inttoptr i64 %167 to %"class.google::protobuf::Arena"*
  br label %174

174:                                              ; preds = %172, %168
  %175 = phi %"class.google::protobuf::Arena"* [ %171, %168 ], [ %173, %172 ]
  %176 = tail call %"class.perfetto::protos::ProfilePacket_Histogram"* @_ZN6google8protobuf5Arena18CreateMaybeMessageIN8perfetto6protos23ProfilePacket_HistogramEJEEEPT_PS1_DpOT0_(%"class.google::protobuf::Arena"* %175) #14
  store %"class.perfetto::protos::ProfilePacket_Histogram"* %176, %"class.perfetto::protos::ProfilePacket_Histogram"** %13, align 8
  br label %177

177:                                              ; preds = %158, %174
  %178 = phi %"class.perfetto::protos::ProfilePacket_Histogram"* [ %176, %174 ], [ %161, %158 ]
  %179 = tail call i8* @_ZN6google8protobuf8internal12ParseContext12ParseMessageIN8perfetto6protos23ProfilePacket_HistogramEEEPKcPT_S8_(%"class.google::protobuf::internal::ParseContext"* %2, %"class.perfetto::protos::ProfilePacket_Histogram"* %178, i8* nonnull %61)
  %180 = icmp eq i8* %179, null
  br i1 %180, label %268, label %266

181:                                              ; preds = %63
  %182 = and i32 %60, 255
  %183 = icmp eq i32 %182, 40
  br i1 %183, label %184, label %244, !prof !2

184:                                              ; preds = %181
  %185 = or i32 %21, 16
  %186 = load i8, i8* %61, align 1
  %187 = icmp slt i8 %186, 0
  br i1 %187, label %191, label %188

188:                                              ; preds = %184
  %189 = zext i8 %186 to i64
  %190 = getelementptr inbounds i8, i8* %61, i64 1
  br label %207

191:                                              ; preds = %184
  %192 = zext i8 %186 to i32
  %193 = getelementptr inbounds i8, i8* %61, i64 1
  %194 = load i8, i8* %193, align 1
  %195 = zext i8 %194 to i32
  %196 = shl nuw nsw i32 %195, 7
  %197 = add nsw i32 %192, -128
  %198 = add nuw nsw i32 %197, %196
  %199 = icmp slt i8 %194, 0
  br i1 %199, label %203, label %200

200:                                              ; preds = %191
  %201 = zext i32 %198 to i64
  %202 = getelementptr inbounds i8, i8* %61, i64 2
  br label %207

203:                                              ; preds = %191
  %204 = tail call { i8*, i64 } @_ZN6google8protobuf8internal17VarintParseSlow64EPKcj(i8* nonnull %61, i32 %198) #14
  %205 = extractvalue { i8*, i64 } %204, 0
  %206 = extractvalue { i8*, i64 } %204, 1
  br label %207

207:                                              ; preds = %188, %200, %203
  %208 = phi i64 [ %206, %203 ], [ %201, %200 ], [ %189, %188 ]
  %209 = phi i8* [ %205, %203 ], [ %202, %200 ], [ %190, %188 ]
  store i64 %208, i64* %11, align 8
  %210 = icmp eq i8* %209, null
  br i1 %210, label %268, label %241

211:                                              ; preds = %63
  %212 = and i32 %60, 255
  %213 = icmp eq i32 %212, 48
  br i1 %213, label %214, label %244, !prof !2

214:                                              ; preds = %211
  %215 = or i32 %21, 32
  %216 = load i8, i8* %61, align 1
  %217 = icmp slt i8 %216, 0
  br i1 %217, label %221, label %218

218:                                              ; preds = %214
  %219 = zext i8 %216 to i64
  %220 = getelementptr inbounds i8, i8* %61, i64 1
  br label %237

221:                                              ; preds = %214
  %222 = zext i8 %216 to i32
  %223 = getelementptr inbounds i8, i8* %61, i64 1
  %224 = load i8, i8* %223, align 1
  %225 = zext i8 %224 to i32
  %226 = shl nuw nsw i32 %225, 7
  %227 = add nsw i32 %222, -128
  %228 = add nuw nsw i32 %227, %226
  %229 = icmp slt i8 %224, 0
  br i1 %229, label %233, label %230

230:                                              ; preds = %221
  %231 = zext i32 %228 to i64
  %232 = getelementptr inbounds i8, i8* %61, i64 2
  br label %237

233:                                              ; preds = %221
  %234 = tail call { i8*, i64 } @_ZN6google8protobuf8internal17VarintParseSlow64EPKcj(i8* nonnull %61, i32 %228) #14
  %235 = extractvalue { i8*, i64 } %234, 0
  %236 = extractvalue { i8*, i64 } %234, 1
  br label %237

237:                                              ; preds = %218, %230, %233
  %238 = phi i64 [ %236, %233 ], [ %231, %230 ], [ %219, %218 ]
  %239 = phi i8* [ %235, %233 ], [ %232, %230 ], [ %220, %218 ]
  store i64 %238, i64* %10, align 8
  %240 = icmp eq i8* %239, null
  br i1 %240, label %268, label %241

241:                                              ; preds = %237, %207, %151, %121, %91
  %242 = phi i8* [ %93, %91 ], [ %123, %121 ], [ %153, %151 ], [ %209, %207 ], [ %239, %237 ]
  %243 = phi i32 [ %69, %91 ], [ %99, %121 ], [ %129, %151 ], [ %185, %207 ], [ %215, %237 ]
  br label %19

244:                                              ; preds = %63, %211, %181, %155, %125, %95, %65
  %245 = and i32 %60, 7
  %246 = icmp eq i32 %245, 4
  %247 = icmp eq i32 %60, 0
  %248 = or i1 %247, %246
  br i1 %248, label %249, label %252

249:                                              ; preds = %244
  %250 = add i32 %60, -1
  %251 = getelementptr inbounds %"class.google::protobuf::internal::ParseContext", %"class.google::protobuf::internal::ParseContext"* %2, i64 0, i32 0, i32 8
  store i32 %250, i32* %251, align 8
  br label %268

252:                                              ; preds = %244
  %253 = load i64, i64* %15, align 8
  %254 = and i64 %253, 1
  %255 = icmp eq i64 %254, 0
  br i1 %255, label %260, label %256, !prof !4

256:                                              ; preds = %252
  %257 = and i64 %253, -2
  %258 = inttoptr i64 %257 to %"struct.google::protobuf::internal::InternalMetadata::Container"*
  %259 = getelementptr inbounds %"struct.google::protobuf::internal::InternalMetadata::Container", %"struct.google::protobuf::internal::InternalMetadata::Container"* %258, i64 0, i32 1
  br label %262

260:                                              ; preds = %252
  %261 = tail call %"class.std::__1::basic_string"* @_ZN6google8protobuf8internal16InternalMetadata27mutable_unknown_fields_slowINSt3__112basic_stringIcNS4_11char_traitsIcEENS4_9allocatorIcEEEEEEPT_v(%"class.google::protobuf::internal::InternalMetadata"* %14) #14
  br label %262

262:                                              ; preds = %256, %260
  %263 = phi %"class.std::__1::basic_string"* [ %259, %256 ], [ %261, %260 ]
  %264 = tail call i8* @_ZN6google8protobuf8internal17UnknownFieldParseEjPNSt3__112basic_stringIcNS2_11char_traitsIcEENS2_9allocatorIcEEEEPKcPNS1_12ParseContextE(i32 %60, %"class.std::__1::basic_string"* %263, i8* nonnull %61, %"class.google::protobuf::internal::ParseContext"* %2) #14
  %265 = icmp eq i8* %264, null
  br i1 %265, label %268, label %266

266:                                              ; preds = %262, %177
  %267 = phi i8* [ %264, %262 ], [ %179, %177 ]
  br label %22

268:                                              ; preds = %34, %262, %177, %27, %59, %237, %207, %151, %121, %91, %249
  %269 = phi i8* [ %61, %249 ], [ %36, %34 ], [ null, %59 ], [ %23, %27 ], [ null, %177 ], [ null, %262 ], [ null, %237 ], [ null, %207 ], [ null, %151 ], [ null, %121 ], [ null, %91 ]
  %270 = phi i32 [ %21, %249 ], [ %21, %34 ], [ %21, %262 ], [ %21, %177 ], [ %21, %27 ], [ %21, %59 ], [ %69, %91 ], [ %99, %121 ], [ %129, %151 ], [ %185, %207 ], [ %215, %237 ]
  %271 = load i32, i32* %12, align 4
  %272 = or i32 %271, %270
  store i32 %272, i32* %12, align 4
  ret i8* %269
}

; Function Attrs: nounwind ssp uwtable
define linkonce_odr hidden i8* @_ZN6google8protobuf8internal12ParseContext12ParseMessageIN8perfetto6protos23ProfilePacket_HistogramEEEPKcPT_S8_(%"class.google::protobuf::internal::ParseContext"*, %"class.perfetto::protos::ProfilePacket_Histogram"*, i8*) local_unnamed_addr #0 comdat align 2 {
  %4 = load i8, i8* %2, align 1
  %5 = zext i8 %4 to i32
  %6 = icmp sgt i8 %4, -1
  br i1 %6, label %7, label %9

7:                                                ; preds = %3
  %8 = getelementptr inbounds i8, i8* %2, i64 1
  br label %13

9:                                                ; preds = %3
  %10 = tail call { i8*, i32 } @_ZN6google8protobuf8internal16ReadSizeFallbackEPKcj(i8* %2, i32 %5) #14
  %11 = extractvalue { i8*, i32 } %10, 0
  %12 = extractvalue { i8*, i32 } %10, 1
  br label %13

13:                                               ; preds = %7, %9
  %14 = phi i8* [ %11, %9 ], [ %8, %7 ]
  %15 = phi i32 [ %12, %9 ], [ %5, %7 ]
  %16 = icmp eq i8* %14, null
  br i1 %16, label %55, label %17

17:                                               ; preds = %13
  %18 = getelementptr inbounds %"class.google::protobuf::internal::ParseContext", %"class.google::protobuf::internal::ParseContext"* %0, i64 0, i32 0, i32 1
  %19 = bitcast i8** %18 to i64*
  %20 = load i64, i64* %19, align 8
  %21 = ptrtoint i8* %14 to i64
  %22 = sub i64 %21, %20
  %23 = trunc i64 %22 to i32
  %24 = add nsw i32 %15, %23
  %25 = inttoptr i64 %20 to i8*
  %26 = icmp slt i32 %24, 0
  %27 = select i1 %26, i32 %24, i32 0
  %28 = sext i32 %27 to i64
  %29 = getelementptr inbounds i8, i8* %25, i64 %28
  %30 = getelementptr inbounds %"class.google::protobuf::internal::ParseContext", %"class.google::protobuf::internal::ParseContext"* %0, i64 0, i32 0, i32 0
  store i8* %29, i8** %30, align 8
  %31 = getelementptr inbounds %"class.google::protobuf::internal::ParseContext", %"class.google::protobuf::internal::ParseContext"* %0, i64 0, i32 0, i32 4
  %32 = load i32, i32* %31, align 4
  store i32 %24, i32* %31, align 4
  %33 = sub nsw i32 %32, %24
  %34 = getelementptr inbounds %"class.google::protobuf::internal::ParseContext", %"class.google::protobuf::internal::ParseContext"* %0, i64 0, i32 1
  %35 = load i32, i32* %34, align 8
  %36 = add nsw i32 %35, -1
  store i32 %36, i32* %34, align 8
  %37 = icmp slt i32 %35, 1
  br i1 %37, label %55, label %38

38:                                               ; preds = %17
  %39 = tail call i8* @_ZN8perfetto6protos23ProfilePacket_Histogram14_InternalParseEPKcPN6google8protobuf8internal12ParseContextE(%"class.perfetto::protos::ProfilePacket_Histogram"* %1, i8* nonnull %14, %"class.google::protobuf::internal::ParseContext"* %0)
  %40 = icmp eq i8* %39, null
  br i1 %40, label %55, label %41, !prof !4

41:                                               ; preds = %38
  %42 = load i32, i32* %34, align 8
  %43 = add nsw i32 %42, 1
  store i32 %43, i32* %34, align 8
  %44 = getelementptr inbounds %"class.google::protobuf::internal::ParseContext", %"class.google::protobuf::internal::ParseContext"* %0, i64 0, i32 0, i32 8
  %45 = load i32, i32* %44, align 8
  %46 = icmp eq i32 %45, 0
  br i1 %46, label %47, label %55, !prof !2

47:                                               ; preds = %41
  %48 = load i32, i32* %31, align 4
  %49 = add nsw i32 %48, %33
  store i32 %49, i32* %31, align 4
  %50 = load i8*, i8** %18, align 8
  %51 = icmp slt i32 %49, 0
  %52 = select i1 %51, i32 %49, i32 0
  %53 = sext i32 %52 to i64
  %54 = getelementptr inbounds i8, i8* %50, i64 %53
  store i8* %54, i8** %30, align 8
  br label %55

55:                                               ; preds = %13, %38, %17, %41, %47
  %56 = phi i8* [ %39, %47 ], [ null, %41 ], [ null, %17 ], [ null, %38 ], [ null, %13 ]
  ret i8* %56
}

; Function Attrs: nounwind ssp uwtable
define hidden i8* @_ZNK8perfetto6protos26ProfilePacket_ProcessStats18_InternalSerializeEPhPN6google8protobuf2io19EpsCopyOutputStreamE(%"class.perfetto::protos::ProfilePacket_ProcessStats"* nocapture readonly, i8*, %"class.google::protobuf::io::EpsCopyOutputStream"*) unnamed_addr #0 align 2 {
  %4 = getelementptr inbounds %"class.perfetto::protos::ProfilePacket_ProcessStats", %"class.perfetto::protos::ProfilePacket_ProcessStats"* %0, i64 0, i32 1, i32 0, i64 0
  %5 = load i32, i32* %4, align 4
  %6 = and i32 %5, 2
  %7 = icmp eq i32 %6, 0
  br i1 %7, label %44, label %8

8:                                                ; preds = %3
  %9 = getelementptr inbounds %"class.google::protobuf::io::EpsCopyOutputStream", %"class.google::protobuf::io::EpsCopyOutputStream"* %2, i64 0, i32 0
  %10 = load i8*, i8** %9, align 8
  %11 = icmp ugt i8* %10, %1
  br i1 %11, label %14, label %12, !prof !2

12:                                               ; preds = %8
  %13 = tail call i8* @_ZN6google8protobuf2io19EpsCopyOutputStream19EnsureSpaceFallbackEPh(%"class.google::protobuf::io::EpsCopyOutputStream"* %2, i8* %1) #14
  br label %14

14:                                               ; preds = %8, %12
  %15 = phi i8* [ %13, %12 ], [ %1, %8 ]
  %16 = getelementptr inbounds %"class.perfetto::protos::ProfilePacket_ProcessStats", %"class.perfetto::protos::ProfilePacket_ProcessStats"* %0, i64 0, i32 4
  %17 = load i64, i64* %16, align 8
  store i8 8, i8* %15, align 1
  %18 = getelementptr inbounds i8, i8* %15, i64 1
  %19 = icmp ult i64 %17, 128
  %20 = trunc i64 %17 to i8
  br i1 %19, label %21, label %23

21:                                               ; preds = %14
  store i8 %20, i8* %18, align 1
  %22 = getelementptr inbounds i8, i8* %15, i64 2
  br label %44

23:                                               ; preds = %14
  %24 = or i8 %20, -128
  store i8 %24, i8* %18, align 1
  %25 = lshr i64 %17, 7
  %26 = icmp ult i64 %17, 16384
  br i1 %26, label %27, label %31

27:                                               ; preds = %23
  %28 = trunc i64 %25 to i8
  %29 = getelementptr inbounds i8, i8* %15, i64 2
  store i8 %28, i8* %29, align 1
  %30 = getelementptr inbounds i8, i8* %15, i64 3
  br label %44

31:                                               ; preds = %23
  %32 = getelementptr inbounds i8, i8* %15, i64 2
  br label %33

33:                                               ; preds = %33, %31
  %34 = phi i64 [ %25, %31 ], [ %38, %33 ]
  %35 = phi i8* [ %32, %31 ], [ %39, %33 ]
  %36 = trunc i64 %34 to i8
  %37 = or i8 %36, -128
  store i8 %37, i8* %35, align 1
  %38 = lshr i64 %34, 7
  %39 = getelementptr inbounds i8, i8* %35, i64 1
  %40 = icmp ugt i64 %34, 16383
  br i1 %40, label %33, label %41, !prof !4

41:                                               ; preds = %33
  %42 = trunc i64 %38 to i8
  %43 = getelementptr inbounds i8, i8* %35, i64 2
  store i8 %42, i8* %39, align 1
  br label %44

44:                                               ; preds = %41, %27, %21, %3
  %45 = phi i8* [ %1, %3 ], [ %22, %21 ], [ %30, %27 ], [ %43, %41 ]
  %46 = and i32 %5, 4
  %47 = icmp eq i32 %46, 0
  br i1 %47, label %84, label %48

48:                                               ; preds = %44
  %49 = getelementptr inbounds %"class.google::protobuf::io::EpsCopyOutputStream", %"class.google::protobuf::io::EpsCopyOutputStream"* %2, i64 0, i32 0
  %50 = load i8*, i8** %49, align 8
  %51 = icmp ugt i8* %50, %45
  br i1 %51, label %54, label %52, !prof !2

52:                                               ; preds = %48
  %53 = tail call i8* @_ZN6google8protobuf2io19EpsCopyOutputStream19EnsureSpaceFallbackEPh(%"class.google::protobuf::io::EpsCopyOutputStream"* %2, i8* %45) #14
  br label %54

54:                                               ; preds = %48, %52
  %55 = phi i8* [ %53, %52 ], [ %45, %48 ]
  %56 = getelementptr inbounds %"class.perfetto::protos::ProfilePacket_ProcessStats", %"class.perfetto::protos::ProfilePacket_ProcessStats"* %0, i64 0, i32 5
  %57 = load i64, i64* %56, align 8
  store i8 16, i8* %55, align 1
  %58 = getelementptr inbounds i8, i8* %55, i64 1
  %59 = icmp ult i64 %57, 128
  %60 = trunc i64 %57 to i8
  br i1 %59, label %61, label %63

61:                                               ; preds = %54
  store i8 %60, i8* %58, align 1
  %62 = getelementptr inbounds i8, i8* %55, i64 2
  br label %84

63:                                               ; preds = %54
  %64 = or i8 %60, -128
  store i8 %64, i8* %58, align 1
  %65 = lshr i64 %57, 7
  %66 = icmp ult i64 %57, 16384
  br i1 %66, label %67, label %71

67:                                               ; preds = %63
  %68 = trunc i64 %65 to i8
  %69 = getelementptr inbounds i8, i8* %55, i64 2
  store i8 %68, i8* %69, align 1
  %70 = getelementptr inbounds i8, i8* %55, i64 3
  br label %84

71:                                               ; preds = %63
  %72 = getelementptr inbounds i8, i8* %55, i64 2
  br label %73

73:                                               ; preds = %73, %71
  %74 = phi i64 [ %65, %71 ], [ %78, %73 ]
  %75 = phi i8* [ %72, %71 ], [ %79, %73 ]
  %76 = trunc i64 %74 to i8
  %77 = or i8 %76, -128
  store i8 %77, i8* %75, align 1
  %78 = lshr i64 %74, 7
  %79 = getelementptr inbounds i8, i8* %75, i64 1
  %80 = icmp ugt i64 %74, 16383
  br i1 %80, label %73, label %81, !prof !4

81:                                               ; preds = %73
  %82 = trunc i64 %78 to i8
  %83 = getelementptr inbounds i8, i8* %75, i64 2
  store i8 %82, i8* %79, align 1
  br label %84

84:                                               ; preds = %81, %67, %61, %44
  %85 = phi i8* [ %45, %44 ], [ %62, %61 ], [ %70, %67 ], [ %83, %81 ]
  %86 = and i32 %5, 8
  %87 = icmp eq i32 %86, 0
  br i1 %87, label %124, label %88

88:                                               ; preds = %84
  %89 = getelementptr inbounds %"class.google::protobuf::io::EpsCopyOutputStream", %"class.google::protobuf::io::EpsCopyOutputStream"* %2, i64 0, i32 0
  %90 = load i8*, i8** %89, align 8
  %91 = icmp ugt i8* %90, %85
  br i1 %91, label %94, label %92, !prof !2

92:                                               ; preds = %88
  %93 = tail call i8* @_ZN6google8protobuf2io19EpsCopyOutputStream19EnsureSpaceFallbackEPh(%"class.google::protobuf::io::EpsCopyOutputStream"* %2, i8* %85) #14
  br label %94

94:                                               ; preds = %88, %92
  %95 = phi i8* [ %93, %92 ], [ %85, %88 ]
  %96 = getelementptr inbounds %"class.perfetto::protos::ProfilePacket_ProcessStats", %"class.perfetto::protos::ProfilePacket_ProcessStats"* %0, i64 0, i32 6
  %97 = load i64, i64* %96, align 8
  store i8 24, i8* %95, align 1
  %98 = getelementptr inbounds i8, i8* %95, i64 1
  %99 = icmp ult i64 %97, 128
  %100 = trunc i64 %97 to i8
  br i1 %99, label %101, label %103

101:                                              ; preds = %94
  store i8 %100, i8* %98, align 1
  %102 = getelementptr inbounds i8, i8* %95, i64 2
  br label %124

103:                                              ; preds = %94
  %104 = or i8 %100, -128
  store i8 %104, i8* %98, align 1
  %105 = lshr i64 %97, 7
  %106 = icmp ult i64 %97, 16384
  br i1 %106, label %107, label %111

107:                                              ; preds = %103
  %108 = trunc i64 %105 to i8
  %109 = getelementptr inbounds i8, i8* %95, i64 2
  store i8 %108, i8* %109, align 1
  %110 = getelementptr inbounds i8, i8* %95, i64 3
  br label %124

111:                                              ; preds = %103
  %112 = getelementptr inbounds i8, i8* %95, i64 2
  br label %113

113:                                              ; preds = %113, %111
  %114 = phi i64 [ %105, %111 ], [ %118, %113 ]
  %115 = phi i8* [ %112, %111 ], [ %119, %113 ]
  %116 = trunc i64 %114 to i8
  %117 = or i8 %116, -128
  store i8 %117, i8* %115, align 1
  %118 = lshr i64 %114, 7
  %119 = getelementptr inbounds i8, i8* %115, i64 1
  %120 = icmp ugt i64 %114, 16383
  br i1 %120, label %113, label %121, !prof !4

121:                                              ; preds = %113
  %122 = trunc i64 %118 to i8
  %123 = getelementptr inbounds i8, i8* %115, i64 2
  store i8 %122, i8* %119, align 1
  br label %124

124:                                              ; preds = %121, %107, %101, %84
  %125 = phi i8* [ %85, %84 ], [ %102, %101 ], [ %110, %107 ], [ %123, %121 ]
  %126 = and i32 %5, 1
  %127 = icmp eq i32 %126, 0
  br i1 %127, label %169, label %128

128:                                              ; preds = %124
  %129 = getelementptr inbounds %"class.google::protobuf::io::EpsCopyOutputStream", %"class.google::protobuf::io::EpsCopyOutputStream"* %2, i64 0, i32 0
  %130 = load i8*, i8** %129, align 8
  %131 = icmp ugt i8* %130, %125
  br i1 %131, label %134, label %132, !prof !2

132:                                              ; preds = %128
  %133 = tail call i8* @_ZN6google8protobuf2io19EpsCopyOutputStream19EnsureSpaceFallbackEPh(%"class.google::protobuf::io::EpsCopyOutputStream"* %2, i8* %125) #14
  br label %134

134:                                              ; preds = %128, %132
  %135 = phi i8* [ %133, %132 ], [ %125, %128 ]
  %136 = getelementptr inbounds %"class.perfetto::protos::ProfilePacket_ProcessStats", %"class.perfetto::protos::ProfilePacket_ProcessStats"* %0, i64 0, i32 3
  %137 = load %"class.perfetto::protos::ProfilePacket_Histogram"*, %"class.perfetto::protos::ProfilePacket_Histogram"** %136, align 8
  store i8 34, i8* %135, align 1
  %138 = getelementptr inbounds i8, i8* %135, i64 1
  %139 = getelementptr inbounds %"class.perfetto::protos::ProfilePacket_Histogram", %"class.perfetto::protos::ProfilePacket_Histogram"* %137, i64 0, i32 2, i32 0, i32 0, i32 0, i32 0, i32 0, i32 0
  %140 = load atomic i32, i32* %139 monotonic, align 4
  %141 = icmp ult i32 %140, 128
  %142 = trunc i32 %140 to i8
  br i1 %141, label %143, label %145

143:                                              ; preds = %134
  store i8 %142, i8* %138, align 1
  %144 = getelementptr inbounds i8, i8* %135, i64 2
  br label %166

145:                                              ; preds = %134
  %146 = or i8 %142, -128
  store i8 %146, i8* %138, align 1
  %147 = lshr i32 %140, 7
  %148 = icmp ult i32 %140, 16384
  br i1 %148, label %149, label %153

149:                                              ; preds = %145
  %150 = trunc i32 %147 to i8
  %151 = getelementptr inbounds i8, i8* %135, i64 2
  store i8 %150, i8* %151, align 1
  %152 = getelementptr inbounds i8, i8* %135, i64 3
  br label %166

153:                                              ; preds = %145
  %154 = getelementptr inbounds i8, i8* %135, i64 2
  br label %155

155:                                              ; preds = %155, %153
  %156 = phi i32 [ %147, %153 ], [ %160, %155 ]
  %157 = phi i8* [ %154, %153 ], [ %161, %155 ]
  %158 = trunc i32 %156 to i8
  %159 = or i8 %158, -128
  store i8 %159, i8* %157, align 1
  %160 = lshr i32 %156, 7
  %161 = getelementptr inbounds i8, i8* %157, i64 1
  %162 = icmp ugt i32 %156, 16383
  br i1 %162, label %155, label %163, !prof !4

163:                                              ; preds = %155
  %164 = trunc i32 %160 to i8
  %165 = getelementptr inbounds i8, i8* %157, i64 2
  store i8 %164, i8* %161, align 1
  br label %166

166:                                              ; preds = %143, %149, %163
  %167 = phi i8* [ %144, %143 ], [ %152, %149 ], [ %165, %163 ]
  %168 = tail call i8* @_ZNK8perfetto6protos23ProfilePacket_Histogram18_InternalSerializeEPhPN6google8protobuf2io19EpsCopyOutputStreamE(%"class.perfetto::protos::ProfilePacket_Histogram"* %137, i8* %167, %"class.google::protobuf::io::EpsCopyOutputStream"* %2) #14
  br label %169

169:                                              ; preds = %124, %166
  %170 = phi i8* [ %168, %166 ], [ %125, %124 ]
  %171 = and i32 %5, 16
  %172 = icmp eq i32 %171, 0
  br i1 %172, label %209, label %173

173:                                              ; preds = %169
  %174 = getelementptr inbounds %"class.google::protobuf::io::EpsCopyOutputStream", %"class.google::protobuf::io::EpsCopyOutputStream"* %2, i64 0, i32 0
  %175 = load i8*, i8** %174, align 8
  %176 = icmp ugt i8* %175, %170
  br i1 %176, label %179, label %177, !prof !2

177:                                              ; preds = %173
  %178 = tail call i8* @_ZN6google8protobuf2io19EpsCopyOutputStream19EnsureSpaceFallbackEPh(%"class.google::protobuf::io::EpsCopyOutputStream"* %2, i8* %170) #14
  br label %179

179:                                              ; preds = %173, %177
  %180 = phi i8* [ %178, %177 ], [ %170, %173 ]
  %181 = getelementptr inbounds %"class.perfetto::protos::ProfilePacket_ProcessStats", %"class.perfetto::protos::ProfilePacket_ProcessStats"* %0, i64 0, i32 7
  %182 = load i64, i64* %181, align 8
  store i8 40, i8* %180, align 1
  %183 = getelementptr inbounds i8, i8* %180, i64 1
  %184 = icmp ult i64 %182, 128
  %185 = trunc i64 %182 to i8
  br i1 %184, label %186, label %188

186:                                              ; preds = %179
  store i8 %185, i8* %183, align 1
  %187 = getelementptr inbounds i8, i8* %180, i64 2
  br label %209

188:                                              ; preds = %179
  %189 = or i8 %185, -128
  store i8 %189, i8* %183, align 1
  %190 = lshr i64 %182, 7
  %191 = icmp ult i64 %182, 16384
  br i1 %191, label %192, label %196

192:                                              ; preds = %188
  %193 = trunc i64 %190 to i8
  %194 = getelementptr inbounds i8, i8* %180, i64 2
  store i8 %193, i8* %194, align 1
  %195 = getelementptr inbounds i8, i8* %180, i64 3
  br label %209

196:                                              ; preds = %188
  %197 = getelementptr inbounds i8, i8* %180, i64 2
  br label %198

198:                                              ; preds = %198, %196
  %199 = phi i64 [ %190, %196 ], [ %203, %198 ]
  %200 = phi i8* [ %197, %196 ], [ %204, %198 ]
  %201 = trunc i64 %199 to i8
  %202 = or i8 %201, -128
  store i8 %202, i8* %200, align 1
  %203 = lshr i64 %199, 7
  %204 = getelementptr inbounds i8, i8* %200, i64 1
  %205 = icmp ugt i64 %199, 16383
  br i1 %205, label %198, label %206, !prof !4

206:                                              ; preds = %198
  %207 = trunc i64 %203 to i8
  %208 = getelementptr inbounds i8, i8* %200, i64 2
  store i8 %207, i8* %204, align 1
  br label %209

209:                                              ; preds = %206, %192, %186, %169
  %210 = phi i8* [ %170, %169 ], [ %187, %186 ], [ %195, %192 ], [ %208, %206 ]
  %211 = and i32 %5, 32
  %212 = icmp eq i32 %211, 0
  br i1 %212, label %249, label %213

213:                                              ; preds = %209
  %214 = getelementptr inbounds %"class.google::protobuf::io::EpsCopyOutputStream", %"class.google::protobuf::io::EpsCopyOutputStream"* %2, i64 0, i32 0
  %215 = load i8*, i8** %214, align 8
  %216 = icmp ugt i8* %215, %210
  br i1 %216, label %219, label %217, !prof !2

217:                                              ; preds = %213
  %218 = tail call i8* @_ZN6google8protobuf2io19EpsCopyOutputStream19EnsureSpaceFallbackEPh(%"class.google::protobuf::io::EpsCopyOutputStream"* %2, i8* %210) #14
  br label %219

219:                                              ; preds = %213, %217
  %220 = phi i8* [ %218, %217 ], [ %210, %213 ]
  %221 = getelementptr inbounds %"class.perfetto::protos::ProfilePacket_ProcessStats", %"class.perfetto::protos::ProfilePacket_ProcessStats"* %0, i64 0, i32 8
  %222 = load i64, i64* %221, align 8
  store i8 48, i8* %220, align 1
  %223 = getelementptr inbounds i8, i8* %220, i64 1
  %224 = icmp ult i64 %222, 128
  %225 = trunc i64 %222 to i8
  br i1 %224, label %226, label %228

226:                                              ; preds = %219
  store i8 %225, i8* %223, align 1
  %227 = getelementptr inbounds i8, i8* %220, i64 2
  br label %249

228:                                              ; preds = %219
  %229 = or i8 %225, -128
  store i8 %229, i8* %223, align 1
  %230 = lshr i64 %222, 7
  %231 = icmp ult i64 %222, 16384
  br i1 %231, label %232, label %236

232:                                              ; preds = %228
  %233 = trunc i64 %230 to i8
  %234 = getelementptr inbounds i8, i8* %220, i64 2
  store i8 %233, i8* %234, align 1
  %235 = getelementptr inbounds i8, i8* %220, i64 3
  br label %249

236:                                              ; preds = %228
  %237 = getelementptr inbounds i8, i8* %220, i64 2
  br label %238

238:                                              ; preds = %238, %236
  %239 = phi i64 [ %230, %236 ], [ %243, %238 ]
  %240 = phi i8* [ %237, %236 ], [ %244, %238 ]
  %241 = trunc i64 %239 to i8
  %242 = or i8 %241, -128
  store i8 %242, i8* %240, align 1
  %243 = lshr i64 %239, 7
  %244 = getelementptr inbounds i8, i8* %240, i64 1
  %245 = icmp ugt i64 %239, 16383
  br i1 %245, label %238, label %246, !prof !4

246:                                              ; preds = %238
  %247 = trunc i64 %243 to i8
  %248 = getelementptr inbounds i8, i8* %240, i64 2
  store i8 %247, i8* %244, align 1
  br label %249

249:                                              ; preds = %246, %232, %226, %209
  %250 = phi i8* [ %210, %209 ], [ %227, %226 ], [ %235, %232 ], [ %248, %246 ]
  %251 = getelementptr inbounds %"class.perfetto::protos::ProfilePacket_ProcessStats", %"class.perfetto::protos::ProfilePacket_ProcessStats"* %0, i64 0, i32 0, i32 1
  %252 = bitcast %"class.google::protobuf::internal::InternalMetadata"* %251 to i64*
  %253 = load i64, i64* %252, align 8
  %254 = and i64 %253, 1
  %255 = icmp eq i64 %254, 0
  br i1 %255, label %287, label %256, !prof !2

256:                                              ; preds = %249
  %257 = and i64 %253, -2
  %258 = inttoptr i64 %257 to %"struct.google::protobuf::internal::InternalMetadata::Container"*
  %259 = getelementptr inbounds %"struct.google::protobuf::internal::InternalMetadata::Container", %"struct.google::protobuf::internal::InternalMetadata::Container"* %258, i64 0, i32 1
  %260 = bitcast %"class.std::__1::basic_string"* %259 to %"struct.std::__1::basic_string<char, std::__1::char_traits<char>, std::__1::allocator<char> >::__short"*
  %261 = getelementptr inbounds %"struct.std::__1::basic_string<char, std::__1::char_traits<char>, std::__1::allocator<char> >::__short", %"struct.std::__1::basic_string<char, std::__1::char_traits<char>, std::__1::allocator<char> >::__short"* %260, i64 0, i32 1, i32 0
  %262 = load i8, i8* %261, align 1
  %263 = icmp slt i8 %262, 0
  br i1 %263, label %264, label %269

264:                                              ; preds = %256
  %265 = getelementptr inbounds %"class.std::__1::basic_string", %"class.std::__1::basic_string"* %259, i64 0, i32 0, i32 0, i32 0, i32 0, i32 0, i32 0
  %266 = load i8*, i8** %265, align 8
  %267 = getelementptr inbounds %"struct.google::protobuf::internal::InternalMetadata::Container", %"struct.google::protobuf::internal::InternalMetadata::Container"* %258, i64 0, i32 1, i32 0, i32 0, i32 0, i32 0, i32 0, i32 1
  %268 = load i64, i64* %267, align 8
  br label %272

269:                                              ; preds = %256
  %270 = bitcast %"class.std::__1::basic_string"* %259 to i8*
  %271 = zext i8 %262 to i64
  br label %272

272:                                              ; preds = %264, %269
  %273 = phi i8* [ %266, %264 ], [ %270, %269 ]
  %274 = phi i64 [ %268, %264 ], [ %271, %269 ]
  %275 = bitcast %"class.google::protobuf::io::EpsCopyOutputStream"* %2 to i64*
  %276 = load i64, i64* %275, align 8
  %277 = ptrtoint i8* %250 to i64
  %278 = sub i64 %276, %277
  %279 = shl i64 %274, 32
  %280 = ashr exact i64 %279, 32
  %281 = icmp slt i64 %278, %280
  br i1 %281, label %282, label %285, !prof !4

282:                                              ; preds = %272
  %283 = trunc i64 %274 to i32
  %284 = tail call i8* @_ZN6google8protobuf2io19EpsCopyOutputStream16WriteRawFallbackEPKviPh(%"class.google::protobuf::io::EpsCopyOutputStream"* %2, i8* %273, i32 %283, i8* %250) #14
  br label %287

285:                                              ; preds = %272
  tail call void @llvm.memcpy.p0i8.p0i8.i64(i8* align 1 %250, i8* align 1 %273, i64 %280, i1 false) #14
  %286 = getelementptr inbounds i8, i8* %250, i64 %280
  br label %287

287:                                              ; preds = %249, %285, %282
  %288 = phi i8* [ %250, %249 ], [ %284, %282 ], [ %286, %285 ]
  ret i8* %288
}

; Function Attrs: nounwind ssp uwtable
define hidden i64 @_ZNK8perfetto6protos26ProfilePacket_ProcessStats12ByteSizeLongEv(%"class.perfetto::protos::ProfilePacket_ProcessStats"* nocapture) unnamed_addr #0 align 2 {
  %2 = getelementptr inbounds %"class.perfetto::protos::ProfilePacket_ProcessStats", %"class.perfetto::protos::ProfilePacket_ProcessStats"* %0, i64 0, i32 1, i32 0, i64 0
  %3 = load i32, i32* %2, align 4
  %4 = and i32 %3, 63
  %5 = icmp eq i32 %4, 0
  br i1 %5, label %98, label %6

6:                                                ; preds = %1
  %7 = and i32 %3, 1
  %8 = icmp eq i32 %7, 0
  br i1 %8, label %23, label %9

9:                                                ; preds = %6
  %10 = getelementptr inbounds %"class.perfetto::protos::ProfilePacket_ProcessStats", %"class.perfetto::protos::ProfilePacket_ProcessStats"* %0, i64 0, i32 3
  %11 = load %"class.perfetto::protos::ProfilePacket_Histogram"*, %"class.perfetto::protos::ProfilePacket_Histogram"** %10, align 8
  %12 = tail call i64 @_ZNK8perfetto6protos23ProfilePacket_Histogram12ByteSizeLongEv(%"class.perfetto::protos::ProfilePacket_Histogram"* %11) #14
  %13 = trunc i64 %12 to i32
  %14 = or i32 %13, 1
  %15 = tail call i32 @llvm.ctlz.i32(i32 %14, i1 true) #14, !range !8
  %16 = xor i32 %15, 31
  %17 = mul nuw nsw i32 %16, 9
  %18 = add nuw nsw i32 %17, 73
  %19 = lshr i32 %18, 6
  %20 = zext i32 %19 to i64
  %21 = add i64 %12, 1
  %22 = add i64 %21, %20
  br label %23

23:                                               ; preds = %6, %9
  %24 = phi i64 [ %22, %9 ], [ 0, %6 ]
  %25 = and i32 %3, 2
  %26 = icmp eq i32 %25, 0
  br i1 %26, label %38, label %27

27:                                               ; preds = %23
  %28 = getelementptr inbounds %"class.perfetto::protos::ProfilePacket_ProcessStats", %"class.perfetto::protos::ProfilePacket_ProcessStats"* %0, i64 0, i32 4
  %29 = load i64, i64* %28, align 8
  %30 = or i64 %29, 1
  %31 = tail call i64 @llvm.ctlz.i64(i64 %30, i1 true) #14, !range !5
  %32 = xor i64 %31, 63
  %33 = mul nuw nsw i64 %32, 9
  %34 = add nuw nsw i64 %33, 73
  %35 = lshr i64 %34, 6
  %36 = add i64 %24, 1
  %37 = add i64 %36, %35
  br label %38

38:                                               ; preds = %23, %27
  %39 = phi i64 [ %37, %27 ], [ %24, %23 ]
  %40 = and i32 %3, 4
  %41 = icmp eq i32 %40, 0
  br i1 %41, label %53, label %42

42:                                               ; preds = %38
  %43 = getelementptr inbounds %"class.perfetto::protos::ProfilePacket_ProcessStats", %"class.perfetto::protos::ProfilePacket_ProcessStats"* %0, i64 0, i32 5
  %44 = load i64, i64* %43, align 8
  %45 = or i64 %44, 1
  %46 = tail call i64 @llvm.ctlz.i64(i64 %45, i1 true) #14, !range !5
  %47 = xor i64 %46, 63
  %48 = mul nuw nsw i64 %47, 9
  %49 = add nuw nsw i64 %48, 73
  %50 = lshr i64 %49, 6
  %51 = add i64 %39, 1
  %52 = add i64 %51, %50
  br label %53

53:                                               ; preds = %38, %42
  %54 = phi i64 [ %52, %42 ], [ %39, %38 ]
  %55 = and i32 %3, 8
  %56 = icmp eq i32 %55, 0
  br i1 %56, label %68, label %57

57:                                               ; preds = %53
  %58 = getelementptr inbounds %"class.perfetto::protos::ProfilePacket_ProcessStats", %"class.perfetto::protos::ProfilePacket_ProcessStats"* %0, i64 0, i32 6
  %59 = load i64, i64* %58, align 8
  %60 = or i64 %59, 1
  %61 = tail call i64 @llvm.ctlz.i64(i64 %60, i1 true) #14, !range !5
  %62 = xor i64 %61, 63
  %63 = mul nuw nsw i64 %62, 9
  %64 = add nuw nsw i64 %63, 73
  %65 = lshr i64 %64, 6
  %66 = add i64 %54, 1
  %67 = add i64 %66, %65
  br label %68

68:                                               ; preds = %53, %57
  %69 = phi i64 [ %67, %57 ], [ %54, %53 ]
  %70 = and i32 %3, 16
  %71 = icmp eq i32 %70, 0
  br i1 %71, label %83, label %72

72:                                               ; preds = %68
  %73 = getelementptr inbounds %"class.perfetto::protos::ProfilePacket_ProcessStats", %"class.perfetto::protos::ProfilePacket_ProcessStats"* %0, i64 0, i32 7
  %74 = load i64, i64* %73, align 8
  %75 = or i64 %74, 1
  %76 = tail call i64 @llvm.ctlz.i64(i64 %75, i1 true) #14, !range !5
  %77 = xor i64 %76, 63
  %78 = mul nuw nsw i64 %77, 9
  %79 = add nuw nsw i64 %78, 73
  %80 = lshr i64 %79, 6
  %81 = add i64 %69, 1
  %82 = add i64 %81, %80
  br label %83

83:                                               ; preds = %68, %72
  %84 = phi i64 [ %82, %72 ], [ %69, %68 ]
  %85 = and i32 %3, 32
  %86 = icmp eq i32 %85, 0
  br i1 %86, label %98, label %87

87:                                               ; preds = %83
  %88 = getelementptr inbounds %"class.perfetto::protos::ProfilePacket_ProcessStats", %"class.perfetto::protos::ProfilePacket_ProcessStats"* %0, i64 0, i32 8
  %89 = load i64, i64* %88, align 8
  %90 = or i64 %89, 1
  %91 = tail call i64 @llvm.ctlz.i64(i64 %90, i1 true) #14, !range !5
  %92 = xor i64 %91, 63
  %93 = mul nuw nsw i64 %92, 9
  %94 = add nuw nsw i64 %93, 73
  %95 = lshr i64 %94, 6
  %96 = add i64 %84, 1
  %97 = add i64 %96, %95
  br label %98

98:                                               ; preds = %83, %1, %87
  %99 = phi i64 [ %97, %87 ], [ %84, %83 ], [ 0, %1 ]
  %100 = getelementptr inbounds %"class.perfetto::protos::ProfilePacket_ProcessStats", %"class.perfetto::protos::ProfilePacket_ProcessStats"* %0, i64 0, i32 0, i32 1
  %101 = bitcast %"class.google::protobuf::internal::InternalMetadata"* %100 to i64*
  %102 = load i64, i64* %101, align 8
  %103 = and i64 %102, 1
  %104 = icmp eq i64 %103, 0
  br i1 %104, label %121, label %105, !prof !2

105:                                              ; preds = %98
  %106 = and i64 %102, -2
  %107 = inttoptr i64 %106 to %"struct.google::protobuf::internal::InternalMetadata::Container"*
  %108 = getelementptr inbounds %"struct.google::protobuf::internal::InternalMetadata::Container", %"struct.google::protobuf::internal::InternalMetadata::Container"* %107, i64 0, i32 1
  %109 = bitcast %"class.std::__1::basic_string"* %108 to %"struct.std::__1::basic_string<char, std::__1::char_traits<char>, std::__1::allocator<char> >::__short"*
  %110 = getelementptr inbounds %"struct.std::__1::basic_string<char, std::__1::char_traits<char>, std::__1::allocator<char> >::__short", %"struct.std::__1::basic_string<char, std::__1::char_traits<char>, std::__1::allocator<char> >::__short"* %109, i64 0, i32 1, i32 0
  %111 = load i8, i8* %110, align 1
  %112 = icmp slt i8 %111, 0
  br i1 %112, label %113, label %116

113:                                              ; preds = %105
  %114 = getelementptr inbounds %"struct.google::protobuf::internal::InternalMetadata::Container", %"struct.google::protobuf::internal::InternalMetadata::Container"* %107, i64 0, i32 1, i32 0, i32 0, i32 0, i32 0, i32 0, i32 1
  %115 = load i64, i64* %114, align 8
  br label %118

116:                                              ; preds = %105
  %117 = zext i8 %111 to i64
  br label %118

118:                                              ; preds = %113, %116
  %119 = phi i64 [ %115, %113 ], [ %117, %116 ]
  %120 = add i64 %119, %99
  br label %121

121:                                              ; preds = %98, %118
  %122 = phi i64 [ %120, %118 ], [ %99, %98 ]
  %123 = trunc i64 %122 to i32
  %124 = getelementptr inbounds %"class.perfetto::protos::ProfilePacket_ProcessStats", %"class.perfetto::protos::ProfilePacket_ProcessStats"* %0, i64 0, i32 2, i32 0, i32 0, i32 0, i32 0, i32 0, i32 0
  store atomic i32 %123, i32* %124 monotonic, align 4
  ret i64 %122
}

; Function Attrs: nounwind ssp uwtable
define hidden void @_ZN8perfetto6protos26ProfilePacket_ProcessStats21CheckTypeAndMergeFromERKN6google8protobuf11MessageLiteE(%"class.perfetto::protos::ProfilePacket_ProcessStats"*, %"class.google::protobuf::MessageLite"* nocapture readonly dereferenceable(16)) unnamed_addr #0 align 2 {
  %3 = bitcast %"class.google::protobuf::MessageLite"* %1 to %"class.perfetto::protos::ProfilePacket_ProcessStats"*
  tail call void @_ZN8perfetto6protos26ProfilePacket_ProcessStats9MergeFromERKS1_(%"class.perfetto::protos::ProfilePacket_ProcessStats"* %0, %"class.perfetto::protos::ProfilePacket_ProcessStats"* dereferenceable(72) %3)
  ret void
}

; Function Attrs: nounwind ssp uwtable
define hidden void @_ZN8perfetto6protos26ProfilePacket_ProcessStats9MergeFromERKS1_(%"class.perfetto::protos::ProfilePacket_ProcessStats"*, %"class.perfetto::protos::ProfilePacket_ProcessStats"* nocapture readonly dereferenceable(72)) local_unnamed_addr #0 align 2 {
  %3 = getelementptr inbounds %"class.perfetto::protos::ProfilePacket_ProcessStats", %"class.perfetto::protos::ProfilePacket_ProcessStats"* %0, i64 0, i32 0, i32 1
  %4 = getelementptr inbounds %"class.perfetto::protos::ProfilePacket_ProcessStats", %"class.perfetto::protos::ProfilePacket_ProcessStats"* %1, i64 0, i32 0, i32 1
  %5 = bitcast %"class.google::protobuf::internal::InternalMetadata"* %4 to i64*
  %6 = load i64, i64* %5, align 8
  %7 = and i64 %6, 1
  %8 = icmp eq i64 %7, 0
  br i1 %8, label %38, label %9

9:                                                ; preds = %2
  %10 = and i64 %6, -2
  %11 = inttoptr i64 %10 to %"struct.google::protobuf::internal::InternalMetadata::Container"*
  %12 = getelementptr inbounds %"struct.google::protobuf::internal::InternalMetadata::Container", %"struct.google::protobuf::internal::InternalMetadata::Container"* %11, i64 0, i32 1
  %13 = bitcast %"class.google::protobuf::internal::InternalMetadata"* %3 to i64*
  %14 = load i64, i64* %13, align 8
  %15 = and i64 %14, 1
  %16 = icmp eq i64 %15, 0
  br i1 %16, label %21, label %17, !prof !4

17:                                               ; preds = %9
  %18 = and i64 %14, -2
  %19 = inttoptr i64 %18 to %"struct.google::protobuf::internal::InternalMetadata::Container"*
  %20 = getelementptr inbounds %"struct.google::protobuf::internal::InternalMetadata::Container", %"struct.google::protobuf::internal::InternalMetadata::Container"* %19, i64 0, i32 1
  br label %23

21:                                               ; preds = %9
  %22 = tail call %"class.std::__1::basic_string"* @_ZN6google8protobuf8internal16InternalMetadata27mutable_unknown_fields_slowINSt3__112basic_stringIcNS4_11char_traitsIcEENS4_9allocatorIcEEEEEEPT_v(%"class.google::protobuf::internal::InternalMetadata"* %3) #14
  br label %23

23:                                               ; preds = %21, %17
  %24 = phi %"class.std::__1::basic_string"* [ %20, %17 ], [ %22, %21 ]
  %25 = bitcast %"class.std::__1::basic_string"* %12 to %"struct.std::__1::basic_string<char, std::__1::char_traits<char>, std::__1::allocator<char> >::__short"*
  %26 = getelementptr inbounds %"struct.std::__1::basic_string<char, std::__1::char_traits<char>, std::__1::allocator<char> >::__short", %"struct.std::__1::basic_string<char, std::__1::char_traits<char>, std::__1::allocator<char> >::__short"* %25, i64 0, i32 1, i32 0
  %27 = load i8, i8* %26, align 1
  %28 = icmp slt i8 %27, 0
  %29 = getelementptr inbounds %"class.std::__1::basic_string", %"class.std::__1::basic_string"* %12, i64 0, i32 0, i32 0, i32 0, i32 0, i32 0, i32 0
  %30 = load i8*, i8** %29, align 8
  %31 = getelementptr inbounds %"struct.google::protobuf::internal::InternalMetadata::Container", %"struct.google::protobuf::internal::InternalMetadata::Container"* %11, i64 0, i32 1, i32 0, i32 0, i32 0, i32 0, i32 0, i32 1
  %32 = load i64, i64* %31, align 8
  %33 = bitcast %"class.std::__1::basic_string"* %12 to i8*
  %34 = zext i8 %27 to i64
  %35 = select i1 %28, i8* %30, i8* %33
  %36 = select i1 %28, i64 %32, i64 %34
  %37 = tail call dereferenceable(24) %"class.std::__1::basic_string"* @_ZNSt3__112basic_stringIcNS_11char_traitsIcEENS_9allocatorIcEEE6appendEPKcm(%"class.std::__1::basic_string"* %24, i8* %35, i64 %36) #14
  br label %38

38:                                               ; preds = %2, %23
  %39 = getelementptr inbounds %"class.perfetto::protos::ProfilePacket_ProcessStats", %"class.perfetto::protos::ProfilePacket_ProcessStats"* %1, i64 0, i32 1, i32 0, i64 0
  %40 = load i32, i32* %39, align 4
  %41 = and i32 %40, 63
  %42 = icmp eq i32 %41, 0
  br i1 %42, label %113, label %43

43:                                               ; preds = %38
  %44 = and i32 %40, 1
  %45 = icmp eq i32 %44, 0
  br i1 %45, label %74, label %46

46:                                               ; preds = %43
  %47 = getelementptr inbounds %"class.perfetto::protos::ProfilePacket_ProcessStats", %"class.perfetto::protos::ProfilePacket_ProcessStats"* %0, i64 0, i32 1, i32 0, i64 0
  %48 = load i32, i32* %47, align 4
  %49 = or i32 %48, 1
  store i32 %49, i32* %47, align 4
  %50 = getelementptr inbounds %"class.perfetto::protos::ProfilePacket_ProcessStats", %"class.perfetto::protos::ProfilePacket_ProcessStats"* %0, i64 0, i32 3
  %51 = load %"class.perfetto::protos::ProfilePacket_Histogram"*, %"class.perfetto::protos::ProfilePacket_Histogram"** %50, align 8
  %52 = icmp eq %"class.perfetto::protos::ProfilePacket_Histogram"* %51, null
  br i1 %52, label %53, label %68

53:                                               ; preds = %46
  %54 = bitcast %"class.google::protobuf::internal::InternalMetadata"* %3 to i64*
  %55 = load i64, i64* %54, align 8
  %56 = and i64 %55, 1
  %57 = icmp eq i64 %56, 0
  %58 = and i64 %55, -2
  br i1 %57, label %63, label %59, !prof !2

59:                                               ; preds = %53
  %60 = inttoptr i64 %58 to %"struct.google::protobuf::internal::InternalMetadata::ContainerBase"*
  %61 = getelementptr inbounds %"struct.google::protobuf::internal::InternalMetadata::ContainerBase", %"struct.google::protobuf::internal::InternalMetadata::ContainerBase"* %60, i64 0, i32 0
  %62 = load %"class.google::protobuf::Arena"*, %"class.google::protobuf::Arena"** %61, align 8
  br label %65

63:                                               ; preds = %53
  %64 = inttoptr i64 %58 to %"class.google::protobuf::Arena"*
  br label %65

65:                                               ; preds = %63, %59
  %66 = phi %"class.google::protobuf::Arena"* [ %62, %59 ], [ %64, %63 ]
  %67 = tail call %"class.perfetto::protos::ProfilePacket_Histogram"* @_ZN6google8protobuf5Arena18CreateMaybeMessageIN8perfetto6protos23ProfilePacket_HistogramEJEEEPT_PS1_DpOT0_(%"class.google::protobuf::Arena"* %66) #14
  store %"class.perfetto::protos::ProfilePacket_Histogram"* %67, %"class.perfetto::protos::ProfilePacket_Histogram"** %50, align 8
  br label %68

68:                                               ; preds = %46, %65
  %69 = phi %"class.perfetto::protos::ProfilePacket_Histogram"* [ %67, %65 ], [ %51, %46 ]
  %70 = getelementptr inbounds %"class.perfetto::protos::ProfilePacket_ProcessStats", %"class.perfetto::protos::ProfilePacket_ProcessStats"* %1, i64 0, i32 3
  %71 = load %"class.perfetto::protos::ProfilePacket_Histogram"*, %"class.perfetto::protos::ProfilePacket_Histogram"** %70, align 8
  %72 = icmp eq %"class.perfetto::protos::ProfilePacket_Histogram"* %71, null
  %73 = select i1 %72, %"class.perfetto::protos::ProfilePacket_Histogram"* bitcast (%"class.perfetto::protos::ProfilePacket_HistogramDefaultTypeInternal"* @_ZN8perfetto6protos42_ProfilePacket_Histogram_default_instance_E to %"class.perfetto::protos::ProfilePacket_Histogram"*), %"class.perfetto::protos::ProfilePacket_Histogram"* %71
  tail call void @_ZN8perfetto6protos23ProfilePacket_Histogram9MergeFromERKS1_(%"class.perfetto::protos::ProfilePacket_Histogram"* %69, %"class.perfetto::protos::ProfilePacket_Histogram"* dereferenceable(48) %73)
  br label %74

74:                                               ; preds = %43, %68
  %75 = and i32 %40, 2
  %76 = icmp eq i32 %75, 0
  br i1 %76, label %81, label %77

77:                                               ; preds = %74
  %78 = getelementptr inbounds %"class.perfetto::protos::ProfilePacket_ProcessStats", %"class.perfetto::protos::ProfilePacket_ProcessStats"* %1, i64 0, i32 4
  %79 = load i64, i64* %78, align 8
  %80 = getelementptr inbounds %"class.perfetto::protos::ProfilePacket_ProcessStats", %"class.perfetto::protos::ProfilePacket_ProcessStats"* %0, i64 0, i32 4
  store i64 %79, i64* %80, align 8
  br label %81

81:                                               ; preds = %74, %77
  %82 = and i32 %40, 4
  %83 = icmp eq i32 %82, 0
  br i1 %83, label %88, label %84

84:                                               ; preds = %81
  %85 = getelementptr inbounds %"class.perfetto::protos::ProfilePacket_ProcessStats", %"class.perfetto::protos::ProfilePacket_ProcessStats"* %1, i64 0, i32 5
  %86 = load i64, i64* %85, align 8
  %87 = getelementptr inbounds %"class.perfetto::protos::ProfilePacket_ProcessStats", %"class.perfetto::protos::ProfilePacket_ProcessStats"* %0, i64 0, i32 5
  store i64 %86, i64* %87, align 8
  br label %88

88:                                               ; preds = %81, %84
  %89 = and i32 %40, 8
  %90 = icmp eq i32 %89, 0
  br i1 %90, label %95, label %91

91:                                               ; preds = %88
  %92 = getelementptr inbounds %"class.perfetto::protos::ProfilePacket_ProcessStats", %"class.perfetto::protos::ProfilePacket_ProcessStats"* %1, i64 0, i32 6
  %93 = load i64, i64* %92, align 8
  %94 = getelementptr inbounds %"class.perfetto::protos::ProfilePacket_ProcessStats", %"class.perfetto::protos::ProfilePacket_ProcessStats"* %0, i64 0, i32 6
  store i64 %93, i64* %94, align 8
  br label %95

95:                                               ; preds = %88, %91
  %96 = and i32 %40, 16
  %97 = icmp eq i32 %96, 0
  br i1 %97, label %102, label %98

98:                                               ; preds = %95
