; ModuleID = '../../chrome/browser/enterprise/reporting/profile_report_generator_desktop.cc'
source_filename = "../../chrome/browser/enterprise/reporting/profile_report_generator_desktop.cc"
target datalayout = "e-m:e-i64:64-f80:128-n8:16:32:64-S128"
target triple = "x86_64-unknown-linux-gnu"

module asm ".symver exp, exp@GLIBC_2.2.5"
module asm ".symver exp2, exp2@GLIBC_2.2.5"
module asm ".symver exp2f, exp2f@GLIBC_2.2.5"
module asm ".symver expf, expf@GLIBC_2.2.5"
module asm ".symver lgamma, lgamma@GLIBC_2.2.5"
module asm ".symver lgammaf, lgammaf@GLIBC_2.2.5"
module asm ".symver lgammal, lgammal@GLIBC_2.2.5"
module asm ".symver log, log@GLIBC_2.2.5"
module asm ".symver log2, log2@GLIBC_2.2.5"
module asm ".symver log2f, log2f@GLIBC_2.2.5"
module asm ".symver logf, logf@GLIBC_2.2.5"
module asm ".symver pow, pow@GLIBC_2.2.5"
module asm ".symver powf, powf@GLIBC_2.2.5"

%class.BrowserProcess = type { i32 (...)** }
%"class.google::protobuf::internal::ExplicitlyConstructed" = type { %"union.google::protobuf::internal::ExplicitlyConstructed<std::__1::basic_string<char, std::__1::char_traits<char>, std::__1::allocator<char> > >::AlignedUnion" }
%"union.google::protobuf::internal::ExplicitlyConstructed<std::__1::basic_string<char, std::__1::char_traits<char>, std::__1::allocator<char> > >::AlignedUnion" = type { i64, [16 x i8] }
%"class.enterprise_reporting::ProfileReportGeneratorDesktop" = type { %"class.enterprise_reporting::ProfileReportGenerator::Delegate", %class.Profile* }
%"class.enterprise_reporting::ProfileReportGenerator::Delegate" = type { i32 (...)** }
%class.Profile = type { %"class.content::BrowserContext", %"class.std::__1::unique_ptr.7", i8, i8, i32, %"class.base::ObserverList", %"class.std::__1::unique_ptr.24" }
%"class.content::BrowserContext" = type { %"class.base::SupportsUserData.base", %"class.std::__1::unique_ptr" }
%"class.base::SupportsUserData.base" = type <{ i32 (...)**, %"class.std::__1::map", %"class.base::SequenceCheckerDoNothing" }>
%"class.std::__1::map" = type { %"class.std::__1::__tree" }
%"class.std::__1::__tree" = type { %"class.std::__1::__tree_end_node"*, %"class.std::__1::__compressed_pair", %"class.std::__1::__compressed_pair.1" }
%"class.std::__1::__tree_end_node" = type { %"class.std::__1::__tree_node_base"* }
%"class.std::__1::__tree_node_base" = type <{ %"class.std::__1::__tree_end_node", %"class.std::__1::__tree_node_base"*, %"class.std::__1::__tree_end_node"*, i8, [7 x i8] }>
%"class.std::__1::__compressed_pair" = type { %"struct.std::__1::__compressed_pair_elem" }
%"struct.std::__1::__compressed_pair_elem" = type { %"class.std::__1::__tree_end_node" }
%"class.std::__1::__compressed_pair.1" = type { %"struct.std::__1::__compressed_pair_elem.2" }
%"struct.std::__1::__compressed_pair_elem.2" = type { i64 }
%"class.base::SequenceCheckerDoNothing" = type { i8 }
%"class.std::__1::unique_ptr" = type { %"class.std::__1::__compressed_pair.4" }
%"class.std::__1::__compressed_pair.4" = type { %"struct.std::__1::__compressed_pair_elem.5" }
%"struct.std::__1::__compressed_pair_elem.5" = type { %"class.content::BrowserContext::Impl"* }
%"class.content::BrowserContext::Impl" = type opaque
%"class.std::__1::unique_ptr.7" = type { %"class.std::__1::__compressed_pair.8" }
%"class.std::__1::__compressed_pair.8" = type { %"struct.std::__1::__compressed_pair_elem.9" }
%"struct.std::__1::__compressed_pair_elem.9" = type { %"class.content::ResourceContext"* }
%"class.content::ResourceContext" = type opaque
%"class.base::ObserverList" = type <{ %"class.std::__1::vector", %"class.base::LinkedList", i64, i32, [4 x i8] }>
%"class.std::__1::vector" = type { %"class.std::__1::__vector_base" }
%"class.std::__1::__vector_base" = type { %"class.base::internal::CheckedObserverAdapter"*, %"class.base::internal::CheckedObserverAdapter"*, %"class.std::__1::__compressed_pair.19" }
%"class.base::internal::CheckedObserverAdapter" = type { %"class.base::WeakPtr" }
%"class.base::WeakPtr" = type { %"class.base::internal::WeakPtrBase" }
%"class.base::internal::WeakPtrBase" = type { %"class.base::internal::WeakReference", i64 }
%"class.base::internal::WeakReference" = type { %class.scoped_refptr }
%class.scoped_refptr = type { %"class.base::internal::WeakReference::Flag"* }
%"class.base::internal::WeakReference::Flag" = type <{ %"class.base::RefCountedThreadSafe", %"class.base::AtomicFlag", [3 x i8] }>
%"class.base::RefCountedThreadSafe" = type { %"class.base::subtle::RefCountedThreadSafeBase" }
%"class.base::subtle::RefCountedThreadSafeBase" = type { %"class.base::AtomicRefCount" }
%"class.base::AtomicRefCount" = type { %"struct.std::__1::atomic" }
%"struct.std::__1::atomic" = type { %"struct.std::__1::__atomic_base" }
%"struct.std::__1::__atomic_base" = type { %"struct.std::__1::__atomic_base.13" }
%"struct.std::__1::__atomic_base.13" = type { %"struct.std::__1::__cxx_atomic_impl" }
%"struct.std::__1::__cxx_atomic_impl" = type { %"struct.std::__1::__cxx_atomic_base_impl" }
%"struct.std::__1::__cxx_atomic_base_impl" = type { i32 }
%"class.base::AtomicFlag" = type { %"struct.std::__1::atomic.14" }
%"struct.std::__1::atomic.14" = type { %"struct.std::__1::__atomic_base.15" }
%"struct.std::__1::__atomic_base.15" = type { %"struct.std::__1::__atomic_base.16" }
%"struct.std::__1::__atomic_base.16" = type { %"struct.std::__1::__cxx_atomic_impl.17" }
%"struct.std::__1::__cxx_atomic_impl.17" = type { %"struct.std::__1::__cxx_atomic_base_impl.18" }
%"struct.std::__1::__cxx_atomic_base_impl.18" = type { i8 }
%"class.std::__1::__compressed_pair.19" = type { %"struct.std::__1::__compressed_pair_elem.20" }
%"struct.std::__1::__compressed_pair_elem.20" = type { %"class.base::internal::CheckedObserverAdapter"* }
%"class.base::LinkedList" = type { %"class.base::LinkNode" }
%"class.base::LinkNode" = type { %"class.base::internal::LinkNodeBase" }
%"class.base::internal::LinkNodeBase" = type { %"class.base::internal::LinkNodeBase"*, %"class.base::internal::LinkNodeBase"* }
%"class.std::__1::unique_ptr.24" = type { %"class.std::__1::__compressed_pair.25" }
%"class.std::__1::__compressed_pair.25" = type { %"struct.std::__1::__compressed_pair_elem.26" }
%"struct.std::__1::__compressed_pair_elem.26" = type { %"class.variations::VariationsClient"* }
%"class.variations::VariationsClient" = type opaque
%"class.base::FilePath" = type { %"class.std::__1::basic_string" }
%"class.std::__1::basic_string" = type { %"class.std::__1::__compressed_pair.30" }
%"class.std::__1::__compressed_pair.30" = type { %"struct.std::__1::__compressed_pair_elem.31" }
%"struct.std::__1::__compressed_pair_elem.31" = type { %"struct.std::__1::basic_string<char, std::__1::char_traits<char>, std::__1::allocator<char> >::__rep" }
%"struct.std::__1::basic_string<char, std::__1::char_traits<char>, std::__1::allocator<char> >::__rep" = type { %union.anon }
%union.anon = type { %"struct.std::__1::basic_string<char, std::__1::char_traits<char>, std::__1::allocator<char> >::__long" }
%"struct.std::__1::basic_string<char, std::__1::char_traits<char>, std::__1::allocator<char> >::__long" = type { i8*, i64, i64 }
%class.ProfileManager = type { %"class.Profile::Delegate", %"class.base::ObserverList.35", %"class.std::__1::unique_ptr.39", %"class.base::CallbackListSubscription", %"class.base::FilePath", i8, %"class.ProfileManager::BrowserListObserver", %"class.std::__1::map.47", %"class.std::__1::unique_ptr.58", %"class.std::__1::map.64", %"class.std::__1::vector.75", i8, i8, %"class.base::FilePath" }
%"class.Profile::Delegate" = type { i32 (...)** }
%"class.base::ObserverList.35" = type <{ %"class.std::__1::vector", %"class.base::LinkedList.36", i64, i32, [4 x i8] }>
%"class.base::LinkedList.36" = type { %"class.base::LinkNode.37" }
%"class.base::LinkNode.37" = type { %"class.base::internal::LinkNodeBase" }
%"class.std::__1::unique_ptr.39" = type { %"class.std::__1::__compressed_pair.40" }
%"class.std::__1::__compressed_pair.40" = type { %"struct.std::__1::__compressed_pair_elem.41" }
%"struct.std::__1::__compressed_pair_elem.41" = type { %class.ProfileInfoCache* }
%class.ProfileInfoCache = type opaque
%"class.base::CallbackListSubscription" = type { %"class.base::OnceCallback" }
%"class.base::OnceCallback" = type { %"class.base::internal::CallbackBase" }
%"class.base::internal::CallbackBase" = type { %class.scoped_refptr.45 }
%class.scoped_refptr.45 = type { %"class.base::internal::BindStateBase"* }
%"class.base::internal::BindStateBase" = type { %"class.base::RefCountedThreadSafe.46", void ()*, void (%"class.base::internal::BindStateBase"*)*, i1 (%"class.base::internal::BindStateBase"*, i32)* }
%"class.base::RefCountedThreadSafe.46" = type { %"class.base::subtle::RefCountedThreadSafeBase" }
%"class.ProfileManager::BrowserListObserver" = type { %class.BrowserListObserver, %class.ProfileManager* }
%class.BrowserListObserver = type { i32 (...)** }
%"class.std::__1::map.47" = type { %"class.std::__1::__tree.48" }
%"class.std::__1::__tree.48" = type { %"class.std::__1::__tree_end_node"*, %"class.std::__1::__compressed_pair.49", %"class.std::__1::__compressed_pair.53" }
%"class.std::__1::__compressed_pair.49" = type { %"struct.std::__1::__compressed_pair_elem" }
%"class.std::__1::__compressed_pair.53" = type { %"struct.std::__1::__compressed_pair_elem.2" }
%"class.std::__1::unique_ptr.58" = type { %"class.std::__1::__compressed_pair.59" }
%"class.std::__1::__compressed_pair.59" = type { %"struct.std::__1::__compressed_pair_elem.60" }
%"struct.std::__1::__compressed_pair_elem.60" = type { %class.ProfileShortcutManager* }
%class.ProfileShortcutManager = type { i32 (...)** }
%"class.std::__1::map.64" = type { %"class.std::__1::__tree.65" }
%"class.std::__1::__tree.65" = type { %"class.std::__1::__tree_end_node"*, %"class.std::__1::__compressed_pair.66", %"class.std::__1::__compressed_pair.70" }
%"class.std::__1::__compressed_pair.66" = type { %"struct.std::__1::__compressed_pair_elem" }
%"class.std::__1::__compressed_pair.70" = type { %"struct.std::__1::__compressed_pair_elem.2" }
%"class.std::__1::vector.75" = type { %"class.std::__1::__vector_base.76" }
%"class.std::__1::__vector_base.76" = type { %class.Profile**, %class.Profile**, %"class.std::__1::__compressed_pair.77" }
%"class.std::__1::__compressed_pair.77" = type { %"struct.std::__1::__compressed_pair_elem.78" }
%"struct.std::__1::__compressed_pair_elem.78" = type { %class.Profile** }
%"class.enterprise_management::ChromeUserProfileInfo" = type <{ %"class.google::protobuf::MessageLite", %"class.google::protobuf::internal::HasBits", %"class.google::protobuf::internal::CachedSize", %"class.google::protobuf::RepeatedPtrField", %"class.google::protobuf::RepeatedPtrField.91", %"class.google::protobuf::RepeatedPtrField.92", %"class.google::protobuf::RepeatedPtrField.93", %"class.google::protobuf::RepeatedPtrField.94", %"struct.google::protobuf::internal::ArenaStringPtr", %"struct.google::protobuf::internal::ArenaStringPtr", %"class.enterprise_management::ChromeSignedInUser"*, i8, [7 x i8] }>
%"class.google::protobuf::MessageLite" = type { i32 (...)**, %"class.google::protobuf::internal::InternalMetadata" }
%"class.google::protobuf::internal::InternalMetadata" = type { i8* }
%"class.google::protobuf::internal::HasBits" = type { [1 x i32] }
%"class.google::protobuf::internal::CachedSize" = type { %"struct.std::__1::atomic" }
%"class.google::protobuf::RepeatedPtrField" = type { %"class.google::protobuf::internal::RepeatedPtrFieldBase" }
%"class.google::protobuf::internal::RepeatedPtrFieldBase" = type { %"class.google::protobuf::Arena"*, i32, i32, %"struct.google::protobuf::internal::RepeatedPtrFieldBase::Rep"* }
%"class.google::protobuf::Arena" = type { %"class.google::protobuf::internal::ArenaImpl", void (%"class.std::type_info"*, i64, i8*)*, void (%"class.google::protobuf::Arena"*, i8*, i64)*, void (%"class.google::protobuf::Arena"*, i8*, i64)*, i8* }
%"class.google::protobuf::internal::ArenaImpl" = type { %"struct.std::__1::atomic.82", %"struct.std::__1::atomic.82", %"struct.std::__1::atomic.86", %"class.google::protobuf::internal::ArenaImpl::Block"*, i64, %"struct.google::protobuf::internal::ArenaImpl::Options" }
%"struct.std::__1::atomic.82" = type { %"struct.std::__1::__atomic_base.83" }
%"struct.std::__1::__atomic_base.83" = type { %"struct.std::__1::__cxx_atomic_impl.84" }
%"struct.std::__1::__cxx_atomic_impl.84" = type { %"struct.std::__1::__cxx_atomic_base_impl.85" }
%"struct.std::__1::__cxx_atomic_base_impl.85" = type { %"class.google::protobuf::internal::ArenaImpl::SerialArena"* }
%"class.google::protobuf::internal::ArenaImpl::SerialArena" = type { %"class.google::protobuf::internal::ArenaImpl"*, i8*, %"class.google::protobuf::internal::ArenaImpl::Block"*, %"struct.google::protobuf::internal::ArenaImpl::CleanupChunk"*, %"class.google::protobuf::internal::ArenaImpl::SerialArena"*, i8*, i8*, %"struct.google::protobuf::internal::ArenaImpl::CleanupNode"*, %"struct.google::protobuf::internal::ArenaImpl::CleanupNode"* }
%"struct.google::protobuf::internal::ArenaImpl::CleanupChunk" = type { i64, %"struct.google::protobuf::internal::ArenaImpl::CleanupChunk"*, [1 x %"struct.google::protobuf::internal::ArenaImpl::CleanupNode"] }
%"struct.google::protobuf::internal::ArenaImpl::CleanupNode" = type { i8*, void (i8*)* }
%"struct.std::__1::atomic.86" = type { %"struct.std::__1::__atomic_base.87" }
%"struct.std::__1::__atomic_base.87" = type { %"struct.std::__1::__atomic_base.88" }
%"struct.std::__1::__atomic_base.88" = type { %"struct.std::__1::__cxx_atomic_impl.89" }
%"struct.std::__1::__cxx_atomic_impl.89" = type { %"struct.std::__1::__cxx_atomic_base_impl.90" }
%"struct.std::__1::__cxx_atomic_base_impl.90" = type { i64 }
%"class.google::protobuf::internal::ArenaImpl::Block" = type { %"class.google::protobuf::internal::ArenaImpl::Block"*, i64, i64 }
%"struct.google::protobuf::internal::ArenaImpl::Options" = type { i64, i64, i8*, i64, i8* (i64)*, void (i8*, i64)* }
%"class.std::type_info" = type { i32 (...)**, i8* }
%"struct.google::protobuf::internal::RepeatedPtrFieldBase::Rep" = type { i32, [268435454 x i8*] }
%"class.google::protobuf::RepeatedPtrField.91" = type { %"class.google::protobuf::internal::RepeatedPtrFieldBase" }
%"class.google::protobuf::RepeatedPtrField.92" = type { %"class.google::protobuf::internal::RepeatedPtrFieldBase" }
%"class.google::protobuf::RepeatedPtrField.93" = type { %"class.google::protobuf::internal::RepeatedPtrFieldBase" }
%"class.google::protobuf::RepeatedPtrField.94" = type { %"class.google::protobuf::internal::RepeatedPtrFieldBase" }
%"struct.google::protobuf::internal::ArenaStringPtr" = type { %"class.std::__1::basic_string"* }
%"class.enterprise_management::ChromeSignedInUser" = type { %"class.google::protobuf::MessageLite", %"class.google::protobuf::internal::HasBits", %"class.google::protobuf::internal::CachedSize", %"struct.google::protobuf::internal::ArenaStringPtr", %"struct.google::protobuf::internal::ArenaStringPtr" }
%struct.CoreAccountInfo = type <{ %struct.CoreAccountId, %"class.std::__1::basic_string", %"class.std::__1::basic_string", i8, [7 x i8] }>
%struct.CoreAccountId = type { %"class.std::__1::basic_string" }
%"class.signin::IdentityManager" = type <{ %class.KeyedService, %"class.OAuth2AccessTokenManager::DiagnosticsObserver", %"class.PrimaryAccountManager::Observer", %class.ProfileOAuth2TokenServiceObserver, %"class.std::__1::unique_ptr.96", %"class.std::__1::unique_ptr.102", %"class.std::__1::unique_ptr.204", %"class.std::__1::unique_ptr.210", %"class.std::__1::unique_ptr.226", %"class.signin::IdentityMutator", %"class.std::__1::unique_ptr.256", %"class.base::ScopedObservation", %"class.base::ScopedObservation.262", %"class.base::ObserverList.263", %"class.base::ObserverList.267", i8, [7 x i8] }>
%class.KeyedService = type { i32 (...)** }
%"class.OAuth2AccessTokenManager::DiagnosticsObserver" = type { i32 (...)** }
%"class.PrimaryAccountManager::Observer" = type { %"class.base::CheckedObserver" }
%"class.base::CheckedObserver" = type { i32 (...)**, %"class.base::WeakPtrFactory" }
%"class.base::WeakPtrFactory" = type { %"class.base::internal::WeakPtrFactoryBase" }
%"class.base::internal::WeakPtrFactoryBase" = type { %"class.base::internal::WeakReferenceOwner", i64 }
%"class.base::internal::WeakReferenceOwner" = type { %class.scoped_refptr.95 }
%class.scoped_refptr.95 = type { %"class.base::internal::WeakReference::Flag"* }
%class.ProfileOAuth2TokenServiceObserver = type { i32 (...)** }
%"class.std::__1::unique_ptr.96" = type { %"class.std::__1::__compressed_pair.97" }
%"class.std::__1::__compressed_pair.97" = type { %"struct.std::__1::__compressed_pair_elem.98" }
%"struct.std::__1::__compressed_pair_elem.98" = type { %class.AccountTrackerService* }
%class.AccountTrackerService = type opaque
%"class.std::__1::unique_ptr.102" = type { %"class.std::__1::__compressed_pair.103" }
%"class.std::__1::__compressed_pair.103" = type { %"struct.std::__1::__compressed_pair_elem.104" }
%"struct.std::__1::__compressed_pair_elem.104" = type { %class.ProfileOAuth2TokenService* }
%class.ProfileOAuth2TokenService = type <{ %"class.OAuth2AccessTokenManager::Delegate", %class.ProfileOAuth2TokenServiceObserver, %class.PrefService*, %"class.std::__1::unique_ptr.156", i8, [7 x i8], %"class.std::__1::unique_ptr.162", %"class.base::RepeatingCallback.199", %"class.base::RepeatingCallback.200", i32, [4 x i8] }>
%"class.OAuth2AccessTokenManager::Delegate" = type { i32 (...)** }
%class.PrefService = type { i32 (...)**, %"class.std::__1::unique_ptr.105", %"class.std::__1::unique_ptr.111", %class.scoped_refptr.135, %"class.base::RepeatingCallback.136", %class.scoped_refptr.137, %"class.std::__1::unordered_map" }
%"class.std::__1::unique_ptr.105" = type { %"class.std::__1::__compressed_pair.106" }
%"class.std::__1::__compressed_pair.106" = type { %"struct.std::__1::__compressed_pair_elem.107" }
%"struct.std::__1::__compressed_pair_elem.107" = type { %class.PrefNotifierImpl* }
%class.PrefNotifierImpl = type opaque
%"class.std::__1::unique_ptr.111" = type { %"class.std::__1::__compressed_pair.112" }
%"class.std::__1::__compressed_pair.112" = type { %"struct.std::__1::__compressed_pair_elem.113" }
%"struct.std::__1::__compressed_pair_elem.113" = type { %class.PrefValueStore* }
%class.PrefValueStore = type { i32 (...)**, [7 x %"class.PrefValueStore::PrefStoreKeeper"], %"class.base::RepeatingCallback", %class.PrefNotifier*, %"class.std::__1::map.115", i8, %"class.std::__1::unique_ptr.126" }
%"class.PrefValueStore::PrefStoreKeeper" = type <{ %"class.PrefStore::Observer", %class.PrefValueStore*, %class.scoped_refptr.114, i32, [4 x i8] }>
%"class.PrefStore::Observer" = type { i32 (...)** }
%class.scoped_refptr.114 = type { %class.PrefStore* }
%class.PrefStore = type <{ i32 (...)**, %"class.base::RefCounted", [4 x i8] }>
%"class.base::RefCounted" = type { %"class.base::subtle::RefCountedBase" }
%"class.base::subtle::RefCountedBase" = type { i32 }
%"class.base::RepeatingCallback" = type { %"class.base::internal::CallbackBaseCopyable" }
%"class.base::internal::CallbackBaseCopyable" = type { %"class.base::internal::CallbackBase" }
%class.PrefNotifier = type opaque
%"class.std::__1::map.115" = type { %"class.std::__1::__tree.116" }
%"class.std::__1::__tree.116" = type { %"class.std::__1::__tree_end_node"*, %"class.std::__1::__compressed_pair.117", %"class.std::__1::__compressed_pair.121" }
%"class.std::__1::__compressed_pair.117" = type { %"struct.std::__1::__compressed_pair_elem" }
%"class.std::__1::__compressed_pair.121" = type { %"struct.std::__1::__compressed_pair_elem.2" }
%"class.std::__1::unique_ptr.126" = type { %"class.std::__1::__compressed_pair.127" }
%"class.std::__1::__compressed_pair.127" = type { %"struct.std::__1::__compressed_pair_elem.128" }
%"struct.std::__1::__compressed_pair_elem.128" = type { %"class.PrefValueStore::Delegate"* }
%"class.PrefValueStore::Delegate" = type { i32 (...)** }
%class.scoped_refptr.135 = type { %class.PersistentPrefStore* }
%class.PersistentPrefStore = type { %class.WriteablePrefStore.base, [4 x i8] }
%class.WriteablePrefStore.base = type { %class.PrefStore.base }
%class.PrefStore.base = type <{ i32 (...)**, %"class.base::RefCounted" }>
%"class.base::RepeatingCallback.136" = type { %"class.base::internal::CallbackBaseCopyable" }
%class.scoped_refptr.137 = type { %class.PrefRegistry* }
%class.PrefRegistry = type opaque
%"class.std::__1::unordered_map" = type { %"class.std::__1::__hash_table" }
%"class.std::__1::__hash_table" = type <{ %"class.std::__1::unique_ptr.138", %"class.std::__1::__compressed_pair.146", %"class.std::__1::__compressed_pair.151", %"class.std::__1::__compressed_pair.153", [4 x i8] }>
%"class.std::__1::unique_ptr.138" = type { %"class.std::__1::__compressed_pair.139" }
%"class.std::__1::__compressed_pair.139" = type { %"struct.std::__1::__compressed_pair_elem.140", %"struct.std::__1::__compressed_pair_elem.141" }
%"struct.std::__1::__compressed_pair_elem.140" = type { %"struct.std::__1::__hash_node_base"** }
%"struct.std::__1::__hash_node_base" = type { %"struct.std::__1::__hash_node_base"* }
%"struct.std::__1::__compressed_pair_elem.141" = type { %"class.std::__1::__bucket_list_deallocator" }
%"class.std::__1::__bucket_list_deallocator" = type { %"class.std::__1::__compressed_pair.142" }
%"class.std::__1::__compressed_pair.142" = type { %"struct.std::__1::__compressed_pair_elem.2" }
%"class.std::__1::__compressed_pair.146" = type { %"struct.std::__1::__compressed_pair_elem.147" }
%"struct.std::__1::__compressed_pair_elem.147" = type { %"struct.std::__1::__hash_node_base" }
%"class.std::__1::__compressed_pair.151" = type { %"struct.std::__1::__compressed_pair_elem.2" }
%"class.std::__1::__compressed_pair.153" = type { %"struct.std::__1::__compressed_pair_elem.154" }
%"struct.std::__1::__compressed_pair_elem.154" = type { float }
%"class.std::__1::unique_ptr.156" = type { %"class.std::__1::__compressed_pair.157" }
%"class.std::__1::__compressed_pair.157" = type { %"struct.std::__1::__compressed_pair_elem.158" }
%"struct.std::__1::__compressed_pair_elem.158" = type { %class.ProfileOAuth2TokenServiceDelegate* }
%class.ProfileOAuth2TokenServiceDelegate = type opaque
%"class.std::__1::unique_ptr.162" = type { %"class.std::__1::__compressed_pair.163" }
%"class.std::__1::__compressed_pair.163" = type { %"struct.std::__1::__compressed_pair_elem.164" }
%"struct.std::__1::__compressed_pair_elem.164" = type { %class.OAuth2AccessTokenManager* }
%class.OAuth2AccessTokenManager = type { i32 (...)**, %"class.std::__1::map.165", %"class.base::ObserverList.176", %"class.OAuth2AccessTokenManager::Delegate"*, %"class.std::__1::map.187" }
%"class.std::__1::map.165" = type { %"class.std::__1::__tree.166" }
%"class.std::__1::__tree.166" = type { %"class.std::__1::__tree_end_node"*, %"class.std::__1::__compressed_pair.167", %"class.std::__1::__compressed_pair.171" }
%"class.std::__1::__compressed_pair.167" = type { %"struct.std::__1::__compressed_pair_elem" }
%"class.std::__1::__compressed_pair.171" = type { %"struct.std::__1::__compressed_pair_elem.2" }
%"class.base::ObserverList.176" = type <{ %"class.std::__1::vector.177", %"class.base::LinkedList.184", i64, i32, [4 x i8] }>
%"class.std::__1::vector.177" = type { %"class.std::__1::__vector_base.178" }
%"class.std::__1::__vector_base.178" = type { %"class.base::internal::UncheckedObserverAdapter"*, %"class.base::internal::UncheckedObserverAdapter"*, %"class.std::__1::__compressed_pair.179" }
%"class.base::internal::UncheckedObserverAdapter" = type { i8* }
%"class.std::__1::__compressed_pair.179" = type { %"struct.std::__1::__compressed_pair_elem.180" }
%"struct.std::__1::__compressed_pair_elem.180" = type { %"class.base::internal::UncheckedObserverAdapter"* }
%"class.base::LinkedList.184" = type { %"class.base::LinkNode.185" }
%"class.base::LinkNode.185" = type { %"class.base::internal::LinkNodeBase" }
%"class.std::__1::map.187" = type { %"class.std::__1::__tree.188" }
%"class.std::__1::__tree.188" = type { %"class.std::__1::__tree_end_node"*, %"class.std::__1::__compressed_pair.189", %"class.std::__1::__compressed_pair.193" }
%"class.std::__1::__compressed_pair.189" = type { %"struct.std::__1::__compressed_pair_elem" }
%"class.std::__1::__compressed_pair.193" = type { %"struct.std::__1::__compressed_pair_elem.2" }
%"class.base::RepeatingCallback.199" = type { %"class.base::internal::CallbackBaseCopyable" }
%"class.base::RepeatingCallback.200" = type { %"class.base::internal::CallbackBaseCopyable" }
%"class.std::__1::unique_ptr.204" = type { %"class.std::__1::__compressed_pair.205" }
%"class.std::__1::__compressed_pair.205" = type { %"struct.std::__1::__compressed_pair_elem.206" }
%"struct.std::__1::__compressed_pair_elem.206" = type { %class.GaiaCookieManagerService* }
%class.GaiaCookieManagerService = type opaque
%"class.std::__1::unique_ptr.210" = type { %"class.std::__1::__compressed_pair.211" }
%"class.std::__1::__compressed_pair.211" = type { %"struct.std::__1::__compressed_pair_elem.212" }
%"struct.std::__1::__compressed_pair_elem.212" = type { %class.PrimaryAccountManager* }
%class.PrimaryAccountManager = type { %class.ProfileOAuth2TokenServiceObserver, %class.SigninClient*, %class.ProfileOAuth2TokenService*, %class.AccountTrackerService*, i8, [7 x i8], %struct.CoreAccountInfo, %"class.std::__1::unique_ptr.213", %"class.base::ObserverList.219" }
%class.SigninClient = type { %class.KeyedService }
%"class.std::__1::unique_ptr.213" = type { %"class.std::__1::__compressed_pair.214" }
%"class.std::__1::__compressed_pair.214" = type { %"struct.std::__1::__compressed_pair_elem.215" }
%"struct.std::__1::__compressed_pair_elem.215" = type { %class.PrimaryAccountPolicyManager* }
%class.PrimaryAccountPolicyManager = type opaque
%"class.base::ObserverList.219" = type <{ %"class.std::__1::vector", %"class.base::LinkedList.220", i64, i32, [4 x i8] }>
%"class.base::LinkedList.220" = type { %"class.base::LinkNode.221" }
%"class.base::LinkNode.221" = type { %"class.base::internal::LinkNodeBase" }
%"class.std::__1::unique_ptr.226" = type { %"class.std::__1::__compressed_pair.227" }
%"class.std::__1::__compressed_pair.227" = type { %"struct.std::__1::__compressed_pair_elem.228" }
%"struct.std::__1::__compressed_pair_elem.228" = type { %class.AccountFetcherService* }
%class.AccountFetcherService = type opaque
%"class.signin::IdentityMutator" = type { i32 (...)**, %"class.std::__1::unique_ptr.232", %"class.std::__1::unique_ptr.238", %"class.std::__1::unique_ptr.244", %"class.std::__1::unique_ptr.250" }
%"class.std::__1::unique_ptr.232" = type { %"class.std::__1::__compressed_pair.233" }
%"class.std::__1::__compressed_pair.233" = type { %"struct.std::__1::__compressed_pair_elem.234" }
%"struct.std::__1::__compressed_pair_elem.234" = type { %"class.signin::PrimaryAccountMutator"* }
%"class.signin::PrimaryAccountMutator" = type opaque
%"class.std::__1::unique_ptr.238" = type { %"class.std::__1::__compressed_pair.239" }
%"class.std::__1::__compressed_pair.239" = type { %"struct.std::__1::__compressed_pair_elem.240" }
%"struct.std::__1::__compressed_pair_elem.240" = type { %"class.signin::AccountsMutator"* }
%"class.signin::AccountsMutator" = type opaque
%"class.std::__1::unique_ptr.244" = type { %"class.std::__1::__compressed_pair.245" }
%"class.std::__1::__compressed_pair.245" = type { %"struct.std::__1::__compressed_pair_elem.246" }
%"struct.std::__1::__compressed_pair_elem.246" = type { %"class.signin::AccountsCookieMutator"* }
%"class.signin::AccountsCookieMutator" = type opaque
%"class.std::__1::unique_ptr.250" = type { %"class.std::__1::__compressed_pair.251" }
%"class.std::__1::__compressed_pair.251" = type { %"struct.std::__1::__compressed_pair_elem.252" }
%"struct.std::__1::__compressed_pair_elem.252" = type { %"class.signin::DeviceAccountsSynchronizer"* }
%"class.signin::DeviceAccountsSynchronizer" = type opaque
%"class.std::__1::unique_ptr.256" = type { %"class.std::__1::__compressed_pair.257" }
%"class.std::__1::__compressed_pair.257" = type { %"struct.std::__1::__compressed_pair_elem.258" }
%"struct.std::__1::__compressed_pair_elem.258" = type { %"class.signin::DiagnosticsProvider"* }
%"class.signin::DiagnosticsProvider" = type opaque
%"class.base::ScopedObservation" = type { %"class.PrimaryAccountManager::Observer"*, %class.PrimaryAccountManager* }
%"class.base::ScopedObservation.262" = type { %class.ProfileOAuth2TokenServiceObserver*, %class.ProfileOAuth2TokenService* }
%"class.base::ObserverList.263" = type <{ %"class.std::__1::vector.177", %"class.base::LinkedList.264", i64, i32, [4 x i8] }>
%"class.base::LinkedList.264" = type { %"class.base::LinkNode.265" }
%"class.base::LinkNode.265" = type { %"class.base::internal::LinkNodeBase" }
%"class.base::ObserverList.267" = type <{ %"class.std::__1::vector.177", %"class.base::LinkedList.268", i64, i32, [4 x i8] }>
%"class.base::LinkedList.268" = type { %"class.base::LinkNode.269" }
%"class.base::LinkNode.269" = type { %"class.base::internal::LinkNodeBase" }
%"struct.google::protobuf::internal::InternalMetadata::ContainerBase" = type { %"class.google::protobuf::Arena"* }
%"struct.std::__1::basic_string<char, std::__1::char_traits<char>, std::__1::allocator<char> >::__short" = type { [23 x i8], %struct.anon }
%struct.anon = type { i8 }
%class.GURL = type { %"class.std::__1::basic_string", i8, %"struct.url::Parsed", %"class.std::__1::unique_ptr.357" }
%"struct.url::Parsed" = type { %"struct.url::Component", %"struct.url::Component", %"struct.url::Component", %"struct.url::Component", %"struct.url::Component", %"struct.url::Component", %"struct.url::Component", %"struct.url::Component", i8, %"struct.url::Parsed"* }
%"struct.url::Component" = type { i32, i32 }
%"class.std::__1::unique_ptr.357" = type { %"class.std::__1::__compressed_pair.358" }
%"class.std::__1::__compressed_pair.358" = type { %"struct.std::__1::__compressed_pair_elem.359" }
%"struct.std::__1::__compressed_pair_elem.359" = type { %class.GURL* }
%"class.base::detail::const_dict_iterator_proxy" = type { %"class.base::flat_map"* }
%"class.base::flat_map" = type { %"class.base::internal::flat_tree" }
%"class.base::internal::flat_tree" = type { %"class.std::__1::vector.284" }
%"class.std::__1::vector.284" = type { %"class.std::__1::__vector_base.285" }
%"class.std::__1::__vector_base.285" = type { %"struct.std::__1::pair"*, %"struct.std::__1::pair"*, %"class.std::__1::__compressed_pair.286" }
%"struct.std::__1::pair" = type opaque
%"class.std::__1::__compressed_pair.286" = type { %"struct.std::__1::__compressed_pair_elem.287" }
%"struct.std::__1::__compressed_pair_elem.287" = type { %"struct.std::__1::pair"* }
%"class.base::detail::const_dict_iterator" = type { %"class.std::__1::__wrap_iter" }
%"class.std::__1::__wrap_iter" = type { %"struct.std::__1::pair"* }
%"class.absl::optional" = type { %"class.absl::optional_internal::optional_data" }
%"class.absl::optional_internal::optional_data" = type { %"class.absl::optional_internal::optional_data_base" }
%"class.absl::optional_internal::optional_data_base" = type { %"class.absl::optional_internal::optional_data_dtor_base" }
%"class.absl::optional_internal::optional_data_dtor_base" = type { i8, %union.anon.364 }
%union.anon.364 = type { %"class.base::Time" }
%"class.base::Time" = type { %"class.base::time_internal::TimeBase" }
%"class.base::time_internal::TimeBase" = type { i64 }
%"class.std::__1::__basic_string_common" = type { i8 }
%"class.base::DictionaryValue" = type { %"class.base::Value" }
%"class.base::Value" = type { %"class.absl::variant" }
%"class.absl::variant" = type { %"class.absl::variant_internal::VariantCopyAssignBaseNontrivial" }
%"class.absl::variant_internal::VariantCopyAssignBaseNontrivial" = type { %"class.absl::variant_internal::VariantMoveAssignBaseNontrivial" }
%"class.absl::variant_internal::VariantMoveAssignBaseNontrivial" = type { %"class.absl::variant_internal::VariantCopyBaseNontrivial" }
%"class.absl::variant_internal::VariantCopyBaseNontrivial" = type { %"class.absl::variant_internal::VariantMoveBaseNontrivial" }
%"class.absl::variant_internal::VariantMoveBaseNontrivial" = type { %"class.absl::variant_internal::VariantStateBaseDestructorNontrivial" }
%"class.absl::variant_internal::VariantStateBaseDestructorNontrivial" = type { %"class.absl::variant_internal::VariantStateBase" }
%"class.absl::variant_internal::VariantStateBase" = type { %"union.absl::variant_internal::DestructibleUnionImpl", i64 }
%"union.absl::variant_internal::DestructibleUnionImpl" = type { %"union.absl::variant_internal::DestructibleUnionImpl.271" }
%"union.absl::variant_internal::DestructibleUnionImpl.271" = type { %"union.absl::variant_internal::DestructibleUnionImpl.272" }
%"union.absl::variant_internal::DestructibleUnionImpl.272" = type { %"union.absl::variant_internal::DestructibleUnionImpl.273" }
%"union.absl::variant_internal::DestructibleUnionImpl.273" = type { %"union.absl::variant_internal::DestructibleUnionImpl.274" }
%"union.absl::variant_internal::DestructibleUnionImpl.274" = type { %"class.std::__1::basic_string" }
%"class.extensions::ExtensionManagement" = type { %class.KeyedService, %"class.std::__1::unordered_map.300", %"class.std::__1::unordered_map.300", %"class.std::__1::unique_ptr.324", %"class.std::__1::unique_ptr.330", %class.Profile*, %class.PrefService*, i8, i8, [6 x i8], %"class.base::ObserverList.336", %class.PrefChangeRegistrar, %"class.std::__1::vector.349" }
%"class.std::__1::unordered_map.300" = type { %"class.std::__1::__hash_table.301" }
%"class.std::__1::__hash_table.301" = type <{ %"class.std::__1::unique_ptr.302", %"class.std::__1::__compressed_pair.312", %"class.std::__1::__compressed_pair.317", %"class.std::__1::__compressed_pair.320", [4 x i8] }>
%"class.std::__1::unique_ptr.302" = type { %"class.std::__1::__compressed_pair.303" }
%"class.std::__1::__compressed_pair.303" = type { %"struct.std::__1::__compressed_pair_elem.304", %"struct.std::__1::__compressed_pair_elem.306" }
%"struct.std::__1::__compressed_pair_elem.304" = type { %"struct.std::__1::__hash_node_base.305"** }
%"struct.std::__1::__hash_node_base.305" = type { %"struct.std::__1::__hash_node_base.305"* }
%"struct.std::__1::__compressed_pair_elem.306" = type { %"class.std::__1::__bucket_list_deallocator.307" }
%"class.std::__1::__bucket_list_deallocator.307" = type { %"class.std::__1::__compressed_pair.308" }
%"class.std::__1::__compressed_pair.308" = type { %"struct.std::__1::__compressed_pair_elem.2" }
%"class.std::__1::__compressed_pair.312" = type { %"struct.std::__1::__compressed_pair_elem.313" }
%"struct.std::__1::__compressed_pair_elem.313" = type { %"struct.std::__1::__hash_node_base.305" }
%"class.std::__1::__compressed_pair.317" = type { %"struct.std::__1::__compressed_pair_elem.2" }
%"class.std::__1::__compressed_pair.320" = type { %"struct.std::__1::__compressed_pair_elem.154" }
%"class.std::__1::unique_ptr.324" = type { %"class.std::__1::__compressed_pair.325" }
%"class.std::__1::__compressed_pair.325" = type { %"struct.std::__1::__compressed_pair_elem.326" }
%"struct.std::__1::__compressed_pair_elem.326" = type { %"struct.extensions::internal::IndividualSettings"* }
%"struct.extensions::internal::IndividualSettings" = type opaque
%"class.std::__1::unique_ptr.330" = type { %"class.std::__1::__compressed_pair.331" }
%"class.std::__1::__compressed_pair.331" = type { %"struct.std::__1::__compressed_pair_elem.332" }
%"struct.std::__1::__compressed_pair_elem.332" = type { %"struct.extensions::internal::GlobalSettings"* }
%"struct.extensions::internal::GlobalSettings" = type opaque
%"class.base::ObserverList.336" = type <{ %"class.std::__1::vector.177", %"class.base::LinkedList.337", i64, i32, [4 x i8] }>
%"class.base::LinkedList.337" = type { %"class.base::LinkNode.338" }
%"class.base::LinkNode.338" = type { %"class.base::internal::LinkNodeBase" }
%class.PrefChangeRegistrar = type { %class.PrefObserver, %"class.std::__1::map.340", %class.PrefService* }
%class.PrefObserver = type { i32 (...)** }
%"class.std::__1::map.340" = type { %"class.std::__1::__tree.341" }
%"class.std::__1::__tree.341" = type { %"class.std::__1::__tree_end_node"*, %"class.std::__1::__compressed_pair.342", %"class.std::__1::__compressed_pair.346" }
%"class.std::__1::__compressed_pair.342" = type { %"struct.std::__1::__compressed_pair_elem" }
%"class.std::__1::__compressed_pair.346" = type { %"struct.std::__1::__compressed_pair_elem.2" }
%"class.std::__1::vector.349" = type { %"class.std::__1::__vector_base.350" }
%"class.std::__1::__vector_base.350" = type { %"class.std::__1::unique_ptr.351"*, %"class.std::__1::unique_ptr.351"*, %"class.std::__1::__compressed_pair.352" }
%"class.std::__1::unique_ptr.351" = type opaque
%"class.std::__1::__compressed_pair.352" = type { %"struct.std::__1::__compressed_pair_elem.353" }
%"struct.std::__1::__compressed_pair_elem.353" = type { %"class.std::__1::unique_ptr.351"* }
%"class.enterprise_management::ExtensionRequest" = type { %"class.google::protobuf::MessageLite", %"class.google::protobuf::internal::HasBits", %"class.google::protobuf::internal::CachedSize", %"struct.google::protobuf::internal::ArenaStringPtr", i64 }
%"class.policy::PolicyConversionsClient" = type <{ i32 (...)**, i8, i8, i8, i8, i8, i8, [2 x i8] }>
%"class.policy::ChromePolicyConversionsClient" = type { %"class.policy::PolicyConversionsClient.base", %class.Profile* }
%"class.policy::PolicyConversionsClient.base" = type <{ i32 (...)**, i8, i8, i8, i8, i8, i8 }>
%"class.policy::MachineLevelUserCloudPolicyManager" = type opaque
%"class.policy::ChromeBrowserPolicyConnector" = type { %"class.policy::BrowserPolicyConnector", %"class.policy::ConfigurationPolicyProvider"*, %"class.std::__1::unique_ptr.456", %"class.policy::MachineLevelUserCloudPolicyManager"*, %"class.policy::ConfigurationPolicyProvider"* }
%"class.policy::BrowserPolicyConnector" = type { %"class.policy::BrowserPolicyConnectorBase", %"class.std::__1::unique_ptr.444", %"class.std::__1::unique_ptr.450" }
%"class.policy::BrowserPolicyConnectorBase" = type { i32 (...)**, i8, %"class.std::__1::unique_ptr.377", %"class.policy::CombinedSchemaRegistry", %"class.std::__1::vector.423", %"class.std::__1::unique_ptr.431", %"class.std::__1::vector.437" }
%"class.std::__1::unique_ptr.377" = type { %"class.std::__1::__compressed_pair.378" }
%"class.std::__1::__compressed_pair.378" = type { %"struct.std::__1::__compressed_pair_elem.379" }
%"struct.std::__1::__compressed_pair_elem.379" = type { %"class.policy::ConfigurationPolicyHandlerList"* }
%"class.policy::ConfigurationPolicyHandlerList" = type <{ %"class.std::__1::vector.380", %"class.base::RepeatingCallback.388", %"class.base::RepeatingCallback.389", i8, [7 x i8] }>
%"class.std::__1::vector.380" = type { %"class.std::__1::__vector_base.381" }
%"class.std::__1::__vector_base.381" = type { %"class.std::__1::unique_ptr.382"*, %"class.std::__1::unique_ptr.382"*, %"class.std::__1::__compressed_pair.383" }
%"class.std::__1::unique_ptr.382" = type opaque
%"class.std::__1::__compressed_pair.383" = type { %"struct.std::__1::__compressed_pair_elem.384" }
%"struct.std::__1::__compressed_pair_elem.384" = type { %"class.std::__1::unique_ptr.382"* }
%"class.base::RepeatingCallback.388" = type { %"class.base::internal::CallbackBaseCopyable" }
%"class.base::RepeatingCallback.389" = type { %"class.base::internal::CallbackBaseCopyable" }
%"class.policy::CombinedSchemaRegistry" = type { %"class.policy::SchemaRegistry.base", %"class.policy::SchemaRegistry::Observer", %"class.policy::SchemaRegistry::InternalObserver", %"class.std::__1::set", %class.scoped_refptr.393 }
%"class.policy::SchemaRegistry.base" = type <{ i32 (...)**, %class.scoped_refptr.393, %"class.base::ObserverList.406", %"class.base::ObserverList.410", [3 x i8] }>
%"class.base::ObserverList.406" = type <{ %"class.std::__1::vector.177", %"class.base::LinkedList.407", i64, i32, [4 x i8] }>
%"class.base::LinkedList.407" = type { %"class.base::LinkNode.408" }
%"class.base::LinkNode.408" = type { %"class.base::internal::LinkNodeBase" }
%"class.base::ObserverList.410" = type <{ %"class.std::__1::vector.177", %"class.base::LinkedList.411", i64, i32, [4 x i8] }>
%"class.base::LinkedList.411" = type { %"class.base::LinkNode.412" }
%"class.base::LinkNode.412" = type { %"class.base::internal::LinkNodeBase" }
%"class.policy::SchemaRegistry::Observer" = type { i32 (...)** }
%"class.policy::SchemaRegistry::InternalObserver" = type { i32 (...)** }
%"class.std::__1::set" = type { %"class.std::__1::__tree.414" }
%"class.std::__1::__tree.414" = type { %"class.std::__1::__tree_end_node"*, %"class.std::__1::__compressed_pair.415", %"class.std::__1::__compressed_pair.419" }
%"class.std::__1::__compressed_pair.415" = type { %"struct.std::__1::__compressed_pair_elem" }
%"class.std::__1::__compressed_pair.419" = type { %"struct.std::__1::__compressed_pair_elem.2" }
%class.scoped_refptr.393 = type { %"class.policy::SchemaMap"* }
%"class.policy::SchemaMap" = type { %"class.base::RefCountedThreadSafe.394", %"class.std::__1::map.395" }
%"class.base::RefCountedThreadSafe.394" = type { %"class.base::subtle::RefCountedThreadSafeBase" }
%"class.std::__1::map.395" = type { %"class.std::__1::__tree.396" }
%"class.std::__1::__tree.396" = type { %"class.std::__1::__tree_end_node"*, %"class.std::__1::__compressed_pair.397", %"class.std::__1::__compressed_pair.401" }
%"class.std::__1::__compressed_pair.397" = type { %"struct.std::__1::__compressed_pair_elem" }
%"class.std::__1::__compressed_pair.401" = type { %"struct.std::__1::__compressed_pair_elem.2" }
%"class.std::__1::vector.423" = type { %"class.std::__1::__vector_base.424" }
%"class.std::__1::__vector_base.424" = type { %"class.std::__1::unique_ptr.425"*, %"class.std::__1::unique_ptr.425"*, %"class.std::__1::__compressed_pair.426" }
%"class.std::__1::unique_ptr.425" = type opaque
%"class.std::__1::__compressed_pair.426" = type { %"struct.std::__1::__compressed_pair_elem.427" }
%"struct.std::__1::__compressed_pair_elem.427" = type { %"class.std::__1::unique_ptr.425"* }
%"class.std::__1::unique_ptr.431" = type { %"class.std::__1::__compressed_pair.432" }
%"class.std::__1::__compressed_pair.432" = type { %"struct.std::__1::__compressed_pair_elem.433" }
%"struct.std::__1::__compressed_pair_elem.433" = type { %"class.policy::PolicyServiceImpl"* }
%"class.policy::PolicyServiceImpl" = type opaque
%"class.std::__1::vector.437" = type { %"class.std::__1::__vector_base.438" }
%"class.std::__1::__vector_base.438" = type { %"class.base::OnceCallback"*, %"class.base::OnceCallback"*, %"class.std::__1::__compressed_pair.439" }
%"class.std::__1::__compressed_pair.439" = type { %"struct.std::__1::__compressed_pair_elem.440" }
%"struct.std::__1::__compressed_pair_elem.440" = type { %"class.base::OnceCallback"* }
%"class.std::__1::unique_ptr.444" = type { %"class.std::__1::__compressed_pair.445" }
%"class.std::__1::__compressed_pair.445" = type { %"struct.std::__1::__compressed_pair_elem.446" }
%"struct.std::__1::__compressed_pair_elem.446" = type { %"class.policy::PolicyStatisticsCollector"* }
%"class.policy::PolicyStatisticsCollector" = type opaque
%"class.std::__1::unique_ptr.450" = type { %"class.std::__1::__compressed_pair.451" }
%"class.std::__1::__compressed_pair.451" = type { %"struct.std::__1::__compressed_pair_elem.452" }
%"struct.std::__1::__compressed_pair_elem.452" = type { %"class.policy::DeviceManagementService"* }
%"class.policy::DeviceManagementService" = type opaque
%"class.std::__1::unique_ptr.456" = type { %"class.std::__1::__compressed_pair.457" }
%"class.std::__1::__compressed_pair.457" = type { %"struct.std::__1::__compressed_pair_elem.458" }
%"struct.std::__1::__compressed_pair_elem.458" = type { %"class.policy::ChromeBrowserCloudManagementController"* }
%"class.policy::ChromeBrowserCloudManagementController" = type opaque
%"class.policy::ConfigurationPolicyProvider" = type opaque

$_ZN6google8protobuf8internal14ArenaStringPtr14CreateInstanceEPNS0_5ArenaEPKNSt3__112basic_stringIcNS5_11char_traitsIcEENS5_9allocatorIcEEEE = comdat any

$_ZN6google8protobuf8internal21arena_destruct_objectINSt3__112basic_stringIcNS3_11char_traitsIcEENS3_9allocatorIcEEEEEEvPv = comdat any

@_ZTVN20enterprise_reporting29ProfileReportGeneratorDesktopE = hidden unnamed_addr constant { [10 x i8*] } { [10 x i8*] [i8* null, i8* null, i8* bitcast (void (%"class.enterprise_reporting::ProfileReportGeneratorDesktop"*)* @_ZN20enterprise_reporting29ProfileReportGeneratorDesktopD2Ev to i8*), i8* bitcast (void (%"class.enterprise_reporting::ProfileReportGeneratorDesktop"*)* @_ZN20enterprise_reporting29ProfileReportGeneratorDesktopD0Ev to i8*), i8* bitcast (i1 (%"class.enterprise_reporting::ProfileReportGeneratorDesktop"*, %"class.base::FilePath"*)* @_ZN20enterprise_reporting29ProfileReportGeneratorDesktop4InitERKN4base8FilePathE to i8*), i8* bitcast (void (%"class.enterprise_reporting::ProfileReportGeneratorDesktop"*, %"class.enterprise_management::ChromeUserProfileInfo"*)* @_ZN20enterprise_reporting29ProfileReportGeneratorDesktop17GetSigninUserInfoEPN21enterprise_management21ChromeUserProfileInfoE to i8*), i8* bitcast (void (%"class.enterprise_reporting::ProfileReportGeneratorDesktop"*, %"class.enterprise_management::ChromeUserProfileInfo"*)* @_ZN20enterprise_reporting29ProfileReportGeneratorDesktop16GetExtensionInfoEPN21enterprise_management21ChromeUserProfileInfoE to i8*), i8* bitcast (void (%"class.enterprise_reporting::ProfileReportGeneratorDesktop"*, %"class.enterprise_management::ChromeUserProfileInfo"*)* @_ZN20enterprise_reporting29ProfileReportGeneratorDesktop19GetExtensionRequestEPN21enterprise_management21ChromeUserProfileInfoE to i8*), i8* bitcast (%"class.policy::PolicyConversionsClient"* (%"class.enterprise_reporting::ProfileReportGeneratorDesktop"*)* @_ZN20enterprise_reporting29ProfileReportGeneratorDesktop27MakePolicyConversionsClientEv to i8*), i8* bitcast (%"class.policy::MachineLevelUserCloudPolicyManager"* (%"class.enterprise_reporting::ProfileReportGeneratorDesktop"*)* @_ZN20enterprise_reporting29ProfileReportGeneratorDesktop21GetCloudPolicyManagerEv to i8*)] }, align 8
@g_browser_process = external local_unnamed_addr global %class.BrowserProcess*, align 8
@_ZN5prefs29kCloudExtensionRequestEnabledE = external constant [0 x i8], align 1
@_ZN5prefs25kCloudExtensionRequestIdsE = external constant [0 x i8], align 1
@_ZN14extension_misc26kExtensionRequestTimestampE = external constant [0 x i8], align 1
@_ZN6google8protobuf8internal26fixed_address_empty_stringE = external global %"class.google::protobuf::internal::ExplicitlyConstructed", align 8

@_ZN20enterprise_reporting29ProfileReportGeneratorDesktopC1Ev = hidden unnamed_addr alias void (%"class.enterprise_reporting::ProfileReportGeneratorDesktop"*), void (%"class.enterprise_reporting::ProfileReportGeneratorDesktop"*)* @_ZN20enterprise_reporting29ProfileReportGeneratorDesktopC2Ev
@_ZN20enterprise_reporting29ProfileReportGeneratorDesktopD1Ev = hidden unnamed_addr alias void (%"class.enterprise_reporting::ProfileReportGeneratorDesktop"*), void (%"class.enterprise_reporting::ProfileReportGeneratorDesktop"*)* @_ZN20enterprise_reporting29ProfileReportGeneratorDesktopD2Ev

; Function Attrs: nofree norecurse nounwind ssp uwtable writeonly
define hidden void @_ZN20enterprise_reporting29ProfileReportGeneratorDesktopC2Ev(%"class.enterprise_reporting::ProfileReportGeneratorDesktop"* nocapture) unnamed_addr #0 align 2 {
  %2 = getelementptr inbounds %"class.enterprise_reporting::ProfileReportGeneratorDesktop", %"class.enterprise_reporting::ProfileReportGeneratorDesktop"* %0, i64 0, i32 0, i32 0
  store i32 (...)** bitcast (i8** getelementptr inbounds ({ [10 x i8*] }, { [10 x i8*] }* @_ZTVN20enterprise_reporting29ProfileReportGeneratorDesktopE, i64 0, inrange i32 0, i64 2) to i32 (...)**), i32 (...)*** %2, align 8
  ret void
}

; Function Attrs: norecurse nounwind readnone ssp uwtable
define hidden void @_ZN20enterprise_reporting29ProfileReportGeneratorDesktopD2Ev(%"class.enterprise_reporting::ProfileReportGeneratorDesktop"* nocapture) unnamed_addr #1 align 2 {
  ret void
}

; Function Attrs: nounwind ssp uwtable
define hidden void @_ZN20enterprise_reporting29ProfileReportGeneratorDesktopD0Ev(%"class.enterprise_reporting::ProfileReportGeneratorDesktop"*) unnamed_addr #2 align 2 {
  %2 = bitcast %"class.enterprise_reporting::ProfileReportGeneratorDesktop"* %0 to i8*
  tail call void @_ZdlPv(i8* %2) #11
  ret void
}

; Function Attrs: nobuiltin nounwind
declare void @_ZdlPv(i8*) local_unnamed_addr #3

; Function Attrs: nounwind ssp uwtable
define hidden zeroext i1 @_ZN20enterprise_reporting29ProfileReportGeneratorDesktop4InitERKN4base8FilePathE(%"class.enterprise_reporting::ProfileReportGeneratorDesktop"* nocapture, %"class.base::FilePath"* dereferenceable(24)) unnamed_addr #2 align 2 {
  %3 = load %class.BrowserProcess*, %class.BrowserProcess** @g_browser_process, align 8
  %4 = bitcast %class.BrowserProcess* %3 to %class.ProfileManager* (%class.BrowserProcess*)***
  %5 = load %class.ProfileManager* (%class.BrowserProcess*)**, %class.ProfileManager* (%class.BrowserProcess*)*** %4, align 8
  %6 = getelementptr inbounds %class.ProfileManager* (%class.BrowserProcess*)*, %class.ProfileManager* (%class.BrowserProcess*)** %5, i64 6
  %7 = load %class.ProfileManager* (%class.BrowserProcess*)*, %class.ProfileManager* (%class.BrowserProcess*)** %6, align 8
  %8 = tail call %class.ProfileManager* %7(%class.BrowserProcess* %3) #12
  %9 = tail call %class.Profile* @_ZNK14ProfileManager16GetProfileByPathERKN4base8FilePathE(%class.ProfileManager* %8, %"class.base::FilePath"* dereferenceable(24) %1) #12
  %10 = getelementptr inbounds %"class.enterprise_reporting::ProfileReportGeneratorDesktop", %"class.enterprise_reporting::ProfileReportGeneratorDesktop"* %0, i64 0, i32 1
  store %class.Profile* %9, %class.Profile** %10, align 8
  %11 = icmp ne %class.Profile* %9, null
  ret i1 %11
}

declare %class.Profile* @_ZNK14ProfileManager16GetProfileByPathERKN4base8FilePathE(%class.ProfileManager*, %"class.base::FilePath"* dereferenceable(24)) local_unnamed_addr #4

; Function Attrs: nounwind ssp uwtable
define hidden void @_ZN20enterprise_reporting29ProfileReportGeneratorDesktop17GetSigninUserInfoEPN21enterprise_management21ChromeUserProfileInfoE(%"class.enterprise_reporting::ProfileReportGeneratorDesktop"* nocapture readonly, %"class.enterprise_management::ChromeUserProfileInfo"* nocapture) unnamed_addr #2 align 2 {
  %3 = alloca %struct.CoreAccountInfo, align 8
  %4 = bitcast %struct.CoreAccountInfo* %3 to i8*
  call void @llvm.lifetime.start.p0i8(i64 80, i8* nonnull %4) #12
  call void @llvm.memset.p0i8.i64(i8* nonnull align 8 %4, i8 -86, i64 80, i1 false)
  %5 = getelementptr inbounds %"class.enterprise_reporting::ProfileReportGeneratorDesktop", %"class.enterprise_reporting::ProfileReportGeneratorDesktop"* %0, i64 0, i32 1
  %6 = load %class.Profile*, %class.Profile** %5, align 8
  %7 = tail call %"class.signin::IdentityManager"* @_ZN22IdentityManagerFactory13GetForProfileEP7Profile(%class.Profile* %6) #12
  call void @_ZNK6signin15IdentityManager21GetPrimaryAccountInfoENS_12ConsentLevelE(%struct.CoreAccountInfo* nonnull sret %3, %"class.signin::IdentityManager"* %7, i32 1) #12
  %8 = call zeroext i1 @_ZNK15CoreAccountInfo7IsEmptyEv(%struct.CoreAccountInfo* nonnull %3) #12
  br i1 %8, label %140, label %9

9:                                                ; preds = %2
  %10 = getelementptr inbounds %"class.enterprise_management::ChromeUserProfileInfo", %"class.enterprise_management::ChromeUserProfileInfo"* %1, i64 0, i32 1, i32 0, i64 0
  %11 = load i32, i32* %10, align 4
  %12 = or i32 %11, 4
  store i32 %12, i32* %10, align 4
  %13 = getelementptr inbounds %"class.enterprise_management::ChromeUserProfileInfo", %"class.enterprise_management::ChromeUserProfileInfo"* %1, i64 0, i32 10
  %14 = load %"class.enterprise_management::ChromeSignedInUser"*, %"class.enterprise_management::ChromeSignedInUser"** %13, align 8
  %15 = icmp eq %"class.enterprise_management::ChromeSignedInUser"* %14, null
  br i1 %15, label %16, label %32

16:                                               ; preds = %9
  %17 = getelementptr inbounds %"class.enterprise_management::ChromeUserProfileInfo", %"class.enterprise_management::ChromeUserProfileInfo"* %1, i64 0, i32 0, i32 1
  %18 = bitcast %"class.google::protobuf::internal::InternalMetadata"* %17 to i64*
  %19 = load i64, i64* %18, align 8
  %20 = and i64 %19, 1
  %21 = icmp eq i64 %20, 0
  %22 = and i64 %19, -2
  br i1 %21, label %27, label %23, !prof !2

23:                                               ; preds = %16
  %24 = inttoptr i64 %22 to %"struct.google::protobuf::internal::InternalMetadata::ContainerBase"*
  %25 = getelementptr inbounds %"struct.google::protobuf::internal::InternalMetadata::ContainerBase", %"struct.google::protobuf::internal::InternalMetadata::ContainerBase"* %24, i64 0, i32 0
  %26 = load %"class.google::protobuf::Arena"*, %"class.google::protobuf::Arena"** %25, align 8
  br label %29

27:                                               ; preds = %16
  %28 = inttoptr i64 %22 to %"class.google::protobuf::Arena"*
  br label %29

29:                                               ; preds = %27, %23
  %30 = phi %"class.google::protobuf::Arena"* [ %26, %23 ], [ %28, %27 ]
  %31 = call %"class.enterprise_management::ChromeSignedInUser"* @_ZN6google8protobuf5Arena18CreateMaybeMessageIN21enterprise_management18ChromeSignedInUserEJEEEPT_PS1_DpOT0_(%"class.google::protobuf::Arena"* %30) #12
  store %"class.enterprise_management::ChromeSignedInUser"* %31, %"class.enterprise_management::ChromeSignedInUser"** %13, align 8
  br label %32

32:                                               ; preds = %9, %29
  %33 = phi %"class.enterprise_management::ChromeSignedInUser"* [ %31, %29 ], [ %14, %9 ]
  %34 = getelementptr inbounds %struct.CoreAccountInfo, %struct.CoreAccountInfo* %3, i64 0, i32 2
  %35 = getelementptr inbounds %"class.enterprise_management::ChromeSignedInUser", %"class.enterprise_management::ChromeSignedInUser"* %33, i64 0, i32 1, i32 0, i64 0
  %36 = load i32, i32* %35, align 4
  %37 = or i32 %36, 1
  store i32 %37, i32* %35, align 4
  %38 = getelementptr inbounds %"class.enterprise_management::ChromeSignedInUser", %"class.enterprise_management::ChromeSignedInUser"* %33, i64 0, i32 3
  %39 = getelementptr inbounds %"class.enterprise_management::ChromeSignedInUser", %"class.enterprise_management::ChromeSignedInUser"* %33, i64 0, i32 0, i32 1
  %40 = bitcast %"class.google::protobuf::internal::InternalMetadata"* %39 to i64*
  %41 = load i64, i64* %40, align 8
  %42 = and i64 %41, 1
  %43 = icmp eq i64 %42, 0
  %44 = and i64 %41, -2
  br i1 %43, label %49, label %45, !prof !2

45:                                               ; preds = %32
  %46 = inttoptr i64 %44 to %"struct.google::protobuf::internal::InternalMetadata::ContainerBase"*
  %47 = getelementptr inbounds %"struct.google::protobuf::internal::InternalMetadata::ContainerBase", %"struct.google::protobuf::internal::InternalMetadata::ContainerBase"* %46, i64 0, i32 0
  %48 = load %"class.google::protobuf::Arena"*, %"class.google::protobuf::Arena"** %47, align 8
  br label %51

49:                                               ; preds = %32
  %50 = inttoptr i64 %44 to %"class.google::protobuf::Arena"*
  br label %51

51:                                               ; preds = %49, %45
  %52 = phi %"class.google::protobuf::Arena"* [ %48, %45 ], [ %50, %49 ]
  %53 = getelementptr inbounds %"struct.google::protobuf::internal::ArenaStringPtr", %"struct.google::protobuf::internal::ArenaStringPtr"* %38, i64 0, i32 0
  %54 = load %"class.std::__1::basic_string"*, %"class.std::__1::basic_string"** %53, align 8
  %55 = icmp eq %"class.std::__1::basic_string"* %54, bitcast (%"class.google::protobuf::internal::ExplicitlyConstructed"* @_ZN6google8protobuf8internal26fixed_address_empty_stringE to %"class.std::__1::basic_string"*)
  br i1 %55, label %56, label %57

56:                                               ; preds = %51
  call void @_ZN6google8protobuf8internal14ArenaStringPtr14CreateInstanceEPNS0_5ArenaEPKNSt3__112basic_stringIcNS5_11char_traitsIcEENS5_9allocatorIcEEEE(%"struct.google::protobuf::internal::ArenaStringPtr"* %38, %"class.google::protobuf::Arena"* %52, %"class.std::__1::basic_string"* %34) #12
  br label %88

57:                                               ; preds = %51
  %58 = icmp eq %"class.std::__1::basic_string"* %54, %34
  br i1 %58, label %88, label %59

59:                                               ; preds = %57
  %60 = bitcast %"class.std::__1::basic_string"* %54 to %"struct.std::__1::basic_string<char, std::__1::char_traits<char>, std::__1::allocator<char> >::__short"*
  %61 = getelementptr inbounds %"struct.std::__1::basic_string<char, std::__1::char_traits<char>, std::__1::allocator<char> >::__short", %"struct.std::__1::basic_string<char, std::__1::char_traits<char>, std::__1::allocator<char> >::__short"* %60, i64 0, i32 1, i32 0
  %62 = load i8, i8* %61, align 1
  %63 = icmp slt i8 %62, 0
  %64 = bitcast %"class.std::__1::basic_string"* %34 to %"struct.std::__1::basic_string<char, std::__1::char_traits<char>, std::__1::allocator<char> >::__short"*
  %65 = getelementptr inbounds %"struct.std::__1::basic_string<char, std::__1::char_traits<char>, std::__1::allocator<char> >::__short", %"struct.std::__1::basic_string<char, std::__1::char_traits<char>, std::__1::allocator<char> >::__short"* %64, i64 0, i32 1, i32 0
  %66 = load i8, i8* %65, align 1
  %67 = icmp slt i8 %66, 0
  br i1 %63, label %78, label %68

68:                                               ; preds = %59
  br i1 %67, label %72, label %69

69:                                               ; preds = %68
  %70 = bitcast %"class.std::__1::basic_string"* %54 to i8*
  %71 = bitcast %"class.std::__1::basic_string"* %34 to i8*
  call void @llvm.memcpy.p0i8.p0i8.i64(i8* align 8 %70, i8* align 8 %71, i64 24, i1 false) #12
  br label %88

72:                                               ; preds = %68
  %73 = getelementptr inbounds %"class.std::__1::basic_string", %"class.std::__1::basic_string"* %34, i64 0, i32 0, i32 0, i32 0, i32 0, i32 0, i32 0
  %74 = load i8*, i8** %73, align 8
  %75 = getelementptr inbounds %struct.CoreAccountInfo, %struct.CoreAccountInfo* %3, i64 0, i32 2, i32 0, i32 0, i32 0, i32 0, i32 0, i32 1
  %76 = load i64, i64* %75, align 8
  %77 = call dereferenceable(24) %"class.std::__1::basic_string"* @_ZNSt3__112basic_stringIcNS_11char_traitsIcEENS_9allocatorIcEEE17__assign_no_aliasILb1EEERS5_PKcm(%"class.std::__1::basic_string"* %54, i8* %74, i64 %76) #12
  br label %88

78:                                               ; preds = %59
  %79 = getelementptr inbounds %"class.std::__1::basic_string", %"class.std::__1::basic_string"* %34, i64 0, i32 0, i32 0, i32 0, i32 0, i32 0, i32 0
  %80 = load i8*, i8** %79, align 8
  %81 = getelementptr inbounds %struct.CoreAccountInfo, %struct.CoreAccountInfo* %3, i64 0, i32 2, i32 0, i32 0, i32 0, i32 0, i32 0, i32 1
  %82 = load i64, i64* %81, align 8
  %83 = bitcast %"class.std::__1::basic_string"* %34 to i8*
  %84 = zext i8 %66 to i64
  %85 = select i1 %67, i8* %80, i8* %83
  %86 = select i1 %67, i64 %82, i64 %84
  %87 = call dereferenceable(24) %"class.std::__1::basic_string"* @_ZNSt3__112basic_stringIcNS_11char_traitsIcEENS_9allocatorIcEEE17__assign_no_aliasILb0EEERS5_PKcm(%"class.std::__1::basic_string"* %54, i8* %85, i64 %86) #12
  br label %88

88:                                               ; preds = %56, %57, %69, %72, %78
  %89 = getelementptr inbounds %struct.CoreAccountInfo, %struct.CoreAccountInfo* %3, i64 0, i32 1
  %90 = load i32, i32* %35, align 4
  %91 = or i32 %90, 2
  store i32 %91, i32* %35, align 4
  %92 = getelementptr inbounds %"class.enterprise_management::ChromeSignedInUser", %"class.enterprise_management::ChromeSignedInUser"* %33, i64 0, i32 4
  %93 = load i64, i64* %40, align 8
  %94 = and i64 %93, 1
  %95 = icmp eq i64 %94, 0
  %96 = and i64 %93, -2
  br i1 %95, label %101, label %97, !prof !2

97:                                               ; preds = %88
  %98 = inttoptr i64 %96 to %"struct.google::protobuf::internal::InternalMetadata::ContainerBase"*
  %99 = getelementptr inbounds %"struct.google::protobuf::internal::InternalMetadata::ContainerBase", %"struct.google::protobuf::internal::InternalMetadata::ContainerBase"* %98, i64 0, i32 0
  %100 = load %"class.google::protobuf::Arena"*, %"class.google::protobuf::Arena"** %99, align 8
  br label %103

101:                                              ; preds = %88
  %102 = inttoptr i64 %96 to %"class.google::protobuf::Arena"*
  br label %103

103:                                              ; preds = %101, %97
  %104 = phi %"class.google::protobuf::Arena"* [ %100, %97 ], [ %102, %101 ]
  %105 = getelementptr inbounds %"struct.google::protobuf::internal::ArenaStringPtr", %"struct.google::protobuf::internal::ArenaStringPtr"* %92, i64 0, i32 0
  %106 = load %"class.std::__1::basic_string"*, %"class.std::__1::basic_string"** %105, align 8
  %107 = icmp eq %"class.std::__1::basic_string"* %106, bitcast (%"class.google::protobuf::internal::ExplicitlyConstructed"* @_ZN6google8protobuf8internal26fixed_address_empty_stringE to %"class.std::__1::basic_string"*)
  br i1 %107, label %108, label %109

108:                                              ; preds = %103
  call void @_ZN6google8protobuf8internal14ArenaStringPtr14CreateInstanceEPNS0_5ArenaEPKNSt3__112basic_stringIcNS5_11char_traitsIcEENS5_9allocatorIcEEEE(%"struct.google::protobuf::internal::ArenaStringPtr"* %92, %"class.google::protobuf::Arena"* %104, %"class.std::__1::basic_string"* %89) #12
  br label %140

109:                                              ; preds = %103
  %110 = icmp eq %"class.std::__1::basic_string"* %106, %89
  br i1 %110, label %140, label %111

111:                                              ; preds = %109
  %112 = bitcast %"class.std::__1::basic_string"* %106 to %"struct.std::__1::basic_string<char, std::__1::char_traits<char>, std::__1::allocator<char> >::__short"*
  %113 = getelementptr inbounds %"struct.std::__1::basic_string<char, std::__1::char_traits<char>, std::__1::allocator<char> >::__short", %"struct.std::__1::basic_string<char, std::__1::char_traits<char>, std::__1::allocator<char> >::__short"* %112, i64 0, i32 1, i32 0
  %114 = load i8, i8* %113, align 1
  %115 = icmp slt i8 %114, 0
  %116 = bitcast %"class.std::__1::basic_string"* %89 to %"struct.std::__1::basic_string<char, std::__1::char_traits<char>, std::__1::allocator<char> >::__short"*
  %117 = getelementptr inbounds %"struct.std::__1::basic_string<char, std::__1::char_traits<char>, std::__1::allocator<char> >::__short", %"struct.std::__1::basic_string<char, std::__1::char_traits<char>, std::__1::allocator<char> >::__short"* %116, i64 0, i32 1, i32 0
  %118 = load i8, i8* %117, align 1
  %119 = icmp slt i8 %118, 0
  br i1 %115, label %130, label %120

120:                                              ; preds = %111
  br i1 %119, label %124, label %121

121:                                              ; preds = %120
  %122 = bitcast %"class.std::__1::basic_string"* %106 to i8*
  %123 = bitcast %"class.std::__1::basic_string"* %89 to i8*
  call void @llvm.memcpy.p0i8.p0i8.i64(i8* align 8 %122, i8* align 8 %123, i64 24, i1 false) #12
  br label %140

124:                                              ; preds = %120
  %125 = getelementptr inbounds %"class.std::__1::basic_string", %"class.std::__1::basic_string"* %89, i64 0, i32 0, i32 0, i32 0, i32 0, i32 0, i32 0
  %126 = load i8*, i8** %125, align 8
  %127 = getelementptr inbounds %struct.CoreAccountInfo, %struct.CoreAccountInfo* %3, i64 0, i32 1, i32 0, i32 0, i32 0, i32 0, i32 0, i32 1
  %128 = load i64, i64* %127, align 8
  %129 = call dereferenceable(24) %"class.std::__1::basic_string"* @_ZNSt3__112basic_stringIcNS_11char_traitsIcEENS_9allocatorIcEEE17__assign_no_aliasILb1EEERS5_PKcm(%"class.std::__1::basic_string"* %106, i8* %126, i64 %128) #12
  br label %140

130:                                              ; preds = %111
  %131 = getelementptr inbounds %"class.std::__1::basic_string", %"class.std::__1::basic_string"* %89, i64 0, i32 0, i32 0, i32 0, i32 0, i32 0, i32 0
  %132 = load i8*, i8** %131, align 8
  %133 = getelementptr inbounds %struct.CoreAccountInfo, %struct.CoreAccountInfo* %3, i64 0, i32 1, i32 0, i32 0, i32 0, i32 0, i32 0, i32 1
  %134 = load i64, i64* %133, align 8
  %135 = bitcast %"class.std::__1::basic_string"* %89 to i8*
  %136 = zext i8 %118 to i64
  %137 = select i1 %119, i8* %132, i8* %135
  %138 = select i1 %119, i64 %134, i64 %136
  %139 = call dereferenceable(24) %"class.std::__1::basic_string"* @_ZNSt3__112basic_stringIcNS_11char_traitsIcEENS_9allocatorIcEEE17__assign_no_aliasILb0EEERS5_PKcm(%"class.std::__1::basic_string"* %106, i8* %137, i64 %138) #12
  br label %140

140:                                              ; preds = %130, %124, %121, %109, %108, %2
  call void @_ZN15CoreAccountInfoD1Ev(%struct.CoreAccountInfo* nonnull %3) #12
  call void @llvm.lifetime.end.p0i8(i64 80, i8* nonnull %4) #12
  ret void
}

; Function Attrs: argmemonly nounwind
declare void @llvm.lifetime.start.p0i8(i64 immarg, i8* nocapture) #5

; Function Attrs: argmemonly nounwind
declare void @llvm.memset.p0i8.i64(i8* nocapture writeonly, i8, i64, i1 immarg) #5

declare %"class.signin::IdentityManager"* @_ZN22IdentityManagerFactory13GetForProfileEP7Profile(%class.Profile*) local_unnamed_addr #4

declare void @_ZNK6signin15IdentityManager21GetPrimaryAccountInfoENS_12ConsentLevelE(%struct.CoreAccountInfo* sret, %"class.signin::IdentityManager"*, i32) local_unnamed_addr #4

declare zeroext i1 @_ZNK15CoreAccountInfo7IsEmptyEv(%struct.CoreAccountInfo*) local_unnamed_addr #4

; Function Attrs: argmemonly nounwind
declare void @llvm.lifetime.end.p0i8(i64 immarg, i8* nocapture) #5

; Function Attrs: nounwind
declare void @_ZN15CoreAccountInfoD1Ev(%struct.CoreAccountInfo*) unnamed_addr #6

; Function Attrs: nounwind ssp uwtable
define hidden void @_ZN20enterprise_reporting29ProfileReportGeneratorDesktop16GetExtensionInfoEPN21enterprise_management21ChromeUserProfileInfoE(%"class.enterprise_reporting::ProfileReportGeneratorDesktop"* nocapture readonly, %"class.enterprise_management::ChromeUserProfileInfo"*) unnamed_addr #2 align 2 {
  %3 = getelementptr inbounds %"class.enterprise_reporting::ProfileReportGeneratorDesktop", %"class.enterprise_reporting::ProfileReportGeneratorDesktop"* %0, i64 0, i32 1
  %4 = load %class.Profile*, %class.Profile** %3, align 8
  tail call void @_ZN20enterprise_reporting36AppendExtensionInfoIntoProfileReportEP7ProfilePN21enterprise_management21ChromeUserProfileInfoE(%class.Profile* %4, %"class.enterprise_management::ChromeUserProfileInfo"* %1) #12
  ret void
}

declare void @_ZN20enterprise_reporting36AppendExtensionInfoIntoProfileReportEP7ProfilePN21enterprise_management21ChromeUserProfileInfoE(%class.Profile*, %"class.enterprise_management::ChromeUserProfileInfo"*) local_unnamed_addr #4

; Function Attrs: nounwind ssp uwtable
define hidden void @_ZN20enterprise_reporting29ProfileReportGeneratorDesktop19GetExtensionRequestEPN21enterprise_management21ChromeUserProfileInfoE(%"class.enterprise_reporting::ProfileReportGeneratorDesktop"* nocapture readonly, %"class.enterprise_management::ChromeUserProfileInfo"*) unnamed_addr #2 align 2 {
  %3 = alloca %"class.std::__1::basic_string", align 8
  %4 = alloca %"class.std::__1::basic_string", align 8
  %5 = alloca %"class.std::__1::basic_string", align 8
  %6 = alloca %class.GURL, align 8
  %7 = alloca %"class.base::detail::const_dict_iterator_proxy", align 8
  %8 = alloca %"class.base::detail::const_dict_iterator", align 8
  %9 = alloca %"class.base::detail::const_dict_iterator", align 8
  %10 = alloca %"class.absl::optional", align 8
  %11 = getelementptr inbounds %"class.enterprise_reporting::ProfileReportGeneratorDesktop", %"class.enterprise_reporting::ProfileReportGeneratorDesktop"* %0, i64 0, i32 1
  %12 = load %class.Profile*, %class.Profile** %11, align 8
  %13 = bitcast %class.Profile* %12 to %class.PrefService* (%class.Profile*)***
  %14 = load %class.PrefService* (%class.Profile*)**, %class.PrefService* (%class.Profile*)*** %13, align 8
  %15 = getelementptr inbounds %class.PrefService* (%class.Profile*)*, %class.PrefService* (%class.Profile*)** %14, i64 46
  %16 = load %class.PrefService* (%class.Profile*)*, %class.PrefService* (%class.Profile*)** %15, align 8
  %17 = tail call %class.PrefService* %16(%class.Profile* %12) #12
  %18 = bitcast %"class.std::__1::basic_string"* %3 to i8*
  call void @llvm.lifetime.start.p0i8(i64 24, i8* nonnull %18) #12
  %19 = tail call i64 @strlen(i8* getelementptr inbounds ([0 x i8], [0 x i8]* @_ZN5prefs29kCloudExtensionRequestEnabledE, i64 0, i64 0)) #12
  %20 = icmp ugt i64 %19, -17
  br i1 %20, label %21, label %23

21:                                               ; preds = %2
  %22 = bitcast %"class.std::__1::basic_string"* %3 to %"class.std::__1::__basic_string_common"*
  call void @_ZNKSt3__121__basic_string_commonILb1EE20__throw_length_errorEv(%"class.std::__1::__basic_string_common"* nonnull %22) #13
  unreachable

23:                                               ; preds = %2
  %24 = icmp ult i64 %19, 23
  br i1 %24, label %34, label %25

25:                                               ; preds = %23
  %26 = add nuw i64 %19, 16
  %27 = and i64 %26, -16
  %28 = tail call i8* @_Znwm(i64 %27) #11
  %29 = getelementptr inbounds %"class.std::__1::basic_string", %"class.std::__1::basic_string"* %3, i64 0, i32 0, i32 0, i32 0, i32 0, i32 0, i32 0
  store i8* %28, i8** %29, align 8
  %30 = or i64 %27, -9223372036854775808
  %31 = getelementptr inbounds %"class.std::__1::basic_string", %"class.std::__1::basic_string"* %3, i64 0, i32 0, i32 0, i32 0, i32 0, i32 0, i32 2
  store i64 %30, i64* %31, align 8
  %32 = getelementptr inbounds %"class.std::__1::basic_string", %"class.std::__1::basic_string"* %3, i64 0, i32 0, i32 0, i32 0, i32 0, i32 0, i32 1
  store i64 %19, i64* %32, align 8
  %33 = bitcast %"class.std::__1::basic_string"* %3 to %"struct.std::__1::basic_string<char, std::__1::char_traits<char>, std::__1::allocator<char> >::__short"*
  br label %39

34:                                               ; preds = %23
  %35 = trunc i64 %19 to i8
  %36 = bitcast %"class.std::__1::basic_string"* %3 to %"struct.std::__1::basic_string<char, std::__1::char_traits<char>, std::__1::allocator<char> >::__short"*
  %37 = getelementptr inbounds %"struct.std::__1::basic_string<char, std::__1::char_traits<char>, std::__1::allocator<char> >::__short", %"struct.std::__1::basic_string<char, std::__1::char_traits<char>, std::__1::allocator<char> >::__short"* %36, i64 0, i32 1, i32 0
  store i8 %35, i8* %37, align 1
  %38 = icmp eq i64 %19, 0
  br i1 %38, label %42, label %39

39:                                               ; preds = %34, %25
  %40 = phi %"struct.std::__1::basic_string<char, std::__1::char_traits<char>, std::__1::allocator<char> >::__short"* [ %36, %34 ], [ %33, %25 ]
  %41 = phi i8* [ %18, %34 ], [ %28, %25 ]
  call void @llvm.memcpy.p0i8.p0i8.i64(i8* nonnull align 1 %41, i8* align 1 getelementptr inbounds ([0 x i8], [0 x i8]* @_ZN5prefs29kCloudExtensionRequestEnabledE, i64 0, i64 0), i64 %19, i1 false) #12
  br label %42

42:                                               ; preds = %34, %39
  %43 = phi %"struct.std::__1::basic_string<char, std::__1::char_traits<char>, std::__1::allocator<char> >::__short"* [ %36, %34 ], [ %40, %39 ]
  %44 = phi i8* [ %18, %34 ], [ %41, %39 ]
  %45 = getelementptr inbounds i8, i8* %44, i64 %19
  store i8 0, i8* %45, align 1
  %46 = call zeroext i1 @_ZNK11PrefService10GetBooleanERKNSt3__112basic_stringIcNS0_11char_traitsIcEENS0_9allocatorIcEEEE(%class.PrefService* %17, %"class.std::__1::basic_string"* nonnull dereferenceable(24) %3) #12
  %47 = getelementptr inbounds %"struct.std::__1::basic_string<char, std::__1::char_traits<char>, std::__1::allocator<char> >::__short", %"struct.std::__1::basic_string<char, std::__1::char_traits<char>, std::__1::allocator<char> >::__short"* %43, i64 0, i32 1, i32 0
  %48 = load i8, i8* %47, align 1
  %49 = icmp slt i8 %48, 0
  br i1 %49, label %50, label %53

50:                                               ; preds = %42
  %51 = getelementptr inbounds %"class.std::__1::basic_string", %"class.std::__1::basic_string"* %3, i64 0, i32 0, i32 0, i32 0, i32 0, i32 0, i32 0
  %52 = load i8*, i8** %51, align 8
  call void @_ZdlPv(i8* %52) #11
  br label %53

53:                                               ; preds = %42, %50
  call void @llvm.lifetime.end.p0i8(i64 24, i8* nonnull %18) #12
  br i1 %46, label %54, label %265

54:                                               ; preds = %53
  %55 = load %class.Profile*, %class.Profile** %11, align 8
  %56 = bitcast %class.Profile* %55 to %class.PrefService* (%class.Profile*)***
  %57 = load %class.PrefService* (%class.Profile*)**, %class.PrefService* (%class.Profile*)*** %56, align 8
  %58 = getelementptr inbounds %class.PrefService* (%class.Profile*)*, %class.PrefService* (%class.Profile*)** %57, i64 46
  %59 = load %class.PrefService* (%class.Profile*)*, %class.PrefService* (%class.Profile*)** %58, align 8
  %60 = call %class.PrefService* %59(%class.Profile* %55) #12
  %61 = bitcast %"class.std::__1::basic_string"* %4 to i8*
  call void @llvm.lifetime.start.p0i8(i64 24, i8* nonnull %61) #12
  %62 = call i64 @strlen(i8* getelementptr inbounds ([0 x i8], [0 x i8]* @_ZN5prefs25kCloudExtensionRequestIdsE, i64 0, i64 0)) #12
  %63 = icmp ugt i64 %62, -17
  br i1 %63, label %64, label %66

64:                                               ; preds = %54
  %65 = bitcast %"class.std::__1::basic_string"* %4 to %"class.std::__1::__basic_string_common"*
  call void @_ZNKSt3__121__basic_string_commonILb1EE20__throw_length_errorEv(%"class.std::__1::__basic_string_common"* nonnull %65) #13
  unreachable

66:                                               ; preds = %54
  %67 = icmp ult i64 %62, 23
  br i1 %67, label %77, label %68

68:                                               ; preds = %66
  %69 = add nuw i64 %62, 16
  %70 = and i64 %69, -16
  %71 = call i8* @_Znwm(i64 %70) #11
  %72 = getelementptr inbounds %"class.std::__1::basic_string", %"class.std::__1::basic_string"* %4, i64 0, i32 0, i32 0, i32 0, i32 0, i32 0, i32 0
  store i8* %71, i8** %72, align 8
  %73 = or i64 %70, -9223372036854775808
  %74 = getelementptr inbounds %"class.std::__1::basic_string", %"class.std::__1::basic_string"* %4, i64 0, i32 0, i32 0, i32 0, i32 0, i32 0, i32 2
  store i64 %73, i64* %74, align 8
  %75 = getelementptr inbounds %"class.std::__1::basic_string", %"class.std::__1::basic_string"* %4, i64 0, i32 0, i32 0, i32 0, i32 0, i32 0, i32 1
  store i64 %62, i64* %75, align 8
  %76 = bitcast %"class.std::__1::basic_string"* %4 to %"struct.std::__1::basic_string<char, std::__1::char_traits<char>, std::__1::allocator<char> >::__short"*
  br label %82

77:                                               ; preds = %66
  %78 = trunc i64 %62 to i8
  %79 = bitcast %"class.std::__1::basic_string"* %4 to %"struct.std::__1::basic_string<char, std::__1::char_traits<char>, std::__1::allocator<char> >::__short"*
  %80 = getelementptr inbounds %"struct.std::__1::basic_string<char, std::__1::char_traits<char>, std::__1::allocator<char> >::__short", %"struct.std::__1::basic_string<char, std::__1::char_traits<char>, std::__1::allocator<char> >::__short"* %79, i64 0, i32 1, i32 0
  store i8 %78, i8* %80, align 1
  %81 = icmp eq i64 %62, 0
  br i1 %81, label %85, label %82

82:                                               ; preds = %77, %68
  %83 = phi %"struct.std::__1::basic_string<char, std::__1::char_traits<char>, std::__1::allocator<char> >::__short"* [ %79, %77 ], [ %76, %68 ]
  %84 = phi i8* [ %61, %77 ], [ %71, %68 ]
  call void @llvm.memcpy.p0i8.p0i8.i64(i8* nonnull align 1 %84, i8* align 1 getelementptr inbounds ([0 x i8], [0 x i8]* @_ZN5prefs25kCloudExtensionRequestIdsE, i64 0, i64 0), i64 %62, i1 false) #12
  br label %85

85:                                               ; preds = %77, %82
  %86 = phi %"struct.std::__1::basic_string<char, std::__1::char_traits<char>, std::__1::allocator<char> >::__short"* [ %79, %77 ], [ %83, %82 ]
  %87 = phi i8* [ %61, %77 ], [ %84, %82 ]
  %88 = getelementptr inbounds i8, i8* %87, i64 %62
  store i8 0, i8* %88, align 1
  %89 = call %"class.base::DictionaryValue"* @_ZNK11PrefService13GetDictionaryERKNSt3__112basic_stringIcNS0_11char_traitsIcEENS0_9allocatorIcEEEE(%class.PrefService* %60, %"class.std::__1::basic_string"* nonnull dereferenceable(24) %4) #12
  %90 = getelementptr inbounds %"struct.std::__1::basic_string<char, std::__1::char_traits<char>, std::__1::allocator<char> >::__short", %"struct.std::__1::basic_string<char, std::__1::char_traits<char>, std::__1::allocator<char> >::__short"* %86, i64 0, i32 1, i32 0
  %91 = load i8, i8* %90, align 1
  %92 = icmp slt i8 %91, 0
  br i1 %92, label %93, label %96

93:                                               ; preds = %85
  %94 = getelementptr inbounds %"class.std::__1::basic_string", %"class.std::__1::basic_string"* %4, i64 0, i32 0, i32 0, i32 0, i32 0, i32 0, i32 0
  %95 = load i8*, i8** %94, align 8
  call void @_ZdlPv(i8* %95) #11
  br label %96

96:                                               ; preds = %85, %93
  call void @llvm.lifetime.end.p0i8(i64 24, i8* nonnull %61) #12
  %97 = icmp eq %"class.base::DictionaryValue"* %89, null
  br i1 %97, label %265, label %98

98:                                               ; preds = %96
  %99 = bitcast %class.Profile** %11 to %"class.content::BrowserContext"**
  %100 = load %"class.content::BrowserContext"*, %"class.content::BrowserContext"** %99, align 8
  %101 = call %"class.extensions::ExtensionManagement"* @_ZN10extensions26ExtensionManagementFactory20GetForBrowserContextEPN7content14BrowserContextE(%"class.content::BrowserContext"* %100) #12
  %102 = bitcast %"class.std::__1::basic_string"* %5 to i8*
  call void @llvm.lifetime.start.p0i8(i64 24, i8* nonnull %102) #12
  %103 = getelementptr inbounds %"class.std::__1::basic_string", %"class.std::__1::basic_string"* %5, i64 0, i32 0, i32 0, i32 0, i32 0, i32 0, i32 0
  %104 = bitcast %class.GURL* %6 to i8*
  %105 = bitcast %"class.std::__1::basic_string"* %5 to i8*
  call void @llvm.memset.p0i8.i64(i8* nonnull align 8 %105, i8 -86, i64 24, i1 false)
  call void @llvm.lifetime.start.p0i8(i64 120, i8* nonnull %104) #12
  call void @_ZN14extension_urls27GetDefaultWebstoreUpdateUrlEv(%class.GURL* nonnull sret %6) #12
  %106 = call dereferenceable(24) %"class.std::__1::basic_string"* @_ZNK4GURL4specEv(%class.GURL* nonnull %6) #12
  %107 = bitcast %"class.std::__1::basic_string"* %106 to %"struct.std::__1::basic_string<char, std::__1::char_traits<char>, std::__1::allocator<char> >::__short"*
  %108 = getelementptr inbounds %"struct.std::__1::basic_string<char, std::__1::char_traits<char>, std::__1::allocator<char> >::__short", %"struct.std::__1::basic_string<char, std::__1::char_traits<char>, std::__1::allocator<char> >::__short"* %107, i64 0, i32 1, i32 0
  %109 = load i8, i8* %108, align 1
  %110 = icmp slt i8 %109, 0
  br i1 %110, label %113, label %111

111:                                              ; preds = %98
  %112 = bitcast %"class.std::__1::basic_string"* %106 to i8*
  call void @llvm.memcpy.p0i8.p0i8.i64(i8* nonnull align 8 %102, i8* align 8 %112, i64 24, i1 false) #12
  br label %118

113:                                              ; preds = %98
  %114 = getelementptr inbounds %"class.std::__1::basic_string", %"class.std::__1::basic_string"* %106, i64 0, i32 0, i32 0, i32 0, i32 0, i32 0, i32 0
  %115 = load i8*, i8** %114, align 8
  %116 = getelementptr inbounds %"class.std::__1::basic_string", %"class.std::__1::basic_string"* %106, i64 0, i32 0, i32 0, i32 0, i32 0, i32 0, i32 1
  %117 = load i64, i64* %116, align 8
  call void @_ZNSt3__112basic_stringIcNS_11char_traitsIcEENS_9allocatorIcEEE25__init_copy_ctor_externalEPKcm(%"class.std::__1::basic_string"* nonnull %5, i8* %115, i64 %117) #12
  br label %118

118:                                              ; preds = %111, %113
  call void @_ZN4GURLD1Ev(%class.GURL* nonnull %6) #12
  call void @llvm.lifetime.end.p0i8(i64 120, i8* nonnull %104) #12
  %119 = bitcast %"class.base::detail::const_dict_iterator_proxy"* %7 to i8*
  call void @llvm.lifetime.start.p0i8(i64 8, i8* nonnull %119) #12
  %120 = getelementptr inbounds %"class.base::DictionaryValue", %"class.base::DictionaryValue"* %89, i64 0, i32 0
  %121 = call %"class.base::flat_map"* @_ZNK4base5Value9DictItemsEv(%"class.base::Value"* %120) #12
  %122 = getelementptr inbounds %"class.base::detail::const_dict_iterator_proxy", %"class.base::detail::const_dict_iterator_proxy"* %7, i64 0, i32 0
  store %"class.base::flat_map"* %121, %"class.base::flat_map"** %122, align 8
  %123 = bitcast %"class.base::detail::const_dict_iterator"* %8 to i8*
  call void @llvm.lifetime.start.p0i8(i64 8, i8* nonnull %123) #12
  %124 = getelementptr inbounds %"class.base::detail::const_dict_iterator", %"class.base::detail::const_dict_iterator"* %8, i64 0, i32 0, i32 0
  store %"struct.std::__1::pair"* inttoptr (i64 -6148914691236517206 to %"struct.std::__1::pair"*), %"struct.std::__1::pair"** %124, align 8
  call void @_ZNK4base6detail25const_dict_iterator_proxy5beginEv(%"class.base::detail::const_dict_iterator"* nonnull sret %8, %"class.base::detail::const_dict_iterator_proxy"* nonnull %7) #12
  %125 = bitcast %"class.base::detail::const_dict_iterator"* %9 to i8*
  call void @llvm.lifetime.start.p0i8(i64 8, i8* nonnull %125) #12
  %126 = getelementptr inbounds %"class.base::detail::const_dict_iterator", %"class.base::detail::const_dict_iterator"* %9, i64 0, i32 0, i32 0
  store %"struct.std::__1::pair"* inttoptr (i64 -6148914691236517206 to %"struct.std::__1::pair"*), %"struct.std::__1::pair"** %126, align 8
  call void @_ZNK4base6detail25const_dict_iterator_proxy3endEv(%"class.base::detail::const_dict_iterator"* nonnull sret %9, %"class.base::detail::const_dict_iterator_proxy"* nonnull %7) #12
  %127 = call zeroext i1 @_ZN4base6detailneERKNS0_19const_dict_iteratorES3_(%"class.base::detail::const_dict_iterator"* nonnull dereferenceable(8) %8, %"class.base::detail::const_dict_iterator"* nonnull dereferenceable(8) %9) #12
  br i1 %127, label %128, label %257

128:                                              ; preds = %118
  %129 = getelementptr inbounds %"class.enterprise_management::ChromeUserProfileInfo", %"class.enterprise_management::ChromeUserProfileInfo"* %1, i64 0, i32 7
  %130 = getelementptr inbounds %"class.google::protobuf::RepeatedPtrField.94", %"class.google::protobuf::RepeatedPtrField.94"* %129, i64 0, i32 0
  %131 = getelementptr inbounds %"class.enterprise_management::ChromeUserProfileInfo", %"class.enterprise_management::ChromeUserProfileInfo"* %1, i64 0, i32 7, i32 0, i32 3
  %132 = getelementptr inbounds %"class.enterprise_management::ChromeUserProfileInfo", %"class.enterprise_management::ChromeUserProfileInfo"* %1, i64 0, i32 7, i32 0, i32 1
  %133 = getelementptr inbounds %"class.enterprise_management::ChromeUserProfileInfo", %"class.enterprise_management::ChromeUserProfileInfo"* %1, i64 0, i32 7, i32 0, i32 2
  %134 = getelementptr inbounds %"class.google::protobuf::RepeatedPtrField.94", %"class.google::protobuf::RepeatedPtrField.94"* %129, i64 0, i32 0, i32 0
  %135 = getelementptr inbounds %"class.absl::optional", %"class.absl::optional"* %10, i64 0, i32 0, i32 0, i32 0, i32 0
  %136 = getelementptr inbounds %"class.absl::optional", %"class.absl::optional"* %10, i64 0, i32 0, i32 0, i32 0, i32 1, i32 0, i32 0, i32 0
  %137 = getelementptr inbounds %"class.absl::optional", %"class.absl::optional"* %10, i64 0, i32 0, i32 0, i32 0, i32 1, i32 0
  br label %138

138:                                              ; preds = %128, %253
  %139 = phi i32 [ 0, %128 ], [ %254, %253 ]
  %140 = call { %"class.std::__1::basic_string"*, %"class.base::Value"* } @_ZNK4base6detail19const_dict_iteratordeEv(%"class.base::detail::const_dict_iterator"* nonnull %8) #12
  %141 = extractvalue { %"class.std::__1::basic_string"*, %"class.base::Value"* } %140, 0
  %142 = extractvalue { %"class.std::__1::basic_string"*, %"class.base::Value"* } %140, 1
  %143 = call zeroext i1 @_ZN20enterprise_reporting31ExtensionRequestReportGenerator28ShouldUploadExtensionRequestERKNSt3__112basic_stringIcNS1_11char_traitsIcEENS1_9allocatorIcEEEES9_PN10extensions19ExtensionManagementE(%"class.std::__1::basic_string"* dereferenceable(24) %141, %"class.std::__1::basic_string"* nonnull dereferenceable(24) %5, %"class.extensions::ExtensionManagement"* %101) #12
  br i1 %143, label %144, label %253

144:                                              ; preds = %138
  %145 = add nsw i32 %139, 1
  %146 = icmp sgt i32 %139, 999
  br i1 %146, label %257, label %147

147:                                              ; preds = %144
  %148 = load %"struct.google::protobuf::internal::RepeatedPtrFieldBase::Rep"*, %"struct.google::protobuf::internal::RepeatedPtrFieldBase::Rep"** %131, align 8
  %149 = icmp eq %"struct.google::protobuf::internal::RepeatedPtrFieldBase::Rep"* %148, null
  br i1 %149, label %150, label %152

150:                                              ; preds = %147
  %151 = load i32, i32* %133, align 4
  br label %166

152:                                              ; preds = %147
  %153 = load i32, i32* %132, align 8
  %154 = getelementptr inbounds %"struct.google::protobuf::internal::RepeatedPtrFieldBase::Rep", %"struct.google::protobuf::internal::RepeatedPtrFieldBase::Rep"* %148, i64 0, i32 0
  %155 = load i32, i32* %154, align 8
  %156 = icmp slt i32 %153, %155
  br i1 %156, label %157, label %163

157:                                              ; preds = %152
  %158 = add nsw i32 %153, 1
  store i32 %158, i32* %132, align 8
  %159 = sext i32 %153 to i64
  %160 = getelementptr inbounds %"struct.google::protobuf::internal::RepeatedPtrFieldBase::Rep", %"struct.google::protobuf::internal::RepeatedPtrFieldBase::Rep"* %148, i64 0, i32 1, i64 %159
  %161 = bitcast i8** %160 to %"class.enterprise_management::ExtensionRequest"**
  %162 = load %"class.enterprise_management::ExtensionRequest"*, %"class.enterprise_management::ExtensionRequest"** %161, align 8
  br label %185

163:                                              ; preds = %152
  %164 = load i32, i32* %133, align 4
  %165 = icmp eq i32 %155, %164
  br i1 %165, label %166, label %172

166:                                              ; preds = %163, %150
  %167 = phi i32 [ %151, %150 ], [ %155, %163 ]
  %168 = add nsw i32 %167, 1
  call void @_ZN6google8protobuf8internal20RepeatedPtrFieldBase7ReserveEi(%"class.google::protobuf::internal::RepeatedPtrFieldBase"* %130, i32 %168) #12
  %169 = load %"struct.google::protobuf::internal::RepeatedPtrFieldBase::Rep"*, %"struct.google::protobuf::internal::RepeatedPtrFieldBase::Rep"** %131, align 8
  %170 = getelementptr inbounds %"struct.google::protobuf::internal::RepeatedPtrFieldBase::Rep", %"struct.google::protobuf::internal::RepeatedPtrFieldBase::Rep"* %169, i64 0, i32 0
  %171 = load i32, i32* %170, align 8
  br label %172

172:                                              ; preds = %166, %163
  %173 = phi i32 [ %171, %166 ], [ %155, %163 ]
  %174 = phi %"struct.google::protobuf::internal::RepeatedPtrFieldBase::Rep"* [ %169, %166 ], [ %148, %163 ]
  %175 = getelementptr inbounds %"struct.google::protobuf::internal::RepeatedPtrFieldBase::Rep", %"struct.google::protobuf::internal::RepeatedPtrFieldBase::Rep"* %174, i64 0, i32 0
  %176 = add nsw i32 %173, 1
  store i32 %176, i32* %175, align 8
  %177 = load %"class.google::protobuf::Arena"*, %"class.google::protobuf::Arena"** %134, align 8
  %178 = call %"class.enterprise_management::ExtensionRequest"* @_ZN6google8protobuf5Arena18CreateMaybeMessageIN21enterprise_management16ExtensionRequestEJEEEPT_PS1_DpOT0_(%"class.google::protobuf::Arena"* %177) #12
  %179 = load %"struct.google::protobuf::internal::RepeatedPtrFieldBase::Rep"*, %"struct.google::protobuf::internal::RepeatedPtrFieldBase::Rep"** %131, align 8
  %180 = load i32, i32* %132, align 8
  %181 = add nsw i32 %180, 1
  store i32 %181, i32* %132, align 8
  %182 = sext i32 %180 to i64
  %183 = getelementptr inbounds %"struct.google::protobuf::internal::RepeatedPtrFieldBase::Rep", %"struct.google::protobuf::internal::RepeatedPtrFieldBase::Rep"* %179, i64 0, i32 1, i64 %182
  %184 = bitcast i8** %183 to %"class.enterprise_management::ExtensionRequest"**
  store %"class.enterprise_management::ExtensionRequest"* %178, %"class.enterprise_management::ExtensionRequest"** %184, align 8
  br label %185

185:                                              ; preds = %157, %172
  %186 = phi %"class.enterprise_management::ExtensionRequest"* [ %162, %157 ], [ %178, %172 ]
  %187 = getelementptr inbounds %"class.enterprise_management::ExtensionRequest", %"class.enterprise_management::ExtensionRequest"* %186, i64 0, i32 1, i32 0, i64 0
  %188 = load i32, i32* %187, align 4
  %189 = or i32 %188, 1
  store i32 %189, i32* %187, align 4
  %190 = getelementptr inbounds %"class.enterprise_management::ExtensionRequest", %"class.enterprise_management::ExtensionRequest"* %186, i64 0, i32 3
  %191 = getelementptr inbounds %"class.enterprise_management::ExtensionRequest", %"class.enterprise_management::ExtensionRequest"* %186, i64 0, i32 0, i32 1
  %192 = bitcast %"class.google::protobuf::internal::InternalMetadata"* %191 to i64*
  %193 = load i64, i64* %192, align 8
  %194 = and i64 %193, 1
  %195 = icmp eq i64 %194, 0
  %196 = and i64 %193, -2
  br i1 %195, label %201, label %197, !prof !2

197:                                              ; preds = %185
  %198 = inttoptr i64 %196 to %"struct.google::protobuf::internal::InternalMetadata::ContainerBase"*
  %199 = getelementptr inbounds %"struct.google::protobuf::internal::InternalMetadata::ContainerBase", %"struct.google::protobuf::internal::InternalMetadata::ContainerBase"* %198, i64 0, i32 0
  %200 = load %"class.google::protobuf::Arena"*, %"class.google::protobuf::Arena"** %199, align 8
  br label %203

201:                                              ; preds = %185
  %202 = inttoptr i64 %196 to %"class.google::protobuf::Arena"*
  br label %203

203:                                              ; preds = %201, %197
  %204 = phi %"class.google::protobuf::Arena"* [ %200, %197 ], [ %202, %201 ]
  %205 = getelementptr inbounds %"struct.google::protobuf::internal::ArenaStringPtr", %"struct.google::protobuf::internal::ArenaStringPtr"* %190, i64 0, i32 0
  %206 = load %"class.std::__1::basic_string"*, %"class.std::__1::basic_string"** %205, align 8
  %207 = icmp eq %"class.std::__1::basic_string"* %206, bitcast (%"class.google::protobuf::internal::ExplicitlyConstructed"* @_ZN6google8protobuf8internal26fixed_address_empty_stringE to %"class.std::__1::basic_string"*)
  br i1 %207, label %208, label %209

208:                                              ; preds = %203
  call void @_ZN6google8protobuf8internal14ArenaStringPtr14CreateInstanceEPNS0_5ArenaEPKNSt3__112basic_stringIcNS5_11char_traitsIcEENS5_9allocatorIcEEEE(%"struct.google::protobuf::internal::ArenaStringPtr"* %190, %"class.google::protobuf::Arena"* %204, %"class.std::__1::basic_string"* %141) #12
  br label %240

209:                                              ; preds = %203
  %210 = icmp eq %"class.std::__1::basic_string"* %206, %141
  br i1 %210, label %240, label %211

211:                                              ; preds = %209
  %212 = bitcast %"class.std::__1::basic_string"* %206 to %"struct.std::__1::basic_string<char, std::__1::char_traits<char>, std::__1::allocator<char> >::__short"*
  %213 = getelementptr inbounds %"struct.std::__1::basic_string<char, std::__1::char_traits<char>, std::__1::allocator<char> >::__short", %"struct.std::__1::basic_string<char, std::__1::char_traits<char>, std::__1::allocator<char> >::__short"* %212, i64 0, i32 1, i32 0
  %214 = load i8, i8* %213, align 1
  %215 = icmp slt i8 %214, 0
  %216 = bitcast %"class.std::__1::basic_string"* %141 to %"struct.std::__1::basic_string<char, std::__1::char_traits<char>, std::__1::allocator<char> >::__short"*
  %217 = getelementptr inbounds %"struct.std::__1::basic_string<char, std::__1::char_traits<char>, std::__1::allocator<char> >::__short", %"struct.std::__1::basic_string<char, std::__1::char_traits<char>, std::__1::allocator<char> >::__short"* %216, i64 0, i32 1, i32 0
  %218 = load i8, i8* %217, align 1
  %219 = icmp slt i8 %218, 0
  br i1 %215, label %230, label %220

220:                                              ; preds = %211
  br i1 %219, label %224, label %221

221:                                              ; preds = %220
  %222 = bitcast %"class.std::__1::basic_string"* %206 to i8*
  %223 = bitcast %"class.std::__1::basic_string"* %141 to i8*
  call void @llvm.memcpy.p0i8.p0i8.i64(i8* align 8 %222, i8* align 8 %223, i64 24, i1 false) #12
  br label %240

224:                                              ; preds = %220
  %225 = getelementptr inbounds %"class.std::__1::basic_string", %"class.std::__1::basic_string"* %141, i64 0, i32 0, i32 0, i32 0, i32 0, i32 0, i32 0
  %226 = load i8*, i8** %225, align 8
  %227 = getelementptr inbounds %"class.std::__1::basic_string", %"class.std::__1::basic_string"* %141, i64 0, i32 0, i32 0, i32 0, i32 0, i32 0, i32 1
  %228 = load i64, i64* %227, align 8
  %229 = call dereferenceable(24) %"class.std::__1::basic_string"* @_ZNSt3__112basic_stringIcNS_11char_traitsIcEENS_9allocatorIcEEE17__assign_no_aliasILb1EEERS5_PKcm(%"class.std::__1::basic_string"* %206, i8* %226, i64 %228) #12
  br label %240

230:                                              ; preds = %211
  %231 = getelementptr inbounds %"class.std::__1::basic_string", %"class.std::__1::basic_string"* %141, i64 0, i32 0, i32 0, i32 0, i32 0, i32 0, i32 0
  %232 = load i8*, i8** %231, align 8
  %233 = getelementptr inbounds %"class.std::__1::basic_string", %"class.std::__1::basic_string"* %141, i64 0, i32 0, i32 0, i32 0, i32 0, i32 0, i32 1
  %234 = load i64, i64* %233, align 8
  %235 = bitcast %"class.std::__1::basic_string"* %141 to i8*
  %236 = zext i8 %218 to i64
  %237 = select i1 %219, i8* %232, i8* %235
  %238 = select i1 %219, i64 %234, i64 %236
  %239 = call dereferenceable(24) %"class.std::__1::basic_string"* @_ZNSt3__112basic_stringIcNS_11char_traitsIcEENS_9allocatorIcEEE17__assign_no_aliasILb0EEERS5_PKcm(%"class.std::__1::basic_string"* %206, i8* %237, i64 %238) #12
  br label %240

240:                                              ; preds = %208, %209, %221, %224, %230
  call void @llvm.lifetime.start.p0i8(i64 16, i8* nonnull %135) #12
  call void @llvm.memset.p0i8.i64(i8* nonnull align 8 %135, i8 -86, i64 16, i1 false)
  %241 = call i64 @strlen(i8* nonnull getelementptr inbounds ([0 x i8], [0 x i8]* @_ZN14extension_misc26kExtensionRequestTimestampE, i64 0, i64 0)) #12
  %242 = call %"class.base::Value"* @_ZNK4base5Value7FindKeyENS_16BasicStringPieceIcNSt3__111char_traitsIcEEEE(%"class.base::Value"* %142, i8* getelementptr inbounds ([0 x i8], [0 x i8]* @_ZN14extension_misc26kExtensionRequestTimestampE, i64 0, i64 0), i64 %241) #12
  %243 = call { i8, i64 } @_ZN4util11ValueToTimeEPKN4base5ValueE(%"class.base::Value"* %242) #12
  %244 = extractvalue { i8, i64 } %243, 0
  store i8 %244, i8* %135, align 8
  %245 = extractvalue { i8, i64 } %243, 1
  store i64 %245, i64* %136, align 8
  %246 = icmp eq i8 %244, 0
  br i1 %246, label %252, label %247

247:                                              ; preds = %240
  %248 = call i64 @_ZNK4base4Time10ToJavaTimeEv(%"class.base::Time"* %137) #12
  %249 = load i32, i32* %187, align 4
  %250 = or i32 %249, 2
  store i32 %250, i32* %187, align 4
  %251 = getelementptr inbounds %"class.enterprise_management::ExtensionRequest", %"class.enterprise_management::ExtensionRequest"* %186, i64 0, i32 4
  store i64 %248, i64* %251, align 8
  br label %252

252:                                              ; preds = %240, %247
  call void @llvm.lifetime.end.p0i8(i64 16, i8* nonnull %135) #12
  br label %253

253:                                              ; preds = %252, %138
  %254 = phi i32 [ %139, %138 ], [ %145, %252 ]
  %255 = call dereferenceable(8) %"class.base::detail::const_dict_iterator"* @_ZN4base6detail19const_dict_iteratorppEv(%"class.base::detail::const_dict_iterator"* nonnull %8) #12
  %256 = call zeroext i1 @_ZN4base6detailneERKNS0_19const_dict_iteratorES3_(%"class.base::detail::const_dict_iterator"* nonnull dereferenceable(8) %8, %"class.base::detail::const_dict_iterator"* nonnull dereferenceable(8) %9) #12
  br i1 %256, label %138, label %257

257:                                              ; preds = %253, %144, %118
  call void @_ZN4base6detail19const_dict_iteratorD1Ev(%"class.base::detail::const_dict_iterator"* nonnull %9) #12
  call void @llvm.lifetime.end.p0i8(i64 8, i8* nonnull %125) #12
  call void @_ZN4base6detail19const_dict_iteratorD1Ev(%"class.base::detail::const_dict_iterator"* nonnull %8) #12
  call void @llvm.lifetime.end.p0i8(i64 8, i8* nonnull %123) #12
  call void @llvm.lifetime.end.p0i8(i64 8, i8* nonnull %119) #12
  %258 = bitcast %"class.std::__1::basic_string"* %5 to %"struct.std::__1::basic_string<char, std::__1::char_traits<char>, std::__1::allocator<char> >::__short"*
  %259 = getelementptr inbounds %"struct.std::__1::basic_string<char, std::__1::char_traits<char>, std::__1::allocator<char> >::__short", %"struct.std::__1::basic_string<char, std::__1::char_traits<char>, std::__1::allocator<char> >::__short"* %258, i64 0, i32 1, i32 0
  %260 = load i8, i8* %259, align 1
  %261 = icmp slt i8 %260, 0
  br i1 %261, label %262, label %264

262:                                              ; preds = %257
  %263 = load i8*, i8** %103, align 8
  call void @_ZdlPv(i8* %263) #11
  br label %264

264:                                              ; preds = %257, %262
  call void @llvm.lifetime.end.p0i8(i64 24, i8* nonnull %102) #12
  br label %265

265:                                              ; preds = %264, %96, %53
  ret void
}

declare zeroext i1 @_ZNK11PrefService10GetBooleanERKNSt3__112basic_stringIcNS0_11char_traitsIcEENS0_9allocatorIcEEEE(%class.PrefService*, %"class.std::__1::basic_string"* dereferenceable(24)) local_unnamed_addr #4

declare %"class.base::DictionaryValue"* @_ZNK11PrefService13GetDictionaryERKNSt3__112basic_stringIcNS0_11char_traitsIcEENS0_9allocatorIcEEEE(%class.PrefService*, %"class.std::__1::basic_string"* dereferenceable(24)) local_unnamed_addr #4

declare %"class.extensions::ExtensionManagement"* @_ZN10extensions26ExtensionManagementFactory20GetForBrowserContextEPN7content14BrowserContextE(%"class.content::BrowserContext"*) local_unnamed_addr #4

declare void @_ZN14extension_urls27GetDefaultWebstoreUpdateUrlEv(%class.GURL* sret) local_unnamed_addr #4

declare dereferenceable(24) %"class.std::__1::basic_string"* @_ZNK4GURL4specEv(%class.GURL*) local_unnamed_addr #4

; Function Attrs: nounwind
declare void @_ZN4GURLD1Ev(%class.GURL*) unnamed_addr #6

declare %"class.base::flat_map"* @_ZNK4base5Value9DictItemsEv(%"class.base::Value"*) local_unnamed_addr #4

declare void @_ZNK4base6detail25const_dict_iterator_proxy5beginEv(%"class.base::detail::const_dict_iterator"* sret, %"class.base::detail::const_dict_iterator_proxy"*) local_unnamed_addr #4

declare void @_ZNK4base6detail25const_dict_iterator_proxy3endEv(%"class.base::detail::const_dict_iterator"* sret, %"class.base::detail::const_dict_iterator_proxy"*) local_unnamed_addr #4

declare zeroext i1 @_ZN4base6detailneERKNS0_19const_dict_iteratorES3_(%"class.base::detail::const_dict_iterator"* dereferenceable(8), %"class.base::detail::const_dict_iterator"* dereferenceable(8)) local_unnamed_addr #4

declare { %"class.std::__1::basic_string"*, %"class.base::Value"* } @_ZNK4base6detail19const_dict_iteratordeEv(%"class.base::detail::const_dict_iterator"*) local_unnamed_addr #4

declare zeroext i1 @_ZN20enterprise_reporting31ExtensionRequestReportGenerator28ShouldUploadExtensionRequestERKNSt3__112basic_stringIcNS1_11char_traitsIcEENS1_9allocatorIcEEEES9_PN10extensions19ExtensionManagementE(%"class.std::__1::basic_string"* dereferenceable(24), %"class.std::__1::basic_string"* dereferenceable(24), %"class.extensions::ExtensionManagement"*) local_unnamed_addr #4

; Function Attrs: argmemonly nounwind
declare void @llvm.memcpy.p0i8.p0i8.i64(i8* nocapture writeonly, i8* nocapture readonly, i64, i1 immarg) #5

declare { i8, i64 } @_ZN4util11ValueToTimeEPKN4base5ValueE(%"class.base::Value"*) local_unnamed_addr #4

declare %"class.base::Value"* @_ZNK4base5Value7FindKeyENS_16BasicStringPieceIcNSt3__111char_traitsIcEEEE(%"class.base::Value"*, i8*, i64) local_unnamed_addr #4

declare i64 @_ZNK4base4Time10ToJavaTimeEv(%"class.base::Time"*) local_unnamed_addr #4

declare dereferenceable(8) %"class.base::detail::const_dict_iterator"* @_ZN4base6detail19const_dict_iteratorppEv(%"class.base::detail::const_dict_iterator"*) local_unnamed_addr #4

; Function Attrs: nounwind
declare void @_ZN4base6detail19const_dict_iteratorD1Ev(%"class.base::detail::const_dict_iterator"*) unnamed_addr #6

; Function Attrs: nounwind ssp uwtable
define hidden %"class.policy::PolicyConversionsClient"* @_ZN20enterprise_reporting29ProfileReportGeneratorDesktop27MakePolicyConversionsClientEv(%"class.enterprise_reporting::ProfileReportGeneratorDesktop"* nocapture readonly) unnamed_addr #2 align 2 {
  %2 = getelementptr inbounds %"class.enterprise_reporting::ProfileReportGeneratorDesktop", %"class.enterprise_reporting::ProfileReportGeneratorDesktop"* %0, i64 0, i32 1
  %3 = tail call i8* @_Znwm(i64 24) #11
  %4 = bitcast i8* %3 to %"class.policy::ChromePolicyConversionsClient"*
  %5 = bitcast %class.Profile** %2 to %"class.content::BrowserContext"**
  %6 = load %"class.content::BrowserContext"*, %"class.content::BrowserContext"** %5, align 8
  tail call void @_ZN6policy29ChromePolicyConversionsClientC1EPN7content14BrowserContextE(%"class.policy::ChromePolicyConversionsClient"* nonnull %4, %"class.content::BrowserContext"* %6) #12
  %7 = bitcast i8* %3 to %"class.policy::PolicyConversionsClient"*
  ret %"class.policy::PolicyConversionsClient"* %7
}

; Function Attrs: nounwind ssp uwtable
define hidden %"class.policy::MachineLevelUserCloudPolicyManager"* @_ZN20enterprise_reporting29ProfileReportGeneratorDesktop21GetCloudPolicyManagerEv(%"class.enterprise_reporting::ProfileReportGeneratorDesktop"* nocapture readnone) unnamed_addr #2 align 2 {
  %2 = load %class.BrowserProcess*, %class.BrowserProcess** @g_browser_process, align 8
  %3 = bitcast %class.BrowserProcess* %2 to %"class.policy::ChromeBrowserPolicyConnector"* (%class.BrowserProcess*)***
  %4 = load %"class.policy::ChromeBrowserPolicyConnector"* (%class.BrowserProcess*)**, %"class.policy::ChromeBrowserPolicyConnector"* (%class.BrowserProcess*)*** %3, align 8
  %5 = getelementptr inbounds %"class.policy::ChromeBrowserPolicyConnector"* (%class.BrowserProcess*)*, %"class.policy::ChromeBrowserPolicyConnector"* (%class.BrowserProcess*)** %4, i64 17
  %6 = load %"class.policy::ChromeBrowserPolicyConnector"* (%class.BrowserProcess*)*, %"class.policy::ChromeBrowserPolicyConnector"* (%class.BrowserProcess*)** %5, align 8
  %7 = tail call %"class.policy::ChromeBrowserPolicyConnector"* %6(%class.BrowserProcess* %2) #12
  %8 = getelementptr inbounds %"class.policy::ChromeBrowserPolicyConnector", %"class.policy::ChromeBrowserPolicyConnector"* %7, i64 0, i32 3
  %9 = load %"class.policy::MachineLevelUserCloudPolicyManager"*, %"class.policy::MachineLevelUserCloudPolicyManager"** %8, align 8
  ret %"class.policy::MachineLevelUserCloudPolicyManager"* %9
}

declare %"class.enterprise_management::ChromeSignedInUser"* @_ZN6google8protobuf5Arena18CreateMaybeMessageIN21enterprise_management18ChromeSignedInUserEJEEEPT_PS1_DpOT0_(%"class.google::protobuf::Arena"*) local_unnamed_addr #4

; Function Attrs: noinline nounwind ssp uwtable
define linkonce_odr hidden void @_ZN6google8protobuf8internal14ArenaStringPtr14CreateInstanceEPNS0_5ArenaEPKNSt3__112basic_stringIcNS5_11char_traitsIcEENS5_9allocatorIcEEEE(%"struct.google::protobuf::internal::ArenaStringPtr"*, %"class.google::protobuf::Arena"*, %"class.std::__1::basic_string"*) local_unnamed_addr #7 comdat align 2 {
  %4 = icmp eq %"class.google::protobuf::Arena"* %1, null
  br i1 %4, label %5, label %19

5:                                                ; preds = %3
  %6 = tail call i8* @_Znwm(i64 24) #11
  %7 = bitcast i8* %6 to %"class.std::__1::basic_string"*
  %8 = bitcast %"class.std::__1::basic_string"* %2 to %"struct.std::__1::basic_string<char, std::__1::char_traits<char>, std::__1::allocator<char> >::__short"*
  %9 = getelementptr inbounds %"struct.std::__1::basic_string<char, std::__1::char_traits<char>, std::__1::allocator<char> >::__short", %"struct.std::__1::basic_string<char, std::__1::char_traits<char>, std::__1::allocator<char> >::__short"* %8, i64 0, i32 1, i32 0
  %10 = load i8, i8* %9, align 1
  %11 = icmp slt i8 %10, 0
  br i1 %11, label %14, label %12

12:                                               ; preds = %5
  %13 = bitcast %"class.std::__1::basic_string"* %2 to i8*
  tail call void @llvm.memcpy.p0i8.p0i8.i64(i8* nonnull align 8 %6, i8* align 8 %13, i64 24, i1 false) #12
  br label %39

14:                                               ; preds = %5
  %15 = getelementptr inbounds %"class.std::__1::basic_string", %"class.std::__1::basic_string"* %2, i64 0, i32 0, i32 0, i32 0, i32 0, i32 0, i32 0
  %16 = load i8*, i8** %15, align 8
  %17 = getelementptr inbounds %"class.std::__1::basic_string", %"class.std::__1::basic_string"* %2, i64 0, i32 0, i32 0, i32 0, i32 0, i32 0, i32 1
  %18 = load i64, i64* %17, align 8
  tail call void @_ZNSt3__112basic_stringIcNS_11char_traitsIcEENS_9allocatorIcEEE25__init_copy_ctor_externalEPKcm(%"class.std::__1::basic_string"* nonnull %7, i8* %16, i64 %18) #12
  br label %39

19:                                               ; preds = %3
  %20 = getelementptr inbounds %"class.google::protobuf::Arena", %"class.google::protobuf::Arena"* %1, i64 0, i32 4
  %21 = load i8*, i8** %20, align 8
  %22 = icmp eq i8* %21, null
  br i1 %22, label %24, label %23, !prof !2

23:                                               ; preds = %19
  tail call void @_ZNK6google8protobuf5Arena17OnArenaAllocationEPKSt9type_infom(%"class.google::protobuf::Arena"* nonnull %1, %"class.std::type_info"* null, i64 24) #12
  br label %24

24:                                               ; preds = %23, %19
  %25 = getelementptr inbounds %"class.google::protobuf::Arena", %"class.google::protobuf::Arena"* %1, i64 0, i32 0
  %26 = tail call i8* @_ZN6google8protobuf8internal9ArenaImpl28AllocateAlignedAndAddCleanupEmPFvPvE(%"class.google::protobuf::internal::ArenaImpl"* %25, i64 24, void (i8*)* nonnull @_ZN6google8protobuf8internal21arena_destruct_objectINSt3__112basic_stringIcNS3_11char_traitsIcEENS3_9allocatorIcEEEEEEvPv) #12
  %27 = bitcast i8* %26 to %"class.std::__1::basic_string"*
  %28 = bitcast %"class.std::__1::basic_string"* %2 to %"struct.std::__1::basic_string<char, std::__1::char_traits<char>, std::__1::allocator<char> >::__short"*
  %29 = getelementptr inbounds %"struct.std::__1::basic_string<char, std::__1::char_traits<char>, std::__1::allocator<char> >::__short", %"struct.std::__1::basic_string<char, std::__1::char_traits<char>, std::__1::allocator<char> >::__short"* %28, i64 0, i32 1, i32 0
  %30 = load i8, i8* %29, align 1
  %31 = icmp slt i8 %30, 0
  br i1 %31, label %34, label %32

32:                                               ; preds = %24
  %33 = bitcast %"class.std::__1::basic_string"* %2 to i8*
  tail call void @llvm.memcpy.p0i8.p0i8.i64(i8* align 8 %26, i8* align 8 %33, i64 24, i1 false) #12
  br label %39

34:                                               ; preds = %24
  %35 = getelementptr inbounds %"class.std::__1::basic_string", %"class.std::__1::basic_string"* %2, i64 0, i32 0, i32 0, i32 0, i32 0, i32 0, i32 0
  %36 = load i8*, i8** %35, align 8
  %37 = getelementptr inbounds %"class.std::__1::basic_string", %"class.std::__1::basic_string"* %2, i64 0, i32 0, i32 0, i32 0, i32 0, i32 0, i32 1
  %38 = load i64, i64* %37, align 8
  tail call void @_ZNSt3__112basic_stringIcNS_11char_traitsIcEENS_9allocatorIcEEE25__init_copy_ctor_externalEPKcm(%"class.std::__1::basic_string"* %27, i8* %36, i64 %38) #12
  br label %39

39:                                               ; preds = %12, %14, %32, %34
  %40 = phi %"class.std::__1::basic_string"* [ %7, %12 ], [ %7, %14 ], [ %27, %32 ], [ %27, %34 ]
  %41 = getelementptr inbounds %"struct.google::protobuf::internal::ArenaStringPtr", %"struct.google::protobuf::internal::ArenaStringPtr"* %0, i64 0, i32 0
  store %"class.std::__1::basic_string"* %40, %"class.std::__1::basic_string"** %41, align 8
  ret void
}

; Function Attrs: nobuiltin nofree
declare noalias nonnull i8* @_Znwm(i64) local_unnamed_addr #8

declare i8* @_ZN6google8protobuf8internal9ArenaImpl28AllocateAlignedAndAddCleanupEmPFvPvE(%"class.google::protobuf::internal::ArenaImpl"*, i64, void (i8*)*) local_unnamed_addr #4

; Function Attrs: nounwind ssp uwtable
define linkonce_odr hidden void @_ZN6google8protobuf8internal21arena_destruct_objectINSt3__112basic_stringIcNS3_11char_traitsIcEENS3_9allocatorIcEEEEEEvPv(i8*) #2 comdat {
  %2 = getelementptr inbounds i8, i8* %0, i64 23
  %3 = load i8, i8* %2, align 1
  %4 = icmp slt i8 %3, 0
  br i1 %4, label %5, label %8

5:                                                ; preds = %1
  %6 = bitcast i8* %0 to i8**
  %7 = load i8*, i8** %6, align 8
  tail call void @_ZdlPv(i8* %7) #11
  br label %8

8:                                                ; preds = %1, %5
  ret void
}

declare void @_ZNK6google8protobuf5Arena17OnArenaAllocationEPKSt9type_infom(%"class.google::protobuf::Arena"*, %"class.std::type_info"*, i64) local_unnamed_addr #4

declare dereferenceable(24) %"class.std::__1::basic_string"* @_ZNSt3__112basic_stringIcNS_11char_traitsIcEENS_9allocatorIcEEE17__assign_no_aliasILb1EEERS5_PKcm(%"class.std::__1::basic_string"*, i8*, i64) local_unnamed_addr #4

declare dereferenceable(24) %"class.std::__1::basic_string"* @_ZNSt3__112basic_stringIcNS_11char_traitsIcEENS_9allocatorIcEEE17__assign_no_aliasILb0EEERS5_PKcm(%"class.std::__1::basic_string"*, i8*, i64) local_unnamed_addr #4

declare void @_ZN6google8protobuf8internal20RepeatedPtrFieldBase7ReserveEi(%"class.google::protobuf::internal::RepeatedPtrFieldBase"*, i32) local_unnamed_addr #4

declare %"class.enterprise_management::ExtensionRequest"* @_ZN6google8protobuf5Arena18CreateMaybeMessageIN21enterprise_management16ExtensionRequestEJEEEPT_PS1_DpOT0_(%"class.google::protobuf::Arena"*) local_unnamed_addr #4

; Function Attrs: argmemonly nofree nounwind readonly
declare i64 @strlen(i8* nocapture) local_unnamed_addr #9

; Function Attrs: noreturn
declare void @_ZNKSt3__121__basic_string_commonILb1EE20__throw_length_errorEv(%"class.std::__1::__basic_string_common"*) local_unnamed_addr #10

declare void @_ZNSt3__112basic_stringIcNS_11char_traitsIcEENS_9allocatorIcEEE25__init_copy_ctor_externalEPKcm(%"class.std::__1::basic_string"*, i8*, i64) local_unnamed_addr #4

declare void @_ZN6policy29ChromePolicyConversionsClientC1EPN7content14BrowserContextE(%"class.policy::ChromePolicyConversionsClient"*, %"class.content::BrowserContext"*) unnamed_addr #4

attributes #0 = { nofree norecurse nounwind ssp uwtable writeonly "correctly-rounded-divide-sqrt-fp-math"="false" "disable-tail-calls"="false" "less-precise-fpmad"="false" "min-legal-vector-width"="0" "no-frame-pointer-elim"="false" "no-frame-pointer-elim-non-leaf" "no-infs-fp-math"="false" "no-jump-tables"="false" "no-nans-fp-math"="false" "no-signed-zeros-fp-math"="false" "no-trapping-math"="false" "null-pointer-is-valid"="true" "stack-protector-buffer-size"="4" "target-cpu"="x86-64" "target-features"="+cx8,+fxsr,+mmx,+sse,+sse2,+sse3,+x87" "unsafe-fp-math"="false" "use-soft-float"="false" }
attributes #1 = { norecurse nounwind readnone ssp uwtable "correctly-rounded-divide-sqrt-fp-math"="false" "disable-tail-calls"="false" "less-precise-fpmad"="false" "min-legal-vector-width"="0" "no-frame-pointer-elim"="false" "no-frame-pointer-elim-non-leaf" "no-infs-fp-math"="false" "no-jump-tables"="false" "no-nans-fp-math"="false" "no-signed-zeros-fp-math"="false" "no-trapping-math"="false" "null-pointer-is-valid"="true" "stack-protector-buffer-size"="4" "target-cpu"="x86-64" "target-features"="+cx8,+fxsr,+mmx,+sse,+sse2,+sse3,+x87" "unsafe-fp-math"="false" "use-soft-float"="false" }
attributes #2 = { nounwind ssp uwtable "correctly-rounded-divide-sqrt-fp-math"="false" "disable-tail-calls"="false" "less-precise-fpmad"="false" "min-legal-vector-width"="0" "no-frame-pointer-elim"="false" "no-frame-pointer-elim-non-leaf" "no-infs-fp-math"="false" "no-jump-tables"="false" "no-nans-fp-math"="false" "no-signed-zeros-fp-math"="false" "no-trapping-math"="false" "null-pointer-is-valid"="true" "stack-protector-buffer-size"="4" "target-cpu"="x86-64" "target-features"="+cx8,+fxsr,+mmx,+sse,+sse2,+sse3,+x87" "unsafe-fp-math"="false" "use-soft-float"="false" }
attributes #3 = { nobuiltin nounwind "correctly-rounded-divide-sqrt-fp-math"="false" "disable-tail-calls"="false" "less-precise-fpmad"="false" "no-frame-pointer-elim"="false" "no-frame-pointer-elim-non-leaf" "no-infs-fp-math"="false" "no-nans-fp-math"="false" "no-signed-zeros-fp-math"="false" "no-trapping-math"="false" "null-pointer-is-valid"="true" "stack-protector-buffer-size"="4" "target-cpu"="x86-64" "target-features"="+cx8,+fxsr,+mmx,+sse,+sse2,+sse3,+x87" "unsafe-fp-math"="false" "use-soft-float"="false" }
attributes #4 = { "correctly-rounded-divide-sqrt-fp-math"="false" "disable-tail-calls"="false" "less-precise-fpmad"="false" "no-frame-pointer-elim"="false" "no-frame-pointer-elim-non-leaf" "no-infs-fp-math"="false" "no-nans-fp-math"="false" "no-signed-zeros-fp-math"="false" "no-trapping-math"="false" "null-pointer-is-valid"="true" "stack-protector-buffer-size"="4" "target-cpu"="x86-64" "target-features"="+cx8,+fxsr,+mmx,+sse,+sse2,+sse3,+x87" "unsafe-fp-math"="false" "use-soft-float"="false" }
attributes #5 = { argmemonly nounwind }
attributes #6 = { nounwind "correctly-rounded-divide-sqrt-fp-math"="false" "disable-tail-calls"="false" "less-precise-fpmad"="false" "no-frame-pointer-elim"="false" "no-frame-pointer-elim-non-leaf" "no-infs-fp-math"="false" "no-nans-fp-math"="false" "no-signed-zeros-fp-math"="false" "no-trapping-math"="false" "null-pointer-is-valid"="true" "stack-protector-buffer-size"="4" "target-cpu"="x86-64" "target-features"="+cx8,+fxsr,+mmx,+sse,+sse2,+sse3,+x87" "unsafe-fp-math"="false" "use-soft-float"="false" }
attributes #7 = { noinline nounwind ssp uwtable "correctly-rounded-divide-sqrt-fp-math"="false" "disable-tail-calls"="false" "less-precise-fpmad"="false" "min-legal-vector-width"="0" "no-frame-pointer-elim"="false" "no-frame-pointer-elim-non-leaf" "no-infs-fp-math"="false" "no-jump-tables"="false" "no-nans-fp-math"="false" "no-signed-zeros-fp-math"="false" "no-trapping-math"="false" "null-pointer-is-valid"="true" "stack-protector-buffer-size"="4" "target-cpu"="x86-64" "target-features"="+cx8,+fxsr,+mmx,+sse,+sse2,+sse3,+x87" "unsafe-fp-math"="false" "use-soft-float"="false" }
attributes #8 = { nobuiltin nofree "correctly-rounded-divide-sqrt-fp-math"="false" "disable-tail-calls"="false" "less-precise-fpmad"="false" "no-frame-pointer-elim"="false" "no-frame-pointer-elim-non-leaf" "no-infs-fp-math"="false" "no-nans-fp-math"="false" "no-signed-zeros-fp-math"="false" "no-trapping-math"="false" "null-pointer-is-valid"="true" "stack-protector-buffer-size"="4" "target-cpu"="x86-64" "target-features"="+cx8,+fxsr,+mmx,+sse,+sse2,+sse3,+x87" "unsafe-fp-math"="false" "use-soft-float"="false" }
attributes #9 = { argmemonly nofree nounwind readonly "correctly-rounded-divide-sqrt-fp-math"="false" "disable-tail-calls"="false" "less-precise-fpmad"="false" "no-frame-pointer-elim"="false" "no-frame-pointer-elim-non-leaf" "no-infs-fp-math"="false" "no-nans-fp-math"="false" "no-signed-zeros-fp-math"="false" "no-trapping-math"="false" "null-pointer-is-valid"="true" "stack-protector-buffer-size"="4" "target-cpu"="x86-64" "target-features"="+cx8,+fxsr,+mmx,+sse,+sse2,+sse3,+x87" "unsafe-fp-math"="false" "use-soft-float"="false" }
attributes #10 = { noreturn "correctly-rounded-divide-sqrt-fp-math"="false" "disable-tail-calls"="false" "less-precise-fpmad"="false" "no-frame-pointer-elim"="false" "no-frame-pointer-elim-non-leaf" "no-infs-fp-math"="false" "no-nans-fp-math"="false" "no-signed-zeros-fp-math"="false" "no-trapping-math"="false" "null-pointer-is-valid"="true" "stack-protector-buffer-size"="4" "target-cpu"="x86-64" "target-features"="+cx8,+fxsr,+mmx,+sse,+sse2,+sse3,+x87" "unsafe-fp-math"="false" "use-soft-float"="false" }
attributes #11 = { builtin nounwind }
attributes #12 = { nounwind }
attributes #13 = { noreturn nounwind }

!llvm.module.flags = !{!0, !1}

!0 = !{i32 1, !"wchar_size", i32 4}
!1 = !{i32 7, !"PIC Level", i32 2}
!2 = !{!"branch_weights", i32 2000, i32 1}
