; ModuleID = '../../third_party/dawn/src/dawn_native/ProgrammablePassEncoder.cpp'
source_filename = "../../third_party/dawn/src/dawn_native/ProgrammablePassEncoder.cpp"
target datalayout = "e-m:e-i64:64-f80:128-n8:16:32:64-S128"
target triple = "x86_64-unknown-linux-gnu"

module asm ".symver exp, exp@GLIBC_2.2.5"
module asm ".symver exp2, exp2@GLIBC_2.2.5"
module asm ".symver exp2f, exp2f@GLIBC_2.2.5"
module asm ".symver expf, expf@GLIBC_2.2.5"
module asm ".symver lgamma, lgamma@GLIBC_2.2.5"
module asm ".symver lgammaf, lgammaf@GLIBC_2.2.5"
module asm ".symver lgammal, lgammal@GLIBC_2.2.5"
module asm ".symver log, log@GLIBC_2.2.5"
module asm ".symver log2, log2@GLIBC_2.2.5"
module asm ".symver log2f, log2f@GLIBC_2.2.5"
module asm ".symver logf, logf@GLIBC_2.2.5"
module asm ".symver pow, pow@GLIBC_2.2.5"
module asm ".symver powf, powf@GLIBC_2.2.5"

%"class.dawn_native::ProgrammablePassEncoder" = type <{ %"class.dawn_native::ObjectBase", %"class.dawn_native::EncodingContext"*, i64, i8, [7 x i8] }>
%"class.dawn_native::ObjectBase" = type { %class.RefCounted, %"class.dawn_native::DeviceBase"* }
%class.RefCounted = type { i32 (...)**, %"struct.std::__1::atomic" }
%"struct.std::__1::atomic" = type { %"struct.std::__1::__atomic_base" }
%"struct.std::__1::__atomic_base" = type { %"struct.std::__1::__atomic_base.0" }
%"struct.std::__1::__atomic_base.0" = type { %"struct.std::__1::__cxx_atomic_impl" }
%"struct.std::__1::__cxx_atomic_impl" = type { %"struct.std::__1::__cxx_atomic_base_impl" }
%"struct.std::__1::__cxx_atomic_base_impl" = type { i64 }
%"class.dawn_native::DeviceBase" = type { %class.RefCounted, i64, i64, i64, void (i32, i8*, i8*)*, i8*, void (i8*, i8*)*, i8*, %"class.std::__1::unique_ptr", %class.Ref, %"class.dawn_native::AdapterBase"*, %"class.std::__1::unique_ptr.2", %class.Ref.8, %"class.std::__1::unique_ptr.10", %"class.std::__1::unique_ptr.16", %class.Ref.22, %"class.std::__1::unique_ptr.24", i32, %"struct.std::__1::array", %"struct.dawn_native::TogglesSet", %"struct.dawn_native::TogglesSet", i64, %"struct.dawn_native::ExtensionsSet", %"class.std::__1::unique_ptr.33", %"class.std::__1::unique_ptr.39" }
%"class.std::__1::unique_ptr" = type { %"class.std::__1::__compressed_pair" }
%"class.std::__1::__compressed_pair" = type { %"struct.std::__1::__compressed_pair_elem" }
%"struct.std::__1::__compressed_pair_elem" = type { %"class.dawn_native::ErrorScopeStack"* }
%"class.dawn_native::ErrorScopeStack" = type opaque
%class.Ref = type { %class.RefBase }
%class.RefBase = type { %"class.dawn_native::InstanceBase"* }
%"class.dawn_native::InstanceBase" = type opaque
%"class.dawn_native::AdapterBase" = type opaque
%"class.std::__1::unique_ptr.2" = type { %"class.std::__1::__compressed_pair.3" }
%"class.std::__1::__compressed_pair.3" = type { %"struct.std::__1::__compressed_pair_elem.4" }
%"struct.std::__1::__compressed_pair_elem.4" = type { %"struct.dawn_native::DeviceBase::Caches"* }
%"struct.dawn_native::DeviceBase::Caches" = type opaque
%class.Ref.8 = type { %class.RefBase.9 }
%class.RefBase.9 = type { %"class.dawn_native::BindGroupLayoutBase"* }
%"class.dawn_native::BindGroupLayoutBase" = type { %"class.dawn_native::CachedObject.base", %"struct.dawn_native::BindingCounts", %"class.ityp::vector", %"class.std::__1::map" }
%"class.dawn_native::CachedObject.base" = type <{ %"class.dawn_native::ObjectBase", i8, [7 x i8], i64, i8 }>
%"struct.dawn_native::BindingCounts" = type { i32, i32, i32, i32, i32, %"class.dawn_native::PerStage" }
%"class.dawn_native::PerStage" = type { %"struct.std::__1::array.158" }
%"struct.std::__1::array.158" = type { [3 x %"struct.dawn_native::PerStageBindingCounts"] }
%"struct.dawn_native::PerStageBindingCounts" = type { i32, i32, i32, i32, i32 }
%"class.ityp::vector" = type { %"class.std::__1::vector.159" }
%"class.std::__1::vector.159" = type { %"class.std::__1::__vector_base.160" }
%"class.std::__1::__vector_base.160" = type { %"struct.dawn_native::BindingInfo"*, %"struct.dawn_native::BindingInfo"*, %"class.std::__1::__compressed_pair.161" }
%"struct.dawn_native::BindingInfo" = type { i32, i32, i32, %"struct.dawn_native::BufferBindingLayout", %"struct.dawn_native::SamplerBindingLayout", %"struct.dawn_native::TextureBindingLayout", %"struct.dawn_native::StorageTextureBindingLayout" }
%"struct.dawn_native::BufferBindingLayout" = type { %"struct.dawn_native::ChainedStruct"*, i32, i8, i64 }
%"struct.dawn_native::ChainedStruct" = type <{ %"struct.dawn_native::ChainedStruct"*, i32, [4 x i8] }>
%"struct.dawn_native::SamplerBindingLayout" = type <{ %"struct.dawn_native::ChainedStruct"*, i32, [4 x i8] }>
%"struct.dawn_native::TextureBindingLayout" = type <{ %"struct.dawn_native::ChainedStruct"*, i32, i32, i8, [7 x i8] }>
%"struct.dawn_native::StorageTextureBindingLayout" = type <{ %"struct.dawn_native::ChainedStruct"*, i32, i32, i32, [4 x i8] }>
%"class.std::__1::__compressed_pair.161" = type { %"struct.std::__1::__compressed_pair_elem.162" }
%"struct.std::__1::__compressed_pair_elem.162" = type { %"struct.dawn_native::BindingInfo"* }
%"class.std::__1::map" = type { %"class.std::__1::__tree.166" }
%"class.std::__1::__tree.166" = type { %"class.std::__1::__tree_end_node"*, %"class.std::__1::__compressed_pair.167", %"class.std::__1::__compressed_pair.171" }
%"class.std::__1::__tree_end_node" = type { %"class.std::__1::__tree_node_base"* }
%"class.std::__1::__tree_node_base" = type opaque
%"class.std::__1::__compressed_pair.167" = type { %"struct.std::__1::__compressed_pair_elem.112" }
%"struct.std::__1::__compressed_pair_elem.112" = type { %"class.std::__1::__tree_end_node" }
%"class.std::__1::__compressed_pair.171" = type { %"struct.std::__1::__compressed_pair_elem.67" }
%"struct.std::__1::__compressed_pair_elem.67" = type { i64 }
%"class.std::__1::unique_ptr.10" = type { %"class.std::__1::__compressed_pair.11" }
%"class.std::__1::__compressed_pair.11" = type { %"struct.std::__1::__compressed_pair_elem.12" }
%"struct.std::__1::__compressed_pair_elem.12" = type { %"class.dawn_native::DynamicUploader"* }
%"class.dawn_native::DynamicUploader" = type opaque
%"class.std::__1::unique_ptr.16" = type { %"class.std::__1::__compressed_pair.17" }
%"class.std::__1::__compressed_pair.17" = type { %"struct.std::__1::__compressed_pair_elem.18" }
%"struct.std::__1::__compressed_pair_elem.18" = type { %"class.dawn_native::CallbackTaskManager"* }
%"class.dawn_native::CallbackTaskManager" = type opaque
%class.Ref.22 = type { %class.RefBase.23 }
%class.RefBase.23 = type { %"class.dawn_native::QueueBase"* }
%"class.dawn_native::QueueBase" = type opaque
%"class.std::__1::unique_ptr.24" = type { %"class.std::__1::__compressed_pair.25" }
%"class.std::__1::__compressed_pair.25" = type { %"struct.std::__1::__compressed_pair_elem.26" }
%"struct.std::__1::__compressed_pair_elem.26" = type { %"struct.dawn_native::DeviceBase::DeprecationWarnings"* }
%"struct.dawn_native::DeviceBase::DeprecationWarnings" = type opaque
%"struct.std::__1::array" = type { [55 x %"struct.dawn_native::Format"] }
%"struct.dawn_native::Format" = type { i32, i8, i8, i8, i8, i8, %"struct.std::__1::array.30" }
%"struct.std::__1::array.30" = type { [3 x %"struct.dawn_native::AspectInfo"] }
%"struct.dawn_native::AspectInfo" = type { %"struct.dawn_native::TexelBlockInfo", i32, i8, i32 }
%"struct.dawn_native::TexelBlockInfo" = type { i32, i32, i32 }
%"struct.dawn_native::TogglesSet" = type { %"class.std::__1::bitset" }
%"class.std::__1::bitset" = type { %"class.std::__1::__bitset" }
%"class.std::__1::__bitset" = type { i64 }
%"struct.dawn_native::ExtensionsSet" = type { %"class.std::__1::bitset.31" }
%"class.std::__1::bitset.31" = type { %"class.std::__1::__bitset.32" }
%"class.std::__1::__bitset.32" = type { i64 }
%"class.std::__1::unique_ptr.33" = type { %"class.std::__1::__compressed_pair.34" }
%"class.std::__1::__compressed_pair.34" = type { %"struct.std::__1::__compressed_pair_elem.35" }
%"struct.std::__1::__compressed_pair_elem.35" = type { %"struct.dawn_native::InternalPipelineStore"* }
%"struct.dawn_native::InternalPipelineStore" = type opaque
%"class.std::__1::unique_ptr.39" = type { %"class.std::__1::__compressed_pair.40" }
%"class.std::__1::__compressed_pair.40" = type { %"struct.std::__1::__compressed_pair_elem.41" }
%"struct.std::__1::__compressed_pair_elem.41" = type { %"class.dawn_native::PersistentCache"* }
%"class.dawn_native::PersistentCache" = type opaque
%"class.dawn_native::EncodingContext" = type { %"class.dawn_native::DeviceBase"*, %"class.dawn_native::ObjectBase"*, %"class.dawn_native::ObjectBase"*, %"class.std::__1::vector", i8, %"class.std::__1::vector.102", i8, [7 x i8], %"class.dawn_native::CommandAllocator", %"class.dawn_native::CommandIterator", i8, i8, %"class.std::__1::unique_ptr.140" }
%"class.std::__1::vector" = type { %"class.std::__1::__vector_base" }
%"class.std::__1::__vector_base" = type { %"struct.dawn_native::RenderPassResourceUsage"*, %"struct.dawn_native::RenderPassResourceUsage"*, %"class.std::__1::__compressed_pair.97" }
%"struct.dawn_native::RenderPassResourceUsage" = type { %"struct.dawn_native::SyncScopeResourceUsage", %"class.std::__1::vector.83", %"class.std::__1::vector.90" }
%"struct.dawn_native::SyncScopeResourceUsage" = type { %"class.std::__1::vector.45", %"class.std::__1::vector.56", %"class.std::__1::vector.63", %"class.std::__1::vector.76" }
%"class.std::__1::vector.45" = type { %"class.std::__1::__vector_base.46" }
%"class.std::__1::__vector_base.46" = type { %"class.dawn_native::BufferBase"**, %"class.dawn_native::BufferBase"**, %"class.std::__1::__compressed_pair.53" }
%"class.dawn_native::BufferBase" = type { %"class.dawn_native::ObjectBase", i64, i32, i32, i8, %"class.std::__1::unique_ptr.47", void (i32, i8*)*, i8*, i64, i32, i64, i64 }
%"class.std::__1::unique_ptr.47" = type { %"class.std::__1::__compressed_pair.48" }
%"class.std::__1::__compressed_pair.48" = type { %"struct.std::__1::__compressed_pair_elem.49" }
%"struct.std::__1::__compressed_pair_elem.49" = type { %"class.dawn_native::StagingBufferBase"* }
%"class.dawn_native::StagingBufferBase" = type opaque
%"class.std::__1::__compressed_pair.53" = type { %"struct.std::__1::__compressed_pair_elem.54" }
%"struct.std::__1::__compressed_pair_elem.54" = type { %"class.dawn_native::BufferBase"** }
%"class.std::__1::vector.56" = type { %"class.std::__1::__vector_base.57" }
%"class.std::__1::__vector_base.57" = type { i32*, i32*, %"class.std::__1::__compressed_pair.58" }
%"class.std::__1::__compressed_pair.58" = type { %"struct.std::__1::__compressed_pair_elem.59" }
%"struct.std::__1::__compressed_pair_elem.59" = type { i32* }
%"class.std::__1::vector.63" = type { %"class.std::__1::__vector_base.64" }
%"class.std::__1::__vector_base.64" = type { %"class.dawn_native::TextureBase"**, %"class.dawn_native::TextureBase"**, %"class.std::__1::__compressed_pair.71" }
%"class.dawn_native::TextureBase" = type { %"class.dawn_native::ObjectBase", i32, %"struct.dawn_native::Format"*, %"struct.dawn_native::Extent3D", i32, i32, i32, i32, %"class.std::__1::vector.65" }
%"struct.dawn_native::Extent3D" = type { i32, i32, i32 }
%"class.std::__1::vector.65" = type { i64*, i64, %"class.std::__1::__compressed_pair.66" }
%"class.std::__1::__compressed_pair.66" = type { %"struct.std::__1::__compressed_pair_elem.67" }
%"class.std::__1::__compressed_pair.71" = type { %"struct.std::__1::__compressed_pair_elem.72" }
%"struct.std::__1::__compressed_pair_elem.72" = type { %"class.dawn_native::TextureBase"** }
%"class.std::__1::vector.76" = type { %"class.std::__1::__vector_base.77" }
%"class.std::__1::__vector_base.77" = type { %"class.dawn_native::SubresourceStorage"*, %"class.dawn_native::SubresourceStorage"*, %"class.std::__1::__compressed_pair.78" }
%"class.dawn_native::SubresourceStorage" = type opaque
%"class.std::__1::__compressed_pair.78" = type { %"struct.std::__1::__compressed_pair_elem.79" }
%"struct.std::__1::__compressed_pair_elem.79" = type { %"class.dawn_native::SubresourceStorage"* }
%"class.std::__1::vector.83" = type { %"class.std::__1::__vector_base.84" }
%"class.std::__1::__vector_base.84" = type { %"class.dawn_native::QuerySetBase"**, %"class.dawn_native::QuerySetBase"**, %"class.std::__1::__compressed_pair.85" }
%"class.dawn_native::QuerySetBase" = type opaque
%"class.std::__1::__compressed_pair.85" = type { %"struct.std::__1::__compressed_pair_elem.86" }
%"struct.std::__1::__compressed_pair_elem.86" = type { %"class.dawn_native::QuerySetBase"** }
%"class.std::__1::vector.90" = type { %"class.std::__1::__vector_base.91" }
%"class.std::__1::__vector_base.91" = type { %"class.std::__1::vector.65"*, %"class.std::__1::vector.65"*, %"class.std::__1::__compressed_pair.92" }
%"class.std::__1::__compressed_pair.92" = type { %"struct.std::__1::__compressed_pair_elem.93" }
%"struct.std::__1::__compressed_pair_elem.93" = type { %"class.std::__1::vector.65"* }
%"class.std::__1::__compressed_pair.97" = type { %"struct.std::__1::__compressed_pair_elem.98" }
%"struct.std::__1::__compressed_pair_elem.98" = type { %"struct.dawn_native::RenderPassResourceUsage"* }
%"class.std::__1::vector.102" = type { %"class.std::__1::__vector_base.103" }
%"class.std::__1::__vector_base.103" = type { %"struct.dawn_native::ComputePassResourceUsage"*, %"struct.dawn_native::ComputePassResourceUsage"*, %"class.std::__1::__compressed_pair.128" }
%"struct.dawn_native::ComputePassResourceUsage" = type { %"class.std::__1::vector.104", %"class.std::__1::set", %"class.std::__1::set.118" }
%"class.std::__1::vector.104" = type { %"class.std::__1::__vector_base.105" }
%"class.std::__1::__vector_base.105" = type { %"struct.dawn_native::SyncScopeResourceUsage"*, %"struct.dawn_native::SyncScopeResourceUsage"*, %"class.std::__1::__compressed_pair.106" }
%"class.std::__1::__compressed_pair.106" = type { %"struct.std::__1::__compressed_pair_elem.107" }
%"struct.std::__1::__compressed_pair_elem.107" = type { %"struct.dawn_native::SyncScopeResourceUsage"* }
%"class.std::__1::set" = type { %"class.std::__1::__tree" }
%"class.std::__1::__tree" = type { %"class.std::__1::__tree_end_node"*, %"class.std::__1::__compressed_pair.111", %"class.std::__1::__compressed_pair.116" }
%"class.std::__1::__compressed_pair.111" = type { %"struct.std::__1::__compressed_pair_elem.112" }
%"class.std::__1::__compressed_pair.116" = type { %"struct.std::__1::__compressed_pair_elem.67" }
%"class.std::__1::set.118" = type { %"class.std::__1::__tree.119" }
%"class.std::__1::__tree.119" = type { %"class.std::__1::__tree_end_node"*, %"class.std::__1::__compressed_pair.120", %"class.std::__1::__compressed_pair.124" }
%"class.std::__1::__compressed_pair.120" = type { %"struct.std::__1::__compressed_pair_elem.112" }
%"class.std::__1::__compressed_pair.124" = type { %"struct.std::__1::__compressed_pair_elem.67" }
%"class.std::__1::__compressed_pair.128" = type { %"struct.std::__1::__compressed_pair_elem.129" }
%"struct.std::__1::__compressed_pair_elem.129" = type { %"struct.dawn_native::ComputePassResourceUsage"* }
%"class.dawn_native::CommandAllocator" = type <{ %"class.std::__1::vector.133", i64, i8*, i8*, [1 x i32], [4 x i8] }>
%"class.std::__1::vector.133" = type { %"class.std::__1::__vector_base.134" }
%"class.std::__1::__vector_base.134" = type { %"struct.dawn_native::BlockDef"*, %"struct.dawn_native::BlockDef"*, %"class.std::__1::__compressed_pair.135" }
%"struct.dawn_native::BlockDef" = type { i64, i8* }
%"class.std::__1::__compressed_pair.135" = type { %"struct.std::__1::__compressed_pair_elem.136" }
%"struct.std::__1::__compressed_pair_elem.136" = type { %"struct.dawn_native::BlockDef"* }
%"class.dawn_native::CommandIterator" = type <{ %"class.std::__1::vector.133", i8*, i64, i32, [4 x i8] }>
%"class.std::__1::unique_ptr.140" = type { %"class.std::__1::__compressed_pair.141" }
%"class.std::__1::__compressed_pair.141" = type { %"struct.std::__1::__compressed_pair_elem.142" }
%"struct.std::__1::__compressed_pair_elem.142" = type { %"class.dawn_native::ErrorData"* }
%"class.dawn_native::ErrorData" = type { i32, %"class.std::__1::basic_string", %"class.std::__1::vector.148" }
%"class.std::__1::basic_string" = type { %"class.std::__1::__compressed_pair.143" }
%"class.std::__1::__compressed_pair.143" = type { %"struct.std::__1::__compressed_pair_elem.144" }
%"struct.std::__1::__compressed_pair_elem.144" = type { %"struct.std::__1::basic_string<char, std::__1::char_traits<char>, std::__1::allocator<char> >::__rep" }
%"struct.std::__1::basic_string<char, std::__1::char_traits<char>, std::__1::allocator<char> >::__rep" = type { %union.anon }
%union.anon = type { %"struct.std::__1::basic_string<char, std::__1::char_traits<char>, std::__1::allocator<char> >::__long" }
%"struct.std::__1::basic_string<char, std::__1::char_traits<char>, std::__1::allocator<char> >::__long" = type { i8*, i64, i64 }
%"class.std::__1::vector.148" = type { %"class.std::__1::__vector_base.149" }
%"class.std::__1::__vector_base.149" = type { %"struct.dawn_native::ErrorData::BacktraceRecord"*, %"struct.dawn_native::ErrorData::BacktraceRecord"*, %"class.std::__1::__compressed_pair.150" }
%"struct.dawn_native::ErrorData::BacktraceRecord" = type { i8*, i8*, i32 }
%"class.std::__1::__compressed_pair.150" = type { %"struct.std::__1::__compressed_pair_elem.151" }
%"struct.std::__1::__compressed_pair_elem.151" = type { %"struct.dawn_native::ErrorData::BacktraceRecord"* }
%class.Result = type { %"class.std::__1::unique_ptr.140" }
%"struct.std::__1::basic_string<char, std::__1::char_traits<char>, std::__1::allocator<char> >::__short" = type { [23 x i8], %struct.anon }
%struct.anon = type { i8 }
%"class.dawn_native::BindGroupBase" = type { %"class.dawn_native::ObjectBase", %class.Ref.8, %"struct.dawn_native::BindGroupLayoutBase::BindingDataPointers" }
%"struct.dawn_native::BindGroupLayoutBase::BindingDataPointers" = type { %"class.ityp::span", %"class.ityp::span.177", %"class.ityp::span.181" }
%"class.ityp::span" = type <{ %"struct.dawn_native::BindGroupLayoutBase::BufferBindingData"*, i32, [4 x i8] }>
%"struct.dawn_native::BindGroupLayoutBase::BufferBindingData" = type { i64, i64 }
%"class.ityp::span.177" = type <{ %class.Ref.178*, i32, [4 x i8] }>
%class.Ref.178 = type { %class.RefBase.179 }
%class.RefBase.179 = type { %"class.dawn_native::ObjectBase"* }
%"class.ityp::span.181" = type <{ i64*, i32, [4 x i8] }>
%"struct.dawn_native::BufferBinding" = type { %"class.dawn_native::BufferBase"*, i64, i64 }
%"struct.dawn_native::SetBindGroupCmd" = type <{ i32, [4 x i8], %class.Ref.185, i32, [4 x i8] }>
%class.Ref.185 = type { %class.RefBase.186 }
%class.RefBase.186 = type { %"class.dawn_native::BindGroupBase"* }

$_ZN10RefCountedD2Ev = comdat any

$_ZN11dawn_native23ProgrammablePassEncoderD0Ev = comdat any

$_ZN11dawn_native15EncodingContext19CheckCurrentEncoderEPKNS_10ObjectBaseE = comdat any

$_ZTVN11dawn_native23ProgrammablePassEncoderE = comdat any

@_ZTVN11dawn_native23ProgrammablePassEncoderE = linkonce_odr hidden unnamed_addr constant { [5 x i8*] } { [5 x i8*] [i8* null, i8* null, i8* bitcast (void (%class.RefCounted*)* @_ZN10RefCountedD2Ev to i8*), i8* bitcast (void (%"class.dawn_native::ProgrammablePassEncoder"*)* @_ZN11dawn_native23ProgrammablePassEncoderD0Ev to i8*), i8* bitcast (void (%class.RefCounted*)* @_ZN10RefCounted10DeleteThisEv to i8*)] }, comdat, align 8
@.str = private unnamed_addr constant [51 x i8] c"Each Push must be balanced by a corresponding Pop.\00", align 1
@.str.1 = private unnamed_addr constant [67 x i8] c"../../third_party/dawn/src/dawn_native/ProgrammablePassEncoder.cpp\00", align 1
@__func__._ZNK11dawn_native23ProgrammablePassEncoder30ValidateProgrammableEncoderEndEv = private unnamed_addr constant [31 x i8] c"ValidateProgrammableEncoderEnd\00", align 1
@__func__._ZNK11dawn_native23ProgrammablePassEncoder20ValidateSetBindGroupEjPNS_13BindGroupBaseEjPKj = private unnamed_addr constant [21 x i8] c"ValidateSetBindGroup\00", align 1
@.str.2 = private unnamed_addr constant [32 x i8] c"Setting bind group over the max\00", align 1
@.str.3 = private unnamed_addr constant [29 x i8] c"dynamicOffset count mismatch\00", align 1
@.str.4 = private unnamed_addr constant [41 x i8] c"Dynamic Buffer Offset need to be aligned\00", align 1
@.str.5 = private unnamed_addr constant [151 x i8] c"Dynamic offset out of bounds. The binding goes to the end of the buffer even with a dynamic offset of 0. Did you forget to specify the binding's size?\00", align 1
@.str.6 = private unnamed_addr constant [29 x i8] c"Dynamic offset out of bounds\00", align 1
@.str.8 = private unnamed_addr constant [41 x i8] c"Command cannot be recorded inside a pass\00", align 1
@.str.9 = private unnamed_addr constant [57 x i8] c"../../third_party/dawn/src/dawn_native/EncodingContext.h\00", align 1
@__func__._ZN11dawn_native15EncodingContext19CheckCurrentEncoderEPKNS_10ObjectBaseE = private unnamed_addr constant [20 x i8] c"CheckCurrentEncoder\00", align 1
@.str.10 = private unnamed_addr constant [52 x i8] c"Recording in an error or already ended pass encoder\00", align 1
@.str.11 = private unnamed_addr constant [46 x i8] c"Pop must be balanced by a corresponding Push.\00", align 1
@"__func__._ZZN11dawn_native23ProgrammablePassEncoder16APIPopDebugGroupEvENK3$_1clEPNS_16CommandAllocatorE" = private unnamed_addr constant [11 x i8] c"operator()\00", align 1

@_ZN11dawn_native23ProgrammablePassEncoderC1EPNS_10DeviceBaseEPNS_15EncodingContextE = hidden unnamed_addr alias void (%"class.dawn_native::ProgrammablePassEncoder"*, %"class.dawn_native::DeviceBase"*, %"class.dawn_native::EncodingContext"*), void (%"class.dawn_native::ProgrammablePassEncoder"*, %"class.dawn_native::DeviceBase"*, %"class.dawn_native::EncodingContext"*)* @_ZN11dawn_native23ProgrammablePassEncoderC2EPNS_10DeviceBaseEPNS_15EncodingContextE
@_ZN11dawn_native23ProgrammablePassEncoderC1EPNS_10DeviceBaseEPNS_15EncodingContextENS_10ObjectBase8ErrorTagE = hidden unnamed_addr alias void (%"class.dawn_native::ProgrammablePassEncoder"*, %"class.dawn_native::DeviceBase"*, %"class.dawn_native::EncodingContext"*), void (%"class.dawn_native::ProgrammablePassEncoder"*, %"class.dawn_native::DeviceBase"*, %"class.dawn_native::EncodingContext"*)* @_ZN11dawn_native23ProgrammablePassEncoderC2EPNS_10DeviceBaseEPNS_15EncodingContextENS_10ObjectBase8ErrorTagE

; Function Attrs: nounwind ssp uwtable
define hidden void @_ZN11dawn_native23ProgrammablePassEncoderC2EPNS_10DeviceBaseEPNS_15EncodingContextE(%"class.dawn_native::ProgrammablePassEncoder"*, %"class.dawn_native::DeviceBase"*, %"class.dawn_native::EncodingContext"*) unnamed_addr #0 align 2 {
  %4 = getelementptr inbounds %"class.dawn_native::ProgrammablePassEncoder", %"class.dawn_native::ProgrammablePassEncoder"* %0, i64 0, i32 0
  tail call void @_ZN11dawn_native10ObjectBaseC2EPNS_10DeviceBaseE(%"class.dawn_native::ObjectBase"* %4, %"class.dawn_native::DeviceBase"* %1) #8
  %5 = getelementptr inbounds %"class.dawn_native::ProgrammablePassEncoder", %"class.dawn_native::ProgrammablePassEncoder"* %0, i64 0, i32 0, i32 0, i32 0
  store i32 (...)** bitcast (i8** getelementptr inbounds ({ [5 x i8*] }, { [5 x i8*] }* @_ZTVN11dawn_native23ProgrammablePassEncoderE, i64 0, inrange i32 0, i64 2) to i32 (...)**), i32 (...)*** %5, align 8
  %6 = getelementptr inbounds %"class.dawn_native::ProgrammablePassEncoder", %"class.dawn_native::ProgrammablePassEncoder"* %0, i64 0, i32 1
  store %"class.dawn_native::EncodingContext"* %2, %"class.dawn_native::EncodingContext"** %6, align 8
  %7 = getelementptr inbounds %"class.dawn_native::ProgrammablePassEncoder", %"class.dawn_native::ProgrammablePassEncoder"* %0, i64 0, i32 2
  store i64 0, i64* %7, align 8
  %8 = getelementptr inbounds %"class.dawn_native::ProgrammablePassEncoder", %"class.dawn_native::ProgrammablePassEncoder"* %0, i64 0, i32 3
  %9 = tail call zeroext i1 @_ZNK11dawn_native10DeviceBase19IsValidationEnabledEv(%"class.dawn_native::DeviceBase"* %1) #8
  %10 = zext i1 %9 to i8
  store i8 %10, i8* %8, align 8
  ret void
}

declare void @_ZN11dawn_native10ObjectBaseC2EPNS_10DeviceBaseE(%"class.dawn_native::ObjectBase"*, %"class.dawn_native::DeviceBase"*) unnamed_addr #1

declare zeroext i1 @_ZNK11dawn_native10DeviceBase19IsValidationEnabledEv(%"class.dawn_native::DeviceBase"*) local_unnamed_addr #1

; Function Attrs: nounwind ssp uwtable
define hidden void @_ZN11dawn_native23ProgrammablePassEncoderC2EPNS_10DeviceBaseEPNS_15EncodingContextENS_10ObjectBase8ErrorTagE(%"class.dawn_native::ProgrammablePassEncoder"*, %"class.dawn_native::DeviceBase"*, %"class.dawn_native::EncodingContext"*) unnamed_addr #0 align 2 {
  %4 = getelementptr inbounds %"class.dawn_native::ProgrammablePassEncoder", %"class.dawn_native::ProgrammablePassEncoder"* %0, i64 0, i32 0
  tail call void @_ZN11dawn_native10ObjectBaseC2EPNS_10DeviceBaseENS0_8ErrorTagE(%"class.dawn_native::ObjectBase"* %4, %"class.dawn_native::DeviceBase"* %1) #8
  %5 = getelementptr inbounds %"class.dawn_native::ProgrammablePassEncoder", %"class.dawn_native::ProgrammablePassEncoder"* %0, i64 0, i32 0, i32 0, i32 0
  store i32 (...)** bitcast (i8** getelementptr inbounds ({ [5 x i8*] }, { [5 x i8*] }* @_ZTVN11dawn_native23ProgrammablePassEncoderE, i64 0, inrange i32 0, i64 2) to i32 (...)**), i32 (...)*** %5, align 8
  %6 = getelementptr inbounds %"class.dawn_native::ProgrammablePassEncoder", %"class.dawn_native::ProgrammablePassEncoder"* %0, i64 0, i32 1
  store %"class.dawn_native::EncodingContext"* %2, %"class.dawn_native::EncodingContext"** %6, align 8
  %7 = getelementptr inbounds %"class.dawn_native::ProgrammablePassEncoder", %"class.dawn_native::ProgrammablePassEncoder"* %0, i64 0, i32 2
  store i64 0, i64* %7, align 8
  %8 = getelementptr inbounds %"class.dawn_native::ProgrammablePassEncoder", %"class.dawn_native::ProgrammablePassEncoder"* %0, i64 0, i32 3
  %9 = tail call zeroext i1 @_ZNK11dawn_native10DeviceBase19IsValidationEnabledEv(%"class.dawn_native::DeviceBase"* %1) #8
  %10 = zext i1 %9 to i8
  store i8 %10, i8* %8, align 8
  ret void
}

declare void @_ZN11dawn_native10ObjectBaseC2EPNS_10DeviceBaseENS0_8ErrorTagE(%"class.dawn_native::ObjectBase"*, %"class.dawn_native::DeviceBase"*) unnamed_addr #1

; Function Attrs: norecurse nounwind readonly ssp uwtable
define hidden zeroext i1 @_ZNK11dawn_native23ProgrammablePassEncoder19IsValidationEnabledEv(%"class.dawn_native::ProgrammablePassEncoder"* nocapture readonly) local_unnamed_addr #2 align 2 {
  %2 = getelementptr inbounds %"class.dawn_native::ProgrammablePassEncoder", %"class.dawn_native::ProgrammablePassEncoder"* %0, i64 0, i32 3
  %3 = load i8, i8* %2, align 8, !range !2
  %4 = icmp ne i8 %3, 0
  ret i1 %4
}

; Function Attrs: nounwind ssp uwtable
define hidden void @_ZNK11dawn_native23ProgrammablePassEncoder30ValidateProgrammableEncoderEndEv(%class.Result* noalias nocapture sret, %"class.dawn_native::ProgrammablePassEncoder"* nocapture readonly) local_unnamed_addr #0 align 2 {
  %3 = alloca %"class.std::__1::basic_string", align 8
  %4 = getelementptr inbounds %"class.dawn_native::ProgrammablePassEncoder", %"class.dawn_native::ProgrammablePassEncoder"* %1, i64 0, i32 2
  %5 = load i64, i64* %4, align 8
  %6 = icmp eq i64 %5, 0
  br i1 %6, label %22, label %7

7:                                                ; preds = %2
  %8 = tail call i8* @_Znwm(i64 64) #9
  %9 = getelementptr inbounds %"class.std::__1::basic_string", %"class.std::__1::basic_string"* %3, i64 0, i32 0, i32 0, i32 0, i32 0, i32 0, i32 0
  store i8* %8, i8** %9, align 8
  %10 = getelementptr inbounds %"class.std::__1::basic_string", %"class.std::__1::basic_string"* %3, i64 0, i32 0, i32 0, i32 0, i32 0, i32 0, i32 1
  %11 = bitcast i64* %10 to <2 x i64>*
  store <2 x i64> <i64 50, i64 -9223372036854775744>, <2 x i64>* %11, align 8
  tail call void @llvm.memcpy.p0i8.p0i8.i64(i8* nonnull align 1 %8, i8* align 1 getelementptr inbounds ([51 x i8], [51 x i8]* @.str, i64 0, i64 0), i64 50, i1 false) #8
  %12 = getelementptr inbounds i8, i8* %8, i64 50
  store i8 0, i8* %12, align 1
  %13 = call %"class.dawn_native::ErrorData"* @_ZN11dawn_native9ErrorData6CreateENS_17InternalErrorTypeENSt3__112basic_stringIcNS2_11char_traitsIcEENS2_9allocatorIcEEEEPKcSA_i(i32 0, %"class.std::__1::basic_string"* nonnull %3, i8* getelementptr inbounds ([67 x i8], [67 x i8]* @.str.1, i64 0, i64 0), i8* getelementptr inbounds ([31 x i8], [31 x i8]* @__func__._ZNK11dawn_native23ProgrammablePassEncoder30ValidateProgrammableEncoderEndEv, i64 0, i64 0), i32 51) #8
  %14 = ptrtoint %"class.dawn_native::ErrorData"* %13 to i64
  %15 = bitcast %class.Result* %0 to i64*
  store i64 %14, i64* %15, align 8
  %16 = bitcast %"class.std::__1::basic_string"* %3 to %"struct.std::__1::basic_string<char, std::__1::char_traits<char>, std::__1::allocator<char> >::__short"*
  %17 = getelementptr inbounds %"struct.std::__1::basic_string<char, std::__1::char_traits<char>, std::__1::allocator<char> >::__short", %"struct.std::__1::basic_string<char, std::__1::char_traits<char>, std::__1::allocator<char> >::__short"* %16, i64 0, i32 1, i32 0
  %18 = load i8, i8* %17, align 1
  %19 = icmp slt i8 %18, 0
  br i1 %19, label %20, label %24

20:                                               ; preds = %7
  %21 = load i8*, i8** %9, align 8
  call void @_ZdlPv(i8* %21) #9
  br label %24

22:                                               ; preds = %2
  %23 = bitcast %class.Result* %0 to i64*
  store i64 0, i64* %23, align 8
  br label %24

24:                                               ; preds = %20, %7, %22
  ret void
}

declare %"class.dawn_native::ErrorData"* @_ZN11dawn_native9ErrorData6CreateENS_17InternalErrorTypeENSt3__112basic_stringIcNS2_11char_traitsIcEENS2_9allocatorIcEEEEPKcSA_i(i32, %"class.std::__1::basic_string"*, i8*, i8*, i32) local_unnamed_addr #1

; Function Attrs: nounwind ssp uwtable
define hidden void @_ZN11dawn_native23ProgrammablePassEncoder20APIInsertDebugMarkerEPKc(%"class.dawn_native::ProgrammablePassEncoder"*, i8*) local_unnamed_addr #0 align 2 {
  %3 = getelementptr inbounds %"class.dawn_native::ProgrammablePassEncoder", %"class.dawn_native::ProgrammablePassEncoder"* %0, i64 0, i32 1
  %4 = load %"class.dawn_native::EncodingContext"*, %"class.dawn_native::EncodingContext"** %3, align 8
  %5 = getelementptr inbounds %"class.dawn_native::ProgrammablePassEncoder", %"class.dawn_native::ProgrammablePassEncoder"* %0, i64 0, i32 0
  %6 = tail call zeroext i1 @_ZN11dawn_native15EncodingContext19CheckCurrentEncoderEPKNS_10ObjectBaseE(%"class.dawn_native::EncodingContext"* %4, %"class.dawn_native::ObjectBase"* %5) #8
  br i1 %6, label %7, label %62

7:                                                ; preds = %2
  %8 = getelementptr inbounds %"class.dawn_native::EncodingContext", %"class.dawn_native::EncodingContext"* %4, i64 0, i32 8
  %9 = getelementptr inbounds %"class.dawn_native::EncodingContext", %"class.dawn_native::EncodingContext"* %4, i64 0, i32 8, i32 3
  %10 = bitcast i8** %9 to i64*
  %11 = load i64, i64* %10, align 8, !noalias !3
  %12 = getelementptr inbounds %"class.dawn_native::EncodingContext", %"class.dawn_native::EncodingContext"* %4, i64 0, i32 8, i32 2
  %13 = load i8*, i8** %12, align 8, !noalias !3
  %14 = ptrtoint i8* %13 to i64
  %15 = sub i64 %11, %14
  %16 = icmp ult i64 %15, 20
  %17 = and i64 %15, -4
  %18 = icmp eq i64 %17, 20
  %19 = or i1 %16, %18
  br i1 %19, label %29, label %20

20:                                               ; preds = %7
  %21 = bitcast i8* %13 to i32*
  store i32 17, i32* %21, align 4, !noalias !3
  %22 = load i8*, i8** %12, align 8, !noalias !3
  %23 = getelementptr inbounds i8, i8* %22, i64 4
  %24 = ptrtoint i8* %23 to i64
  %25 = add i64 %24, 3
  %26 = and i64 %25, -4
  %27 = inttoptr i64 %26 to i8*
  %28 = getelementptr inbounds i8, i8* %27, i64 4
  store i8* %28, i8** %12, align 8, !noalias !3
  br label %31

29:                                               ; preds = %7
  %30 = tail call i8* @_ZN11dawn_native16CommandAllocator18AllocateInNewBlockEjmm(%"class.dawn_native::CommandAllocator"* %8, i32 17, i64 4, i64 4) #8, !noalias !3
  br label %31

31:                                               ; preds = %29, %20
  %32 = phi i8* [ %27, %20 ], [ %30, %29 ]
  %33 = tail call i64 @strlen(i8* %1) #10, !noalias !3
  %34 = trunc i64 %33 to i32
  %35 = bitcast i8* %32 to i32*
  store i32 %34, i32* %35, align 4, !noalias !3
  %36 = add i64 %33, 1
  %37 = and i64 %36, 4294967295
  %38 = load i64, i64* %10, align 8, !noalias !3
  %39 = load i8*, i8** %12, align 8, !noalias !3
  %40 = ptrtoint i8* %39 to i64
  %41 = sub i64 %38, %40
  %42 = icmp ult i64 %41, 20
  %43 = add i64 %41, -20
  %44 = icmp ult i64 %43, %37
  %45 = or i1 %42, %44
  br i1 %45, label %55, label %46

46:                                               ; preds = %31
  %47 = bitcast i8* %39 to i32*
  store i32 -2, i32* %47, align 4, !noalias !3
  %48 = load i8*, i8** %12, align 8, !noalias !3
  %49 = getelementptr inbounds i8, i8* %48, i64 4
  %50 = getelementptr inbounds i8, i8* %49, i64 %37
  %51 = ptrtoint i8* %50 to i64
  %52 = add i64 %51, 3
  %53 = and i64 %52, -4
  %54 = inttoptr i64 %53 to i8*
  store i8* %54, i8** %12, align 8, !noalias !3
  br label %57

55:                                               ; preds = %31
  %56 = tail call i8* @_ZN11dawn_native16CommandAllocator18AllocateInNewBlockEjmm(%"class.dawn_native::CommandAllocator"* %8, i32 -2, i64 %37, i64 1) #8, !noalias !3
  br label %57

57:                                               ; preds = %55, %46
  %58 = phi i8* [ %49, %46 ], [ %56, %55 ]
  %59 = load i32, i32* %35, align 4, !noalias !3
  %60 = add i32 %59, 1
  %61 = zext i32 %60 to i64
  tail call void @llvm.memcpy.p0i8.p0i8.i64(i8* align 1 %58, i8* align 1 %1, i64 %61, i1 false) #8, !noalias !3
  br label %62

62:                                               ; preds = %2, %57
  ret void
}

; Function Attrs: argmemonly nounwind
declare void @llvm.lifetime.start.p0i8(i64 immarg, i8* nocapture) #3

; Function Attrs: argmemonly nounwind
declare void @llvm.lifetime.end.p0i8(i64 immarg, i8* nocapture) #3

; Function Attrs: nounwind ssp uwtable
define hidden void @_ZN11dawn_native23ProgrammablePassEncoder16APIPopDebugGroupEv(%"class.dawn_native::ProgrammablePassEncoder"*) local_unnamed_addr #0 align 2 {
  %2 = alloca %"class.std::__1::basic_string", align 8
  %3 = getelementptr inbounds %"class.dawn_native::ProgrammablePassEncoder", %"class.dawn_native::ProgrammablePassEncoder"* %0, i64 0, i32 1
  %4 = load %"class.dawn_native::EncodingContext"*, %"class.dawn_native::EncodingContext"** %3, align 8
  %5 = getelementptr inbounds %"class.dawn_native::ProgrammablePassEncoder", %"class.dawn_native::ProgrammablePassEncoder"* %0, i64 0, i32 0
  %6 = tail call zeroext i1 @_ZN11dawn_native15EncodingContext19CheckCurrentEncoderEPKNS_10ObjectBaseE(%"class.dawn_native::EncodingContext"* %4, %"class.dawn_native::ObjectBase"* %5) #8
  br i1 %6, label %7, label %56

7:                                                ; preds = %1
  %8 = getelementptr inbounds %"class.dawn_native::EncodingContext", %"class.dawn_native::EncodingContext"* %4, i64 0, i32 8
  %9 = bitcast %"class.std::__1::basic_string"* %2 to i8*
  call void @llvm.lifetime.start.p0i8(i64 24, i8* nonnull %9) #8
  %10 = getelementptr inbounds %"class.dawn_native::ProgrammablePassEncoder", %"class.dawn_native::ProgrammablePassEncoder"* %0, i64 0, i32 3
  %11 = load i8, i8* %10, align 8, !range !2, !noalias !6
  %12 = icmp eq i8 %11, 0
  br i1 %12, label %30, label %13

13:                                               ; preds = %7
  %14 = getelementptr inbounds %"class.dawn_native::ProgrammablePassEncoder", %"class.dawn_native::ProgrammablePassEncoder"* %0, i64 0, i32 2
  %15 = load i64, i64* %14, align 8, !noalias !6
  %16 = icmp eq i64 %15, 0
  br i1 %16, label %17, label %30

17:                                               ; preds = %13
  %18 = tail call i8* @_Znwm(i64 48) #9, !noalias !6
  %19 = getelementptr inbounds %"class.std::__1::basic_string", %"class.std::__1::basic_string"* %2, i64 0, i32 0, i32 0, i32 0, i32 0, i32 0, i32 0
  store i8* %18, i8** %19, align 8, !noalias !6
  %20 = getelementptr inbounds %"class.std::__1::basic_string", %"class.std::__1::basic_string"* %2, i64 0, i32 0, i32 0, i32 0, i32 0, i32 0, i32 1
  %21 = bitcast i64* %20 to <2 x i64>*
  store <2 x i64> <i64 45, i64 -9223372036854775760>, <2 x i64>* %21, align 8, !noalias !6
  tail call void @llvm.memcpy.p0i8.p0i8.i64(i8* nonnull align 1 %18, i8* align 1 getelementptr inbounds ([46 x i8], [46 x i8]* @.str.11, i64 0, i64 0), i64 45, i1 false) #8, !noalias !6
  %22 = getelementptr inbounds i8, i8* %18, i64 45
  store i8 0, i8* %22, align 1, !noalias !6
  %23 = call %"class.dawn_native::ErrorData"* @_ZN11dawn_native9ErrorData6CreateENS_17InternalErrorTypeENSt3__112basic_stringIcNS2_11char_traitsIcEENS2_9allocatorIcEEEEPKcSA_i(i32 0, %"class.std::__1::basic_string"* nonnull %2, i8* getelementptr inbounds ([67 x i8], [67 x i8]* @.str.1, i64 0, i64 0), i8* getelementptr inbounds ([11 x i8], [11 x i8]* @"__func__._ZZN11dawn_native23ProgrammablePassEncoder16APIPopDebugGroupEvENK3$_1clEPNS_16CommandAllocatorE", i64 0, i64 0), i32 73) #8, !noalias !6
  %24 = bitcast %"class.std::__1::basic_string"* %2 to %"struct.std::__1::basic_string<char, std::__1::char_traits<char>, std::__1::allocator<char> >::__short"*
  %25 = getelementptr inbounds %"struct.std::__1::basic_string<char, std::__1::char_traits<char>, std::__1::allocator<char> >::__short", %"struct.std::__1::basic_string<char, std::__1::char_traits<char>, std::__1::allocator<char> >::__short"* %24, i64 0, i32 1, i32 0
  %26 = load i8, i8* %25, align 1, !noalias !6
  %27 = icmp slt i8 %26, 0
  br i1 %27, label %28, label %53

28:                                               ; preds = %17
  %29 = load i8*, i8** %19, align 8, !noalias !6
  call void @_ZdlPv(i8* %29) #9, !noalias !6
  br label %53

30:                                               ; preds = %13, %7
  %31 = getelementptr inbounds %"class.dawn_native::EncodingContext", %"class.dawn_native::EncodingContext"* %4, i64 0, i32 8, i32 3
  %32 = bitcast i8** %31 to i64*
  %33 = load i64, i64* %32, align 8, !noalias !6
  %34 = getelementptr inbounds %"class.dawn_native::EncodingContext", %"class.dawn_native::EncodingContext"* %4, i64 0, i32 8, i32 2
  %35 = load i8*, i8** %34, align 8, !noalias !6
  %36 = ptrtoint i8* %35 to i64
  %37 = sub i64 %33, %36
  %38 = icmp ult i64 %37, 21
  br i1 %38, label %47, label %39

39:                                               ; preds = %30
  %40 = bitcast i8* %35 to i32*
  store i32 18, i32* %40, align 4, !noalias !6
  %41 = load i8*, i8** %34, align 8, !noalias !6
  %42 = getelementptr inbounds i8, i8* %41, i64 5
  %43 = ptrtoint i8* %42 to i64
  %44 = add i64 %43, 3
  %45 = and i64 %44, -4
  %46 = inttoptr i64 %45 to i8*
  store i8* %46, i8** %34, align 8, !noalias !6
  br label %49

47:                                               ; preds = %30
  %48 = tail call i8* @_ZN11dawn_native16CommandAllocator18AllocateInNewBlockEjmm(%"class.dawn_native::CommandAllocator"* %8, i32 18, i64 1, i64 1) #8, !noalias !6
  br label %49

49:                                               ; preds = %47, %39
  %50 = getelementptr inbounds %"class.dawn_native::ProgrammablePassEncoder", %"class.dawn_native::ProgrammablePassEncoder"* %0, i64 0, i32 2
  %51 = load i64, i64* %50, align 8, !noalias !6
  %52 = add i64 %51, -1
  store i64 %52, i64* %50, align 8, !noalias !6
  call void @llvm.lifetime.end.p0i8(i64 24, i8* nonnull %9) #8
  br label %56

53:                                               ; preds = %28, %17
  call void @llvm.lifetime.end.p0i8(i64 24, i8* nonnull %9) #8
  %54 = icmp eq %"class.dawn_native::ErrorData"* %23, null
  br i1 %54, label %56, label %55, !prof !9

55:                                               ; preds = %53
  call void @_ZN11dawn_native15EncodingContext11HandleErrorENSt3__110unique_ptrINS_9ErrorDataENS1_14default_deleteIS3_EEEE(%"class.dawn_native::EncodingContext"* %4, %"class.dawn_native::ErrorData"* nonnull %23) #8
  br label %56

56:                                               ; preds = %1, %49, %53, %55
  ret void
}

; Function Attrs: nounwind ssp uwtable
define hidden void @_ZN11dawn_native23ProgrammablePassEncoder17APIPushDebugGroupEPKc(%"class.dawn_native::ProgrammablePassEncoder"*, i8*) local_unnamed_addr #0 align 2 {
  %3 = getelementptr inbounds %"class.dawn_native::ProgrammablePassEncoder", %"class.dawn_native::ProgrammablePassEncoder"* %0, i64 0, i32 1
  %4 = load %"class.dawn_native::EncodingContext"*, %"class.dawn_native::EncodingContext"** %3, align 8
  %5 = getelementptr inbounds %"class.dawn_native::ProgrammablePassEncoder", %"class.dawn_native::ProgrammablePassEncoder"* %0, i64 0, i32 0
  %6 = tail call zeroext i1 @_ZN11dawn_native15EncodingContext19CheckCurrentEncoderEPKNS_10ObjectBaseE(%"class.dawn_native::EncodingContext"* %4, %"class.dawn_native::ObjectBase"* %5) #8
  br i1 %6, label %7, label %65

7:                                                ; preds = %2
  %8 = getelementptr inbounds %"class.dawn_native::EncodingContext", %"class.dawn_native::EncodingContext"* %4, i64 0, i32 8
  %9 = getelementptr inbounds %"class.dawn_native::EncodingContext", %"class.dawn_native::EncodingContext"* %4, i64 0, i32 8, i32 3
  %10 = bitcast i8** %9 to i64*
  %11 = load i64, i64* %10, align 8, !noalias !10
  %12 = getelementptr inbounds %"class.dawn_native::EncodingContext", %"class.dawn_native::EncodingContext"* %4, i64 0, i32 8, i32 2
  %13 = load i8*, i8** %12, align 8, !noalias !10
  %14 = ptrtoint i8* %13 to i64
  %15 = sub i64 %11, %14
  %16 = icmp ult i64 %15, 20
  %17 = and i64 %15, -4
  %18 = icmp eq i64 %17, 20
  %19 = or i1 %16, %18
  br i1 %19, label %29, label %20

20:                                               ; preds = %7
  %21 = bitcast i8* %13 to i32*
  store i32 19, i32* %21, align 4, !noalias !10
  %22 = load i8*, i8** %12, align 8, !noalias !10
  %23 = getelementptr inbounds i8, i8* %22, i64 4
  %24 = ptrtoint i8* %23 to i64
  %25 = add i64 %24, 3
  %26 = and i64 %25, -4
  %27 = inttoptr i64 %26 to i8*
  %28 = getelementptr inbounds i8, i8* %27, i64 4
  store i8* %28, i8** %12, align 8, !noalias !10
  br label %31

29:                                               ; preds = %7
  %30 = tail call i8* @_ZN11dawn_native16CommandAllocator18AllocateInNewBlockEjmm(%"class.dawn_native::CommandAllocator"* %8, i32 19, i64 4, i64 4) #8, !noalias !10
  br label %31

31:                                               ; preds = %29, %20
  %32 = phi i8* [ %27, %20 ], [ %30, %29 ]
  %33 = tail call i64 @strlen(i8* %1) #10, !noalias !10
  %34 = trunc i64 %33 to i32
  %35 = bitcast i8* %32 to i32*
  store i32 %34, i32* %35, align 4, !noalias !10
  %36 = add i64 %33, 1
  %37 = and i64 %36, 4294967295
  %38 = load i64, i64* %10, align 8, !noalias !10
  %39 = load i8*, i8** %12, align 8, !noalias !10
  %40 = ptrtoint i8* %39 to i64
  %41 = sub i64 %38, %40
  %42 = icmp ult i64 %41, 20
  %43 = add i64 %41, -20
  %44 = icmp ult i64 %43, %37
  %45 = or i1 %42, %44
  br i1 %45, label %55, label %46

46:                                               ; preds = %31
  %47 = bitcast i8* %39 to i32*
  store i32 -2, i32* %47, align 4, !noalias !10
  %48 = load i8*, i8** %12, align 8, !noalias !10
  %49 = getelementptr inbounds i8, i8* %48, i64 4
  %50 = getelementptr inbounds i8, i8* %49, i64 %37
  %51 = ptrtoint i8* %50 to i64
  %52 = add i64 %51, 3
  %53 = and i64 %52, -4
  %54 = inttoptr i64 %53 to i8*
  store i8* %54, i8** %12, align 8, !noalias !10
  br label %57

55:                                               ; preds = %31
  %56 = tail call i8* @_ZN11dawn_native16CommandAllocator18AllocateInNewBlockEjmm(%"class.dawn_native::CommandAllocator"* %8, i32 -2, i64 %37, i64 1) #8, !noalias !10
  br label %57

57:                                               ; preds = %55, %46
  %58 = phi i8* [ %49, %46 ], [ %56, %55 ]
  %59 = load i32, i32* %35, align 4, !noalias !10
  %60 = add i32 %59, 1
  %61 = zext i32 %60 to i64
  tail call void @llvm.memcpy.p0i8.p0i8.i64(i8* align 1 %58, i8* align 1 %1, i64 %61, i1 false) #8, !noalias !10
  %62 = getelementptr inbounds %"class.dawn_native::ProgrammablePassEncoder", %"class.dawn_native::ProgrammablePassEncoder"* %0, i64 0, i32 2
  %63 = load i64, i64* %62, align 8, !noalias !10
  %64 = add i64 %63, 1
  store i64 %64, i64* %62, align 8, !noalias !10
  br label %65

65:                                               ; preds = %2, %57
  ret void
}

; Function Attrs: nounwind ssp uwtable
define hidden void @_ZNK11dawn_native23ProgrammablePassEncoder20ValidateSetBindGroupEjPNS_13BindGroupBaseEjPKj(%class.Result* noalias nocapture sret, %"class.dawn_native::ProgrammablePassEncoder"*, i32, %"class.dawn_native::BindGroupBase"*, i32, i32*) local_unnamed_addr #0 align 2 {
  %7 = alloca %class.Result, align 8
  %8 = alloca %"class.std::__1::basic_string", align 8
  %9 = alloca %"class.std::__1::basic_string", align 8
  %10 = alloca %"class.std::__1::basic_string", align 8
  %11 = alloca %"struct.dawn_native::BufferBinding", align 8
  %12 = alloca %"class.std::__1::basic_string", align 8
  %13 = alloca %"class.std::__1::basic_string", align 8
  %14 = bitcast %class.Result* %7 to i8*
  call void @llvm.lifetime.start.p0i8(i64 8, i8* nonnull %14) #8
  %15 = getelementptr inbounds %class.Result, %class.Result* %7, i64 0, i32 0, i32 0, i32 0, i32 0
  store %"class.dawn_native::ErrorData"* inttoptr (i64 -6148914691236517206 to %"class.dawn_native::ErrorData"*), %"class.dawn_native::ErrorData"** %15, align 8
  %16 = getelementptr inbounds %"class.dawn_native::ProgrammablePassEncoder", %"class.dawn_native::ProgrammablePassEncoder"* %1, i64 0, i32 0
  %17 = tail call %"class.dawn_native::DeviceBase"* @_ZNK11dawn_native10ObjectBase9GetDeviceEv(%"class.dawn_native::ObjectBase"* %16) #8
  %18 = getelementptr inbounds %"class.dawn_native::BindGroupBase", %"class.dawn_native::BindGroupBase"* %3, i64 0, i32 0
  call void @_ZNK11dawn_native10DeviceBase14ValidateObjectEPKNS_10ObjectBaseE(%class.Result* nonnull sret %7, %"class.dawn_native::DeviceBase"* %17, %"class.dawn_native::ObjectBase"* %18) #8
  %19 = load %"class.dawn_native::ErrorData"*, %"class.dawn_native::ErrorData"** %15, align 8
  %20 = icmp eq %"class.dawn_native::ErrorData"* %19, null
  store %"class.dawn_native::ErrorData"* null, %"class.dawn_native::ErrorData"** %15, align 8
  br i1 %20, label %47, label %21, !prof !9

21:                                               ; preds = %6
  %22 = ptrtoint %"class.dawn_native::ErrorData"* %19 to i64
  call void @_ZN11dawn_native9ErrorData15AppendBacktraceEPKcS2_i(%"class.dawn_native::ErrorData"* nonnull %19, i8* getelementptr inbounds ([67 x i8], [67 x i8]* @.str.1, i64 0, i64 0), i8* getelementptr inbounds ([21 x i8], [21 x i8]* @__func__._ZNK11dawn_native23ProgrammablePassEncoder20ValidateSetBindGroupEjPNS_13BindGroupBaseEjPKj, i64 0, i64 0), i32 103) #8
  %23 = bitcast %class.Result* %0 to i64*
  store i64 %22, i64* %23, align 8
  %24 = load %"class.dawn_native::ErrorData"*, %"class.dawn_native::ErrorData"** %15, align 8
  store %"class.dawn_native::ErrorData"* null, %"class.dawn_native::ErrorData"** %15, align 8
  %25 = icmp eq %"class.dawn_native::ErrorData"* %24, null
  br i1 %25, label %46, label %26

26:                                               ; preds = %21
  %27 = getelementptr inbounds %"class.dawn_native::ErrorData", %"class.dawn_native::ErrorData"* %24, i64 0, i32 2, i32 0, i32 0
  %28 = load %"struct.dawn_native::ErrorData::BacktraceRecord"*, %"struct.dawn_native::ErrorData::BacktraceRecord"** %27, align 8
  %29 = icmp eq %"struct.dawn_native::ErrorData::BacktraceRecord"* %28, null
  br i1 %29, label %35, label %30

30:                                               ; preds = %26
  %31 = ptrtoint %"struct.dawn_native::ErrorData::BacktraceRecord"* %28 to i64
  %32 = getelementptr inbounds %"class.dawn_native::ErrorData", %"class.dawn_native::ErrorData"* %24, i64 0, i32 2, i32 0, i32 1
  %33 = bitcast %"struct.dawn_native::ErrorData::BacktraceRecord"** %32 to i64*
  store i64 %31, i64* %33, align 8
  %34 = bitcast %"struct.dawn_native::ErrorData::BacktraceRecord"* %28 to i8*
  call void @_ZdlPv(i8* %34) #9
  br label %35

35:                                               ; preds = %30, %26
  %36 = getelementptr inbounds %"class.dawn_native::ErrorData", %"class.dawn_native::ErrorData"* %24, i64 0, i32 1
  %37 = bitcast %"class.std::__1::basic_string"* %36 to %"struct.std::__1::basic_string<char, std::__1::char_traits<char>, std::__1::allocator<char> >::__short"*
  %38 = getelementptr inbounds %"struct.std::__1::basic_string<char, std::__1::char_traits<char>, std::__1::allocator<char> >::__short", %"struct.std::__1::basic_string<char, std::__1::char_traits<char>, std::__1::allocator<char> >::__short"* %37, i64 0, i32 1, i32 0
  %39 = load i8, i8* %38, align 1
  %40 = icmp slt i8 %39, 0
  br i1 %40, label %41, label %44

41:                                               ; preds = %35
  %42 = getelementptr inbounds %"class.std::__1::basic_string", %"class.std::__1::basic_string"* %36, i64 0, i32 0, i32 0, i32 0, i32 0, i32 0, i32 0
  %43 = load i8*, i8** %42, align 8
  call void @_ZdlPv(i8* %43) #9
  br label %44

44:                                               ; preds = %41, %35
  %45 = bitcast %"class.dawn_native::ErrorData"* %24 to i8*
  call void @_ZdlPv(i8* %45) #9
  br label %46

46:                                               ; preds = %21, %44
  call void @llvm.lifetime.end.p0i8(i64 8, i8* nonnull %14) #8
  br label %167

47:                                               ; preds = %6
  call void @llvm.lifetime.end.p0i8(i64 8, i8* nonnull %14) #8
  %48 = icmp ugt i32 %2, 3
  br i1 %48, label %49, label %64

49:                                               ; preds = %47
  %50 = call i8* @_Znwm(i64 32) #9
  %51 = getelementptr inbounds %"class.std::__1::basic_string", %"class.std::__1::basic_string"* %8, i64 0, i32 0, i32 0, i32 0, i32 0, i32 0, i32 0
  store i8* %50, i8** %51, align 8
  %52 = getelementptr inbounds %"class.std::__1::basic_string", %"class.std::__1::basic_string"* %8, i64 0, i32 0, i32 0, i32 0, i32 0, i32 0, i32 1
  %53 = bitcast i64* %52 to <2 x i64>*
  store <2 x i64> <i64 31, i64 -9223372036854775776>, <2 x i64>* %53, align 8
  call void @llvm.memcpy.p0i8.p0i8.i64(i8* nonnull align 1 %50, i8* align 1 getelementptr inbounds ([32 x i8], [32 x i8]* @.str.2, i64 0, i64 0), i64 31, i1 false) #8
  %54 = getelementptr inbounds i8, i8* %50, i64 31
  store i8 0, i8* %54, align 1
  %55 = call %"class.dawn_native::ErrorData"* @_ZN11dawn_native9ErrorData6CreateENS_17InternalErrorTypeENSt3__112basic_stringIcNS2_11char_traitsIcEENS2_9allocatorIcEEEEPKcSA_i(i32 0, %"class.std::__1::basic_string"* nonnull %8, i8* getelementptr inbounds ([67 x i8], [67 x i8]* @.str.1, i64 0, i64 0), i8* getelementptr inbounds ([21 x i8], [21 x i8]* @__func__._ZNK11dawn_native23ProgrammablePassEncoder20ValidateSetBindGroupEjPNS_13BindGroupBaseEjPKj, i64 0, i64 0), i32 106) #8
  %56 = ptrtoint %"class.dawn_native::ErrorData"* %55 to i64
  %57 = bitcast %class.Result* %0 to i64*
  store i64 %56, i64* %57, align 8
  %58 = bitcast %"class.std::__1::basic_string"* %8 to %"struct.std::__1::basic_string<char, std::__1::char_traits<char>, std::__1::allocator<char> >::__short"*
  %59 = getelementptr inbounds %"struct.std::__1::basic_string<char, std::__1::char_traits<char>, std::__1::allocator<char> >::__short", %"struct.std::__1::basic_string<char, std::__1::char_traits<char>, std::__1::allocator<char> >::__short"* %58, i64 0, i32 1, i32 0
  %60 = load i8, i8* %59, align 1
  %61 = icmp slt i8 %60, 0
  br i1 %61, label %62, label %167

62:                                               ; preds = %49
  %63 = load i8*, i8** %51, align 8
  call void @_ZdlPv(i8* %63) #9
  br label %167

64:                                               ; preds = %47
  %65 = call %"class.dawn_native::BindGroupLayoutBase"* @_ZN11dawn_native13BindGroupBase9GetLayoutEv(%"class.dawn_native::BindGroupBase"* %3) #8
  %66 = call i32 @_ZNK11dawn_native19BindGroupLayoutBase21GetDynamicBufferCountEv(%"class.dawn_native::BindGroupLayoutBase"* %65) #8
  %67 = icmp eq i32 %66, %4
  br i1 %67, label %68, label %77

68:                                               ; preds = %64
  %69 = icmp eq i32 %4, 0
  br i1 %69, label %165, label %70

70:                                               ; preds = %68
  %71 = bitcast %"struct.dawn_native::BufferBinding"* %11 to i8*
  %72 = getelementptr inbounds %"struct.dawn_native::BufferBinding", %"struct.dawn_native::BufferBinding"* %11, i64 0, i32 0
  %73 = getelementptr inbounds %"struct.dawn_native::BufferBinding", %"struct.dawn_native::BufferBinding"* %11, i64 0, i32 1
  %74 = getelementptr inbounds %"struct.dawn_native::BufferBinding", %"struct.dawn_native::BufferBinding"* %11, i64 0, i32 2
  %75 = zext i32 %4 to i64
  %76 = bitcast %"struct.dawn_native::BufferBinding"* %11 to i8*
  br label %92

77:                                               ; preds = %64
  %78 = call i8* @_Znwm(i64 32) #9
  %79 = getelementptr inbounds %"class.std::__1::basic_string", %"class.std::__1::basic_string"* %9, i64 0, i32 0, i32 0, i32 0, i32 0, i32 0, i32 0
  store i8* %78, i8** %79, align 8
  %80 = getelementptr inbounds %"class.std::__1::basic_string", %"class.std::__1::basic_string"* %9, i64 0, i32 0, i32 0, i32 0, i32 0, i32 0, i32 1
  %81 = bitcast i64* %80 to <2 x i64>*
  store <2 x i64> <i64 28, i64 -9223372036854775776>, <2 x i64>* %81, align 8
  call void @llvm.memcpy.p0i8.p0i8.i64(i8* nonnull align 1 %78, i8* align 1 getelementptr inbounds ([29 x i8], [29 x i8]* @.str.3, i64 0, i64 0), i64 28, i1 false) #8
  %82 = getelementptr inbounds i8, i8* %78, i64 28
  store i8 0, i8* %82, align 1
  %83 = call %"class.dawn_native::ErrorData"* @_ZN11dawn_native9ErrorData6CreateENS_17InternalErrorTypeENSt3__112basic_stringIcNS2_11char_traitsIcEENS2_9allocatorIcEEEEPKcSA_i(i32 0, %"class.std::__1::basic_string"* nonnull %9, i8* getelementptr inbounds ([67 x i8], [67 x i8]* @.str.1, i64 0, i64 0), i8* getelementptr inbounds ([21 x i8], [21 x i8]* @__func__._ZNK11dawn_native23ProgrammablePassEncoder20ValidateSetBindGroupEjPNS_13BindGroupBaseEjPKj, i64 0, i64 0), i32 115) #8
  %84 = ptrtoint %"class.dawn_native::ErrorData"* %83 to i64
  %85 = bitcast %class.Result* %0 to i64*
  store i64 %84, i64* %85, align 8
  %86 = bitcast %"class.std::__1::basic_string"* %9 to %"struct.std::__1::basic_string<char, std::__1::char_traits<char>, std::__1::allocator<char> >::__short"*
  %87 = getelementptr inbounds %"struct.std::__1::basic_string<char, std::__1::char_traits<char>, std::__1::allocator<char> >::__short", %"struct.std::__1::basic_string<char, std::__1::char_traits<char>, std::__1::allocator<char> >::__short"* %86, i64 0, i32 1, i32 0
  %88 = load i8, i8* %87, align 1
  %89 = icmp slt i8 %88, 0
  br i1 %89, label %90, label %167

90:                                               ; preds = %77
  %91 = load i8*, i8** %79, align 8
  call void @_ZdlPv(i8* %91) #9
  br label %167

92:                                               ; preds = %162, %70
  %93 = phi i64 [ 0, %70 ], [ %163, %162 ]
  %94 = getelementptr inbounds i32, i32* %5, i64 %93
  %95 = load i32, i32* %94, align 4
  %96 = and i32 %95, 255
  %97 = icmp eq i32 %96, 0
  br i1 %97, label %113, label %98

98:                                               ; preds = %92
  %99 = call i8* @_Znwm(i64 48) #9
  %100 = getelementptr inbounds %"class.std::__1::basic_string", %"class.std::__1::basic_string"* %10, i64 0, i32 0, i32 0, i32 0, i32 0, i32 0, i32 0
  store i8* %99, i8** %100, align 8
  %101 = getelementptr inbounds %"class.std::__1::basic_string", %"class.std::__1::basic_string"* %10, i64 0, i32 0, i32 0, i32 0, i32 0, i32 0, i32 1
  %102 = bitcast i64* %101 to <2 x i64>*
  store <2 x i64> <i64 40, i64 -9223372036854775760>, <2 x i64>* %102, align 8
  call void @llvm.memcpy.p0i8.p0i8.i64(i8* nonnull align 1 %99, i8* align 1 getelementptr inbounds ([41 x i8], [41 x i8]* @.str.4, i64 0, i64 0), i64 40, i1 false) #8
  %103 = getelementptr inbounds i8, i8* %99, i64 40
  store i8 0, i8* %103, align 1
  %104 = call %"class.dawn_native::ErrorData"* @_ZN11dawn_native9ErrorData6CreateENS_17InternalErrorTypeENSt3__112basic_stringIcNS2_11char_traitsIcEENS2_9allocatorIcEEEEPKcSA_i(i32 0, %"class.std::__1::basic_string"* nonnull %10, i8* getelementptr inbounds ([67 x i8], [67 x i8]* @.str.1, i64 0, i64 0), i8* getelementptr inbounds ([21 x i8], [21 x i8]* @__func__._ZNK11dawn_native23ProgrammablePassEncoder20ValidateSetBindGroupEjPNS_13BindGroupBaseEjPKj, i64 0, i64 0), i32 127) #8
  %105 = ptrtoint %"class.dawn_native::ErrorData"* %104 to i64
  %106 = bitcast %class.Result* %0 to i64*
  store i64 %105, i64* %106, align 8
  %107 = bitcast %"class.std::__1::basic_string"* %10 to %"struct.std::__1::basic_string<char, std::__1::char_traits<char>, std::__1::allocator<char> >::__short"*
  %108 = getelementptr inbounds %"struct.std::__1::basic_string<char, std::__1::char_traits<char>, std::__1::allocator<char> >::__short", %"struct.std::__1::basic_string<char, std::__1::char_traits<char>, std::__1::allocator<char> >::__short"* %107, i64 0, i32 1, i32 0
  %109 = load i8, i8* %108, align 1
  %110 = icmp slt i8 %109, 0
  br i1 %110, label %111, label %167

111:                                              ; preds = %98
  %112 = load i8*, i8** %100, align 8
  call void @_ZdlPv(i8* %112) #9
  br label %167

113:                                              ; preds = %92
  call void @llvm.lifetime.start.p0i8(i64 24, i8* nonnull %71) #8
  %114 = trunc i64 %93 to i32
  call void @llvm.memset.p0i8.i64(i8* nonnull align 8 %76, i8 -86, i64 24, i1 false)
  call void @_ZN11dawn_native13BindGroupBase25GetBindingAsBufferBindingEj(%"struct.dawn_native::BufferBinding"* nonnull sret %11, %"class.dawn_native::BindGroupBase"* %3, i32 %114) #8
  %115 = load i32, i32* %94, align 4
  %116 = zext i32 %115 to i64
  %117 = load %"class.dawn_native::BufferBase"*, %"class.dawn_native::BufferBase"** %72, align 8
  %118 = call i64 @_ZNK11dawn_native10BufferBase7GetSizeEv(%"class.dawn_native::BufferBase"* %117) #8
  %119 = load i64, i64* %73, align 8
  %120 = sub i64 %118, %119
  %121 = load i64, i64* %74, align 8
  %122 = sub i64 %120, %121
  %123 = icmp ult i64 %122, %116
  br i1 %123, label %124, label %162

124:                                              ; preds = %113
  %125 = load %"class.dawn_native::BufferBase"*, %"class.dawn_native::BufferBase"** %72, align 8
  %126 = call i64 @_ZNK11dawn_native10BufferBase7GetSizeEv(%"class.dawn_native::BufferBase"* %125) #8
  %127 = load i64, i64* %73, align 8
  %128 = sub i64 %126, %127
  %129 = load i64, i64* %74, align 8
  %130 = icmp eq i64 %128, %129
  br i1 %130, label %131, label %146

131:                                              ; preds = %124
  %132 = call i8* @_Znwm(i64 160) #9
  %133 = getelementptr inbounds %"class.std::__1::basic_string", %"class.std::__1::basic_string"* %12, i64 0, i32 0, i32 0, i32 0, i32 0, i32 0, i32 0
  store i8* %132, i8** %133, align 8
  %134 = getelementptr inbounds %"class.std::__1::basic_string", %"class.std::__1::basic_string"* %12, i64 0, i32 0, i32 0, i32 0, i32 0, i32 0, i32 1
  %135 = bitcast i64* %134 to <2 x i64>*
  store <2 x i64> <i64 150, i64 -9223372036854775648>, <2 x i64>* %135, align 8
  call void @llvm.memcpy.p0i8.p0i8.i64(i8* nonnull align 1 %132, i8* align 1 getelementptr inbounds ([151 x i8], [151 x i8]* @.str.5, i64 0, i64 0), i64 150, i1 false) #8
  %136 = getelementptr inbounds i8, i8* %132, i64 150
  store i8 0, i8* %136, align 1
  %137 = call %"class.dawn_native::ErrorData"* @_ZN11dawn_native9ErrorData6CreateENS_17InternalErrorTypeENSt3__112basic_stringIcNS2_11char_traitsIcEENS2_9allocatorIcEEEEPKcSA_i(i32 0, %"class.std::__1::basic_string"* nonnull %12, i8* getelementptr inbounds ([67 x i8], [67 x i8]* @.str.1, i64 0, i64 0), i8* getelementptr inbounds ([21 x i8], [21 x i8]* @__func__._ZNK11dawn_native23ProgrammablePassEncoder20ValidateSetBindGroupEjPNS_13BindGroupBaseEjPKj, i64 0, i64 0), i32 144) #8
  %138 = ptrtoint %"class.dawn_native::ErrorData"* %137 to i64
  %139 = bitcast %class.Result* %0 to i64*
  store i64 %138, i64* %139, align 8
  %140 = bitcast %"class.std::__1::basic_string"* %12 to %"struct.std::__1::basic_string<char, std::__1::char_traits<char>, std::__1::allocator<char> >::__short"*
  %141 = getelementptr inbounds %"struct.std::__1::basic_string<char, std::__1::char_traits<char>, std::__1::allocator<char> >::__short", %"struct.std::__1::basic_string<char, std::__1::char_traits<char>, std::__1::allocator<char> >::__short"* %140, i64 0, i32 1, i32 0
  %142 = load i8, i8* %141, align 1
  %143 = icmp slt i8 %142, 0
  br i1 %143, label %144, label %161

144:                                              ; preds = %131
  %145 = load i8*, i8** %133, align 8
  call void @_ZdlPv(i8* %145) #9
  br label %161

146:                                              ; preds = %124
  %147 = call i8* @_Znwm(i64 32) #9
  %148 = getelementptr inbounds %"class.std::__1::basic_string", %"class.std::__1::basic_string"* %13, i64 0, i32 0, i32 0, i32 0, i32 0, i32 0, i32 0
  store i8* %147, i8** %148, align 8
  %149 = getelementptr inbounds %"class.std::__1::basic_string", %"class.std::__1::basic_string"* %13, i64 0, i32 0, i32 0, i32 0, i32 0, i32 0, i32 1
  %150 = bitcast i64* %149 to <2 x i64>*
  store <2 x i64> <i64 28, i64 -9223372036854775776>, <2 x i64>* %150, align 8
  call void @llvm.memcpy.p0i8.p0i8.i64(i8* nonnull align 1 %147, i8* align 1 getelementptr inbounds ([29 x i8], [29 x i8]* @.str.6, i64 0, i64 0), i64 28, i1 false) #8
  %151 = getelementptr inbounds i8, i8* %147, i64 28
  store i8 0, i8* %151, align 1
  %152 = call %"class.dawn_native::ErrorData"* @_ZN11dawn_native9ErrorData6CreateENS_17InternalErrorTypeENSt3__112basic_stringIcNS2_11char_traitsIcEENS2_9allocatorIcEEEEPKcSA_i(i32 0, %"class.std::__1::basic_string"* nonnull %13, i8* getelementptr inbounds ([67 x i8], [67 x i8]* @.str.1, i64 0, i64 0), i8* getelementptr inbounds ([21 x i8], [21 x i8]* @__func__._ZNK11dawn_native23ProgrammablePassEncoder20ValidateSetBindGroupEjPNS_13BindGroupBaseEjPKj, i64 0, i64 0), i32 146) #8
  %153 = ptrtoint %"class.dawn_native::ErrorData"* %152 to i64
  %154 = bitcast %class.Result* %0 to i64*
  store i64 %153, i64* %154, align 8
  %155 = bitcast %"class.std::__1::basic_string"* %13 to %"struct.std::__1::basic_string<char, std::__1::char_traits<char>, std::__1::allocator<char> >::__short"*
  %156 = getelementptr inbounds %"struct.std::__1::basic_string<char, std::__1::char_traits<char>, std::__1::allocator<char> >::__short", %"struct.std::__1::basic_string<char, std::__1::char_traits<char>, std::__1::allocator<char> >::__short"* %155, i64 0, i32 1, i32 0
  %157 = load i8, i8* %156, align 1
  %158 = icmp slt i8 %157, 0
  br i1 %158, label %159, label %161

159:                                              ; preds = %146
  %160 = load i8*, i8** %148, align 8
  call void @_ZdlPv(i8* %160) #9
  br label %161

161:                                              ; preds = %131, %144, %146, %159
  call void @llvm.lifetime.end.p0i8(i64 24, i8* nonnull %71) #8
  br label %167

162:                                              ; preds = %113
  call void @llvm.lifetime.end.p0i8(i64 24, i8* nonnull %71) #8
  %163 = add nuw nsw i64 %93, 1
  %164 = icmp eq i64 %163, %75
  br i1 %164, label %165, label %92

165:                                              ; preds = %162, %68
  %166 = bitcast %class.Result* %0 to i64*
  store i64 0, i64* %166, align 8
  br label %167

167:                                              ; preds = %111, %98, %161, %165, %77, %90, %62, %49, %46
  ret void
}

declare %"class.dawn_native::DeviceBase"* @_ZNK11dawn_native10ObjectBase9GetDeviceEv(%"class.dawn_native::ObjectBase"*) local_unnamed_addr #1

declare void @_ZNK11dawn_native10DeviceBase14ValidateObjectEPKNS_10ObjectBaseE(%class.Result* sret, %"class.dawn_native::DeviceBase"*, %"class.dawn_native::ObjectBase"*) local_unnamed_addr #1

declare void @_ZN11dawn_native9ErrorData15AppendBacktraceEPKcS2_i(%"class.dawn_native::ErrorData"*, i8*, i8*, i32) local_unnamed_addr #1

declare %"class.dawn_native::BindGroupLayoutBase"* @_ZN11dawn_native13BindGroupBase9GetLayoutEv(%"class.dawn_native::BindGroupBase"*) local_unnamed_addr #1

declare i32 @_ZNK11dawn_native19BindGroupLayoutBase21GetDynamicBufferCountEv(%"class.dawn_native::BindGroupLayoutBase"*) local_unnamed_addr #1

declare void @_ZN11dawn_native13BindGroupBase25GetBindingAsBufferBindingEj(%"struct.dawn_native::BufferBinding"* sret, %"class.dawn_native::BindGroupBase"*, i32) local_unnamed_addr #1

declare i64 @_ZNK11dawn_native10BufferBase7GetSizeEv(%"class.dawn_native::BufferBase"*) local_unnamed_addr #1

; Function Attrs: nounwind ssp uwtable
define hidden void @_ZNK11dawn_native23ProgrammablePassEncoder18RecordSetBindGroupEPNS_16CommandAllocatorEjPNS_13BindGroupBaseEjPKj(%"class.dawn_native::ProgrammablePassEncoder"* nocapture readnone, %"class.dawn_native::CommandAllocator"*, i32, %"class.dawn_native::BindGroupBase"*, i32, i32* nocapture readonly) local_unnamed_addr #0 align 2 {
  %7 = getelementptr inbounds %"class.dawn_native::CommandAllocator", %"class.dawn_native::CommandAllocator"* %1, i64 0, i32 3
  %8 = bitcast i8** %7 to i64*
  %9 = load i64, i64* %8, align 8
  %10 = getelementptr inbounds %"class.dawn_native::CommandAllocator", %"class.dawn_native::CommandAllocator"* %1, i64 0, i32 2
  %11 = load i8*, i8** %10, align 8
  %12 = ptrtoint i8* %11 to i64
  %13 = sub i64 %9, %12
  %14 = icmp ult i64 %13, 20
  %15 = add i64 %13, -20
  %16 = icmp ult i64 %15, 24
  %17 = or i1 %14, %16
  br i1 %17, label %27, label %18

18:                                               ; preds = %6
  %19 = bitcast i8* %11 to i32*
  store i32 27, i32* %19, align 4
  %20 = load i8*, i8** %10, align 8
  %21 = getelementptr inbounds i8, i8* %20, i64 4
  %22 = ptrtoint i8* %21 to i64
  %23 = add i64 %22, 7
  %24 = and i64 %23, -8
  %25 = inttoptr i64 %24 to i8*
  %26 = getelementptr inbounds i8, i8* %25, i64 24
  store i8* %26, i8** %10, align 8
  br label %29

27:                                               ; preds = %6
  %28 = tail call i8* @_ZN11dawn_native16CommandAllocator18AllocateInNewBlockEjmm(%"class.dawn_native::CommandAllocator"* %1, i32 27, i64 24, i64 8) #8
  br label %29

29:                                               ; preds = %27, %18
  %30 = phi i8* [ %25, %18 ], [ %28, %27 ]
  %31 = icmp eq i8* %30, null
  br i1 %31, label %36, label %32

32:                                               ; preds = %29
  %33 = bitcast i8* %30 to %"struct.dawn_native::SetBindGroupCmd"*
  %34 = getelementptr inbounds i8, i8* %30, i64 8
  %35 = bitcast i8* %34 to %"class.dawn_native::BindGroupBase"**
  store %"class.dawn_native::BindGroupBase"* null, %"class.dawn_native::BindGroupBase"** %35, align 8
  br label %36

36:                                               ; preds = %29, %32
  %37 = phi %"struct.dawn_native::SetBindGroupCmd"* [ %33, %32 ], [ null, %29 ]
  %38 = getelementptr inbounds %"struct.dawn_native::SetBindGroupCmd", %"struct.dawn_native::SetBindGroupCmd"* %37, i64 0, i32 0
  store i32 %2, i32* %38, align 8
  %39 = icmp eq %"class.dawn_native::BindGroupBase"* %3, null
  %40 = ptrtoint %"class.dawn_native::BindGroupBase"* %3 to i64
  br i1 %39, label %43, label %41

41:                                               ; preds = %36
  %42 = getelementptr inbounds %"class.dawn_native::BindGroupBase", %"class.dawn_native::BindGroupBase"* %3, i64 0, i32 0, i32 0
  tail call void @_ZN10RefCounted9ReferenceEv(%class.RefCounted* %42) #8
  br label %43

43:                                               ; preds = %36, %41
  %44 = getelementptr inbounds %"struct.dawn_native::SetBindGroupCmd", %"struct.dawn_native::SetBindGroupCmd"* %37, i64 0, i32 2
  %45 = getelementptr inbounds %class.Ref.185, %class.Ref.185* %44, i64 0, i32 0, i32 0
  %46 = load %"class.dawn_native::BindGroupBase"*, %"class.dawn_native::BindGroupBase"** %45, align 8
  %47 = icmp eq %"class.dawn_native::BindGroupBase"* %46, null
  br i1 %47, label %50, label %48

48:                                               ; preds = %43
  %49 = getelementptr inbounds %"class.dawn_native::BindGroupBase", %"class.dawn_native::BindGroupBase"* %46, i64 0, i32 0, i32 0
  tail call void @_ZN10RefCounted7ReleaseEv(%class.RefCounted* %49) #8
  br label %50

50:                                               ; preds = %43, %48
  %51 = bitcast %class.Ref.185* %44 to i64*
  store i64 %40, i64* %51, align 8
  %52 = getelementptr inbounds %"struct.dawn_native::SetBindGroupCmd", %"struct.dawn_native::SetBindGroupCmd"* %37, i64 0, i32 3
  store i32 %4, i32* %52, align 8
  %53 = icmp eq i32 %4, 0
  br i1 %53, label %79, label %54

54:                                               ; preds = %50
  %55 = zext i32 %4 to i64
  %56 = shl nuw nsw i64 %55, 2
  %57 = load i64, i64* %8, align 8
  %58 = load i8*, i8** %10, align 8
  %59 = ptrtoint i8* %58 to i64
  %60 = sub i64 %57, %59
  %61 = icmp ult i64 %60, 20
  %62 = add i64 %60, -20
  %63 = icmp ult i64 %62, %56
  %64 = or i1 %61, %63
  br i1 %64, label %74, label %65

65:                                               ; preds = %54
  %66 = bitcast i8* %58 to i32*
  store i32 -2, i32* %66, align 4
  %67 = load i8*, i8** %10, align 8
  %68 = getelementptr inbounds i8, i8* %67, i64 4
  %69 = ptrtoint i8* %68 to i64
  %70 = add i64 %69, 3
  %71 = and i64 %70, -4
  %72 = inttoptr i64 %71 to i8*
  %73 = getelementptr inbounds i8, i8* %72, i64 %56
  store i8* %73, i8** %10, align 8
  br label %76

74:                                               ; preds = %54
  %75 = tail call i8* @_ZN11dawn_native16CommandAllocator18AllocateInNewBlockEjmm(%"class.dawn_native::CommandAllocator"* %1, i32 -2, i64 %56, i64 4) #8
  br label %76

76:                                               ; preds = %65, %74
  %77 = phi i8* [ %72, %65 ], [ %75, %74 ]
  %78 = bitcast i32* %5 to i8*
  tail call void @llvm.memcpy.p0i8.p0i8.i64(i8* align 4 %77, i8* align 4 %78, i64 %56, i1 false)
  br label %79

79:                                               ; preds = %50, %76
  ret void
}

; Function Attrs: argmemonly nounwind
declare void @llvm.memcpy.p0i8.p0i8.i64(i8* nocapture writeonly, i8* nocapture readonly, i64, i1 immarg) #3

; Function Attrs: nounwind ssp uwtable
define linkonce_odr hidden void @_ZN10RefCountedD2Ev(%class.RefCounted*) unnamed_addr #0 comdat align 2 {
  ret void
}

; Function Attrs: inlinehint nounwind ssp uwtable
define linkonce_odr hidden void @_ZN11dawn_native23ProgrammablePassEncoderD0Ev(%"class.dawn_native::ProgrammablePassEncoder"*) unnamed_addr #4 comdat align 2 {
  %2 = bitcast %"class.dawn_native::ProgrammablePassEncoder"* %0 to i8*
  tail call void @_ZdlPv(i8* %2) #9
  ret void
}

declare void @_ZN10RefCounted10DeleteThisEv(%class.RefCounted*) unnamed_addr #1

declare void @_ZN10RefCounted9ReferenceEv(%class.RefCounted*) local_unnamed_addr #1

declare void @_ZN10RefCounted7ReleaseEv(%class.RefCounted*) local_unnamed_addr #1

; Function Attrs: nobuiltin nounwind
declare void @_ZdlPv(i8*) local_unnamed_addr #5

; Function Attrs: nobuiltin nofree
declare noalias nonnull i8* @_Znwm(i64) local_unnamed_addr #6

; Function Attrs: argmemonly nofree nounwind readonly
declare i64 @strlen(i8* nocapture) local_unnamed_addr #7

; Function Attrs: inlinehint nounwind ssp uwtable
define linkonce_odr hidden zeroext i1 @_ZN11dawn_native15EncodingContext19CheckCurrentEncoderEPKNS_10ObjectBaseE(%"class.dawn_native::EncodingContext"*, %"class.dawn_native::ObjectBase"*) local_unnamed_addr #4 comdat align 2 {
  %3 = alloca %"class.std::__1::basic_string", align 8
  %4 = alloca %"class.std::__1::basic_string", align 8
  %5 = getelementptr inbounds %"class.dawn_native::EncodingContext", %"class.dawn_native::EncodingContext"* %0, i64 0, i32 2
  %6 = load %"class.dawn_native::ObjectBase"*, %"class.dawn_native::ObjectBase"** %5, align 8
  %7 = icmp eq %"class.dawn_native::ObjectBase"* %6, %1
  br i1 %7, label %38, label %8, !prof !9

8:                                                ; preds = %2
  %9 = getelementptr inbounds %"class.dawn_native::EncodingContext", %"class.dawn_native::EncodingContext"* %0, i64 0, i32 1
  %10 = load %"class.dawn_native::ObjectBase"*, %"class.dawn_native::ObjectBase"** %9, align 8
  %11 = icmp eq %"class.dawn_native::ObjectBase"* %6, %10
  br i1 %11, label %25, label %12

12:                                               ; preds = %8
  %13 = tail call i8* @_Znwm(i64 48) #9
  %14 = getelementptr inbounds %"class.std::__1::basic_string", %"class.std::__1::basic_string"* %3, i64 0, i32 0, i32 0, i32 0, i32 0, i32 0, i32 0
  store i8* %13, i8** %14, align 8
  %15 = getelementptr inbounds %"class.std::__1::basic_string", %"class.std::__1::basic_string"* %3, i64 0, i32 0, i32 0, i32 0, i32 0, i32 0, i32 1
  %16 = bitcast i64* %15 to <2 x i64>*
  store <2 x i64> <i64 40, i64 -9223372036854775760>, <2 x i64>* %16, align 8
  tail call void @llvm.memcpy.p0i8.p0i8.i64(i8* nonnull align 1 %13, i8* align 1 getelementptr inbounds ([41 x i8], [41 x i8]* @.str.8, i64 0, i64 0), i64 40, i1 false) #8
  %17 = getelementptr inbounds i8, i8* %13, i64 40
  store i8 0, i8* %17, align 1
  %18 = call %"class.dawn_native::ErrorData"* @_ZN11dawn_native9ErrorData6CreateENS_17InternalErrorTypeENSt3__112basic_stringIcNS2_11char_traitsIcEENS2_9allocatorIcEEEEPKcSA_i(i32 0, %"class.std::__1::basic_string"* nonnull %3, i8* getelementptr inbounds ([57 x i8], [57 x i8]* @.str.9, i64 0, i64 0), i8* getelementptr inbounds ([20 x i8], [20 x i8]* @__func__._ZN11dawn_native15EncodingContext19CheckCurrentEncoderEPKNS_10ObjectBaseE, i64 0, i64 0), i32 56) #8
  call void @_ZN11dawn_native15EncodingContext11HandleErrorENSt3__110unique_ptrINS_9ErrorDataENS1_14default_deleteIS3_EEEE(%"class.dawn_native::EncodingContext"* %0, %"class.dawn_native::ErrorData"* %18) #8
  %19 = bitcast %"class.std::__1::basic_string"* %3 to %"struct.std::__1::basic_string<char, std::__1::char_traits<char>, std::__1::allocator<char> >::__short"*
  %20 = getelementptr inbounds %"struct.std::__1::basic_string<char, std::__1::char_traits<char>, std::__1::allocator<char> >::__short", %"struct.std::__1::basic_string<char, std::__1::char_traits<char>, std::__1::allocator<char> >::__short"* %19, i64 0, i32 1, i32 0
  %21 = load i8, i8* %20, align 1
  %22 = icmp slt i8 %21, 0
  br i1 %22, label %23, label %38

23:                                               ; preds = %12
  %24 = load i8*, i8** %14, align 8
  call void @_ZdlPv(i8* %24) #9
  br label %38

25:                                               ; preds = %8
  %26 = tail call i8* @_Znwm(i64 64) #9
  %27 = getelementptr inbounds %"class.std::__1::basic_string", %"class.std::__1::basic_string"* %4, i64 0, i32 0, i32 0, i32 0, i32 0, i32 0, i32 0
  store i8* %26, i8** %27, align 8
  %28 = getelementptr inbounds %"class.std::__1::basic_string", %"class.std::__1::basic_string"* %4, i64 0, i32 0, i32 0, i32 0, i32 0, i32 0, i32 1
  %29 = bitcast i64* %28 to <2 x i64>*
  store <2 x i64> <i64 51, i64 -9223372036854775744>, <2 x i64>* %29, align 8
  tail call void @llvm.memcpy.p0i8.p0i8.i64(i8* nonnull align 1 %26, i8* align 1 getelementptr inbounds ([52 x i8], [52 x i8]* @.str.10, i64 0, i64 0), i64 51, i1 false) #8
  %30 = getelementptr inbounds i8, i8* %26, i64 51
  store i8 0, i8* %30, align 1
  %31 = call %"class.dawn_native::ErrorData"* @_ZN11dawn_native9ErrorData6CreateENS_17InternalErrorTypeENSt3__112basic_stringIcNS2_11char_traitsIcEENS2_9allocatorIcEEEEPKcSA_i(i32 0, %"class.std::__1::basic_string"* nonnull %4, i8* getelementptr inbounds ([57 x i8], [57 x i8]* @.str.9, i64 0, i64 0), i8* getelementptr inbounds ([20 x i8], [20 x i8]* @__func__._ZN11dawn_native15EncodingContext19CheckCurrentEncoderEPKNS_10ObjectBaseE, i64 0, i64 0), i32 59) #8
  call void @_ZN11dawn_native15EncodingContext11HandleErrorENSt3__110unique_ptrINS_9ErrorDataENS1_14default_deleteIS3_EEEE(%"class.dawn_native::EncodingContext"* %0, %"class.dawn_native::ErrorData"* %31) #8
  %32 = bitcast %"class.std::__1::basic_string"* %4 to %"struct.std::__1::basic_string<char, std::__1::char_traits<char>, std::__1::allocator<char> >::__short"*
  %33 = getelementptr inbounds %"struct.std::__1::basic_string<char, std::__1::char_traits<char>, std::__1::allocator<char> >::__short", %"struct.std::__1::basic_string<char, std::__1::char_traits<char>, std::__1::allocator<char> >::__short"* %32, i64 0, i32 1, i32 0
  %34 = load i8, i8* %33, align 1
  %35 = icmp slt i8 %34, 0
  br i1 %35, label %36, label %38

36:                                               ; preds = %25
  %37 = load i8*, i8** %27, align 8
  call void @_ZdlPv(i8* %37) #9
  br label %38

38:                                               ; preds = %36, %25, %23, %12, %2
  %39 = phi i1 [ true, %2 ], [ false, %12 ], [ false, %23 ], [ false, %25 ], [ false, %36 ]
  ret i1 %39
}

declare void @_ZN11dawn_native15EncodingContext11HandleErrorENSt3__110unique_ptrINS_9ErrorDataENS1_14default_deleteIS3_EEEE(%"class.dawn_native::EncodingContext"*, %"class.dawn_native::ErrorData"*) local_unnamed_addr #1

declare i8* @_ZN11dawn_native16CommandAllocator18AllocateInNewBlockEjmm(%"class.dawn_native::CommandAllocator"*, i32, i64, i64) local_unnamed_addr #1

; Function Attrs: argmemonly nounwind
declare void @llvm.memset.p0i8.i64(i8* nocapture writeonly, i8, i64, i1 immarg) #3

attributes #0 = { nounwind ssp uwtable "correctly-rounded-divide-sqrt-fp-math"="false" "disable-tail-calls"="false" "less-precise-fpmad"="false" "min-legal-vector-width"="0" "no-frame-pointer-elim"="false" "no-frame-pointer-elim-non-leaf" "no-infs-fp-math"="false" "no-jump-tables"="false" "no-nans-fp-math"="false" "no-signed-zeros-fp-math"="false" "no-trapping-math"="false" "null-pointer-is-valid"="true" "stack-protector-buffer-size"="4" "target-cpu"="x86-64" "target-features"="+cx8,+fxsr,+mmx,+sse,+sse2,+sse3,+x87" "unsafe-fp-math"="false" "use-soft-float"="false" }
attributes #1 = { "correctly-rounded-divide-sqrt-fp-math"="false" "disable-tail-calls"="false" "less-precise-fpmad"="false" "no-frame-pointer-elim"="false" "no-frame-pointer-elim-non-leaf" "no-infs-fp-math"="false" "no-nans-fp-math"="false" "no-signed-zeros-fp-math"="false" "no-trapping-math"="false" "null-pointer-is-valid"="true" "stack-protector-buffer-size"="4" "target-cpu"="x86-64" "target-features"="+cx8,+fxsr,+mmx,+sse,+sse2,+sse3,+x87" "unsafe-fp-math"="false" "use-soft-float"="false" }
attributes #2 = { norecurse nounwind readonly ssp uwtable "correctly-rounded-divide-sqrt-fp-math"="false" "disable-tail-calls"="false" "less-precise-fpmad"="false" "min-legal-vector-width"="0" "no-frame-pointer-elim"="false" "no-frame-pointer-elim-non-leaf" "no-infs-fp-math"="false" "no-jump-tables"="false" "no-nans-fp-math"="false" "no-signed-zeros-fp-math"="false" "no-trapping-math"="false" "null-pointer-is-valid"="true" "stack-protector-buffer-size"="4" "target-cpu"="x86-64" "target-features"="+cx8,+fxsr,+mmx,+sse,+sse2,+sse3,+x87" "unsafe-fp-math"="false" "use-soft-float"="false" }
attributes #3 = { argmemonly nounwind }
attributes #4 = { inlinehint nounwind ssp uwtable "correctly-rounded-divide-sqrt-fp-math"="false" "disable-tail-calls"="false" "less-precise-fpmad"="false" "min-legal-vector-width"="0" "no-frame-pointer-elim"="false" "no-frame-pointer-elim-non-leaf" "no-infs-fp-math"="false" "no-jump-tables"="false" "no-nans-fp-math"="false" "no-signed-zeros-fp-math"="false" "no-trapping-math"="false" "null-pointer-is-valid"="true" "stack-protector-buffer-size"="4" "target-cpu"="x86-64" "target-features"="+cx8,+fxsr,+mmx,+sse,+sse2,+sse3,+x87" "unsafe-fp-math"="false" "use-soft-float"="false" }
attributes #5 = { nobuiltin nounwind "correctly-rounded-divide-sqrt-fp-math"="false" "disable-tail-calls"="false" "less-precise-fpmad"="false" "no-frame-pointer-elim"="false" "no-frame-pointer-elim-non-leaf" "no-infs-fp-math"="false" "no-nans-fp-math"="false" "no-signed-zeros-fp-math"="false" "no-trapping-math"="false" "null-pointer-is-valid"="true" "stack-protector-buffer-size"="4" "target-cpu"="x86-64" "target-features"="+cx8,+fxsr,+mmx,+sse,+sse2,+sse3,+x87" "unsafe-fp-math"="false" "use-soft-float"="false" }
attributes #6 = { nobuiltin nofree "correctly-rounded-divide-sqrt-fp-math"="false" "disable-tail-calls"="false" "less-precise-fpmad"="false" "no-frame-pointer-elim"="false" "no-frame-pointer-elim-non-leaf" "no-infs-fp-math"="false" "no-nans-fp-math"="false" "no-signed-zeros-fp-math"="false" "no-trapping-math"="false" "null-pointer-is-valid"="true" "stack-protector-buffer-size"="4" "target-cpu"="x86-64" "target-features"="+cx8,+fxsr,+mmx,+sse,+sse2,+sse3,+x87" "unsafe-fp-math"="false" "use-soft-float"="false" }
attributes #7 = { argmemonly nofree nounwind readonly "correctly-rounded-divide-sqrt-fp-math"="false" "disable-tail-calls"="false" "less-precise-fpmad"="false" "no-frame-pointer-elim"="false" "no-frame-pointer-elim-non-leaf" "no-infs-fp-math"="false" "no-nans-fp-math"="false" "no-signed-zeros-fp-math"="false" "no-trapping-math"="false" "null-pointer-is-valid"="true" "stack-protector-buffer-size"="4" "target-cpu"="x86-64" "target-features"="+cx8,+fxsr,+mmx,+sse,+sse2,+sse3,+x87" "unsafe-fp-math"="false" "use-soft-float"="false" }
attributes #8 = { nounwind }
attributes #9 = { builtin nounwind }
attributes #10 = { nounwind readonly }

!llvm.module.flags = !{!0, !1}

!0 = !{i32 1, !"wchar_size", i32 4}
!1 = !{i32 7, !"PIC Level", i32 2}
!2 = !{i8 0, i8 2}
!3 = !{!4}
!4 = distinct !{!4, !5, !"_ZZN11dawn_native23ProgrammablePassEncoder20APIInsertDebugMarkerEPKcENK3$_0clEPNS_16CommandAllocatorE: argument 0"}
!5 = distinct !{!5, !"_ZZN11dawn_native23ProgrammablePassEncoder20APIInsertDebugMarkerEPKcENK3$_0clEPNS_16CommandAllocatorE"}
!6 = !{!7}
!7 = distinct !{!7, !8, !"_ZZN11dawn_native23ProgrammablePassEncoder16APIPopDebugGroupEvENK3$_1clEPNS_16CommandAllocatorE: argument 0"}
!8 = distinct !{!8, !"_ZZN11dawn_native23ProgrammablePassEncoder16APIPopDebugGroupEvENK3$_1clEPNS_16CommandAllocatorE"}
!9 = !{!"branch_weights", i32 2000, i32 1}
!10 = !{!11}
!11 = distinct !{!11, !12, !"_ZZN11dawn_native23ProgrammablePassEncoder17APIPushDebugGroupEPKcENK3$_2clEPNS_16CommandAllocatorE: argument 0"}
!12 = distinct !{!12, !"_ZZN11dawn_native23ProgrammablePassEncoder17APIPushDebugGroupEPKcENK3$_2clEPNS_16CommandAllocatorE"}
