; ModuleID = '../../third_party/blink/renderer/core/streams/promise_handler.cc'
source_filename = "../../third_party/blink/renderer/core/streams/promise_handler.cc"
target datalayout = "e-m:e-i64:64-f80:128-n8:16:32:64-S128"
target triple = "x86_64-unknown-linux-gnu"

module asm ".symver exp, exp@GLIBC_2.2.5"
module asm ".symver exp2, exp2@GLIBC_2.2.5"
module asm ".symver exp2f, exp2f@GLIBC_2.2.5"
module asm ".symver expf, expf@GLIBC_2.2.5"
module asm ".symver lgamma, lgamma@GLIBC_2.2.5"
module asm ".symver lgammaf, lgammaf@GLIBC_2.2.5"
module asm ".symver lgammal, lgammal@GLIBC_2.2.5"
module asm ".symver log, log@GLIBC_2.2.5"
module asm ".symver log2, log2@GLIBC_2.2.5"
module asm ".symver log2f, log2f@GLIBC_2.2.5"
module asm ".symver logf, logf@GLIBC_2.2.5"
module asm ".symver pow, pow@GLIBC_2.2.5"
module asm ".symver powf, powf@GLIBC_2.2.5"

%"class.std::__1::locale::id" = type <{ %"struct.std::__1::once_flag", i32, [4 x i8] }>
%"struct.std::__1::once_flag" = type { i64 }
%"class.blink::PromiseHandler" = type { %"class.blink::PromiseHandlerBase" }
%"class.blink::PromiseHandlerBase" = type { %"class.blink::ScriptFunction" }
%"class.blink::ScriptFunction" = type { %"class.blink::CustomWrappableAdapter", %"class.blink::Member" }
%"class.blink::CustomWrappableAdapter" = type { %"class.blink::CustomWrappable", %"class.blink::TraceWrapperV8Reference" }
%"class.blink::CustomWrappable" = type { %"class.blink::NameClient" }
%"class.blink::NameClient" = type { i32 (...)** }
%"class.blink::TraceWrapperV8Reference" = type { %"class.v8::TracedReference" }
%"class.v8::TracedReference" = type { %"class.v8::BasicTracedReference" }
%"class.v8::BasicTracedReference" = type { %"class.v8::TracedReferenceBase" }
%"class.v8::TracedReferenceBase" = type { i64* }
%"class.blink::Member" = type { %"class.blink::MemberBase" }
%"class.blink::MemberBase" = type { %"class.blink::ScriptState"* }
%"class.blink::ScriptState" = type { %"class.v8::Isolate"*, %"class.blink::ScopedPersistent", %class.scoped_refptr, %"class.blink::Member.169", %"class.blink::SelfKeepAlive", %"class.util::TokenType" }
%"class.v8::Isolate" = type { i8 }
%"class.blink::ScopedPersistent" = type { %"class.v8::Persistent" }
%"class.v8::Persistent" = type { %"class.v8::PersistentBase" }
%"class.v8::PersistentBase" = type { %"class.v8::Context"* }
%"class.v8::Context" = type { i8 }
%class.scoped_refptr = type { %"class.blink::DOMWrapperWorld"* }
%"class.blink::DOMWrapperWorld" = type { %"class.WTF::RefCounted", i32, i32, %"class.blink::Persistent" }
%"class.WTF::RefCounted" = type { %"class.base::RefCounted" }
%"class.base::RefCounted" = type { %"class.base::subtle::RefCountedBase" }
%"class.base::subtle::RefCountedBase" = type { i32 }
%"class.blink::Persistent" = type { %"class.blink::PersistentBase" }
%"class.blink::PersistentBase" = type { %"class.blink::DOMDataStore"*, %"class.blink::PersistentNodePtr" }
%"class.blink::DOMDataStore" = type opaque
%"class.blink::PersistentNodePtr" = type { %"class.blink::PersistentNode"* }
%"class.blink::PersistentNode" = type { i8*, void (%"class.blink::Visitor"*, i8*)* }
%"class.blink::Visitor" = type { i32 (...)**, %"class.blink::ThreadState"* }
%"class.blink::ThreadState" = type <{ %"class.std::__1::unique_ptr", i32, [4 x i8], %"class.std::__1::unique_ptr.124", %"class.std::__1::unique_ptr.124", i8**, i8, i8, i8, i8, i8, i8, [2 x i8], i64, i64, i32, i32, i32, [4 x i8], %"class.WTF::Deque", %"class.v8::Isolate"*, void (%"class.v8::Isolate"*, %"class.v8::EmbedderGraph"*, i8*)*, %"class.std::__1::unique_ptr.134", %"class.std::__1::unique_ptr.140", %"struct.blink::ThreadState::GCData", %"class.std::__1::unique_ptr.152", %"class.std::__1::unique_ptr.158", %"class.base::JobHandle", %"class.base::JobHandle", %"struct.std::__1::atomic.165", [7 x i8], i64, i8, [7 x i8], i64, %"class.base::TimeTicks", i8, i8, [6 x i8] }>
%"class.std::__1::unique_ptr" = type { %"class.std::__1::__compressed_pair" }
%"class.std::__1::__compressed_pair" = type { %"struct.std::__1::__compressed_pair_elem" }
%"struct.std::__1::__compressed_pair_elem" = type { %"class.blink::ThreadHeap"* }
%"class.blink::ThreadHeap" = type { %"class.blink::ThreadState"*, %"class.std::__1::unique_ptr.2", %"class.std::__1::unique_ptr.6", %"class.std::__1::unique_ptr.12", %"class.std::__1::unique_ptr.18", %"class.std::__1::unique_ptr.24", %"class.std::__1::unique_ptr.30", %"class.std::__1::unique_ptr.37", %"class.std::__1::unique_ptr.44", %"class.std::__1::unique_ptr.44", %"class.std::__1::unique_ptr.51", %"class.std::__1::unique_ptr.58", %"class.std::__1::unique_ptr.65", %"class.std::__1::unique_ptr.65", %"class.std::__1::unique_ptr.72", %"class.std::__1::unique_ptr.79", %"class.std::__1::unique_ptr.86", %"class.std::__1::unique_ptr.109", %"struct.blink::ThreadHeap::LastAllocatedRegion", [9 x %"class.blink::BaseArena"*], i64, i64 }
%"class.std::__1::unique_ptr.2" = type { %"class.std::__1::__compressed_pair.3" }
%"class.std::__1::__compressed_pair.3" = type { %"struct.std::__1::__compressed_pair_elem.4" }
%"struct.std::__1::__compressed_pair_elem.4" = type { %"class.blink::ThreadHeapStatsCollector"* }
%"class.blink::ThreadHeapStatsCollector" = type opaque
%"class.std::__1::unique_ptr.6" = type { %"class.std::__1::__compressed_pair.7" }
%"class.std::__1::__compressed_pair.7" = type { %"struct.std::__1::__compressed_pair_elem.8" }
%"struct.std::__1::__compressed_pair_elem.8" = type { %"class.blink::RegionTree"* }
%"class.blink::RegionTree" = type opaque
%"class.std::__1::unique_ptr.12" = type { %"class.std::__1::__compressed_pair.13" }
%"class.std::__1::__compressed_pair.13" = type { %"struct.std::__1::__compressed_pair_elem.14" }
%"struct.std::__1::__compressed_pair_elem.14" = type { %"class.blink::PageBloomFilter"* }
%"class.blink::PageBloomFilter" = type opaque
%"class.std::__1::unique_ptr.18" = type { %"class.std::__1::__compressed_pair.19" }
%"class.std::__1::__compressed_pair.19" = type { %"struct.std::__1::__compressed_pair_elem.20" }
%"struct.std::__1::__compressed_pair_elem.20" = type { %"class.blink::PagePool"* }
%"class.blink::PagePool" = type opaque
%"class.std::__1::unique_ptr.24" = type { %"class.std::__1::__compressed_pair.25" }
%"class.std::__1::__compressed_pair.25" = type { %"struct.std::__1::__compressed_pair_elem.26" }
%"struct.std::__1::__compressed_pair_elem.26" = type { %"class.blink::ProcessHeapReporter"* }
%"class.blink::ProcessHeapReporter" = type opaque
%"class.std::__1::unique_ptr.30" = type { %"class.std::__1::__compressed_pair.31" }
%"class.std::__1::__compressed_pair.31" = type { %"struct.std::__1::__compressed_pair_elem.32" }
%"struct.std::__1::__compressed_pair_elem.32" = type { %"class.blink::Worklist"* }
%"class.blink::Worklist" = type { [4 x %"struct.blink::Worklist<blink::TraceDescriptor, 512, 4>::PrivateSegmentHolder"], %"class.blink::Worklist<blink::TraceDescriptor, 512, 4>::GlobalPool" }
%"struct.blink::Worklist<blink::TraceDescriptor, 512, 4>::PrivateSegmentHolder" = type { %"class.blink::Worklist<blink::TraceDescriptor, 512, 4>::Segment"*, %"class.blink::Worklist<blink::TraceDescriptor, 512, 4>::Segment"*, [64 x i8] }
%"class.blink::Worklist<blink::TraceDescriptor, 512, 4>::Segment" = type { %"class.blink::Worklist<blink::TraceDescriptor, 512, 4>::Segment"*, i64, [512 x %"struct.blink::TraceDescriptor"] }
%"struct.blink::TraceDescriptor" = type { i8*, void (%"class.blink::Visitor"*, i8*)* }
%"class.blink::Worklist<blink::TraceDescriptor, 512, 4>::GlobalPool" = type { %"class.base::Lock", %"class.blink::Worklist<blink::TraceDescriptor, 512, 4>::Segment"*, %"struct.std::__1::atomic" }
%"class.base::Lock" = type { %"class.base::internal::LockImpl" }
%"class.base::internal::LockImpl" = type { %union.pthread_mutex_t }
%union.pthread_mutex_t = type { %struct.__pthread_mutex_s }
%struct.__pthread_mutex_s = type { i32, i32, i32, i32, i32, i16, i16, %struct.__pthread_internal_list }
%struct.__pthread_internal_list = type { %struct.__pthread_internal_list*, %struct.__pthread_internal_list* }
%"struct.std::__1::atomic" = type { %"struct.std::__1::__atomic_base" }
%"struct.std::__1::__atomic_base" = type { %"struct.std::__1::__atomic_base.33" }
%"struct.std::__1::__atomic_base.33" = type { %"struct.std::__1::__cxx_atomic_impl" }
%"struct.std::__1::__cxx_atomic_impl" = type { %"struct.std::__1::__cxx_atomic_base_impl" }
%"struct.std::__1::__cxx_atomic_base_impl" = type { i64 }
%"class.std::__1::unique_ptr.37" = type { %"class.std::__1::__compressed_pair.38" }
%"class.std::__1::__compressed_pair.38" = type { %"struct.std::__1::__compressed_pair_elem.39" }
%"struct.std::__1::__compressed_pair_elem.39" = type { %"class.blink::Worklist.40"* }
%"class.blink::Worklist.40" = type { [4 x %"struct.blink::Worklist<blink::HeapObjectHeader *, 64, 4>::PrivateSegmentHolder"], %"class.blink::Worklist<blink::HeapObjectHeader *, 64, 4>::GlobalPool" }
%"struct.blink::Worklist<blink::HeapObjectHeader *, 64, 4>::PrivateSegmentHolder" = type { %"class.blink::Worklist<blink::HeapObjectHeader *, 64, 4>::Segment"*, %"class.blink::Worklist<blink::HeapObjectHeader *, 64, 4>::Segment"*, [64 x i8] }
%"class.blink::Worklist<blink::HeapObjectHeader *, 64, 4>::Segment" = type opaque
%"class.blink::Worklist<blink::HeapObjectHeader *, 64, 4>::GlobalPool" = type { %"class.base::Lock", %"class.blink::Worklist<blink::HeapObjectHeader *, 64, 4>::Segment"*, %"struct.std::__1::atomic" }
%"class.std::__1::unique_ptr.44" = type { %"class.std::__1::__compressed_pair.45" }
%"class.std::__1::__compressed_pair.45" = type { %"struct.std::__1::__compressed_pair_elem.46" }
%"struct.std::__1::__compressed_pair_elem.46" = type { %"class.blink::Worklist.47"* }
%"class.blink::Worklist.47" = type { [4 x %"struct.blink::Worklist<const void *, 16, 4>::PrivateSegmentHolder"], %"class.blink::Worklist<const void *, 16, 4>::GlobalPool" }
%"struct.blink::Worklist<const void *, 16, 4>::PrivateSegmentHolder" = type { %"class.blink::Worklist<const void *, 16, 4>::Segment"*, %"class.blink::Worklist<const void *, 16, 4>::Segment"*, [64 x i8] }
%"class.blink::Worklist<const void *, 16, 4>::Segment" = type { %"class.blink::Worklist<const void *, 16, 4>::Segment"*, i64, [16 x i8*] }
%"class.blink::Worklist<const void *, 16, 4>::GlobalPool" = type { %"class.base::Lock", %"class.blink::Worklist<const void *, 16, 4>::Segment"*, %"struct.std::__1::atomic" }
%"class.std::__1::unique_ptr.51" = type { %"class.std::__1::__compressed_pair.52" }
%"class.std::__1::__compressed_pair.52" = type { %"struct.std::__1::__compressed_pair_elem.53" }
%"struct.std::__1::__compressed_pair_elem.53" = type { %"class.blink::Worklist.54"* }
%"class.blink::Worklist.54" = type { [4 x %"struct.blink::Worklist<blink::CustomCallbackItem, 64, 4>::PrivateSegmentHolder"], %"class.blink::Worklist<blink::CustomCallbackItem, 64, 4>::GlobalPool" }
%"struct.blink::Worklist<blink::CustomCallbackItem, 64, 4>::PrivateSegmentHolder" = type { %"class.blink::Worklist<blink::CustomCallbackItem, 64, 4>::Segment"*, %"class.blink::Worklist<blink::CustomCallbackItem, 64, 4>::Segment"*, [64 x i8] }
%"class.blink::Worklist<blink::CustomCallbackItem, 64, 4>::Segment" = type opaque
%"class.blink::Worklist<blink::CustomCallbackItem, 64, 4>::GlobalPool" = type { %"class.base::Lock", %"class.blink::Worklist<blink::CustomCallbackItem, 64, 4>::Segment"*, %"struct.std::__1::atomic" }
%"class.std::__1::unique_ptr.58" = type { %"class.std::__1::__compressed_pair.59" }
%"class.std::__1::__compressed_pair.59" = type { %"struct.std::__1::__compressed_pair_elem.60" }
%"struct.std::__1::__compressed_pair_elem.60" = type { %"class.blink::Worklist.61"* }
%"class.blink::Worklist.61" = type { [4 x %"struct.blink::Worklist<const void *const *, 256, 4>::PrivateSegmentHolder"], %"class.blink::Worklist<const void *const *, 256, 4>::GlobalPool" }
%"struct.blink::Worklist<const void *const *, 256, 4>::PrivateSegmentHolder" = type { %"class.blink::Worklist<const void *const *, 256, 4>::Segment"*, %"class.blink::Worklist<const void *const *, 256, 4>::Segment"*, [64 x i8] }
%"class.blink::Worklist<const void *const *, 256, 4>::Segment" = type opaque
%"class.blink::Worklist<const void *const *, 256, 4>::GlobalPool" = type { %"class.base::Lock", %"class.blink::Worklist<const void *const *, 256, 4>::Segment"*, %"struct.std::__1::atomic" }
%"class.std::__1::unique_ptr.65" = type { %"class.std::__1::__compressed_pair.66" }
%"class.std::__1::__compressed_pair.66" = type { %"struct.std::__1::__compressed_pair_elem.67" }
%"struct.std::__1::__compressed_pair_elem.67" = type { %"class.blink::Worklist.68"* }
%"class.blink::Worklist.68" = type { [4 x %"struct.blink::Worklist<blink::EphemeronPairItem, 64, 4>::PrivateSegmentHolder"], %"class.blink::Worklist<blink::EphemeronPairItem, 64, 4>::GlobalPool" }
%"struct.blink::Worklist<blink::EphemeronPairItem, 64, 4>::PrivateSegmentHolder" = type { %"class.blink::Worklist<blink::EphemeronPairItem, 64, 4>::Segment"*, %"class.blink::Worklist<blink::EphemeronPairItem, 64, 4>::Segment"*, [64 x i8] }
%"class.blink::Worklist<blink::EphemeronPairItem, 64, 4>::Segment" = type opaque
%"class.blink::Worklist<blink::EphemeronPairItem, 64, 4>::GlobalPool" = type { %"class.base::Lock", %"class.blink::Worklist<blink::EphemeronPairItem, 64, 4>::Segment"*, %"struct.std::__1::atomic" }
%"class.std::__1::unique_ptr.72" = type { %"class.std::__1::__compressed_pair.73" }
%"class.std::__1::__compressed_pair.73" = type { %"struct.std::__1::__compressed_pair_elem.74" }
%"struct.std::__1::__compressed_pair_elem.74" = type { %"class.blink::Worklist.75"* }
%"class.blink::Worklist.75" = type { [4 x %"struct.blink::Worklist<const blink::TraceWrapperV8Reference<v8::Value> *, 16, 4>::PrivateSegmentHolder"], %"class.blink::Worklist<const blink::TraceWrapperV8Reference<v8::Value> *, 16, 4>::GlobalPool" }
%"struct.blink::Worklist<const blink::TraceWrapperV8Reference<v8::Value> *, 16, 4>::PrivateSegmentHolder" = type { %"class.blink::Worklist<const blink::TraceWrapperV8Reference<v8::Value> *, 16, 4>::Segment"*, %"class.blink::Worklist<const blink::TraceWrapperV8Reference<v8::Value> *, 16, 4>::Segment"*, [64 x i8] }
%"class.blink::Worklist<const blink::TraceWrapperV8Reference<v8::Value> *, 16, 4>::Segment" = type opaque
%"class.blink::Worklist<const blink::TraceWrapperV8Reference<v8::Value> *, 16, 4>::GlobalPool" = type { %"class.base::Lock", %"class.blink::Worklist<const blink::TraceWrapperV8Reference<v8::Value> *, 16, 4>::Segment"*, %"struct.std::__1::atomic" }
%"class.std::__1::unique_ptr.79" = type { %"class.std::__1::__compressed_pair.80" }
%"class.std::__1::__compressed_pair.80" = type { %"struct.std::__1::__compressed_pair_elem.81" }
%"struct.std::__1::__compressed_pair_elem.81" = type { %"class.blink::Worklist.82"* }
%"class.blink::Worklist.82" = type { [4 x %"struct.blink::Worklist<blink::NotSafeToConcurrentlyTraceItem, 64, 4>::PrivateSegmentHolder"], %"class.blink::Worklist<blink::NotSafeToConcurrentlyTraceItem, 64, 4>::GlobalPool" }
%"struct.blink::Worklist<blink::NotSafeToConcurrentlyTraceItem, 64, 4>::PrivateSegmentHolder" = type { %"class.blink::Worklist<blink::NotSafeToConcurrentlyTraceItem, 64, 4>::Segment"*, %"class.blink::Worklist<blink::NotSafeToConcurrentlyTraceItem, 64, 4>::Segment"*, [64 x i8] }
%"class.blink::Worklist<blink::NotSafeToConcurrentlyTraceItem, 64, 4>::Segment" = type { %"class.blink::Worklist<blink::NotSafeToConcurrentlyTraceItem, 64, 4>::Segment"*, i64, [64 x %"struct.blink::NotSafeToConcurrentlyTraceItem"] }
%"struct.blink::NotSafeToConcurrentlyTraceItem" = type { %"struct.blink::TraceDescriptor", i64 }
%"class.blink::Worklist<blink::NotSafeToConcurrentlyTraceItem, 64, 4>::GlobalPool" = type { %"class.base::Lock", %"class.blink::Worklist<blink::NotSafeToConcurrentlyTraceItem, 64, 4>::Segment"*, %"struct.std::__1::atomic" }
%"class.std::__1::unique_ptr.86" = type { %"class.std::__1::__compressed_pair.87" }
%"class.std::__1::__compressed_pair.87" = type { %"struct.std::__1::__compressed_pair_elem.88" }
%"struct.std::__1::__compressed_pair_elem.88" = type { %"class.blink::WeakContainersWorklist"* }
%"class.blink::WeakContainersWorklist" = type { %"class.WTF::Mutex", %"class.std::__1::unordered_set" }
%"class.WTF::Mutex" = type { %"class.WTF::MutexBase" }
%"class.WTF::MutexBase" = type { %"struct.WTF::PlatformMutex" }
%"struct.WTF::PlatformMutex" = type { %union.pthread_mutex_t }
%"class.std::__1::unordered_set" = type { %"class.std::__1::__hash_table" }
%"class.std::__1::__hash_table" = type <{ %"class.std::__1::unique_ptr.89", %"class.std::__1::__compressed_pair.96", %"class.std::__1::__compressed_pair.101", %"class.std::__1::__compressed_pair.103", [4 x i8] }>
%"class.std::__1::unique_ptr.89" = type { %"class.std::__1::__compressed_pair.90" }
%"class.std::__1::__compressed_pair.90" = type { %"struct.std::__1::__compressed_pair_elem.91", %"struct.std::__1::__compressed_pair_elem.92" }
%"struct.std::__1::__compressed_pair_elem.91" = type { %"struct.std::__1::__hash_node_base"** }
%"struct.std::__1::__hash_node_base" = type { %"struct.std::__1::__hash_node_base"* }
%"struct.std::__1::__compressed_pair_elem.92" = type { %"class.std::__1::__bucket_list_deallocator" }
%"class.std::__1::__bucket_list_deallocator" = type { %"class.std::__1::__compressed_pair.93" }
%"class.std::__1::__compressed_pair.93" = type { %"struct.std::__1::__compressed_pair_elem.94" }
%"struct.std::__1::__compressed_pair_elem.94" = type { i64 }
%"class.std::__1::__compressed_pair.96" = type { %"struct.std::__1::__compressed_pair_elem.97" }
%"struct.std::__1::__compressed_pair_elem.97" = type { %"struct.std::__1::__hash_node_base" }
%"class.std::__1::__compressed_pair.101" = type { %"struct.std::__1::__compressed_pair_elem.94" }
%"class.std::__1::__compressed_pair.103" = type { %"struct.std::__1::__compressed_pair_elem.104" }
%"struct.std::__1::__compressed_pair_elem.104" = type { float }
%"class.std::__1::unique_ptr.109" = type { %"class.std::__1::__compressed_pair.110" }
%"class.std::__1::__compressed_pair.110" = type { %"struct.std::__1::__compressed_pair_elem.111" }
%"struct.std::__1::__compressed_pair_elem.111" = type { %"class.blink::HeapCompact"* }
%"class.blink::HeapCompact" = type <{ %"class.blink::ThreadHeap"*, %"class.std::__1::unique_ptr.112", i8, [7 x i8], i64, i64, i32, [4 x i8], i64, i8, [7 x i8] }>
%"class.std::__1::unique_ptr.112" = type { %"class.std::__1::__compressed_pair.113" }
%"class.std::__1::__compressed_pair.113" = type { %"struct.std::__1::__compressed_pair_elem.114" }
%"struct.std::__1::__compressed_pair_elem.114" = type { %"class.blink::HeapCompact::MovableObjectFixups"* }
%"class.blink::HeapCompact::MovableObjectFixups" = type opaque
%"struct.blink::ThreadHeap::LastAllocatedRegion" = type { i8*, i64 }
%"class.blink::BaseArena" = type <{ i32 (...)**, %"class.blink::PageStackThreadSafe", %"class.blink::PageStackThreadSafe", %"class.blink::PageStackThreadSafe", %"class.blink::PageStackThreadSafe", %"class.blink::ThreadState"*, i32, [4 x i8] }>
%"class.blink::PageStackThreadSafe" = type { %"class.blink::PageStack", %"class.WTF::Mutex" }
%"class.blink::PageStack" = type { %"class.WTF::Vector" }
%"class.WTF::Vector" = type { %"class.WTF::VectorBuffer" }
%"class.WTF::VectorBuffer" = type { %"class.WTF::VectorBufferBase" }
%"class.WTF::VectorBufferBase" = type { %"class.blink::BasePage"**, i32, i32 }
%"class.blink::BasePage" = type <{ i32 (...)**, %"class.blink::PageMemory"*, %"class.blink::BaseArena"*, %"class.blink::ThreadState"*, i64, i8, i8, i8, [5 x i8] }>
%"class.blink::PageMemory" = type opaque
%"class.std::__1::unique_ptr.124" = type { %"class.std::__1::__compressed_pair.125" }
%"class.std::__1::__compressed_pair.125" = type { %"struct.std::__1::__compressed_pair_elem.126" }
%"struct.std::__1::__compressed_pair_elem.126" = type { %"class.blink::PersistentRegion"* }
%"class.blink::PersistentRegion" = type { %"class.blink::PersistentRegionBase" }
%"class.blink::PersistentRegionBase" = type { %"class.blink::PersistentNode"*, %"struct.blink::PersistentNodeSlots"* }
%"struct.blink::PersistentNodeSlots" = type { %"struct.blink::PersistentNodeSlots"*, [256 x %"class.blink::PersistentNode"] }
%"class.WTF::Deque" = type { %"class.WTF::Deque<std::__1::pair<void *, bool (*)(const blink::LivenessBroker &, void *)>, 0, WTF::PartitionAllocator>::BackingBuffer", i32, i32 }
%"class.WTF::Deque<std::__1::pair<void *, bool (*)(const blink::LivenessBroker &, void *)>, 0, WTF::PartitionAllocator>::BackingBuffer" = type { %"class.WTF::VectorBuffer.132" }
%"class.WTF::VectorBuffer.132" = type { %"class.WTF::VectorBufferBase.133" }
%"class.WTF::VectorBufferBase.133" = type { %"struct.std::__1::pair"*, i32, i32 }
%"struct.std::__1::pair" = type { i8*, i1 (%"class.blink::LivenessBroker"*, i8*)* }
%"class.blink::LivenessBroker" = type { i8 }
%"class.v8::EmbedderGraph" = type opaque
%"class.std::__1::unique_ptr.134" = type { %"class.std::__1::__compressed_pair.135" }
%"class.std::__1::__compressed_pair.135" = type { %"struct.std::__1::__compressed_pair_elem.136" }
%"struct.std::__1::__compressed_pair_elem.136" = type { %"class.blink::UnifiedHeapController"* }
%"class.blink::UnifiedHeapController" = type opaque
%"class.std::__1::unique_ptr.140" = type { %"class.std::__1::__compressed_pair.141" }
%"class.std::__1::__compressed_pair.141" = type { %"struct.std::__1::__compressed_pair_elem.142" }
%"struct.std::__1::__compressed_pair_elem.142" = type { %"class.v8::EmbedderRootsHandler"* }
%"class.v8::EmbedderRootsHandler" = type { i32 (...)** }
%"struct.blink::ThreadState::GCData" = type { i32, i32, i32, i32, %"class.std::__1::unique_ptr.146" }
%"class.std::__1::unique_ptr.146" = type { %"class.std::__1::__compressed_pair.147" }
%"class.std::__1::__compressed_pair.147" = type { %"struct.std::__1::__compressed_pair_elem.148" }
%"struct.std::__1::__compressed_pair_elem.148" = type { %"class.blink::MarkingVisitor"* }
%"class.blink::MarkingVisitor" = type { %"class.blink::MarkingVisitorBase", %"class.blink::MarkingVisitor::RecentlyRetracedWeakContainers" }
%"class.blink::MarkingVisitorBase" = type { %"class.blink::Visitor", %"class.blink::Worklist<blink::TraceDescriptor, 512, 4>::View", %"class.blink::Worklist<blink::HeapObjectHeader *, 64, 4>::View", %"class.blink::Worklist<const void *, 16, 4>::View", %"class.blink::Worklist<blink::CustomCallbackItem, 64, 4>::View", %"class.blink::Worklist<const void *const *, 256, 4>::View", %"class.blink::Worklist<blink::EphemeronPairItem, 64, 4>::View", %"class.blink::Worklist<blink::EphemeronPairItem, 64, 4>::View", %"class.blink::WeakContainersWorklist"*, i64, i32, i32 }
%"class.blink::Worklist<blink::TraceDescriptor, 512, 4>::View" = type <{ %"class.blink::Worklist"*, i32, [4 x i8] }>
%"class.blink::Worklist<blink::HeapObjectHeader *, 64, 4>::View" = type <{ %"class.blink::Worklist.40"*, i32, [4 x i8] }>
%"class.blink::Worklist<const void *, 16, 4>::View" = type <{ %"class.blink::Worklist.47"*, i32, [4 x i8] }>
%"class.blink::Worklist<blink::CustomCallbackItem, 64, 4>::View" = type <{ %"class.blink::Worklist.54"*, i32, [4 x i8] }>
%"class.blink::Worklist<const void *const *, 256, 4>::View" = type <{ %"class.blink::Worklist.61"*, i32, [4 x i8] }>
%"class.blink::Worklist<blink::EphemeronPairItem, 64, 4>::View" = type <{ %"class.blink::Worklist.68"*, i32, [4 x i8] }>
%"class.blink::MarkingVisitor::RecentlyRetracedWeakContainers" = type { %"class.std::__1::vector", i64 }
%"class.std::__1::vector" = type { %"class.std::__1::__vector_base" }
%"class.std::__1::__vector_base" = type { %"class.blink::HeapObjectHeader"**, %"class.blink::HeapObjectHeader"**, %"class.std::__1::__compressed_pair.173" }
%"class.blink::HeapObjectHeader" = type { i32, i16, i16 }
%"class.std::__1::__compressed_pair.173" = type { %"struct.std::__1::__compressed_pair_elem.174" }
%"struct.std::__1::__compressed_pair_elem.174" = type { %"class.blink::HeapObjectHeader"** }
%"class.std::__1::unique_ptr.152" = type { %"class.std::__1::__compressed_pair.153" }
%"class.std::__1::__compressed_pair.153" = type { %"struct.std::__1::__compressed_pair_elem.154" }
%"struct.std::__1::__compressed_pair_elem.154" = type { %"class.blink::ThreadState::IncrementalMarkingScheduler"* }
%"class.blink::ThreadState::IncrementalMarkingScheduler" = type opaque
%"class.std::__1::unique_ptr.158" = type { %"class.std::__1::__compressed_pair.159" }
%"class.std::__1::__compressed_pair.159" = type { %"struct.std::__1::__compressed_pair_elem.160" }
%"struct.std::__1::__compressed_pair_elem.160" = type { %"class.blink::MarkingSchedulingOracle"* }
%"class.blink::MarkingSchedulingOracle" = type opaque
%"class.base::JobHandle" = type { %class.scoped_refptr.164 }
%class.scoped_refptr.164 = type { %"class.base::internal::JobTaskSource"* }
%"class.base::internal::JobTaskSource" = type opaque
%"struct.std::__1::atomic.165" = type { %"struct.std::__1::__atomic_base.166" }
%"struct.std::__1::__atomic_base.166" = type { %"struct.std::__1::__cxx_atomic_impl.167" }
%"struct.std::__1::__cxx_atomic_impl.167" = type { %"struct.std::__1::__cxx_atomic_base_impl.168" }
%"struct.std::__1::__cxx_atomic_base_impl.168" = type { i8 }
%"class.base::TimeTicks" = type { %"class.base::time_internal::TimeBase" }
%"class.base::time_internal::TimeBase" = type { i64 }
%"class.blink::Member.169" = type { %"class.blink::MemberBase.170" }
%"class.blink::MemberBase.170" = type { %"class.blink::V8PerContextData"* }
%"class.blink::V8PerContextData" = type opaque
%"class.blink::SelfKeepAlive" = type { %"class.blink::Persistent.171" }
%"class.blink::Persistent.171" = type { %"class.blink::PersistentBase.172" }
%"class.blink::PersistentBase.172" = type { %"class.blink::ScriptState"*, %"class.blink::PersistentNodePtr" }
%"class.util::TokenType" = type { %"class.base::StrongAlias" }
%"class.base::StrongAlias" = type { %"class.base::UnguessableToken" }
%"class.base::UnguessableToken" = type { %"class.base::Token" }
%"class.base::Token" = type { i64, i64 }
%"class.v8::FunctionCallbackInfo" = type <{ i64*, i64*, i32, [4 x i8] }>
%"class.v8::Value" = type { i8 }
%"class.blink::PromiseHandlerWithValue" = type { %"class.blink::PromiseHandlerBase" }
%"class.v8::Promise" = type { i8 }
%"class.v8::Function" = type { i8 }
%"class.logging::LogMessage" = type { i32 (...)**, i32, %"class.std::__1::basic_ostringstream", i64, i8*, i32, %"class.base::ScopedClearLastErrorBase" }
%"class.std::__1::basic_ostringstream" = type { %"class.std::__1::basic_ostream.base", %"class.std::__1::basic_stringbuf", %"class.std::__1::basic_ios.base" }
%"class.std::__1::basic_ostream.base" = type { i32 (...)** }
%"class.std::__1::basic_stringbuf" = type <{ %"class.std::__1::basic_streambuf", %"class.std::__1::basic_string", i8*, i32, [4 x i8] }>
%"class.std::__1::basic_streambuf" = type { i32 (...)**, %"class.std::__1::locale", i8*, i8*, i8*, i8*, i8*, i8* }
%"class.std::__1::locale" = type { %"class.std::__1::locale::__imp"* }
%"class.std::__1::locale::__imp" = type opaque
%"class.std::__1::basic_string" = type { %"class.std::__1::__compressed_pair.188" }
%"class.std::__1::__compressed_pair.188" = type { %"struct.std::__1::__compressed_pair_elem.189" }
%"struct.std::__1::__compressed_pair_elem.189" = type { %"struct.std::__1::basic_string<char, std::__1::char_traits<char>, std::__1::allocator<char> >::__rep" }
%"struct.std::__1::basic_string<char, std::__1::char_traits<char>, std::__1::allocator<char> >::__rep" = type { %union.anon }
%union.anon = type { %"struct.std::__1::basic_string<char, std::__1::char_traits<char>, std::__1::allocator<char> >::__long" }
%"struct.std::__1::basic_string<char, std::__1::char_traits<char>, std::__1::allocator<char> >::__long" = type { i8*, i64, i64 }
%"class.std::__1::basic_ios.base" = type <{ %"class.std::__1::ios_base", %"class.std::__1::basic_ostream"*, i32 }>
%"class.std::__1::ios_base" = type { i32 (...)**, i32, i64, i64, i32, i32, i8*, i8*, void (i32, %"class.std::__1::ios_base"*, i32)**, i32*, i64, i64, i64*, i64, i64, i8**, i64, i64 }
%"class.std::__1::basic_ostream" = type { i32 (...)**, %"class.std::__1::basic_ios.base" }
%"class.base::ScopedClearLastErrorBase" = type { i32 }
%"class.v8::Promise::Resolver" = type { i8 }
%"class.blink::ScriptValue" = type { %"class.v8::Isolate"*, %"class.blink::WorldSafeV8Reference" }
%"class.blink::WorldSafeV8Reference" = type { %"class.blink::TraceWrapperV8Reference.182", %class.scoped_refptr.185 }
%"class.blink::TraceWrapperV8Reference.182" = type { %"class.v8::TracedReference.183" }
%"class.v8::TracedReference.183" = type { %"class.v8::BasicTracedReference.184" }
%"class.v8::BasicTracedReference.184" = type { %"class.v8::TracedReferenceBase" }
%class.scoped_refptr.185 = type { %"class.blink::DOMWrapperWorld"* }
%"class.std::__1::basic_ostream<char, std::__1::char_traits<char> >::sentry" = type { i8, %"class.std::__1::basic_ostream"* }
%"class.std::__1::locale::facet" = type { %"class.std::__1::__shared_count" }
%"class.std::__1::__shared_count" = type { i32 (...)**, i64 }
%"class.std::__1::ctype" = type <{ %"class.std::__1::locale::facet", i16*, i8, [7 x i8] }>
%"struct.std::__1::basic_string<char, std::__1::char_traits<char>, std::__1::allocator<char> >::__short" = type { [23 x i8], %struct.anon }
%struct.anon = type { i8 }

$_ZNK5blink14ScriptFunction18NameInHeapSnapshotEv = comdat any

$_ZN5blink15CustomWrappableD2Ev = comdat any

$_ZN5blink14PromiseHandlerD0Ev = comdat any

$_ZN5blink23PromiseHandlerWithValueD0Ev = comdat any

$_ZNSt3__124__put_character_sequenceIcNS_11char_traitsIcEEEERNS_13basic_ostreamIT_T0_EES7_PKS4_m = comdat any

$_ZNSt3__116__pad_and_outputIcNS_11char_traitsIcEEEENS_19ostreambuf_iteratorIT_T0_EES6_PKS4_S8_S8_RNS_8ios_baseES4_ = comdat any

@_ZTVN5blink14PromiseHandlerE = hidden unnamed_addr constant { [9 x i8*] } { [9 x i8*] [i8* null, i8* null, i8* bitcast (i8* (%"class.blink::ScriptFunction"*)* @_ZNK5blink14ScriptFunction18NameInHeapSnapshotEv to i8*), i8* bitcast (void (%"class.blink::CustomWrappable"*)* @_ZN5blink15CustomWrappableD2Ev to i8*), i8* bitcast (void (%"class.blink::PromiseHandler"*)* @_ZN5blink14PromiseHandlerD0Ev to i8*), i8* bitcast (void (%"class.blink::ScriptFunction"*, %"class.blink::Visitor"*)* @_ZNK5blink14ScriptFunction5TraceEPNS_7VisitorE to i8*), i8* bitcast (void (%"class.blink::ScriptValue"*, %"class.blink::ScriptFunction"*, %"class.blink::ScriptValue"*)* @_ZN5blink14ScriptFunction4CallENS_11ScriptValueE to i8*), i8* bitcast (void (%"class.blink::PromiseHandler"*, %"class.v8::FunctionCallbackInfo"*)* @_ZN5blink14PromiseHandler7CallRawERKN2v820FunctionCallbackInfoINS1_5ValueEEE to i8*), i8* bitcast (void ()* @__cxa_pure_virtual to i8*)] }, align 8
@_ZTVN5blink23PromiseHandlerWithValueE = hidden unnamed_addr constant { [9 x i8*] } { [9 x i8*] [i8* null, i8* null, i8* bitcast (i8* (%"class.blink::ScriptFunction"*)* @_ZNK5blink14ScriptFunction18NameInHeapSnapshotEv to i8*), i8* bitcast (void (%"class.blink::CustomWrappable"*)* @_ZN5blink15CustomWrappableD2Ev to i8*), i8* bitcast (void (%"class.blink::PromiseHandlerWithValue"*)* @_ZN5blink23PromiseHandlerWithValueD0Ev to i8*), i8* bitcast (void (%"class.blink::ScriptFunction"*, %"class.blink::Visitor"*)* @_ZNK5blink14ScriptFunction5TraceEPNS_7VisitorE to i8*), i8* bitcast (void (%"class.blink::ScriptValue"*, %"class.blink::ScriptFunction"*, %"class.blink::ScriptValue"*)* @_ZN5blink14ScriptFunction4CallENS_11ScriptValueE to i8*), i8* bitcast (void (%"class.blink::PromiseHandlerWithValue"*, %"class.v8::FunctionCallbackInfo"*)* @_ZN5blink23PromiseHandlerWithValue7CallRawERKN2v820FunctionCallbackInfoINS1_5ValueEEE to i8*), i8* bitcast (void ()* @__cxa_pure_virtual to i8*)] }, align 8
@.str.1 = private unnamed_addr constant [65 x i8] c"../../third_party/blink/renderer/core/streams/promise_handler.cc\00", align 1
@.str.2 = private unnamed_addr constant [80 x i8] c"Cannot recover from failure to create a new v8::Promise::Resolver object (OOM?)\00", align 1
@_ZNSt3__15ctypeIcE2idE = external global %"class.std::__1::locale::id", align 8
@.str.4 = private unnamed_addr constant [15 x i8] c"ScriptFunction\00", align 1

; Function Attrs: nofree norecurse nounwind ssp uwtable writeonly
define hidden void @_ZN5blink14PromiseHandlerC2EPNS_11ScriptStateE(%"class.blink::PromiseHandler"* nocapture, %"class.blink::ScriptState"*) unnamed_addr #0 align 2 {
  %3 = getelementptr inbounds %"class.blink::PromiseHandler", %"class.blink::PromiseHandler"* %0, i64 0, i32 0, i32 0, i32 0, i32 1, i32 0, i32 0, i32 0, i32 0
  store i64* null, i64** %3, align 8
  %4 = getelementptr inbounds %"class.blink::PromiseHandler", %"class.blink::PromiseHandler"* %0, i64 0, i32 0, i32 0, i32 1, i32 0, i32 0
  store %"class.blink::ScriptState"* %1, %"class.blink::ScriptState"** %4, align 8
  %5 = getelementptr inbounds %"class.blink::PromiseHandler", %"class.blink::PromiseHandler"* %0, i64 0, i32 0, i32 0, i32 0, i32 0, i32 0, i32 0
  store i32 (...)** bitcast (i8** getelementptr inbounds ({ [9 x i8*] }, { [9 x i8*] }* @_ZTVN5blink14PromiseHandlerE, i64 0, inrange i32 0, i64 2) to i32 (...)**), i32 (...)*** %5, align 8
  ret void
}

; Function Attrs: nounwind ssp uwtable
define hidden void @_ZN5blink14PromiseHandler7CallRawERKN2v820FunctionCallbackInfoINS1_5ValueEEE(%"class.blink::PromiseHandler"*, %"class.v8::FunctionCallbackInfo"* nocapture readonly dereferenceable(24)) unnamed_addr #1 align 2 {
  %3 = getelementptr inbounds %"class.v8::FunctionCallbackInfo", %"class.v8::FunctionCallbackInfo"* %1, i64 0, i32 2
  %4 = load i32, i32* %3, align 8
  %5 = icmp sgt i32 %4, 0
  br i1 %5, label %13, label %6

6:                                                ; preds = %2
  %7 = getelementptr inbounds %"class.v8::FunctionCallbackInfo", %"class.v8::FunctionCallbackInfo"* %1, i64 0, i32 0
  %8 = load i64*, i64** %7, align 8
  %9 = getelementptr inbounds i64, i64* %8, i64 1
  %10 = load i64, i64* %9, align 8
  %11 = add i64 %10, 160
  %12 = inttoptr i64 %11 to %"class.v8::Value"*
  br label %17

13:                                               ; preds = %2
  %14 = getelementptr inbounds %"class.v8::FunctionCallbackInfo", %"class.v8::FunctionCallbackInfo"* %1, i64 0, i32 1
  %15 = bitcast i64** %14 to %"class.v8::Value"**
  %16 = load %"class.v8::Value"*, %"class.v8::Value"** %15, align 8
  br label %17

17:                                               ; preds = %6, %13
  %18 = phi %"class.v8::Value"* [ %12, %6 ], [ %16, %13 ]
  %19 = bitcast %"class.blink::PromiseHandler"* %0 to void (%"class.blink::PromiseHandler"*, %"class.v8::Value"*)***
  %20 = load void (%"class.blink::PromiseHandler"*, %"class.v8::Value"*)**, void (%"class.blink::PromiseHandler"*, %"class.v8::Value"*)*** %19, align 8
  %21 = getelementptr inbounds void (%"class.blink::PromiseHandler"*, %"class.v8::Value"*)*, void (%"class.blink::PromiseHandler"*, %"class.v8::Value"*)** %20, i64 6
  %22 = load void (%"class.blink::PromiseHandler"*, %"class.v8::Value"*)*, void (%"class.blink::PromiseHandler"*, %"class.v8::Value"*)** %21, align 8
  tail call void %22(%"class.blink::PromiseHandler"* %0, %"class.v8::Value"* %18) #10
  ret void
}

; Function Attrs: nofree norecurse nounwind ssp uwtable writeonly
define hidden void @_ZN5blink23PromiseHandlerWithValueC2EPNS_11ScriptStateE(%"class.blink::PromiseHandlerWithValue"* nocapture, %"class.blink::ScriptState"*) unnamed_addr #0 align 2 {
  %3 = getelementptr inbounds %"class.blink::PromiseHandlerWithValue", %"class.blink::PromiseHandlerWithValue"* %0, i64 0, i32 0, i32 0, i32 0, i32 1, i32 0, i32 0, i32 0, i32 0
  store i64* null, i64** %3, align 8
  %4 = getelementptr inbounds %"class.blink::PromiseHandlerWithValue", %"class.blink::PromiseHandlerWithValue"* %0, i64 0, i32 0, i32 0, i32 1, i32 0, i32 0
  store %"class.blink::ScriptState"* %1, %"class.blink::ScriptState"** %4, align 8
  %5 = getelementptr inbounds %"class.blink::PromiseHandlerWithValue", %"class.blink::PromiseHandlerWithValue"* %0, i64 0, i32 0, i32 0, i32 0, i32 0, i32 0, i32 0
  store i32 (...)** bitcast (i8** getelementptr inbounds ({ [9 x i8*] }, { [9 x i8*] }* @_ZTVN5blink23PromiseHandlerWithValueE, i64 0, inrange i32 0, i64 2) to i32 (...)**), i32 (...)*** %5, align 8
  ret void
}

; Function Attrs: nounwind ssp uwtable
define hidden void @_ZN5blink23PromiseHandlerWithValue7CallRawERKN2v820FunctionCallbackInfoINS1_5ValueEEE(%"class.blink::PromiseHandlerWithValue"*, %"class.v8::FunctionCallbackInfo"* nocapture readonly dereferenceable(24)) unnamed_addr #1 align 2 {
  %3 = getelementptr inbounds %"class.v8::FunctionCallbackInfo", %"class.v8::FunctionCallbackInfo"* %1, i64 0, i32 2
  %4 = load i32, i32* %3, align 8
  %5 = icmp sgt i32 %4, 0
  br i1 %5, label %13, label %6

6:                                                ; preds = %2
  %7 = getelementptr inbounds %"class.v8::FunctionCallbackInfo", %"class.v8::FunctionCallbackInfo"* %1, i64 0, i32 0
  %8 = load i64*, i64** %7, align 8
  %9 = getelementptr inbounds i64, i64* %8, i64 1
  %10 = load i64, i64* %9, align 8
  %11 = add i64 %10, 160
  %12 = inttoptr i64 %11 to %"class.v8::Value"*
  br label %17

13:                                               ; preds = %2
  %14 = getelementptr inbounds %"class.v8::FunctionCallbackInfo", %"class.v8::FunctionCallbackInfo"* %1, i64 0, i32 1
  %15 = bitcast i64** %14 to %"class.v8::Value"**
  %16 = load %"class.v8::Value"*, %"class.v8::Value"** %15, align 8
  br label %17

17:                                               ; preds = %6, %13
  %18 = phi %"class.v8::Value"* [ %12, %6 ], [ %16, %13 ]
  %19 = bitcast %"class.blink::PromiseHandlerWithValue"* %0 to %"class.v8::Value"* (%"class.blink::PromiseHandlerWithValue"*, %"class.v8::Value"*)***
  %20 = load %"class.v8::Value"* (%"class.blink::PromiseHandlerWithValue"*, %"class.v8::Value"*)**, %"class.v8::Value"* (%"class.blink::PromiseHandlerWithValue"*, %"class.v8::Value"*)*** %19, align 8
  %21 = getelementptr inbounds %"class.v8::Value"* (%"class.blink::PromiseHandlerWithValue"*, %"class.v8::Value"*)*, %"class.v8::Value"* (%"class.blink::PromiseHandlerWithValue"*, %"class.v8::Value"*)** %20, i64 6
  %22 = load %"class.v8::Value"* (%"class.blink::PromiseHandlerWithValue"*, %"class.v8::Value"*)*, %"class.v8::Value"* (%"class.blink::PromiseHandlerWithValue"*, %"class.v8::Value"*)** %21, align 8
  %23 = tail call %"class.v8::Value"* %22(%"class.blink::PromiseHandlerWithValue"* %0, %"class.v8::Value"* %18) #10
  %24 = getelementptr inbounds %"class.v8::FunctionCallbackInfo", %"class.v8::FunctionCallbackInfo"* %1, i64 0, i32 0
  %25 = load i64*, i64** %24, align 8
  %26 = getelementptr inbounds i64, i64* %25, i64 3
  %27 = icmp eq %"class.v8::Value"* %23, null
  %28 = bitcast %"class.v8::Value"* %23 to i64*
  %29 = getelementptr inbounds i64, i64* %25, i64 2
  %30 = select i1 %27, i64* %29, i64* %28, !prof !2
  %31 = load i64, i64* %30, align 8
  store i64 %31, i64* %26, align 8
  ret void
}

; Function Attrs: argmemonly nounwind
declare void @llvm.lifetime.start.p0i8(i64 immarg, i8* nocapture) #2

; Function Attrs: argmemonly nounwind
declare void @llvm.lifetime.end.p0i8(i64 immarg, i8* nocapture) #2

; Function Attrs: nounwind ssp uwtable
define hidden %"class.v8::Promise"* @_ZN5blink17StreamThenPromiseEN2v85LocalINS0_7ContextEEENS1_INS0_7PromiseEEEPNS_18PromiseHandlerBaseES7_(%"class.v8::Context"*, %"class.v8::Promise"*, %"class.blink::PromiseHandlerBase"*, %"class.blink::PromiseHandlerBase"*) local_unnamed_addr #1 {
  %5 = icmp eq %"class.blink::PromiseHandlerBase"* %2, null
  br i1 %5, label %6, label %13

6:                                                ; preds = %4
  %7 = tail call %"class.v8::Function"* @_ZN2v88Function3NewENS_5LocalINS_7ContextEEEPFvRKNS_20FunctionCallbackInfoINS_5ValueEEEENS1_IS5_EEiNS_19ConstructorBehaviorENS_14SideEffectTypeE(%"class.v8::Context"* %0, void (%"class.v8::FunctionCallbackInfo"*)* nonnull @_ZN5blink12_GLOBAL__N_120NoopFunctionCallbackERKN2v820FunctionCallbackInfoINS1_5ValueEEE, %"class.v8::Value"* null, i32 0, i32 1, i32 0) #10
  %8 = icmp eq %"class.v8::Function"* %7, null
  br i1 %8, label %26, label %9

9:                                                ; preds = %6
  %10 = getelementptr inbounds %"class.blink::PromiseHandlerBase", %"class.blink::PromiseHandlerBase"* %3, i64 0, i32 0
  %11 = tail call %"class.v8::Function"* @_ZN5blink14ScriptFunction16BindToV8FunctionEi(%"class.blink::ScriptFunction"* %10, i32 0) #10
  %12 = tail call %"class.v8::Promise"* @_ZN2v87Promise4ThenENS_5LocalINS_7ContextEEENS1_INS_8FunctionEEES5_(%"class.v8::Promise"* %1, %"class.v8::Context"* %0, %"class.v8::Function"* nonnull %7, %"class.v8::Function"* %11) #10
  br label %23

13:                                               ; preds = %4
  %14 = icmp eq %"class.blink::PromiseHandlerBase"* %3, null
  %15 = getelementptr inbounds %"class.blink::PromiseHandlerBase", %"class.blink::PromiseHandlerBase"* %2, i64 0, i32 0
  %16 = tail call %"class.v8::Function"* @_ZN5blink14ScriptFunction16BindToV8FunctionEi(%"class.blink::ScriptFunction"* %15, i32 0) #10
  br i1 %14, label %21, label %17

17:                                               ; preds = %13
  %18 = getelementptr inbounds %"class.blink::PromiseHandlerBase", %"class.blink::PromiseHandlerBase"* %3, i64 0, i32 0
  %19 = tail call %"class.v8::Function"* @_ZN5blink14ScriptFunction16BindToV8FunctionEi(%"class.blink::ScriptFunction"* %18, i32 0) #10
  %20 = tail call %"class.v8::Promise"* @_ZN2v87Promise4ThenENS_5LocalINS_7ContextEEENS1_INS_8FunctionEEES5_(%"class.v8::Promise"* %1, %"class.v8::Context"* %0, %"class.v8::Function"* %16, %"class.v8::Function"* %19) #10
  br label %23

21:                                               ; preds = %13
  %22 = tail call %"class.v8::Promise"* @_ZN2v87Promise4ThenENS_5LocalINS_7ContextEEENS1_INS_8FunctionEEE(%"class.v8::Promise"* %1, %"class.v8::Context"* %0, %"class.v8::Function"* %16) #10
  br label %23

23:                                               ; preds = %9, %17, %21
  %24 = phi %"class.v8::Promise"* [ %22, %21 ], [ %20, %17 ], [ %12, %9 ]
  %25 = icmp eq %"class.v8::Promise"* %24, null
  br i1 %25, label %26, label %28

26:                                               ; preds = %23, %6
  %27 = tail call fastcc %"class.v8::Promise"* @_ZN5blink12_GLOBAL__N_127AttemptToReturnDummyPromiseEN2v85LocalINS1_7ContextEEENS2_INS1_7PromiseEEE(%"class.v8::Context"* %0, %"class.v8::Promise"* %1)
  br label %28

28:                                               ; preds = %26, %23
  %29 = phi %"class.v8::Promise"* [ %24, %23 ], [ %27, %26 ]
  ret %"class.v8::Promise"* %29
}

declare %"class.v8::Function"* @_ZN2v88Function3NewENS_5LocalINS_7ContextEEEPFvRKNS_20FunctionCallbackInfoINS_5ValueEEEENS1_IS5_EEiNS_19ConstructorBehaviorENS_14SideEffectTypeE(%"class.v8::Context"*, void (%"class.v8::FunctionCallbackInfo"*)*, %"class.v8::Value"*, i32, i32, i32) local_unnamed_addr #3

; Function Attrs: norecurse nounwind readnone ssp uwtable
define internal void @_ZN5blink12_GLOBAL__N_120NoopFunctionCallbackERKN2v820FunctionCallbackInfoINS1_5ValueEEE(%"class.v8::FunctionCallbackInfo"* nocapture dereferenceable(24)) #4 {
  ret void
}

; Function Attrs: nounwind ssp uwtable
define internal fastcc %"class.v8::Promise"* @_ZN5blink12_GLOBAL__N_127AttemptToReturnDummyPromiseEN2v85LocalINS1_7ContextEEENS2_INS1_7PromiseEEE(%"class.v8::Context"*, %"class.v8::Promise"* readnone) unnamed_addr #1 {
  %3 = alloca %"class.logging::LogMessage", align 8
  %4 = tail call %"class.v8::Promise::Resolver"* @_ZN2v87Promise8Resolver3NewENS_5LocalINS_7ContextEEE(%"class.v8::Context"* %0) #10
  %5 = icmp eq %"class.v8::Promise::Resolver"* %4, null
  br i1 %5, label %6, label %16

6:                                                ; preds = %2
  %7 = tail call %"class.v8::Isolate"* @_ZN2v87Context10GetIsolateEv(%"class.v8::Context"* %0) #10
  %8 = tail call zeroext i1 @_ZN2v87Isolate22IsExecutionTerminatingEv(%"class.v8::Isolate"* %7) #10
  br i1 %8, label %18, label %9

9:                                                ; preds = %6
  %10 = tail call zeroext i1 @_ZN7logging22ShouldCreateLogMessageEi(i32 3) #10
  br i1 %10, label %11, label %18

11:                                               ; preds = %9
  %12 = bitcast %"class.logging::LogMessage"* %3 to i8*
  call void @llvm.lifetime.start.p0i8(i64 304, i8* nonnull %12) #10
  call void @_ZN7logging10LogMessageC1EPKcii(%"class.logging::LogMessage"* nonnull %3, i8* getelementptr inbounds ([65 x i8], [65 x i8]* @.str.1, i64 0, i64 0), i32 25, i32 3) #10
  %13 = getelementptr inbounds %"class.logging::LogMessage", %"class.logging::LogMessage"* %3, i64 0, i32 2
  %14 = bitcast %"class.std::__1::basic_ostringstream"* %13 to %"class.std::__1::basic_ostream"*
  %15 = call dereferenceable(160) %"class.std::__1::basic_ostream"* @_ZNSt3__124__put_character_sequenceIcNS_11char_traitsIcEEEERNS_13basic_ostreamIT_T0_EES7_PKS4_m(%"class.std::__1::basic_ostream"* dereferenceable(160) %14, i8* getelementptr inbounds ([80 x i8], [80 x i8]* @.str.2, i64 0, i64 0), i64 79) #10
  call void @_ZN7logging10LogMessageD1Ev(%"class.logging::LogMessage"* nonnull %3) #10
  call void @llvm.lifetime.end.p0i8(i64 304, i8* nonnull %12) #10
  br label %18

16:                                               ; preds = %2
  %17 = tail call %"class.v8::Promise"* @_ZN2v87Promise8Resolver10GetPromiseEv(%"class.v8::Promise::Resolver"* nonnull %4) #10
  br label %18

18:                                               ; preds = %11, %9, %6, %16
  %19 = phi %"class.v8::Promise"* [ %17, %16 ], [ %1, %6 ], [ %1, %9 ], [ %1, %11 ]
  ret %"class.v8::Promise"* %19
}

declare %"class.v8::Promise"* @_ZN2v87Promise4ThenENS_5LocalINS_7ContextEEENS1_INS_8FunctionEEES5_(%"class.v8::Promise"*, %"class.v8::Context"*, %"class.v8::Function"*, %"class.v8::Function"*) local_unnamed_addr #3

declare %"class.v8::Function"* @_ZN5blink14ScriptFunction16BindToV8FunctionEi(%"class.blink::ScriptFunction"*, i32) local_unnamed_addr #3

declare %"class.v8::Promise"* @_ZN2v87Promise4ThenENS_5LocalINS_7ContextEEENS1_INS_8FunctionEEE(%"class.v8::Promise"*, %"class.v8::Context"*, %"class.v8::Function"*) local_unnamed_addr #3

; Function Attrs: nounwind ssp uwtable
define linkonce_odr hidden i8* @_ZNK5blink14ScriptFunction18NameInHeapSnapshotEv(%"class.blink::ScriptFunction"*) unnamed_addr #1 comdat align 2 {
  ret i8* getelementptr inbounds ([15 x i8], [15 x i8]* @.str.4, i64 0, i64 0)
}

; Function Attrs: nounwind ssp uwtable
define linkonce_odr hidden void @_ZN5blink15CustomWrappableD2Ev(%"class.blink::CustomWrappable"*) unnamed_addr #1 comdat align 2 {
  ret void
}

; Function Attrs: inlinehint nounwind ssp uwtable
define linkonce_odr hidden void @_ZN5blink14PromiseHandlerD0Ev(%"class.blink::PromiseHandler"*) unnamed_addr #5 comdat align 2 {
  tail call void @llvm.trap() #11
  unreachable
}

declare void @_ZNK5blink14ScriptFunction5TraceEPNS_7VisitorE(%"class.blink::ScriptFunction"*, %"class.blink::Visitor"*) unnamed_addr #3

declare void @_ZN5blink14ScriptFunction4CallENS_11ScriptValueE(%"class.blink::ScriptValue"* sret, %"class.blink::ScriptFunction"*, %"class.blink::ScriptValue"*) unnamed_addr #3

declare void @__cxa_pure_virtual() unnamed_addr

; Function Attrs: inlinehint nounwind ssp uwtable
define linkonce_odr hidden void @_ZN5blink23PromiseHandlerWithValueD0Ev(%"class.blink::PromiseHandlerWithValue"*) unnamed_addr #5 comdat align 2 {
  tail call void @llvm.trap() #11
  unreachable
}

; Function Attrs: argmemonly nounwind
declare void @llvm.memset.p0i8.i64(i8* nocapture writeonly, i8, i64, i1 immarg) #2

declare %"class.v8::Promise::Resolver"* @_ZN2v87Promise8Resolver3NewENS_5LocalINS_7ContextEEE(%"class.v8::Context"*) local_unnamed_addr #3

declare %"class.v8::Isolate"* @_ZN2v87Context10GetIsolateEv(%"class.v8::Context"*) local_unnamed_addr #3

declare zeroext i1 @_ZN2v87Isolate22IsExecutionTerminatingEv(%"class.v8::Isolate"*) local_unnamed_addr #3

declare zeroext i1 @_ZN7logging22ShouldCreateLogMessageEi(i32) local_unnamed_addr #3

declare void @_ZN7logging10LogMessageC1EPKcii(%"class.logging::LogMessage"*, i8*, i32, i32) unnamed_addr #3

; Function Attrs: nounwind
declare void @_ZN7logging10LogMessageD1Ev(%"class.logging::LogMessage"*) unnamed_addr #6

declare %"class.v8::Promise"* @_ZN2v87Promise8Resolver10GetPromiseEv(%"class.v8::Promise::Resolver"*) local_unnamed_addr #3

; Function Attrs: nounwind ssp uwtable
define linkonce_odr hidden dereferenceable(160) %"class.std::__1::basic_ostream"* @_ZNSt3__124__put_character_sequenceIcNS_11char_traitsIcEEEERNS_13basic_ostreamIT_T0_EES7_PKS4_m(%"class.std::__1::basic_ostream"* dereferenceable(160), i8*, i64) local_unnamed_addr #1 comdat {
  %4 = alloca %"class.std::__1::locale", align 8
  %5 = alloca %"class.std::__1::basic_ostream<char, std::__1::char_traits<char> >::sentry", align 8
  %6 = getelementptr inbounds %"class.std::__1::basic_ostream<char, std::__1::char_traits<char> >::sentry", %"class.std::__1::basic_ostream<char, std::__1::char_traits<char> >::sentry"* %5, i64 0, i32 0
  call void @llvm.lifetime.start.p0i8(i64 16, i8* nonnull %6) #10
  call void @llvm.memset.p0i8.i64(i8* nonnull align 8 %6, i8 -86, i64 16, i1 false)
  call void @_ZNSt3__113basic_ostreamIcNS_11char_traitsIcEEE6sentryC1ERS3_(%"class.std::__1::basic_ostream<char, std::__1::char_traits<char> >::sentry"* nonnull %5, %"class.std::__1::basic_ostream"* dereferenceable(160) %0) #10
  %7 = load i8, i8* %6, align 8, !range !3
  %8 = icmp eq i8 %7, 0
  br i1 %8, label %58, label %9

9:                                                ; preds = %3
  %10 = bitcast %"class.std::__1::basic_ostream"* %0 to i8**
  %11 = load i8*, i8** %10, align 8
  %12 = getelementptr i8, i8* %11, i64 -24
  %13 = bitcast i8* %12 to i64*
  %14 = load i64, i64* %13, align 8
  %15 = bitcast %"class.std::__1::basic_ostream"* %0 to i8*
  %16 = getelementptr inbounds i8, i8* %15, i64 %14
  %17 = getelementptr inbounds i8, i8* %16, i64 40
  %18 = bitcast i8* %17 to %"class.std::__1::basic_streambuf"**
  %19 = load %"class.std::__1::basic_streambuf"*, %"class.std::__1::basic_streambuf"** %18, align 8
  %20 = bitcast i8* %16 to %"class.std::__1::ios_base"*
  %21 = getelementptr inbounds i8, i8* %16, i64 8
  %22 = bitcast i8* %21 to i32*
  %23 = load i32, i32* %22, align 8
  %24 = and i32 %23, 176
  %25 = icmp eq i32 %24, 32
  %26 = getelementptr inbounds i8, i8* %1, i64 %2
  %27 = select i1 %25, i8* %26, i8* %1
  %28 = getelementptr inbounds i8, i8* %16, i64 144
  %29 = bitcast i8* %28 to i32*
  %30 = load i32, i32* %29, align 8
  %31 = icmp eq i32 %30, -1
  br i1 %31, label %32, label %42

32:                                               ; preds = %9
  %33 = bitcast %"class.std::__1::locale"* %4 to i8*
  call void @llvm.lifetime.start.p0i8(i64 8, i8* nonnull %33) #10
  call void @_ZNKSt3__18ios_base6getlocEv(%"class.std::__1::locale"* nonnull sret %4, %"class.std::__1::ios_base"* %20) #10
  %34 = call %"class.std::__1::locale::facet"* @_ZNKSt3__16locale9use_facetERNS0_2idE(%"class.std::__1::locale"* nonnull %4, %"class.std::__1::locale::id"* nonnull dereferenceable(16) @_ZNSt3__15ctypeIcE2idE) #10
  %35 = bitcast %"class.std::__1::locale::facet"* %34 to %"class.std::__1::ctype"*
  %36 = bitcast %"class.std::__1::locale::facet"* %34 to i8 (%"class.std::__1::ctype"*, i8)***
  %37 = load i8 (%"class.std::__1::ctype"*, i8)**, i8 (%"class.std::__1::ctype"*, i8)*** %36, align 8
  %38 = getelementptr inbounds i8 (%"class.std::__1::ctype"*, i8)*, i8 (%"class.std::__1::ctype"*, i8)** %37, i64 7
  %39 = load i8 (%"class.std::__1::ctype"*, i8)*, i8 (%"class.std::__1::ctype"*, i8)** %38, align 8
  %40 = call signext i8 %39(%"class.std::__1::ctype"* %35, i8 signext 32) #10
  call void @_ZNSt3__16localeD1Ev(%"class.std::__1::locale"* nonnull %4) #10
  call void @llvm.lifetime.end.p0i8(i64 8, i8* nonnull %33) #10
  %41 = sext i8 %40 to i32
  store i32 %41, i32* %29, align 8
  br label %42

42:                                               ; preds = %9, %32
  %43 = phi i32 [ %41, %32 ], [ %30, %9 ]
  %44 = trunc i32 %43 to i8
  %45 = call %"class.std::__1::basic_streambuf"* @_ZNSt3__116__pad_and_outputIcNS_11char_traitsIcEEEENS_19ostreambuf_iteratorIT_T0_EES6_PKS4_S8_S8_RNS_8ios_baseES4_(%"class.std::__1::basic_streambuf"* %19, i8* %1, i8* %27, i8* %26, %"class.std::__1::ios_base"* dereferenceable(136) %20, i8 signext %44)
  %46 = icmp eq %"class.std::__1::basic_streambuf"* %45, null
  br i1 %46, label %47, label %58

47:                                               ; preds = %42
  %48 = load i8*, i8** %10, align 8
  %49 = getelementptr i8, i8* %48, i64 -24
  %50 = bitcast i8* %49 to i64*
  %51 = load i64, i64* %50, align 8
  %52 = getelementptr inbounds i8, i8* %15, i64 %51
  %53 = bitcast i8* %52 to %"class.std::__1::ios_base"*
  %54 = getelementptr inbounds i8, i8* %52, i64 32
  %55 = bitcast i8* %54 to i32*
  %56 = load i32, i32* %55, align 8
  %57 = or i32 %56, 5
  call void @_ZNSt3__18ios_base5clearEj(%"class.std::__1::ios_base"* %53, i32 %57) #10
  br label %58

58:                                               ; preds = %3, %42, %47
  call void @_ZNSt3__113basic_ostreamIcNS_11char_traitsIcEEE6sentryD1Ev(%"class.std::__1::basic_ostream<char, std::__1::char_traits<char> >::sentry"* nonnull %5) #10
  call void @llvm.lifetime.end.p0i8(i64 16, i8* nonnull %6) #10
  ret %"class.std::__1::basic_ostream"* %0
}

declare void @_ZNSt3__113basic_ostreamIcNS_11char_traitsIcEEE6sentryC1ERS3_(%"class.std::__1::basic_ostream<char, std::__1::char_traits<char> >::sentry"*, %"class.std::__1::basic_ostream"* dereferenceable(160)) unnamed_addr #3

; Function Attrs: nounwind ssp uwtable
define linkonce_odr hidden %"class.std::__1::basic_streambuf"* @_ZNSt3__116__pad_and_outputIcNS_11char_traitsIcEEEENS_19ostreambuf_iteratorIT_T0_EES6_PKS4_S8_S8_RNS_8ios_baseES4_(%"class.std::__1::basic_streambuf"*, i8*, i8*, i8*, %"class.std::__1::ios_base"* dereferenceable(136), i8 signext) local_unnamed_addr #1 comdat {
  %7 = alloca %"class.std::__1::basic_string", align 8
  %8 = icmp eq %"class.std::__1::basic_streambuf"* %0, null
  br i1 %8, label %78, label %9

9:                                                ; preds = %6
  %10 = ptrtoint i8* %3 to i64
  %11 = ptrtoint i8* %1 to i64
  %12 = sub i64 %10, %11
  %13 = getelementptr inbounds %"class.std::__1::ios_base", %"class.std::__1::ios_base"* %4, i64 0, i32 3
  %14 = load i64, i64* %13, align 8
  %15 = icmp sgt i64 %14, %12
  %16 = sub nsw i64 %14, %12
  %17 = select i1 %15, i64 %16, i64 0
  %18 = ptrtoint i8* %2 to i64
  %19 = sub i64 %18, %11
  %20 = icmp sgt i64 %19, 0
  br i1 %20, label %21, label %28

21:                                               ; preds = %9
  %22 = bitcast %"class.std::__1::basic_streambuf"* %0 to i64 (%"class.std::__1::basic_streambuf"*, i8*, i64)***
  %23 = load i64 (%"class.std::__1::basic_streambuf"*, i8*, i64)**, i64 (%"class.std::__1::basic_streambuf"*, i8*, i64)*** %22, align 8
  %24 = getelementptr inbounds i64 (%"class.std::__1::basic_streambuf"*, i8*, i64)*, i64 (%"class.std::__1::basic_streambuf"*, i8*, i64)** %23, i64 12
  %25 = load i64 (%"class.std::__1::basic_streambuf"*, i8*, i64)*, i64 (%"class.std::__1::basic_streambuf"*, i8*, i64)** %24, align 8
  %26 = tail call i64 %25(%"class.std::__1::basic_streambuf"* nonnull %0, i8* %1, i64 %19) #10
  %27 = icmp eq i64 %26, %19
  br i1 %27, label %28, label %78

28:                                               ; preds = %21, %9
  %29 = icmp sgt i64 %17, 0
  br i1 %29, label %30, label %67

30:                                               ; preds = %28
  %31 = bitcast %"class.std::__1::basic_string"* %7 to i8*
  call void @llvm.lifetime.start.p0i8(i64 24, i8* nonnull %31) #10
  %32 = getelementptr inbounds %"class.std::__1::basic_string", %"class.std::__1::basic_string"* %7, i64 0, i32 0, i32 0, i32 0, i32 0, i32 0, i32 0
  %33 = icmp ult i64 %17, 23
  %34 = bitcast %"class.std::__1::basic_string"* %7 to i8*
  call void @llvm.memset.p0i8.i64(i8* nonnull align 8 %34, i8 -86, i64 24, i1 false)
  br i1 %33, label %43, label %35

35:                                               ; preds = %30
  %36 = getelementptr inbounds %"class.std::__1::basic_string", %"class.std::__1::basic_string"* %7, i64 0, i32 0, i32 0, i32 0, i32 0, i32 0, i32 2
  %37 = getelementptr inbounds %"class.std::__1::basic_string", %"class.std::__1::basic_string"* %7, i64 0, i32 0, i32 0, i32 0, i32 0, i32 0, i32 1
  %38 = add nuw i64 %17, 16
  %39 = and i64 %38, -16
  %40 = tail call i8* @_Znwm(i64 %39) #12
  store i8* %40, i8** %32, align 8
  %41 = or i64 %39, -9223372036854775808
  store i64 %41, i64* %36, align 8
  store i64 %17, i64* %37, align 8
  %42 = bitcast %"class.std::__1::basic_string"* %7 to %"struct.std::__1::basic_string<char, std::__1::char_traits<char>, std::__1::allocator<char> >::__short"*
  br label %47

43:                                               ; preds = %30
  %44 = trunc i64 %17 to i8
  %45 = bitcast %"class.std::__1::basic_string"* %7 to %"struct.std::__1::basic_string<char, std::__1::char_traits<char>, std::__1::allocator<char> >::__short"*
  %46 = getelementptr inbounds %"struct.std::__1::basic_string<char, std::__1::char_traits<char>, std::__1::allocator<char> >::__short", %"struct.std::__1::basic_string<char, std::__1::char_traits<char>, std::__1::allocator<char> >::__short"* %45, i64 0, i32 1, i32 0
  store i8 %44, i8* %46, align 1
  br label %47

47:                                               ; preds = %35, %43
  %48 = phi %"struct.std::__1::basic_string<char, std::__1::char_traits<char>, std::__1::allocator<char> >::__short"* [ %42, %35 ], [ %45, %43 ]
  %49 = phi i8* [ %40, %35 ], [ %31, %43 ]
  call void @llvm.memset.p0i8.i64(i8* nonnull align 1 %49, i8 %5, i64 %17, i1 false) #10
  %50 = getelementptr inbounds i8, i8* %49, i64 %17
  store i8 0, i8* %50, align 1
  %51 = getelementptr inbounds %"struct.std::__1::basic_string<char, std::__1::char_traits<char>, std::__1::allocator<char> >::__short", %"struct.std::__1::basic_string<char, std::__1::char_traits<char>, std::__1::allocator<char> >::__short"* %48, i64 0, i32 1, i32 0
  %52 = load i8, i8* %51, align 1
  %53 = icmp slt i8 %52, 0
  %54 = load i8*, i8** %32, align 8
  %55 = select i1 %53, i8* %54, i8* %31
  %56 = bitcast %"class.std::__1::basic_streambuf"* %0 to i64 (%"class.std::__1::basic_streambuf"*, i8*, i64)***
  %57 = load i64 (%"class.std::__1::basic_streambuf"*, i8*, i64)**, i64 (%"class.std::__1::basic_streambuf"*, i8*, i64)*** %56, align 8
  %58 = getelementptr inbounds i64 (%"class.std::__1::basic_streambuf"*, i8*, i64)*, i64 (%"class.std::__1::basic_streambuf"*, i8*, i64)** %57, i64 12
  %59 = load i64 (%"class.std::__1::basic_streambuf"*, i8*, i64)*, i64 (%"class.std::__1::basic_streambuf"*, i8*, i64)** %58, align 8
  %60 = call i64 %59(%"class.std::__1::basic_streambuf"* nonnull %0, i8* %55, i64 %17) #10
  %61 = icmp eq i64 %60, %17
  %62 = load i8, i8* %51, align 1
  %63 = icmp slt i8 %62, 0
  br i1 %63, label %64, label %66

64:                                               ; preds = %47
  %65 = load i8*, i8** %32, align 8
  call void @_ZdlPv(i8* %65) #12
  br label %66

66:                                               ; preds = %47, %64
  call void @llvm.lifetime.end.p0i8(i64 24, i8* nonnull %31) #10
  br i1 %61, label %67, label %78

67:                                               ; preds = %66, %28
  %68 = sub i64 %10, %18
  %69 = icmp sgt i64 %68, 0
  br i1 %69, label %70, label %77

70:                                               ; preds = %67
  %71 = bitcast %"class.std::__1::basic_streambuf"* %0 to i64 (%"class.std::__1::basic_streambuf"*, i8*, i64)***
  %72 = load i64 (%"class.std::__1::basic_streambuf"*, i8*, i64)**, i64 (%"class.std::__1::basic_streambuf"*, i8*, i64)*** %71, align 8
  %73 = getelementptr inbounds i64 (%"class.std::__1::basic_streambuf"*, i8*, i64)*, i64 (%"class.std::__1::basic_streambuf"*, i8*, i64)** %72, i64 12
  %74 = load i64 (%"class.std::__1::basic_streambuf"*, i8*, i64)*, i64 (%"class.std::__1::basic_streambuf"*, i8*, i64)** %73, align 8
  %75 = call i64 %74(%"class.std::__1::basic_streambuf"* nonnull %0, i8* %2, i64 %68) #10
  %76 = icmp eq i64 %75, %68
  br i1 %76, label %77, label %78

77:                                               ; preds = %70, %67
  store i64 0, i64* %13, align 8
  br label %78

78:                                               ; preds = %77, %66, %21, %70, %6
  %79 = phi %"class.std::__1::basic_streambuf"* [ null, %6 ], [ %0, %77 ], [ null, %66 ], [ null, %21 ], [ null, %70 ]
  ret %"class.std::__1::basic_streambuf"* %79
}

; Function Attrs: nounwind
declare void @_ZNSt3__113basic_ostreamIcNS_11char_traitsIcEEE6sentryD1Ev(%"class.std::__1::basic_ostream<char, std::__1::char_traits<char> >::sentry"*) unnamed_addr #6

; Function Attrs: nobuiltin nofree
declare noalias nonnull i8* @_Znwm(i64) local_unnamed_addr #7

; Function Attrs: nobuiltin nounwind
declare void @_ZdlPv(i8*) local_unnamed_addr #8

declare void @_ZNKSt3__18ios_base6getlocEv(%"class.std::__1::locale"* sret, %"class.std::__1::ios_base"*) local_unnamed_addr #3

; Function Attrs: nounwind
declare void @_ZNSt3__16localeD1Ev(%"class.std::__1::locale"*) unnamed_addr #6

declare %"class.std::__1::locale::facet"* @_ZNKSt3__16locale9use_facetERNS0_2idE(%"class.std::__1::locale"*, %"class.std::__1::locale::id"* dereferenceable(16)) local_unnamed_addr #3

declare void @_ZNSt3__18ios_base5clearEj(%"class.std::__1::ios_base"*, i32) local_unnamed_addr #3

; Function Attrs: cold noreturn nounwind
declare void @llvm.trap() #9

attributes #0 = { nofree norecurse nounwind ssp uwtable writeonly "correctly-rounded-divide-sqrt-fp-math"="false" "disable-tail-calls"="false" "less-precise-fpmad"="false" "min-legal-vector-width"="0" "no-frame-pointer-elim"="false" "no-frame-pointer-elim-non-leaf" "no-infs-fp-math"="false" "no-jump-tables"="false" "no-nans-fp-math"="false" "no-signed-zeros-fp-math"="false" "no-trapping-math"="false" "null-pointer-is-valid"="true" "stack-protector-buffer-size"="4" "target-cpu"="x86-64" "target-features"="+cx8,+fxsr,+mmx,+sse,+sse2,+sse3,+x87" "unsafe-fp-math"="false" "use-soft-float"="false" }
attributes #1 = { nounwind ssp uwtable "correctly-rounded-divide-sqrt-fp-math"="false" "disable-tail-calls"="false" "less-precise-fpmad"="false" "min-legal-vector-width"="0" "no-frame-pointer-elim"="false" "no-frame-pointer-elim-non-leaf" "no-infs-fp-math"="false" "no-jump-tables"="false" "no-nans-fp-math"="false" "no-signed-zeros-fp-math"="false" "no-trapping-math"="false" "null-pointer-is-valid"="true" "stack-protector-buffer-size"="4" "target-cpu"="x86-64" "target-features"="+cx8,+fxsr,+mmx,+sse,+sse2,+sse3,+x87" "unsafe-fp-math"="false" "use-soft-float"="false" }
attributes #2 = { argmemonly nounwind }
attributes #3 = { "correctly-rounded-divide-sqrt-fp-math"="false" "disable-tail-calls"="false" "less-precise-fpmad"="false" "no-frame-pointer-elim"="false" "no-frame-pointer-elim-non-leaf" "no-infs-fp-math"="false" "no-nans-fp-math"="false" "no-signed-zeros-fp-math"="false" "no-trapping-math"="false" "null-pointer-is-valid"="true" "stack-protector-buffer-size"="4" "target-cpu"="x86-64" "target-features"="+cx8,+fxsr,+mmx,+sse,+sse2,+sse3,+x87" "unsafe-fp-math"="false" "use-soft-float"="false" }
attributes #4 = { norecurse nounwind readnone ssp uwtable "correctly-rounded-divide-sqrt-fp-math"="false" "disable-tail-calls"="false" "less-precise-fpmad"="false" "min-legal-vector-width"="0" "no-frame-pointer-elim"="false" "no-frame-pointer-elim-non-leaf" "no-infs-fp-math"="false" "no-jump-tables"="false" "no-nans-fp-math"="false" "no-signed-zeros-fp-math"="false" "no-trapping-math"="false" "null-pointer-is-valid"="true" "stack-protector-buffer-size"="4" "target-cpu"="x86-64" "target-features"="+cx8,+fxsr,+mmx,+sse,+sse2,+sse3,+x87" "unsafe-fp-math"="false" "use-soft-float"="false" }
attributes #5 = { inlinehint nounwind ssp uwtable "correctly-rounded-divide-sqrt-fp-math"="false" "disable-tail-calls"="false" "less-precise-fpmad"="false" "min-legal-vector-width"="0" "no-frame-pointer-elim"="false" "no-frame-pointer-elim-non-leaf" "no-infs-fp-math"="false" "no-jump-tables"="false" "no-nans-fp-math"="false" "no-signed-zeros-fp-math"="false" "no-trapping-math"="false" "null-pointer-is-valid"="true" "stack-protector-buffer-size"="4" "target-cpu"="x86-64" "target-features"="+cx8,+fxsr,+mmx,+sse,+sse2,+sse3,+x87" "unsafe-fp-math"="false" "use-soft-float"="false" }
attributes #6 = { nounwind "correctly-rounded-divide-sqrt-fp-math"="false" "disable-tail-calls"="false" "less-precise-fpmad"="false" "no-frame-pointer-elim"="false" "no-frame-pointer-elim-non-leaf" "no-infs-fp-math"="false" "no-nans-fp-math"="false" "no-signed-zeros-fp-math"="false" "no-trapping-math"="false" "null-pointer-is-valid"="true" "stack-protector-buffer-size"="4" "target-cpu"="x86-64" "target-features"="+cx8,+fxsr,+mmx,+sse,+sse2,+sse3,+x87" "unsafe-fp-math"="false" "use-soft-float"="false" }
attributes #7 = { nobuiltin nofree "correctly-rounded-divide-sqrt-fp-math"="false" "disable-tail-calls"="false" "less-precise-fpmad"="false" "no-frame-pointer-elim"="false" "no-frame-pointer-elim-non-leaf" "no-infs-fp-math"="false" "no-nans-fp-math"="false" "no-signed-zeros-fp-math"="false" "no-trapping-math"="false" "null-pointer-is-valid"="true" "stack-protector-buffer-size"="4" "target-cpu"="x86-64" "target-features"="+cx8,+fxsr,+mmx,+sse,+sse2,+sse3,+x87" "unsafe-fp-math"="false" "use-soft-float"="false" }
attributes #8 = { nobuiltin nounwind "correctly-rounded-divide-sqrt-fp-math"="false" "disable-tail-calls"="false" "less-precise-fpmad"="false" "no-frame-pointer-elim"="false" "no-frame-pointer-elim-non-leaf" "no-infs-fp-math"="false" "no-nans-fp-math"="false" "no-signed-zeros-fp-math"="false" "no-trapping-math"="false" "null-pointer-is-valid"="true" "stack-protector-buffer-size"="4" "target-cpu"="x86-64" "target-features"="+cx8,+fxsr,+mmx,+sse,+sse2,+sse3,+x87" "unsafe-fp-math"="false" "use-soft-float"="false" }
attributes #9 = { cold noreturn nounwind }
attributes #10 = { nounwind }
attributes #11 = { noreturn nounwind }
attributes #12 = { builtin nounwind }

!llvm.module.flags = !{!0, !1}

!0 = !{i32 1, !"wchar_size", i32 4}
!1 = !{i32 7, !"PIC Level", i32 2}
!2 = !{!"branch_weights", i32 1, i32 2000}
!3 = !{i8 0, i8 2}
