; ModuleID = '../../chrome/browser/predictors/proxy_lookup_client_impl.cc'
source_filename = "../../chrome/browser/predictors/proxy_lookup_client_impl.cc"
target datalayout = "e-m:e-i64:64-f80:128-n8:16:32:64-S128"
target triple = "x86_64-unknown-linux-gnu"

module asm ".symver exp, exp@GLIBC_2.2.5"
module asm ".symver exp2, exp2@GLIBC_2.2.5"
module asm ".symver exp2f, exp2f@GLIBC_2.2.5"
module asm ".symver expf, expf@GLIBC_2.2.5"
module asm ".symver lgamma, lgamma@GLIBC_2.2.5"
module asm ".symver lgammaf, lgammaf@GLIBC_2.2.5"
module asm ".symver lgammal, lgammal@GLIBC_2.2.5"
module asm ".symver log, log@GLIBC_2.2.5"
module asm ".symver log2, log2@GLIBC_2.2.5"
module asm ".symver log2f, log2f@GLIBC_2.2.5"
module asm ".symver logf, logf@GLIBC_2.2.5"
module asm ".symver pow, pow@GLIBC_2.2.5"
module asm ".symver powf, powf@GLIBC_2.2.5"

%"struct.base::TaskTraitsExtensionStorage" = type { i8, %"struct.std::__1::array" }
%"struct.std::__1::array" = type { [8 x i8] }
%"class.predictors::ProxyLookupClientImpl" = type { %"class.network::mojom::ProxyLookupClient", %"class.mojo::Receiver", %"class.base::OnceCallback.163" }
%"class.network::mojom::ProxyLookupClient" = type { i32 (...)** }
%"class.mojo::Receiver" = type { %"class.mojo::internal::BindingState" }
%"class.mojo::internal::BindingState" = type { %"class.mojo::internal::BindingStateBase", %"class.network::mojom::ProxyLookupClientStub" }
%"class.mojo::internal::BindingStateBase" = type { %class.scoped_refptr, %"class.std::__1::unique_ptr.112", %"class.base::WeakPtrFactory.162" }
%class.scoped_refptr = type { %"class.mojo::internal::MultiplexRouter"* }
%"class.mojo::internal::MultiplexRouter" = type <{ %"class.mojo::MessageReceiver", %"class.mojo::AssociatedGroupController.base", [4 x i8], %"class.mojo::PipeControlMessageHandlerDelegate", i32, i8, [3 x i8], %class.scoped_refptr.1, %"class.mojo::MessageHeaderValidator"*, %"class.mojo::MessageDispatcher", %"class.mojo::Connector", %"class.mojo::ScopedHandleBase", [4 x i8], %"class.absl::optional.75", %"class.absl::optional.80", %"class.absl::optional.37", %"class.mojo::PipeControlMessageHandler", %"class.mojo::PipeControlMessageProxy", %"class.base::small_map", i32, [4 x i8], %"class.base::circular_deque", %"class.std::__1::map.103", i8, [7 x i8], %class.scoped_refptr.1, i8, i8, i8, i8, i8, [3 x i8] }>
%"class.mojo::MessageReceiver" = type { i32 (...)** }
%"class.mojo::AssociatedGroupController.base" = type <{ i32 (...)**, %"class.base::RefCountedThreadSafe" }>
%"class.base::RefCountedThreadSafe" = type { %"class.base::subtle::RefCountedThreadSafeBase" }
%"class.base::subtle::RefCountedThreadSafeBase" = type { %"class.base::AtomicRefCount" }
%"class.base::AtomicRefCount" = type { %"struct.std::__1::atomic" }
%"struct.std::__1::atomic" = type { %"struct.std::__1::__atomic_base" }
%"struct.std::__1::__atomic_base" = type { %"struct.std::__1::__atomic_base.0" }
%"struct.std::__1::__atomic_base.0" = type { %"struct.std::__1::__cxx_atomic_impl" }
%"struct.std::__1::__cxx_atomic_impl" = type { %"struct.std::__1::__cxx_atomic_base_impl" }
%"struct.std::__1::__cxx_atomic_base_impl" = type { i32 }
%"class.mojo::PipeControlMessageHandlerDelegate" = type { i32 (...)** }
%"class.mojo::MessageHeaderValidator" = type { %"class.mojo::MessageReceiver", %"class.std::__1::basic_string" }
%"class.std::__1::basic_string" = type { %"class.std::__1::__compressed_pair" }
%"class.std::__1::__compressed_pair" = type { %"struct.std::__1::__compressed_pair_elem" }
%"struct.std::__1::__compressed_pair_elem" = type { %"struct.std::__1::basic_string<char, std::__1::char_traits<char>, std::__1::allocator<char> >::__rep" }
%"struct.std::__1::basic_string<char, std::__1::char_traits<char>, std::__1::allocator<char> >::__rep" = type { %union.anon }
%union.anon = type { %"struct.std::__1::basic_string<char, std::__1::char_traits<char>, std::__1::allocator<char> >::__long" }
%"struct.std::__1::basic_string<char, std::__1::char_traits<char>, std::__1::allocator<char> >::__long" = type { i8*, i64, i64 }
%"class.mojo::MessageDispatcher" = type { %"class.mojo::MessageReceiver", %"class.std::__1::unique_ptr", %"class.std::__1::unique_ptr.7", %"class.mojo::MessageReceiver"*, %"class.base::WeakPtrFactory" }
%"class.std::__1::unique_ptr" = type { %"class.std::__1::__compressed_pair.4" }
%"class.std::__1::__compressed_pair.4" = type { %"struct.std::__1::__compressed_pair_elem.5" }
%"struct.std::__1::__compressed_pair_elem.5" = type { %"class.mojo::MessageReceiver"* }
%"class.std::__1::unique_ptr.7" = type { %"class.std::__1::__compressed_pair.8" }
%"class.std::__1::__compressed_pair.8" = type { %"struct.std::__1::__compressed_pair_elem.9" }
%"struct.std::__1::__compressed_pair_elem.9" = type { %"class.mojo::MessageFilter"* }
%"class.mojo::MessageFilter" = type { i32 (...)** }
%"class.base::WeakPtrFactory" = type { %"class.base::internal::WeakPtrFactoryBase" }
%"class.base::internal::WeakPtrFactoryBase" = type { %"class.base::internal::WeakReferenceOwner", i64 }
%"class.base::internal::WeakReferenceOwner" = type { %class.scoped_refptr.13 }
%class.scoped_refptr.13 = type { %"class.base::internal::WeakReference::Flag"* }
%"class.base::internal::WeakReference::Flag" = type <{ %"class.base::RefCountedThreadSafe.14", %"class.base::AtomicFlag", [3 x i8] }>
%"class.base::RefCountedThreadSafe.14" = type { %"class.base::subtle::RefCountedThreadSafeBase" }
%"class.base::AtomicFlag" = type { %"struct.std::__1::atomic.15" }
%"struct.std::__1::atomic.15" = type { %"struct.std::__1::__atomic_base.16" }
%"struct.std::__1::__atomic_base.16" = type { %"struct.std::__1::__atomic_base.17" }
%"struct.std::__1::__atomic_base.17" = type { %"struct.std::__1::__cxx_atomic_impl.18" }
%"struct.std::__1::__cxx_atomic_impl.18" = type { %"struct.std::__1::__cxx_atomic_base_impl.19" }
%"struct.std::__1::__cxx_atomic_base_impl.19" = type { i8 }
%"class.mojo::Connector" = type { %"class.mojo::MessageReceiver", %"class.base::OnceCallback", %"class.mojo::ScopedHandleBase", %"class.mojo::MessageReceiver"*, %class.scoped_refptr.1, %"class.std::__1::unique_ptr.22", %"class.absl::optional", %"struct.std::__1::atomic.33", i8, i8, i8, i8, i32, i32, %"class.absl::optional.37", %"class.std::__1::unique_ptr.42", i8, i64, %class.scoped_refptr.71, %"class.base::Lock", i8, i8*, %"class.mojo::Connector::RunLoopNestingObserver"*, i8, i64, %"class.mojo::ConnectionGroup::Ref", %"class.base::WeakPtr", %"class.base::WeakPtrFactory.74" }
%"class.base::OnceCallback" = type { %"class.base::internal::CallbackBase" }
%"class.base::internal::CallbackBase" = type { %class.scoped_refptr.20 }
%class.scoped_refptr.20 = type { %"class.base::internal::BindStateBase"* }
%"class.base::internal::BindStateBase" = type { %"class.base::RefCountedThreadSafe.21", void ()*, void (%"class.base::internal::BindStateBase"*)*, i1 (%"class.base::internal::BindStateBase"*, i32)* }
%"class.base::RefCountedThreadSafe.21" = type { %"class.base::subtle::RefCountedThreadSafeBase" }
%"class.std::__1::unique_ptr.22" = type { %"class.std::__1::__compressed_pair.23" }
%"class.std::__1::__compressed_pair.23" = type { %"struct.std::__1::__compressed_pair_elem.24" }
%"struct.std::__1::__compressed_pair_elem.24" = type { %"class.mojo::SimpleWatcher"* }
%"class.mojo::SimpleWatcher" = type { i32, %class.scoped_refptr.1, i8, %"class.mojo::ScopedHandleBase.25", %class.scoped_refptr.26, %"class.mojo::Handle", i32, %"class.base::RepeatingCallback", i8*, %"class.base::WeakPtrFactory.27" }
%"class.mojo::ScopedHandleBase.25" = type { %"class.mojo::TrapHandle" }
%"class.mojo::TrapHandle" = type { %"class.mojo::Handle" }
%class.scoped_refptr.26 = type { %"class.mojo::SimpleWatcher::Context"* }
%"class.mojo::SimpleWatcher::Context" = type opaque
%"class.mojo::Handle" = type { i32 }
%"class.base::RepeatingCallback" = type { %"class.base::internal::CallbackBaseCopyable" }
%"class.base::internal::CallbackBaseCopyable" = type { %"class.base::internal::CallbackBase" }
%"class.base::WeakPtrFactory.27" = type { %"class.base::internal::WeakPtrFactoryBase" }
%"class.absl::optional" = type { %"class.absl::optional_internal::optional_data" }
%"class.absl::optional_internal::optional_data" = type { %"class.absl::optional_internal::optional_data_base" }
%"class.absl::optional_internal::optional_data_base" = type { %"class.absl::optional_internal::optional_data_dtor_base" }
%"class.absl::optional_internal::optional_data_dtor_base" = type { i8, %union.anon.31 }
%union.anon.31 = type { %"class.mojo::HandleSignalTracker" }
%"class.mojo::HandleSignalTracker" = type { %"class.base::RepeatingCallback.32", %"struct.mojo::HandleSignalsState", %"class.mojo::SimpleWatcher", %"class.mojo::SimpleWatcher" }
%"class.base::RepeatingCallback.32" = type { %"class.base::internal::CallbackBaseCopyable" }
%"struct.mojo::HandleSignalsState" = type { %struct.MojoHandleSignalsState }
%struct.MojoHandleSignalsState = type { i32, i32 }
%"struct.std::__1::atomic.33" = type { %"struct.std::__1::__atomic_base.34" }
%"struct.std::__1::__atomic_base.34" = type { %"struct.std::__1::__cxx_atomic_impl.35" }
%"struct.std::__1::__cxx_atomic_impl.35" = type { %"struct.std::__1::__cxx_atomic_base_impl.36" }
%"struct.std::__1::__cxx_atomic_base_impl.36" = type { i8 }
%"class.std::__1::unique_ptr.42" = type { %"class.std::__1::__compressed_pair.43" }
%"class.std::__1::__compressed_pair.43" = type { %"struct.std::__1::__compressed_pair_elem.44" }
%"struct.std::__1::__compressed_pair_elem.44" = type { %"class.mojo::SyncHandleWatcher"* }
%"class.mojo::SyncHandleWatcher" = type { %"class.mojo::Handle", i32, %"class.base::RepeatingCallback.45", i8, i64, %class.scoped_refptr.46, %class.scoped_refptr.67 }
%"class.base::RepeatingCallback.45" = type { %"class.base::internal::CallbackBaseCopyable" }
%class.scoped_refptr.46 = type { %"class.mojo::SyncHandleRegistry"* }
%"class.mojo::SyncHandleRegistry" = type <{ %"class.base::RefCounted", [4 x i8], %"class.mojo::WaitSet", %"class.std::__1::map", %"class.std::__1::map.56", i8, [7 x i8] }>
%"class.base::RefCounted" = type { %"class.base::subtle::RefCountedBase" }
%"class.base::subtle::RefCountedBase" = type { i32 }
%"class.mojo::WaitSet" = type { %class.scoped_refptr.47 }
%class.scoped_refptr.47 = type { %"class.mojo::WaitSet::State"* }
%"class.mojo::WaitSet::State" = type opaque
%"class.std::__1::map" = type { %"class.std::__1::__tree" }
%"class.std::__1::__tree" = type { %"class.std::__1::__tree_end_node"*, %"class.std::__1::__compressed_pair.48", %"class.std::__1::__compressed_pair.53" }
%"class.std::__1::__tree_end_node" = type { %"class.std::__1::__tree_node_base"* }
%"class.std::__1::__tree_node_base" = type <{ %"class.std::__1::__tree_end_node", %"class.std::__1::__tree_node_base"*, %"class.std::__1::__tree_end_node"*, i8, [7 x i8] }>
%"class.std::__1::__compressed_pair.48" = type { %"struct.std::__1::__compressed_pair_elem.49" }
%"struct.std::__1::__compressed_pair_elem.49" = type { %"class.std::__1::__tree_end_node" }
%"class.std::__1::__compressed_pair.53" = type { %"struct.std::__1::__compressed_pair_elem.54" }
%"struct.std::__1::__compressed_pair_elem.54" = type { i64 }
%"class.std::__1::map.56" = type { %"class.std::__1::__tree.57" }
%"class.std::__1::__tree.57" = type { %"class.std::__1::__tree_end_node"*, %"class.std::__1::__compressed_pair.58", %"class.std::__1::__compressed_pair.62" }
%"class.std::__1::__compressed_pair.58" = type { %"struct.std::__1::__compressed_pair_elem.49" }
%"class.std::__1::__compressed_pair.62" = type { %"struct.std::__1::__compressed_pair_elem.54" }
%class.scoped_refptr.67 = type { %"class.base::RefCountedData"* }
%"class.base::RefCountedData" = type opaque
%class.scoped_refptr.71 = type { %"class.mojo::internal::MessageQuotaChecker"* }
%"class.mojo::internal::MessageQuotaChecker" = type opaque
%"class.base::Lock" = type { %"class.base::internal::LockImpl" }
%"class.base::internal::LockImpl" = type { %union.pthread_mutex_t }
%union.pthread_mutex_t = type { %struct.__pthread_mutex_s }
%struct.__pthread_mutex_s = type { i32, i32, i32, i32, i32, i16, i16, %struct.__pthread_internal_list }
%struct.__pthread_internal_list = type { %struct.__pthread_internal_list*, %struct.__pthread_internal_list* }
%"class.mojo::Connector::RunLoopNestingObserver" = type opaque
%"class.mojo::ConnectionGroup::Ref" = type { i32, %class.scoped_refptr.72 }
%class.scoped_refptr.72 = type { %"class.mojo::ConnectionGroup"* }
%"class.mojo::ConnectionGroup" = type <{ i32 (...)**, %"class.base::RefCountedThreadSafe.164", [4 x i8], %"class.base::RepeatingCallback.115", %class.scoped_refptr.1, %"class.mojo::ConnectionGroup::Ref", %"struct.std::__1::atomic.165", [4 x i8] }>
%"class.base::RefCountedThreadSafe.164" = type { %"class.base::subtle::RefCountedThreadSafeBase" }
%"class.base::RepeatingCallback.115" = type { %"class.base::internal::CallbackBaseCopyable" }
%"struct.std::__1::atomic.165" = type { %"struct.std::__1::__atomic_base.166" }
%"struct.std::__1::__atomic_base.166" = type { %"struct.std::__1::__atomic_base.167" }
%"struct.std::__1::__atomic_base.167" = type { %"struct.std::__1::__cxx_atomic_impl.168" }
%"struct.std::__1::__cxx_atomic_impl.168" = type { %"struct.std::__1::__cxx_atomic_base_impl.169" }
%"struct.std::__1::__cxx_atomic_base_impl.169" = type { i32 }
%"class.base::WeakPtr" = type { %"class.base::internal::WeakPtrBase" }
%"class.base::internal::WeakPtrBase" = type { %"class.base::internal::WeakReference", i64 }
%"class.base::internal::WeakReference" = type { %class.scoped_refptr.73 }
%class.scoped_refptr.73 = type { %"class.base::internal::WeakReference::Flag"* }
%"class.base::WeakPtrFactory.74" = type { %"class.base::internal::WeakPtrFactoryBase" }
%"class.mojo::ScopedHandleBase" = type { %"class.mojo::MessagePipeHandle" }
%"class.mojo::MessagePipeHandle" = type { %"class.mojo::Handle" }
%"class.absl::optional.75" = type { %"class.absl::optional_internal::optional_data.76" }
%"class.absl::optional_internal::optional_data.76" = type { %"class.absl::optional_internal::optional_data_base.77" }
%"class.absl::optional_internal::optional_data_base.77" = type { %"class.absl::optional_internal::optional_data_dtor_base.78" }
%"class.absl::optional_internal::optional_data_dtor_base.78" = type { i8, %union.anon.79 }
%union.anon.79 = type { %"class.mojo::SimpleWatcher" }
%"class.absl::optional.80" = type { %"class.absl::optional_internal::optional_data.81" }
%"class.absl::optional_internal::optional_data.81" = type { %"class.absl::optional_internal::optional_data_base.82" }
%"class.absl::optional_internal::optional_data_base.82" = type { %"class.absl::optional_internal::optional_data_dtor_base.83" }
%"class.absl::optional_internal::optional_data_dtor_base.83" = type { i8, [7 x i8], %union.anon.84 }
%union.anon.84 = type { %"struct.mojo::internal::MultiplexRouter::ExclusiveSyncWaitInfo" }
%"struct.mojo::internal::MultiplexRouter::ExclusiveSyncWaitInfo" = type <{ i32, [4 x i8], i64, i8, [7 x i8] }>
%"class.absl::optional.37" = type { %"class.absl::optional_internal::optional_data.38" }
%"class.absl::optional_internal::optional_data.38" = type { %"class.absl::optional_internal::optional_data_base.39" }
%"class.absl::optional_internal::optional_data_base.39" = type { %"class.absl::optional_internal::optional_data_dtor_base.40" }
%"class.absl::optional_internal::optional_data_dtor_base.40" = type { i8, %union.anon.41 }
%union.anon.41 = type { %"class.base::Lock" }
%"class.mojo::PipeControlMessageHandler" = type { %"class.mojo::MessageReceiver", %"class.std::__1::basic_string", %"class.mojo::PipeControlMessageHandlerDelegate"* }
%"class.mojo::PipeControlMessageProxy" = type { %"class.mojo::MessageReceiver"* }
%"class.base::small_map" = type { i64, %"class.base::internal::small_map_default_init", %union.anon.89 }
%"class.base::internal::small_map_default_init" = type { i8 }
%union.anon.89 = type { %"class.std::__1::map.91" }
%"class.std::__1::map.91" = type { %"class.std::__1::__tree.92" }
%"class.std::__1::__tree.92" = type { %"class.std::__1::__tree_end_node"*, %"class.std::__1::__compressed_pair.93", %"class.std::__1::__compressed_pair.97" }
%"class.std::__1::__compressed_pair.93" = type { %"struct.std::__1::__compressed_pair_elem.49" }
%"class.std::__1::__compressed_pair.97" = type { %"struct.std::__1::__compressed_pair_elem.54" }
%"class.base::circular_deque" = type { %"class.base::internal::VectorBuffer", i64, i64 }
%"class.base::internal::VectorBuffer" = type { %"class.std::__1::unique_ptr.102"*, i64 }
%"class.std::__1::unique_ptr.102" = type opaque
%"class.std::__1::map.103" = type { %"class.std::__1::__tree.104" }
%"class.std::__1::__tree.104" = type { %"class.std::__1::__tree_end_node"*, %"class.std::__1::__compressed_pair.105", %"class.std::__1::__compressed_pair.109" }
%"class.std::__1::__compressed_pair.105" = type { %"struct.std::__1::__compressed_pair_elem.49" }
%"class.std::__1::__compressed_pair.109" = type { %"struct.std::__1::__compressed_pair_elem.54" }
%class.scoped_refptr.1 = type { %"class.base::SequencedTaskRunner"* }
%"class.base::SequencedTaskRunner" = type { %"class.base::TaskRunner.base", [4 x i8] }
%"class.base::TaskRunner.base" = type <{ i32 (...)**, %"class.base::RefCountedThreadSafe.2" }>
%"class.base::RefCountedThreadSafe.2" = type { %"class.base::subtle::RefCountedThreadSafeBase" }
%"class.std::__1::unique_ptr.112" = type { %"class.std::__1::__compressed_pair.113" }
%"class.std::__1::__compressed_pair.113" = type { %"struct.std::__1::__compressed_pair_elem.114" }
%"struct.std::__1::__compressed_pair_elem.114" = type { %"class.mojo::InterfaceEndpointClient"* }
%"class.mojo::InterfaceEndpointClient" = type { %"class.mojo::MessageReceiverWithResponder", i8, %"class.base::RepeatingCallback.115", %"class.base::OnceCallback.116", %"class.absl::optional.117", %"class.absl::optional.122", %"class.mojo::ConnectionGroup::Ref", i32, %"class.mojo::ScopedInterfaceEndpointHandle", %"class.std::__1::unique_ptr.129", %"class.mojo::InterfaceEndpointController"*, %"class.mojo::MessageReceiverWithResponderStatus"*, %"class.mojo::InterfaceEndpointClient::HandleIncomingMessageThunk", %"class.mojo::MessageDispatcher", %"class.std::__1::map.137", %"class.std::__1::map.148", i64, %"class.base::OnceCallback", %"class.base::OnceCallback.157", i8, %class.scoped_refptr.1, %"class.mojo::internal::ControlMessageProxy", %"class.mojo::internal::ControlMessageHandler", i8*, %"class.base::WeakPtrFactory.158" }
%"class.mojo::MessageReceiverWithResponder" = type { %"class.mojo::MessageReceiver" }
%"class.base::OnceCallback.116" = type { %"class.base::internal::CallbackBase" }
%"class.absl::optional.117" = type { %"class.absl::optional_internal::optional_data.118" }
%"class.absl::optional_internal::optional_data.118" = type { %"class.absl::optional_internal::optional_data_base.119" }
%"class.absl::optional_internal::optional_data_base.119" = type { %"class.absl::optional_internal::optional_data_dtor_base.120" }
%"class.absl::optional_internal::optional_data_dtor_base.120" = type { i8, %union.anon.121 }
%union.anon.121 = type { %"class.base::TimeDelta" }
%"class.base::TimeDelta" = type { i64 }
%"class.absl::optional.122" = type { %"class.absl::optional_internal::optional_data.123" }
%"class.absl::optional_internal::optional_data.123" = type { %"class.absl::optional_internal::optional_data_base.124" }
%"class.absl::optional_internal::optional_data_base.124" = type { %"class.absl::optional_internal::optional_data_dtor_base.125" }
%"class.absl::optional_internal::optional_data_dtor_base.125" = type { i8, %union.anon.126 }
%union.anon.126 = type { %"class.base::OneShotTimer" }
%"class.base::OneShotTimer" = type { %"class.base::internal::TimerBase", %"class.base::OnceCallback" }
%"class.base::internal::TimerBase" = type { i32 (...)**, %class.scoped_refptr.1, %"class.base::SequenceCheckerDoNothing", %"class.base::internal::TaskDestructionDetector"*, %"class.base::Location", %"class.base::TimeDelta", %"class.base::TimeTicks", %"class.base::TimeTicks", %"class.base::TickClock"*, i8, %"class.base::WeakPtrFactory.127" }
%"class.base::SequenceCheckerDoNothing" = type { i8 }
%"class.base::internal::TaskDestructionDetector" = type opaque
%"class.base::Location" = type { i8*, i8*, i32, i8* }
%"class.base::TimeTicks" = type { %"class.base::time_internal::TimeBase" }
%"class.base::time_internal::TimeBase" = type { i64 }
%"class.base::TickClock" = type { i32 (...)** }
%"class.base::WeakPtrFactory.127" = type { %"class.base::internal::WeakPtrFactoryBase" }
%"class.mojo::ScopedInterfaceEndpointHandle" = type { %class.scoped_refptr.128 }
%class.scoped_refptr.128 = type { %"class.mojo::ScopedInterfaceEndpointHandle::State"* }
%"class.mojo::ScopedInterfaceEndpointHandle::State" = type opaque
%"class.std::__1::unique_ptr.129" = type { %"class.std::__1::__compressed_pair.130" }
%"class.std::__1::__compressed_pair.130" = type { %"struct.std::__1::__compressed_pair_elem.131" }
%"struct.std::__1::__compressed_pair_elem.131" = type { %"class.mojo::AssociatedGroup"* }
%"class.mojo::AssociatedGroup" = type { %"class.base::RepeatingCallback.132", %class.scoped_refptr.133 }
%"class.base::RepeatingCallback.132" = type { %"class.base::internal::CallbackBaseCopyable" }
%class.scoped_refptr.133 = type { %"class.mojo::AssociatedGroupController"* }
%"class.mojo::AssociatedGroupController" = type <{ i32 (...)**, %"class.base::RefCountedThreadSafe", [4 x i8] }>
%"class.mojo::InterfaceEndpointController" = type opaque
%"class.mojo::MessageReceiverWithResponderStatus" = type { %"class.mojo::MessageReceiver" }
%"class.mojo::InterfaceEndpointClient::HandleIncomingMessageThunk" = type { %"class.mojo::MessageReceiver", %"class.mojo::InterfaceEndpointClient"* }
%"class.std::__1::map.137" = type { %"class.std::__1::__tree.138" }
%"class.std::__1::__tree.138" = type { %"class.std::__1::__tree_end_node"*, %"class.std::__1::__compressed_pair.139", %"class.std::__1::__compressed_pair.143" }
%"class.std::__1::__compressed_pair.139" = type { %"struct.std::__1::__compressed_pair_elem.49" }
%"class.std::__1::__compressed_pair.143" = type { %"struct.std::__1::__compressed_pair_elem.54" }
%"class.std::__1::map.148" = type { %"class.std::__1::__tree.149" }
%"class.std::__1::__tree.149" = type { %"class.std::__1::__tree_end_node"*, %"class.std::__1::__compressed_pair.150", %"class.std::__1::__compressed_pair.154" }
%"class.std::__1::__compressed_pair.150" = type { %"struct.std::__1::__compressed_pair_elem.49" }
%"class.std::__1::__compressed_pair.154" = type { %"struct.std::__1::__compressed_pair_elem.54" }
%"class.base::OnceCallback.157" = type { %"class.base::internal::CallbackBase" }
%"class.mojo::internal::ControlMessageProxy" = type { %"class.mojo::InterfaceEndpointClient"*, i8, %"class.base::OnceCallback" }
%"class.mojo::internal::ControlMessageHandler" = type <{ %"class.mojo::MessageReceiverWithResponderStatus", %"class.mojo::InterfaceEndpointClient"*, i32, [4 x i8] }>
%"class.base::WeakPtrFactory.158" = type { %"class.base::internal::WeakPtrFactoryBase" }
%"class.base::WeakPtrFactory.162" = type { %"class.base::internal::WeakPtrFactoryBase" }
%"class.network::mojom::ProxyLookupClientStub" = type { %"class.mojo::MessageReceiverWithResponderStatus", %"class.network::mojom::ProxyLookupClient"* }
%"class.base::OnceCallback.163" = type { %"class.base::internal::CallbackBase" }
%class.GURL = type { %"class.std::__1::basic_string", i8, %"struct.url::Parsed", %"class.std::__1::unique_ptr.170" }
%"struct.url::Parsed" = type { %"struct.url::Component", %"struct.url::Component", %"struct.url::Component", %"struct.url::Component", %"struct.url::Component", %"struct.url::Component", %"struct.url::Component", %"struct.url::Component", i8, %"struct.url::Parsed"* }
%"struct.url::Component" = type { i32, i32 }
%"class.std::__1::unique_ptr.170" = type { %"class.std::__1::__compressed_pair.171" }
%"class.std::__1::__compressed_pair.171" = type { %"struct.std::__1::__compressed_pair_elem.172" }
%"struct.std::__1::__compressed_pair_elem.172" = type { %class.GURL* }
%"class.net::NetworkIsolationKey" = type { i8, %"class.absl::optional.176", %"class.absl::optional.176" }
%"class.absl::optional.176" = type { %"class.absl::optional_internal::optional_data.177" }
%"class.absl::optional_internal::optional_data.177" = type { %"class.absl::optional_internal::optional_data_base.178" }
%"class.absl::optional_internal::optional_data_base.178" = type { %"class.absl::optional_internal::optional_data_dtor_base.179" }
%"class.absl::optional_internal::optional_data_dtor_base.179" = type { i8, %union.anon.180 }
%union.anon.180 = type { %"class.net::SchemefulSite" }
%"class.net::SchemefulSite" = type { %"class.url::Origin" }
%"class.url::Origin" = type { %"class.url::SchemeHostPort", %"class.absl::optional.181" }
%"class.url::SchemeHostPort" = type <{ %"class.std::__1::basic_string", %"class.std::__1::basic_string", i16, [6 x i8] }>
%"class.absl::optional.181" = type { %"class.absl::optional_internal::optional_data.182" }
%"class.absl::optional_internal::optional_data.182" = type { %"class.absl::optional_internal::optional_data_base.183" }
%"class.absl::optional_internal::optional_data_base.183" = type { %"class.absl::optional_internal::optional_data_dtor_base.184" }
%"class.absl::optional_internal::optional_data_dtor_base.184" = type { i8, %union.anon.185 }
%union.anon.185 = type { %"class.url::Origin::Nonce" }
%"class.url::Origin::Nonce" = type { %"class.base::UnguessableToken" }
%"class.base::UnguessableToken" = type { %"class.base::Token" }
%"class.base::Token" = type { i64, i64 }
%"class.network::mojom::NetworkContext" = type { i32 (...)** }
%"class.mojo::PendingRemote" = type { %"struct.mojo::internal::PendingRemoteState" }
%"struct.mojo::internal::PendingRemoteState" = type { %"class.mojo::ScopedHandleBase", i32 }
%"class.base::SingleThreadTaskRunner" = type { %"class.base::SequencedTaskRunner.base", [4 x i8] }
%"class.base::SequencedTaskRunner.base" = type { %"class.base::TaskRunner.base" }
%"class.content::BrowserTaskTraits" = type { %"class.base::TaskTraits" }
%"class.base::TaskTraits" = type { %"struct.base::TaskTraitsExtensionStorage", i8, i8, i8, i8, i8, i8 }
%"class.mojo::PendingReceiver" = type { %"struct.mojo::internal::PendingReceiverState" }
%"struct.mojo::internal::PendingReceiverState" = type { %"class.mojo::ScopedHandleBase", %"class.mojo::ConnectionGroup::Ref" }
%struct.MojoCreateMessagePipeOptions = type { i32, i32 }
%"class.base::TaskRunner" = type <{ i32 (...)**, %"class.base::RefCountedThreadSafe.2", [4 x i8] }>
%"class.absl::optional.187" = type { %"class.absl::optional_internal::optional_data.188" }
%"class.absl::optional_internal::optional_data.188" = type { %"class.absl::optional_internal::optional_data_base.189" }
%"class.absl::optional_internal::optional_data_base.189" = type { %"class.absl::optional_internal::optional_data_dtor_base.190" }
%"class.absl::optional_internal::optional_data_dtor_base.190" = type { i8, %union.anon.191 }
%union.anon.191 = type { %"class.net::ProxyInfo" }
%"class.net::ProxyInfo" = type { %"class.net::ProxyList", %"class.std::__1::map.197", %"struct.net::MutableNetworkTrafficAnnotationTag", i8, %"class.base::TimeTicks", %"class.base::TimeTicks" }
%"class.net::ProxyList" = type { %"class.std::__1::vector" }
%"class.std::__1::vector" = type { %"class.std::__1::__vector_base" }
%"class.std::__1::__vector_base" = type { %"class.net::ProxyServer"*, %"class.net::ProxyServer"*, %"class.std::__1::__compressed_pair.192" }
%"class.net::ProxyServer" = type { i32, [4 x i8], %"class.net::HostPortPair" }
%"class.net::HostPortPair" = type <{ %"class.std::__1::basic_string", i16, [6 x i8] }>
%"class.std::__1::__compressed_pair.192" = type { %"struct.std::__1::__compressed_pair_elem.193" }
%"struct.std::__1::__compressed_pair_elem.193" = type { %"class.net::ProxyServer"* }
%"class.std::__1::map.197" = type { %"class.std::__1::__tree.198" }
%"class.std::__1::__tree.198" = type { %"class.std::__1::__tree_end_node"*, %"class.std::__1::__compressed_pair.199", %"class.std::__1::__compressed_pair.203" }
%"class.std::__1::__compressed_pair.199" = type { %"struct.std::__1::__compressed_pair_elem.49" }
%"class.std::__1::__compressed_pair.203" = type { %"struct.std::__1::__compressed_pair_elem.54" }
%"struct.net::MutableNetworkTrafficAnnotationTag" = type { i32 }
%"class.mojo::Message" = type { %"class.mojo::ScopedHandleBase.208", %"class.mojo::internal::Buffer", %"class.std::__1::vector.209", %"class.std::__1::vector.217", %"class.mojo::ConnectionGroup::Ref"*, i8, i8, i8* }
%"class.mojo::ScopedHandleBase.208" = type { %"class.mojo::MessageHandle" }
%"class.mojo::MessageHandle" = type { i64 }
%"class.mojo::internal::Buffer" = type { %"class.mojo::MessageHandle", i64, i8*, i64, i64 }
%"class.std::__1::vector.209" = type { %"class.std::__1::__vector_base.210" }
%"class.std::__1::__vector_base.210" = type { %"class.mojo::ScopedHandleBase.211"*, %"class.mojo::ScopedHandleBase.211"*, %"class.std::__1::__compressed_pair.212" }
%"class.mojo::ScopedHandleBase.211" = type { %"class.mojo::Handle" }
%"class.std::__1::__compressed_pair.212" = type { %"struct.std::__1::__compressed_pair_elem.213" }
%"struct.std::__1::__compressed_pair_elem.213" = type { %"class.mojo::ScopedHandleBase.211"* }
%"class.std::__1::vector.217" = type { %"class.std::__1::__vector_base.218" }
%"class.std::__1::__vector_base.218" = type { %"class.mojo::ScopedInterfaceEndpointHandle"*, %"class.mojo::ScopedInterfaceEndpointHandle"*, %"class.std::__1::__compressed_pair.219" }
%"class.std::__1::__compressed_pair.219" = type { %"struct.std::__1::__compressed_pair_elem.220" }
%"struct.std::__1::__compressed_pair_elem.220" = type { %"class.mojo::ScopedInterfaceEndpointHandle"* }
%"class.mojo::MessageReceiverWithStatus" = type { %"class.mojo::MessageReceiver" }

$_ZN4mojo8ReceiverIN7network5mojom17ProxyLookupClientENS_19RawPtrImplRefTraitsIS3_EEE24BindNewPipeAndPassRemoteE13scoped_refptrIN4base19SequencedTaskRunnerEE = comdat any

$_ZN4mojo15MessageReceiverD2Ev = comdat any

$_ZN7network5mojom21ProxyLookupClientStubIN4mojo19RawPtrImplRefTraitsINS0_17ProxyLookupClientEEEED0Ev = comdat any

$_ZN7network5mojom21ProxyLookupClientStubIN4mojo19RawPtrImplRefTraitsINS0_17ProxyLookupClientEEEE6AcceptEPNS2_7MessageE = comdat any

$_ZN7network5mojom21ProxyLookupClientStubIN4mojo19RawPtrImplRefTraitsINS0_17ProxyLookupClientEEEE19AcceptWithResponderEPNS2_7MessageENSt3__110unique_ptrINS2_25MessageReceiverWithStatusENS9_14default_deleteISB_EEEE = comdat any

$_ZN4mojo8internal12BindingStateIN7network5mojom17ProxyLookupClientENS_19RawPtrImplRefTraitsIS4_EEE4BindEPNS0_20PendingReceiverStateE13scoped_refptrIN4base19SequencedTaskRunnerEE = comdat any

$_ZN4base8internal7InvokerINS0_9BindStateIMN10predictors21ProxyLookupClientImplEFviRKN4absl8optionalIN3net9ProxyInfoEEEEJNS0_17UnretainedWrapperIS4_EENS7_5ErrorENS5_9nullopt_tEEEEFvvEE7RunOnceEPNS0_13BindStateBaseE = comdat any

$_ZN4base8internal9BindStateIMN10predictors21ProxyLookupClientImplEFviRKN4absl8optionalIN3net9ProxyInfoEEEEJNS0_17UnretainedWrapperIS3_EENS6_5ErrorENS4_9nullopt_tEEE7DestroyEPKNS0_13BindStateBaseE = comdat any

$_ZTVN7network5mojom21ProxyLookupClientStubIN4mojo19RawPtrImplRefTraitsINS0_17ProxyLookupClientEEEEE = comdat any

@_ZTVN10predictors21ProxyLookupClientImplE = hidden unnamed_addr constant { [5 x i8*] } { [5 x i8*] [i8* null, i8* null, i8* bitcast (void (%"class.predictors::ProxyLookupClientImpl"*)* @_ZN10predictors21ProxyLookupClientImplD2Ev to i8*), i8* bitcast (void (%"class.predictors::ProxyLookupClientImpl"*)* @_ZN10predictors21ProxyLookupClientImplD0Ev to i8*), i8* bitcast (void (%"class.predictors::ProxyLookupClientImpl"*, i32, %"class.absl::optional.187"*)* @_ZN10predictors21ProxyLookupClientImpl21OnProxyLookupCompleteEiRKN4absl8optionalIN3net9ProxyInfoEEE to i8*)] }, align 8
@.ref.tmp = private constant { %"struct.base::TaskTraitsExtensionStorage", i8, i8, i8, i8, i8, i8 } { %"struct.base::TaskTraitsExtensionStorage" { i8 1, %"struct.std::__1::array" { [8 x i8] c"\02\02\01\00\00\00\00\00" } }, i8 2, i8 1, i8 0, i8 0, i8 0, i8 0 }, align 1
@_ZTVN7network5mojom21ProxyLookupClientStubIN4mojo19RawPtrImplRefTraitsINS0_17ProxyLookupClientEEEEE = linkonce_odr hidden unnamed_addr constant { [7 x i8*] } { [7 x i8*] [i8* null, i8* null, i8* bitcast (void (%"class.mojo::MessageReceiver"*)* @_ZN4mojo15MessageReceiverD2Ev to i8*), i8* bitcast (void (%"class.network::mojom::ProxyLookupClientStub"*)* @_ZN7network5mojom21ProxyLookupClientStubIN4mojo19RawPtrImplRefTraitsINS0_17ProxyLookupClientEEEED0Ev to i8*), i8* bitcast (i1 (%"class.mojo::MessageReceiver"*)* @_ZN4mojo15MessageReceiver25PrefersSerializedMessagesEv to i8*), i8* bitcast (i1 (%"class.network::mojom::ProxyLookupClientStub"*, %"class.mojo::Message"*)* @_ZN7network5mojom21ProxyLookupClientStubIN4mojo19RawPtrImplRefTraitsINS0_17ProxyLookupClientEEEE6AcceptEPNS2_7MessageE to i8*), i8* bitcast (i1 (%"class.network::mojom::ProxyLookupClientStub"*, %"class.mojo::Message"*, %"class.mojo::MessageReceiverWithStatus"*)* @_ZN7network5mojom21ProxyLookupClientStubIN4mojo19RawPtrImplRefTraitsINS0_17ProxyLookupClientEEEE19AcceptWithResponderEPNS2_7MessageENSt3__110unique_ptrINS2_25MessageReceiverWithStatusENS9_14default_deleteISB_EEEE to i8*)] }, comdat, align 8
@_ZN7network5mojom17ProxyLookupClient5Name_E = external constant [0 x i8], align 1
@_ZTVN7network5mojom33ProxyLookupClientRequestValidatorE = external unnamed_addr constant { [6 x i8*] }, align 8

@_ZN10predictors21ProxyLookupClientImplC1ERK4GURLRKN3net19NetworkIsolationKeyEN4base12OnceCallbackIFvbEEEPN7network5mojom14NetworkContextE = hidden unnamed_addr alias void (%"class.predictors::ProxyLookupClientImpl"*, %class.GURL*, %"class.net::NetworkIsolationKey"*, %"class.base::OnceCallback.163"*, %"class.network::mojom::NetworkContext"*), void (%"class.predictors::ProxyLookupClientImpl"*, %class.GURL*, %"class.net::NetworkIsolationKey"*, %"class.base::OnceCallback.163"*, %"class.network::mojom::NetworkContext"*)* @_ZN10predictors21ProxyLookupClientImplC2ERK4GURLRKN3net19NetworkIsolationKeyEN4base12OnceCallbackIFvbEEEPN7network5mojom14NetworkContextE
@_ZN10predictors21ProxyLookupClientImplD1Ev = hidden unnamed_addr alias void (%"class.predictors::ProxyLookupClientImpl"*), void (%"class.predictors::ProxyLookupClientImpl"*)* @_ZN10predictors21ProxyLookupClientImplD2Ev

; Function Attrs: nounwind ssp uwtable
define hidden void @_ZN10predictors21ProxyLookupClientImplC2ERK4GURLRKN3net19NetworkIsolationKeyEN4base12OnceCallbackIFvbEEEPN7network5mojom14NetworkContextE(%"class.predictors::ProxyLookupClientImpl"*, %class.GURL* dereferenceable(120), %"class.net::NetworkIsolationKey"* dereferenceable(184), %"class.base::OnceCallback.163"* nocapture, %"class.network::mojom::NetworkContext"*) unnamed_addr #0 align 2 {
  %6 = alloca %"class.base::OnceCallback", align 8
  %7 = alloca %"class.base::OnceCallback", align 8
  %8 = alloca %"class.mojo::PendingRemote", align 4
  %9 = alloca %"class.base::OnceCallback", align 8
  %10 = getelementptr inbounds %"class.predictors::ProxyLookupClientImpl", %"class.predictors::ProxyLookupClientImpl"* %0, i64 0, i32 0, i32 0
  store i32 (...)** bitcast (i8** getelementptr inbounds ({ [5 x i8*] }, { [5 x i8*] }* @_ZTVN10predictors21ProxyLookupClientImplE, i64 0, inrange i32 0, i64 2) to i32 (...)**), i32 (...)*** %10, align 8
  %11 = getelementptr inbounds %"class.predictors::ProxyLookupClientImpl", %"class.predictors::ProxyLookupClientImpl"* %0, i64 0, i32 1
  %12 = getelementptr inbounds %"class.mojo::Receiver", %"class.mojo::Receiver"* %11, i64 0, i32 0, i32 0
  tail call void @_ZN4mojo8internal16BindingStateBaseC2Ev(%"class.mojo::internal::BindingStateBase"* %12) #6
  %13 = getelementptr inbounds %"class.predictors::ProxyLookupClientImpl", %"class.predictors::ProxyLookupClientImpl"* %0, i64 0, i32 1, i32 0, i32 1, i32 0, i32 0, i32 0
  store i32 (...)** bitcast (i8** getelementptr inbounds ({ [7 x i8*] }, { [7 x i8*] }* @_ZTVN7network5mojom21ProxyLookupClientStubIN4mojo19RawPtrImplRefTraitsINS0_17ProxyLookupClientEEEEE, i64 0, inrange i32 0, i64 2) to i32 (...)**), i32 (...)*** %13, align 8
  %14 = ptrtoint %"class.predictors::ProxyLookupClientImpl"* %0 to i64
  %15 = getelementptr inbounds %"class.predictors::ProxyLookupClientImpl", %"class.predictors::ProxyLookupClientImpl"* %0, i64 0, i32 1, i32 0, i32 1, i32 1
  %16 = bitcast %"class.network::mojom::ProxyLookupClient"** %15 to i64*
  store i64 %14, i64* %16, align 8
  %17 = getelementptr inbounds %"class.predictors::ProxyLookupClientImpl", %"class.predictors::ProxyLookupClientImpl"* %0, i64 0, i32 2
  %18 = getelementptr inbounds %"class.base::OnceCallback.163", %"class.base::OnceCallback.163"* %3, i64 0, i32 0, i32 0, i32 0
  %19 = bitcast %"class.base::OnceCallback.163"* %3 to i64*
  %20 = load i64, i64* %19, align 8
  %21 = bitcast %"class.base::OnceCallback.163"* %17 to i64*
  store i64 %20, i64* %21, align 8
  store %"class.base::internal::BindStateBase"* null, %"class.base::internal::BindStateBase"** %18, align 8
  %22 = tail call %"class.base::SingleThreadTaskRunner"* @_ZN7content21GetUIThreadTaskRunnerERKNS_17BrowserTaskTraitsE(%"class.content::BrowserTaskTraits"* dereferenceable(15) bitcast ({ %"struct.base::TaskTraitsExtensionStorage", i8, i8, i8, i8, i8, i8 }* @.ref.tmp to %"class.content::BrowserTaskTraits"*)) #6
  %23 = bitcast %"class.base::SingleThreadTaskRunner"* %22 to %"class.base::SequencedTaskRunner"*
  call void @_ZN4mojo8ReceiverIN7network5mojom17ProxyLookupClientENS_19RawPtrImplRefTraitsIS3_EEE24BindNewPipeAndPassRemoteE13scoped_refptrIN4base19SequencedTaskRunnerEE(%"class.mojo::PendingRemote"* nonnull sret %8, %"class.mojo::Receiver"* %11, %"class.base::SequencedTaskRunner"* %23)
  %24 = bitcast %"class.network::mojom::NetworkContext"* %4 to void (%"class.network::mojom::NetworkContext"*, %class.GURL*, %"class.net::NetworkIsolationKey"*, %"class.mojo::PendingRemote"*)***
  %25 = load void (%"class.network::mojom::NetworkContext"*, %class.GURL*, %"class.net::NetworkIsolationKey"*, %"class.mojo::PendingRemote"*)**, void (%"class.network::mojom::NetworkContext"*, %class.GURL*, %"class.net::NetworkIsolationKey"*, %"class.mojo::PendingRemote"*)*** %24, align 8
  %26 = getelementptr inbounds void (%"class.network::mojom::NetworkContext"*, %class.GURL*, %"class.net::NetworkIsolationKey"*, %"class.mojo::PendingRemote"*)*, void (%"class.network::mojom::NetworkContext"*, %class.GURL*, %"class.net::NetworkIsolationKey"*, %"class.mojo::PendingRemote"*)** %25, i64 38
  %27 = load void (%"class.network::mojom::NetworkContext"*, %class.GURL*, %"class.net::NetworkIsolationKey"*, %"class.mojo::PendingRemote"*)*, void (%"class.network::mojom::NetworkContext"*, %class.GURL*, %"class.net::NetworkIsolationKey"*, %"class.mojo::PendingRemote"*)** %26, align 8
  call void %27(%"class.network::mojom::NetworkContext"* %4, %class.GURL* dereferenceable(120) %1, %"class.net::NetworkIsolationKey"* dereferenceable(184) %2, %"class.mojo::PendingRemote"* nonnull %8) #6
  %28 = getelementptr inbounds %"class.mojo::PendingRemote", %"class.mojo::PendingRemote"* %8, i64 0, i32 0
  call void @_ZN4mojo8internal18PendingRemoteStateD1Ev(%"struct.mojo::internal::PendingRemoteState"* nonnull %28) #6
  %29 = call i8* @_Znwm(i64 64) #7, !noalias !2
  %30 = bitcast i8* %29 to %"class.base::internal::BindStateBase"*
  call void @_ZN4base8internal13BindStateBaseC2EPFvvEPFvPKS1_E(%"class.base::internal::BindStateBase"* nonnull %30, void ()* bitcast (void (%"class.base::internal::BindStateBase"*)* @_ZN4base8internal7InvokerINS0_9BindStateIMN10predictors21ProxyLookupClientImplEFviRKN4absl8optionalIN3net9ProxyInfoEEEEJNS0_17UnretainedWrapperIS4_EENS7_5ErrorENS5_9nullopt_tEEEEFvvEE7RunOnceEPNS0_13BindStateBaseE to void ()*), void (%"class.base::internal::BindStateBase"*)* nonnull @_ZN4base8internal9BindStateIMN10predictors21ProxyLookupClientImplEFviRKN4absl8optionalIN3net9ProxyInfoEEEEJNS0_17UnretainedWrapperIS3_EENS6_5ErrorENS4_9nullopt_tEEE7DestroyEPKNS0_13BindStateBaseE) #6, !noalias !2
  %31 = getelementptr inbounds i8, i8* %29, i64 32
  %32 = bitcast i8* %31 to <2 x i64>*
  store <2 x i64> <i64 17, i64 0>, <2 x i64>* %32, align 8, !noalias !2
  %33 = getelementptr inbounds i8, i8* %29, i64 48
  %34 = bitcast i8* %33 to i64*
  store i64 %14, i64* %34, align 8, !noalias !2
  %35 = getelementptr inbounds i8, i8* %29, i64 56
  %36 = bitcast i8* %35 to i32*
  store i32 -3, i32* %36, align 4, !noalias !2
  %37 = bitcast %"class.base::OnceCallback"* %7 to i8*
  call void @llvm.lifetime.start.p0i8(i64 8, i8* nonnull %37)
  %38 = getelementptr inbounds %"class.base::OnceCallback", %"class.base::OnceCallback"* %9, i64 0, i32 0, i32 0, i32 0
  %39 = ptrtoint i8* %29 to i64
  store %"class.base::internal::BindStateBase"* null, %"class.base::internal::BindStateBase"** %38, align 8
  %40 = bitcast %"class.base::OnceCallback"* %6 to i8*
  call void @llvm.lifetime.start.p0i8(i64 8, i8* nonnull %40) #6
  %41 = getelementptr inbounds %"class.predictors::ProxyLookupClientImpl", %"class.predictors::ProxyLookupClientImpl"* %0, i64 0, i32 1, i32 0, i32 0, i32 1, i32 0, i32 0, i32 0
  %42 = load %"class.mojo::InterfaceEndpointClient"*, %"class.mojo::InterfaceEndpointClient"** %41, align 8
  %43 = getelementptr inbounds %"class.base::OnceCallback", %"class.base::OnceCallback"* %7, i64 0, i32 0, i32 0, i32 0
  %44 = bitcast %"class.base::OnceCallback"* %6 to i64*
  store i64 %39, i64* %44, align 8
  store %"class.base::internal::BindStateBase"* null, %"class.base::internal::BindStateBase"** %43, align 8
  %45 = getelementptr inbounds %"class.mojo::InterfaceEndpointClient", %"class.mojo::InterfaceEndpointClient"* %42, i64 0, i32 17, i32 0
  %46 = getelementptr inbounds %"class.base::OnceCallback", %"class.base::OnceCallback"* %6, i64 0, i32 0
  %47 = call dereferenceable(8) %"class.base::internal::CallbackBase"* @_ZN4base8internal12CallbackBaseaSEOS1_(%"class.base::internal::CallbackBase"* %45, %"class.base::internal::CallbackBase"* nonnull dereferenceable(8) %46) #6
  %48 = getelementptr inbounds %"class.mojo::InterfaceEndpointClient", %"class.mojo::InterfaceEndpointClient"* %42, i64 0, i32 18, i32 0
  call void @_ZN4base8internal12CallbackBase5ResetEv(%"class.base::internal::CallbackBase"* %48) #6
  call void @_ZN4base8internal12CallbackBaseD2Ev(%"class.base::internal::CallbackBase"* nonnull %46) #6
  call void @llvm.lifetime.end.p0i8(i64 8, i8* nonnull %40) #6
  %49 = getelementptr inbounds %"class.base::OnceCallback", %"class.base::OnceCallback"* %7, i64 0, i32 0
  call void @_ZN4base8internal12CallbackBaseD2Ev(%"class.base::internal::CallbackBase"* nonnull %49) #6
  call void @llvm.lifetime.end.p0i8(i64 8, i8* nonnull %37)
  %50 = getelementptr inbounds %"class.base::OnceCallback", %"class.base::OnceCallback"* %9, i64 0, i32 0
  call void @_ZN4base8internal12CallbackBaseD2Ev(%"class.base::internal::CallbackBase"* nonnull %50) #6
  ret void
}

; Function Attrs: nounwind ssp uwtable
define linkonce_odr hidden void @_ZN4mojo8ReceiverIN7network5mojom17ProxyLookupClientENS_19RawPtrImplRefTraitsIS3_EEE24BindNewPipeAndPassRemoteE13scoped_refptrIN4base19SequencedTaskRunnerEE(%"class.mojo::PendingRemote"* noalias sret, %"class.mojo::Receiver"*, %"class.base::SequencedTaskRunner"*) local_unnamed_addr #0 comdat align 2 {
  %4 = alloca %"class.mojo::ScopedHandleBase", align 4
  %5 = alloca %"class.mojo::MessagePipeHandle", align 4
  %6 = alloca %"class.mojo::MessagePipeHandle", align 4
  %7 = alloca %"class.mojo::PendingReceiver", align 8
  %8 = getelementptr inbounds %"class.mojo::PendingRemote", %"class.mojo::PendingRemote"* %0, i64 0, i32 0, i32 0, i32 0, i32 0, i32 0
  store i32 -1431655766, i32* %8, align 4
  %9 = getelementptr inbounds %"class.mojo::PendingRemote", %"class.mojo::PendingRemote"* %0, i64 0, i32 0, i32 1
  store i32 -1431655766, i32* %9, align 4
  %10 = getelementptr inbounds %"class.mojo::PendingRemote", %"class.mojo::PendingRemote"* %0, i64 0, i32 0
  tail call void @_ZN4mojo8internal18PendingRemoteStateC1Ev(%"struct.mojo::internal::PendingRemoteState"* %10) #6
  %11 = bitcast %"class.mojo::MessagePipeHandle"* %5 to i8*
  call void @llvm.lifetime.start.p0i8(i64 4, i8* nonnull %11) #6, !noalias !7
  %12 = getelementptr inbounds %"class.mojo::MessagePipeHandle", %"class.mojo::MessagePipeHandle"* %5, i64 0, i32 0, i32 0
  store i32 0, i32* %12, align 4, !noalias !7
  %13 = bitcast %"class.mojo::MessagePipeHandle"* %6 to i8*
  call void @llvm.lifetime.start.p0i8(i64 4, i8* nonnull %13) #6, !noalias !7
  %14 = getelementptr inbounds %"class.mojo::MessagePipeHandle", %"class.mojo::MessagePipeHandle"* %6, i64 0, i32 0, i32 0
  store i32 0, i32* %14, align 4, !noalias !7
  %15 = call i32 @MojoCreateMessagePipe(%struct.MojoCreateMessagePipeOptions* null, i32* nonnull %12, i32* nonnull %14) #6, !noalias !7
  %16 = load i32, i32* %12, align 4, !noalias !7
  %17 = load i32, i32* %14, align 4, !noalias !7
  %18 = load i32, i32* %8, align 4, !noalias !7
  call void @llvm.lifetime.end.p0i8(i64 4, i8* nonnull %13) #6, !noalias !7
  call void @llvm.lifetime.end.p0i8(i64 4, i8* nonnull %11) #6, !noalias !7
  %19 = icmp eq i32 %18, 0
  br i1 %19, label %22, label %20

20:                                               ; preds = %3
  %21 = call i32 @MojoClose(i32 %18) #6
  br label %22

22:                                               ; preds = %20, %3
  store i32 %16, i32* %8, align 4, !noalias !7
  %23 = bitcast %"class.mojo::ScopedHandleBase"* %4 to i8*
  call void @llvm.lifetime.start.p0i8(i64 4, i8* nonnull %23) #6, !noalias !7
  %24 = getelementptr inbounds %"class.mojo::PendingReceiver", %"class.mojo::PendingReceiver"* %7, i64 0, i32 0
  %25 = getelementptr inbounds %"class.mojo::ScopedHandleBase", %"class.mojo::ScopedHandleBase"* %4, i64 0, i32 0, i32 0, i32 0
  store i32 %17, i32* %25, align 4, !alias.scope !10, !noalias !7
  call void @_ZN4mojo8internal20PendingReceiverStateC1ENS_16ScopedHandleBaseINS_17MessagePipeHandleEEE(%"struct.mojo::internal::PendingReceiverState"* nonnull %24, %"class.mojo::ScopedHandleBase"* nonnull %4) #6
  %26 = load i32, i32* %25, align 4, !noalias !7
  %27 = icmp eq i32 %26, 0
  br i1 %27, label %30, label %28

28:                                               ; preds = %22
  %29 = call i32 @MojoClose(i32 %26) #6
  br label %30

30:                                               ; preds = %22, %28
  call void @llvm.lifetime.end.p0i8(i64 4, i8* nonnull %23) #6, !noalias !7
  %31 = getelementptr inbounds %"class.mojo::PendingReceiver", %"class.mojo::PendingReceiver"* %7, i64 0, i32 0, i32 0, i32 0, i32 0, i32 0
  %32 = load i32, i32* %31, align 8
  %33 = icmp eq i32 %32, 0
  br i1 %33, label %36, label %34

34:                                               ; preds = %30
  %35 = getelementptr inbounds %"class.mojo::Receiver", %"class.mojo::Receiver"* %1, i64 0, i32 0
  call void @_ZN4mojo8internal12BindingStateIN7network5mojom17ProxyLookupClientENS_19RawPtrImplRefTraitsIS4_EEE4BindEPNS0_20PendingReceiverStateE13scoped_refptrIN4base19SequencedTaskRunnerEE(%"class.mojo::internal::BindingState"* %35, %"struct.mojo::internal::PendingReceiverState"* nonnull %24, %"class.base::SequencedTaskRunner"* %2) #6
  br label %47

36:                                               ; preds = %30
  %37 = getelementptr inbounds %"class.mojo::Receiver", %"class.mojo::Receiver"* %1, i64 0, i32 0, i32 0
  call void @_ZN4mojo8internal16BindingStateBase5CloseEv(%"class.mojo::internal::BindingStateBase"* %37) #6
  %38 = icmp eq %"class.base::SequencedTaskRunner"* %2, null
  br i1 %38, label %47, label %39

39:                                               ; preds = %36
  %40 = getelementptr inbounds %"class.base::SequencedTaskRunner", %"class.base::SequencedTaskRunner"* %2, i64 0, i32 0, i32 1
  %41 = getelementptr inbounds %"class.base::RefCountedThreadSafe.2", %"class.base::RefCountedThreadSafe.2"* %40, i64 0, i32 0, i32 0, i32 0, i32 0, i32 0, i32 0, i32 0, i32 0
  %42 = atomicrmw sub i32* %41, i32 1 acq_rel
  %43 = icmp eq i32 %42, 1
  br i1 %43, label %44, label %47

44:                                               ; preds = %39
  %45 = getelementptr inbounds %"class.base::RefCountedThreadSafe.2", %"class.base::RefCountedThreadSafe.2"* %40, i64 -2
  %46 = bitcast %"class.base::RefCountedThreadSafe.2"* %45 to %"class.base::TaskRunner"*
  call void @_ZN4base16TaskRunnerTraits8DestructEPKNS_10TaskRunnerE(%"class.base::TaskRunner"* %46) #6
  br label %47

47:                                               ; preds = %44, %39, %36, %34
  call void @_ZN4mojo8internal20PendingReceiverStateD1Ev(%"struct.mojo::internal::PendingReceiverState"* nonnull %24) #6
  ret void
}

; Function Attrs: argmemonly nounwind
declare void @llvm.lifetime.start.p0i8(i64 immarg, i8* nocapture) #1

declare %"class.base::SingleThreadTaskRunner"* @_ZN7content21GetUIThreadTaskRunnerERKNS_17BrowserTaskTraitsE(%"class.content::BrowserTaskTraits"* dereferenceable(15)) local_unnamed_addr #2

; Function Attrs: argmemonly nounwind
declare void @llvm.lifetime.end.p0i8(i64 immarg, i8* nocapture) #1

; Function Attrs: nounwind ssp uwtable
define hidden void @_ZN10predictors21ProxyLookupClientImplD2Ev(%"class.predictors::ProxyLookupClientImpl"*) unnamed_addr #0 align 2 {
  %2 = getelementptr inbounds %"class.predictors::ProxyLookupClientImpl", %"class.predictors::ProxyLookupClientImpl"* %0, i64 0, i32 0, i32 0
  store i32 (...)** bitcast (i8** getelementptr inbounds ({ [5 x i8*] }, { [5 x i8*] }* @_ZTVN10predictors21ProxyLookupClientImplE, i64 0, inrange i32 0, i64 2) to i32 (...)**), i32 (...)*** %2, align 8
  %3 = getelementptr inbounds %"class.predictors::ProxyLookupClientImpl", %"class.predictors::ProxyLookupClientImpl"* %0, i64 0, i32 2, i32 0
  tail call void @_ZN4base8internal12CallbackBaseD2Ev(%"class.base::internal::CallbackBase"* %3) #6
  %4 = getelementptr inbounds %"class.predictors::ProxyLookupClientImpl", %"class.predictors::ProxyLookupClientImpl"* %0, i64 0, i32 1, i32 0, i32 0
  tail call void @_ZN4mojo8internal16BindingStateBase5CloseEv(%"class.mojo::internal::BindingStateBase"* %4) #6
  tail call void @_ZN4mojo8internal16BindingStateBaseD2Ev(%"class.mojo::internal::BindingStateBase"* %4) #6
  ret void
}

; Function Attrs: nounwind
declare void @_ZN4base8internal12CallbackBaseD2Ev(%"class.base::internal::CallbackBase"*) unnamed_addr #3

; Function Attrs: nounwind ssp uwtable
define hidden void @_ZN10predictors21ProxyLookupClientImplD0Ev(%"class.predictors::ProxyLookupClientImpl"*) unnamed_addr #0 align 2 {
  %2 = getelementptr inbounds %"class.predictors::ProxyLookupClientImpl", %"class.predictors::ProxyLookupClientImpl"* %0, i64 0, i32 0, i32 0
  store i32 (...)** bitcast (i8** getelementptr inbounds ({ [5 x i8*] }, { [5 x i8*] }* @_ZTVN10predictors21ProxyLookupClientImplE, i64 0, inrange i32 0, i64 2) to i32 (...)**), i32 (...)*** %2, align 8
  %3 = getelementptr inbounds %"class.predictors::ProxyLookupClientImpl", %"class.predictors::ProxyLookupClientImpl"* %0, i64 0, i32 2, i32 0
  tail call void @_ZN4base8internal12CallbackBaseD2Ev(%"class.base::internal::CallbackBase"* %3) #6
  %4 = getelementptr inbounds %"class.predictors::ProxyLookupClientImpl", %"class.predictors::ProxyLookupClientImpl"* %0, i64 0, i32 1, i32 0, i32 0
  tail call void @_ZN4mojo8internal16BindingStateBase5CloseEv(%"class.mojo::internal::BindingStateBase"* %4) #6
  tail call void @_ZN4mojo8internal16BindingStateBaseD2Ev(%"class.mojo::internal::BindingStateBase"* %4) #6
  %5 = bitcast %"class.predictors::ProxyLookupClientImpl"* %0 to i8*
  tail call void @_ZdlPv(i8* %5) #7
  ret void
}

; Function Attrs: nobuiltin nounwind
declare void @_ZdlPv(i8*) local_unnamed_addr #4

; Function Attrs: nounwind ssp uwtable
define hidden void @_ZN10predictors21ProxyLookupClientImpl21OnProxyLookupCompleteEiRKN4absl8optionalIN3net9ProxyInfoEEE(%"class.predictors::ProxyLookupClientImpl"* nocapture, i32, %"class.absl::optional.187"* dereferenceable(80)) unnamed_addr #0 align 2 {
  %4 = alloca %"class.base::OnceCallback.163", align 8
  %5 = getelementptr inbounds %"class.absl::optional.187", %"class.absl::optional.187"* %2, i64 0, i32 0, i32 0, i32 0, i32 0
  %6 = load i8, i8* %5, align 8, !range !13
  %7 = icmp eq i8 %6, 0
  br i1 %7, label %16, label %8

8:                                                ; preds = %3
  %9 = getelementptr inbounds %"class.absl::optional.187", %"class.absl::optional.187"* %2, i64 0, i32 0, i32 0, i32 0, i32 1, i32 0, i32 0
  %10 = tail call zeroext i1 @_ZNK3net9ProxyList7IsEmptyEv(%"class.net::ProxyList"* %9) #6
  br i1 %10, label %16, label %11

11:                                               ; preds = %8
  %12 = tail call dereferenceable(40) %"class.net::ProxyServer"* @_ZNK3net9ProxyList3GetEv(%"class.net::ProxyList"* %9) #6
  %13 = getelementptr inbounds %"class.net::ProxyServer", %"class.net::ProxyServer"* %12, i64 0, i32 0
  %14 = load i32, i32* %13, align 8
  %15 = icmp ne i32 %14, 2
  br label %16

16:                                               ; preds = %11, %8, %3
  %17 = phi i1 [ false, %3 ], [ %15, %11 ], [ true, %8 ]
  %18 = getelementptr inbounds %"class.predictors::ProxyLookupClientImpl", %"class.predictors::ProxyLookupClientImpl"* %0, i64 0, i32 2
  %19 = bitcast %"class.base::OnceCallback.163"* %4 to i8*
  call void @llvm.lifetime.start.p0i8(i64 8, i8* nonnull %19) #6
  %20 = getelementptr inbounds %"class.base::OnceCallback.163", %"class.base::OnceCallback.163"* %18, i64 0, i32 0, i32 0, i32 0
  %21 = bitcast %"class.base::OnceCallback.163"* %18 to i64*
  %22 = load i64, i64* %21, align 8
  %23 = bitcast %"class.base::OnceCallback.163"* %4 to i64*
  store i64 %22, i64* %23, align 8
  store %"class.base::internal::BindStateBase"* null, %"class.base::internal::BindStateBase"** %20, align 8
  %24 = getelementptr inbounds %"class.base::OnceCallback.163", %"class.base::OnceCallback.163"* %4, i64 0, i32 0
  %25 = inttoptr i64 %22 to %"class.base::internal::BindStateBase"*
  %26 = getelementptr inbounds %"class.base::internal::BindStateBase", %"class.base::internal::BindStateBase"* %25, i64 0, i32 1
  %27 = bitcast void ()** %26 to void (%"class.base::internal::BindStateBase"*, i1)**
  %28 = load void (%"class.base::internal::BindStateBase"*, i1)*, void (%"class.base::internal::BindStateBase"*, i1)** %27, align 8
  tail call void %28(%"class.base::internal::BindStateBase"* %25, i1 zeroext %17) #6
  call void @_ZN4base8internal12CallbackBaseD2Ev(%"class.base::internal::CallbackBase"* nonnull %24) #6
  call void @llvm.lifetime.end.p0i8(i64 8, i8* nonnull %19) #6
  ret void
}

; Function Attrs: nounwind
declare void @_ZN4mojo8internal18PendingRemoteStateD1Ev(%"struct.mojo::internal::PendingRemoteState"*) unnamed_addr #3

declare void @_ZN4mojo8internal16BindingStateBase5CloseEv(%"class.mojo::internal::BindingStateBase"*) local_unnamed_addr #2

; Function Attrs: nounwind ssp uwtable
define linkonce_odr hidden void @_ZN4mojo15MessageReceiverD2Ev(%"class.mojo::MessageReceiver"*) unnamed_addr #0 comdat align 2 {
  ret void
}

; Function Attrs: nounwind
declare void @_ZN4mojo8internal16BindingStateBaseD2Ev(%"class.mojo::internal::BindingStateBase"*) unnamed_addr #3

declare dereferenceable(40) %"class.net::ProxyServer"* @_ZNK3net9ProxyList3GetEv(%"class.net::ProxyList"*) local_unnamed_addr #2

declare zeroext i1 @_ZNK3net9ProxyList7IsEmptyEv(%"class.net::ProxyList"*) local_unnamed_addr #2

declare void @_ZN4base16TaskRunnerTraits8DestructEPKNS_10TaskRunnerE(%"class.base::TaskRunner"*) local_unnamed_addr #2

declare void @_ZN4mojo8internal16BindingStateBaseC2Ev(%"class.mojo::internal::BindingStateBase"*) unnamed_addr #2

; Function Attrs: nounwind ssp uwtable
define linkonce_odr hidden void @_ZN7network5mojom21ProxyLookupClientStubIN4mojo19RawPtrImplRefTraitsINS0_17ProxyLookupClientEEEED0Ev(%"class.network::mojom::ProxyLookupClientStub"*) unnamed_addr #0 comdat align 2 {
  %2 = bitcast %"class.network::mojom::ProxyLookupClientStub"* %0 to i8*
  tail call void @_ZdlPv(i8* %2) #7
  ret void
}

declare zeroext i1 @_ZN4mojo15MessageReceiver25PrefersSerializedMessagesEv(%"class.mojo::MessageReceiver"*) unnamed_addr #2

; Function Attrs: nounwind ssp uwtable
define linkonce_odr hidden zeroext i1 @_ZN7network5mojom21ProxyLookupClientStubIN4mojo19RawPtrImplRefTraitsINS0_17ProxyLookupClientEEEE6AcceptEPNS2_7MessageE(%"class.network::mojom::ProxyLookupClientStub"*, %"class.mojo::Message"*) unnamed_addr #0 comdat align 2 {
  %3 = getelementptr inbounds %"class.network::mojom::ProxyLookupClientStub", %"class.network::mojom::ProxyLookupClientStub"* %0, i64 0, i32 1
  %4 = load %"class.network::mojom::ProxyLookupClient"*, %"class.network::mojom::ProxyLookupClient"** %3, align 8
  %5 = icmp eq %"class.network::mojom::ProxyLookupClient"* %4, null
  br i1 %5, label %8, label %6

6:                                                ; preds = %2
  %7 = tail call zeroext i1 @_ZN7network5mojom29ProxyLookupClientStubDispatch6AcceptEPNS0_17ProxyLookupClientEPN4mojo7MessageE(%"class.network::mojom::ProxyLookupClient"* nonnull %4, %"class.mojo::Message"* %1) #6
  br label %8

8:                                                ; preds = %2, %6
  %9 = phi i1 [ %7, %6 ], [ false, %2 ]
  ret i1 %9
}

; Function Attrs: nounwind ssp uwtable
define linkonce_odr hidden zeroext i1 @_ZN7network5mojom21ProxyLookupClientStubIN4mojo19RawPtrImplRefTraitsINS0_17ProxyLookupClientEEEE19AcceptWithResponderEPNS2_7MessageENSt3__110unique_ptrINS2_25MessageReceiverWithStatusENS9_14default_deleteISB_EEEE(%"class.network::mojom::ProxyLookupClientStub"*, %"class.mojo::Message"*, %"class.mojo::MessageReceiverWithStatus"*) unnamed_addr #0 comdat align 2 {
  %4 = getelementptr inbounds %"class.network::mojom::ProxyLookupClientStub", %"class.network::mojom::ProxyLookupClientStub"* %0, i64 0, i32 1
  %5 = load %"class.network::mojom::ProxyLookupClient"*, %"class.network::mojom::ProxyLookupClient"** %4, align 8
  %6 = icmp eq %"class.network::mojom::ProxyLookupClient"* %5, null
  br i1 %6, label %9, label %7

7:                                                ; preds = %3
  %8 = tail call zeroext i1 @_ZN7network5mojom29ProxyLookupClientStubDispatch19AcceptWithResponderEPNS0_17ProxyLookupClientEPN4mojo7MessageENSt3__110unique_ptrINS4_25MessageReceiverWithStatusENS7_14default_deleteIS9_EEEE(%"class.network::mojom::ProxyLookupClient"* nonnull %5, %"class.mojo::Message"* %1, %"class.mojo::MessageReceiverWithStatus"* %2) #6
  br label %16

9:                                                ; preds = %3
  %10 = icmp eq %"class.mojo::MessageReceiverWithStatus"* %2, null
  br i1 %10, label %16, label %11

11:                                               ; preds = %9
  %12 = bitcast %"class.mojo::MessageReceiverWithStatus"* %2 to void (%"class.mojo::MessageReceiverWithStatus"*)***
  %13 = load void (%"class.mojo::MessageReceiverWithStatus"*)**, void (%"class.mojo::MessageReceiverWithStatus"*)*** %12, align 8
  %14 = getelementptr inbounds void (%"class.mojo::MessageReceiverWithStatus"*)*, void (%"class.mojo::MessageReceiverWithStatus"*)** %13, i64 1
  %15 = load void (%"class.mojo::MessageReceiverWithStatus"*)*, void (%"class.mojo::MessageReceiverWithStatus"*)** %14, align 8
  tail call void %15(%"class.mojo::MessageReceiverWithStatus"* nonnull %2) #6
  br label %16

16:                                               ; preds = %7, %9, %11
  %17 = phi i1 [ %8, %7 ], [ false, %9 ], [ false, %11 ]
  ret i1 %17
}

declare zeroext i1 @_ZN7network5mojom29ProxyLookupClientStubDispatch6AcceptEPNS0_17ProxyLookupClientEPN4mojo7MessageE(%"class.network::mojom::ProxyLookupClient"*, %"class.mojo::Message"*) local_unnamed_addr #2

declare zeroext i1 @_ZN7network5mojom29ProxyLookupClientStubDispatch19AcceptWithResponderEPNS0_17ProxyLookupClientEPN4mojo7MessageENSt3__110unique_ptrINS4_25MessageReceiverWithStatusENS7_14default_deleteIS9_EEEE(%"class.network::mojom::ProxyLookupClient"*, %"class.mojo::Message"*, %"class.mojo::MessageReceiverWithStatus"*) local_unnamed_addr #2

declare void @_ZN4mojo8internal18PendingRemoteStateC1Ev(%"struct.mojo::internal::PendingRemoteState"*) unnamed_addr #2

; Function Attrs: nounwind ssp uwtable
define linkonce_odr hidden void @_ZN4mojo8internal12BindingStateIN7network5mojom17ProxyLookupClientENS_19RawPtrImplRefTraitsIS4_EEE4BindEPNS0_20PendingReceiverStateE13scoped_refptrIN4base19SequencedTaskRunnerEE(%"class.mojo::internal::BindingState"*, %"struct.mojo::internal::PendingReceiverState"*, %"class.base::SequencedTaskRunner"*) local_unnamed_addr #0 comdat align 2 {
  %4 = getelementptr inbounds %"class.mojo::internal::BindingState", %"class.mojo::internal::BindingState"* %0, i64 0, i32 0
  %5 = icmp eq %"class.base::SequencedTaskRunner"* %2, null
  br i1 %5, label %20, label %6

6:                                                ; preds = %3
  %7 = getelementptr inbounds %"class.base::SequencedTaskRunner", %"class.base::SequencedTaskRunner"* %2, i64 0, i32 0, i32 1, i32 0, i32 0, i32 0, i32 0, i32 0, i32 0, i32 0, i32 0
  %8 = atomicrmw add i32* %7, i32 1 monotonic
  %9 = tail call i8* @_Znwm(i64 8) #7
  %10 = bitcast i8* %9 to i32 (...)***
  store i32 (...)** bitcast (i8** getelementptr inbounds ({ [6 x i8*] }, { [6 x i8*] }* @_ZTVN7network5mojom33ProxyLookupClientRequestValidatorE, i64 0, inrange i32 0, i64 2) to i32 (...)**), i32 (...)*** %10, align 8
  %11 = getelementptr inbounds %"class.mojo::internal::BindingState", %"class.mojo::internal::BindingState"* %0, i64 0, i32 1, i32 0
  %12 = bitcast i8* %9 to %"class.mojo::MessageReceiver"*
  tail call void @_ZN4mojo8internal16BindingStateBase12BindInternalEPNS0_20PendingReceiverStateE13scoped_refptrIN4base19SequencedTaskRunnerEEPKcNSt3__110unique_ptrINS_15MessageReceiverENSA_14default_deleteISC_EEEEbbPNS_34MessageReceiverWithResponderStatusEj(%"class.mojo::internal::BindingStateBase"* %4, %"struct.mojo::internal::PendingReceiverState"* %1, %"class.base::SequencedTaskRunner"* nonnull %2, i8* getelementptr inbounds ([0 x i8], [0 x i8]* @_ZN7network5mojom17ProxyLookupClient5Name_E, i64 0, i64 0), %"class.mojo::MessageReceiver"* nonnull %12, i1 zeroext false, i1 zeroext false, %"class.mojo::MessageReceiverWithResponderStatus"* %11, i32 0) #6
  %13 = getelementptr inbounds %"class.base::SequencedTaskRunner", %"class.base::SequencedTaskRunner"* %2, i64 0, i32 0, i32 1
  %14 = getelementptr inbounds %"class.base::RefCountedThreadSafe.2", %"class.base::RefCountedThreadSafe.2"* %13, i64 0, i32 0, i32 0, i32 0, i32 0, i32 0, i32 0, i32 0, i32 0
  %15 = atomicrmw sub i32* %14, i32 1 acq_rel
  %16 = icmp eq i32 %15, 1
  br i1 %16, label %17, label %25

17:                                               ; preds = %6
  %18 = getelementptr inbounds %"class.base::RefCountedThreadSafe.2", %"class.base::RefCountedThreadSafe.2"* %13, i64 -2
  %19 = bitcast %"class.base::RefCountedThreadSafe.2"* %18 to %"class.base::TaskRunner"*
  tail call void @_ZN4base16TaskRunnerTraits8DestructEPKNS_10TaskRunnerE(%"class.base::TaskRunner"* %19) #6
  br label %25

20:                                               ; preds = %3
  %21 = tail call i8* @_Znwm(i64 8) #7
  %22 = bitcast i8* %21 to i32 (...)***
  store i32 (...)** bitcast (i8** getelementptr inbounds ({ [6 x i8*] }, { [6 x i8*] }* @_ZTVN7network5mojom33ProxyLookupClientRequestValidatorE, i64 0, inrange i32 0, i64 2) to i32 (...)**), i32 (...)*** %22, align 8
  %23 = getelementptr inbounds %"class.mojo::internal::BindingState", %"class.mojo::internal::BindingState"* %0, i64 0, i32 1, i32 0
  %24 = bitcast i8* %21 to %"class.mojo::MessageReceiver"*
  tail call void @_ZN4mojo8internal16BindingStateBase12BindInternalEPNS0_20PendingReceiverStateE13scoped_refptrIN4base19SequencedTaskRunnerEEPKcNSt3__110unique_ptrINS_15MessageReceiverENSA_14default_deleteISC_EEEEbbPNS_34MessageReceiverWithResponderStatusEj(%"class.mojo::internal::BindingStateBase"* %4, %"struct.mojo::internal::PendingReceiverState"* %1, %"class.base::SequencedTaskRunner"* null, i8* getelementptr inbounds ([0 x i8], [0 x i8]* @_ZN7network5mojom17ProxyLookupClient5Name_E, i64 0, i64 0), %"class.mojo::MessageReceiver"* nonnull %24, i1 zeroext false, i1 zeroext false, %"class.mojo::MessageReceiverWithResponderStatus"* %23, i32 0) #6
  br label %25

25:                                               ; preds = %20, %6, %17
  ret void
}

declare void @_ZN4mojo8internal16BindingStateBase12BindInternalEPNS0_20PendingReceiverStateE13scoped_refptrIN4base19SequencedTaskRunnerEEPKcNSt3__110unique_ptrINS_15MessageReceiverENSA_14default_deleteISC_EEEEbbPNS_34MessageReceiverWithResponderStatusEj(%"class.mojo::internal::BindingStateBase"*, %"struct.mojo::internal::PendingReceiverState"*, %"class.base::SequencedTaskRunner"*, i8*, %"class.mojo::MessageReceiver"*, i1 zeroext, i1 zeroext, %"class.mojo::MessageReceiverWithResponderStatus"*, i32) local_unnamed_addr #2

; Function Attrs: nobuiltin nofree
declare noalias nonnull i8* @_Znwm(i64) local_unnamed_addr #5

; Function Attrs: argmemonly nounwind
declare void @llvm.memset.p0i8.i64(i8* nocapture writeonly, i8, i64, i1 immarg) #1

declare i32 @MojoCreateMessagePipe(%struct.MojoCreateMessagePipeOptions*, i32*, i32*) local_unnamed_addr #2

declare i32 @MojoClose(i32) local_unnamed_addr #2

declare void @_ZN4mojo8internal20PendingReceiverStateC1ENS_16ScopedHandleBaseINS_17MessagePipeHandleEEE(%"struct.mojo::internal::PendingReceiverState"*, %"class.mojo::ScopedHandleBase"*) unnamed_addr #2

; Function Attrs: nounwind
declare void @_ZN4mojo8internal20PendingReceiverStateD1Ev(%"struct.mojo::internal::PendingReceiverState"*) unnamed_addr #3

declare void @_ZN4base8internal12CallbackBase5ResetEv(%"class.base::internal::CallbackBase"*) local_unnamed_addr #2

; Function Attrs: nounwind
declare dereferenceable(8) %"class.base::internal::CallbackBase"* @_ZN4base8internal12CallbackBaseaSEOS1_(%"class.base::internal::CallbackBase"*, %"class.base::internal::CallbackBase"* dereferenceable(8)) local_unnamed_addr #3

; Function Attrs: nounwind ssp uwtable
define linkonce_odr hidden void @_ZN4base8internal7InvokerINS0_9BindStateIMN10predictors21ProxyLookupClientImplEFviRKN4absl8optionalIN3net9ProxyInfoEEEEJNS0_17UnretainedWrapperIS4_EENS7_5ErrorENS5_9nullopt_tEEEEFvvEE7RunOnceEPNS0_13BindStateBaseE(%"class.base::internal::BindStateBase"*) #0 comdat align 2 {
  %2 = alloca %"class.absl::optional.187", align 8
  %3 = getelementptr inbounds %"class.base::internal::BindStateBase", %"class.base::internal::BindStateBase"* %0, i64 1
  %4 = getelementptr inbounds %"class.base::internal::BindStateBase", %"class.base::internal::BindStateBase"* %0, i64 1, i32 2
  %5 = bitcast void (%"class.base::internal::BindStateBase"*)** %4 to i8**
  %6 = load i8*, i8** %5, align 8
  %7 = getelementptr inbounds void (%"class.base::internal::BindStateBase"*)*, void (%"class.base::internal::BindStateBase"*)** %4, i64 1
  %8 = bitcast void (%"class.base::internal::BindStateBase"*)** %7 to i32*
  %9 = bitcast %"class.base::internal::BindStateBase"* %3 to i64*
  %10 = load i64, i64* %9, align 8
  %11 = getelementptr inbounds %"class.base::internal::BindStateBase", %"class.base::internal::BindStateBase"* %0, i64 1, i32 1
  %12 = bitcast void ()** %11 to i64*
  %13 = load i64, i64* %12, align 8
  %14 = getelementptr inbounds i8, i8* %6, i64 %13
  %15 = bitcast i8* %14 to %"class.predictors::ProxyLookupClientImpl"*
  %16 = and i64 %10, 1
  %17 = icmp eq i64 %16, 0
  br i1 %17, label %25, label %18

18:                                               ; preds = %1
  %19 = bitcast i8* %14 to i8**
  %20 = load i8*, i8** %19, align 8
  %21 = add i64 %10, -1
  %22 = getelementptr i8, i8* %20, i64 %21
  %23 = bitcast i8* %22 to void (%"class.predictors::ProxyLookupClientImpl"*, i32, %"class.absl::optional.187"*)**
  %24 = load void (%"class.predictors::ProxyLookupClientImpl"*, i32, %"class.absl::optional.187"*)*, void (%"class.predictors::ProxyLookupClientImpl"*, i32, %"class.absl::optional.187"*)** %23, align 8
  br label %27

25:                                               ; preds = %1
  %26 = inttoptr i64 %10 to void (%"class.predictors::ProxyLookupClientImpl"*, i32, %"class.absl::optional.187"*)*
  br label %27

27:                                               ; preds = %25, %18
  %28 = phi void (%"class.predictors::ProxyLookupClientImpl"*, i32, %"class.absl::optional.187"*)* [ %24, %18 ], [ %26, %25 ]
  %29 = load i32, i32* %8, align 4
  %30 = getelementptr inbounds %"class.absl::optional.187", %"class.absl::optional.187"* %2, i64 0, i32 0, i32 0, i32 0, i32 0
  call void @llvm.lifetime.start.p0i8(i64 80, i8* nonnull %30) #6
  store i8 0, i8* %30, align 8
  %31 = getelementptr inbounds %"class.absl::optional.187", %"class.absl::optional.187"* %2, i64 0, i32 0, i32 0, i32 0, i32 1
  %32 = bitcast %union.anon.191* %31 to i8*
  call void @llvm.memset.p0i8.i64(i8* align 8 %32, i8 0, i64 72, i1 false) #6
  call void %28(%"class.predictors::ProxyLookupClientImpl"* %15, i32 %29, %"class.absl::optional.187"* nonnull dereferenceable(80) %2) #6
  %33 = load i8, i8* %30, align 8, !range !13
  %34 = icmp eq i8 %33, 0
  br i1 %34, label %37, label %35

35:                                               ; preds = %27
  %36 = getelementptr inbounds %"class.absl::optional.187", %"class.absl::optional.187"* %2, i64 0, i32 0, i32 0, i32 0, i32 1, i32 0
  call void @_ZN3net9ProxyInfoD1Ev(%"class.net::ProxyInfo"* %36) #6
  store i8 0, i8* %30, align 8
  br label %37

37:                                               ; preds = %27, %35
  call void @llvm.lifetime.end.p0i8(i64 80, i8* nonnull %30) #6
  ret void
}

; Function Attrs: nounwind
declare void @_ZN3net9ProxyInfoD1Ev(%"class.net::ProxyInfo"*) unnamed_addr #3

; Function Attrs: nounwind ssp uwtable
define linkonce_odr hidden void @_ZN4base8internal9BindStateIMN10predictors21ProxyLookupClientImplEFviRKN4absl8optionalIN3net9ProxyInfoEEEEJNS0_17UnretainedWrapperIS3_EENS6_5ErrorENS4_9nullopt_tEEE7DestroyEPKNS0_13BindStateBaseE(%"class.base::internal::BindStateBase"*) #0 comdat align 2 {
  %2 = icmp eq %"class.base::internal::BindStateBase"* %0, null
  br i1 %2, label %5, label %3

3:                                                ; preds = %1
  %4 = bitcast %"class.base::internal::BindStateBase"* %0 to i8*
  tail call void @_ZdlPv(i8* %4) #7
  br label %5

5:                                                ; preds = %3, %1
  ret void
}

declare void @_ZN4base8internal13BindStateBaseC2EPFvvEPFvPKS1_E(%"class.base::internal::BindStateBase"*, void ()*, void (%"class.base::internal::BindStateBase"*)*) unnamed_addr #2

attributes #0 = { nounwind ssp uwtable "correctly-rounded-divide-sqrt-fp-math"="false" "disable-tail-calls"="false" "less-precise-fpmad"="false" "min-legal-vector-width"="0" "no-frame-pointer-elim"="false" "no-frame-pointer-elim-non-leaf" "no-infs-fp-math"="false" "no-jump-tables"="false" "no-nans-fp-math"="false" "no-signed-zeros-fp-math"="false" "no-trapping-math"="false" "null-pointer-is-valid"="true" "stack-protector-buffer-size"="4" "target-cpu"="x86-64" "target-features"="+cx8,+fxsr,+mmx,+sse,+sse2,+sse3,+x87" "unsafe-fp-math"="false" "use-soft-float"="false" }
attributes #1 = { argmemonly nounwind }
attributes #2 = { "correctly-rounded-divide-sqrt-fp-math"="false" "disable-tail-calls"="false" "less-precise-fpmad"="false" "no-frame-pointer-elim"="false" "no-frame-pointer-elim-non-leaf" "no-infs-fp-math"="false" "no-nans-fp-math"="false" "no-signed-zeros-fp-math"="false" "no-trapping-math"="false" "null-pointer-is-valid"="true" "stack-protector-buffer-size"="4" "target-cpu"="x86-64" "target-features"="+cx8,+fxsr,+mmx,+sse,+sse2,+sse3,+x87" "unsafe-fp-math"="false" "use-soft-float"="false" }
attributes #3 = { nounwind "correctly-rounded-divide-sqrt-fp-math"="false" "disable-tail-calls"="false" "less-precise-fpmad"="false" "no-frame-pointer-elim"="false" "no-frame-pointer-elim-non-leaf" "no-infs-fp-math"="false" "no-nans-fp-math"="false" "no-signed-zeros-fp-math"="false" "no-trapping-math"="false" "null-pointer-is-valid"="true" "stack-protector-buffer-size"="4" "target-cpu"="x86-64" "target-features"="+cx8,+fxsr,+mmx,+sse,+sse2,+sse3,+x87" "unsafe-fp-math"="false" "use-soft-float"="false" }
attributes #4 = { nobuiltin nounwind "correctly-rounded-divide-sqrt-fp-math"="false" "disable-tail-calls"="false" "less-precise-fpmad"="false" "no-frame-pointer-elim"="false" "no-frame-pointer-elim-non-leaf" "no-infs-fp-math"="false" "no-nans-fp-math"="false" "no-signed-zeros-fp-math"="false" "no-trapping-math"="false" "null-pointer-is-valid"="true" "stack-protector-buffer-size"="4" "target-cpu"="x86-64" "target-features"="+cx8,+fxsr,+mmx,+sse,+sse2,+sse3,+x87" "unsafe-fp-math"="false" "use-soft-float"="false" }
attributes #5 = { nobuiltin nofree "correctly-rounded-divide-sqrt-fp-math"="false" "disable-tail-calls"="false" "less-precise-fpmad"="false" "no-frame-pointer-elim"="false" "no-frame-pointer-elim-non-leaf" "no-infs-fp-math"="false" "no-nans-fp-math"="false" "no-signed-zeros-fp-math"="false" "no-trapping-math"="false" "null-pointer-is-valid"="true" "stack-protector-buffer-size"="4" "target-cpu"="x86-64" "target-features"="+cx8,+fxsr,+mmx,+sse,+sse2,+sse3,+x87" "unsafe-fp-math"="false" "use-soft-float"="false" }
attributes #6 = { nounwind }
attributes #7 = { builtin nounwind }

!llvm.module.flags = !{!0, !1}

!0 = !{i32 1, !"wchar_size", i32 4}
!1 = !{i32 7, !"PIC Level", i32 2}
!2 = !{!3, !5}
!3 = distinct !{!3, !4, !"_ZN4base8internal8BindImplINS_12OnceCallbackEMN10predictors21ProxyLookupClientImplEFviRKN4absl8optionalIN3net9ProxyInfoEEEEJNS0_17UnretainedWrapperIS4_EENS7_5ErrorERKNS5_9nullopt_tEEEEDcOT0_DpOT1_: argument 0"}
!4 = distinct !{!4, !"_ZN4base8internal8BindImplINS_12OnceCallbackEMN10predictors21ProxyLookupClientImplEFviRKN4absl8optionalIN3net9ProxyInfoEEEEJNS0_17UnretainedWrapperIS4_EENS7_5ErrorERKNS5_9nullopt_tEEEEDcOT0_DpOT1_"}
!5 = distinct !{!5, !6, !"_ZN4base8BindOnceIMN10predictors21ProxyLookupClientImplEFviRKN4absl8optionalIN3net9ProxyInfoEEEEJNS_8internal17UnretainedWrapperIS2_EENS5_5ErrorERKNS3_9nullopt_tEEEENS_12OnceCallbackINSC_14BindTypeHelperIT_JDpT0_EE14UnboundRunTypeEEEOSL_DpOSM_: argument 0"}
!6 = distinct !{!6, !"_ZN4base8BindOnceIMN10predictors21ProxyLookupClientImplEFviRKN4absl8optionalIN3net9ProxyInfoEEEEJNS_8internal17UnretainedWrapperIS2_EENS5_5ErrorERKNS3_9nullopt_tEEEENS_12OnceCallbackINSC_14BindTypeHelperIT_JDpT0_EE14UnboundRunTypeEEEOSL_DpOSM_"}
!7 = !{!8}
!8 = distinct !{!8, !9, !"_ZN4mojo13PendingRemoteIN7network5mojom17ProxyLookupClientEE30InitWithNewPipeAndPassReceiverEv: argument 0"}
!9 = distinct !{!9, !"_ZN4mojo13PendingRemoteIN7network5mojom17ProxyLookupClientEE30InitWithNewPipeAndPassReceiverEv"}
!10 = !{!11}
!11 = distinct !{!11, !12, !"_ZN4mojo16ScopedHandleBaseINS_17MessagePipeHandleEE7releaseEv: argument 0"}
!12 = distinct !{!12, !"_ZN4mojo16ScopedHandleBaseINS_17MessagePipeHandleEE7releaseEv"}
!13 = !{i8 0, i8 2}
