; ModuleID = 'gen/services/network/public/mojom/proxy_lookup_client.mojom-blink.cc'
source_filename = "gen/services/network/public/mojom/proxy_lookup_client.mojom-blink.cc"
target datalayout = "e-m:e-i64:64-f80:128-n8:16:32:64-S128"
target triple = "x86_64-unknown-linux-gnu"

module asm ".symver exp, exp@GLIBC_2.2.5"
module asm ".symver exp2, exp2@GLIBC_2.2.5"
module asm ".symver exp2f, exp2f@GLIBC_2.2.5"
module asm ".symver expf, expf@GLIBC_2.2.5"
module asm ".symver lgamma, lgamma@GLIBC_2.2.5"
module asm ".symver lgammaf, lgammaf@GLIBC_2.2.5"
module asm ".symver lgammal, lgammal@GLIBC_2.2.5"
module asm ".symver log, log@GLIBC_2.2.5"
module asm ".symver log2, log2@GLIBC_2.2.5"
module asm ".symver log2f, log2f@GLIBC_2.2.5"
module asm ".symver logf, logf@GLIBC_2.2.5"
module asm ".symver pow, pow@GLIBC_2.2.5"
module asm ".symver powf, powf@GLIBC_2.2.5"

%"struct.std::__1::pair" = type { i32, %"struct.mojo::internal::GenericValidationInfo" }
%"struct.mojo::internal::GenericValidationInfo" = type { i1 (i8*, %"class.mojo::internal::ValidationContext"*)*, i1 (i8*, %"class.mojo::internal::ValidationContext"*)* }
%"class.mojo::internal::ValidationContext" = type <{ %"class.mojo::Message"*, i8*, i32, [4 x i8], i64, i64, i32, i32, i32, i32, i32, [4 x i8] }>
%"class.mojo::Message" = type { %"class.mojo::ScopedHandleBase", %"class.mojo::internal::Buffer", %"class.std::__1::vector", %"class.std::__1::vector.6", %"class.mojo::ConnectionGroup::Ref"*, i8, i8, i8* }
%"class.mojo::ScopedHandleBase" = type { %"class.mojo::MessageHandle" }
%"class.mojo::MessageHandle" = type { i64 }
%"class.mojo::internal::Buffer" = type { %"class.mojo::MessageHandle", i64, i8*, i64, i64 }
%"class.std::__1::vector" = type { %"class.std::__1::__vector_base" }
%"class.std::__1::__vector_base" = type { %"class.mojo::ScopedHandleBase.2"*, %"class.mojo::ScopedHandleBase.2"*, %"class.std::__1::__compressed_pair.3" }
%"class.mojo::ScopedHandleBase.2" = type { %"class.mojo::Handle" }
%"class.mojo::Handle" = type { i32 }
%"class.std::__1::__compressed_pair.3" = type { %"struct.std::__1::__compressed_pair_elem.4" }
%"struct.std::__1::__compressed_pair_elem.4" = type { %"class.mojo::ScopedHandleBase.2"* }
%"class.std::__1::vector.6" = type { %"class.std::__1::__vector_base.7" }
%"class.std::__1::__vector_base.7" = type { %"class.mojo::ScopedInterfaceEndpointHandle"*, %"class.mojo::ScopedInterfaceEndpointHandle"*, %"class.std::__1::__compressed_pair.9" }
%"class.mojo::ScopedInterfaceEndpointHandle" = type { %class.scoped_refptr.8 }
%class.scoped_refptr.8 = type { %"class.mojo::ScopedInterfaceEndpointHandle::State"* }
%"class.mojo::ScopedInterfaceEndpointHandle::State" = type opaque
%"class.std::__1::__compressed_pair.9" = type { %"struct.std::__1::__compressed_pair_elem.10" }
%"struct.std::__1::__compressed_pair_elem.10" = type { %"class.mojo::ScopedInterfaceEndpointHandle"* }
%"class.mojo::ConnectionGroup::Ref" = type { i32, %class.scoped_refptr.14 }
%class.scoped_refptr.14 = type { %"class.mojo::ConnectionGroup"* }
%"class.mojo::ConnectionGroup" = type <{ i32 (...)**, %"class.base::RefCountedThreadSafe", [4 x i8], %"class.base::RepeatingCallback", %class.scoped_refptr.22, %"class.mojo::ConnectionGroup::Ref", %"struct.std::__1::atomic", [4 x i8] }>
%"class.base::RefCountedThreadSafe" = type { %"class.base::subtle::RefCountedThreadSafeBase" }
%"class.base::subtle::RefCountedThreadSafeBase" = type { %"class.base::AtomicRefCount" }
%"class.base::AtomicRefCount" = type { %"struct.std::__1::atomic.15" }
%"struct.std::__1::atomic.15" = type { %"struct.std::__1::__atomic_base.16" }
%"struct.std::__1::__atomic_base.16" = type { %"struct.std::__1::__atomic_base.17" }
%"struct.std::__1::__atomic_base.17" = type { %"struct.std::__1::__cxx_atomic_impl.18" }
%"struct.std::__1::__cxx_atomic_impl.18" = type { %"struct.std::__1::__cxx_atomic_base_impl.19" }
%"struct.std::__1::__cxx_atomic_base_impl.19" = type { i32 }
%"class.base::RepeatingCallback" = type { %"class.base::internal::CallbackBaseCopyable" }
%"class.base::internal::CallbackBaseCopyable" = type { %"class.base::internal::CallbackBase" }
%"class.base::internal::CallbackBase" = type { %class.scoped_refptr.20 }
%class.scoped_refptr.20 = type { %"class.base::internal::BindStateBase"* }
%"class.base::internal::BindStateBase" = type { %"class.base::RefCountedThreadSafe.21", void ()*, void (%"class.base::internal::BindStateBase"*)*, i1 (%"class.base::internal::BindStateBase"*, i32)* }
%"class.base::RefCountedThreadSafe.21" = type { %"class.base::subtle::RefCountedThreadSafeBase" }
%class.scoped_refptr.22 = type { %"class.base::SequencedTaskRunner"* }
%"class.base::SequencedTaskRunner" = type { %"class.base::TaskRunner.base", [4 x i8] }
%"class.base::TaskRunner.base" = type <{ i32 (...)**, %"class.base::RefCountedThreadSafe.23" }>
%"class.base::RefCountedThreadSafe.23" = type { %"class.base::subtle::RefCountedThreadSafeBase" }
%"struct.std::__1::atomic" = type { %"struct.std::__1::__atomic_base" }
%"struct.std::__1::__atomic_base" = type { %"struct.std::__1::__atomic_base.0" }
%"struct.std::__1::__atomic_base.0" = type { %"struct.std::__1::__cxx_atomic_impl" }
%"struct.std::__1::__cxx_atomic_impl" = type { %"struct.std::__1::__cxx_atomic_base_impl" }
%"struct.std::__1::__cxx_atomic_base_impl" = type { i32 }
%"class.network::mojom::blink::ProxyLookupClientProxy" = type { %"class.network::mojom::blink::ProxyLookupClient", %"class.mojo::MessageReceiverWithResponder"* }
%"class.network::mojom::blink::ProxyLookupClient" = type { i32 (...)** }
%"class.mojo::MessageReceiverWithResponder" = type { %"class.mojo::MessageReceiver" }
%"class.mojo::MessageReceiver" = type { i32 (...)** }
%"class.mojo::StructPtr" = type { %"class.std::__1::unique_ptr" }
%"class.std::__1::unique_ptr" = type { %"class.std::__1::__compressed_pair" }
%"class.std::__1::__compressed_pair" = type { %"struct.std::__1::__compressed_pair_elem" }
%"struct.std::__1::__compressed_pair_elem" = type { %"class.proxy_resolver::mojom::blink::ProxyInfo"* }
%"class.proxy_resolver::mojom::blink::ProxyInfo" = type { %"class.WTF::Vector" }
%"class.WTF::Vector" = type { %"class.WTF::VectorBuffer" }
%"class.WTF::VectorBuffer" = type { %"class.WTF::VectorBufferBase" }
%"class.WTF::VectorBufferBase" = type { %"class.mojo::InlinedStructPtr"*, i32, i32 }
%"class.mojo::InlinedStructPtr" = type { %"class.proxy_resolver::mojom::blink::ProxyServer", i32, [4 x i8] }
%"class.proxy_resolver::mojom::blink::ProxyServer" = type <{ i32, [4 x i8], %"class.WTF::String", i16, [6 x i8] }>
%"class.WTF::String" = type { %class.scoped_refptr }
%class.scoped_refptr = type { %"class.WTF::StringImpl"* }
%"class.WTF::StringImpl" = type { i32, i32, %"struct.std::__1::atomic" }
%"class.mojo::internal::MessageFragment.24" = type { %"class.mojo::Message"*, i64 }
%"class.network::mojom::internal::ProxyLookupClient_OnProxyLookupComplete_Params_Data" = type { %"struct.mojo::internal::StructHeader", i32, [4 x i8], %"struct.mojo::internal::Pointer" }
%"struct.mojo::internal::StructHeader" = type { i32, i32 }
%"struct.mojo::internal::Pointer" = type { i64 }
%"class.proxy_resolver::mojom::internal::ProxyInfo_Data" = type { %"struct.mojo::internal::StructHeader", %"struct.mojo::internal::Pointer.25" }
%"struct.mojo::internal::Pointer.25" = type { i64 }
%"class.base::TaskAnnotator::ScopedSetIpcHash" = type { %"class.base::TaskAnnotator::ScopedSetIpcHash"*, i32, i8* }
%"struct.mojo::internal::MessageHeader" = type { %"struct.mojo::internal::StructHeader", i32, i32, i32, i32 }
%"class.mojo::MessageReceiverWithStatus" = type { %"class.mojo::MessageReceiver" }
%"class.network::mojom::blink::ProxyLookupClientRequestValidator" = type { %"class.mojo::MessageReceiver" }
%"class.mojo::internal::MessageFragment.33" = type { %"class.mojo::Message"*, i64 }
%"class.mojo::internal::ContainerValidateParams" = type { i32, i8, %"class.mojo::internal::ContainerValidateParams"*, %"class.mojo::internal::ContainerValidateParams"*, i1 (i32, %"class.mojo::internal::ValidationContext"*)* }
%"class.mojo::internal::Array_Data" = type { %"struct.mojo::internal::ArrayHeader" }
%"struct.mojo::internal::ArrayHeader" = type { i32, i32 }
%"class.proxy_resolver::mojom::internal::ProxyServer_Data" = type { %"struct.mojo::internal::StructHeader", i32, i16, [2 x i8], %"struct.mojo::internal::Pointer.35" }
%"struct.mojo::internal::Pointer.35" = type { i64 }
%"class.logging::CheckOpResult" = type { i8* }
%"class.logging::CheckError" = type { %"class.logging::LogMessage"* }
%"class.logging::LogMessage" = type { i32 (...)**, i32, %"class.std::__1::basic_ostringstream", i64, i8*, i32, %"class.base::ScopedClearLastErrorBase" }
%"class.std::__1::basic_ostringstream" = type { %"class.std::__1::basic_ostream.base", %"class.std::__1::basic_stringbuf", %"class.std::__1::basic_ios.base" }
%"class.std::__1::basic_ostream.base" = type { i32 (...)** }
%"class.std::__1::basic_stringbuf" = type <{ %"class.std::__1::basic_streambuf", %"class.std::__1::basic_string", i8*, i32, [4 x i8] }>
%"class.std::__1::basic_streambuf" = type { i32 (...)**, %"class.std::__1::locale", i8*, i8*, i8*, i8*, i8*, i8* }
%"class.std::__1::locale" = type { %"class.std::__1::locale::__imp"* }
%"class.std::__1::locale::__imp" = type opaque
%"class.std::__1::basic_string" = type { %"class.std::__1::__compressed_pair.36" }
%"class.std::__1::__compressed_pair.36" = type { %"struct.std::__1::__compressed_pair_elem.37" }
%"struct.std::__1::__compressed_pair_elem.37" = type { %"struct.std::__1::basic_string<char, std::__1::char_traits<char>, std::__1::allocator<char> >::__rep" }
%"struct.std::__1::basic_string<char, std::__1::char_traits<char>, std::__1::allocator<char> >::__rep" = type { %union.anon }
%union.anon = type { %"struct.std::__1::basic_string<char, std::__1::char_traits<char>, std::__1::allocator<char> >::__long" }
%"struct.std::__1::basic_string<char, std::__1::char_traits<char>, std::__1::allocator<char> >::__long" = type { i8*, i64, i64 }
%"class.std::__1::basic_ios.base" = type <{ %"class.std::__1::ios_base", %"class.std::__1::basic_ostream"*, i32 }>
%"class.std::__1::ios_base" = type { i32 (...)**, i32, i64, i64, i32, i32, i8*, i8*, void (i32, %"class.std::__1::ios_base"*, i32)**, i32*, i64, i64, i64*, i64, i64, i8**, i64, i64 }
%"class.std::__1::basic_ostream" = type { i32 (...)**, %"class.std::__1::basic_ios.base" }
%"class.base::ScopedClearLastErrorBase" = type { i32 }
%"class.WTF::StringUTF8Adaptor" = type <{ %"class.std::__1::basic_string", i8*, i32, [4 x i8] }>
%"class.mojo::internal::Array_Data.42" = type { %"struct.mojo::internal::ArrayHeader" }

$_ZN7network5mojom5blink17ProxyLookupClientD2Ev = comdat any

$_ZN7network5mojom5blink22ProxyLookupClientProxyD0Ev = comdat any

$_ZN4mojo15MessageReceiverD2Ev = comdat any

$_ZN7network5mojom5blink33ProxyLookupClientRequestValidatorD0Ev = comdat any

$_ZN4mojo8internal10SerializerIN14proxy_resolver5mojom17ProxyInfoDataViewENS_9StructPtrINS3_5blink9ProxyInfoEEEE9SerializeERS8_RNS0_15MessageFragmentINS3_8internal14ProxyInfo_DataEEE = comdat any

$_ZN4mojo8internal23ContainerValidateParamsD2Ev = comdat any

$_ZNK3WTF6VectorIN4mojo16InlinedStructPtrIN14proxy_resolver5mojom5blink11ProxyServerEEELj0ENS_18PartitionAllocatorEE2atEj = comdat any

$_ZN4mojo8internal10SerializerIN14proxy_resolver5mojom19ProxyServerDataViewEKNS_16InlinedStructPtrINS3_5blink11ProxyServerEEEE9SerializeERS9_RNS0_15MessageFragmentINS3_8internal16ProxyServer_DataEEE = comdat any

@_ZN7network5mojom5blink17ProxyLookupClient5Name_E = hidden constant [32 x i8] c"network.mojom.ProxyLookupClient\00", align 16
@_ZTVN7network5mojom5blink22ProxyLookupClientProxyE = hidden unnamed_addr constant { [5 x i8*] } { [5 x i8*] [i8* null, i8* null, i8* bitcast (void (%"class.network::mojom::blink::ProxyLookupClient"*)* @_ZN7network5mojom5blink17ProxyLookupClientD2Ev to i8*), i8* bitcast (void (%"class.network::mojom::blink::ProxyLookupClientProxy"*)* @_ZN7network5mojom5blink22ProxyLookupClientProxyD0Ev to i8*), i8* bitcast (void (%"class.network::mojom::blink::ProxyLookupClientProxy"*, i32, %"class.mojo::StructPtr"*)* @_ZN7network5mojom5blink22ProxyLookupClientProxy21OnProxyLookupCompleteEiN4mojo9StructPtrIN14proxy_resolver5mojom5blink9ProxyInfoEEE to i8*)] }, align 8
@_ZN7network5mojom5blinkL32kProxyLookupClientValidationInfoE = internal constant [1 x %"struct.std::__1::pair"] [%"struct.std::__1::pair" { i32 1832529097, %"struct.mojo::internal::GenericValidationInfo" { i1 (i8*, %"class.mojo::internal::ValidationContext"*)* @_ZN7network5mojom8internal51ProxyLookupClient_OnProxyLookupComplete_Params_Data8ValidateEPKvPN4mojo8internal17ValidationContextE, i1 (i8*, %"class.mojo::internal::ValidationContext"*)* null } }], align 16
@_ZTVN7network5mojom5blink33ProxyLookupClientRequestValidatorE = hidden unnamed_addr constant { [6 x i8*] } { [6 x i8*] [i8* null, i8* null, i8* bitcast (void (%"class.mojo::MessageReceiver"*)* @_ZN4mojo15MessageReceiverD2Ev to i8*), i8* bitcast (void (%"class.network::mojom::blink::ProxyLookupClientRequestValidator"*)* @_ZN7network5mojom5blink33ProxyLookupClientRequestValidatorD0Ev to i8*), i8* bitcast (i1 (%"class.mojo::MessageReceiver"*)* @_ZN4mojo15MessageReceiver25PrefersSerializedMessagesEv to i8*), i8* bitcast (i1 (%"class.network::mojom::blink::ProxyLookupClientRequestValidator"*, %"class.mojo::Message"*)* @_ZN7network5mojom5blink33ProxyLookupClientRequestValidator6AcceptEPN4mojo7MessageE to i8*)] }, align 8
@.str = private unnamed_addr constant [11 x i8] c"i < size()\00", align 1
@.str.1 = private unnamed_addr constant [55 x i8] c"../../third_party/blink/renderer/platform/wtf/vector.h\00", align 1

@_ZN7network5mojom5blink22ProxyLookupClientProxyC1EPN4mojo28MessageReceiverWithResponderE = hidden unnamed_addr alias void (%"class.network::mojom::blink::ProxyLookupClientProxy"*, %"class.mojo::MessageReceiverWithResponder"*), void (%"class.network::mojom::blink::ProxyLookupClientProxy"*, %"class.mojo::MessageReceiverWithResponder"*)* @_ZN7network5mojom5blink22ProxyLookupClientProxyC2EPN4mojo28MessageReceiverWithResponderE

; Function Attrs: nofree norecurse nounwind ssp uwtable writeonly
define hidden void @_ZN7network5mojom5blink22ProxyLookupClientProxyC2EPN4mojo28MessageReceiverWithResponderE(%"class.network::mojom::blink::ProxyLookupClientProxy"* nocapture, %"class.mojo::MessageReceiverWithResponder"*) unnamed_addr #0 align 2 {
  %3 = getelementptr inbounds %"class.network::mojom::blink::ProxyLookupClientProxy", %"class.network::mojom::blink::ProxyLookupClientProxy"* %0, i64 0, i32 0, i32 0
  store i32 (...)** bitcast (i8** getelementptr inbounds ({ [5 x i8*] }, { [5 x i8*] }* @_ZTVN7network5mojom5blink22ProxyLookupClientProxyE, i64 0, inrange i32 0, i64 2) to i32 (...)**), i32 (...)*** %3, align 8
  %4 = getelementptr inbounds %"class.network::mojom::blink::ProxyLookupClientProxy", %"class.network::mojom::blink::ProxyLookupClientProxy"* %0, i64 0, i32 1
  store %"class.mojo::MessageReceiverWithResponder"* %1, %"class.mojo::MessageReceiverWithResponder"** %4, align 8
  ret void
}

; Function Attrs: nounwind ssp uwtable
define hidden void @_ZN7network5mojom5blink22ProxyLookupClientProxy21OnProxyLookupCompleteEiN4mojo9StructPtrIN14proxy_resolver5mojom5blink9ProxyInfoEEE(%"class.network::mojom::blink::ProxyLookupClientProxy"* nocapture readonly, i32, %"class.mojo::StructPtr"*) unnamed_addr #1 align 2 {
  %4 = alloca %"class.mojo::Message", align 8
  %5 = alloca %"class.mojo::internal::MessageFragment.24", align 8
  %6 = bitcast %"class.mojo::Message"* %4 to i8*
  call void @llvm.lifetime.start.p0i8(i64 120, i8* nonnull %6) #7
  call void @llvm.memset.p0i8.i64(i8* nonnull align 8 %6, i8 -86, i64 120, i1 false)
  call void @_ZN4mojo7MessageC1EjjmmPNSt3__16vectorINS_16ScopedHandleBaseINS_6HandleEEENS1_9allocatorIS5_EEEE(%"class.mojo::Message"* nonnull %4, i32 1832529097, i32 0, i64 0, i64 0, %"class.std::__1::vector"* null) #7
  %7 = getelementptr inbounds %"class.mojo::Message", %"class.mojo::Message"* %4, i64 0, i32 1
  %8 = call i64 @_ZN4mojo8internal6Buffer8AllocateEm(%"class.mojo::internal::Buffer"* %7, i64 24) #7
  %9 = getelementptr inbounds %"class.mojo::Message", %"class.mojo::Message"* %4, i64 0, i32 1, i32 2
  %10 = load i8*, i8** %9, align 8
  %11 = getelementptr inbounds i8, i8* %10, i64 %8
  %12 = bitcast i8* %11 to %"class.network::mojom::internal::ProxyLookupClient_OnProxyLookupComplete_Params_Data"*
  call void @_ZN7network5mojom8internal51ProxyLookupClient_OnProxyLookupComplete_Params_DataC1Ev(%"class.network::mojom::internal::ProxyLookupClient_OnProxyLookupComplete_Params_Data"* %12) #7
  %13 = load i8*, i8** %9, align 8
  %14 = getelementptr inbounds i8, i8* %13, i64 %8
  %15 = getelementptr inbounds i8, i8* %14, i64 8
  %16 = bitcast i8* %15 to i32*
  store i32 %1, i32* %16, align 4
  %17 = bitcast %"class.mojo::internal::MessageFragment.24"* %5 to i8*
  call void @llvm.lifetime.start.p0i8(i64 16, i8* nonnull %17) #7
  %18 = getelementptr inbounds %"class.mojo::internal::MessageFragment.24", %"class.mojo::internal::MessageFragment.24"* %5, i64 0, i32 0
  %19 = getelementptr inbounds %"class.mojo::internal::MessageFragment.24", %"class.mojo::internal::MessageFragment.24"* %5, i64 0, i32 1
  store %"class.mojo::Message"* %4, %"class.mojo::Message"** %18, align 8
  store i64 -1, i64* %19, align 8
  call void @_ZN4mojo8internal10SerializerIN14proxy_resolver5mojom17ProxyInfoDataViewENS_9StructPtrINS3_5blink9ProxyInfoEEEE9SerializeERS8_RNS0_15MessageFragmentINS3_8internal14ProxyInfo_DataEEE(%"class.mojo::StructPtr"* dereferenceable(8) %2, %"class.mojo::internal::MessageFragment.24"* nonnull dereferenceable(16) %5) #7
  %20 = load i8*, i8** %9, align 8
  %21 = getelementptr inbounds i8, i8* %20, i64 %8
  %22 = getelementptr inbounds i8, i8* %21, i64 16
  %23 = load i64, i64* %19, align 8
  %24 = icmp eq i64 %23, -1
  br i1 %24, label %31, label %25

25:                                               ; preds = %3
  %26 = load %"class.mojo::Message"*, %"class.mojo::Message"** %18, align 8
  %27 = getelementptr inbounds %"class.mojo::Message", %"class.mojo::Message"* %26, i64 0, i32 1, i32 2
  %28 = load i8*, i8** %27, align 8
  %29 = getelementptr inbounds i8, i8* %28, i64 %23
  %30 = bitcast i8* %29 to %"class.proxy_resolver::mojom::internal::ProxyInfo_Data"*
  br label %31

31:                                               ; preds = %3, %25
  %32 = phi %"class.proxy_resolver::mojom::internal::ProxyInfo_Data"* [ %30, %25 ], [ null, %3 ]
  %33 = bitcast i8* %22 to i64*
  %34 = icmp eq %"class.proxy_resolver::mojom::internal::ProxyInfo_Data"* %32, null
  %35 = ptrtoint %"class.proxy_resolver::mojom::internal::ProxyInfo_Data"* %32 to i64
  %36 = ptrtoint i8* %22 to i64
  %37 = sub i64 %35, %36
  %38 = select i1 %34, i64 0, i64 %37
  store i64 %38, i64* %33, align 8
  %39 = getelementptr inbounds %"class.network::mojom::blink::ProxyLookupClientProxy", %"class.network::mojom::blink::ProxyLookupClientProxy"* %0, i64 0, i32 1
  %40 = bitcast %"class.mojo::MessageReceiverWithResponder"** %39 to %"class.mojo::MessageReceiver"**
  %41 = load %"class.mojo::MessageReceiver"*, %"class.mojo::MessageReceiver"** %40, align 8
  %42 = bitcast %"class.mojo::MessageReceiver"* %41 to i1 (%"class.mojo::MessageReceiver"*, %"class.mojo::Message"*)***
  %43 = load i1 (%"class.mojo::MessageReceiver"*, %"class.mojo::Message"*)**, i1 (%"class.mojo::MessageReceiver"*, %"class.mojo::Message"*)*** %42, align 8
  %44 = getelementptr inbounds i1 (%"class.mojo::MessageReceiver"*, %"class.mojo::Message"*)*, i1 (%"class.mojo::MessageReceiver"*, %"class.mojo::Message"*)** %43, i64 3
  %45 = load i1 (%"class.mojo::MessageReceiver"*, %"class.mojo::Message"*)*, i1 (%"class.mojo::MessageReceiver"*, %"class.mojo::Message"*)** %44, align 8
  %46 = call zeroext i1 %45(%"class.mojo::MessageReceiver"* %41, %"class.mojo::Message"* nonnull %4) #7
  call void @llvm.lifetime.end.p0i8(i64 16, i8* nonnull %17) #7
  call void @_ZN4mojo7MessageD1Ev(%"class.mojo::Message"* nonnull %4) #7
  call void @llvm.lifetime.end.p0i8(i64 120, i8* nonnull %6) #7
  ret void
}

; Function Attrs: argmemonly nounwind
declare void @llvm.lifetime.start.p0i8(i64 immarg, i8* nocapture) #2

; Function Attrs: argmemonly nounwind
declare void @llvm.memset.p0i8.i64(i8* nocapture writeonly, i8, i64, i1 immarg) #2

declare void @_ZN4mojo7MessageC1EjjmmPNSt3__16vectorINS_16ScopedHandleBaseINS_6HandleEEENS1_9allocatorIS5_EEEE(%"class.mojo::Message"*, i32, i32, i64, i64, %"class.std::__1::vector"*) unnamed_addr #3

; Function Attrs: argmemonly nounwind
declare void @llvm.lifetime.end.p0i8(i64 immarg, i8* nocapture) #2

; Function Attrs: nounwind
declare void @_ZN4mojo7MessageD1Ev(%"class.mojo::Message"*) unnamed_addr #4

; Function Attrs: nounwind ssp uwtable
define hidden zeroext i1 @_ZN7network5mojom5blink29ProxyLookupClientStubDispatch6AcceptEPNS1_17ProxyLookupClientEPN4mojo7MessageE(%"class.network::mojom::blink::ProxyLookupClient"*, %"class.mojo::Message"*) local_unnamed_addr #1 align 2 {
  %3 = alloca %"class.base::TaskAnnotator::ScopedSetIpcHash", align 8
  %4 = alloca %"class.mojo::StructPtr", align 8
  %5 = alloca %"class.mojo::StructPtr", align 8
  %6 = getelementptr inbounds %"class.mojo::Message", %"class.mojo::Message"* %1, i64 0, i32 1, i32 2
  %7 = bitcast i8** %6 to %"struct.mojo::internal::MessageHeader"**
  %8 = load %"struct.mojo::internal::MessageHeader"*, %"struct.mojo::internal::MessageHeader"** %7, align 8
  %9 = getelementptr inbounds %"struct.mojo::internal::MessageHeader", %"struct.mojo::internal::MessageHeader"* %8, i64 0, i32 2
  %10 = load i32, i32* %9, align 1
  %11 = icmp eq i32 %10, 1832529097
  br i1 %11, label %12, label %52

12:                                               ; preds = %2
  %13 = bitcast %"class.base::TaskAnnotator::ScopedSetIpcHash"* %3 to i8*
  call void @llvm.lifetime.start.p0i8(i64 24, i8* nonnull %13) #7
  call void @llvm.memset.p0i8.i64(i8* nonnull align 8 %13, i8 -86, i64 24, i1 false)
  call void @_ZN4base13TaskAnnotator16ScopedSetIpcHashC1Ej(%"class.base::TaskAnnotator::ScopedSetIpcHash"* nonnull %3, i32 -1603206856) #7
  %14 = call i8* @_ZNK4mojo7Message7payloadEv(%"class.mojo::Message"* %1) #7
  %15 = bitcast %"class.mojo::StructPtr"* %4 to i8*
  call void @llvm.lifetime.start.p0i8(i64 8, i8* nonnull %15) #7
  %16 = getelementptr inbounds %"class.mojo::StructPtr", %"class.mojo::StructPtr"* %4, i64 0, i32 0, i32 0, i32 0, i32 0
  %17 = bitcast %"class.mojo::StructPtr"* %4 to i64*
  store i64 0, i64* %17, align 8
  %18 = getelementptr inbounds i8, i8* %14, i64 8
  %19 = bitcast i8* %18 to i32*
  %20 = load i32, i32* %19, align 4
  %21 = getelementptr inbounds i8, i8* %14, i64 16
  %22 = bitcast i8* %21 to i64*
  %23 = load i64, i64* %22, align 8
  %24 = icmp eq i64 %23, 0
  br i1 %24, label %25, label %26

25:                                               ; preds = %12
  store %"class.proxy_resolver::mojom::blink::ProxyInfo"* null, %"class.proxy_resolver::mojom::blink::ProxyInfo"** %16, align 8
  br label %33

26:                                               ; preds = %12
  %27 = getelementptr inbounds i8, i8* %21, i64 %23
  %28 = bitcast i8* %27 to %"class.proxy_resolver::mojom::internal::ProxyInfo_Data"*
  %29 = call zeroext i1 @_ZN4mojo12StructTraitsIN14proxy_resolver5mojom17ProxyInfoDataViewENS_9StructPtrINS2_5blink9ProxyInfoEEEE4ReadES3_PS7_(%"class.proxy_resolver::mojom::internal::ProxyInfo_Data"* nonnull %28, %"class.mojo::Message"* %1, %"class.mojo::StructPtr"* nonnull %4) #7
  br i1 %29, label %30, label %32

30:                                               ; preds = %26
  %31 = load i64, i64* %17, align 8
  br label %33

32:                                               ; preds = %26
  call void @_ZN4mojo8internal31ReportValidationErrorForMessageEPNS_7MessageENS0_15ValidationErrorEPKcjb(%"class.mojo::Message"* %1, i32 17, i8* getelementptr inbounds ([32 x i8], [32 x i8]* @_ZN7network5mojom5blink17ProxyLookupClient5Name_E, i64 0, i64 0), i32 0, i1 zeroext false) #7
  br label %45

33:                                               ; preds = %25, %30
  %34 = phi i64 [ %31, %30 ], [ 0, %25 ]
  %35 = bitcast %"class.mojo::StructPtr"* %5 to i64*
  %36 = getelementptr inbounds %"class.mojo::StructPtr", %"class.mojo::StructPtr"* %5, i64 0, i32 0, i32 0, i32 0, i32 0
  store i64 %34, i64* %35, align 8
  store i64 0, i64* %17, align 8
  %37 = bitcast %"class.network::mojom::blink::ProxyLookupClient"* %0 to void (%"class.network::mojom::blink::ProxyLookupClient"*, i32, %"class.mojo::StructPtr"*)***
  %38 = load void (%"class.network::mojom::blink::ProxyLookupClient"*, i32, %"class.mojo::StructPtr"*)**, void (%"class.network::mojom::blink::ProxyLookupClient"*, i32, %"class.mojo::StructPtr"*)*** %37, align 8
  %39 = getelementptr inbounds void (%"class.network::mojom::blink::ProxyLookupClient"*, i32, %"class.mojo::StructPtr"*)*, void (%"class.network::mojom::blink::ProxyLookupClient"*, i32, %"class.mojo::StructPtr"*)** %38, i64 2
  %40 = load void (%"class.network::mojom::blink::ProxyLookupClient"*, i32, %"class.mojo::StructPtr"*)*, void (%"class.network::mojom::blink::ProxyLookupClient"*, i32, %"class.mojo::StructPtr"*)** %39, align 8
  call void %40(%"class.network::mojom::blink::ProxyLookupClient"* %0, i32 %20, %"class.mojo::StructPtr"* nonnull %5) #7
  %41 = load %"class.proxy_resolver::mojom::blink::ProxyInfo"*, %"class.proxy_resolver::mojom::blink::ProxyInfo"** %36, align 8
  store %"class.proxy_resolver::mojom::blink::ProxyInfo"* null, %"class.proxy_resolver::mojom::blink::ProxyInfo"** %36, align 8
  %42 = icmp eq %"class.proxy_resolver::mojom::blink::ProxyInfo"* %41, null
  br i1 %42, label %45, label %43

43:                                               ; preds = %33
  call void @_ZN14proxy_resolver5mojom5blink9ProxyInfoD1Ev(%"class.proxy_resolver::mojom::blink::ProxyInfo"* nonnull %41) #7
  %44 = bitcast %"class.proxy_resolver::mojom::blink::ProxyInfo"* %41 to i8*
  call void @_ZdlPv(i8* %44) #8
  br label %45

45:                                               ; preds = %43, %33, %32
  %46 = phi i1 [ false, %32 ], [ true, %33 ], [ true, %43 ]
  %47 = load %"class.proxy_resolver::mojom::blink::ProxyInfo"*, %"class.proxy_resolver::mojom::blink::ProxyInfo"** %16, align 8
  store %"class.proxy_resolver::mojom::blink::ProxyInfo"* null, %"class.proxy_resolver::mojom::blink::ProxyInfo"** %16, align 8
  %48 = icmp eq %"class.proxy_resolver::mojom::blink::ProxyInfo"* %47, null
  br i1 %48, label %51, label %49

49:                                               ; preds = %45
  call void @_ZN14proxy_resolver5mojom5blink9ProxyInfoD1Ev(%"class.proxy_resolver::mojom::blink::ProxyInfo"* nonnull %47) #7
  %50 = bitcast %"class.proxy_resolver::mojom::blink::ProxyInfo"* %47 to i8*
  call void @_ZdlPv(i8* %50) #8
  br label %51

51:                                               ; preds = %45, %49
  call void @llvm.lifetime.end.p0i8(i64 8, i8* nonnull %15) #7
  call void @_ZN4base13TaskAnnotator16ScopedSetIpcHashD1Ev(%"class.base::TaskAnnotator::ScopedSetIpcHash"* nonnull %3) #7
  call void @llvm.lifetime.end.p0i8(i64 24, i8* nonnull %13) #7
  br label %52

52:                                               ; preds = %2, %51
  %53 = phi i1 [ %46, %51 ], [ false, %2 ]
  ret i1 %53
}

; Function Attrs: argmemonly nounwind
declare void @llvm.memcpy.p0i8.p0i8.i64(i8* nocapture writeonly, i8* nocapture readonly, i64, i1 immarg) #2

declare void @_ZN4base13TaskAnnotator16ScopedSetIpcHashC1Ej(%"class.base::TaskAnnotator::ScopedSetIpcHash"*, i32) unnamed_addr #3

declare void @_ZN4mojo8internal31ReportValidationErrorForMessageEPNS_7MessageENS0_15ValidationErrorEPKcjb(%"class.mojo::Message"*, i32, i8*, i32, i1 zeroext) local_unnamed_addr #3

; Function Attrs: nounwind
declare void @_ZN4base13TaskAnnotator16ScopedSetIpcHashD1Ev(%"class.base::TaskAnnotator::ScopedSetIpcHash"*) unnamed_addr #4

; Function Attrs: nounwind ssp uwtable
define hidden zeroext i1 @_ZN7network5mojom5blink29ProxyLookupClientStubDispatch19AcceptWithResponderEPNS1_17ProxyLookupClientEPN4mojo7MessageENSt3__110unique_ptrINS5_25MessageReceiverWithStatusENS8_14default_deleteISA_EEEE(%"class.network::mojom::blink::ProxyLookupClient"* nocapture readnone, %"class.mojo::Message"* nocapture readonly, %"class.mojo::MessageReceiverWithStatus"*) local_unnamed_addr #1 align 2 {
  %4 = icmp eq %"class.mojo::MessageReceiverWithStatus"* %2, null
  br i1 %4, label %10, label %5

5:                                                ; preds = %3
  %6 = bitcast %"class.mojo::MessageReceiverWithStatus"* %2 to void (%"class.mojo::MessageReceiverWithStatus"*)***
  %7 = load void (%"class.mojo::MessageReceiverWithStatus"*)**, void (%"class.mojo::MessageReceiverWithStatus"*)*** %6, align 8
  %8 = getelementptr inbounds void (%"class.mojo::MessageReceiverWithStatus"*)*, void (%"class.mojo::MessageReceiverWithStatus"*)** %7, i64 1
  %9 = load void (%"class.mojo::MessageReceiverWithStatus"*)*, void (%"class.mojo::MessageReceiverWithStatus"*)** %8, align 8
  tail call void %9(%"class.mojo::MessageReceiverWithStatus"* nonnull %2) #7
  br label %10

10:                                               ; preds = %3, %5
  ret i1 false
}

; Function Attrs: nounwind ssp uwtable
define hidden zeroext i1 @_ZN7network5mojom5blink33ProxyLookupClientRequestValidator6AcceptEPN4mojo7MessageE(%"class.network::mojom::blink::ProxyLookupClientRequestValidator"* nocapture readnone, %"class.mojo::Message"*) unnamed_addr #1 align 2 {
  %3 = tail call zeroext i1 @_ZN4mojo8internal22ValidateRequestGenericEPNS_7MessageEPKcN4base4spanIKNSt3__14pairIjNS0_21GenericValidationInfoEEELm18446744073709551615EEE(%"class.mojo::Message"* %1, i8* getelementptr inbounds ([32 x i8], [32 x i8]* @_ZN7network5mojom5blink17ProxyLookupClient5Name_E, i64 0, i64 0), i64 1, %"struct.std::__1::pair"* getelementptr inbounds ([1 x %"struct.std::__1::pair"], [1 x %"struct.std::__1::pair"]* @_ZN7network5mojom5blinkL32kProxyLookupClientValidationInfoE, i64 0, i64 0)) #7
  ret i1 %3
}

declare zeroext i1 @_ZN4mojo8internal22ValidateRequestGenericEPNS_7MessageEPKcN4base4spanIKNSt3__14pairIjNS0_21GenericValidationInfoEEELm18446744073709551615EEE(%"class.mojo::Message"*, i8*, i64, %"struct.std::__1::pair"*) local_unnamed_addr #3

; Function Attrs: nounwind ssp uwtable
define linkonce_odr hidden void @_ZN7network5mojom5blink17ProxyLookupClientD2Ev(%"class.network::mojom::blink::ProxyLookupClient"*) unnamed_addr #1 comdat align 2 {
  ret void
}

; Function Attrs: inlinehint nounwind ssp uwtable
define linkonce_odr hidden void @_ZN7network5mojom5blink22ProxyLookupClientProxyD0Ev(%"class.network::mojom::blink::ProxyLookupClientProxy"*) unnamed_addr #5 comdat align 2 {
  %2 = bitcast %"class.network::mojom::blink::ProxyLookupClientProxy"* %0 to i8*
  tail call void @_ZdlPv(i8* %2) #8
  ret void
}

; Function Attrs: nounwind ssp uwtable
define linkonce_odr hidden void @_ZN4mojo15MessageReceiverD2Ev(%"class.mojo::MessageReceiver"*) unnamed_addr #1 comdat align 2 {
  ret void
}

; Function Attrs: inlinehint nounwind ssp uwtable
define linkonce_odr hidden void @_ZN7network5mojom5blink33ProxyLookupClientRequestValidatorD0Ev(%"class.network::mojom::blink::ProxyLookupClientRequestValidator"*) unnamed_addr #5 comdat align 2 {
  %2 = bitcast %"class.network::mojom::blink::ProxyLookupClientRequestValidator"* %0 to i8*
  tail call void @_ZdlPv(i8* %2) #8
  ret void
}

declare zeroext i1 @_ZN4mojo15MessageReceiver25PrefersSerializedMessagesEv(%"class.mojo::MessageReceiver"*) unnamed_addr #3

declare i8* @_ZNK4mojo7Message7payloadEv(%"class.mojo::Message"*) local_unnamed_addr #3

; Function Attrs: nounwind
declare void @_ZN14proxy_resolver5mojom5blink9ProxyInfoD1Ev(%"class.proxy_resolver::mojom::blink::ProxyInfo"*) unnamed_addr #4

; Function Attrs: nobuiltin nounwind
declare void @_ZdlPv(i8*) local_unnamed_addr #6

declare zeroext i1 @_ZN7network5mojom8internal51ProxyLookupClient_OnProxyLookupComplete_Params_Data8ValidateEPKvPN4mojo8internal17ValidationContextE(i8*, %"class.mojo::internal::ValidationContext"*) #3

declare i64 @_ZN4mojo8internal6Buffer8AllocateEm(%"class.mojo::internal::Buffer"*, i64) local_unnamed_addr #3

declare void @_ZN7network5mojom8internal51ProxyLookupClient_OnProxyLookupComplete_Params_DataC1Ev(%"class.network::mojom::internal::ProxyLookupClient_OnProxyLookupComplete_Params_Data"*) unnamed_addr #3

; Function Attrs: nounwind ssp uwtable
define linkonce_odr hidden void @_ZN4mojo8internal10SerializerIN14proxy_resolver5mojom17ProxyInfoDataViewENS_9StructPtrINS3_5blink9ProxyInfoEEEE9SerializeERS8_RNS0_15MessageFragmentINS3_8internal14ProxyInfo_DataEEE(%"class.mojo::StructPtr"* dereferenceable(8), %"class.mojo::internal::MessageFragment.24"* dereferenceable(16)) local_unnamed_addr #1 comdat align 2 {
  %3 = alloca %"class.mojo::internal::MessageFragment.33", align 8
  %4 = alloca %"class.mojo::internal::ContainerValidateParams", align 8
  %5 = getelementptr inbounds %"class.mojo::StructPtr", %"class.mojo::StructPtr"* %0, i64 0, i32 0, i32 0, i32 0, i32 0
  %6 = load %"class.proxy_resolver::mojom::blink::ProxyInfo"*, %"class.proxy_resolver::mojom::blink::ProxyInfo"** %5, align 8
  %7 = icmp eq %"class.proxy_resolver::mojom::blink::ProxyInfo"* %6, null
  br i1 %7, label %104, label %8

8:                                                ; preds = %2
  %9 = getelementptr inbounds %"class.mojo::internal::MessageFragment.24", %"class.mojo::internal::MessageFragment.24"* %1, i64 0, i32 0
  %10 = load %"class.mojo::Message"*, %"class.mojo::Message"** %9, align 8
  %11 = getelementptr inbounds %"class.mojo::Message", %"class.mojo::Message"* %10, i64 0, i32 1
  %12 = tail call i64 @_ZN4mojo8internal6Buffer8AllocateEm(%"class.mojo::internal::Buffer"* %11, i64 16) #7
  %13 = getelementptr inbounds %"class.mojo::internal::MessageFragment.24", %"class.mojo::internal::MessageFragment.24"* %1, i64 0, i32 1
  store i64 %12, i64* %13, align 8
  %14 = load %"class.mojo::Message"*, %"class.mojo::Message"** %9, align 8
  %15 = getelementptr inbounds %"class.mojo::Message", %"class.mojo::Message"* %14, i64 0, i32 1, i32 2
  %16 = load i8*, i8** %15, align 8
  %17 = getelementptr inbounds i8, i8* %16, i64 %12
  %18 = bitcast i8* %17 to %"class.proxy_resolver::mojom::internal::ProxyInfo_Data"*
  tail call void @_ZN14proxy_resolver5mojom8internal14ProxyInfo_DataC1Ev(%"class.proxy_resolver::mojom::internal::ProxyInfo_Data"* %18) #7
  %19 = load %"class.proxy_resolver::mojom::blink::ProxyInfo"*, %"class.proxy_resolver::mojom::blink::ProxyInfo"** %5, align 8
  %20 = getelementptr inbounds %"class.proxy_resolver::mojom::blink::ProxyInfo", %"class.proxy_resolver::mojom::blink::ProxyInfo"* %19, i64 0, i32 0
  %21 = load %"class.mojo::Message"*, %"class.mojo::Message"** %9, align 8
  %22 = ptrtoint %"class.mojo::Message"* %21 to i64
  %23 = bitcast %"class.mojo::internal::ContainerValidateParams"* %4 to i8*
  call void @llvm.lifetime.start.p0i8(i64 32, i8* nonnull %23) #7
  %24 = bitcast %"class.mojo::internal::ContainerValidateParams"* %4 to i64*
  store i64 -6148914691236517206, i64* %24, align 8
  %25 = getelementptr inbounds %"class.mojo::internal::ContainerValidateParams", %"class.mojo::internal::ContainerValidateParams"* %4, i64 0, i32 0
  store i32 0, i32* %25, align 8
  %26 = getelementptr inbounds %"class.mojo::internal::ContainerValidateParams", %"class.mojo::internal::ContainerValidateParams"* %4, i64 0, i32 1
  store i8 0, i8* %26, align 4
  %27 = getelementptr inbounds %"class.mojo::internal::ContainerValidateParams", %"class.mojo::internal::ContainerValidateParams"* %4, i64 0, i32 2
  %28 = getelementptr inbounds %"class.proxy_resolver::mojom::blink::ProxyInfo", %"class.proxy_resolver::mojom::blink::ProxyInfo"* %19, i64 0, i32 0, i32 0, i32 0, i32 2
  %29 = bitcast %"class.mojo::internal::ContainerValidateParams"** %27 to i8*
  call void @llvm.memset.p0i8.i64(i8* align 8 %29, i8 0, i64 24, i1 false)
  %30 = load i32, i32* %28, align 4
  %31 = icmp ugt i32 %30, 536870910
  br i1 %31, label %46, label %32

32:                                               ; preds = %8
  %33 = shl i32 %30, 3
  %34 = add nuw i32 %33, 8
  %35 = getelementptr inbounds %"class.mojo::Message", %"class.mojo::Message"* %21, i64 0, i32 1
  %36 = zext i32 %34 to i64
  %37 = tail call i64 @_ZN4mojo8internal6Buffer8AllocateEm(%"class.mojo::internal::Buffer"* %35, i64 %36) #7
  %38 = getelementptr inbounds %"class.mojo::Message", %"class.mojo::Message"* %21, i64 0, i32 1, i32 2
  %39 = load i8*, i8** %38, align 8
  %40 = getelementptr inbounds i8, i8* %39, i64 %37
  %41 = bitcast i8* %40 to i32*
  store i32 %34, i32* %41, align 1
  %42 = getelementptr inbounds i8, i8* %40, i64 4
  %43 = bitcast i8* %42 to i32*
  store i32 %30, i32* %43, align 1
  %44 = load i32, i32* %28, align 4
  %45 = icmp eq i32 %44, 0
  br i1 %45, label %82, label %46

46:                                               ; preds = %32, %8
  %47 = phi i64 [ -1, %8 ], [ %37, %32 ]
  %48 = phi i32 [ %30, %8 ], [ %44, %32 ]
  %49 = zext i32 %48 to i64
  %50 = bitcast %"class.mojo::internal::MessageFragment.33"* %3 to i8*
  %51 = getelementptr inbounds %"class.mojo::internal::MessageFragment.33", %"class.mojo::internal::MessageFragment.33"* %3, i64 0, i32 0
  %52 = getelementptr inbounds %"class.mojo::internal::MessageFragment.33", %"class.mojo::internal::MessageFragment.33"* %3, i64 0, i32 1
  %53 = bitcast %"class.mojo::internal::MessageFragment.33"* %3 to i64*
  %54 = getelementptr inbounds %"class.mojo::Message", %"class.mojo::Message"* %21, i64 0, i32 1, i32 2
  br label %55

55:                                               ; preds = %73, %46
  %56 = phi i64 [ 0, %46 ], [ %57, %73 ]
  call void @llvm.lifetime.start.p0i8(i64 16, i8* nonnull %50) #7
  store i64 %22, i64* %53, align 8
  store i64 -1, i64* %52, align 8
  %57 = add nuw i64 %56, 1
  %58 = trunc i64 %56 to i32
  %59 = call dereferenceable(32) %"class.mojo::InlinedStructPtr"* @_ZNK3WTF6VectorIN4mojo16InlinedStructPtrIN14proxy_resolver5mojom5blink11ProxyServerEEELj0ENS_18PartitionAllocatorEE2atEj(%"class.WTF::Vector"* %20, i32 %58) #7
  call void @_ZN4mojo8internal10SerializerIN14proxy_resolver5mojom19ProxyServerDataViewEKNS_16InlinedStructPtrINS3_5blink11ProxyServerEEEE9SerializeERS9_RNS0_15MessageFragmentINS3_8internal16ProxyServer_DataEEE(%"class.mojo::InlinedStructPtr"* dereferenceable(32) %59, %"class.mojo::internal::MessageFragment.33"* nonnull dereferenceable(16) %3) #7
  %60 = load i8*, i8** %54, align 8
  %61 = getelementptr inbounds i8, i8* %60, i64 8
  %62 = getelementptr inbounds i8, i8* %61, i64 %47
  %63 = bitcast i8* %62 to %"class.mojo::internal::Array_Data"*
  %64 = getelementptr inbounds %"class.mojo::internal::Array_Data", %"class.mojo::internal::Array_Data"* %63, i64 %56
  %65 = load i64, i64* %52, align 8
  %66 = icmp eq i64 %65, -1
  br i1 %66, label %73, label %67

67:                                               ; preds = %55
  %68 = load %"class.mojo::Message"*, %"class.mojo::Message"** %51, align 8
  %69 = getelementptr inbounds %"class.mojo::Message", %"class.mojo::Message"* %68, i64 0, i32 1, i32 2
  %70 = load i8*, i8** %69, align 8
  %71 = getelementptr inbounds i8, i8* %70, i64 %65
  %72 = bitcast i8* %71 to %"class.proxy_resolver::mojom::internal::ProxyServer_Data"*
  br label %73

73:                                               ; preds = %67, %55
  %74 = phi %"class.proxy_resolver::mojom::internal::ProxyServer_Data"* [ %72, %67 ], [ null, %55 ]
  %75 = bitcast %"class.mojo::internal::Array_Data"* %64 to i64*
  %76 = icmp eq %"class.proxy_resolver::mojom::internal::ProxyServer_Data"* %74, null
  %77 = ptrtoint %"class.proxy_resolver::mojom::internal::ProxyServer_Data"* %74 to i64
  %78 = ptrtoint %"class.mojo::internal::Array_Data"* %64 to i64
  %79 = sub i64 %77, %78
  %80 = select i1 %76, i64 0, i64 %79
  store i64 %80, i64* %75, align 8
  call void @llvm.lifetime.end.p0i8(i64 16, i8* nonnull %50) #7
  %81 = icmp eq i64 %57, %49
  br i1 %81, label %82, label %55

82:                                               ; preds = %73, %32
  %83 = phi i64 [ %37, %32 ], [ %47, %73 ]
  %84 = load %"class.mojo::Message"*, %"class.mojo::Message"** %9, align 8
  %85 = load i64, i64* %13, align 8
  %86 = getelementptr inbounds %"class.mojo::Message", %"class.mojo::Message"* %84, i64 0, i32 1, i32 2
  %87 = load i8*, i8** %86, align 8
  %88 = getelementptr inbounds i8, i8* %87, i64 %85
  %89 = getelementptr inbounds i8, i8* %88, i64 8
  %90 = icmp eq i64 %83, -1
  br i1 %90, label %96, label %91

91:                                               ; preds = %82
  %92 = getelementptr inbounds %"class.mojo::Message", %"class.mojo::Message"* %21, i64 0, i32 1, i32 2
  %93 = load i8*, i8** %92, align 8
  %94 = getelementptr inbounds i8, i8* %93, i64 %83
  %95 = bitcast i8* %94 to %"class.mojo::internal::Array_Data"*
  br label %96

96:                                               ; preds = %82, %91
  %97 = phi %"class.mojo::internal::Array_Data"* [ %95, %91 ], [ null, %82 ]
  %98 = bitcast i8* %89 to i64*
  %99 = icmp eq %"class.mojo::internal::Array_Data"* %97, null
  %100 = ptrtoint %"class.mojo::internal::Array_Data"* %97 to i64
  %101 = ptrtoint i8* %89 to i64
  %102 = sub i64 %100, %101
  %103 = select i1 %99, i64 0, i64 %102
  store i64 %103, i64* %98, align 8
  call void @_ZN4mojo8internal23ContainerValidateParamsD2Ev(%"class.mojo::internal::ContainerValidateParams"* nonnull %4) #7
  call void @llvm.lifetime.end.p0i8(i64 32, i8* nonnull %23) #7
  br label %104

104:                                              ; preds = %2, %96
  ret void
}

; Function Attrs: nounwind ssp uwtable
define linkonce_odr hidden void @_ZN4mojo8internal23ContainerValidateParamsD2Ev(%"class.mojo::internal::ContainerValidateParams"*) unnamed_addr #1 comdat align 2 {
  %2 = getelementptr inbounds %"class.mojo::internal::ContainerValidateParams", %"class.mojo::internal::ContainerValidateParams"* %0, i64 0, i32 3
  %3 = load %"class.mojo::internal::ContainerValidateParams"*, %"class.mojo::internal::ContainerValidateParams"** %2, align 8
  %4 = icmp eq %"class.mojo::internal::ContainerValidateParams"* %3, null
  br i1 %4, label %7, label %5

5:                                                ; preds = %1
  tail call void @_ZN4mojo8internal23ContainerValidateParamsD2Ev(%"class.mojo::internal::ContainerValidateParams"* nonnull %3) #7
  %6 = bitcast %"class.mojo::internal::ContainerValidateParams"* %3 to i8*
  tail call void @_ZdlPv(i8* %6) #8
  br label %7

7:                                                ; preds = %1, %5
  %8 = getelementptr inbounds %"class.mojo::internal::ContainerValidateParams", %"class.mojo::internal::ContainerValidateParams"* %0, i64 0, i32 2
  %9 = load %"class.mojo::internal::ContainerValidateParams"*, %"class.mojo::internal::ContainerValidateParams"** %8, align 8
  %10 = icmp eq %"class.mojo::internal::ContainerValidateParams"* %9, null
  br i1 %10, label %13, label %11

11:                                               ; preds = %7
  tail call void @_ZN4mojo8internal23ContainerValidateParamsD2Ev(%"class.mojo::internal::ContainerValidateParams"* nonnull %9) #7
  %12 = bitcast %"class.mojo::internal::ContainerValidateParams"* %9 to i8*
  tail call void @_ZdlPv(i8* %12) #8
  ret void

13:                                               ; preds = %7
  ret void
}

declare void @_ZN14proxy_resolver5mojom8internal14ProxyInfo_DataC1Ev(%"class.proxy_resolver::mojom::internal::ProxyInfo_Data"*) unnamed_addr #3

; Function Attrs: nounwind ssp uwtable
define linkonce_odr hidden dereferenceable(32) %"class.mojo::InlinedStructPtr"* @_ZNK3WTF6VectorIN4mojo16InlinedStructPtrIN14proxy_resolver5mojom5blink11ProxyServerEEELj0ENS_18PartitionAllocatorEE2atEj(%"class.WTF::Vector"*, i32) local_unnamed_addr #1 comdat align 2 {
  %3 = alloca %"class.logging::CheckOpResult", align 8
  %4 = alloca %"class.logging::CheckOpResult", align 8
  %5 = alloca %"class.logging::CheckError", align 8
  %6 = bitcast %"class.logging::CheckOpResult"* %4 to i8*
  call void @llvm.lifetime.start.p0i8(i64 8, i8* nonnull %6) #7
  %7 = getelementptr inbounds %"class.logging::CheckOpResult", %"class.logging::CheckOpResult"* %4, i64 0, i32 0
  store i8* inttoptr (i64 -6148914691236517206 to i8*), i8** %7, align 8
  %8 = getelementptr inbounds %"class.WTF::Vector", %"class.WTF::Vector"* %0, i64 0, i32 0, i32 0, i32 2
  %9 = load i32, i32* %8, align 4
  %10 = bitcast %"class.logging::CheckOpResult"* %3 to i8*
  call void @llvm.lifetime.start.p0i8(i64 8, i8* nonnull %10)
  %11 = icmp ugt i32 %9, %1
  br i1 %11, label %12, label %13

12:                                               ; preds = %2
  call void @llvm.lifetime.end.p0i8(i64 8, i8* nonnull %10)
  store i8* null, i8** %7, align 8
  br label %22

13:                                               ; preds = %2
  %14 = tail call i8* @_ZN7logging15CheckOpValueStrEj(i32 %1) #7
  %15 = tail call i8* @_ZN7logging15CheckOpValueStrEj(i32 %9) #7
  call void @_ZN7logging13CheckOpResultC1EPKcPcS3_(%"class.logging::CheckOpResult"* nonnull %3, i8* getelementptr inbounds ([11 x i8], [11 x i8]* @.str, i64 0, i64 0), i8* %14, i8* %15) #7
  %16 = getelementptr inbounds %"class.logging::CheckOpResult", %"class.logging::CheckOpResult"* %3, i64 0, i32 0
  %17 = load i8*, i8** %16, align 8
  call void @llvm.lifetime.end.p0i8(i64 8, i8* nonnull %10)
  store i8* %17, i8** %7, align 8
  %18 = icmp eq i8* %17, null
  br i1 %18, label %22, label %19

19:                                               ; preds = %13
  %20 = bitcast %"class.logging::CheckError"* %5 to i8*
  call void @llvm.lifetime.start.p0i8(i64 8, i8* nonnull %20) #7
  call void @_ZN7logging10CheckError7CheckOpEPKciPNS_13CheckOpResultE(%"class.logging::CheckError"* nonnull sret %5, i8* getelementptr inbounds ([55 x i8], [55 x i8]* @.str.1, i64 0, i64 0), i32 1176, %"class.logging::CheckOpResult"* nonnull %4) #7
  %21 = call dereferenceable(160) %"class.std::__1::basic_ostream"* @_ZN7logging10CheckError6streamEv(%"class.logging::CheckError"* nonnull %5) #7
  call void @_ZN7logging10CheckErrorD1Ev(%"class.logging::CheckError"* nonnull %5) #7
  call void @llvm.lifetime.end.p0i8(i64 8, i8* nonnull %20) #7
  br label %22

22:                                               ; preds = %12, %13, %19
  call void @llvm.lifetime.end.p0i8(i64 8, i8* nonnull %6) #7
  %23 = getelementptr inbounds %"class.WTF::Vector", %"class.WTF::Vector"* %0, i64 0, i32 0, i32 0, i32 0
  %24 = load %"class.mojo::InlinedStructPtr"*, %"class.mojo::InlinedStructPtr"** %23, align 8
  %25 = zext i32 %1 to i64
  %26 = getelementptr inbounds %"class.mojo::InlinedStructPtr", %"class.mojo::InlinedStructPtr"* %24, i64 %25
  ret %"class.mojo::InlinedStructPtr"* %26
}

declare void @_ZN7logging10CheckError7CheckOpEPKciPNS_13CheckOpResultE(%"class.logging::CheckError"* sret, i8*, i32, %"class.logging::CheckOpResult"*) local_unnamed_addr #3

declare dereferenceable(160) %"class.std::__1::basic_ostream"* @_ZN7logging10CheckError6streamEv(%"class.logging::CheckError"*) local_unnamed_addr #3

; Function Attrs: nounwind
declare void @_ZN7logging10CheckErrorD1Ev(%"class.logging::CheckError"*) unnamed_addr #4

declare i8* @_ZN7logging15CheckOpValueStrEj(i32) local_unnamed_addr #3

declare void @_ZN7logging13CheckOpResultC1EPKcPcS3_(%"class.logging::CheckOpResult"*, i8*, i8*, i8*) unnamed_addr #3

; Function Attrs: nounwind ssp uwtable
define linkonce_odr hidden void @_ZN4mojo8internal10SerializerIN14proxy_resolver5mojom19ProxyServerDataViewEKNS_16InlinedStructPtrINS3_5blink11ProxyServerEEEE9SerializeERS9_RNS0_15MessageFragmentINS3_8internal16ProxyServer_DataEEE(%"class.mojo::InlinedStructPtr"* dereferenceable(32), %"class.mojo::internal::MessageFragment.33"* dereferenceable(16)) local_unnamed_addr #1 comdat align 2 {
  %3 = alloca %"class.WTF::StringUTF8Adaptor", align 8
  %4 = getelementptr inbounds %"class.mojo::InlinedStructPtr", %"class.mojo::InlinedStructPtr"* %0, i64 0, i32 1
  %5 = load i32, i32* %4, align 8
  %6 = icmp eq i32 %5, 0
  br i1 %6, label %95, label %7

7:                                                ; preds = %2
  %8 = getelementptr inbounds %"class.mojo::internal::MessageFragment.33", %"class.mojo::internal::MessageFragment.33"* %1, i64 0, i32 0
  %9 = load %"class.mojo::Message"*, %"class.mojo::Message"** %8, align 8
  %10 = getelementptr inbounds %"class.mojo::Message", %"class.mojo::Message"* %9, i64 0, i32 1
  %11 = tail call i64 @_ZN4mojo8internal6Buffer8AllocateEm(%"class.mojo::internal::Buffer"* %10, i64 24) #7
  %12 = getelementptr inbounds %"class.mojo::internal::MessageFragment.33", %"class.mojo::internal::MessageFragment.33"* %1, i64 0, i32 1
  store i64 %11, i64* %12, align 8
  %13 = load %"class.mojo::Message"*, %"class.mojo::Message"** %8, align 8
  %14 = getelementptr inbounds %"class.mojo::Message", %"class.mojo::Message"* %13, i64 0, i32 1, i32 2
  %15 = load i8*, i8** %14, align 8
  %16 = getelementptr inbounds i8, i8* %15, i64 %11
  %17 = bitcast i8* %16 to %"class.proxy_resolver::mojom::internal::ProxyServer_Data"*
  tail call void @_ZN14proxy_resolver5mojom8internal16ProxyServer_DataC1Ev(%"class.proxy_resolver::mojom::internal::ProxyServer_Data"* %17) #7
  %18 = getelementptr inbounds %"class.mojo::InlinedStructPtr", %"class.mojo::InlinedStructPtr"* %0, i64 0, i32 0, i32 0
  %19 = load i32, i32* %18, align 8
  %20 = load %"class.mojo::Message"*, %"class.mojo::Message"** %8, align 8
  %21 = load i64, i64* %12, align 8
  %22 = getelementptr inbounds %"class.mojo::Message", %"class.mojo::Message"* %20, i64 0, i32 1, i32 2
  %23 = load i8*, i8** %22, align 8
  %24 = getelementptr inbounds i8, i8* %23, i64 %21
  %25 = getelementptr inbounds i8, i8* %24, i64 8
  %26 = bitcast i8* %25 to i32*
  store i32 %19, i32* %26, align 4
  %27 = getelementptr inbounds %"class.mojo::InlinedStructPtr", %"class.mojo::InlinedStructPtr"* %0, i64 0, i32 0, i32 2
  %28 = load %"class.mojo::Message"*, %"class.mojo::Message"** %8, align 8
  %29 = getelementptr inbounds %"class.WTF::String", %"class.WTF::String"* %27, i64 0, i32 0, i32 0
  %30 = load %"class.WTF::StringImpl"*, %"class.WTF::StringImpl"** %29, align 8
  %31 = icmp eq %"class.WTF::StringImpl"* %30, null
  br i1 %31, label %32, label %38

32:                                               ; preds = %7
  %33 = load i64, i64* %12, align 8
  %34 = getelementptr inbounds %"class.mojo::Message", %"class.mojo::Message"* %28, i64 0, i32 1, i32 2
  %35 = load i8*, i8** %34, align 8
  %36 = getelementptr inbounds i8, i8* %35, i64 %33
  %37 = getelementptr inbounds i8, i8* %36, i64 16
  br label %77

38:                                               ; preds = %7
  %39 = bitcast %"class.WTF::StringUTF8Adaptor"* %3 to i8*
  call void @llvm.lifetime.start.p0i8(i64 40, i8* nonnull %39) #7
  call void @llvm.memset.p0i8.i64(i8* nonnull align 8 %39, i8 -86, i64 40, i1 false) #7
  call void @_ZN4mojo12StringTraitsIN3WTF6StringEE7GetUTF8ERKS2_(%"class.WTF::StringUTF8Adaptor"* nonnull sret %3, %"class.WTF::String"* dereferenceable(8) %27) #7
  %40 = getelementptr inbounds %"class.WTF::StringUTF8Adaptor", %"class.WTF::StringUTF8Adaptor"* %3, i64 0, i32 2
  %41 = load i32, i32* %40, align 8
  %42 = icmp ugt i32 %41, -9
  br i1 %42, label %55, label %43

43:                                               ; preds = %38
  %44 = add nuw i32 %41, 8
  %45 = getelementptr inbounds %"class.mojo::Message", %"class.mojo::Message"* %28, i64 0, i32 1
  %46 = zext i32 %44 to i64
  %47 = call i64 @_ZN4mojo8internal6Buffer8AllocateEm(%"class.mojo::internal::Buffer"* %45, i64 %46) #7
  %48 = getelementptr inbounds %"class.mojo::Message", %"class.mojo::Message"* %28, i64 0, i32 1, i32 2
  %49 = load i8*, i8** %48, align 8
  %50 = getelementptr inbounds i8, i8* %49, i64 %47
  %51 = bitcast i8* %50 to i32*
  store i32 %44, i32* %51, align 1
  %52 = getelementptr inbounds i8, i8* %50, i64 4
  %53 = bitcast i8* %52 to i32*
  store i32 %41, i32* %53, align 1
  %54 = load i32, i32* %40, align 8
  br label %55

55:                                               ; preds = %38, %43
  %56 = phi i64 [ -1, %38 ], [ %47, %43 ]
  %57 = phi i32 [ %41, %38 ], [ %54, %43 ]
  %58 = getelementptr inbounds %"class.mojo::Message", %"class.mojo::Message"* %28, i64 0, i32 1, i32 2
  %59 = load i8*, i8** %58, align 8
  %60 = getelementptr inbounds i8, i8* %59, i64 %56
  %61 = getelementptr inbounds i8, i8* %60, i64 8
  %62 = getelementptr inbounds %"class.WTF::StringUTF8Adaptor", %"class.WTF::StringUTF8Adaptor"* %3, i64 0, i32 1
  %63 = load i8*, i8** %62, align 8
  %64 = zext i32 %57 to i64
  call void @llvm.memcpy.p0i8.p0i8.i64(i8* align 1 %61, i8* align 1 %63, i64 %64, i1 false) #7
  call void @_ZN3WTF17StringUTF8AdaptorD1Ev(%"class.WTF::StringUTF8Adaptor"* nonnull %3) #7
  call void @llvm.lifetime.end.p0i8(i64 40, i8* nonnull %39) #7
  %65 = load %"class.mojo::Message"*, %"class.mojo::Message"** %8, align 8
  %66 = load i64, i64* %12, align 8
  %67 = getelementptr inbounds %"class.mojo::Message", %"class.mojo::Message"* %65, i64 0, i32 1, i32 2
  %68 = load i8*, i8** %67, align 8
  %69 = getelementptr inbounds i8, i8* %68, i64 %66
  %70 = getelementptr inbounds i8, i8* %69, i64 16
  %71 = icmp eq i64 %56, -1
  br i1 %71, label %77, label %72

72:                                               ; preds = %55
  %73 = getelementptr inbounds %"class.mojo::Message", %"class.mojo::Message"* %28, i64 0, i32 1, i32 2
  %74 = load i8*, i8** %73, align 8
  %75 = getelementptr inbounds i8, i8* %74, i64 %56
  %76 = bitcast i8* %75 to %"class.mojo::internal::Array_Data.42"*
  br label %77

77:                                               ; preds = %32, %55, %72
  %78 = phi i8* [ %70, %72 ], [ %70, %55 ], [ %37, %32 ]
  %79 = phi %"class.mojo::internal::Array_Data.42"* [ %76, %72 ], [ null, %55 ], [ null, %32 ]
  %80 = bitcast i8* %78 to i64*
  %81 = icmp eq %"class.mojo::internal::Array_Data.42"* %79, null
  %82 = ptrtoint %"class.mojo::internal::Array_Data.42"* %79 to i64
  %83 = ptrtoint i8* %78 to i64
  %84 = sub i64 %82, %83
  %85 = select i1 %81, i64 0, i64 %84
  store i64 %85, i64* %80, align 8
  %86 = getelementptr inbounds %"class.mojo::InlinedStructPtr", %"class.mojo::InlinedStructPtr"* %0, i64 0, i32 0, i32 3
  %87 = load i16, i16* %86, align 8
  %88 = load %"class.mojo::Message"*, %"class.mojo::Message"** %8, align 8
  %89 = load i64, i64* %12, align 8
  %90 = getelementptr inbounds %"class.mojo::Message", %"class.mojo::Message"* %88, i64 0, i32 1, i32 2
  %91 = load i8*, i8** %90, align 8
  %92 = getelementptr inbounds i8, i8* %91, i64 %89
  %93 = getelementptr inbounds i8, i8* %92, i64 12
  %94 = bitcast i8* %93 to i16*
  store i16 %87, i16* %94, align 1
  br label %95

95:                                               ; preds = %2, %77
  ret void
}

declare void @_ZN14proxy_resolver5mojom8internal16ProxyServer_DataC1Ev(%"class.proxy_resolver::mojom::internal::ProxyServer_Data"*) unnamed_addr #3

declare void @_ZN4mojo12StringTraitsIN3WTF6StringEE7GetUTF8ERKS2_(%"class.WTF::StringUTF8Adaptor"* sret, %"class.WTF::String"* dereferenceable(8)) local_unnamed_addr #3

; Function Attrs: nounwind
declare void @_ZN3WTF17StringUTF8AdaptorD1Ev(%"class.WTF::StringUTF8Adaptor"*) unnamed_addr #4

declare zeroext i1 @_ZN4mojo12StructTraitsIN14proxy_resolver5mojom17ProxyInfoDataViewENS_9StructPtrINS2_5blink9ProxyInfoEEEE4ReadES3_PS7_(%"class.proxy_resolver::mojom::internal::ProxyInfo_Data"*, %"class.mojo::Message"*, %"class.mojo::StructPtr"*) local_unnamed_addr #3

attributes #0 = { nofree norecurse nounwind ssp uwtable writeonly "correctly-rounded-divide-sqrt-fp-math"="false" "disable-tail-calls"="false" "less-precise-fpmad"="false" "min-legal-vector-width"="0" "no-frame-pointer-elim"="false" "no-frame-pointer-elim-non-leaf" "no-infs-fp-math"="false" "no-jump-tables"="false" "no-nans-fp-math"="false" "no-signed-zeros-fp-math"="false" "no-trapping-math"="false" "null-pointer-is-valid"="true" "stack-protector-buffer-size"="4" "target-cpu"="x86-64" "target-features"="+cx8,+fxsr,+mmx,+sse,+sse2,+sse3,+x87" "unsafe-fp-math"="false" "use-soft-float"="false" }
attributes #1 = { nounwind ssp uwtable "correctly-rounded-divide-sqrt-fp-math"="false" "disable-tail-calls"="false" "less-precise-fpmad"="false" "min-legal-vector-width"="0" "no-frame-pointer-elim"="false" "no-frame-pointer-elim-non-leaf" "no-infs-fp-math"="false" "no-jump-tables"="false" "no-nans-fp-math"="false" "no-signed-zeros-fp-math"="false" "no-trapping-math"="false" "null-pointer-is-valid"="true" "stack-protector-buffer-size"="4" "target-cpu"="x86-64" "target-features"="+cx8,+fxsr,+mmx,+sse,+sse2,+sse3,+x87" "unsafe-fp-math"="false" "use-soft-float"="false" }
attributes #2 = { argmemonly nounwind }
attributes #3 = { "correctly-rounded-divide-sqrt-fp-math"="false" "disable-tail-calls"="false" "less-precise-fpmad"="false" "no-frame-pointer-elim"="false" "no-frame-pointer-elim-non-leaf" "no-infs-fp-math"="false" "no-nans-fp-math"="false" "no-signed-zeros-fp-math"="false" "no-trapping-math"="false" "null-pointer-is-valid"="true" "stack-protector-buffer-size"="4" "target-cpu"="x86-64" "target-features"="+cx8,+fxsr,+mmx,+sse,+sse2,+sse3,+x87" "unsafe-fp-math"="false" "use-soft-float"="false" }
attributes #4 = { nounwind "correctly-rounded-divide-sqrt-fp-math"="false" "disable-tail-calls"="false" "less-precise-fpmad"="false" "no-frame-pointer-elim"="false" "no-frame-pointer-elim-non-leaf" "no-infs-fp-math"="false" "no-nans-fp-math"="false" "no-signed-zeros-fp-math"="false" "no-trapping-math"="false" "null-pointer-is-valid"="true" "stack-protector-buffer-size"="4" "target-cpu"="x86-64" "target-features"="+cx8,+fxsr,+mmx,+sse,+sse2,+sse3,+x87" "unsafe-fp-math"="false" "use-soft-float"="false" }
attributes #5 = { inlinehint nounwind ssp uwtable "correctly-rounded-divide-sqrt-fp-math"="false" "disable-tail-calls"="false" "less-precise-fpmad"="false" "min-legal-vector-width"="0" "no-frame-pointer-elim"="false" "no-frame-pointer-elim-non-leaf" "no-infs-fp-math"="false" "no-jump-tables"="false" "no-nans-fp-math"="false" "no-signed-zeros-fp-math"="false" "no-trapping-math"="false" "null-pointer-is-valid"="true" "stack-protector-buffer-size"="4" "target-cpu"="x86-64" "target-features"="+cx8,+fxsr,+mmx,+sse,+sse2,+sse3,+x87" "unsafe-fp-math"="false" "use-soft-float"="false" }
attributes #6 = { nobuiltin nounwind "correctly-rounded-divide-sqrt-fp-math"="false" "disable-tail-calls"="false" "less-precise-fpmad"="false" "no-frame-pointer-elim"="false" "no-frame-pointer-elim-non-leaf" "no-infs-fp-math"="false" "no-nans-fp-math"="false" "no-signed-zeros-fp-math"="false" "no-trapping-math"="false" "null-pointer-is-valid"="true" "stack-protector-buffer-size"="4" "target-cpu"="x86-64" "target-features"="+cx8,+fxsr,+mmx,+sse,+sse2,+sse3,+x87" "unsafe-fp-math"="false" "use-soft-float"="false" }
attributes #7 = { nounwind }
attributes #8 = { builtin nounwind }

!llvm.module.flags = !{!0, !1}

!0 = !{i32 1, !"wchar_size", i32 4}
!1 = !{i32 7, !"PIC Level", i32 2}
