; ModuleID = '../../storage/browser/quota/quota_manager_impl.cc'
source_filename = "../../storage/browser/quota/quota_manager_impl.cc"
target datalayout = "e-m:e-i64:64-f80:128-n8:16:32:64-S128"
target triple = "x86_64-unknown-linux-gnu"

module asm ".symver exp, exp@GLIBC_2.2.5"
module asm ".symver exp2, exp2@GLIBC_2.2.5"
module asm ".symver exp2f, exp2f@GLIBC_2.2.5"
module asm ".symver expf, expf@GLIBC_2.2.5"
module asm ".symver lgamma, lgamma@GLIBC_2.2.5"
module asm ".symver lgammaf, lgammaf@GLIBC_2.2.5"
module asm ".symver lgammal, lgammal@GLIBC_2.2.5"
module asm ".symver log, log@GLIBC_2.2.5"
module asm ".symver log2, log2@GLIBC_2.2.5"
module asm ".symver log2f, log2f@GLIBC_2.2.5"
module asm ".symver logf, logf@GLIBC_2.2.5"
module asm ".symver pow, pow@GLIBC_2.2.5"
module asm ".symver powf, powf@GLIBC_2.2.5"

%"class.base::TaskTraits" = type { %"struct.base::TaskTraitsExtensionStorage", i8, i8, i8, i8, i8, i8 }
%"struct.base::TaskTraitsExtensionStorage" = type { i8, %"struct.std::__1::array" }
%"struct.std::__1::array" = type { [8 x i8] }
%union.anon.392 = type { i64 }
%"struct.base::Feature" = type { i8*, i32 }
%"struct.std::__1::atomic.515" = type { %"struct.std::__1::__atomic_base.516" }
%"struct.std::__1::__atomic_base.516" = type { %"struct.std::__1::__atomic_base.517" }
%"struct.std::__1::__atomic_base.517" = type { %"struct.std::__1::__cxx_atomic_impl.518" }
%"struct.std::__1::__cxx_atomic_impl.518" = type { %"struct.std::__1::__cxx_atomic_base_impl.519" }
%"struct.std::__1::__cxx_atomic_base_impl.519" = type { i64 }
%"struct.base::trace_event::TraceCategory" = type { i8, i32, i8* }
%"class.std::__1::locale::id" = type <{ %"struct.std::__1::once_flag", i32, [4 x i8] }>
%"struct.std::__1::once_flag" = type { i64 }
%"struct.std::__1::piecewise_construct_t" = type { i8 }
%"struct.storage::QuotaManagerImpl::QuotaOverride" = type { i64, %"class.std::__1::set" }
%"class.std::__1::set" = type { %"class.std::__1::__tree" }
%"class.std::__1::__tree" = type { %"class.std::__1::__tree_end_node"*, %"class.std::__1::__compressed_pair", %"class.std::__1::__compressed_pair.1" }
%"class.std::__1::__tree_end_node" = type { %"class.std::__1::__tree_node_base"* }
%"class.std::__1::__tree_node_base" = type <{ %"class.std::__1::__tree_end_node", %"class.std::__1::__tree_node_base"*, %"class.std::__1::__tree_end_node"*, i8, [7 x i8] }>
%"class.std::__1::__compressed_pair" = type { %"struct.std::__1::__compressed_pair_elem" }
%"struct.std::__1::__compressed_pair_elem" = type { %"class.std::__1::__tree_end_node" }
%"class.std::__1::__compressed_pair.1" = type { %"struct.std::__1::__compressed_pair_elem.2" }
%"struct.std::__1::__compressed_pair_elem.2" = type { i64 }
%"class.storage::QuotaManagerImpl" = type { %"class.storage::QuotaTaskObserver", %"class.storage::QuotaEvictionHandler", %"class.base::RefCountedDeleteOnSequence", i8, %"class.base::FilePath", %class.scoped_refptr.20, i8, i8, %"class.absl::optional", %class.scoped_refptr.28, %class.scoped_refptr, %"class.std::__1::unique_ptr", i8, %"class.base::RepeatingCallback", %class.scoped_refptr.53, %"class.base::RepeatingCallback.54", %"class.base::RepeatingCallback.55", %"struct.storage::QuotaSettings", %"class.base::TimeTicks", %"class.std::__1::tuple", %"class.storage::CallbackQueue", %"class.storage::CallbackQueue.64", %"class.base::OnceCallback.73", %"class.std::__1::set.74", %"class.std::__1::map", i32, %"class.std::__1::vector.91", %"class.std::__1::vector.265", %"class.base::flat_map", %"class.std::__1::unique_ptr.282", %"class.std::__1::unique_ptr.282", %"class.std::__1::unique_ptr.282", %"class.std::__1::unique_ptr.310", %"struct.storage::QuotaManagerImpl::EvictionContext", i8, %"class.storage::CallbackQueueMap", %"class.std::__1::map.328", %"class.std::__1::map.328", %class.scoped_refptr.337, %"class.base::RepeatingTimer", { i64, i64 } (%"class.base::FilePath"*)*, %"class.base::WeakPtrFactory.349" }
%"class.storage::QuotaTaskObserver" = type { i32 (...)**, %"class.std::__1::set.4" }
%"class.std::__1::set.4" = type { %"class.std::__1::__tree.5" }
%"class.std::__1::__tree.5" = type { %"class.std::__1::__tree_end_node"*, %"class.std::__1::__compressed_pair.6", %"class.std::__1::__compressed_pair.10" }
%"class.std::__1::__compressed_pair.6" = type { %"struct.std::__1::__compressed_pair_elem" }
%"class.std::__1::__compressed_pair.10" = type { %"struct.std::__1::__compressed_pair_elem.2" }
%"class.storage::QuotaEvictionHandler" = type { i32 (...)** }
%"class.base::RefCountedDeleteOnSequence" = type { %"class.base::subtle::RefCountedThreadSafeBase", %class.scoped_refptr }
%"class.base::subtle::RefCountedThreadSafeBase" = type { %"class.base::AtomicRefCount" }
%"class.base::AtomicRefCount" = type { %"struct.std::__1::atomic" }
%"struct.std::__1::atomic" = type { %"struct.std::__1::__atomic_base" }
%"struct.std::__1::__atomic_base" = type { %"struct.std::__1::__atomic_base.14" }
%"struct.std::__1::__atomic_base.14" = type { %"struct.std::__1::__cxx_atomic_impl" }
%"struct.std::__1::__cxx_atomic_impl" = type { %"struct.std::__1::__cxx_atomic_base_impl" }
%"struct.std::__1::__cxx_atomic_base_impl" = type { i32 }
%"class.base::FilePath" = type { %"class.std::__1::basic_string" }
%"class.std::__1::basic_string" = type { %"class.std::__1::__compressed_pair.15" }
%"class.std::__1::__compressed_pair.15" = type { %"struct.std::__1::__compressed_pair_elem.16" }
%"struct.std::__1::__compressed_pair_elem.16" = type { %"struct.std::__1::basic_string<char, std::__1::char_traits<char>, std::__1::allocator<char> >::__rep" }
%"struct.std::__1::basic_string<char, std::__1::char_traits<char>, std::__1::allocator<char> >::__rep" = type { %union.anon }
%union.anon = type { %"struct.std::__1::basic_string<char, std::__1::char_traits<char>, std::__1::allocator<char> >::__long" }
%"struct.std::__1::basic_string<char, std::__1::char_traits<char>, std::__1::allocator<char> >::__long" = type { i8*, i64, i64 }
%class.scoped_refptr.20 = type { %"class.storage::QuotaManagerProxy"* }
%"class.storage::QuotaManagerProxy" = type { i32 (...)**, %"class.base::RefCountedThreadSafe.21", %"class.storage::QuotaManagerImpl"*, %class.scoped_refptr }
%"class.base::RefCountedThreadSafe.21" = type { %"class.base::subtle::RefCountedThreadSafeBase" }
%"class.absl::optional" = type { %"class.absl::optional_internal::optional_data" }
%"class.absl::optional_internal::optional_data" = type { %"class.absl::optional_internal::optional_data_base" }
%"class.absl::optional_internal::optional_data_base" = type { %"class.absl::optional_internal::optional_data_dtor_base" }
%"class.absl::optional_internal::optional_data_dtor_base" = type { i8, %union.anon.22 }
%union.anon.22 = type { %"class.url::Origin" }
%"class.url::Origin" = type { %"class.url::SchemeHostPort", %"class.absl::optional.23" }
%"class.url::SchemeHostPort" = type <{ %"class.std::__1::basic_string", %"class.std::__1::basic_string", i16, [6 x i8] }>
%"class.absl::optional.23" = type { %"class.absl::optional_internal::optional_data.24" }
%"class.absl::optional_internal::optional_data.24" = type { %"class.absl::optional_internal::optional_data_base.25" }
%"class.absl::optional_internal::optional_data_base.25" = type { %"class.absl::optional_internal::optional_data_dtor_base.26" }
%"class.absl::optional_internal::optional_data_dtor_base.26" = type { i8, %union.anon.27 }
%union.anon.27 = type { %"class.url::Origin::Nonce" }
%"class.url::Origin::Nonce" = type { %"class.base::UnguessableToken" }
%"class.base::UnguessableToken" = type { %"class.base::Token" }
%"class.base::Token" = type { i64, i64 }
%class.scoped_refptr.28 = type { %"class.base::SingleThreadTaskRunner"* }
%class.scoped_refptr = type { %"class.base::SequencedTaskRunner"* }
%"class.base::SequencedTaskRunner" = type { %"class.base::TaskRunner.base", [4 x i8] }
%"class.base::TaskRunner.base" = type <{ i32 (...)**, %"class.base::RefCountedThreadSafe" }>
%"class.base::RefCountedThreadSafe" = type { %"class.base::subtle::RefCountedThreadSafeBase" }
%"class.std::__1::unique_ptr" = type { %"class.std::__1::__compressed_pair.29" }
%"class.std::__1::__compressed_pair.29" = type { %"struct.std::__1::__compressed_pair_elem.30" }
%"struct.std::__1::__compressed_pair_elem.30" = type { %"class.storage::QuotaDatabase"* }
%"class.storage::QuotaDatabase" = type { %"class.base::FilePath", %"class.std::__1::unique_ptr.31", %"class.std::__1::unique_ptr.35", i8, i8, %"class.base::OneShotTimer" }
%"class.std::__1::unique_ptr.31" = type { %"class.std::__1::__compressed_pair.32" }
%"class.std::__1::__compressed_pair.32" = type { %"struct.std::__1::__compressed_pair_elem.33" }
%"struct.std::__1::__compressed_pair_elem.33" = type { %"class.sql::Database"* }
%"class.sql::Database" = type opaque
%"class.std::__1::unique_ptr.35" = type { %"class.std::__1::__compressed_pair.36" }
%"class.std::__1::__compressed_pair.36" = type { %"struct.std::__1::__compressed_pair_elem.37" }
%"struct.std::__1::__compressed_pair_elem.37" = type { %"class.sql::MetaTable"* }
%"class.sql::MetaTable" = type opaque
%"class.base::OneShotTimer" = type { %"class.base::internal::TimerBase", %"class.base::OnceCallback" }
%"class.base::internal::TimerBase" = type { i32 (...)**, %class.scoped_refptr, %"class.base::SequenceCheckerDoNothing", %"class.base::internal::TaskDestructionDetector"*, %"class.base::Location", %"class.base::TimeDelta", %"class.base::TimeTicks", %"class.base::TimeTicks", %"class.base::TickClock"*, i8, %"class.base::WeakPtrFactory" }
%"class.base::SequenceCheckerDoNothing" = type { i8 }
%"class.base::internal::TaskDestructionDetector" = type opaque
%"class.base::Location" = type { i8*, i8*, i32, i8* }
%"class.base::TimeDelta" = type { i64 }
%"class.base::TickClock" = type { i32 (...)** }
%"class.base::WeakPtrFactory" = type { %"class.base::internal::WeakPtrFactoryBase" }
%"class.base::internal::WeakPtrFactoryBase" = type { %"class.base::internal::WeakReferenceOwner", i64 }
%"class.base::internal::WeakReferenceOwner" = type { %class.scoped_refptr.41 }
%class.scoped_refptr.41 = type { %"class.base::internal::WeakReference::Flag"* }
%"class.base::internal::WeakReference::Flag" = type <{ %"class.base::RefCountedThreadSafe.42", %"class.base::AtomicFlag", [3 x i8] }>
%"class.base::RefCountedThreadSafe.42" = type { %"class.base::subtle::RefCountedThreadSafeBase" }
%"class.base::AtomicFlag" = type { %"struct.std::__1::atomic.43" }
%"struct.std::__1::atomic.43" = type { %"struct.std::__1::__atomic_base.44" }
%"struct.std::__1::__atomic_base.44" = type { %"struct.std::__1::__atomic_base.45" }
%"struct.std::__1::__atomic_base.45" = type { %"struct.std::__1::__cxx_atomic_impl.46" }
%"struct.std::__1::__cxx_atomic_impl.46" = type { %"struct.std::__1::__cxx_atomic_base_impl.47" }
%"struct.std::__1::__cxx_atomic_base_impl.47" = type { i8 }
%"class.base::OnceCallback" = type { %"class.base::internal::CallbackBase" }
%"class.base::internal::CallbackBase" = type { %class.scoped_refptr.48 }
%class.scoped_refptr.48 = type { %"class.base::internal::BindStateBase"* }
%"class.base::internal::BindStateBase" = type { %"class.base::RefCountedThreadSafe.49", void ()*, void (%"class.base::internal::BindStateBase"*)*, i1 (%"class.base::internal::BindStateBase"*, i32)* }
%"class.base::RefCountedThreadSafe.49" = type { %"class.base::subtle::RefCountedThreadSafeBase" }
%"class.base::RepeatingCallback" = type { %"class.base::internal::CallbackBaseCopyable" }
%"class.base::internal::CallbackBaseCopyable" = type { %"class.base::internal::CallbackBase" }
%class.scoped_refptr.53 = type { %"class.base::TaskRunner"* }
%"class.base::TaskRunner" = type <{ i32 (...)**, %"class.base::RefCountedThreadSafe", [4 x i8] }>
%"class.base::RepeatingCallback.54" = type { %"class.base::internal::CallbackBaseCopyable" }
%"class.base::RepeatingCallback.55" = type { %"class.base::internal::CallbackBaseCopyable" }
%"struct.storage::QuotaSettings" = type { i64, i64, i64, i64, i64, %"class.base::TimeDelta" }
%"class.base::TimeTicks" = type { %"class.base::time_internal::TimeBase" }
%"class.base::time_internal::TimeBase" = type { i64 }
%"class.std::__1::tuple" = type { %"struct.std::__1::__tuple_impl" }
%"struct.std::__1::__tuple_impl" = type { %"class.std::__1::__tuple_leaf", %"class.std::__1::__tuple_leaf.56", %"class.std::__1::__tuple_leaf.57" }
%"class.std::__1::__tuple_leaf" = type { %"class.base::TimeTicks" }
%"class.std::__1::__tuple_leaf.56" = type { i64 }
%"class.std::__1::__tuple_leaf.57" = type { i64 }
%"class.storage::CallbackQueue" = type { %"class.std::__1::vector" }
%"class.std::__1::vector" = type { %"class.std::__1::__vector_base" }
%"class.std::__1::__vector_base" = type { %"class.base::OnceCallback.58"*, %"class.base::OnceCallback.58"*, %"class.std::__1::__compressed_pair.59" }
%"class.base::OnceCallback.58" = type { %"class.base::internal::CallbackBase" }
%"class.std::__1::__compressed_pair.59" = type { %"struct.std::__1::__compressed_pair_elem.60" }
%"struct.std::__1::__compressed_pair_elem.60" = type { %"class.base::OnceCallback.58"* }
%"class.storage::CallbackQueue.64" = type { %"class.std::__1::vector.65" }
%"class.std::__1::vector.65" = type { %"class.std::__1::__vector_base.66" }
%"class.std::__1::__vector_base.66" = type { %"class.base::OnceCallback.67"*, %"class.base::OnceCallback.67"*, %"class.std::__1::__compressed_pair.68" }
%"class.base::OnceCallback.67" = type { %"class.base::internal::CallbackBase" }
%"class.std::__1::__compressed_pair.68" = type { %"struct.std::__1::__compressed_pair_elem.69" }
%"struct.std::__1::__compressed_pair_elem.69" = type { %"class.base::OnceCallback.67"* }
%"class.base::OnceCallback.73" = type { %"class.base::internal::CallbackBase" }
%"class.std::__1::set.74" = type { %"class.std::__1::__tree.75" }
%"class.std::__1::__tree.75" = type { %"class.std::__1::__tree_end_node"*, %"class.std::__1::__compressed_pair.76", %"class.std::__1::__compressed_pair.80" }
%"class.std::__1::__compressed_pair.76" = type { %"struct.std::__1::__compressed_pair_elem" }
%"class.std::__1::__compressed_pair.80" = type { %"struct.std::__1::__compressed_pair_elem.2" }
%"class.std::__1::map" = type { %"class.std::__1::__tree.84" }
%"class.std::__1::__tree.84" = type { %"class.std::__1::__tree_end_node"*, %"class.std::__1::__compressed_pair.85", %"class.std::__1::__compressed_pair.89" }
%"class.std::__1::__compressed_pair.85" = type { %"struct.std::__1::__compressed_pair_elem" }
%"class.std::__1::__compressed_pair.89" = type { %"struct.std::__1::__compressed_pair_elem.2" }
%"class.std::__1::vector.91" = type { %"class.std::__1::__vector_base.92" }
%"class.std::__1::__vector_base.92" = type { %"class.mojo::Remote"*, %"class.mojo::Remote"*, %"class.std::__1::__compressed_pair.260" }
%"class.mojo::Remote" = type { %"class.mojo::internal::InterfacePtrState" }
%"class.mojo::internal::InterfacePtrState" = type { %"class.mojo::internal::InterfacePtrStateBase.base", %"class.std::__1::unique_ptr.254" }
%"class.mojo::internal::InterfacePtrStateBase.base" = type <{ %class.scoped_refptr.93, %"class.std::__1::unique_ptr.206", %"class.mojo::ScopedHandleBase", [4 x i8], %class.scoped_refptr, i32 }>
%class.scoped_refptr.93 = type { %"class.mojo::internal::MultiplexRouter"* }
%"class.mojo::internal::MultiplexRouter" = type <{ %"class.mojo::MessageReceiver", %"class.mojo::AssociatedGroupController.base", [4 x i8], %"class.mojo::PipeControlMessageHandlerDelegate", i32, i8, [3 x i8], %class.scoped_refptr, %"class.mojo::MessageHeaderValidator"*, %"class.mojo::MessageDispatcher", %"class.mojo::Connector", %"class.mojo::ScopedHandleBase", [4 x i8], %"class.absl::optional.173", %"class.absl::optional.178", %"class.absl::optional.132", %"class.mojo::PipeControlMessageHandler", %"class.mojo::PipeControlMessageProxy", %"class.base::small_map", i32, [4 x i8], %"class.base::circular_deque", %"class.std::__1::map.197", i8, [7 x i8], %class.scoped_refptr, i8, i8, i8, i8, i8, [3 x i8] }>
%"class.mojo::MessageReceiver" = type { i32 (...)** }
%"class.mojo::AssociatedGroupController.base" = type <{ i32 (...)**, %"class.base::RefCountedThreadSafe.94" }>
%"class.base::RefCountedThreadSafe.94" = type { %"class.base::subtle::RefCountedThreadSafeBase" }
%"class.mojo::PipeControlMessageHandlerDelegate" = type { i32 (...)** }
%"class.mojo::MessageHeaderValidator" = type { %"class.mojo::MessageReceiver", %"class.std::__1::basic_string" }
%"class.mojo::MessageDispatcher" = type { %"class.mojo::MessageReceiver", %"class.std::__1::unique_ptr.95", %"class.std::__1::unique_ptr.101", %"class.mojo::MessageReceiver"*, %"class.base::WeakPtrFactory.107" }
%"class.std::__1::unique_ptr.95" = type { %"class.std::__1::__compressed_pair.96" }
%"class.std::__1::__compressed_pair.96" = type { %"struct.std::__1::__compressed_pair_elem.97" }
%"struct.std::__1::__compressed_pair_elem.97" = type { %"class.mojo::MessageReceiver"* }
%"class.std::__1::unique_ptr.101" = type { %"class.std::__1::__compressed_pair.102" }
%"class.std::__1::__compressed_pair.102" = type { %"struct.std::__1::__compressed_pair_elem.103" }
%"struct.std::__1::__compressed_pair_elem.103" = type { %"class.mojo::MessageFilter"* }
%"class.mojo::MessageFilter" = type { i32 (...)** }
%"class.base::WeakPtrFactory.107" = type { %"class.base::internal::WeakPtrFactoryBase" }
%"class.mojo::Connector" = type { %"class.mojo::MessageReceiver", %"class.base::OnceCallback", %"class.mojo::ScopedHandleBase", %"class.mojo::MessageReceiver"*, %class.scoped_refptr, %"class.std::__1::unique_ptr.108", %"class.absl::optional.118", %"struct.std::__1::atomic.128", i8, i8, i8, i8, i32, i32, %"class.absl::optional.132", %"class.std::__1::unique_ptr.137", i8, i64, %class.scoped_refptr.169, %"class.base::Lock", i8, i8*, %"class.mojo::Connector::RunLoopNestingObserver"*, i8, i64, %"class.mojo::ConnectionGroup::Ref", %"class.base::WeakPtr", %"class.base::WeakPtrFactory.172" }
%"class.std::__1::unique_ptr.108" = type { %"class.std::__1::__compressed_pair.109" }
%"class.std::__1::__compressed_pair.109" = type { %"struct.std::__1::__compressed_pair_elem.110" }
%"struct.std::__1::__compressed_pair_elem.110" = type { %"class.mojo::SimpleWatcher"* }
%"class.mojo::SimpleWatcher" = type { i32, %class.scoped_refptr, i8, %"class.mojo::ScopedHandleBase.111", %class.scoped_refptr.112, %"class.mojo::Handle", i32, %"class.base::RepeatingCallback.113", i8*, %"class.base::WeakPtrFactory.114" }
%"class.mojo::ScopedHandleBase.111" = type { %"class.mojo::TrapHandle" }
%"class.mojo::TrapHandle" = type { %"class.mojo::Handle" }
%class.scoped_refptr.112 = type { %"class.mojo::SimpleWatcher::Context"* }
%"class.mojo::SimpleWatcher::Context" = type opaque
%"class.mojo::Handle" = type { i32 }
%"class.base::RepeatingCallback.113" = type { %"class.base::internal::CallbackBaseCopyable" }
%"class.base::WeakPtrFactory.114" = type { %"class.base::internal::WeakPtrFactoryBase" }
%"class.absl::optional.118" = type { %"class.absl::optional_internal::optional_data.119" }
%"class.absl::optional_internal::optional_data.119" = type { %"class.absl::optional_internal::optional_data_base.120" }
%"class.absl::optional_internal::optional_data_base.120" = type { %"class.absl::optional_internal::optional_data_dtor_base.121" }
%"class.absl::optional_internal::optional_data_dtor_base.121" = type { i8, %union.anon.122 }
%union.anon.122 = type { %"class.mojo::HandleSignalTracker" }
%"class.mojo::HandleSignalTracker" = type { %"class.base::RepeatingCallback.123", %"struct.mojo::HandleSignalsState", %"class.mojo::SimpleWatcher", %"class.mojo::SimpleWatcher" }
%"class.base::RepeatingCallback.123" = type { %"class.base::internal::CallbackBaseCopyable" }
%"struct.mojo::HandleSignalsState" = type { %struct.MojoHandleSignalsState }
%struct.MojoHandleSignalsState = type { i32, i32 }
%"struct.std::__1::atomic.128" = type { %"struct.std::__1::__atomic_base.129" }
%"struct.std::__1::__atomic_base.129" = type { %"struct.std::__1::__cxx_atomic_impl.130" }
%"struct.std::__1::__cxx_atomic_impl.130" = type { %"struct.std::__1::__cxx_atomic_base_impl.131" }
%"struct.std::__1::__cxx_atomic_base_impl.131" = type { i8 }
%"class.std::__1::unique_ptr.137" = type { %"class.std::__1::__compressed_pair.138" }
%"class.std::__1::__compressed_pair.138" = type { %"struct.std::__1::__compressed_pair_elem.139" }
%"struct.std::__1::__compressed_pair_elem.139" = type { %"class.mojo::SyncHandleWatcher"* }
%"class.mojo::SyncHandleWatcher" = type { %"class.mojo::Handle", i32, %"class.base::RepeatingCallback.140", i8, i64, %class.scoped_refptr.141, %class.scoped_refptr.165 }
%"class.base::RepeatingCallback.140" = type { %"class.base::internal::CallbackBaseCopyable" }
%class.scoped_refptr.141 = type { %"class.mojo::SyncHandleRegistry"* }
%"class.mojo::SyncHandleRegistry" = type <{ %"class.base::RefCounted", [4 x i8], %"class.mojo::WaitSet", %"class.std::__1::map.143", %"class.std::__1::map.154", i8, [7 x i8] }>
%"class.base::RefCounted" = type { %"class.base::subtle::RefCountedBase" }
%"class.base::subtle::RefCountedBase" = type { i32 }
%"class.mojo::WaitSet" = type { %class.scoped_refptr.142 }
%class.scoped_refptr.142 = type { %"class.mojo::WaitSet::State"* }
%"class.mojo::WaitSet::State" = type opaque
%"class.std::__1::map.143" = type { %"class.std::__1::__tree.144" }
%"class.std::__1::__tree.144" = type { %"class.std::__1::__tree_end_node"*, %"class.std::__1::__compressed_pair.145", %"class.std::__1::__compressed_pair.149" }
%"class.std::__1::__compressed_pair.145" = type { %"struct.std::__1::__compressed_pair_elem" }
%"class.std::__1::__compressed_pair.149" = type { %"struct.std::__1::__compressed_pair_elem.2" }
%"class.std::__1::map.154" = type { %"class.std::__1::__tree.155" }
%"class.std::__1::__tree.155" = type { %"class.std::__1::__tree_end_node"*, %"class.std::__1::__compressed_pair.156", %"class.std::__1::__compressed_pair.160" }
%"class.std::__1::__compressed_pair.156" = type { %"struct.std::__1::__compressed_pair_elem" }
%"class.std::__1::__compressed_pair.160" = type { %"struct.std::__1::__compressed_pair_elem.2" }
%class.scoped_refptr.165 = type { %"class.base::RefCountedData"* }
%"class.base::RefCountedData" = type opaque
%class.scoped_refptr.169 = type { %"class.mojo::internal::MessageQuotaChecker"* }
%"class.mojo::internal::MessageQuotaChecker" = type opaque
%"class.base::Lock" = type { %"class.base::internal::LockImpl" }
%"class.base::internal::LockImpl" = type { %union.pthread_mutex_t }
%union.pthread_mutex_t = type { %struct.__pthread_mutex_s }
%struct.__pthread_mutex_s = type { i32, i32, i32, i32, i32, i16, i16, %struct.__pthread_internal_list }
%struct.__pthread_internal_list = type { %struct.__pthread_internal_list*, %struct.__pthread_internal_list* }
%"class.mojo::Connector::RunLoopNestingObserver" = type opaque
%"class.mojo::ConnectionGroup::Ref" = type { i32, %class.scoped_refptr.170 }
%class.scoped_refptr.170 = type { %"class.mojo::ConnectionGroup"* }
%"class.mojo::ConnectionGroup" = type <{ i32 (...)**, %"class.base::RefCountedThreadSafe.350", [4 x i8], %"class.base::RepeatingCallback.55", %class.scoped_refptr, %"class.mojo::ConnectionGroup::Ref", %"struct.std::__1::atomic.351", [4 x i8] }>
%"class.base::RefCountedThreadSafe.350" = type { %"class.base::subtle::RefCountedThreadSafeBase" }
%"struct.std::__1::atomic.351" = type { %"struct.std::__1::__atomic_base.352" }
%"struct.std::__1::__atomic_base.352" = type { %"struct.std::__1::__atomic_base.353" }
%"struct.std::__1::__atomic_base.353" = type { %"struct.std::__1::__cxx_atomic_impl.354" }
%"struct.std::__1::__cxx_atomic_impl.354" = type { %"struct.std::__1::__cxx_atomic_base_impl.355" }
%"struct.std::__1::__cxx_atomic_base_impl.355" = type { i32 }
%"class.base::WeakPtr" = type { %"class.base::internal::WeakPtrBase" }
%"class.base::internal::WeakPtrBase" = type { %"class.base::internal::WeakReference", i64 }
%"class.base::internal::WeakReference" = type { %class.scoped_refptr.171 }
%class.scoped_refptr.171 = type { %"class.base::internal::WeakReference::Flag"* }
%"class.base::WeakPtrFactory.172" = type { %"class.base::internal::WeakPtrFactoryBase" }
%"class.absl::optional.173" = type { %"class.absl::optional_internal::optional_data.174" }
%"class.absl::optional_internal::optional_data.174" = type { %"class.absl::optional_internal::optional_data_base.175" }
%"class.absl::optional_internal::optional_data_base.175" = type { %"class.absl::optional_internal::optional_data_dtor_base.176" }
%"class.absl::optional_internal::optional_data_dtor_base.176" = type { i8, %union.anon.177 }
%union.anon.177 = type { %"class.mojo::SimpleWatcher" }
%"class.absl::optional.178" = type { %"class.absl::optional_internal::optional_data.179" }
%"class.absl::optional_internal::optional_data.179" = type { %"class.absl::optional_internal::optional_data_base.180" }
%"class.absl::optional_internal::optional_data_base.180" = type { %"class.absl::optional_internal::optional_data_dtor_base.181" }
%"class.absl::optional_internal::optional_data_dtor_base.181" = type { i8, [7 x i8], %union.anon.182 }
%union.anon.182 = type { %"struct.mojo::internal::MultiplexRouter::ExclusiveSyncWaitInfo" }
%"struct.mojo::internal::MultiplexRouter::ExclusiveSyncWaitInfo" = type <{ i32, [4 x i8], i64, i8, [7 x i8] }>
%"class.absl::optional.132" = type { %"class.absl::optional_internal::optional_data.133" }
%"class.absl::optional_internal::optional_data.133" = type { %"class.absl::optional_internal::optional_data_base.134" }
%"class.absl::optional_internal::optional_data_base.134" = type { %"class.absl::optional_internal::optional_data_dtor_base.135" }
%"class.absl::optional_internal::optional_data_dtor_base.135" = type { i8, %union.anon.136 }
%union.anon.136 = type { %"class.base::Lock" }
%"class.mojo::PipeControlMessageHandler" = type { %"class.mojo::MessageReceiver", %"class.std::__1::basic_string", %"class.mojo::PipeControlMessageHandlerDelegate"* }
%"class.mojo::PipeControlMessageProxy" = type { %"class.mojo::MessageReceiver"* }
%"class.base::small_map" = type { i64, %"class.base::internal::small_map_default_init", %union.anon.183 }
%"class.base::internal::small_map_default_init" = type { i8 }
%union.anon.183 = type { %"class.std::__1::map.185" }
%"class.std::__1::map.185" = type { %"class.std::__1::__tree.186" }
%"class.std::__1::__tree.186" = type { %"class.std::__1::__tree_end_node"*, %"class.std::__1::__compressed_pair.187", %"class.std::__1::__compressed_pair.191" }
%"class.std::__1::__compressed_pair.187" = type { %"struct.std::__1::__compressed_pair_elem" }
%"class.std::__1::__compressed_pair.191" = type { %"struct.std::__1::__compressed_pair_elem.2" }
%"class.base::circular_deque" = type { %"class.base::internal::VectorBuffer", i64, i64 }
%"class.base::internal::VectorBuffer" = type { %"class.std::__1::unique_ptr.196"*, i64 }
%"class.std::__1::unique_ptr.196" = type opaque
%"class.std::__1::map.197" = type { %"class.std::__1::__tree.198" }
%"class.std::__1::__tree.198" = type { %"class.std::__1::__tree_end_node"*, %"class.std::__1::__compressed_pair.199", %"class.std::__1::__compressed_pair.203" }
%"class.std::__1::__compressed_pair.199" = type { %"struct.std::__1::__compressed_pair_elem" }
%"class.std::__1::__compressed_pair.203" = type { %"struct.std::__1::__compressed_pair_elem.2" }
%"class.std::__1::unique_ptr.206" = type { %"class.std::__1::__compressed_pair.207" }
%"class.std::__1::__compressed_pair.207" = type { %"struct.std::__1::__compressed_pair_elem.208" }
%"struct.std::__1::__compressed_pair_elem.208" = type { %"class.mojo::InterfaceEndpointClient"* }
%"class.mojo::InterfaceEndpointClient" = type { %"class.mojo::MessageReceiverWithResponder", i8, %"class.base::RepeatingCallback.55", %"class.base::OnceCallback.209", %"class.absl::optional.210", %"class.absl::optional.215", %"class.mojo::ConnectionGroup::Ref", i32, %"class.mojo::ScopedInterfaceEndpointHandle", %"class.std::__1::unique_ptr.221", %"class.mojo::InterfaceEndpointController"*, %"class.mojo::MessageReceiverWithResponderStatus"*, %"class.mojo::InterfaceEndpointClient::HandleIncomingMessageThunk", %"class.mojo::MessageDispatcher", %"class.std::__1::map.229", %"class.std::__1::map.240", i64, %"class.base::OnceCallback", %"class.base::OnceCallback.249", i8, %class.scoped_refptr, %"class.mojo::internal::ControlMessageProxy", %"class.mojo::internal::ControlMessageHandler", i8*, %"class.base::WeakPtrFactory.250" }
%"class.mojo::MessageReceiverWithResponder" = type { %"class.mojo::MessageReceiver" }
%"class.base::OnceCallback.209" = type { %"class.base::internal::CallbackBase" }
%"class.absl::optional.210" = type { %"class.absl::optional_internal::optional_data.211" }
%"class.absl::optional_internal::optional_data.211" = type { %"class.absl::optional_internal::optional_data_base.212" }
%"class.absl::optional_internal::optional_data_base.212" = type { %"class.absl::optional_internal::optional_data_dtor_base.213" }
%"class.absl::optional_internal::optional_data_dtor_base.213" = type { i8, %union.anon.214 }
%union.anon.214 = type { %"class.base::TimeDelta" }
%"class.absl::optional.215" = type { %"class.absl::optional_internal::optional_data.216" }
%"class.absl::optional_internal::optional_data.216" = type { %"class.absl::optional_internal::optional_data_base.217" }
%"class.absl::optional_internal::optional_data_base.217" = type { %"class.absl::optional_internal::optional_data_dtor_base.218" }
%"class.absl::optional_internal::optional_data_dtor_base.218" = type { i8, %union.anon.219 }
%union.anon.219 = type { %"class.base::OneShotTimer" }
%"class.mojo::ScopedInterfaceEndpointHandle" = type { %class.scoped_refptr.220 }
%class.scoped_refptr.220 = type { %"class.mojo::ScopedInterfaceEndpointHandle::State"* }
%"class.mojo::ScopedInterfaceEndpointHandle::State" = type opaque
%"class.std::__1::unique_ptr.221" = type { %"class.std::__1::__compressed_pair.222" }
%"class.std::__1::__compressed_pair.222" = type { %"struct.std::__1::__compressed_pair_elem.223" }
%"struct.std::__1::__compressed_pair_elem.223" = type { %"class.mojo::AssociatedGroup"* }
%"class.mojo::AssociatedGroup" = type { %"class.base::RepeatingCallback.224", %class.scoped_refptr.225 }
%"class.base::RepeatingCallback.224" = type { %"class.base::internal::CallbackBaseCopyable" }
%class.scoped_refptr.225 = type { %"class.mojo::AssociatedGroupController"* }
%"class.mojo::AssociatedGroupController" = type <{ i32 (...)**, %"class.base::RefCountedThreadSafe.94", [4 x i8] }>
%"class.mojo::InterfaceEndpointController" = type opaque
%"class.mojo::MessageReceiverWithResponderStatus" = type { %"class.mojo::MessageReceiver" }
%"class.mojo::InterfaceEndpointClient::HandleIncomingMessageThunk" = type { %"class.mojo::MessageReceiver", %"class.mojo::InterfaceEndpointClient"* }
%"class.std::__1::map.229" = type { %"class.std::__1::__tree.230" }
%"class.std::__1::__tree.230" = type { %"class.std::__1::__tree_end_node"*, %"class.std::__1::__compressed_pair.231", %"class.std::__1::__compressed_pair.235" }
%"class.std::__1::__compressed_pair.231" = type { %"struct.std::__1::__compressed_pair_elem" }
%"class.std::__1::__compressed_pair.235" = type { %"struct.std::__1::__compressed_pair_elem.2" }
%"class.std::__1::map.240" = type { %"class.std::__1::__tree.241" }
%"class.std::__1::__tree.241" = type { %"class.std::__1::__tree_end_node"*, %"class.std::__1::__compressed_pair.242", %"class.std::__1::__compressed_pair.246" }
%"class.std::__1::__compressed_pair.242" = type { %"struct.std::__1::__compressed_pair_elem" }
%"class.std::__1::__compressed_pair.246" = type { %"struct.std::__1::__compressed_pair_elem.2" }
%"class.base::OnceCallback.249" = type { %"class.base::internal::CallbackBase" }
%"class.mojo::internal::ControlMessageProxy" = type { %"class.mojo::InterfaceEndpointClient"*, i8, %"class.base::OnceCallback" }
%"class.mojo::internal::ControlMessageHandler" = type <{ %"class.mojo::MessageReceiverWithResponderStatus", %"class.mojo::InterfaceEndpointClient"*, i32, [4 x i8] }>
%"class.base::WeakPtrFactory.250" = type { %"class.base::internal::WeakPtrFactoryBase" }
%"class.mojo::ScopedHandleBase" = type { %"class.mojo::MessagePipeHandle" }
%"class.mojo::MessagePipeHandle" = type { %"class.mojo::Handle" }
%"class.std::__1::unique_ptr.254" = type { %"class.std::__1::__compressed_pair.255" }
%"class.std::__1::__compressed_pair.255" = type { %"struct.std::__1::__compressed_pair_elem.256" }
%"struct.std::__1::__compressed_pair_elem.256" = type { %"class.storage::mojom::QuotaClientProxy"* }
%"class.storage::mojom::QuotaClientProxy" = type { %"class.storage::mojom::QuotaClient", %"class.mojo::MessageReceiverWithResponder"* }
%"class.storage::mojom::QuotaClient" = type { i32 (...)** }
%"class.std::__1::__compressed_pair.260" = type { %"struct.std::__1::__compressed_pair_elem.261" }
%"struct.std::__1::__compressed_pair_elem.261" = type { %"class.mojo::Remote"* }
%"class.std::__1::vector.265" = type { %"class.std::__1::__vector_base.266" }
%"class.std::__1::__vector_base.266" = type { %class.scoped_refptr.267*, %class.scoped_refptr.267*, %"class.std::__1::__compressed_pair.269" }
%class.scoped_refptr.267 = type { %"class.storage::QuotaClient"* }
%"class.storage::QuotaClient" = type <{ %"class.storage::mojom::QuotaClient", %"class.base::RefCountedThreadSafe.268", [4 x i8] }>
%"class.base::RefCountedThreadSafe.268" = type { %"class.base::subtle::RefCountedThreadSafeBase" }
%"class.std::__1::__compressed_pair.269" = type { %"struct.std::__1::__compressed_pair_elem.270" }
%"struct.std::__1::__compressed_pair_elem.270" = type { %class.scoped_refptr.267* }
%"class.base::flat_map" = type { %"class.base::internal::flat_tree" }
%"class.base::internal::flat_tree" = type { %"class.std::__1::vector.274" }
%"class.std::__1::vector.274" = type { %"class.std::__1::__vector_base.275" }
%"class.std::__1::__vector_base.275" = type { %"struct.std::__1::pair.276"*, %"struct.std::__1::pair.276"*, %"class.std::__1::__compressed_pair.277" }
%"struct.std::__1::pair.276" = type { i32, %"class.base::flat_map.403" }
%"class.base::flat_map.403" = type { %"class.base::internal::flat_tree.404" }
%"class.base::internal::flat_tree.404" = type { %"class.std::__1::vector.405" }
%"class.std::__1::vector.405" = type { %"class.std::__1::__vector_base.406" }
%"class.std::__1::__vector_base.406" = type { %"struct.std::__1::pair.407"*, %"struct.std::__1::pair.407"*, %"class.std::__1::__compressed_pair.408" }
%"struct.std::__1::pair.407" = type <{ %"class.storage::QuotaClient"*, i32, [4 x i8] }>
%"class.std::__1::__compressed_pair.408" = type { %"struct.std::__1::__compressed_pair_elem.409" }
%"struct.std::__1::__compressed_pair_elem.409" = type { %"struct.std::__1::pair.407"* }
%"class.std::__1::__compressed_pair.277" = type { %"struct.std::__1::__compressed_pair_elem.278" }
%"struct.std::__1::__compressed_pair_elem.278" = type { %"struct.std::__1::pair.276"* }
%"class.std::__1::unique_ptr.282" = type { %"class.std::__1::__compressed_pair.283" }
%"class.std::__1::__compressed_pair.283" = type { %"struct.std::__1::__compressed_pair_elem.284" }
%"struct.std::__1::__compressed_pair_elem.284" = type { %"class.storage::UsageTracker"* }
%"class.storage::UsageTracker" = type { %"class.storage::QuotaTaskObserver", i32, %"class.base::flat_map.285", i64, %"class.std::__1::vector.65", %"class.std::__1::map.295", %"class.base::WeakPtrFactory.306" }
%"class.base::flat_map.285" = type { %"class.base::internal::flat_tree.286" }
%"class.base::internal::flat_tree.286" = type { %"class.std::__1::vector.287" }
%"class.std::__1::vector.287" = type { %"class.std::__1::__vector_base.288" }
%"class.std::__1::__vector_base.288" = type { %"struct.std::__1::pair.289"*, %"struct.std::__1::pair.289"*, %"class.std::__1::__compressed_pair.290" }
%"struct.std::__1::pair.289" = type opaque
%"class.std::__1::__compressed_pair.290" = type { %"struct.std::__1::__compressed_pair_elem.291" }
%"struct.std::__1::__compressed_pair_elem.291" = type { %"struct.std::__1::pair.289"* }
%"class.std::__1::map.295" = type { %"class.std::__1::__tree.296" }
%"class.std::__1::__tree.296" = type { %"class.std::__1::__tree_end_node"*, %"class.std::__1::__compressed_pair.297", %"class.std::__1::__compressed_pair.301" }
%"class.std::__1::__compressed_pair.297" = type { %"struct.std::__1::__compressed_pair_elem" }
%"class.std::__1::__compressed_pair.301" = type { %"struct.std::__1::__compressed_pair_elem.2" }
%"class.base::WeakPtrFactory.306" = type { %"class.base::internal::WeakPtrFactoryBase" }
%"class.std::__1::unique_ptr.310" = type { %"class.std::__1::__compressed_pair.311" }
%"class.std::__1::__compressed_pair.311" = type { %"struct.std::__1::__compressed_pair_elem.312" }
%"struct.std::__1::__compressed_pair_elem.312" = type { %"class.storage::QuotaTemporaryStorageEvictor"* }
%"class.storage::QuotaTemporaryStorageEvictor" = type { %"class.storage::QuotaEvictionHandler"*, %"struct.storage::QuotaTemporaryStorageEvictor::Statistics", %"struct.storage::QuotaTemporaryStorageEvictor::Statistics", %"struct.storage::QuotaTemporaryStorageEvictor::EvictionRoundStatistics", %"class.base::Time", %"class.base::Time", i64, i8, %"class.base::OneShotTimer", %"class.base::RepeatingTimer", %"class.base::WeakPtrFactory.314" }
%"struct.storage::QuotaTemporaryStorageEvictor::Statistics" = type { i64, i64, i64, i64 }
%"struct.storage::QuotaTemporaryStorageEvictor::EvictionRoundStatistics" = type { i8, i8, %"class.base::Time", i64, i64, i64, i64 }
%"class.base::Time" = type { %"class.base::time_internal::TimeBase.313" }
%"class.base::time_internal::TimeBase.313" = type { i64 }
%"class.base::WeakPtrFactory.314" = type { %"class.base::internal::WeakPtrFactoryBase" }
%"struct.storage::QuotaManagerImpl::EvictionContext" = type { %"class.url::Origin", i32, %"class.base::OnceCallback.318" }
%"class.base::OnceCallback.318" = type { %"class.base::internal::CallbackBase" }
%"class.storage::CallbackQueueMap" = type { %"class.std::__1::map.319" }
%"class.std::__1::map.319" = type { %"class.std::__1::__tree.320" }
%"class.std::__1::__tree.320" = type { %"class.std::__1::__tree_end_node"*, %"class.std::__1::__compressed_pair.321", %"class.std::__1::__compressed_pair.325" }
%"class.std::__1::__compressed_pair.321" = type { %"struct.std::__1::__compressed_pair_elem" }
%"class.std::__1::__compressed_pair.325" = type { %"struct.std::__1::__compressed_pair_elem.2" }
%"class.std::__1::map.328" = type { %"class.std::__1::__tree.329" }
%"class.std::__1::__tree.329" = type { %"class.std::__1::__tree_end_node"*, %"class.std::__1::__compressed_pair.330", %"class.std::__1::__compressed_pair.334" }
%"class.std::__1::__compressed_pair.330" = type { %"struct.std::__1::__compressed_pair_elem" }
%"class.std::__1::__compressed_pair.334" = type { %"struct.std::__1::__compressed_pair_elem.2" }
%class.scoped_refptr.337 = type { %"class.storage::SpecialStoragePolicy"* }
%"class.base::RepeatingTimer" = type { %"class.base::internal::TimerBase", %"class.base::RepeatingCallback.55" }
%"class.base::WeakPtrFactory.349" = type { %"class.base::internal::WeakPtrFactoryBase" }
%"class.base::SingleThreadTaskRunner" = type { %"class.base::SequencedTaskRunner.base", [4 x i8] }
%"class.base::SequencedTaskRunner.base" = type { %"class.base::TaskRunner.base" }
%"class.storage::SpecialStoragePolicy" = type { i32 (...)**, %"class.base::RefCountedThreadSafe.338", [4 x i8], %"class.base::ObserverList" }
%"class.base::RefCountedThreadSafe.338" = type { %"class.base::subtle::RefCountedThreadSafeBase" }
%"class.base::ObserverList" = type <{ %"class.std::__1::vector.339", %"class.base::LinkedList", i64, i32, [4 x i8] }>
%"class.std::__1::vector.339" = type { %"class.std::__1::__vector_base.340" }
%"class.std::__1::__vector_base.340" = type { %"class.base::internal::UncheckedObserverAdapter"*, %"class.base::internal::UncheckedObserverAdapter"*, %"class.std::__1::__compressed_pair.341" }
%"class.base::internal::UncheckedObserverAdapter" = type { i8* }
%"class.std::__1::__compressed_pair.341" = type { %"struct.std::__1::__compressed_pair_elem.342" }
%"struct.std::__1::__compressed_pair_elem.342" = type { %"class.base::internal::UncheckedObserverAdapter"* }
%"class.base::LinkedList" = type { %"class.base::LinkNode" }
%"class.base::LinkNode" = type { %"class.base::internal::LinkNodeBase" }
%"class.base::internal::LinkNodeBase" = type { %"class.base::internal::LinkNodeBase"*, %"class.base::internal::LinkNodeBase"* }
%"class.std::__1::__tree_node.691" = type { %"class.std::__1::__tree_node_base.base", i32 }
%"class.std::__1::__tree_node_base.base" = type <{ %"class.std::__1::__tree_end_node", %"class.std::__1::__tree_node_base"*, %"class.std::__1::__tree_end_node"*, i8 }>
%"class.base::OnceCallback.356" = type { %"class.base::internal::CallbackBase" }
%"class.base::OnceCallback.357" = type { %"class.base::internal::CallbackBase" }
%"class.base::WeakPtr.363" = type { %"class.base::internal::WeakPtrBase" }
%"struct.std::__1::basic_string<char, std::__1::char_traits<char>, std::__1::allocator<char> >::__short" = type { [23 x i8], %struct.anon }
%struct.anon = type { i8 }
%"class.base::OnceCallback.452" = type { %"class.base::internal::CallbackBase" }
%"class.base::OnceCallback.416" = type { %"class.base::internal::CallbackBase" }
%"class.logging::CheckError" = type { %"class.logging::LogMessage"* }
%"class.logging::LogMessage" = type { i32 (...)**, i32, %"class.std::__1::basic_ostringstream", i64, i8*, i32, %"class.base::ScopedClearLastErrorBase" }
%"class.std::__1::basic_ostringstream" = type { %"class.std::__1::basic_ostream.base", %"class.std::__1::basic_stringbuf", %"class.std::__1::basic_ios.base" }
%"class.std::__1::basic_ostream.base" = type { i32 (...)** }
%"class.std::__1::basic_stringbuf" = type <{ %"class.std::__1::basic_streambuf", %"class.std::__1::basic_string", i8*, i32, [4 x i8] }>
%"class.std::__1::basic_streambuf" = type { i32 (...)**, %"class.std::__1::locale", i8*, i8*, i8*, i8*, i8*, i8* }
%"class.std::__1::locale" = type { %"class.std::__1::locale::__imp"* }
%"class.std::__1::locale::__imp" = type opaque
%"class.std::__1::basic_ios.base" = type <{ %"class.std::__1::ios_base", %"class.std::__1::basic_ostream"*, i32 }>
%"class.std::__1::ios_base" = type { i32 (...)**, i32, i64, i64, i32, i32, i8*, i8*, void (i32, %"class.std::__1::ios_base"*, i32)**, i32*, i64, i64, i64*, i64, i64, i8**, i64, i64 }
%"class.std::__1::basic_ostream" = type { i32 (...)**, %"class.std::__1::basic_ios.base" }
%"class.base::ScopedClearLastErrorBase" = type { i32 }
%"class.base::OnceCallback.718" = type { %"class.base::internal::CallbackBase" }
%"class.storage::QuotaErrorOr" = type { i32, %"class.absl::optional.358" }
%"class.absl::optional.358" = type { %"class.absl::optional_internal::optional_data.359" }
%"class.absl::optional_internal::optional_data.359" = type { %"class.absl::optional_internal::optional_data_base.360" }
%"class.absl::optional_internal::optional_data_base.360" = type { %"class.absl::optional_internal::optional_data_dtor_base.361" }
%"class.absl::optional_internal::optional_data_dtor_base.361" = type { i8, %union.anon.362 }
%union.anon.362 = type { %"class.util::IdType" }
%"class.util::IdType" = type { %"class.base::StrongAlias" }
%"class.base::StrongAlias" = type { i64 }
%"class.base::OnceCallback.364" = type { %"class.base::internal::CallbackBase" }
%"class.storage::QuotaTask" = type <{ i32 (...)**, %"class.storage::QuotaTaskObserver"*, %class.scoped_refptr.28, i8, [7 x i8] }>
%"class.base::OnceCallback.373" = type { %"class.base::internal::CallbackBase" }
%"class.base::OnceCallback.374" = type { %"class.base::internal::CallbackBase" }
%"class.mojo::StructPtr" = type { %"class.std::__1::unique_ptr.375" }
%"class.std::__1::unique_ptr.375" = type { %"class.std::__1::__compressed_pair.376" }
%"class.std::__1::__compressed_pair.376" = type { %"struct.std::__1::__compressed_pair_elem.377" }
%"struct.std::__1::__compressed_pair_elem.377" = type { %"class.blink::mojom::UsageBreakdown"* }
%"class.blink::mojom::UsageBreakdown" = type { i64, i64, i64, i64, i64, i64, i64 }
%"class.base::OnceCallback.381" = type { %"class.base::internal::CallbackBase" }
%"class.std::__1::tuple.766" = type { %"struct.std::__1::__tuple_impl.767" }
%"struct.std::__1::__tuple_impl.767" = type { %"class.std::__1::__tuple_leaf.768" }
%"class.std::__1::__tuple_leaf.768" = type { %"class.url::Origin"* }
%"class.std::__1::tuple.769" = type { i8 }
%class.GURL = type { %"class.std::__1::basic_string", i8, %"struct.url::Parsed", %"class.std::__1::unique_ptr.382" }
%"struct.url::Parsed" = type { %"struct.url::Component", %"struct.url::Component", %"struct.url::Component", %"struct.url::Component", %"struct.url::Component", %"struct.url::Component", %"struct.url::Component", %"struct.url::Component", i8, %"struct.url::Parsed"* }
%"struct.url::Component" = type { i32, i32 }
%"class.std::__1::unique_ptr.382" = type { %"class.std::__1::__compressed_pair.383" }
%"class.std::__1::__compressed_pair.383" = type { %"struct.std::__1::__compressed_pair_elem.384" }
%"struct.std::__1::__compressed_pair_elem.384" = type { %class.GURL* }
%"class.std::__1::__tree_node.662" = type { %"class.std::__1::__tree_node_base.base", %"struct.std::__1::__value_type.663" }
%"struct.std::__1::__value_type.663" = type { %"struct.std::__1::pair.513" }
%"struct.std::__1::pair.513" = type { %"class.url::Origin", %"struct.storage::QuotaManagerImpl::QuotaOverride" }
%"class.base::OnceCallback.553" = type { %"class.base::internal::CallbackBase" }
%"class.base::OnceCallback.554" = type { %"class.base::internal::CallbackBase" }
%"class.base::internal::flat_tree.394" = type { %"class.std::__1::vector.395" }
%"class.std::__1::vector.395" = type { %"class.std::__1::__vector_base.396" }
%"class.std::__1::__vector_base.396" = type { i32*, i32*, %"class.std::__1::__compressed_pair.397" }
%"class.std::__1::__compressed_pair.397" = type { %"struct.std::__1::__compressed_pair_elem.398" }
%"struct.std::__1::__compressed_pair_elem.398" = type { i32* }
%"class.base::OnceCallback.414" = type { %"class.base::internal::CallbackBase" }
%"class.std::__1::tuple.780" = type { %"struct.std::__1::__tuple_impl.781" }
%"struct.std::__1::__tuple_impl.781" = type { %"class.std::__1::__tuple_leaf.782" }
%"class.std::__1::__tuple_leaf.782" = type { %"class.std::__1::basic_string"* }
%"class.base::OnceCallback.415" = type { %"class.base::internal::CallbackBase" }
%"class.std::__1::vector.611" = type { %"class.std::__1::__vector_base.612" }
%"class.std::__1::__vector_base.612" = type { %"class.base::OnceCallback.414"*, %"class.base::OnceCallback.414"*, %"class.std::__1::__compressed_pair.613" }
%"class.std::__1::__compressed_pair.613" = type { %"struct.std::__1::__compressed_pair_elem.614" }
%"struct.std::__1::__compressed_pair_elem.614" = type { %"class.base::OnceCallback.414"* }
%"class.base::OnceCallback.423" = type { %"class.base::internal::CallbackBase" }
%"class.std::__1::map.424" = type { %"class.std::__1::__tree.425" }
%"class.std::__1::__tree.425" = type { %"class.std::__1::__tree_end_node"*, %"class.std::__1::__compressed_pair.426", %"class.std::__1::__compressed_pair.430" }
%"class.std::__1::__compressed_pair.426" = type { %"struct.std::__1::__compressed_pair_elem" }
%"class.std::__1::__compressed_pair.430" = type { %"struct.std::__1::__compressed_pair_elem.2" }
%"class.std::__1::map.433" = type { %"class.std::__1::__tree.434" }
%"class.std::__1::__tree.434" = type { %"class.std::__1::__tree_end_node"*, %"class.std::__1::__compressed_pair.435", %"class.std::__1::__compressed_pair.439" }
%"class.std::__1::__compressed_pair.435" = type { %"struct.std::__1::__compressed_pair_elem" }
%"class.std::__1::__compressed_pair.439" = type { %"struct.std::__1::__compressed_pair_elem.2" }
%"class.std::__1::__tree_node.692" = type { %"class.std::__1::__tree_node_base.base", %"struct.std::__1::__value_type.693" }
%"struct.std::__1::__value_type.693" = type { %"struct.std::__1::pair.442" }
%"struct.std::__1::pair.442" = type { %"class.std::__1::basic_string", i64 }
%"class.base::OnceCallback.443" = type { %"class.base::internal::CallbackBase" }
%"class.storage::QuotaManagerImpl::GetModifiedSinceHelper" = type { %"class.std::__1::set.74" }
%"class.std::__1::__tree_node" = type { %"class.std::__1::__tree_node_base.base", %"class.url::Origin" }
%"class.std::__1::__tree_node.668" = type { %"class.std::__1::__tree_node_base.base", [7 x i8], %"struct.std::__1::__value_type.669" }
%"struct.std::__1::__value_type.669" = type { %"struct.std::__1::pair.535" }
%"struct.std::__1::pair.535" = type <{ %"class.url::Origin", i32, [4 x i8] }>
%"class.std::__1::__tree_node.608" = type { %"class.std::__1::__tree_node_base.base", %"struct.std::__1::__value_type" }
%"struct.std::__1::__value_type" = type { %"struct.std::__1::pair.609" }
%"struct.std::__1::pair.609" = type { %"class.std::__1::basic_string", %"class.storage::CallbackQueue.610" }
%"class.storage::CallbackQueue.610" = type { %"class.std::__1::vector.611" }
%"class.mojo::internal::InterfacePtrStateBase" = type <{ %class.scoped_refptr.93, %"class.std::__1::unique_ptr.206", %"class.mojo::ScopedHandleBase", [4 x i8], %class.scoped_refptr, i32, [4 x i8] }>
%"class.mojo::PendingRemote" = type { %"struct.mojo::internal::PendingRemoteState" }
%"struct.mojo::internal::PendingRemoteState" = type { %"class.mojo::ScopedHandleBase", i32 }
%"class.std::__1::vector.454" = type { %"class.std::__1::__vector_base.455" }
%"class.std::__1::__vector_base.455" = type { i32*, i32*, %"class.std::__1::__compressed_pair.456" }
%"class.std::__1::__compressed_pair.456" = type { %"struct.std::__1::__compressed_pair_elem.457" }
%"struct.std::__1::__compressed_pair_elem.457" = type { i32* }
%"class.storage::MojoQuotaClientWrapper" = type { %"class.storage::QuotaClient.base", %"class.storage::mojom::QuotaClient"* }
%"class.storage::QuotaClient.base" = type <{ %"class.storage::mojom::QuotaClient", %"class.base::RefCountedThreadSafe.268" }>
%"class.base::OnceCallback.468" = type { %"class.base::internal::CallbackBase" }
%"class.storage::QuotaManagerImpl::DumpQuotaTableHelper" = type { %"class.std::__1::vector.469" }
%"class.std::__1::vector.469" = type { %"class.std::__1::__vector_base.470" }
%"class.std::__1::__vector_base.470" = type { %"struct.storage::QuotaDatabase::QuotaTableEntry"*, %"struct.storage::QuotaDatabase::QuotaTableEntry"*, %"class.std::__1::__compressed_pair.471" }
%"struct.storage::QuotaDatabase::QuotaTableEntry" = type { %"class.std::__1::basic_string", i32, i64 }
%"class.std::__1::__compressed_pair.471" = type { %"struct.std::__1::__compressed_pair_elem.472" }
%"struct.std::__1::__compressed_pair_elem.472" = type { %"struct.storage::QuotaDatabase::QuotaTableEntry"* }
%"class.base::RepeatingCallback.618" = type { %"class.base::internal::CallbackBaseCopyable" }
%"class.base::OnceCallback.484" = type { %"class.base::internal::CallbackBase" }
%"class.storage::QuotaManagerImpl::DumpBucketTableHelper" = type { %"class.std::__1::vector.485" }
%"class.std::__1::vector.485" = type { %"class.std::__1::__vector_base.486" }
%"class.std::__1::__vector_base.486" = type { %"struct.storage::QuotaDatabase::BucketTableEntry"*, %"struct.storage::QuotaDatabase::BucketTableEntry"*, %"class.std::__1::__compressed_pair.487" }
%"struct.storage::QuotaDatabase::BucketTableEntry" = type { %"class.util::IdType", %"class.url::Origin", i32, %"class.std::__1::basic_string", i32, %"class.base::Time", %"class.base::Time" }
%"class.std::__1::__compressed_pair.487" = type { %"struct.std::__1::__compressed_pair_elem.488" }
%"struct.std::__1::__compressed_pair_elem.488" = type { %"struct.storage::QuotaDatabase::BucketTableEntry"* }
%"class.base::RepeatingCallback.627" = type { %"class.base::internal::CallbackBaseCopyable" }
%"class.base::HistogramBase" = type <{ i32 (...)**, i8*, %"struct.std::__1::atomic.351", [4 x i8] }>
%"class.std::__1::vector.504" = type { %"class.std::__1::__vector_base.505" }
%"class.std::__1::__vector_base.505" = type { %"class.url::Origin"*, %"class.url::Origin"*, %"class.std::__1::__compressed_pair.506" }
%"class.std::__1::__compressed_pair.506" = type { %"struct.std::__1::__compressed_pair_elem.507" }
%"struct.std::__1::__compressed_pair_elem.507" = type { %"class.url::Origin"* }
%"class.std::__1::map.520" = type { %"class.std::__1::__tree.521" }
%"class.std::__1::__tree.521" = type { %"class.std::__1::__tree_end_node"*, %"class.std::__1::__compressed_pair.522", %"class.std::__1::__compressed_pair.526" }
%"class.std::__1::__compressed_pair.522" = type { %"struct.std::__1::__compressed_pair_elem" }
%"class.std::__1::__compressed_pair.526" = type { %"struct.std::__1::__compressed_pair_elem.2" }
%"class.std::__1::__tree_node.956" = type { %"class.std::__1::__tree_node_base.base", %"struct.std::__1::__value_type.957" }
%"struct.std::__1::__value_type.957" = type { %"struct.std::__1::pair.532" }
%"struct.std::__1::pair.532" = type { %"class.url::Origin", i64 }
%"class.std::__1::__vector_base_common" = type { i8 }
%"class.base::OnceCallback.537" = type { %"class.base::internal::CallbackBase" }
%"class.base::OnceCallback.546" = type { %"class.base::internal::CallbackBase" }
%"struct.base::internal::BindState.987" = type { %"class.base::internal::BindStateBase", %"class.base::RepeatingCallback", %"class.std::__1::tuple.988" }
%"class.std::__1::tuple.988" = type { %"struct.std::__1::__tuple_impl.989" }
%"struct.std::__1::__tuple_impl.989" = type { %"class.std::__1::__tuple_leaf.990" }
%"class.std::__1::__tuple_leaf.990" = type { %"class.base::OnceCallback.546" }
%"class.absl::optional.547" = type { %"class.absl::optional_internal::optional_data.548" }
%"class.absl::optional_internal::optional_data.548" = type { %"class.absl::optional_internal::optional_data_base.549" }
%"class.absl::optional_internal::optional_data_base.549" = type { %"class.absl::optional_internal::optional_data_dtor_base.550" }
%"class.absl::optional_internal::optional_data_dtor_base.550" = type { i8, %union.anon.551 }
%union.anon.551 = type { %"struct.storage::QuotaSettings" }
%"class.std::__1::tuple.346" = type { %"struct.std::__1::__tuple_impl.347" }
%"struct.std::__1::__tuple_impl.347" = type { %"class.std::__1::__tuple_leaf.348", %"class.std::__1::__tuple_leaf.56" }
%"class.std::__1::__tuple_leaf.348" = type { i64 }
%"class.storage::QuotaManagerImpl::GetUsageInfoTask" = type { %"class.storage::QuotaTask.base", %"class.base::OnceCallback.364", %"class.std::__1::vector.365", i32, %"class.base::WeakPtrFactory.372" }
%"class.storage::QuotaTask.base" = type <{ i32 (...)**, %"class.storage::QuotaTaskObserver"*, %class.scoped_refptr.28, i8 }>
%"class.std::__1::vector.365" = type { %"class.std::__1::__vector_base.366" }
%"class.std::__1::__vector_base.366" = type { %"struct.storage::UsageInfo"*, %"struct.storage::UsageInfo"*, %"class.std::__1::__compressed_pair.367" }
%"struct.storage::UsageInfo" = type { %"class.std::__1::basic_string", i32, i64 }
%"class.std::__1::__compressed_pair.367" = type { %"struct.std::__1::__compressed_pair_elem.368" }
%"struct.std::__1::__compressed_pair_elem.368" = type { %"struct.storage::UsageInfo"* }
%"class.base::WeakPtrFactory.372" = type { %"class.base::internal::WeakPtrFactoryBase" }
%"class.base::WeakPtr.560" = type { %"class.base::internal::WeakPtrBase" }
%"class.storage::QuotaManagerImpl::UsageAndQuotaInfoGatherer" = type { %"class.storage::QuotaTask.base", %"class.url::Origin", %"class.base::OnceCallback.381", i32, i8, i8, i8, i64, i64, i64, i64, i8, %"class.absl::optional.388", %"class.mojo::StructPtr", %"struct.storage::QuotaSettings", %"class.base::WeakPtrFactory.393" }
%"class.absl::optional.388" = type { %"class.absl::optional_internal::optional_data.389" }
%"class.absl::optional_internal::optional_data.389" = type { %"class.absl::optional_internal::optional_data_base.390" }
%"class.absl::optional_internal::optional_data_base.390" = type { %"class.absl::optional_internal::optional_data_dtor_base.391" }
%"class.absl::optional_internal::optional_data_dtor_base.391" = type { i8, %union.anon.392 }
%"class.base::WeakPtrFactory.393" = type { %"class.base::internal::WeakPtrFactoryBase" }
%"class.base::WeakPtr.570" = type { %"class.base::internal::WeakPtrBase" }
%"class.storage::QuotaManagerImpl::StorageCleanupHelper" = type { %"class.storage::QuotaTask.base", i32, %"class.base::internal::flat_tree.394", %"class.base::OnceCallback", %"class.base::WeakPtrFactory.402" }
%"class.base::WeakPtrFactory.402" = type { %"class.base::internal::WeakPtrFactoryBase" }
%"class.base::WeakPtr.586" = type { %"class.base::internal::WeakPtrBase" }
%"class.storage::QuotaManagerImpl::HostDataDeleter" = type { %"class.storage::QuotaTask.base", %"class.std::__1::basic_string", i32, %"class.base::internal::flat_tree.394", %"class.std::__1::set.74", i32, i64, i64, %"class.base::OnceCallback.318", %"class.base::WeakPtrFactory.413" }
%"class.base::WeakPtrFactory.413" = type { %"class.base::internal::WeakPtrFactoryBase" }
%"class.base::OnceCallback.597" = type { %"class.base::internal::CallbackBase" }
%"class.base::WeakPtr.598" = type { %"class.base::internal::WeakPtrBase" }
%"class.storage::QuotaManagerImpl::OriginDataDeleter" = type { %"class.storage::QuotaTask.base", %"class.url::Origin", i32, %"class.base::internal::flat_tree.394", i32, i64, i32, i8, %"class.base::OnceCallback.318", %"class.base::WeakPtrFactory.500" }
%"class.base::WeakPtrFactory.500" = type { %"class.base::internal::WeakPtrFactoryBase" }
%"class.base::WeakPtr.636" = type { %"class.base::internal::WeakPtrBase" }
%"class.base::trace_event::TraceArguments" = type { i8, [2 x i8], [2 x i8*], [2 x %"union.base::trace_event::TraceValue"] }
%"union.base::trace_event::TraceValue" = type { i64 }
%"class.base::trace_event::ConvertableToTraceFormat" = type { i32 (...)** }
%"class.protozero::HeapBuffered" = type { %"class.protozero::ScatteredHeapBuffer", %"class.protozero::ScatteredStreamWriter", %"class.protozero::RootMessage" }
%"class.protozero::ScatteredHeapBuffer" = type { %"class.protozero::ScatteredStreamWriter::Delegate", i64, i64, %"class.protozero::ScatteredStreamWriter"*, %"class.std::__1::vector.637", %"class.protozero::ScatteredHeapBuffer::Slice" }
%"class.protozero::ScatteredStreamWriter::Delegate" = type { i32 (...)** }
%"class.std::__1::vector.637" = type { %"class.std::__1::__vector_base.638" }
%"class.std::__1::__vector_base.638" = type { %"class.protozero::ScatteredHeapBuffer::Slice"*, %"class.protozero::ScatteredHeapBuffer::Slice"*, %"class.std::__1::__compressed_pair.645" }
%"class.std::__1::__compressed_pair.645" = type { %"struct.std::__1::__compressed_pair_elem.646" }
%"struct.std::__1::__compressed_pair_elem.646" = type { %"class.protozero::ScatteredHeapBuffer::Slice"* }
%"class.protozero::ScatteredHeapBuffer::Slice" = type { %"class.std::__1::unique_ptr.639", i64, i64 }
%"class.std::__1::unique_ptr.639" = type { %"class.std::__1::__compressed_pair.640" }
%"class.std::__1::__compressed_pair.640" = type { %"struct.std::__1::__compressed_pair_elem.641" }
%"struct.std::__1::__compressed_pair_elem.641" = type { i8* }
%"class.protozero::ScatteredStreamWriter" = type { %"class.protozero::ScatteredStreamWriter::Delegate"*, %"struct.protozero::ContiguousMemoryRange", i8*, i64 }
%"struct.protozero::ContiguousMemoryRange" = type { i8*, i8* }
%"class.protozero::RootMessage" = type { %"class.perfetto::protos::pbzero::DebugAnnotation.base", %"class.protozero::MessageArena" }
%"class.perfetto::protos::pbzero::DebugAnnotation.base" = type { %"class.protozero::Message.base" }
%"class.protozero::Message.base" = type <{ %"class.protozero::ScatteredStreamWriter"*, %"class.protozero::MessageArena"*, %"class.protozero::Message"*, i8*, i32, i32, i8 }>
%"class.protozero::Message" = type <{ %"class.protozero::ScatteredStreamWriter"*, %"class.protozero::MessageArena"*, %"class.protozero::Message"*, i8*, i32, i32, i8, [7 x i8] }>
%"class.protozero::MessageArena" = type { %"class.std::__1::list" }
%"class.std::__1::list" = type { %"class.std::__1::__list_imp" }
%"class.std::__1::__list_imp" = type { %"struct.std::__1::__list_node_base", %"class.std::__1::__compressed_pair.650" }
%"struct.std::__1::__list_node_base" = type { %"struct.std::__1::__list_node_base"*, %"struct.std::__1::__list_node_base"* }
%"class.std::__1::__compressed_pair.650" = type { %"struct.std::__1::__compressed_pair_elem.2" }
%"class.storage::QuotaManagerImpl::EvictionRoundInfoHelper" = type { %"class.storage::QuotaTask.base", %"class.base::OnceCallback.537", %"struct.storage::QuotaSettings", i64, i64, i64, i8, %"class.base::WeakPtrFactory.538" }
%"class.base::WeakPtrFactory.538" = type { %"class.base::internal::WeakPtrFactoryBase" }
%"class.base::WeakPtr.670" = type { %"class.base::internal::WeakPtrBase" }
%"class.std::__1::basic_ostream<char, std::__1::char_traits<char> >::sentry" = type { i8, %"class.std::__1::basic_ostream"* }
%"class.std::__1::locale::facet" = type { %"class.std::__1::__shared_count" }
%"class.std::__1::__shared_count" = type { i32 (...)**, i64 }
%"class.std::__1::ctype" = type <{ %"class.std::__1::locale::facet", i16*, i8, [7 x i8] }>
%"struct.std::__1::__split_buffer.697" = type { %"struct.std::__1::pair.276"*, %"struct.std::__1::pair.276"*, %"struct.std::__1::pair.276"*, %"class.std::__1::__compressed_pair.698" }
%"class.std::__1::__compressed_pair.698" = type { %"struct.std::__1::__compressed_pair_elem.278", %"struct.std::__1::__compressed_pair_elem.699" }
%"struct.std::__1::__compressed_pair_elem.699" = type { %"class.std::__1::allocator.280"* }
%"class.std::__1::allocator.280" = type { i8 }
%"class.std::__1::unique_ptr.719" = type { %"class.std::__1::__compressed_pair.720" }
%"class.std::__1::__compressed_pair.720" = type { %"struct.std::__1::__compressed_pair_elem.721" }
%"struct.std::__1::__compressed_pair_elem.721" = type { %"class.storage::QuotaErrorOr"* }
%"class.std::__1::__tree_node.813" = type { %"class.std::__1::__tree_node_base.base", %"struct.std::__1::__value_type.814" }
%"struct.std::__1::__value_type.814" = type { %"struct.std::__1::pair.815" }
%"struct.std::__1::pair.815" = type { %"class.std::__1::basic_string", %"class.std::__1::basic_string" }
%"class.std::__1::unique_ptr.852" = type { %"class.std::__1::__compressed_pair.853" }
%"class.std::__1::__compressed_pair.853" = type { %"struct.std::__1::__compressed_pair_elem.854" }
%"struct.std::__1::__compressed_pair_elem.854" = type { i8* }
%"struct.std::__1::__split_buffer.902" = type { %"struct.std::__1::pair.407"*, %"struct.std::__1::pair.407"*, %"struct.std::__1::pair.407"*, %"class.std::__1::__compressed_pair.903" }
%"class.std::__1::__compressed_pair.903" = type { %"struct.std::__1::__compressed_pair_elem.409", %"struct.std::__1::__compressed_pair_elem.904" }
%"struct.std::__1::__compressed_pair_elem.904" = type { %"class.std::__1::allocator.411"* }
%"class.std::__1::allocator.411" = type { i8 }
%"struct.base::internal::BindState.911" = type { %"class.base::internal::BindStateBase", { i64, i64 }, %"class.std::__1::tuple.912" }
%"class.std::__1::tuple.912" = type { %"struct.std::__1::__tuple_impl.913" }
%"struct.std::__1::__tuple_impl.913" = type { %"class.std::__1::__tuple_leaf.914", %"class.std::__1::__tuple_leaf.836", %"class.std::__1::__tuple_leaf.915" }
%"class.std::__1::__tuple_leaf.914" = type { %"class.base::internal::OwnedWrapper.477" }
%"class.base::internal::OwnedWrapper.477" = type { %"class.std::__1::unique_ptr.478" }
%"class.std::__1::unique_ptr.478" = type { %"class.std::__1::__compressed_pair.479" }
%"class.std::__1::__compressed_pair.479" = type { %"struct.std::__1::__compressed_pair_elem.480" }
%"struct.std::__1::__compressed_pair_elem.480" = type { %"class.storage::QuotaManagerImpl::DumpQuotaTableHelper"* }
%"class.std::__1::__tuple_leaf.836" = type { %"class.base::WeakPtr.363" }
%"class.std::__1::__tuple_leaf.915" = type { %"class.base::OnceCallback.468" }
%"class.std::__1::tuple.925" = type { %"struct.std::__1::__tuple_impl.926" }
%"struct.std::__1::__tuple_impl.926" = type <{ %"class.std::__1::__tuple_leaf.709", %"class.std::__1::__tuple_leaf.564", %"class.std::__1::__tuple_leaf.927", [3 x i8] }>
%"class.std::__1::__tuple_leaf.709" = type { %"class.url::Origin" }
%"class.std::__1::__tuple_leaf.564" = type { i32 }
%"class.std::__1::__tuple_leaf.927" = type { i8 }
%"class.std::__1::unique_ptr.1008" = type { %"class.std::__1::__compressed_pair.1009" }
%"class.std::__1::__compressed_pair.1009" = type { %"struct.std::__1::__compressed_pair_elem.1010" }
%"struct.std::__1::__compressed_pair_elem.1010" = type { %"class.std::__1::tuple.346"* }

$_ZN7storage16QuotaManagerImpl37PostTaskAndReplyWithResultForDBThreadIN4util6IdTypeINS_9BucketTagElLl0ELl1EEEEEvN4base12OnceCallbackIFNS_12QuotaErrorOrIT_EEPNS_13QuotaDatabaseEEEENS7_IFvSA_EEERKNS6_8LocationE = comdat any

$_ZN7storage16QuotaManagerImpl22GetModifiedSinceHelper28GetModifiedBetweenOnDBThreadEN5blink5mojom11StorageTypeEN4base4TimeES6_PNS_13QuotaDatabaseE = comdat any

$_ZN7storage16QuotaManagerImpl22GetModifiedSinceHelper21DidGetModifiedBetweenERKN4base7WeakPtrIS0_EENS2_12OnceCallbackIFvRKNSt3__13setIN3url6OriginENS8_4lessISB_EENS8_9allocatorISB_EEEEN5blink5mojom11StorageTypeEEEESL_b = comdat any

$_ZN7storage16QuotaManagerImpl20DumpQuotaTableHelper24DumpQuotaTableOnDBThreadEPNS_13QuotaDatabaseE = comdat any

$_ZN7storage16QuotaManagerImpl20DumpQuotaTableHelper17DidDumpQuotaTableERKN4base7WeakPtrIS0_EENS2_12OnceCallbackIFvRKNSt3__16vectorINS_13QuotaDatabase15QuotaTableEntryENS8_9allocatorISB_EEEEEEEb = comdat any

$_ZN7storage16QuotaManagerImpl21DumpBucketTableHelper25DumpBucketTableOnDBThreadEPNS_13QuotaDatabaseE = comdat any

$_ZN7storage16QuotaManagerImpl21DumpBucketTableHelper18DidDumpBucketTableERKN4base7WeakPtrIS0_EENS2_12OnceCallbackIFvRKNSt3__16vectorINS_13QuotaDatabase16BucketTableEntryENS8_9allocatorISB_EEEEEEEb = comdat any

$_ZN7storage16CallbackQueueMapIN4base12OnceCallbackIFvN5blink5mojom15QuotaStatusCodeElEEENSt3__112basic_stringIcNS8_11char_traitsIcEENS8_9allocatorIcEEEEJS5_lEE3RunIJS5_RKlEEEvRKSE_DpOT_ = comdat any

$_ZN7storage20QuotaEvictionHandlerD2Ev = comdat any

$_ZN7storage20QuotaEvictionHandlerD0Ev = comdat any

$_ZN7storage16QuotaManagerImpl16GetUsageInfoTaskD2Ev = comdat any

$_ZN7storage16QuotaManagerImpl16GetUsageInfoTaskD0Ev = comdat any

$_ZN7storage16QuotaManagerImpl16GetUsageInfoTask3RunEv = comdat any

$_ZN7storage16QuotaManagerImpl16GetUsageInfoTask9CompletedEv = comdat any

$_ZN7storage16QuotaManagerImpl16GetUsageInfoTask7AbortedEv = comdat any

$_ZN7storage16QuotaManagerImpl16GetUsageInfoTask17DidGetGlobalUsageEN5blink5mojom11StorageTypeEll = comdat any

$_ZN4base8internal7InvokerINS0_9BindStateIMN7storage16QuotaManagerImpl16GetUsageInfoTaskEFvN5blink5mojom11StorageTypeEllEJNS_7WeakPtrIS5_EES8_EEEFvllEE7RunOnceEPNS0_13BindStateBaseEll = comdat any

$_ZN4base8internal9BindStateIMN7storage16QuotaManagerImpl16GetUsageInfoTaskEFvN5blink5mojom11StorageTypeEllEJNS_7WeakPtrIS4_EES7_EE7DestroyEPKNS0_13BindStateBaseE = comdat any

$_ZN4base8internal23QueryCancellationTraitsINS0_9BindStateIMN7storage16QuotaManagerImpl16GetUsageInfoTaskEFvN5blink5mojom11StorageTypeEllEJNS_7WeakPtrIS5_EES8_EEEEEbPKNS0_13BindStateBaseENSE_21CancellationQueryModeE = comdat any

$_ZN7storage16QuotaManagerImpl16GetUsageInfoTask10AddEntriesEN5blink5mojom11StorageTypeEPNS_12UsageTrackerE = comdat any

$_ZNSt3__16vectorIN7storage9UsageInfoENS_9allocatorIS2_EEE24__emplace_back_slow_pathIJRKNS_12basic_stringIcNS_11char_traitsIcEENS3_IcEEEERN5blink5mojom11StorageTypeERKlEEEvDpOT_ = comdat any

$_ZN7storage16QuotaManagerImpl25UsageAndQuotaInfoGathererD2Ev = comdat any

$_ZN7storage16QuotaManagerImpl25UsageAndQuotaInfoGathererD0Ev = comdat any

$_ZN7storage16QuotaManagerImpl25UsageAndQuotaInfoGatherer3RunEv = comdat any

$_ZN7storage16QuotaManagerImpl25UsageAndQuotaInfoGatherer9CompletedEv = comdat any

$_ZN7storage16QuotaManagerImpl25UsageAndQuotaInfoGatherer7AbortedEv = comdat any

$_ZN7storage16QuotaManagerImpl25UsageAndQuotaInfoGatherer17OnBarrierCompleteEv = comdat any

$_ZN7storage16QuotaManagerImpl25UsageAndQuotaInfoGatherer13OnGotSettingsEN4base17RepeatingCallbackIFvvEEERKNS_13QuotaSettingsE = comdat any

$_ZN7storage16QuotaManagerImpl25UsageAndQuotaInfoGatherer13OnGotCapacityEN4base12OnceCallbackIFvvEEEll = comdat any

$_ZN7storage16QuotaManagerImpl25UsageAndQuotaInfoGatherer14OnGotHostUsageEN4base12OnceCallbackIFvvEEElN4mojo9StructPtrIN5blink5mojom14UsageBreakdownEEE = comdat any

$_ZN7storage16QuotaManagerImpl25UsageAndQuotaInfoGatherer19SetDesiredHostQuotaEN4base12OnceCallbackIFvvEEEN5blink5mojom15QuotaStatusCodeEl = comdat any

$_ZN4base8internal7InvokerINS0_9BindStateIMN7storage16QuotaManagerImpl25UsageAndQuotaInfoGathererEFvvEJNS_7WeakPtrIS5_EEEEEFvvEE7RunOnceEPNS0_13BindStateBaseE = comdat any

$_ZN4base8internal9BindStateIMN7storage16QuotaManagerImpl25UsageAndQuotaInfoGathererEFvvEJNS_7WeakPtrIS4_EEEE7DestroyEPKNS0_13BindStateBaseE = comdat any

$_ZN4base8internal23QueryCancellationTraitsINS0_9BindStateIMN7storage16QuotaManagerImpl25UsageAndQuotaInfoGathererEFvvEJNS_7WeakPtrIS5_EEEEEEEbPKNS0_13BindStateBaseENSB_21CancellationQueryModeE = comdat any

$_ZN4base8internal7InvokerINS0_9BindStateIMN7storage16QuotaManagerImpl25UsageAndQuotaInfoGathererEFvNS_17RepeatingCallbackIFvvEEERKNS3_13QuotaSettingsEEJNS_7WeakPtrIS5_EES8_EEEFvSB_EE7RunOnceEPNS0_13BindStateBaseESB_ = comdat any

$_ZN4base8internal13FunctorTraitsIMN7storage16QuotaManagerImpl25UsageAndQuotaInfoGathererEFvNS_17RepeatingCallbackIFvvEEERKNS2_13QuotaSettingsEEvE6InvokeISC_NS_7WeakPtrIS4_EEJS7_SA_EEEvT_OT0_DpOT1_ = comdat any

$_ZN4base8internal9BindStateIMN7storage16QuotaManagerImpl25UsageAndQuotaInfoGathererEFvNS_17RepeatingCallbackIFvvEEERKNS2_13QuotaSettingsEEJNS_7WeakPtrIS4_EES7_EE7DestroyEPKNS0_13BindStateBaseE = comdat any

$_ZN4base8internal23QueryCancellationTraitsINS0_9BindStateIMN7storage16QuotaManagerImpl25UsageAndQuotaInfoGathererEFvNS_17RepeatingCallbackIFvvEEERKNS3_13QuotaSettingsEEJNS_7WeakPtrIS5_EES8_EEEEEbPKNS0_13BindStateBaseENSH_21CancellationQueryModeE = comdat any

$_ZN4base8internal7InvokerINS0_9BindStateIMN7storage16QuotaManagerImpl25UsageAndQuotaInfoGathererEFvNS_12OnceCallbackIFvvEEEllEJNS_7WeakPtrIS5_EENS_17RepeatingCallbackIS7_EEEEEFvllEE7RunOnceEPNS0_13BindStateBaseEll = comdat any

$_ZN4base8internal13FunctorTraitsIMN7storage16QuotaManagerImpl25UsageAndQuotaInfoGathererEFvNS_12OnceCallbackIFvvEEEllEvE6InvokeIS9_NS_7WeakPtrIS4_EEJNS_17RepeatingCallbackIS6_EEllEEEvT_OT0_DpOT1_ = comdat any

$_ZN4base8internal9BindStateIMN7storage16QuotaManagerImpl25UsageAndQuotaInfoGathererEFvNS_12OnceCallbackIFvvEEEllEJNS_7WeakPtrIS4_EENS_17RepeatingCallbackIS6_EEEE7DestroyEPKNS0_13BindStateBaseE = comdat any

$_ZN4base8internal23QueryCancellationTraitsINS0_9BindStateIMN7storage16QuotaManagerImpl25UsageAndQuotaInfoGathererEFvNS_12OnceCallbackIFvvEEEllEJNS_7WeakPtrIS5_EENS_17RepeatingCallbackIS7_EEEEEEEbPKNS0_13BindStateBaseENSG_21CancellationQueryModeE = comdat any

$_ZN4base8internal7InvokerINS0_9BindStateIMN7storage16QuotaManagerImpl25UsageAndQuotaInfoGathererEFvNS_12OnceCallbackIFvvEEElN4mojo9StructPtrIN5blink5mojom14UsageBreakdownEEEEJNS_7WeakPtrIS5_EENS_17RepeatingCallbackIS7_EEEEEFvlSE_EE7RunOnceEPNS0_13BindStateBaseElOSE_ = comdat any

$_ZN4base8internal13FunctorTraitsIMN7storage16QuotaManagerImpl25UsageAndQuotaInfoGathererEFvNS_12OnceCallbackIFvvEEElN4mojo9StructPtrIN5blink5mojom14UsageBreakdownEEEEvE6InvokeISF_NS_7WeakPtrIS4_EEJNS_17RepeatingCallbackIS6_EElSD_EEEvT_OT0_DpOT1_ = comdat any

$_ZN4base8internal9BindStateIMN7storage16QuotaManagerImpl25UsageAndQuotaInfoGathererEFvNS_12OnceCallbackIFvvEEElN4mojo9StructPtrIN5blink5mojom14UsageBreakdownEEEEJNS_7WeakPtrIS4_EENS_17RepeatingCallbackIS6_EEEE7DestroyEPKNS0_13BindStateBaseE = comdat any

$_ZN4base8internal23QueryCancellationTraitsINS0_9BindStateIMN7storage16QuotaManagerImpl25UsageAndQuotaInfoGathererEFvNS_12OnceCallbackIFvvEEElN4mojo9StructPtrIN5blink5mojom14UsageBreakdownEEEEJNS_7WeakPtrIS5_EENS_17RepeatingCallbackIS7_EEEEEEEbPKNS0_13BindStateBaseENSM_21CancellationQueryModeE = comdat any

$_ZN4base8internal7InvokerINS0_9BindStateIMN7storage16QuotaManagerImpl25UsageAndQuotaInfoGathererEFvNS_12OnceCallbackIFvvEEEN5blink5mojom15QuotaStatusCodeElEJNS_7WeakPtrIS5_EENS_17RepeatingCallbackIS7_EEEEEFvSB_lEE7RunOnceEPNS0_13BindStateBaseESB_l = comdat any

$_ZN4base8internal13FunctorTraitsIMN7storage16QuotaManagerImpl25UsageAndQuotaInfoGathererEFvNS_12OnceCallbackIFvvEEEN5blink5mojom15QuotaStatusCodeElEvE6InvokeISC_NS_7WeakPtrIS4_EEJNS_17RepeatingCallbackIS6_EESA_lEEEvT_OT0_DpOT1_ = comdat any

$_ZN4base8internal9BindStateIMN7storage16QuotaManagerImpl25UsageAndQuotaInfoGathererEFvNS_12OnceCallbackIFvvEEEN5blink5mojom15QuotaStatusCodeElEJNS_7WeakPtrIS4_EENS_17RepeatingCallbackIS6_EEEE7DestroyEPKNS0_13BindStateBaseE = comdat any

$_ZN4base8internal23QueryCancellationTraitsINS0_9BindStateIMN7storage16QuotaManagerImpl25UsageAndQuotaInfoGathererEFvNS_12OnceCallbackIFvvEEEN5blink5mojom15QuotaStatusCodeElEJNS_7WeakPtrIS5_EENS_17RepeatingCallbackIS7_EEEEEEEbPKNS0_13BindStateBaseENSJ_21CancellationQueryModeE = comdat any

$_ZN7storage16QuotaManagerImpl20StorageCleanupHelperD2Ev = comdat any

$_ZN7storage16QuotaManagerImpl20StorageCleanupHelperD0Ev = comdat any

$_ZN7storage16QuotaManagerImpl20StorageCleanupHelper3RunEv = comdat any

$_ZN7storage16QuotaManagerImpl20StorageCleanupHelper9CompletedEv = comdat any

$_ZN7storage16QuotaManagerImpl20StorageCleanupHelper7AbortedEv = comdat any

$_ZN4base8internal7InvokerINS0_9BindStateIMN7storage9QuotaTaskEFvvEJNS_7WeakPtrINS3_16QuotaManagerImpl20StorageCleanupHelperEEEEEEFvvEE7RunOnceEPNS0_13BindStateBaseE = comdat any

$_ZN4base8internal9BindStateIMN7storage9QuotaTaskEFvvEJNS_7WeakPtrINS2_16QuotaManagerImpl20StorageCleanupHelperEEEEE7DestroyEPKNS0_13BindStateBaseE = comdat any

$_ZN4base8internal23QueryCancellationTraitsINS0_9BindStateIMN7storage9QuotaTaskEFvvEJNS_7WeakPtrINS3_16QuotaManagerImpl20StorageCleanupHelperEEEEEEEEbPKNS0_13BindStateBaseENSC_21CancellationQueryModeE = comdat any

$_ZN7storage16QuotaManagerImpl15HostDataDeleterD2Ev = comdat any

$_ZN7storage16QuotaManagerImpl15HostDataDeleterD0Ev = comdat any

$_ZN7storage16QuotaManagerImpl15HostDataDeleter3RunEv = comdat any

$_ZN7storage16QuotaManagerImpl15HostDataDeleter9CompletedEv = comdat any

$_ZN7storage16QuotaManagerImpl15HostDataDeleter7AbortedEv = comdat any

$_ZN7storage16QuotaManagerImpl15HostDataDeleter20DidGetOriginsForHostERKNSt3__16vectorIN3url6OriginENS2_9allocatorIS5_EEEE = comdat any

$_ZN4base8internal7InvokerINS0_9BindStateIMN7storage16QuotaManagerImpl15HostDataDeleterEFvRKNSt3__16vectorIN3url6OriginENS6_9allocatorIS9_EEEEEJNS_7WeakPtrIS5_EEEEEFvSE_EE7RunOnceEPNS0_13BindStateBaseESE_ = comdat any

$_ZN4base8internal9BindStateIMN7storage16QuotaManagerImpl15HostDataDeleterEFvRKNSt3__16vectorIN3url6OriginENS5_9allocatorIS8_EEEEEJNS_7WeakPtrIS4_EEEE7DestroyEPKNS0_13BindStateBaseE = comdat any

$_ZN4base8internal23QueryCancellationTraitsINS0_9BindStateIMN7storage16QuotaManagerImpl15HostDataDeleterEFvRKNSt3__16vectorIN3url6OriginENS6_9allocatorIS9_EEEEEJNS_7WeakPtrIS5_EEEEEEEbPKNS0_13BindStateBaseENSK_21CancellationQueryModeE = comdat any

$_ZN7storage16QuotaManagerImpl15HostDataDeleter23ScheduleOriginsDeletionEv = comdat any

$_ZN7storage16QuotaManagerImpl15HostDataDeleter19DidDeleteOriginDataEN5blink5mojom15QuotaStatusCodeE = comdat any

$_ZN4base8internal7InvokerINS0_9BindStateIMN7storage16QuotaManagerImpl15HostDataDeleterEFvN5blink5mojom15QuotaStatusCodeEEJNS_7WeakPtrIS5_EEEEEFvS8_EE7RunOnceEPNS0_13BindStateBaseES8_ = comdat any

$_ZN4base8internal9BindStateIMN7storage16QuotaManagerImpl15HostDataDeleterEFvN5blink5mojom15QuotaStatusCodeEEJNS_7WeakPtrIS4_EEEE7DestroyEPKNS0_13BindStateBaseE = comdat any

$_ZN4base8internal23QueryCancellationTraitsINS0_9BindStateIMN7storage16QuotaManagerImpl15HostDataDeleterEFvN5blink5mojom15QuotaStatusCodeEEJNS_7WeakPtrIS5_EEEEEEEbPKNS0_13BindStateBaseENSE_21CancellationQueryModeE = comdat any

$_ZNSt3__16__treeINS_12__value_typeINS_12basic_stringIcNS_11char_traitsIcEENS_9allocatorIcEEEEN7storage13CallbackQueueIN4base12OnceCallbackIFvN5blink5mojom15QuotaStatusCodeElEEEJSE_lEEEEENS_19__map_value_compareIS7_SI_NS_4lessIS7_EELb1EEENS5_ISI_EEE7destroyEPNS_11__tree_nodeISI_PvEE = comdat any

$_ZN7storage16QuotaManagerImpl20DumpQuotaTableHelper11AppendEntryERKNS_13QuotaDatabase15QuotaTableEntryE = comdat any

$_ZN4base8internal7InvokerINS0_9BindStateIMN7storage16QuotaManagerImpl20DumpQuotaTableHelperEFbRKNS3_13QuotaDatabase15QuotaTableEntryEEJNS0_17UnretainedWrapperIS5_EEEEEFbS9_EE3RunEPNS0_13BindStateBaseES9_ = comdat any

$_ZN4base8internal9BindStateIMN7storage16QuotaManagerImpl20DumpQuotaTableHelperEFbRKNS2_13QuotaDatabase15QuotaTableEntryEEJNS0_17UnretainedWrapperIS4_EEEE7DestroyEPKNS0_13BindStateBaseE = comdat any

$_ZNSt3__16vectorIN7storage13QuotaDatabase15QuotaTableEntryENS_9allocatorIS3_EEE21__push_back_slow_pathIRKS3_EEvOT_ = comdat any

$_ZN7storage16QuotaManagerImpl21DumpBucketTableHelper11AppendEntryERKNS_13QuotaDatabase16BucketTableEntryE = comdat any

$_ZN4base8internal7InvokerINS0_9BindStateIMN7storage16QuotaManagerImpl21DumpBucketTableHelperEFbRKNS3_13QuotaDatabase16BucketTableEntryEEJNS0_17UnretainedWrapperIS5_EEEEEFbS9_EE3RunEPNS0_13BindStateBaseES9_ = comdat any

$_ZN4base8internal9BindStateIMN7storage16QuotaManagerImpl21DumpBucketTableHelperEFbRKNS2_13QuotaDatabase16BucketTableEntryEEJNS0_17UnretainedWrapperIS4_EEEE7DestroyEPKNS0_13BindStateBaseE = comdat any

$_ZNSt3__16vectorIN7storage13QuotaDatabase16BucketTableEntryENS_9allocatorIS3_EEE21__push_back_slow_pathIRKS3_EEvOT_ = comdat any

$_ZN7storage16QuotaManagerImpl17OriginDataDeleterD2Ev = comdat any

$_ZN7storage16QuotaManagerImpl17OriginDataDeleterD0Ev = comdat any

$_ZN7storage16QuotaManagerImpl17OriginDataDeleter3RunEv = comdat any

$_ZN7storage16QuotaManagerImpl17OriginDataDeleter9CompletedEv = comdat any

$_ZN7storage16QuotaManagerImpl17OriginDataDeleter7AbortedEv = comdat any

$_ZN20trace_event_internal13AddTraceEventIRN7storage15QuotaClientTypeENSt3__112basic_stringIcNS4_11char_traitsIcEENS4_9allocatorIcEEEEEEN4base11trace_event16TraceEventHandleEcPKhPKcSH_yjySH_OT_SH_OT0_ = comdat any

$_ZN7storage16QuotaManagerImpl17OriginDataDeleter19DidDeleteOriginDataEiN5blink5mojom15QuotaStatusCodeE = comdat any

$_ZN4base8internal7InvokerINS0_9BindStateIMN7storage16QuotaManagerImpl17OriginDataDeleterEFviN5blink5mojom15QuotaStatusCodeEEJNS_7WeakPtrIS5_EEiEEEFvS8_EE7RunOnceEPNS0_13BindStateBaseES8_ = comdat any

$_ZN4base8internal9BindStateIMN7storage16QuotaManagerImpl17OriginDataDeleterEFviN5blink5mojom15QuotaStatusCodeEEJNS_7WeakPtrIS4_EEiEE7DestroyEPKNS0_13BindStateBaseE = comdat any

$_ZN4base8internal23QueryCancellationTraitsINS0_9BindStateIMN7storage16QuotaManagerImpl17OriginDataDeleterEFviN5blink5mojom15QuotaStatusCodeEEJNS_7WeakPtrIS5_EEiEEEEEbPKNS0_13BindStateBaseENSE_21CancellationQueryModeE = comdat any

$_ZN7storage16QuotaManagerImpl23EvictionRoundInfoHelperD2Ev = comdat any

$_ZN7storage16QuotaManagerImpl23EvictionRoundInfoHelperD0Ev = comdat any

$_ZN7storage16QuotaManagerImpl23EvictionRoundInfoHelper3RunEv = comdat any

$_ZN7storage16QuotaManagerImpl23EvictionRoundInfoHelper9CompletedEv = comdat any

$_ZN7storage16QuotaManagerImpl23EvictionRoundInfoHelper7AbortedEv = comdat any

$_ZN7storage16QuotaManagerImpl23EvictionRoundInfoHelper17OnBarrierCompleteEv = comdat any

$_ZN7storage16QuotaManagerImpl23EvictionRoundInfoHelper13OnGotSettingsEN4base12OnceCallbackIFvvEEERKNS_13QuotaSettingsE = comdat any

$_ZN7storage16QuotaManagerImpl23EvictionRoundInfoHelper13OnGotCapacityEN4base12OnceCallbackIFvvEEEll = comdat any

$_ZN4base8internal7InvokerINS0_9BindStateIMN7storage16QuotaManagerImpl23EvictionRoundInfoHelperEFvvEJNS_7WeakPtrIS5_EEEEEFvvEE7RunOnceEPNS0_13BindStateBaseE = comdat any

$_ZN4base8internal9BindStateIMN7storage16QuotaManagerImpl23EvictionRoundInfoHelperEFvvEJNS_7WeakPtrIS4_EEEE7DestroyEPKNS0_13BindStateBaseE = comdat any

$_ZN4base8internal23QueryCancellationTraitsINS0_9BindStateIMN7storage16QuotaManagerImpl23EvictionRoundInfoHelperEFvvEJNS_7WeakPtrIS5_EEEEEEEbPKNS0_13BindStateBaseENSB_21CancellationQueryModeE = comdat any

$_ZN7storage16QuotaManagerImpl23EvictionRoundInfoHelper16OnGotGlobalUsageEll = comdat any

$_ZN4base8internal7InvokerINS0_9BindStateIMN7storage16QuotaManagerImpl23EvictionRoundInfoHelperEFvllEJNS_7WeakPtrIS5_EEEEEFvllEE7RunOnceEPNS0_13BindStateBaseEll = comdat any

$_ZN4base8internal9BindStateIMN7storage16QuotaManagerImpl23EvictionRoundInfoHelperEFvllEJNS_7WeakPtrIS4_EEEE7DestroyEPKNS0_13BindStateBaseE = comdat any

$_ZN4base8internal23QueryCancellationTraitsINS0_9BindStateIMN7storage16QuotaManagerImpl23EvictionRoundInfoHelperEFvllEJNS_7WeakPtrIS5_EEEEEEEbPKNS0_13BindStateBaseENSB_21CancellationQueryModeE = comdat any

$_ZN4base8internal7InvokerINS0_9BindStateIMN7storage16QuotaManagerImpl23EvictionRoundInfoHelperEFvNS_12OnceCallbackIFvvEEERKNS3_13QuotaSettingsEEJNS_7WeakPtrIS5_EENS_17RepeatingCallbackIS7_EEEEEFvSB_EE7RunOnceEPNS0_13BindStateBaseESB_ = comdat any

$_ZN4base8internal13FunctorTraitsIMN7storage16QuotaManagerImpl23EvictionRoundInfoHelperEFvNS_12OnceCallbackIFvvEEERKNS2_13QuotaSettingsEEvE6InvokeISC_NS_7WeakPtrIS4_EEJNS_17RepeatingCallbackIS6_EESA_EEEvT_OT0_DpOT1_ = comdat any

$_ZN4base8internal9BindStateIMN7storage16QuotaManagerImpl23EvictionRoundInfoHelperEFvNS_12OnceCallbackIFvvEEERKNS2_13QuotaSettingsEEJNS_7WeakPtrIS4_EENS_17RepeatingCallbackIS6_EEEE7DestroyEPKNS0_13BindStateBaseE = comdat any

$_ZN4base8internal23QueryCancellationTraitsINS0_9BindStateIMN7storage16QuotaManagerImpl23EvictionRoundInfoHelperEFvNS_12OnceCallbackIFvvEEERKNS3_13QuotaSettingsEEJNS_7WeakPtrIS5_EENS_17RepeatingCallbackIS7_EEEEEEEbPKNS0_13BindStateBaseENSJ_21CancellationQueryModeE = comdat any

$_ZN4base8internal7InvokerINS0_9BindStateIMN7storage16QuotaManagerImpl23EvictionRoundInfoHelperEFvNS_12OnceCallbackIFvvEEEllEJNS_7WeakPtrIS5_EENS_17RepeatingCallbackIS7_EEEEEFvllEE7RunOnceEPNS0_13BindStateBaseEll = comdat any

$_ZN4base8internal13FunctorTraitsIMN7storage16QuotaManagerImpl23EvictionRoundInfoHelperEFvNS_12OnceCallbackIFvvEEEllEvE6InvokeIS9_NS_7WeakPtrIS4_EEJNS_17RepeatingCallbackIS6_EEllEEEvT_OT0_DpOT1_ = comdat any

$_ZN4base8internal9BindStateIMN7storage16QuotaManagerImpl23EvictionRoundInfoHelperEFvNS_12OnceCallbackIFvvEEEllEJNS_7WeakPtrIS4_EENS_17RepeatingCallbackIS6_EEEE7DestroyEPKNS0_13BindStateBaseE = comdat any

$_ZN4base8internal23QueryCancellationTraitsINS0_9BindStateIMN7storage16QuotaManagerImpl23EvictionRoundInfoHelperEFvNS_12OnceCallbackIFvvEEEllEJNS_7WeakPtrIS5_EENS_17RepeatingCallbackIS7_EEEEEEEbPKNS0_13BindStateBaseENSG_21CancellationQueryModeE = comdat any

$_ZN4base8internal7InvokerINS0_9BindStateINS_12OnceCallbackIFvN4absl8optionalIN7storage13QuotaSettingsEEEEEEJS8_EEEFvvEE7RunOnceEPNS0_13BindStateBaseE = comdat any

$_ZN4base8internal9BindStateINS_12OnceCallbackIFvN4absl8optionalIN7storage13QuotaSettingsEEEEEEJS7_EE7DestroyEPKNS0_13BindStateBaseE = comdat any

$_ZN4base8internal23QueryCancellationTraitsINS0_9BindStateINS_12OnceCallbackIFvN4absl8optionalIN7storage13QuotaSettingsEEEEEEJS8_EEEEEbPKNS0_13BindStateBaseENSC_21CancellationQueryModeE = comdat any

$_ZNSt3__124__put_character_sequenceIcNS_11char_traitsIcEEEERNS_13basic_ostreamIT_T0_EES7_PKS4_m = comdat any

$_ZNSt3__116__pad_and_outputIcNS_11char_traitsIcEEEENS_19ostreambuf_iteratorIT_T0_EES6_PKS4_S8_S8_RNS_8ios_baseES4_ = comdat any

$_ZNSt3__16__treeIiNS_4lessIiEENS_9allocatorIiEEE7destroyEPNS_11__tree_nodeIiPvEE = comdat any

$_ZNSt3__16__treeINS_12__value_typeINS_12basic_stringIcNS_11char_traitsIcEENS_9allocatorIcEEEElEENS_19__map_value_compareIS7_S8_NS_4lessIS7_EELb1EEENS5_IS8_EEE7destroyEPNS_11__tree_nodeIS8_PvEE = comdat any

$_ZNSt3__16vectorINS_4pairIN5blink5mojom11StorageTypeEN4base8flat_mapIPN7storage11QuotaClientENS7_15QuotaClientTypeENS_4lessIvEENS0_INS1_IS9_SA_EENS_9allocatorISD_EEEEEEEENSE_ISI_EEE7emplaceIJRKS4_SH_EEENS_11__wrap_iterIPSI_EENSO_IPKSI_EEDpOT_ = comdat any

$_ZNSt3__114__split_bufferINS_4pairIN5blink5mojom11StorageTypeEN4base8flat_mapIPN7storage11QuotaClientENS7_15QuotaClientTypeENS_4lessIvEENS_6vectorINS1_IS9_SA_EENS_9allocatorISE_EEEEEEEERNSF_ISJ_EEE12emplace_backIJRKS4_SI_EEEvDpOT_ = comdat any

$_ZNSt3__16__treeIN3url6OriginENS_4lessIS2_EENS_9allocatorIS2_EEE7destroyEPNS_11__tree_nodeIS2_PvEE = comdat any

$_ZNSt3__16__treeIN3url6OriginENS_4lessIS2_EENS_9allocatorIS2_EEE25__emplace_unique_key_argsIS2_JRKS2_EEENS_4pairINS_15__tree_iteratorIS2_PNS_11__tree_nodeIS2_PvEElEEbEERKT_DpOT0_ = comdat any

$_ZNSt3__127__tree_balance_after_insertIPNS_16__tree_node_baseIPvEEEEvT_S5_ = comdat any

$_ZNSt3__16__treeINS_12__value_typeIN3url6OriginEN7storage16QuotaManagerImpl13QuotaOverrideEEENS_19__map_value_compareIS3_S7_NS_4lessIS3_EELb1EEENS_9allocatorIS7_EEE7destroyEPNS_11__tree_nodeIS7_PvEE = comdat any

$_ZNSt3__16__treeINS_12__value_typeIN3url6OriginEiEENS_19__map_value_compareIS3_S4_NS_4lessIS3_EELb1EEENS_9allocatorIS4_EEE7destroyEPNS_11__tree_nodeIS4_PvEE = comdat any

$_ZN4base8internal7InvokerINS0_9BindStateIPFN7storage12QuotaErrorOrIN4util6IdTypeINS3_9BucketTagElLl0ELl1EEEEERKN3url6OriginERKNSt3__112basic_stringIcNSE_11char_traitsIcEENSE_9allocatorIcEEEEPNS3_13QuotaDatabaseEEJSB_SK_EEEFS9_SO_EE7RunOnceEPNS0_13BindStateBaseESO_ = comdat any

$_ZN4base8internal9BindStateIPFN7storage12QuotaErrorOrIN4util6IdTypeINS2_9BucketTagElLl0ELl1EEEEERKN3url6OriginERKNSt3__112basic_stringIcNSD_11char_traitsIcEENSD_9allocatorIcEEEEPNS2_13QuotaDatabaseEEJSA_SJ_EE7DestroyEPKNS0_13BindStateBaseE = comdat any

$_ZN4base8internal7InvokerINS0_9BindStateIMN7storage16QuotaManagerImplEFvNS_12OnceCallbackIFvNS3_12QuotaErrorOrIN4util6IdTypeINS3_9BucketTagElLl0ELl1EEEEEEEESB_EJNS_7WeakPtrIS4_EESD_EEESC_E7RunOnceEPNS0_13BindStateBaseEOSB_ = comdat any

$_ZN4base8internal13FunctorTraitsIMN7storage16QuotaManagerImplEFvNS_12OnceCallbackIFvNS2_12QuotaErrorOrIN4util6IdTypeINS2_9BucketTagElLl0ELl1EEEEEEEESA_EvE6InvokeISE_NS_7WeakPtrIS3_EEJSC_SA_EEEvT_OT0_DpOT1_ = comdat any

$_ZN4base8internal9BindStateIMN7storage16QuotaManagerImplEFvNS_12OnceCallbackIFvNS2_12QuotaErrorOrIN4util6IdTypeINS2_9BucketTagElLl0ELl1EEEEEEEESA_EJNS_7WeakPtrIS3_EESC_EE7DestroyEPKNS0_13BindStateBaseE = comdat any

$_ZN4base8internal23QueryCancellationTraitsINS0_9BindStateIMN7storage16QuotaManagerImplEFvNS_12OnceCallbackIFvNS3_12QuotaErrorOrIN4util6IdTypeINS3_9BucketTagElLl0ELl1EEEEEEEESB_EJNS_7WeakPtrIS4_EESD_EEEEEbPKNS0_13BindStateBaseENSJ_21CancellationQueryModeE = comdat any

$_ZN4base8internal20ReturnAsParamAdapterIN7storage12QuotaErrorOrIN4util6IdTypeINS2_9BucketTagElLl0ELl1EEEEEEEvNS_12OnceCallbackIFT_vEEEPNSt3__110unique_ptrISA_NSD_14default_deleteISA_EEEE = comdat any

$_ZN4base8internal12ReplyAdapterIN7storage12QuotaErrorOrIN4util6IdTypeINS2_9BucketTagElLl0ELl1EEEEES8_EEvNS_12OnceCallbackIFvT0_EEEPNSt3__110unique_ptrIT_NSD_14default_deleteISF_EEEE = comdat any

$_ZN4base8internal7InvokerINS0_9BindStateIPFvNS_12OnceCallbackIFN7storage12QuotaErrorOrIN4util6IdTypeINS4_9BucketTagElLl0ELl1EEEEEvEEEPNSt3__110unique_ptrISA_NSD_14default_deleteISA_EEEEEJSC_SI_EEEFvvEE7RunOnceEPNS0_13BindStateBaseE = comdat any

$_ZN4base8internal9BindStateIPFvNS_12OnceCallbackIFN7storage12QuotaErrorOrIN4util6IdTypeINS3_9BucketTagElLl0ELl1EEEEEvEEEPNSt3__110unique_ptrIS9_NSC_14default_deleteIS9_EEEEEJSB_SH_EE7DestroyEPKNS0_13BindStateBaseE = comdat any

$_ZN4base8internal7InvokerINS0_9BindStateIPFvNS_12OnceCallbackIFvN7storage12QuotaErrorOrIN4util6IdTypeINS4_9BucketTagElLl0ELl1EEEEEEEEPNSt3__110unique_ptrISA_NSD_14default_deleteISA_EEEEEJSC_NS0_12OwnedWrapperISH_NSF_ISH_EEEEEEEFvvEE7RunOnceEPNS0_13BindStateBaseE = comdat any

$_ZN4base8internal9BindStateIPFvNS_12OnceCallbackIFvN7storage12QuotaErrorOrIN4util6IdTypeINS3_9BucketTagElLl0ELl1EEEEEEEEPNSt3__110unique_ptrIS9_NSC_14default_deleteIS9_EEEEEJSB_NS0_12OwnedWrapperISG_NSE_ISG_EEEEEE7DestroyEPKNS0_13BindStateBaseE = comdat any

$_ZN4base8internal7InvokerINS0_9BindStateINS_12OnceCallbackIFN7storage12QuotaErrorOrIN4util6IdTypeINS4_9BucketTagElLl0ELl1EEEEEPNS4_13QuotaDatabaseEEEEJNS0_17UnretainedWrapperISB_EEEEEFSA_vEE7RunOnceEPNS0_13BindStateBaseE = comdat any

$_ZN4base8internal9BindStateINS_12OnceCallbackIFN7storage12QuotaErrorOrIN4util6IdTypeINS3_9BucketTagElLl0ELl1EEEEEPNS3_13QuotaDatabaseEEEEJNS0_17UnretainedWrapperISA_EEEE7DestroyEPKNS0_13BindStateBaseE = comdat any

$_ZN4base8internal23QueryCancellationTraitsINS0_9BindStateINS_12OnceCallbackIFN7storage12QuotaErrorOrIN4util6IdTypeINS4_9BucketTagElLl0ELl1EEEEEPNS4_13QuotaDatabaseEEEEJNS0_17UnretainedWrapperISB_EEEEEEEbPKNS0_13BindStateBaseENSI_21CancellationQueryModeE = comdat any

$_ZN4base8internal7InvokerINS0_9BindStateIPFvNS_12OnceCallbackIFvN5blink5mojom15QuotaStatusCodeEllEEES6_llN4mojo9StructPtrINS5_14UsageBreakdownEEEEJS8_EEEFvS6_llSC_EE7RunOnceEPNS0_13BindStateBaseES6_llOSC_ = comdat any

$_ZN4base8internal9BindStateIPFvNS_12OnceCallbackIFvN5blink5mojom15QuotaStatusCodeEllEEES5_llN4mojo9StructPtrINS4_14UsageBreakdownEEEEJS7_EE7DestroyEPKNS0_13BindStateBaseE = comdat any

$_ZN4base8internal7InvokerINS0_9BindStateIPFvNS_12OnceCallbackIFvN5blink5mojom15QuotaStatusCodeEllN4mojo9StructPtrINS5_14UsageBreakdownEEEEEES6_llbSA_EJSC_EEEFvS6_llbSA_EE7RunOnceEPNS0_13BindStateBaseES6_llbOSA_ = comdat any

$_ZN4base8internal9BindStateIPFvNS_12OnceCallbackIFvN5blink5mojom15QuotaStatusCodeEllN4mojo9StructPtrINS4_14UsageBreakdownEEEEEES5_llbS9_EJSB_EE7DestroyEPKNS0_13BindStateBaseE = comdat any

$_ZN4base8internal7InvokerINS0_9BindStateIMN7storage16QuotaManagerImplEFvRKN3url6OriginEllEJNS_7WeakPtrIS4_EES6_EEEFvllEE7RunOnceEPNS0_13BindStateBaseEll = comdat any

$_ZN4base8internal9BindStateIMN7storage16QuotaManagerImplEFvRKN3url6OriginEllEJNS_7WeakPtrIS3_EES5_EE7DestroyEPKNS0_13BindStateBaseE = comdat any

$_ZN4base8internal23QueryCancellationTraitsINS0_9BindStateIMN7storage16QuotaManagerImplEFvRKN3url6OriginEllEJNS_7WeakPtrIS4_EES6_EEEEEbPKNS0_13BindStateBaseENSE_21CancellationQueryModeE = comdat any

$_ZNSt3__16__treeINS_12__value_typeIN3url6OriginEiEENS_19__map_value_compareIS3_S4_NS_4lessIS3_EELb1EEENS_9allocatorIS4_EEE25__emplace_unique_key_argsIS3_JRKNS_21piecewise_construct_tENS_5tupleIJRKS3_EEENSG_IJEEEEEENS_4pairINS_15__tree_iteratorIS4_PNS_11__tree_nodeIS4_PvEElEEbEERKT_DpOT0_ = comdat any

$_ZNSt3__16__treeINS_12__value_typeIN3url6OriginEiEENS_19__map_value_compareIS3_S4_NS_4lessIS3_EELb1EEENS_9allocatorIS4_EEE14__erase_uniqueIS3_EEmRKT_ = comdat any

$_ZNSt3__113__tree_removeIPNS_16__tree_node_baseIPvEEEEvT_S5_ = comdat any

$_ZNSt3__16__treeINS_12__value_typeINS_12basic_stringIcNS_11char_traitsIcEENS_9allocatorIcEEEEN7storage13CallbackQueueIN4base12OnceCallbackIFvN5blink5mojom15QuotaStatusCodeElEEEJSE_lEEEEENS_19__map_value_compareIS7_SI_NS_4lessIS7_EELb1EEENS5_ISI_EEE25__emplace_unique_key_argsIS7_JRKNS_21piecewise_construct_tENS_5tupleIJRKS7_EEENST_IJEEEEEENS_4pairINS_15__tree_iteratorISI_PNS_11__tree_nodeISI_PvEElEEbEERKT_DpOT0_ = comdat any

$_ZNSt3__16__treeINS_12__value_typeINS_12basic_stringIcNS_11char_traitsIcEENS_9allocatorIcEEEEN7storage13CallbackQueueIN4base12OnceCallbackIFvN5blink5mojom15QuotaStatusCodeElEEEJSE_lEEEEENS_19__map_value_compareIS7_SI_NS_4lessIS7_EELb1EEENS5_ISI_EEE12__find_equalIS7_EERPNS_16__tree_node_baseIPvEERPNS_15__tree_end_nodeIST_EERKT_ = comdat any

$_ZNSt3__16vectorIN4base12OnceCallbackIFvN5blink5mojom15QuotaStatusCodeElEEENS_9allocatorIS7_EEE21__push_back_slow_pathIS7_EEvOT_ = comdat any

$_ZN4base8internal7InvokerINS0_9BindStateIPFbRKNSt3__112basic_stringIcNS3_11char_traitsIcEENS3_9allocatorIcEEEEPlPN7storage13QuotaDatabaseEEJS9_NS0_17UnretainedWrapperIlEEEEEFbSF_EE7RunOnceEPNS0_13BindStateBaseESF_ = comdat any

$_ZN4base8internal9BindStateIPFbRKNSt3__112basic_stringIcNS2_11char_traitsIcEENS2_9allocatorIcEEEEPlPN7storage13QuotaDatabaseEEJS8_NS0_17UnretainedWrapperIlEEEE7DestroyEPKNS0_13BindStateBaseE = comdat any

$_ZN4base8internal7InvokerINS0_9BindStateIMN7storage16QuotaManagerImplEFvRKNSt3__112basic_stringIcNS5_11char_traitsIcEENS5_9allocatorIcEEEEPKlbEJNS_7WeakPtrIS4_EESB_NS0_12OwnedWrapperIlNS5_14default_deleteIlEEEEEEEFvbEE7RunOnceEPNS0_13BindStateBaseEb = comdat any

$_ZN4base8internal9BindStateIMN7storage16QuotaManagerImplEFvRKNSt3__112basic_stringIcNS4_11char_traitsIcEENS4_9allocatorIcEEEEPKlbEJNS_7WeakPtrIS3_EESA_NS0_12OwnedWrapperIlNS4_14default_deleteIlEEEEEE7DestroyEPKNS0_13BindStateBaseE = comdat any

$_ZN4base8internal23QueryCancellationTraitsINS0_9BindStateIMN7storage16QuotaManagerImplEFvRKNSt3__112basic_stringIcNS5_11char_traitsIcEENS5_9allocatorIcEEEEPKlbEJNS_7WeakPtrIS4_EESB_NS0_12OwnedWrapperIlNS5_14default_deleteIlEEEEEEEEEbPKNS0_13BindStateBaseENSP_21CancellationQueryModeE = comdat any

$_ZN4base8internal7InvokerINS0_9BindStateIMN7storage16QuotaManagerImplEFvRKNSt3__112basic_stringIcNS5_11char_traitsIcEENS5_9allocatorIcEEEENS_12OnceCallbackIFvN5blink5mojom15QuotaStatusCodeElEEEPKlbEJNS_7WeakPtrIS4_EESB_SJ_NS0_12OwnedWrapperIlNS5_14default_deleteIlEEEEEEEFvbEE7RunOnceEPNS0_13BindStateBaseEb = comdat any

$_ZN4base8internal13FunctorTraitsIMN7storage16QuotaManagerImplEFvRKNSt3__112basic_stringIcNS4_11char_traitsIcEENS4_9allocatorIcEEEENS_12OnceCallbackIFvN5blink5mojom15QuotaStatusCodeElEEEPKlbEvE6InvokeISM_NS_7WeakPtrIS3_EEJSA_SI_PlbEEEvT_OT0_DpOT1_ = comdat any

$_ZN4base8internal9BindStateIMN7storage16QuotaManagerImplEFvRKNSt3__112basic_stringIcNS4_11char_traitsIcEENS4_9allocatorIcEEEENS_12OnceCallbackIFvN5blink5mojom15QuotaStatusCodeElEEEPKlbEJNS_7WeakPtrIS3_EESA_SI_NS0_12OwnedWrapperIlNS4_14default_deleteIlEEEEEE7DestroyEPKNS0_13BindStateBaseE = comdat any

$_ZN4base8internal23QueryCancellationTraitsINS0_9BindStateIMN7storage16QuotaManagerImplEFvRKNSt3__112basic_stringIcNS5_11char_traitsIcEENS5_9allocatorIcEEEENS_12OnceCallbackIFvN5blink5mojom15QuotaStatusCodeElEEEPKlbEJNS_7WeakPtrIS4_EESB_SJ_NS0_12OwnedWrapperIlNS5_14default_deleteIlEEEEEEEEEbPKNS0_13BindStateBaseENSV_21CancellationQueryModeE = comdat any

$_ZNSt3__16__treeINS_12__value_typeINS_12basic_stringIcNS_11char_traitsIcEENS_9allocatorIcEEEES7_EENS_19__map_value_compareIS7_S8_NS_4lessIS7_EELb1EEENS5_IS8_EEE25__emplace_unique_key_argsIS7_JRKNS_21piecewise_construct_tENS_5tupleIJRKS7_EEENSJ_IJEEEEEENS_4pairINS_15__tree_iteratorIS8_PNS_11__tree_nodeIS8_PvEElEEbEERKT_DpOT0_ = comdat any

$_ZNSt3__16__treeINS_12__value_typeINS_12basic_stringIcNS_11char_traitsIcEENS_9allocatorIcEEEES7_EENS_19__map_value_compareIS7_S8_NS_4lessIS7_EELb1EEENS5_IS8_EEE12__find_equalIS7_EERPNS_16__tree_node_baseIPvEERPNS_15__tree_end_nodeISJ_EERKT_ = comdat any

$_ZN4base8internal7InvokerINS0_9BindStateIMN7storage16QuotaManagerImpl22GetModifiedSinceHelperEFbN5blink5mojom11StorageTypeENS_4TimeES9_PNS3_13QuotaDatabaseEEJNS0_17UnretainedWrapperIS5_EES8_S9_S9_EEEFbSB_EE7RunOnceEPNS0_13BindStateBaseESB_ = comdat any

$_ZN4base8internal9BindStateIMN7storage16QuotaManagerImpl22GetModifiedSinceHelperEFbN5blink5mojom11StorageTypeENS_4TimeES8_PNS2_13QuotaDatabaseEEJNS0_17UnretainedWrapperIS4_EES7_S8_S8_EE7DestroyEPKNS0_13BindStateBaseE = comdat any

$_ZN4base8internal7InvokerINS0_9BindStateIMN7storage16QuotaManagerImpl22GetModifiedSinceHelperEFvRKNS_7WeakPtrIS4_EENS_12OnceCallbackIFvRKNSt3__13setIN3url6OriginENSB_4lessISE_EENSB_9allocatorISE_EEEEN5blink5mojom11StorageTypeEEEESO_bEJNS0_12OwnedWrapperIS5_NSB_14default_deleteIS5_EEEES7_SQ_SO_EEEFvbEE7RunOnceEPNS0_13BindStateBaseEb = comdat any

$_ZN4base8internal9BindStateIMN7storage16QuotaManagerImpl22GetModifiedSinceHelperEFvRKNS_7WeakPtrIS3_EENS_12OnceCallbackIFvRKNSt3__13setIN3url6OriginENSA_4lessISD_EENSA_9allocatorISD_EEEEN5blink5mojom11StorageTypeEEEESN_bEJNS0_12OwnedWrapperIS4_NSA_14default_deleteIS4_EEEES6_SP_SN_EE7DestroyEPKNS0_13BindStateBaseE = comdat any

$_ZN4base12DeleteHelperIN7storage13QuotaDatabaseEE8DoDeleteEPKv = comdat any

$_ZNSt3__16vectorINS_4pairIN5blink5mojom11StorageTypeEN4base8flat_mapIPN7storage11QuotaClientENS7_15QuotaClientTypeENS_4lessIvEENS0_INS1_IS9_SA_EENS_9allocatorISD_EEEEEEEENSE_ISI_EEE7emplaceIJS4_SH_EEENS_11__wrap_iterIPSI_EENSM_IPKSI_EEDpOT_ = comdat any

$_ZNSt3__114__split_bufferINS_4pairIN5blink5mojom11StorageTypeEN4base8flat_mapIPN7storage11QuotaClientENS7_15QuotaClientTypeENS_4lessIvEENS_6vectorINS1_IS9_SA_EENS_9allocatorISE_EEEEEEEERNSF_ISJ_EEE12emplace_backIJS4_SI_EEEvDpOT_ = comdat any

$_ZN4base8internal7InvokerINS0_9BindStateIMN7storage16QuotaManagerImplEFvvEJNS0_17UnretainedWrapperIS4_EEEEEFvvEE3RunEPNS0_13BindStateBaseE = comdat any

$_ZN4base8internal9BindStateIMN7storage16QuotaManagerImplEFvvEJNS0_17UnretainedWrapperIS3_EEEE7DestroyEPKNS0_13BindStateBaseE = comdat any

$_ZN4base8internal7InvokerINS0_9BindStateIMN7storage13QuotaDatabaseEFbvEJNS0_17UnretainedWrapperIS4_EEEEEFbvEE7RunOnceEPNS0_13BindStateBaseE = comdat any

$_ZN4base8internal9BindStateIMN7storage13QuotaDatabaseEFbvEJNS0_17UnretainedWrapperIS3_EEEE7DestroyEPKNS0_13BindStateBaseE = comdat any

$_ZN4base8internal7InvokerINS0_9BindStateIMN7storage16QuotaManagerImplEFvbEJNS_7WeakPtrIS4_EEEEEFvbEE7RunOnceEPNS0_13BindStateBaseEb = comdat any

$_ZN4base8internal9BindStateIMN7storage16QuotaManagerImplEFvbEJNS_7WeakPtrIS3_EEEE7DestroyEPKNS0_13BindStateBaseE = comdat any

$_ZN4base8internal23QueryCancellationTraitsINS0_9BindStateIMN7storage16QuotaManagerImplEFvbEJNS_7WeakPtrIS4_EEEEEEEbPKNS0_13BindStateBaseENSA_21CancellationQueryModeE = comdat any

$_ZN4base8internal20ReturnAsParamAdapterIbEEvNS_12OnceCallbackIFT_vEEEPNSt3__110unique_ptrIS3_NS6_14default_deleteIS3_EEEE = comdat any

$_ZN4base8internal12ReplyAdapterIbbEEvNS_12OnceCallbackIFvT0_EEEPNSt3__110unique_ptrIT_NS6_14default_deleteIS8_EEEE = comdat any

$_ZN4base8internal7InvokerINS0_9BindStateIPFvNS_12OnceCallbackIFbvEEEPNSt3__110unique_ptrIbNS6_14default_deleteIbEEEEEJS5_SB_EEEFvvEE7RunOnceEPNS0_13BindStateBaseE = comdat any

$_ZN4base8internal9BindStateIPFvNS_12OnceCallbackIFbvEEEPNSt3__110unique_ptrIbNS5_14default_deleteIbEEEEEJS4_SA_EE7DestroyEPKNS0_13BindStateBaseE = comdat any

$_ZN4base8internal7InvokerINS0_9BindStateIPFvNS_12OnceCallbackIFvbEEEPNSt3__110unique_ptrIbNS6_14default_deleteIbEEEEEJS5_NS0_12OwnedWrapperISA_NS8_ISA_EEEEEEEFvvEE7RunOnceEPNS0_13BindStateBaseE = comdat any

$_ZN4base8internal9BindStateIPFvNS_12OnceCallbackIFvbEEEPNSt3__110unique_ptrIbNS5_14default_deleteIbEEEEEJS4_NS0_12OwnedWrapperIS9_NS7_IS9_EEEEEE7DestroyEPKNS0_13BindStateBaseE = comdat any

$_ZN4base8internal7InvokerINS0_9BindStateIPFbNSt3__13setIN3url6OriginENS3_4lessIS6_EENS3_9allocatorIS6_EEEEPN7storage13QuotaDatabaseEEJSB_EEEFbSE_EE7RunOnceEPNS0_13BindStateBaseESE_ = comdat any

$_ZN4base8internal9BindStateIPFbNSt3__13setIN3url6OriginENS2_4lessIS5_EENS2_9allocatorIS5_EEEEPN7storage13QuotaDatabaseEEJSA_EE7DestroyEPKNS0_13BindStateBaseE = comdat any

$_ZN4base8internal7InvokerINS0_9BindStateIMN7storage16QuotaManagerImplEFvNS_12OnceCallbackIFvRKN4absl8optionalIN3url6OriginEEEEEEbEJNS_7WeakPtrIS4_EESE_EEEFvbEE7RunOnceEPNS0_13BindStateBaseEb = comdat any

$_ZN4base8internal13FunctorTraitsIMN7storage16QuotaManagerImplEFvNS_12OnceCallbackIFvRKN4absl8optionalIN3url6OriginEEEEEEbEvE6InvokeISF_NS_7WeakPtrIS3_EEJSD_bEEEvT_OT0_DpOT1_ = comdat any

$_ZN4base8internal9BindStateIMN7storage16QuotaManagerImplEFvNS_12OnceCallbackIFvRKN4absl8optionalIN3url6OriginEEEEEEbEJNS_7WeakPtrIS3_EESD_EE7DestroyEPKNS0_13BindStateBaseE = comdat any

$_ZN4base8internal23QueryCancellationTraitsINS0_9BindStateIMN7storage16QuotaManagerImplEFvNS_12OnceCallbackIFvRKN4absl8optionalIN3url6OriginEEEEEEbEJNS_7WeakPtrIS4_EESE_EEEEEbPKNS0_13BindStateBaseENSK_21CancellationQueryModeE = comdat any

$_ZNSt3__16vectorIN4mojo6RemoteIN7storage5mojom11QuotaClientEEENS_9allocatorIS6_EEE24__emplace_back_slow_pathIJNS1_13PendingRemoteIS5_EEEEEvDpOT_ = comdat any

$_ZN4mojo6RemoteIN7storage5mojom11QuotaClientEE4BindENS_13PendingRemoteIS3_EE13scoped_refptrIN4base19SequencedTaskRunnerEE = comdat any

$_ZNSt3__16vectorI13scoped_refptrIN7storage11QuotaClientEENS_9allocatorIS4_EEE21__push_back_slow_pathIS4_EEvOT_ = comdat any

$_ZNSt3__16vectorINS_4pairIPN7storage11QuotaClientENS2_15QuotaClientTypeEEENS_9allocatorIS6_EEE7emplaceIJS6_EEENS_11__wrap_iterIPS6_EENSB_IPKS6_EEDpOT_ = comdat any

$_ZNSt3__114__split_bufferINS_4pairIPN7storage11QuotaClientENS2_15QuotaClientTypeEEERNS_9allocatorIS6_EEE12emplace_backIJS6_EEEvDpOT_ = comdat any

$_ZN4base8internal7InvokerINS0_9BindStateIPFbRKN3url6OriginEN5blink5mojom11StorageTypeENS_4TimeEPN7storage13QuotaDatabaseEEJS4_S9_SA_EEEFbSD_EE7RunOnceEPNS0_13BindStateBaseESD_ = comdat any

$_ZN4base8internal9BindStateIPFbRKN3url6OriginEN5blink5mojom11StorageTypeENS_4TimeEPN7storage13QuotaDatabaseEEJS3_S8_S9_EE7DestroyEPKNS0_13BindStateBaseE = comdat any

$_ZN4base8internal7InvokerINS0_9BindStateIMN7storage16QuotaManagerImpl20DumpQuotaTableHelperEFbPNS3_13QuotaDatabaseEEJNS0_17UnretainedWrapperIS5_EEEEEFbS7_EE7RunOnceEPNS0_13BindStateBaseES7_ = comdat any

$_ZN4base8internal9BindStateIMN7storage16QuotaManagerImpl20DumpQuotaTableHelperEFbPNS2_13QuotaDatabaseEEJNS0_17UnretainedWrapperIS4_EEEE7DestroyEPKNS0_13BindStateBaseE = comdat any

$_ZN4base8internal7InvokerINS0_9BindStateIMN7storage16QuotaManagerImpl20DumpQuotaTableHelperEFvRKNS_7WeakPtrIS4_EENS_12OnceCallbackIFvRKNSt3__16vectorINS3_13QuotaDatabase15QuotaTableEntryENSB_9allocatorISE_EEEEEEEbEJNS0_12OwnedWrapperIS5_NSB_14default_deleteIS5_EEEES7_SL_EEEFvbEE7RunOnceEPNS0_13BindStateBaseEb = comdat any

$_ZN4base8internal9BindStateIMN7storage16QuotaManagerImpl20DumpQuotaTableHelperEFvRKNS_7WeakPtrIS3_EENS_12OnceCallbackIFvRKNSt3__16vectorINS2_13QuotaDatabase15QuotaTableEntryENSA_9allocatorISD_EEEEEEEbEJNS0_12OwnedWrapperIS4_NSA_14default_deleteIS4_EEEES6_SK_EE7DestroyEPKNS0_13BindStateBaseE = comdat any

$_ZN4base8internal9BindStateIMN7storage16QuotaManagerImpl20DumpQuotaTableHelperEFvRKNS_7WeakPtrIS3_EENS_12OnceCallbackIFvRKNSt3__16vectorINS2_13QuotaDatabase15QuotaTableEntryENSA_9allocatorISD_EEEEEEEbEJNS0_12OwnedWrapperIS4_NSA_14default_deleteIS4_EEEES6_SK_EED2Ev = comdat any

$_ZN4base8internal7InvokerINS0_9BindStateIMN7storage16QuotaManagerImpl21DumpBucketTableHelperEFbPNS3_13QuotaDatabaseEEJNS0_17UnretainedWrapperIS5_EEEEEFbS7_EE7RunOnceEPNS0_13BindStateBaseES7_ = comdat any

$_ZN4base8internal9BindStateIMN7storage16QuotaManagerImpl21DumpBucketTableHelperEFbPNS2_13QuotaDatabaseEEJNS0_17UnretainedWrapperIS4_EEEE7DestroyEPKNS0_13BindStateBaseE = comdat any

$_ZN4base8internal7InvokerINS0_9BindStateIMN7storage16QuotaManagerImpl21DumpBucketTableHelperEFvRKNS_7WeakPtrIS4_EENS_12OnceCallbackIFvRKNSt3__16vectorINS3_13QuotaDatabase16BucketTableEntryENSB_9allocatorISE_EEEEEEEbEJNS0_12OwnedWrapperIS5_NSB_14default_deleteIS5_EEEES7_SL_EEEFvbEE7RunOnceEPNS0_13BindStateBaseEb = comdat any

$_ZN4base8internal9BindStateIMN7storage16QuotaManagerImpl21DumpBucketTableHelperEFvRKNS_7WeakPtrIS3_EENS_12OnceCallbackIFvRKNSt3__16vectorINS2_13QuotaDatabase16BucketTableEntryENSA_9allocatorISD_EEEEEEEbEJNS0_12OwnedWrapperIS4_NSA_14default_deleteIS4_EEEES6_SK_EE7DestroyEPKNS0_13BindStateBaseE = comdat any

$_ZN4base8internal7InvokerINS0_9BindStateIPFbRKN3url6OriginEN5blink5mojom11StorageTypeEbPN7storage13QuotaDatabaseEEJS4_S9_bEEEFbSC_EE7RunOnceEPNS0_13BindStateBaseESC_ = comdat any

$_ZN4base8internal9BindStateIPFbRKN3url6OriginEN5blink5mojom11StorageTypeEbPN7storage13QuotaDatabaseEEJS3_S8_bEE7DestroyEPKNS0_13BindStateBaseE = comdat any

$_ZNSt3__16__treeINS_12__value_typeIN3url6OriginEN7storage16QuotaManagerImpl13QuotaOverrideEEENS_19__map_value_compareIS3_S7_NS_4lessIS3_EELb1EEENS_9allocatorIS7_EEE25__emplace_unique_key_argsIS3_JRKNS_21piecewise_construct_tENS_5tupleIJRKS3_EEENSJ_IJEEEEEENS_4pairINS_15__tree_iteratorIS7_PNS_11__tree_nodeIS7_PvEElEEbEERKT_DpOT0_ = comdat any

$_ZNSt3__16__treeINS_12__value_typeIN3url6OriginEN7storage16QuotaManagerImpl13QuotaOverrideEEENS_19__map_value_compareIS3_S7_NS_4lessIS3_EELb1EEENS_9allocatorIS7_EEE5eraseENS_21__tree_const_iteratorIS7_PNS_11__tree_nodeIS7_PvEElEE = comdat any

$_ZNSt3__16vectorIN3url6OriginENS_9allocatorIS2_EEE21__push_back_slow_pathIRKS2_EEvOT_ = comdat any

$_ZN4base8internal7InvokerINS0_9BindStateIMN7storage16QuotaManagerImplEFvllEJNS_7WeakPtrIS4_EEEEEFvllEE7RunOnceEPNS0_13BindStateBaseEll = comdat any

$_ZN4base8internal9BindStateIMN7storage16QuotaManagerImplEFvllEJNS_7WeakPtrIS3_EEEE7DestroyEPKNS0_13BindStateBaseE = comdat any

$_ZN4base8internal23QueryCancellationTraitsINS0_9BindStateIMN7storage16QuotaManagerImplEFvllEJNS_7WeakPtrIS4_EEEEEEEbPKNS0_13BindStateBaseENSA_21CancellationQueryModeE = comdat any

$_ZN4base8internal7InvokerINS0_9BindStateIMN7storage16QuotaManagerImplEFvlllEJNS_7WeakPtrIS4_EElEEEFvllEE7RunOnceEPNS0_13BindStateBaseEll = comdat any

$_ZN4base8internal9BindStateIMN7storage16QuotaManagerImplEFvlllEJNS_7WeakPtrIS3_EElEE7DestroyEPKNS0_13BindStateBaseE = comdat any

$_ZN4base8internal23QueryCancellationTraitsINS0_9BindStateIMN7storage16QuotaManagerImplEFvlllEJNS_7WeakPtrIS4_EElEEEEEbPKNS0_13BindStateBaseENSA_21CancellationQueryModeE = comdat any

$_ZN4base8internal7InvokerINS0_9BindStateIMN7storage16QuotaManagerImplEFvRKNSt3__16vectorINS3_13QuotaDatabase16BucketTableEntryENS5_9allocatorIS8_EEEEEJNS_7WeakPtrIS4_EEEEEFvSD_EE7RunOnceEPNS0_13BindStateBaseESD_ = comdat any

$_ZN4base8internal9BindStateIMN7storage16QuotaManagerImplEFvRKNSt3__16vectorINS2_13QuotaDatabase16BucketTableEntryENS4_9allocatorIS7_EEEEEJNS_7WeakPtrIS3_EEEE7DestroyEPKNS0_13BindStateBaseE = comdat any

$_ZN4base8internal23QueryCancellationTraitsINS0_9BindStateIMN7storage16QuotaManagerImplEFvRKNSt3__16vectorINS3_13QuotaDatabase16BucketTableEntryENS5_9allocatorIS8_EEEEEJNS_7WeakPtrIS4_EEEEEEEbPKNS0_13BindStateBaseENSJ_21CancellationQueryModeE = comdat any

$_ZNSt3__16__treeINS_12__value_typeIN3url6OriginElEENS_19__map_value_compareIS3_S4_NS_4lessIS3_EELb1EEENS_9allocatorIS4_EEE7destroyEPNS_11__tree_nodeIS4_PvEE = comdat any

$_ZN4base8internal7InvokerINS0_9BindStateIMN7storage16QuotaManagerImplEFvNS_12OnceCallbackIFvRKN4absl8optionalIN3url6OriginEEEEEESC_EJNS_7WeakPtrIS4_EESE_EEESD_E7RunOnceEPNS0_13BindStateBaseESC_ = comdat any

$_ZN4base8internal13FunctorTraitsIMN7storage16QuotaManagerImplEFvNS_12OnceCallbackIFvRKN4absl8optionalIN3url6OriginEEEEEESB_EvE6InvokeISF_NS_7WeakPtrIS3_EEJSD_SB_EEEvT_OT0_DpOT1_ = comdat any

$_ZN4base8internal9BindStateIMN7storage16QuotaManagerImplEFvNS_12OnceCallbackIFvRKN4absl8optionalIN3url6OriginEEEEEESB_EJNS_7WeakPtrIS3_EESD_EE7DestroyEPKNS0_13BindStateBaseE = comdat any

$_ZN4base8internal23QueryCancellationTraitsINS0_9BindStateIMN7storage16QuotaManagerImplEFvNS_12OnceCallbackIFvRKN4absl8optionalIN3url6OriginEEEEEESC_EJNS_7WeakPtrIS4_EESE_EEEEEbPKNS0_13BindStateBaseENSK_21CancellationQueryModeE = comdat any

$_ZN4base8internal7InvokerINS0_9BindStateIMN7storage16QuotaManagerImplEFvNS_12OnceCallbackIFvRKN4absl8optionalIN3url6OriginEEEEEEllEJNS_7WeakPtrIS4_EESE_EEEFvllEE7RunOnceEPNS0_13BindStateBaseEll = comdat any

$_ZN4base8internal13FunctorTraitsIMN7storage16QuotaManagerImplEFvNS_12OnceCallbackIFvRKN4absl8optionalIN3url6OriginEEEEEEllEvE6InvokeISF_NS_7WeakPtrIS3_EEJSD_llEEEvT_OT0_DpOT1_ = comdat any

$_ZN4base8internal9BindStateIMN7storage16QuotaManagerImplEFvNS_12OnceCallbackIFvRKN4absl8optionalIN3url6OriginEEEEEEllEJNS_7WeakPtrIS3_EESD_EE7DestroyEPKNS0_13BindStateBaseE = comdat any

$_ZN4base8internal23QueryCancellationTraitsINS0_9BindStateIMN7storage16QuotaManagerImplEFvNS_12OnceCallbackIFvRKN4absl8optionalIN3url6OriginEEEEEEllEJNS_7WeakPtrIS4_EESE_EEEEEbPKNS0_13BindStateBaseENSK_21CancellationQueryModeE = comdat any

$_ZN4base8internal7InvokerINS0_9BindStateIMN7storage16QuotaManagerImplEFvN5blink5mojom15QuotaStatusCodeEEJNS_7WeakPtrIS4_EEEEEFvS7_EE7RunOnceEPNS0_13BindStateBaseES7_ = comdat any

$_ZN4base8internal9BindStateIMN7storage16QuotaManagerImplEFvN5blink5mojom15QuotaStatusCodeEEJNS_7WeakPtrIS3_EEEE7DestroyEPKNS0_13BindStateBaseE = comdat any

$_ZN4base8internal23QueryCancellationTraitsINS0_9BindStateIMN7storage16QuotaManagerImplEFvN5blink5mojom15QuotaStatusCodeEEJNS_7WeakPtrIS4_EEEEEEEbPKNS0_13BindStateBaseENSD_21CancellationQueryModeE = comdat any

$_ZN4base8internal7InvokerINS0_9BindStateIPFbN5blink5mojom11StorageTypeERKNSt3__13setIN3url6OriginENS6_4lessIS9_EENS6_9allocatorIS9_EEEEPN7storage20SpecialStoragePolicyEPN4absl8optionalIS9_EEPNSH_13QuotaDatabaseEEJS5_SE_NS0_18RetainedRefWrapperISI_EENS0_17UnretainedWrapperISM_EEEEEFbSP_EE7RunOnceEPNS0_13BindStateBaseESP_ = comdat any

$_ZN4base8internal9BindStateIPFbN5blink5mojom11StorageTypeERKNSt3__13setIN3url6OriginENS5_4lessIS8_EENS5_9allocatorIS8_EEEEPN7storage20SpecialStoragePolicyEPN4absl8optionalIS8_EEPNSG_13QuotaDatabaseEEJS4_SD_NS0_18RetainedRefWrapperISH_EENS0_17UnretainedWrapperISL_EEEE7DestroyEPKNS0_13BindStateBaseE = comdat any

$_ZN4base8internal7InvokerINS0_9BindStateIMN7storage16QuotaManagerImplEFvNSt3__110unique_ptrIN4absl8optionalIN3url6OriginEEENS5_14default_deleteISB_EEEEbEJNS_7WeakPtrIS4_EESE_EEEFvbEE7RunOnceEPNS0_13BindStateBaseEb = comdat any

$_ZN4base8internal9BindStateIMN7storage16QuotaManagerImplEFvNSt3__110unique_ptrIN4absl8optionalIN3url6OriginEEENS4_14default_deleteISA_EEEEbEJNS_7WeakPtrIS3_EESD_EE7DestroyEPKNS0_13BindStateBaseE = comdat any

$_ZN4base8internal23QueryCancellationTraitsINS0_9BindStateIMN7storage16QuotaManagerImplEFvNSt3__110unique_ptrIN4absl8optionalIN3url6OriginEEENS5_14default_deleteISB_EEEEbEJNS_7WeakPtrIS4_EESE_EEEEEbPKNS0_13BindStateBaseENSK_21CancellationQueryModeE = comdat any

$_ZNKSt3__16__treeINS_12__value_typeINS_12basic_stringIcNS_11char_traitsIcEENS_9allocatorIcEEEEN7storage13CallbackQueueIN4base12OnceCallbackIFvN5blink5mojom15QuotaStatusCodeElEEEJSE_lEEEEENS_19__map_value_compareIS7_SI_NS_4lessIS7_EELb1EEENS5_ISI_EEE4findIS7_EENS_21__tree_const_iteratorISI_PNS_11__tree_nodeISI_PvEElEERKT_ = comdat any

$_ZNSt3__16__treeINS_12__value_typeINS_12basic_stringIcNS_11char_traitsIcEENS_9allocatorIcEEEEN7storage13CallbackQueueIN4base12OnceCallbackIFvN5blink5mojom15QuotaStatusCodeElEEEJSE_lEEEEENS_19__map_value_compareIS7_SI_NS_4lessIS7_EELb1EEENS5_ISI_EEE4findIS7_EENS_15__tree_iteratorISI_PNS_11__tree_nodeISI_PvEElEERKT_ = comdat any

$_ZNSt3__16__treeINS_12__value_typeINS_12basic_stringIcNS_11char_traitsIcEENS_9allocatorIcEEEEN7storage13CallbackQueueIN4base12OnceCallbackIFvN5blink5mojom15QuotaStatusCodeElEEEJSE_lEEEEENS_19__map_value_compareIS7_SI_NS_4lessIS7_EELb1EEENS5_ISI_EEE5eraseENS_21__tree_const_iteratorISI_PNS_11__tree_nodeISI_PvEElEE = comdat any

$_ZNSt3__16vectorIN4base12OnceCallbackIFvRKN7storage13QuotaSettingsEEEENS_9allocatorIS8_EEE21__push_back_slow_pathIS8_EEvOT_ = comdat any

$_ZN4base8internal7InvokerINS0_9BindStateIMN7storage16QuotaManagerImplEFvN4absl8optionalINS3_13QuotaSettingsEEEEJNS_7WeakPtrIS4_EEEEEFvS8_EE7RunOnceEPNS0_13BindStateBaseEOS8_ = comdat any

$_ZN4base8internal9BindStateIMN7storage16QuotaManagerImplEFvN4absl8optionalINS2_13QuotaSettingsEEEEJNS_7WeakPtrIS3_EEEE7DestroyEPKNS0_13BindStateBaseE = comdat any

$_ZN4base8internal23QueryCancellationTraitsINS0_9BindStateIMN7storage16QuotaManagerImplEFvN4absl8optionalINS3_13QuotaSettingsEEEEJNS_7WeakPtrIS4_EEEEEEEbPKNS0_13BindStateBaseENSE_21CancellationQueryModeE = comdat any

$_ZN4base8internal7InvokerINS0_9BindStateIPFvPNS_10TaskRunnerENS_12OnceCallbackIFvN4absl8optionalIN7storage13QuotaSettingsEEEEEESA_EJNS0_18RetainedRefWrapperINS_22SingleThreadTaskRunnerEEESC_EEESB_E7RunOnceEPNS0_13BindStateBaseEOSA_ = comdat any

$_ZN4base8internal9BindStateIPFvPNS_10TaskRunnerENS_12OnceCallbackIFvN4absl8optionalIN7storage13QuotaSettingsEEEEEES9_EJNS0_18RetainedRefWrapperINS_22SingleThreadTaskRunnerEEESB_EE7DestroyEPKNS0_13BindStateBaseE = comdat any

$_ZN4base8internal9BindStateINS_17RepeatingCallbackIFvNS_12OnceCallbackIFvN4absl8optionalIN7storage13QuotaSettingsEEEEEEEEEJSA_EE6CreateIRSC_JSA_EEEPSD_PFvvEOT_DpOT0_ = comdat any

$_ZN4base8internal7InvokerINS0_9BindStateINS_17RepeatingCallbackIFvNS_12OnceCallbackIFvN4absl8optionalIN7storage13QuotaSettingsEEEEEEEEEJSB_EEEFvvEE7RunOnceEPNS0_13BindStateBaseE = comdat any

$_ZN4base8internal9BindStateINS_17RepeatingCallbackIFvNS_12OnceCallbackIFvN4absl8optionalIN7storage13QuotaSettingsEEEEEEEEEJSA_EE7DestroyEPKNS0_13BindStateBaseE = comdat any

$_ZN4base8internal23QueryCancellationTraitsINS0_9BindStateINS_17RepeatingCallbackIFvNS_12OnceCallbackIFvN4absl8optionalIN7storage13QuotaSettingsEEEEEEEEEJSB_EEEEEbPKNS0_13BindStateBaseENSF_21CancellationQueryModeE = comdat any

$_ZNSt3__16vectorIN4base12OnceCallbackIFvllEEENS_9allocatorIS4_EEE21__push_back_slow_pathIS4_EEvOT_ = comdat any

$_ZN4base8internal7InvokerINS0_9BindStateIMN7storage16QuotaManagerImplEFvRKNS3_13QuotaSettingsEEJNS_7WeakPtrIS4_EEEEEFvS7_EE7RunOnceEPNS0_13BindStateBaseES7_ = comdat any

$_ZN4base8internal9BindStateIMN7storage16QuotaManagerImplEFvRKNS2_13QuotaSettingsEEJNS_7WeakPtrIS3_EEEE7DestroyEPKNS0_13BindStateBaseE = comdat any

$_ZN4base8internal23QueryCancellationTraitsINS0_9BindStateIMN7storage16QuotaManagerImplEFvRKNS3_13QuotaSettingsEEJNS_7WeakPtrIS4_EEEEEEEbPKNS0_13BindStateBaseENSD_21CancellationQueryModeE = comdat any

$_ZN4base8internal7InvokerINS0_9BindStateIPFNSt3__15tupleIJllEEEPFS5_RKNS_8FilePathEES8_EJSA_S6_EEEFS5_vEE7RunOnceEPNS0_13BindStateBaseE = comdat any

$_ZN4base8internal9BindStateIPFNSt3__15tupleIJllEEEPFS4_RKNS_8FilePathEES7_EJS9_S5_EE7DestroyEPKNS0_13BindStateBaseE = comdat any

$_ZN4base8internal7InvokerINS0_9BindStateIMN7storage16QuotaManagerImplEFvRKNSt3__15tupleIJllEEEEJNS_7WeakPtrIS4_EEEEEFvS9_EE7RunOnceEPNS0_13BindStateBaseES9_ = comdat any

$_ZN4base8internal9BindStateIMN7storage16QuotaManagerImplEFvRKNSt3__15tupleIJllEEEEJNS_7WeakPtrIS3_EEEE7DestroyEPKNS0_13BindStateBaseE = comdat any

$_ZN4base8internal23QueryCancellationTraitsINS0_9BindStateIMN7storage16QuotaManagerImplEFvRKNSt3__15tupleIJllEEEEJNS_7WeakPtrIS4_EEEEEEEbPKNS0_13BindStateBaseENSF_21CancellationQueryModeE = comdat any

$_ZN4base8internal20ReturnAsParamAdapterINSt3__15tupleIJllEEEEEvNS_12OnceCallbackIFT_vEEEPNS2_10unique_ptrIS6_NS2_14default_deleteIS6_EEEE = comdat any

$_ZN4base8internal12ReplyAdapterINSt3__15tupleIJllEEERKS4_EEvNS_12OnceCallbackIFvT0_EEEPNS2_10unique_ptrIT_NS2_14default_deleteISC_EEEE = comdat any

$_ZN4base8internal7InvokerINS0_9BindStateIPFvNS_12OnceCallbackIFNSt3__15tupleIJllEEEvEEEPNS4_10unique_ptrIS6_NS4_14default_deleteIS6_EEEEEJS8_SD_EEEFvvEE7RunOnceEPNS0_13BindStateBaseE = comdat any

$_ZN4base8internal9BindStateIPFvNS_12OnceCallbackIFNSt3__15tupleIJllEEEvEEEPNS3_10unique_ptrIS5_NS3_14default_deleteIS5_EEEEEJS7_SC_EE7DestroyEPKNS0_13BindStateBaseE = comdat any

$_ZN4base8internal7InvokerINS0_9BindStateIPFvNS_12OnceCallbackIFvRKNSt3__15tupleIJllEEEEEEPNS4_10unique_ptrIS6_NS4_14default_deleteIS6_EEEEEJSA_NS0_12OwnedWrapperISE_NSC_ISE_EEEEEEEFvvEE7RunOnceEPNS0_13BindStateBaseE = comdat any

$_ZN4base8internal9BindStateIPFvNS_12OnceCallbackIFvRKNSt3__15tupleIJllEEEEEEPNS3_10unique_ptrIS5_NS3_14default_deleteIS5_EEEEEJS9_NS0_12OwnedWrapperISD_NSB_ISD_EEEEEE7DestroyEPKNS0_13BindStateBaseE = comdat any

$_ZN4base8internal7InvokerINS0_9BindStateINS_12OnceCallbackIFbPN7storage13QuotaDatabaseEEEEJNS0_17UnretainedWrapperIS5_EEEEEFbvEE7RunOnceEPNS0_13BindStateBaseE = comdat any

$_ZN4base8internal9BindStateINS_12OnceCallbackIFbPN7storage13QuotaDatabaseEEEEJNS0_17UnretainedWrapperIS4_EEEE7DestroyEPKNS0_13BindStateBaseE = comdat any

$_ZN4base8internal23QueryCancellationTraitsINS0_9BindStateINS_12OnceCallbackIFbPN7storage13QuotaDatabaseEEEEJNS0_17UnretainedWrapperIS5_EEEEEEEbPKNS0_13BindStateBaseENSC_21CancellationQueryModeE = comdat any

$_ZTVN7storage20QuotaEvictionHandlerE = comdat any

$_ZTVN7storage16QuotaManagerImpl16GetUsageInfoTaskE = comdat any

$_ZTVN7storage16QuotaManagerImpl25UsageAndQuotaInfoGathererE = comdat any

$_ZZN7storage16QuotaManagerImpl25UsageAndQuotaInfoGatherer9CompletedEvE24atomic_histogram_pointer = comdat any

$_ZZN7storage16QuotaManagerImpl25UsageAndQuotaInfoGatherer9CompletedEvE24atomic_histogram_pointer_0 = comdat any

$_ZZN7storage16QuotaManagerImpl25UsageAndQuotaInfoGatherer9CompletedEvE24atomic_histogram_pointer_1 = comdat any

$_ZTVN7storage16QuotaManagerImpl20StorageCleanupHelperE = comdat any

$_ZTVN7storage16QuotaManagerImpl15HostDataDeleterE = comdat any

$_ZTVN7storage16QuotaManagerImpl17OriginDataDeleterE = comdat any

$_ZZN7storage16QuotaManagerImpl17OriginDataDeleter3RunEvE10tracing_id = comdat any

$_ZTVN7storage16QuotaManagerImpl23EvictionRoundInfoHelperE = comdat any

@_ZN7storage16QuotaManagerImpl32kSyncableStorageDefaultHostQuotaE = hidden local_unnamed_addr global i64 524288000, align 8
@_ZN7storage16QuotaManagerImpl7kGBytesE = hidden local_unnamed_addr constant i64 1073741824, align 8
@_ZN7storage16QuotaManagerImpl8kNoLimitE = hidden local_unnamed_addr constant i64 9223372036854775807, align 8
@_ZN7storage16QuotaManagerImpl28kPerHostPersistentQuotaLimitE = hidden constant i64 10737418240, align 8
@_ZN7storage16QuotaManagerImpl31kEvictionIntervalInMilliSecondsE = hidden local_unnamed_addr constant i32 1800000, align 4
@_ZN7storage16QuotaManagerImpl32kThresholdOfErrorsToBeDenylistedE = hidden local_unnamed_addr constant i32 3, align 4
@_ZN7storage16QuotaManagerImpl30kThresholdRandomizationPercentE = hidden local_unnamed_addr constant i32 5, align 4
@_ZN7storage16QuotaManagerImpl13kDatabaseNameE = hidden constant [13 x i8] c"QuotaManager\00", align 1
@_ZN7storage16QuotaManagerImpl36kEvictedOriginAccessedCountHistogramE = hidden constant [31 x i8] c"Quota.EvictedOriginAccessCount\00", align 16
@_ZN7storage16QuotaManagerImpl38kEvictedOriginDaysSinceAccessHistogramE = hidden constant [35 x i8] c"Quota.EvictedOriginDaysSinceAccess\00", align 16
@_ZTVN7storage16QuotaManagerImplE = hidden unnamed_addr constant { [14 x i8*], [7 x i8*] } { [14 x i8*] [i8* null, i8* null, i8* bitcast (void (%"class.storage::QuotaManagerImpl"*)* @_ZN7storage16QuotaManagerImplD2Ev to i8*), i8* bitcast (void (%"class.storage::QuotaManagerImpl"*)* @_ZN7storage16QuotaManagerImplD0Ev to i8*), i8* bitcast (void (%"class.storage::QuotaManagerImpl"*, %"class.url::Origin"*, i32, %"class.base::OnceCallback.373"*)* @_ZN7storage16QuotaManagerImpl26GetUsageAndQuotaForWebAppsERKN3url6OriginEN5blink5mojom11StorageTypeEN4base12OnceCallbackIFvNS6_15QuotaStatusCodeEllEEE to i8*), i8* bitcast (void (%"class.storage::QuotaManagerImpl"*, %"class.url::Origin"*, i32, %"class.base::OnceCallback.374"*)* @_ZN7storage16QuotaManagerImpl29GetUsageAndQuotaWithBreakdownERKN3url6OriginEN5blink5mojom11StorageTypeEN4base12OnceCallbackIFvNS6_15QuotaStatusCodeEllN4mojo9StructPtrINS6_14UsageBreakdownEEEEEE to i8*), i8* bitcast (void (%"class.storage::QuotaManagerImpl"*, %"class.url::Origin"*, i32, %"class.base::OnceCallback.381"*)* @_ZN7storage16QuotaManagerImpl27GetUsageAndQuotaForDevtoolsERKN3url6OriginEN5blink5mojom11StorageTypeEN4base12OnceCallbackIFvNS6_15QuotaStatusCodeEllbN4mojo9StructPtrINS6_14UsageBreakdownEEEEEE to i8*), i8* bitcast (void (%"class.storage::QuotaManagerImpl"*, %"class.url::Origin"*, i32, %"class.base::OnceCallback.373"*)* @_ZN7storage16QuotaManagerImpl16GetUsageAndQuotaERKN3url6OriginEN5blink5mojom11StorageTypeEN4base12OnceCallbackIFvNS6_15QuotaStatusCodeEllEEE to i8*), i8* bitcast (void (%"class.storage::QuotaManagerImpl"*, %"class.url::Origin"*)* @_ZN7storage16QuotaManagerImpl17NotifyWriteFailedERKN3url6OriginE to i8*), i8* bitcast (void (%"class.storage::QuotaManagerImpl"*, %"class.url::Origin"*, i32, %"class.base::internal::flat_tree.394"*, %"class.base::OnceCallback.318"*)* @_ZN7storage16QuotaManagerImpl16DeleteOriginDataERKN3url6OriginEN5blink5mojom11StorageTypeEN4base8internal9flat_treeINS_15QuotaClientTypeENS8_8identityENSt3__14lessIvEENSD_6vectorISB_NSD_9allocatorISB_EEEEEENS8_12OnceCallbackIFvNS6_15QuotaStatusCodeEEEE to i8*), i8* bitcast (void (%"class.storage::QuotaManagerImpl"*, i32, i64, i64, %"class.base::OnceCallback.443"*)* @_ZN7storage16QuotaManagerImpl25GetOriginsModifiedBetweenEN5blink5mojom11StorageTypeEN4base4TimeES5_NS4_12OnceCallbackIFvRKNSt3__13setIN3url6OriginENS7_4lessISA_EENS7_9allocatorISA_EEEES3_EEE to i8*), i8* bitcast (void (%"class.storage::QuotaManagerImpl"*, i32, i64, %"class.base::OnceCallback.73"*)* @_ZN7storage16QuotaManagerImpl17GetEvictionOriginEN5blink5mojom11StorageTypeElN4base12OnceCallbackIFvRKN4absl8optionalIN3url6OriginEEEEEE to i8*), i8* bitcast (void (%"class.storage::QuotaManagerImpl"*, %"class.url::Origin"*, i32, %"class.base::OnceCallback.318"*)* @_ZN7storage16QuotaManagerImpl15EvictOriginDataERKN3url6OriginEN5blink5mojom11StorageTypeEN4base12OnceCallbackIFvNS6_15QuotaStatusCodeEEEE to i8*), i8* bitcast (void (%"class.storage::QuotaManagerImpl"*, %"class.base::OnceCallback.537"*)* @_ZN7storage16QuotaManagerImpl20GetEvictionRoundInfoEN4base12OnceCallbackIFvN5blink5mojom15QuotaStatusCodeERKNS_13QuotaSettingsElllbEEE to i8*)], [7 x i8*] [i8* inttoptr (i64 -32 to i8*), i8* null, i8* bitcast (void (%"class.storage::QuotaManagerImpl"*, %"class.base::OnceCallback.537"*)* @_ZThn32_N7storage16QuotaManagerImpl20GetEvictionRoundInfoEN4base12OnceCallbackIFvN5blink5mojom15QuotaStatusCodeERKNS_13QuotaSettingsElllbEEE to i8*), i8* bitcast (void (%"class.storage::QuotaManagerImpl"*, i32, i64, %"class.base::OnceCallback.73"*)* @_ZThn32_N7storage16QuotaManagerImpl17GetEvictionOriginEN5blink5mojom11StorageTypeElN4base12OnceCallbackIFvRKN4absl8optionalIN3url6OriginEEEEEE to i8*), i8* bitcast (void (%"class.storage::QuotaManagerImpl"*, %"class.url::Origin"*, i32, %"class.base::OnceCallback.318"*)* @_ZThn32_N7storage16QuotaManagerImpl15EvictOriginDataERKN3url6OriginEN5blink5mojom11StorageTypeEN4base12OnceCallbackIFvNS6_15QuotaStatusCodeEEEE to i8*), i8* bitcast (void (%"class.storage::QuotaManagerImpl"*)* @_ZThn32_N7storage16QuotaManagerImplD1Ev to i8*), i8* bitcast (void (%"class.storage::QuotaManagerImpl"*)* @_ZThn32_N7storage16QuotaManagerImplD0Ev to i8*)] }, align 8
@.ref.tmp = private constant %"class.base::TaskTraits" { %"struct.base::TaskTraitsExtensionStorage" zeroinitializer, i8 1, i8 -126, i8 0, i8 1, i8 0, i8 0 }, align 1
@.str = private unnamed_addr constant [13 x i8] c"CreateBucket\00", align 1
@.str.1 = private unnamed_addr constant [50 x i8] c"../../storage/browser/quota/quota_manager_impl.cc\00", align 1
@.str.2 = private unnamed_addr constant [12 x i8] c"GetBucketId\00", align 1
@__const._ZN7storage16QuotaManagerImpl16GetUsageAndQuotaERKN3url6OriginEN5blink5mojom11StorageTypeEN4base12OnceCallbackIFvNS6_15QuotaStatusCodeEllEEE.quota_override = private unnamed_addr constant { { { { i8, [7 x i8], %union.anon.392 } } } } { { { { i8, [7 x i8], %union.anon.392 } } } { { { i8, [7 x i8], %union.anon.392 } } { { i8, [7 x i8], %union.anon.392 } { i8 -86, [7 x i8] c"\AA\AA\AA\AA\AA\AA\AA", %union.anon.392 { i64 -6148914691236517206 } } } } }, align 8
@.str.3 = private unnamed_addr constant [23 x i8] c"GetPersistentHostQuota\00", align 1
@.str.4 = private unnamed_addr constant [23 x i8] c"SetPersistentHostQuota\00", align 1
@.str.5 = private unnamed_addr constant [26 x i8] c"GetOriginsModifiedBetween\00", align 1
@.str.6 = private unnamed_addr constant [18 x i8] c"~QuotaManagerImpl\00", align 1
@.str.7 = private unnamed_addr constant [15 x i8] c"LazyInitialize\00", align 1
@.str.8 = private unnamed_addr constant [29 x i8] c"BootstrapDatabaseForEviction\00", align 1
@.str.9 = private unnamed_addr constant [22 x i8] c"NotifyStorageAccessed\00", align 1
@.str.10 = private unnamed_addr constant [22 x i8] c"NotifyStorageModified\00", align 1
@.str.11 = private unnamed_addr constant [15 x i8] c"DumpQuotaTable\00", align 1
@.str.12 = private unnamed_addr constant [16 x i8] c"DumpBucketTable\00", align 1
@.str.13 = private unnamed_addr constant [25 x i8] c"DeleteOriginFromDatabase\00", align 1
@_ZN7storage8features21kStoragePressureEventE = external global %"struct.base::Feature", align 8
@.str.14 = private unnamed_addr constant [36 x i8] c"Quota.GlobalUsageOfTemporaryStorage\00", align 1
@.str.15 = private unnamed_addr constant [38 x i8] c"Quota.PercentUsedForTemporaryStorage2\00", align 1
@.str.16 = private unnamed_addr constant [26 x i8] c"Quota.AvailableDiskSpace2\00", align 1
@.str.17 = private unnamed_addr constant [28 x i8] c"Quota.PercentDiskAvailable2\00", align 1
@.str.18 = private unnamed_addr constant [37 x i8] c"Quota.GlobalUsageOfPersistentStorage\00", align 1
@.str.19 = private unnamed_addr constant [24 x i8] c"Quota.AgeOfOriginInDays\00", align 1
@.str.20 = private unnamed_addr constant [22 x i8] c"Quota.AgeOfDataInDays\00", align 1
@.str.21 = private unnamed_addr constant [13 x i8] c"GetLRUOrigin\00", align 1
@.str.22 = private unnamed_addr constant [17 x i8] c"GetQuotaSettings\00", align 1
@.str.23 = private unnamed_addr constant [30 x i8] c"Quota.GlobalTemporaryPoolSize\00", align 1
@.str.24 = private unnamed_addr constant [44 x i8] c"No storage quota provided in QuotaSettings.\00", align 1
@.str.25 = private unnamed_addr constant [19 x i8] c"GetStorageCapacity\00", align 1
@.str.26 = private unnamed_addr constant [33 x i8] c"Create directory failed for path\00", align 1
@.str.27 = private unnamed_addr constant [28 x i8] c"Unable to get volume info: \00", align 1
@.str.28 = private unnamed_addr constant [21 x i8] c"Quota.TotalDiskSpace\00", align 1
@.str.29 = private unnamed_addr constant [25 x i8] c"Quota.AvailableDiskSpace\00", align 1
@.str.30 = private unnamed_addr constant [27 x i8] c"Quota.PercentDiskAvailable\00", align 1
@_ZTVN7storage20QuotaEvictionHandlerE = linkonce_odr hidden unnamed_addr constant { [7 x i8*] } { [7 x i8*] [i8* null, i8* null, i8* bitcast (void ()* @__cxa_pure_virtual to i8*), i8* bitcast (void ()* @__cxa_pure_virtual to i8*), i8* bitcast (void ()* @__cxa_pure_virtual to i8*), i8* bitcast (void (%"class.storage::QuotaEvictionHandler"*)* @_ZN7storage20QuotaEvictionHandlerD2Ev to i8*), i8* bitcast (void (%"class.storage::QuotaEvictionHandler"*)* @_ZN7storage20QuotaEvictionHandlerD0Ev to i8*)] }, comdat, align 8
@_ZTVN7storage16QuotaManagerImpl16GetUsageInfoTaskE = linkonce_odr hidden unnamed_addr constant { [7 x i8*] } { [7 x i8*] [i8* null, i8* null, i8* bitcast (void (%"class.storage::QuotaManagerImpl::GetUsageInfoTask"*)* @_ZN7storage16QuotaManagerImpl16GetUsageInfoTaskD2Ev to i8*), i8* bitcast (void (%"class.storage::QuotaManagerImpl::GetUsageInfoTask"*)* @_ZN7storage16QuotaManagerImpl16GetUsageInfoTaskD0Ev to i8*), i8* bitcast (void (%"class.storage::QuotaManagerImpl::GetUsageInfoTask"*)* @_ZN7storage16QuotaManagerImpl16GetUsageInfoTask3RunEv to i8*), i8* bitcast (void (%"class.storage::QuotaManagerImpl::GetUsageInfoTask"*)* @_ZN7storage16QuotaManagerImpl16GetUsageInfoTask9CompletedEv to i8*), i8* bitcast (void (%"class.storage::QuotaManagerImpl::GetUsageInfoTask"*)* @_ZN7storage16QuotaManagerImpl16GetUsageInfoTask7AbortedEv to i8*)] }, comdat, align 8
@.str.31 = private unnamed_addr constant [29 x i8] c"../../base/memory/weak_ptr.h\00", align 1
@.str.32 = private unnamed_addr constant [15 x i8] c"ref_.IsValid()\00", align 1
@_ZTVN7storage16QuotaManagerImpl25UsageAndQuotaInfoGathererE = linkonce_odr hidden unnamed_addr constant { [7 x i8*] } { [7 x i8*] [i8* null, i8* null, i8* bitcast (void (%"class.storage::QuotaManagerImpl::UsageAndQuotaInfoGatherer"*)* @_ZN7storage16QuotaManagerImpl25UsageAndQuotaInfoGathererD2Ev to i8*), i8* bitcast (void (%"class.storage::QuotaManagerImpl::UsageAndQuotaInfoGatherer"*)* @_ZN7storage16QuotaManagerImpl25UsageAndQuotaInfoGathererD0Ev to i8*), i8* bitcast (void (%"class.storage::QuotaManagerImpl::UsageAndQuotaInfoGatherer"*)* @_ZN7storage16QuotaManagerImpl25UsageAndQuotaInfoGatherer3RunEv to i8*), i8* bitcast (void (%"class.storage::QuotaManagerImpl::UsageAndQuotaInfoGatherer"*)* @_ZN7storage16QuotaManagerImpl25UsageAndQuotaInfoGatherer9CompletedEv to i8*), i8* bitcast (void (%"class.storage::QuotaManagerImpl::UsageAndQuotaInfoGatherer"*)* @_ZN7storage16QuotaManagerImpl25UsageAndQuotaInfoGatherer7AbortedEv to i8*)] }, comdat, align 8
@_ZZN7storage16QuotaManagerImpl25UsageAndQuotaInfoGatherer9CompletedEvE24atomic_histogram_pointer = linkonce_odr hidden local_unnamed_addr global %"struct.std::__1::atomic.515" zeroinitializer, comdat, align 8
@.str.34 = private unnamed_addr constant [21 x i8] c"Quota.QuotaForOrigin\00", align 1
@_ZZN7storage16QuotaManagerImpl25UsageAndQuotaInfoGatherer9CompletedEvE24atomic_histogram_pointer_0 = linkonce_odr hidden local_unnamed_addr global %"struct.std::__1::atomic.515" zeroinitializer, comdat, align 8
@.str.35 = private unnamed_addr constant [20 x i8] c"Quota.UsageByOrigin\00", align 1
@_ZZN7storage16QuotaManagerImpl25UsageAndQuotaInfoGatherer9CompletedEvE24atomic_histogram_pointer_1 = linkonce_odr hidden local_unnamed_addr global %"struct.std::__1::atomic.515" zeroinitializer, comdat, align 8
@.str.36 = private unnamed_addr constant [26 x i8] c"Quota.PercentUsedByOrigin\00", align 1
@_ZTVN7storage16QuotaManagerImpl20StorageCleanupHelperE = linkonce_odr hidden unnamed_addr constant { [7 x i8*] } { [7 x i8*] [i8* null, i8* null, i8* bitcast (void (%"class.storage::QuotaManagerImpl::StorageCleanupHelper"*)* @_ZN7storage16QuotaManagerImpl20StorageCleanupHelperD2Ev to i8*), i8* bitcast (void (%"class.storage::QuotaManagerImpl::StorageCleanupHelper"*)* @_ZN7storage16QuotaManagerImpl20StorageCleanupHelperD0Ev to i8*), i8* bitcast (void (%"class.storage::QuotaManagerImpl::StorageCleanupHelper"*)* @_ZN7storage16QuotaManagerImpl20StorageCleanupHelper3RunEv to i8*), i8* bitcast (void (%"class.storage::QuotaManagerImpl::StorageCleanupHelper"*)* @_ZN7storage16QuotaManagerImpl20StorageCleanupHelper9CompletedEv to i8*), i8* bitcast (void (%"class.storage::QuotaManagerImpl::StorageCleanupHelper"*)* @_ZN7storage16QuotaManagerImpl20StorageCleanupHelper7AbortedEv to i8*)] }, comdat, align 8
@_ZTVN7storage16QuotaManagerImpl15HostDataDeleterE = linkonce_odr hidden unnamed_addr constant { [7 x i8*] } { [7 x i8*] [i8* null, i8* null, i8* bitcast (void (%"class.storage::QuotaManagerImpl::HostDataDeleter"*)* @_ZN7storage16QuotaManagerImpl15HostDataDeleterD2Ev to i8*), i8* bitcast (void (%"class.storage::QuotaManagerImpl::HostDataDeleter"*)* @_ZN7storage16QuotaManagerImpl15HostDataDeleterD0Ev to i8*), i8* bitcast (void (%"class.storage::QuotaManagerImpl::HostDataDeleter"*)* @_ZN7storage16QuotaManagerImpl15HostDataDeleter3RunEv to i8*), i8* bitcast (void (%"class.storage::QuotaManagerImpl::HostDataDeleter"*)* @_ZN7storage16QuotaManagerImpl15HostDataDeleter9CompletedEv to i8*), i8* bitcast (void (%"class.storage::QuotaManagerImpl::HostDataDeleter"*)* @_ZN7storage16QuotaManagerImpl15HostDataDeleter7AbortedEv to i8*)] }, comdat, align 8
@_ZTVN7storage16QuotaManagerImpl17OriginDataDeleterE = linkonce_odr hidden unnamed_addr constant { [7 x i8*] } { [7 x i8*] [i8* null, i8* null, i8* bitcast (void (%"class.storage::QuotaManagerImpl::OriginDataDeleter"*)* @_ZN7storage16QuotaManagerImpl17OriginDataDeleterD2Ev to i8*), i8* bitcast (void (%"class.storage::QuotaManagerImpl::OriginDataDeleter"*)* @_ZN7storage16QuotaManagerImpl17OriginDataDeleterD0Ev to i8*), i8* bitcast (void (%"class.storage::QuotaManagerImpl::OriginDataDeleter"*)* @_ZN7storage16QuotaManagerImpl17OriginDataDeleter3RunEv to i8*), i8* bitcast (void (%"class.storage::QuotaManagerImpl::OriginDataDeleter"*)* @_ZN7storage16QuotaManagerImpl17OriginDataDeleter9CompletedEv to i8*), i8* bitcast (void (%"class.storage::QuotaManagerImpl::OriginDataDeleter"*)* @_ZN7storage16QuotaManagerImpl17OriginDataDeleter7AbortedEv to i8*)] }, comdat, align 8
@_ZZN7storage16QuotaManagerImpl17OriginDataDeleter3RunEvE10tracing_id = linkonce_odr hidden local_unnamed_addr global i32 0, comdat, align 4
@_ZN4base11trace_event16CategoryRegistry11categories_E = external global [300 x %"struct.base::trace_event::TraceCategory"], align 16
@.str.39 = private unnamed_addr constant [36 x i8] c"QuotaManagerImpl::OriginDataDeleter\00", align 1
@.str.40 = private unnamed_addr constant [12 x i8] c"client_type\00", align 1
@.str.41 = private unnamed_addr constant [7 x i8] c"origin\00", align 1
@_ZTVN7storage16QuotaManagerImpl23EvictionRoundInfoHelperE = linkonce_odr hidden unnamed_addr constant { [7 x i8*] } { [7 x i8*] [i8* null, i8* null, i8* bitcast (void (%"class.storage::QuotaManagerImpl::EvictionRoundInfoHelper"*)* @_ZN7storage16QuotaManagerImpl23EvictionRoundInfoHelperD2Ev to i8*), i8* bitcast (void (%"class.storage::QuotaManagerImpl::EvictionRoundInfoHelper"*)* @_ZN7storage16QuotaManagerImpl23EvictionRoundInfoHelperD0Ev to i8*), i8* bitcast (void (%"class.storage::QuotaManagerImpl::EvictionRoundInfoHelper"*)* @_ZN7storage16QuotaManagerImpl23EvictionRoundInfoHelper3RunEv to i8*), i8* bitcast (void (%"class.storage::QuotaManagerImpl::EvictionRoundInfoHelper"*)* @_ZN7storage16QuotaManagerImpl23EvictionRoundInfoHelper9CompletedEv to i8*), i8* bitcast (void (%"class.storage::QuotaManagerImpl::EvictionRoundInfoHelper"*)* @_ZN7storage16QuotaManagerImpl23EvictionRoundInfoHelper7AbortedEv to i8*)] }, comdat, align 8
@.str.42 = private unnamed_addr constant [28 x i8] c"DidGetSettingsThreadAdapter\00", align 1
@.str.43 = private unnamed_addr constant [27 x i8] c"../../base/bind_internal.h\00", align 1
@.str.44 = private unnamed_addr constant [18 x i8] c"!IsNull(functor_)\00", align 1
@_ZNSt3__15ctypeIcE2idE = external global %"class.std::__1::locale::id", align 8
@_ZNSt3__1L19piecewise_constructE = internal constant %"struct.std::__1::piecewise_construct_t" undef, align 1
@_ZN7storage5mojom11QuotaClient5Name_E = external constant [0 x i8], align 1
@_ZTVN7storage5mojom28QuotaClientResponseValidatorE = external unnamed_addr constant { [6 x i8*] }, align 8
@_ZZN7storage16QuotaManagerImpl33DidGetStorageCapacityForHistogramElllE24atomic_histogram_pointer.0.0.0.0.0 = internal unnamed_addr global i64 0, align 8
@_ZZN7storage16QuotaManagerImpl33DidGetStorageCapacityForHistogramElllE24atomic_histogram_pointer_0.0.0.0.0.0 = internal unnamed_addr global i64 0, align 8
@_ZZN7storage16QuotaManagerImpl33DidGetStorageCapacityForHistogramElllE24atomic_histogram_pointer_1.0.0.0.0.0 = internal unnamed_addr global i64 0, align 8
@_ZZN7storage16QuotaManagerImpl33DidGetStorageCapacityForHistogramElllE24atomic_histogram_pointer_2.0.0.0.0.0 = internal unnamed_addr global i64 0, align 8
@_ZZN7storage16QuotaManagerImpl39DidGetPersistentGlobalUsageForHistogramEllE24atomic_histogram_pointer.0.0.0.0.0 = internal unnamed_addr global i64 0, align 8
@_ZZN7storage16QuotaManagerImpl30DidDumpBucketTableForHistogramERKNSt3__16vectorINS_13QuotaDatabase16BucketTableEntryENS1_9allocatorIS4_EEEEE24atomic_histogram_pointer.0.0.0.0.0 = internal unnamed_addr global i64 0, align 8
@_ZZN7storage16QuotaManagerImpl14DidGetSettingsEN4absl8optionalINS_13QuotaSettingsEEEE24atomic_histogram_pointer.0.0.0.0.0 = internal unnamed_addr global i64 0, align 8
@_ZZN7storage16QuotaManagerImpl17CallGetVolumeInfoEPFNSt3__15tupleIJllEEERKN4base8FilePathEES7_E24atomic_histogram_pointer.0.0.0.0.0 = internal unnamed_addr global i64 0, align 8
@_ZZN7storage16QuotaManagerImpl17CallGetVolumeInfoEPFNSt3__15tupleIJllEEERKN4base8FilePathEES7_E24atomic_histogram_pointer_0.0.0.0.0.0 = internal unnamed_addr global i64 0, align 8
@_ZZN7storage16QuotaManagerImpl17CallGetVolumeInfoEPFNSt3__15tupleIJllEEERKN4base8FilePathEES7_E24atomic_histogram_pointer_1.0.0.0.0.0 = internal unnamed_addr global i64 0, align 8
@_ZZN7storage12_GLOBAL__N_126DeleteOriginInfoOnDBThreadERKN3url6OriginEN5blink5mojom11StorageTypeEbPNS_13QuotaDatabaseEE24atomic_histogram_pointer.0.0.0.0.0 = internal unnamed_addr global i64 0, align 8
@_ZZN7storage12_GLOBAL__N_126DeleteOriginInfoOnDBThreadERKN3url6OriginEN5blink5mojom11StorageTypeEbPNS_13QuotaDatabaseEE24atomic_histogram_pointer_0.0.0.0.0.0 = internal unnamed_addr global i64 0, align 8

@_ZN7storage16QuotaManagerImpl13QuotaOverrideC1Ev = hidden unnamed_addr alias void (%"struct.storage::QuotaManagerImpl::QuotaOverride"*), void (%"struct.storage::QuotaManagerImpl::QuotaOverride"*)* @_ZN7storage16QuotaManagerImpl13QuotaOverrideC2Ev
@_ZN7storage16QuotaManagerImpl13QuotaOverrideD1Ev = hidden unnamed_addr alias void (%"struct.storage::QuotaManagerImpl::QuotaOverride"*), void (%"struct.storage::QuotaManagerImpl::QuotaOverride"*)* @_ZN7storage16QuotaManagerImpl13QuotaOverrideD2Ev
@_ZN7storage16QuotaManagerImplC1EbRKN4base8FilePathE13scoped_refptrINS1_22SingleThreadTaskRunnerEENS1_17RepeatingCallbackIFvvEEES5_INS_20SpecialStoragePolicyEERKNS8_IFvNS1_12OnceCallbackIFvN4absl8optionalINS_13QuotaSettingsEEEEEEEEE = hidden unnamed_addr alias void (%"class.storage::QuotaManagerImpl"*, i1, %"class.base::FilePath"*, %"class.base::SingleThreadTaskRunner"*, %"class.base::RepeatingCallback.55"*, %"class.storage::SpecialStoragePolicy"*, %"class.base::RepeatingCallback"*), void (%"class.storage::QuotaManagerImpl"*, i1, %"class.base::FilePath"*, %"class.base::SingleThreadTaskRunner"*, %"class.base::RepeatingCallback.55"*, %"class.storage::SpecialStoragePolicy"*, %"class.base::RepeatingCallback"*)* @_ZN7storage16QuotaManagerImplC2EbRKN4base8FilePathE13scoped_refptrINS1_22SingleThreadTaskRunnerEENS1_17RepeatingCallbackIFvvEEES5_INS_20SpecialStoragePolicyEERKNS8_IFvNS1_12OnceCallbackIFvN4absl8optionalINS_13QuotaSettingsEEEEEEEEE
@_ZN7storage16QuotaManagerImplD1Ev = hidden unnamed_addr alias void (%"class.storage::QuotaManagerImpl"*), void (%"class.storage::QuotaManagerImpl"*)* @_ZN7storage16QuotaManagerImplD2Ev
@_ZN7storage16QuotaManagerImpl15EvictionContextC1Ev = hidden unnamed_addr alias void (%"struct.storage::QuotaManagerImpl::EvictionContext"*), void (%"struct.storage::QuotaManagerImpl::EvictionContext"*)* @_ZN7storage16QuotaManagerImpl15EvictionContextC2Ev
@_ZN7storage16QuotaManagerImpl15EvictionContextD1Ev = hidden unnamed_addr alias void (%"struct.storage::QuotaManagerImpl::EvictionContext"*), void (%"struct.storage::QuotaManagerImpl::EvictionContext"*)* @_ZN7storage16QuotaManagerImpl15EvictionContextD2Ev

; Function Attrs: nounwind ssp uwtable
define hidden void @_ZN7storage16QuotaManagerImpl13QuotaOverrideC2Ev(%"struct.storage::QuotaManagerImpl::QuotaOverride"*) unnamed_addr #0 align 2 {
  %2 = getelementptr inbounds %"struct.storage::QuotaManagerImpl::QuotaOverride", %"struct.storage::QuotaManagerImpl::QuotaOverride"* %0, i64 0, i32 1, i32 0, i32 1, i32 0, i32 0, i32 0
  %3 = getelementptr inbounds %"struct.storage::QuotaManagerImpl::QuotaOverride", %"struct.storage::QuotaManagerImpl::QuotaOverride"* %0, i64 0, i32 1, i32 0, i32 1, i32 0, i32 0
  %4 = getelementptr inbounds %"struct.storage::QuotaManagerImpl::QuotaOverride", %"struct.storage::QuotaManagerImpl::QuotaOverride"* %0, i64 0, i32 1, i32 0, i32 0
  %5 = bitcast %"class.std::__1::__tree_node_base"** %2 to i8*
  tail call void @llvm.memset.p0i8.i64(i8* align 8 %5, i8 0, i64 16, i1 false) #15
  store %"class.std::__1::__tree_end_node"* %3, %"class.std::__1::__tree_end_node"** %4, align 8
  ret void
}

; Function Attrs: nounwind ssp uwtable
define hidden void @_ZN7storage16QuotaManagerImpl13QuotaOverrideD2Ev(%"struct.storage::QuotaManagerImpl::QuotaOverride"*) unnamed_addr #0 align 2 {
  %2 = getelementptr inbounds %"struct.storage::QuotaManagerImpl::QuotaOverride", %"struct.storage::QuotaManagerImpl::QuotaOverride"* %0, i64 0, i32 1, i32 0
  %3 = getelementptr inbounds %"struct.storage::QuotaManagerImpl::QuotaOverride", %"struct.storage::QuotaManagerImpl::QuotaOverride"* %0, i64 0, i32 1, i32 0, i32 1, i32 0, i32 0
  %4 = bitcast %"class.std::__1::__tree_end_node"* %3 to %"class.std::__1::__tree_node.691"**
  %5 = load %"class.std::__1::__tree_node.691"*, %"class.std::__1::__tree_node.691"** %4, align 8
  tail call void @_ZNSt3__16__treeIiNS_4lessIiEENS_9allocatorIiEEE7destroyEPNS_11__tree_nodeIiPvEE(%"class.std::__1::__tree"* %2, %"class.std::__1::__tree_node.691"* %5) #15
  ret void
}

; Function Attrs: nounwind ssp uwtable
define hidden void @_ZN7storage16QuotaManagerImplC2EbRKN4base8FilePathE13scoped_refptrINS1_22SingleThreadTaskRunnerEENS1_17RepeatingCallbackIFvvEEES5_INS_20SpecialStoragePolicyEERKNS8_IFvNS1_12OnceCallbackIFvN4absl8optionalINS_13QuotaSettingsEEEEEEEEE(%"class.storage::QuotaManagerImpl"*, i1 zeroext, %"class.base::FilePath"* dereferenceable(24), %"class.base::SingleThreadTaskRunner"*, %"class.base::RepeatingCallback.55"* nocapture, %"class.storage::SpecialStoragePolicy"*, %"class.base::RepeatingCallback"* dereferenceable(8)) unnamed_addr #0 align 2 {
  %8 = ptrtoint %"class.base::SingleThreadTaskRunner"* %3 to i64
  %9 = ptrtoint %"class.storage::SpecialStoragePolicy"* %5 to i64
  %10 = zext i1 %1 to i8
  %11 = getelementptr inbounds %"class.storage::QuotaManagerImpl", %"class.storage::QuotaManagerImpl"* %0, i64 0, i32 0
  tail call void @_ZN7storage17QuotaTaskObserverC2Ev(%"class.storage::QuotaTaskObserver"* %11) #15
  %12 = getelementptr inbounds %"class.storage::QuotaManagerImpl", %"class.storage::QuotaManagerImpl"* %0, i64 0, i32 1, i32 0
  store i32 (...)** bitcast (i8** getelementptr inbounds ({ [7 x i8*] }, { [7 x i8*] }* @_ZTVN7storage20QuotaEvictionHandlerE, i64 0, inrange i32 0, i64 2) to i32 (...)**), i32 (...)*** %12, align 8
  %13 = bitcast %"class.base::SingleThreadTaskRunner"* %3 to %"class.base::SequencedTaskRunner"*
  %14 = icmp eq %"class.base::SingleThreadTaskRunner"* %3, null
  br i1 %14, label %18, label %15

15:                                               ; preds = %7
  %16 = getelementptr inbounds %"class.base::SingleThreadTaskRunner", %"class.base::SingleThreadTaskRunner"* %3, i64 0, i32 0, i32 0, i32 1, i32 0, i32 0, i32 0, i32 0, i32 0, i32 0, i32 0, i32 0
  %17 = atomicrmw add i32* %16, i32 1 monotonic
  br label %18

18:                                               ; preds = %7, %15
  %19 = getelementptr inbounds %"class.storage::QuotaManagerImpl", %"class.storage::QuotaManagerImpl"* %0, i64 0, i32 2, i32 0, i32 0, i32 0, i32 0, i32 0, i32 0, i32 0, i32 0
  store i32 0, i32* %19, align 4
  %20 = getelementptr inbounds %"class.storage::QuotaManagerImpl", %"class.storage::QuotaManagerImpl"* %0, i64 0, i32 2, i32 1
  %21 = bitcast %class.scoped_refptr* %20 to i64*
  store i64 %8, i64* %21, align 8
  %22 = getelementptr inbounds %"class.storage::QuotaManagerImpl", %"class.storage::QuotaManagerImpl"* %0, i64 0, i32 0, i32 0
  store i32 (...)** bitcast (i8** getelementptr inbounds ({ [14 x i8*], [7 x i8*] }, { [14 x i8*], [7 x i8*] }* @_ZTVN7storage16QuotaManagerImplE, i64 0, inrange i32 0, i64 2) to i32 (...)**), i32 (...)*** %22, align 8
  store i32 (...)** bitcast (i8** getelementptr inbounds ({ [14 x i8*], [7 x i8*] }, { [14 x i8*], [7 x i8*] }* @_ZTVN7storage16QuotaManagerImplE, i64 0, inrange i32 1, i64 2) to i32 (...)**), i32 (...)*** %12, align 8
  %23 = getelementptr inbounds %"class.storage::QuotaManagerImpl", %"class.storage::QuotaManagerImpl"* %0, i64 0, i32 3
  store i8 %10, i8* %23, align 8
  %24 = getelementptr inbounds %"class.storage::QuotaManagerImpl", %"class.storage::QuotaManagerImpl"* %0, i64 0, i32 4
  tail call void @_ZN4base8FilePathC1ERKS0_(%"class.base::FilePath"* %24, %"class.base::FilePath"* dereferenceable(24) %2) #15
  %25 = tail call i8* @_Znwm(i64 32) #16
  %26 = bitcast i8* %25 to %"class.storage::QuotaManagerProxy"*
  br i1 %14, label %30, label %27

27:                                               ; preds = %18
  %28 = getelementptr inbounds %"class.base::SingleThreadTaskRunner", %"class.base::SingleThreadTaskRunner"* %3, i64 0, i32 0, i32 0, i32 1, i32 0, i32 0, i32 0, i32 0, i32 0, i32 0, i32 0, i32 0
  %29 = atomicrmw add i32* %28, i32 1 monotonic
  br label %30

30:                                               ; preds = %18, %27
  tail call void @_ZN7storage17QuotaManagerProxyC1EPNS_16QuotaManagerImplE13scoped_refptrIN4base19SequencedTaskRunnerEE(%"class.storage::QuotaManagerProxy"* nonnull %26, %"class.storage::QuotaManagerImpl"* %0, %"class.base::SequencedTaskRunner"* %13) #15
  %31 = getelementptr inbounds i8, i8* %25, i64 8
  %32 = bitcast i8* %31 to i32*
  %33 = atomicrmw add i32* %32, i32 1 monotonic
  %34 = getelementptr inbounds %"class.storage::QuotaManagerImpl", %"class.storage::QuotaManagerImpl"* %0, i64 0, i32 5, i32 0
  %35 = bitcast %"class.storage::QuotaManagerProxy"** %34 to i8**
  store i8* %25, i8** %35, align 8
  %36 = getelementptr inbounds %"class.storage::QuotaManagerImpl", %"class.storage::QuotaManagerImpl"* %0, i64 0, i32 6
  store i8 0, i8* %36, align 8
  %37 = getelementptr inbounds %"class.storage::QuotaManagerImpl", %"class.storage::QuotaManagerImpl"* %0, i64 0, i32 7
  store i8 0, i8* %37, align 1
  %38 = getelementptr inbounds %"class.storage::QuotaManagerImpl", %"class.storage::QuotaManagerImpl"* %0, i64 0, i32 8, i32 0, i32 0, i32 0, i32 0
  store i8 0, i8* %38, align 8
  %39 = getelementptr inbounds %"class.storage::QuotaManagerImpl", %"class.storage::QuotaManagerImpl"* %0, i64 0, i32 8, i32 0, i32 0, i32 0, i32 1
  %40 = bitcast %union.anon.22* %39 to i8*
  tail call void @llvm.memset.p0i8.i64(i8* align 8 %40, i8 0, i64 80, i1 false) #15
  %41 = getelementptr inbounds %"class.storage::QuotaManagerImpl", %"class.storage::QuotaManagerImpl"* %0, i64 0, i32 9
  %42 = bitcast %class.scoped_refptr.28* %41 to i64*
  store i64 %8, i64* %42, align 8
  %43 = tail call %"class.base::SequencedTaskRunner"* @_ZN4base10ThreadPool25CreateSequencedTaskRunnerERKNS_10TaskTraitsE(%"class.base::TaskTraits"* nonnull dereferenceable(15) @.ref.tmp) #15
  %44 = getelementptr inbounds %"class.storage::QuotaManagerImpl", %"class.storage::QuotaManagerImpl"* %0, i64 0, i32 10, i32 0
  store %"class.base::SequencedTaskRunner"* %43, %"class.base::SequencedTaskRunner"** %44, align 8
  %45 = getelementptr inbounds %"class.storage::QuotaManagerImpl", %"class.storage::QuotaManagerImpl"* %0, i64 0, i32 11
  %46 = bitcast %"class.std::__1::unique_ptr"* %45 to i64*
  store i64 0, i64* %46, align 8
  %47 = getelementptr inbounds %"class.storage::QuotaManagerImpl", %"class.storage::QuotaManagerImpl"* %0, i64 0, i32 12
  store i8 0, i8* %47, align 8
  %48 = getelementptr inbounds %"class.storage::QuotaManagerImpl", %"class.storage::QuotaManagerImpl"* %0, i64 0, i32 13, i32 0
  %49 = getelementptr inbounds %"class.base::RepeatingCallback", %"class.base::RepeatingCallback"* %6, i64 0, i32 0
  tail call void @_ZN4base8internal20CallbackBaseCopyableC2ERKS1_(%"class.base::internal::CallbackBaseCopyable"* %48, %"class.base::internal::CallbackBaseCopyable"* dereferenceable(8) %49) #15
  %50 = getelementptr inbounds %"class.storage::QuotaManagerImpl", %"class.storage::QuotaManagerImpl"* %0, i64 0, i32 14
  %51 = getelementptr inbounds %class.scoped_refptr.53, %class.scoped_refptr.53* %50, i64 0, i32 0
  %52 = getelementptr inbounds %"class.storage::QuotaManagerImpl", %"class.storage::QuotaManagerImpl"* %0, i64 0, i32 16
  %53 = getelementptr inbounds %"class.base::RepeatingCallback.55", %"class.base::RepeatingCallback.55"* %4, i64 0, i32 0, i32 0, i32 0, i32 0
  %54 = bitcast %"class.base::RepeatingCallback.55"* %4 to i64*
  %55 = bitcast %class.scoped_refptr.53* %50 to i8*
  call void @llvm.memset.p0i8.i64(i8* align 8 %55, i8 0, i64 16, i1 false)
  %56 = load i64, i64* %54, align 8
  %57 = bitcast %"class.base::RepeatingCallback.55"* %52 to i64*
  store i64 %56, i64* %57, align 8
  store %"class.base::internal::BindStateBase"* null, %"class.base::internal::BindStateBase"** %53, align 8
  %58 = getelementptr inbounds %"class.storage::QuotaManagerImpl", %"class.storage::QuotaManagerImpl"* %0, i64 0, i32 17
  %59 = getelementptr inbounds %"class.storage::QuotaManagerImpl", %"class.storage::QuotaManagerImpl"* %0, i64 0, i32 17, i32 5, i32 0
  %60 = bitcast %"struct.storage::QuotaSettings"* %58 to i8*
  tail call void @llvm.memset.p0i8.i64(i8* align 8 %60, i8 0, i64 40, i1 false) #15
  store i64 9223372036854775807, i64* %59, align 8
  %61 = getelementptr inbounds %"class.storage::QuotaManagerImpl", %"class.storage::QuotaManagerImpl"* %0, i64 0, i32 18, i32 0, i32 0
  %62 = getelementptr inbounds %"class.storage::QuotaManagerImpl", %"class.storage::QuotaManagerImpl"* %0, i64 0, i32 23, i32 0, i32 1, i32 0, i32 0, i32 0
  %63 = getelementptr inbounds %"class.storage::QuotaManagerImpl", %"class.storage::QuotaManagerImpl"* %0, i64 0, i32 23, i32 0, i32 1, i32 0, i32 0
  %64 = getelementptr inbounds %"class.storage::QuotaManagerImpl", %"class.storage::QuotaManagerImpl"* %0, i64 0, i32 23, i32 0, i32 0
  %65 = bitcast %"class.std::__1::__tree_node_base"** %62 to i8*
  tail call void @llvm.memset.p0i8.i64(i8* align 8 %65, i8 0, i64 16, i1 false) #15
  %66 = bitcast i64* %61 to i8*
  call void @llvm.memset.p0i8.i64(i8* align 8 %66, i8 0, i64 88, i1 false)
  store %"class.std::__1::__tree_end_node"* %63, %"class.std::__1::__tree_end_node"** %64, align 8
  %67 = getelementptr inbounds %"class.storage::QuotaManagerImpl", %"class.storage::QuotaManagerImpl"* %0, i64 0, i32 24, i32 0, i32 1, i32 0, i32 0, i32 0
  %68 = getelementptr inbounds %"class.storage::QuotaManagerImpl", %"class.storage::QuotaManagerImpl"* %0, i64 0, i32 24, i32 0, i32 1, i32 0, i32 0
  %69 = getelementptr inbounds %"class.storage::QuotaManagerImpl", %"class.storage::QuotaManagerImpl"* %0, i64 0, i32 24, i32 0, i32 0
  %70 = bitcast %"class.std::__1::__tree_node_base"** %67 to i8*
  tail call void @llvm.memset.p0i8.i64(i8* align 8 %70, i8 0, i64 16, i1 false) #15
  store %"class.std::__1::__tree_end_node"* %68, %"class.std::__1::__tree_end_node"** %69, align 8
  %71 = getelementptr inbounds %"class.storage::QuotaManagerImpl", %"class.storage::QuotaManagerImpl"* %0, i64 0, i32 25
  store i32 0, i32* %71, align 8
  %72 = getelementptr inbounds %"class.storage::QuotaManagerImpl", %"class.storage::QuotaManagerImpl"* %0, i64 0, i32 26
  %73 = getelementptr inbounds %"class.storage::QuotaManagerImpl", %"class.storage::QuotaManagerImpl"* %0, i64 0, i32 33, i32 0
  %74 = bitcast %"class.std::__1::vector.91"* %72 to i8*
  call void @llvm.memset.p0i8.i64(i8* align 8 %74, i8 0, i64 104, i1 false)
  tail call void @_ZN3url6OriginC1Ev(%"class.url::Origin"* %73) #15
  %75 = getelementptr inbounds %"class.storage::QuotaManagerImpl", %"class.storage::QuotaManagerImpl"* %0, i64 0, i32 33, i32 1
  store i32 4, i32* %75, align 8
  %76 = getelementptr inbounds %"class.storage::QuotaManagerImpl", %"class.storage::QuotaManagerImpl"* %0, i64 0, i32 33, i32 2, i32 0, i32 0, i32 0
  store %"class.base::internal::BindStateBase"* null, %"class.base::internal::BindStateBase"** %76, align 8
  %77 = getelementptr inbounds %"class.storage::QuotaManagerImpl", %"class.storage::QuotaManagerImpl"* %0, i64 0, i32 34
  store i8 0, i8* %77, align 8
  %78 = getelementptr inbounds %"class.storage::QuotaManagerImpl", %"class.storage::QuotaManagerImpl"* %0, i64 0, i32 35, i32 0, i32 0, i32 1, i32 0, i32 0, i32 0
  %79 = getelementptr inbounds %"class.storage::QuotaManagerImpl", %"class.storage::QuotaManagerImpl"* %0, i64 0, i32 35, i32 0, i32 0, i32 1, i32 0, i32 0
  %80 = getelementptr inbounds %"class.storage::QuotaManagerImpl", %"class.storage::QuotaManagerImpl"* %0, i64 0, i32 35, i32 0, i32 0, i32 0
  %81 = bitcast %"class.std::__1::__tree_node_base"** %78 to i8*
  tail call void @llvm.memset.p0i8.i64(i8* align 8 %81, i8 0, i64 16, i1 false) #15
  store %"class.std::__1::__tree_end_node"* %79, %"class.std::__1::__tree_end_node"** %80, align 8
  %82 = getelementptr inbounds %"class.storage::QuotaManagerImpl", %"class.storage::QuotaManagerImpl"* %0, i64 0, i32 36, i32 0, i32 1, i32 0, i32 0, i32 0
  %83 = getelementptr inbounds %"class.storage::QuotaManagerImpl", %"class.storage::QuotaManagerImpl"* %0, i64 0, i32 36, i32 0, i32 1, i32 0, i32 0
  %84 = getelementptr inbounds %"class.storage::QuotaManagerImpl", %"class.storage::QuotaManagerImpl"* %0, i64 0, i32 36, i32 0, i32 0
  %85 = bitcast %"class.std::__1::__tree_node_base"** %82 to i8*
  tail call void @llvm.memset.p0i8.i64(i8* align 8 %85, i8 0, i64 16, i1 false) #15
  store %"class.std::__1::__tree_end_node"* %83, %"class.std::__1::__tree_end_node"** %84, align 8
  %86 = getelementptr inbounds %"class.storage::QuotaManagerImpl", %"class.storage::QuotaManagerImpl"* %0, i64 0, i32 37, i32 0, i32 1, i32 0, i32 0, i32 0
  %87 = getelementptr inbounds %"class.storage::QuotaManagerImpl", %"class.storage::QuotaManagerImpl"* %0, i64 0, i32 37, i32 0, i32 1, i32 0, i32 0
  %88 = getelementptr inbounds %"class.storage::QuotaManagerImpl", %"class.storage::QuotaManagerImpl"* %0, i64 0, i32 37, i32 0, i32 0
  %89 = bitcast %"class.std::__1::__tree_node_base"** %86 to i8*
  tail call void @llvm.memset.p0i8.i64(i8* align 8 %89, i8 0, i64 16, i1 false) #15
  store %"class.std::__1::__tree_end_node"* %87, %"class.std::__1::__tree_end_node"** %88, align 8
  %90 = getelementptr inbounds %"class.storage::QuotaManagerImpl", %"class.storage::QuotaManagerImpl"* %0, i64 0, i32 38
  %91 = bitcast %class.scoped_refptr.337* %90 to i64*
  store i64 %9, i64* %91, align 8
  %92 = getelementptr inbounds %"class.storage::QuotaManagerImpl", %"class.storage::QuotaManagerImpl"* %0, i64 0, i32 39
  tail call void @_ZN4base14RepeatingTimerC1Ev(%"class.base::RepeatingTimer"* %92) #15
  %93 = getelementptr inbounds %"class.storage::QuotaManagerImpl", %"class.storage::QuotaManagerImpl"* %0, i64 0, i32 40
  store { i64, i64 } (%"class.base::FilePath"*)* @_ZN7storage16QuotaManagerImpl13GetVolumeInfoERKN4base8FilePathE, { i64, i64 } (%"class.base::FilePath"*)** %93, align 8
  %94 = getelementptr inbounds %"class.storage::QuotaManagerImpl", %"class.storage::QuotaManagerImpl"* %0, i64 0, i32 41, i32 0
  %95 = ptrtoint %"class.storage::QuotaManagerImpl"* %0 to i64
  tail call void @_ZN4base8internal18WeakPtrFactoryBaseC2Em(%"class.base::internal::WeakPtrFactoryBase"* %94, i64 %95) #15
  %96 = getelementptr inbounds %"class.base::RepeatingCallback", %"class.base::RepeatingCallback"* %6, i64 0, i32 0, i32 0, i32 0, i32 0
  %97 = load %"class.base::internal::BindStateBase"*, %"class.base::internal::BindStateBase"** %96, align 8
  %98 = icmp eq %"class.base::internal::BindStateBase"* %97, null
  br i1 %98, label %120, label %99

99:                                               ; preds = %30
  store i64 0, i64* %59, align 8
  %100 = tail call dereferenceable(8) %class.scoped_refptr.28* @_ZN4base22ThreadTaskRunnerHandle3GetEv() #15
  %101 = bitcast %class.scoped_refptr.28* %100 to %"class.base::TaskRunner"**
  %102 = load %"class.base::TaskRunner"*, %"class.base::TaskRunner"** %101, align 8
  %103 = icmp eq %"class.base::TaskRunner"* %102, null
  br i1 %103, label %107, label %104

104:                                              ; preds = %99
  %105 = getelementptr inbounds %"class.base::TaskRunner", %"class.base::TaskRunner"* %102, i64 0, i32 1, i32 0, i32 0, i32 0, i32 0, i32 0, i32 0, i32 0, i32 0
  %106 = atomicrmw add i32* %105, i32 1 monotonic
  br label %107

107:                                              ; preds = %99, %104
  %108 = ptrtoint %"class.base::TaskRunner"* %102 to i64
  %109 = bitcast %class.scoped_refptr.53* %50 to i64*
  %110 = load %"class.base::TaskRunner"*, %"class.base::TaskRunner"** %51, align 8
  store i64 %108, i64* %109, align 8
  %111 = icmp eq %"class.base::TaskRunner"* %110, null
  br i1 %111, label %120, label %112

112:                                              ; preds = %107
  %113 = getelementptr inbounds %"class.base::TaskRunner", %"class.base::TaskRunner"* %110, i64 0, i32 1
  %114 = getelementptr inbounds %"class.base::RefCountedThreadSafe", %"class.base::RefCountedThreadSafe"* %113, i64 0, i32 0, i32 0, i32 0, i32 0, i32 0, i32 0, i32 0, i32 0
  %115 = atomicrmw sub i32* %114, i32 1 acq_rel
  %116 = icmp eq i32 %115, 1
  br i1 %116, label %117, label %120

117:                                              ; preds = %112
  %118 = getelementptr inbounds %"class.base::RefCountedThreadSafe", %"class.base::RefCountedThreadSafe"* %113, i64 -2
  %119 = bitcast %"class.base::RefCountedThreadSafe"* %118 to %"class.base::TaskRunner"*
  tail call void @_ZN4base16TaskRunnerTraits8DestructEPKNS_10TaskRunnerE(%"class.base::TaskRunner"* %119) #15
  br label %120

120:                                              ; preds = %117, %112, %107, %30
  ret void
}

declare void @_ZN7storage17QuotaTaskObserverC2Ev(%"class.storage::QuotaTaskObserver"*) unnamed_addr #1

declare void @_ZN4base8FilePathC1ERKS0_(%"class.base::FilePath"*, %"class.base::FilePath"* dereferenceable(24)) unnamed_addr #1

; Function Attrs: argmemonly nounwind
declare void @llvm.lifetime.start.p0i8(i64 immarg, i8* nocapture) #2

; Function Attrs: argmemonly nounwind
declare void @llvm.lifetime.end.p0i8(i64 immarg, i8* nocapture) #2

declare %"class.base::SequencedTaskRunner"* @_ZN4base10ThreadPool25CreateSequencedTaskRunnerERKNS_10TaskTraitsE(%"class.base::TaskTraits"* dereferenceable(15)) local_unnamed_addr #1

declare void @_ZN4base14RepeatingTimerC1Ev(%"class.base::RepeatingTimer"*) unnamed_addr #1

; Function Attrs: nounwind ssp uwtable
define hidden { i64, i64 } @_ZN7storage16QuotaManagerImpl13GetVolumeInfoERKN4base8FilePathE(%"class.base::FilePath"* dereferenceable(24)) #0 align 2 {
  %2 = tail call i64 @_ZN4base7SysInfo22AmountOfTotalDiskSpaceERKNS_8FilePathE(%"class.base::FilePath"* dereferenceable(24) %0) #15
  %3 = tail call i64 @_ZN4base7SysInfo21AmountOfFreeDiskSpaceERKNS_8FilePathE(%"class.base::FilePath"* dereferenceable(24) %0) #15
  %4 = insertvalue { i64, i64 } undef, i64 %2, 0
  %5 = insertvalue { i64, i64 } %4, i64 %3, 1
  ret { i64, i64 } %5
}

; Function Attrs: argmemonly nounwind
declare void @llvm.memset.p0i8.i64(i8* nocapture writeonly, i8, i64, i1 immarg) #2

; Function Attrs: argmemonly nounwind
declare void @llvm.memcpy.p0i8.p0i8.i64(i8* nocapture writeonly, i8* nocapture readonly, i64, i1 immarg) #2

declare dereferenceable(8) %class.scoped_refptr.28* @_ZN4base22ThreadTaskRunnerHandle3GetEv() local_unnamed_addr #1

; Function Attrs: nounwind ssp uwtable
define hidden void @_ZN7storage16QuotaManagerImpl16SetQuotaSettingsERKNS_13QuotaSettingsE(%"class.storage::QuotaManagerImpl"* nocapture, %"struct.storage::QuotaSettings"* nocapture readonly dereferenceable(48)) local_unnamed_addr #0 align 2 {
  %3 = getelementptr inbounds %"class.storage::QuotaManagerImpl", %"class.storage::QuotaManagerImpl"* %0, i64 0, i32 17
  %4 = bitcast %"struct.storage::QuotaSettings"* %3 to i8*
  %5 = bitcast %"struct.storage::QuotaSettings"* %1 to i8*
  tail call void @llvm.memcpy.p0i8.p0i8.i64(i8* align 8 %4, i8* align 8 %5, i64 48, i1 false)
  %6 = tail call i64 @_ZN4base9TimeTicks3NowEv() #15
  %7 = getelementptr inbounds %"class.storage::QuotaManagerImpl", %"class.storage::QuotaManagerImpl"* %0, i64 0, i32 18, i32 0, i32 0
  store i64 %6, i64* %7, align 8
  ret void
}

declare i64 @_ZN4base9TimeTicks3NowEv() local_unnamed_addr #1

; Function Attrs: nounwind ssp uwtable
define hidden void @_ZN7storage16QuotaManagerImpl12CreateBucketERKN3url6OriginERKNSt3__112basic_stringIcNS5_11char_traitsIcEENS5_9allocatorIcEEEEN4base12OnceCallbackIFvNS_12QuotaErrorOrIN4util6IdTypeINS_9BucketTagElLl0ELl1EEEEEEEE(%"class.storage::QuotaManagerImpl"*, %"class.url::Origin"* dereferenceable(80), %"class.std::__1::basic_string"* nocapture readonly dereferenceable(24), %"class.base::OnceCallback.356"* nocapture) local_unnamed_addr #0 align 2 {
  %5 = alloca %"class.base::internal::WeakReference", align 8
  %6 = alloca %"class.base::OnceCallback.357", align 8
  %7 = alloca %"class.base::OnceCallback.356", align 8
  %8 = alloca %"class.base::WeakPtr.363", align 8
  %9 = alloca %"class.base::Location", align 8
  tail call void @_ZN7storage16QuotaManagerImpl14LazyInitializeEv(%"class.storage::QuotaManagerImpl"* %0)
  %10 = tail call i8* @_Znwm(i64 144) #16, !noalias !2
  %11 = bitcast i8* %10 to %"class.base::internal::BindStateBase"*
  tail call void @_ZN4base8internal13BindStateBaseC2EPFvvEPFvPKS1_E(%"class.base::internal::BindStateBase"* nonnull %11, void ()* bitcast (void (%"class.storage::QuotaErrorOr"*, %"class.base::internal::BindStateBase"*, %"class.storage::QuotaDatabase"*)* @_ZN4base8internal7InvokerINS0_9BindStateIPFN7storage12QuotaErrorOrIN4util6IdTypeINS3_9BucketTagElLl0ELl1EEEEERKN3url6OriginERKNSt3__112basic_stringIcNSE_11char_traitsIcEENSE_9allocatorIcEEEEPNS3_13QuotaDatabaseEEJSB_SK_EEEFS9_SO_EE7RunOnceEPNS0_13BindStateBaseESO_ to void ()*), void (%"class.base::internal::BindStateBase"*)* nonnull @_ZN4base8internal9BindStateIPFN7storage12QuotaErrorOrIN4util6IdTypeINS2_9BucketTagElLl0ELl1EEEEERKN3url6OriginERKNSt3__112basic_stringIcNSD_11char_traitsIcEENSD_9allocatorIcEEEEPNS2_13QuotaDatabaseEEJSA_SJ_EE7DestroyEPKNS0_13BindStateBaseE) #15, !noalias !2
  %12 = getelementptr inbounds i8, i8* %10, i64 32
  %13 = bitcast i8* %12 to i64*
  store i64 ptrtoint (void (%"class.storage::QuotaErrorOr"*, %"class.url::Origin"*, %"class.std::__1::basic_string"*, %"class.storage::QuotaDatabase"*)* @_ZN7storage12_GLOBAL__N_122CreateBucketOnDBThreadERKN3url6OriginERKNSt3__112basic_stringIcNS5_11char_traitsIcEENS5_9allocatorIcEEEEPNS_13QuotaDatabaseE to i64), i64* %13, align 8, !noalias !2
  %14 = getelementptr inbounds i8, i8* %10, i64 40
  %15 = bitcast i8* %14 to %"class.url::Origin"*
  tail call void @_ZN3url6OriginC1ERKS0_(%"class.url::Origin"* %15, %"class.url::Origin"* dereferenceable(80) %1) #15, !noalias !2
  %16 = getelementptr inbounds i8, i8* %10, i64 120
  %17 = bitcast %"class.std::__1::basic_string"* %2 to %"struct.std::__1::basic_string<char, std::__1::char_traits<char>, std::__1::allocator<char> >::__short"*
  %18 = getelementptr inbounds %"struct.std::__1::basic_string<char, std::__1::char_traits<char>, std::__1::allocator<char> >::__short", %"struct.std::__1::basic_string<char, std::__1::char_traits<char>, std::__1::allocator<char> >::__short"* %17, i64 0, i32 1, i32 0
  %19 = load i8, i8* %18, align 1, !noalias !2
  %20 = icmp slt i8 %19, 0
  br i1 %20, label %23, label %21

21:                                               ; preds = %4
  %22 = bitcast %"class.std::__1::basic_string"* %2 to i8*
  tail call void @llvm.memcpy.p0i8.p0i8.i64(i8* align 8 %16, i8* align 8 %22, i64 24, i1 false) #15, !noalias !2
  br label %29

23:                                               ; preds = %4
  %24 = bitcast i8* %16 to %"class.std::__1::basic_string"*
  %25 = getelementptr inbounds %"class.std::__1::basic_string", %"class.std::__1::basic_string"* %2, i64 0, i32 0, i32 0, i32 0, i32 0, i32 0, i32 0
  %26 = load i8*, i8** %25, align 8, !noalias !2
  %27 = getelementptr inbounds %"class.std::__1::basic_string", %"class.std::__1::basic_string"* %2, i64 0, i32 0, i32 0, i32 0, i32 0, i32 0, i32 1
  %28 = load i64, i64* %27, align 8, !noalias !2
  tail call void @_ZNSt3__112basic_stringIcNS_11char_traitsIcEENS_9allocatorIcEEE25__init_copy_ctor_externalEPKcm(%"class.std::__1::basic_string"* %24, i8* %26, i64 %28) #15, !noalias !2
  br label %29

29:                                               ; preds = %21, %23
  %30 = bitcast %"class.base::OnceCallback.357"* %6 to i8**
  store i8* %10, i8** %30, align 8, !alias.scope !2
  %31 = bitcast %"class.base::WeakPtr.363"* %8 to i8*
  call void @llvm.lifetime.start.p0i8(i64 16, i8* nonnull %31) #15
  %32 = bitcast %"class.base::internal::WeakReference"* %5 to i8*
  call void @llvm.lifetime.start.p0i8(i64 8, i8* nonnull %32) #15, !noalias !7
  %33 = getelementptr inbounds %"class.storage::QuotaManagerImpl", %"class.storage::QuotaManagerImpl"* %0, i64 0, i32 41, i32 0, i32 0
  call void @_ZNK4base8internal18WeakReferenceOwner6GetRefEv(%"class.base::internal::WeakReference"* nonnull sret %5, %"class.base::internal::WeakReferenceOwner"* %33) #15, !noalias !7
  %34 = getelementptr inbounds %"class.storage::QuotaManagerImpl", %"class.storage::QuotaManagerImpl"* %0, i64 0, i32 41, i32 0, i32 1
  %35 = load i64, i64* %34, align 8, !noalias !7
  %36 = getelementptr inbounds %"class.base::WeakPtr.363", %"class.base::WeakPtr.363"* %8, i64 0, i32 0
  call void @_ZN4base8internal11WeakPtrBaseC2ERKNS0_13WeakReferenceEm(%"class.base::internal::WeakPtrBase"* nonnull %36, %"class.base::internal::WeakReference"* nonnull dereferenceable(8) %5, i64 %35) #15
  call void @_ZN4base8internal13WeakReferenceD1Ev(%"class.base::internal::WeakReference"* nonnull %5) #15
  call void @llvm.lifetime.end.p0i8(i64 8, i8* nonnull %32) #15, !noalias !7
  %37 = call i8* @_Znwm(i64 72) #16, !noalias !10
  %38 = bitcast i8* %37 to %"class.base::internal::BindStateBase"*
  call void @_ZN4base8internal13BindStateBaseC2EPFvvEPFvPKS1_EPFbS5_NS1_21CancellationQueryModeEE(%"class.base::internal::BindStateBase"* nonnull %38, void ()* bitcast (void (%"class.base::internal::BindStateBase"*, %"class.storage::QuotaErrorOr"*)* @_ZN4base8internal7InvokerINS0_9BindStateIMN7storage16QuotaManagerImplEFvNS_12OnceCallbackIFvNS3_12QuotaErrorOrIN4util6IdTypeINS3_9BucketTagElLl0ELl1EEEEEEEESB_EJNS_7WeakPtrIS4_EESD_EEESC_E7RunOnceEPNS0_13BindStateBaseEOSB_ to void ()*), void (%"class.base::internal::BindStateBase"*)* nonnull @_ZN4base8internal9BindStateIMN7storage16QuotaManagerImplEFvNS_12OnceCallbackIFvNS2_12QuotaErrorOrIN4util6IdTypeINS2_9BucketTagElLl0ELl1EEEEEEEESA_EJNS_7WeakPtrIS3_EESC_EE7DestroyEPKNS0_13BindStateBaseE, i1 (%"class.base::internal::BindStateBase"*, i32)* nonnull @_ZN4base8internal23QueryCancellationTraitsINS0_9BindStateIMN7storage16QuotaManagerImplEFvNS_12OnceCallbackIFvNS3_12QuotaErrorOrIN4util6IdTypeINS3_9BucketTagElLl0ELl1EEEEEEEESB_EJNS_7WeakPtrIS4_EESD_EEEEEbPKNS0_13BindStateBaseENSJ_21CancellationQueryModeE) #15, !noalias !10
  %39 = getelementptr inbounds i8, i8* %37, i64 32
  %40 = bitcast i8* %39 to <2 x i64>*
  store <2 x i64> <i64 ptrtoint (void (%"class.storage::QuotaManagerImpl"*, %"class.base::OnceCallback.356"*, %"class.storage::QuotaErrorOr"*)* @_ZN7storage16QuotaManagerImpl14DidGetBucketIdEN4base12OnceCallbackIFvNS_12QuotaErrorOrIN4util6IdTypeINS_9BucketTagElLl0ELl1EEEEEEEES8_ to i64), i64 0>, <2 x i64>* %40, align 8, !noalias !10
  %41 = getelementptr inbounds i8, i8* %37, i64 48
  %42 = bitcast i8* %41 to %"class.base::internal::WeakReference"*
  %43 = getelementptr inbounds %"class.base::WeakPtr.363", %"class.base::WeakPtr.363"* %8, i64 0, i32 0, i32 0
  call void @_ZN4base8internal13WeakReferenceC1EOS1_(%"class.base::internal::WeakReference"* %42, %"class.base::internal::WeakReference"* nonnull dereferenceable(8) %43) #15, !noalias !10
  %44 = getelementptr inbounds i8, i8* %37, i64 56
  %45 = bitcast i8* %44 to i64*
  %46 = getelementptr inbounds %"class.base::WeakPtr.363", %"class.base::WeakPtr.363"* %8, i64 0, i32 0, i32 1
  %47 = load i64, i64* %46, align 8, !noalias !10
  store i64 %47, i64* %45, align 8, !noalias !10
  %48 = getelementptr inbounds i8, i8* %37, i64 64
  %49 = getelementptr inbounds %"class.base::OnceCallback.356", %"class.base::OnceCallback.356"* %3, i64 0, i32 0, i32 0, i32 0
  %50 = bitcast %"class.base::OnceCallback.356"* %3 to i64*
  %51 = load i64, i64* %50, align 8, !noalias !10
  %52 = bitcast i8* %48 to i64*
  store i64 %51, i64* %52, align 8, !noalias !10
  store %"class.base::internal::BindStateBase"* null, %"class.base::internal::BindStateBase"** %49, align 8, !noalias !10
  %53 = bitcast %"class.base::OnceCallback.356"* %7 to i8**
  store i8* %37, i8** %53, align 8, !alias.scope !10
  %54 = bitcast %"class.base::Location"* %9 to i8*
  call void @llvm.lifetime.start.p0i8(i64 32, i8* nonnull %54) #15
  call void @_ZN4base8Location7CurrentEPKcS2_i(%"class.base::Location"* nonnull sret %9, i8* getelementptr inbounds ([13 x i8], [13 x i8]* @.str, i64 0, i64 0), i8* getelementptr inbounds ([50 x i8], [50 x i8]* @.str.1, i64 0, i64 0), i32 945) #15
  call void @_ZN7storage16QuotaManagerImpl37PostTaskAndReplyWithResultForDBThreadIN4util6IdTypeINS_9BucketTagElLl0ELl1EEEEEvN4base12OnceCallbackIFNS_12QuotaErrorOrIT_EEPNS_13QuotaDatabaseEEEENS7_IFvSA_EEERKNS6_8LocationE(%"class.storage::QuotaManagerImpl"* %0, %"class.base::OnceCallback.357"* nonnull %6, %"class.base::OnceCallback.356"* nonnull %7, %"class.base::Location"* nonnull dereferenceable(32) %9)
  call void @llvm.lifetime.end.p0i8(i64 32, i8* nonnull %54) #15
  %55 = getelementptr inbounds %"class.base::OnceCallback.356", %"class.base::OnceCallback.356"* %7, i64 0, i32 0
  call void @_ZN4base8internal12CallbackBaseD2Ev(%"class.base::internal::CallbackBase"* nonnull %55) #15
  call void @_ZN4base8internal11WeakPtrBaseD2Ev(%"class.base::internal::WeakPtrBase"* nonnull %36) #15
  call void @llvm.lifetime.end.p0i8(i64 16, i8* nonnull %31) #15
  %56 = getelementptr inbounds %"class.base::OnceCallback.357", %"class.base::OnceCallback.357"* %6, i64 0, i32 0
  call void @_ZN4base8internal12CallbackBaseD2Ev(%"class.base::internal::CallbackBase"* nonnull %56) #15
  ret void
}

; Function Attrs: nounwind ssp uwtable
define hidden void @_ZN7storage16QuotaManagerImpl14LazyInitializeEv(%"class.storage::QuotaManagerImpl"*) local_unnamed_addr #0 align 2 {
  %2 = alloca %"class.base::internal::WeakReference", align 8
  %3 = alloca %"class.base::RepeatingCallback.55", align 8
  %4 = alloca %"class.base::flat_map.403", align 8
  %5 = alloca %"class.base::flat_map.403", align 8
  %6 = alloca %"class.base::flat_map.403", align 8
  %7 = alloca %"class.base::OnceCallback", align 8
  %8 = alloca %"class.base::OnceCallback", align 8
  %9 = alloca %"class.base::FilePath", align 8
  %10 = alloca i32, align 4
  %11 = alloca i32, align 4
  %12 = alloca i32, align 4
  %13 = alloca %"class.base::Location", align 8
  %14 = alloca %"class.base::Location", align 8
  %15 = alloca %"class.base::OnceCallback.452", align 8
  %16 = alloca %"class.base::OnceCallback.416", align 8
  %17 = alloca %"class.base::WeakPtr.363", align 8
  %18 = getelementptr inbounds %"class.storage::QuotaManagerImpl", %"class.storage::QuotaManagerImpl"* %0, i64 0, i32 11
  %19 = getelementptr inbounds %"class.std::__1::unique_ptr", %"class.std::__1::unique_ptr"* %18, i64 0, i32 0, i32 0, i32 0
  %20 = load %"class.storage::QuotaDatabase"*, %"class.storage::QuotaDatabase"** %19, align 8
  %21 = icmp eq %"class.storage::QuotaDatabase"* %20, null
  br i1 %21, label %22, label %323

22:                                               ; preds = %1
  %23 = bitcast %"class.base::FilePath"* %9 to i8*
  call void @llvm.lifetime.start.p0i8(i64 24, i8* nonnull %23) #15
  %24 = getelementptr inbounds %"class.storage::QuotaManagerImpl", %"class.storage::QuotaManagerImpl"* %0, i64 0, i32 3
  %25 = load i8, i8* %24, align 8, !range !15
  %26 = icmp eq i8 %25, 0
  br i1 %26, label %28, label %27

27:                                               ; preds = %22
  call void @_ZN4base8FilePathC1Ev(%"class.base::FilePath"* nonnull %9) #15
  br label %30

28:                                               ; preds = %22
  %29 = getelementptr inbounds %"class.storage::QuotaManagerImpl", %"class.storage::QuotaManagerImpl"* %0, i64 0, i32 4
  call void @_ZNK4base8FilePath11AppendASCIIENS_16BasicStringPieceIcNSt3__111char_traitsIcEEEE(%"class.base::FilePath"* nonnull sret %9, %"class.base::FilePath"* %29, i8* getelementptr inbounds ([13 x i8], [13 x i8]* @_ZN7storage16QuotaManagerImpl13kDatabaseNameE, i64 0, i64 0), i64 12) #15
  br label %30

30:                                               ; preds = %28, %27
  %31 = call i8* @_Znwm(i64 176) #16
  %32 = bitcast i8* %31 to %"class.storage::QuotaDatabase"*
  call void @_ZN7storage13QuotaDatabaseC1ERKN4base8FilePathE(%"class.storage::QuotaDatabase"* nonnull %32, %"class.base::FilePath"* nonnull dereferenceable(24) %9) #15
  %33 = ptrtoint i8* %31 to i64
  %34 = load %"class.storage::QuotaDatabase"*, %"class.storage::QuotaDatabase"** %19, align 8
  %35 = bitcast %"class.std::__1::unique_ptr"* %18 to i64*
  store i64 %33, i64* %35, align 8
  %36 = icmp eq %"class.storage::QuotaDatabase"* %34, null
  br i1 %36, label %39, label %37

37:                                               ; preds = %30
  call void @_ZN7storage13QuotaDatabaseD1Ev(%"class.storage::QuotaDatabase"* nonnull %34) #15
  %38 = bitcast %"class.storage::QuotaDatabase"* %34 to i8*
  call void @_ZdlPv(i8* %38) #16
  br label %39

39:                                               ; preds = %37, %30
  call void @_ZN4base8FilePathD1Ev(%"class.base::FilePath"* nonnull %9) #15
  call void @llvm.lifetime.end.p0i8(i64 24, i8* nonnull %23) #15
  %40 = getelementptr inbounds %"class.storage::QuotaManagerImpl", %"class.storage::QuotaManagerImpl"* %0, i64 0, i32 28
  %41 = bitcast i32* %10 to i8*
  call void @llvm.lifetime.start.p0i8(i64 4, i8* nonnull %41) #15
  store i32 0, i32* %10, align 4
  %42 = getelementptr inbounds %"class.base::flat_map", %"class.base::flat_map"* %40, i64 0, i32 0, i32 0, i32 0, i32 0
  %43 = load %"struct.std::__1::pair.276"*, %"struct.std::__1::pair.276"** %42, align 8
  %44 = getelementptr inbounds %"class.storage::QuotaManagerImpl", %"class.storage::QuotaManagerImpl"* %0, i64 0, i32 28, i32 0, i32 0, i32 0, i32 1
  %45 = bitcast %"struct.std::__1::pair.276"** %44 to i64*
  %46 = load i64, i64* %45, align 8
  %47 = ptrtoint %"struct.std::__1::pair.276"* %43 to i64
  %48 = sub i64 %46, %47
  %49 = icmp eq i64 %48, 0
  %50 = inttoptr i64 %46 to %"struct.std::__1::pair.276"*
  br i1 %49, label %67, label %51

51:                                               ; preds = %39
  %52 = ashr exact i64 %48, 5
  br label %53

53:                                               ; preds = %53, %51
  %54 = phi %"struct.std::__1::pair.276"* [ %43, %51 ], [ %65, %53 ]
  %55 = phi i64 [ %52, %51 ], [ %64, %53 ]
  %56 = lshr i64 %55, 1
  %57 = getelementptr inbounds %"struct.std::__1::pair.276", %"struct.std::__1::pair.276"* %54, i64 %56
  %58 = getelementptr inbounds %"struct.std::__1::pair.276", %"struct.std::__1::pair.276"* %57, i64 0, i32 0
  %59 = load i32, i32* %58, align 4
  %60 = icmp slt i32 %59, 0
  %61 = getelementptr inbounds %"struct.std::__1::pair.276", %"struct.std::__1::pair.276"* %57, i64 1
  %62 = xor i64 %56, -1
  %63 = add i64 %55, %62
  %64 = select i1 %60, i64 %63, i64 %56
  %65 = select i1 %60, %"struct.std::__1::pair.276"* %61, %"struct.std::__1::pair.276"* %54
  %66 = icmp eq i64 %64, 0
  br i1 %66, label %67, label %53

67:                                               ; preds = %53, %39
  %68 = phi %"struct.std::__1::pair.276"* [ %43, %39 ], [ %65, %53 ]
  %69 = icmp eq %"struct.std::__1::pair.276"* %68, %50
  br i1 %69, label %74, label %70

70:                                               ; preds = %67
  %71 = getelementptr inbounds %"struct.std::__1::pair.276", %"struct.std::__1::pair.276"* %68, i64 0, i32 0
  %72 = load i32, i32* %71, align 4
  %73 = icmp sgt i32 %72, 0
  br i1 %73, label %74, label %87

74:                                               ; preds = %70, %67
  %75 = bitcast %"class.base::flat_map.403"* %6 to i8*
  call void @llvm.lifetime.start.p0i8(i64 24, i8* nonnull %75) #15
  %76 = getelementptr inbounds %"class.base::flat_map", %"class.base::flat_map"* %40, i64 0, i32 0, i32 0
  call void @llvm.memset.p0i8.i64(i8* nonnull align 8 %75, i8 0, i64 24, i1 false) #15
  %77 = call %"struct.std::__1::pair.276"* @_ZNSt3__16vectorINS_4pairIN5blink5mojom11StorageTypeEN4base8flat_mapIPN7storage11QuotaClientENS7_15QuotaClientTypeENS_4lessIvEENS0_INS1_IS9_SA_EENS_9allocatorISD_EEEEEEEENSE_ISI_EEE7emplaceIJS4_SH_EEENS_11__wrap_iterIPSI_EENSM_IPKSI_EEDpOT_(%"class.std::__1::vector.274"* %76, %"struct.std::__1::pair.276"* %68, i32* nonnull dereferenceable(4) %10, %"class.base::flat_map.403"* nonnull dereferenceable(24) %6) #15
  %78 = getelementptr inbounds %"class.base::flat_map.403", %"class.base::flat_map.403"* %6, i64 0, i32 0, i32 0, i32 0, i32 0
  %79 = load %"struct.std::__1::pair.407"*, %"struct.std::__1::pair.407"** %78, align 8
  %80 = icmp eq %"struct.std::__1::pair.407"* %79, null
  br i1 %80, label %86, label %81

81:                                               ; preds = %74
  %82 = ptrtoint %"struct.std::__1::pair.407"* %79 to i64
  %83 = getelementptr inbounds %"class.base::flat_map.403", %"class.base::flat_map.403"* %6, i64 0, i32 0, i32 0, i32 0, i32 1
  %84 = bitcast %"struct.std::__1::pair.407"** %83 to i64*
  store i64 %82, i64* %84, align 8
  %85 = bitcast %"struct.std::__1::pair.407"* %79 to i8*
  call void @_ZdlPv(i8* %85) #16
  br label %86

86:                                               ; preds = %81, %74
  call void @llvm.lifetime.end.p0i8(i64 24, i8* nonnull %75) #15
  br label %87

87:                                               ; preds = %70, %86
  %88 = phi %"struct.std::__1::pair.276"* [ %77, %86 ], [ %68, %70 ]
  %89 = getelementptr inbounds %"struct.std::__1::pair.276", %"struct.std::__1::pair.276"* %88, i64 0, i32 1
  %90 = getelementptr inbounds %"class.storage::QuotaManagerImpl", %"class.storage::QuotaManagerImpl"* %0, i64 0, i32 38, i32 0
  %91 = load %"class.storage::SpecialStoragePolicy"*, %"class.storage::SpecialStoragePolicy"** %90, align 8
  %92 = call i8* @_Znwm(i64 136) #16
  %93 = bitcast i8* %92 to %"class.storage::UsageTracker"*
  %94 = icmp eq %"class.storage::SpecialStoragePolicy"* %91, null
  br i1 %94, label %98, label %95

95:                                               ; preds = %87
  %96 = getelementptr inbounds %"class.storage::SpecialStoragePolicy", %"class.storage::SpecialStoragePolicy"* %91, i64 0, i32 1, i32 0, i32 0, i32 0, i32 0, i32 0, i32 0, i32 0, i32 0
  %97 = atomicrmw add i32* %96, i32 1 monotonic
  br label %98

98:                                               ; preds = %87, %95
  call void @_ZN7storage12UsageTrackerC1ERKN4base8flat_mapIPNS_11QuotaClientENS_15QuotaClientTypeENSt3__14lessIvEENS6_6vectorINS6_4pairIS4_S5_EENS6_9allocatorISB_EEEEEEN5blink5mojom11StorageTypeE13scoped_refptrINS_20SpecialStoragePolicyEE(%"class.storage::UsageTracker"* nonnull %93, %"class.base::flat_map.403"* dereferenceable(24) %89, i32 0, %"class.storage::SpecialStoragePolicy"* %91) #15
  %99 = ptrtoint i8* %92 to i64
  %100 = getelementptr inbounds %"class.storage::QuotaManagerImpl", %"class.storage::QuotaManagerImpl"* %0, i64 0, i32 29
  %101 = getelementptr inbounds %"class.std::__1::unique_ptr.282", %"class.std::__1::unique_ptr.282"* %100, i64 0, i32 0, i32 0, i32 0
  %102 = load %"class.storage::UsageTracker"*, %"class.storage::UsageTracker"** %101, align 8
  %103 = bitcast %"class.std::__1::unique_ptr.282"* %100 to i64*
  store i64 %99, i64* %103, align 8
  %104 = icmp eq %"class.storage::UsageTracker"* %102, null
  br i1 %104, label %110, label %105

105:                                              ; preds = %98
  %106 = bitcast %"class.storage::UsageTracker"* %102 to void (%"class.storage::UsageTracker"*)***
  %107 = load void (%"class.storage::UsageTracker"*)**, void (%"class.storage::UsageTracker"*)*** %106, align 8
  %108 = getelementptr inbounds void (%"class.storage::UsageTracker"*)*, void (%"class.storage::UsageTracker"*)** %107, i64 1
  %109 = load void (%"class.storage::UsageTracker"*)*, void (%"class.storage::UsageTracker"*)** %108, align 8
  call void %109(%"class.storage::UsageTracker"* nonnull %102) #15
  br label %110

110:                                              ; preds = %105, %98
  call void @llvm.lifetime.end.p0i8(i64 4, i8* nonnull %41) #15
  %111 = bitcast i32* %11 to i8*
  call void @llvm.lifetime.start.p0i8(i64 4, i8* nonnull %111) #15
  store i32 1, i32* %11, align 4
  %112 = load %"struct.std::__1::pair.276"*, %"struct.std::__1::pair.276"** %42, align 8
  %113 = load i64, i64* %45, align 8
  %114 = ptrtoint %"struct.std::__1::pair.276"* %112 to i64
  %115 = sub i64 %113, %114
  %116 = icmp eq i64 %115, 0
  %117 = inttoptr i64 %113 to %"struct.std::__1::pair.276"*
  br i1 %116, label %134, label %118

118:                                              ; preds = %110
  %119 = ashr exact i64 %115, 5
  br label %120

120:                                              ; preds = %120, %118
  %121 = phi %"struct.std::__1::pair.276"* [ %112, %118 ], [ %132, %120 ]
  %122 = phi i64 [ %119, %118 ], [ %131, %120 ]
  %123 = lshr i64 %122, 1
  %124 = getelementptr inbounds %"struct.std::__1::pair.276", %"struct.std::__1::pair.276"* %121, i64 %123
  %125 = getelementptr inbounds %"struct.std::__1::pair.276", %"struct.std::__1::pair.276"* %124, i64 0, i32 0
  %126 = load i32, i32* %125, align 4
  %127 = icmp slt i32 %126, 1
  %128 = getelementptr inbounds %"struct.std::__1::pair.276", %"struct.std::__1::pair.276"* %124, i64 1
  %129 = xor i64 %123, -1
  %130 = add i64 %122, %129
  %131 = select i1 %127, i64 %130, i64 %123
  %132 = select i1 %127, %"struct.std::__1::pair.276"* %128, %"struct.std::__1::pair.276"* %121
  %133 = icmp eq i64 %131, 0
  br i1 %133, label %134, label %120

134:                                              ; preds = %120, %110
  %135 = phi %"struct.std::__1::pair.276"* [ %112, %110 ], [ %132, %120 ]
  %136 = icmp eq %"struct.std::__1::pair.276"* %135, %117
  br i1 %136, label %141, label %137

137:                                              ; preds = %134
  %138 = getelementptr inbounds %"struct.std::__1::pair.276", %"struct.std::__1::pair.276"* %135, i64 0, i32 0
  %139 = load i32, i32* %138, align 4
  %140 = icmp sgt i32 %139, 1
  br i1 %140, label %141, label %154

141:                                              ; preds = %137, %134
  %142 = bitcast %"class.base::flat_map.403"* %5 to i8*
  call void @llvm.lifetime.start.p0i8(i64 24, i8* nonnull %142) #15
  %143 = getelementptr inbounds %"class.base::flat_map", %"class.base::flat_map"* %40, i64 0, i32 0, i32 0
  call void @llvm.memset.p0i8.i64(i8* nonnull align 8 %142, i8 0, i64 24, i1 false) #15
  %144 = call %"struct.std::__1::pair.276"* @_ZNSt3__16vectorINS_4pairIN5blink5mojom11StorageTypeEN4base8flat_mapIPN7storage11QuotaClientENS7_15QuotaClientTypeENS_4lessIvEENS0_INS1_IS9_SA_EENS_9allocatorISD_EEEEEEEENSE_ISI_EEE7emplaceIJS4_SH_EEENS_11__wrap_iterIPSI_EENSM_IPKSI_EEDpOT_(%"class.std::__1::vector.274"* %143, %"struct.std::__1::pair.276"* %135, i32* nonnull dereferenceable(4) %11, %"class.base::flat_map.403"* nonnull dereferenceable(24) %5) #15
  %145 = getelementptr inbounds %"class.base::flat_map.403", %"class.base::flat_map.403"* %5, i64 0, i32 0, i32 0, i32 0, i32 0
  %146 = load %"struct.std::__1::pair.407"*, %"struct.std::__1::pair.407"** %145, align 8
  %147 = icmp eq %"struct.std::__1::pair.407"* %146, null
  br i1 %147, label %153, label %148

148:                                              ; preds = %141
  %149 = ptrtoint %"struct.std::__1::pair.407"* %146 to i64
  %150 = getelementptr inbounds %"class.base::flat_map.403", %"class.base::flat_map.403"* %5, i64 0, i32 0, i32 0, i32 0, i32 1
  %151 = bitcast %"struct.std::__1::pair.407"** %150 to i64*
  store i64 %149, i64* %151, align 8
  %152 = bitcast %"struct.std::__1::pair.407"* %146 to i8*
  call void @_ZdlPv(i8* %152) #16
  br label %153

153:                                              ; preds = %148, %141
  call void @llvm.lifetime.end.p0i8(i64 24, i8* nonnull %142) #15
  br label %154

154:                                              ; preds = %137, %153
  %155 = phi %"struct.std::__1::pair.276"* [ %144, %153 ], [ %135, %137 ]
  %156 = getelementptr inbounds %"struct.std::__1::pair.276", %"struct.std::__1::pair.276"* %155, i64 0, i32 1
  %157 = load %"class.storage::SpecialStoragePolicy"*, %"class.storage::SpecialStoragePolicy"** %90, align 8
  %158 = call i8* @_Znwm(i64 136) #16
  %159 = bitcast i8* %158 to %"class.storage::UsageTracker"*
  %160 = icmp eq %"class.storage::SpecialStoragePolicy"* %157, null
  br i1 %160, label %164, label %161

161:                                              ; preds = %154
  %162 = getelementptr inbounds %"class.storage::SpecialStoragePolicy", %"class.storage::SpecialStoragePolicy"* %157, i64 0, i32 1, i32 0, i32 0, i32 0, i32 0, i32 0, i32 0, i32 0, i32 0
  %163 = atomicrmw add i32* %162, i32 1 monotonic
  br label %164

164:                                              ; preds = %154, %161
  call void @_ZN7storage12UsageTrackerC1ERKN4base8flat_mapIPNS_11QuotaClientENS_15QuotaClientTypeENSt3__14lessIvEENS6_6vectorINS6_4pairIS4_S5_EENS6_9allocatorISB_EEEEEEN5blink5mojom11StorageTypeE13scoped_refptrINS_20SpecialStoragePolicyEE(%"class.storage::UsageTracker"* nonnull %159, %"class.base::flat_map.403"* dereferenceable(24) %156, i32 1, %"class.storage::SpecialStoragePolicy"* %157) #15
  %165 = ptrtoint i8* %158 to i64
  %166 = getelementptr inbounds %"class.storage::QuotaManagerImpl", %"class.storage::QuotaManagerImpl"* %0, i64 0, i32 30
  %167 = getelementptr inbounds %"class.std::__1::unique_ptr.282", %"class.std::__1::unique_ptr.282"* %166, i64 0, i32 0, i32 0, i32 0
  %168 = load %"class.storage::UsageTracker"*, %"class.storage::UsageTracker"** %167, align 8
  %169 = bitcast %"class.std::__1::unique_ptr.282"* %166 to i64*
  store i64 %165, i64* %169, align 8
  %170 = icmp eq %"class.storage::UsageTracker"* %168, null
  br i1 %170, label %176, label %171

171:                                              ; preds = %164
  %172 = bitcast %"class.storage::UsageTracker"* %168 to void (%"class.storage::UsageTracker"*)***
  %173 = load void (%"class.storage::UsageTracker"*)**, void (%"class.storage::UsageTracker"*)*** %172, align 8
  %174 = getelementptr inbounds void (%"class.storage::UsageTracker"*)*, void (%"class.storage::UsageTracker"*)** %173, i64 1
  %175 = load void (%"class.storage::UsageTracker"*)*, void (%"class.storage::UsageTracker"*)** %174, align 8
  call void %175(%"class.storage::UsageTracker"* nonnull %168) #15
  br label %176

176:                                              ; preds = %171, %164
  call void @llvm.lifetime.end.p0i8(i64 4, i8* nonnull %111) #15
  %177 = bitcast i32* %12 to i8*
  call void @llvm.lifetime.start.p0i8(i64 4, i8* nonnull %177) #15
  store i32 2, i32* %12, align 4
  %178 = load %"struct.std::__1::pair.276"*, %"struct.std::__1::pair.276"** %42, align 8
  %179 = load i64, i64* %45, align 8
  %180 = ptrtoint %"struct.std::__1::pair.276"* %178 to i64
  %181 = sub i64 %179, %180
  %182 = icmp eq i64 %181, 0
  %183 = inttoptr i64 %179 to %"struct.std::__1::pair.276"*
  br i1 %182, label %200, label %184

184:                                              ; preds = %176
  %185 = ashr exact i64 %181, 5
  br label %186

186:                                              ; preds = %186, %184
  %187 = phi %"struct.std::__1::pair.276"* [ %178, %184 ], [ %198, %186 ]
  %188 = phi i64 [ %185, %184 ], [ %197, %186 ]
  %189 = lshr i64 %188, 1
  %190 = getelementptr inbounds %"struct.std::__1::pair.276", %"struct.std::__1::pair.276"* %187, i64 %189
  %191 = getelementptr inbounds %"struct.std::__1::pair.276", %"struct.std::__1::pair.276"* %190, i64 0, i32 0
  %192 = load i32, i32* %191, align 4
  %193 = icmp slt i32 %192, 2
  %194 = getelementptr inbounds %"struct.std::__1::pair.276", %"struct.std::__1::pair.276"* %190, i64 1
  %195 = xor i64 %189, -1
  %196 = add i64 %188, %195
  %197 = select i1 %193, i64 %196, i64 %189
  %198 = select i1 %193, %"struct.std::__1::pair.276"* %194, %"struct.std::__1::pair.276"* %187
  %199 = icmp eq i64 %197, 0
  br i1 %199, label %200, label %186

200:                                              ; preds = %186, %176
  %201 = phi %"struct.std::__1::pair.276"* [ %178, %176 ], [ %198, %186 ]
  %202 = icmp eq %"struct.std::__1::pair.276"* %201, %183
  br i1 %202, label %207, label %203

203:                                              ; preds = %200
  %204 = getelementptr inbounds %"struct.std::__1::pair.276", %"struct.std::__1::pair.276"* %201, i64 0, i32 0
  %205 = load i32, i32* %204, align 4
  %206 = icmp sgt i32 %205, 2
  br i1 %206, label %207, label %220

207:                                              ; preds = %203, %200
  %208 = bitcast %"class.base::flat_map.403"* %4 to i8*
  call void @llvm.lifetime.start.p0i8(i64 24, i8* nonnull %208) #15
  %209 = getelementptr inbounds %"class.base::flat_map", %"class.base::flat_map"* %40, i64 0, i32 0, i32 0
  call void @llvm.memset.p0i8.i64(i8* nonnull align 8 %208, i8 0, i64 24, i1 false) #15
  %210 = call %"struct.std::__1::pair.276"* @_ZNSt3__16vectorINS_4pairIN5blink5mojom11StorageTypeEN4base8flat_mapIPN7storage11QuotaClientENS7_15QuotaClientTypeENS_4lessIvEENS0_INS1_IS9_SA_EENS_9allocatorISD_EEEEEEEENSE_ISI_EEE7emplaceIJS4_SH_EEENS_11__wrap_iterIPSI_EENSM_IPKSI_EEDpOT_(%"class.std::__1::vector.274"* %209, %"struct.std::__1::pair.276"* %201, i32* nonnull dereferenceable(4) %12, %"class.base::flat_map.403"* nonnull dereferenceable(24) %4) #15
  %211 = getelementptr inbounds %"class.base::flat_map.403", %"class.base::flat_map.403"* %4, i64 0, i32 0, i32 0, i32 0, i32 0
  %212 = load %"struct.std::__1::pair.407"*, %"struct.std::__1::pair.407"** %211, align 8
  %213 = icmp eq %"struct.std::__1::pair.407"* %212, null
  br i1 %213, label %219, label %214

214:                                              ; preds = %207
  %215 = ptrtoint %"struct.std::__1::pair.407"* %212 to i64
  %216 = getelementptr inbounds %"class.base::flat_map.403", %"class.base::flat_map.403"* %4, i64 0, i32 0, i32 0, i32 0, i32 1
  %217 = bitcast %"struct.std::__1::pair.407"** %216 to i64*
  store i64 %215, i64* %217, align 8
  %218 = bitcast %"struct.std::__1::pair.407"* %212 to i8*
  call void @_ZdlPv(i8* %218) #16
  br label %219

219:                                              ; preds = %214, %207
  call void @llvm.lifetime.end.p0i8(i64 24, i8* nonnull %208) #15
  br label %220

220:                                              ; preds = %203, %219
  %221 = phi %"struct.std::__1::pair.276"* [ %210, %219 ], [ %201, %203 ]
  %222 = getelementptr inbounds %"struct.std::__1::pair.276", %"struct.std::__1::pair.276"* %221, i64 0, i32 1
  %223 = load %"class.storage::SpecialStoragePolicy"*, %"class.storage::SpecialStoragePolicy"** %90, align 8
  %224 = call i8* @_Znwm(i64 136) #16
  %225 = bitcast i8* %224 to %"class.storage::UsageTracker"*
  %226 = icmp eq %"class.storage::SpecialStoragePolicy"* %223, null
  br i1 %226, label %230, label %227

227:                                              ; preds = %220
  %228 = getelementptr inbounds %"class.storage::SpecialStoragePolicy", %"class.storage::SpecialStoragePolicy"* %223, i64 0, i32 1, i32 0, i32 0, i32 0, i32 0, i32 0, i32 0, i32 0, i32 0
  %229 = atomicrmw add i32* %228, i32 1 monotonic
  br label %230

230:                                              ; preds = %220, %227
  call void @_ZN7storage12UsageTrackerC1ERKN4base8flat_mapIPNS_11QuotaClientENS_15QuotaClientTypeENSt3__14lessIvEENS6_6vectorINS6_4pairIS4_S5_EENS6_9allocatorISB_EEEEEEN5blink5mojom11StorageTypeE13scoped_refptrINS_20SpecialStoragePolicyEE(%"class.storage::UsageTracker"* nonnull %225, %"class.base::flat_map.403"* dereferenceable(24) %222, i32 2, %"class.storage::SpecialStoragePolicy"* %223) #15
  %231 = ptrtoint i8* %224 to i64
  %232 = getelementptr inbounds %"class.storage::QuotaManagerImpl", %"class.storage::QuotaManagerImpl"* %0, i64 0, i32 31
  %233 = getelementptr inbounds %"class.std::__1::unique_ptr.282", %"class.std::__1::unique_ptr.282"* %232, i64 0, i32 0, i32 0, i32 0
  %234 = load %"class.storage::UsageTracker"*, %"class.storage::UsageTracker"** %233, align 8
  %235 = bitcast %"class.std::__1::unique_ptr.282"* %232 to i64*
  store i64 %231, i64* %235, align 8
  %236 = icmp eq %"class.storage::UsageTracker"* %234, null
  br i1 %236, label %242, label %237

237:                                              ; preds = %230
  %238 = bitcast %"class.storage::UsageTracker"* %234 to void (%"class.storage::UsageTracker"*)***
  %239 = load void (%"class.storage::UsageTracker"*)**, void (%"class.storage::UsageTracker"*)*** %238, align 8
  %240 = getelementptr inbounds void (%"class.storage::UsageTracker"*)*, void (%"class.storage::UsageTracker"*)** %239, i64 1
  %241 = load void (%"class.storage::UsageTracker"*)*, void (%"class.storage::UsageTracker"*)** %240, align 8
  call void %241(%"class.storage::UsageTracker"* nonnull %234) #15
  br label %242

242:                                              ; preds = %237, %230
  call void @llvm.lifetime.end.p0i8(i64 4, i8* nonnull %177) #15
  %243 = load i8, i8* %24, align 8, !range !15
  %244 = icmp eq i8 %243, 0
  br i1 %244, label %245, label %262

245:                                              ; preds = %242
  %246 = getelementptr inbounds %"class.storage::QuotaManagerImpl", %"class.storage::QuotaManagerImpl"* %0, i64 0, i32 39
  %247 = bitcast %"class.base::Location"* %13 to i8*
  call void @llvm.lifetime.start.p0i8(i64 32, i8* nonnull %247) #15
  call void @_ZN4base8Location7CurrentEPKcS2_i(%"class.base::Location"* nonnull sret %13, i8* getelementptr inbounds ([15 x i8], [15 x i8]* @.str.7, i64 0, i64 0), i8* getelementptr inbounds ([50 x i8], [50 x i8]* @.str.1, i64 0, i64 0), i32 1326) #15
  %248 = bitcast %"class.base::RepeatingCallback.55"* %3 to i8*
  call void @llvm.lifetime.start.p0i8(i64 8, i8* nonnull %248)
  %249 = ptrtoint %"class.storage::QuotaManagerImpl"* %0 to i64
  %250 = call i8* @_Znwm(i64 56) #16, !noalias !16
  %251 = bitcast i8* %250 to %"class.base::internal::BindStateBase"*
  call void @_ZN4base8internal13BindStateBaseC2EPFvvEPFvPKS1_E(%"class.base::internal::BindStateBase"* nonnull %251, void ()* bitcast (void (%"class.base::internal::BindStateBase"*)* @_ZN4base8internal7InvokerINS0_9BindStateIMN7storage16QuotaManagerImplEFvvEJNS0_17UnretainedWrapperIS4_EEEEEFvvEE3RunEPNS0_13BindStateBaseE to void ()*), void (%"class.base::internal::BindStateBase"*)* nonnull @_ZN4base8internal9BindStateIMN7storage16QuotaManagerImplEFvvEJNS0_17UnretainedWrapperIS3_EEEE7DestroyEPKNS0_13BindStateBaseE) #15, !noalias !16
  %252 = getelementptr inbounds i8, i8* %250, i64 32
  %253 = bitcast i8* %252 to <2 x i64>*
  store <2 x i64> <i64 ptrtoint (void (%"class.storage::QuotaManagerImpl"*)* @_ZN7storage16QuotaManagerImpl15ReportHistogramEv to i64), i64 0>, <2 x i64>* %253, align 8, !noalias !16
  %254 = getelementptr inbounds i8, i8* %250, i64 48
  %255 = bitcast i8* %254 to i64*
  store i64 %249, i64* %255, align 8, !noalias !16
  %256 = bitcast %"class.base::RepeatingCallback.55"* %3 to i8**
  store i8* %250, i8** %256, align 8, !alias.scope !16
  %257 = bitcast %"class.base::RepeatingTimer"* %246 to void (%"class.base::RepeatingTimer"*, %"class.base::Location"*, i64, %"class.base::RepeatingCallback.55"*)***
  %258 = load void (%"class.base::RepeatingTimer"*, %"class.base::Location"*, i64, %"class.base::RepeatingCallback.55"*)**, void (%"class.base::RepeatingTimer"*, %"class.base::Location"*, i64, %"class.base::RepeatingCallback.55"*)*** %257, align 8
  %259 = getelementptr inbounds void (%"class.base::RepeatingTimer"*, %"class.base::Location"*, i64, %"class.base::RepeatingCallback.55"*)*, void (%"class.base::RepeatingTimer"*, %"class.base::Location"*, i64, %"class.base::RepeatingCallback.55"*)** %258, i64 7
  %260 = load void (%"class.base::RepeatingTimer"*, %"class.base::Location"*, i64, %"class.base::RepeatingCallback.55"*)*, void (%"class.base::RepeatingTimer"*, %"class.base::Location"*, i64, %"class.base::RepeatingCallback.55"*)** %259, align 8
  call void %260(%"class.base::RepeatingTimer"* %246, %"class.base::Location"* nonnull dereferenceable(32) %13, i64 3600000000, %"class.base::RepeatingCallback.55"* nonnull %3) #15
  %261 = getelementptr inbounds %"class.base::RepeatingCallback.55", %"class.base::RepeatingCallback.55"* %3, i64 0, i32 0, i32 0
  call void @_ZN4base8internal12CallbackBaseD2Ev(%"class.base::internal::CallbackBase"* nonnull %261) #15
  call void @llvm.lifetime.end.p0i8(i64 8, i8* nonnull %248)
  call void @llvm.lifetime.end.p0i8(i64 32, i8* nonnull %247) #15
  br label %262

262:                                              ; preds = %242, %245
  %263 = getelementptr inbounds %"class.storage::QuotaManagerImpl", %"class.storage::QuotaManagerImpl"* %0, i64 0, i32 10, i32 0
  %264 = bitcast %"class.base::SequencedTaskRunner"** %263 to %"class.base::TaskRunner"**
  %265 = load %"class.base::TaskRunner"*, %"class.base::TaskRunner"** %264, align 8
  %266 = bitcast %"class.base::Location"* %14 to i8*
  call void @llvm.lifetime.start.p0i8(i64 32, i8* nonnull %266) #15
  call void @_ZN4base8Location7CurrentEPKcS2_i(%"class.base::Location"* nonnull sret %14, i8* getelementptr inbounds ([15 x i8], [15 x i8]* @.str.7, i64 0, i64 0), i8* getelementptr inbounds ([50 x i8], [50 x i8]* @.str.1, i64 0, i64 0), i32 1331) #15
  %267 = load i64, i64* %35, align 8
  %268 = call i8* @_Znwm(i64 56) #16, !noalias !21
  %269 = bitcast i8* %268 to %"class.base::internal::BindStateBase"*
  call void @_ZN4base8internal13BindStateBaseC2EPFvvEPFvPKS1_E(%"class.base::internal::BindStateBase"* nonnull %269, void ()* bitcast (i1 (%"class.base::internal::BindStateBase"*)* @_ZN4base8internal7InvokerINS0_9BindStateIMN7storage13QuotaDatabaseEFbvEJNS0_17UnretainedWrapperIS4_EEEEEFbvEE7RunOnceEPNS0_13BindStateBaseE to void ()*), void (%"class.base::internal::BindStateBase"*)* nonnull @_ZN4base8internal9BindStateIMN7storage13QuotaDatabaseEFbvEJNS0_17UnretainedWrapperIS3_EEEE7DestroyEPKNS0_13BindStateBaseE) #15, !noalias !21
  %270 = getelementptr inbounds i8, i8* %268, i64 32
  %271 = bitcast i8* %270 to <2 x i64>*
  store <2 x i64> <i64 ptrtoint (i1 (%"class.storage::QuotaDatabase"*)* @_ZN7storage13QuotaDatabase28IsOriginDatabaseBootstrappedEv to i64), i64 0>, <2 x i64>* %271, align 8, !noalias !21
  %272 = getelementptr inbounds i8, i8* %268, i64 48
  %273 = bitcast i8* %272 to i64*
  store i64 %267, i64* %273, align 8, !noalias !21
  %274 = bitcast %"class.base::WeakPtr.363"* %17 to i8*
  call void @llvm.lifetime.start.p0i8(i64 16, i8* nonnull %274) #15
  %275 = bitcast %"class.base::internal::WeakReference"* %2 to i8*
  call void @llvm.lifetime.start.p0i8(i64 8, i8* nonnull %275) #15, !noalias !26
  %276 = getelementptr inbounds %"class.storage::QuotaManagerImpl", %"class.storage::QuotaManagerImpl"* %0, i64 0, i32 41, i32 0, i32 0
  call void @_ZNK4base8internal18WeakReferenceOwner6GetRefEv(%"class.base::internal::WeakReference"* nonnull sret %2, %"class.base::internal::WeakReferenceOwner"* %276) #15, !noalias !26
  %277 = getelementptr inbounds %"class.storage::QuotaManagerImpl", %"class.storage::QuotaManagerImpl"* %0, i64 0, i32 41, i32 0, i32 1
  %278 = load i64, i64* %277, align 8, !noalias !26
  %279 = getelementptr inbounds %"class.base::WeakPtr.363", %"class.base::WeakPtr.363"* %17, i64 0, i32 0
  call void @_ZN4base8internal11WeakPtrBaseC2ERKNS0_13WeakReferenceEm(%"class.base::internal::WeakPtrBase"* nonnull %279, %"class.base::internal::WeakReference"* nonnull dereferenceable(8) %2, i64 %278) #15
  call void @_ZN4base8internal13WeakReferenceD1Ev(%"class.base::internal::WeakReference"* nonnull %2) #15
  call void @llvm.lifetime.end.p0i8(i64 8, i8* nonnull %275) #15, !noalias !26
  %280 = call i8* @_Znwm(i64 64) #16, !noalias !29
  %281 = bitcast i8* %280 to %"class.base::internal::BindStateBase"*
  call void @_ZN4base8internal13BindStateBaseC2EPFvvEPFvPKS1_EPFbS5_NS1_21CancellationQueryModeEE(%"class.base::internal::BindStateBase"* nonnull %281, void ()* bitcast (void (%"class.base::internal::BindStateBase"*, i1)* @_ZN4base8internal7InvokerINS0_9BindStateIMN7storage16QuotaManagerImplEFvbEJNS_7WeakPtrIS4_EEEEEFvbEE7RunOnceEPNS0_13BindStateBaseEb to void ()*), void (%"class.base::internal::BindStateBase"*)* nonnull @_ZN4base8internal9BindStateIMN7storage16QuotaManagerImplEFvbEJNS_7WeakPtrIS3_EEEE7DestroyEPKNS0_13BindStateBaseE, i1 (%"class.base::internal::BindStateBase"*, i32)* nonnull @_ZN4base8internal23QueryCancellationTraitsINS0_9BindStateIMN7storage16QuotaManagerImplEFvbEJNS_7WeakPtrIS4_EEEEEEEbPKNS0_13BindStateBaseENSA_21CancellationQueryModeE) #15, !noalias !29
  %282 = getelementptr inbounds i8, i8* %280, i64 32
  %283 = bitcast i8* %282 to <2 x i64>*
  store <2 x i64> <i64 ptrtoint (void (%"class.storage::QuotaManagerImpl"*, i1)* @_ZN7storage16QuotaManagerImpl20FinishLazyInitializeEb to i64), i64 0>, <2 x i64>* %283, align 8, !noalias !29
  %284 = getelementptr inbounds i8, i8* %280, i64 48
  %285 = bitcast i8* %284 to %"class.base::internal::WeakReference"*
  %286 = getelementptr inbounds %"class.base::WeakPtr.363", %"class.base::WeakPtr.363"* %17, i64 0, i32 0, i32 0
  call void @_ZN4base8internal13WeakReferenceC1EOS1_(%"class.base::internal::WeakReference"* %285, %"class.base::internal::WeakReference"* nonnull dereferenceable(8) %286) #15, !noalias !29
  %287 = getelementptr inbounds i8, i8* %280, i64 56
  %288 = bitcast i8* %287 to i64*
  %289 = getelementptr inbounds %"class.base::WeakPtr.363", %"class.base::WeakPtr.363"* %17, i64 0, i32 0, i32 1
  %290 = load i64, i64* %289, align 8, !noalias !29
  store i64 %290, i64* %288, align 8, !noalias !29
  %291 = bitcast %"class.base::OnceCallback"* %7 to i8*
  call void @llvm.lifetime.start.p0i8(i64 8, i8* nonnull %291)
  %292 = bitcast %"class.base::OnceCallback"* %8 to i8*
  call void @llvm.lifetime.start.p0i8(i64 8, i8* nonnull %292)
  %293 = call i8* @_Znwm(i64 8) #16
  %294 = bitcast i8* %293 to i64*
  store i64 0, i64* %294, align 8
  %295 = ptrtoint i8* %293 to i64
  %296 = call i8* @_Znwm(i64 56) #16, !noalias !34
  %297 = bitcast i8* %296 to %"class.base::internal::BindStateBase"*
  call void @_ZN4base8internal13BindStateBaseC2EPFvvEPFvPKS1_E(%"class.base::internal::BindStateBase"* nonnull %297, void ()* bitcast (void (%"class.base::internal::BindStateBase"*)* @_ZN4base8internal7InvokerINS0_9BindStateIPFvNS_12OnceCallbackIFbvEEEPNSt3__110unique_ptrIbNS6_14default_deleteIbEEEEEJS5_SB_EEEFvvEE7RunOnceEPNS0_13BindStateBaseE to void ()*), void (%"class.base::internal::BindStateBase"*)* nonnull @_ZN4base8internal9BindStateIPFvNS_12OnceCallbackIFbvEEEPNSt3__110unique_ptrIbNS5_14default_deleteIbEEEEEJS4_SA_EE7DestroyEPKNS0_13BindStateBaseE) #15, !noalias !34
  %298 = getelementptr inbounds i8, i8* %296, i64 32
  %299 = bitcast i8* %298 to i64*
  store i64 ptrtoint (void (%"class.base::OnceCallback.452"*, %"class.std::__1::unique_ptr.852"*)* @_ZN4base8internal20ReturnAsParamAdapterIbEEvNS_12OnceCallbackIFT_vEEEPNSt3__110unique_ptrIS3_NS6_14default_deleteIS3_EEEE to i64), i64* %299, align 8, !noalias !34
  %300 = getelementptr inbounds i8, i8* %296, i64 40
  %301 = getelementptr inbounds %"class.base::OnceCallback.452", %"class.base::OnceCallback.452"* %15, i64 0, i32 0, i32 0, i32 0
  %302 = ptrtoint i8* %268 to i64
  %303 = bitcast i8* %300 to i64*
  store i64 %302, i64* %303, align 8, !noalias !34
  store %"class.base::internal::BindStateBase"* null, %"class.base::internal::BindStateBase"** %301, align 8, !noalias !34
  %304 = getelementptr inbounds i8, i8* %296, i64 48
  %305 = bitcast i8* %304 to i64*
  store i64 %295, i64* %305, align 8, !noalias !34
  %306 = bitcast %"class.base::OnceCallback"* %7 to i8**
  store i8* %296, i8** %306, align 8, !alias.scope !34
  %307 = call i8* @_Znwm(i64 56) #16, !noalias !39
  %308 = bitcast i8* %307 to %"class.base::internal::BindStateBase"*
  call void @_ZN4base8internal13BindStateBaseC2EPFvvEPFvPKS1_E(%"class.base::internal::BindStateBase"* nonnull %308, void ()* bitcast (void (%"class.base::internal::BindStateBase"*)* @_ZN4base8internal7InvokerINS0_9BindStateIPFvNS_12OnceCallbackIFvbEEEPNSt3__110unique_ptrIbNS6_14default_deleteIbEEEEEJS5_NS0_12OwnedWrapperISA_NS8_ISA_EEEEEEEFvvEE7RunOnceEPNS0_13BindStateBaseE to void ()*), void (%"class.base::internal::BindStateBase"*)* nonnull @_ZN4base8internal9BindStateIPFvNS_12OnceCallbackIFvbEEEPNSt3__110unique_ptrIbNS5_14default_deleteIbEEEEEJS4_NS0_12OwnedWrapperIS9_NS7_IS9_EEEEEE7DestroyEPKNS0_13BindStateBaseE) #15, !noalias !39
  %309 = getelementptr inbounds i8, i8* %307, i64 32
  %310 = bitcast i8* %309 to i64*
  store i64 ptrtoint (void (%"class.base::OnceCallback.416"*, %"class.std::__1::unique_ptr.852"*)* @_ZN4base8internal12ReplyAdapterIbbEEvNS_12OnceCallbackIFvT0_EEEPNSt3__110unique_ptrIT_NS6_14default_deleteIS8_EEEE to i64), i64* %310, align 8, !noalias !39
  %311 = getelementptr inbounds i8, i8* %307, i64 40
  %312 = getelementptr inbounds %"class.base::OnceCallback.416", %"class.base::OnceCallback.416"* %16, i64 0, i32 0, i32 0, i32 0
  %313 = ptrtoint i8* %280 to i64
  %314 = bitcast i8* %311 to i64*
  store i64 %313, i64* %314, align 8, !noalias !39
  store %"class.base::internal::BindStateBase"* null, %"class.base::internal::BindStateBase"** %312, align 8, !noalias !39
  %315 = getelementptr inbounds i8, i8* %307, i64 48
  %316 = bitcast i8* %315 to i64*
  store i64 %295, i64* %316, align 8, !noalias !39
  %317 = bitcast %"class.base::OnceCallback"* %8 to i8**
  store i8* %307, i8** %317, align 8, !alias.scope !39
  %318 = call zeroext i1 @_ZN4base10TaskRunner16PostTaskAndReplyERKNS_8LocationENS_12OnceCallbackIFvvEEES6_(%"class.base::TaskRunner"* %265, %"class.base::Location"* nonnull dereferenceable(32) %14, %"class.base::OnceCallback"* nonnull %7, %"class.base::OnceCallback"* nonnull %8) #15
  %319 = getelementptr inbounds %"class.base::OnceCallback", %"class.base::OnceCallback"* %8, i64 0, i32 0
  call void @_ZN4base8internal12CallbackBaseD2Ev(%"class.base::internal::CallbackBase"* nonnull %319) #15
  %320 = getelementptr inbounds %"class.base::OnceCallback", %"class.base::OnceCallback"* %7, i64 0, i32 0
  call void @_ZN4base8internal12CallbackBaseD2Ev(%"class.base::internal::CallbackBase"* nonnull %320) #15
  call void @llvm.lifetime.end.p0i8(i64 8, i8* nonnull %291)
  call void @llvm.lifetime.end.p0i8(i64 8, i8* nonnull %292)
  %321 = getelementptr inbounds %"class.base::OnceCallback.416", %"class.base::OnceCallback.416"* %16, i64 0, i32 0
  call void @_ZN4base8internal12CallbackBaseD2Ev(%"class.base::internal::CallbackBase"* nonnull %321) #15
  call void @_ZN4base8internal11WeakPtrBaseD2Ev(%"class.base::internal::WeakPtrBase"* nonnull %279) #15
  call void @llvm.lifetime.end.p0i8(i64 16, i8* nonnull %274) #15
  %322 = getelementptr inbounds %"class.base::OnceCallback.452", %"class.base::OnceCallback.452"* %15, i64 0, i32 0
  call void @_ZN4base8internal12CallbackBaseD2Ev(%"class.base::internal::CallbackBase"* nonnull %322) #15
  call void @llvm.lifetime.end.p0i8(i64 32, i8* nonnull %266) #15
  br label %323

323:                                              ; preds = %1, %262
  ret void
}

; Function Attrs: nounwind ssp uwtable
define linkonce_odr hidden void @_ZN7storage16QuotaManagerImpl37PostTaskAndReplyWithResultForDBThreadIN4util6IdTypeINS_9BucketTagElLl0ELl1EEEEEvN4base12OnceCallbackIFNS_12QuotaErrorOrIT_EEPNS_13QuotaDatabaseEEEENS7_IFvSA_EEERKNS6_8LocationE(%"class.storage::QuotaManagerImpl"*, %"class.base::OnceCallback.357"*, %"class.base::OnceCallback.356"*, %"class.base::Location"* dereferenceable(32)) local_unnamed_addr #0 comdat align 2 {
  %5 = alloca %"class.logging::CheckError", align 8
  %6 = alloca %"class.base::OnceCallback", align 8
  %7 = alloca %"class.base::OnceCallback", align 8
  %8 = alloca %"class.base::OnceCallback.718", align 8
  %9 = alloca %"class.base::OnceCallback.356", align 8
  %10 = getelementptr inbounds %"class.storage::QuotaManagerImpl", %"class.storage::QuotaManagerImpl"* %0, i64 0, i32 10, i32 0
  %11 = bitcast %"class.base::SequencedTaskRunner"** %10 to %"class.base::TaskRunner"**
  %12 = load %"class.base::TaskRunner"*, %"class.base::TaskRunner"** %11, align 8
  %13 = getelementptr inbounds %"class.storage::QuotaManagerImpl", %"class.storage::QuotaManagerImpl"* %0, i64 0, i32 11, i32 0, i32 0, i32 0
  %14 = bitcast %"class.storage::QuotaDatabase"** %13 to i64*
  %15 = load i64, i64* %14, align 8
  %16 = tail call i8* @_Znwm(i64 48) #16, !noalias !44
  %17 = bitcast i8* %16 to %"class.base::internal::BindStateBase"*
  tail call void @_ZN4base8internal13BindStateBaseC2EPFvvEPFvPKS1_EPFbS5_NS1_21CancellationQueryModeEE(%"class.base::internal::BindStateBase"* nonnull %17, void ()* bitcast (void (%"class.storage::QuotaErrorOr"*, %"class.base::internal::BindStateBase"*)* @_ZN4base8internal7InvokerINS0_9BindStateINS_12OnceCallbackIFN7storage12QuotaErrorOrIN4util6IdTypeINS4_9BucketTagElLl0ELl1EEEEEPNS4_13QuotaDatabaseEEEEJNS0_17UnretainedWrapperISB_EEEEEFSA_vEE7RunOnceEPNS0_13BindStateBaseE to void ()*), void (%"class.base::internal::BindStateBase"*)* nonnull @_ZN4base8internal9BindStateINS_12OnceCallbackIFN7storage12QuotaErrorOrIN4util6IdTypeINS3_9BucketTagElLl0ELl1EEEEEPNS3_13QuotaDatabaseEEEEJNS0_17UnretainedWrapperISA_EEEE7DestroyEPKNS0_13BindStateBaseE, i1 (%"class.base::internal::BindStateBase"*, i32)* nonnull @_ZN4base8internal23QueryCancellationTraitsINS0_9BindStateINS_12OnceCallbackIFN7storage12QuotaErrorOrIN4util6IdTypeINS4_9BucketTagElLl0ELl1EEEEEPNS4_13QuotaDatabaseEEEEJNS0_17UnretainedWrapperISB_EEEEEEEbPKNS0_13BindStateBaseENSI_21CancellationQueryModeE) #15, !noalias !44
  %18 = getelementptr inbounds i8, i8* %16, i64 32
  %19 = getelementptr inbounds %"class.base::OnceCallback.357", %"class.base::OnceCallback.357"* %1, i64 0, i32 0, i32 0, i32 0
  %20 = bitcast %"class.base::OnceCallback.357"* %1 to i64*
  %21 = load i64, i64* %20, align 8, !noalias !44
  %22 = bitcast i8* %18 to i64*
  store i64 %21, i64* %22, align 8, !noalias !44
  store %"class.base::internal::BindStateBase"* null, %"class.base::internal::BindStateBase"** %19, align 8, !noalias !44
  %23 = getelementptr inbounds i8, i8* %16, i64 40
  %24 = bitcast i8* %23 to i64*
  store i64 %15, i64* %24, align 8, !noalias !44
  %25 = icmp eq i64 %21, 0
  br i1 %25, label %26, label %29

26:                                               ; preds = %4
  %27 = bitcast %"class.logging::CheckError"* %5 to i8*
  call void @llvm.lifetime.start.p0i8(i64 8, i8* nonnull %27) #15, !noalias !44
  call void @_ZN7logging10CheckError5CheckEPKciS2_(%"class.logging::CheckError"* nonnull sret %5, i8* getelementptr inbounds ([27 x i8], [27 x i8]* @.str.43, i64 0, i64 0), i32 896, i8* getelementptr inbounds ([18 x i8], [18 x i8]* @.str.44, i64 0, i64 0)) #15, !noalias !44
  %28 = call dereferenceable(160) %"class.std::__1::basic_ostream"* @_ZN7logging10CheckError6streamEv(%"class.logging::CheckError"* nonnull %5) #15, !noalias !44
  call void @_ZN7logging10CheckErrorD1Ev(%"class.logging::CheckError"* nonnull %5) #15, !noalias !44
  call void @llvm.lifetime.end.p0i8(i64 8, i8* nonnull %27) #15, !noalias !44
  br label %29

29:                                               ; preds = %4, %26
  %30 = getelementptr inbounds %"class.base::OnceCallback.356", %"class.base::OnceCallback.356"* %2, i64 0, i32 0, i32 0, i32 0
  %31 = bitcast %"class.base::OnceCallback.356"* %2 to i64*
  %32 = load i64, i64* %31, align 8
  store %"class.base::internal::BindStateBase"* null, %"class.base::internal::BindStateBase"** %30, align 8
  %33 = bitcast %"class.base::OnceCallback"* %6 to i8*
  call void @llvm.lifetime.start.p0i8(i64 8, i8* nonnull %33)
  %34 = bitcast %"class.base::OnceCallback"* %7 to i8*
  call void @llvm.lifetime.start.p0i8(i64 8, i8* nonnull %34)
  %35 = call i8* @_Znwm(i64 8) #16
  %36 = bitcast i8* %35 to i64*
  store i64 0, i64* %36, align 8
  %37 = ptrtoint i8* %35 to i64
  %38 = call i8* @_Znwm(i64 56) #16, !noalias !49
  %39 = bitcast i8* %38 to %"class.base::internal::BindStateBase"*
  call void @_ZN4base8internal13BindStateBaseC2EPFvvEPFvPKS1_E(%"class.base::internal::BindStateBase"* nonnull %39, void ()* bitcast (void (%"class.base::internal::BindStateBase"*)* @_ZN4base8internal7InvokerINS0_9BindStateIPFvNS_12OnceCallbackIFN7storage12QuotaErrorOrIN4util6IdTypeINS4_9BucketTagElLl0ELl1EEEEEvEEEPNSt3__110unique_ptrISA_NSD_14default_deleteISA_EEEEEJSC_SI_EEEFvvEE7RunOnceEPNS0_13BindStateBaseE to void ()*), void (%"class.base::internal::BindStateBase"*)* nonnull @_ZN4base8internal9BindStateIPFvNS_12OnceCallbackIFN7storage12QuotaErrorOrIN4util6IdTypeINS3_9BucketTagElLl0ELl1EEEEEvEEEPNSt3__110unique_ptrIS9_NSC_14default_deleteIS9_EEEEEJSB_SH_EE7DestroyEPKNS0_13BindStateBaseE) #15, !noalias !49
  %40 = getelementptr inbounds i8, i8* %38, i64 32
  %41 = bitcast i8* %40 to i64*
  store i64 ptrtoint (void (%"class.base::OnceCallback.718"*, %"class.std::__1::unique_ptr.719"*)* @_ZN4base8internal20ReturnAsParamAdapterIN7storage12QuotaErrorOrIN4util6IdTypeINS2_9BucketTagElLl0ELl1EEEEEEEvNS_12OnceCallbackIFT_vEEEPNSt3__110unique_ptrISA_NSD_14default_deleteISA_EEEE to i64), i64* %41, align 8, !noalias !49
  %42 = getelementptr inbounds i8, i8* %38, i64 40
  %43 = getelementptr inbounds %"class.base::OnceCallback.718", %"class.base::OnceCallback.718"* %8, i64 0, i32 0, i32 0, i32 0
  %44 = ptrtoint i8* %16 to i64
  %45 = bitcast i8* %42 to i64*
  store i64 %44, i64* %45, align 8, !noalias !49
  store %"class.base::internal::BindStateBase"* null, %"class.base::internal::BindStateBase"** %43, align 8, !noalias !49
  %46 = getelementptr inbounds i8, i8* %38, i64 48
  %47 = bitcast i8* %46 to i64*
  store i64 %37, i64* %47, align 8, !noalias !49
  %48 = bitcast %"class.base::OnceCallback"* %6 to i8**
  store i8* %38, i8** %48, align 8, !alias.scope !49
  %49 = call i8* @_Znwm(i64 56) #16, !noalias !54
  %50 = bitcast i8* %49 to %"class.base::internal::BindStateBase"*
  call void @_ZN4base8internal13BindStateBaseC2EPFvvEPFvPKS1_E(%"class.base::internal::BindStateBase"* nonnull %50, void ()* bitcast (void (%"class.base::internal::BindStateBase"*)* @_ZN4base8internal7InvokerINS0_9BindStateIPFvNS_12OnceCallbackIFvN7storage12QuotaErrorOrIN4util6IdTypeINS4_9BucketTagElLl0ELl1EEEEEEEEPNSt3__110unique_ptrISA_NSD_14default_deleteISA_EEEEEJSC_NS0_12OwnedWrapperISH_NSF_ISH_EEEEEEEFvvEE7RunOnceEPNS0_13BindStateBaseE to void ()*), void (%"class.base::internal::BindStateBase"*)* nonnull @_ZN4base8internal9BindStateIPFvNS_12OnceCallbackIFvN7storage12QuotaErrorOrIN4util6IdTypeINS3_9BucketTagElLl0ELl1EEEEEEEEPNSt3__110unique_ptrIS9_NSC_14default_deleteIS9_EEEEEJSB_NS0_12OwnedWrapperISG_NSE_ISG_EEEEEE7DestroyEPKNS0_13BindStateBaseE) #15, !noalias !54
  %51 = getelementptr inbounds i8, i8* %49, i64 32
  %52 = bitcast i8* %51 to i64*
  store i64 ptrtoint (void (%"class.base::OnceCallback.356"*, %"class.std::__1::unique_ptr.719"*)* @_ZN4base8internal12ReplyAdapterIN7storage12QuotaErrorOrIN4util6IdTypeINS2_9BucketTagElLl0ELl1EEEEES8_EEvNS_12OnceCallbackIFvT0_EEEPNSt3__110unique_ptrIT_NSD_14default_deleteISF_EEEE to i64), i64* %52, align 8, !noalias !54
  %53 = getelementptr inbounds i8, i8* %49, i64 40
  %54 = getelementptr inbounds %"class.base::OnceCallback.356", %"class.base::OnceCallback.356"* %9, i64 0, i32 0, i32 0, i32 0
  %55 = bitcast i8* %53 to i64*
  store i64 %32, i64* %55, align 8, !noalias !54
  store %"class.base::internal::BindStateBase"* null, %"class.base::internal::BindStateBase"** %54, align 8, !noalias !54
  %56 = getelementptr inbounds i8, i8* %49, i64 48
  %57 = bitcast i8* %56 to i64*
  store i64 %37, i64* %57, align 8, !noalias !54
  %58 = bitcast %"class.base::OnceCallback"* %7 to i8**
  store i8* %49, i8** %58, align 8, !alias.scope !54
  %59 = call zeroext i1 @_ZN4base10TaskRunner16PostTaskAndReplyERKNS_8LocationENS_12OnceCallbackIFvvEEES6_(%"class.base::TaskRunner"* %12, %"class.base::Location"* dereferenceable(32) %3, %"class.base::OnceCallback"* nonnull %6, %"class.base::OnceCallback"* nonnull %7) #15
  %60 = getelementptr inbounds %"class.base::OnceCallback", %"class.base::OnceCallback"* %7, i64 0, i32 0
  call void @_ZN4base8internal12CallbackBaseD2Ev(%"class.base::internal::CallbackBase"* nonnull %60) #15
  %61 = getelementptr inbounds %"class.base::OnceCallback", %"class.base::OnceCallback"* %6, i64 0, i32 0
  call void @_ZN4base8internal12CallbackBaseD2Ev(%"class.base::internal::CallbackBase"* nonnull %61) #15
  call void @llvm.lifetime.end.p0i8(i64 8, i8* nonnull %33)
  call void @llvm.lifetime.end.p0i8(i64 8, i8* nonnull %34)
  %62 = getelementptr inbounds %"class.base::OnceCallback.356", %"class.base::OnceCallback.356"* %9, i64 0, i32 0
  call void @_ZN4base8internal12CallbackBaseD2Ev(%"class.base::internal::CallbackBase"* nonnull %62) #15
  %63 = getelementptr inbounds %"class.base::OnceCallback.718", %"class.base::OnceCallback.718"* %8, i64 0, i32 0
  call void @_ZN4base8internal12CallbackBaseD2Ev(%"class.base::internal::CallbackBase"* nonnull %63) #15
  ret void
}

; Function Attrs: nounwind ssp uwtable
define internal void @_ZN7storage12_GLOBAL__N_122CreateBucketOnDBThreadERKN3url6OriginERKNSt3__112basic_stringIcNS5_11char_traitsIcEENS5_9allocatorIcEEEEPNS_13QuotaDatabaseE(%"class.storage::QuotaErrorOr"* noalias sret, %"class.url::Origin"* dereferenceable(80), %"class.std::__1::basic_string"* dereferenceable(24), %"class.storage::QuotaDatabase"*) #0 {
  tail call void @_ZN7storage13QuotaDatabase12CreateBucketERKN3url6OriginERKNSt3__112basic_stringIcNS5_11char_traitsIcEENS5_9allocatorIcEEEE(%"class.storage::QuotaErrorOr"* sret %0, %"class.storage::QuotaDatabase"* %3, %"class.url::Origin"* dereferenceable(80) %1, %"class.std::__1::basic_string"* dereferenceable(24) %2) #15
  ret void
}

; Function Attrs: nounwind ssp uwtable
define hidden void @_ZN7storage16QuotaManagerImpl14DidGetBucketIdEN4base12OnceCallbackIFvNS_12QuotaErrorOrIN4util6IdTypeINS_9BucketTagElLl0ELl1EEEEEEEES8_(%"class.storage::QuotaManagerImpl"* nocapture, %"class.base::OnceCallback.356"* nocapture, %"class.storage::QuotaErrorOr"* nocapture readonly byval(%"class.storage::QuotaErrorOr") align 8) #0 align 2 {
  %4 = alloca %"class.base::OnceCallback.356", align 8
  %5 = alloca %"class.storage::QuotaErrorOr", align 8
  %6 = getelementptr inbounds %"class.storage::QuotaErrorOr", %"class.storage::QuotaErrorOr"* %2, i64 0, i32 1, i32 0, i32 0, i32 0, i32 0
  %7 = load i8, i8* %6, align 8, !range !15
  %8 = getelementptr inbounds %"class.storage::QuotaManagerImpl", %"class.storage::QuotaManagerImpl"* %0, i64 0, i32 6
  %9 = xor i8 %7, 1
  store i8 %9, i8* %8, align 8
  %10 = bitcast %"class.storage::QuotaErrorOr"* %2 to i8*
  %11 = bitcast %"class.storage::QuotaErrorOr"* %5 to i8*
  call void @llvm.lifetime.start.p0i8(i64 24, i8* nonnull %11)
  call void @llvm.memcpy.p0i8.p0i8.i64(i8* nonnull align 8 %11, i8* nonnull align 8 %10, i64 24, i1 false)
  %12 = bitcast %"class.base::OnceCallback.356"* %4 to i8*
  call void @llvm.lifetime.start.p0i8(i64 8, i8* nonnull %12) #15
  %13 = getelementptr inbounds %"class.base::OnceCallback.356", %"class.base::OnceCallback.356"* %1, i64 0, i32 0, i32 0, i32 0
  %14 = bitcast %"class.base::OnceCallback.356"* %1 to i64*
  %15 = load i64, i64* %14, align 8
  %16 = bitcast %"class.base::OnceCallback.356"* %4 to i64*
  store i64 %15, i64* %16, align 8
  store %"class.base::internal::BindStateBase"* null, %"class.base::internal::BindStateBase"** %13, align 8
  %17 = getelementptr inbounds %"class.base::OnceCallback.356", %"class.base::OnceCallback.356"* %4, i64 0, i32 0
  %18 = inttoptr i64 %15 to %"class.base::internal::BindStateBase"*
  %19 = getelementptr inbounds %"class.base::internal::BindStateBase", %"class.base::internal::BindStateBase"* %18, i64 0, i32 1
  %20 = bitcast void ()** %19 to void (%"class.base::internal::BindStateBase"*, %"class.storage::QuotaErrorOr"*)**
  %21 = load void (%"class.base::internal::BindStateBase"*, %"class.storage::QuotaErrorOr"*)*, void (%"class.base::internal::BindStateBase"*, %"class.storage::QuotaErrorOr"*)** %20, align 8
  call void %21(%"class.base::internal::BindStateBase"* %18, %"class.storage::QuotaErrorOr"* nonnull dereferenceable(24) %5) #15
  call void @_ZN4base8internal12CallbackBaseD2Ev(%"class.base::internal::CallbackBase"* nonnull %17) #15
  call void @llvm.lifetime.end.p0i8(i64 8, i8* nonnull %12) #15
  call void @llvm.lifetime.end.p0i8(i64 24, i8* nonnull %11)
  ret void
}

declare void @_ZN4base8Location7CurrentEPKcS2_i(%"class.base::Location"* sret, i8*, i8*, i32) local_unnamed_addr #1

; Function Attrs: nounwind ssp uwtable
define hidden void @_ZN7storage16QuotaManagerImpl11GetBucketIdERKN3url6OriginERKNSt3__112basic_stringIcNS5_11char_traitsIcEENS5_9allocatorIcEEEEN4base12OnceCallbackIFvNS_12QuotaErrorOrIN4util6IdTypeINS_9BucketTagElLl0ELl1EEEEEEEE(%"class.storage::QuotaManagerImpl"*, %"class.url::Origin"* dereferenceable(80), %"class.std::__1::basic_string"* nocapture readonly dereferenceable(24), %"class.base::OnceCallback.356"* nocapture) local_unnamed_addr #0 align 2 {
  %5 = alloca %"class.base::internal::WeakReference", align 8
  %6 = alloca %"class.base::OnceCallback.357", align 8
  %7 = alloca %"class.base::OnceCallback.356", align 8
  %8 = alloca %"class.base::WeakPtr.363", align 8
  %9 = alloca %"class.base::Location", align 8
  tail call void @_ZN7storage16QuotaManagerImpl14LazyInitializeEv(%"class.storage::QuotaManagerImpl"* %0)
  %10 = tail call i8* @_Znwm(i64 144) #16, !noalias !59
  %11 = bitcast i8* %10 to %"class.base::internal::BindStateBase"*
  tail call void @_ZN4base8internal13BindStateBaseC2EPFvvEPFvPKS1_E(%"class.base::internal::BindStateBase"* nonnull %11, void ()* bitcast (void (%"class.storage::QuotaErrorOr"*, %"class.base::internal::BindStateBase"*, %"class.storage::QuotaDatabase"*)* @_ZN4base8internal7InvokerINS0_9BindStateIPFN7storage12QuotaErrorOrIN4util6IdTypeINS3_9BucketTagElLl0ELl1EEEEERKN3url6OriginERKNSt3__112basic_stringIcNSE_11char_traitsIcEENSE_9allocatorIcEEEEPNS3_13QuotaDatabaseEEJSB_SK_EEEFS9_SO_EE7RunOnceEPNS0_13BindStateBaseESO_ to void ()*), void (%"class.base::internal::BindStateBase"*)* nonnull @_ZN4base8internal9BindStateIPFN7storage12QuotaErrorOrIN4util6IdTypeINS2_9BucketTagElLl0ELl1EEEEERKN3url6OriginERKNSt3__112basic_stringIcNSD_11char_traitsIcEENSD_9allocatorIcEEEEPNS2_13QuotaDatabaseEEJSA_SJ_EE7DestroyEPKNS0_13BindStateBaseE) #15, !noalias !59
  %12 = getelementptr inbounds i8, i8* %10, i64 32
  %13 = bitcast i8* %12 to i64*
  store i64 ptrtoint (void (%"class.storage::QuotaErrorOr"*, %"class.url::Origin"*, %"class.std::__1::basic_string"*, %"class.storage::QuotaDatabase"*)* @_ZN7storage12_GLOBAL__N_121GetBucketIdOnDBThreadERKN3url6OriginERKNSt3__112basic_stringIcNS5_11char_traitsIcEENS5_9allocatorIcEEEEPNS_13QuotaDatabaseE to i64), i64* %13, align 8, !noalias !59
  %14 = getelementptr inbounds i8, i8* %10, i64 40
  %15 = bitcast i8* %14 to %"class.url::Origin"*
  tail call void @_ZN3url6OriginC1ERKS0_(%"class.url::Origin"* %15, %"class.url::Origin"* dereferenceable(80) %1) #15, !noalias !59
  %16 = getelementptr inbounds i8, i8* %10, i64 120
  %17 = bitcast %"class.std::__1::basic_string"* %2 to %"struct.std::__1::basic_string<char, std::__1::char_traits<char>, std::__1::allocator<char> >::__short"*
  %18 = getelementptr inbounds %"struct.std::__1::basic_string<char, std::__1::char_traits<char>, std::__1::allocator<char> >::__short", %"struct.std::__1::basic_string<char, std::__1::char_traits<char>, std::__1::allocator<char> >::__short"* %17, i64 0, i32 1, i32 0
  %19 = load i8, i8* %18, align 1, !noalias !59
  %20 = icmp slt i8 %19, 0
  br i1 %20, label %23, label %21

21:                                               ; preds = %4
  %22 = bitcast %"class.std::__1::basic_string"* %2 to i8*
  tail call void @llvm.memcpy.p0i8.p0i8.i64(i8* align 8 %16, i8* align 8 %22, i64 24, i1 false) #15, !noalias !59
  br label %29

23:                                               ; preds = %4
  %24 = bitcast i8* %16 to %"class.std::__1::basic_string"*
  %25 = getelementptr inbounds %"class.std::__1::basic_string", %"class.std::__1::basic_string"* %2, i64 0, i32 0, i32 0, i32 0, i32 0, i32 0, i32 0
  %26 = load i8*, i8** %25, align 8, !noalias !59
  %27 = getelementptr inbounds %"class.std::__1::basic_string", %"class.std::__1::basic_string"* %2, i64 0, i32 0, i32 0, i32 0, i32 0, i32 0, i32 1
  %28 = load i64, i64* %27, align 8, !noalias !59
  tail call void @_ZNSt3__112basic_stringIcNS_11char_traitsIcEENS_9allocatorIcEEE25__init_copy_ctor_externalEPKcm(%"class.std::__1::basic_string"* %24, i8* %26, i64 %28) #15, !noalias !59
  br label %29

29:                                               ; preds = %21, %23
  %30 = bitcast %"class.base::OnceCallback.357"* %6 to i8**
  store i8* %10, i8** %30, align 8, !alias.scope !59
  %31 = bitcast %"class.base::WeakPtr.363"* %8 to i8*
  call void @llvm.lifetime.start.p0i8(i64 16, i8* nonnull %31) #15
  %32 = bitcast %"class.base::internal::WeakReference"* %5 to i8*
  call void @llvm.lifetime.start.p0i8(i64 8, i8* nonnull %32) #15, !noalias !64
  %33 = getelementptr inbounds %"class.storage::QuotaManagerImpl", %"class.storage::QuotaManagerImpl"* %0, i64 0, i32 41, i32 0, i32 0
  call void @_ZNK4base8internal18WeakReferenceOwner6GetRefEv(%"class.base::internal::WeakReference"* nonnull sret %5, %"class.base::internal::WeakReferenceOwner"* %33) #15, !noalias !64
  %34 = getelementptr inbounds %"class.storage::QuotaManagerImpl", %"class.storage::QuotaManagerImpl"* %0, i64 0, i32 41, i32 0, i32 1
  %35 = load i64, i64* %34, align 8, !noalias !64
  %36 = getelementptr inbounds %"class.base::WeakPtr.363", %"class.base::WeakPtr.363"* %8, i64 0, i32 0
  call void @_ZN4base8internal11WeakPtrBaseC2ERKNS0_13WeakReferenceEm(%"class.base::internal::WeakPtrBase"* nonnull %36, %"class.base::internal::WeakReference"* nonnull dereferenceable(8) %5, i64 %35) #15
  call void @_ZN4base8internal13WeakReferenceD1Ev(%"class.base::internal::WeakReference"* nonnull %5) #15
  call void @llvm.lifetime.end.p0i8(i64 8, i8* nonnull %32) #15, !noalias !64
  %37 = call i8* @_Znwm(i64 72) #16, !noalias !67
  %38 = bitcast i8* %37 to %"class.base::internal::BindStateBase"*
  call void @_ZN4base8internal13BindStateBaseC2EPFvvEPFvPKS1_EPFbS5_NS1_21CancellationQueryModeEE(%"class.base::internal::BindStateBase"* nonnull %38, void ()* bitcast (void (%"class.base::internal::BindStateBase"*, %"class.storage::QuotaErrorOr"*)* @_ZN4base8internal7InvokerINS0_9BindStateIMN7storage16QuotaManagerImplEFvNS_12OnceCallbackIFvNS3_12QuotaErrorOrIN4util6IdTypeINS3_9BucketTagElLl0ELl1EEEEEEEESB_EJNS_7WeakPtrIS4_EESD_EEESC_E7RunOnceEPNS0_13BindStateBaseEOSB_ to void ()*), void (%"class.base::internal::BindStateBase"*)* nonnull @_ZN4base8internal9BindStateIMN7storage16QuotaManagerImplEFvNS_12OnceCallbackIFvNS2_12QuotaErrorOrIN4util6IdTypeINS2_9BucketTagElLl0ELl1EEEEEEEESA_EJNS_7WeakPtrIS3_EESC_EE7DestroyEPKNS0_13BindStateBaseE, i1 (%"class.base::internal::BindStateBase"*, i32)* nonnull @_ZN4base8internal23QueryCancellationTraitsINS0_9BindStateIMN7storage16QuotaManagerImplEFvNS_12OnceCallbackIFvNS3_12QuotaErrorOrIN4util6IdTypeINS3_9BucketTagElLl0ELl1EEEEEEEESB_EJNS_7WeakPtrIS4_EESD_EEEEEbPKNS0_13BindStateBaseENSJ_21CancellationQueryModeE) #15, !noalias !67
  %39 = getelementptr inbounds i8, i8* %37, i64 32
  %40 = bitcast i8* %39 to <2 x i64>*
  store <2 x i64> <i64 ptrtoint (void (%"class.storage::QuotaManagerImpl"*, %"class.base::OnceCallback.356"*, %"class.storage::QuotaErrorOr"*)* @_ZN7storage16QuotaManagerImpl14DidGetBucketIdEN4base12OnceCallbackIFvNS_12QuotaErrorOrIN4util6IdTypeINS_9BucketTagElLl0ELl1EEEEEEEES8_ to i64), i64 0>, <2 x i64>* %40, align 8, !noalias !67
  %41 = getelementptr inbounds i8, i8* %37, i64 48
  %42 = bitcast i8* %41 to %"class.base::internal::WeakReference"*
  %43 = getelementptr inbounds %"class.base::WeakPtr.363", %"class.base::WeakPtr.363"* %8, i64 0, i32 0, i32 0
  call void @_ZN4base8internal13WeakReferenceC1EOS1_(%"class.base::internal::WeakReference"* %42, %"class.base::internal::WeakReference"* nonnull dereferenceable(8) %43) #15, !noalias !67
  %44 = getelementptr inbounds i8, i8* %37, i64 56
  %45 = bitcast i8* %44 to i64*
  %46 = getelementptr inbounds %"class.base::WeakPtr.363", %"class.base::WeakPtr.363"* %8, i64 0, i32 0, i32 1
  %47 = load i64, i64* %46, align 8, !noalias !67
  store i64 %47, i64* %45, align 8, !noalias !67
  %48 = getelementptr inbounds i8, i8* %37, i64 64
  %49 = getelementptr inbounds %"class.base::OnceCallback.356", %"class.base::OnceCallback.356"* %3, i64 0, i32 0, i32 0, i32 0
  %50 = bitcast %"class.base::OnceCallback.356"* %3 to i64*
  %51 = load i64, i64* %50, align 8, !noalias !67
  %52 = bitcast i8* %48 to i64*
  store i64 %51, i64* %52, align 8, !noalias !67
  store %"class.base::internal::BindStateBase"* null, %"class.base::internal::BindStateBase"** %49, align 8, !noalias !67
  %53 = bitcast %"class.base::OnceCallback.356"* %7 to i8**
  store i8* %37, i8** %53, align 8, !alias.scope !67
  %54 = bitcast %"class.base::Location"* %9 to i8*
  call void @llvm.lifetime.start.p0i8(i64 32, i8* nonnull %54) #15
  call void @_ZN4base8Location7CurrentEPKcS2_i(%"class.base::Location"* nonnull sret %9, i8* getelementptr inbounds ([12 x i8], [12 x i8]* @.str.2, i64 0, i64 0), i8* getelementptr inbounds ([50 x i8], [50 x i8]* @.str.1, i64 0, i64 0), i32 958) #15
  call void @_ZN7storage16QuotaManagerImpl37PostTaskAndReplyWithResultForDBThreadIN4util6IdTypeINS_9BucketTagElLl0ELl1EEEEEvN4base12OnceCallbackIFNS_12QuotaErrorOrIT_EEPNS_13QuotaDatabaseEEEENS7_IFvSA_EEERKNS6_8LocationE(%"class.storage::QuotaManagerImpl"* %0, %"class.base::OnceCallback.357"* nonnull %6, %"class.base::OnceCallback.356"* nonnull %7, %"class.base::Location"* nonnull dereferenceable(32) %9)
  call void @llvm.lifetime.end.p0i8(i64 32, i8* nonnull %54) #15
  %55 = getelementptr inbounds %"class.base::OnceCallback.356", %"class.base::OnceCallback.356"* %7, i64 0, i32 0
  call void @_ZN4base8internal12CallbackBaseD2Ev(%"class.base::internal::CallbackBase"* nonnull %55) #15
  call void @_ZN4base8internal11WeakPtrBaseD2Ev(%"class.base::internal::WeakPtrBase"* nonnull %36) #15
  call void @llvm.lifetime.end.p0i8(i64 16, i8* nonnull %31) #15
  %56 = getelementptr inbounds %"class.base::OnceCallback.357", %"class.base::OnceCallback.357"* %6, i64 0, i32 0
  call void @_ZN4base8internal12CallbackBaseD2Ev(%"class.base::internal::CallbackBase"* nonnull %56) #15
  ret void
}

; Function Attrs: nounwind ssp uwtable
define internal void @_ZN7storage12_GLOBAL__N_121GetBucketIdOnDBThreadERKN3url6OriginERKNSt3__112basic_stringIcNS5_11char_traitsIcEENS5_9allocatorIcEEEEPNS_13QuotaDatabaseE(%"class.storage::QuotaErrorOr"* noalias sret, %"class.url::Origin"* dereferenceable(80), %"class.std::__1::basic_string"* dereferenceable(24), %"class.storage::QuotaDatabase"*) #0 {
  tail call void @_ZN7storage13QuotaDatabase11GetBucketIdERKN3url6OriginERKNSt3__112basic_stringIcNS5_11char_traitsIcEENS5_9allocatorIcEEEE(%"class.storage::QuotaErrorOr"* sret %0, %"class.storage::QuotaDatabase"* %3, %"class.url::Origin"* dereferenceable(80) %1, %"class.std::__1::basic_string"* dereferenceable(24) %2) #15
  ret void
}

; Function Attrs: nounwind ssp uwtable
define hidden void @_ZN7storage16QuotaManagerImpl12GetUsageInfoEN4base12OnceCallbackIFvNSt3__16vectorINS_9UsageInfoENS3_9allocatorIS5_EEEEEEE(%"class.storage::QuotaManagerImpl"*, %"class.base::OnceCallback.364"* nocapture) local_unnamed_addr #0 align 2 {
  %3 = alloca %"class.base::OnceCallback.364", align 8
  tail call void @_ZN7storage16QuotaManagerImpl14LazyInitializeEv(%"class.storage::QuotaManagerImpl"* %0)
  %4 = tail call i8* @_Znwm(i64 88) #16
  %5 = getelementptr inbounds %"class.base::OnceCallback.364", %"class.base::OnceCallback.364"* %1, i64 0, i32 0, i32 0, i32 0
  %6 = bitcast %"class.base::OnceCallback.364"* %1 to i64*
  %7 = load i64, i64* %6, align 8
  store %"class.base::internal::BindStateBase"* null, %"class.base::internal::BindStateBase"** %5, align 8
  %8 = bitcast i8* %4 to %"class.storage::QuotaTask"*
  %9 = getelementptr inbounds %"class.storage::QuotaManagerImpl", %"class.storage::QuotaManagerImpl"* %0, i64 0, i32 0
  tail call void @_ZN7storage9QuotaTaskC2EPNS_17QuotaTaskObserverE(%"class.storage::QuotaTask"* nonnull %8, %"class.storage::QuotaTaskObserver"* %9) #15
  %10 = bitcast i8* %4 to i32 (...)***
  store i32 (...)** bitcast (i8** getelementptr inbounds ({ [7 x i8*] }, { [7 x i8*] }* @_ZTVN7storage16QuotaManagerImpl16GetUsageInfoTaskE, i64 0, inrange i32 0, i64 2) to i32 (...)**), i32 (...)*** %10, align 8
  %11 = getelementptr inbounds i8, i8* %4, i64 32
  %12 = getelementptr inbounds %"class.base::OnceCallback.364", %"class.base::OnceCallback.364"* %3, i64 0, i32 0, i32 0, i32 0
  %13 = bitcast i8* %11 to i64*
  store i64 %7, i64* %13, align 8
  store %"class.base::internal::BindStateBase"* null, %"class.base::internal::BindStateBase"** %12, align 8
  %14 = getelementptr inbounds i8, i8* %4, i64 40
  tail call void @llvm.memset.p0i8.i64(i8* align 8 %14, i8 0, i64 24, i1 false) #15
  %15 = getelementptr inbounds i8, i8* %4, i64 72
  %16 = bitcast i8* %15 to %"class.base::internal::WeakPtrFactoryBase"*
  %17 = ptrtoint i8* %4 to i64
  tail call void @_ZN4base8internal18WeakPtrFactoryBaseC2Em(%"class.base::internal::WeakPtrFactoryBase"* %16, i64 %17) #15
  %18 = getelementptr inbounds %"class.base::OnceCallback.364", %"class.base::OnceCallback.364"* %3, i64 0, i32 0
  call void @_ZN4base8internal12CallbackBaseD2Ev(%"class.base::internal::CallbackBase"* nonnull %18) #15
  call void @_ZN7storage9QuotaTask5StartEv(%"class.storage::QuotaTask"* nonnull %8) #15
  ret void
}

; Function Attrs: nobuiltin nofree
declare noalias nonnull i8* @_Znwm(i64) local_unnamed_addr #3

declare void @_ZN7storage9QuotaTask5StartEv(%"class.storage::QuotaTask"*) local_unnamed_addr #1

; Function Attrs: nounwind ssp uwtable
define hidden void @_ZN7storage16QuotaManagerImpl26GetUsageAndQuotaForWebAppsERKN3url6OriginEN5blink5mojom11StorageTypeEN4base12OnceCallbackIFvNS6_15QuotaStatusCodeEllEEE(%"class.storage::QuotaManagerImpl"*, %"class.url::Origin"* dereferenceable(80), i32, %"class.base::OnceCallback.373"* nocapture) unnamed_addr #0 align 2 {
  %5 = alloca %"class.base::OnceCallback.374", align 8
  %6 = tail call i8* @_Znwm(i64 48) #16, !noalias !72
  %7 = bitcast i8* %6 to %"class.base::internal::BindStateBase"*
  tail call void @_ZN4base8internal13BindStateBaseC2EPFvvEPFvPKS1_E(%"class.base::internal::BindStateBase"* nonnull %7, void ()* bitcast (void (%"class.base::internal::BindStateBase"*, i32, i64, i64, %"class.mojo::StructPtr"*)* @_ZN4base8internal7InvokerINS0_9BindStateIPFvNS_12OnceCallbackIFvN5blink5mojom15QuotaStatusCodeEllEEES6_llN4mojo9StructPtrINS5_14UsageBreakdownEEEEJS8_EEEFvS6_llSC_EE7RunOnceEPNS0_13BindStateBaseES6_llOSC_ to void ()*), void (%"class.base::internal::BindStateBase"*)* nonnull @_ZN4base8internal9BindStateIPFvNS_12OnceCallbackIFvN5blink5mojom15QuotaStatusCodeEllEEES5_llN4mojo9StructPtrINS4_14UsageBreakdownEEEEJS7_EE7DestroyEPKNS0_13BindStateBaseE) #15, !noalias !72
  %8 = getelementptr inbounds i8, i8* %6, i64 32
  %9 = bitcast i8* %8 to i64*
  store i64 ptrtoint (void (%"class.base::OnceCallback.373"*, i32, i64, i64, %"class.mojo::StructPtr"*)* @_ZN7storage12_GLOBAL__N_133DidGetUsageAndQuotaStripBreakdownEN4base12OnceCallbackIFvN5blink5mojom15QuotaStatusCodeEllEEES5_llN4mojo9StructPtrINS4_14UsageBreakdownEEE to i64), i64* %9, align 8, !noalias !72
  %10 = getelementptr inbounds i8, i8* %6, i64 40
  %11 = getelementptr inbounds %"class.base::OnceCallback.373", %"class.base::OnceCallback.373"* %3, i64 0, i32 0, i32 0, i32 0
  %12 = bitcast %"class.base::OnceCallback.373"* %3 to i64*
  %13 = load i64, i64* %12, align 8, !noalias !72
  %14 = bitcast i8* %10 to i64*
  store i64 %13, i64* %14, align 8, !noalias !72
  store %"class.base::internal::BindStateBase"* null, %"class.base::internal::BindStateBase"** %11, align 8, !noalias !72
  %15 = bitcast %"class.base::OnceCallback.374"* %5 to i8**
  store i8* %6, i8** %15, align 8, !alias.scope !72
  %16 = bitcast %"class.storage::QuotaManagerImpl"* %0 to void (%"class.storage::QuotaManagerImpl"*, %"class.url::Origin"*, i32, %"class.base::OnceCallback.374"*)***
  %17 = load void (%"class.storage::QuotaManagerImpl"*, %"class.url::Origin"*, i32, %"class.base::OnceCallback.374"*)**, void (%"class.storage::QuotaManagerImpl"*, %"class.url::Origin"*, i32, %"class.base::OnceCallback.374"*)*** %16, align 8
  %18 = getelementptr inbounds void (%"class.storage::QuotaManagerImpl"*, %"class.url::Origin"*, i32, %"class.base::OnceCallback.374"*)*, void (%"class.storage::QuotaManagerImpl"*, %"class.url::Origin"*, i32, %"class.base::OnceCallback.374"*)** %17, i64 3
  %19 = load void (%"class.storage::QuotaManagerImpl"*, %"class.url::Origin"*, i32, %"class.base::OnceCallback.374"*)*, void (%"class.storage::QuotaManagerImpl"*, %"class.url::Origin"*, i32, %"class.base::OnceCallback.374"*)** %18, align 8
  call void %19(%"class.storage::QuotaManagerImpl"* %0, %"class.url::Origin"* dereferenceable(80) %1, i32 %2, %"class.base::OnceCallback.374"* nonnull %5) #15
  %20 = getelementptr inbounds %"class.base::OnceCallback.374", %"class.base::OnceCallback.374"* %5, i64 0, i32 0
  call void @_ZN4base8internal12CallbackBaseD2Ev(%"class.base::internal::CallbackBase"* nonnull %20) #15
  ret void
}

; Function Attrs: nounwind ssp uwtable
define internal void @_ZN7storage12_GLOBAL__N_133DidGetUsageAndQuotaStripBreakdownEN4base12OnceCallbackIFvN5blink5mojom15QuotaStatusCodeEllEEES5_llN4mojo9StructPtrINS4_14UsageBreakdownEEE(%"class.base::OnceCallback.373"* nocapture, i32, i64, i64, %"class.mojo::StructPtr"* nocapture readnone) #0 {
  %6 = alloca %"class.base::OnceCallback.373", align 8
  %7 = bitcast %"class.base::OnceCallback.373"* %6 to i8*
  call void @llvm.lifetime.start.p0i8(i64 8, i8* nonnull %7) #15
  %8 = getelementptr inbounds %"class.base::OnceCallback.373", %"class.base::OnceCallback.373"* %0, i64 0, i32 0, i32 0, i32 0
  %9 = bitcast %"class.base::OnceCallback.373"* %0 to i64*
  %10 = load i64, i64* %9, align 8
  %11 = bitcast %"class.base::OnceCallback.373"* %6 to i64*
  store i64 %10, i64* %11, align 8
  store %"class.base::internal::BindStateBase"* null, %"class.base::internal::BindStateBase"** %8, align 8
  %12 = getelementptr inbounds %"class.base::OnceCallback.373", %"class.base::OnceCallback.373"* %6, i64 0, i32 0
  %13 = inttoptr i64 %10 to %"class.base::internal::BindStateBase"*
  %14 = getelementptr inbounds %"class.base::internal::BindStateBase", %"class.base::internal::BindStateBase"* %13, i64 0, i32 1
  %15 = bitcast void ()** %14 to void (%"class.base::internal::BindStateBase"*, i32, i64, i64)**
  %16 = load void (%"class.base::internal::BindStateBase"*, i32, i64, i64)*, void (%"class.base::internal::BindStateBase"*, i32, i64, i64)** %15, align 8
  tail call void %16(%"class.base::internal::BindStateBase"* %13, i32 %1, i64 %2, i64 %3) #15
  call void @_ZN4base8internal12CallbackBaseD2Ev(%"class.base::internal::CallbackBase"* nonnull %12) #15
  call void @llvm.lifetime.end.p0i8(i64 8, i8* nonnull %7) #15
  ret void
}

; Function Attrs: nounwind ssp uwtable
define hidden void @_ZN7storage16QuotaManagerImpl29GetUsageAndQuotaWithBreakdownERKN3url6OriginEN5blink5mojom11StorageTypeEN4base12OnceCallbackIFvNS6_15QuotaStatusCodeEllN4mojo9StructPtrINS6_14UsageBreakdownEEEEEE(%"class.storage::QuotaManagerImpl"*, %"class.url::Origin"* dereferenceable(80), i32, %"class.base::OnceCallback.374"* nocapture) unnamed_addr #0 align 2 {
  %5 = alloca %"class.base::OnceCallback.381", align 8
  %6 = tail call i8* @_Znwm(i64 48) #16, !noalias !77
  %7 = bitcast i8* %6 to %"class.base::internal::BindStateBase"*
  tail call void @_ZN4base8internal13BindStateBaseC2EPFvvEPFvPKS1_E(%"class.base::internal::BindStateBase"* nonnull %7, void ()* bitcast (void (%"class.base::internal::BindStateBase"*, i32, i64, i64, i1, %"class.mojo::StructPtr"*)* @_ZN4base8internal7InvokerINS0_9BindStateIPFvNS_12OnceCallbackIFvN5blink5mojom15QuotaStatusCodeEllN4mojo9StructPtrINS5_14UsageBreakdownEEEEEES6_llbSA_EJSC_EEEFvS6_llbSA_EE7RunOnceEPNS0_13BindStateBaseES6_llbOSA_ to void ()*), void (%"class.base::internal::BindStateBase"*)* nonnull @_ZN4base8internal9BindStateIPFvNS_12OnceCallbackIFvN5blink5mojom15QuotaStatusCodeEllN4mojo9StructPtrINS4_14UsageBreakdownEEEEEES5_llbS9_EJSB_EE7DestroyEPKNS0_13BindStateBaseE) #15, !noalias !77
  %8 = getelementptr inbounds i8, i8* %6, i64 32
  %9 = bitcast i8* %8 to i64*
  store i64 ptrtoint (void (%"class.base::OnceCallback.374"*, i32, i64, i64, i1, %"class.mojo::StructPtr"*)* @_ZN7storage12_GLOBAL__N_132DidGetUsageAndQuotaStripOverrideEN4base12OnceCallbackIFvN5blink5mojom15QuotaStatusCodeEllN4mojo9StructPtrINS4_14UsageBreakdownEEEEEES5_llbS9_ to i64), i64* %9, align 8, !noalias !77
  %10 = getelementptr inbounds i8, i8* %6, i64 40
  %11 = getelementptr inbounds %"class.base::OnceCallback.374", %"class.base::OnceCallback.374"* %3, i64 0, i32 0, i32 0, i32 0
  %12 = bitcast %"class.base::OnceCallback.374"* %3 to i64*
  %13 = load i64, i64* %12, align 8, !noalias !77
  %14 = bitcast i8* %10 to i64*
  store i64 %13, i64* %14, align 8, !noalias !77
  store %"class.base::internal::BindStateBase"* null, %"class.base::internal::BindStateBase"** %11, align 8, !noalias !77
  %15 = bitcast %"class.base::OnceCallback.381"* %5 to i8**
  store i8* %6, i8** %15, align 8, !alias.scope !77
  %16 = bitcast %"class.storage::QuotaManagerImpl"* %0 to void (%"class.storage::QuotaManagerImpl"*, %"class.url::Origin"*, i32, %"class.base::OnceCallback.381"*)***
  %17 = load void (%"class.storage::QuotaManagerImpl"*, %"class.url::Origin"*, i32, %"class.base::OnceCallback.381"*)**, void (%"class.storage::QuotaManagerImpl"*, %"class.url::Origin"*, i32, %"class.base::OnceCallback.381"*)*** %16, align 8
  %18 = getelementptr inbounds void (%"class.storage::QuotaManagerImpl"*, %"class.url::Origin"*, i32, %"class.base::OnceCallback.381"*)*, void (%"class.storage::QuotaManagerImpl"*, %"class.url::Origin"*, i32, %"class.base::OnceCallback.381"*)** %17, i64 4
  %19 = load void (%"class.storage::QuotaManagerImpl"*, %"class.url::Origin"*, i32, %"class.base::OnceCallback.381"*)*, void (%"class.storage::QuotaManagerImpl"*, %"class.url::Origin"*, i32, %"class.base::OnceCallback.381"*)** %18, align 8
  call void %19(%"class.storage::QuotaManagerImpl"* %0, %"class.url::Origin"* dereferenceable(80) %1, i32 %2, %"class.base::OnceCallback.381"* nonnull %5) #15
  %20 = getelementptr inbounds %"class.base::OnceCallback.381", %"class.base::OnceCallback.381"* %5, i64 0, i32 0
  call void @_ZN4base8internal12CallbackBaseD2Ev(%"class.base::internal::CallbackBase"* nonnull %20) #15
  ret void
}

; Function Attrs: nounwind ssp uwtable
define internal void @_ZN7storage12_GLOBAL__N_132DidGetUsageAndQuotaStripOverrideEN4base12OnceCallbackIFvN5blink5mojom15QuotaStatusCodeEllN4mojo9StructPtrINS4_14UsageBreakdownEEEEEES5_llbS9_(%"class.base::OnceCallback.374"* nocapture, i32, i64, i64, i1 zeroext, %"class.mojo::StructPtr"* nocapture) #0 {
  %7 = alloca %"class.base::OnceCallback.374", align 8
  %8 = alloca %"class.mojo::StructPtr", align 8
  %9 = bitcast %"class.mojo::StructPtr"* %8 to i64*
  %10 = getelementptr inbounds %"class.mojo::StructPtr", %"class.mojo::StructPtr"* %8, i64 0, i32 0, i32 0, i32 0, i32 0
  %11 = bitcast %"class.mojo::StructPtr"* %5 to i64*
  %12 = load i64, i64* %11, align 8
  store i64 %12, i64* %9, align 8
  store i64 0, i64* %11, align 8
  %13 = bitcast %"class.base::OnceCallback.374"* %7 to i8*
  call void @llvm.lifetime.start.p0i8(i64 8, i8* nonnull %13) #15
  %14 = getelementptr inbounds %"class.base::OnceCallback.374", %"class.base::OnceCallback.374"* %0, i64 0, i32 0, i32 0, i32 0
  %15 = bitcast %"class.base::OnceCallback.374"* %0 to i64*
  %16 = load i64, i64* %15, align 8
  %17 = bitcast %"class.base::OnceCallback.374"* %7 to i64*
  store i64 %16, i64* %17, align 8
  store %"class.base::internal::BindStateBase"* null, %"class.base::internal::BindStateBase"** %14, align 8
  %18 = getelementptr inbounds %"class.base::OnceCallback.374", %"class.base::OnceCallback.374"* %7, i64 0, i32 0
  %19 = inttoptr i64 %16 to %"class.base::internal::BindStateBase"*
  %20 = getelementptr inbounds %"class.base::internal::BindStateBase", %"class.base::internal::BindStateBase"* %19, i64 0, i32 1
  %21 = bitcast void ()** %20 to void (%"class.base::internal::BindStateBase"*, i32, i64, i64, %"class.mojo::StructPtr"*)**
  %22 = load void (%"class.base::internal::BindStateBase"*, i32, i64, i64, %"class.mojo::StructPtr"*)*, void (%"class.base::internal::BindStateBase"*, i32, i64, i64, %"class.mojo::StructPtr"*)** %21, align 8
  call void %22(%"class.base::internal::BindStateBase"* %19, i32 %1, i64 %2, i64 %3, %"class.mojo::StructPtr"* nonnull dereferenceable(8) %8) #15
  call void @_ZN4base8internal12CallbackBaseD2Ev(%"class.base::internal::CallbackBase"* nonnull %18) #15
  call void @llvm.lifetime.end.p0i8(i64 8, i8* nonnull %13) #15
  %23 = load %"class.blink::mojom::UsageBreakdown"*, %"class.blink::mojom::UsageBreakdown"** %10, align 8
  store %"class.blink::mojom::UsageBreakdown"* null, %"class.blink::mojom::UsageBreakdown"** %10, align 8
  %24 = icmp eq %"class.blink::mojom::UsageBreakdown"* %23, null
  br i1 %24, label %27, label %25

25:                                               ; preds = %6
  call void @_ZN5blink5mojom14UsageBreakdownD1Ev(%"class.blink::mojom::UsageBreakdown"* nonnull %23) #15
  %26 = bitcast %"class.blink::mojom::UsageBreakdown"* %23 to i8*
  call void @_ZdlPv(i8* %26) #16
  br label %27

27:                                               ; preds = %6, %25
  ret void
}

; Function Attrs: nounwind ssp uwtable
define hidden void @_ZN7storage16QuotaManagerImpl27GetUsageAndQuotaForDevtoolsERKN3url6OriginEN5blink5mojom11StorageTypeEN4base12OnceCallbackIFvNS6_15QuotaStatusCodeEllbN4mojo9StructPtrINS6_14UsageBreakdownEEEEEE(%"class.storage::QuotaManagerImpl"*, %"class.url::Origin"* dereferenceable(80), i32, %"class.base::OnceCallback.381"* nocapture) unnamed_addr #0 align 2 {
  %5 = alloca %"class.std::__1::tuple.766", align 8
  %6 = alloca %"class.std::__1::tuple.769", align 1
  %7 = alloca %"class.base::OnceCallback.381", align 8
  %8 = alloca %class.GURL, align 8
  %9 = alloca %"class.mojo::StructPtr", align 8
  %10 = alloca %class.GURL, align 8
  %11 = alloca %"class.base::OnceCallback.381", align 8
  %12 = icmp ult i32 %2, 3
  br i1 %12, label %13, label %19

13:                                               ; preds = %4
  %14 = getelementptr inbounds %"class.storage::QuotaManagerImpl", %"class.storage::QuotaManagerImpl"* %0, i64 0, i32 3
  %15 = load i8, i8* %14, align 8, !range !15
  %16 = icmp eq i8 %15, 0
  %17 = icmp ne i32 %2, 2
  %18 = or i1 %17, %16
  br i1 %18, label %36, label %19

19:                                               ; preds = %13, %4
  %20 = bitcast %"class.mojo::StructPtr"* %9 to i64*
  store i64 0, i64* %20, align 8
  %21 = bitcast %"class.base::OnceCallback.381"* %7 to i8*
  call void @llvm.lifetime.start.p0i8(i64 8, i8* nonnull %21) #15
  %22 = getelementptr inbounds %"class.base::OnceCallback.381", %"class.base::OnceCallback.381"* %3, i64 0, i32 0, i32 0, i32 0
  %23 = bitcast %"class.base::OnceCallback.381"* %3 to i64*
  %24 = load i64, i64* %23, align 8
  %25 = bitcast %"class.base::OnceCallback.381"* %7 to i64*
  store i64 %24, i64* %25, align 8
  store %"class.base::internal::BindStateBase"* null, %"class.base::internal::BindStateBase"** %22, align 8
  %26 = getelementptr inbounds %"class.base::OnceCallback.381", %"class.base::OnceCallback.381"* %7, i64 0, i32 0
  %27 = inttoptr i64 %24 to %"class.base::internal::BindStateBase"*
  %28 = getelementptr inbounds %"class.base::internal::BindStateBase", %"class.base::internal::BindStateBase"* %27, i64 0, i32 1
  %29 = bitcast void ()** %28 to void (%"class.base::internal::BindStateBase"*, i32, i64, i64, i1, %"class.mojo::StructPtr"*)**
  %30 = load void (%"class.base::internal::BindStateBase"*, i32, i64, i64, i1, %"class.mojo::StructPtr"*)*, void (%"class.base::internal::BindStateBase"*, i32, i64, i64, i1, %"class.mojo::StructPtr"*)** %29, align 8
  call void %30(%"class.base::internal::BindStateBase"* %27, i32 9, i64 0, i64 0, i1 zeroext false, %"class.mojo::StructPtr"* nonnull dereferenceable(8) %9) #15
  call void @_ZN4base8internal12CallbackBaseD2Ev(%"class.base::internal::CallbackBase"* nonnull %26) #15
  call void @llvm.lifetime.end.p0i8(i64 8, i8* nonnull %21) #15
  %31 = getelementptr inbounds %"class.mojo::StructPtr", %"class.mojo::StructPtr"* %9, i64 0, i32 0, i32 0, i32 0, i32 0
  %32 = load %"class.blink::mojom::UsageBreakdown"*, %"class.blink::mojom::UsageBreakdown"** %31, align 8
  store %"class.blink::mojom::UsageBreakdown"* null, %"class.blink::mojom::UsageBreakdown"** %31, align 8
  %33 = icmp eq %"class.blink::mojom::UsageBreakdown"* %32, null
  br i1 %33, label %134, label %34

34:                                               ; preds = %19
  call void @_ZN5blink5mojom14UsageBreakdownD1Ev(%"class.blink::mojom::UsageBreakdown"* nonnull %32) #15
  %35 = bitcast %"class.blink::mojom::UsageBreakdown"* %32 to i8*
  call void @_ZdlPv(i8* %35) #16
  br label %134

36:                                               ; preds = %13
  tail call void @_ZN7storage16QuotaManagerImpl14LazyInitializeEv(%"class.storage::QuotaManagerImpl"* %0)
  %37 = icmp eq i32 %2, 0
  br i1 %37, label %38, label %50

38:                                               ; preds = %36
  %39 = getelementptr inbounds %"class.storage::QuotaManagerImpl", %"class.storage::QuotaManagerImpl"* %0, i64 0, i32 38, i32 0
  %40 = load %"class.storage::SpecialStoragePolicy"*, %"class.storage::SpecialStoragePolicy"** %39, align 8
  %41 = icmp eq %"class.storage::SpecialStoragePolicy"* %40, null
  br i1 %41, label %50, label %42

42:                                               ; preds = %38
  %43 = bitcast %class.GURL* %10 to i8*
  call void @llvm.lifetime.start.p0i8(i64 120, i8* nonnull %43) #15
  call void @_ZNK3url6Origin6GetURLEv(%class.GURL* nonnull sret %10, %"class.url::Origin"* %1) #15
  %44 = bitcast %"class.storage::SpecialStoragePolicy"* %40 to i1 (%"class.storage::SpecialStoragePolicy"*, %class.GURL*)***
  %45 = load i1 (%"class.storage::SpecialStoragePolicy"*, %class.GURL*)**, i1 (%"class.storage::SpecialStoragePolicy"*, %class.GURL*)*** %44, align 8
  %46 = getelementptr inbounds i1 (%"class.storage::SpecialStoragePolicy"*, %class.GURL*)*, i1 (%"class.storage::SpecialStoragePolicy"*, %class.GURL*)** %45, i64 4
  %47 = load i1 (%"class.storage::SpecialStoragePolicy"*, %class.GURL*)*, i1 (%"class.storage::SpecialStoragePolicy"*, %class.GURL*)** %46, align 8
  %48 = call zeroext i1 %47(%"class.storage::SpecialStoragePolicy"* nonnull %40, %class.GURL* nonnull dereferenceable(120) %10) #15
  call void @_ZN4GURLD1Ev(%class.GURL* nonnull %10) #15
  call void @llvm.lifetime.end.p0i8(i64 120, i8* nonnull %43) #15
  %49 = zext i1 %48 to i8
  br label %50

50:                                               ; preds = %38, %36, %42
  %51 = phi i8 [ %49, %42 ], [ 0, %38 ], [ 0, %36 ]
  %52 = getelementptr inbounds %"class.storage::QuotaManagerImpl", %"class.storage::QuotaManagerImpl"* %0, i64 0, i32 24, i32 0, i32 1, i32 0, i32 0
  %53 = bitcast %"class.std::__1::__tree_end_node"* %52 to %"class.std::__1::__tree_node.662"**
  %54 = load %"class.std::__1::__tree_node.662"*, %"class.std::__1::__tree_node.662"** %53, align 8
  %55 = icmp eq %"class.std::__1::__tree_node.662"* %54, null
  br i1 %55, label %85, label %56

56:                                               ; preds = %50, %56
  %57 = phi %"class.std::__1::__tree_end_node"* [ %66, %56 ], [ %52, %50 ]
  %58 = phi %"class.std::__1::__tree_node.662"* [ %67, %56 ], [ %54, %50 ]
  %59 = getelementptr inbounds %"class.std::__1::__tree_node.662", %"class.std::__1::__tree_node.662"* %58, i64 0, i32 1, i32 0, i32 0
  %60 = call zeroext i1 @_ZNK3url6OriginltERKS0_(%"class.url::Origin"* %59, %"class.url::Origin"* dereferenceable(80) %1) #15
  %61 = getelementptr inbounds %"class.std::__1::__tree_node.662", %"class.std::__1::__tree_node.662"* %58, i64 0, i32 0, i32 1
  %62 = bitcast %"class.std::__1::__tree_node_base"** %61 to %"class.std::__1::__tree_node.662"**
  %63 = getelementptr inbounds %"class.std::__1::__tree_node.662", %"class.std::__1::__tree_node.662"* %58, i64 0, i32 0, i32 0
  %64 = bitcast %"class.std::__1::__tree_node.662"* %58 to %"class.std::__1::__tree_node.662"**
  %65 = select i1 %60, %"class.std::__1::__tree_node.662"** %62, %"class.std::__1::__tree_node.662"** %64
  %66 = select i1 %60, %"class.std::__1::__tree_end_node"* %57, %"class.std::__1::__tree_end_node"* %63
  %67 = load %"class.std::__1::__tree_node.662"*, %"class.std::__1::__tree_node.662"** %65, align 8
  %68 = icmp eq %"class.std::__1::__tree_node.662"* %67, null
  br i1 %68, label %69, label %56

69:                                               ; preds = %56
  %70 = icmp eq %"class.std::__1::__tree_end_node"* %66, %52
  br i1 %70, label %85, label %71

71:                                               ; preds = %69
  %72 = getelementptr inbounds %"class.std::__1::__tree_end_node", %"class.std::__1::__tree_end_node"* %66, i64 4
  %73 = bitcast %"class.std::__1::__tree_end_node"* %72 to %"class.url::Origin"*
  %74 = call zeroext i1 @_ZNK3url6OriginltERKS0_(%"class.url::Origin"* %1, %"class.url::Origin"* dereferenceable(80) %73) #15
  br i1 %74, label %85, label %75

75:                                               ; preds = %71
  %76 = getelementptr inbounds %"class.storage::QuotaManagerImpl", %"class.storage::QuotaManagerImpl"* %0, i64 0, i32 24, i32 0
  %77 = bitcast %"class.std::__1::tuple.766"* %5 to i8*
  call void @llvm.lifetime.start.p0i8(i64 8, i8* nonnull %77) #15
  %78 = getelementptr inbounds %"class.std::__1::tuple.766", %"class.std::__1::tuple.766"* %5, i64 0, i32 0, i32 0, i32 0
  store %"class.url::Origin"* %1, %"class.url::Origin"** %78, align 8
  %79 = getelementptr inbounds %"class.std::__1::tuple.769", %"class.std::__1::tuple.769"* %6, i64 0, i32 0
  call void @llvm.lifetime.start.p0i8(i64 1, i8* nonnull %79) #15
  %80 = call { %"class.std::__1::__tree_end_node"*, i8 } @_ZNSt3__16__treeINS_12__value_typeIN3url6OriginEN7storage16QuotaManagerImpl13QuotaOverrideEEENS_19__map_value_compareIS3_S7_NS_4lessIS3_EELb1EEENS_9allocatorIS7_EEE25__emplace_unique_key_argsIS3_JRKNS_21piecewise_construct_tENS_5tupleIJRKS3_EEENSJ_IJEEEEEENS_4pairINS_15__tree_iteratorIS7_PNS_11__tree_nodeIS7_PvEElEEbEERKT_DpOT0_(%"class.std::__1::__tree.84"* %76, %"class.url::Origin"* dereferenceable(80) %1, %"struct.std::__1::piecewise_construct_t"* nonnull dereferenceable(1) @_ZNSt3__1L19piecewise_constructE, %"class.std::__1::tuple.766"* nonnull dereferenceable(8) %5, %"class.std::__1::tuple.769"* nonnull dereferenceable(1) %6) #15
  %81 = extractvalue { %"class.std::__1::__tree_end_node"*, i8 } %80, 0
  %82 = getelementptr inbounds %"class.std::__1::__tree_end_node", %"class.std::__1::__tree_end_node"* %81, i64 14
  call void @llvm.lifetime.end.p0i8(i64 1, i8* nonnull %79) #15
  call void @llvm.lifetime.end.p0i8(i64 8, i8* nonnull %77) #15
  %83 = bitcast %"class.std::__1::__tree_end_node"* %82 to i64*
  %84 = load i64, i64* %83, align 8
  br label %85

85:                                               ; preds = %50, %69, %71, %75
  %86 = phi i64 [ %84, %75 ], [ undef, %50 ], [ undef, %69 ], [ undef, %71 ]
  %87 = phi i8 [ 1, %75 ], [ 0, %50 ], [ 0, %69 ], [ 0, %71 ]
  %88 = call i8* @_Znwm(i64 256) #16
  switch i32 %2, label %90 [
    i32 2, label %102
    i32 3, label %89
  ]

89:                                               ; preds = %85
  br label %102

90:                                               ; preds = %85
  %91 = getelementptr inbounds %"class.storage::QuotaManagerImpl", %"class.storage::QuotaManagerImpl"* %0, i64 0, i32 38, i32 0
  %92 = load %"class.storage::SpecialStoragePolicy"*, %"class.storage::SpecialStoragePolicy"** %91, align 8
  %93 = icmp eq %"class.storage::SpecialStoragePolicy"* %92, null
  br i1 %93, label %102, label %94

94:                                               ; preds = %90
  %95 = bitcast %class.GURL* %8 to i8*
  call void @llvm.lifetime.start.p0i8(i64 120, i8* nonnull %95) #15
  call void @_ZNK3url6Origin6GetURLEv(%class.GURL* nonnull sret %8, %"class.url::Origin"* %1) #15
  %96 = bitcast %"class.storage::SpecialStoragePolicy"* %92 to i1 (%"class.storage::SpecialStoragePolicy"*, %class.GURL*)***
  %97 = load i1 (%"class.storage::SpecialStoragePolicy"*, %class.GURL*)**, i1 (%"class.storage::SpecialStoragePolicy"*, %class.GURL*)*** %96, align 8
  %98 = getelementptr inbounds i1 (%"class.storage::SpecialStoragePolicy"*, %class.GURL*)*, i1 (%"class.storage::SpecialStoragePolicy"*, %class.GURL*)** %97, i64 1
  %99 = load i1 (%"class.storage::SpecialStoragePolicy"*, %class.GURL*)*, i1 (%"class.storage::SpecialStoragePolicy"*, %class.GURL*)** %98, align 8
  %100 = call zeroext i1 %99(%"class.storage::SpecialStoragePolicy"* nonnull %92, %class.GURL* nonnull dereferenceable(120) %8) #15
  call void @_ZN4GURLD1Ev(%class.GURL* nonnull %8) #15
  call void @llvm.lifetime.end.p0i8(i64 120, i8* nonnull %95) #15
  %101 = zext i1 %100 to i8
  br label %102

102:                                              ; preds = %85, %89, %90, %94
  %103 = phi i8 [ 1, %89 ], [ %101, %94 ], [ 0, %85 ], [ 0, %90 ]
  %104 = load i8, i8* %14, align 8, !range !15
  %105 = getelementptr inbounds %"class.base::OnceCallback.381", %"class.base::OnceCallback.381"* %3, i64 0, i32 0, i32 0, i32 0
  %106 = bitcast %"class.base::OnceCallback.381"* %3 to i64*
  %107 = load i64, i64* %106, align 8
  store %"class.base::internal::BindStateBase"* null, %"class.base::internal::BindStateBase"** %105, align 8
  %108 = bitcast i8* %88 to %"class.storage::QuotaTask"*
  %109 = getelementptr inbounds %"class.storage::QuotaManagerImpl", %"class.storage::QuotaManagerImpl"* %0, i64 0, i32 0
  call void @_ZN7storage9QuotaTaskC2EPNS_17QuotaTaskObserverE(%"class.storage::QuotaTask"* nonnull %108, %"class.storage::QuotaTaskObserver"* %109) #15
  %110 = bitcast i8* %88 to i32 (...)***
  store i32 (...)** bitcast (i8** getelementptr inbounds ({ [7 x i8*] }, { [7 x i8*] }* @_ZTVN7storage16QuotaManagerImpl25UsageAndQuotaInfoGathererE, i64 0, inrange i32 0, i64 2) to i32 (...)**), i32 (...)*** %110, align 8
  %111 = getelementptr inbounds i8, i8* %88, i64 32
  %112 = bitcast i8* %111 to %"class.url::Origin"*
  call void @_ZN3url6OriginC1ERKS0_(%"class.url::Origin"* %112, %"class.url::Origin"* dereferenceable(80) %1) #15
  %113 = getelementptr inbounds i8, i8* %88, i64 112
  %114 = getelementptr inbounds %"class.base::OnceCallback.381", %"class.base::OnceCallback.381"* %11, i64 0, i32 0, i32 0, i32 0
  %115 = bitcast i8* %113 to i64*
  store i64 %107, i64* %115, align 8
  store %"class.base::internal::BindStateBase"* null, %"class.base::internal::BindStateBase"** %114, align 8
  %116 = getelementptr inbounds i8, i8* %88, i64 120
  %117 = bitcast i8* %116 to i32*
  store i32 %2, i32* %117, align 8
  %118 = getelementptr inbounds i8, i8* %88, i64 124
  store i8 %103, i8* %118, align 4
  %119 = getelementptr inbounds i8, i8* %88, i64 125
  store i8 %51, i8* %119, align 1
  %120 = getelementptr inbounds i8, i8* %88, i64 126
  store i8 %104, i8* %120, align 2
  %121 = getelementptr inbounds i8, i8* %88, i64 128
  %122 = getelementptr inbounds i8, i8* %88, i64 160
  call void @llvm.memset.p0i8.i64(i8* align 8 %121, i8 0, i64 32, i1 false) #15
  store i8 %87, i8* %122, align 8
  %123 = getelementptr inbounds i8, i8* %88, i64 168
  store i8 %87, i8* %123, align 8
  %124 = getelementptr inbounds i8, i8* %88, i64 169
  call void @llvm.memcpy.p0i8.p0i8.i64(i8* align 1 %124, i8* nonnull align 1 getelementptr inbounds ({ { { { i8, [7 x i8], %union.anon.392 } } } }, { { { { i8, [7 x i8], %union.anon.392 } } } }* @__const._ZN7storage16QuotaManagerImpl16GetUsageAndQuotaERKN3url6OriginEN5blink5mojom11StorageTypeEN4base12OnceCallbackIFvNS6_15QuotaStatusCodeEllEEE.quota_override, i64 0, i32 0, i32 0, i32 0, i32 1, i64 0), i64 7, i1 false)
  %125 = getelementptr inbounds i8, i8* %88, i64 176
  %126 = bitcast i8* %125 to i64*
  store i64 %86, i64* %126, align 8
  %127 = getelementptr inbounds i8, i8* %88, i64 184
  %128 = getelementptr inbounds i8, i8* %88, i64 232
  %129 = bitcast i8* %128 to i64*
  call void @llvm.memset.p0i8.i64(i8* align 8 %127, i8 0, i64 48, i1 false) #15
  store i64 9223372036854775807, i64* %129, align 8
  %130 = getelementptr inbounds i8, i8* %88, i64 240
  %131 = bitcast i8* %130 to %"class.base::internal::WeakPtrFactoryBase"*
  %132 = ptrtoint i8* %88 to i64
  call void @_ZN4base8internal18WeakPtrFactoryBaseC2Em(%"class.base::internal::WeakPtrFactoryBase"* %131, i64 %132) #15
  %133 = getelementptr inbounds %"class.base::OnceCallback.381", %"class.base::OnceCallback.381"* %11, i64 0, i32 0
  call void @_ZN4base8internal12CallbackBaseD2Ev(%"class.base::internal::CallbackBase"* nonnull %133) #15
  call void @_ZN7storage9QuotaTask5StartEv(%"class.storage::QuotaTask"* nonnull %108) #15
  br label %134

134:                                              ; preds = %34, %19, %102
  ret void
}

declare void @_ZNK3url6Origin6GetURLEv(%class.GURL* sret, %"class.url::Origin"*) local_unnamed_addr #1

; Function Attrs: nounwind
declare void @_ZN4GURLD1Ev(%class.GURL*) unnamed_addr #4

; Function Attrs: nounwind ssp uwtable
define hidden { i8, i64 } @_ZN7storage16QuotaManagerImpl25GetQuotaOverrideForOriginERKN3url6OriginE(%"class.storage::QuotaManagerImpl"*, %"class.url::Origin"* dereferenceable(80)) local_unnamed_addr #0 align 2 {
  %3 = alloca %"class.std::__1::tuple.766", align 8
  %4 = alloca %"class.std::__1::tuple.769", align 1
  %5 = getelementptr inbounds %"class.storage::QuotaManagerImpl", %"class.storage::QuotaManagerImpl"* %0, i64 0, i32 24, i32 0, i32 1, i32 0, i32 0
  %6 = bitcast %"class.std::__1::__tree_end_node"* %5 to %"class.std::__1::__tree_node.662"**
  %7 = load %"class.std::__1::__tree_node.662"*, %"class.std::__1::__tree_node.662"** %6, align 8
  %8 = icmp eq %"class.std::__1::__tree_node.662"* %7, null
  br i1 %8, label %38, label %9

9:                                                ; preds = %2, %9
  %10 = phi %"class.std::__1::__tree_end_node"* [ %19, %9 ], [ %5, %2 ]
  %11 = phi %"class.std::__1::__tree_node.662"* [ %20, %9 ], [ %7, %2 ]
  %12 = getelementptr inbounds %"class.std::__1::__tree_node.662", %"class.std::__1::__tree_node.662"* %11, i64 0, i32 1, i32 0, i32 0
  %13 = tail call zeroext i1 @_ZNK3url6OriginltERKS0_(%"class.url::Origin"* %12, %"class.url::Origin"* dereferenceable(80) %1) #15
  %14 = getelementptr inbounds %"class.std::__1::__tree_node.662", %"class.std::__1::__tree_node.662"* %11, i64 0, i32 0, i32 1
  %15 = bitcast %"class.std::__1::__tree_node_base"** %14 to %"class.std::__1::__tree_node.662"**
  %16 = getelementptr inbounds %"class.std::__1::__tree_node.662", %"class.std::__1::__tree_node.662"* %11, i64 0, i32 0, i32 0
  %17 = bitcast %"class.std::__1::__tree_node.662"* %11 to %"class.std::__1::__tree_node.662"**
  %18 = select i1 %13, %"class.std::__1::__tree_node.662"** %15, %"class.std::__1::__tree_node.662"** %17
  %19 = select i1 %13, %"class.std::__1::__tree_end_node"* %10, %"class.std::__1::__tree_end_node"* %16
  %20 = load %"class.std::__1::__tree_node.662"*, %"class.std::__1::__tree_node.662"** %18, align 8
  %21 = icmp eq %"class.std::__1::__tree_node.662"* %20, null
  br i1 %21, label %22, label %9

22:                                               ; preds = %9
  %23 = icmp eq %"class.std::__1::__tree_end_node"* %19, %5
  br i1 %23, label %38, label %24

24:                                               ; preds = %22
  %25 = getelementptr inbounds %"class.std::__1::__tree_end_node", %"class.std::__1::__tree_end_node"* %19, i64 4
  %26 = bitcast %"class.std::__1::__tree_end_node"* %25 to %"class.url::Origin"*
  %27 = tail call zeroext i1 @_ZNK3url6OriginltERKS0_(%"class.url::Origin"* %1, %"class.url::Origin"* dereferenceable(80) %26) #15
  br i1 %27, label %38, label %28

28:                                               ; preds = %24
  %29 = getelementptr inbounds %"class.storage::QuotaManagerImpl", %"class.storage::QuotaManagerImpl"* %0, i64 0, i32 24, i32 0
  %30 = bitcast %"class.std::__1::tuple.766"* %3 to i8*
  call void @llvm.lifetime.start.p0i8(i64 8, i8* nonnull %30) #15
  %31 = getelementptr inbounds %"class.std::__1::tuple.766", %"class.std::__1::tuple.766"* %3, i64 0, i32 0, i32 0, i32 0
  store %"class.url::Origin"* %1, %"class.url::Origin"** %31, align 8
  %32 = getelementptr inbounds %"class.std::__1::tuple.769", %"class.std::__1::tuple.769"* %4, i64 0, i32 0
  call void @llvm.lifetime.start.p0i8(i64 1, i8* nonnull %32) #15
  %33 = call { %"class.std::__1::__tree_end_node"*, i8 } @_ZNSt3__16__treeINS_12__value_typeIN3url6OriginEN7storage16QuotaManagerImpl13QuotaOverrideEEENS_19__map_value_compareIS3_S7_NS_4lessIS3_EELb1EEENS_9allocatorIS7_EEE25__emplace_unique_key_argsIS3_JRKNS_21piecewise_construct_tENS_5tupleIJRKS3_EEENSJ_IJEEEEEENS_4pairINS_15__tree_iteratorIS7_PNS_11__tree_nodeIS7_PvEElEEbEERKT_DpOT0_(%"class.std::__1::__tree.84"* %29, %"class.url::Origin"* dereferenceable(80) %1, %"struct.std::__1::piecewise_construct_t"* nonnull dereferenceable(1) @_ZNSt3__1L19piecewise_constructE, %"class.std::__1::tuple.766"* nonnull dereferenceable(8) %3, %"class.std::__1::tuple.769"* nonnull dereferenceable(1) %4) #15
  %34 = extractvalue { %"class.std::__1::__tree_end_node"*, i8 } %33, 0
  %35 = getelementptr inbounds %"class.std::__1::__tree_end_node", %"class.std::__1::__tree_end_node"* %34, i64 14
  call void @llvm.lifetime.end.p0i8(i64 1, i8* nonnull %32) #15
  call void @llvm.lifetime.end.p0i8(i64 8, i8* nonnull %30) #15
  %36 = bitcast %"class.std::__1::__tree_end_node"* %35 to i64*
  %37 = load i64, i64* %36, align 8
  br label %38

38:                                               ; preds = %24, %22, %2, %28
  %39 = phi i64 [ %37, %28 ], [ undef, %2 ], [ undef, %22 ], [ undef, %24 ]
  %40 = phi i8 [ 1, %28 ], [ 0, %2 ], [ 0, %22 ], [ 0, %24 ]
  %41 = insertvalue { i8, i64 } undef, i8 %40, 0
  %42 = insertvalue { i8, i64 } %41, i64 %39, 1
  ret { i8, i64 } %42
}

; Function Attrs: nounwind ssp uwtable
define hidden zeroext i1 @_ZNK7storage16QuotaManagerImpl18IsStorageUnlimitedERKN3url6OriginEN5blink5mojom11StorageTypeE(%"class.storage::QuotaManagerImpl"* nocapture readonly, %"class.url::Origin"* dereferenceable(80), i32) local_unnamed_addr #0 align 2 {
  %4 = alloca %class.GURL, align 8
  switch i32 %2, label %6 [
    i32 2, label %17
    i32 3, label %5
  ]

5:                                                ; preds = %3
  br label %17

6:                                                ; preds = %3
  %7 = getelementptr inbounds %"class.storage::QuotaManagerImpl", %"class.storage::QuotaManagerImpl"* %0, i64 0, i32 38, i32 0
  %8 = load %"class.storage::SpecialStoragePolicy"*, %"class.storage::SpecialStoragePolicy"** %7, align 8
  %9 = icmp eq %"class.storage::SpecialStoragePolicy"* %8, null
  br i1 %9, label %17, label %10

10:                                               ; preds = %6
  %11 = bitcast %class.GURL* %4 to i8*
  call void @llvm.lifetime.start.p0i8(i64 120, i8* nonnull %11) #15
  call void @_ZNK3url6Origin6GetURLEv(%class.GURL* nonnull sret %4, %"class.url::Origin"* %1) #15
  %12 = bitcast %"class.storage::SpecialStoragePolicy"* %8 to i1 (%"class.storage::SpecialStoragePolicy"*, %class.GURL*)***
  %13 = load i1 (%"class.storage::SpecialStoragePolicy"*, %class.GURL*)**, i1 (%"class.storage::SpecialStoragePolicy"*, %class.GURL*)*** %12, align 8
  %14 = getelementptr inbounds i1 (%"class.storage::SpecialStoragePolicy"*, %class.GURL*)*, i1 (%"class.storage::SpecialStoragePolicy"*, %class.GURL*)** %13, i64 1
  %15 = load i1 (%"class.storage::SpecialStoragePolicy"*, %class.GURL*)*, i1 (%"class.storage::SpecialStoragePolicy"*, %class.GURL*)** %14, align 8
  %16 = call zeroext i1 %15(%"class.storage::SpecialStoragePolicy"* nonnull %8, %class.GURL* nonnull dereferenceable(120) %4) #15
  call void @_ZN4GURLD1Ev(%class.GURL* nonnull %4) #15
  call void @llvm.lifetime.end.p0i8(i64 120, i8* nonnull %11) #15
  br label %17

17:                                               ; preds = %6, %3, %10, %5
  %18 = phi i1 [ true, %5 ], [ %16, %10 ], [ false, %3 ], [ false, %6 ]
  ret i1 %18
}

; Function Attrs: nounwind ssp uwtable
define hidden void @_ZN7storage16QuotaManagerImpl16GetUsageAndQuotaERKN3url6OriginEN5blink5mojom11StorageTypeEN4base12OnceCallbackIFvNS6_15QuotaStatusCodeEllEEE(%"class.storage::QuotaManagerImpl"*, %"class.url::Origin"* dereferenceable(80), i32, %"class.base::OnceCallback.373"* nocapture) unnamed_addr #0 align 2 {
  %5 = alloca %class.GURL, align 8
  %6 = alloca %"class.std::__1::tuple.766", align 8
  %7 = alloca %"class.std::__1::tuple.769", align 1
  %8 = alloca %"class.base::OnceCallback.373", align 8
  %9 = alloca %"class.base::OnceCallback.373", align 8
  %10 = alloca %class.GURL, align 8
  %11 = alloca %class.GURL, align 8
  %12 = alloca %"class.base::OnceCallback.381", align 8
  %13 = alloca %"class.base::OnceCallback.374", align 8
  switch i32 %2, label %14 [
    i32 2, label %38
    i32 3, label %25
  ]

14:                                               ; preds = %4
  %15 = getelementptr inbounds %"class.storage::QuotaManagerImpl", %"class.storage::QuotaManagerImpl"* %0, i64 0, i32 38, i32 0
  %16 = load %"class.storage::SpecialStoragePolicy"*, %"class.storage::SpecialStoragePolicy"** %15, align 8
  %17 = icmp eq %"class.storage::SpecialStoragePolicy"* %16, null
  br i1 %17, label %36, label %18

18:                                               ; preds = %14
  %19 = bitcast %class.GURL* %10 to i8*
  call void @llvm.lifetime.start.p0i8(i64 120, i8* nonnull %19) #15
  call void @_ZNK3url6Origin6GetURLEv(%class.GURL* nonnull sret %10, %"class.url::Origin"* %1) #15
  %20 = bitcast %"class.storage::SpecialStoragePolicy"* %16 to i1 (%"class.storage::SpecialStoragePolicy"*, %class.GURL*)***
  %21 = load i1 (%"class.storage::SpecialStoragePolicy"*, %class.GURL*)**, i1 (%"class.storage::SpecialStoragePolicy"*, %class.GURL*)*** %20, align 8
  %22 = getelementptr inbounds i1 (%"class.storage::SpecialStoragePolicy"*, %class.GURL*)*, i1 (%"class.storage::SpecialStoragePolicy"*, %class.GURL*)** %21, i64 1
  %23 = load i1 (%"class.storage::SpecialStoragePolicy"*, %class.GURL*)*, i1 (%"class.storage::SpecialStoragePolicy"*, %class.GURL*)** %22, align 8
  %24 = call zeroext i1 %23(%"class.storage::SpecialStoragePolicy"* nonnull %16, %class.GURL* nonnull dereferenceable(120) %10) #15
  call void @_ZN4GURLD1Ev(%class.GURL* nonnull %10) #15
  call void @llvm.lifetime.end.p0i8(i64 120, i8* nonnull %19) #15
  br i1 %24, label %25, label %36

25:                                               ; preds = %4, %18
  %26 = bitcast %"class.base::OnceCallback.373"* %9 to i8*
  call void @llvm.lifetime.start.p0i8(i64 8, i8* nonnull %26) #15
  %27 = getelementptr inbounds %"class.base::OnceCallback.373", %"class.base::OnceCallback.373"* %3, i64 0, i32 0, i32 0, i32 0
  %28 = bitcast %"class.base::OnceCallback.373"* %3 to i64*
  %29 = load i64, i64* %28, align 8
  %30 = bitcast %"class.base::OnceCallback.373"* %9 to i64*
  store i64 %29, i64* %30, align 8
  store %"class.base::internal::BindStateBase"* null, %"class.base::internal::BindStateBase"** %27, align 8
  %31 = getelementptr inbounds %"class.base::OnceCallback.373", %"class.base::OnceCallback.373"* %9, i64 0, i32 0
  %32 = inttoptr i64 %29 to %"class.base::internal::BindStateBase"*
  %33 = getelementptr inbounds %"class.base::internal::BindStateBase", %"class.base::internal::BindStateBase"* %32, i64 0, i32 1
  %34 = bitcast void ()** %33 to void (%"class.base::internal::BindStateBase"*, i32, i64, i64)**
  %35 = load void (%"class.base::internal::BindStateBase"*, i32, i64, i64)*, void (%"class.base::internal::BindStateBase"*, i32, i64, i64)** %34, align 8
  call void %35(%"class.base::internal::BindStateBase"* %32, i32 0, i64 0, i64 9223372036854775807) #15
  call void @_ZN4base8internal12CallbackBaseD2Ev(%"class.base::internal::CallbackBase"* nonnull %31) #15
  call void @llvm.lifetime.end.p0i8(i64 8, i8* nonnull %26) #15
  br label %171

36:                                               ; preds = %14, %18
  %37 = icmp ult i32 %2, 3
  br i1 %37, label %54, label %43

38:                                               ; preds = %4
  %39 = getelementptr inbounds %"class.storage::QuotaManagerImpl", %"class.storage::QuotaManagerImpl"* %0, i64 0, i32 3
  %40 = load i8, i8* %39, align 8, !range !15
  %41 = icmp eq i8 %40, 0
  br i1 %41, label %42, label %43

42:                                               ; preds = %38
  call void @_ZN7storage16QuotaManagerImpl14LazyInitializeEv(%"class.storage::QuotaManagerImpl"* %0)
  br label %69

43:                                               ; preds = %38, %36
  %44 = bitcast %"class.base::OnceCallback.373"* %8 to i8*
  call void @llvm.lifetime.start.p0i8(i64 8, i8* nonnull %44) #15
  %45 = getelementptr inbounds %"class.base::OnceCallback.373", %"class.base::OnceCallback.373"* %3, i64 0, i32 0, i32 0, i32 0
  %46 = bitcast %"class.base::OnceCallback.373"* %3 to i64*
  %47 = load i64, i64* %46, align 8
  %48 = bitcast %"class.base::OnceCallback.373"* %8 to i64*
  store i64 %47, i64* %48, align 8
  store %"class.base::internal::BindStateBase"* null, %"class.base::internal::BindStateBase"** %45, align 8
  %49 = getelementptr inbounds %"class.base::OnceCallback.373", %"class.base::OnceCallback.373"* %8, i64 0, i32 0
  %50 = inttoptr i64 %47 to %"class.base::internal::BindStateBase"*
  %51 = getelementptr inbounds %"class.base::internal::BindStateBase", %"class.base::internal::BindStateBase"* %50, i64 0, i32 1
  %52 = bitcast void ()** %51 to void (%"class.base::internal::BindStateBase"*, i32, i64, i64)**
  %53 = load void (%"class.base::internal::BindStateBase"*, i32, i64, i64)*, void (%"class.base::internal::BindStateBase"*, i32, i64, i64)** %52, align 8
  call void %53(%"class.base::internal::BindStateBase"* %50, i32 9, i64 0, i64 0) #15
  call void @_ZN4base8internal12CallbackBaseD2Ev(%"class.base::internal::CallbackBase"* nonnull %49) #15
  call void @llvm.lifetime.end.p0i8(i64 8, i8* nonnull %44) #15
  br label %171

54:                                               ; preds = %36
  %55 = getelementptr inbounds %"class.storage::QuotaManagerImpl", %"class.storage::QuotaManagerImpl"* %0, i64 0, i32 3
  call void @_ZN7storage16QuotaManagerImpl14LazyInitializeEv(%"class.storage::QuotaManagerImpl"* %0)
  %56 = icmp eq i32 %2, 0
  br i1 %56, label %57, label %69

57:                                               ; preds = %54
  %58 = getelementptr inbounds %"class.storage::QuotaManagerImpl", %"class.storage::QuotaManagerImpl"* %0, i64 0, i32 38, i32 0
  %59 = load %"class.storage::SpecialStoragePolicy"*, %"class.storage::SpecialStoragePolicy"** %58, align 8
  %60 = icmp eq %"class.storage::SpecialStoragePolicy"* %59, null
  br i1 %60, label %69, label %61

61:                                               ; preds = %57
  %62 = bitcast %class.GURL* %11 to i8*
  call void @llvm.lifetime.start.p0i8(i64 120, i8* nonnull %62) #15
  call void @_ZNK3url6Origin6GetURLEv(%class.GURL* nonnull sret %11, %"class.url::Origin"* %1) #15
  %63 = bitcast %"class.storage::SpecialStoragePolicy"* %59 to i1 (%"class.storage::SpecialStoragePolicy"*, %class.GURL*)***
  %64 = load i1 (%"class.storage::SpecialStoragePolicy"*, %class.GURL*)**, i1 (%"class.storage::SpecialStoragePolicy"*, %class.GURL*)*** %63, align 8
  %65 = getelementptr inbounds i1 (%"class.storage::SpecialStoragePolicy"*, %class.GURL*)*, i1 (%"class.storage::SpecialStoragePolicy"*, %class.GURL*)** %64, i64 4
  %66 = load i1 (%"class.storage::SpecialStoragePolicy"*, %class.GURL*)*, i1 (%"class.storage::SpecialStoragePolicy"*, %class.GURL*)** %65, align 8
  %67 = call zeroext i1 %66(%"class.storage::SpecialStoragePolicy"* nonnull %59, %class.GURL* nonnull dereferenceable(120) %11) #15
  call void @_ZN4GURLD1Ev(%class.GURL* nonnull %11) #15
  call void @llvm.lifetime.end.p0i8(i64 120, i8* nonnull %62) #15
  %68 = zext i1 %67 to i8
  br label %69

69:                                               ; preds = %42, %57, %54, %61
  %70 = phi i8* [ %55, %61 ], [ %55, %57 ], [ %55, %54 ], [ %39, %42 ]
  %71 = phi i8 [ %68, %61 ], [ 0, %57 ], [ 0, %54 ], [ 0, %42 ]
  %72 = getelementptr inbounds %"class.storage::QuotaManagerImpl", %"class.storage::QuotaManagerImpl"* %0, i64 0, i32 24, i32 0, i32 1, i32 0, i32 0
  %73 = bitcast %"class.std::__1::__tree_end_node"* %72 to %"class.std::__1::__tree_node.662"**
  %74 = load %"class.std::__1::__tree_node.662"*, %"class.std::__1::__tree_node.662"** %73, align 8
  %75 = icmp eq %"class.std::__1::__tree_node.662"* %74, null
  br i1 %75, label %105, label %76

76:                                               ; preds = %69, %76
  %77 = phi %"class.std::__1::__tree_end_node"* [ %86, %76 ], [ %72, %69 ]
  %78 = phi %"class.std::__1::__tree_node.662"* [ %87, %76 ], [ %74, %69 ]
  %79 = getelementptr inbounds %"class.std::__1::__tree_node.662", %"class.std::__1::__tree_node.662"* %78, i64 0, i32 1, i32 0, i32 0
  %80 = call zeroext i1 @_ZNK3url6OriginltERKS0_(%"class.url::Origin"* %79, %"class.url::Origin"* dereferenceable(80) %1) #15
  %81 = getelementptr inbounds %"class.std::__1::__tree_node.662", %"class.std::__1::__tree_node.662"* %78, i64 0, i32 0, i32 1
  %82 = bitcast %"class.std::__1::__tree_node_base"** %81 to %"class.std::__1::__tree_node.662"**
  %83 = getelementptr inbounds %"class.std::__1::__tree_node.662", %"class.std::__1::__tree_node.662"* %78, i64 0, i32 0, i32 0
  %84 = bitcast %"class.std::__1::__tree_node.662"* %78 to %"class.std::__1::__tree_node.662"**
  %85 = select i1 %80, %"class.std::__1::__tree_node.662"** %82, %"class.std::__1::__tree_node.662"** %84
  %86 = select i1 %80, %"class.std::__1::__tree_end_node"* %77, %"class.std::__1::__tree_end_node"* %83
  %87 = load %"class.std::__1::__tree_node.662"*, %"class.std::__1::__tree_node.662"** %85, align 8
  %88 = icmp eq %"class.std::__1::__tree_node.662"* %87, null
  br i1 %88, label %89, label %76

89:                                               ; preds = %76
  %90 = icmp eq %"class.std::__1::__tree_end_node"* %86, %72
  br i1 %90, label %105, label %91

91:                                               ; preds = %89
  %92 = getelementptr inbounds %"class.std::__1::__tree_end_node", %"class.std::__1::__tree_end_node"* %86, i64 4
  %93 = bitcast %"class.std::__1::__tree_end_node"* %92 to %"class.url::Origin"*
  %94 = call zeroext i1 @_ZNK3url6OriginltERKS0_(%"class.url::Origin"* %1, %"class.url::Origin"* dereferenceable(80) %93) #15
  br i1 %94, label %105, label %95

95:                                               ; preds = %91
  %96 = getelementptr inbounds %"class.storage::QuotaManagerImpl", %"class.storage::QuotaManagerImpl"* %0, i64 0, i32 24, i32 0
  %97 = bitcast %"class.std::__1::tuple.766"* %6 to i8*
  call void @llvm.lifetime.start.p0i8(i64 8, i8* nonnull %97) #15
  %98 = getelementptr inbounds %"class.std::__1::tuple.766", %"class.std::__1::tuple.766"* %6, i64 0, i32 0, i32 0, i32 0
  store %"class.url::Origin"* %1, %"class.url::Origin"** %98, align 8
  %99 = getelementptr inbounds %"class.std::__1::tuple.769", %"class.std::__1::tuple.769"* %7, i64 0, i32 0
  call void @llvm.lifetime.start.p0i8(i64 1, i8* nonnull %99) #15
  %100 = call { %"class.std::__1::__tree_end_node"*, i8 } @_ZNSt3__16__treeINS_12__value_typeIN3url6OriginEN7storage16QuotaManagerImpl13QuotaOverrideEEENS_19__map_value_compareIS3_S7_NS_4lessIS3_EELb1EEENS_9allocatorIS7_EEE25__emplace_unique_key_argsIS3_JRKNS_21piecewise_construct_tENS_5tupleIJRKS3_EEENSJ_IJEEEEEENS_4pairINS_15__tree_iteratorIS7_PNS_11__tree_nodeIS7_PvEElEEbEERKT_DpOT0_(%"class.std::__1::__tree.84"* %96, %"class.url::Origin"* dereferenceable(80) %1, %"struct.std::__1::piecewise_construct_t"* nonnull dereferenceable(1) @_ZNSt3__1L19piecewise_constructE, %"class.std::__1::tuple.766"* nonnull dereferenceable(8) %6, %"class.std::__1::tuple.769"* nonnull dereferenceable(1) %7) #15
  %101 = extractvalue { %"class.std::__1::__tree_end_node"*, i8 } %100, 0
  %102 = getelementptr inbounds %"class.std::__1::__tree_end_node", %"class.std::__1::__tree_end_node"* %101, i64 14
  call void @llvm.lifetime.end.p0i8(i64 1, i8* nonnull %99) #15
  call void @llvm.lifetime.end.p0i8(i64 8, i8* nonnull %97) #15
  %103 = bitcast %"class.std::__1::__tree_end_node"* %102 to i64*
  %104 = load i64, i64* %103, align 8
  br label %105

105:                                              ; preds = %69, %89, %91, %95
  %106 = phi i64 [ %104, %95 ], [ undef, %69 ], [ undef, %89 ], [ undef, %91 ]
  %107 = phi i8 [ 1, %95 ], [ 0, %69 ], [ 0, %89 ], [ 0, %91 ]
  %108 = call i8* @_Znwm(i64 256) #16
  switch i32 %2, label %110 [
    i32 2, label %122
    i32 3, label %109
  ]

109:                                              ; preds = %105
  br label %122

110:                                              ; preds = %105
  %111 = getelementptr inbounds %"class.storage::QuotaManagerImpl", %"class.storage::QuotaManagerImpl"* %0, i64 0, i32 38, i32 0
  %112 = load %"class.storage::SpecialStoragePolicy"*, %"class.storage::SpecialStoragePolicy"** %111, align 8
  %113 = icmp eq %"class.storage::SpecialStoragePolicy"* %112, null
  br i1 %113, label %122, label %114

114:                                              ; preds = %110
  %115 = bitcast %class.GURL* %5 to i8*
  call void @llvm.lifetime.start.p0i8(i64 120, i8* nonnull %115) #15
  call void @_ZNK3url6Origin6GetURLEv(%class.GURL* nonnull sret %5, %"class.url::Origin"* %1) #15
  %116 = bitcast %"class.storage::SpecialStoragePolicy"* %112 to i1 (%"class.storage::SpecialStoragePolicy"*, %class.GURL*)***
  %117 = load i1 (%"class.storage::SpecialStoragePolicy"*, %class.GURL*)**, i1 (%"class.storage::SpecialStoragePolicy"*, %class.GURL*)*** %116, align 8
  %118 = getelementptr inbounds i1 (%"class.storage::SpecialStoragePolicy"*, %class.GURL*)*, i1 (%"class.storage::SpecialStoragePolicy"*, %class.GURL*)** %117, i64 1
  %119 = load i1 (%"class.storage::SpecialStoragePolicy"*, %class.GURL*)*, i1 (%"class.storage::SpecialStoragePolicy"*, %class.GURL*)** %118, align 8
  %120 = call zeroext i1 %119(%"class.storage::SpecialStoragePolicy"* nonnull %112, %class.GURL* nonnull dereferenceable(120) %5) #15
  call void @_ZN4GURLD1Ev(%class.GURL* nonnull %5) #15
  call void @llvm.lifetime.end.p0i8(i64 120, i8* nonnull %115) #15
  %121 = zext i1 %120 to i8
  br label %122

122:                                              ; preds = %105, %109, %110, %114
  %123 = phi i8 [ 1, %109 ], [ %121, %114 ], [ 0, %105 ], [ 0, %110 ]
  %124 = load i8, i8* %70, align 8, !range !15
  %125 = bitcast %"class.base::OnceCallback.374"* %13 to i8*
  call void @llvm.lifetime.start.p0i8(i64 8, i8* nonnull %125) #15
  %126 = call i8* @_Znwm(i64 48) #16, !noalias !82
  %127 = bitcast i8* %126 to %"class.base::internal::BindStateBase"*
  call void @_ZN4base8internal13BindStateBaseC2EPFvvEPFvPKS1_E(%"class.base::internal::BindStateBase"* nonnull %127, void ()* bitcast (void (%"class.base::internal::BindStateBase"*, i32, i64, i64, %"class.mojo::StructPtr"*)* @_ZN4base8internal7InvokerINS0_9BindStateIPFvNS_12OnceCallbackIFvN5blink5mojom15QuotaStatusCodeEllEEES6_llN4mojo9StructPtrINS5_14UsageBreakdownEEEEJS8_EEEFvS6_llSC_EE7RunOnceEPNS0_13BindStateBaseES6_llOSC_ to void ()*), void (%"class.base::internal::BindStateBase"*)* nonnull @_ZN4base8internal9BindStateIPFvNS_12OnceCallbackIFvN5blink5mojom15QuotaStatusCodeEllEEES5_llN4mojo9StructPtrINS4_14UsageBreakdownEEEEJS7_EE7DestroyEPKNS0_13BindStateBaseE) #15, !noalias !82
  %128 = getelementptr inbounds i8, i8* %126, i64 32
  %129 = bitcast i8* %128 to i64*
  store i64 ptrtoint (void (%"class.base::OnceCallback.373"*, i32, i64, i64, %"class.mojo::StructPtr"*)* @_ZN7storage12_GLOBAL__N_133DidGetUsageAndQuotaStripBreakdownEN4base12OnceCallbackIFvN5blink5mojom15QuotaStatusCodeEllEEES5_llN4mojo9StructPtrINS4_14UsageBreakdownEEE to i64), i64* %129, align 8, !noalias !82
  %130 = getelementptr inbounds i8, i8* %126, i64 40
  %131 = getelementptr inbounds %"class.base::OnceCallback.373", %"class.base::OnceCallback.373"* %3, i64 0, i32 0, i32 0, i32 0
  %132 = bitcast %"class.base::OnceCallback.373"* %3 to i64*
  %133 = load i64, i64* %132, align 8, !noalias !82
  %134 = bitcast i8* %130 to i64*
  store i64 %133, i64* %134, align 8, !noalias !82
  store %"class.base::internal::BindStateBase"* null, %"class.base::internal::BindStateBase"** %131, align 8, !noalias !82
  %135 = call i8* @_Znwm(i64 48) #16, !noalias !87
  %136 = bitcast i8* %135 to %"class.base::internal::BindStateBase"*
  call void @_ZN4base8internal13BindStateBaseC2EPFvvEPFvPKS1_E(%"class.base::internal::BindStateBase"* nonnull %136, void ()* bitcast (void (%"class.base::internal::BindStateBase"*, i32, i64, i64, i1, %"class.mojo::StructPtr"*)* @_ZN4base8internal7InvokerINS0_9BindStateIPFvNS_12OnceCallbackIFvN5blink5mojom15QuotaStatusCodeEllN4mojo9StructPtrINS5_14UsageBreakdownEEEEEES6_llbSA_EJSC_EEEFvS6_llbSA_EE7RunOnceEPNS0_13BindStateBaseES6_llbOSA_ to void ()*), void (%"class.base::internal::BindStateBase"*)* nonnull @_ZN4base8internal9BindStateIPFvNS_12OnceCallbackIFvN5blink5mojom15QuotaStatusCodeEllN4mojo9StructPtrINS4_14UsageBreakdownEEEEEES5_llbS9_EJSB_EE7DestroyEPKNS0_13BindStateBaseE) #15, !noalias !87
  %137 = getelementptr inbounds i8, i8* %135, i64 32
  %138 = bitcast i8* %137 to i64*
  store i64 ptrtoint (void (%"class.base::OnceCallback.374"*, i32, i64, i64, i1, %"class.mojo::StructPtr"*)* @_ZN7storage12_GLOBAL__N_132DidGetUsageAndQuotaStripOverrideEN4base12OnceCallbackIFvN5blink5mojom15QuotaStatusCodeEllN4mojo9StructPtrINS4_14UsageBreakdownEEEEEES5_llbS9_ to i64), i64* %138, align 8, !noalias !87
  %139 = getelementptr inbounds i8, i8* %135, i64 40
  %140 = getelementptr inbounds %"class.base::OnceCallback.374", %"class.base::OnceCallback.374"* %13, i64 0, i32 0, i32 0, i32 0
  %141 = ptrtoint i8* %126 to i64
  %142 = bitcast i8* %139 to i64*
  store i64 %141, i64* %142, align 8, !noalias !87
  store %"class.base::internal::BindStateBase"* null, %"class.base::internal::BindStateBase"** %140, align 8, !noalias !87
  %143 = bitcast i8* %108 to %"class.storage::QuotaTask"*
  %144 = getelementptr inbounds %"class.storage::QuotaManagerImpl", %"class.storage::QuotaManagerImpl"* %0, i64 0, i32 0
  call void @_ZN7storage9QuotaTaskC2EPNS_17QuotaTaskObserverE(%"class.storage::QuotaTask"* nonnull %143, %"class.storage::QuotaTaskObserver"* %144) #15
  %145 = bitcast i8* %108 to i32 (...)***
  store i32 (...)** bitcast (i8** getelementptr inbounds ({ [7 x i8*] }, { [7 x i8*] }* @_ZTVN7storage16QuotaManagerImpl25UsageAndQuotaInfoGathererE, i64 0, inrange i32 0, i64 2) to i32 (...)**), i32 (...)*** %145, align 8
  %146 = getelementptr inbounds i8, i8* %108, i64 32
  %147 = bitcast i8* %146 to %"class.url::Origin"*
  call void @_ZN3url6OriginC1ERKS0_(%"class.url::Origin"* %147, %"class.url::Origin"* dereferenceable(80) %1) #15
  %148 = getelementptr inbounds i8, i8* %108, i64 112
  %149 = getelementptr inbounds %"class.base::OnceCallback.381", %"class.base::OnceCallback.381"* %12, i64 0, i32 0, i32 0, i32 0
  %150 = ptrtoint i8* %135 to i64
  %151 = bitcast i8* %148 to i64*
  store i64 %150, i64* %151, align 8
  store %"class.base::internal::BindStateBase"* null, %"class.base::internal::BindStateBase"** %149, align 8
  %152 = getelementptr inbounds i8, i8* %108, i64 120
  %153 = bitcast i8* %152 to i32*
  store i32 %2, i32* %153, align 8
  %154 = getelementptr inbounds i8, i8* %108, i64 124
  store i8 %123, i8* %154, align 4
  %155 = getelementptr inbounds i8, i8* %108, i64 125
  store i8 %71, i8* %155, align 1
  %156 = getelementptr inbounds i8, i8* %108, i64 126
  store i8 %124, i8* %156, align 2
  %157 = getelementptr inbounds i8, i8* %108, i64 128
  %158 = getelementptr inbounds i8, i8* %108, i64 160
  call void @llvm.memset.p0i8.i64(i8* align 8 %157, i8 0, i64 32, i1 false) #15
  store i8 %107, i8* %158, align 8
  %159 = getelementptr inbounds i8, i8* %108, i64 168
  store i8 %107, i8* %159, align 8
  %160 = getelementptr inbounds i8, i8* %108, i64 169
  call void @llvm.memcpy.p0i8.p0i8.i64(i8* align 1 %160, i8* nonnull align 1 getelementptr inbounds ({ { { { i8, [7 x i8], %union.anon.392 } } } }, { { { { i8, [7 x i8], %union.anon.392 } } } }* @__const._ZN7storage16QuotaManagerImpl16GetUsageAndQuotaERKN3url6OriginEN5blink5mojom11StorageTypeEN4base12OnceCallbackIFvNS6_15QuotaStatusCodeEllEEE.quota_override, i64 0, i32 0, i32 0, i32 0, i32 1, i64 0), i64 7, i1 false)
  %161 = getelementptr inbounds i8, i8* %108, i64 176
  %162 = bitcast i8* %161 to i64*
  store i64 %106, i64* %162, align 8
  %163 = getelementptr inbounds i8, i8* %108, i64 184
  %164 = getelementptr inbounds i8, i8* %108, i64 232
  %165 = bitcast i8* %164 to i64*
  call void @llvm.memset.p0i8.i64(i8* align 8 %163, i8 0, i64 48, i1 false) #15
  store i64 9223372036854775807, i64* %165, align 8
  %166 = getelementptr inbounds i8, i8* %108, i64 240
  %167 = bitcast i8* %166 to %"class.base::internal::WeakPtrFactoryBase"*
  %168 = ptrtoint i8* %108 to i64
  call void @_ZN4base8internal18WeakPtrFactoryBaseC2Em(%"class.base::internal::WeakPtrFactoryBase"* %167, i64 %168) #15
  %169 = getelementptr inbounds %"class.base::OnceCallback.381", %"class.base::OnceCallback.381"* %12, i64 0, i32 0
  call void @_ZN4base8internal12CallbackBaseD2Ev(%"class.base::internal::CallbackBase"* nonnull %169) #15
  %170 = getelementptr inbounds %"class.base::OnceCallback.374", %"class.base::OnceCallback.374"* %13, i64 0, i32 0
  call void @_ZN4base8internal12CallbackBaseD2Ev(%"class.base::internal::CallbackBase"* nonnull %170) #15
  call void @llvm.lifetime.end.p0i8(i64 8, i8* nonnull %125) #15
  call void @_ZN7storage9QuotaTask5StartEv(%"class.storage::QuotaTask"* nonnull %143) #15
  br label %171

171:                                              ; preds = %122, %43, %25
  ret void
}

; Function Attrs: nounwind ssp uwtable
define hidden void @_ZN7storage16QuotaManagerImpl17NotifyWriteFailedERKN3url6OriginE(%"class.storage::QuotaManagerImpl"*, %"class.url::Origin"* dereferenceable(80)) unnamed_addr #0 align 2 {
  %3 = alloca %"class.base::internal::WeakReference", align 8
  %4 = alloca %"class.url::Origin", align 8
  %5 = alloca %"class.base::OnceCallback.67", align 8
  %6 = alloca %"class.base::WeakPtr.363", align 8
  %7 = tail call i64 @_ZN4base9TimeTicks3NowEv() #15
  %8 = getelementptr inbounds %"class.storage::QuotaManagerImpl", %"class.storage::QuotaManagerImpl"* %0, i64 0, i32 19, i32 0, i32 0, i32 0, i32 0, i32 0
  %9 = load i64, i64* %8, align 8
  %10 = sub nsw i64 %7, %9
  %11 = icmp slt i64 %10, 300000000
  br i1 %11, label %12, label %42

12:                                               ; preds = %2
  %13 = getelementptr inbounds %"class.storage::QuotaManagerImpl", %"class.storage::QuotaManagerImpl"* %0, i64 0, i32 19, i32 0, i32 1, i32 0
  %14 = load i64, i64* %13, align 8
  %15 = getelementptr inbounds %"class.storage::QuotaManagerImpl", %"class.storage::QuotaManagerImpl"* %0, i64 0, i32 19, i32 0, i32 2, i32 0
  %16 = load i64, i64* %15, align 8
  %17 = bitcast %"class.url::Origin"* %4 to i8*
  call void @llvm.lifetime.start.p0i8(i64 80, i8* nonnull %17)
  %18 = icmp eq i64 %14, 0
  br i1 %18, label %41, label %19

19:                                               ; preds = %12
  %20 = getelementptr inbounds %"class.storage::QuotaManagerImpl", %"class.storage::QuotaManagerImpl"* %0, i64 0, i32 15, i32 0, i32 0, i32 0, i32 0
  %21 = load %"class.base::internal::BindStateBase"*, %"class.base::internal::BindStateBase"** %20, align 8
  %22 = icmp eq %"class.base::internal::BindStateBase"* %21, null
  br i1 %22, label %23, label %31

23:                                               ; preds = %19
  %24 = getelementptr inbounds %"class.storage::QuotaManagerImpl", %"class.storage::QuotaManagerImpl"* %0, i64 0, i32 8, i32 0, i32 0, i32 0, i32 0
  %25 = load i8, i8* %24, align 8, !range !15
  %26 = icmp eq i8 %25, 0
  %27 = getelementptr inbounds %"class.storage::QuotaManagerImpl", %"class.storage::QuotaManagerImpl"* %0, i64 0, i32 8, i32 0, i32 0, i32 0, i32 1, i32 0
  br i1 %26, label %30, label %28

28:                                               ; preds = %23
  %29 = tail call dereferenceable(80) %"class.url::Origin"* @_ZN3url6OriginaSERKS0_(%"class.url::Origin"* %27, %"class.url::Origin"* dereferenceable(80) %1) #15
  br label %41

30:                                               ; preds = %23
  tail call void @_ZN3url6OriginC1ERKS0_(%"class.url::Origin"* %27, %"class.url::Origin"* dereferenceable(80) %1) #15
  store i8 1, i8* %24, align 8
  br label %41

31:                                               ; preds = %19
  %32 = sitofp i64 %16 to double
  %33 = sitofp i64 %14 to double
  %34 = fmul double %33, 2.000000e-02
  %35 = fcmp ogt double %34, %32
  br i1 %35, label %36, label %41

36:                                               ; preds = %31
  call void @_ZN3url6OriginC1ERKS0_(%"class.url::Origin"* nonnull %4, %"class.url::Origin"* dereferenceable(80) %1) #15
  %37 = load %"class.base::internal::BindStateBase"*, %"class.base::internal::BindStateBase"** %20, align 8
  %38 = getelementptr inbounds %"class.base::internal::BindStateBase", %"class.base::internal::BindStateBase"* %37, i64 0, i32 1
  %39 = bitcast void ()** %38 to void (%"class.base::internal::BindStateBase"*, %"class.url::Origin"*)**
  %40 = load void (%"class.base::internal::BindStateBase"*, %"class.url::Origin"*)*, void (%"class.base::internal::BindStateBase"*, %"class.url::Origin"*)** %39, align 8
  call void %40(%"class.base::internal::BindStateBase"* %37, %"class.url::Origin"* nonnull dereferenceable(80) %4) #15
  call void @_ZN3url6OriginD1Ev(%"class.url::Origin"* nonnull %4) #15
  br label %41

41:                                               ; preds = %12, %28, %30, %31, %36
  call void @llvm.lifetime.end.p0i8(i64 80, i8* nonnull %17)
  br label %42

42:                                               ; preds = %41, %2
  %43 = bitcast %"class.base::WeakPtr.363"* %6 to i8*
  call void @llvm.lifetime.start.p0i8(i64 16, i8* nonnull %43) #15
  %44 = bitcast %"class.base::internal::WeakReference"* %3 to i8*
  call void @llvm.lifetime.start.p0i8(i64 8, i8* nonnull %44) #15, !noalias !92
  %45 = getelementptr inbounds %"class.storage::QuotaManagerImpl", %"class.storage::QuotaManagerImpl"* %0, i64 0, i32 41, i32 0, i32 0
  call void @_ZNK4base8internal18WeakReferenceOwner6GetRefEv(%"class.base::internal::WeakReference"* nonnull sret %3, %"class.base::internal::WeakReferenceOwner"* %45) #15, !noalias !92
  %46 = getelementptr inbounds %"class.storage::QuotaManagerImpl", %"class.storage::QuotaManagerImpl"* %0, i64 0, i32 41, i32 0, i32 1
  %47 = load i64, i64* %46, align 8, !noalias !92
  %48 = getelementptr inbounds %"class.base::WeakPtr.363", %"class.base::WeakPtr.363"* %6, i64 0, i32 0
  call void @_ZN4base8internal11WeakPtrBaseC2ERKNS0_13WeakReferenceEm(%"class.base::internal::WeakPtrBase"* nonnull %48, %"class.base::internal::WeakReference"* nonnull dereferenceable(8) %3, i64 %47) #15
  call void @_ZN4base8internal13WeakReferenceD1Ev(%"class.base::internal::WeakReference"* nonnull %3) #15
  call void @llvm.lifetime.end.p0i8(i64 8, i8* nonnull %44) #15, !noalias !92
  %49 = call i8* @_Znwm(i64 144) #16, !noalias !95
  %50 = bitcast i8* %49 to %"class.base::internal::BindStateBase"*
  call void @_ZN4base8internal13BindStateBaseC2EPFvvEPFvPKS1_EPFbS5_NS1_21CancellationQueryModeEE(%"class.base::internal::BindStateBase"* nonnull %50, void ()* bitcast (void (%"class.base::internal::BindStateBase"*, i64, i64)* @_ZN4base8internal7InvokerINS0_9BindStateIMN7storage16QuotaManagerImplEFvRKN3url6OriginEllEJNS_7WeakPtrIS4_EES6_EEEFvllEE7RunOnceEPNS0_13BindStateBaseEll to void ()*), void (%"class.base::internal::BindStateBase"*)* nonnull @_ZN4base8internal9BindStateIMN7storage16QuotaManagerImplEFvRKN3url6OriginEllEJNS_7WeakPtrIS3_EES5_EE7DestroyEPKNS0_13BindStateBaseE, i1 (%"class.base::internal::BindStateBase"*, i32)* nonnull @_ZN4base8internal23QueryCancellationTraitsINS0_9BindStateIMN7storage16QuotaManagerImplEFvRKN3url6OriginEllEJNS_7WeakPtrIS4_EES6_EEEEEbPKNS0_13BindStateBaseENSE_21CancellationQueryModeE) #15, !noalias !95
  %51 = getelementptr inbounds i8, i8* %49, i64 32
  %52 = bitcast i8* %51 to <2 x i64>*
  store <2 x i64> <i64 ptrtoint (void (%"class.storage::QuotaManagerImpl"*, %"class.url::Origin"*, i64, i64)* @_ZN7storage16QuotaManagerImpl31MaybeRunStoragePressureCallbackERKN3url6OriginEll to i64), i64 0>, <2 x i64>* %52, align 8, !noalias !95
  %53 = getelementptr inbounds i8, i8* %49, i64 48
  %54 = bitcast i8* %53 to %"class.base::internal::WeakReference"*
  %55 = getelementptr inbounds %"class.base::WeakPtr.363", %"class.base::WeakPtr.363"* %6, i64 0, i32 0, i32 0
  call void @_ZN4base8internal13WeakReferenceC1EOS1_(%"class.base::internal::WeakReference"* %54, %"class.base::internal::WeakReference"* nonnull dereferenceable(8) %55) #15, !noalias !95
  %56 = getelementptr inbounds i8, i8* %49, i64 56
  %57 = bitcast i8* %56 to i64*
  %58 = getelementptr inbounds %"class.base::WeakPtr.363", %"class.base::WeakPtr.363"* %6, i64 0, i32 0, i32 1
  %59 = load i64, i64* %58, align 8, !noalias !95
  store i64 %59, i64* %57, align 8, !noalias !95
  %60 = getelementptr inbounds i8, i8* %49, i64 64
  %61 = bitcast i8* %60 to %"class.url::Origin"*
  call void @_ZN3url6OriginC1ERKS0_(%"class.url::Origin"* %61, %"class.url::Origin"* dereferenceable(80) %1) #15, !noalias !95
  %62 = bitcast %"class.base::OnceCallback.67"* %5 to i8**
  store i8* %49, i8** %62, align 8, !alias.scope !95
  call void @_ZN7storage16QuotaManagerImpl18GetStorageCapacityEN4base12OnceCallbackIFvllEEE(%"class.storage::QuotaManagerImpl"* %0, %"class.base::OnceCallback.67"* nonnull %5)
  %63 = getelementptr inbounds %"class.base::OnceCallback.67", %"class.base::OnceCallback.67"* %5, i64 0, i32 0
  call void @_ZN4base8internal12CallbackBaseD2Ev(%"class.base::internal::CallbackBase"* nonnull %63) #15
  call void @_ZN4base8internal11WeakPtrBaseD2Ev(%"class.base::internal::WeakPtrBase"* nonnull %48) #15
  call void @llvm.lifetime.end.p0i8(i64 16, i8* nonnull %43) #15
  ret void
}

; Function Attrs: nounwind ssp uwtable
define hidden void @_ZN7storage16QuotaManagerImpl31MaybeRunStoragePressureCallbackERKN3url6OriginEll(%"class.storage::QuotaManagerImpl"*, %"class.url::Origin"* dereferenceable(80), i64, i64) #0 align 2 {
  %5 = alloca %"class.url::Origin", align 8
  %6 = icmp eq i64 %2, 0
  br i1 %6, label %29, label %7

7:                                                ; preds = %4
  %8 = getelementptr inbounds %"class.storage::QuotaManagerImpl", %"class.storage::QuotaManagerImpl"* %0, i64 0, i32 15, i32 0, i32 0, i32 0, i32 0
  %9 = load %"class.base::internal::BindStateBase"*, %"class.base::internal::BindStateBase"** %8, align 8
  %10 = icmp eq %"class.base::internal::BindStateBase"* %9, null
  br i1 %10, label %11, label %19

11:                                               ; preds = %7
  %12 = getelementptr inbounds %"class.storage::QuotaManagerImpl", %"class.storage::QuotaManagerImpl"* %0, i64 0, i32 8, i32 0, i32 0, i32 0, i32 0
  %13 = load i8, i8* %12, align 8, !range !15
  %14 = icmp eq i8 %13, 0
  %15 = getelementptr inbounds %"class.storage::QuotaManagerImpl", %"class.storage::QuotaManagerImpl"* %0, i64 0, i32 8, i32 0, i32 0, i32 0, i32 1, i32 0
  br i1 %14, label %18, label %16

16:                                               ; preds = %11
  %17 = tail call dereferenceable(80) %"class.url::Origin"* @_ZN3url6OriginaSERKS0_(%"class.url::Origin"* %15, %"class.url::Origin"* dereferenceable(80) %1) #15
  br label %29

18:                                               ; preds = %11
  tail call void @_ZN3url6OriginC1ERKS0_(%"class.url::Origin"* %15, %"class.url::Origin"* dereferenceable(80) %1) #15
  store i8 1, i8* %12, align 8
  br label %29

19:                                               ; preds = %7
  %20 = sitofp i64 %3 to double
  %21 = sitofp i64 %2 to double
  %22 = fmul double %21, 2.000000e-02
  %23 = fcmp ogt double %22, %20
  br i1 %23, label %24, label %29

24:                                               ; preds = %19
  call void @_ZN3url6OriginC1ERKS0_(%"class.url::Origin"* nonnull %5, %"class.url::Origin"* dereferenceable(80) %1) #15
  %25 = load %"class.base::internal::BindStateBase"*, %"class.base::internal::BindStateBase"** %8, align 8
  %26 = getelementptr inbounds %"class.base::internal::BindStateBase", %"class.base::internal::BindStateBase"* %25, i64 0, i32 1
  %27 = bitcast void ()** %26 to void (%"class.base::internal::BindStateBase"*, %"class.url::Origin"*)**
  %28 = load void (%"class.base::internal::BindStateBase"*, %"class.url::Origin"*)*, void (%"class.base::internal::BindStateBase"*, %"class.url::Origin"*)** %27, align 8
  call void %28(%"class.base::internal::BindStateBase"* %25, %"class.url::Origin"* nonnull dereferenceable(80) %5) #15
  call void @_ZN3url6OriginD1Ev(%"class.url::Origin"* nonnull %5) #15
  br label %29

29:                                               ; preds = %18, %16, %4, %24, %19
  ret void
}

; Function Attrs: nounwind ssp uwtable
define hidden void @_ZN7storage16QuotaManagerImpl18GetStorageCapacityEN4base12OnceCallbackIFvllEEE(%"class.storage::QuotaManagerImpl"*, %"class.base::OnceCallback.67"* nocapture) local_unnamed_addr #0 align 2 {
  %3 = alloca %"class.base::internal::WeakReference", align 8
  %4 = alloca %"class.base::internal::WeakReference", align 8
  %5 = alloca %"class.base::OnceCallback", align 8
  %6 = alloca %"class.base::OnceCallback", align 8
  %7 = alloca %"class.base::OnceCallback.67", align 8
  %8 = alloca %"class.base::OnceCallback.58", align 8
  %9 = alloca %"class.base::WeakPtr.363", align 8
  %10 = alloca %"class.base::Location", align 8
  %11 = alloca %"class.base::OnceCallback.553", align 8
  %12 = alloca %"class.base::OnceCallback.554", align 8
  %13 = alloca %"class.base::WeakPtr.363", align 8
  %14 = getelementptr inbounds %"class.storage::QuotaManagerImpl", %"class.storage::QuotaManagerImpl"* %0, i64 0, i32 21
  %15 = getelementptr inbounds %"class.base::OnceCallback.67", %"class.base::OnceCallback.67"* %1, i64 0, i32 0, i32 0, i32 0
  %16 = bitcast %"class.base::OnceCallback.67"* %1 to i64*
  %17 = load i64, i64* %16, align 8
  %18 = bitcast %"class.base::OnceCallback.67"* %7 to i64*
  store i64 %17, i64* %18, align 8
  store %"class.base::internal::BindStateBase"* null, %"class.base::internal::BindStateBase"** %15, align 8
  %19 = getelementptr inbounds %"class.storage::QuotaManagerImpl", %"class.storage::QuotaManagerImpl"* %0, i64 0, i32 21, i32 0, i32 0, i32 1
  %20 = load %"class.base::OnceCallback.67"*, %"class.base::OnceCallback.67"** %19, align 8
  %21 = getelementptr inbounds %"class.storage::QuotaManagerImpl", %"class.storage::QuotaManagerImpl"* %0, i64 0, i32 21, i32 0, i32 0, i32 2, i32 0, i32 0
  %22 = load %"class.base::OnceCallback.67"*, %"class.base::OnceCallback.67"** %21, align 8
  %23 = icmp ult %"class.base::OnceCallback.67"* %20, %22
  br i1 %23, label %24, label %30

24:                                               ; preds = %2
  %25 = getelementptr inbounds %"class.base::OnceCallback.67", %"class.base::OnceCallback.67"* %7, i64 0, i32 0, i32 0, i32 0
  %26 = bitcast %"class.base::OnceCallback.67"* %20 to i64*
  store i64 %17, i64* %26, align 8
  store %"class.base::internal::BindStateBase"* null, %"class.base::internal::BindStateBase"** %25, align 8
  %27 = getelementptr inbounds %"class.base::OnceCallback.67", %"class.base::OnceCallback.67"* %20, i64 1
  %28 = ptrtoint %"class.base::OnceCallback.67"* %27 to i64
  %29 = bitcast %"class.base::OnceCallback.67"** %19 to i64*
  store i64 %28, i64* %29, align 8
  br label %34

30:                                               ; preds = %2
  %31 = getelementptr inbounds %"class.storage::CallbackQueue.64", %"class.storage::CallbackQueue.64"* %14, i64 0, i32 0
  call void @_ZNSt3__16vectorIN4base12OnceCallbackIFvllEEENS_9allocatorIS4_EEE21__push_back_slow_pathIS4_EEvOT_(%"class.std::__1::vector.65"* %31, %"class.base::OnceCallback.67"* nonnull dereferenceable(8) %7) #15
  %32 = bitcast %"class.base::OnceCallback.67"** %19 to i64*
  %33 = load i64, i64* %32, align 8
  br label %34

34:                                               ; preds = %24, %30
  %35 = phi i64 [ %28, %24 ], [ %33, %30 ]
  %36 = bitcast %"class.storage::CallbackQueue.64"* %14 to i64*
  %37 = load i64, i64* %36, align 8
  %38 = sub i64 %35, %37
  %39 = icmp eq i64 %38, 8
  %40 = getelementptr inbounds %"class.base::OnceCallback.67", %"class.base::OnceCallback.67"* %7, i64 0, i32 0
  call void @_ZN4base8internal12CallbackBaseD2Ev(%"class.base::internal::CallbackBase"* nonnull %40) #15
  br i1 %39, label %41, label %131

41:                                               ; preds = %34
  %42 = getelementptr inbounds %"class.storage::QuotaManagerImpl", %"class.storage::QuotaManagerImpl"* %0, i64 0, i32 3
  %43 = load i8, i8* %42, align 8, !range !15
  %44 = icmp eq i8 %43, 0
  br i1 %44, label %65, label %45

45:                                               ; preds = %41
  %46 = bitcast %"class.base::WeakPtr.363"* %9 to i8*
  call void @llvm.lifetime.start.p0i8(i64 16, i8* nonnull %46) #15
  %47 = bitcast %"class.base::internal::WeakReference"* %4 to i8*
  call void @llvm.lifetime.start.p0i8(i64 8, i8* nonnull %47) #15, !noalias !100
  %48 = getelementptr inbounds %"class.storage::QuotaManagerImpl", %"class.storage::QuotaManagerImpl"* %0, i64 0, i32 41, i32 0, i32 0
  call void @_ZNK4base8internal18WeakReferenceOwner6GetRefEv(%"class.base::internal::WeakReference"* nonnull sret %4, %"class.base::internal::WeakReferenceOwner"* %48) #15, !noalias !100
  %49 = getelementptr inbounds %"class.storage::QuotaManagerImpl", %"class.storage::QuotaManagerImpl"* %0, i64 0, i32 41, i32 0, i32 1
  %50 = load i64, i64* %49, align 8, !noalias !100
  %51 = getelementptr inbounds %"class.base::WeakPtr.363", %"class.base::WeakPtr.363"* %9, i64 0, i32 0
  call void @_ZN4base8internal11WeakPtrBaseC2ERKNS0_13WeakReferenceEm(%"class.base::internal::WeakPtrBase"* nonnull %51, %"class.base::internal::WeakReference"* nonnull dereferenceable(8) %4, i64 %50) #15
  call void @_ZN4base8internal13WeakReferenceD1Ev(%"class.base::internal::WeakReference"* nonnull %4) #15
  call void @llvm.lifetime.end.p0i8(i64 8, i8* nonnull %47) #15, !noalias !100
  %52 = call i8* @_Znwm(i64 64) #16, !noalias !103
  %53 = bitcast i8* %52 to %"class.base::internal::BindStateBase"*
  call void @_ZN4base8internal13BindStateBaseC2EPFvvEPFvPKS1_EPFbS5_NS1_21CancellationQueryModeEE(%"class.base::internal::BindStateBase"* nonnull %53, void ()* bitcast (void (%"class.base::internal::BindStateBase"*, %"struct.storage::QuotaSettings"*)* @_ZN4base8internal7InvokerINS0_9BindStateIMN7storage16QuotaManagerImplEFvRKNS3_13QuotaSettingsEEJNS_7WeakPtrIS4_EEEEEFvS7_EE7RunOnceEPNS0_13BindStateBaseES7_ to void ()*), void (%"class.base::internal::BindStateBase"*)* nonnull @_ZN4base8internal9BindStateIMN7storage16QuotaManagerImplEFvRKNS2_13QuotaSettingsEEJNS_7WeakPtrIS3_EEEE7DestroyEPKNS0_13BindStateBaseE, i1 (%"class.base::internal::BindStateBase"*, i32)* nonnull @_ZN4base8internal23QueryCancellationTraitsINS0_9BindStateIMN7storage16QuotaManagerImplEFvRKNS3_13QuotaSettingsEEJNS_7WeakPtrIS4_EEEEEEEbPKNS0_13BindStateBaseENSD_21CancellationQueryModeE) #15, !noalias !103
  %54 = getelementptr inbounds i8, i8* %52, i64 32
  %55 = bitcast i8* %54 to <2 x i64>*
  store <2 x i64> <i64 ptrtoint (void (%"class.storage::QuotaManagerImpl"*, %"struct.storage::QuotaSettings"*)* @_ZN7storage16QuotaManagerImpl35ContinueIncognitoGetStorageCapacityERKNS_13QuotaSettingsE to i64), i64 0>, <2 x i64>* %55, align 8, !noalias !103
  %56 = getelementptr inbounds i8, i8* %52, i64 48
  %57 = bitcast i8* %56 to %"class.base::internal::WeakReference"*
  %58 = getelementptr inbounds %"class.base::WeakPtr.363", %"class.base::WeakPtr.363"* %9, i64 0, i32 0, i32 0
  call void @_ZN4base8internal13WeakReferenceC1EOS1_(%"class.base::internal::WeakReference"* %57, %"class.base::internal::WeakReference"* nonnull dereferenceable(8) %58) #15, !noalias !103
  %59 = getelementptr inbounds i8, i8* %52, i64 56
  %60 = bitcast i8* %59 to i64*
  %61 = getelementptr inbounds %"class.base::WeakPtr.363", %"class.base::WeakPtr.363"* %9, i64 0, i32 0, i32 1
  %62 = load i64, i64* %61, align 8, !noalias !103
  store i64 %62, i64* %60, align 8, !noalias !103
  %63 = bitcast %"class.base::OnceCallback.58"* %8 to i8**
  store i8* %52, i8** %63, align 8, !alias.scope !103
  call void @_ZN7storage16QuotaManagerImpl16GetQuotaSettingsEN4base12OnceCallbackIFvRKNS_13QuotaSettingsEEEE(%"class.storage::QuotaManagerImpl"* %0, %"class.base::OnceCallback.58"* nonnull %8)
  %64 = getelementptr inbounds %"class.base::OnceCallback.58", %"class.base::OnceCallback.58"* %8, i64 0, i32 0
  call void @_ZN4base8internal12CallbackBaseD2Ev(%"class.base::internal::CallbackBase"* nonnull %64) #15
  call void @_ZN4base8internal11WeakPtrBaseD2Ev(%"class.base::internal::WeakPtrBase"* nonnull %51) #15
  call void @llvm.lifetime.end.p0i8(i64 16, i8* nonnull %46) #15
  br label %131

65:                                               ; preds = %41
  %66 = getelementptr inbounds %"class.storage::QuotaManagerImpl", %"class.storage::QuotaManagerImpl"* %0, i64 0, i32 10, i32 0
  %67 = bitcast %"class.base::SequencedTaskRunner"** %66 to %"class.base::TaskRunner"**
  %68 = load %"class.base::TaskRunner"*, %"class.base::TaskRunner"** %67, align 8
  %69 = bitcast %"class.base::Location"* %10 to i8*
  call void @llvm.lifetime.start.p0i8(i64 32, i8* nonnull %69) #15
  call void @_ZN4base8Location7CurrentEPKcS2_i(%"class.base::Location"* nonnull sret %10, i8* getelementptr inbounds ([19 x i8], [19 x i8]* @.str.25, i64 0, i64 0), i8* getelementptr inbounds ([50 x i8], [50 x i8]* @.str.1, i64 0, i64 0), i32 1941) #15
  %70 = getelementptr inbounds %"class.storage::QuotaManagerImpl", %"class.storage::QuotaManagerImpl"* %0, i64 0, i32 40
  %71 = getelementptr inbounds %"class.storage::QuotaManagerImpl", %"class.storage::QuotaManagerImpl"* %0, i64 0, i32 4
  %72 = call i8* @_Znwm(i64 72) #16, !noalias !108
  %73 = bitcast i8* %72 to %"class.base::internal::BindStateBase"*
  call void @_ZN4base8internal13BindStateBaseC2EPFvvEPFvPKS1_E(%"class.base::internal::BindStateBase"* nonnull %73, void ()* bitcast ({ i64, i64 } (%"class.base::internal::BindStateBase"*)* @_ZN4base8internal7InvokerINS0_9BindStateIPFNSt3__15tupleIJllEEEPFS5_RKNS_8FilePathEES8_EJSA_S6_EEEFS5_vEE7RunOnceEPNS0_13BindStateBaseE to void ()*), void (%"class.base::internal::BindStateBase"*)* nonnull @_ZN4base8internal9BindStateIPFNSt3__15tupleIJllEEEPFS4_RKNS_8FilePathEES7_EJS9_S5_EE7DestroyEPKNS0_13BindStateBaseE) #15, !noalias !108
  %74 = getelementptr inbounds i8, i8* %72, i64 32
  %75 = bitcast i8* %74 to i64*
  store i64 ptrtoint ({ i64, i64 } ({ i64, i64 } (%"class.base::FilePath"*)*, %"class.base::FilePath"*)* @_ZN7storage16QuotaManagerImpl17CallGetVolumeInfoEPFNSt3__15tupleIJllEEERKN4base8FilePathEES7_ to i64), i64* %75, align 8, !noalias !108
  %76 = getelementptr inbounds i8, i8* %72, i64 40
  %77 = bitcast { i64, i64 } (%"class.base::FilePath"*)** %70 to i64*
  %78 = load i64, i64* %77, align 8, !noalias !108
  %79 = bitcast i8* %76 to i64*
  store i64 %78, i64* %79, align 8, !noalias !108
  %80 = getelementptr inbounds i8, i8* %72, i64 48
  %81 = bitcast i8* %80 to %"class.base::FilePath"*
  call void @_ZN4base8FilePathC1ERKS0_(%"class.base::FilePath"* %81, %"class.base::FilePath"* dereferenceable(24) %71) #15, !noalias !108
  %82 = bitcast %"class.base::WeakPtr.363"* %13 to i8*
  call void @llvm.lifetime.start.p0i8(i64 16, i8* nonnull %82) #15
  %83 = bitcast %"class.base::internal::WeakReference"* %3 to i8*
  call void @llvm.lifetime.start.p0i8(i64 8, i8* nonnull %83) #15, !noalias !113
  %84 = getelementptr inbounds %"class.storage::QuotaManagerImpl", %"class.storage::QuotaManagerImpl"* %0, i64 0, i32 41, i32 0, i32 0
  call void @_ZNK4base8internal18WeakReferenceOwner6GetRefEv(%"class.base::internal::WeakReference"* nonnull sret %3, %"class.base::internal::WeakReferenceOwner"* %84) #15, !noalias !113
  %85 = getelementptr inbounds %"class.storage::QuotaManagerImpl", %"class.storage::QuotaManagerImpl"* %0, i64 0, i32 41, i32 0, i32 1
  %86 = load i64, i64* %85, align 8, !noalias !113
  %87 = getelementptr inbounds %"class.base::WeakPtr.363", %"class.base::WeakPtr.363"* %13, i64 0, i32 0
  call void @_ZN4base8internal11WeakPtrBaseC2ERKNS0_13WeakReferenceEm(%"class.base::internal::WeakPtrBase"* nonnull %87, %"class.base::internal::WeakReference"* nonnull dereferenceable(8) %3, i64 %86) #15
  call void @_ZN4base8internal13WeakReferenceD1Ev(%"class.base::internal::WeakReference"* nonnull %3) #15
  call void @llvm.lifetime.end.p0i8(i64 8, i8* nonnull %83) #15, !noalias !113
  %88 = call i8* @_Znwm(i64 64) #16, !noalias !116
  %89 = bitcast i8* %88 to %"class.base::internal::BindStateBase"*
  call void @_ZN4base8internal13BindStateBaseC2EPFvvEPFvPKS1_EPFbS5_NS1_21CancellationQueryModeEE(%"class.base::internal::BindStateBase"* nonnull %89, void ()* bitcast (void (%"class.base::internal::BindStateBase"*, %"class.std::__1::tuple.346"*)* @_ZN4base8internal7InvokerINS0_9BindStateIMN7storage16QuotaManagerImplEFvRKNSt3__15tupleIJllEEEEJNS_7WeakPtrIS4_EEEEEFvS9_EE7RunOnceEPNS0_13BindStateBaseES9_ to void ()*), void (%"class.base::internal::BindStateBase"*)* nonnull @_ZN4base8internal9BindStateIMN7storage16QuotaManagerImplEFvRKNSt3__15tupleIJllEEEEJNS_7WeakPtrIS3_EEEE7DestroyEPKNS0_13BindStateBaseE, i1 (%"class.base::internal::BindStateBase"*, i32)* nonnull @_ZN4base8internal23QueryCancellationTraitsINS0_9BindStateIMN7storage16QuotaManagerImplEFvRKNSt3__15tupleIJllEEEEJNS_7WeakPtrIS4_EEEEEEEbPKNS0_13BindStateBaseENSF_21CancellationQueryModeE) #15, !noalias !116
  %90 = getelementptr inbounds i8, i8* %88, i64 32
  %91 = bitcast i8* %90 to <2 x i64>*
  store <2 x i64> <i64 ptrtoint (void (%"class.storage::QuotaManagerImpl"*, %"class.std::__1::tuple.346"*)* @_ZN7storage16QuotaManagerImpl21DidGetStorageCapacityERKNSt3__15tupleIJllEEE to i64), i64 0>, <2 x i64>* %91, align 8, !noalias !116
  %92 = getelementptr inbounds i8, i8* %88, i64 48
  %93 = bitcast i8* %92 to %"class.base::internal::WeakReference"*
  %94 = getelementptr inbounds %"class.base::WeakPtr.363", %"class.base::WeakPtr.363"* %13, i64 0, i32 0, i32 0
  call void @_ZN4base8internal13WeakReferenceC1EOS1_(%"class.base::internal::WeakReference"* %93, %"class.base::internal::WeakReference"* nonnull dereferenceable(8) %94) #15, !noalias !116
  %95 = getelementptr inbounds i8, i8* %88, i64 56
  %96 = bitcast i8* %95 to i64*
  %97 = getelementptr inbounds %"class.base::WeakPtr.363", %"class.base::WeakPtr.363"* %13, i64 0, i32 0, i32 1
  %98 = load i64, i64* %97, align 8, !noalias !116
  store i64 %98, i64* %96, align 8, !noalias !116
  %99 = bitcast %"class.base::OnceCallback"* %5 to i8*
  call void @llvm.lifetime.start.p0i8(i64 8, i8* nonnull %99)
  %100 = bitcast %"class.base::OnceCallback"* %6 to i8*
  call void @llvm.lifetime.start.p0i8(i64 8, i8* nonnull %100)
  %101 = call i8* @_Znwm(i64 8) #16
  %102 = bitcast i8* %101 to i64*
  store i64 0, i64* %102, align 8
  %103 = ptrtoint i8* %101 to i64
  %104 = call i8* @_Znwm(i64 56) #16, !noalias !121
  %105 = bitcast i8* %104 to %"class.base::internal::BindStateBase"*
  call void @_ZN4base8internal13BindStateBaseC2EPFvvEPFvPKS1_E(%"class.base::internal::BindStateBase"* nonnull %105, void ()* bitcast (void (%"class.base::internal::BindStateBase"*)* @_ZN4base8internal7InvokerINS0_9BindStateIPFvNS_12OnceCallbackIFNSt3__15tupleIJllEEEvEEEPNS4_10unique_ptrIS6_NS4_14default_deleteIS6_EEEEEJS8_SD_EEEFvvEE7RunOnceEPNS0_13BindStateBaseE to void ()*), void (%"class.base::internal::BindStateBase"*)* nonnull @_ZN4base8internal9BindStateIPFvNS_12OnceCallbackIFNSt3__15tupleIJllEEEvEEEPNS3_10unique_ptrIS5_NS3_14default_deleteIS5_EEEEEJS7_SC_EE7DestroyEPKNS0_13BindStateBaseE) #15, !noalias !121
  %106 = getelementptr inbounds i8, i8* %104, i64 32
  %107 = bitcast i8* %106 to i64*
  store i64 ptrtoint (void (%"class.base::OnceCallback.553"*, %"class.std::__1::unique_ptr.1008"*)* @_ZN4base8internal20ReturnAsParamAdapterINSt3__15tupleIJllEEEEEvNS_12OnceCallbackIFT_vEEEPNS2_10unique_ptrIS6_NS2_14default_deleteIS6_EEEE to i64), i64* %107, align 8, !noalias !121
  %108 = getelementptr inbounds i8, i8* %104, i64 40
  %109 = getelementptr inbounds %"class.base::OnceCallback.553", %"class.base::OnceCallback.553"* %11, i64 0, i32 0, i32 0, i32 0
  %110 = ptrtoint i8* %72 to i64
  %111 = bitcast i8* %108 to i64*
  store i64 %110, i64* %111, align 8, !noalias !121
  store %"class.base::internal::BindStateBase"* null, %"class.base::internal::BindStateBase"** %109, align 8, !noalias !121
  %112 = getelementptr inbounds i8, i8* %104, i64 48
  %113 = bitcast i8* %112 to i64*
  store i64 %103, i64* %113, align 8, !noalias !121
  %114 = bitcast %"class.base::OnceCallback"* %5 to i8**
  store i8* %104, i8** %114, align 8, !alias.scope !121
  %115 = call i8* @_Znwm(i64 56) #16, !noalias !126
  %116 = bitcast i8* %115 to %"class.base::internal::BindStateBase"*
  call void @_ZN4base8internal13BindStateBaseC2EPFvvEPFvPKS1_E(%"class.base::internal::BindStateBase"* nonnull %116, void ()* bitcast (void (%"class.base::internal::BindStateBase"*)* @_ZN4base8internal7InvokerINS0_9BindStateIPFvNS_12OnceCallbackIFvRKNSt3__15tupleIJllEEEEEEPNS4_10unique_ptrIS6_NS4_14default_deleteIS6_EEEEEJSA_NS0_12OwnedWrapperISE_NSC_ISE_EEEEEEEFvvEE7RunOnceEPNS0_13BindStateBaseE to void ()*), void (%"class.base::internal::BindStateBase"*)* nonnull @_ZN4base8internal9BindStateIPFvNS_12OnceCallbackIFvRKNSt3__15tupleIJllEEEEEEPNS3_10unique_ptrIS5_NS3_14default_deleteIS5_EEEEEJS9_NS0_12OwnedWrapperISD_NSB_ISD_EEEEEE7DestroyEPKNS0_13BindStateBaseE) #15, !noalias !126
  %117 = getelementptr inbounds i8, i8* %115, i64 32
  %118 = bitcast i8* %117 to i64*
  store i64 ptrtoint (void (%"class.base::OnceCallback.554"*, %"class.std::__1::unique_ptr.1008"*)* @_ZN4base8internal12ReplyAdapterINSt3__15tupleIJllEEERKS4_EEvNS_12OnceCallbackIFvT0_EEEPNS2_10unique_ptrIT_NS2_14default_deleteISC_EEEE to i64), i64* %118, align 8, !noalias !126
  %119 = getelementptr inbounds i8, i8* %115, i64 40
  %120 = getelementptr inbounds %"class.base::OnceCallback.554", %"class.base::OnceCallback.554"* %12, i64 0, i32 0, i32 0, i32 0
  %121 = ptrtoint i8* %88 to i64
  %122 = bitcast i8* %119 to i64*
  store i64 %121, i64* %122, align 8, !noalias !126
  store %"class.base::internal::BindStateBase"* null, %"class.base::internal::BindStateBase"** %120, align 8, !noalias !126
  %123 = getelementptr inbounds i8, i8* %115, i64 48
  %124 = bitcast i8* %123 to i64*
  store i64 %103, i64* %124, align 8, !noalias !126
  %125 = bitcast %"class.base::OnceCallback"* %6 to i8**
  store i8* %115, i8** %125, align 8, !alias.scope !126
  %126 = call zeroext i1 @_ZN4base10TaskRunner16PostTaskAndReplyERKNS_8LocationENS_12OnceCallbackIFvvEEES6_(%"class.base::TaskRunner"* %68, %"class.base::Location"* nonnull dereferenceable(32) %10, %"class.base::OnceCallback"* nonnull %5, %"class.base::OnceCallback"* nonnull %6) #15
  %127 = getelementptr inbounds %"class.base::OnceCallback", %"class.base::OnceCallback"* %6, i64 0, i32 0
  call void @_ZN4base8internal12CallbackBaseD2Ev(%"class.base::internal::CallbackBase"* nonnull %127) #15
  %128 = getelementptr inbounds %"class.base::OnceCallback", %"class.base::OnceCallback"* %5, i64 0, i32 0
  call void @_ZN4base8internal12CallbackBaseD2Ev(%"class.base::internal::CallbackBase"* nonnull %128) #15
  call void @llvm.lifetime.end.p0i8(i64 8, i8* nonnull %99)
  call void @llvm.lifetime.end.p0i8(i64 8, i8* nonnull %100)
  %129 = getelementptr inbounds %"class.base::OnceCallback.554", %"class.base::OnceCallback.554"* %12, i64 0, i32 0
  call void @_ZN4base8internal12CallbackBaseD2Ev(%"class.base::internal::CallbackBase"* nonnull %129) #15
  call void @_ZN4base8internal11WeakPtrBaseD2Ev(%"class.base::internal::WeakPtrBase"* nonnull %87) #15
  call void @llvm.lifetime.end.p0i8(i64 16, i8* nonnull %82) #15
  %130 = getelementptr inbounds %"class.base::OnceCallback.553", %"class.base::OnceCallback.553"* %11, i64 0, i32 0
  call void @_ZN4base8internal12CallbackBaseD2Ev(%"class.base::internal::CallbackBase"* nonnull %130) #15
  call void @llvm.lifetime.end.p0i8(i64 32, i8* nonnull %69) #15
  br label %131

131:                                              ; preds = %34, %65, %45
  ret void
}

; Function Attrs: nounwind ssp uwtable
define hidden void @_ZN7storage16QuotaManagerImpl17NotifyOriginInUseERKN3url6OriginE(%"class.storage::QuotaManagerImpl"*, %"class.url::Origin"* dereferenceable(80)) local_unnamed_addr #0 align 2 {
  %3 = alloca %"class.std::__1::tuple.766", align 8
  %4 = alloca %"class.std::__1::tuple.769", align 1
  %5 = getelementptr inbounds %"class.storage::QuotaManagerImpl", %"class.storage::QuotaManagerImpl"* %0, i64 0, i32 36, i32 0
  %6 = bitcast %"class.std::__1::tuple.766"* %3 to i8*
  call void @llvm.lifetime.start.p0i8(i64 8, i8* nonnull %6) #15
  %7 = getelementptr inbounds %"class.std::__1::tuple.766", %"class.std::__1::tuple.766"* %3, i64 0, i32 0, i32 0, i32 0
  store %"class.url::Origin"* %1, %"class.url::Origin"** %7, align 8
  %8 = getelementptr inbounds %"class.std::__1::tuple.769", %"class.std::__1::tuple.769"* %4, i64 0, i32 0
  call void @llvm.lifetime.start.p0i8(i64 1, i8* nonnull %8) #15
  %9 = call { %"class.std::__1::__tree_end_node"*, i8 } @_ZNSt3__16__treeINS_12__value_typeIN3url6OriginEiEENS_19__map_value_compareIS3_S4_NS_4lessIS3_EELb1EEENS_9allocatorIS4_EEE25__emplace_unique_key_argsIS3_JRKNS_21piecewise_construct_tENS_5tupleIJRKS3_EEENSG_IJEEEEEENS_4pairINS_15__tree_iteratorIS4_PNS_11__tree_nodeIS4_PvEElEEbEERKT_DpOT0_(%"class.std::__1::__tree.329"* %5, %"class.url::Origin"* dereferenceable(80) %1, %"struct.std::__1::piecewise_construct_t"* nonnull dereferenceable(1) @_ZNSt3__1L19piecewise_constructE, %"class.std::__1::tuple.766"* nonnull dereferenceable(8) %3, %"class.std::__1::tuple.769"* nonnull dereferenceable(1) %4) #15
  %10 = extractvalue { %"class.std::__1::__tree_end_node"*, i8 } %9, 0
  %11 = getelementptr inbounds %"class.std::__1::__tree_end_node", %"class.std::__1::__tree_end_node"* %10, i64 14
  %12 = bitcast %"class.std::__1::__tree_end_node"* %11 to i32*
  call void @llvm.lifetime.end.p0i8(i64 1, i8* nonnull %8) #15
  call void @llvm.lifetime.end.p0i8(i64 8, i8* nonnull %6) #15
  %13 = load i32, i32* %12, align 4
  %14 = add nsw i32 %13, 1
  store i32 %14, i32* %12, align 4
  ret void
}

; Function Attrs: nounwind ssp uwtable
define hidden void @_ZN7storage16QuotaManagerImpl25NotifyOriginNoLongerInUseERKN3url6OriginE(%"class.storage::QuotaManagerImpl"*, %"class.url::Origin"* dereferenceable(80)) local_unnamed_addr #0 align 2 {
  %3 = alloca %"class.std::__1::tuple.766", align 8
  %4 = alloca %"class.std::__1::tuple.769", align 1
  %5 = getelementptr inbounds %"class.storage::QuotaManagerImpl", %"class.storage::QuotaManagerImpl"* %0, i64 0, i32 36, i32 0
  %6 = bitcast %"class.std::__1::tuple.766"* %3 to i8*
  call void @llvm.lifetime.start.p0i8(i64 8, i8* nonnull %6) #15
  %7 = getelementptr inbounds %"class.std::__1::tuple.766", %"class.std::__1::tuple.766"* %3, i64 0, i32 0, i32 0, i32 0
  store %"class.url::Origin"* %1, %"class.url::Origin"** %7, align 8
  %8 = getelementptr inbounds %"class.std::__1::tuple.769", %"class.std::__1::tuple.769"* %4, i64 0, i32 0
  call void @llvm.lifetime.start.p0i8(i64 1, i8* nonnull %8) #15
  %9 = call { %"class.std::__1::__tree_end_node"*, i8 } @_ZNSt3__16__treeINS_12__value_typeIN3url6OriginEiEENS_19__map_value_compareIS3_S4_NS_4lessIS3_EELb1EEENS_9allocatorIS4_EEE25__emplace_unique_key_argsIS3_JRKNS_21piecewise_construct_tENS_5tupleIJRKS3_EEENSG_IJEEEEEENS_4pairINS_15__tree_iteratorIS4_PNS_11__tree_nodeIS4_PvEElEEbEERKT_DpOT0_(%"class.std::__1::__tree.329"* %5, %"class.url::Origin"* dereferenceable(80) %1, %"struct.std::__1::piecewise_construct_t"* nonnull dereferenceable(1) @_ZNSt3__1L19piecewise_constructE, %"class.std::__1::tuple.766"* nonnull dereferenceable(8) %3, %"class.std::__1::tuple.769"* nonnull dereferenceable(1) %4) #15
  %10 = extractvalue { %"class.std::__1::__tree_end_node"*, i8 } %9, 0
  %11 = getelementptr inbounds %"class.std::__1::__tree_end_node", %"class.std::__1::__tree_end_node"* %10, i64 14
  %12 = bitcast %"class.std::__1::__tree_end_node"* %11 to i32*
  call void @llvm.lifetime.end.p0i8(i64 1, i8* nonnull %8) #15
  call void @llvm.lifetime.end.p0i8(i64 8, i8* nonnull %6) #15
  %13 = load i32, i32* %12, align 4
  %14 = add nsw i32 %13, -1
  store i32 %14, i32* %12, align 4
  %15 = icmp eq i32 %14, 0
  br i1 %15, label %16, label %18

16:                                               ; preds = %2
  %17 = call i64 @_ZNSt3__16__treeINS_12__value_typeIN3url6OriginEiEENS_19__map_value_compareIS3_S4_NS_4lessIS3_EELb1EEENS_9allocatorIS4_EEE14__erase_uniqueIS3_EEmRKT_(%"class.std::__1::__tree.329"* %5, %"class.url::Origin"* dereferenceable(80) %1) #15
  br label %18

18:                                               ; preds = %16, %2
  ret void
}

; Function Attrs: nounwind ssp uwtable
define hidden void @_ZN7storage16QuotaManagerImpl20SetUsageCacheEnabledENS_15QuotaClientTypeERKN3url6OriginEN5blink5mojom11StorageTypeEb(%"class.storage::QuotaManagerImpl"*, i32, %"class.url::Origin"* dereferenceable(80), i32, i1 zeroext) local_unnamed_addr #0 align 2 {
  tail call void @_ZN7storage16QuotaManagerImpl14LazyInitializeEv(%"class.storage::QuotaManagerImpl"* %0)
  switch i32 %3, label %15 [
    i32 0, label %6
    i32 1, label %8
    i32 2, label %10
  ]

6:                                                ; preds = %5
  %7 = getelementptr inbounds %"class.storage::QuotaManagerImpl", %"class.storage::QuotaManagerImpl"* %0, i64 0, i32 29, i32 0, i32 0, i32 0
  br label %12

8:                                                ; preds = %5
  %9 = getelementptr inbounds %"class.storage::QuotaManagerImpl", %"class.storage::QuotaManagerImpl"* %0, i64 0, i32 30, i32 0, i32 0, i32 0
  br label %12

10:                                               ; preds = %5
  %11 = getelementptr inbounds %"class.storage::QuotaManagerImpl", %"class.storage::QuotaManagerImpl"* %0, i64 0, i32 31, i32 0, i32 0, i32 0
  br label %12

12:                                               ; preds = %10, %8, %6
  %13 = phi %"class.storage::UsageTracker"** [ %7, %6 ], [ %9, %8 ], [ %11, %10 ]
  %14 = load %"class.storage::UsageTracker"*, %"class.storage::UsageTracker"** %13, align 8
  br label %15

15:                                               ; preds = %12, %5
  %16 = phi %"class.storage::UsageTracker"* [ null, %5 ], [ %14, %12 ]
  tail call void @_ZN7storage12UsageTracker20SetUsageCacheEnabledENS_15QuotaClientTypeERKN3url6OriginEb(%"class.storage::UsageTracker"* %16, i32 %1, %"class.url::Origin"* dereferenceable(80) %2, i1 zeroext %4) #15
  ret void
}

; Function Attrs: norecurse nounwind readonly ssp uwtable
define hidden %"class.storage::UsageTracker"* @_ZNK7storage16QuotaManagerImpl15GetUsageTrackerEN5blink5mojom11StorageTypeE(%"class.storage::QuotaManagerImpl"* nocapture readonly, i32) local_unnamed_addr #5 align 2 {
  switch i32 %1, label %12 [
    i32 0, label %3
    i32 1, label %5
    i32 2, label %7
  ]

3:                                                ; preds = %2
  %4 = getelementptr inbounds %"class.storage::QuotaManagerImpl", %"class.storage::QuotaManagerImpl"* %0, i64 0, i32 29, i32 0, i32 0, i32 0
  br label %9

5:                                                ; preds = %2
  %6 = getelementptr inbounds %"class.storage::QuotaManagerImpl", %"class.storage::QuotaManagerImpl"* %0, i64 0, i32 30, i32 0, i32 0, i32 0
  br label %9

7:                                                ; preds = %2
  %8 = getelementptr inbounds %"class.storage::QuotaManagerImpl", %"class.storage::QuotaManagerImpl"* %0, i64 0, i32 31, i32 0, i32 0, i32 0
  br label %9

9:                                                ; preds = %3, %5, %7
  %10 = phi %"class.storage::UsageTracker"** [ %8, %7 ], [ %6, %5 ], [ %4, %3 ]
  %11 = load %"class.storage::UsageTracker"*, %"class.storage::UsageTracker"** %10, align 8
  br label %12

12:                                               ; preds = %9, %2
  %13 = phi %"class.storage::UsageTracker"* [ null, %2 ], [ %11, %9 ]
  ret %"class.storage::UsageTracker"* %13
}

declare void @_ZN7storage12UsageTracker20SetUsageCacheEnabledENS_15QuotaClientTypeERKN3url6OriginEb(%"class.storage::UsageTracker"*, i32, %"class.url::Origin"* dereferenceable(80), i1 zeroext) local_unnamed_addr #1

; Function Attrs: nounwind ssp uwtable
define hidden void @_ZN7storage16QuotaManagerImpl16DeleteOriginDataERKN3url6OriginEN5blink5mojom11StorageTypeEN4base8internal9flat_treeINS_15QuotaClientTypeENS8_8identityENSt3__14lessIvEENSD_6vectorISB_NSD_9allocatorISB_EEEEEENS8_12OnceCallbackIFvNS6_15QuotaStatusCodeEEEE(%"class.storage::QuotaManagerImpl"*, %"class.url::Origin"* dereferenceable(80), i32, %"class.base::internal::flat_tree.394"* nocapture, %"class.base::OnceCallback.318"* nocapture) unnamed_addr #0 align 2 {
  %6 = alloca %"class.base::OnceCallback.318", align 8
  %7 = alloca %"class.base::OnceCallback.318", align 8
  %8 = bitcast %"class.base::internal::flat_tree.394"* %3 to <2 x i64>*
  %9 = load <2 x i64>, <2 x i64>* %8, align 8
  %10 = getelementptr inbounds %"class.base::internal::flat_tree.394", %"class.base::internal::flat_tree.394"* %3, i64 0, i32 0, i32 0, i32 2, i32 0, i32 0
  %11 = bitcast i32** %10 to i64*
  %12 = load i64, i64* %11, align 8
  %13 = bitcast %"class.base::internal::flat_tree.394"* %3 to i8*
  tail call void @llvm.memset.p0i8.i64(i8* align 8 %13, i8 0, i64 24, i1 false) #15
  %14 = getelementptr inbounds %"class.base::OnceCallback.318", %"class.base::OnceCallback.318"* %4, i64 0, i32 0, i32 0, i32 0
  %15 = bitcast %"class.base::OnceCallback.318"* %4 to i64*
  %16 = load i64, i64* %15, align 8
  store %"class.base::internal::BindStateBase"* null, %"class.base::internal::BindStateBase"** %14, align 8
  %17 = bitcast %"class.base::OnceCallback.318"* %6 to i8*
  call void @llvm.lifetime.start.p0i8(i64 8, i8* nonnull %17)
  tail call void @_ZN7storage16QuotaManagerImpl14LazyInitializeEv(%"class.storage::QuotaManagerImpl"* %0) #15
  %18 = tail call i8* @_Znwm(i64 192) #16
  %19 = getelementptr inbounds %"class.base::OnceCallback.318", %"class.base::OnceCallback.318"* %7, i64 0, i32 0, i32 0, i32 0
  store %"class.base::internal::BindStateBase"* null, %"class.base::internal::BindStateBase"** %19, align 8
  %20 = bitcast i8* %18 to %"class.storage::QuotaTask"*
  %21 = getelementptr inbounds %"class.storage::QuotaManagerImpl", %"class.storage::QuotaManagerImpl"* %0, i64 0, i32 0
  tail call void @_ZN7storage9QuotaTaskC2EPNS_17QuotaTaskObserverE(%"class.storage::QuotaTask"* nonnull %20, %"class.storage::QuotaTaskObserver"* %21) #15
  %22 = bitcast i8* %18 to i32 (...)***
  store i32 (...)** bitcast (i8** getelementptr inbounds ({ [7 x i8*] }, { [7 x i8*] }* @_ZTVN7storage16QuotaManagerImpl17OriginDataDeleterE, i64 0, inrange i32 0, i64 2) to i32 (...)**), i32 (...)*** %22, align 8
  %23 = getelementptr inbounds i8, i8* %18, i64 32
  %24 = bitcast i8* %23 to %"class.url::Origin"*
  tail call void @_ZN3url6OriginC1ERKS0_(%"class.url::Origin"* %24, %"class.url::Origin"* dereferenceable(80) %1) #15
  %25 = getelementptr inbounds i8, i8* %18, i64 112
  %26 = bitcast i8* %25 to i32*
  store i32 %2, i32* %26, align 8
  %27 = getelementptr inbounds i8, i8* %18, i64 120
  %28 = bitcast i8* %27 to <2 x i64>*
  store <2 x i64> %9, <2 x i64>* %28, align 8
  %29 = getelementptr inbounds i8, i8* %18, i64 136
  %30 = bitcast i8* %29 to i64*
  store i64 %12, i64* %30, align 8
  %31 = getelementptr inbounds i8, i8* %18, i64 144
  %32 = bitcast i8* %31 to i32*
  store i32 0, i32* %32, align 8
  %33 = getelementptr inbounds i8, i8* %18, i64 152
  %34 = bitcast i8* %33 to i64*
  store i64 0, i64* %34, align 8
  %35 = getelementptr inbounds i8, i8* %18, i64 160
  %36 = bitcast i8* %35 to i32*
  store i32 0, i32* %36, align 8
  %37 = getelementptr inbounds i8, i8* %18, i64 164
  store i8 0, i8* %37, align 4
  %38 = getelementptr inbounds i8, i8* %18, i64 168
  %39 = getelementptr inbounds %"class.base::OnceCallback.318", %"class.base::OnceCallback.318"* %6, i64 0, i32 0, i32 0, i32 0
  %40 = bitcast i8* %38 to i64*
  store i64 %16, i64* %40, align 8
  store %"class.base::internal::BindStateBase"* null, %"class.base::internal::BindStateBase"** %39, align 8
  %41 = getelementptr inbounds i8, i8* %18, i64 176
  %42 = bitcast i8* %41 to %"class.base::internal::WeakPtrFactoryBase"*
  %43 = ptrtoint i8* %18 to i64
  tail call void @_ZN4base8internal18WeakPtrFactoryBaseC2Em(%"class.base::internal::WeakPtrFactoryBase"* %42, i64 %43) #15
  %44 = getelementptr inbounds %"class.base::OnceCallback.318", %"class.base::OnceCallback.318"* %6, i64 0, i32 0
  call void @_ZN4base8internal12CallbackBaseD2Ev(%"class.base::internal::CallbackBase"* nonnull %44) #15
  call void @_ZN7storage9QuotaTask5StartEv(%"class.storage::QuotaTask"* nonnull %20) #15
  call void @llvm.lifetime.end.p0i8(i64 8, i8* nonnull %17)
  %45 = getelementptr inbounds %"class.base::OnceCallback.318", %"class.base::OnceCallback.318"* %7, i64 0, i32 0
  call void @_ZN4base8internal12CallbackBaseD2Ev(%"class.base::internal::CallbackBase"* nonnull %45) #15
  ret void
}

; Function Attrs: nounwind ssp uwtable
define hidden void @_ZN7storage16QuotaManagerImpl24DeleteOriginDataInternalERKN3url6OriginEN5blink5mojom11StorageTypeEN4base8internal9flat_treeINS_15QuotaClientTypeENS8_8identityENSt3__14lessIvEENSD_6vectorISB_NSD_9allocatorISB_EEEEEEbNS8_12OnceCallbackIFvNS6_15QuotaStatusCodeEEEE(%"class.storage::QuotaManagerImpl"*, %"class.url::Origin"* dereferenceable(80), i32, %"class.base::internal::flat_tree.394"* nocapture, i1 zeroext, %"class.base::OnceCallback.318"* nocapture) local_unnamed_addr #0 align 2 {
  %7 = alloca %"class.base::OnceCallback.318", align 8
  tail call void @_ZN7storage16QuotaManagerImpl14LazyInitializeEv(%"class.storage::QuotaManagerImpl"* %0)
  %8 = tail call i8* @_Znwm(i64 192) #16
  %9 = bitcast %"class.base::internal::flat_tree.394"* %3 to <2 x i64>*
  %10 = load <2 x i64>, <2 x i64>* %9, align 8
  %11 = getelementptr inbounds %"class.base::internal::flat_tree.394", %"class.base::internal::flat_tree.394"* %3, i64 0, i32 0, i32 0, i32 2, i32 0, i32 0
  %12 = bitcast i32** %11 to i64*
  %13 = load i64, i64* %12, align 8
  %14 = bitcast %"class.base::internal::flat_tree.394"* %3 to i8*
  tail call void @llvm.memset.p0i8.i64(i8* align 8 %14, i8 0, i64 24, i1 false) #15
  %15 = getelementptr inbounds %"class.base::OnceCallback.318", %"class.base::OnceCallback.318"* %5, i64 0, i32 0, i32 0, i32 0
  %16 = bitcast %"class.base::OnceCallback.318"* %5 to i64*
  %17 = load i64, i64* %16, align 8
  store %"class.base::internal::BindStateBase"* null, %"class.base::internal::BindStateBase"** %15, align 8
  %18 = zext i1 %4 to i8
  %19 = bitcast i8* %8 to %"class.storage::QuotaTask"*
  %20 = getelementptr inbounds %"class.storage::QuotaManagerImpl", %"class.storage::QuotaManagerImpl"* %0, i64 0, i32 0
  tail call void @_ZN7storage9QuotaTaskC2EPNS_17QuotaTaskObserverE(%"class.storage::QuotaTask"* nonnull %19, %"class.storage::QuotaTaskObserver"* %20) #15
  %21 = bitcast i8* %8 to i32 (...)***
  store i32 (...)** bitcast (i8** getelementptr inbounds ({ [7 x i8*] }, { [7 x i8*] }* @_ZTVN7storage16QuotaManagerImpl17OriginDataDeleterE, i64 0, inrange i32 0, i64 2) to i32 (...)**), i32 (...)*** %21, align 8
  %22 = getelementptr inbounds i8, i8* %8, i64 32
  %23 = bitcast i8* %22 to %"class.url::Origin"*
  tail call void @_ZN3url6OriginC1ERKS0_(%"class.url::Origin"* %23, %"class.url::Origin"* dereferenceable(80) %1) #15
  %24 = getelementptr inbounds i8, i8* %8, i64 112
  %25 = bitcast i8* %24 to i32*
  store i32 %2, i32* %25, align 8
  %26 = getelementptr inbounds i8, i8* %8, i64 120
  %27 = bitcast i8* %26 to <2 x i64>*
  store <2 x i64> %10, <2 x i64>* %27, align 8
  %28 = getelementptr inbounds i8, i8* %8, i64 136
  %29 = bitcast i8* %28 to i64*
  store i64 %13, i64* %29, align 8
  %30 = getelementptr inbounds i8, i8* %8, i64 144
  %31 = bitcast i8* %30 to i32*
  store i32 0, i32* %31, align 8
  %32 = getelementptr inbounds i8, i8* %8, i64 152
  %33 = bitcast i8* %32 to i64*
  store i64 0, i64* %33, align 8
  %34 = getelementptr inbounds i8, i8* %8, i64 160
  %35 = bitcast i8* %34 to i32*
  store i32 0, i32* %35, align 8
  %36 = getelementptr inbounds i8, i8* %8, i64 164
  store i8 %18, i8* %36, align 4
  %37 = getelementptr inbounds i8, i8* %8, i64 168
  %38 = getelementptr inbounds %"class.base::OnceCallback.318", %"class.base::OnceCallback.318"* %7, i64 0, i32 0, i32 0, i32 0
  %39 = bitcast i8* %37 to i64*
  store i64 %17, i64* %39, align 8
  store %"class.base::internal::BindStateBase"* null, %"class.base::internal::BindStateBase"** %38, align 8
  %40 = getelementptr inbounds i8, i8* %8, i64 176
  %41 = bitcast i8* %40 to %"class.base::internal::WeakPtrFactoryBase"*
  %42 = ptrtoint i8* %8 to i64
  tail call void @_ZN4base8internal18WeakPtrFactoryBaseC2Em(%"class.base::internal::WeakPtrFactoryBase"* %41, i64 %42) #15
  %43 = getelementptr inbounds %"class.base::OnceCallback.318", %"class.base::OnceCallback.318"* %7, i64 0, i32 0
  call void @_ZN4base8internal12CallbackBaseD2Ev(%"class.base::internal::CallbackBase"* nonnull %43) #15
  call void @_ZN7storage9QuotaTask5StartEv(%"class.storage::QuotaTask"* nonnull %19) #15
  ret void
}

; Function Attrs: nounwind ssp uwtable
define hidden void @_ZN7storage16QuotaManagerImpl21PerformStorageCleanupEN5blink5mojom11StorageTypeEN4base8internal9flat_treeINS_15QuotaClientTypeENS4_8identityENSt3__14lessIvEENS9_6vectorIS7_NS9_9allocatorIS7_EEEEEENS4_12OnceCallbackIFvvEEE(%"class.storage::QuotaManagerImpl"*, i32, %"class.base::internal::flat_tree.394"* nocapture, %"class.base::OnceCallback"* nocapture) local_unnamed_addr #0 align 2 {
  %5 = alloca %"class.base::OnceCallback", align 8
  %6 = tail call i8* @_Znwm(i64 80) #16
  %7 = bitcast %"class.base::internal::flat_tree.394"* %2 to <2 x i64>*
  %8 = load <2 x i64>, <2 x i64>* %7, align 8
  %9 = getelementptr inbounds %"class.base::internal::flat_tree.394", %"class.base::internal::flat_tree.394"* %2, i64 0, i32 0, i32 0, i32 2, i32 0, i32 0
  %10 = bitcast i32** %9 to i64*
  %11 = load i64, i64* %10, align 8
  %12 = bitcast %"class.base::internal::flat_tree.394"* %2 to i8*
  tail call void @llvm.memset.p0i8.i64(i8* align 8 %12, i8 0, i64 24, i1 false) #15
  %13 = getelementptr inbounds %"class.base::OnceCallback", %"class.base::OnceCallback"* %3, i64 0, i32 0, i32 0, i32 0
  %14 = bitcast %"class.base::OnceCallback"* %3 to i64*
  %15 = load i64, i64* %14, align 8
  store %"class.base::internal::BindStateBase"* null, %"class.base::internal::BindStateBase"** %13, align 8
  %16 = bitcast i8* %6 to %"class.storage::QuotaTask"*
  %17 = getelementptr inbounds %"class.storage::QuotaManagerImpl", %"class.storage::QuotaManagerImpl"* %0, i64 0, i32 0
  tail call void @_ZN7storage9QuotaTaskC2EPNS_17QuotaTaskObserverE(%"class.storage::QuotaTask"* nonnull %16, %"class.storage::QuotaTaskObserver"* %17) #15
  %18 = bitcast i8* %6 to i32 (...)***
  store i32 (...)** bitcast (i8** getelementptr inbounds ({ [7 x i8*] }, { [7 x i8*] }* @_ZTVN7storage16QuotaManagerImpl20StorageCleanupHelperE, i64 0, inrange i32 0, i64 2) to i32 (...)**), i32 (...)*** %18, align 8
  %19 = getelementptr inbounds i8, i8* %6, i64 28
  %20 = bitcast i8* %19 to i32*
  store i32 %1, i32* %20, align 4
  %21 = getelementptr inbounds i8, i8* %6, i64 32
  %22 = bitcast i8* %21 to <2 x i64>*
  store <2 x i64> %8, <2 x i64>* %22, align 8
  %23 = getelementptr inbounds i8, i8* %6, i64 48
  %24 = bitcast i8* %23 to i64*
  store i64 %11, i64* %24, align 8
  %25 = getelementptr inbounds i8, i8* %6, i64 56
  %26 = getelementptr inbounds %"class.base::OnceCallback", %"class.base::OnceCallback"* %5, i64 0, i32 0, i32 0, i32 0
  %27 = bitcast i8* %25 to i64*
  store i64 %15, i64* %27, align 8
  store %"class.base::internal::BindStateBase"* null, %"class.base::internal::BindStateBase"** %26, align 8
  %28 = getelementptr inbounds i8, i8* %6, i64 64
  %29 = bitcast i8* %28 to %"class.base::internal::WeakPtrFactoryBase"*
  %30 = ptrtoint i8* %6 to i64
  tail call void @_ZN4base8internal18WeakPtrFactoryBaseC2Em(%"class.base::internal::WeakPtrFactoryBase"* %29, i64 %30) #15
  %31 = getelementptr inbounds %"class.base::OnceCallback", %"class.base::OnceCallback"* %5, i64 0, i32 0
  call void @_ZN4base8internal12CallbackBaseD2Ev(%"class.base::internal::CallbackBase"* nonnull %31) #15
  call void @_ZN7storage9QuotaTask5StartEv(%"class.storage::QuotaTask"* nonnull %16) #15
  ret void
}

; Function Attrs: nounwind ssp uwtable
define hidden void @_ZN7storage16QuotaManagerImpl14DeleteHostDataERKNSt3__112basic_stringIcNS1_11char_traitsIcEENS1_9allocatorIcEEEEN5blink5mojom11StorageTypeEN4base8internal9flat_treeINS_15QuotaClientTypeENSD_8identityENS1_4lessIvEENS1_6vectorISG_NS5_ISG_EEEEEENSD_12OnceCallbackIFvNSB_15QuotaStatusCodeEEEE(%"class.storage::QuotaManagerImpl"*, %"class.std::__1::basic_string"* nocapture readonly dereferenceable(24), i32, %"class.base::internal::flat_tree.394"* nocapture, %"class.base::OnceCallback.318"* nocapture) local_unnamed_addr #0 align 2 {
  %6 = alloca %"class.base::OnceCallback.318", align 8
  %7 = alloca %"class.base::flat_map.403", align 8
  %8 = alloca i32, align 4
  %9 = alloca %"class.base::OnceCallback.318", align 8
  store i32 %2, i32* %8, align 4
  tail call void @_ZN7storage16QuotaManagerImpl14LazyInitializeEv(%"class.storage::QuotaManagerImpl"* %0)
  %10 = bitcast %"class.std::__1::basic_string"* %1 to %"struct.std::__1::basic_string<char, std::__1::char_traits<char>, std::__1::allocator<char> >::__short"*
  %11 = getelementptr inbounds %"struct.std::__1::basic_string<char, std::__1::char_traits<char>, std::__1::allocator<char> >::__short", %"struct.std::__1::basic_string<char, std::__1::char_traits<char>, std::__1::allocator<char> >::__short"* %10, i64 0, i32 1, i32 0
  %12 = load i8, i8* %11, align 1
  %13 = icmp slt i8 %12, 0
  %14 = getelementptr inbounds %"class.std::__1::basic_string", %"class.std::__1::basic_string"* %1, i64 0, i32 0, i32 0, i32 0, i32 0, i32 0, i32 1
  %15 = load i64, i64* %14, align 8
  %16 = zext i8 %12 to i64
  %17 = select i1 %13, i64 %15, i64 %16
  %18 = icmp eq i64 %17, 0
  br i1 %18, label %73, label %19

19:                                               ; preds = %5
  %20 = getelementptr inbounds %"class.storage::QuotaManagerImpl", %"class.storage::QuotaManagerImpl"* %0, i64 0, i32 28
  %21 = getelementptr inbounds %"class.base::flat_map", %"class.base::flat_map"* %20, i64 0, i32 0, i32 0, i32 0, i32 0
  %22 = load %"struct.std::__1::pair.276"*, %"struct.std::__1::pair.276"** %21, align 8
  %23 = getelementptr inbounds %"class.storage::QuotaManagerImpl", %"class.storage::QuotaManagerImpl"* %0, i64 0, i32 28, i32 0, i32 0, i32 0, i32 1
  %24 = bitcast %"struct.std::__1::pair.276"** %23 to i64*
  %25 = load i64, i64* %24, align 8
  %26 = ptrtoint %"struct.std::__1::pair.276"* %22 to i64
  %27 = sub i64 %25, %26
  %28 = icmp eq i64 %27, 0
  %29 = inttoptr i64 %25 to %"struct.std::__1::pair.276"*
  br i1 %28, label %46, label %30

30:                                               ; preds = %19
  %31 = ashr exact i64 %27, 5
  br label %32

32:                                               ; preds = %32, %30
  %33 = phi %"struct.std::__1::pair.276"* [ %22, %30 ], [ %44, %32 ]
  %34 = phi i64 [ %31, %30 ], [ %43, %32 ]
  %35 = lshr i64 %34, 1
  %36 = getelementptr inbounds %"struct.std::__1::pair.276", %"struct.std::__1::pair.276"* %33, i64 %35
  %37 = getelementptr inbounds %"struct.std::__1::pair.276", %"struct.std::__1::pair.276"* %36, i64 0, i32 0
  %38 = load i32, i32* %37, align 4
  %39 = icmp slt i32 %38, %2
  %40 = getelementptr inbounds %"struct.std::__1::pair.276", %"struct.std::__1::pair.276"* %36, i64 1
  %41 = xor i64 %35, -1
  %42 = add i64 %34, %41
  %43 = select i1 %39, i64 %42, i64 %35
  %44 = select i1 %39, %"struct.std::__1::pair.276"* %40, %"struct.std::__1::pair.276"* %33
  %45 = icmp eq i64 %43, 0
  br i1 %45, label %46, label %32

46:                                               ; preds = %32, %19
  %47 = phi %"struct.std::__1::pair.276"* [ %22, %19 ], [ %44, %32 ]
  %48 = icmp eq %"struct.std::__1::pair.276"* %47, %29
  br i1 %48, label %53, label %49

49:                                               ; preds = %46
  %50 = getelementptr inbounds %"struct.std::__1::pair.276", %"struct.std::__1::pair.276"* %47, i64 0, i32 0
  %51 = load i32, i32* %50, align 4
  %52 = icmp sgt i32 %51, %2
  br i1 %52, label %53, label %66

53:                                               ; preds = %49, %46
  %54 = bitcast %"class.base::flat_map.403"* %7 to i8*
  call void @llvm.lifetime.start.p0i8(i64 24, i8* nonnull %54) #15
  %55 = getelementptr inbounds %"class.base::flat_map", %"class.base::flat_map"* %20, i64 0, i32 0, i32 0
  call void @llvm.memset.p0i8.i64(i8* nonnull align 8 %54, i8 0, i64 24, i1 false) #15
  %56 = call %"struct.std::__1::pair.276"* @_ZNSt3__16vectorINS_4pairIN5blink5mojom11StorageTypeEN4base8flat_mapIPN7storage11QuotaClientENS7_15QuotaClientTypeENS_4lessIvEENS0_INS1_IS9_SA_EENS_9allocatorISD_EEEEEEEENSE_ISI_EEE7emplaceIJRKS4_SH_EEENS_11__wrap_iterIPSI_EENSO_IPKSI_EEDpOT_(%"class.std::__1::vector.274"* %55, %"struct.std::__1::pair.276"* %47, i32* nonnull dereferenceable(4) %8, %"class.base::flat_map.403"* nonnull dereferenceable(24) %7) #15
  %57 = getelementptr inbounds %"class.base::flat_map.403", %"class.base::flat_map.403"* %7, i64 0, i32 0, i32 0, i32 0, i32 0
  %58 = load %"struct.std::__1::pair.407"*, %"struct.std::__1::pair.407"** %57, align 8
  %59 = icmp eq %"struct.std::__1::pair.407"* %58, null
  br i1 %59, label %65, label %60

60:                                               ; preds = %53
  %61 = ptrtoint %"struct.std::__1::pair.407"* %58 to i64
  %62 = getelementptr inbounds %"class.base::flat_map.403", %"class.base::flat_map.403"* %7, i64 0, i32 0, i32 0, i32 0, i32 1
  %63 = bitcast %"struct.std::__1::pair.407"** %62 to i64*
  store i64 %61, i64* %63, align 8
  %64 = bitcast %"struct.std::__1::pair.407"* %58 to i8*
  call void @_ZdlPv(i8* %64) #16
  br label %65

65:                                               ; preds = %60, %53
  call void @llvm.lifetime.end.p0i8(i64 24, i8* nonnull %54) #15
  br label %66

66:                                               ; preds = %49, %65
  %67 = phi %"struct.std::__1::pair.276"* [ %56, %65 ], [ %47, %49 ]
  %68 = getelementptr inbounds %"struct.std::__1::pair.276", %"struct.std::__1::pair.276"* %67, i64 0, i32 1, i32 0, i32 0, i32 0, i32 0
  %69 = load %"struct.std::__1::pair.407"*, %"struct.std::__1::pair.407"** %68, align 8
  %70 = getelementptr inbounds %"struct.std::__1::pair.276", %"struct.std::__1::pair.276"* %67, i64 0, i32 1, i32 0, i32 0, i32 0, i32 1
  %71 = load %"struct.std::__1::pair.407"*, %"struct.std::__1::pair.407"** %70, align 8
  %72 = icmp eq %"struct.std::__1::pair.407"* %69, %71
  br i1 %72, label %73, label %84

73:                                               ; preds = %66, %5
  %74 = bitcast %"class.base::OnceCallback.318"* %6 to i8*
  call void @llvm.lifetime.start.p0i8(i64 8, i8* nonnull %74) #15
  %75 = getelementptr inbounds %"class.base::OnceCallback.318", %"class.base::OnceCallback.318"* %4, i64 0, i32 0, i32 0, i32 0
  %76 = bitcast %"class.base::OnceCallback.318"* %4 to i64*
  %77 = load i64, i64* %76, align 8
  %78 = bitcast %"class.base::OnceCallback.318"* %6 to i64*
  store i64 %77, i64* %78, align 8
  store %"class.base::internal::BindStateBase"* null, %"class.base::internal::BindStateBase"** %75, align 8
  %79 = getelementptr inbounds %"class.base::OnceCallback.318", %"class.base::OnceCallback.318"* %6, i64 0, i32 0
  %80 = inttoptr i64 %77 to %"class.base::internal::BindStateBase"*
  %81 = getelementptr inbounds %"class.base::internal::BindStateBase", %"class.base::internal::BindStateBase"* %80, i64 0, i32 1
  %82 = bitcast void ()** %81 to void (%"class.base::internal::BindStateBase"*, i32)**
  %83 = load void (%"class.base::internal::BindStateBase"*, i32)*, void (%"class.base::internal::BindStateBase"*, i32)** %82, align 8
  call void %83(%"class.base::internal::BindStateBase"* %80, i32 0) #15
  call void @_ZN4base8internal12CallbackBaseD2Ev(%"class.base::internal::CallbackBase"* nonnull %79) #15
  call void @llvm.lifetime.end.p0i8(i64 8, i8* nonnull %74) #15
  br label %132

84:                                               ; preds = %66
  %85 = call i8* @_Znwm(i64 160) #16
  %86 = load i32, i32* %8, align 4
  %87 = bitcast %"class.base::internal::flat_tree.394"* %3 to <2 x i64>*
  %88 = load <2 x i64>, <2 x i64>* %87, align 8
  %89 = getelementptr inbounds %"class.base::internal::flat_tree.394", %"class.base::internal::flat_tree.394"* %3, i64 0, i32 0, i32 0, i32 2, i32 0, i32 0
  %90 = bitcast i32** %89 to i64*
  %91 = load i64, i64* %90, align 8
  %92 = bitcast %"class.base::internal::flat_tree.394"* %3 to i8*
  call void @llvm.memset.p0i8.i64(i8* align 8 %92, i8 0, i64 24, i1 false) #15
  %93 = getelementptr inbounds %"class.base::OnceCallback.318", %"class.base::OnceCallback.318"* %4, i64 0, i32 0, i32 0, i32 0
  %94 = bitcast %"class.base::OnceCallback.318"* %4 to i64*
  %95 = load i64, i64* %94, align 8
  %96 = bitcast %"class.base::OnceCallback.318"* %9 to i64*
  store i64 %95, i64* %96, align 8
  store %"class.base::internal::BindStateBase"* null, %"class.base::internal::BindStateBase"** %93, align 8
  %97 = bitcast i8* %85 to %"class.storage::QuotaTask"*
  %98 = getelementptr inbounds %"class.storage::QuotaManagerImpl", %"class.storage::QuotaManagerImpl"* %0, i64 0, i32 0
  call void @_ZN7storage9QuotaTaskC2EPNS_17QuotaTaskObserverE(%"class.storage::QuotaTask"* nonnull %97, %"class.storage::QuotaTaskObserver"* %98) #15
  %99 = bitcast i8* %85 to i32 (...)***
  store i32 (...)** bitcast (i8** getelementptr inbounds ({ [7 x i8*] }, { [7 x i8*] }* @_ZTVN7storage16QuotaManagerImpl15HostDataDeleterE, i64 0, inrange i32 0, i64 2) to i32 (...)**), i32 (...)*** %99, align 8
  %100 = getelementptr inbounds i8, i8* %85, i64 32
  %101 = load i8, i8* %11, align 1
  %102 = icmp slt i8 %101, 0
  br i1 %102, label %105, label %103

103:                                              ; preds = %84
  %104 = bitcast %"class.std::__1::basic_string"* %1 to i8*
  call void @llvm.memcpy.p0i8.p0i8.i64(i8* align 8 %100, i8* align 8 %104, i64 24, i1 false) #15
  br label %111

105:                                              ; preds = %84
  %106 = bitcast i8* %100 to %"class.std::__1::basic_string"*
  %107 = getelementptr inbounds %"class.std::__1::basic_string", %"class.std::__1::basic_string"* %1, i64 0, i32 0, i32 0, i32 0, i32 0, i32 0, i32 0
  %108 = load i8*, i8** %107, align 8
  %109 = load i64, i64* %14, align 8
  call void @_ZNSt3__112basic_stringIcNS_11char_traitsIcEENS_9allocatorIcEEE25__init_copy_ctor_externalEPKcm(%"class.std::__1::basic_string"* %106, i8* %108, i64 %109) #15
  %110 = load i64, i64* %96, align 8
  br label %111

111:                                              ; preds = %105, %103
  %112 = phi i64 [ %110, %105 ], [ %95, %103 ]
  %113 = getelementptr inbounds i8, i8* %85, i64 56
  %114 = bitcast i8* %113 to i32*
  store i32 %86, i32* %114, align 8
  %115 = getelementptr inbounds i8, i8* %85, i64 64
  %116 = bitcast i8* %115 to <2 x i64>*
  store <2 x i64> %88, <2 x i64>* %116, align 8
  %117 = getelementptr inbounds i8, i8* %85, i64 80
  %118 = bitcast i8* %117 to i64*
  store i64 %91, i64* %118, align 8
  %119 = getelementptr inbounds i8, i8* %85, i64 96
  %120 = getelementptr inbounds i8, i8* %85, i64 88
  call void @llvm.memset.p0i8.i64(i8* align 8 %119, i8 0, i64 16, i1 false) #15
  %121 = bitcast i8* %120 to i8**
  store i8* %119, i8** %121, align 8
  %122 = getelementptr inbounds i8, i8* %85, i64 112
  %123 = bitcast i8* %122 to i32*
  store i32 0, i32* %123, align 8
  %124 = getelementptr inbounds i8, i8* %85, i64 120
  %125 = getelementptr inbounds i8, i8* %85, i64 136
  %126 = getelementptr inbounds %"class.base::OnceCallback.318", %"class.base::OnceCallback.318"* %9, i64 0, i32 0, i32 0, i32 0
  call void @llvm.memset.p0i8.i64(i8* align 8 %124, i8 0, i64 16, i1 false) #15
  %127 = bitcast i8* %125 to i64*
  store i64 %112, i64* %127, align 8
  store %"class.base::internal::BindStateBase"* null, %"class.base::internal::BindStateBase"** %126, align 8
  %128 = getelementptr inbounds i8, i8* %85, i64 144
  %129 = bitcast i8* %128 to %"class.base::internal::WeakPtrFactoryBase"*
  %130 = ptrtoint i8* %85 to i64
  call void @_ZN4base8internal18WeakPtrFactoryBaseC2Em(%"class.base::internal::WeakPtrFactoryBase"* %129, i64 %130) #15
  %131 = getelementptr inbounds %"class.base::OnceCallback.318", %"class.base::OnceCallback.318"* %9, i64 0, i32 0
  call void @_ZN4base8internal12CallbackBaseD2Ev(%"class.base::internal::CallbackBase"* nonnull %131) #15
  call void @_ZN7storage9QuotaTask5StartEv(%"class.storage::QuotaTask"* nonnull %97) #15
  br label %132

132:                                              ; preds = %111, %73
  ret void
}

; Function Attrs: nounwind ssp uwtable
define hidden void @_ZN7storage16QuotaManagerImpl22GetPersistentHostQuotaERKNSt3__112basic_stringIcNS1_11char_traitsIcEENS1_9allocatorIcEEEEN4base12OnceCallbackIFvN5blink5mojom15QuotaStatusCodeElEEE(%"class.storage::QuotaManagerImpl"*, %"class.std::__1::basic_string"* dereferenceable(24), %"class.base::OnceCallback.414"* nocapture) local_unnamed_addr #0 align 2 {
  %4 = alloca %"class.base::internal::WeakReference", align 8
  %5 = alloca %"class.std::__1::tuple.780", align 8
  %6 = alloca %"class.std::__1::tuple.769", align 1
  %7 = alloca %"class.base::OnceCallback.414", align 8
  %8 = alloca %"class.base::OnceCallback.414", align 8
  %9 = alloca %"class.base::OnceCallback.414", align 8
  %10 = alloca %"class.base::Location", align 8
  %11 = alloca %"class.base::OnceCallback.415", align 8
  %12 = alloca %"class.base::OnceCallback.416", align 8
  %13 = alloca %"class.base::WeakPtr.363", align 8
  tail call void @_ZN7storage16QuotaManagerImpl14LazyInitializeEv(%"class.storage::QuotaManagerImpl"* %0)
  %14 = bitcast %"class.std::__1::basic_string"* %1 to %"struct.std::__1::basic_string<char, std::__1::char_traits<char>, std::__1::allocator<char> >::__short"*
  %15 = getelementptr inbounds %"struct.std::__1::basic_string<char, std::__1::char_traits<char>, std::__1::allocator<char> >::__short", %"struct.std::__1::basic_string<char, std::__1::char_traits<char>, std::__1::allocator<char> >::__short"* %14, i64 0, i32 1, i32 0
  %16 = load i8, i8* %15, align 1
  %17 = icmp slt i8 %16, 0
  %18 = getelementptr inbounds %"class.std::__1::basic_string", %"class.std::__1::basic_string"* %1, i64 0, i32 0, i32 0, i32 0, i32 0, i32 0, i32 1
  %19 = load i64, i64* %18, align 8
  %20 = zext i8 %16 to i64
  %21 = select i1 %17, i64 %19, i64 %20
  %22 = icmp eq i64 %21, 0
  br i1 %22, label %23, label %34

23:                                               ; preds = %3
  %24 = bitcast %"class.base::OnceCallback.414"* %8 to i8*
  call void @llvm.lifetime.start.p0i8(i64 8, i8* nonnull %24) #15
  %25 = getelementptr inbounds %"class.base::OnceCallback.414", %"class.base::OnceCallback.414"* %2, i64 0, i32 0, i32 0, i32 0
  %26 = bitcast %"class.base::OnceCallback.414"* %2 to i64*
  %27 = load i64, i64* %26, align 8
  %28 = bitcast %"class.base::OnceCallback.414"* %8 to i64*
  store i64 %27, i64* %28, align 8
  store %"class.base::internal::BindStateBase"* null, %"class.base::internal::BindStateBase"** %25, align 8
  %29 = getelementptr inbounds %"class.base::OnceCallback.414", %"class.base::OnceCallback.414"* %8, i64 0, i32 0
  %30 = inttoptr i64 %27 to %"class.base::internal::BindStateBase"*
  %31 = getelementptr inbounds %"class.base::internal::BindStateBase", %"class.base::internal::BindStateBase"* %30, i64 0, i32 1
  %32 = bitcast void ()** %31 to void (%"class.base::internal::BindStateBase"*, i32, i64)**
  %33 = load void (%"class.base::internal::BindStateBase"*, i32, i64)*, void (%"class.base::internal::BindStateBase"*, i32, i64)** %32, align 8
  tail call void %33(%"class.base::internal::BindStateBase"* %30, i32 0, i64 0) #15
  call void @_ZN4base8internal12CallbackBaseD2Ev(%"class.base::internal::CallbackBase"* nonnull %29) #15
  call void @llvm.lifetime.end.p0i8(i64 8, i8* nonnull %24) #15
  br label %129

34:                                               ; preds = %3
  %35 = getelementptr inbounds %"class.base::OnceCallback.414", %"class.base::OnceCallback.414"* %2, i64 0, i32 0, i32 0, i32 0
  %36 = bitcast %"class.base::OnceCallback.414"* %2 to i64*
  %37 = load i64, i64* %36, align 8
  store %"class.base::internal::BindStateBase"* null, %"class.base::internal::BindStateBase"** %35, align 8
  %38 = bitcast %"class.base::OnceCallback.414"* %7 to i8*
  call void @llvm.lifetime.start.p0i8(i64 8, i8* nonnull %38)
  %39 = getelementptr inbounds %"class.storage::QuotaManagerImpl", %"class.storage::QuotaManagerImpl"* %0, i64 0, i32 35, i32 0, i32 0
  %40 = bitcast %"class.std::__1::tuple.780"* %5 to i8*
  call void @llvm.lifetime.start.p0i8(i64 8, i8* nonnull %40) #15
  %41 = getelementptr inbounds %"class.std::__1::tuple.780", %"class.std::__1::tuple.780"* %5, i64 0, i32 0, i32 0, i32 0
  store %"class.std::__1::basic_string"* %1, %"class.std::__1::basic_string"** %41, align 8
  %42 = getelementptr inbounds %"class.std::__1::tuple.769", %"class.std::__1::tuple.769"* %6, i64 0, i32 0
  call void @llvm.lifetime.start.p0i8(i64 1, i8* nonnull %42) #15
  %43 = call { %"class.std::__1::__tree_end_node"*, i8 } @_ZNSt3__16__treeINS_12__value_typeINS_12basic_stringIcNS_11char_traitsIcEENS_9allocatorIcEEEEN7storage13CallbackQueueIN4base12OnceCallbackIFvN5blink5mojom15QuotaStatusCodeElEEEJSE_lEEEEENS_19__map_value_compareIS7_SI_NS_4lessIS7_EELb1EEENS5_ISI_EEE25__emplace_unique_key_argsIS7_JRKNS_21piecewise_construct_tENS_5tupleIJRKS7_EEENST_IJEEEEEENS_4pairINS_15__tree_iteratorISI_PNS_11__tree_nodeISI_PvEElEEbEERKT_DpOT0_(%"class.std::__1::__tree.320"* %39, %"class.std::__1::basic_string"* dereferenceable(24) %1, %"struct.std::__1::piecewise_construct_t"* nonnull dereferenceable(1) @_ZNSt3__1L19piecewise_constructE, %"class.std::__1::tuple.780"* nonnull dereferenceable(8) %5, %"class.std::__1::tuple.769"* nonnull dereferenceable(1) %6) #15
  %44 = extractvalue { %"class.std::__1::__tree_end_node"*, i8 } %43, 0
  %45 = getelementptr inbounds %"class.std::__1::__tree_end_node", %"class.std::__1::__tree_end_node"* %44, i64 7
  call void @llvm.lifetime.end.p0i8(i64 1, i8* nonnull %42) #15
  call void @llvm.lifetime.end.p0i8(i64 8, i8* nonnull %40) #15
  %46 = getelementptr inbounds %"class.base::OnceCallback.414", %"class.base::OnceCallback.414"* %9, i64 0, i32 0, i32 0, i32 0
  %47 = bitcast %"class.base::OnceCallback.414"* %7 to i64*
  store i64 %37, i64* %47, align 8
  store %"class.base::internal::BindStateBase"* null, %"class.base::internal::BindStateBase"** %46, align 8
  %48 = getelementptr inbounds %"class.std::__1::__tree_end_node", %"class.std::__1::__tree_end_node"* %44, i64 8
  %49 = bitcast %"class.std::__1::__tree_end_node"* %48 to %"class.base::OnceCallback.414"**
  %50 = load %"class.base::OnceCallback.414"*, %"class.base::OnceCallback.414"** %49, align 8
  %51 = getelementptr inbounds %"class.std::__1::__tree_end_node", %"class.std::__1::__tree_end_node"* %44, i64 9
  %52 = bitcast %"class.std::__1::__tree_end_node"* %51 to %"class.base::OnceCallback.414"**
  %53 = load %"class.base::OnceCallback.414"*, %"class.base::OnceCallback.414"** %52, align 8
  %54 = icmp ult %"class.base::OnceCallback.414"* %50, %53
  br i1 %54, label %55, label %61

55:                                               ; preds = %34
  %56 = getelementptr inbounds %"class.base::OnceCallback.414", %"class.base::OnceCallback.414"* %7, i64 0, i32 0, i32 0, i32 0
  %57 = bitcast %"class.base::OnceCallback.414"* %50 to i64*
  store i64 %37, i64* %57, align 8
  store %"class.base::internal::BindStateBase"* null, %"class.base::internal::BindStateBase"** %56, align 8
  %58 = getelementptr inbounds %"class.base::OnceCallback.414", %"class.base::OnceCallback.414"* %50, i64 1
  %59 = ptrtoint %"class.base::OnceCallback.414"* %58 to i64
  %60 = bitcast %"class.std::__1::__tree_end_node"* %48 to i64*
  store i64 %59, i64* %60, align 8
  br label %65

61:                                               ; preds = %34
  %62 = bitcast %"class.std::__1::__tree_end_node"* %45 to %"class.std::__1::vector.611"*
  call void @_ZNSt3__16vectorIN4base12OnceCallbackIFvN5blink5mojom15QuotaStatusCodeElEEENS_9allocatorIS7_EEE21__push_back_slow_pathIS7_EEvOT_(%"class.std::__1::vector.611"* %62, %"class.base::OnceCallback.414"* nonnull dereferenceable(8) %7) #15
  %63 = bitcast %"class.std::__1::__tree_end_node"* %48 to i64*
  %64 = load i64, i64* %63, align 8
  br label %65

65:                                               ; preds = %55, %61
  %66 = phi i64 [ %59, %55 ], [ %64, %61 ]
  %67 = bitcast %"class.std::__1::__tree_end_node"* %45 to i64*
  %68 = load i64, i64* %67, align 8
  %69 = sub i64 %66, %68
  %70 = icmp eq i64 %69, 8
  %71 = getelementptr inbounds %"class.base::OnceCallback.414", %"class.base::OnceCallback.414"* %7, i64 0, i32 0
  call void @_ZN4base8internal12CallbackBaseD2Ev(%"class.base::internal::CallbackBase"* nonnull %71) #15
  call void @llvm.lifetime.end.p0i8(i64 8, i8* nonnull %38)
  %72 = getelementptr inbounds %"class.base::OnceCallback.414", %"class.base::OnceCallback.414"* %9, i64 0, i32 0
  call void @_ZN4base8internal12CallbackBaseD2Ev(%"class.base::internal::CallbackBase"* nonnull %72) #15
  br i1 %70, label %73, label %129

73:                                               ; preds = %65
  %74 = call i8* @_Znwm(i64 8) #16
  %75 = bitcast i8* %74 to i64*
  store i64 0, i64* %75, align 8
  %76 = bitcast %"class.base::Location"* %10 to i8*
  call void @llvm.lifetime.start.p0i8(i64 32, i8* nonnull %76) #15
  call void @_ZN4base8Location7CurrentEPKcS2_i(%"class.base::Location"* nonnull sret %10, i8* getelementptr inbounds ([23 x i8], [23 x i8]* @.str.3, i64 0, i64 0), i8* getelementptr inbounds ([50 x i8], [50 x i8]* @.str.1, i64 0, i64 0), i32 1155) #15
  %77 = ptrtoint i8* %74 to i64
  %78 = call i8* @_Znwm(i64 72) #16, !noalias !131
  %79 = bitcast i8* %78 to %"class.base::internal::BindStateBase"*
  call void @_ZN4base8internal13BindStateBaseC2EPFvvEPFvPKS1_E(%"class.base::internal::BindStateBase"* nonnull %79, void ()* bitcast (i1 (%"class.base::internal::BindStateBase"*, %"class.storage::QuotaDatabase"*)* @_ZN4base8internal7InvokerINS0_9BindStateIPFbRKNSt3__112basic_stringIcNS3_11char_traitsIcEENS3_9allocatorIcEEEEPlPN7storage13QuotaDatabaseEEJS9_NS0_17UnretainedWrapperIlEEEEEFbSF_EE7RunOnceEPNS0_13BindStateBaseESF_ to void ()*), void (%"class.base::internal::BindStateBase"*)* nonnull @_ZN4base8internal9BindStateIPFbRKNSt3__112basic_stringIcNS2_11char_traitsIcEENS2_9allocatorIcEEEEPlPN7storage13QuotaDatabaseEEJS8_NS0_17UnretainedWrapperIlEEEE7DestroyEPKNS0_13BindStateBaseE) #15, !noalias !131
  %80 = getelementptr inbounds i8, i8* %78, i64 32
  %81 = bitcast i8* %80 to i64*
  store i64 ptrtoint (i1 (%"class.std::__1::basic_string"*, i64*, %"class.storage::QuotaDatabase"*)* @_ZN7storage12_GLOBAL__N_132GetPersistentHostQuotaOnDBThreadERKNSt3__112basic_stringIcNS1_11char_traitsIcEENS1_9allocatorIcEEEEPlPNS_13QuotaDatabaseE to i64), i64* %81, align 8, !noalias !131
  %82 = getelementptr inbounds i8, i8* %78, i64 40
  %83 = load i8, i8* %15, align 1, !noalias !131
  %84 = icmp slt i8 %83, 0
  br i1 %84, label %87, label %85

85:                                               ; preds = %73
  %86 = bitcast %"class.std::__1::basic_string"* %1 to i8*
  call void @llvm.memcpy.p0i8.p0i8.i64(i8* align 8 %82, i8* align 8 %86, i64 24, i1 false) #15, !noalias !131
  br label %92

87:                                               ; preds = %73
  %88 = bitcast i8* %82 to %"class.std::__1::basic_string"*
  %89 = getelementptr inbounds %"class.std::__1::basic_string", %"class.std::__1::basic_string"* %1, i64 0, i32 0, i32 0, i32 0, i32 0, i32 0, i32 0
  %90 = load i8*, i8** %89, align 8, !noalias !131
  %91 = load i64, i64* %18, align 8, !noalias !131
  call void @_ZNSt3__112basic_stringIcNS_11char_traitsIcEENS_9allocatorIcEEE25__init_copy_ctor_externalEPKcm(%"class.std::__1::basic_string"* %88, i8* %90, i64 %91) #15, !noalias !131
  br label %92

92:                                               ; preds = %85, %87
  %93 = getelementptr inbounds i8, i8* %78, i64 64
  %94 = bitcast i8* %93 to i64*
  store i64 %77, i64* %94, align 8, !noalias !131
  %95 = bitcast %"class.base::OnceCallback.415"* %11 to i8**
  store i8* %78, i8** %95, align 8, !alias.scope !131
  %96 = bitcast %"class.base::WeakPtr.363"* %13 to i8*
  call void @llvm.lifetime.start.p0i8(i64 16, i8* nonnull %96) #15
  %97 = bitcast %"class.base::internal::WeakReference"* %4 to i8*
  call void @llvm.lifetime.start.p0i8(i64 8, i8* nonnull %97) #15, !noalias !136
  %98 = getelementptr inbounds %"class.storage::QuotaManagerImpl", %"class.storage::QuotaManagerImpl"* %0, i64 0, i32 41, i32 0, i32 0
  call void @_ZNK4base8internal18WeakReferenceOwner6GetRefEv(%"class.base::internal::WeakReference"* nonnull sret %4, %"class.base::internal::WeakReferenceOwner"* %98) #15, !noalias !136
  %99 = getelementptr inbounds %"class.storage::QuotaManagerImpl", %"class.storage::QuotaManagerImpl"* %0, i64 0, i32 41, i32 0, i32 1
  %100 = load i64, i64* %99, align 8, !noalias !136
  %101 = getelementptr inbounds %"class.base::WeakPtr.363", %"class.base::WeakPtr.363"* %13, i64 0, i32 0
  call void @_ZN4base8internal11WeakPtrBaseC2ERKNS0_13WeakReferenceEm(%"class.base::internal::WeakPtrBase"* nonnull %101, %"class.base::internal::WeakReference"* nonnull dereferenceable(8) %4, i64 %100) #15
  call void @_ZN4base8internal13WeakReferenceD1Ev(%"class.base::internal::WeakReference"* nonnull %4) #15
  call void @llvm.lifetime.end.p0i8(i64 8, i8* nonnull %97) #15, !noalias !136
  %102 = call i8* @_Znwm(i64 96) #16, !noalias !139
  %103 = bitcast i8* %102 to %"class.base::internal::BindStateBase"*
  call void @_ZN4base8internal13BindStateBaseC2EPFvvEPFvPKS1_EPFbS5_NS1_21CancellationQueryModeEE(%"class.base::internal::BindStateBase"* nonnull %103, void ()* bitcast (void (%"class.base::internal::BindStateBase"*, i1)* @_ZN4base8internal7InvokerINS0_9BindStateIMN7storage16QuotaManagerImplEFvRKNSt3__112basic_stringIcNS5_11char_traitsIcEENS5_9allocatorIcEEEEPKlbEJNS_7WeakPtrIS4_EESB_NS0_12OwnedWrapperIlNS5_14default_deleteIlEEEEEEEFvbEE7RunOnceEPNS0_13BindStateBaseEb to void ()*), void (%"class.base::internal::BindStateBase"*)* nonnull @_ZN4base8internal9BindStateIMN7storage16QuotaManagerImplEFvRKNSt3__112basic_stringIcNS4_11char_traitsIcEENS4_9allocatorIcEEEEPKlbEJNS_7WeakPtrIS3_EESA_NS0_12OwnedWrapperIlNS4_14default_deleteIlEEEEEE7DestroyEPKNS0_13BindStateBaseE, i1 (%"class.base::internal::BindStateBase"*, i32)* nonnull @_ZN4base8internal23QueryCancellationTraitsINS0_9BindStateIMN7storage16QuotaManagerImplEFvRKNSt3__112basic_stringIcNS5_11char_traitsIcEENS5_9allocatorIcEEEEPKlbEJNS_7WeakPtrIS4_EESB_NS0_12OwnedWrapperIlNS5_14default_deleteIlEEEEEEEEEbPKNS0_13BindStateBaseENSP_21CancellationQueryModeE) #15, !noalias !139
  %104 = getelementptr inbounds i8, i8* %102, i64 32
  %105 = bitcast i8* %104 to <2 x i64>*
  store <2 x i64> <i64 ptrtoint (void (%"class.storage::QuotaManagerImpl"*, %"class.std::__1::basic_string"*, i64*, i1)* @_ZN7storage16QuotaManagerImpl25DidGetPersistentHostQuotaERKNSt3__112basic_stringIcNS1_11char_traitsIcEENS1_9allocatorIcEEEEPKlb to i64), i64 0>, <2 x i64>* %105, align 8, !noalias !139
  %106 = getelementptr inbounds i8, i8* %102, i64 48
  %107 = bitcast i8* %106 to %"class.base::internal::WeakReference"*
  %108 = getelementptr inbounds %"class.base::WeakPtr.363", %"class.base::WeakPtr.363"* %13, i64 0, i32 0, i32 0
  call void @_ZN4base8internal13WeakReferenceC1EOS1_(%"class.base::internal::WeakReference"* %107, %"class.base::internal::WeakReference"* nonnull dereferenceable(8) %108) #15, !noalias !139
  %109 = getelementptr inbounds i8, i8* %102, i64 56
  %110 = bitcast i8* %109 to i64*
  %111 = getelementptr inbounds %"class.base::WeakPtr.363", %"class.base::WeakPtr.363"* %13, i64 0, i32 0, i32 1
  %112 = load i64, i64* %111, align 8, !noalias !139
  store i64 %112, i64* %110, align 8, !noalias !139
  %113 = getelementptr inbounds i8, i8* %102, i64 64
  %114 = load i8, i8* %15, align 1, !noalias !139
  %115 = icmp slt i8 %114, 0
  br i1 %115, label %118, label %116

116:                                              ; preds = %92
  %117 = bitcast %"class.std::__1::basic_string"* %1 to i8*
  call void @llvm.memcpy.p0i8.p0i8.i64(i8* align 8 %113, i8* align 8 %117, i64 24, i1 false) #15, !noalias !139
  br label %123

118:                                              ; preds = %92
  %119 = bitcast i8* %113 to %"class.std::__1::basic_string"*
  %120 = getelementptr inbounds %"class.std::__1::basic_string", %"class.std::__1::basic_string"* %1, i64 0, i32 0, i32 0, i32 0, i32 0, i32 0, i32 0
  %121 = load i8*, i8** %120, align 8, !noalias !139
  %122 = load i64, i64* %18, align 8, !noalias !139
  call void @_ZNSt3__112basic_stringIcNS_11char_traitsIcEENS_9allocatorIcEEE25__init_copy_ctor_externalEPKcm(%"class.std::__1::basic_string"* %119, i8* %121, i64 %122) #15, !noalias !139
  br label %123

123:                                              ; preds = %118, %116
  %124 = getelementptr inbounds i8, i8* %102, i64 88
  %125 = bitcast i8* %124 to i64*
  store i64 %77, i64* %125, align 8, !noalias !139
  %126 = bitcast %"class.base::OnceCallback.416"* %12 to i8**
  store i8* %102, i8** %126, align 8, !alias.scope !139
  call void @_ZN7storage16QuotaManagerImpl37PostTaskAndReplyWithResultForDBThreadERKN4base8LocationENS1_12OnceCallbackIFbPNS_13QuotaDatabaseEEEENS5_IFvbEEE(%"class.storage::QuotaManagerImpl"* %0, %"class.base::Location"* nonnull dereferenceable(32) %10, %"class.base::OnceCallback.415"* nonnull %11, %"class.base::OnceCallback.416"* nonnull %12)
  %127 = getelementptr inbounds %"class.base::OnceCallback.416", %"class.base::OnceCallback.416"* %12, i64 0, i32 0
  call void @_ZN4base8internal12CallbackBaseD2Ev(%"class.base::internal::CallbackBase"* nonnull %127) #15
  call void @_ZN4base8internal11WeakPtrBaseD2Ev(%"class.base::internal::WeakPtrBase"* nonnull %101) #15
  call void @llvm.lifetime.end.p0i8(i64 16, i8* nonnull %96) #15
  %128 = getelementptr inbounds %"class.base::OnceCallback.415", %"class.base::OnceCallback.415"* %11, i64 0, i32 0
  call void @_ZN4base8internal12CallbackBaseD2Ev(%"class.base::internal::CallbackBase"* nonnull %128) #15
  call void @llvm.lifetime.end.p0i8(i64 32, i8* nonnull %76) #15
  br label %129

129:                                              ; preds = %65, %123, %23
  ret void
}

; Function Attrs: nounwind ssp uwtable
define hidden void @_ZN7storage16QuotaManagerImpl37PostTaskAndReplyWithResultForDBThreadERKN4base8LocationENS1_12OnceCallbackIFbPNS_13QuotaDatabaseEEEENS5_IFvbEEE(%"class.storage::QuotaManagerImpl"* nocapture readonly, %"class.base::Location"* dereferenceable(32), %"class.base::OnceCallback.415"* nocapture, %"class.base::OnceCallback.416"* nocapture) local_unnamed_addr #0 align 2 {
  %5 = alloca %"class.logging::CheckError", align 8
  %6 = alloca %"class.base::OnceCallback", align 8
  %7 = alloca %"class.base::OnceCallback", align 8
  %8 = alloca %"class.base::OnceCallback.452", align 8
  %9 = alloca %"class.base::OnceCallback.416", align 8
  %10 = getelementptr inbounds %"class.storage::QuotaManagerImpl", %"class.storage::QuotaManagerImpl"* %0, i64 0, i32 10, i32 0
  %11 = bitcast %"class.base::SequencedTaskRunner"** %10 to %"class.base::TaskRunner"**
  %12 = load %"class.base::TaskRunner"*, %"class.base::TaskRunner"** %11, align 8
  %13 = getelementptr inbounds %"class.storage::QuotaManagerImpl", %"class.storage::QuotaManagerImpl"* %0, i64 0, i32 11, i32 0, i32 0, i32 0
  %14 = bitcast %"class.storage::QuotaDatabase"** %13 to i64*
  %15 = load i64, i64* %14, align 8
  %16 = tail call i8* @_Znwm(i64 48) #16, !noalias !144
  %17 = bitcast i8* %16 to %"class.base::internal::BindStateBase"*
  tail call void @_ZN4base8internal13BindStateBaseC2EPFvvEPFvPKS1_EPFbS5_NS1_21CancellationQueryModeEE(%"class.base::internal::BindStateBase"* nonnull %17, void ()* bitcast (i1 (%"class.base::internal::BindStateBase"*)* @_ZN4base8internal7InvokerINS0_9BindStateINS_12OnceCallbackIFbPN7storage13QuotaDatabaseEEEEJNS0_17UnretainedWrapperIS5_EEEEEFbvEE7RunOnceEPNS0_13BindStateBaseE to void ()*), void (%"class.base::internal::BindStateBase"*)* nonnull @_ZN4base8internal9BindStateINS_12OnceCallbackIFbPN7storage13QuotaDatabaseEEEEJNS0_17UnretainedWrapperIS4_EEEE7DestroyEPKNS0_13BindStateBaseE, i1 (%"class.base::internal::BindStateBase"*, i32)* nonnull @_ZN4base8internal23QueryCancellationTraitsINS0_9BindStateINS_12OnceCallbackIFbPN7storage13QuotaDatabaseEEEEJNS0_17UnretainedWrapperIS5_EEEEEEEbPKNS0_13BindStateBaseENSC_21CancellationQueryModeE) #15, !noalias !144
  %18 = getelementptr inbounds i8, i8* %16, i64 32
  %19 = getelementptr inbounds %"class.base::OnceCallback.415", %"class.base::OnceCallback.415"* %2, i64 0, i32 0, i32 0, i32 0
  %20 = bitcast %"class.base::OnceCallback.415"* %2 to i64*
  %21 = load i64, i64* %20, align 8, !noalias !144
  %22 = bitcast i8* %18 to i64*
  store i64 %21, i64* %22, align 8, !noalias !144
  store %"class.base::internal::BindStateBase"* null, %"class.base::internal::BindStateBase"** %19, align 8, !noalias !144
  %23 = getelementptr inbounds i8, i8* %16, i64 40
  %24 = bitcast i8* %23 to i64*
  store i64 %15, i64* %24, align 8, !noalias !144
  %25 = icmp eq i64 %21, 0
  br i1 %25, label %26, label %29

26:                                               ; preds = %4
  %27 = bitcast %"class.logging::CheckError"* %5 to i8*
  call void @llvm.lifetime.start.p0i8(i64 8, i8* nonnull %27) #15, !noalias !144
  call void @_ZN7logging10CheckError5CheckEPKciS2_(%"class.logging::CheckError"* nonnull sret %5, i8* getelementptr inbounds ([27 x i8], [27 x i8]* @.str.43, i64 0, i64 0), i32 896, i8* getelementptr inbounds ([18 x i8], [18 x i8]* @.str.44, i64 0, i64 0)) #15, !noalias !144
  %28 = call dereferenceable(160) %"class.std::__1::basic_ostream"* @_ZN7logging10CheckError6streamEv(%"class.logging::CheckError"* nonnull %5) #15, !noalias !144
  call void @_ZN7logging10CheckErrorD1Ev(%"class.logging::CheckError"* nonnull %5) #15, !noalias !144
  call void @llvm.lifetime.end.p0i8(i64 8, i8* nonnull %27) #15, !noalias !144
  br label %29

29:                                               ; preds = %4, %26
  %30 = getelementptr inbounds %"class.base::OnceCallback.416", %"class.base::OnceCallback.416"* %3, i64 0, i32 0, i32 0, i32 0
  %31 = bitcast %"class.base::OnceCallback.416"* %3 to i64*
  %32 = load i64, i64* %31, align 8
  store %"class.base::internal::BindStateBase"* null, %"class.base::internal::BindStateBase"** %30, align 8
  %33 = bitcast %"class.base::OnceCallback"* %6 to i8*
  call void @llvm.lifetime.start.p0i8(i64 8, i8* nonnull %33)
  %34 = bitcast %"class.base::OnceCallback"* %7 to i8*
  call void @llvm.lifetime.start.p0i8(i64 8, i8* nonnull %34)
  %35 = call i8* @_Znwm(i64 8) #16
  %36 = bitcast i8* %35 to i64*
  store i64 0, i64* %36, align 8
  %37 = ptrtoint i8* %35 to i64
  %38 = call i8* @_Znwm(i64 56) #16, !noalias !149
  %39 = bitcast i8* %38 to %"class.base::internal::BindStateBase"*
  call void @_ZN4base8internal13BindStateBaseC2EPFvvEPFvPKS1_E(%"class.base::internal::BindStateBase"* nonnull %39, void ()* bitcast (void (%"class.base::internal::BindStateBase"*)* @_ZN4base8internal7InvokerINS0_9BindStateIPFvNS_12OnceCallbackIFbvEEEPNSt3__110unique_ptrIbNS6_14default_deleteIbEEEEEJS5_SB_EEEFvvEE7RunOnceEPNS0_13BindStateBaseE to void ()*), void (%"class.base::internal::BindStateBase"*)* nonnull @_ZN4base8internal9BindStateIPFvNS_12OnceCallbackIFbvEEEPNSt3__110unique_ptrIbNS5_14default_deleteIbEEEEEJS4_SA_EE7DestroyEPKNS0_13BindStateBaseE) #15, !noalias !149
  %40 = getelementptr inbounds i8, i8* %38, i64 32
  %41 = bitcast i8* %40 to i64*
  store i64 ptrtoint (void (%"class.base::OnceCallback.452"*, %"class.std::__1::unique_ptr.852"*)* @_ZN4base8internal20ReturnAsParamAdapterIbEEvNS_12OnceCallbackIFT_vEEEPNSt3__110unique_ptrIS3_NS6_14default_deleteIS3_EEEE to i64), i64* %41, align 8, !noalias !149
  %42 = getelementptr inbounds i8, i8* %38, i64 40
  %43 = getelementptr inbounds %"class.base::OnceCallback.452", %"class.base::OnceCallback.452"* %8, i64 0, i32 0, i32 0, i32 0
  %44 = ptrtoint i8* %16 to i64
  %45 = bitcast i8* %42 to i64*
  store i64 %44, i64* %45, align 8, !noalias !149
  store %"class.base::internal::BindStateBase"* null, %"class.base::internal::BindStateBase"** %43, align 8, !noalias !149
  %46 = getelementptr inbounds i8, i8* %38, i64 48
  %47 = bitcast i8* %46 to i64*
  store i64 %37, i64* %47, align 8, !noalias !149
  %48 = bitcast %"class.base::OnceCallback"* %6 to i8**
  store i8* %38, i8** %48, align 8, !alias.scope !149
  %49 = call i8* @_Znwm(i64 56) #16, !noalias !154
  %50 = bitcast i8* %49 to %"class.base::internal::BindStateBase"*
  call void @_ZN4base8internal13BindStateBaseC2EPFvvEPFvPKS1_E(%"class.base::internal::BindStateBase"* nonnull %50, void ()* bitcast (void (%"class.base::internal::BindStateBase"*)* @_ZN4base8internal7InvokerINS0_9BindStateIPFvNS_12OnceCallbackIFvbEEEPNSt3__110unique_ptrIbNS6_14default_deleteIbEEEEEJS5_NS0_12OwnedWrapperISA_NS8_ISA_EEEEEEEFvvEE7RunOnceEPNS0_13BindStateBaseE to void ()*), void (%"class.base::internal::BindStateBase"*)* nonnull @_ZN4base8internal9BindStateIPFvNS_12OnceCallbackIFvbEEEPNSt3__110unique_ptrIbNS5_14default_deleteIbEEEEEJS4_NS0_12OwnedWrapperIS9_NS7_IS9_EEEEEE7DestroyEPKNS0_13BindStateBaseE) #15, !noalias !154
  %51 = getelementptr inbounds i8, i8* %49, i64 32
  %52 = bitcast i8* %51 to i64*
  store i64 ptrtoint (void (%"class.base::OnceCallback.416"*, %"class.std::__1::unique_ptr.852"*)* @_ZN4base8internal12ReplyAdapterIbbEEvNS_12OnceCallbackIFvT0_EEEPNSt3__110unique_ptrIT_NS6_14default_deleteIS8_EEEE to i64), i64* %52, align 8, !noalias !154
  %53 = getelementptr inbounds i8, i8* %49, i64 40
  %54 = getelementptr inbounds %"class.base::OnceCallback.416", %"class.base::OnceCallback.416"* %9, i64 0, i32 0, i32 0, i32 0
  %55 = bitcast i8* %53 to i64*
  store i64 %32, i64* %55, align 8, !noalias !154
  store %"class.base::internal::BindStateBase"* null, %"class.base::internal::BindStateBase"** %54, align 8, !noalias !154
  %56 = getelementptr inbounds i8, i8* %49, i64 48
  %57 = bitcast i8* %56 to i64*
  store i64 %37, i64* %57, align 8, !noalias !154
  %58 = bitcast %"class.base::OnceCallback"* %7 to i8**
  store i8* %49, i8** %58, align 8, !alias.scope !154
  %59 = call zeroext i1 @_ZN4base10TaskRunner16PostTaskAndReplyERKNS_8LocationENS_12OnceCallbackIFvvEEES6_(%"class.base::TaskRunner"* %12, %"class.base::Location"* dereferenceable(32) %1, %"class.base::OnceCallback"* nonnull %6, %"class.base::OnceCallback"* nonnull %7) #15
  %60 = getelementptr inbounds %"class.base::OnceCallback", %"class.base::OnceCallback"* %7, i64 0, i32 0
  call void @_ZN4base8internal12CallbackBaseD2Ev(%"class.base::internal::CallbackBase"* nonnull %60) #15
  %61 = getelementptr inbounds %"class.base::OnceCallback", %"class.base::OnceCallback"* %6, i64 0, i32 0
  call void @_ZN4base8internal12CallbackBaseD2Ev(%"class.base::internal::CallbackBase"* nonnull %61) #15
  call void @llvm.lifetime.end.p0i8(i64 8, i8* nonnull %33)
  call void @llvm.lifetime.end.p0i8(i64 8, i8* nonnull %34)
  %62 = getelementptr inbounds %"class.base::OnceCallback.416", %"class.base::OnceCallback.416"* %9, i64 0, i32 0
  call void @_ZN4base8internal12CallbackBaseD2Ev(%"class.base::internal::CallbackBase"* nonnull %62) #15
  %63 = getelementptr inbounds %"class.base::OnceCallback.452", %"class.base::OnceCallback.452"* %8, i64 0, i32 0
  call void @_ZN4base8internal12CallbackBaseD2Ev(%"class.base::internal::CallbackBase"* nonnull %63) #15
  ret void
}

; Function Attrs: nounwind ssp uwtable
define internal zeroext i1 @_ZN7storage12_GLOBAL__N_132GetPersistentHostQuotaOnDBThreadERKNSt3__112basic_stringIcNS1_11char_traitsIcEENS1_9allocatorIcEEEEPlPNS_13QuotaDatabaseE(%"class.std::__1::basic_string"* dereferenceable(24), i64*, %"class.storage::QuotaDatabase"*) #0 {
  %4 = tail call zeroext i1 @_ZN7storage13QuotaDatabase12GetHostQuotaERKNSt3__112basic_stringIcNS1_11char_traitsIcEENS1_9allocatorIcEEEEN5blink5mojom11StorageTypeEPl(%"class.storage::QuotaDatabase"* %2, %"class.std::__1::basic_string"* dereferenceable(24) %0, i32 1, i64* %1) #15
  ret i1 true
}

; Function Attrs: nounwind ssp uwtable
define hidden void @_ZN7storage16QuotaManagerImpl25DidGetPersistentHostQuotaERKNSt3__112basic_stringIcNS1_11char_traitsIcEENS1_9allocatorIcEEEEPKlb(%"class.storage::QuotaManagerImpl"*, %"class.std::__1::basic_string"* dereferenceable(24), i64*, i1 zeroext) #0 align 2 {
  %5 = alloca i32, align 4
  %6 = xor i1 %3, true
  %7 = getelementptr inbounds %"class.storage::QuotaManagerImpl", %"class.storage::QuotaManagerImpl"* %0, i64 0, i32 6
  %8 = zext i1 %6 to i8
  store i8 %8, i8* %7, align 8
  %9 = getelementptr inbounds %"class.storage::QuotaManagerImpl", %"class.storage::QuotaManagerImpl"* %0, i64 0, i32 35
  %10 = bitcast i32* %5 to i8*
  call void @llvm.lifetime.start.p0i8(i64 4, i8* nonnull %10) #15
  store i32 0, i32* %5, align 4
  %11 = load i64, i64* %2, align 8
  %12 = icmp sgt i64 %11, 10737418240
  %13 = select i1 %12, i64* @_ZN7storage16QuotaManagerImpl28kPerHostPersistentQuotaLimitE, i64* %2
  call void @_ZN7storage16CallbackQueueMapIN4base12OnceCallbackIFvN5blink5mojom15QuotaStatusCodeElEEENSt3__112basic_stringIcNS8_11char_traitsIcEENS8_9allocatorIcEEEEJS5_lEE3RunIJS5_RKlEEEvRKSE_DpOT_(%"class.storage::CallbackQueueMap"* %9, %"class.std::__1::basic_string"* dereferenceable(24) %1, i32* nonnull dereferenceable(4) %5, i64* dereferenceable(8) %13)
  call void @llvm.lifetime.end.p0i8(i64 4, i8* nonnull %10) #15
  ret void
}

; Function Attrs: nounwind ssp uwtable
define hidden void @_ZN7storage16QuotaManagerImpl22SetPersistentHostQuotaERKNSt3__112basic_stringIcNS1_11char_traitsIcEENS1_9allocatorIcEEEElN4base12OnceCallbackIFvN5blink5mojom15QuotaStatusCodeElEEE(%"class.storage::QuotaManagerImpl"*, %"class.std::__1::basic_string"* nocapture readonly dereferenceable(24), i64, %"class.base::OnceCallback.414"* nocapture) local_unnamed_addr #0 align 2 {
  %5 = alloca %"class.base::internal::WeakReference", align 8
  %6 = alloca %"class.base::OnceCallback.414", align 8
  %7 = alloca %"class.base::OnceCallback.414", align 8
  %8 = alloca %"class.base::OnceCallback.414", align 8
  %9 = alloca %"class.base::Location", align 8
  %10 = alloca %"class.base::OnceCallback.415", align 8
  %11 = alloca %"class.base::OnceCallback.416", align 8
  %12 = alloca %"class.base::WeakPtr.363", align 8
  tail call void @_ZN7storage16QuotaManagerImpl14LazyInitializeEv(%"class.storage::QuotaManagerImpl"* %0)
  %13 = bitcast %"class.std::__1::basic_string"* %1 to %"struct.std::__1::basic_string<char, std::__1::char_traits<char>, std::__1::allocator<char> >::__short"*
  %14 = getelementptr inbounds %"struct.std::__1::basic_string<char, std::__1::char_traits<char>, std::__1::allocator<char> >::__short", %"struct.std::__1::basic_string<char, std::__1::char_traits<char>, std::__1::allocator<char> >::__short"* %13, i64 0, i32 1, i32 0
  %15 = load i8, i8* %14, align 1
  %16 = icmp slt i8 %15, 0
  %17 = getelementptr inbounds %"class.std::__1::basic_string", %"class.std::__1::basic_string"* %1, i64 0, i32 0, i32 0, i32 0, i32 0, i32 0, i32 1
  %18 = load i64, i64* %17, align 8
  %19 = zext i8 %15 to i64
  %20 = select i1 %16, i64 %18, i64 %19
  %21 = icmp eq i64 %20, 0
  br i1 %21, label %22, label %33

22:                                               ; preds = %4
  %23 = bitcast %"class.base::OnceCallback.414"* %8 to i8*
  call void @llvm.lifetime.start.p0i8(i64 8, i8* nonnull %23) #15
  %24 = getelementptr inbounds %"class.base::OnceCallback.414", %"class.base::OnceCallback.414"* %3, i64 0, i32 0, i32 0, i32 0
  %25 = bitcast %"class.base::OnceCallback.414"* %3 to i64*
  %26 = load i64, i64* %25, align 8
  %27 = bitcast %"class.base::OnceCallback.414"* %8 to i64*
  store i64 %26, i64* %27, align 8
  store %"class.base::internal::BindStateBase"* null, %"class.base::internal::BindStateBase"** %24, align 8
  %28 = getelementptr inbounds %"class.base::OnceCallback.414", %"class.base::OnceCallback.414"* %8, i64 0, i32 0
  %29 = inttoptr i64 %26 to %"class.base::internal::BindStateBase"*
  %30 = getelementptr inbounds %"class.base::internal::BindStateBase", %"class.base::internal::BindStateBase"* %29, i64 0, i32 1
  %31 = bitcast void ()** %30 to void (%"class.base::internal::BindStateBase"*, i32, i64)**
  %32 = load void (%"class.base::internal::BindStateBase"*, i32, i64)*, void (%"class.base::internal::BindStateBase"*, i32, i64)** %31, align 8
  tail call void %32(%"class.base::internal::BindStateBase"* %29, i32 9, i64 0) #15
  call void @_ZN4base8internal12CallbackBaseD2Ev(%"class.base::internal::CallbackBase"* nonnull %28) #15
  call void @llvm.lifetime.end.p0i8(i64 8, i8* nonnull %23) #15
  br label %124

33:                                               ; preds = %4
  %34 = icmp slt i64 %2, 0
  br i1 %34, label %35, label %46

35:                                               ; preds = %33
  %36 = bitcast %"class.base::OnceCallback.414"* %7 to i8*
  call void @llvm.lifetime.start.p0i8(i64 8, i8* nonnull %36) #15
  %37 = getelementptr inbounds %"class.base::OnceCallback.414", %"class.base::OnceCallback.414"* %3, i64 0, i32 0, i32 0, i32 0
  %38 = bitcast %"class.base::OnceCallback.414"* %3 to i64*
  %39 = load i64, i64* %38, align 8
  %40 = bitcast %"class.base::OnceCallback.414"* %7 to i64*
  store i64 %39, i64* %40, align 8
  store %"class.base::internal::BindStateBase"* null, %"class.base::internal::BindStateBase"** %37, align 8
  %41 = getelementptr inbounds %"class.base::OnceCallback.414", %"class.base::OnceCallback.414"* %7, i64 0, i32 0
  %42 = inttoptr i64 %39 to %"class.base::internal::BindStateBase"*
  %43 = getelementptr inbounds %"class.base::internal::BindStateBase", %"class.base::internal::BindStateBase"* %42, i64 0, i32 1
  %44 = bitcast void ()** %43 to void (%"class.base::internal::BindStateBase"*, i32, i64)**
  %45 = load void (%"class.base::internal::BindStateBase"*, i32, i64)*, void (%"class.base::internal::BindStateBase"*, i32, i64)** %44, align 8
  tail call void %45(%"class.base::internal::BindStateBase"* %42, i32 13, i64 -1) #15
  call void @_ZN4base8internal12CallbackBaseD2Ev(%"class.base::internal::CallbackBase"* nonnull %41) #15
  call void @llvm.lifetime.end.p0i8(i64 8, i8* nonnull %36) #15
  br label %124

46:                                               ; preds = %33
  %47 = getelementptr inbounds %"class.storage::QuotaManagerImpl", %"class.storage::QuotaManagerImpl"* %0, i64 0, i32 6
  %48 = load i8, i8* %47, align 8, !range !15
  %49 = icmp eq i8 %48, 0
  br i1 %49, label %61, label %50

50:                                               ; preds = %46
  %51 = bitcast %"class.base::OnceCallback.414"* %6 to i8*
  call void @llvm.lifetime.start.p0i8(i64 8, i8* nonnull %51) #15
  %52 = getelementptr inbounds %"class.base::OnceCallback.414", %"class.base::OnceCallback.414"* %3, i64 0, i32 0, i32 0, i32 0
  %53 = bitcast %"class.base::OnceCallback.414"* %3 to i64*
  %54 = load i64, i64* %53, align 8
  %55 = bitcast %"class.base::OnceCallback.414"* %6 to i64*
  store i64 %54, i64* %55, align 8
  store %"class.base::internal::BindStateBase"* null, %"class.base::internal::BindStateBase"** %52, align 8
  %56 = getelementptr inbounds %"class.base::OnceCallback.414", %"class.base::OnceCallback.414"* %6, i64 0, i32 0
  %57 = inttoptr i64 %54 to %"class.base::internal::BindStateBase"*
  %58 = getelementptr inbounds %"class.base::internal::BindStateBase", %"class.base::internal::BindStateBase"* %57, i64 0, i32 1
  %59 = bitcast void ()** %58 to void (%"class.base::internal::BindStateBase"*, i32, i64)**
  %60 = load void (%"class.base::internal::BindStateBase"*, i32, i64)*, void (%"class.base::internal::BindStateBase"*, i32, i64)** %59, align 8
  tail call void %60(%"class.base::internal::BindStateBase"* %57, i32 15, i64 -1) #15
  call void @_ZN4base8internal12CallbackBaseD2Ev(%"class.base::internal::CallbackBase"* nonnull %56) #15
  call void @llvm.lifetime.end.p0i8(i64 8, i8* nonnull %51) #15
  br label %124

61:                                               ; preds = %46
  %62 = icmp slt i64 %2, 10737418240
  %63 = select i1 %62, i64 %2, i64 10737418240
  %64 = tail call i8* @_Znwm(i64 8) #16
  %65 = bitcast i8* %64 to i64*
  store i64 %63, i64* %65, align 8
  %66 = bitcast %"class.base::Location"* %9 to i8*
  call void @llvm.lifetime.start.p0i8(i64 32, i8* nonnull %66) #15
  call void @_ZN4base8Location7CurrentEPKcS2_i(%"class.base::Location"* nonnull sret %9, i8* getelementptr inbounds ([23 x i8], [23 x i8]* @.str.4, i64 0, i64 0), i8* getelementptr inbounds ([50 x i8], [50 x i8]* @.str.1, i64 0, i64 0), i32 1191) #15
  %67 = ptrtoint i8* %64 to i64
  %68 = call i8* @_Znwm(i64 72) #16, !noalias !159
  %69 = bitcast i8* %68 to %"class.base::internal::BindStateBase"*
  call void @_ZN4base8internal13BindStateBaseC2EPFvvEPFvPKS1_E(%"class.base::internal::BindStateBase"* nonnull %69, void ()* bitcast (i1 (%"class.base::internal::BindStateBase"*, %"class.storage::QuotaDatabase"*)* @_ZN4base8internal7InvokerINS0_9BindStateIPFbRKNSt3__112basic_stringIcNS3_11char_traitsIcEENS3_9allocatorIcEEEEPlPN7storage13QuotaDatabaseEEJS9_NS0_17UnretainedWrapperIlEEEEEFbSF_EE7RunOnceEPNS0_13BindStateBaseESF_ to void ()*), void (%"class.base::internal::BindStateBase"*)* nonnull @_ZN4base8internal9BindStateIPFbRKNSt3__112basic_stringIcNS2_11char_traitsIcEENS2_9allocatorIcEEEEPlPN7storage13QuotaDatabaseEEJS8_NS0_17UnretainedWrapperIlEEEE7DestroyEPKNS0_13BindStateBaseE) #15, !noalias !159
  %70 = getelementptr inbounds i8, i8* %68, i64 32
  %71 = bitcast i8* %70 to i64*
  store i64 ptrtoint (i1 (%"class.std::__1::basic_string"*, i64*, %"class.storage::QuotaDatabase"*)* @_ZN7storage12_GLOBAL__N_132SetPersistentHostQuotaOnDBThreadERKNSt3__112basic_stringIcNS1_11char_traitsIcEENS1_9allocatorIcEEEEPlPNS_13QuotaDatabaseE to i64), i64* %71, align 8, !noalias !159
  %72 = getelementptr inbounds i8, i8* %68, i64 40
  %73 = load i8, i8* %14, align 1, !noalias !159
  %74 = icmp slt i8 %73, 0
  br i1 %74, label %77, label %75

75:                                               ; preds = %61
  %76 = bitcast %"class.std::__1::basic_string"* %1 to i8*
  call void @llvm.memcpy.p0i8.p0i8.i64(i8* align 8 %72, i8* align 8 %76, i64 24, i1 false) #15, !noalias !159
  br label %82

77:                                               ; preds = %61
  %78 = bitcast i8* %72 to %"class.std::__1::basic_string"*
  %79 = getelementptr inbounds %"class.std::__1::basic_string", %"class.std::__1::basic_string"* %1, i64 0, i32 0, i32 0, i32 0, i32 0, i32 0, i32 0
  %80 = load i8*, i8** %79, align 8, !noalias !159
  %81 = load i64, i64* %17, align 8, !noalias !159
  call void @_ZNSt3__112basic_stringIcNS_11char_traitsIcEENS_9allocatorIcEEE25__init_copy_ctor_externalEPKcm(%"class.std::__1::basic_string"* %78, i8* %80, i64 %81) #15, !noalias !159
  br label %82

82:                                               ; preds = %75, %77
  %83 = getelementptr inbounds i8, i8* %68, i64 64
  %84 = bitcast i8* %83 to i64*
  store i64 %67, i64* %84, align 8, !noalias !159
  %85 = bitcast %"class.base::OnceCallback.415"* %10 to i8**
  store i8* %68, i8** %85, align 8, !alias.scope !159
  %86 = bitcast %"class.base::WeakPtr.363"* %12 to i8*
  call void @llvm.lifetime.start.p0i8(i64 16, i8* nonnull %86) #15
  %87 = bitcast %"class.base::internal::WeakReference"* %5 to i8*
  call void @llvm.lifetime.start.p0i8(i64 8, i8* nonnull %87) #15, !noalias !164
  %88 = getelementptr inbounds %"class.storage::QuotaManagerImpl", %"class.storage::QuotaManagerImpl"* %0, i64 0, i32 41, i32 0, i32 0
  call void @_ZNK4base8internal18WeakReferenceOwner6GetRefEv(%"class.base::internal::WeakReference"* nonnull sret %5, %"class.base::internal::WeakReferenceOwner"* %88) #15, !noalias !164
  %89 = getelementptr inbounds %"class.storage::QuotaManagerImpl", %"class.storage::QuotaManagerImpl"* %0, i64 0, i32 41, i32 0, i32 1
  %90 = load i64, i64* %89, align 8, !noalias !164
  %91 = getelementptr inbounds %"class.base::WeakPtr.363", %"class.base::WeakPtr.363"* %12, i64 0, i32 0
  call void @_ZN4base8internal11WeakPtrBaseC2ERKNS0_13WeakReferenceEm(%"class.base::internal::WeakPtrBase"* nonnull %91, %"class.base::internal::WeakReference"* nonnull dereferenceable(8) %5, i64 %90) #15
  call void @_ZN4base8internal13WeakReferenceD1Ev(%"class.base::internal::WeakReference"* nonnull %5) #15
  call void @llvm.lifetime.end.p0i8(i64 8, i8* nonnull %87) #15, !noalias !164
  %92 = call i8* @_Znwm(i64 104) #16, !noalias !167
  %93 = bitcast i8* %92 to %"class.base::internal::BindStateBase"*
  call void @_ZN4base8internal13BindStateBaseC2EPFvvEPFvPKS1_EPFbS5_NS1_21CancellationQueryModeEE(%"class.base::internal::BindStateBase"* nonnull %93, void ()* bitcast (void (%"class.base::internal::BindStateBase"*, i1)* @_ZN4base8internal7InvokerINS0_9BindStateIMN7storage16QuotaManagerImplEFvRKNSt3__112basic_stringIcNS5_11char_traitsIcEENS5_9allocatorIcEEEENS_12OnceCallbackIFvN5blink5mojom15QuotaStatusCodeElEEEPKlbEJNS_7WeakPtrIS4_EESB_SJ_NS0_12OwnedWrapperIlNS5_14default_deleteIlEEEEEEEFvbEE7RunOnceEPNS0_13BindStateBaseEb to void ()*), void (%"class.base::internal::BindStateBase"*)* nonnull @_ZN4base8internal9BindStateIMN7storage16QuotaManagerImplEFvRKNSt3__112basic_stringIcNS4_11char_traitsIcEENS4_9allocatorIcEEEENS_12OnceCallbackIFvN5blink5mojom15QuotaStatusCodeElEEEPKlbEJNS_7WeakPtrIS3_EESA_SI_NS0_12OwnedWrapperIlNS4_14default_deleteIlEEEEEE7DestroyEPKNS0_13BindStateBaseE, i1 (%"class.base::internal::BindStateBase"*, i32)* nonnull @_ZN4base8internal23QueryCancellationTraitsINS0_9BindStateIMN7storage16QuotaManagerImplEFvRKNSt3__112basic_stringIcNS5_11char_traitsIcEENS5_9allocatorIcEEEENS_12OnceCallbackIFvN5blink5mojom15QuotaStatusCodeElEEEPKlbEJNS_7WeakPtrIS4_EESB_SJ_NS0_12OwnedWrapperIlNS5_14default_deleteIlEEEEEEEEEbPKNS0_13BindStateBaseENSV_21CancellationQueryModeE) #15, !noalias !167
  %94 = getelementptr inbounds i8, i8* %92, i64 32
  %95 = bitcast i8* %94 to <2 x i64>*
  store <2 x i64> <i64 ptrtoint (void (%"class.storage::QuotaManagerImpl"*, %"class.std::__1::basic_string"*, %"class.base::OnceCallback.414"*, i64*, i1)* @_ZN7storage16QuotaManagerImpl25DidSetPersistentHostQuotaERKNSt3__112basic_stringIcNS1_11char_traitsIcEENS1_9allocatorIcEEEEN4base12OnceCallbackIFvN5blink5mojom15QuotaStatusCodeElEEEPKlb to i64), i64 0>, <2 x i64>* %95, align 8, !noalias !167
  %96 = getelementptr inbounds i8, i8* %92, i64 48
  %97 = bitcast i8* %96 to %"class.base::internal::WeakReference"*
  %98 = getelementptr inbounds %"class.base::WeakPtr.363", %"class.base::WeakPtr.363"* %12, i64 0, i32 0, i32 0
  call void @_ZN4base8internal13WeakReferenceC1EOS1_(%"class.base::internal::WeakReference"* %97, %"class.base::internal::WeakReference"* nonnull dereferenceable(8) %98) #15, !noalias !167
  %99 = getelementptr inbounds i8, i8* %92, i64 56
  %100 = bitcast i8* %99 to i64*
  %101 = getelementptr inbounds %"class.base::WeakPtr.363", %"class.base::WeakPtr.363"* %12, i64 0, i32 0, i32 1
  %102 = load i64, i64* %101, align 8, !noalias !167
  store i64 %102, i64* %100, align 8, !noalias !167
  %103 = getelementptr inbounds i8, i8* %92, i64 64
  %104 = load i8, i8* %14, align 1, !noalias !167
  %105 = icmp slt i8 %104, 0
  br i1 %105, label %108, label %106

106:                                              ; preds = %82
  %107 = bitcast %"class.std::__1::basic_string"* %1 to i8*
  call void @llvm.memcpy.p0i8.p0i8.i64(i8* align 8 %103, i8* align 8 %107, i64 24, i1 false) #15, !noalias !167
  br label %113

108:                                              ; preds = %82
  %109 = bitcast i8* %103 to %"class.std::__1::basic_string"*
  %110 = getelementptr inbounds %"class.std::__1::basic_string", %"class.std::__1::basic_string"* %1, i64 0, i32 0, i32 0, i32 0, i32 0, i32 0, i32 0
  %111 = load i8*, i8** %110, align 8, !noalias !167
  %112 = load i64, i64* %17, align 8, !noalias !167
  call void @_ZNSt3__112basic_stringIcNS_11char_traitsIcEENS_9allocatorIcEEE25__init_copy_ctor_externalEPKcm(%"class.std::__1::basic_string"* %109, i8* %111, i64 %112) #15, !noalias !167
  br label %113

113:                                              ; preds = %108, %106
  %114 = getelementptr inbounds i8, i8* %92, i64 88
  %115 = getelementptr inbounds %"class.base::OnceCallback.414", %"class.base::OnceCallback.414"* %3, i64 0, i32 0, i32 0, i32 0
  %116 = bitcast %"class.base::OnceCallback.414"* %3 to i64*
  %117 = load i64, i64* %116, align 8, !noalias !167
  %118 = bitcast i8* %114 to i64*
  store i64 %117, i64* %118, align 8, !noalias !167
  store %"class.base::internal::BindStateBase"* null, %"class.base::internal::BindStateBase"** %115, align 8, !noalias !167
  %119 = getelementptr inbounds i8, i8* %92, i64 96
  %120 = bitcast i8* %119 to i64*
  store i64 %67, i64* %120, align 8, !noalias !167
  %121 = bitcast %"class.base::OnceCallback.416"* %11 to i8**
  store i8* %92, i8** %121, align 8, !alias.scope !167
  call void @_ZN7storage16QuotaManagerImpl37PostTaskAndReplyWithResultForDBThreadERKN4base8LocationENS1_12OnceCallbackIFbPNS_13QuotaDatabaseEEEENS5_IFvbEEE(%"class.storage::QuotaManagerImpl"* %0, %"class.base::Location"* nonnull dereferenceable(32) %9, %"class.base::OnceCallback.415"* nonnull %10, %"class.base::OnceCallback.416"* nonnull %11)
  %122 = getelementptr inbounds %"class.base::OnceCallback.416", %"class.base::OnceCallback.416"* %11, i64 0, i32 0
  call void @_ZN4base8internal12CallbackBaseD2Ev(%"class.base::internal::CallbackBase"* nonnull %122) #15
  call void @_ZN4base8internal11WeakPtrBaseD2Ev(%"class.base::internal::WeakPtrBase"* nonnull %91) #15
  call void @llvm.lifetime.end.p0i8(i64 16, i8* nonnull %86) #15
  %123 = getelementptr inbounds %"class.base::OnceCallback.415", %"class.base::OnceCallback.415"* %10, i64 0, i32 0
  call void @_ZN4base8internal12CallbackBaseD2Ev(%"class.base::internal::CallbackBase"* nonnull %123) #15
  call void @llvm.lifetime.end.p0i8(i64 32, i8* nonnull %66) #15
  br label %124

124:                                              ; preds = %113, %50, %35, %22
  ret void
}

; Function Attrs: nounwind ssp uwtable
define internal zeroext i1 @_ZN7storage12_GLOBAL__N_132SetPersistentHostQuotaOnDBThreadERKNSt3__112basic_stringIcNS1_11char_traitsIcEENS1_9allocatorIcEEEEPlPNS_13QuotaDatabaseE(%"class.std::__1::basic_string"* dereferenceable(24), i64* nocapture, %"class.storage::QuotaDatabase"*) #0 {
  %4 = load i64, i64* %1, align 8
  %5 = tail call zeroext i1 @_ZN7storage13QuotaDatabase12SetHostQuotaERKNSt3__112basic_stringIcNS1_11char_traitsIcEENS1_9allocatorIcEEEEN5blink5mojom11StorageTypeEl(%"class.storage::QuotaDatabase"* %2, %"class.std::__1::basic_string"* dereferenceable(24) %0, i32 1, i64 %4) #15
  br i1 %5, label %7, label %6

6:                                                ; preds = %3
  store i64 0, i64* %1, align 8
  br label %7

7:                                                ; preds = %3, %6
  %8 = phi i1 [ false, %6 ], [ true, %3 ]
  ret i1 %8
}

; Function Attrs: nounwind ssp uwtable
define hidden void @_ZN7storage16QuotaManagerImpl25DidSetPersistentHostQuotaERKNSt3__112basic_stringIcNS1_11char_traitsIcEENS1_9allocatorIcEEEEN4base12OnceCallbackIFvN5blink5mojom15QuotaStatusCodeElEEEPKlb(%"class.storage::QuotaManagerImpl"* nocapture, %"class.std::__1::basic_string"* nocapture readnone dereferenceable(24), %"class.base::OnceCallback.414"* nocapture, i64* nocapture readonly, i1 zeroext) #0 align 2 {
  %6 = alloca %"class.base::OnceCallback.414", align 8
  %7 = xor i1 %4, true
  %8 = getelementptr inbounds %"class.storage::QuotaManagerImpl", %"class.storage::QuotaManagerImpl"* %0, i64 0, i32 6
  %9 = zext i1 %7 to i8
  store i8 %9, i8* %8, align 8
  %10 = select i1 %4, i32 0, i32 15
  %11 = load i64, i64* %3, align 8
  %12 = bitcast %"class.base::OnceCallback.414"* %6 to i8*
  call void @llvm.lifetime.start.p0i8(i64 8, i8* nonnull %12) #15
  %13 = getelementptr inbounds %"class.base::OnceCallback.414", %"class.base::OnceCallback.414"* %2, i64 0, i32 0, i32 0, i32 0
  %14 = bitcast %"class.base::OnceCallback.414"* %2 to i64*
  %15 = load i64, i64* %14, align 8
  %16 = bitcast %"class.base::OnceCallback.414"* %6 to i64*
  store i64 %15, i64* %16, align 8
  store %"class.base::internal::BindStateBase"* null, %"class.base::internal::BindStateBase"** %13, align 8
  %17 = getelementptr inbounds %"class.base::OnceCallback.414", %"class.base::OnceCallback.414"* %6, i64 0, i32 0
  %18 = inttoptr i64 %15 to %"class.base::internal::BindStateBase"*
  %19 = getelementptr inbounds %"class.base::internal::BindStateBase", %"class.base::internal::BindStateBase"* %18, i64 0, i32 1
  %20 = bitcast void ()** %19 to void (%"class.base::internal::BindStateBase"*, i32, i64)**
  %21 = load void (%"class.base::internal::BindStateBase"*, i32, i64)*, void (%"class.base::internal::BindStateBase"*, i32, i64)** %20, align 8
  tail call void %21(%"class.base::internal::BindStateBase"* %18, i32 %10, i64 %11) #15
  call void @_ZN4base8internal12CallbackBaseD2Ev(%"class.base::internal::CallbackBase"* nonnull %17) #15
  call void @llvm.lifetime.end.p0i8(i64 8, i8* nonnull %12) #15
  ret void
}

; Function Attrs: nounwind ssp uwtable
define hidden void @_ZN7storage16QuotaManagerImpl14GetGlobalUsageEN5blink5mojom11StorageTypeEN4base12OnceCallbackIFvllEEE(%"class.storage::QuotaManagerImpl"*, i32, %"class.base::OnceCallback.67"* nocapture) local_unnamed_addr #0 align 2 {
  %4 = alloca %"class.base::OnceCallback.67", align 8
  tail call void @_ZN7storage16QuotaManagerImpl14LazyInitializeEv(%"class.storage::QuotaManagerImpl"* %0)
  switch i32 %1, label %14 [
    i32 0, label %5
    i32 1, label %7
    i32 2, label %9
  ]

5:                                                ; preds = %3
  %6 = getelementptr inbounds %"class.storage::QuotaManagerImpl", %"class.storage::QuotaManagerImpl"* %0, i64 0, i32 29, i32 0, i32 0, i32 0
  br label %11

7:                                                ; preds = %3
  %8 = getelementptr inbounds %"class.storage::QuotaManagerImpl", %"class.storage::QuotaManagerImpl"* %0, i64 0, i32 30, i32 0, i32 0, i32 0
  br label %11

9:                                                ; preds = %3
  %10 = getelementptr inbounds %"class.storage::QuotaManagerImpl", %"class.storage::QuotaManagerImpl"* %0, i64 0, i32 31, i32 0, i32 0, i32 0
  br label %11

11:                                               ; preds = %9, %7, %5
  %12 = phi %"class.storage::UsageTracker"** [ %6, %5 ], [ %8, %7 ], [ %10, %9 ]
  %13 = load %"class.storage::UsageTracker"*, %"class.storage::UsageTracker"** %12, align 8
  br label %14

14:                                               ; preds = %11, %3
  %15 = phi %"class.storage::UsageTracker"* [ null, %3 ], [ %13, %11 ]
  %16 = getelementptr inbounds %"class.base::OnceCallback.67", %"class.base::OnceCallback.67"* %2, i64 0, i32 0, i32 0, i32 0
  %17 = bitcast %"class.base::OnceCallback.67"* %2 to i64*
  %18 = load i64, i64* %17, align 8
  %19 = bitcast %"class.base::OnceCallback.67"* %4 to i64*
  store i64 %18, i64* %19, align 8
  store %"class.base::internal::BindStateBase"* null, %"class.base::internal::BindStateBase"** %16, align 8
  call void @_ZN7storage12UsageTracker14GetGlobalUsageEN4base12OnceCallbackIFvllEEE(%"class.storage::UsageTracker"* %15, %"class.base::OnceCallback.67"* nonnull %4) #15
  %20 = getelementptr inbounds %"class.base::OnceCallback.67", %"class.base::OnceCallback.67"* %4, i64 0, i32 0
  call void @_ZN4base8internal12CallbackBaseD2Ev(%"class.base::internal::CallbackBase"* nonnull %20) #15
  ret void
}

declare void @_ZN7storage12UsageTracker14GetGlobalUsageEN4base12OnceCallbackIFvllEEE(%"class.storage::UsageTracker"*, %"class.base::OnceCallback.67"*) local_unnamed_addr #1

; Function Attrs: nounwind ssp uwtable
define hidden void @_ZN7storage16QuotaManagerImpl25GetHostUsageWithBreakdownERKNSt3__112basic_stringIcNS1_11char_traitsIcEENS1_9allocatorIcEEEEN5blink5mojom11StorageTypeEN4base12OnceCallbackIFvlN4mojo9StructPtrINSB_14UsageBreakdownEEEEEE(%"class.storage::QuotaManagerImpl"*, %"class.std::__1::basic_string"* dereferenceable(24), i32, %"class.base::OnceCallback.423"* nocapture) local_unnamed_addr #0 align 2 {
  %5 = alloca %"class.base::OnceCallback.423", align 8
  tail call void @_ZN7storage16QuotaManagerImpl14LazyInitializeEv(%"class.storage::QuotaManagerImpl"* %0)
  switch i32 %2, label %15 [
    i32 0, label %6
    i32 1, label %8
    i32 2, label %10
  ]

6:                                                ; preds = %4
  %7 = getelementptr inbounds %"class.storage::QuotaManagerImpl", %"class.storage::QuotaManagerImpl"* %0, i64 0, i32 29, i32 0, i32 0, i32 0
  br label %12

8:                                                ; preds = %4
  %9 = getelementptr inbounds %"class.storage::QuotaManagerImpl", %"class.storage::QuotaManagerImpl"* %0, i64 0, i32 30, i32 0, i32 0, i32 0
  br label %12

10:                                               ; preds = %4
  %11 = getelementptr inbounds %"class.storage::QuotaManagerImpl", %"class.storage::QuotaManagerImpl"* %0, i64 0, i32 31, i32 0, i32 0, i32 0
  br label %12

12:                                               ; preds = %10, %8, %6
  %13 = phi %"class.storage::UsageTracker"** [ %7, %6 ], [ %9, %8 ], [ %11, %10 ]
  %14 = load %"class.storage::UsageTracker"*, %"class.storage::UsageTracker"** %13, align 8
  br label %15

15:                                               ; preds = %12, %4
  %16 = phi %"class.storage::UsageTracker"* [ null, %4 ], [ %14, %12 ]
  %17 = getelementptr inbounds %"class.base::OnceCallback.423", %"class.base::OnceCallback.423"* %3, i64 0, i32 0, i32 0, i32 0
  %18 = bitcast %"class.base::OnceCallback.423"* %3 to i64*
  %19 = load i64, i64* %18, align 8
  %20 = bitcast %"class.base::OnceCallback.423"* %5 to i64*
  store i64 %19, i64* %20, align 8
  store %"class.base::internal::BindStateBase"* null, %"class.base::internal::BindStateBase"** %17, align 8
  call void @_ZN7storage12UsageTracker25GetHostUsageWithBreakdownERKNSt3__112basic_stringIcNS1_11char_traitsIcEENS1_9allocatorIcEEEEN4base12OnceCallbackIFvlN4mojo9StructPtrIN5blink5mojom14UsageBreakdownEEEEEE(%"class.storage::UsageTracker"* %16, %"class.std::__1::basic_string"* dereferenceable(24) %1, %"class.base::OnceCallback.423"* nonnull %5) #15
  %21 = getelementptr inbounds %"class.base::OnceCallback.423", %"class.base::OnceCallback.423"* %5, i64 0, i32 0
  call void @_ZN4base8internal12CallbackBaseD2Ev(%"class.base::internal::CallbackBase"* nonnull %21) #15
  ret void
}

declare void @_ZN7storage12UsageTracker25GetHostUsageWithBreakdownERKNSt3__112basic_stringIcNS1_11char_traitsIcEENS1_9allocatorIcEEEEN4base12OnceCallbackIFvlN4mojo9StructPtrIN5blink5mojom14UsageBreakdownEEEEEE(%"class.storage::UsageTracker"*, %"class.std::__1::basic_string"* dereferenceable(24), %"class.base::OnceCallback.423"*) local_unnamed_addr #1

; Function Attrs: nounwind ssp uwtable
define hidden void @_ZN7storage16QuotaManagerImpl13GetStatisticsEv(%"class.std::__1::map.424"* noalias sret, %"class.storage::QuotaManagerImpl"* nocapture readonly) local_unnamed_addr #0 align 2 {
  %3 = alloca %"class.std::__1::tuple.780", align 8
  %4 = alloca %"class.std::__1::tuple.769", align 1
  %5 = alloca %"class.std::__1::map.433", align 8
  %6 = alloca %"class.std::__1::basic_string", align 8
  %7 = getelementptr inbounds %"class.std::__1::map.424", %"class.std::__1::map.424"* %0, i64 0, i32 0, i32 0
  %8 = getelementptr inbounds %"class.std::__1::map.424", %"class.std::__1::map.424"* %0, i64 0, i32 0, i32 1, i32 0, i32 0, i32 0
  %9 = getelementptr inbounds %"class.std::__1::map.424", %"class.std::__1::map.424"* %0, i64 0, i32 0, i32 1, i32 0, i32 0
  %10 = bitcast %"class.std::__1::__tree_node_base"** %8 to i8*
  tail call void @llvm.memset.p0i8.i64(i8* align 8 %10, i8 0, i64 16, i1 false) #15
  store %"class.std::__1::__tree_end_node"* %9, %"class.std::__1::__tree_end_node"** %7, align 8
  %11 = getelementptr inbounds %"class.storage::QuotaManagerImpl", %"class.storage::QuotaManagerImpl"* %1, i64 0, i32 32, i32 0, i32 0, i32 0
  %12 = load %"class.storage::QuotaTemporaryStorageEvictor"*, %"class.storage::QuotaTemporaryStorageEvictor"** %11, align 8
  %13 = icmp eq %"class.storage::QuotaTemporaryStorageEvictor"* %12, null
  br i1 %13, label %81, label %14

14:                                               ; preds = %2
  %15 = bitcast %"class.std::__1::map.433"* %5 to i8*
  call void @llvm.lifetime.start.p0i8(i64 24, i8* nonnull %15) #15
  %16 = getelementptr inbounds %"class.std::__1::map.433", %"class.std::__1::map.433"* %5, i64 0, i32 0, i32 0
  %17 = getelementptr inbounds %"class.std::__1::map.433", %"class.std::__1::map.433"* %5, i64 0, i32 0, i32 1, i32 0, i32 0, i32 0
  %18 = getelementptr inbounds %"class.std::__1::map.433", %"class.std::__1::map.433"* %5, i64 0, i32 0, i32 1, i32 0, i32 0
  %19 = bitcast %"class.std::__1::__tree_node_base"** %17 to i8*
  call void @llvm.memset.p0i8.i64(i8* align 8 %19, i8 0, i64 16, i1 false) #15
  store %"class.std::__1::__tree_end_node"* %18, %"class.std::__1::__tree_end_node"** %16, align 8
  call void @_ZN7storage28QuotaTemporaryStorageEvictor13GetStatisticsEPNSt3__13mapINS1_12basic_stringIcNS1_11char_traitsIcEENS1_9allocatorIcEEEElNS1_4lessIS8_EENS6_INS1_4pairIKS8_lEEEEEE(%"class.storage::QuotaTemporaryStorageEvictor"* nonnull %12, %"class.std::__1::map.433"* nonnull %5) #15
  %20 = load %"class.std::__1::__tree_end_node"*, %"class.std::__1::__tree_end_node"** %16, align 8
  %21 = icmp eq %"class.std::__1::__tree_end_node"* %20, %18
  br i1 %21, label %28, label %22

22:                                               ; preds = %14
  %23 = bitcast %"class.std::__1::basic_string"* %6 to i8*
  %24 = getelementptr inbounds %"class.std::__1::map.424", %"class.std::__1::map.424"* %0, i64 0, i32 0
  %25 = bitcast %"class.std::__1::tuple.780"* %3 to i8*
  %26 = bitcast %"class.std::__1::tuple.780"* %3 to %"class.std::__1::__tree_end_node"**
  %27 = getelementptr inbounds %"class.std::__1::tuple.769", %"class.std::__1::tuple.769"* %4, i64 0, i32 0
  br label %32

28:                                               ; preds = %78, %14
  %29 = getelementptr inbounds %"class.std::__1::map.433", %"class.std::__1::map.433"* %5, i64 0, i32 0
  %30 = bitcast %"class.std::__1::__tree_end_node"* %18 to %"class.std::__1::__tree_node.692"**
  %31 = load %"class.std::__1::__tree_node.692"*, %"class.std::__1::__tree_node.692"** %30, align 8
  call void @_ZNSt3__16__treeINS_12__value_typeINS_12basic_stringIcNS_11char_traitsIcEENS_9allocatorIcEEEElEENS_19__map_value_compareIS7_S8_NS_4lessIS7_EELb1EEENS5_IS8_EEE7destroyEPNS_11__tree_nodeIS8_PvEE(%"class.std::__1::__tree.434"* nonnull %29, %"class.std::__1::__tree_node.692"* %31) #15
  call void @llvm.lifetime.end.p0i8(i64 24, i8* nonnull %15) #15
  br label %81

32:                                               ; preds = %22, %78
  %33 = phi %"class.std::__1::__tree_end_node"* [ %20, %22 ], [ %79, %78 ]
  %34 = getelementptr inbounds %"class.std::__1::__tree_end_node", %"class.std::__1::__tree_end_node"* %33, i64 4
  call void @llvm.lifetime.start.p0i8(i64 24, i8* nonnull %23) #15
  %35 = getelementptr inbounds %"class.std::__1::__tree_end_node", %"class.std::__1::__tree_end_node"* %33, i64 7
  %36 = bitcast %"class.std::__1::__tree_end_node"* %35 to i64*
  %37 = load i64, i64* %36, align 8
  call void @_ZN4base14NumberToStringEl(%"class.std::__1::basic_string"* nonnull sret %6, i64 %37) #15
  %38 = bitcast %"class.std::__1::__tree_end_node"* %34 to %"class.std::__1::basic_string"*
  call void @llvm.lifetime.start.p0i8(i64 8, i8* nonnull %25) #15
  store %"class.std::__1::__tree_end_node"* %34, %"class.std::__1::__tree_end_node"** %26, align 8
  call void @llvm.lifetime.start.p0i8(i64 1, i8* nonnull %27) #15
  %39 = call { %"class.std::__1::__tree_end_node"*, i8 } @_ZNSt3__16__treeINS_12__value_typeINS_12basic_stringIcNS_11char_traitsIcEENS_9allocatorIcEEEES7_EENS_19__map_value_compareIS7_S8_NS_4lessIS7_EELb1EEENS5_IS8_EEE25__emplace_unique_key_argsIS7_JRKNS_21piecewise_construct_tENS_5tupleIJRKS7_EEENSJ_IJEEEEEENS_4pairINS_15__tree_iteratorIS8_PNS_11__tree_nodeIS8_PvEElEEbEERKT_DpOT0_(%"class.std::__1::__tree.425"* %24, %"class.std::__1::basic_string"* dereferenceable(24) %38, %"struct.std::__1::piecewise_construct_t"* nonnull dereferenceable(1) @_ZNSt3__1L19piecewise_constructE, %"class.std::__1::tuple.780"* nonnull dereferenceable(8) %3, %"class.std::__1::tuple.769"* nonnull dereferenceable(1) %4) #15
  %40 = extractvalue { %"class.std::__1::__tree_end_node"*, i8 } %39, 0
  %41 = getelementptr inbounds %"class.std::__1::__tree_end_node", %"class.std::__1::__tree_end_node"* %40, i64 7
  call void @llvm.lifetime.end.p0i8(i64 1, i8* nonnull %27) #15
  call void @llvm.lifetime.end.p0i8(i64 8, i8* nonnull %25) #15
  %42 = bitcast %"class.std::__1::__tree_end_node"* %41 to %"struct.std::__1::basic_string<char, std::__1::char_traits<char>, std::__1::allocator<char> >::__short"*
  %43 = getelementptr inbounds %"struct.std::__1::basic_string<char, std::__1::char_traits<char>, std::__1::allocator<char> >::__short", %"struct.std::__1::basic_string<char, std::__1::char_traits<char>, std::__1::allocator<char> >::__short"* %42, i64 0, i32 1, i32 0
  %44 = load i8, i8* %43, align 1
  %45 = icmp slt i8 %44, 0
  br i1 %45, label %46, label %49

46:                                               ; preds = %32
  %47 = bitcast %"class.std::__1::__tree_end_node"* %41 to i8**
  %48 = load i8*, i8** %47, align 8
  call void @_ZdlPv(i8* %48) #16
  br label %49

49:                                               ; preds = %46, %32
  %50 = bitcast %"class.std::__1::__tree_end_node"* %41 to i8*
  call void @llvm.memcpy.p0i8.p0i8.i64(i8* align 8 %50, i8* nonnull align 8 %23, i64 24, i1 false) #15
  call void @llvm.lifetime.end.p0i8(i64 24, i8* nonnull %23) #15
  %51 = getelementptr inbounds %"class.std::__1::__tree_end_node", %"class.std::__1::__tree_end_node"* %33, i64 1, i32 0
  %52 = load %"class.std::__1::__tree_node_base"*, %"class.std::__1::__tree_node_base"** %51, align 8
  %53 = icmp eq %"class.std::__1::__tree_node_base"* %52, null
  br i1 %53, label %54, label %62

54:                                               ; preds = %49
  %55 = bitcast %"class.std::__1::__tree_end_node"* %33 to %"class.std::__1::__tree_node_base"*
  %56 = getelementptr inbounds %"class.std::__1::__tree_end_node", %"class.std::__1::__tree_end_node"* %33, i64 2
  %57 = bitcast %"class.std::__1::__tree_end_node"* %56 to %"class.std::__1::__tree_end_node"**
  %58 = load %"class.std::__1::__tree_end_node"*, %"class.std::__1::__tree_end_node"** %57, align 8
  %59 = getelementptr inbounds %"class.std::__1::__tree_end_node", %"class.std::__1::__tree_end_node"* %58, i64 0, i32 0
  %60 = load %"class.std::__1::__tree_node_base"*, %"class.std::__1::__tree_node_base"** %59, align 8
  %61 = icmp eq %"class.std::__1::__tree_node_base"* %60, %55
  br i1 %61, label %78, label %69

62:                                               ; preds = %49, %62
  %63 = phi %"class.std::__1::__tree_node_base"* [ %65, %62 ], [ %52, %49 ]
  %64 = getelementptr inbounds %"class.std::__1::__tree_node_base", %"class.std::__1::__tree_node_base"* %63, i64 0, i32 0, i32 0
  %65 = load %"class.std::__1::__tree_node_base"*, %"class.std::__1::__tree_node_base"** %64, align 8
  %66 = icmp eq %"class.std::__1::__tree_node_base"* %65, null
  br i1 %66, label %67, label %62

67:                                               ; preds = %62
  %68 = getelementptr inbounds %"class.std::__1::__tree_node_base", %"class.std::__1::__tree_node_base"* %63, i64 0, i32 0
  br label %78

69:                                               ; preds = %54, %69
  %70 = phi %"class.std::__1::__tree_end_node"** [ %73, %69 ], [ %57, %54 ]
  %71 = bitcast %"class.std::__1::__tree_end_node"** %70 to %"class.std::__1::__tree_node_base"**
  %72 = load %"class.std::__1::__tree_node_base"*, %"class.std::__1::__tree_node_base"** %71, align 8
  %73 = getelementptr inbounds %"class.std::__1::__tree_node_base", %"class.std::__1::__tree_node_base"* %72, i64 0, i32 2
  %74 = load %"class.std::__1::__tree_end_node"*, %"class.std::__1::__tree_end_node"** %73, align 8
  %75 = getelementptr inbounds %"class.std::__1::__tree_end_node", %"class.std::__1::__tree_end_node"* %74, i64 0, i32 0
  %76 = load %"class.std::__1::__tree_node_base"*, %"class.std::__1::__tree_node_base"** %75, align 8
  %77 = icmp eq %"class.std::__1::__tree_node_base"* %76, %72
  br i1 %77, label %78, label %69

78:                                               ; preds = %69, %54, %67
  %79 = phi %"class.std::__1::__tree_end_node"* [ %68, %67 ], [ %58, %54 ], [ %74, %69 ]
  %80 = icmp eq %"class.std::__1::__tree_end_node"* %79, %18
  br i1 %80, label %28, label %32

81:                                               ; preds = %2, %28
  ret void
}

declare void @_ZN7storage28QuotaTemporaryStorageEvictor13GetStatisticsEPNSt3__13mapINS1_12basic_stringIcNS1_11char_traitsIcEENS1_9allocatorIcEEEElNS1_4lessIS8_EENS6_INS1_4pairIKS8_lEEEEEE(%"class.storage::QuotaTemporaryStorageEvictor"*, %"class.std::__1::map.433"*) local_unnamed_addr #1

declare void @_ZN4base14NumberToStringEl(%"class.std::__1::basic_string"* sret, i64) local_unnamed_addr #1

; Function Attrs: nounwind ssp uwtable
define hidden void @_ZN7storage16QuotaManagerImpl25GetOriginsModifiedBetweenEN5blink5mojom11StorageTypeEN4base4TimeES5_NS4_12OnceCallbackIFvRKNSt3__13setIN3url6OriginENS7_4lessISA_EENS7_9allocatorISA_EEEES3_EEE(%"class.storage::QuotaManagerImpl"*, i32, i64, i64, %"class.base::OnceCallback.443"* nocapture) unnamed_addr #0 align 2 {
  %6 = alloca %"class.base::internal::WeakReference", align 8
  %7 = alloca %"class.base::Location", align 8
  %8 = alloca %"class.base::OnceCallback.415", align 8
  %9 = alloca %"class.base::OnceCallback.416", align 8
  %10 = alloca %"class.base::WeakPtr.363", align 8
  tail call void @_ZN7storage16QuotaManagerImpl14LazyInitializeEv(%"class.storage::QuotaManagerImpl"* %0)
  %11 = tail call i8* @_Znwm(i64 24) #16
  %12 = getelementptr inbounds i8, i8* %11, i64 8
  tail call void @llvm.memset.p0i8.i64(i8* align 8 %12, i8 0, i64 16, i1 false) #15
  %13 = bitcast i8* %11 to i8**
  store i8* %12, i8** %13, align 8
  %14 = bitcast %"class.base::Location"* %7 to i8*
  call void @llvm.lifetime.start.p0i8(i64 32, i8* nonnull %14) #15
  call void @_ZN4base8Location7CurrentEPKcS2_i(%"class.base::Location"* nonnull sret %7, i8* getelementptr inbounds ([26 x i8], [26 x i8]* @.str.5, i64 0, i64 0), i8* getelementptr inbounds ([50 x i8], [50 x i8]* @.str.1, i64 0, i64 0), i32 1252) #15
  %15 = ptrtoint i8* %11 to i64
  %16 = call i8* @_Znwm(i64 80) #16, !noalias !172
  %17 = bitcast i8* %16 to %"class.base::internal::BindStateBase"*
  call void @_ZN4base8internal13BindStateBaseC2EPFvvEPFvPKS1_E(%"class.base::internal::BindStateBase"* nonnull %17, void ()* bitcast (i1 (%"class.base::internal::BindStateBase"*, %"class.storage::QuotaDatabase"*)* @_ZN4base8internal7InvokerINS0_9BindStateIMN7storage16QuotaManagerImpl22GetModifiedSinceHelperEFbN5blink5mojom11StorageTypeENS_4TimeES9_PNS3_13QuotaDatabaseEEJNS0_17UnretainedWrapperIS5_EES8_S9_S9_EEEFbSB_EE7RunOnceEPNS0_13BindStateBaseESB_ to void ()*), void (%"class.base::internal::BindStateBase"*)* nonnull @_ZN4base8internal9BindStateIMN7storage16QuotaManagerImpl22GetModifiedSinceHelperEFbN5blink5mojom11StorageTypeENS_4TimeES8_PNS2_13QuotaDatabaseEEJNS0_17UnretainedWrapperIS4_EES7_S8_S8_EE7DestroyEPKNS0_13BindStateBaseE) #15, !noalias !172
  %18 = getelementptr inbounds i8, i8* %16, i64 32
  %19 = bitcast i8* %18 to <2 x i64>*
  store <2 x i64> <i64 ptrtoint (i1 (%"class.storage::QuotaManagerImpl::GetModifiedSinceHelper"*, i32, i64, i64, %"class.storage::QuotaDatabase"*)* @_ZN7storage16QuotaManagerImpl22GetModifiedSinceHelper28GetModifiedBetweenOnDBThreadEN5blink5mojom11StorageTypeEN4base4TimeES6_PNS_13QuotaDatabaseE to i64), i64 0>, <2 x i64>* %19, align 8, !noalias !172
  %20 = getelementptr inbounds i8, i8* %16, i64 48
  %21 = bitcast i8* %20 to i64*
  store i64 %15, i64* %21, align 8, !noalias !172
  %22 = getelementptr inbounds i8, i8* %16, i64 56
  %23 = bitcast i8* %22 to i32*
  store i32 %1, i32* %23, align 4, !noalias !172
  %24 = getelementptr inbounds i8, i8* %16, i64 64
  %25 = bitcast i8* %24 to i64*
  store i64 %2, i64* %25, align 8, !noalias !172
  %26 = getelementptr inbounds i8, i8* %16, i64 72
  %27 = bitcast i8* %26 to i64*
  store i64 %3, i64* %27, align 8, !noalias !172
  %28 = bitcast %"class.base::OnceCallback.415"* %8 to i8**
  store i8* %16, i8** %28, align 8, !alias.scope !172
  %29 = bitcast %"class.base::WeakPtr.363"* %10 to i8*
  call void @llvm.lifetime.start.p0i8(i64 16, i8* nonnull %29) #15
  %30 = bitcast %"class.base::internal::WeakReference"* %6 to i8*
  call void @llvm.lifetime.start.p0i8(i64 8, i8* nonnull %30) #15, !noalias !177
  %31 = getelementptr inbounds %"class.storage::QuotaManagerImpl", %"class.storage::QuotaManagerImpl"* %0, i64 0, i32 41, i32 0, i32 0
  call void @_ZNK4base8internal18WeakReferenceOwner6GetRefEv(%"class.base::internal::WeakReference"* nonnull sret %6, %"class.base::internal::WeakReferenceOwner"* %31) #15, !noalias !177
  %32 = getelementptr inbounds %"class.storage::QuotaManagerImpl", %"class.storage::QuotaManagerImpl"* %0, i64 0, i32 41, i32 0, i32 1
  %33 = load i64, i64* %32, align 8, !noalias !177
  %34 = getelementptr inbounds %"class.base::WeakPtr.363", %"class.base::WeakPtr.363"* %10, i64 0, i32 0
  call void @_ZN4base8internal11WeakPtrBaseC2ERKNS0_13WeakReferenceEm(%"class.base::internal::WeakPtrBase"* nonnull %34, %"class.base::internal::WeakReference"* nonnull dereferenceable(8) %6, i64 %33) #15
  call void @_ZN4base8internal13WeakReferenceD1Ev(%"class.base::internal::WeakReference"* nonnull %6) #15
  call void @llvm.lifetime.end.p0i8(i64 8, i8* nonnull %30) #15, !noalias !177
  %35 = call i8* @_Znwm(i64 88) #16, !noalias !180
  %36 = bitcast i8* %35 to %"class.base::internal::BindStateBase"*
  call void @_ZN4base8internal13BindStateBaseC2EPFvvEPFvPKS1_E(%"class.base::internal::BindStateBase"* nonnull %36, void ()* bitcast (void (%"class.base::internal::BindStateBase"*, i1)* @_ZN4base8internal7InvokerINS0_9BindStateIMN7storage16QuotaManagerImpl22GetModifiedSinceHelperEFvRKNS_7WeakPtrIS4_EENS_12OnceCallbackIFvRKNSt3__13setIN3url6OriginENSB_4lessISE_EENSB_9allocatorISE_EEEEN5blink5mojom11StorageTypeEEEESO_bEJNS0_12OwnedWrapperIS5_NSB_14default_deleteIS5_EEEES7_SQ_SO_EEEFvbEE7RunOnceEPNS0_13BindStateBaseEb to void ()*), void (%"class.base::internal::BindStateBase"*)* nonnull @_ZN4base8internal9BindStateIMN7storage16QuotaManagerImpl22GetModifiedSinceHelperEFvRKNS_7WeakPtrIS3_EENS_12OnceCallbackIFvRKNSt3__13setIN3url6OriginENSA_4lessISD_EENSA_9allocatorISD_EEEEN5blink5mojom11StorageTypeEEEESN_bEJNS0_12OwnedWrapperIS4_NSA_14default_deleteIS4_EEEES6_SP_SN_EE7DestroyEPKNS0_13BindStateBaseE) #15, !noalias !180
  %37 = getelementptr inbounds i8, i8* %35, i64 32
  %38 = bitcast i8* %37 to <2 x i64>*
  store <2 x i64> <i64 ptrtoint (void (%"class.storage::QuotaManagerImpl::GetModifiedSinceHelper"*, %"class.base::WeakPtr.363"*, %"class.base::OnceCallback.443"*, i32, i1)* @_ZN7storage16QuotaManagerImpl22GetModifiedSinceHelper21DidGetModifiedBetweenERKN4base7WeakPtrIS0_EENS2_12OnceCallbackIFvRKNSt3__13setIN3url6OriginENS8_4lessISB_EENS8_9allocatorISB_EEEEN5blink5mojom11StorageTypeEEEESL_b to i64), i64 0>, <2 x i64>* %38, align 8, !noalias !180
  %39 = getelementptr inbounds i8, i8* %35, i64 48
  %40 = bitcast i8* %39 to i64*
  store i64 %15, i64* %40, align 8, !noalias !180
  %41 = getelementptr inbounds i8, i8* %35, i64 56
  %42 = bitcast i8* %41 to %"class.base::internal::WeakReference"*
  %43 = getelementptr inbounds %"class.base::WeakPtr.363", %"class.base::WeakPtr.363"* %10, i64 0, i32 0, i32 0
  call void @_ZN4base8internal13WeakReferenceC1EOS1_(%"class.base::internal::WeakReference"* %42, %"class.base::internal::WeakReference"* nonnull dereferenceable(8) %43) #15, !noalias !180
  %44 = getelementptr inbounds i8, i8* %35, i64 64
  %45 = bitcast i8* %44 to i64*
  %46 = getelementptr inbounds %"class.base::WeakPtr.363", %"class.base::WeakPtr.363"* %10, i64 0, i32 0, i32 1
  %47 = load i64, i64* %46, align 8, !noalias !180
  store i64 %47, i64* %45, align 8, !noalias !180
  %48 = getelementptr inbounds i8, i8* %35, i64 72
  %49 = getelementptr inbounds %"class.base::OnceCallback.443", %"class.base::OnceCallback.443"* %4, i64 0, i32 0, i32 0, i32 0
  %50 = bitcast %"class.base::OnceCallback.443"* %4 to i64*
  %51 = load i64, i64* %50, align 8, !noalias !180
  %52 = bitcast i8* %48 to i64*
  store i64 %51, i64* %52, align 8, !noalias !180
  store %"class.base::internal::BindStateBase"* null, %"class.base::internal::BindStateBase"** %49, align 8, !noalias !180
  %53 = getelementptr inbounds i8, i8* %35, i64 80
  %54 = bitcast i8* %53 to i32*
  store i32 %1, i32* %54, align 4, !noalias !180
  %55 = bitcast %"class.base::OnceCallback.416"* %9 to i8**
  store i8* %35, i8** %55, align 8, !alias.scope !180
  call void @_ZN7storage16QuotaManagerImpl37PostTaskAndReplyWithResultForDBThreadERKN4base8LocationENS1_12OnceCallbackIFbPNS_13QuotaDatabaseEEEENS5_IFvbEEE(%"class.storage::QuotaManagerImpl"* %0, %"class.base::Location"* nonnull dereferenceable(32) %7, %"class.base::OnceCallback.415"* nonnull %8, %"class.base::OnceCallback.416"* nonnull %9)
  %56 = getelementptr inbounds %"class.base::OnceCallback.416", %"class.base::OnceCallback.416"* %9, i64 0, i32 0
  call void @_ZN4base8internal12CallbackBaseD2Ev(%"class.base::internal::CallbackBase"* nonnull %56) #15
  call void @_ZN4base8internal11WeakPtrBaseD2Ev(%"class.base::internal::WeakPtrBase"* nonnull %34) #15
  call void @llvm.lifetime.end.p0i8(i64 16, i8* nonnull %29) #15
  %57 = getelementptr inbounds %"class.base::OnceCallback.415", %"class.base::OnceCallback.415"* %8, i64 0, i32 0
  call void @_ZN4base8internal12CallbackBaseD2Ev(%"class.base::internal::CallbackBase"* nonnull %57) #15
  call void @llvm.lifetime.end.p0i8(i64 32, i8* nonnull %14) #15
  ret void
}

; Function Attrs: nounwind ssp uwtable
define linkonce_odr hidden zeroext i1 @_ZN7storage16QuotaManagerImpl22GetModifiedSinceHelper28GetModifiedBetweenOnDBThreadEN5blink5mojom11StorageTypeEN4base4TimeES6_PNS_13QuotaDatabaseE(%"class.storage::QuotaManagerImpl::GetModifiedSinceHelper"*, i32, i64, i64, %"class.storage::QuotaDatabase"*) #0 comdat align 2 {
  %6 = getelementptr inbounds %"class.storage::QuotaManagerImpl::GetModifiedSinceHelper", %"class.storage::QuotaManagerImpl::GetModifiedSinceHelper"* %0, i64 0, i32 0
  %7 = tail call zeroext i1 @_ZN7storage13QuotaDatabase25GetOriginsModifiedBetweenEN5blink5mojom11StorageTypeEPNSt3__13setIN3url6OriginENS4_4lessIS7_EENS4_9allocatorIS7_EEEEN4base4TimeESF_(%"class.storage::QuotaDatabase"* %4, i32 %1, %"class.std::__1::set.74"* %6, i64 %2, i64 %3) #15
  ret i1 %7
}

; Function Attrs: nounwind ssp uwtable
define linkonce_odr hidden void @_ZN7storage16QuotaManagerImpl22GetModifiedSinceHelper21DidGetModifiedBetweenERKN4base7WeakPtrIS0_EENS2_12OnceCallbackIFvRKNSt3__13setIN3url6OriginENS8_4lessISB_EENS8_9allocatorISB_EEEEN5blink5mojom11StorageTypeEEEESL_b(%"class.storage::QuotaManagerImpl::GetModifiedSinceHelper"*, %"class.base::WeakPtr.363"* dereferenceable(16), %"class.base::OnceCallback.443"*, i32, i1 zeroext) #0 comdat align 2 {
  %6 = alloca %"class.logging::CheckError", align 8
  %7 = alloca %"class.base::OnceCallback.443", align 8
  %8 = alloca %"class.base::OnceCallback.443", align 8
  %9 = alloca %"class.std::__1::set.74", align 8
  %10 = getelementptr inbounds %"class.base::WeakPtr.363", %"class.base::WeakPtr.363"* %1, i64 0, i32 0, i32 0
  %11 = tail call zeroext i1 @_ZNK4base8internal13WeakReference7IsValidEv(%"class.base::internal::WeakReference"* %10) #15
  br i1 %11, label %12, label %17

12:                                               ; preds = %5
  %13 = getelementptr inbounds %"class.base::WeakPtr.363", %"class.base::WeakPtr.363"* %1, i64 0, i32 0, i32 1
  %14 = bitcast i64* %13 to %"class.storage::QuotaManagerImpl"**
  %15 = load %"class.storage::QuotaManagerImpl"*, %"class.storage::QuotaManagerImpl"** %14, align 8
  %16 = icmp eq %"class.storage::QuotaManagerImpl"* %15, null
  br i1 %16, label %17, label %36

17:                                               ; preds = %12, %5
  %18 = bitcast %"class.std::__1::set.74"* %9 to i8*
  call void @llvm.lifetime.start.p0i8(i64 24, i8* nonnull %18) #15
  %19 = getelementptr inbounds %"class.std::__1::set.74", %"class.std::__1::set.74"* %9, i64 0, i32 0, i32 1, i32 0, i32 0, i32 0
  %20 = getelementptr inbounds %"class.std::__1::set.74", %"class.std::__1::set.74"* %9, i64 0, i32 0, i32 1, i32 0, i32 0
  %21 = getelementptr inbounds %"class.std::__1::set.74", %"class.std::__1::set.74"* %9, i64 0, i32 0, i32 0
  %22 = bitcast %"class.std::__1::__tree_node_base"** %19 to i8*
  call void @llvm.memset.p0i8.i64(i8* align 8 %22, i8 0, i64 16, i1 false) #15
  store %"class.std::__1::__tree_end_node"* %20, %"class.std::__1::__tree_end_node"** %21, align 8
  %23 = bitcast %"class.base::OnceCallback.443"* %7 to i8*
  call void @llvm.lifetime.start.p0i8(i64 8, i8* nonnull %23) #15
  %24 = getelementptr inbounds %"class.base::OnceCallback.443", %"class.base::OnceCallback.443"* %2, i64 0, i32 0, i32 0, i32 0
  %25 = bitcast %"class.base::OnceCallback.443"* %2 to i64*
  %26 = load i64, i64* %25, align 8
  %27 = bitcast %"class.base::OnceCallback.443"* %7 to i64*
  store i64 %26, i64* %27, align 8
  store %"class.base::internal::BindStateBase"* null, %"class.base::internal::BindStateBase"** %24, align 8
  %28 = getelementptr inbounds %"class.base::OnceCallback.443", %"class.base::OnceCallback.443"* %7, i64 0, i32 0
  %29 = inttoptr i64 %26 to %"class.base::internal::BindStateBase"*
  %30 = getelementptr inbounds %"class.base::internal::BindStateBase", %"class.base::internal::BindStateBase"* %29, i64 0, i32 1
  %31 = bitcast void ()** %30 to void (%"class.base::internal::BindStateBase"*, %"class.std::__1::set.74"*, i32)**
  %32 = load void (%"class.base::internal::BindStateBase"*, %"class.std::__1::set.74"*, i32)*, void (%"class.base::internal::BindStateBase"*, %"class.std::__1::set.74"*, i32)** %31, align 8
  call void %32(%"class.base::internal::BindStateBase"* %29, %"class.std::__1::set.74"* nonnull dereferenceable(24) %9, i32 %3) #15
  call void @_ZN4base8internal12CallbackBaseD2Ev(%"class.base::internal::CallbackBase"* nonnull %28) #15
  call void @llvm.lifetime.end.p0i8(i64 8, i8* nonnull %23) #15
  %33 = getelementptr inbounds %"class.std::__1::set.74", %"class.std::__1::set.74"* %9, i64 0, i32 0
  %34 = bitcast %"class.std::__1::__tree_end_node"* %20 to %"class.std::__1::__tree_node"**
  %35 = load %"class.std::__1::__tree_node"*, %"class.std::__1::__tree_node"** %34, align 8
  call void @_ZNSt3__16__treeIN3url6OriginENS_4lessIS2_EENS_9allocatorIS2_EEE7destroyEPNS_11__tree_nodeIS2_PvEE(%"class.std::__1::__tree.75"* nonnull %33, %"class.std::__1::__tree_node"* %35) #15
  call void @llvm.lifetime.end.p0i8(i64 24, i8* nonnull %18) #15
  br label %59

36:                                               ; preds = %12
  %37 = tail call zeroext i1 @_ZNK4base8internal13WeakReference7IsValidEv(%"class.base::internal::WeakReference"* %10) #15
  br i1 %37, label %41, label %38

38:                                               ; preds = %36
  %39 = bitcast %"class.logging::CheckError"* %6 to i8*
  call void @llvm.lifetime.start.p0i8(i64 8, i8* nonnull %39) #15
  call void @_ZN7logging10CheckError5CheckEPKciS2_(%"class.logging::CheckError"* nonnull sret %6, i8* getelementptr inbounds ([29 x i8], [29 x i8]* @.str.31, i64 0, i64 0), i32 255, i8* getelementptr inbounds ([15 x i8], [15 x i8]* @.str.32, i64 0, i64 0)) #15
  %40 = call dereferenceable(160) %"class.std::__1::basic_ostream"* @_ZN7logging10CheckError6streamEv(%"class.logging::CheckError"* nonnull %6) #15
  call void @_ZN7logging10CheckErrorD1Ev(%"class.logging::CheckError"* nonnull %6) #15
  call void @llvm.lifetime.end.p0i8(i64 8, i8* nonnull %39) #15
  br label %41

41:                                               ; preds = %38, %36
  %42 = call zeroext i1 @_ZNK4base8internal13WeakReference7IsValidEv(%"class.base::internal::WeakReference"* %10) #15
  %43 = load %"class.storage::QuotaManagerImpl"*, %"class.storage::QuotaManagerImpl"** %14, align 8
  %44 = select i1 %42, %"class.storage::QuotaManagerImpl"* %43, %"class.storage::QuotaManagerImpl"* null
  %45 = xor i1 %4, true
  %46 = getelementptr inbounds %"class.storage::QuotaManagerImpl", %"class.storage::QuotaManagerImpl"* %44, i64 0, i32 6
  %47 = zext i1 %45 to i8
  store i8 %47, i8* %46, align 8
  %48 = getelementptr inbounds %"class.storage::QuotaManagerImpl::GetModifiedSinceHelper", %"class.storage::QuotaManagerImpl::GetModifiedSinceHelper"* %0, i64 0, i32 0
  %49 = bitcast %"class.base::OnceCallback.443"* %8 to i8*
  call void @llvm.lifetime.start.p0i8(i64 8, i8* nonnull %49) #15
  %50 = getelementptr inbounds %"class.base::OnceCallback.443", %"class.base::OnceCallback.443"* %2, i64 0, i32 0, i32 0, i32 0
  %51 = bitcast %"class.base::OnceCallback.443"* %2 to i64*
  %52 = load i64, i64* %51, align 8
  %53 = bitcast %"class.base::OnceCallback.443"* %8 to i64*
  store i64 %52, i64* %53, align 8
  store %"class.base::internal::BindStateBase"* null, %"class.base::internal::BindStateBase"** %50, align 8
  %54 = getelementptr inbounds %"class.base::OnceCallback.443", %"class.base::OnceCallback.443"* %8, i64 0, i32 0
  %55 = inttoptr i64 %52 to %"class.base::internal::BindStateBase"*
  %56 = getelementptr inbounds %"class.base::internal::BindStateBase", %"class.base::internal::BindStateBase"* %55, i64 0, i32 1
  %57 = bitcast void ()** %56 to void (%"class.base::internal::BindStateBase"*, %"class.std::__1::set.74"*, i32)**
  %58 = load void (%"class.base::internal::BindStateBase"*, %"class.std::__1::set.74"*, i32)*, void (%"class.base::internal::BindStateBase"*, %"class.std::__1::set.74"*, i32)** %57, align 8
  call void %58(%"class.base::internal::BindStateBase"* %55, %"class.std::__1::set.74"* dereferenceable(24) %48, i32 %3) #15
  call void @_ZN4base8internal12CallbackBaseD2Ev(%"class.base::internal::CallbackBase"* nonnull %54) #15
  call void @llvm.lifetime.end.p0i8(i64 8, i8* nonnull %49) #15
  br label %59

59:                                               ; preds = %41, %17
  ret void
}

; Function Attrs: nounwind ssp uwtable
define hidden zeroext i1 @_ZN7storage16QuotaManagerImpl17ResetUsageTrackerEN5blink5mojom11StorageTypeE(%"class.storage::QuotaManagerImpl"*, i32) local_unnamed_addr #0 align 2 {
  %3 = alloca %"class.base::flat_map.403", align 8
  %4 = alloca i32, align 4
  store i32 %1, i32* %4, align 4
  switch i32 %1, label %14 [
    i32 0, label %5
    i32 1, label %7
    i32 2, label %9
  ]

5:                                                ; preds = %2
  %6 = getelementptr inbounds %"class.storage::QuotaManagerImpl", %"class.storage::QuotaManagerImpl"* %0, i64 0, i32 29, i32 0, i32 0, i32 0
  br label %11

7:                                                ; preds = %2
  %8 = getelementptr inbounds %"class.storage::QuotaManagerImpl", %"class.storage::QuotaManagerImpl"* %0, i64 0, i32 30, i32 0, i32 0, i32 0
  br label %11

9:                                                ; preds = %2
  %10 = getelementptr inbounds %"class.storage::QuotaManagerImpl", %"class.storage::QuotaManagerImpl"* %0, i64 0, i32 31, i32 0, i32 0, i32 0
  br label %11

11:                                               ; preds = %9, %7, %5
  %12 = phi %"class.storage::UsageTracker"** [ %6, %5 ], [ %8, %7 ], [ %10, %9 ]
  %13 = load %"class.storage::UsageTracker"*, %"class.storage::UsageTracker"** %12, align 8
  br label %14

14:                                               ; preds = %11, %2
  %15 = phi %"class.storage::UsageTracker"* [ null, %2 ], [ %13, %11 ]
  %16 = getelementptr inbounds %"class.storage::UsageTracker", %"class.storage::UsageTracker"* %15, i64 0, i32 4, i32 0, i32 0
  %17 = load %"class.base::OnceCallback.67"*, %"class.base::OnceCallback.67"** %16, align 8
  %18 = getelementptr inbounds %"class.storage::UsageTracker", %"class.storage::UsageTracker"* %15, i64 0, i32 4, i32 0, i32 1
  %19 = load %"class.base::OnceCallback.67"*, %"class.base::OnceCallback.67"** %18, align 8
  %20 = icmp eq %"class.base::OnceCallback.67"* %17, %19
  br i1 %20, label %21, label %126

21:                                               ; preds = %14
  %22 = getelementptr inbounds %"class.storage::UsageTracker", %"class.storage::UsageTracker"* %15, i64 0, i32 5, i32 0, i32 2, i32 0, i32 0
  %23 = load i64, i64* %22, align 8
  %24 = icmp eq i64 %23, 0
  br i1 %24, label %25, label %126

25:                                               ; preds = %21
  %26 = getelementptr inbounds %"class.storage::QuotaManagerImpl", %"class.storage::QuotaManagerImpl"* %0, i64 0, i32 28
  %27 = getelementptr inbounds %"class.base::flat_map", %"class.base::flat_map"* %26, i64 0, i32 0, i32 0, i32 0, i32 0
  %28 = load %"struct.std::__1::pair.276"*, %"struct.std::__1::pair.276"** %27, align 8
  %29 = getelementptr inbounds %"class.storage::QuotaManagerImpl", %"class.storage::QuotaManagerImpl"* %0, i64 0, i32 28, i32 0, i32 0, i32 0, i32 1
  %30 = bitcast %"struct.std::__1::pair.276"** %29 to i64*
  %31 = load i64, i64* %30, align 8
  %32 = ptrtoint %"struct.std::__1::pair.276"* %28 to i64
  %33 = sub i64 %31, %32
  %34 = icmp eq i64 %33, 0
  %35 = inttoptr i64 %31 to %"struct.std::__1::pair.276"*
  br i1 %34, label %52, label %36

36:                                               ; preds = %25
  %37 = ashr exact i64 %33, 5
  br label %38

38:                                               ; preds = %38, %36
  %39 = phi %"struct.std::__1::pair.276"* [ %28, %36 ], [ %50, %38 ]
  %40 = phi i64 [ %37, %36 ], [ %49, %38 ]
  %41 = lshr i64 %40, 1
  %42 = getelementptr inbounds %"struct.std::__1::pair.276", %"struct.std::__1::pair.276"* %39, i64 %41
  %43 = getelementptr inbounds %"struct.std::__1::pair.276", %"struct.std::__1::pair.276"* %42, i64 0, i32 0
  %44 = load i32, i32* %43, align 4
  %45 = icmp slt i32 %44, %1
  %46 = getelementptr inbounds %"struct.std::__1::pair.276", %"struct.std::__1::pair.276"* %42, i64 1
  %47 = xor i64 %41, -1
  %48 = add i64 %40, %47
  %49 = select i1 %45, i64 %48, i64 %41
  %50 = select i1 %45, %"struct.std::__1::pair.276"* %46, %"struct.std::__1::pair.276"* %39
  %51 = icmp eq i64 %49, 0
  br i1 %51, label %52, label %38

52:                                               ; preds = %38, %25
  %53 = phi %"struct.std::__1::pair.276"* [ %28, %25 ], [ %50, %38 ]
  %54 = icmp eq %"struct.std::__1::pair.276"* %53, %35
  br i1 %54, label %59, label %55

55:                                               ; preds = %52
  %56 = getelementptr inbounds %"struct.std::__1::pair.276", %"struct.std::__1::pair.276"* %53, i64 0, i32 0
  %57 = load i32, i32* %56, align 4
  %58 = icmp sgt i32 %57, %1
  br i1 %58, label %59, label %73

59:                                               ; preds = %55, %52
  %60 = bitcast %"class.base::flat_map.403"* %3 to i8*
  call void @llvm.lifetime.start.p0i8(i64 24, i8* nonnull %60) #15
  %61 = getelementptr inbounds %"class.base::flat_map", %"class.base::flat_map"* %26, i64 0, i32 0, i32 0
  call void @llvm.memset.p0i8.i64(i8* nonnull align 8 %60, i8 0, i64 24, i1 false) #15
  %62 = call %"struct.std::__1::pair.276"* @_ZNSt3__16vectorINS_4pairIN5blink5mojom11StorageTypeEN4base8flat_mapIPN7storage11QuotaClientENS7_15QuotaClientTypeENS_4lessIvEENS0_INS1_IS9_SA_EENS_9allocatorISD_EEEEEEEENSE_ISI_EEE7emplaceIJRKS4_SH_EEENS_11__wrap_iterIPSI_EENSO_IPKSI_EEDpOT_(%"class.std::__1::vector.274"* %61, %"struct.std::__1::pair.276"* %53, i32* nonnull dereferenceable(4) %4, %"class.base::flat_map.403"* nonnull dereferenceable(24) %3) #15
  %63 = getelementptr inbounds %"class.base::flat_map.403", %"class.base::flat_map.403"* %3, i64 0, i32 0, i32 0, i32 0, i32 0
  %64 = load %"struct.std::__1::pair.407"*, %"struct.std::__1::pair.407"** %63, align 8
  %65 = icmp eq %"struct.std::__1::pair.407"* %64, null
  br i1 %65, label %71, label %66

66:                                               ; preds = %59
  %67 = ptrtoint %"struct.std::__1::pair.407"* %64 to i64
  %68 = getelementptr inbounds %"class.base::flat_map.403", %"class.base::flat_map.403"* %3, i64 0, i32 0, i32 0, i32 0, i32 1
  %69 = bitcast %"struct.std::__1::pair.407"** %68 to i64*
  store i64 %67, i64* %69, align 8
  %70 = bitcast %"struct.std::__1::pair.407"* %64 to i8*
  call void @_ZdlPv(i8* %70) #16
  br label %71

71:                                               ; preds = %66, %59
  call void @llvm.lifetime.end.p0i8(i64 24, i8* nonnull %60) #15
  %72 = load i32, i32* %4, align 4
  br label %73

73:                                               ; preds = %55, %71
  %74 = phi i32 [ %72, %71 ], [ %1, %55 ]
  %75 = phi %"struct.std::__1::pair.276"* [ %62, %71 ], [ %53, %55 ]
  %76 = getelementptr inbounds %"struct.std::__1::pair.276", %"struct.std::__1::pair.276"* %75, i64 0, i32 1
  %77 = getelementptr inbounds %"class.storage::QuotaManagerImpl", %"class.storage::QuotaManagerImpl"* %0, i64 0, i32 38, i32 0
  %78 = load %"class.storage::SpecialStoragePolicy"*, %"class.storage::SpecialStoragePolicy"** %77, align 8
  %79 = call i8* @_Znwm(i64 136) #16
  %80 = bitcast i8* %79 to %"class.storage::UsageTracker"*
  %81 = icmp eq %"class.storage::SpecialStoragePolicy"* %78, null
  br i1 %81, label %85, label %82

82:                                               ; preds = %73
  %83 = getelementptr inbounds %"class.storage::SpecialStoragePolicy", %"class.storage::SpecialStoragePolicy"* %78, i64 0, i32 1, i32 0, i32 0, i32 0, i32 0, i32 0, i32 0, i32 0, i32 0
  %84 = atomicrmw add i32* %83, i32 1 monotonic
  br label %85

85:                                               ; preds = %73, %82
  call void @_ZN7storage12UsageTrackerC1ERKN4base8flat_mapIPNS_11QuotaClientENS_15QuotaClientTypeENSt3__14lessIvEENS6_6vectorINS6_4pairIS4_S5_EENS6_9allocatorISB_EEEEEEN5blink5mojom11StorageTypeE13scoped_refptrINS_20SpecialStoragePolicyEE(%"class.storage::UsageTracker"* nonnull %80, %"class.base::flat_map.403"* dereferenceable(24) %76, i32 %74, %"class.storage::SpecialStoragePolicy"* %78) #15
  %86 = ptrtoint i8* %79 to i64
  %87 = load i32, i32* %4, align 4
  switch i32 %87, label %121 [
    i32 0, label %88
    i32 1, label %99
    i32 2, label %110
  ]

88:                                               ; preds = %85
  %89 = getelementptr inbounds %"class.storage::QuotaManagerImpl", %"class.storage::QuotaManagerImpl"* %0, i64 0, i32 29
  %90 = getelementptr inbounds %"class.std::__1::unique_ptr.282", %"class.std::__1::unique_ptr.282"* %89, i64 0, i32 0, i32 0, i32 0
  %91 = load %"class.storage::UsageTracker"*, %"class.storage::UsageTracker"** %90, align 8
  %92 = bitcast %"class.std::__1::unique_ptr.282"* %89 to i64*
  store i64 %86, i64* %92, align 8
  %93 = icmp eq %"class.storage::UsageTracker"* %91, null
  br i1 %93, label %126, label %94

94:                                               ; preds = %88
  %95 = bitcast %"class.storage::UsageTracker"* %91 to void (%"class.storage::UsageTracker"*)***
  %96 = load void (%"class.storage::UsageTracker"*)**, void (%"class.storage::UsageTracker"*)*** %95, align 8
  %97 = getelementptr inbounds void (%"class.storage::UsageTracker"*)*, void (%"class.storage::UsageTracker"*)** %96, i64 1
  %98 = load void (%"class.storage::UsageTracker"*)*, void (%"class.storage::UsageTracker"*)** %97, align 8
  call void %98(%"class.storage::UsageTracker"* nonnull %91) #15
  br label %126

99:                                               ; preds = %85
  %100 = getelementptr inbounds %"class.storage::QuotaManagerImpl", %"class.storage::QuotaManagerImpl"* %0, i64 0, i32 30
  %101 = getelementptr inbounds %"class.std::__1::unique_ptr.282", %"class.std::__1::unique_ptr.282"* %100, i64 0, i32 0, i32 0, i32 0
  %102 = load %"class.storage::UsageTracker"*, %"class.storage::UsageTracker"** %101, align 8
  %103 = bitcast %"class.std::__1::unique_ptr.282"* %100 to i64*
  store i64 %86, i64* %103, align 8
  %104 = icmp eq %"class.storage::UsageTracker"* %102, null
  br i1 %104, label %126, label %105

105:                                              ; preds = %99
  %106 = bitcast %"class.storage::UsageTracker"* %102 to void (%"class.storage::UsageTracker"*)***
  %107 = load void (%"class.storage::UsageTracker"*)**, void (%"class.storage::UsageTracker"*)*** %106, align 8
  %108 = getelementptr inbounds void (%"class.storage::UsageTracker"*)*, void (%"class.storage::UsageTracker"*)** %107, i64 1
  %109 = load void (%"class.storage::UsageTracker"*)*, void (%"class.storage::UsageTracker"*)** %108, align 8
  call void %109(%"class.storage::UsageTracker"* nonnull %102) #15
  br label %126

110:                                              ; preds = %85
  %111 = getelementptr inbounds %"class.storage::QuotaManagerImpl", %"class.storage::QuotaManagerImpl"* %0, i64 0, i32 31
  %112 = getelementptr inbounds %"class.std::__1::unique_ptr.282", %"class.std::__1::unique_ptr.282"* %111, i64 0, i32 0, i32 0, i32 0
  %113 = load %"class.storage::UsageTracker"*, %"class.storage::UsageTracker"** %112, align 8
  %114 = bitcast %"class.std::__1::unique_ptr.282"* %111 to i64*
  store i64 %86, i64* %114, align 8
  %115 = icmp eq %"class.storage::UsageTracker"* %113, null
  br i1 %115, label %126, label %116

116:                                              ; preds = %110
  %117 = bitcast %"class.storage::UsageTracker"* %113 to void (%"class.storage::UsageTracker"*)***
  %118 = load void (%"class.storage::UsageTracker"*)**, void (%"class.storage::UsageTracker"*)*** %117, align 8
  %119 = getelementptr inbounds void (%"class.storage::UsageTracker"*)*, void (%"class.storage::UsageTracker"*)** %118, i64 1
  %120 = load void (%"class.storage::UsageTracker"*)*, void (%"class.storage::UsageTracker"*)** %119, align 8
  call void %120(%"class.storage::UsageTracker"* nonnull %113) #15
  br label %126

121:                                              ; preds = %85
  %122 = bitcast i8* %79 to void (%"class.storage::UsageTracker"*)***
  %123 = load void (%"class.storage::UsageTracker"*)**, void (%"class.storage::UsageTracker"*)*** %122, align 8
  %124 = getelementptr inbounds void (%"class.storage::UsageTracker"*)*, void (%"class.storage::UsageTracker"*)** %123, i64 1
  %125 = load void (%"class.storage::UsageTracker"*)*, void (%"class.storage::UsageTracker"*)** %124, align 8
  call void %125(%"class.storage::UsageTracker"* nonnull %80) #15
  br label %126

126:                                              ; preds = %21, %116, %110, %105, %99, %94, %88, %14, %121
  %127 = phi i1 [ false, %21 ], [ true, %121 ], [ false, %14 ], [ true, %88 ], [ true, %94 ], [ true, %99 ], [ true, %105 ], [ true, %110 ], [ true, %116 ]
  ret i1 %127
}

; Function Attrs: nounwind ssp uwtable
define hidden void @_ZN7storage16QuotaManagerImplD2Ev(%"class.storage::QuotaManagerImpl"*) unnamed_addr #0 align 2 {
  %2 = alloca %"class.base::Location", align 8
  %3 = getelementptr inbounds %"class.storage::QuotaManagerImpl", %"class.storage::QuotaManagerImpl"* %0, i64 0, i32 0, i32 0
  store i32 (...)** bitcast (i8** getelementptr inbounds ({ [14 x i8*], [7 x i8*] }, { [14 x i8*], [7 x i8*] }* @_ZTVN7storage16QuotaManagerImplE, i64 0, inrange i32 0, i64 2) to i32 (...)**), i32 (...)*** %3, align 8
  %4 = getelementptr inbounds %"class.storage::QuotaManagerImpl", %"class.storage::QuotaManagerImpl"* %0, i64 0, i32 1, i32 0
  store i32 (...)** bitcast (i8** getelementptr inbounds ({ [14 x i8*], [7 x i8*] }, { [14 x i8*], [7 x i8*] }* @_ZTVN7storage16QuotaManagerImplE, i64 0, inrange i32 1, i64 2) to i32 (...)**), i32 (...)*** %4, align 8
  %5 = getelementptr inbounds %"class.storage::QuotaManagerImpl", %"class.storage::QuotaManagerImpl"* %0, i64 0, i32 5, i32 0
  %6 = load %"class.storage::QuotaManagerProxy"*, %"class.storage::QuotaManagerProxy"** %5, align 8
  tail call void @_ZN7storage17QuotaManagerProxy26InvalidateQuotaManagerImplEN4base7PassKeyINS_16QuotaManagerImplEEE(%"class.storage::QuotaManagerProxy"* %6) #15
  %7 = getelementptr inbounds %"class.storage::QuotaManagerImpl", %"class.storage::QuotaManagerImpl"* %0, i64 0, i32 27
  %8 = getelementptr inbounds %"class.std::__1::vector.265", %"class.std::__1::vector.265"* %7, i64 0, i32 0, i32 0
  %9 = load %class.scoped_refptr.267*, %class.scoped_refptr.267** %8, align 8
  %10 = getelementptr inbounds %"class.storage::QuotaManagerImpl", %"class.storage::QuotaManagerImpl"* %0, i64 0, i32 27, i32 0, i32 1
  %11 = load %class.scoped_refptr.267*, %class.scoped_refptr.267** %10, align 8
  %12 = icmp eq %class.scoped_refptr.267* %9, %11
  br i1 %12, label %13, label %17

13:                                               ; preds = %17, %1
  %14 = getelementptr inbounds %"class.storage::QuotaManagerImpl", %"class.storage::QuotaManagerImpl"* %0, i64 0, i32 11, i32 0, i32 0, i32 0
  %15 = load %"class.storage::QuotaDatabase"*, %"class.storage::QuotaDatabase"** %14, align 8
  %16 = icmp eq %"class.storage::QuotaDatabase"* %15, null
  br i1 %16, label %34, label %27

17:                                               ; preds = %1, %17
  %18 = phi %class.scoped_refptr.267* [ %25, %17 ], [ %9, %1 ]
  %19 = getelementptr inbounds %class.scoped_refptr.267, %class.scoped_refptr.267* %18, i64 0, i32 0
  %20 = load %"class.storage::QuotaClient"*, %"class.storage::QuotaClient"** %19, align 8
  %21 = bitcast %"class.storage::QuotaClient"* %20 to void (%"class.storage::QuotaClient"*)***
  %22 = load void (%"class.storage::QuotaClient"*)**, void (%"class.storage::QuotaClient"*)*** %21, align 8
  %23 = getelementptr inbounds void (%"class.storage::QuotaClient"*)*, void (%"class.storage::QuotaClient"*)** %22, i64 7
  %24 = load void (%"class.storage::QuotaClient"*)*, void (%"class.storage::QuotaClient"*)** %23, align 8
  tail call void %24(%"class.storage::QuotaClient"* %20) #15
  %25 = getelementptr inbounds %class.scoped_refptr.267, %class.scoped_refptr.267* %18, i64 1
  %26 = icmp eq %class.scoped_refptr.267* %25, %11
  br i1 %26, label %13, label %17

27:                                               ; preds = %13
  %28 = getelementptr inbounds %"class.storage::QuotaManagerImpl", %"class.storage::QuotaManagerImpl"* %0, i64 0, i32 10, i32 0
  %29 = load %"class.base::SequencedTaskRunner"*, %"class.base::SequencedTaskRunner"** %28, align 8
  %30 = bitcast %"class.base::Location"* %2 to i8*
  call void @llvm.lifetime.start.p0i8(i64 32, i8* nonnull %30) #15
  call void @_ZN4base8Location7CurrentEPKcS2_i(%"class.base::Location"* nonnull sret %2, i8* getelementptr inbounds ([18 x i8], [18 x i8]* @.str.6, i64 0, i64 0), i8* getelementptr inbounds ([50 x i8], [50 x i8]* @.str.1, i64 0, i64 0), i32 1293) #15
  %31 = bitcast %"class.storage::QuotaDatabase"** %14 to i8**
  %32 = load i8*, i8** %31, align 8
  store %"class.storage::QuotaDatabase"* null, %"class.storage::QuotaDatabase"** %14, align 8
  %33 = call zeroext i1 @_ZN4base19SequencedTaskRunner27DeleteOrReleaseSoonInternalERKNS_8LocationEPFvPKvES5_(%"class.base::SequencedTaskRunner"* %29, %"class.base::Location"* nonnull dereferenceable(32) %2, void (i8*)* nonnull @_ZN4base12DeleteHelperIN7storage13QuotaDatabaseEE8DoDeleteEPKv, i8* %32) #15
  call void @llvm.lifetime.end.p0i8(i64 32, i8* nonnull %30) #15
  br label %34

34:                                               ; preds = %13, %27
  %35 = getelementptr inbounds %"class.storage::QuotaManagerImpl", %"class.storage::QuotaManagerImpl"* %0, i64 0, i32 41, i32 0
  call void @_ZN4base8internal18WeakPtrFactoryBaseD2Ev(%"class.base::internal::WeakPtrFactoryBase"* %35) #15
  %36 = getelementptr inbounds %"class.storage::QuotaManagerImpl", %"class.storage::QuotaManagerImpl"* %0, i64 0, i32 39
  call void @_ZN4base14RepeatingTimerD1Ev(%"class.base::RepeatingTimer"* %36) #15
  %37 = getelementptr inbounds %"class.storage::QuotaManagerImpl", %"class.storage::QuotaManagerImpl"* %0, i64 0, i32 38, i32 0
  %38 = load %"class.storage::SpecialStoragePolicy"*, %"class.storage::SpecialStoragePolicy"** %37, align 8
  %39 = icmp eq %"class.storage::SpecialStoragePolicy"* %38, null
  br i1 %39, label %52, label %40

40:                                               ; preds = %34
  %41 = getelementptr inbounds %"class.storage::SpecialStoragePolicy", %"class.storage::SpecialStoragePolicy"* %38, i64 0, i32 1
  %42 = getelementptr inbounds %"class.base::RefCountedThreadSafe.338", %"class.base::RefCountedThreadSafe.338"* %41, i64 0, i32 0, i32 0, i32 0, i32 0, i32 0, i32 0, i32 0, i32 0
  %43 = atomicrmw sub i32* %42, i32 1 acq_rel
  %44 = icmp eq i32 %43, 1
  br i1 %44, label %45, label %52

45:                                               ; preds = %40
  %46 = getelementptr inbounds %"class.base::RefCountedThreadSafe.338", %"class.base::RefCountedThreadSafe.338"* %41, i64 -2
  %47 = bitcast %"class.base::RefCountedThreadSafe.338"* %46 to %"class.storage::SpecialStoragePolicy"*
  %48 = bitcast %"class.base::RefCountedThreadSafe.338"* %46 to void (%"class.storage::SpecialStoragePolicy"*)***
  %49 = load void (%"class.storage::SpecialStoragePolicy"*)**, void (%"class.storage::SpecialStoragePolicy"*)*** %48, align 8
  %50 = getelementptr inbounds void (%"class.storage::SpecialStoragePolicy"*)*, void (%"class.storage::SpecialStoragePolicy"*)** %49, i64 8
  %51 = load void (%"class.storage::SpecialStoragePolicy"*)*, void (%"class.storage::SpecialStoragePolicy"*)** %50, align 8
  call void %51(%"class.storage::SpecialStoragePolicy"* nonnull %47) #15
  br label %52

52:                                               ; preds = %34, %40, %45
  %53 = getelementptr inbounds %"class.storage::QuotaManagerImpl", %"class.storage::QuotaManagerImpl"* %0, i64 0, i32 37, i32 0
  %54 = getelementptr inbounds %"class.storage::QuotaManagerImpl", %"class.storage::QuotaManagerImpl"* %0, i64 0, i32 37, i32 0, i32 1, i32 0, i32 0
  %55 = bitcast %"class.std::__1::__tree_end_node"* %54 to %"class.std::__1::__tree_node.668"**
  %56 = load %"class.std::__1::__tree_node.668"*, %"class.std::__1::__tree_node.668"** %55, align 8
  call void @_ZNSt3__16__treeINS_12__value_typeIN3url6OriginEiEENS_19__map_value_compareIS3_S4_NS_4lessIS3_EELb1EEENS_9allocatorIS4_EEE7destroyEPNS_11__tree_nodeIS4_PvEE(%"class.std::__1::__tree.329"* %53, %"class.std::__1::__tree_node.668"* %56) #15
  %57 = getelementptr inbounds %"class.storage::QuotaManagerImpl", %"class.storage::QuotaManagerImpl"* %0, i64 0, i32 36, i32 0
  %58 = getelementptr inbounds %"class.storage::QuotaManagerImpl", %"class.storage::QuotaManagerImpl"* %0, i64 0, i32 36, i32 0, i32 1, i32 0, i32 0
  %59 = bitcast %"class.std::__1::__tree_end_node"* %58 to %"class.std::__1::__tree_node.668"**
  %60 = load %"class.std::__1::__tree_node.668"*, %"class.std::__1::__tree_node.668"** %59, align 8
  call void @_ZNSt3__16__treeINS_12__value_typeIN3url6OriginEiEENS_19__map_value_compareIS3_S4_NS_4lessIS3_EELb1EEENS_9allocatorIS4_EEE7destroyEPNS_11__tree_nodeIS4_PvEE(%"class.std::__1::__tree.329"* %57, %"class.std::__1::__tree_node.668"* %60) #15
  %61 = getelementptr inbounds %"class.storage::QuotaManagerImpl", %"class.storage::QuotaManagerImpl"* %0, i64 0, i32 35, i32 0, i32 0
  %62 = getelementptr inbounds %"class.storage::QuotaManagerImpl", %"class.storage::QuotaManagerImpl"* %0, i64 0, i32 35, i32 0, i32 0, i32 1, i32 0, i32 0
  %63 = bitcast %"class.std::__1::__tree_end_node"* %62 to %"class.std::__1::__tree_node.608"**
  %64 = load %"class.std::__1::__tree_node.608"*, %"class.std::__1::__tree_node.608"** %63, align 8
  call void @_ZNSt3__16__treeINS_12__value_typeINS_12basic_stringIcNS_11char_traitsIcEENS_9allocatorIcEEEEN7storage13CallbackQueueIN4base12OnceCallbackIFvN5blink5mojom15QuotaStatusCodeElEEEJSE_lEEEEENS_19__map_value_compareIS7_SI_NS_4lessIS7_EELb1EEENS5_ISI_EEE7destroyEPNS_11__tree_nodeISI_PvEE(%"class.std::__1::__tree.320"* %61, %"class.std::__1::__tree_node.608"* %64) #15
  %65 = getelementptr inbounds %"class.storage::QuotaManagerImpl", %"class.storage::QuotaManagerImpl"* %0, i64 0, i32 33, i32 2, i32 0
  call void @_ZN4base8internal12CallbackBaseD2Ev(%"class.base::internal::CallbackBase"* %65) #15
  %66 = getelementptr inbounds %"class.storage::QuotaManagerImpl", %"class.storage::QuotaManagerImpl"* %0, i64 0, i32 33, i32 0
  call void @_ZN3url6OriginD1Ev(%"class.url::Origin"* %66) #15
  %67 = getelementptr inbounds %"class.storage::QuotaManagerImpl", %"class.storage::QuotaManagerImpl"* %0, i64 0, i32 32, i32 0, i32 0, i32 0
  %68 = load %"class.storage::QuotaTemporaryStorageEvictor"*, %"class.storage::QuotaTemporaryStorageEvictor"** %67, align 8
  store %"class.storage::QuotaTemporaryStorageEvictor"* null, %"class.storage::QuotaTemporaryStorageEvictor"** %67, align 8
  %69 = icmp eq %"class.storage::QuotaTemporaryStorageEvictor"* %68, null
  br i1 %69, label %72, label %70

70:                                               ; preds = %52
  call void @_ZN7storage28QuotaTemporaryStorageEvictorD1Ev(%"class.storage::QuotaTemporaryStorageEvictor"* nonnull %68) #15
  %71 = bitcast %"class.storage::QuotaTemporaryStorageEvictor"* %68 to i8*
  call void @_ZdlPv(i8* %71) #16
  br label %72

72:                                               ; preds = %52, %70
  %73 = getelementptr inbounds %"class.storage::QuotaManagerImpl", %"class.storage::QuotaManagerImpl"* %0, i64 0, i32 31, i32 0, i32 0, i32 0
  %74 = load %"class.storage::UsageTracker"*, %"class.storage::UsageTracker"** %73, align 8
  store %"class.storage::UsageTracker"* null, %"class.storage::UsageTracker"** %73, align 8
  %75 = icmp eq %"class.storage::UsageTracker"* %74, null
  br i1 %75, label %81, label %76

76:                                               ; preds = %72
  %77 = bitcast %"class.storage::UsageTracker"* %74 to void (%"class.storage::UsageTracker"*)***
  %78 = load void (%"class.storage::UsageTracker"*)**, void (%"class.storage::UsageTracker"*)*** %77, align 8
  %79 = getelementptr inbounds void (%"class.storage::UsageTracker"*)*, void (%"class.storage::UsageTracker"*)** %78, i64 1
  %80 = load void (%"class.storage::UsageTracker"*)*, void (%"class.storage::UsageTracker"*)** %79, align 8
  call void %80(%"class.storage::UsageTracker"* nonnull %74) #15
  br label %81

81:                                               ; preds = %72, %76
  %82 = getelementptr inbounds %"class.storage::QuotaManagerImpl", %"class.storage::QuotaManagerImpl"* %0, i64 0, i32 30, i32 0, i32 0, i32 0
  %83 = load %"class.storage::UsageTracker"*, %"class.storage::UsageTracker"** %82, align 8
  store %"class.storage::UsageTracker"* null, %"class.storage::UsageTracker"** %82, align 8
  %84 = icmp eq %"class.storage::UsageTracker"* %83, null
  br i1 %84, label %90, label %85

85:                                               ; preds = %81
  %86 = bitcast %"class.storage::UsageTracker"* %83 to void (%"class.storage::UsageTracker"*)***
  %87 = load void (%"class.storage::UsageTracker"*)**, void (%"class.storage::UsageTracker"*)*** %86, align 8
  %88 = getelementptr inbounds void (%"class.storage::UsageTracker"*)*, void (%"class.storage::UsageTracker"*)** %87, i64 1
  %89 = load void (%"class.storage::UsageTracker"*)*, void (%"class.storage::UsageTracker"*)** %88, align 8
  call void %89(%"class.storage::UsageTracker"* nonnull %83) #15
  br label %90

90:                                               ; preds = %81, %85
  %91 = getelementptr inbounds %"class.storage::QuotaManagerImpl", %"class.storage::QuotaManagerImpl"* %0, i64 0, i32 29, i32 0, i32 0, i32 0
  %92 = load %"class.storage::UsageTracker"*, %"class.storage::UsageTracker"** %91, align 8
  store %"class.storage::UsageTracker"* null, %"class.storage::UsageTracker"** %91, align 8
  %93 = icmp eq %"class.storage::UsageTracker"* %92, null
  br i1 %93, label %99, label %94

94:                                               ; preds = %90
  %95 = bitcast %"class.storage::UsageTracker"* %92 to void (%"class.storage::UsageTracker"*)***
  %96 = load void (%"class.storage::UsageTracker"*)**, void (%"class.storage::UsageTracker"*)*** %95, align 8
  %97 = getelementptr inbounds void (%"class.storage::UsageTracker"*)*, void (%"class.storage::UsageTracker"*)** %96, i64 1
  %98 = load void (%"class.storage::UsageTracker"*)*, void (%"class.storage::UsageTracker"*)** %97, align 8
  call void %98(%"class.storage::UsageTracker"* nonnull %92) #15
  br label %99

99:                                               ; preds = %90, %94
  %100 = getelementptr inbounds %"class.storage::QuotaManagerImpl", %"class.storage::QuotaManagerImpl"* %0, i64 0, i32 28, i32 0
  %101 = getelementptr inbounds %"class.base::internal::flat_tree", %"class.base::internal::flat_tree"* %100, i64 0, i32 0, i32 0, i32 0
  %102 = load %"struct.std::__1::pair.276"*, %"struct.std::__1::pair.276"** %101, align 8
  %103 = icmp eq %"struct.std::__1::pair.276"* %102, null
  br i1 %103, label %127, label %104

104:                                              ; preds = %99
  %105 = bitcast %"struct.std::__1::pair.276"* %102 to i8*
  %106 = getelementptr inbounds %"class.storage::QuotaManagerImpl", %"class.storage::QuotaManagerImpl"* %0, i64 0, i32 28, i32 0, i32 0, i32 0, i32 1
  %107 = load %"struct.std::__1::pair.276"*, %"struct.std::__1::pair.276"** %106, align 8
  %108 = icmp eq %"struct.std::__1::pair.276"* %107, %102
  br i1 %108, label %125, label %109

109:                                              ; preds = %104, %120
  %110 = phi %"struct.std::__1::pair.276"* [ %111, %120 ], [ %107, %104 ]
  %111 = getelementptr inbounds %"struct.std::__1::pair.276", %"struct.std::__1::pair.276"* %110, i64 -1
  %112 = getelementptr inbounds %"struct.std::__1::pair.276", %"struct.std::__1::pair.276"* %110, i64 -1, i32 1, i32 0, i32 0, i32 0, i32 0
  %113 = load %"struct.std::__1::pair.407"*, %"struct.std::__1::pair.407"** %112, align 8
  %114 = icmp eq %"struct.std::__1::pair.407"* %113, null
  br i1 %114, label %120, label %115

115:                                              ; preds = %109
  %116 = ptrtoint %"struct.std::__1::pair.407"* %113 to i64
  %117 = getelementptr inbounds %"struct.std::__1::pair.276", %"struct.std::__1::pair.276"* %110, i64 -1, i32 1, i32 0, i32 0, i32 0, i32 1
  %118 = bitcast %"struct.std::__1::pair.407"** %117 to i64*
  store i64 %116, i64* %118, align 8
  %119 = bitcast %"struct.std::__1::pair.407"* %113 to i8*
  call void @_ZdlPv(i8* %119) #16
  br label %120

120:                                              ; preds = %115, %109
  %121 = icmp eq %"struct.std::__1::pair.276"* %111, %102
  br i1 %121, label %122, label %109

122:                                              ; preds = %120
  %123 = bitcast %"class.base::internal::flat_tree"* %100 to i8**
  %124 = load i8*, i8** %123, align 8
  br label %125

125:                                              ; preds = %122, %104
  %126 = phi i8* [ %124, %122 ], [ %105, %104 ]
  store %"struct.std::__1::pair.276"* %102, %"struct.std::__1::pair.276"** %106, align 8
  call void @_ZdlPv(i8* %126) #16
  br label %127

127:                                              ; preds = %99, %125
  %128 = load %class.scoped_refptr.267*, %class.scoped_refptr.267** %8, align 8
  %129 = icmp eq %class.scoped_refptr.267* %128, null
  br i1 %129, label %159, label %130

130:                                              ; preds = %127
  %131 = bitcast %class.scoped_refptr.267* %128 to i8*
  %132 = load %class.scoped_refptr.267*, %class.scoped_refptr.267** %10, align 8
  %133 = icmp eq %class.scoped_refptr.267* %132, %128
  br i1 %133, label %157, label %134

134:                                              ; preds = %130, %152
  %135 = phi %class.scoped_refptr.267* [ %136, %152 ], [ %132, %130 ]
  %136 = getelementptr inbounds %class.scoped_refptr.267, %class.scoped_refptr.267* %135, i64 -1
  %137 = getelementptr inbounds %class.scoped_refptr.267, %class.scoped_refptr.267* %136, i64 0, i32 0
  %138 = load %"class.storage::QuotaClient"*, %"class.storage::QuotaClient"** %137, align 8
  %139 = icmp eq %"class.storage::QuotaClient"* %138, null
  br i1 %139, label %152, label %140

140:                                              ; preds = %134
  %141 = getelementptr inbounds %"class.storage::QuotaClient", %"class.storage::QuotaClient"* %138, i64 0, i32 1
  %142 = getelementptr inbounds %"class.base::RefCountedThreadSafe.268", %"class.base::RefCountedThreadSafe.268"* %141, i64 0, i32 0, i32 0, i32 0, i32 0, i32 0, i32 0, i32 0, i32 0
  %143 = atomicrmw sub i32* %142, i32 1 acq_rel
  %144 = icmp eq i32 %143, 1
  br i1 %144, label %145, label %152

145:                                              ; preds = %140
  %146 = getelementptr inbounds %"class.base::RefCountedThreadSafe.268", %"class.base::RefCountedThreadSafe.268"* %141, i64 -2
  %147 = bitcast %"class.base::RefCountedThreadSafe.268"* %146 to %"class.storage::QuotaClient"*
  %148 = bitcast %"class.base::RefCountedThreadSafe.268"* %146 to void (%"class.storage::QuotaClient"*)***
  %149 = load void (%"class.storage::QuotaClient"*)**, void (%"class.storage::QuotaClient"*)*** %148, align 8
  %150 = getelementptr inbounds void (%"class.storage::QuotaClient"*)*, void (%"class.storage::QuotaClient"*)** %149, i64 1
  %151 = load void (%"class.storage::QuotaClient"*)*, void (%"class.storage::QuotaClient"*)** %150, align 8
  call void %151(%"class.storage::QuotaClient"* nonnull %147) #15
  br label %152

152:                                              ; preds = %145, %140, %134
  %153 = icmp eq %class.scoped_refptr.267* %136, %128
  br i1 %153, label %154, label %134

154:                                              ; preds = %152
  %155 = bitcast %"class.std::__1::vector.265"* %7 to i8**
  %156 = load i8*, i8** %155, align 8
  br label %157

157:                                              ; preds = %154, %130
  %158 = phi i8* [ %156, %154 ], [ %131, %130 ]
  store %class.scoped_refptr.267* %128, %class.scoped_refptr.267** %10, align 8
  call void @_ZdlPv(i8* %158) #16
  br label %159

159:                                              ; preds = %127, %157
  %160 = getelementptr inbounds %"class.storage::QuotaManagerImpl", %"class.storage::QuotaManagerImpl"* %0, i64 0, i32 26
  %161 = getelementptr inbounds %"class.std::__1::vector.91", %"class.std::__1::vector.91"* %160, i64 0, i32 0, i32 0
  %162 = load %"class.mojo::Remote"*, %"class.mojo::Remote"** %161, align 8
  %163 = icmp eq %"class.mojo::Remote"* %162, null
  br i1 %163, label %188, label %164

164:                                              ; preds = %159
  %165 = bitcast %"class.mojo::Remote"* %162 to i8*
  %166 = getelementptr inbounds %"class.storage::QuotaManagerImpl", %"class.storage::QuotaManagerImpl"* %0, i64 0, i32 26, i32 0, i32 1
  %167 = load %"class.mojo::Remote"*, %"class.mojo::Remote"** %166, align 8
  %168 = icmp eq %"class.mojo::Remote"* %167, %162
  br i1 %168, label %186, label %169

169:                                              ; preds = %164, %180
  %170 = phi %"class.mojo::Remote"* [ %171, %180 ], [ %167, %164 ]
  %171 = getelementptr inbounds %"class.mojo::Remote", %"class.mojo::Remote"* %170, i64 -1
  %172 = getelementptr inbounds %"class.mojo::Remote", %"class.mojo::Remote"* %170, i64 -1, i32 0, i32 1, i32 0, i32 0, i32 0
  %173 = load %"class.storage::mojom::QuotaClientProxy"*, %"class.storage::mojom::QuotaClientProxy"** %172, align 8
  store %"class.storage::mojom::QuotaClientProxy"* null, %"class.storage::mojom::QuotaClientProxy"** %172, align 8
  %174 = icmp eq %"class.storage::mojom::QuotaClientProxy"* %173, null
  br i1 %174, label %180, label %175

175:                                              ; preds = %169
  %176 = bitcast %"class.storage::mojom::QuotaClientProxy"* %173 to void (%"class.storage::mojom::QuotaClientProxy"*)***
  %177 = load void (%"class.storage::mojom::QuotaClientProxy"*)**, void (%"class.storage::mojom::QuotaClientProxy"*)*** %176, align 8
  %178 = getelementptr inbounds void (%"class.storage::mojom::QuotaClientProxy"*)*, void (%"class.storage::mojom::QuotaClientProxy"*)** %177, i64 1
  %179 = load void (%"class.storage::mojom::QuotaClientProxy"*)*, void (%"class.storage::mojom::QuotaClientProxy"*)** %178, align 8
  call void %179(%"class.storage::mojom::QuotaClientProxy"* nonnull %173) #15
  br label %180

180:                                              ; preds = %175, %169
  %181 = bitcast %"class.mojo::Remote"* %171 to %"class.mojo::internal::InterfacePtrStateBase"*
  call void @_ZN4mojo8internal21InterfacePtrStateBaseD2Ev(%"class.mojo::internal::InterfacePtrStateBase"* %181) #15
  %182 = icmp eq %"class.mojo::Remote"* %171, %162
  br i1 %182, label %183, label %169

183:                                              ; preds = %180
  %184 = bitcast %"class.std::__1::vector.91"* %160 to i8**
  %185 = load i8*, i8** %184, align 8
  br label %186

186:                                              ; preds = %183, %164
  %187 = phi i8* [ %185, %183 ], [ %165, %164 ]
  store %"class.mojo::Remote"* %162, %"class.mojo::Remote"** %166, align 8
  call void @_ZdlPv(i8* %187) #16
  br label %188

188:                                              ; preds = %159, %186
  %189 = getelementptr inbounds %"class.storage::QuotaManagerImpl", %"class.storage::QuotaManagerImpl"* %0, i64 0, i32 24, i32 0
  %190 = getelementptr inbounds %"class.storage::QuotaManagerImpl", %"class.storage::QuotaManagerImpl"* %0, i64 0, i32 24, i32 0, i32 1, i32 0, i32 0
  %191 = bitcast %"class.std::__1::__tree_end_node"* %190 to %"class.std::__1::__tree_node.662"**
  %192 = load %"class.std::__1::__tree_node.662"*, %"class.std::__1::__tree_node.662"** %191, align 8
  call void @_ZNSt3__16__treeINS_12__value_typeIN3url6OriginEN7storage16QuotaManagerImpl13QuotaOverrideEEENS_19__map_value_compareIS3_S7_NS_4lessIS3_EELb1EEENS_9allocatorIS7_EEE7destroyEPNS_11__tree_nodeIS7_PvEE(%"class.std::__1::__tree.84"* %189, %"class.std::__1::__tree_node.662"* %192) #15
  %193 = getelementptr inbounds %"class.storage::QuotaManagerImpl", %"class.storage::QuotaManagerImpl"* %0, i64 0, i32 23, i32 0
  %194 = getelementptr inbounds %"class.storage::QuotaManagerImpl", %"class.storage::QuotaManagerImpl"* %0, i64 0, i32 23, i32 0, i32 1, i32 0, i32 0
  %195 = bitcast %"class.std::__1::__tree_end_node"* %194 to %"class.std::__1::__tree_node"**
  %196 = load %"class.std::__1::__tree_node"*, %"class.std::__1::__tree_node"** %195, align 8
  call void @_ZNSt3__16__treeIN3url6OriginENS_4lessIS2_EENS_9allocatorIS2_EEE7destroyEPNS_11__tree_nodeIS2_PvEE(%"class.std::__1::__tree.75"* %193, %"class.std::__1::__tree_node"* %196) #15
  %197 = getelementptr inbounds %"class.storage::QuotaManagerImpl", %"class.storage::QuotaManagerImpl"* %0, i64 0, i32 22, i32 0
  call void @_ZN4base8internal12CallbackBaseD2Ev(%"class.base::internal::CallbackBase"* %197) #15
  %198 = getelementptr inbounds %"class.storage::QuotaManagerImpl", %"class.storage::QuotaManagerImpl"* %0, i64 0, i32 21
  %199 = getelementptr inbounds %"class.storage::CallbackQueue.64", %"class.storage::CallbackQueue.64"* %198, i64 0, i32 0, i32 0, i32 0
  %200 = load %"class.base::OnceCallback.67"*, %"class.base::OnceCallback.67"** %199, align 8
  %201 = icmp eq %"class.base::OnceCallback.67"* %200, null
  br i1 %201, label %217, label %202

202:                                              ; preds = %188
  %203 = bitcast %"class.base::OnceCallback.67"* %200 to i8*
  %204 = getelementptr inbounds %"class.storage::QuotaManagerImpl", %"class.storage::QuotaManagerImpl"* %0, i64 0, i32 21, i32 0, i32 0, i32 1
  %205 = load %"class.base::OnceCallback.67"*, %"class.base::OnceCallback.67"** %204, align 8
  %206 = icmp eq %"class.base::OnceCallback.67"* %205, %200
  br i1 %206, label %215, label %207

207:                                              ; preds = %202, %207
  %208 = phi %"class.base::OnceCallback.67"* [ %209, %207 ], [ %205, %202 ]
  %209 = getelementptr inbounds %"class.base::OnceCallback.67", %"class.base::OnceCallback.67"* %208, i64 -1
  %210 = getelementptr inbounds %"class.base::OnceCallback.67", %"class.base::OnceCallback.67"* %209, i64 0, i32 0
  call void @_ZN4base8internal12CallbackBaseD2Ev(%"class.base::internal::CallbackBase"* %210) #15
  %211 = icmp eq %"class.base::OnceCallback.67"* %209, %200
  br i1 %211, label %212, label %207

212:                                              ; preds = %207
  %213 = bitcast %"class.storage::CallbackQueue.64"* %198 to i8**
  %214 = load i8*, i8** %213, align 8
  br label %215

215:                                              ; preds = %212, %202
  %216 = phi i8* [ %214, %212 ], [ %203, %202 ]
  store %"class.base::OnceCallback.67"* %200, %"class.base::OnceCallback.67"** %204, align 8
  call void @_ZdlPv(i8* %216) #16
  br label %217

217:                                              ; preds = %188, %215
  %218 = getelementptr inbounds %"class.storage::QuotaManagerImpl", %"class.storage::QuotaManagerImpl"* %0, i64 0, i32 20
  %219 = getelementptr inbounds %"class.storage::CallbackQueue", %"class.storage::CallbackQueue"* %218, i64 0, i32 0, i32 0, i32 0
  %220 = load %"class.base::OnceCallback.58"*, %"class.base::OnceCallback.58"** %219, align 8
  %221 = icmp eq %"class.base::OnceCallback.58"* %220, null
  br i1 %221, label %237, label %222

222:                                              ; preds = %217
  %223 = bitcast %"class.base::OnceCallback.58"* %220 to i8*
  %224 = getelementptr inbounds %"class.storage::QuotaManagerImpl", %"class.storage::QuotaManagerImpl"* %0, i64 0, i32 20, i32 0, i32 0, i32 1
  %225 = load %"class.base::OnceCallback.58"*, %"class.base::OnceCallback.58"** %224, align 8
  %226 = icmp eq %"class.base::OnceCallback.58"* %225, %220
  br i1 %226, label %235, label %227

227:                                              ; preds = %222, %227
  %228 = phi %"class.base::OnceCallback.58"* [ %229, %227 ], [ %225, %222 ]
  %229 = getelementptr inbounds %"class.base::OnceCallback.58", %"class.base::OnceCallback.58"* %228, i64 -1
  %230 = getelementptr inbounds %"class.base::OnceCallback.58", %"class.base::OnceCallback.58"* %229, i64 0, i32 0
  call void @_ZN4base8internal12CallbackBaseD2Ev(%"class.base::internal::CallbackBase"* %230) #15
  %231 = icmp eq %"class.base::OnceCallback.58"* %229, %220
  br i1 %231, label %232, label %227

232:                                              ; preds = %227
  %233 = bitcast %"class.storage::CallbackQueue"* %218 to i8**
  %234 = load i8*, i8** %233, align 8
  br label %235

235:                                              ; preds = %232, %222
  %236 = phi i8* [ %234, %232 ], [ %223, %222 ]
  store %"class.base::OnceCallback.58"* %220, %"class.base::OnceCallback.58"** %224, align 8
  call void @_ZdlPv(i8* %236) #16
  br label %237

237:                                              ; preds = %217, %235
  %238 = getelementptr inbounds %"class.storage::QuotaManagerImpl", %"class.storage::QuotaManagerImpl"* %0, i64 0, i32 16, i32 0, i32 0
  call void @_ZN4base8internal12CallbackBaseD2Ev(%"class.base::internal::CallbackBase"* %238) #15
  %239 = getelementptr inbounds %"class.storage::QuotaManagerImpl", %"class.storage::QuotaManagerImpl"* %0, i64 0, i32 15, i32 0, i32 0
  call void @_ZN4base8internal12CallbackBaseD2Ev(%"class.base::internal::CallbackBase"* %239) #15
  %240 = getelementptr inbounds %"class.storage::QuotaManagerImpl", %"class.storage::QuotaManagerImpl"* %0, i64 0, i32 14, i32 0
  %241 = load %"class.base::TaskRunner"*, %"class.base::TaskRunner"** %240, align 8
  %242 = icmp eq %"class.base::TaskRunner"* %241, null
  br i1 %242, label %251, label %243

243:                                              ; preds = %237
  %244 = getelementptr inbounds %"class.base::TaskRunner", %"class.base::TaskRunner"* %241, i64 0, i32 1
  %245 = getelementptr inbounds %"class.base::RefCountedThreadSafe", %"class.base::RefCountedThreadSafe"* %244, i64 0, i32 0, i32 0, i32 0, i32 0, i32 0, i32 0, i32 0, i32 0
  %246 = atomicrmw sub i32* %245, i32 1 acq_rel
  %247 = icmp eq i32 %246, 1
  br i1 %247, label %248, label %251

248:                                              ; preds = %243
  %249 = getelementptr inbounds %"class.base::RefCountedThreadSafe", %"class.base::RefCountedThreadSafe"* %244, i64 -2
  %250 = bitcast %"class.base::RefCountedThreadSafe"* %249 to %"class.base::TaskRunner"*
  call void @_ZN4base16TaskRunnerTraits8DestructEPKNS_10TaskRunnerE(%"class.base::TaskRunner"* %250) #15
  br label %251

251:                                              ; preds = %237, %243, %248
  %252 = getelementptr inbounds %"class.storage::QuotaManagerImpl", %"class.storage::QuotaManagerImpl"* %0, i64 0, i32 13, i32 0, i32 0
  call void @_ZN4base8internal12CallbackBaseD2Ev(%"class.base::internal::CallbackBase"* %252) #15
  %253 = load %"class.storage::QuotaDatabase"*, %"class.storage::QuotaDatabase"** %14, align 8
  store %"class.storage::QuotaDatabase"* null, %"class.storage::QuotaDatabase"** %14, align 8
  %254 = icmp eq %"class.storage::QuotaDatabase"* %253, null
  br i1 %254, label %257, label %255

255:                                              ; preds = %251
  call void @_ZN7storage13QuotaDatabaseD1Ev(%"class.storage::QuotaDatabase"* nonnull %253) #15
  %256 = bitcast %"class.storage::QuotaDatabase"* %253 to i8*
  call void @_ZdlPv(i8* %256) #16
  br label %257

257:                                              ; preds = %251, %255
  %258 = getelementptr inbounds %"class.storage::QuotaManagerImpl", %"class.storage::QuotaManagerImpl"* %0, i64 0, i32 10, i32 0
  %259 = load %"class.base::SequencedTaskRunner"*, %"class.base::SequencedTaskRunner"** %258, align 8
  %260 = icmp eq %"class.base::SequencedTaskRunner"* %259, null
  br i1 %260, label %269, label %261

261:                                              ; preds = %257
  %262 = getelementptr inbounds %"class.base::SequencedTaskRunner", %"class.base::SequencedTaskRunner"* %259, i64 0, i32 0, i32 1
  %263 = getelementptr inbounds %"class.base::RefCountedThreadSafe", %"class.base::RefCountedThreadSafe"* %262, i64 0, i32 0, i32 0, i32 0, i32 0, i32 0, i32 0, i32 0, i32 0
  %264 = atomicrmw sub i32* %263, i32 1 acq_rel
  %265 = icmp eq i32 %264, 1
  br i1 %265, label %266, label %269

266:                                              ; preds = %261
  %267 = getelementptr inbounds %"class.base::RefCountedThreadSafe", %"class.base::RefCountedThreadSafe"* %262, i64 -2
  %268 = bitcast %"class.base::RefCountedThreadSafe"* %267 to %"class.base::TaskRunner"*
  call void @_ZN4base16TaskRunnerTraits8DestructEPKNS_10TaskRunnerE(%"class.base::TaskRunner"* %268) #15
  br label %269

269:                                              ; preds = %257, %261, %266
  %270 = getelementptr inbounds %"class.storage::QuotaManagerImpl", %"class.storage::QuotaManagerImpl"* %0, i64 0, i32 9, i32 0
  %271 = load %"class.base::SingleThreadTaskRunner"*, %"class.base::SingleThreadTaskRunner"** %270, align 8
  %272 = icmp eq %"class.base::SingleThreadTaskRunner"* %271, null
  br i1 %272, label %281, label %273

273:                                              ; preds = %269
  %274 = getelementptr inbounds %"class.base::SingleThreadTaskRunner", %"class.base::SingleThreadTaskRunner"* %271, i64 0, i32 0, i32 0, i32 1
  %275 = getelementptr inbounds %"class.base::RefCountedThreadSafe", %"class.base::RefCountedThreadSafe"* %274, i64 0, i32 0, i32 0, i32 0, i32 0, i32 0, i32 0, i32 0, i32 0
  %276 = atomicrmw sub i32* %275, i32 1 acq_rel
  %277 = icmp eq i32 %276, 1
  br i1 %277, label %278, label %281

278:                                              ; preds = %273
  %279 = getelementptr inbounds %"class.base::RefCountedThreadSafe", %"class.base::RefCountedThreadSafe"* %274, i64 -2
  %280 = bitcast %"class.base::RefCountedThreadSafe"* %279 to %"class.base::TaskRunner"*
  call void @_ZN4base16TaskRunnerTraits8DestructEPKNS_10TaskRunnerE(%"class.base::TaskRunner"* %280) #15
  br label %281

281:                                              ; preds = %269, %273, %278
  %282 = getelementptr inbounds %"class.storage::QuotaManagerImpl", %"class.storage::QuotaManagerImpl"* %0, i64 0, i32 8, i32 0, i32 0, i32 0, i32 0
  %283 = load i8, i8* %282, align 8, !range !15
  %284 = icmp eq i8 %283, 0
  br i1 %284, label %287, label %285

285:                                              ; preds = %281
  %286 = getelementptr inbounds %"class.storage::QuotaManagerImpl", %"class.storage::QuotaManagerImpl"* %0, i64 0, i32 8, i32 0, i32 0, i32 0, i32 1, i32 0
  call void @_ZN3url6OriginD1Ev(%"class.url::Origin"* %286) #15
  store i8 0, i8* %282, align 8
  br label %287

287:                                              ; preds = %281, %285
  %288 = load %"class.storage::QuotaManagerProxy"*, %"class.storage::QuotaManagerProxy"** %5, align 8
  %289 = icmp eq %"class.storage::QuotaManagerProxy"* %288, null
  br i1 %289, label %302, label %290

290:                                              ; preds = %287
  %291 = getelementptr inbounds %"class.storage::QuotaManagerProxy", %"class.storage::QuotaManagerProxy"* %288, i64 0, i32 1
  %292 = getelementptr inbounds %"class.base::RefCountedThreadSafe.21", %"class.base::RefCountedThreadSafe.21"* %291, i64 0, i32 0, i32 0, i32 0, i32 0, i32 0, i32 0, i32 0, i32 0
  %293 = atomicrmw sub i32* %292, i32 1 acq_rel
  %294 = icmp eq i32 %293, 1
  br i1 %294, label %295, label %302

295:                                              ; preds = %290
  %296 = getelementptr inbounds %"class.base::RefCountedThreadSafe.21", %"class.base::RefCountedThreadSafe.21"* %291, i64 -2
  %297 = bitcast %"class.base::RefCountedThreadSafe.21"* %296 to %"class.storage::QuotaManagerProxy"*
  %298 = bitcast %"class.base::RefCountedThreadSafe.21"* %296 to void (%"class.storage::QuotaManagerProxy"*)***
  %299 = load void (%"class.storage::QuotaManagerProxy"*)**, void (%"class.storage::QuotaManagerProxy"*)*** %298, align 8
  %300 = getelementptr inbounds void (%"class.storage::QuotaManagerProxy"*)*, void (%"class.storage::QuotaManagerProxy"*)** %299, i64 13
  %301 = load void (%"class.storage::QuotaManagerProxy"*)*, void (%"class.storage::QuotaManagerProxy"*)** %300, align 8
  call void %301(%"class.storage::QuotaManagerProxy"* nonnull %297) #15
  br label %302

302:                                              ; preds = %287, %290, %295
  %303 = getelementptr inbounds %"class.storage::QuotaManagerImpl", %"class.storage::QuotaManagerImpl"* %0, i64 0, i32 4
  call void @_ZN4base8FilePathD1Ev(%"class.base::FilePath"* %303) #15
  %304 = getelementptr inbounds %"class.storage::QuotaManagerImpl", %"class.storage::QuotaManagerImpl"* %0, i64 0, i32 2, i32 1, i32 0
  %305 = load %"class.base::SequencedTaskRunner"*, %"class.base::SequencedTaskRunner"** %304, align 8
  %306 = icmp eq %"class.base::SequencedTaskRunner"* %305, null
  br i1 %306, label %315, label %307

307:                                              ; preds = %302
  %308 = getelementptr inbounds %"class.base::SequencedTaskRunner", %"class.base::SequencedTaskRunner"* %305, i64 0, i32 0, i32 1
  %309 = getelementptr inbounds %"class.base::RefCountedThreadSafe", %"class.base::RefCountedThreadSafe"* %308, i64 0, i32 0, i32 0, i32 0, i32 0, i32 0, i32 0, i32 0, i32 0
  %310 = atomicrmw sub i32* %309, i32 1 acq_rel
  %311 = icmp eq i32 %310, 1
  br i1 %311, label %312, label %315

312:                                              ; preds = %307
  %313 = getelementptr inbounds %"class.base::RefCountedThreadSafe", %"class.base::RefCountedThreadSafe"* %308, i64 -2
  %314 = bitcast %"class.base::RefCountedThreadSafe"* %313 to %"class.base::TaskRunner"*
  call void @_ZN4base16TaskRunnerTraits8DestructEPKNS_10TaskRunnerE(%"class.base::TaskRunner"* %314) #15
  br label %315

315:                                              ; preds = %302, %307, %312
  %316 = getelementptr inbounds %"class.storage::QuotaManagerImpl", %"class.storage::QuotaManagerImpl"* %0, i64 0, i32 0
  call void @_ZN7storage17QuotaTaskObserverD2Ev(%"class.storage::QuotaTaskObserver"* %316) #15
  ret void
}

declare void @_ZN7storage17QuotaManagerProxy26InvalidateQuotaManagerImplEN4base7PassKeyINS_16QuotaManagerImplEEE(%"class.storage::QuotaManagerProxy"*) local_unnamed_addr #1

; Function Attrs: nounwind
declare void @_ZN4base8internal18WeakPtrFactoryBaseD2Ev(%"class.base::internal::WeakPtrFactoryBase"*) unnamed_addr #4

; Function Attrs: nounwind
declare void @_ZN4base14RepeatingTimerD1Ev(%"class.base::RepeatingTimer"*) unnamed_addr #4

; Function Attrs: nounwind
declare void @_ZN4base8FilePathD1Ev(%"class.base::FilePath"*) unnamed_addr #4

; Function Attrs: nounwind
declare void @_ZN7storage17QuotaTaskObserverD2Ev(%"class.storage::QuotaTaskObserver"*) unnamed_addr #4

; Function Attrs: nounwind ssp uwtable
define hidden void @_ZThn32_N7storage16QuotaManagerImplD1Ev(%"class.storage::QuotaManagerImpl"*) unnamed_addr #0 align 2 {
  %2 = getelementptr inbounds %"class.storage::QuotaManagerImpl", %"class.storage::QuotaManagerImpl"* %0, i64 -1, i32 39, i32 1
  %3 = bitcast %"class.base::RepeatingCallback.55"* %2 to %"class.storage::QuotaManagerImpl"*
  tail call void @_ZN7storage16QuotaManagerImplD2Ev(%"class.storage::QuotaManagerImpl"* %3) #15
  ret void
}

; Function Attrs: nounwind ssp uwtable
define hidden void @_ZN7storage16QuotaManagerImplD0Ev(%"class.storage::QuotaManagerImpl"*) unnamed_addr #0 align 2 {
  tail call void @_ZN7storage16QuotaManagerImplD2Ev(%"class.storage::QuotaManagerImpl"* %0) #15
  %2 = bitcast %"class.storage::QuotaManagerImpl"* %0 to i8*
  tail call void @_ZdlPv(i8* %2) #16
  ret void
}

; Function Attrs: nobuiltin nounwind
declare void @_ZdlPv(i8*) local_unnamed_addr #6

; Function Attrs: nounwind ssp uwtable
define hidden void @_ZThn32_N7storage16QuotaManagerImplD0Ev(%"class.storage::QuotaManagerImpl"*) unnamed_addr #0 align 2 {
  %2 = getelementptr inbounds %"class.storage::QuotaManagerImpl", %"class.storage::QuotaManagerImpl"* %0, i64 -1, i32 39, i32 1
  %3 = bitcast %"class.base::RepeatingCallback.55"* %2 to %"class.storage::QuotaManagerImpl"*
  tail call void @_ZN7storage16QuotaManagerImplD2Ev(%"class.storage::QuotaManagerImpl"* %3) #15
  %4 = bitcast %"class.base::RepeatingCallback.55"* %2 to i8*
  tail call void @_ZdlPv(i8* %4) #16
  ret void
}

; Function Attrs: nounwind ssp uwtable
define hidden void @_ZN7storage16QuotaManagerImpl15EvictionContextC2Ev(%"struct.storage::QuotaManagerImpl::EvictionContext"*) unnamed_addr #0 align 2 {
  %2 = getelementptr inbounds %"struct.storage::QuotaManagerImpl::EvictionContext", %"struct.storage::QuotaManagerImpl::EvictionContext"* %0, i64 0, i32 0
  tail call void @_ZN3url6OriginC1Ev(%"class.url::Origin"* %2) #15
  %3 = getelementptr inbounds %"struct.storage::QuotaManagerImpl::EvictionContext", %"struct.storage::QuotaManagerImpl::EvictionContext"* %0, i64 0, i32 1
  store i32 4, i32* %3, align 8
  %4 = getelementptr inbounds %"struct.storage::QuotaManagerImpl::EvictionContext", %"struct.storage::QuotaManagerImpl::EvictionContext"* %0, i64 0, i32 2, i32 0, i32 0, i32 0
  store %"class.base::internal::BindStateBase"* null, %"class.base::internal::BindStateBase"** %4, align 8
  ret void
}

declare void @_ZN3url6OriginC1Ev(%"class.url::Origin"*) unnamed_addr #1

; Function Attrs: nounwind ssp uwtable
define hidden void @_ZN7storage16QuotaManagerImpl15EvictionContextD2Ev(%"struct.storage::QuotaManagerImpl::EvictionContext"*) unnamed_addr #0 align 2 {
  %2 = getelementptr inbounds %"struct.storage::QuotaManagerImpl::EvictionContext", %"struct.storage::QuotaManagerImpl::EvictionContext"* %0, i64 0, i32 2, i32 0
  tail call void @_ZN4base8internal12CallbackBaseD2Ev(%"class.base::internal::CallbackBase"* %2) #15
  %3 = getelementptr inbounds %"struct.storage::QuotaManagerImpl::EvictionContext", %"struct.storage::QuotaManagerImpl::EvictionContext"* %0, i64 0, i32 0
  tail call void @_ZN3url6OriginD1Ev(%"class.url::Origin"* %3) #15
  ret void
}

; Function Attrs: nounwind
declare void @_ZN3url6OriginD1Ev(%"class.url::Origin"*) unnamed_addr #4

declare void @_ZN4base8FilePathC1Ev(%"class.base::FilePath"*) unnamed_addr #1

declare void @_ZNK4base8FilePath11AppendASCIIENS_16BasicStringPieceIcNSt3__111char_traitsIcEEEE(%"class.base::FilePath"* sret, %"class.base::FilePath"*, i8*, i64) local_unnamed_addr #1

; Function Attrs: nounwind ssp uwtable
define hidden void @_ZN7storage16QuotaManagerImpl15ReportHistogramEv(%"class.storage::QuotaManagerImpl"*) #0 align 2 {
  %2 = alloca %"class.base::OnceCallback.67", align 8
  %3 = alloca %"class.base::internal::WeakReference", align 8
  %4 = alloca %"class.base::OnceCallback.67", align 8
  %5 = alloca %"class.base::WeakPtr.363", align 8
  %6 = bitcast %"class.base::WeakPtr.363"* %5 to i8*
  call void @llvm.lifetime.start.p0i8(i64 16, i8* nonnull %6) #15
  %7 = bitcast %"class.base::internal::WeakReference"* %3 to i8*
  call void @llvm.lifetime.start.p0i8(i64 8, i8* nonnull %7) #15, !noalias !185
  %8 = getelementptr inbounds %"class.storage::QuotaManagerImpl", %"class.storage::QuotaManagerImpl"* %0, i64 0, i32 41, i32 0, i32 0
  call void @_ZNK4base8internal18WeakReferenceOwner6GetRefEv(%"class.base::internal::WeakReference"* nonnull sret %3, %"class.base::internal::WeakReferenceOwner"* %8) #15, !noalias !185
  %9 = getelementptr inbounds %"class.storage::QuotaManagerImpl", %"class.storage::QuotaManagerImpl"* %0, i64 0, i32 41, i32 0, i32 1
  %10 = load i64, i64* %9, align 8, !noalias !185
  %11 = getelementptr inbounds %"class.base::WeakPtr.363", %"class.base::WeakPtr.363"* %5, i64 0, i32 0
  call void @_ZN4base8internal11WeakPtrBaseC2ERKNS0_13WeakReferenceEm(%"class.base::internal::WeakPtrBase"* nonnull %11, %"class.base::internal::WeakReference"* nonnull dereferenceable(8) %3, i64 %10) #15
  call void @_ZN4base8internal13WeakReferenceD1Ev(%"class.base::internal::WeakReference"* nonnull %3) #15
  call void @llvm.lifetime.end.p0i8(i64 8, i8* nonnull %7) #15, !noalias !185
  %12 = call i8* @_Znwm(i64 64) #16, !noalias !188
  %13 = bitcast i8* %12 to %"class.base::internal::BindStateBase"*
  call void @_ZN4base8internal13BindStateBaseC2EPFvvEPFvPKS1_EPFbS5_NS1_21CancellationQueryModeEE(%"class.base::internal::BindStateBase"* nonnull %13, void ()* bitcast (void (%"class.base::internal::BindStateBase"*, i64, i64)* @_ZN4base8internal7InvokerINS0_9BindStateIMN7storage16QuotaManagerImplEFvllEJNS_7WeakPtrIS4_EEEEEFvllEE7RunOnceEPNS0_13BindStateBaseEll to void ()*), void (%"class.base::internal::BindStateBase"*)* nonnull @_ZN4base8internal9BindStateIMN7storage16QuotaManagerImplEFvllEJNS_7WeakPtrIS3_EEEE7DestroyEPKNS0_13BindStateBaseE, i1 (%"class.base::internal::BindStateBase"*, i32)* nonnull @_ZN4base8internal23QueryCancellationTraitsINS0_9BindStateIMN7storage16QuotaManagerImplEFvllEJNS_7WeakPtrIS4_EEEEEEEbPKNS0_13BindStateBaseENSA_21CancellationQueryModeE) #15, !noalias !188
  %14 = getelementptr inbounds i8, i8* %12, i64 32
  %15 = bitcast i8* %14 to <2 x i64>*
  store <2 x i64> <i64 ptrtoint (void (%"class.storage::QuotaManagerImpl"*, i64, i64)* @_ZN7storage16QuotaManagerImpl38DidGetTemporaryGlobalUsageForHistogramEll to i64), i64 0>, <2 x i64>* %15, align 8, !noalias !188
  %16 = getelementptr inbounds i8, i8* %12, i64 48
  %17 = bitcast i8* %16 to %"class.base::internal::WeakReference"*
  %18 = getelementptr inbounds %"class.base::WeakPtr.363", %"class.base::WeakPtr.363"* %5, i64 0, i32 0, i32 0
  call void @_ZN4base8internal13WeakReferenceC1EOS1_(%"class.base::internal::WeakReference"* %17, %"class.base::internal::WeakReference"* nonnull dereferenceable(8) %18) #15, !noalias !188
  %19 = getelementptr inbounds i8, i8* %12, i64 56
  %20 = bitcast i8* %19 to i64*
  %21 = getelementptr inbounds %"class.base::WeakPtr.363", %"class.base::WeakPtr.363"* %5, i64 0, i32 0, i32 1
  %22 = load i64, i64* %21, align 8, !noalias !188
  store i64 %22, i64* %20, align 8, !noalias !188
  %23 = bitcast %"class.base::OnceCallback.67"* %2 to i8*
  call void @llvm.lifetime.start.p0i8(i64 8, i8* nonnull %23)
  call void @_ZN7storage16QuotaManagerImpl14LazyInitializeEv(%"class.storage::QuotaManagerImpl"* %0) #15
  %24 = getelementptr inbounds %"class.storage::QuotaManagerImpl", %"class.storage::QuotaManagerImpl"* %0, i64 0, i32 29, i32 0, i32 0, i32 0
  %25 = load %"class.storage::UsageTracker"*, %"class.storage::UsageTracker"** %24, align 8
  %26 = getelementptr inbounds %"class.base::OnceCallback.67", %"class.base::OnceCallback.67"* %4, i64 0, i32 0, i32 0, i32 0
  %27 = ptrtoint i8* %12 to i64
  %28 = bitcast %"class.base::OnceCallback.67"* %2 to i64*
  store i64 %27, i64* %28, align 8
  store %"class.base::internal::BindStateBase"* null, %"class.base::internal::BindStateBase"** %26, align 8
  call void @_ZN7storage12UsageTracker14GetGlobalUsageEN4base12OnceCallbackIFvllEEE(%"class.storage::UsageTracker"* %25, %"class.base::OnceCallback.67"* nonnull %2) #15
  %29 = getelementptr inbounds %"class.base::OnceCallback.67", %"class.base::OnceCallback.67"* %2, i64 0, i32 0
  call void @_ZN4base8internal12CallbackBaseD2Ev(%"class.base::internal::CallbackBase"* nonnull %29) #15
  call void @llvm.lifetime.end.p0i8(i64 8, i8* nonnull %23)
  %30 = getelementptr inbounds %"class.base::OnceCallback.67", %"class.base::OnceCallback.67"* %4, i64 0, i32 0
  call void @_ZN4base8internal12CallbackBaseD2Ev(%"class.base::internal::CallbackBase"* nonnull %30) #15
  call void @_ZN4base8internal11WeakPtrBaseD2Ev(%"class.base::internal::WeakPtrBase"* nonnull %11) #15
  call void @llvm.lifetime.end.p0i8(i64 16, i8* nonnull %6) #15
  ret void
}

declare zeroext i1 @_ZN7storage13QuotaDatabase28IsOriginDatabaseBootstrappedEv(%"class.storage::QuotaDatabase"*) #1

; Function Attrs: nounwind ssp uwtable
define hidden void @_ZN7storage16QuotaManagerImpl20FinishLazyInitializeEb(%"class.storage::QuotaManagerImpl"*, i1 zeroext) #0 align 2 {
  %3 = zext i1 %1 to i8
  %4 = getelementptr inbounds %"class.storage::QuotaManagerImpl", %"class.storage::QuotaManagerImpl"* %0, i64 0, i32 12
  store i8 %3, i8* %4, align 8
  %5 = getelementptr inbounds %"class.storage::QuotaManagerImpl", %"class.storage::QuotaManagerImpl"* %0, i64 0, i32 7
  %6 = load i8, i8* %5, align 1, !range !15
  %7 = icmp eq i8 %6, 0
  br i1 %7, label %8, label %25

8:                                                ; preds = %2
  %9 = tail call i8* @_Znwm(i64 424) #16
  %10 = bitcast i8* %9 to %"class.storage::QuotaTemporaryStorageEvictor"*
  %11 = icmp eq %"class.storage::QuotaManagerImpl"* %0, null
  %12 = getelementptr inbounds %"class.storage::QuotaManagerImpl", %"class.storage::QuotaManagerImpl"* %0, i64 0, i32 1
  %13 = select i1 %11, %"class.storage::QuotaEvictionHandler"* null, %"class.storage::QuotaEvictionHandler"* %12
  tail call void @_ZN7storage28QuotaTemporaryStorageEvictorC1EPNS_20QuotaEvictionHandlerEl(%"class.storage::QuotaTemporaryStorageEvictor"* nonnull %10, %"class.storage::QuotaEvictionHandler"* %13, i64 1800000) #15
  %14 = ptrtoint i8* %9 to i64
  %15 = getelementptr inbounds %"class.storage::QuotaManagerImpl", %"class.storage::QuotaManagerImpl"* %0, i64 0, i32 32
  %16 = getelementptr inbounds %"class.std::__1::unique_ptr.310", %"class.std::__1::unique_ptr.310"* %15, i64 0, i32 0, i32 0, i32 0
  %17 = load %"class.storage::QuotaTemporaryStorageEvictor"*, %"class.storage::QuotaTemporaryStorageEvictor"** %16, align 8
  %18 = bitcast %"class.std::__1::unique_ptr.310"* %15 to i64*
  store i64 %14, i64* %18, align 8
  %19 = icmp eq %"class.storage::QuotaTemporaryStorageEvictor"* %17, null
  br i1 %19, label %23, label %20

20:                                               ; preds = %8
  tail call void @_ZN7storage28QuotaTemporaryStorageEvictorD1Ev(%"class.storage::QuotaTemporaryStorageEvictor"* nonnull %17) #15
  %21 = bitcast %"class.storage::QuotaTemporaryStorageEvictor"* %17 to i8*
  tail call void @_ZdlPv(i8* %21) #16
  %22 = load %"class.storage::QuotaTemporaryStorageEvictor"*, %"class.storage::QuotaTemporaryStorageEvictor"** %16, align 8
  br label %23

23:                                               ; preds = %20, %8
  %24 = phi %"class.storage::QuotaTemporaryStorageEvictor"* [ %22, %20 ], [ %10, %8 ]
  tail call void @_ZN7storage28QuotaTemporaryStorageEvictor5StartEv(%"class.storage::QuotaTemporaryStorageEvictor"* %24) #15
  br label %25

25:                                               ; preds = %2, %23
  ret void
}

; Function Attrs: nounwind ssp uwtable
define hidden void @_ZN7storage16QuotaManagerImpl13StartEvictionEv(%"class.storage::QuotaManagerImpl"*) local_unnamed_addr #0 align 2 {
  %2 = getelementptr inbounds %"class.storage::QuotaManagerImpl", %"class.storage::QuotaManagerImpl"* %0, i64 0, i32 7
  %3 = load i8, i8* %2, align 1, !range !15
  %4 = icmp eq i8 %3, 0
  br i1 %4, label %5, label %23

5:                                                ; preds = %1
  %6 = tail call i8* @_Znwm(i64 424) #16
  %7 = bitcast i8* %6 to %"class.storage::QuotaTemporaryStorageEvictor"*
  %8 = icmp eq %"class.storage::QuotaManagerImpl"* %0, null
  %9 = getelementptr inbounds %"class.storage::QuotaManagerImpl", %"class.storage::QuotaManagerImpl"* %0, i64 0, i32 1
  %10 = select i1 %8, %"class.storage::QuotaEvictionHandler"* null, %"class.storage::QuotaEvictionHandler"* %9
  tail call void @_ZN7storage28QuotaTemporaryStorageEvictorC1EPNS_20QuotaEvictionHandlerEl(%"class.storage::QuotaTemporaryStorageEvictor"* nonnull %7, %"class.storage::QuotaEvictionHandler"* %10, i64 1800000) #15
  %11 = ptrtoint i8* %6 to i64
  %12 = getelementptr inbounds %"class.storage::QuotaManagerImpl", %"class.storage::QuotaManagerImpl"* %0, i64 0, i32 32
  %13 = getelementptr inbounds %"class.std::__1::unique_ptr.310", %"class.std::__1::unique_ptr.310"* %12, i64 0, i32 0, i32 0, i32 0
  %14 = load %"class.storage::QuotaTemporaryStorageEvictor"*, %"class.storage::QuotaTemporaryStorageEvictor"** %13, align 8
  %15 = bitcast %"class.std::__1::unique_ptr.310"* %12 to i64*
  store i64 %11, i64* %15, align 8
  %16 = icmp eq %"class.storage::QuotaTemporaryStorageEvictor"* %14, null
  %17 = bitcast i8* %6 to %"class.storage::QuotaTemporaryStorageEvictor"*
  br i1 %16, label %21, label %18

18:                                               ; preds = %5
  tail call void @_ZN7storage28QuotaTemporaryStorageEvictorD1Ev(%"class.storage::QuotaTemporaryStorageEvictor"* nonnull %14) #15
  %19 = bitcast %"class.storage::QuotaTemporaryStorageEvictor"* %14 to i8*
  tail call void @_ZdlPv(i8* %19) #16
  %20 = load %"class.storage::QuotaTemporaryStorageEvictor"*, %"class.storage::QuotaTemporaryStorageEvictor"** %13, align 8
  br label %21

21:                                               ; preds = %18, %5
  %22 = phi %"class.storage::QuotaTemporaryStorageEvictor"* [ %20, %18 ], [ %17, %5 ]
  tail call void @_ZN7storage28QuotaTemporaryStorageEvictor5StartEv(%"class.storage::QuotaTemporaryStorageEvictor"* %22) #15
  br label %23

23:                                               ; preds = %1, %21
  ret void
}

; Function Attrs: nounwind ssp uwtable
define hidden void @_ZN7storage16QuotaManagerImpl28BootstrapDatabaseForEvictionEN4base12OnceCallbackIFvRKN4absl8optionalIN3url6OriginEEEEEEll(%"class.storage::QuotaManagerImpl"*, %"class.base::OnceCallback.73"* nocapture, i64, i64) #0 align 2 {
  %5 = alloca %"class.base::internal::WeakReference", align 8
  %6 = alloca %"class.std::__1::set.74", align 16
  %7 = alloca %"class.base::Location", align 8
  %8 = alloca %"class.base::OnceCallback.415", align 8
  %9 = alloca %"class.base::OnceCallback.416", align 8
  %10 = alloca %"class.base::WeakPtr.363", align 8
  %11 = bitcast %"class.std::__1::set.74"* %6 to i8*
  call void @llvm.lifetime.start.p0i8(i64 24, i8* nonnull %11) #15
  %12 = getelementptr inbounds %"class.std::__1::set.74", %"class.std::__1::set.74"* %6, i64 0, i32 0, i32 2, i32 0, i32 0
  %13 = getelementptr inbounds %"class.storage::QuotaManagerImpl", %"class.storage::QuotaManagerImpl"* %0, i64 0, i32 29, i32 0, i32 0, i32 0
  %14 = bitcast %"class.std::__1::set.74"* %6 to i8*
  call void @llvm.memset.p0i8.i64(i8* nonnull align 16 %14, i8 -86, i64 24, i1 false)
  %15 = load %"class.storage::UsageTracker"*, %"class.storage::UsageTracker"** %13, align 8
  call void @_ZNK7storage12UsageTracker16GetCachedOriginsEv(%"class.std::__1::set.74"* nonnull sret %6, %"class.storage::UsageTracker"* %15) #15
