; ModuleID = '../../gpu/command_buffer/client/readback_buffer_shadow_tracker.cc'
source_filename = "../../gpu/command_buffer/client/readback_buffer_shadow_tracker.cc"
target datalayout = "e-m:e-i64:64-f80:128-n8:16:32:64-S128"
target triple = "x86_64-unknown-linux-gnu"

module asm ".symver exp, exp@GLIBC_2.2.5"
module asm ".symver exp2, exp2@GLIBC_2.2.5"
module asm ".symver exp2f, exp2f@GLIBC_2.2.5"
module asm ".symver expf, expf@GLIBC_2.2.5"
module asm ".symver lgamma, lgamma@GLIBC_2.2.5"
module asm ".symver lgammaf, lgammaf@GLIBC_2.2.5"
module asm ".symver lgammal, lgammal@GLIBC_2.2.5"
module asm ".symver log, log@GLIBC_2.2.5"
module asm ".symver log2, log2@GLIBC_2.2.5"
module asm ".symver log2f, log2f@GLIBC_2.2.5"
module asm ".symver logf, logf@GLIBC_2.2.5"
module asm ".symver pow, pow@GLIBC_2.2.5"
module asm ".symver powf, powf@GLIBC_2.2.5"

%"class.gpu::gles2::ReadbackBufferShadowTracker::Buffer" = type <{ %"class.base::SupportsWeakPtr", i32, [4 x i8], %"class.gpu::gles2::ReadbackBufferShadowTracker"*, i32, i32, i8*, i64, i64, i32, i8, [3 x i8] }>
%"class.base::SupportsWeakPtr" = type { %"class.base::internal::WeakReferenceOwner" }
%"class.base::internal::WeakReferenceOwner" = type { %class.scoped_refptr }
%class.scoped_refptr = type { %"class.base::internal::WeakReference::Flag"* }
%"class.base::internal::WeakReference::Flag" = type <{ %"class.base::RefCountedThreadSafe", %"class.base::AtomicFlag", [3 x i8] }>
%"class.base::RefCountedThreadSafe" = type { %"class.base::subtle::RefCountedThreadSafeBase" }
%"class.base::subtle::RefCountedThreadSafeBase" = type { %"class.base::AtomicRefCount" }
%"class.base::AtomicRefCount" = type { %"struct.std::__1::atomic" }
%"struct.std::__1::atomic" = type { %"struct.std::__1::__atomic_base" }
%"struct.std::__1::__atomic_base" = type { %"struct.std::__1::__atomic_base.0" }
%"struct.std::__1::__atomic_base.0" = type { %"struct.std::__1::__cxx_atomic_impl" }
%"struct.std::__1::__cxx_atomic_impl" = type { %"struct.std::__1::__cxx_atomic_base_impl" }
%"struct.std::__1::__cxx_atomic_base_impl" = type { i32 }
%"class.base::AtomicFlag" = type { %"struct.std::__1::atomic.1" }
%"struct.std::__1::atomic.1" = type { %"struct.std::__1::__atomic_base.2" }
%"struct.std::__1::__atomic_base.2" = type { %"struct.std::__1::__atomic_base.3" }
%"struct.std::__1::__atomic_base.3" = type { %"struct.std::__1::__cxx_atomic_impl.4" }
%"struct.std::__1::__cxx_atomic_impl.4" = type { %"struct.std::__1::__cxx_atomic_base_impl.5" }
%"struct.std::__1::__cxx_atomic_base_impl.5" = type { i8 }
%"class.gpu::gles2::ReadbackBufferShadowTracker" = type { %"class.base::flat_map", %"class.std::__1::vector.10", i64, %"class.gpu::MappedMemoryManager"*, %"class.gpu::gles2::GLES2CmdHelper"* }
%"class.base::flat_map" = type { %"class.base::internal::flat_tree" }
%"class.base::internal::flat_tree" = type { %"class.std::__1::vector" }
%"class.std::__1::vector" = type { %"class.std::__1::__vector_base" }
%"class.std::__1::__vector_base" = type { %"struct.std::__1::pair"*, %"struct.std::__1::pair"*, %"class.std::__1::__compressed_pair.7" }
%"struct.std::__1::pair" = type { i32, %"class.std::__1::unique_ptr" }
%"class.std::__1::unique_ptr" = type { %"class.std::__1::__compressed_pair" }
%"class.std::__1::__compressed_pair" = type { %"struct.std::__1::__compressed_pair_elem" }
%"struct.std::__1::__compressed_pair_elem" = type { %"class.gpu::gles2::ReadbackBufferShadowTracker::Buffer"* }
%"class.std::__1::__compressed_pair.7" = type { %"struct.std::__1::__compressed_pair_elem.8" }
%"struct.std::__1::__compressed_pair_elem.8" = type { %"struct.std::__1::pair"* }
%"class.std::__1::vector.10" = type { %"class.std::__1::__vector_base.11" }
%"class.std::__1::__vector_base.11" = type { %"class.base::WeakPtr"*, %"class.base::WeakPtr"*, %"class.std::__1::__compressed_pair.13" }
%"class.base::WeakPtr" = type { %"class.base::internal::WeakPtrBase" }
%"class.base::internal::WeakPtrBase" = type { %"class.base::internal::WeakReference", i64 }
%"class.base::internal::WeakReference" = type { %class.scoped_refptr.12 }
%class.scoped_refptr.12 = type { %"class.base::internal::WeakReference::Flag"* }
%"class.std::__1::__compressed_pair.13" = type { %"struct.std::__1::__compressed_pair_elem.14" }
%"struct.std::__1::__compressed_pair_elem.14" = type { %"class.base::WeakPtr"* }
%"class.gpu::MappedMemoryManager" = type <{ i32, [4 x i8], %"class.gpu::CommandBufferHelper"*, %"class.std::__1::vector.26", i64, i64, i64, i32, [4 x i8] }>
%"class.gpu::CommandBufferHelper" = type <{ i32 (...)**, %"class.gpu::CommandBuffer"*, i32, i32, %class.scoped_refptr.18, %"union.gpu::CommandBufferEntry"*, i32, i32, i32, i32, i32, i32, i32, i8, [3 x i8], i32, i8, i8, i8, i8, i32, i32, %"class.base::TimeTicks", i32, [4 x i8] }>
%"class.gpu::CommandBuffer" = type { i32 (...)** }
%class.scoped_refptr.18 = type { %"class.gpu::Buffer"* }
%"class.gpu::Buffer" = type <{ %"class.base::RefCountedThreadSafe.19", [4 x i8], %"class.std::__1::unique_ptr.20", i8*, i32, [4 x i8] }>
%"class.base::RefCountedThreadSafe.19" = type { %"class.base::subtle::RefCountedThreadSafeBase" }
%"class.std::__1::unique_ptr.20" = type { %"class.std::__1::__compressed_pair.21" }
%"class.std::__1::__compressed_pair.21" = type { %"struct.std::__1::__compressed_pair_elem.22" }
%"struct.std::__1::__compressed_pair_elem.22" = type { %"class.gpu::BufferBacking"* }
%"class.gpu::BufferBacking" = type { i32 (...)** }
%"union.gpu::CommandBufferEntry" = type { %"struct.gpu::CommandHeader" }
%"struct.gpu::CommandHeader" = type { i32 }
%"class.base::TimeTicks" = type { %"class.base::time_internal::TimeBase" }
%"class.base::time_internal::TimeBase" = type { i64 }
%"class.std::__1::vector.26" = type { %"class.std::__1::__vector_base.27" }
%"class.std::__1::__vector_base.27" = type { %"class.std::__1::unique_ptr.28"*, %"class.std::__1::unique_ptr.28"*, %"class.std::__1::__compressed_pair.41" }
%"class.std::__1::unique_ptr.28" = type { %"class.std::__1::__compressed_pair.29" }
%"class.std::__1::__compressed_pair.29" = type { %"struct.std::__1::__compressed_pair_elem.30" }
%"struct.std::__1::__compressed_pair_elem.30" = type { %"class.gpu::MemoryChunk"* }
%"class.gpu::MemoryChunk" = type { i32, %class.scoped_refptr.18, %"class.gpu::FencedAllocatorWrapper" }
%"class.gpu::FencedAllocatorWrapper" = type { %"class.gpu::FencedAllocator", i8* }
%"class.gpu::FencedAllocator" = type <{ %"class.gpu::CommandBufferHelper"*, %"class.std::__1::vector.31", i32, [4 x i8] }>
%"class.std::__1::vector.31" = type { %"class.std::__1::__vector_base.32" }
%"class.std::__1::__vector_base.32" = type { %"struct.gpu::FencedAllocator::Block"*, %"struct.gpu::FencedAllocator::Block"*, %"class.std::__1::__compressed_pair.33" }
%"struct.gpu::FencedAllocator::Block" = type { i32, i32, i32, i32 }
%"class.std::__1::__compressed_pair.33" = type { %"struct.std::__1::__compressed_pair_elem.34" }
%"struct.std::__1::__compressed_pair_elem.34" = type { %"struct.gpu::FencedAllocator::Block"* }
%"class.std::__1::__compressed_pair.41" = type { %"struct.std::__1::__compressed_pair_elem.42" }
%"struct.std::__1::__compressed_pair_elem.42" = type { %"class.std::__1::unique_ptr.28"* }
%"class.gpu::gles2::GLES2CmdHelper" = type { %"class.gpu::CommandBufferHelper.base", [4 x i8] }
%"class.gpu::CommandBufferHelper.base" = type <{ i32 (...)**, %"class.gpu::CommandBuffer"*, i32, i32, %class.scoped_refptr.18, %"union.gpu::CommandBufferEntry"*, i32, i32, i32, i32, i32, i32, i32, i8, [3 x i8], i32, i8, i8, i8, i8, i32, i32, %"class.base::TimeTicks", i32 }>
%"struct.std::__1::__split_buffer" = type { %"struct.std::__1::pair"*, %"struct.std::__1::pair"*, %"struct.std::__1::pair"*, %"class.std::__1::__compressed_pair.54" }
%"class.std::__1::__compressed_pair.54" = type { %"struct.std::__1::__compressed_pair_elem.8", %"struct.std::__1::__compressed_pair_elem.55" }
%"struct.std::__1::__compressed_pair_elem.55" = type { %"class.std::__1::allocator"* }
%"class.std::__1::allocator" = type { i8 }
%"class.std::__1::__vector_base_common" = type { i8 }

$_ZN4base8internal9flat_treeIjNS0_8GetFirstENSt3__14lessIvEENS3_6vectorINS3_4pairIjNS3_10unique_ptrIN3gpu5gles227ReadbackBufferShadowTracker6BufferENS3_14default_deleteISC_EEEEEENS3_9allocatorISG_EEEEE7emplaceIJRjSF_EEENS7_INS3_11__wrap_iterIPSG_EEbEEDpOT_ = comdat any

$_ZNSt3__16vectorINS_4pairIjNS_10unique_ptrIN3gpu5gles227ReadbackBufferShadowTracker6BufferENS_14default_deleteIS6_EEEEEENS_9allocatorISA_EEE7emplaceIJSA_EEENS_11__wrap_iterIPSA_EENSF_IPKSA_EEDpOT_ = comdat any

$_ZNSt3__114__split_bufferINS_4pairIjNS_10unique_ptrIN3gpu5gles227ReadbackBufferShadowTracker6BufferENS_14default_deleteIS6_EEEEEERNS_9allocatorISA_EEE12emplace_backIJSA_EEEvDpOT_ = comdat any

$_ZNSt3__114__split_bufferINS_4pairIjNS_10unique_ptrIN3gpu5gles227ReadbackBufferShadowTracker6BufferENS_14default_deleteIS6_EEEEEERNS_9allocatorISA_EEED2Ev = comdat any

$_ZNSt3__16vectorIN4base7WeakPtrIN3gpu5gles227ReadbackBufferShadowTracker6BufferEEENS_9allocatorIS7_EEE21__push_back_slow_pathIS7_EEvOT_ = comdat any

@_ZN3gpu5gles227ReadbackBufferShadowTracker6BufferC1EjPS1_ = hidden unnamed_addr alias void (%"class.gpu::gles2::ReadbackBufferShadowTracker::Buffer"*, i32, %"class.gpu::gles2::ReadbackBufferShadowTracker"*), void (%"class.gpu::gles2::ReadbackBufferShadowTracker::Buffer"*, i32, %"class.gpu::gles2::ReadbackBufferShadowTracker"*)* @_ZN3gpu5gles227ReadbackBufferShadowTracker6BufferC2EjPS1_
@_ZN3gpu5gles227ReadbackBufferShadowTracker6BufferD1Ev = hidden unnamed_addr alias void (%"class.gpu::gles2::ReadbackBufferShadowTracker::Buffer"*), void (%"class.gpu::gles2::ReadbackBufferShadowTracker::Buffer"*)* @_ZN3gpu5gles227ReadbackBufferShadowTracker6BufferD2Ev
@_ZN3gpu5gles227ReadbackBufferShadowTrackerC1EPNS_19MappedMemoryManagerEPNS0_14GLES2CmdHelperE = hidden unnamed_addr alias void (%"class.gpu::gles2::ReadbackBufferShadowTracker"*, %"class.gpu::MappedMemoryManager"*, %"class.gpu::gles2::GLES2CmdHelper"*), void (%"class.gpu::gles2::ReadbackBufferShadowTracker"*, %"class.gpu::MappedMemoryManager"*, %"class.gpu::gles2::GLES2CmdHelper"*)* @_ZN3gpu5gles227ReadbackBufferShadowTrackerC2EPNS_19MappedMemoryManagerEPNS0_14GLES2CmdHelperE
@_ZN3gpu5gles227ReadbackBufferShadowTrackerD1Ev = hidden unnamed_addr alias void (%"class.gpu::gles2::ReadbackBufferShadowTracker"*), void (%"class.gpu::gles2::ReadbackBufferShadowTracker"*)* @_ZN3gpu5gles227ReadbackBufferShadowTrackerD2Ev

; Function Attrs: nounwind ssp uwtable
define hidden void @_ZN3gpu5gles227ReadbackBufferShadowTracker6BufferC2EjPS1_(%"class.gpu::gles2::ReadbackBufferShadowTracker::Buffer"*, i32, %"class.gpu::gles2::ReadbackBufferShadowTracker"*) unnamed_addr #0 align 2 {
  %4 = getelementptr inbounds %"class.gpu::gles2::ReadbackBufferShadowTracker::Buffer", %"class.gpu::gles2::ReadbackBufferShadowTracker::Buffer"* %0, i64 0, i32 0, i32 0
  tail call void @_ZN4base8internal18WeakReferenceOwnerC1Ev(%"class.base::internal::WeakReferenceOwner"* %4) #11
  %5 = getelementptr inbounds %"class.gpu::gles2::ReadbackBufferShadowTracker::Buffer", %"class.gpu::gles2::ReadbackBufferShadowTracker::Buffer"* %0, i64 0, i32 1
  store i32 %1, i32* %5, align 8
  %6 = getelementptr inbounds %"class.gpu::gles2::ReadbackBufferShadowTracker::Buffer", %"class.gpu::gles2::ReadbackBufferShadowTracker::Buffer"* %0, i64 0, i32 3
  store %"class.gpu::gles2::ReadbackBufferShadowTracker"* %2, %"class.gpu::gles2::ReadbackBufferShadowTracker"** %6, align 8
  %7 = getelementptr inbounds %"class.gpu::gles2::ReadbackBufferShadowTracker::Buffer", %"class.gpu::gles2::ReadbackBufferShadowTracker::Buffer"* %0, i64 0, i32 4
  %8 = getelementptr inbounds %"class.gpu::gles2::ReadbackBufferShadowTracker::Buffer", %"class.gpu::gles2::ReadbackBufferShadowTracker::Buffer"* %0, i64 0, i32 7
  %9 = bitcast i32* %7 to i8*
  call void @llvm.memset.p0i8.i64(i8* align 8 %9, i8 0, i64 16, i1 false)
  %10 = bitcast i64* %8 to <2 x i64>*
  store <2 x i64> <i64 1, i64 0>, <2 x i64>* %10, align 8
  %11 = getelementptr inbounds %"class.gpu::gles2::ReadbackBufferShadowTracker::Buffer", %"class.gpu::gles2::ReadbackBufferShadowTracker::Buffer"* %0, i64 0, i32 9
  store i32 0, i32* %11, align 8
  %12 = getelementptr inbounds %"class.gpu::gles2::ReadbackBufferShadowTracker::Buffer", %"class.gpu::gles2::ReadbackBufferShadowTracker::Buffer"* %0, i64 0, i32 10
  store i8 0, i8* %12, align 4
  ret void
}

; Function Attrs: nounwind ssp uwtable
define hidden void @_ZN3gpu5gles227ReadbackBufferShadowTracker6BufferD2Ev(%"class.gpu::gles2::ReadbackBufferShadowTracker::Buffer"*) unnamed_addr #0 align 2 {
  %2 = getelementptr inbounds %"class.gpu::gles2::ReadbackBufferShadowTracker::Buffer", %"class.gpu::gles2::ReadbackBufferShadowTracker::Buffer"* %0, i64 0, i32 6
  %3 = load i8*, i8** %2, align 8
  %4 = icmp eq i8* %3, null
  br i1 %4, label %14, label %5

5:                                                ; preds = %1
  %6 = getelementptr inbounds %"class.gpu::gles2::ReadbackBufferShadowTracker::Buffer", %"class.gpu::gles2::ReadbackBufferShadowTracker::Buffer"* %0, i64 0, i32 3
  %7 = load %"class.gpu::gles2::ReadbackBufferShadowTracker"*, %"class.gpu::gles2::ReadbackBufferShadowTracker"** %6, align 8
  %8 = getelementptr inbounds %"class.gpu::gles2::ReadbackBufferShadowTracker", %"class.gpu::gles2::ReadbackBufferShadowTracker"* %7, i64 0, i32 3
  %9 = load %"class.gpu::MappedMemoryManager"*, %"class.gpu::MappedMemoryManager"** %8, align 8
  %10 = getelementptr inbounds %"class.gpu::gles2::ReadbackBufferShadowTracker", %"class.gpu::gles2::ReadbackBufferShadowTracker"* %7, i64 0, i32 4
  %11 = bitcast %"class.gpu::gles2::GLES2CmdHelper"** %10 to %"class.gpu::CommandBufferHelper"**
  %12 = load %"class.gpu::CommandBufferHelper"*, %"class.gpu::CommandBufferHelper"** %11, align 8
  %13 = tail call i32 @_ZN3gpu19CommandBufferHelper11InsertTokenEv(%"class.gpu::CommandBufferHelper"* %12) #11
  tail call void @_ZN3gpu19MappedMemoryManager16FreePendingTokenEPvi(%"class.gpu::MappedMemoryManager"* %9, i8* nonnull %3, i32 %13) #11
  br label %14

14:                                               ; preds = %1, %5
  store i8* null, i8** %2, align 8
  %15 = getelementptr inbounds %"class.gpu::gles2::ReadbackBufferShadowTracker::Buffer", %"class.gpu::gles2::ReadbackBufferShadowTracker::Buffer"* %0, i64 0, i32 0, i32 0
  tail call void @_ZN4base8internal18WeakReferenceOwnerD1Ev(%"class.base::internal::WeakReferenceOwner"* %15) #11
  ret void
}

; Function Attrs: nounwind ssp uwtable
define hidden void @_ZN3gpu5gles227ReadbackBufferShadowTracker6Buffer4FreeEv(%"class.gpu::gles2::ReadbackBufferShadowTracker::Buffer"* nocapture) local_unnamed_addr #0 align 2 {
  %2 = getelementptr inbounds %"class.gpu::gles2::ReadbackBufferShadowTracker::Buffer", %"class.gpu::gles2::ReadbackBufferShadowTracker::Buffer"* %0, i64 0, i32 6
  %3 = load i8*, i8** %2, align 8
  %4 = icmp eq i8* %3, null
  br i1 %4, label %14, label %5

5:                                                ; preds = %1
  %6 = getelementptr inbounds %"class.gpu::gles2::ReadbackBufferShadowTracker::Buffer", %"class.gpu::gles2::ReadbackBufferShadowTracker::Buffer"* %0, i64 0, i32 3
  %7 = load %"class.gpu::gles2::ReadbackBufferShadowTracker"*, %"class.gpu::gles2::ReadbackBufferShadowTracker"** %6, align 8
  %8 = getelementptr inbounds %"class.gpu::gles2::ReadbackBufferShadowTracker", %"class.gpu::gles2::ReadbackBufferShadowTracker"* %7, i64 0, i32 3
  %9 = load %"class.gpu::MappedMemoryManager"*, %"class.gpu::MappedMemoryManager"** %8, align 8
  %10 = getelementptr inbounds %"class.gpu::gles2::ReadbackBufferShadowTracker", %"class.gpu::gles2::ReadbackBufferShadowTracker"* %7, i64 0, i32 4
  %11 = bitcast %"class.gpu::gles2::GLES2CmdHelper"** %10 to %"class.gpu::CommandBufferHelper"**
  %12 = load %"class.gpu::CommandBufferHelper"*, %"class.gpu::CommandBufferHelper"** %11, align 8
  %13 = tail call i32 @_ZN3gpu19CommandBufferHelper11InsertTokenEv(%"class.gpu::CommandBufferHelper"* %12) #11
  tail call void @_ZN3gpu19MappedMemoryManager16FreePendingTokenEPvi(%"class.gpu::MappedMemoryManager"* %9, i8* nonnull %3, i32 %13) #11
  br label %14

14:                                               ; preds = %1, %5
  store i8* null, i8** %2, align 8
  ret void
}

; Function Attrs: nounwind ssp uwtable
define hidden i32 @_ZN3gpu5gles227ReadbackBufferShadowTracker6Buffer5AllocEPiPjPb(%"class.gpu::gles2::ReadbackBufferShadowTracker::Buffer"*, i32* nocapture, i32* nocapture, i8* nocapture) local_unnamed_addr #0 align 2 {
  %5 = getelementptr inbounds %"class.gpu::gles2::ReadbackBufferShadowTracker::Buffer", %"class.gpu::gles2::ReadbackBufferShadowTracker::Buffer"* %0, i64 0, i32 6
  %6 = load i8*, i8** %5, align 8
  %7 = icmp ne i8* %6, null
  %8 = zext i1 %7 to i8
  store i8 %8, i8* %3, align 1
  %9 = load i8*, i8** %5, align 8
  %10 = icmp eq i8* %9, null
  br i1 %10, label %11, label %21

11:                                               ; preds = %4
  %12 = getelementptr inbounds %"class.gpu::gles2::ReadbackBufferShadowTracker::Buffer", %"class.gpu::gles2::ReadbackBufferShadowTracker::Buffer"* %0, i64 0, i32 3
  %13 = load %"class.gpu::gles2::ReadbackBufferShadowTracker"*, %"class.gpu::gles2::ReadbackBufferShadowTracker"** %12, align 8
  %14 = getelementptr inbounds %"class.gpu::gles2::ReadbackBufferShadowTracker", %"class.gpu::gles2::ReadbackBufferShadowTracker"* %13, i64 0, i32 3
  %15 = load %"class.gpu::MappedMemoryManager"*, %"class.gpu::MappedMemoryManager"** %14, align 8
  %16 = getelementptr inbounds %"class.gpu::gles2::ReadbackBufferShadowTracker::Buffer", %"class.gpu::gles2::ReadbackBufferShadowTracker::Buffer"* %0, i64 0, i32 9
  %17 = load i32, i32* %16, align 8
  %18 = getelementptr inbounds %"class.gpu::gles2::ReadbackBufferShadowTracker::Buffer", %"class.gpu::gles2::ReadbackBufferShadowTracker::Buffer"* %0, i64 0, i32 4
  %19 = getelementptr inbounds %"class.gpu::gles2::ReadbackBufferShadowTracker::Buffer", %"class.gpu::gles2::ReadbackBufferShadowTracker::Buffer"* %0, i64 0, i32 5
  %20 = tail call i8* @_ZN3gpu19MappedMemoryManager5AllocEjPiPjNS_30TransferBufferAllocationOptionE(%"class.gpu::MappedMemoryManager"* %15, i32 %17, i32* %18, i32* %19, i8 signext 0) #11
  store i8* %20, i8** %5, align 8
  br label %21

21:                                               ; preds = %4, %11
  %22 = getelementptr inbounds %"class.gpu::gles2::ReadbackBufferShadowTracker::Buffer", %"class.gpu::gles2::ReadbackBufferShadowTracker::Buffer"* %0, i64 0, i32 4
  %23 = load i32, i32* %22, align 8
  store i32 %23, i32* %1, align 4
  %24 = getelementptr inbounds %"class.gpu::gles2::ReadbackBufferShadowTracker::Buffer", %"class.gpu::gles2::ReadbackBufferShadowTracker::Buffer"* %0, i64 0, i32 5
  %25 = load i32, i32* %24, align 4
  store i32 %25, i32* %2, align 4
  %26 = getelementptr inbounds %"class.gpu::gles2::ReadbackBufferShadowTracker::Buffer", %"class.gpu::gles2::ReadbackBufferShadowTracker::Buffer"* %0, i64 0, i32 9
  %27 = load i32, i32* %26, align 8
  ret i32 %27
}

declare i8* @_ZN3gpu19MappedMemoryManager5AllocEjPiPjNS_30TransferBufferAllocationOptionE(%"class.gpu::MappedMemoryManager"*, i32, i32*, i32*, i8 signext) local_unnamed_addr #1

declare void @_ZN3gpu19MappedMemoryManager16FreePendingTokenEPvi(%"class.gpu::MappedMemoryManager"*, i8*, i32) local_unnamed_addr #1

declare i32 @_ZN3gpu19CommandBufferHelper11InsertTokenEv(%"class.gpu::CommandBufferHelper"*) local_unnamed_addr #1

; Function Attrs: nofree norecurse nounwind ssp uwtable
define hidden i8* @_ZN3gpu5gles227ReadbackBufferShadowTracker6Buffer14MapReadbackShmEjj(%"class.gpu::gles2::ReadbackBufferShadowTracker::Buffer"* nocapture, i32, i32) local_unnamed_addr #2 align 2 {
  %4 = getelementptr inbounds %"class.gpu::gles2::ReadbackBufferShadowTracker::Buffer", %"class.gpu::gles2::ReadbackBufferShadowTracker::Buffer"* %0, i64 0, i32 8
  %5 = load i64, i64* %4, align 8
  %6 = getelementptr inbounds %"class.gpu::gles2::ReadbackBufferShadowTracker::Buffer", %"class.gpu::gles2::ReadbackBufferShadowTracker::Buffer"* %0, i64 0, i32 7
  %7 = load i64, i64* %6, align 8
  %8 = icmp eq i64 %5, %7
  br i1 %8, label %9, label %24

9:                                                ; preds = %3
  %10 = getelementptr inbounds %"class.gpu::gles2::ReadbackBufferShadowTracker::Buffer", %"class.gpu::gles2::ReadbackBufferShadowTracker::Buffer"* %0, i64 0, i32 6
  %11 = load i8*, i8** %10, align 8
  %12 = icmp eq i8* %11, null
  br i1 %12, label %24, label %13

13:                                               ; preds = %9
  %14 = getelementptr inbounds %"class.gpu::gles2::ReadbackBufferShadowTracker::Buffer", %"class.gpu::gles2::ReadbackBufferShadowTracker::Buffer"* %0, i64 0, i32 9
  %15 = load i32, i32* %14, align 8
  %16 = icmp ult i32 %15, %2
  %17 = sub i32 %15, %2
  %18 = icmp ult i32 %17, %1
  %19 = or i1 %16, %18
  br i1 %19, label %24, label %20

20:                                               ; preds = %13
  %21 = getelementptr inbounds %"class.gpu::gles2::ReadbackBufferShadowTracker::Buffer", %"class.gpu::gles2::ReadbackBufferShadowTracker::Buffer"* %0, i64 0, i32 10
  store i8 1, i8* %21, align 4
  %22 = zext i32 %1 to i64
  %23 = getelementptr inbounds i8, i8* %11, i64 %22
  br label %24

24:                                               ; preds = %13, %9, %3, %20
  %25 = phi i8* [ %23, %20 ], [ null, %3 ], [ null, %9 ], [ null, %13 ]
  ret i8* %25
}

; Function Attrs: nounwind ssp uwtable
define hidden zeroext i1 @_ZN3gpu5gles227ReadbackBufferShadowTracker6Buffer16UnmapReadbackShmEv(%"class.gpu::gles2::ReadbackBufferShadowTracker::Buffer"* nocapture) local_unnamed_addr #0 align 2 {
  %2 = getelementptr inbounds %"class.gpu::gles2::ReadbackBufferShadowTracker::Buffer", %"class.gpu::gles2::ReadbackBufferShadowTracker::Buffer"* %0, i64 0, i32 6
  %3 = load i8*, i8** %2, align 8
  %4 = icmp eq i8* %3, null
  br i1 %4, label %14, label %5

5:                                                ; preds = %1
  %6 = getelementptr inbounds %"class.gpu::gles2::ReadbackBufferShadowTracker::Buffer", %"class.gpu::gles2::ReadbackBufferShadowTracker::Buffer"* %0, i64 0, i32 3
  %7 = load %"class.gpu::gles2::ReadbackBufferShadowTracker"*, %"class.gpu::gles2::ReadbackBufferShadowTracker"** %6, align 8
  %8 = getelementptr inbounds %"class.gpu::gles2::ReadbackBufferShadowTracker", %"class.gpu::gles2::ReadbackBufferShadowTracker"* %7, i64 0, i32 3
  %9 = load %"class.gpu::MappedMemoryManager"*, %"class.gpu::MappedMemoryManager"** %8, align 8
  %10 = getelementptr inbounds %"class.gpu::gles2::ReadbackBufferShadowTracker", %"class.gpu::gles2::ReadbackBufferShadowTracker"* %7, i64 0, i32 4
  %11 = bitcast %"class.gpu::gles2::GLES2CmdHelper"** %10 to %"class.gpu::CommandBufferHelper"**
  %12 = load %"class.gpu::CommandBufferHelper"*, %"class.gpu::CommandBufferHelper"** %11, align 8
  %13 = tail call i32 @_ZN3gpu19CommandBufferHelper11InsertTokenEv(%"class.gpu::CommandBufferHelper"* %12) #11
  tail call void @_ZN3gpu19MappedMemoryManager16FreePendingTokenEPvi(%"class.gpu::MappedMemoryManager"* %9, i8* nonnull %3, i32 %13) #11
  br label %14

14:                                               ; preds = %1, %5
  store i8* null, i8** %2, align 8
  %15 = getelementptr inbounds %"class.gpu::gles2::ReadbackBufferShadowTracker::Buffer", %"class.gpu::gles2::ReadbackBufferShadowTracker::Buffer"* %0, i64 0, i32 10
  %16 = load i8, i8* %15, align 4, !range !2
  %17 = icmp ne i8 %16, 0
  store i8 0, i8* %15, align 4
  ret i1 %17
}

; Function Attrs: argmemonly nounwind
declare void @llvm.lifetime.start.p0i8(i64 immarg, i8* nocapture) #3

; Function Attrs: argmemonly nounwind
declare void @llvm.lifetime.end.p0i8(i64 immarg, i8* nocapture) #3

; Function Attrs: nofree norecurse nounwind ssp uwtable writeonly
define hidden void @_ZN3gpu5gles227ReadbackBufferShadowTracker6Buffer14UpdateSerialToEm(%"class.gpu::gles2::ReadbackBufferShadowTracker::Buffer"* nocapture, i64) local_unnamed_addr #4 align 2 {
  %3 = getelementptr inbounds %"class.gpu::gles2::ReadbackBufferShadowTracker::Buffer", %"class.gpu::gles2::ReadbackBufferShadowTracker::Buffer"* %0, i64 0, i32 8
  store i64 %1, i64* %3, align 8
  ret void
}

; Function Attrs: nounwind ssp uwtable
define hidden void @_ZN3gpu5gles227ReadbackBufferShadowTrackerC2EPNS_19MappedMemoryManagerEPNS0_14GLES2CmdHelperE(%"class.gpu::gles2::ReadbackBufferShadowTracker"* nocapture, %"class.gpu::MappedMemoryManager"*, %"class.gpu::gles2::GLES2CmdHelper"*) unnamed_addr #0 align 2 {
  %4 = getelementptr inbounds %"class.gpu::gles2::ReadbackBufferShadowTracker", %"class.gpu::gles2::ReadbackBufferShadowTracker"* %0, i64 0, i32 2
  %5 = bitcast %"class.gpu::gles2::ReadbackBufferShadowTracker"* %0 to i8*
  call void @llvm.memset.p0i8.i64(i8* align 8 %5, i8 0, i64 48, i1 false)
  store i64 1, i64* %4, align 8
  %6 = getelementptr inbounds %"class.gpu::gles2::ReadbackBufferShadowTracker", %"class.gpu::gles2::ReadbackBufferShadowTracker"* %0, i64 0, i32 3
  store %"class.gpu::MappedMemoryManager"* %1, %"class.gpu::MappedMemoryManager"** %6, align 8
  %7 = getelementptr inbounds %"class.gpu::gles2::ReadbackBufferShadowTracker", %"class.gpu::gles2::ReadbackBufferShadowTracker"* %0, i64 0, i32 4
  store %"class.gpu::gles2::GLES2CmdHelper"* %2, %"class.gpu::gles2::GLES2CmdHelper"** %7, align 8
  ret void
}

; Function Attrs: nounwind ssp uwtable
define hidden void @_ZN3gpu5gles227ReadbackBufferShadowTrackerD2Ev(%"class.gpu::gles2::ReadbackBufferShadowTracker"* nocapture) unnamed_addr #0 align 2 {
  %2 = getelementptr inbounds %"class.gpu::gles2::ReadbackBufferShadowTracker", %"class.gpu::gles2::ReadbackBufferShadowTracker"* %0, i64 0, i32 1
  %3 = getelementptr inbounds %"class.std::__1::vector.10", %"class.std::__1::vector.10"* %2, i64 0, i32 0, i32 0
  %4 = load %"class.base::WeakPtr"*, %"class.base::WeakPtr"** %3, align 8
  %5 = icmp eq %"class.base::WeakPtr"* %4, null
  br i1 %5, label %21, label %6

6:                                                ; preds = %1
  %7 = bitcast %"class.base::WeakPtr"* %4 to i8*
  %8 = getelementptr inbounds %"class.gpu::gles2::ReadbackBufferShadowTracker", %"class.gpu::gles2::ReadbackBufferShadowTracker"* %0, i64 0, i32 1, i32 0, i32 1
  %9 = load %"class.base::WeakPtr"*, %"class.base::WeakPtr"** %8, align 8
  %10 = icmp eq %"class.base::WeakPtr"* %9, %4
  br i1 %10, label %19, label %11

11:                                               ; preds = %6, %11
  %12 = phi %"class.base::WeakPtr"* [ %13, %11 ], [ %9, %6 ]
  %13 = getelementptr inbounds %"class.base::WeakPtr", %"class.base::WeakPtr"* %12, i64 -1
  %14 = getelementptr inbounds %"class.base::WeakPtr", %"class.base::WeakPtr"* %13, i64 0, i32 0
  tail call void @_ZN4base8internal11WeakPtrBaseD2Ev(%"class.base::internal::WeakPtrBase"* %14) #11
  %15 = icmp eq %"class.base::WeakPtr"* %13, %4
  br i1 %15, label %16, label %11

16:                                               ; preds = %11
  %17 = bitcast %"class.std::__1::vector.10"* %2 to i8**
  %18 = load i8*, i8** %17, align 8
  br label %19

19:                                               ; preds = %16, %6
  %20 = phi i8* [ %18, %16 ], [ %7, %6 ]
  store %"class.base::WeakPtr"* %4, %"class.base::WeakPtr"** %8, align 8
  tail call void @_ZdlPv(i8* %20) #12
  br label %21

21:                                               ; preds = %1, %19
  %22 = getelementptr inbounds %"class.gpu::gles2::ReadbackBufferShadowTracker", %"class.gpu::gles2::ReadbackBufferShadowTracker"* %0, i64 0, i32 0, i32 0, i32 0, i32 0, i32 0
  %23 = load %"struct.std::__1::pair"*, %"struct.std::__1::pair"** %22, align 8
  %24 = icmp eq %"struct.std::__1::pair"* %23, null
  br i1 %24, label %59, label %25

25:                                               ; preds = %21
  %26 = bitcast %"struct.std::__1::pair"* %23 to i8*
  %27 = getelementptr inbounds %"class.gpu::gles2::ReadbackBufferShadowTracker", %"class.gpu::gles2::ReadbackBufferShadowTracker"* %0, i64 0, i32 0, i32 0, i32 0, i32 0, i32 1
  %28 = load %"struct.std::__1::pair"*, %"struct.std::__1::pair"** %27, align 8
  %29 = icmp eq %"struct.std::__1::pair"* %28, %23
  br i1 %29, label %57, label %30

30:                                               ; preds = %25, %52
  %31 = phi %"struct.std::__1::pair"* [ %32, %52 ], [ %28, %25 ]
  %32 = getelementptr inbounds %"struct.std::__1::pair", %"struct.std::__1::pair"* %31, i64 -1
  %33 = getelementptr inbounds %"struct.std::__1::pair", %"struct.std::__1::pair"* %31, i64 -1, i32 1, i32 0, i32 0, i32 0
  %34 = load %"class.gpu::gles2::ReadbackBufferShadowTracker::Buffer"*, %"class.gpu::gles2::ReadbackBufferShadowTracker::Buffer"** %33, align 8
  store %"class.gpu::gles2::ReadbackBufferShadowTracker::Buffer"* null, %"class.gpu::gles2::ReadbackBufferShadowTracker::Buffer"** %33, align 8
  %35 = icmp eq %"class.gpu::gles2::ReadbackBufferShadowTracker::Buffer"* %34, null
  br i1 %35, label %52, label %36

36:                                               ; preds = %30
  %37 = getelementptr inbounds %"class.gpu::gles2::ReadbackBufferShadowTracker::Buffer", %"class.gpu::gles2::ReadbackBufferShadowTracker::Buffer"* %34, i64 0, i32 6
  %38 = load i8*, i8** %37, align 8
  %39 = icmp eq i8* %38, null
  br i1 %39, label %49, label %40

40:                                               ; preds = %36
  %41 = getelementptr inbounds %"class.gpu::gles2::ReadbackBufferShadowTracker::Buffer", %"class.gpu::gles2::ReadbackBufferShadowTracker::Buffer"* %34, i64 0, i32 3
  %42 = load %"class.gpu::gles2::ReadbackBufferShadowTracker"*, %"class.gpu::gles2::ReadbackBufferShadowTracker"** %41, align 8
  %43 = getelementptr inbounds %"class.gpu::gles2::ReadbackBufferShadowTracker", %"class.gpu::gles2::ReadbackBufferShadowTracker"* %42, i64 0, i32 3
  %44 = load %"class.gpu::MappedMemoryManager"*, %"class.gpu::MappedMemoryManager"** %43, align 8
  %45 = getelementptr inbounds %"class.gpu::gles2::ReadbackBufferShadowTracker", %"class.gpu::gles2::ReadbackBufferShadowTracker"* %42, i64 0, i32 4
  %46 = bitcast %"class.gpu::gles2::GLES2CmdHelper"** %45 to %"class.gpu::CommandBufferHelper"**
  %47 = load %"class.gpu::CommandBufferHelper"*, %"class.gpu::CommandBufferHelper"** %46, align 8
  %48 = tail call i32 @_ZN3gpu19CommandBufferHelper11InsertTokenEv(%"class.gpu::CommandBufferHelper"* %47) #11
  tail call void @_ZN3gpu19MappedMemoryManager16FreePendingTokenEPvi(%"class.gpu::MappedMemoryManager"* %44, i8* nonnull %38, i32 %48) #11
  br label %49

49:                                               ; preds = %40, %36
  store i8* null, i8** %37, align 8
  %50 = getelementptr inbounds %"class.gpu::gles2::ReadbackBufferShadowTracker::Buffer", %"class.gpu::gles2::ReadbackBufferShadowTracker::Buffer"* %34, i64 0, i32 0, i32 0
  tail call void @_ZN4base8internal18WeakReferenceOwnerD1Ev(%"class.base::internal::WeakReferenceOwner"* %50) #11
  %51 = bitcast %"class.gpu::gles2::ReadbackBufferShadowTracker::Buffer"* %34 to i8*
  tail call void @_ZdlPv(i8* %51) #12
  br label %52

52:                                               ; preds = %49, %30
  %53 = icmp eq %"struct.std::__1::pair"* %32, %23
  br i1 %53, label %54, label %30

54:                                               ; preds = %52
  %55 = bitcast %"class.gpu::gles2::ReadbackBufferShadowTracker"* %0 to i8**
  %56 = load i8*, i8** %55, align 8
  br label %57

57:                                               ; preds = %25, %54
  %58 = phi i8* [ %56, %54 ], [ %26, %25 ]
  store %"struct.std::__1::pair"* %23, %"struct.std::__1::pair"** %27, align 8
  tail call void @_ZdlPv(i8* %58) #12
  br label %59

59:                                               ; preds = %21, %57
  ret void
}

; Function Attrs: nounwind ssp uwtable
define hidden %"class.gpu::gles2::ReadbackBufferShadowTracker::Buffer"* @_ZN3gpu5gles227ReadbackBufferShadowTracker17GetOrCreateBufferEjj(%"class.gpu::gles2::ReadbackBufferShadowTracker"*, i32, i32) local_unnamed_addr #0 align 2 {
  %4 = alloca i32, align 4
  %5 = alloca %"class.std::__1::unique_ptr", align 8
  store i32 %1, i32* %4, align 4
  %6 = getelementptr inbounds %"class.gpu::gles2::ReadbackBufferShadowTracker", %"class.gpu::gles2::ReadbackBufferShadowTracker"* %0, i64 0, i32 0, i32 0, i32 0, i32 0, i32 0
  %7 = load %"struct.std::__1::pair"*, %"struct.std::__1::pair"** %6, align 8
  %8 = getelementptr inbounds %"class.gpu::gles2::ReadbackBufferShadowTracker", %"class.gpu::gles2::ReadbackBufferShadowTracker"* %0, i64 0, i32 0, i32 0, i32 0, i32 0, i32 1
  %9 = bitcast %"struct.std::__1::pair"** %8 to i64*
  %10 = load i64, i64* %9, align 8
  %11 = ptrtoint %"struct.std::__1::pair"* %7 to i64
  %12 = sub i64 %10, %11
  %13 = icmp eq i64 %12, 0
  %14 = inttoptr i64 %10 to %"struct.std::__1::pair"*
  br i1 %13, label %33, label %15

15:                                               ; preds = %3
  %16 = ashr exact i64 %12, 4
  br label %17

17:                                               ; preds = %17, %15
  %18 = phi %"struct.std::__1::pair"* [ %7, %15 ], [ %29, %17 ]
  %19 = phi i64 [ %16, %15 ], [ %28, %17 ]
  %20 = lshr i64 %19, 1
  %21 = getelementptr inbounds %"struct.std::__1::pair", %"struct.std::__1::pair"* %18, i64 %20
  %22 = getelementptr inbounds %"struct.std::__1::pair", %"struct.std::__1::pair"* %21, i64 0, i32 0
  %23 = load i32, i32* %22, align 4
  %24 = icmp ult i32 %23, %1
  %25 = getelementptr inbounds %"struct.std::__1::pair", %"struct.std::__1::pair"* %21, i64 1
  %26 = xor i64 %20, -1
  %27 = add i64 %19, %26
  %28 = select i1 %24, i64 %27, i64 %20
  %29 = select i1 %24, %"struct.std::__1::pair"* %25, %"struct.std::__1::pair"* %18
  %30 = icmp eq i64 %28, 0
  br i1 %30, label %31, label %17

31:                                               ; preds = %17
  %32 = ptrtoint %"struct.std::__1::pair"* %29 to i64
  br label %33

33:                                               ; preds = %31, %3
  %34 = phi i64 [ %32, %31 ], [ %11, %3 ]
  %35 = phi %"struct.std::__1::pair"* [ %29, %31 ], [ %7, %3 ]
  %36 = icmp eq %"struct.std::__1::pair"* %35, %14
  br i1 %36, label %44, label %37

37:                                               ; preds = %33
  %38 = getelementptr inbounds %"struct.std::__1::pair", %"struct.std::__1::pair"* %35, i64 0, i32 0
  %39 = load i32, i32* %38, align 4
  %40 = icmp ugt i32 %39, %1
  br i1 %40, label %44, label %41

41:                                               ; preds = %37
  %42 = getelementptr inbounds %"struct.std::__1::pair", %"struct.std::__1::pair"* %35, i64 1
  %43 = ptrtoint %"struct.std::__1::pair"* %42 to i64
  br label %44

44:                                               ; preds = %41, %37, %33
  %45 = phi i64 [ %43, %41 ], [ %34, %33 ], [ %34, %37 ]
  %46 = inttoptr i64 %45 to %"struct.std::__1::pair"*
  %47 = icmp eq %"struct.std::__1::pair"* %35, %46
  %48 = select i1 %47, %"struct.std::__1::pair"* %14, %"struct.std::__1::pair"* %35
  %49 = icmp eq %"struct.std::__1::pair"* %48, %14
  br i1 %49, label %68, label %50

50:                                               ; preds = %44
  %51 = getelementptr inbounds %"struct.std::__1::pair", %"struct.std::__1::pair"* %48, i64 0, i32 1, i32 0, i32 0, i32 0
  %52 = load %"class.gpu::gles2::ReadbackBufferShadowTracker::Buffer"*, %"class.gpu::gles2::ReadbackBufferShadowTracker::Buffer"** %51, align 8
  %53 = icmp eq %"class.gpu::gles2::ReadbackBufferShadowTracker::Buffer"* %52, null
  br i1 %53, label %68, label %54

54:                                               ; preds = %50
  %55 = getelementptr inbounds %"class.gpu::gles2::ReadbackBufferShadowTracker::Buffer", %"class.gpu::gles2::ReadbackBufferShadowTracker::Buffer"* %52, i64 0, i32 6
  %56 = load i8*, i8** %55, align 8
  %57 = icmp eq i8* %56, null
  br i1 %57, label %67, label %58

58:                                               ; preds = %54
  %59 = getelementptr inbounds %"class.gpu::gles2::ReadbackBufferShadowTracker::Buffer", %"class.gpu::gles2::ReadbackBufferShadowTracker::Buffer"* %52, i64 0, i32 3
  %60 = load %"class.gpu::gles2::ReadbackBufferShadowTracker"*, %"class.gpu::gles2::ReadbackBufferShadowTracker"** %59, align 8
  %61 = getelementptr inbounds %"class.gpu::gles2::ReadbackBufferShadowTracker", %"class.gpu::gles2::ReadbackBufferShadowTracker"* %60, i64 0, i32 3
  %62 = load %"class.gpu::MappedMemoryManager"*, %"class.gpu::MappedMemoryManager"** %61, align 8
  %63 = getelementptr inbounds %"class.gpu::gles2::ReadbackBufferShadowTracker", %"class.gpu::gles2::ReadbackBufferShadowTracker"* %60, i64 0, i32 4
  %64 = bitcast %"class.gpu::gles2::GLES2CmdHelper"** %63 to %"class.gpu::CommandBufferHelper"**
  %65 = load %"class.gpu::CommandBufferHelper"*, %"class.gpu::CommandBufferHelper"** %64, align 8
  %66 = tail call i32 @_ZN3gpu19CommandBufferHelper11InsertTokenEv(%"class.gpu::CommandBufferHelper"* %65) #11
  tail call void @_ZN3gpu19MappedMemoryManager16FreePendingTokenEPvi(%"class.gpu::MappedMemoryManager"* %62, i8* nonnull %56, i32 %66) #11
  br label %67

67:                                               ; preds = %54, %58
  store i8* null, i8** %55, align 8
  br label %107

68:                                               ; preds = %44, %50
  %69 = tail call i8* @_Znwm(i64 64) #12
  %70 = bitcast i8* %69 to %"class.gpu::gles2::ReadbackBufferShadowTracker::Buffer"*
  %71 = bitcast i8* %69 to %"class.base::internal::WeakReferenceOwner"*
  tail call void @_ZN4base8internal18WeakReferenceOwnerC1Ev(%"class.base::internal::WeakReferenceOwner"* nonnull %71) #11
  %72 = getelementptr inbounds i8, i8* %69, i64 8
  %73 = bitcast i8* %72 to i32*
  store i32 %1, i32* %73, align 8
  %74 = getelementptr inbounds i8, i8* %69, i64 16
  %75 = bitcast i8* %74 to %"class.gpu::gles2::ReadbackBufferShadowTracker"**
  store %"class.gpu::gles2::ReadbackBufferShadowTracker"* %0, %"class.gpu::gles2::ReadbackBufferShadowTracker"** %75, align 8
  %76 = getelementptr inbounds i8, i8* %69, i64 24
  %77 = getelementptr inbounds i8, i8* %69, i64 40
  tail call void @llvm.memset.p0i8.i64(i8* align 8 %76, i8 0, i64 16, i1 false) #11
  %78 = bitcast i8* %77 to <2 x i64>*
  store <2 x i64> <i64 1, i64 0>, <2 x i64>* %78, align 8
  %79 = getelementptr inbounds i8, i8* %69, i64 56
  %80 = bitcast i8* %79 to i32*
  store i32 0, i32* %80, align 8
  %81 = getelementptr inbounds i8, i8* %69, i64 60
  store i8 0, i8* %81, align 4
  %82 = getelementptr inbounds %"class.gpu::gles2::ReadbackBufferShadowTracker", %"class.gpu::gles2::ReadbackBufferShadowTracker"* %0, i64 0, i32 0, i32 0
  %83 = bitcast %"class.std::__1::unique_ptr"* %5 to i8*
  call void @llvm.lifetime.start.p0i8(i64 8, i8* nonnull %83) #11
  %84 = getelementptr inbounds %"class.std::__1::unique_ptr", %"class.std::__1::unique_ptr"* %5, i64 0, i32 0, i32 0, i32 0
  %85 = bitcast %"class.std::__1::unique_ptr"* %5 to i8**
  store i8* %69, i8** %85, align 8
  %86 = call { %"struct.std::__1::pair"*, i8 } @_ZN4base8internal9flat_treeIjNS0_8GetFirstENSt3__14lessIvEENS3_6vectorINS3_4pairIjNS3_10unique_ptrIN3gpu5gles227ReadbackBufferShadowTracker6BufferENS3_14default_deleteISC_EEEEEENS3_9allocatorISG_EEEEE7emplaceIJRjSF_EEENS7_INS3_11__wrap_iterIPSG_EEbEEDpOT_(%"class.base::internal::flat_tree"* %82, i32* nonnull dereferenceable(4) %4, %"class.std::__1::unique_ptr"* nonnull dereferenceable(8) %5)
  %87 = load %"class.gpu::gles2::ReadbackBufferShadowTracker::Buffer"*, %"class.gpu::gles2::ReadbackBufferShadowTracker::Buffer"** %84, align 8
  store %"class.gpu::gles2::ReadbackBufferShadowTracker::Buffer"* null, %"class.gpu::gles2::ReadbackBufferShadowTracker::Buffer"** %84, align 8
  %88 = icmp eq %"class.gpu::gles2::ReadbackBufferShadowTracker::Buffer"* %87, null
  br i1 %88, label %105, label %89

89:                                               ; preds = %68
  %90 = getelementptr inbounds %"class.gpu::gles2::ReadbackBufferShadowTracker::Buffer", %"class.gpu::gles2::ReadbackBufferShadowTracker::Buffer"* %87, i64 0, i32 6
  %91 = load i8*, i8** %90, align 8
  %92 = icmp eq i8* %91, null
  br i1 %92, label %102, label %93

93:                                               ; preds = %89
  %94 = getelementptr inbounds %"class.gpu::gles2::ReadbackBufferShadowTracker::Buffer", %"class.gpu::gles2::ReadbackBufferShadowTracker::Buffer"* %87, i64 0, i32 3
  %95 = load %"class.gpu::gles2::ReadbackBufferShadowTracker"*, %"class.gpu::gles2::ReadbackBufferShadowTracker"** %94, align 8
  %96 = getelementptr inbounds %"class.gpu::gles2::ReadbackBufferShadowTracker", %"class.gpu::gles2::ReadbackBufferShadowTracker"* %95, i64 0, i32 3
  %97 = load %"class.gpu::MappedMemoryManager"*, %"class.gpu::MappedMemoryManager"** %96, align 8
  %98 = getelementptr inbounds %"class.gpu::gles2::ReadbackBufferShadowTracker", %"class.gpu::gles2::ReadbackBufferShadowTracker"* %95, i64 0, i32 4
  %99 = bitcast %"class.gpu::gles2::GLES2CmdHelper"** %98 to %"class.gpu::CommandBufferHelper"**
  %100 = load %"class.gpu::CommandBufferHelper"*, %"class.gpu::CommandBufferHelper"** %99, align 8
  %101 = call i32 @_ZN3gpu19CommandBufferHelper11InsertTokenEv(%"class.gpu::CommandBufferHelper"* %100) #11
  call void @_ZN3gpu19MappedMemoryManager16FreePendingTokenEPvi(%"class.gpu::MappedMemoryManager"* %97, i8* nonnull %91, i32 %101) #11
  br label %102

102:                                              ; preds = %93, %89
  store i8* null, i8** %90, align 8
  %103 = getelementptr inbounds %"class.gpu::gles2::ReadbackBufferShadowTracker::Buffer", %"class.gpu::gles2::ReadbackBufferShadowTracker::Buffer"* %87, i64 0, i32 0, i32 0
  call void @_ZN4base8internal18WeakReferenceOwnerD1Ev(%"class.base::internal::WeakReferenceOwner"* %103) #11
  %104 = bitcast %"class.gpu::gles2::ReadbackBufferShadowTracker::Buffer"* %87 to i8*
  call void @_ZdlPv(i8* %104) #12
  br label %105

105:                                              ; preds = %68, %102
  call void @llvm.lifetime.end.p0i8(i64 8, i8* nonnull %83) #11
  %106 = load i32, i32* %4, align 4
  br label %107

107:                                              ; preds = %105, %67
  %108 = phi i32 [ %1, %67 ], [ %106, %105 ]
  %109 = phi %"class.gpu::gles2::ReadbackBufferShadowTracker::Buffer"* [ %52, %67 ], [ %70, %105 ]
  %110 = getelementptr inbounds %"class.gpu::gles2::ReadbackBufferShadowTracker::Buffer", %"class.gpu::gles2::ReadbackBufferShadowTracker::Buffer"* %109, i64 0, i32 9
  store i32 %2, i32* %110, align 8
  call void @_ZN3gpu5gles227ReadbackBufferShadowTracker13OnBufferWriteEj(%"class.gpu::gles2::ReadbackBufferShadowTracker"* %0, i32 %108)
  ret %"class.gpu::gles2::ReadbackBufferShadowTracker::Buffer"* %109
}

; Function Attrs: nobuiltin nofree
declare noalias nonnull i8* @_Znwm(i64) local_unnamed_addr #5

; Function Attrs: nounwind ssp uwtable
define linkonce_odr hidden { %"struct.std::__1::pair"*, i8 } @_ZN4base8internal9flat_treeIjNS0_8GetFirstENSt3__14lessIvEENS3_6vectorINS3_4pairIjNS3_10unique_ptrIN3gpu5gles227ReadbackBufferShadowTracker6BufferENS3_14default_deleteISC_EEEEEENS3_9allocatorISG_EEEEE7emplaceIJRjSF_EEENS7_INS3_11__wrap_iterIPSG_EEbEEDpOT_(%"class.base::internal::flat_tree"*, i32* dereferenceable(4), %"class.std::__1::unique_ptr"* dereferenceable(8)) local_unnamed_addr #0 comdat align 2 {
  %4 = alloca %"struct.std::__1::pair", align 8
  %5 = bitcast %"struct.std::__1::pair"* %4 to i8*
  call void @llvm.lifetime.start.p0i8(i64 16, i8* nonnull %5) #11
  %6 = getelementptr inbounds %"struct.std::__1::pair", %"struct.std::__1::pair"* %4, i64 0, i32 0
  %7 = load i32, i32* %1, align 4
  store i32 %7, i32* %6, align 8
  %8 = getelementptr inbounds %"struct.std::__1::pair", %"struct.std::__1::pair"* %4, i64 0, i32 1
  %9 = getelementptr inbounds %"class.std::__1::unique_ptr", %"class.std::__1::unique_ptr"* %2, i64 0, i32 0, i32 0, i32 0
  %10 = bitcast %"class.std::__1::unique_ptr"* %2 to i64*
  %11 = load i64, i64* %10, align 8
  store %"class.gpu::gles2::ReadbackBufferShadowTracker::Buffer"* null, %"class.gpu::gles2::ReadbackBufferShadowTracker::Buffer"** %9, align 8
  %12 = bitcast %"class.std::__1::unique_ptr"* %8 to i64*
  store i64 %11, i64* %12, align 8
  %13 = getelementptr inbounds %"class.base::internal::flat_tree", %"class.base::internal::flat_tree"* %0, i64 0, i32 0, i32 0, i32 0
  %14 = load %"struct.std::__1::pair"*, %"struct.std::__1::pair"** %13, align 8
  %15 = getelementptr inbounds %"class.base::internal::flat_tree", %"class.base::internal::flat_tree"* %0, i64 0, i32 0, i32 0, i32 1
  %16 = bitcast %"struct.std::__1::pair"** %15 to i64*
  %17 = load i64, i64* %16, align 8
  %18 = ptrtoint %"struct.std::__1::pair"* %14 to i64
  %19 = sub i64 %17, %18
  %20 = icmp eq i64 %19, 0
  %21 = inttoptr i64 %17 to %"struct.std::__1::pair"*
  %22 = inttoptr i64 %11 to %"class.gpu::gles2::ReadbackBufferShadowTracker::Buffer"*
  br i1 %20, label %39, label %23

23:                                               ; preds = %3
  %24 = ashr exact i64 %19, 4
  br label %25

25:                                               ; preds = %25, %23
  %26 = phi %"struct.std::__1::pair"* [ %14, %23 ], [ %37, %25 ]
  %27 = phi i64 [ %24, %23 ], [ %36, %25 ]
  %28 = lshr i64 %27, 1
  %29 = getelementptr inbounds %"struct.std::__1::pair", %"struct.std::__1::pair"* %26, i64 %28
  %30 = getelementptr inbounds %"struct.std::__1::pair", %"struct.std::__1::pair"* %29, i64 0, i32 0
  %31 = load i32, i32* %30, align 4
  %32 = icmp ult i32 %31, %7
  %33 = getelementptr inbounds %"struct.std::__1::pair", %"struct.std::__1::pair"* %29, i64 1
  %34 = xor i64 %28, -1
  %35 = add i64 %27, %34
  %36 = select i1 %32, i64 %35, i64 %28
  %37 = select i1 %32, %"struct.std::__1::pair"* %33, %"struct.std::__1::pair"* %26
  %38 = icmp eq i64 %36, 0
  br i1 %38, label %39, label %25

39:                                               ; preds = %25, %3
  %40 = phi %"struct.std::__1::pair"* [ %14, %3 ], [ %37, %25 ]
  %41 = icmp eq %"struct.std::__1::pair"* %40, %21
  br i1 %41, label %46, label %42

42:                                               ; preds = %39
  %43 = getelementptr inbounds %"struct.std::__1::pair", %"struct.std::__1::pair"* %40, i64 0, i32 0
  %44 = load i32, i32* %43, align 4
  %45 = icmp ult i32 %7, %44
  br i1 %45, label %46, label %51

46:                                               ; preds = %42, %39
  %47 = getelementptr inbounds %"class.base::internal::flat_tree", %"class.base::internal::flat_tree"* %0, i64 0, i32 0
  %48 = call %"struct.std::__1::pair"* @_ZNSt3__16vectorINS_4pairIjNS_10unique_ptrIN3gpu5gles227ReadbackBufferShadowTracker6BufferENS_14default_deleteIS6_EEEEEENS_9allocatorISA_EEE7emplaceIJSA_EEENS_11__wrap_iterIPSA_EENSF_IPKSA_EEDpOT_(%"class.std::__1::vector"* %47, %"struct.std::__1::pair"* %40, %"struct.std::__1::pair"* nonnull dereferenceable(16) %4) #11
  %49 = getelementptr inbounds %"struct.std::__1::pair", %"struct.std::__1::pair"* %4, i64 0, i32 1, i32 0, i32 0, i32 0
  %50 = load %"class.gpu::gles2::ReadbackBufferShadowTracker::Buffer"*, %"class.gpu::gles2::ReadbackBufferShadowTracker::Buffer"** %49, align 8
  br label %51

51:                                               ; preds = %42, %46
  %52 = phi %"class.gpu::gles2::ReadbackBufferShadowTracker::Buffer"* [ %50, %46 ], [ %22, %42 ]
  %53 = phi %"struct.std::__1::pair"* [ %48, %46 ], [ %40, %42 ]
  %54 = phi i8 [ 1, %46 ], [ 0, %42 ]
  %55 = insertvalue { %"struct.std::__1::pair"*, i8 } undef, %"struct.std::__1::pair"* %53, 0
  %56 = insertvalue { %"struct.std::__1::pair"*, i8 } %55, i8 %54, 1
  %57 = getelementptr inbounds %"struct.std::__1::pair", %"struct.std::__1::pair"* %4, i64 0, i32 1, i32 0, i32 0, i32 0
  store %"class.gpu::gles2::ReadbackBufferShadowTracker::Buffer"* null, %"class.gpu::gles2::ReadbackBufferShadowTracker::Buffer"** %57, align 8
  %58 = icmp eq %"class.gpu::gles2::ReadbackBufferShadowTracker::Buffer"* %52, null
  br i1 %58, label %75, label %59

59:                                               ; preds = %51
  %60 = getelementptr inbounds %"class.gpu::gles2::ReadbackBufferShadowTracker::Buffer", %"class.gpu::gles2::ReadbackBufferShadowTracker::Buffer"* %52, i64 0, i32 6
  %61 = load i8*, i8** %60, align 8
  %62 = icmp eq i8* %61, null
  br i1 %62, label %72, label %63

63:                                               ; preds = %59
  %64 = getelementptr inbounds %"class.gpu::gles2::ReadbackBufferShadowTracker::Buffer", %"class.gpu::gles2::ReadbackBufferShadowTracker::Buffer"* %52, i64 0, i32 3
  %65 = load %"class.gpu::gles2::ReadbackBufferShadowTracker"*, %"class.gpu::gles2::ReadbackBufferShadowTracker"** %64, align 8
  %66 = getelementptr inbounds %"class.gpu::gles2::ReadbackBufferShadowTracker", %"class.gpu::gles2::ReadbackBufferShadowTracker"* %65, i64 0, i32 3
  %67 = load %"class.gpu::MappedMemoryManager"*, %"class.gpu::MappedMemoryManager"** %66, align 8
  %68 = getelementptr inbounds %"class.gpu::gles2::ReadbackBufferShadowTracker", %"class.gpu::gles2::ReadbackBufferShadowTracker"* %65, i64 0, i32 4
  %69 = bitcast %"class.gpu::gles2::GLES2CmdHelper"** %68 to %"class.gpu::CommandBufferHelper"**
  %70 = load %"class.gpu::CommandBufferHelper"*, %"class.gpu::CommandBufferHelper"** %69, align 8
  %71 = call i32 @_ZN3gpu19CommandBufferHelper11InsertTokenEv(%"class.gpu::CommandBufferHelper"* %70) #11
  call void @_ZN3gpu19MappedMemoryManager16FreePendingTokenEPvi(%"class.gpu::MappedMemoryManager"* %67, i8* nonnull %61, i32 %71) #11
  br label %72

72:                                               ; preds = %63, %59
  store i8* null, i8** %60, align 8
  %73 = getelementptr inbounds %"class.gpu::gles2::ReadbackBufferShadowTracker::Buffer", %"class.gpu::gles2::ReadbackBufferShadowTracker::Buffer"* %52, i64 0, i32 0, i32 0
  call void @_ZN4base8internal18WeakReferenceOwnerD1Ev(%"class.base::internal::WeakReferenceOwner"* %73) #11
  %74 = bitcast %"class.gpu::gles2::ReadbackBufferShadowTracker::Buffer"* %52 to i8*
  call void @_ZdlPv(i8* %74) #12
  br label %75

75:                                               ; preds = %51, %72
  call void @llvm.lifetime.end.p0i8(i64 16, i8* nonnull %5) #11
  ret { %"struct.std::__1::pair"*, i8 } %56
}

; Function Attrs: nounwind ssp uwtable
define hidden void @_ZN3gpu5gles227ReadbackBufferShadowTracker13OnBufferWriteEj(%"class.gpu::gles2::ReadbackBufferShadowTracker"*, i32) local_unnamed_addr #0 align 2 {
  %3 = alloca %"class.base::internal::WeakReference", align 8
  %4 = alloca %"class.base::WeakPtr", align 8
  %5 = getelementptr inbounds %"class.gpu::gles2::ReadbackBufferShadowTracker", %"class.gpu::gles2::ReadbackBufferShadowTracker"* %0, i64 0, i32 0, i32 0, i32 0, i32 0, i32 0
  %6 = load %"struct.std::__1::pair"*, %"struct.std::__1::pair"** %5, align 8
  %7 = getelementptr inbounds %"class.gpu::gles2::ReadbackBufferShadowTracker", %"class.gpu::gles2::ReadbackBufferShadowTracker"* %0, i64 0, i32 0, i32 0, i32 0, i32 0, i32 1
  %8 = bitcast %"struct.std::__1::pair"** %7 to i64*
  %9 = load i64, i64* %8, align 8
  %10 = ptrtoint %"struct.std::__1::pair"* %6 to i64
  %11 = sub i64 %9, %10
  %12 = icmp eq i64 %11, 0
  %13 = inttoptr i64 %9 to %"struct.std::__1::pair"*
  br i1 %12, label %32, label %14

14:                                               ; preds = %2
  %15 = ashr exact i64 %11, 4
  br label %16

16:                                               ; preds = %16, %14
  %17 = phi %"struct.std::__1::pair"* [ %6, %14 ], [ %28, %16 ]
  %18 = phi i64 [ %15, %14 ], [ %27, %16 ]
  %19 = lshr i64 %18, 1
  %20 = getelementptr inbounds %"struct.std::__1::pair", %"struct.std::__1::pair"* %17, i64 %19
  %21 = getelementptr inbounds %"struct.std::__1::pair", %"struct.std::__1::pair"* %20, i64 0, i32 0
  %22 = load i32, i32* %21, align 4
  %23 = icmp ult i32 %22, %1
  %24 = getelementptr inbounds %"struct.std::__1::pair", %"struct.std::__1::pair"* %20, i64 1
  %25 = xor i64 %19, -1
  %26 = add i64 %18, %25
  %27 = select i1 %23, i64 %26, i64 %19
  %28 = select i1 %23, %"struct.std::__1::pair"* %24, %"struct.std::__1::pair"* %17
  %29 = icmp eq i64 %27, 0
  br i1 %29, label %30, label %16

30:                                               ; preds = %16
  %31 = ptrtoint %"struct.std::__1::pair"* %28 to i64
  br label %32

32:                                               ; preds = %30, %2
  %33 = phi i64 [ %31, %30 ], [ %10, %2 ]
  %34 = phi %"struct.std::__1::pair"* [ %28, %30 ], [ %6, %2 ]
  %35 = icmp eq %"struct.std::__1::pair"* %34, %13
  br i1 %35, label %43, label %36

36:                                               ; preds = %32
  %37 = getelementptr inbounds %"struct.std::__1::pair", %"struct.std::__1::pair"* %34, i64 0, i32 0
  %38 = load i32, i32* %37, align 4
  %39 = icmp ugt i32 %38, %1
  br i1 %39, label %43, label %40

40:                                               ; preds = %36
  %41 = getelementptr inbounds %"struct.std::__1::pair", %"struct.std::__1::pair"* %34, i64 1
  %42 = ptrtoint %"struct.std::__1::pair"* %41 to i64
  br label %43

43:                                               ; preds = %40, %36, %32
  %44 = phi i64 [ %42, %40 ], [ %33, %32 ], [ %33, %36 ]
  %45 = inttoptr i64 %44 to %"struct.std::__1::pair"*
  %46 = icmp eq %"struct.std::__1::pair"* %34, %45
  %47 = select i1 %46, %"struct.std::__1::pair"* %13, %"struct.std::__1::pair"* %34
  %48 = icmp eq %"struct.std::__1::pair"* %47, %13
  br i1 %48, label %98, label %49

49:                                               ; preds = %43
  %50 = getelementptr inbounds %"struct.std::__1::pair", %"struct.std::__1::pair"* %47, i64 0, i32 1, i32 0, i32 0, i32 0
  %51 = load %"class.gpu::gles2::ReadbackBufferShadowTracker::Buffer"*, %"class.gpu::gles2::ReadbackBufferShadowTracker::Buffer"** %50, align 8
  %52 = icmp eq %"class.gpu::gles2::ReadbackBufferShadowTracker::Buffer"* %51, null
  br i1 %52, label %98, label %53

53:                                               ; preds = %49
  %54 = getelementptr inbounds %"class.gpu::gles2::ReadbackBufferShadowTracker", %"class.gpu::gles2::ReadbackBufferShadowTracker"* %0, i64 0, i32 2
  %55 = load i64, i64* %54, align 8
  %56 = getelementptr inbounds %"class.gpu::gles2::ReadbackBufferShadowTracker::Buffer", %"class.gpu::gles2::ReadbackBufferShadowTracker::Buffer"* %51, i64 0, i32 7
  store i64 %55, i64* %56, align 8
  %57 = getelementptr inbounds %"class.gpu::gles2::ReadbackBufferShadowTracker", %"class.gpu::gles2::ReadbackBufferShadowTracker"* %0, i64 0, i32 1
  %58 = getelementptr inbounds %"class.std::__1::vector.10", %"class.std::__1::vector.10"* %57, i64 0, i32 0, i32 0
  %59 = load %"class.base::WeakPtr"*, %"class.base::WeakPtr"** %58, align 8
  %60 = getelementptr inbounds %"class.gpu::gles2::ReadbackBufferShadowTracker", %"class.gpu::gles2::ReadbackBufferShadowTracker"* %0, i64 0, i32 1, i32 0, i32 1
  %61 = load %"class.base::WeakPtr"*, %"class.base::WeakPtr"** %60, align 8
  %62 = icmp eq %"class.base::WeakPtr"* %59, %61
  br i1 %62, label %77, label %65

63:                                               ; preds = %73
  %64 = icmp eq %"class.base::WeakPtr"* %76, %61
  br i1 %64, label %77, label %65

65:                                               ; preds = %53, %63
  %66 = phi %"class.base::WeakPtr"* [ %76, %63 ], [ %59, %53 ]
  %67 = getelementptr inbounds %"class.base::WeakPtr", %"class.base::WeakPtr"* %66, i64 0, i32 0, i32 0
  %68 = tail call zeroext i1 @_ZNK4base8internal13WeakReference7IsValidEv(%"class.base::internal::WeakReference"* %67) #11
  br i1 %68, label %69, label %73

69:                                               ; preds = %65
  %70 = getelementptr inbounds %"class.base::WeakPtr", %"class.base::WeakPtr"* %66, i64 0, i32 0, i32 1
  %71 = bitcast i64* %70 to %"class.gpu::gles2::ReadbackBufferShadowTracker::Buffer"**
  %72 = load %"class.gpu::gles2::ReadbackBufferShadowTracker::Buffer"*, %"class.gpu::gles2::ReadbackBufferShadowTracker::Buffer"** %71, align 8
  br label %73

73:                                               ; preds = %65, %69
  %74 = phi %"class.gpu::gles2::ReadbackBufferShadowTracker::Buffer"* [ %72, %69 ], [ null, %65 ]
  %75 = icmp eq %"class.gpu::gles2::ReadbackBufferShadowTracker::Buffer"* %74, %51
  %76 = getelementptr inbounds %"class.base::WeakPtr", %"class.base::WeakPtr"* %66, i64 1
  br i1 %75, label %98, label %63

77:                                               ; preds = %63, %53
  %78 = bitcast %"class.base::WeakPtr"* %4 to i8*
  call void @llvm.lifetime.start.p0i8(i64 16, i8* nonnull %78) #11
  %79 = bitcast %"class.base::internal::WeakReference"* %3 to i8*
  call void @llvm.lifetime.start.p0i8(i64 8, i8* nonnull %79) #11, !noalias !3
  %80 = getelementptr inbounds %"class.gpu::gles2::ReadbackBufferShadowTracker::Buffer", %"class.gpu::gles2::ReadbackBufferShadowTracker::Buffer"* %51, i64 0, i32 0, i32 0
  call void @_ZNK4base8internal18WeakReferenceOwner6GetRefEv(%"class.base::internal::WeakReference"* nonnull sret %3, %"class.base::internal::WeakReferenceOwner"* %80) #11, !noalias !3
  %81 = getelementptr inbounds %"class.base::WeakPtr", %"class.base::WeakPtr"* %4, i64 0, i32 0
  %82 = ptrtoint %"class.gpu::gles2::ReadbackBufferShadowTracker::Buffer"* %51 to i64
  call void @_ZN4base8internal11WeakPtrBaseC2ERKNS0_13WeakReferenceEm(%"class.base::internal::WeakPtrBase"* nonnull %81, %"class.base::internal::WeakReference"* nonnull dereferenceable(8) %3, i64 %82) #11
  call void @_ZN4base8internal13WeakReferenceD1Ev(%"class.base::internal::WeakReference"* nonnull %3) #11
  call void @llvm.lifetime.end.p0i8(i64 8, i8* nonnull %79) #11, !noalias !3
  %83 = load %"class.base::WeakPtr"*, %"class.base::WeakPtr"** %60, align 8
  %84 = getelementptr inbounds %"class.gpu::gles2::ReadbackBufferShadowTracker", %"class.gpu::gles2::ReadbackBufferShadowTracker"* %0, i64 0, i32 1, i32 0, i32 2, i32 0, i32 0
  %85 = load %"class.base::WeakPtr"*, %"class.base::WeakPtr"** %84, align 8
  %86 = icmp ult %"class.base::WeakPtr"* %83, %85
  br i1 %86, label %87, label %96

87:                                               ; preds = %77
  %88 = getelementptr inbounds %"class.base::WeakPtr", %"class.base::WeakPtr"* %83, i64 0, i32 0, i32 0
  %89 = getelementptr inbounds %"class.base::WeakPtr", %"class.base::WeakPtr"* %4, i64 0, i32 0, i32 0
  call void @_ZN4base8internal13WeakReferenceC1EOS1_(%"class.base::internal::WeakReference"* %88, %"class.base::internal::WeakReference"* nonnull dereferenceable(8) %89) #11
  %90 = getelementptr inbounds %"class.base::WeakPtr", %"class.base::WeakPtr"* %83, i64 0, i32 0, i32 1
  %91 = getelementptr inbounds %"class.base::WeakPtr", %"class.base::WeakPtr"* %4, i64 0, i32 0, i32 1
  %92 = load i64, i64* %91, align 8
  store i64 %92, i64* %90, align 8
  %93 = getelementptr inbounds %"class.base::WeakPtr", %"class.base::WeakPtr"* %83, i64 1
  %94 = ptrtoint %"class.base::WeakPtr"* %93 to i64
  %95 = bitcast %"class.base::WeakPtr"** %60 to i64*
  store i64 %94, i64* %95, align 8
  br label %97

96:                                               ; preds = %77
  call void @_ZNSt3__16vectorIN4base7WeakPtrIN3gpu5gles227ReadbackBufferShadowTracker6BufferEEENS_9allocatorIS7_EEE21__push_back_slow_pathIS7_EEvOT_(%"class.std::__1::vector.10"* %57, %"class.base::WeakPtr"* nonnull dereferenceable(16) %4) #11
  br label %97

97:                                               ; preds = %87, %96
  call void @_ZN4base8internal11WeakPtrBaseD2Ev(%"class.base::internal::WeakPtrBase"* nonnull %81) #11
  call void @llvm.lifetime.end.p0i8(i64 16, i8* nonnull %78) #11
  br label %98

98:                                               ; preds = %73, %43, %49, %97
  ret void
}

; Function Attrs: nounwind
declare void @_ZN4base8internal11WeakPtrBaseD2Ev(%"class.base::internal::WeakPtrBase"*) unnamed_addr #6

; Function Attrs: nounwind ssp uwtable
define hidden void @_ZN3gpu5gles227ReadbackBufferShadowTracker22TakeUnfencedBufferListEv(%"class.std::__1::vector.10"* noalias nocapture sret, %"class.gpu::gles2::ReadbackBufferShadowTracker"* nocapture) local_unnamed_addr #0 align 2 {
  %3 = getelementptr inbounds %"class.std::__1::vector.10", %"class.std::__1::vector.10"* %0, i64 0, i32 0, i32 2, i32 0, i32 0
  %4 = getelementptr inbounds %"class.gpu::gles2::ReadbackBufferShadowTracker", %"class.gpu::gles2::ReadbackBufferShadowTracker"* %1, i64 0, i32 1
  %5 = bitcast %"class.std::__1::vector.10"* %4 to <2 x i64>*
  %6 = load <2 x i64>, <2 x i64>* %5, align 8
  %7 = bitcast %"class.std::__1::vector.10"* %0 to <2 x i64>*
  store <2 x i64> %6, <2 x i64>* %7, align 8
  %8 = bitcast %"class.std::__1::vector.10"* %4 to <2 x i64>*
  store <2 x i64> zeroinitializer, <2 x i64>* %8, align 8
  %9 = getelementptr inbounds %"class.gpu::gles2::ReadbackBufferShadowTracker", %"class.gpu::gles2::ReadbackBufferShadowTracker"* %1, i64 0, i32 1, i32 0, i32 2, i32 0, i32 0
  %10 = bitcast %"class.base::WeakPtr"** %3 to i64*
  %11 = bitcast %"class.base::WeakPtr"** %9 to i64*
  %12 = load i64, i64* %11, align 8
  store i64 %12, i64* %10, align 8
  store i64 0, i64* %11, align 8
  ret void
}

declare void @_ZN4base8internal18WeakReferenceOwnerC1Ev(%"class.base::internal::WeakReferenceOwner"*) unnamed_addr #1

; Function Attrs: nounwind
declare void @_ZN4base8internal18WeakReferenceOwnerD1Ev(%"class.base::internal::WeakReferenceOwner"*) unnamed_addr #6

; Function Attrs: nobuiltin nounwind
declare void @_ZdlPv(i8*) local_unnamed_addr #7

; Function Attrs: nounwind ssp uwtable
define linkonce_odr hidden %"struct.std::__1::pair"* @_ZNSt3__16vectorINS_4pairIjNS_10unique_ptrIN3gpu5gles227ReadbackBufferShadowTracker6BufferENS_14default_deleteIS6_EEEEEENS_9allocatorISA_EEE7emplaceIJSA_EEENS_11__wrap_iterIPSA_EENSF_IPKSA_EEDpOT_(%"class.std::__1::vector"*, %"struct.std::__1::pair"*, %"struct.std::__1::pair"* dereferenceable(16)) local_unnamed_addr #0 comdat align 2 {
  %4 = ptrtoint %"struct.std::__1::pair"* %1 to i64
  %5 = alloca %"struct.std::__1::__split_buffer", align 8
  %6 = getelementptr inbounds %"class.std::__1::vector", %"class.std::__1::vector"* %0, i64 0, i32 0, i32 0
  %7 = getelementptr inbounds %"class.std::__1::vector", %"class.std::__1::vector"* %0, i64 0, i32 0, i32 1
  %8 = load %"struct.std::__1::pair"*, %"struct.std::__1::pair"** %7, align 8
  %9 = getelementptr inbounds %"class.std::__1::vector", %"class.std::__1::vector"* %0, i64 0, i32 0, i32 2, i32 0, i32 0
  %10 = load %"struct.std::__1::pair"*, %"struct.std::__1::pair"** %9, align 8
  %11 = icmp ult %"struct.std::__1::pair"* %8, %10
  %12 = ptrtoint %"struct.std::__1::pair"* %10 to i64
  br i1 %11, label %13, label %183

13:                                               ; preds = %3
  %14 = icmp eq %"struct.std::__1::pair"* %8, %1
  br i1 %14, label %15, label %28

15:                                               ; preds = %13
  %16 = getelementptr inbounds %"struct.std::__1::pair", %"struct.std::__1::pair"* %1, i64 0, i32 0
  %17 = getelementptr inbounds %"struct.std::__1::pair", %"struct.std::__1::pair"* %2, i64 0, i32 0
  %18 = load i32, i32* %17, align 8
  store i32 %18, i32* %16, align 8
  %19 = getelementptr inbounds %"struct.std::__1::pair", %"struct.std::__1::pair"* %1, i64 0, i32 1
  %20 = getelementptr inbounds %"struct.std::__1::pair", %"struct.std::__1::pair"* %2, i64 0, i32 1
  %21 = getelementptr inbounds %"class.std::__1::unique_ptr", %"class.std::__1::unique_ptr"* %20, i64 0, i32 0, i32 0, i32 0
  %22 = bitcast %"class.std::__1::unique_ptr"* %20 to i64*
  %23 = load i64, i64* %22, align 8
  store %"class.gpu::gles2::ReadbackBufferShadowTracker::Buffer"* null, %"class.gpu::gles2::ReadbackBufferShadowTracker::Buffer"** %21, align 8
  %24 = bitcast %"class.std::__1::unique_ptr"* %19 to i64*
  store i64 %23, i64* %24, align 8
  %25 = getelementptr inbounds %"struct.std::__1::pair", %"struct.std::__1::pair"* %1, i64 1
  %26 = ptrtoint %"struct.std::__1::pair"* %25 to i64
  %27 = bitcast %"struct.std::__1::pair"** %7 to i64*
  store i64 %26, i64* %27, align 8
  br label %369

28:                                               ; preds = %13
  %29 = getelementptr inbounds %"struct.std::__1::pair", %"struct.std::__1::pair"* %2, i64 0, i32 0
  %30 = load i32, i32* %29, align 8
  %31 = getelementptr inbounds %"struct.std::__1::pair", %"struct.std::__1::pair"* %2, i64 0, i32 1
  %32 = getelementptr inbounds %"class.std::__1::unique_ptr", %"class.std::__1::unique_ptr"* %31, i64 0, i32 0, i32 0, i32 0
  %33 = bitcast %"class.std::__1::unique_ptr"* %31 to i64*
  %34 = load i64, i64* %33, align 8
  store %"class.gpu::gles2::ReadbackBufferShadowTracker::Buffer"* null, %"class.gpu::gles2::ReadbackBufferShadowTracker::Buffer"** %32, align 8
  %35 = load %"struct.std::__1::pair"*, %"struct.std::__1::pair"** %7, align 8
  %36 = getelementptr inbounds %"struct.std::__1::pair", %"struct.std::__1::pair"* %1, i64 1
  %37 = ptrtoint %"struct.std::__1::pair"* %35 to i64
  %38 = ptrtoint %"struct.std::__1::pair"* %36 to i64
  %39 = sub i64 %37, %38
  %40 = ashr exact i64 %39, 4
  %41 = getelementptr inbounds %"struct.std::__1::pair", %"struct.std::__1::pair"* %1, i64 %40
  %42 = bitcast %"struct.std::__1::pair"** %7 to i64*
  %43 = icmp ult %"struct.std::__1::pair"* %41, %35
  br i1 %43, label %44, label %122

44:                                               ; preds = %28
  %45 = sub nsw i64 0, %40
  %46 = getelementptr %"struct.std::__1::pair", %"struct.std::__1::pair"* %35, i64 %45, i32 0
  %47 = bitcast i32* %46 to i8*
  %48 = xor i64 %4, -1
  %49 = getelementptr i8, i8* %47, i64 %48
  %50 = ptrtoint i8* %49 to i64
  %51 = lshr i64 %50, 4
  %52 = add nuw nsw i64 %51, 1
  %53 = and i64 %52, 3
  %54 = icmp eq i64 %53, 0
  br i1 %54, label %72, label %55

55:                                               ; preds = %44, %55
  %56 = phi %"struct.std::__1::pair"* [ %69, %55 ], [ %35, %44 ]
  %57 = phi %"struct.std::__1::pair"* [ %68, %55 ], [ %41, %44 ]
  %58 = phi i64 [ %70, %55 ], [ %53, %44 ]
  %59 = getelementptr inbounds %"struct.std::__1::pair", %"struct.std::__1::pair"* %56, i64 0, i32 0
  %60 = getelementptr inbounds %"struct.std::__1::pair", %"struct.std::__1::pair"* %57, i64 0, i32 0
  %61 = load i32, i32* %60, align 8
  store i32 %61, i32* %59, align 8
  %62 = getelementptr inbounds %"struct.std::__1::pair", %"struct.std::__1::pair"* %56, i64 0, i32 1
  %63 = getelementptr inbounds %"struct.std::__1::pair", %"struct.std::__1::pair"* %57, i64 0, i32 1
  %64 = getelementptr inbounds %"class.std::__1::unique_ptr", %"class.std::__1::unique_ptr"* %63, i64 0, i32 0, i32 0, i32 0
  %65 = bitcast %"class.std::__1::unique_ptr"* %63 to i64*
  %66 = load i64, i64* %65, align 8
  store %"class.gpu::gles2::ReadbackBufferShadowTracker::Buffer"* null, %"class.gpu::gles2::ReadbackBufferShadowTracker::Buffer"** %64, align 8
  %67 = bitcast %"class.std::__1::unique_ptr"* %62 to i64*
  store i64 %66, i64* %67, align 8
  %68 = getelementptr inbounds %"struct.std::__1::pair", %"struct.std::__1::pair"* %57, i64 1
  %69 = getelementptr inbounds %"struct.std::__1::pair", %"struct.std::__1::pair"* %56, i64 1
  %70 = add i64 %58, -1
  %71 = icmp eq i64 %70, 0
  br i1 %71, label %72, label %55, !llvm.loop !6

72:                                               ; preds = %55, %44
  %73 = phi %"struct.std::__1::pair"* [ %35, %44 ], [ %69, %55 ]
  %74 = phi %"struct.std::__1::pair"* [ %41, %44 ], [ %68, %55 ]
  %75 = phi %"struct.std::__1::pair"* [ undef, %44 ], [ %69, %55 ]
  %76 = icmp ult i8* %49, inttoptr (i64 48 to i8*)
  br i1 %76, label %77, label %80

77:                                               ; preds = %80, %72
  %78 = phi %"struct.std::__1::pair"* [ %75, %72 ], [ %120, %80 ]
  %79 = ptrtoint %"struct.std::__1::pair"* %78 to i64
  br label %122

80:                                               ; preds = %72, %80
  %81 = phi %"struct.std::__1::pair"* [ %120, %80 ], [ %73, %72 ]
  %82 = phi %"struct.std::__1::pair"* [ %119, %80 ], [ %74, %72 ]
  %83 = getelementptr inbounds %"struct.std::__1::pair", %"struct.std::__1::pair"* %81, i64 0, i32 0
  %84 = getelementptr inbounds %"struct.std::__1::pair", %"struct.std::__1::pair"* %82, i64 0, i32 0
  %85 = load i32, i32* %84, align 8
  store i32 %85, i32* %83, align 8
  %86 = getelementptr inbounds %"struct.std::__1::pair", %"struct.std::__1::pair"* %81, i64 0, i32 1
  %87 = getelementptr inbounds %"struct.std::__1::pair", %"struct.std::__1::pair"* %82, i64 0, i32 1
  %88 = getelementptr inbounds %"class.std::__1::unique_ptr", %"class.std::__1::unique_ptr"* %87, i64 0, i32 0, i32 0, i32 0
  %89 = bitcast %"class.std::__1::unique_ptr"* %87 to i64*
  %90 = load i64, i64* %89, align 8
  store %"class.gpu::gles2::ReadbackBufferShadowTracker::Buffer"* null, %"class.gpu::gles2::ReadbackBufferShadowTracker::Buffer"** %88, align 8
  %91 = bitcast %"class.std::__1::unique_ptr"* %86 to i64*
  store i64 %90, i64* %91, align 8
  %92 = getelementptr inbounds %"struct.std::__1::pair", %"struct.std::__1::pair"* %81, i64 1, i32 0
  %93 = getelementptr inbounds %"struct.std::__1::pair", %"struct.std::__1::pair"* %82, i64 1, i32 0
  %94 = load i32, i32* %93, align 8
  store i32 %94, i32* %92, align 8
  %95 = getelementptr inbounds %"struct.std::__1::pair", %"struct.std::__1::pair"* %81, i64 1, i32 1
  %96 = getelementptr inbounds %"struct.std::__1::pair", %"struct.std::__1::pair"* %82, i64 1, i32 1
  %97 = getelementptr inbounds %"class.std::__1::unique_ptr", %"class.std::__1::unique_ptr"* %96, i64 0, i32 0, i32 0, i32 0
  %98 = bitcast %"class.std::__1::unique_ptr"* %96 to i64*
  %99 = load i64, i64* %98, align 8
  store %"class.gpu::gles2::ReadbackBufferShadowTracker::Buffer"* null, %"class.gpu::gles2::ReadbackBufferShadowTracker::Buffer"** %97, align 8
  %100 = bitcast %"class.std::__1::unique_ptr"* %95 to i64*
  store i64 %99, i64* %100, align 8
  %101 = getelementptr inbounds %"struct.std::__1::pair", %"struct.std::__1::pair"* %81, i64 2, i32 0
  %102 = getelementptr inbounds %"struct.std::__1::pair", %"struct.std::__1::pair"* %82, i64 2, i32 0
  %103 = load i32, i32* %102, align 8
  store i32 %103, i32* %101, align 8
  %104 = getelementptr inbounds %"struct.std::__1::pair", %"struct.std::__1::pair"* %81, i64 2, i32 1
  %105 = getelementptr inbounds %"struct.std::__1::pair", %"struct.std::__1::pair"* %82, i64 2, i32 1
  %106 = getelementptr inbounds %"class.std::__1::unique_ptr", %"class.std::__1::unique_ptr"* %105, i64 0, i32 0, i32 0, i32 0
  %107 = bitcast %"class.std::__1::unique_ptr"* %105 to i64*
  %108 = load i64, i64* %107, align 8
  store %"class.gpu::gles2::ReadbackBufferShadowTracker::Buffer"* null, %"class.gpu::gles2::ReadbackBufferShadowTracker::Buffer"** %106, align 8
  %109 = bitcast %"class.std::__1::unique_ptr"* %104 to i64*
  store i64 %108, i64* %109, align 8
  %110 = getelementptr inbounds %"struct.std::__1::pair", %"struct.std::__1::pair"* %81, i64 3, i32 0
  %111 = getelementptr inbounds %"struct.std::__1::pair", %"struct.std::__1::pair"* %82, i64 3, i32 0
  %112 = load i32, i32* %111, align 8
  store i32 %112, i32* %110, align 8
  %113 = getelementptr inbounds %"struct.std::__1::pair", %"struct.std::__1::pair"* %81, i64 3, i32 1
  %114 = getelementptr inbounds %"struct.std::__1::pair", %"struct.std::__1::pair"* %82, i64 3, i32 1
  %115 = getelementptr inbounds %"class.std::__1::unique_ptr", %"class.std::__1::unique_ptr"* %114, i64 0, i32 0, i32 0, i32 0
  %116 = bitcast %"class.std::__1::unique_ptr"* %114 to i64*
  %117 = load i64, i64* %116, align 8
  store %"class.gpu::gles2::ReadbackBufferShadowTracker::Buffer"* null, %"class.gpu::gles2::ReadbackBufferShadowTracker::Buffer"** %115, align 8
  %118 = bitcast %"class.std::__1::unique_ptr"* %113 to i64*
  store i64 %117, i64* %118, align 8
  %119 = getelementptr inbounds %"struct.std::__1::pair", %"struct.std::__1::pair"* %82, i64 4
  %120 = getelementptr inbounds %"struct.std::__1::pair", %"struct.std::__1::pair"* %81, i64 4
  %121 = icmp ult %"struct.std::__1::pair"* %119, %35
  br i1 %121, label %80, label %77

122:                                              ; preds = %28, %77
  %123 = phi i64 [ %79, %77 ], [ %37, %28 ]
  store i64 %123, i64* %42, align 8
  %124 = icmp eq i64 %39, 0
  br i1 %124, label %160, label %125

125:                                              ; preds = %122, %158
  %126 = phi %"struct.std::__1::pair"* [ %129, %158 ], [ %35, %122 ]
  %127 = phi %"struct.std::__1::pair"* [ %128, %158 ], [ %41, %122 ]
  %128 = getelementptr inbounds %"struct.std::__1::pair", %"struct.std::__1::pair"* %127, i64 -1
  %129 = getelementptr inbounds %"struct.std::__1::pair", %"struct.std::__1::pair"* %126, i64 -1
  %130 = getelementptr inbounds %"struct.std::__1::pair", %"struct.std::__1::pair"* %128, i64 0, i32 0
  %131 = load i32, i32* %130, align 4
  %132 = getelementptr inbounds %"struct.std::__1::pair", %"struct.std::__1::pair"* %129, i64 0, i32 0
  store i32 %131, i32* %132, align 8
  %133 = getelementptr inbounds %"struct.std::__1::pair", %"struct.std::__1::pair"* %127, i64 -1, i32 1
  %134 = getelementptr inbounds %"struct.std::__1::pair", %"struct.std::__1::pair"* %126, i64 -1, i32 1
  %135 = getelementptr inbounds %"class.std::__1::unique_ptr", %"class.std::__1::unique_ptr"* %133, i64 0, i32 0, i32 0, i32 0
  %136 = bitcast %"class.std::__1::unique_ptr"* %133 to i64*
  %137 = load i64, i64* %136, align 8
  store %"class.gpu::gles2::ReadbackBufferShadowTracker::Buffer"* null, %"class.gpu::gles2::ReadbackBufferShadowTracker::Buffer"** %135, align 8
  %138 = getelementptr inbounds %"class.std::__1::unique_ptr", %"class.std::__1::unique_ptr"* %134, i64 0, i32 0, i32 0, i32 0
  %139 = load %"class.gpu::gles2::ReadbackBufferShadowTracker::Buffer"*, %"class.gpu::gles2::ReadbackBufferShadowTracker::Buffer"** %138, align 8
  %140 = bitcast %"class.std::__1::unique_ptr"* %134 to i64*
  store i64 %137, i64* %140, align 8
  %141 = icmp eq %"class.gpu::gles2::ReadbackBufferShadowTracker::Buffer"* %139, null
  br i1 %141, label %158, label %142

142:                                              ; preds = %125
  %143 = getelementptr inbounds %"class.gpu::gles2::ReadbackBufferShadowTracker::Buffer", %"class.gpu::gles2::ReadbackBufferShadowTracker::Buffer"* %139, i64 0, i32 6
  %144 = load i8*, i8** %143, align 8
  %145 = icmp eq i8* %144, null
  br i1 %145, label %155, label %146

146:                                              ; preds = %142
  %147 = getelementptr inbounds %"class.gpu::gles2::ReadbackBufferShadowTracker::Buffer", %"class.gpu::gles2::ReadbackBufferShadowTracker::Buffer"* %139, i64 0, i32 3
  %148 = load %"class.gpu::gles2::ReadbackBufferShadowTracker"*, %"class.gpu::gles2::ReadbackBufferShadowTracker"** %147, align 8
  %149 = getelementptr inbounds %"class.gpu::gles2::ReadbackBufferShadowTracker", %"class.gpu::gles2::ReadbackBufferShadowTracker"* %148, i64 0, i32 3
  %150 = load %"class.gpu::MappedMemoryManager"*, %"class.gpu::MappedMemoryManager"** %149, align 8
  %151 = getelementptr inbounds %"class.gpu::gles2::ReadbackBufferShadowTracker", %"class.gpu::gles2::ReadbackBufferShadowTracker"* %148, i64 0, i32 4
  %152 = bitcast %"class.gpu::gles2::GLES2CmdHelper"** %151 to %"class.gpu::CommandBufferHelper"**
  %153 = load %"class.gpu::CommandBufferHelper"*, %"class.gpu::CommandBufferHelper"** %152, align 8
  %154 = tail call i32 @_ZN3gpu19CommandBufferHelper11InsertTokenEv(%"class.gpu::CommandBufferHelper"* %153) #11
  tail call void @_ZN3gpu19MappedMemoryManager16FreePendingTokenEPvi(%"class.gpu::MappedMemoryManager"* %150, i8* nonnull %144, i32 %154) #11
  br label %155

155:                                              ; preds = %146, %142
  store i8* null, i8** %143, align 8
  %156 = getelementptr inbounds %"class.gpu::gles2::ReadbackBufferShadowTracker::Buffer", %"class.gpu::gles2::ReadbackBufferShadowTracker::Buffer"* %139, i64 0, i32 0, i32 0
  tail call void @_ZN4base8internal18WeakReferenceOwnerD1Ev(%"class.base::internal::WeakReferenceOwner"* %156) #11
  %157 = bitcast %"class.gpu::gles2::ReadbackBufferShadowTracker::Buffer"* %139 to i8*
  tail call void @_ZdlPv(i8* %157) #12
  br label %158

158:                                              ; preds = %155, %125
  %159 = icmp eq %"struct.std::__1::pair"* %128, %1
  br i1 %159, label %160, label %125

160:                                              ; preds = %158, %122
  %161 = getelementptr inbounds %"struct.std::__1::pair", %"struct.std::__1::pair"* %1, i64 0, i32 0
  store i32 %30, i32* %161, align 8
  %162 = getelementptr inbounds %"struct.std::__1::pair", %"struct.std::__1::pair"* %1, i64 0, i32 1
  %163 = getelementptr inbounds %"class.std::__1::unique_ptr", %"class.std::__1::unique_ptr"* %162, i64 0, i32 0, i32 0, i32 0
  %164 = load %"class.gpu::gles2::ReadbackBufferShadowTracker::Buffer"*, %"class.gpu::gles2::ReadbackBufferShadowTracker::Buffer"** %163, align 8
  %165 = bitcast %"class.std::__1::unique_ptr"* %162 to i64*
  store i64 %34, i64* %165, align 8
  %166 = icmp eq %"class.gpu::gles2::ReadbackBufferShadowTracker::Buffer"* %164, null
  br i1 %166, label %369, label %167

167:                                              ; preds = %160
  %168 = getelementptr inbounds %"class.gpu::gles2::ReadbackBufferShadowTracker::Buffer", %"class.gpu::gles2::ReadbackBufferShadowTracker::Buffer"* %164, i64 0, i32 6
  %169 = load i8*, i8** %168, align 8
  %170 = icmp eq i8* %169, null
  br i1 %170, label %180, label %171

171:                                              ; preds = %167
  %172 = getelementptr inbounds %"class.gpu::gles2::ReadbackBufferShadowTracker::Buffer", %"class.gpu::gles2::ReadbackBufferShadowTracker::Buffer"* %164, i64 0, i32 3
  %173 = load %"class.gpu::gles2::ReadbackBufferShadowTracker"*, %"class.gpu::gles2::ReadbackBufferShadowTracker"** %172, align 8
  %174 = getelementptr inbounds %"class.gpu::gles2::ReadbackBufferShadowTracker", %"class.gpu::gles2::ReadbackBufferShadowTracker"* %173, i64 0, i32 3
  %175 = load %"class.gpu::MappedMemoryManager"*, %"class.gpu::MappedMemoryManager"** %174, align 8
  %176 = getelementptr inbounds %"class.gpu::gles2::ReadbackBufferShadowTracker", %"class.gpu::gles2::ReadbackBufferShadowTracker"* %173, i64 0, i32 4
  %177 = bitcast %"class.gpu::gles2::GLES2CmdHelper"** %176 to %"class.gpu::CommandBufferHelper"**
  %178 = load %"class.gpu::CommandBufferHelper"*, %"class.gpu::CommandBufferHelper"** %177, align 8
  %179 = tail call i32 @_ZN3gpu19CommandBufferHelper11InsertTokenEv(%"class.gpu::CommandBufferHelper"* %178) #11
  tail call void @_ZN3gpu19MappedMemoryManager16FreePendingTokenEPvi(%"class.gpu::MappedMemoryManager"* %175, i8* nonnull %169, i32 %179) #11
  br label %180

180:                                              ; preds = %171, %167
  store i8* null, i8** %168, align 8
  %181 = getelementptr inbounds %"class.gpu::gles2::ReadbackBufferShadowTracker::Buffer", %"class.gpu::gles2::ReadbackBufferShadowTracker::Buffer"* %164, i64 0, i32 0, i32 0
  tail call void @_ZN4base8internal18WeakReferenceOwnerD1Ev(%"class.base::internal::WeakReferenceOwner"* %181) #11
  %182 = bitcast %"class.gpu::gles2::ReadbackBufferShadowTracker::Buffer"* %164 to i8*
  tail call void @_ZdlPv(i8* %182) #12
  br label %369

183:                                              ; preds = %3
  %184 = ptrtoint %"struct.std::__1::pair"* %8 to i64
  %185 = getelementptr inbounds %"class.std::__1::vector", %"class.std::__1::vector"* %0, i64 0, i32 0, i32 2
  %186 = bitcast %"struct.std::__1::__split_buffer"* %5 to i8*
  call void @llvm.lifetime.start.p0i8(i64 40, i8* nonnull %186) #11
  %187 = getelementptr inbounds %"struct.std::__1::__split_buffer", %"struct.std::__1::__split_buffer"* %5, i64 0, i32 0
  %188 = getelementptr inbounds %"struct.std::__1::__split_buffer", %"struct.std::__1::__split_buffer"* %5, i64 0, i32 1
  %189 = getelementptr inbounds %"struct.std::__1::__split_buffer", %"struct.std::__1::__split_buffer"* %5, i64 0, i32 2
  %190 = getelementptr inbounds %"struct.std::__1::__split_buffer", %"struct.std::__1::__split_buffer"* %5, i64 0, i32 3, i32 0, i32 0
  %191 = getelementptr inbounds %"struct.std::__1::__split_buffer", %"struct.std::__1::__split_buffer"* %5, i64 0, i32 3, i32 1, i32 0
  %192 = bitcast %"struct.std::__1::pair"** %7 to i64*
  %193 = bitcast %"class.std::__1::vector"* %0 to i64*
  %194 = bitcast %"struct.std::__1::__split_buffer"* %5 to i8*
  call void @llvm.memset.p0i8.i64(i8* nonnull align 8 %194, i8 -86, i64 40, i1 false)
  %195 = load i64, i64* %193, align 8
  %196 = sub i64 %184, %195
  %197 = ashr exact i64 %196, 4
  %198 = add nsw i64 %197, 1
  %199 = icmp ugt i64 %198, 1152921504606846975
  br i1 %199, label %200, label %202

200:                                              ; preds = %183
  %201 = bitcast %"class.std::__1::vector"* %0 to %"class.std::__1::__vector_base_common"*
  tail call void @_ZNKSt3__120__vector_base_commonILb1EE20__throw_length_errorEv(%"class.std::__1::__vector_base_common"* %201) #13
  unreachable

202:                                              ; preds = %183
  %203 = bitcast %"struct.std::__1::pair"** %9 to i64*
  %204 = sub i64 %12, %195
  %205 = ashr exact i64 %204, 4
  %206 = icmp ult i64 %205, 576460752303423487
  br i1 %206, label %211, label %207

207:                                              ; preds = %202
  %208 = sub i64 %4, %195
  %209 = ashr exact i64 %208, 4
  store %"struct.std::__1::pair"* null, %"struct.std::__1::pair"** %190, align 8
  %210 = bitcast %"class.std::__1::allocator"** %191 to %"class.std::__1::__compressed_pair.7"**
  store %"class.std::__1::__compressed_pair.7"* %185, %"class.std::__1::__compressed_pair.7"** %210, align 8
  br label %222

211:                                              ; preds = %202
  %212 = ashr exact i64 %204, 3
  %213 = icmp ult i64 %212, %198
  %214 = select i1 %213, i64 %198, i64 %212
  %215 = sub i64 %4, %195
  %216 = ashr exact i64 %215, 4
  store %"struct.std::__1::pair"* null, %"struct.std::__1::pair"** %190, align 8
  %217 = bitcast %"class.std::__1::allocator"** %191 to %"class.std::__1::__compressed_pair.7"**
  store %"class.std::__1::__compressed_pair.7"* %185, %"class.std::__1::__compressed_pair.7"** %217, align 8
  %218 = icmp eq i64 %214, 0
  br i1 %218, label %228, label %219

219:                                              ; preds = %211
  %220 = icmp ugt i64 %214, 1152921504606846975
  br i1 %220, label %221, label %222

221:                                              ; preds = %219
  tail call void @abort() #13
  unreachable

222:                                              ; preds = %207, %219
  %223 = phi i64 [ 1152921504606846975, %207 ], [ %214, %219 ]
  %224 = phi i64 [ %209, %207 ], [ %216, %219 ]
  %225 = shl i64 %223, 4
  %226 = tail call i8* @_Znwm(i64 %225) #12
  %227 = bitcast i8* %226 to %"struct.std::__1::pair"*
  br label %228

228:                                              ; preds = %211, %222
  %229 = phi i64 [ %224, %222 ], [ %216, %211 ]
  %230 = phi i64 [ %223, %222 ], [ 0, %211 ]
  %231 = phi %"struct.std::__1::pair"* [ %227, %222 ], [ null, %211 ]
  store %"struct.std::__1::pair"* %231, %"struct.std::__1::pair"** %187, align 8
  %232 = getelementptr inbounds %"struct.std::__1::pair", %"struct.std::__1::pair"* %231, i64 %229
  store %"struct.std::__1::pair"* %232, %"struct.std::__1::pair"** %189, align 8
  store %"struct.std::__1::pair"* %232, %"struct.std::__1::pair"** %188, align 8
  %233 = getelementptr inbounds %"struct.std::__1::pair", %"struct.std::__1::pair"* %231, i64 %230
  store %"struct.std::__1::pair"* %233, %"struct.std::__1::pair"** %190, align 8
  call void @_ZNSt3__114__split_bufferINS_4pairIjNS_10unique_ptrIN3gpu5gles227ReadbackBufferShadowTracker6BufferENS_14default_deleteIS6_EEEEEERNS_9allocatorISA_EEE12emplace_backIJSA_EEEvDpOT_(%"struct.std::__1::__split_buffer"* nonnull %5, %"struct.std::__1::pair"* dereferenceable(16) %2)
  %234 = load %"struct.std::__1::pair"*, %"struct.std::__1::pair"** %188, align 8
  %235 = load %"struct.std::__1::pair"*, %"struct.std::__1::pair"** %6, align 8
  %236 = icmp eq %"struct.std::__1::pair"* %235, %1
  br i1 %236, label %289, label %237

237:                                              ; preds = %228
  %238 = ptrtoint %"struct.std::__1::pair"* %235 to i64
  %239 = getelementptr %"struct.std::__1::pair", %"struct.std::__1::pair"* %1, i64 -1, i32 0
  %240 = ptrtoint i32* %239 to i64
  %241 = sub i64 %240, %238
  %242 = and i64 %241, 16
  %243 = icmp eq i64 %242, 0
  br i1 %243, label %244, label %257

244:                                              ; preds = %237
  %245 = getelementptr inbounds %"struct.std::__1::pair", %"struct.std::__1::pair"* %1, i64 -1
  %246 = getelementptr inbounds %"struct.std::__1::pair", %"struct.std::__1::pair"* %234, i64 -1, i32 0
  %247 = getelementptr inbounds %"struct.std::__1::pair", %"struct.std::__1::pair"* %245, i64 0, i32 0
  %248 = load i32, i32* %247, align 8
  store i32 %248, i32* %246, align 8
  %249 = getelementptr inbounds %"struct.std::__1::pair", %"struct.std::__1::pair"* %234, i64 -1, i32 1
  %250 = getelementptr inbounds %"struct.std::__1::pair", %"struct.std::__1::pair"* %1, i64 -1, i32 1
  %251 = getelementptr inbounds %"class.std::__1::unique_ptr", %"class.std::__1::unique_ptr"* %250, i64 0, i32 0, i32 0, i32 0
  %252 = bitcast %"class.std::__1::unique_ptr"* %250 to i64*
  %253 = load i64, i64* %252, align 8
  store %"class.gpu::gles2::ReadbackBufferShadowTracker::Buffer"* null, %"class.gpu::gles2::ReadbackBufferShadowTracker::Buffer"** %251, align 8
  %254 = bitcast %"class.std::__1::unique_ptr"* %249 to i64*
  store i64 %253, i64* %254, align 8
  %255 = load %"struct.std::__1::pair"*, %"struct.std::__1::pair"** %188, align 8
  %256 = getelementptr inbounds %"struct.std::__1::pair", %"struct.std::__1::pair"* %255, i64 -1
  store %"struct.std::__1::pair"* %256, %"struct.std::__1::pair"** %188, align 8
  br label %257

257:                                              ; preds = %244, %237
  %258 = phi %"struct.std::__1::pair"* [ undef, %237 ], [ %256, %244 ]
  %259 = phi %"struct.std::__1::pair"* [ %234, %237 ], [ %256, %244 ]
  %260 = phi %"struct.std::__1::pair"* [ %1, %237 ], [ %245, %244 ]
  %261 = icmp ult i64 %241, 16
  br i1 %261, label %289, label %262

262:                                              ; preds = %257, %262
  %263 = phi %"struct.std::__1::pair"* [ %287, %262 ], [ %259, %257 ]
  %264 = phi %"struct.std::__1::pair"* [ %276, %262 ], [ %260, %257 ]
  %265 = getelementptr inbounds %"struct.std::__1::pair", %"struct.std::__1::pair"* %263, i64 -1, i32 0
  %266 = getelementptr inbounds %"struct.std::__1::pair", %"struct.std::__1::pair"* %264, i64 -1, i32 0
  %267 = load i32, i32* %266, align 8
  store i32 %267, i32* %265, align 8
  %268 = getelementptr inbounds %"struct.std::__1::pair", %"struct.std::__1::pair"* %263, i64 -1, i32 1
  %269 = getelementptr inbounds %"struct.std::__1::pair", %"struct.std::__1::pair"* %264, i64 -1, i32 1
  %270 = getelementptr inbounds %"class.std::__1::unique_ptr", %"class.std::__1::unique_ptr"* %269, i64 0, i32 0, i32 0, i32 0
  %271 = bitcast %"class.std::__1::unique_ptr"* %269 to i64*
  %272 = load i64, i64* %271, align 8
  store %"class.gpu::gles2::ReadbackBufferShadowTracker::Buffer"* null, %"class.gpu::gles2::ReadbackBufferShadowTracker::Buffer"** %270, align 8
  %273 = bitcast %"class.std::__1::unique_ptr"* %268 to i64*
  store i64 %272, i64* %273, align 8
  %274 = load %"struct.std::__1::pair"*, %"struct.std::__1::pair"** %188, align 8
  %275 = getelementptr inbounds %"struct.std::__1::pair", %"struct.std::__1::pair"* %274, i64 -1
  store %"struct.std::__1::pair"* %275, %"struct.std::__1::pair"** %188, align 8
  %276 = getelementptr inbounds %"struct.std::__1::pair", %"struct.std::__1::pair"* %264, i64 -2
  %277 = getelementptr inbounds %"struct.std::__1::pair", %"struct.std::__1::pair"* %274, i64 -2, i32 0
  %278 = getelementptr inbounds %"struct.std::__1::pair", %"struct.std::__1::pair"* %276, i64 0, i32 0
  %279 = load i32, i32* %278, align 8
  store i32 %279, i32* %277, align 8
  %280 = getelementptr inbounds %"struct.std::__1::pair", %"struct.std::__1::pair"* %274, i64 -2, i32 1
  %281 = getelementptr inbounds %"struct.std::__1::pair", %"struct.std::__1::pair"* %264, i64 -2, i32 1
  %282 = getelementptr inbounds %"class.std::__1::unique_ptr", %"class.std::__1::unique_ptr"* %281, i64 0, i32 0, i32 0, i32 0
  %283 = bitcast %"class.std::__1::unique_ptr"* %281 to i64*
  %284 = load i64, i64* %283, align 8
  store %"class.gpu::gles2::ReadbackBufferShadowTracker::Buffer"* null, %"class.gpu::gles2::ReadbackBufferShadowTracker::Buffer"** %282, align 8
  %285 = bitcast %"class.std::__1::unique_ptr"* %280 to i64*
  store i64 %284, i64* %285, align 8
  %286 = load %"struct.std::__1::pair"*, %"struct.std::__1::pair"** %188, align 8
  %287 = getelementptr inbounds %"struct.std::__1::pair", %"struct.std::__1::pair"* %286, i64 -1
  store %"struct.std::__1::pair"* %287, %"struct.std::__1::pair"** %188, align 8
  %288 = icmp eq %"struct.std::__1::pair"* %276, %235
  br i1 %288, label %289, label %262

289:                                              ; preds = %257, %262, %228
  %290 = phi %"struct.std::__1::pair"* [ %234, %228 ], [ %258, %257 ], [ %287, %262 ]
  %291 = load %"struct.std::__1::pair"*, %"struct.std::__1::pair"** %7, align 8
  %292 = icmp eq %"struct.std::__1::pair"* %291, %1
  br i1 %292, label %293, label %299

293:                                              ; preds = %289
  %294 = ptrtoint %"struct.std::__1::pair"* %291 to i64
  %295 = ptrtoint %"struct.std::__1::pair"* %290 to i64
  %296 = bitcast %"struct.std::__1::pair"** %188 to i64*
  %297 = bitcast %"struct.std::__1::pair"** %189 to i64*
  %298 = load i64, i64* %297, align 8
  br label %358

299:                                              ; preds = %289
  %300 = load %"struct.std::__1::pair"*, %"struct.std::__1::pair"** %189, align 8
  %301 = getelementptr %"struct.std::__1::pair", %"struct.std::__1::pair"* %291, i64 -1, i32 0
  %302 = ptrtoint i32* %301 to i64
  %303 = sub i64 %302, %4
  %304 = and i64 %303, 16
  %305 = icmp eq i64 %304, 0
  br i1 %305, label %306, label %319

306:                                              ; preds = %299
  %307 = getelementptr inbounds %"struct.std::__1::pair", %"struct.std::__1::pair"* %300, i64 0, i32 0
  %308 = getelementptr inbounds %"struct.std::__1::pair", %"struct.std::__1::pair"* %1, i64 0, i32 0
  %309 = load i32, i32* %308, align 8
  store i32 %309, i32* %307, align 8
  %310 = getelementptr inbounds %"struct.std::__1::pair", %"struct.std::__1::pair"* %300, i64 0, i32 1
  %311 = getelementptr inbounds %"struct.std::__1::pair", %"struct.std::__1::pair"* %1, i64 0, i32 1
  %312 = getelementptr inbounds %"class.std::__1::unique_ptr", %"class.std::__1::unique_ptr"* %311, i64 0, i32 0, i32 0, i32 0
  %313 = bitcast %"class.std::__1::unique_ptr"* %311 to i64*
  %314 = load i64, i64* %313, align 8
  store %"class.gpu::gles2::ReadbackBufferShadowTracker::Buffer"* null, %"class.gpu::gles2::ReadbackBufferShadowTracker::Buffer"** %312, align 8
  %315 = bitcast %"class.std::__1::unique_ptr"* %310 to i64*
  store i64 %314, i64* %315, align 8
  %316 = getelementptr inbounds %"struct.std::__1::pair", %"struct.std::__1::pair"* %1, i64 1
  %317 = load %"struct.std::__1::pair"*, %"struct.std::__1::pair"** %189, align 8
  %318 = getelementptr inbounds %"struct.std::__1::pair", %"struct.std::__1::pair"* %317, i64 1
  store %"struct.std::__1::pair"* %318, %"struct.std::__1::pair"** %189, align 8
  br label %319

319:                                              ; preds = %306, %299
  %320 = phi %"struct.std::__1::pair"* [ undef, %299 ], [ %318, %306 ]
  %321 = phi %"struct.std::__1::pair"* [ %300, %299 ], [ %318, %306 ]
  %322 = phi %"struct.std::__1::pair"* [ %1, %299 ], [ %316, %306 ]
  %323 = icmp ult i64 %303, 16
  br i1 %323, label %351, label %324

324:                                              ; preds = %319, %324
  %325 = phi %"struct.std::__1::pair"* [ %349, %324 ], [ %321, %319 ]
  %326 = phi %"struct.std::__1::pair"* [ %347, %324 ], [ %322, %319 ]
  %327 = getelementptr inbounds %"struct.std::__1::pair", %"struct.std::__1::pair"* %325, i64 0, i32 0
  %328 = getelementptr inbounds %"struct.std::__1::pair", %"struct.std::__1::pair"* %326, i64 0, i32 0
  %329 = load i32, i32* %328, align 8
  store i32 %329, i32* %327, align 8
  %330 = getelementptr inbounds %"struct.std::__1::pair", %"struct.std::__1::pair"* %325, i64 0, i32 1
  %331 = getelementptr inbounds %"struct.std::__1::pair", %"struct.std::__1::pair"* %326, i64 0, i32 1
  %332 = getelementptr inbounds %"class.std::__1::unique_ptr", %"class.std::__1::unique_ptr"* %331, i64 0, i32 0, i32 0, i32 0
  %333 = bitcast %"class.std::__1::unique_ptr"* %331 to i64*
  %334 = load i64, i64* %333, align 8
  store %"class.gpu::gles2::ReadbackBufferShadowTracker::Buffer"* null, %"class.gpu::gles2::ReadbackBufferShadowTracker::Buffer"** %332, align 8
  %335 = bitcast %"class.std::__1::unique_ptr"* %330 to i64*
  store i64 %334, i64* %335, align 8
  %336 = load %"struct.std::__1::pair"*, %"struct.std::__1::pair"** %189, align 8
  %337 = getelementptr inbounds %"struct.std::__1::pair", %"struct.std::__1::pair"* %336, i64 1
  store %"struct.std::__1::pair"* %337, %"struct.std::__1::pair"** %189, align 8
  %338 = getelementptr inbounds %"struct.std::__1::pair", %"struct.std::__1::pair"* %337, i64 0, i32 0
  %339 = getelementptr inbounds %"struct.std::__1::pair", %"struct.std::__1::pair"* %326, i64 1, i32 0
  %340 = load i32, i32* %339, align 8
  store i32 %340, i32* %338, align 8
  %341 = getelementptr inbounds %"struct.std::__1::pair", %"struct.std::__1::pair"* %336, i64 1, i32 1
  %342 = getelementptr inbounds %"struct.std::__1::pair", %"struct.std::__1::pair"* %326, i64 1, i32 1
  %343 = getelementptr inbounds %"class.std::__1::unique_ptr", %"class.std::__1::unique_ptr"* %342, i64 0, i32 0, i32 0, i32 0
  %344 = bitcast %"class.std::__1::unique_ptr"* %342 to i64*
  %345 = load i64, i64* %344, align 8
  store %"class.gpu::gles2::ReadbackBufferShadowTracker::Buffer"* null, %"class.gpu::gles2::ReadbackBufferShadowTracker::Buffer"** %343, align 8
  %346 = bitcast %"class.std::__1::unique_ptr"* %341 to i64*
  store i64 %345, i64* %346, align 8
  %347 = getelementptr inbounds %"struct.std::__1::pair", %"struct.std::__1::pair"* %326, i64 2
  %348 = load %"struct.std::__1::pair"*, %"struct.std::__1::pair"** %189, align 8
  %349 = getelementptr inbounds %"struct.std::__1::pair", %"struct.std::__1::pair"* %348, i64 1
  store %"struct.std::__1::pair"* %349, %"struct.std::__1::pair"** %189, align 8
  %350 = icmp eq %"struct.std::__1::pair"* %347, %291
  br i1 %350, label %351, label %324

351:                                              ; preds = %324, %319
  %352 = phi %"struct.std::__1::pair"* [ %320, %319 ], [ %349, %324 ]
  %353 = ptrtoint %"struct.std::__1::pair"* %352 to i64
  %354 = bitcast %"struct.std::__1::pair"** %188 to i64*
  %355 = load i64, i64* %354, align 8
  %356 = load i64, i64* %192, align 8
  %357 = bitcast %"struct.std::__1::pair"** %189 to i64*
  br label %358

358:                                              ; preds = %293, %351
  %359 = phi i64* [ %297, %293 ], [ %357, %351 ]
  %360 = phi i64 [ %298, %293 ], [ %353, %351 ]
  %361 = phi i64 [ %294, %293 ], [ %356, %351 ]
  %362 = phi i64* [ %296, %293 ], [ %354, %351 ]
  %363 = phi i64 [ %295, %293 ], [ %355, %351 ]
  %364 = load i64, i64* %193, align 8
  store i64 %363, i64* %193, align 8
  store i64 %364, i64* %362, align 8
  store i64 %360, i64* %192, align 8
  store i64 %361, i64* %359, align 8
  %365 = load i64, i64* %203, align 8
  %366 = bitcast %"struct.std::__1::pair"** %190 to i64*
  %367 = load i64, i64* %366, align 8
  store i64 %367, i64* %203, align 8
  store i64 %365, i64* %366, align 8
  %368 = bitcast %"struct.std::__1::__split_buffer"* %5 to i64*
  store i64 %364, i64* %368, align 8
  call void @_ZNSt3__114__split_bufferINS_4pairIjNS_10unique_ptrIN3gpu5gles227ReadbackBufferShadowTracker6BufferENS_14default_deleteIS6_EEEEEERNS_9allocatorISA_EEED2Ev(%"struct.std::__1::__split_buffer"* nonnull %5) #11
  call void @llvm.lifetime.end.p0i8(i64 40, i8* nonnull %186) #11
  br label %369

369:                                              ; preds = %160, %180, %15, %358
  %370 = phi %"struct.std::__1::pair"* [ %1, %15 ], [ %234, %358 ], [ %1, %180 ], [ %1, %160 ]
  ret %"struct.std::__1::pair"* %370
}

; Function Attrs: argmemonly nounwind
declare void @llvm.memset.p0i8.i64(i8* nocapture writeonly, i8, i64, i1 immarg) #3

; Function Attrs: nounwind ssp uwtable
define linkonce_odr hidden void @_ZNSt3__114__split_bufferINS_4pairIjNS_10unique_ptrIN3gpu5gles227ReadbackBufferShadowTracker6BufferENS_14default_deleteIS6_EEEEEERNS_9allocatorISA_EEE12emplace_backIJSA_EEEvDpOT_(%"struct.std::__1::__split_buffer"*, %"struct.std::__1::pair"* dereferenceable(16)) local_unnamed_addr #0 comdat align 2 {
  %3 = alloca %"struct.std::__1::__split_buffer", align 8
  %4 = getelementptr inbounds %"struct.std::__1::__split_buffer", %"struct.std::__1::__split_buffer"* %0, i64 0, i32 2
  %5 = load %"struct.std::__1::pair"*, %"struct.std::__1::pair"** %4, align 8
  %6 = getelementptr inbounds %"struct.std::__1::__split_buffer", %"struct.std::__1::__split_buffer"* %0, i64 0, i32 3, i32 0, i32 0
  %7 = load %"struct.std::__1::pair"*, %"struct.std::__1::pair"** %6, align 8
  %8 = icmp eq %"struct.std::__1::pair"* %5, %7
  %9 = ptrtoint %"struct.std::__1::pair"* %7 to i64
  %10 = ptrtoint %"struct.std::__1::pair"* %5 to i64
  br i1 %8, label %11, label %202

11:                                               ; preds = %2
  %12 = getelementptr inbounds %"struct.std::__1::__split_buffer", %"struct.std::__1::__split_buffer"* %0, i64 0, i32 1
  %13 = load %"struct.std::__1::pair"*, %"struct.std::__1::pair"** %12, align 8
  %14 = getelementptr inbounds %"struct.std::__1::__split_buffer", %"struct.std::__1::__split_buffer"* %0, i64 0, i32 0
  %15 = load %"struct.std::__1::pair"*, %"struct.std::__1::pair"** %14, align 8
  %16 = icmp ugt %"struct.std::__1::pair"* %13, %15
  %17 = ptrtoint %"struct.std::__1::pair"* %15 to i64
  %18 = ptrtoint %"struct.std::__1::pair"* %13 to i64
  br i1 %16, label %19, label %67

19:                                               ; preds = %11
  %20 = sub i64 %18, %17
  %21 = ashr exact i64 %20, 4
  %22 = add nsw i64 %21, 1
  %23 = sdiv i64 %22, -2
  %24 = getelementptr inbounds %"struct.std::__1::pair", %"struct.std::__1::pair"* %13, i64 %23
  %25 = icmp eq %"struct.std::__1::pair"* %13, %5
  br i1 %25, label %63, label %26

26:                                               ; preds = %19, %57
  %27 = phi %"struct.std::__1::pair"* [ %59, %57 ], [ %24, %19 ]
  %28 = phi %"struct.std::__1::pair"* [ %58, %57 ], [ %13, %19 ]
  %29 = getelementptr inbounds %"struct.std::__1::pair", %"struct.std::__1::pair"* %28, i64 0, i32 0
  %30 = load i32, i32* %29, align 4
  %31 = getelementptr inbounds %"struct.std::__1::pair", %"struct.std::__1::pair"* %27, i64 0, i32 0
  store i32 %30, i32* %31, align 8
  %32 = getelementptr inbounds %"struct.std::__1::pair", %"struct.std::__1::pair"* %28, i64 0, i32 1
  %33 = getelementptr inbounds %"struct.std::__1::pair", %"struct.std::__1::pair"* %27, i64 0, i32 1
  %34 = getelementptr inbounds %"class.std::__1::unique_ptr", %"class.std::__1::unique_ptr"* %32, i64 0, i32 0, i32 0, i32 0
  %35 = bitcast %"class.std::__1::unique_ptr"* %32 to i64*
  %36 = load i64, i64* %35, align 8
  store %"class.gpu::gles2::ReadbackBufferShadowTracker::Buffer"* null, %"class.gpu::gles2::ReadbackBufferShadowTracker::Buffer"** %34, align 8
  %37 = getelementptr inbounds %"class.std::__1::unique_ptr", %"class.std::__1::unique_ptr"* %33, i64 0, i32 0, i32 0, i32 0
  %38 = load %"class.gpu::gles2::ReadbackBufferShadowTracker::Buffer"*, %"class.gpu::gles2::ReadbackBufferShadowTracker::Buffer"** %37, align 8
  %39 = bitcast %"class.std::__1::unique_ptr"* %33 to i64*
  store i64 %36, i64* %39, align 8
  %40 = icmp eq %"class.gpu::gles2::ReadbackBufferShadowTracker::Buffer"* %38, null
  br i1 %40, label %57, label %41

41:                                               ; preds = %26
  %42 = getelementptr inbounds %"class.gpu::gles2::ReadbackBufferShadowTracker::Buffer", %"class.gpu::gles2::ReadbackBufferShadowTracker::Buffer"* %38, i64 0, i32 6
  %43 = load i8*, i8** %42, align 8
  %44 = icmp eq i8* %43, null
  br i1 %44, label %54, label %45

45:                                               ; preds = %41
  %46 = getelementptr inbounds %"class.gpu::gles2::ReadbackBufferShadowTracker::Buffer", %"class.gpu::gles2::ReadbackBufferShadowTracker::Buffer"* %38, i64 0, i32 3
  %47 = load %"class.gpu::gles2::ReadbackBufferShadowTracker"*, %"class.gpu::gles2::ReadbackBufferShadowTracker"** %46, align 8
  %48 = getelementptr inbounds %"class.gpu::gles2::ReadbackBufferShadowTracker", %"class.gpu::gles2::ReadbackBufferShadowTracker"* %47, i64 0, i32 3
  %49 = load %"class.gpu::MappedMemoryManager"*, %"class.gpu::MappedMemoryManager"** %48, align 8
  %50 = getelementptr inbounds %"class.gpu::gles2::ReadbackBufferShadowTracker", %"class.gpu::gles2::ReadbackBufferShadowTracker"* %47, i64 0, i32 4
  %51 = bitcast %"class.gpu::gles2::GLES2CmdHelper"** %50 to %"class.gpu::CommandBufferHelper"**
  %52 = load %"class.gpu::CommandBufferHelper"*, %"class.gpu::CommandBufferHelper"** %51, align 8
  %53 = tail call i32 @_ZN3gpu19CommandBufferHelper11InsertTokenEv(%"class.gpu::CommandBufferHelper"* %52) #11
  tail call void @_ZN3gpu19MappedMemoryManager16FreePendingTokenEPvi(%"class.gpu::MappedMemoryManager"* %49, i8* nonnull %43, i32 %53) #11
  br label %54

54:                                               ; preds = %45, %41
  store i8* null, i8** %42, align 8
  %55 = getelementptr inbounds %"class.gpu::gles2::ReadbackBufferShadowTracker::Buffer", %"class.gpu::gles2::ReadbackBufferShadowTracker::Buffer"* %38, i64 0, i32 0, i32 0
  tail call void @_ZN4base8internal18WeakReferenceOwnerD1Ev(%"class.base::internal::WeakReferenceOwner"* %55) #11
  %56 = bitcast %"class.gpu::gles2::ReadbackBufferShadowTracker::Buffer"* %38 to i8*
  tail call void @_ZdlPv(i8* %56) #12
  br label %57

57:                                               ; preds = %54, %26
  %58 = getelementptr inbounds %"struct.std::__1::pair", %"struct.std::__1::pair"* %28, i64 1
  %59 = getelementptr inbounds %"struct.std::__1::pair", %"struct.std::__1::pair"* %27, i64 1
  %60 = icmp eq %"struct.std::__1::pair"* %58, %5
  br i1 %60, label %61, label %26

61:                                               ; preds = %57
  %62 = load %"struct.std::__1::pair"*, %"struct.std::__1::pair"** %12, align 8
  br label %63

63:                                               ; preds = %61, %19
  %64 = phi %"struct.std::__1::pair"* [ %5, %19 ], [ %62, %61 ]
  %65 = phi %"struct.std::__1::pair"* [ %24, %19 ], [ %59, %61 ]
  store %"struct.std::__1::pair"* %65, %"struct.std::__1::pair"** %4, align 8
  %66 = getelementptr inbounds %"struct.std::__1::pair", %"struct.std::__1::pair"* %64, i64 %23
  store %"struct.std::__1::pair"* %66, %"struct.std::__1::pair"** %12, align 8
  br label %202

67:                                               ; preds = %11
  %68 = bitcast %"struct.std::__1::pair"** %6 to i64*
  %69 = bitcast %"struct.std::__1::__split_buffer"* %0 to i64*
  %70 = sub i64 %9, %17
  %71 = ashr exact i64 %70, 3
  %72 = icmp eq i64 %70, 0
  %73 = select i1 %72, i64 1, i64 %71
  %74 = bitcast %"struct.std::__1::__split_buffer"* %3 to i8*
  call void @llvm.lifetime.start.p0i8(i64 40, i8* nonnull %74) #11
  %75 = getelementptr inbounds %"struct.std::__1::__split_buffer", %"struct.std::__1::__split_buffer"* %3, i64 0, i32 1
  %76 = getelementptr inbounds %"struct.std::__1::__split_buffer", %"struct.std::__1::__split_buffer"* %3, i64 0, i32 2
  %77 = getelementptr inbounds %"struct.std::__1::__split_buffer", %"struct.std::__1::__split_buffer"* %3, i64 0, i32 3, i32 0, i32 0
  %78 = getelementptr inbounds %"struct.std::__1::__split_buffer", %"struct.std::__1::__split_buffer"* %3, i64 0, i32 3, i32 1, i32 0
  %79 = getelementptr inbounds %"struct.std::__1::__split_buffer", %"struct.std::__1::__split_buffer"* %0, i64 0, i32 3, i32 1, i32 0
  %80 = bitcast %"class.std::__1::allocator"** %79 to i64*
  %81 = bitcast %"struct.std::__1::__split_buffer"* %3 to i8*
  call void @llvm.memset.p0i8.i64(i8* nonnull align 8 %81, i8 -86, i64 24, i1 false)
  %82 = load i64, i64* %80, align 8
  store %"struct.std::__1::pair"* null, %"struct.std::__1::pair"** %77, align 8
  %83 = bitcast %"class.std::__1::allocator"** %78 to i64*
  store i64 %82, i64* %83, align 8
  %84 = icmp ugt i64 %73, 1152921504606846975
  br i1 %84, label %85, label %86

85:                                               ; preds = %67
  tail call void @abort() #13
  unreachable

86:                                               ; preds = %67
  %87 = lshr i64 %73, 2
  %88 = shl i64 %73, 4
  %89 = tail call i8* @_Znwm(i64 %88) #12
  %90 = bitcast i8* %89 to %"struct.std::__1::pair"*
  %91 = bitcast %"struct.std::__1::__split_buffer"* %3 to i8**
  store i8* %89, i8** %91, align 8
  %92 = getelementptr inbounds %"struct.std::__1::pair", %"struct.std::__1::pair"* %90, i64 %87
  store %"struct.std::__1::pair"* %92, %"struct.std::__1::pair"** %76, align 8
  store %"struct.std::__1::pair"* %92, %"struct.std::__1::pair"** %75, align 8
  %93 = getelementptr inbounds %"struct.std::__1::pair", %"struct.std::__1::pair"* %90, i64 %73
  store %"struct.std::__1::pair"* %93, %"struct.std::__1::pair"** %77, align 8
  %94 = sub i64 %10, %18
  %95 = ashr exact i64 %94, 4
  %96 = bitcast %"struct.std::__1::pair"** %76 to i64*
  %97 = ptrtoint %"struct.std::__1::pair"* %92 to i64
  %98 = getelementptr inbounds %"struct.std::__1::pair", %"struct.std::__1::pair"* %92, i64 %95
  %99 = icmp eq i64 %94, 0
  %100 = ptrtoint i8* %89 to i64
  br i1 %99, label %128, label %101

101:                                              ; preds = %86
  %102 = add i64 %94, -16
  %103 = lshr i64 %102, 4
  %104 = add nuw nsw i64 %103, 1
  %105 = and i64 %104, 3
  %106 = icmp eq i64 %105, 0
  br i1 %106, label %124, label %107

107:                                              ; preds = %101, %107
  %108 = phi %"struct.std::__1::pair"* [ %120, %107 ], [ %92, %101 ]
  %109 = phi %"struct.std::__1::pair"* [ %121, %107 ], [ %13, %101 ]
  %110 = phi i64 [ %122, %107 ], [ %105, %101 ]
  %111 = getelementptr inbounds %"struct.std::__1::pair", %"struct.std::__1::pair"* %108, i64 0, i32 0
  %112 = getelementptr inbounds %"struct.std::__1::pair", %"struct.std::__1::pair"* %109, i64 0, i32 0
  %113 = load i32, i32* %112, align 8
  store i32 %113, i32* %111, align 8
  %114 = getelementptr inbounds %"struct.std::__1::pair", %"struct.std::__1::pair"* %108, i64 0, i32 1
  %115 = getelementptr inbounds %"struct.std::__1::pair", %"struct.std::__1::pair"* %109, i64 0, i32 1
  %116 = getelementptr inbounds %"class.std::__1::unique_ptr", %"class.std::__1::unique_ptr"* %115, i64 0, i32 0, i32 0, i32 0
  %117 = bitcast %"class.std::__1::unique_ptr"* %115 to i64*
  %118 = load i64, i64* %117, align 8
  store %"class.gpu::gles2::ReadbackBufferShadowTracker::Buffer"* null, %"class.gpu::gles2::ReadbackBufferShadowTracker::Buffer"** %116, align 8
  %119 = bitcast %"class.std::__1::unique_ptr"* %114 to i64*
  store i64 %118, i64* %119, align 8
  %120 = getelementptr inbounds %"struct.std::__1::pair", %"struct.std::__1::pair"* %108, i64 1
  %121 = getelementptr inbounds %"struct.std::__1::pair", %"struct.std::__1::pair"* %109, i64 1
  %122 = add i64 %110, -1
  %123 = icmp eq i64 %122, 0
  br i1 %123, label %124, label %107, !llvm.loop !8

124:                                              ; preds = %107, %101
  %125 = phi %"struct.std::__1::pair"* [ %92, %101 ], [ %120, %107 ]
  %126 = phi %"struct.std::__1::pair"* [ %13, %101 ], [ %121, %107 ]
  %127 = icmp ult i64 %102, 48
  br i1 %127, label %176, label %134

128:                                              ; preds = %86
  %129 = ptrtoint %"struct.std::__1::pair"* %93 to i64
  %130 = bitcast %"struct.std::__1::pair"** %12 to i64*
  %131 = bitcast %"struct.std::__1::pair"** %75 to i64*
  %132 = bitcast %"struct.std::__1::pair"** %4 to i64*
  %133 = bitcast %"struct.std::__1::pair"** %77 to i64*
  br label %188

134:                                              ; preds = %124, %134
  %135 = phi %"struct.std::__1::pair"* [ %173, %134 ], [ %125, %124 ]
  %136 = phi %"struct.std::__1::pair"* [ %174, %134 ], [ %126, %124 ]
  %137 = getelementptr inbounds %"struct.std::__1::pair", %"struct.std::__1::pair"* %135, i64 0, i32 0
  %138 = getelementptr inbounds %"struct.std::__1::pair", %"struct.std::__1::pair"* %136, i64 0, i32 0
  %139 = load i32, i32* %138, align 8
  store i32 %139, i32* %137, align 8
  %140 = getelementptr inbounds %"struct.std::__1::pair", %"struct.std::__1::pair"* %135, i64 0, i32 1
  %141 = getelementptr inbounds %"struct.std::__1::pair", %"struct.std::__1::pair"* %136, i64 0, i32 1
  %142 = getelementptr inbounds %"class.std::__1::unique_ptr", %"class.std::__1::unique_ptr"* %141, i64 0, i32 0, i32 0, i32 0
  %143 = bitcast %"class.std::__1::unique_ptr"* %141 to i64*
  %144 = load i64, i64* %143, align 8
  store %"class.gpu::gles2::ReadbackBufferShadowTracker::Buffer"* null, %"class.gpu::gles2::ReadbackBufferShadowTracker::Buffer"** %142, align 8
  %145 = bitcast %"class.std::__1::unique_ptr"* %140 to i64*
  store i64 %144, i64* %145, align 8
  %146 = getelementptr inbounds %"struct.std::__1::pair", %"struct.std::__1::pair"* %135, i64 1, i32 0
  %147 = getelementptr inbounds %"struct.std::__1::pair", %"struct.std::__1::pair"* %136, i64 1, i32 0
  %148 = load i32, i32* %147, align 8
  store i32 %148, i32* %146, align 8
  %149 = getelementptr inbounds %"struct.std::__1::pair", %"struct.std::__1::pair"* %135, i64 1, i32 1
  %150 = getelementptr inbounds %"struct.std::__1::pair", %"struct.std::__1::pair"* %136, i64 1, i32 1
  %151 = getelementptr inbounds %"class.std::__1::unique_ptr", %"class.std::__1::unique_ptr"* %150, i64 0, i32 0, i32 0, i32 0
  %152 = bitcast %"class.std::__1::unique_ptr"* %150 to i64*
  %153 = load i64, i64* %152, align 8
  store %"class.gpu::gles2::ReadbackBufferShadowTracker::Buffer"* null, %"class.gpu::gles2::ReadbackBufferShadowTracker::Buffer"** %151, align 8
  %154 = bitcast %"class.std::__1::unique_ptr"* %149 to i64*
  store i64 %153, i64* %154, align 8
  %155 = getelementptr inbounds %"struct.std::__1::pair", %"struct.std::__1::pair"* %135, i64 2, i32 0
  %156 = getelementptr inbounds %"struct.std::__1::pair", %"struct.std::__1::pair"* %136, i64 2, i32 0
  %157 = load i32, i32* %156, align 8
  store i32 %157, i32* %155, align 8
  %158 = getelementptr inbounds %"struct.std::__1::pair", %"struct.std::__1::pair"* %135, i64 2, i32 1
  %159 = getelementptr inbounds %"struct.std::__1::pair", %"struct.std::__1::pair"* %136, i64 2, i32 1
  %160 = getelementptr inbounds %"class.std::__1::unique_ptr", %"class.std::__1::unique_ptr"* %159, i64 0, i32 0, i32 0, i32 0
  %161 = bitcast %"class.std::__1::unique_ptr"* %159 to i64*
  %162 = load i64, i64* %161, align 8
  store %"class.gpu::gles2::ReadbackBufferShadowTracker::Buffer"* null, %"class.gpu::gles2::ReadbackBufferShadowTracker::Buffer"** %160, align 8
  %163 = bitcast %"class.std::__1::unique_ptr"* %158 to i64*
  store i64 %162, i64* %163, align 8
  %164 = getelementptr inbounds %"struct.std::__1::pair", %"struct.std::__1::pair"* %135, i64 3, i32 0
  %165 = getelementptr inbounds %"struct.std::__1::pair", %"struct.std::__1::pair"* %136, i64 3, i32 0
  %166 = load i32, i32* %165, align 8
  store i32 %166, i32* %164, align 8
  %167 = getelementptr inbounds %"struct.std::__1::pair", %"struct.std::__1::pair"* %135, i64 3, i32 1
  %168 = getelementptr inbounds %"struct.std::__1::pair", %"struct.std::__1::pair"* %136, i64 3, i32 1
  %169 = getelementptr inbounds %"class.std::__1::unique_ptr", %"class.std::__1::unique_ptr"* %168, i64 0, i32 0, i32 0, i32 0
  %170 = bitcast %"class.std::__1::unique_ptr"* %168 to i64*
  %171 = load i64, i64* %170, align 8
  store %"class.gpu::gles2::ReadbackBufferShadowTracker::Buffer"* null, %"class.gpu::gles2::ReadbackBufferShadowTracker::Buffer"** %169, align 8
  %172 = bitcast %"class.std::__1::unique_ptr"* %167 to i64*
  store i64 %171, i64* %172, align 8
  %173 = getelementptr inbounds %"struct.std::__1::pair", %"struct.std::__1::pair"* %135, i64 4
  %174 = getelementptr inbounds %"struct.std::__1::pair", %"struct.std::__1::pair"* %136, i64 4
  %175 = icmp eq %"struct.std::__1::pair"* %98, %173
  br i1 %175, label %176, label %134

176:                                              ; preds = %134, %124
  %177 = ptrtoint %"struct.std::__1::pair"* %98 to i64
  %178 = load i64, i64* %69, align 8
  %179 = bitcast %"struct.std::__1::pair"** %12 to i64*
  %180 = load i64, i64* %179, align 8
  %181 = bitcast %"struct.std::__1::pair"** %75 to i64*
  %182 = load i64, i64* %181, align 8
  %183 = bitcast %"struct.std::__1::pair"** %4 to i64*
  %184 = load i64, i64* %183, align 8
  %185 = load i64, i64* %68, align 8
  %186 = bitcast %"struct.std::__1::pair"** %77 to i64*
  %187 = load i64, i64* %186, align 8
  br label %188

188:                                              ; preds = %128, %176
  %189 = phi i64* [ %133, %128 ], [ %186, %176 ]
  %190 = phi i64* [ %132, %128 ], [ %183, %176 ]
  %191 = phi i64* [ %131, %128 ], [ %181, %176 ]
  %192 = phi i64* [ %130, %128 ], [ %179, %176 ]
  %193 = phi i64 [ %129, %128 ], [ %187, %176 ]
  %194 = phi i64 [ %9, %128 ], [ %185, %176 ]
  %195 = phi i64 [ %10, %128 ], [ %184, %176 ]
  %196 = phi i64 [ %97, %128 ], [ %182, %176 ]
  %197 = phi i64 [ %18, %128 ], [ %180, %176 ]
  %198 = phi i64 [ %17, %128 ], [ %178, %176 ]
  %199 = phi i64 [ %97, %128 ], [ %177, %176 ]
  %200 = bitcast %"struct.std::__1::__split_buffer"* %3 to i64*
  store i64 %100, i64* %69, align 8
  store i64 %198, i64* %200, align 8
  store i64 %196, i64* %192, align 8
  store i64 %197, i64* %191, align 8
  store i64 %199, i64* %190, align 8
  store i64 %195, i64* %96, align 8
  store i64 %193, i64* %68, align 8
  store i64 %194, i64* %189, align 8
  call void @_ZNSt3__114__split_bufferINS_4pairIjNS_10unique_ptrIN3gpu5gles227ReadbackBufferShadowTracker6BufferENS_14default_deleteIS6_EEEEEERNS_9allocatorISA_EEED2Ev(%"struct.std::__1::__split_buffer"* nonnull %3) #11
  call void @llvm.lifetime.end.p0i8(i64 40, i8* nonnull %74) #11
  %201 = load %"struct.std::__1::pair"*, %"struct.std::__1::pair"** %4, align 8
  br label %202

202:                                              ; preds = %63, %188, %2
  %203 = phi %"struct.std::__1::pair"* [ %65, %63 ], [ %201, %188 ], [ %5, %2 ]
  %204 = getelementptr inbounds %"struct.std::__1::pair", %"struct.std::__1::pair"* %203, i64 0, i32 0
  %205 = getelementptr inbounds %"struct.std::__1::pair", %"struct.std::__1::pair"* %1, i64 0, i32 0
  %206 = load i32, i32* %205, align 8
  store i32 %206, i32* %204, align 8
  %207 = getelementptr inbounds %"struct.std::__1::pair", %"struct.std::__1::pair"* %203, i64 0, i32 1
  %208 = getelementptr inbounds %"struct.std::__1::pair", %"struct.std::__1::pair"* %1, i64 0, i32 1
  %209 = getelementptr inbounds %"class.std::__1::unique_ptr", %"class.std::__1::unique_ptr"* %208, i64 0, i32 0, i32 0, i32 0
  %210 = bitcast %"class.std::__1::unique_ptr"* %208 to i64*
  %211 = load i64, i64* %210, align 8
  store %"class.gpu::gles2::ReadbackBufferShadowTracker::Buffer"* null, %"class.gpu::gles2::ReadbackBufferShadowTracker::Buffer"** %209, align 8
  %212 = bitcast %"class.std::__1::unique_ptr"* %207 to i64*
  store i64 %211, i64* %212, align 8
  %213 = load %"struct.std::__1::pair"*, %"struct.std::__1::pair"** %4, align 8
  %214 = getelementptr inbounds %"struct.std::__1::pair", %"struct.std::__1::pair"* %213, i64 1
  store %"struct.std::__1::pair"* %214, %"struct.std::__1::pair"** %4, align 8
  ret void
}

; Function Attrs: nounwind ssp uwtable
define linkonce_odr hidden void @_ZNSt3__114__split_bufferINS_4pairIjNS_10unique_ptrIN3gpu5gles227ReadbackBufferShadowTracker6BufferENS_14default_deleteIS6_EEEEEERNS_9allocatorISA_EEED2Ev(%"struct.std::__1::__split_buffer"*) unnamed_addr #0 comdat align 2 {
  %2 = getelementptr inbounds %"struct.std::__1::__split_buffer", %"struct.std::__1::__split_buffer"* %0, i64 0, i32 1
  %3 = load %"struct.std::__1::pair"*, %"struct.std::__1::pair"** %2, align 8
  %4 = getelementptr inbounds %"struct.std::__1::__split_buffer", %"struct.std::__1::__split_buffer"* %0, i64 0, i32 2
  %5 = load %"struct.std::__1::pair"*, %"struct.std::__1::pair"** %4, align 8
  %6 = icmp eq %"struct.std::__1::pair"* %5, %3
  br i1 %6, label %32, label %7

7:                                                ; preds = %1, %29
  %8 = phi %"struct.std::__1::pair"* [ %30, %29 ], [ %5, %1 ]
  %9 = getelementptr inbounds %"struct.std::__1::pair", %"struct.std::__1::pair"* %8, i64 -1
  store %"struct.std::__1::pair"* %9, %"struct.std::__1::pair"** %4, align 8
  %10 = getelementptr inbounds %"struct.std::__1::pair", %"struct.std::__1::pair"* %8, i64 -1, i32 1, i32 0, i32 0, i32 0
  %11 = load %"class.gpu::gles2::ReadbackBufferShadowTracker::Buffer"*, %"class.gpu::gles2::ReadbackBufferShadowTracker::Buffer"** %10, align 8
  store %"class.gpu::gles2::ReadbackBufferShadowTracker::Buffer"* null, %"class.gpu::gles2::ReadbackBufferShadowTracker::Buffer"** %10, align 8
  %12 = icmp eq %"class.gpu::gles2::ReadbackBufferShadowTracker::Buffer"* %11, null
  br i1 %12, label %29, label %13

13:                                               ; preds = %7
  %14 = getelementptr inbounds %"class.gpu::gles2::ReadbackBufferShadowTracker::Buffer", %"class.gpu::gles2::ReadbackBufferShadowTracker::Buffer"* %11, i64 0, i32 6
  %15 = load i8*, i8** %14, align 8
  %16 = icmp eq i8* %15, null
  br i1 %16, label %26, label %17

17:                                               ; preds = %13
  %18 = getelementptr inbounds %"class.gpu::gles2::ReadbackBufferShadowTracker::Buffer", %"class.gpu::gles2::ReadbackBufferShadowTracker::Buffer"* %11, i64 0, i32 3
  %19 = load %"class.gpu::gles2::ReadbackBufferShadowTracker"*, %"class.gpu::gles2::ReadbackBufferShadowTracker"** %18, align 8
  %20 = getelementptr inbounds %"class.gpu::gles2::ReadbackBufferShadowTracker", %"class.gpu::gles2::ReadbackBufferShadowTracker"* %19, i64 0, i32 3
  %21 = load %"class.gpu::MappedMemoryManager"*, %"class.gpu::MappedMemoryManager"** %20, align 8
  %22 = getelementptr inbounds %"class.gpu::gles2::ReadbackBufferShadowTracker", %"class.gpu::gles2::ReadbackBufferShadowTracker"* %19, i64 0, i32 4
  %23 = bitcast %"class.gpu::gles2::GLES2CmdHelper"** %22 to %"class.gpu::CommandBufferHelper"**
  %24 = load %"class.gpu::CommandBufferHelper"*, %"class.gpu::CommandBufferHelper"** %23, align 8
  %25 = tail call i32 @_ZN3gpu19CommandBufferHelper11InsertTokenEv(%"class.gpu::CommandBufferHelper"* %24) #11
  tail call void @_ZN3gpu19MappedMemoryManager16FreePendingTokenEPvi(%"class.gpu::MappedMemoryManager"* %21, i8* nonnull %15, i32 %25) #11
  br label %26

26:                                               ; preds = %17, %13
  store i8* null, i8** %14, align 8
  %27 = getelementptr inbounds %"class.gpu::gles2::ReadbackBufferShadowTracker::Buffer", %"class.gpu::gles2::ReadbackBufferShadowTracker::Buffer"* %11, i64 0, i32 0, i32 0
  tail call void @_ZN4base8internal18WeakReferenceOwnerD1Ev(%"class.base::internal::WeakReferenceOwner"* %27) #11
  %28 = bitcast %"class.gpu::gles2::ReadbackBufferShadowTracker::Buffer"* %11 to i8*
  tail call void @_ZdlPv(i8* %28) #12
  br label %29

29:                                               ; preds = %26, %7
  %30 = load %"struct.std::__1::pair"*, %"struct.std::__1::pair"** %4, align 8
  %31 = icmp eq %"struct.std::__1::pair"* %30, %3
  br i1 %31, label %32, label %7

32:                                               ; preds = %29, %1
  %33 = getelementptr inbounds %"struct.std::__1::__split_buffer", %"struct.std::__1::__split_buffer"* %0, i64 0, i32 0
  %34 = load %"struct.std::__1::pair"*, %"struct.std::__1::pair"** %33, align 8
  %35 = icmp eq %"struct.std::__1::pair"* %34, null
  br i1 %35, label %38, label %36

36:                                               ; preds = %32
  %37 = bitcast %"struct.std::__1::pair"* %34 to i8*
  tail call void @_ZdlPv(i8* %37) #12
  br label %38

38:                                               ; preds = %32, %36
  ret void
}

; Function Attrs: noreturn
declare void @_ZNKSt3__120__vector_base_commonILb1EE20__throw_length_errorEv(%"class.std::__1::__vector_base_common"*) local_unnamed_addr #8

; Function Attrs: noreturn nounwind
declare void @abort() local_unnamed_addr #9

declare zeroext i1 @_ZNK4base8internal13WeakReference7IsValidEv(%"class.base::internal::WeakReference"*) local_unnamed_addr #1

declare void @_ZNK4base8internal18WeakReferenceOwner6GetRefEv(%"class.base::internal::WeakReference"* sret, %"class.base::internal::WeakReferenceOwner"*) local_unnamed_addr #1

; Function Attrs: nounwind
declare void @_ZN4base8internal13WeakReferenceD1Ev(%"class.base::internal::WeakReference"*) unnamed_addr #6

declare void @_ZN4base8internal11WeakPtrBaseC2ERKNS0_13WeakReferenceEm(%"class.base::internal::WeakPtrBase"*, %"class.base::internal::WeakReference"* dereferenceable(8), i64) unnamed_addr #1

; Function Attrs: inlinehint nounwind ssp uwtable
define linkonce_odr hidden void @_ZNSt3__16vectorIN4base7WeakPtrIN3gpu5gles227ReadbackBufferShadowTracker6BufferEEENS_9allocatorIS7_EEE21__push_back_slow_pathIS7_EEvOT_(%"class.std::__1::vector.10"*, %"class.base::WeakPtr"* dereferenceable(16)) local_unnamed_addr #10 comdat align 2 {
  %3 = getelementptr inbounds %"class.std::__1::vector.10", %"class.std::__1::vector.10"* %0, i64 0, i32 0, i32 1
  %4 = bitcast %"class.base::WeakPtr"** %3 to i64*
  %5 = load i64, i64* %4, align 8
  %6 = bitcast %"class.std::__1::vector.10"* %0 to i64*
  %7 = load i64, i64* %6, align 8
  %8 = sub i64 %5, %7
  %9 = ashr exact i64 %8, 4
  %10 = add nsw i64 %9, 1
  %11 = icmp ugt i64 %10, 1152921504606846975
  br i1 %11, label %12, label %14

12:                                               ; preds = %2
  %13 = bitcast %"class.std::__1::vector.10"* %0 to %"class.std::__1::__vector_base_common"*
  tail call void @_ZNKSt3__120__vector_base_commonILb1EE20__throw_length_errorEv(%"class.std::__1::__vector_base_common"* %13) #13
  unreachable

14:                                               ; preds = %2
  %15 = getelementptr inbounds %"class.std::__1::vector.10", %"class.std::__1::vector.10"* %0, i64 0, i32 0, i32 2, i32 0, i32 0
  %16 = bitcast %"class.base::WeakPtr"** %15 to i64*
  %17 = load i64, i64* %16, align 8
  %18 = sub i64 %17, %7
  %19 = ashr exact i64 %18, 4
  %20 = icmp ult i64 %19, 576460752303423487
  br i1 %20, label %21, label %29

21:                                               ; preds = %14
  %22 = ashr exact i64 %18, 3
  %23 = icmp ult i64 %22, %10
  %24 = select i1 %23, i64 %10, i64 %22
  %25 = icmp eq i64 %24, 0
  br i1 %25, label %34, label %26

26:                                               ; preds = %21
  %27 = icmp ugt i64 %24, 1152921504606846975
  br i1 %27, label %28, label %29

28:                                               ; preds = %26
  tail call void @abort() #13
  unreachable

29:                                               ; preds = %14, %26
  %30 = phi i64 [ %24, %26 ], [ 1152921504606846975, %14 ]
  %31 = shl i64 %30, 4
  %32 = tail call i8* @_Znwm(i64 %31) #12
  %33 = bitcast i8* %32 to %"class.base::WeakPtr"*
  br label %34

34:                                               ; preds = %21, %29
  %35 = phi i64 [ %30, %29 ], [ 0, %21 ]
  %36 = phi %"class.base::WeakPtr"* [ %33, %29 ], [ null, %21 ]
  %37 = getelementptr inbounds %"class.base::WeakPtr", %"class.base::WeakPtr"* %36, i64 %9
  %38 = getelementptr inbounds %"class.base::WeakPtr", %"class.base::WeakPtr"* %36, i64 %35
  %39 = ptrtoint %"class.base::WeakPtr"* %38 to i64
  %40 = getelementptr inbounds %"class.base::WeakPtr", %"class.base::WeakPtr"* %37, i64 0, i32 0, i32 0
  %41 = getelementptr inbounds %"class.base::WeakPtr", %"class.base::WeakPtr"* %1, i64 0, i32 0, i32 0
  tail call void @_ZN4base8internal13WeakReferenceC1EOS1_(%"class.base::internal::WeakReference"* %40, %"class.base::internal::WeakReference"* dereferenceable(8) %41) #11
  %42 = getelementptr inbounds %"class.base::WeakPtr", %"class.base::WeakPtr"* %36, i64 %9, i32 0, i32 1
  %43 = getelementptr inbounds %"class.base::WeakPtr", %"class.base::WeakPtr"* %1, i64 0, i32 0, i32 1
  %44 = load i64, i64* %43, align 8
  store i64 %44, i64* %42, align 8
  %45 = getelementptr inbounds %"class.base::WeakPtr", %"class.base::WeakPtr"* %37, i64 1
  %46 = ptrtoint %"class.base::WeakPtr"* %45 to i64
  %47 = getelementptr inbounds %"class.std::__1::vector.10", %"class.std::__1::vector.10"* %0, i64 0, i32 0, i32 0
  %48 = load %"class.base::WeakPtr"*, %"class.base::WeakPtr"** %47, align 8
  %49 = load %"class.base::WeakPtr"*, %"class.base::WeakPtr"** %3, align 8
  %50 = icmp eq %"class.base::WeakPtr"* %49, %48
  br i1 %50, label %51, label %53

51:                                               ; preds = %34
  %52 = ptrtoint %"class.base::WeakPtr"* %48 to i64
  br label %67

53:                                               ; preds = %34, %53
  %54 = phi %"class.base::WeakPtr"* [ %62, %53 ], [ %37, %34 ]
  %55 = phi %"class.base::WeakPtr"* [ %56, %53 ], [ %49, %34 ]
  %56 = getelementptr inbounds %"class.base::WeakPtr", %"class.base::WeakPtr"* %55, i64 -1
  %57 = getelementptr inbounds %"class.base::WeakPtr", %"class.base::WeakPtr"* %54, i64 -1, i32 0, i32 0
  %58 = getelementptr inbounds %"class.base::WeakPtr", %"class.base::WeakPtr"* %56, i64 0, i32 0, i32 0
  tail call void @_ZN4base8internal13WeakReferenceC1EOS1_(%"class.base::internal::WeakReference"* %57, %"class.base::internal::WeakReference"* dereferenceable(8) %58) #11
  %59 = getelementptr inbounds %"class.base::WeakPtr", %"class.base::WeakPtr"* %54, i64 -1, i32 0, i32 1
  %60 = getelementptr inbounds %"class.base::WeakPtr", %"class.base::WeakPtr"* %55, i64 -1, i32 0, i32 1
  %61 = load i64, i64* %60, align 8
  store i64 %61, i64* %59, align 8
  %62 = getelementptr inbounds %"class.base::WeakPtr", %"class.base::WeakPtr"* %54, i64 -1
  %63 = icmp eq %"class.base::WeakPtr"* %56, %48
  br i1 %63, label %64, label %53

64:                                               ; preds = %53
  %65 = load i64, i64* %6, align 8
  %66 = load %"class.base::WeakPtr"*, %"class.base::WeakPtr"** %3, align 8
  br label %67

67:                                               ; preds = %51, %64
  %68 = phi %"class.base::WeakPtr"* [ %48, %51 ], [ %66, %64 ]
  %69 = phi %"class.base::WeakPtr"* [ %37, %51 ], [ %62, %64 ]
  %70 = phi i64 [ %52, %51 ], [ %65, %64 ]
  %71 = ptrtoint %"class.base::WeakPtr"* %69 to i64
  store i64 %71, i64* %6, align 8
  store i64 %46, i64* %4, align 8
  store i64 %39, i64* %16, align 8
  %72 = inttoptr i64 %70 to %"class.base::WeakPtr"*
  %73 = icmp eq %"class.base::WeakPtr"* %68, %72
  br i1 %73, label %79, label %74

74:                                               ; preds = %67, %74
  %75 = phi %"class.base::WeakPtr"* [ %76, %74 ], [ %68, %67 ]
  %76 = getelementptr inbounds %"class.base::WeakPtr", %"class.base::WeakPtr"* %75, i64 -1
  %77 = getelementptr inbounds %"class.base::WeakPtr", %"class.base::WeakPtr"* %76, i64 0, i32 0
  tail call void @_ZN4base8internal11WeakPtrBaseD2Ev(%"class.base::internal::WeakPtrBase"* %77) #11
  %78 = icmp eq %"class.base::WeakPtr"* %76, %72
  br i1 %78, label %79, label %74

79:                                               ; preds = %74, %67
  %80 = icmp eq i64 %70, 0
  br i1 %80, label %83, label %81

81:                                               ; preds = %79
  %82 = inttoptr i64 %70 to i8*
  tail call void @_ZdlPv(i8* %82) #12
  br label %83

83:                                               ; preds = %79, %81
  ret void
}

; Function Attrs: nounwind
declare void @_ZN4base8internal13WeakReferenceC1EOS1_(%"class.base::internal::WeakReference"*, %"class.base::internal::WeakReference"* dereferenceable(8)) unnamed_addr #6

attributes #0 = { nounwind ssp uwtable "correctly-rounded-divide-sqrt-fp-math"="false" "disable-tail-calls"="false" "less-precise-fpmad"="false" "min-legal-vector-width"="0" "no-frame-pointer-elim"="false" "no-frame-pointer-elim-non-leaf" "no-infs-fp-math"="false" "no-jump-tables"="false" "no-nans-fp-math"="false" "no-signed-zeros-fp-math"="false" "no-trapping-math"="false" "null-pointer-is-valid"="true" "stack-protector-buffer-size"="4" "target-cpu"="x86-64" "target-features"="+cx8,+fxsr,+mmx,+sse,+sse2,+sse3,+x87" "unsafe-fp-math"="false" "use-soft-float"="false" }
attributes #1 = { "correctly-rounded-divide-sqrt-fp-math"="false" "disable-tail-calls"="false" "less-precise-fpmad"="false" "no-frame-pointer-elim"="false" "no-frame-pointer-elim-non-leaf" "no-infs-fp-math"="false" "no-nans-fp-math"="false" "no-signed-zeros-fp-math"="false" "no-trapping-math"="false" "null-pointer-is-valid"="true" "stack-protector-buffer-size"="4" "target-cpu"="x86-64" "target-features"="+cx8,+fxsr,+mmx,+sse,+sse2,+sse3,+x87" "unsafe-fp-math"="false" "use-soft-float"="false" }
attributes #2 = { nofree norecurse nounwind ssp uwtable "correctly-rounded-divide-sqrt-fp-math"="false" "disable-tail-calls"="false" "less-precise-fpmad"="false" "min-legal-vector-width"="0" "no-frame-pointer-elim"="false" "no-frame-pointer-elim-non-leaf" "no-infs-fp-math"="false" "no-jump-tables"="false" "no-nans-fp-math"="false" "no-signed-zeros-fp-math"="false" "no-trapping-math"="false" "null-pointer-is-valid"="true" "stack-protector-buffer-size"="4" "target-cpu"="x86-64" "target-features"="+cx8,+fxsr,+mmx,+sse,+sse2,+sse3,+x87" "unsafe-fp-math"="false" "use-soft-float"="false" }
attributes #3 = { argmemonly nounwind }
attributes #4 = { nofree norecurse nounwind ssp uwtable writeonly "correctly-rounded-divide-sqrt-fp-math"="false" "disable-tail-calls"="false" "less-precise-fpmad"="false" "min-legal-vector-width"="0" "no-frame-pointer-elim"="false" "no-frame-pointer-elim-non-leaf" "no-infs-fp-math"="false" "no-jump-tables"="false" "no-nans-fp-math"="false" "no-signed-zeros-fp-math"="false" "no-trapping-math"="false" "null-pointer-is-valid"="true" "stack-protector-buffer-size"="4" "target-cpu"="x86-64" "target-features"="+cx8,+fxsr,+mmx,+sse,+sse2,+sse3,+x87" "unsafe-fp-math"="false" "use-soft-float"="false" }
attributes #5 = { nobuiltin nofree "correctly-rounded-divide-sqrt-fp-math"="false" "disable-tail-calls"="false" "less-precise-fpmad"="false" "no-frame-pointer-elim"="false" "no-frame-pointer-elim-non-leaf" "no-infs-fp-math"="false" "no-nans-fp-math"="false" "no-signed-zeros-fp-math"="false" "no-trapping-math"="false" "null-pointer-is-valid"="true" "stack-protector-buffer-size"="4" "target-cpu"="x86-64" "target-features"="+cx8,+fxsr,+mmx,+sse,+sse2,+sse3,+x87" "unsafe-fp-math"="false" "use-soft-float"="false" }
attributes #6 = { nounwind "correctly-rounded-divide-sqrt-fp-math"="false" "disable-tail-calls"="false" "less-precise-fpmad"="false" "no-frame-pointer-elim"="false" "no-frame-pointer-elim-non-leaf" "no-infs-fp-math"="false" "no-nans-fp-math"="false" "no-signed-zeros-fp-math"="false" "no-trapping-math"="false" "null-pointer-is-valid"="true" "stack-protector-buffer-size"="4" "target-cpu"="x86-64" "target-features"="+cx8,+fxsr,+mmx,+sse,+sse2,+sse3,+x87" "unsafe-fp-math"="false" "use-soft-float"="false" }
attributes #7 = { nobuiltin nounwind "correctly-rounded-divide-sqrt-fp-math"="false" "disable-tail-calls"="false" "less-precise-fpmad"="false" "no-frame-pointer-elim"="false" "no-frame-pointer-elim-non-leaf" "no-infs-fp-math"="false" "no-nans-fp-math"="false" "no-signed-zeros-fp-math"="false" "no-trapping-math"="false" "null-pointer-is-valid"="true" "stack-protector-buffer-size"="4" "target-cpu"="x86-64" "target-features"="+cx8,+fxsr,+mmx,+sse,+sse2,+sse3,+x87" "unsafe-fp-math"="false" "use-soft-float"="false" }
attributes #8 = { noreturn "correctly-rounded-divide-sqrt-fp-math"="false" "disable-tail-calls"="false" "less-precise-fpmad"="false" "no-frame-pointer-elim"="false" "no-frame-pointer-elim-non-leaf" "no-infs-fp-math"="false" "no-nans-fp-math"="false" "no-signed-zeros-fp-math"="false" "no-trapping-math"="false" "null-pointer-is-valid"="true" "stack-protector-buffer-size"="4" "target-cpu"="x86-64" "target-features"="+cx8,+fxsr,+mmx,+sse,+sse2,+sse3,+x87" "unsafe-fp-math"="false" "use-soft-float"="false" }
attributes #9 = { noreturn nounwind "correctly-rounded-divide-sqrt-fp-math"="false" "disable-tail-calls"="false" "less-precise-fpmad"="false" "no-frame-pointer-elim"="false" "no-frame-pointer-elim-non-leaf" "no-infs-fp-math"="false" "no-nans-fp-math"="false" "no-signed-zeros-fp-math"="false" "no-trapping-math"="false" "null-pointer-is-valid"="true" "stack-protector-buffer-size"="4" "target-cpu"="x86-64" "target-features"="+cx8,+fxsr,+mmx,+sse,+sse2,+sse3,+x87" "unsafe-fp-math"="false" "use-soft-float"="false" }
attributes #10 = { inlinehint nounwind ssp uwtable "correctly-rounded-divide-sqrt-fp-math"="false" "disable-tail-calls"="false" "less-precise-fpmad"="false" "min-legal-vector-width"="0" "no-frame-pointer-elim"="false" "no-frame-pointer-elim-non-leaf" "no-infs-fp-math"="false" "no-jump-tables"="false" "no-nans-fp-math"="false" "no-signed-zeros-fp-math"="false" "no-trapping-math"="false" "null-pointer-is-valid"="true" "stack-protector-buffer-size"="4" "target-cpu"="x86-64" "target-features"="+cx8,+fxsr,+mmx,+sse,+sse2,+sse3,+x87" "unsafe-fp-math"="false" "use-soft-float"="false" }
attributes #11 = { nounwind }
attributes #12 = { builtin nounwind }
attributes #13 = { noreturn nounwind }

!llvm.module.flags = !{!0, !1}

!0 = !{i32 1, !"wchar_size", i32 4}
!1 = !{i32 7, !"PIC Level", i32 2}
!2 = !{i8 0, i8 2}
!3 = !{!4}
!4 = distinct !{!4, !5, !"_ZN4base15SupportsWeakPtrIN3gpu5gles227ReadbackBufferShadowTracker6BufferEE9AsWeakPtrEv: argument 0"}
!5 = distinct !{!5, !"_ZN4base15SupportsWeakPtrIN3gpu5gles227ReadbackBufferShadowTracker6BufferEE9AsWeakPtrEv"}
!6 = distinct !{!6, !7}
!7 = !{!"llvm.loop.unroll.disable"}
!8 = distinct !{!8, !7}
