; ModuleID = '../../chrome/browser/reputation/reputation_web_contents_observer.cc'
source_filename = "../../chrome/browser/reputation/reputation_web_contents_observer.cc"
target datalayout = "e-m:e-i64:64-f80:128-n8:16:32:64-S128"
target triple = "x86_64-unknown-linux-gnu"

module asm ".symver exp, exp@GLIBC_2.2.5"
module asm ".symver exp2, exp2@GLIBC_2.2.5"
module asm ".symver exp2f, exp2f@GLIBC_2.2.5"
module asm ".symver expf, expf@GLIBC_2.2.5"
module asm ".symver lgamma, lgamma@GLIBC_2.2.5"
module asm ".symver lgammaf, lgammaf@GLIBC_2.2.5"
module asm ".symver lgammal, lgammal@GLIBC_2.2.5"
module asm ".symver log, log@GLIBC_2.2.5"
module asm ".symver log2, log2@GLIBC_2.2.5"
module asm ".symver log2f, log2f@GLIBC_2.2.5"
module asm ".symver logf, logf@GLIBC_2.2.5"
module asm ".symver pow, pow@GLIBC_2.2.5"
module asm ".symver powf, powf@GLIBC_2.2.5"

%"struct.base::Feature" = type { i8*, i32 }
%"struct.base::FeatureParam" = type { %"struct.base::Feature"*, i8*, %"class.base::TimeDelta" }
%"class.base::TimeDelta" = type { i64 }
%class.ReputationWebContentsObserver = type { %"class.content::WebContentsObserver", %"class.content::WebContentsUserData", %class.Profile*, %"struct.security_state::SafetyTipInfo", i32, %"class.absl::optional", %class.GURL, %"class.base::OnceCallback", i8, %"class.base::OnceCallback", %"class.std::__1::unique_ptr.49", %"class.base::WeakPtrFactory.71" }
%"class.content::WebContentsObserver" = type { %"class.IPC::Listener", %"class.content::WebContents"* }
%"class.IPC::Listener" = type { i32 (...)** }
%"class.content::WebContents" = type <{ %"class.content::PageNavigator", %"class.base::SupportsUserData.base", [7 x i8] }>
%"class.content::PageNavigator" = type { i32 (...)** }
%"class.base::SupportsUserData.base" = type <{ i32 (...)**, %"class.std::__1::map", %"class.base::SequenceCheckerDoNothing" }>
%"class.std::__1::map" = type { %"class.std::__1::__tree" }
%"class.std::__1::__tree" = type { %"class.std::__1::__tree_end_node"*, %"class.std::__1::__compressed_pair", %"class.std::__1::__compressed_pair.1" }
%"class.std::__1::__tree_end_node" = type { %"class.std::__1::__tree_node_base"* }
%"class.std::__1::__tree_node_base" = type <{ %"class.std::__1::__tree_end_node", %"class.std::__1::__tree_node_base"*, %"class.std::__1::__tree_end_node"*, i8, [7 x i8] }>
%"class.std::__1::__compressed_pair" = type { %"struct.std::__1::__compressed_pair_elem" }
%"struct.std::__1::__compressed_pair_elem" = type { %"class.std::__1::__tree_end_node" }
%"class.std::__1::__compressed_pair.1" = type { %"struct.std::__1::__compressed_pair_elem.2" }
%"struct.std::__1::__compressed_pair_elem.2" = type { i64 }
%"class.base::SequenceCheckerDoNothing" = type { i8 }
%"class.content::WebContentsUserData" = type { %"class.base::SupportsUserData::Data" }
%"class.base::SupportsUserData::Data" = type { i32 (...)** }
%class.Profile = type { %"class.content::BrowserContext", %"class.std::__1::unique_ptr.7", i8, i8, i32, %"class.base::ObserverList", %"class.std::__1::unique_ptr.24" }
%"class.content::BrowserContext" = type { %"class.base::SupportsUserData.base", %"class.std::__1::unique_ptr" }
%"class.std::__1::unique_ptr" = type { %"class.std::__1::__compressed_pair.4" }
%"class.std::__1::__compressed_pair.4" = type { %"struct.std::__1::__compressed_pair_elem.5" }
%"struct.std::__1::__compressed_pair_elem.5" = type { %"class.content::BrowserContext::Impl"* }
%"class.content::BrowserContext::Impl" = type opaque
%"class.std::__1::unique_ptr.7" = type { %"class.std::__1::__compressed_pair.8" }
%"class.std::__1::__compressed_pair.8" = type { %"struct.std::__1::__compressed_pair_elem.9" }
%"struct.std::__1::__compressed_pair_elem.9" = type { %"class.content::ResourceContext"* }
%"class.content::ResourceContext" = type opaque
%"class.base::ObserverList" = type <{ %"class.std::__1::vector", %"class.base::LinkedList", i64, i32, [4 x i8] }>
%"class.std::__1::vector" = type { %"class.std::__1::__vector_base" }
%"class.std::__1::__vector_base" = type { %"class.base::internal::CheckedObserverAdapter"*, %"class.base::internal::CheckedObserverAdapter"*, %"class.std::__1::__compressed_pair.19" }
%"class.base::internal::CheckedObserverAdapter" = type { %"class.base::WeakPtr" }
%"class.base::WeakPtr" = type { %"class.base::internal::WeakPtrBase" }
%"class.base::internal::WeakPtrBase" = type { %"class.base::internal::WeakReference", i64 }
%"class.base::internal::WeakReference" = type { %class.scoped_refptr }
%class.scoped_refptr = type { %"class.base::internal::WeakReference::Flag"* }
%"class.base::internal::WeakReference::Flag" = type <{ %"class.base::RefCountedThreadSafe", %"class.base::AtomicFlag", [3 x i8] }>
%"class.base::RefCountedThreadSafe" = type { %"class.base::subtle::RefCountedThreadSafeBase" }
%"class.base::subtle::RefCountedThreadSafeBase" = type { %"class.base::AtomicRefCount" }
%"class.base::AtomicRefCount" = type { %"struct.std::__1::atomic" }
%"struct.std::__1::atomic" = type { %"struct.std::__1::__atomic_base" }
%"struct.std::__1::__atomic_base" = type { %"struct.std::__1::__atomic_base.13" }
%"struct.std::__1::__atomic_base.13" = type { %"struct.std::__1::__cxx_atomic_impl" }
%"struct.std::__1::__cxx_atomic_impl" = type { %"struct.std::__1::__cxx_atomic_base_impl" }
%"struct.std::__1::__cxx_atomic_base_impl" = type { i32 }
%"class.base::AtomicFlag" = type { %"struct.std::__1::atomic.14" }
%"struct.std::__1::atomic.14" = type { %"struct.std::__1::__atomic_base.15" }
%"struct.std::__1::__atomic_base.15" = type { %"struct.std::__1::__atomic_base.16" }
%"struct.std::__1::__atomic_base.16" = type { %"struct.std::__1::__cxx_atomic_impl.17" }
%"struct.std::__1::__cxx_atomic_impl.17" = type { %"struct.std::__1::__cxx_atomic_base_impl.18" }
%"struct.std::__1::__cxx_atomic_base_impl.18" = type { i8 }
%"class.std::__1::__compressed_pair.19" = type { %"struct.std::__1::__compressed_pair_elem.20" }
%"struct.std::__1::__compressed_pair_elem.20" = type { %"class.base::internal::CheckedObserverAdapter"* }
%"class.base::LinkedList" = type { %"class.base::LinkNode" }
%"class.base::LinkNode" = type { %"class.base::internal::LinkNodeBase" }
%"class.base::internal::LinkNodeBase" = type { %"class.base::internal::LinkNodeBase"*, %"class.base::internal::LinkNodeBase"* }
%"class.std::__1::unique_ptr.24" = type { %"class.std::__1::__compressed_pair.25" }
%"class.std::__1::__compressed_pair.25" = type { %"struct.std::__1::__compressed_pair_elem.26" }
%"struct.std::__1::__compressed_pair_elem.26" = type { %"class.variations::VariationsClient"* }
%"class.variations::VariationsClient" = type opaque
%"struct.security_state::SafetyTipInfo" = type { i32, %class.GURL }
%"class.absl::optional" = type { %"class.absl::optional_internal::optional_data" }
%"class.absl::optional_internal::optional_data" = type { %"class.absl::optional_internal::optional_data_base" }
%"class.absl::optional_internal::optional_data_base" = type { %"class.absl::optional_internal::optional_data_dtor_base" }
%"class.absl::optional_internal::optional_data_dtor_base" = type { i8, %union.anon.41 }
%union.anon.41 = type { %"class.url::Origin" }
%"class.url::Origin" = type { %"class.url::SchemeHostPort", %"class.absl::optional.42" }
%"class.url::SchemeHostPort" = type <{ %"class.std::__1::basic_string", %"class.std::__1::basic_string", i16, [6 x i8] }>
%"class.std::__1::basic_string" = type { %"class.std::__1::__compressed_pair.30" }
%"class.std::__1::__compressed_pair.30" = type { %"struct.std::__1::__compressed_pair_elem.31" }
%"struct.std::__1::__compressed_pair_elem.31" = type { %"struct.std::__1::basic_string<char, std::__1::char_traits<char>, std::__1::allocator<char> >::__rep" }
%"struct.std::__1::basic_string<char, std::__1::char_traits<char>, std::__1::allocator<char> >::__rep" = type { %union.anon }
%union.anon = type { %"struct.std::__1::basic_string<char, std::__1::char_traits<char>, std::__1::allocator<char> >::__long" }
%"struct.std::__1::basic_string<char, std::__1::char_traits<char>, std::__1::allocator<char> >::__long" = type { i8*, i64, i64 }
%"class.absl::optional.42" = type { %"class.absl::optional_internal::optional_data.43" }
%"class.absl::optional_internal::optional_data.43" = type { %"class.absl::optional_internal::optional_data_base.44" }
%"class.absl::optional_internal::optional_data_base.44" = type { %"class.absl::optional_internal::optional_data_dtor_base.45" }
%"class.absl::optional_internal::optional_data_dtor_base.45" = type { i8, %union.anon.46 }
%union.anon.46 = type { %"class.url::Origin::Nonce" }
%"class.url::Origin::Nonce" = type { %"class.base::UnguessableToken" }
%"class.base::UnguessableToken" = type { %"class.base::Token" }
%"class.base::Token" = type { i64, i64 }
%class.GURL = type { %"class.std::__1::basic_string", i8, %"struct.url::Parsed", %"class.std::__1::unique_ptr.35" }
%"struct.url::Parsed" = type { %"struct.url::Component", %"struct.url::Component", %"struct.url::Component", %"struct.url::Component", %"struct.url::Component", %"struct.url::Component", %"struct.url::Component", %"struct.url::Component", i8, %"struct.url::Parsed"* }
%"struct.url::Component" = type { i32, i32 }
%"class.std::__1::unique_ptr.35" = type { %"class.std::__1::__compressed_pair.36" }
%"class.std::__1::__compressed_pair.36" = type { %"struct.std::__1::__compressed_pair_elem.37" }
%"struct.std::__1::__compressed_pair_elem.37" = type { %class.GURL* }
%"class.base::OnceCallback" = type { %"class.base::internal::CallbackBase" }
%"class.base::internal::CallbackBase" = type { %class.scoped_refptr.47 }
%class.scoped_refptr.47 = type { %"class.base::internal::BindStateBase"* }
%"class.base::internal::BindStateBase" = type { %"class.base::RefCountedThreadSafe.48", void ()*, void (%"class.base::internal::BindStateBase"*)*, i1 (%"class.base::internal::BindStateBase"*, i32)* }
%"class.base::RefCountedThreadSafe.48" = type { %"class.base::subtle::RefCountedThreadSafeBase" }
%"class.std::__1::unique_ptr.49" = type { %"class.std::__1::__compressed_pair.50" }
%"class.std::__1::__compressed_pair.50" = type { %"struct.std::__1::__compressed_pair_elem.51" }
%"struct.std::__1::__compressed_pair_elem.51" = type { %class.DigitalAssetLinkCrossValidator* }
%class.DigitalAssetLinkCrossValidator = type { %"class.url::Origin", %"class.url::Origin", %"class.base::TimeDelta", %"class.base::TimeDelta", %"class.base::Time", %"class.base::Clock"*, %"class.base::OnceCallback.52", %"class.std::__1::unique_ptr.53" }
%"class.base::Time" = type { %"class.base::time_internal::TimeBase" }
%"class.base::time_internal::TimeBase" = type { i64 }
%"class.base::Clock" = type opaque
%"class.base::OnceCallback.52" = type { %"class.base::internal::CallbackBase" }
%"class.std::__1::unique_ptr.53" = type { %"class.std::__1::__compressed_pair.54" }
%"class.std::__1::__compressed_pair.54" = type { %"struct.std::__1::__compressed_pair_elem.55" }
%"struct.std::__1::__compressed_pair_elem.55" = type { %"class.digital_asset_links::DigitalAssetLinksHandler"* }
%"class.digital_asset_links::DigitalAssetLinksHandler" = type { %"class.content::WebContentsObserver", %class.scoped_refptr.56, %"class.std::__1::unique_ptr.57", %"class.base::OnceCallback.63", %"class.base::TimeDelta", %"class.base::WeakPtrFactory" }
%class.scoped_refptr.56 = type { %"class.network::SharedURLLoaderFactory"* }
%"class.network::SharedURLLoaderFactory" = type <{ %"class.network::mojom::URLLoaderFactory", %"class.base::RefCounted", [4 x i8] }>
%"class.network::mojom::URLLoaderFactory" = type { i32 (...)** }
%"class.base::RefCounted" = type { %"class.base::subtle::RefCountedBase" }
%"class.base::subtle::RefCountedBase" = type { i32 }
%"class.std::__1::unique_ptr.57" = type { %"class.std::__1::__compressed_pair.58" }
%"class.std::__1::__compressed_pair.58" = type { %"struct.std::__1::__compressed_pair_elem.59" }
%"struct.std::__1::__compressed_pair_elem.59" = type { %"class.network::SimpleURLLoader"* }
%"class.network::SimpleURLLoader" = type opaque
%"class.base::OnceCallback.63" = type { %"class.base::internal::CallbackBase" }
%"class.base::WeakPtrFactory" = type { %"class.base::internal::WeakPtrFactoryBase" }
%"class.base::internal::WeakPtrFactoryBase" = type { %"class.base::internal::WeakReferenceOwner", i64 }
%"class.base::internal::WeakReferenceOwner" = type { %class.scoped_refptr.64 }
%class.scoped_refptr.64 = type { %"class.base::internal::WeakReference::Flag"* }
%"class.base::WeakPtrFactory.71" = type { %"class.base::internal::WeakPtrFactoryBase" }
%"class.content::NavigationHandle" = type { %"class.base::SupportsUserData.base", [7 x i8] }
%"class.content::NavigationController" = type { i32 (...)** }
%"class.content::NavigationEntry" = type { %"class.base::SupportsUserData.base", [7 x i8] }
%"class.base::OnceCallback.82" = type { %"class.base::internal::CallbackBase" }
%"class.base::WeakPtr.83" = type { %"class.base::internal::WeakPtrBase" }
%"class.content::RenderFrameHost" = type { %"class.IPC::Listener", %"class.IPC::Sender" }
%"class.IPC::Sender" = type { i32 (...)** }
%class.ReputationService = type { %class.KeyedService, %"class.std::__1::set", %class.Profile*, i8**, i64, %"class.base::WeakPtrFactory.81" }
%class.KeyedService = type { i32 (...)** }
%"class.std::__1::set" = type { %"class.std::__1::__tree.72" }
%"class.std::__1::__tree.72" = type { %"class.std::__1::__tree_end_node"*, %"class.std::__1::__compressed_pair.73", %"class.std::__1::__compressed_pair.77" }
%"class.std::__1::__compressed_pair.73" = type { %"struct.std::__1::__compressed_pair_elem" }
%"class.std::__1::__compressed_pair.77" = type { %"struct.std::__1::__compressed_pair_elem.2" }
%"class.base::WeakPtrFactory.81" = type { %"class.base::internal::WeakPtrFactoryBase" }
%struct.ReputationCheckResult = type <{ i32, [4 x i8], %class.GURL, %class.GURL, %struct.TriggeredHeuristics, [5 x i8] }>
%struct.TriggeredHeuristics = type { i8, i8, i8 }
%"class.std::__1::allocator.33" = type { i8 }
%"class.base::OnceCallback.94" = type { %"class.base::internal::CallbackBase" }
%"class.base::HistogramBase" = type <{ i32 (...)**, i8*, %"struct.std::__1::atomic.89", [4 x i8] }>
%"struct.std::__1::atomic.89" = type { %"struct.std::__1::__atomic_base.90" }
%"struct.std::__1::__atomic_base.90" = type { %"struct.std::__1::__atomic_base.91" }
%"struct.std::__1::__atomic_base.91" = type { %"struct.std::__1::__cxx_atomic_impl.92" }
%"struct.std::__1::__cxx_atomic_impl.92" = type { %"struct.std::__1::__cxx_atomic_base_impl.93" }
%"struct.std::__1::__cxx_atomic_base_impl.93" = type { i32 }
%"struct.std::__1::basic_string<char, std::__1::char_traits<char>, std::__1::allocator<char> >::__short" = type { [23 x i8], %struct.anon }
%struct.anon = type { i8 }
%"struct.base::FeatureParam.157" = type <{ %"struct.base::Feature"*, i8*, i8, [7 x i8] }>
%class.LookalikeUrlService = type { %class.KeyedService, %class.Profile*, %"class.base::Clock"*, %"class.base::Time", %"class.std::__1::vector.95", i8, %"class.std::__1::vector.118", %"class.base::WeakPtrFactory.126" }
%"class.std::__1::vector.95" = type { %"class.std::__1::__vector_base.96" }
%"class.std::__1::__vector_base.96" = type { %struct.DomainInfo*, %struct.DomainInfo*, %"class.std::__1::__compressed_pair.113" }
%struct.DomainInfo = type { %"class.std::__1::basic_string", %"class.std::__1::basic_string", %"class.std::__1::basic_string", %"struct.url_formatter::IDNConversionResult", %"class.base::internal::flat_tree" }
%"struct.url_formatter::IDNConversionResult" = type <{ %"class.std::__1::basic_string.97", i8, [7 x i8], %"struct.url_formatter::TopDomainEntry", i32, [4 x i8] }>
%"class.std::__1::basic_string.97" = type { %"class.std::__1::__compressed_pair.98" }
%"class.std::__1::__compressed_pair.98" = type { %"struct.std::__1::__compressed_pair_elem.99" }
%"struct.std::__1::__compressed_pair_elem.99" = type { %"struct.std::__1::basic_string<char16_t, std::__1::char_traits<char16_t>, std::__1::allocator<char16_t> >::__rep" }
%"struct.std::__1::basic_string<char16_t, std::__1::char_traits<char16_t>, std::__1::allocator<char16_t> >::__rep" = type { %union.anon.100 }
%union.anon.100 = type { %"struct.std::__1::basic_string<char16_t, std::__1::char_traits<char16_t>, std::__1::allocator<char16_t> >::__long" }
%"struct.std::__1::basic_string<char16_t, std::__1::char_traits<char16_t>, std::__1::allocator<char16_t> >::__long" = type { i16*, i64, i64 }
%"struct.url_formatter::TopDomainEntry" = type { %"class.std::__1::basic_string", i8, i32 }
%"class.base::internal::flat_tree" = type { %"class.std::__1::vector.106" }
%"class.std::__1::vector.106" = type { %"class.std::__1::__vector_base.107" }
%"class.std::__1::__vector_base.107" = type { %"class.std::__1::basic_string"*, %"class.std::__1::basic_string"*, %"class.std::__1::__compressed_pair.108" }
%"class.std::__1::__compressed_pair.108" = type { %"struct.std::__1::__compressed_pair_elem.109" }
%"struct.std::__1::__compressed_pair_elem.109" = type { %"class.std::__1::basic_string"* }
%"class.std::__1::__compressed_pair.113" = type { %"struct.std::__1::__compressed_pair_elem.114" }
%"struct.std::__1::__compressed_pair_elem.114" = type { %struct.DomainInfo* }
%"class.std::__1::vector.118" = type { %"class.std::__1::__vector_base.119" }
%"class.std::__1::__vector_base.119" = type { %"class.base::OnceCallback.120"*, %"class.base::OnceCallback.120"*, %"class.std::__1::__compressed_pair.121" }
%"class.base::OnceCallback.120" = type opaque
%"class.std::__1::__compressed_pair.121" = type { %"struct.std::__1::__compressed_pair_elem.122" }
%"struct.std::__1::__compressed_pair_elem.122" = type { %"class.base::OnceCallback.120"* }
%"class.base::WeakPtrFactory.126" = type { %"class.base::internal::WeakPtrFactoryBase" }
%"class.ukm::builders::Security_SafetyTip" = type { %"class.ukm::internal::UkmEntryBuilderBase" }
%"class.ukm::internal::UkmEntryBuilderBase" = type { i32 (...)**, %"class.mojo::StructPtr" }
%"class.mojo::StructPtr" = type { %"class.std::__1::unique_ptr.158" }
%"class.std::__1::unique_ptr.158" = type { %"class.std::__1::__compressed_pair.159" }
%"class.std::__1::__compressed_pair.159" = type { %"struct.std::__1::__compressed_pair_elem.160" }
%"struct.std::__1::__compressed_pair_elem.160" = type { %"class.ukm::mojom::UkmEntry"* }
%"class.ukm::mojom::UkmEntry" = type { i64, i64, %"class.base::flat_map" }
%"class.base::flat_map" = type { %"class.base::internal::flat_tree.161" }
%"class.base::internal::flat_tree.161" = type { %"class.std::__1::vector.162" }
%"class.std::__1::vector.162" = type { %"class.std::__1::__vector_base.163" }
%"class.std::__1::__vector_base.163" = type { %"struct.std::__1::pair.164"*, %"struct.std::__1::pair.164"*, %"class.std::__1::__compressed_pair.165" }
%"struct.std::__1::pair.164" = type opaque
%"class.std::__1::__compressed_pair.165" = type { %"struct.std::__1::__compressed_pair_elem.166" }
%"struct.std::__1::__compressed_pair_elem.166" = type { %"struct.std::__1::pair.164"* }
%"class.ukm::UkmRecorder" = type { i32 (...)** }
%"class.IPC::Message" = type { %"class.base::Pickle", i8, %class.scoped_refptr.127 }
%"class.base::Pickle" = type { i32 (...)**, %"struct.base::Pickle::Header"*, i64, i64, i64 }
%"struct.base::Pickle::Header" = type { i32 }
%class.scoped_refptr.127 = type { %"class.IPC::MessageAttachmentSet"* }
%"class.IPC::MessageAttachmentSet" = type opaque
%"class.mojo::ScopedInterfaceEndpointHandle" = type { %class.scoped_refptr.128 }
%class.scoped_refptr.128 = type { %"class.mojo::ScopedInterfaceEndpointHandle::State"* }
%"class.mojo::ScopedInterfaceEndpointHandle::State" = type opaque
%"class.blink::mojom::CaptureHandleConfig" = type opaque
%"class.content::RenderViewHost" = type opaque
%"class.content::RenderProcessHost" = type opaque
%"struct.content::GlobalRequestID" = type { i32, i32 }
%"class.blink::mojom::ResourceLoadInfo" = type opaque
%"struct.content::CookieAccessDetails" = type <{ i32, [4 x i8], %class.GURL, %class.GURL, %"class.std::__1::vector.130", i8, [7 x i8] }>
%"class.std::__1::vector.130" = type { %"class.std::__1::__vector_base.131" }
%"class.std::__1::__vector_base.131" = type { %"class.net::CanonicalCookie"*, %"class.net::CanonicalCookie"*, %"class.std::__1::__compressed_pair.132" }
%"class.net::CanonicalCookie" = type { %"class.std::__1::basic_string", %"class.std::__1::basic_string", %"class.std::__1::basic_string", %"class.std::__1::basic_string", %"class.base::Time", %"class.base::Time", %"class.base::Time", i8, i8, i32, i32, i8, i32, i32 }
%"class.std::__1::__compressed_pair.132" = type { %"struct.std::__1::__compressed_pair_elem.133" }
%"struct.std::__1::__compressed_pair_elem.133" = type { %"class.net::CanonicalCookie"* }
%"struct.content::LoadCommittedDetails" = type opaque
%"struct.content::PrunedDetails" = type opaque
%"struct.content::EntryChangedDetails" = type opaque
%"struct.content::Referrer" = type <{ %class.GURL, i32, [4 x i8] }>
%"class.blink::WebInputEvent" = type { i32 (...)**, float, %"class.gfx::Vector2dF", %"class.base::TimeTicks", i32, i32 }
%"class.gfx::Vector2dF" = type { float, float }
%"class.base::TimeTicks" = type { %"class.base::time_internal::TimeBase.129" }
%"class.base::time_internal::TimeBase.129" = type { i64 }
%"class.gfx::Size" = type { i32, i32 }
%"class.base::FilePath" = type { %"class.std::__1::basic_string" }
%"struct.blink::UserAgentOverride" = type { %"class.std::__1::basic_string", %"class.absl::optional.137" }
%"class.absl::optional.137" = type { %"class.absl::optional_internal::optional_data.138" }
%"class.absl::optional_internal::optional_data.138" = type { %"class.absl::optional_internal::optional_data_base.139" }
%"class.absl::optional_internal::optional_data_base.139" = type { %"class.absl::optional_internal::optional_data_dtor_base.140" }
%"class.absl::optional_internal::optional_data_dtor_base.140" = type { i8, [7 x i8], %union.anon.141 }
%union.anon.141 = type { %"struct.blink::UserAgentMetadata" }
%"struct.blink::UserAgentMetadata" = type <{ %"class.std::__1::vector.142", %"class.std::__1::basic_string", %"class.std::__1::basic_string", %"class.std::__1::basic_string", %"class.std::__1::basic_string", %"class.std::__1::basic_string", i8, [7 x i8] }>
%"class.std::__1::vector.142" = type { %"class.std::__1::__vector_base.143" }
%"class.std::__1::__vector_base.143" = type { %"struct.blink::UserAgentBrandVersion"*, %"struct.blink::UserAgentBrandVersion"*, %"class.std::__1::__compressed_pair.144" }
%"struct.blink::UserAgentBrandVersion" = type { %"class.std::__1::basic_string", %"class.std::__1::basic_string" }
%"class.std::__1::__compressed_pair.144" = type { %"struct.std::__1::__compressed_pair_elem.145" }
%"struct.std::__1::__compressed_pair_elem.145" = type { %"struct.blink::UserAgentBrandVersion"* }
%"class.std::__1::vector.149" = type opaque
%"struct.content::AXEventNotificationDetails" = type opaque
%"class.std::__1::vector.150" = type opaque
%"class.absl::optional.151" = type opaque
%"struct.content::WebContentsObserver::MediaPlayerInfo" = type { i8, i8 }
%"struct.content::MediaPlayerId" = type opaque
%"class.content::RenderWidgetHost" = type opaque
%"struct.content::FocusedNodeDetails" = type opaque
%"class.absl::optional.152" = type { %"class.absl::optional_internal::optional_data.153" }
%"class.absl::optional_internal::optional_data.153" = type { %"class.absl::optional_internal::optional_data_base.154" }
%"class.absl::optional_internal::optional_data_base.154" = type { %"class.absl::optional_internal::optional_data_dtor_base.155" }
%"class.absl::optional_internal::optional_data_dtor_base.155" = type { i8, %union.anon.156 }
%union.anon.156 = type { %class.GURL }
%"class.mojo::ScopedHandleBase" = type { %"class.mojo::MessagePipeHandle" }
%"class.mojo::MessagePipeHandle" = type { %"class.mojo::Handle" }
%"class.mojo::Handle" = type { i32 }
%"struct.std::__1::pair" = type opaque
%"class.std::__1::tuple" = type { %"struct.std::__1::__tuple_impl" }
%"struct.std::__1::__tuple_impl" = type <{ %"class.std::__1::__tuple_leaf", %"class.std::__1::__tuple_leaf.173", %"class.std::__1::__tuple_leaf.174", %"class.std::__1::__tuple_leaf.175", [6 x i8] }>
%"class.std::__1::__tuple_leaf" = type { %"class.base::WeakPtr.83" }
%"class.std::__1::__tuple_leaf.173" = type { i64 }
%"class.std::__1::__tuple_leaf.174" = type { i8 }
%"class.std::__1::__tuple_leaf.175" = type { i8 }
%"class.logging::CheckError" = type { %"class.logging::LogMessage"* }
%"class.logging::LogMessage" = type { i32 (...)**, i32, %"class.std::__1::basic_ostringstream", i64, i8*, i32, %"class.base::ScopedClearLastErrorBase" }
%"class.std::__1::basic_ostringstream" = type { %"class.std::__1::basic_ostream.base", %"class.std::__1::basic_stringbuf", %"class.std::__1::basic_ios.base" }
%"class.std::__1::basic_ostream.base" = type { i32 (...)** }
%"class.std::__1::basic_stringbuf" = type <{ %"class.std::__1::basic_streambuf", %"class.std::__1::basic_string", i8*, i32, [4 x i8] }>
%"class.std::__1::basic_streambuf" = type { i32 (...)**, %"class.std::__1::locale", i8*, i8*, i8*, i8*, i8*, i8* }
%"class.std::__1::locale" = type { %"class.std::__1::locale::__imp"* }
%"class.std::__1::locale::__imp" = type opaque
%"class.std::__1::basic_ios.base" = type <{ %"class.std::__1::ios_base", %"class.std::__1::basic_ostream"*, i32 }>
%"class.std::__1::ios_base" = type { i32 (...)**, i32, i64, i64, i32, i32, i8*, i8*, void (i32, %"class.std::__1::ios_base"*, i32)**, i32*, i64, i64, i64*, i64, i64, i8**, i64, i64 }
%"class.std::__1::basic_ostream" = type { i32 (...)**, %"class.std::__1::basic_ios.base" }
%"class.base::ScopedClearLastErrorBase" = type { i32 }

$_ZN3IPC8Listener18OnChannelConnectedEi = comdat any

$_ZN3IPC8Listener14OnChannelErrorEv = comdat any

$_ZN3IPC8Listener20OnBadMessageReceivedERKNS_7MessageE = comdat any

$_ZN3IPC8Listener28OnAssociatedInterfaceRequestERKNSt3__112basic_stringIcNS1_11char_traitsIcEENS1_9allocatorIcEEEEN4mojo29ScopedInterfaceEndpointHandleE = comdat any

$_ZN3IPC8Listener15OnChannelDeniedEv = comdat any

$_ZN3IPC8Listener20OnChannelListenErrorEv = comdat any

$_ZN7content19WebContentsObserver18RenderFrameCreatedEPNS_15RenderFrameHostE = comdat any

$_ZN7content19WebContentsObserver18RenderFrameDeletedEPNS_15RenderFrameHostE = comdat any

$_ZN7content19WebContentsObserver22RenderFrameHostChangedEPNS_15RenderFrameHostES2_ = comdat any

$_ZN7content19WebContentsObserver12FrameDeletedEi = comdat any

$_ZN7content19WebContentsObserver27RenderFrameHostStateChangedEPNS_15RenderFrameHostENS1_14LifecycleStateES3_ = comdat any

$_ZN7content19WebContentsObserver20CaptureTargetChangedEv = comdat any

$_ZN7content19WebContentsObserver27OnCaptureHandleConfigUpdateERKN5blink5mojom19CaptureHandleConfigE = comdat any

$_ZN7content19WebContentsObserver15RenderViewReadyEv = comdat any

$_ZN7content19WebContentsObserver17RenderViewDeletedEPNS_14RenderViewHostE = comdat any

$_ZN7content19WebContentsObserver17RenderProcessGoneEN4base17TerminationStatusE = comdat any

$_ZN7content19WebContentsObserver21RenderViewHostChangedEPNS_14RenderViewHostES2_ = comdat any

$_ZN7content19WebContentsObserver22OnRendererUnresponsiveEPNS_17RenderProcessHostE = comdat any

$_ZN7content19WebContentsObserver20OnRendererResponsiveEPNS_17RenderProcessHostE = comdat any

$_ZN7content19WebContentsObserver18DidStartNavigationEPNS_16NavigationHandleE = comdat any

$_ZN7content19WebContentsObserver21DidRedirectNavigationEPNS_16NavigationHandleE = comdat any

$_ZN7content19WebContentsObserver23ReadyToCommitNavigationEPNS_16NavigationHandleE = comdat any

$_ZN7content19WebContentsObserver17DidActivatePortalEPNS_11WebContentsEN4base9TimeTicksE = comdat any

$_ZN7content19WebContentsObserver15DidStartLoadingEv = comdat any

$_ZN7content19WebContentsObserver18DidReceiveResponseEv = comdat any

$_ZN7content19WebContentsObserver14DidStopLoadingEv = comdat any

$_ZN7content19WebContentsObserver19LoadProgressChangedEd = comdat any

$_ZN7content19WebContentsObserver28DocumentAvailableInMainFrameEPNS_15RenderFrameHostE = comdat any

$_ZN7content19WebContentsObserver34DocumentOnLoadCompletedInMainFrameEPNS_15RenderFrameHostE = comdat any

$_ZN7content19WebContentsObserver16DOMContentLoadedEPNS_15RenderFrameHostE = comdat any

$_ZN7content19WebContentsObserver13DidFinishLoadEPNS_15RenderFrameHostERK4GURL = comdat any

$_ZN7content19WebContentsObserver11DidFailLoadEPNS_15RenderFrameHostERK4GURLi = comdat any

$_ZN7content19WebContentsObserver29DidChangeVisibleSecurityStateEv = comdat any

$_ZN7content19WebContentsObserver30DidLoadResourceFromMemoryCacheEPNS_15RenderFrameHostERK4GURLRKNSt3__112basic_stringIcNS6_11char_traitsIcEENS6_9allocatorIcEEEEN7network5mojom18RequestDestinationE = comdat any

$_ZN7content19WebContentsObserver20ResourceLoadCompleteEPNS_15RenderFrameHostERKNS_15GlobalRequestIDERKN5blink5mojom16ResourceLoadInfoE = comdat any

$_ZN7content19WebContentsObserver17OnCookiesAccessedEPNS_15RenderFrameHostERKNS_19CookieAccessDetailsE = comdat any

$_ZN7content19WebContentsObserver17OnCookiesAccessedEPNS_16NavigationHandleERKNS_19CookieAccessDetailsE = comdat any

$_ZN7content19WebContentsObserver24NavigationEntryCommittedERKNS_20LoadCommittedDetailsE = comdat any

$_ZN7content19WebContentsObserver20NavigationListPrunedERKNS_13PrunedDetailsE = comdat any

$_ZN7content19WebContentsObserver24NavigationEntriesDeletedEv = comdat any

$_ZN7content19WebContentsObserver22NavigationEntryChangedERKNS_19EntryChangedDetailsE = comdat any

$_ZN7content19WebContentsObserver19DidOpenRequestedURLEPNS_11WebContentsEPNS_15RenderFrameHostERK4GURLRKNS_8ReferrerE21WindowOpenDispositionN2ui14PageTransitionEbb = comdat any

$_ZN7content19WebContentsObserver29DidFirstVisuallyNonEmptyPaintEv = comdat any

$_ZN7content19WebContentsObserver17NavigationStoppedEv = comdat any

$_ZN7content19WebContentsObserver21DidGetUserInteractionERKN5blink13WebInputEventE = comdat any

$_ZN7content19WebContentsObserver20DidGetIgnoredUIEventEv = comdat any

$_ZN7content19WebContentsObserver19MainFrameWasResizedEb = comdat any

$_ZN7content19WebContentsObserver16FrameNameChangedEPNS_15RenderFrameHostERKNSt3__112basic_stringIcNS3_11char_traitsIcEENS3_9allocatorIcEEEE = comdat any

$_ZN7content19WebContentsObserver27FrameReceivedUserActivationEPNS_15RenderFrameHostE = comdat any

$_ZN7content19WebContentsObserver24FrameDisplayStateChangedEPNS_15RenderFrameHostEb = comdat any

$_ZN7content19WebContentsObserver16FrameSizeChangedEPNS_15RenderFrameHostERKN3gfx4SizeE = comdat any

$_ZN7content19WebContentsObserver11TitleWasSetEPNS_15NavigationEntryE = comdat any

$_ZN7content19WebContentsObserver16AppCacheAccessedERK4GURLb = comdat any

$_ZN7content19WebContentsObserver21PepperInstanceCreatedEv = comdat any

$_ZN7content19WebContentsObserver21PepperInstanceDeletedEv = comdat any

$_ZN7content19WebContentsObserver18ViewportFitChangedEN5blink5mojom11ViewportFitE = comdat any

$_ZN7content19WebContentsObserver13PluginCrashedERKN4base8FilePathEi = comdat any

$_ZN7content19WebContentsObserver23PluginHungStatusChangedEiRKN4base8FilePathEb = comdat any

$_ZN7content19WebContentsObserver23InnerWebContentsCreatedEPNS_11WebContentsE = comdat any

$_ZN7content19WebContentsObserver24InnerWebContentsAttachedEPNS_11WebContentsEPNS_15RenderFrameHostEb = comdat any

$_ZN7content19WebContentsObserver24InnerWebContentsDetachedEPNS_11WebContentsE = comdat any

$_ZN7content19WebContentsObserver24DidCloneToNewWebContentsEPNS_11WebContentsES2_ = comdat any

$_ZN7content19WebContentsObserver20WebContentsDestroyedEv = comdat any

$_ZN7content19WebContentsObserver20UserAgentOverrideSetERKN5blink17UserAgentOverrideE = comdat any

$_ZN7content19WebContentsObserver19DidUpdateFaviconURLEPNS_15RenderFrameHostERKNSt3__16vectorIN4mojo9StructPtrIN5blink5mojom10FaviconURLEEENS3_9allocatorISA_EEEE = comdat any

$_ZN7content19WebContentsObserver19OnAudioStateChangedEb = comdat any

$_ZN7content19WebContentsObserver24OnFrameAudioStateChangedEPNS_15RenderFrameHostEb = comdat any

$_ZN7content19WebContentsObserver37OnIsConnectedToBluetoothDeviceChangedEb = comdat any

$_ZN7content19WebContentsObserver25DidUpdateAudioMutingStateEb = comdat any

$_ZN7content19WebContentsObserver29DidToggleFullscreenModeForTabEbb = comdat any

$_ZN7content19WebContentsObserver20DidAcquireFullscreenEPNS_15RenderFrameHostE = comdat any

$_ZN7content19WebContentsObserver32DidChangeVerticalScrollDirectionEN3viz23VerticalScrollDirectionE = comdat any

$_ZN7content19WebContentsObserver27BeforeFormRepostWarningShowEv = comdat any

$_ZN7content19WebContentsObserver17BeforeUnloadFiredEbRKN4base9TimeTicksE = comdat any

$_ZN7content19WebContentsObserver27BeforeUnloadDialogCancelledEv = comdat any

$_ZN7content19WebContentsObserver30AXTreeIDForMainFrameHasChangedEv = comdat any

$_ZN7content19WebContentsObserver26AccessibilityEventReceivedERKNS_26AXEventNotificationDetailsE = comdat any

$_ZN7content19WebContentsObserver36AccessibilityLocationChangesReceivedERKNSt3__16vectorINS_35AXLocationChangeNotificationDetailsENS1_9allocatorIS3_EEEE = comdat any

$_ZN7content19WebContentsObserver19DidChangeThemeColorEv = comdat any

$_ZN7content19WebContentsObserver24OnBackgroundColorChangedEv = comdat any

$_ZN7content19WebContentsObserver24OnDidAddMessageToConsoleEPNS_15RenderFrameHostEN5blink5mojom19ConsoleMessageLevelERKNSt3__112basic_stringIDsNS6_11char_traitsIDsEENS6_9allocatorIDsEEEEiSE_RKN4absl8optionalISC_EE = comdat any

$_ZN7content19WebContentsObserver19MediaStartedPlayingERKNS0_15MediaPlayerInfoERKNS_13MediaPlayerIdE = comdat any

$_ZN7content19WebContentsObserver19MediaStoppedPlayingERKNS0_15MediaPlayerInfoERKNS_13MediaPlayerIdENS0_18MediaStoppedReasonE = comdat any

$_ZN7content19WebContentsObserver12MediaResizedERKN3gfx4SizeERKNS_13MediaPlayerIdE = comdat any

$_ZN7content19WebContentsObserver33MediaEffectivelyFullscreenChangedEb = comdat any

$_ZN7content19WebContentsObserver28MediaPictureInPictureChangedEb = comdat any

$_ZN7content19WebContentsObserver23MediaMutedStatusChangedERKNS_13MediaPlayerIdEb = comdat any

$_ZN7content19WebContentsObserver20MediaBufferUnderflowERKNS_13MediaPlayerIdE = comdat any

$_ZN7content19WebContentsObserver15MediaPlayerSeekERKNS_13MediaPlayerIdE = comdat any

$_ZN7content19WebContentsObserver14MediaDestroyedERKNS_13MediaPlayerIdE = comdat any

$_ZN7content19WebContentsObserver24OnPageScaleFactorChangedEf = comdat any

$_ZN7content19WebContentsObserver7OnPasteEv = comdat any

$_ZN7content19WebContentsObserver20OnWebContentsFocusedEPNS_16RenderWidgetHostE = comdat any

$_ZN7content19WebContentsObserver22OnWebContentsLostFocusEPNS_16RenderWidgetHostE = comdat any

$_ZN7content19WebContentsObserver20OnFocusChangedInPageEPNS_18FocusedNodeDetailsE = comdat any

$_ZN7content19WebContentsObserver23DidUpdateWebManifestURLEPNS_15RenderFrameHostERKN4absl8optionalI4GURLEE = comdat any

$_ZN7content19WebContentsObserver27OnInterfaceRequestFromFrameEPNS_15RenderFrameHostERKNSt3__112basic_stringIcNS3_11char_traitsIcEENS3_9allocatorIcEEEEPN4mojo16ScopedHandleBaseINSC_17MessagePipeHandleEEE = comdat any

$_ZN7content19WebContentsObserver27AudioContextPlaybackStartedERKNSt3__14pairIPNS_15RenderFrameHostEiEE = comdat any

$_ZN7content19WebContentsObserver27AudioContextPlaybackStoppedERKNSt3__14pairIPNS_15RenderFrameHostEiEE = comdat any

$_ZN7content19WebContentsObserver23OnServiceWorkerAccessedEPNS_15RenderFrameHostERK4GURLNS_24AllowServiceWorkerResultE = comdat any

$_ZN7content19WebContentsObserver23OnServiceWorkerAccessedEPNS_16NavigationHandleERK4GURLNS_24AllowServiceWorkerResultE = comdat any

$_ZN4base8internal7InvokerINS0_9BindStateIM29ReputationWebContentsObserverFvlbb21ReputationCheckResultEJNS_7WeakPtrIS3_EElbbEEEFvS4_EE7RunOnceEPNS0_13BindStateBaseEOS4_ = comdat any

$_ZN4base8internal13FunctorTraitsIM29ReputationWebContentsObserverFvlbb21ReputationCheckResultEvE6InvokeIS5_NS_7WeakPtrIS2_EEJlbbS3_EEEvT_OT0_DpOT1_ = comdat any

$_ZN4base8internal9BindStateIM29ReputationWebContentsObserverFvlbb21ReputationCheckResultEJNS_7WeakPtrIS2_EElbbEE7DestroyEPKNS0_13BindStateBaseE = comdat any

$_ZN4base8internal23QueryCancellationTraitsINS0_9BindStateIM29ReputationWebContentsObserverFvlbb21ReputationCheckResultEJNS_7WeakPtrIS3_EElbbEEEEEbPKNS0_13BindStateBaseENSA_21CancellationQueryModeE = comdat any

$_ZN4base8internal7InvokerINS0_9BindStateIPFv21ReputationCheckResultNS_4TimeElP7ProfileRK4GURLN14security_state15SafetyTipStatusENS_12OnceCallbackIFvvEEE20SafetyTipInteractionEJS3_S4_lS6_S7_SB_SE_EEEFvSF_EE7RunOnceEPNS0_13BindStateBaseESF_ = comdat any

$_ZN4base8internal9BindStateIPFv21ReputationCheckResultNS_4TimeElP7ProfileRK4GURLN14security_state15SafetyTipStatusENS_12OnceCallbackIFvvEEE20SafetyTipInteractionEJS2_S3_lS5_S6_SA_SD_EE7DestroyEPKNS0_13BindStateBaseE = comdat any

$_ZN4base8internal7InvokerINS0_9BindStateIM29ReputationWebContentsObserverFv21ReputationCheckResultlbEJNS_7WeakPtrIS3_EES4_lEEEFvbEE7RunOnceEPNS0_13BindStateBaseEb = comdat any

$_ZN4base8internal13FunctorTraitsIM29ReputationWebContentsObserverFv21ReputationCheckResultlbEvE6InvokeIS5_NS_7WeakPtrIS2_EEJS3_lbEEEvT_OT0_DpOT1_ = comdat any

$_ZN4base8internal9BindStateIM29ReputationWebContentsObserverFv21ReputationCheckResultlbEJNS_7WeakPtrIS2_EES3_lEE7DestroyEPKNS0_13BindStateBaseE = comdat any

$_ZN4base8internal23QueryCancellationTraitsINS0_9BindStateIM29ReputationWebContentsObserverFv21ReputationCheckResultlbEJNS_7WeakPtrIS3_EES4_lEEEEEbPKNS0_13BindStateBaseENSA_21CancellationQueryModeE = comdat any

@_ZTV29ReputationWebContentsObserver = hidden unnamed_addr constant { [109 x i8*], [5 x i8*] } { [109 x i8*] [i8* null, i8* null, i8* bitcast (i1 (%"class.content::WebContentsObserver"*, %"class.IPC::Message"*)* @_ZN7content19WebContentsObserver17OnMessageReceivedERKN3IPC7MessageE to i8*), i8* bitcast (void (%"class.IPC::Listener"*, i32)* @_ZN3IPC8Listener18OnChannelConnectedEi to i8*), i8* bitcast (void (%"class.IPC::Listener"*)* @_ZN3IPC8Listener14OnChannelErrorEv to i8*), i8* bitcast (void (%"class.IPC::Listener"*, %"class.IPC::Message"*)* @_ZN3IPC8Listener20OnBadMessageReceivedERKNS_7MessageE to i8*), i8* bitcast (void (%"class.IPC::Listener"*, %"class.std::__1::basic_string"*, %"class.mojo::ScopedInterfaceEndpointHandle"*)* @_ZN3IPC8Listener28OnAssociatedInterfaceRequestERKNSt3__112basic_stringIcNS1_11char_traitsIcEENS1_9allocatorIcEEEEN4mojo29ScopedInterfaceEndpointHandleE to i8*), i8* bitcast (void (%"class.IPC::Listener"*)* @_ZN3IPC8Listener15OnChannelDeniedEv to i8*), i8* bitcast (void (%"class.IPC::Listener"*)* @_ZN3IPC8Listener20OnChannelListenErrorEv to i8*), i8* bitcast (void (%class.ReputationWebContentsObserver*)* @_ZN29ReputationWebContentsObserverD2Ev to i8*), i8* bitcast (void (%class.ReputationWebContentsObserver*)* @_ZN29ReputationWebContentsObserverD0Ev to i8*), i8* bitcast (void (%"class.content::WebContentsObserver"*, %"class.content::RenderFrameHost"*)* @_ZN7content19WebContentsObserver18RenderFrameCreatedEPNS_15RenderFrameHostE to i8*), i8* bitcast (void (%"class.content::WebContentsObserver"*, %"class.content::RenderFrameHost"*)* @_ZN7content19WebContentsObserver18RenderFrameDeletedEPNS_15RenderFrameHostE to i8*), i8* bitcast (void (%"class.content::WebContentsObserver"*, %"class.content::RenderFrameHost"*, %"class.content::RenderFrameHost"*)* @_ZN7content19WebContentsObserver22RenderFrameHostChangedEPNS_15RenderFrameHostES2_ to i8*), i8* bitcast (void (%"class.content::WebContentsObserver"*, i32)* @_ZN7content19WebContentsObserver12FrameDeletedEi to i8*), i8* bitcast (void (%"class.content::WebContentsObserver"*, %"class.content::RenderFrameHost"*, i32, i32)* @_ZN7content19WebContentsObserver27RenderFrameHostStateChangedEPNS_15RenderFrameHostENS1_14LifecycleStateES3_ to i8*), i8* bitcast (void (%"class.content::WebContentsObserver"*)* @_ZN7content19WebContentsObserver20CaptureTargetChangedEv to i8*), i8* bitcast (void (%"class.content::WebContentsObserver"*, %"class.blink::mojom::CaptureHandleConfig"*)* @_ZN7content19WebContentsObserver27OnCaptureHandleConfigUpdateERKN5blink5mojom19CaptureHandleConfigE to i8*), i8* bitcast (void (%"class.content::WebContentsObserver"*)* @_ZN7content19WebContentsObserver15RenderViewReadyEv to i8*), i8* bitcast (void (%"class.content::WebContentsObserver"*, %"class.content::RenderViewHost"*)* @_ZN7content19WebContentsObserver17RenderViewDeletedEPNS_14RenderViewHostE to i8*), i8* bitcast (void (%"class.content::WebContentsObserver"*, i32)* @_ZN7content19WebContentsObserver17RenderProcessGoneEN4base17TerminationStatusE to i8*), i8* bitcast (void (%"class.content::WebContentsObserver"*, %"class.content::RenderViewHost"*, %"class.content::RenderViewHost"*)* @_ZN7content19WebContentsObserver21RenderViewHostChangedEPNS_14RenderViewHostES2_ to i8*), i8* bitcast (void (%"class.content::WebContentsObserver"*, %"class.content::RenderProcessHost"*)* @_ZN7content19WebContentsObserver22OnRendererUnresponsiveEPNS_17RenderProcessHostE to i8*), i8* bitcast (void (%"class.content::WebContentsObserver"*, %"class.content::RenderProcessHost"*)* @_ZN7content19WebContentsObserver20OnRendererResponsiveEPNS_17RenderProcessHostE to i8*), i8* bitcast (void (%"class.content::WebContentsObserver"*, %"class.content::NavigationHandle"*)* @_ZN7content19WebContentsObserver18DidStartNavigationEPNS_16NavigationHandleE to i8*), i8* bitcast (void (%"class.content::WebContentsObserver"*, %"class.content::NavigationHandle"*)* @_ZN7content19WebContentsObserver21DidRedirectNavigationEPNS_16NavigationHandleE to i8*), i8* bitcast (void (%"class.content::WebContentsObserver"*, %"class.content::NavigationHandle"*)* @_ZN7content19WebContentsObserver23ReadyToCommitNavigationEPNS_16NavigationHandleE to i8*), i8* bitcast (void (%class.ReputationWebContentsObserver*, %"class.content::NavigationHandle"*)* @_ZN29ReputationWebContentsObserver19DidFinishNavigationEPN7content16NavigationHandleE to i8*), i8* bitcast (void (%"class.content::WebContentsObserver"*, %"class.content::WebContents"*, i64)* @_ZN7content19WebContentsObserver17DidActivatePortalEPNS_11WebContentsEN4base9TimeTicksE to i8*), i8* bitcast (void (%"class.content::WebContentsObserver"*)* @_ZN7content19WebContentsObserver15DidStartLoadingEv to i8*), i8* bitcast (void (%"class.content::WebContentsObserver"*)* @_ZN7content19WebContentsObserver18DidReceiveResponseEv to i8*), i8* bitcast (void (%"class.content::WebContentsObserver"*)* @_ZN7content19WebContentsObserver14DidStopLoadingEv to i8*), i8* bitcast (void (%"class.content::WebContentsObserver"*, double)* @_ZN7content19WebContentsObserver19LoadProgressChangedEd to i8*), i8* bitcast (void (%"class.content::WebContentsObserver"*, %"class.content::RenderFrameHost"*)* @_ZN7content19WebContentsObserver28DocumentAvailableInMainFrameEPNS_15RenderFrameHostE to i8*), i8* bitcast (void (%"class.content::WebContentsObserver"*, %"class.content::RenderFrameHost"*)* @_ZN7content19WebContentsObserver34DocumentOnLoadCompletedInMainFrameEPNS_15RenderFrameHostE to i8*), i8* bitcast (void (%"class.content::WebContentsObserver"*, %"class.content::RenderFrameHost"*)* @_ZN7content19WebContentsObserver16DOMContentLoadedEPNS_15RenderFrameHostE to i8*), i8* bitcast (void (%"class.content::WebContentsObserver"*, %"class.content::RenderFrameHost"*, %class.GURL*)* @_ZN7content19WebContentsObserver13DidFinishLoadEPNS_15RenderFrameHostERK4GURL to i8*), i8* bitcast (void (%"class.content::WebContentsObserver"*, %"class.content::RenderFrameHost"*, %class.GURL*, i32)* @_ZN7content19WebContentsObserver11DidFailLoadEPNS_15RenderFrameHostERK4GURLi to i8*), i8* bitcast (void (%"class.content::WebContentsObserver"*)* @_ZN7content19WebContentsObserver29DidChangeVisibleSecurityStateEv to i8*), i8* bitcast (void (%"class.content::WebContentsObserver"*, %"class.content::RenderFrameHost"*, %class.GURL*, %"class.std::__1::basic_string"*, i32)* @_ZN7content19WebContentsObserver30DidLoadResourceFromMemoryCacheEPNS_15RenderFrameHostERK4GURLRKNSt3__112basic_stringIcNS6_11char_traitsIcEENS6_9allocatorIcEEEEN7network5mojom18RequestDestinationE to i8*), i8* bitcast (void (%"class.content::WebContentsObserver"*, %"class.content::RenderFrameHost"*, %"struct.content::GlobalRequestID"*, %"class.blink::mojom::ResourceLoadInfo"*)* @_ZN7content19WebContentsObserver20ResourceLoadCompleteEPNS_15RenderFrameHostERKNS_15GlobalRequestIDERKN5blink5mojom16ResourceLoadInfoE to i8*), i8* bitcast (void (%"class.content::WebContentsObserver"*, %"class.content::RenderFrameHost"*, %"struct.content::CookieAccessDetails"*)* @_ZN7content19WebContentsObserver17OnCookiesAccessedEPNS_15RenderFrameHostERKNS_19CookieAccessDetailsE to i8*), i8* bitcast (void (%"class.content::WebContentsObserver"*, %"class.content::NavigationHandle"*, %"struct.content::CookieAccessDetails"*)* @_ZN7content19WebContentsObserver17OnCookiesAccessedEPNS_16NavigationHandleERKNS_19CookieAccessDetailsE to i8*), i8* bitcast (void (%"class.content::WebContentsObserver"*, %"struct.content::LoadCommittedDetails"*)* @_ZN7content19WebContentsObserver24NavigationEntryCommittedERKNS_20LoadCommittedDetailsE to i8*), i8* bitcast (void (%"class.content::WebContentsObserver"*, %"struct.content::PrunedDetails"*)* @_ZN7content19WebContentsObserver20NavigationListPrunedERKNS_13PrunedDetailsE to i8*), i8* bitcast (void (%"class.content::WebContentsObserver"*)* @_ZN7content19WebContentsObserver24NavigationEntriesDeletedEv to i8*), i8* bitcast (void (%"class.content::WebContentsObserver"*, %"struct.content::EntryChangedDetails"*)* @_ZN7content19WebContentsObserver22NavigationEntryChangedERKNS_19EntryChangedDetailsE to i8*), i8* bitcast (void (%"class.content::WebContentsObserver"*, %"class.content::WebContents"*, %"class.content::RenderFrameHost"*, %class.GURL*, %"struct.content::Referrer"*, i32, i32, i1, i1)* @_ZN7content19WebContentsObserver19DidOpenRequestedURLEPNS_11WebContentsEPNS_15RenderFrameHostERK4GURLRKNS_8ReferrerE21WindowOpenDispositionN2ui14PageTransitionEbb to i8*), i8* bitcast (void (%"class.content::WebContentsObserver"*)* @_ZN7content19WebContentsObserver29DidFirstVisuallyNonEmptyPaintEv to i8*), i8* bitcast (void (%"class.content::WebContentsObserver"*)* @_ZN7content19WebContentsObserver17NavigationStoppedEv to i8*), i8* bitcast (void (%"class.content::WebContentsObserver"*, %"class.blink::WebInputEvent"*)* @_ZN7content19WebContentsObserver21DidGetUserInteractionERKN5blink13WebInputEventE to i8*), i8* bitcast (void (%"class.content::WebContentsObserver"*)* @_ZN7content19WebContentsObserver20DidGetIgnoredUIEventEv to i8*), i8* bitcast (void (%class.ReputationWebContentsObserver*, i32)* @_ZN29ReputationWebContentsObserver19OnVisibilityChangedEN7content10VisibilityE to i8*), i8* bitcast (void (%"class.content::WebContentsObserver"*, i1)* @_ZN7content19WebContentsObserver19MainFrameWasResizedEb to i8*), i8* bitcast (void (%"class.content::WebContentsObserver"*, %"class.content::RenderFrameHost"*, %"class.std::__1::basic_string"*)* @_ZN7content19WebContentsObserver16FrameNameChangedEPNS_15RenderFrameHostERKNSt3__112basic_stringIcNS3_11char_traitsIcEENS3_9allocatorIcEEEE to i8*), i8* bitcast (void (%"class.content::WebContentsObserver"*, %"class.content::RenderFrameHost"*)* @_ZN7content19WebContentsObserver27FrameReceivedUserActivationEPNS_15RenderFrameHostE to i8*), i8* bitcast (void (%"class.content::WebContentsObserver"*, %"class.content::RenderFrameHost"*, i1)* @_ZN7content19WebContentsObserver24FrameDisplayStateChangedEPNS_15RenderFrameHostEb to i8*), i8* bitcast (void (%"class.content::WebContentsObserver"*, %"class.content::RenderFrameHost"*, %"class.gfx::Size"*)* @_ZN7content19WebContentsObserver16FrameSizeChangedEPNS_15RenderFrameHostERKN3gfx4SizeE to i8*), i8* bitcast (void (%"class.content::WebContentsObserver"*, %"class.content::NavigationEntry"*)* @_ZN7content19WebContentsObserver11TitleWasSetEPNS_15NavigationEntryE to i8*), i8* bitcast (void (%"class.content::WebContentsObserver"*, %class.GURL*, i1)* @_ZN7content19WebContentsObserver16AppCacheAccessedERK4GURLb to i8*), i8* bitcast (void (%"class.content::WebContentsObserver"*)* @_ZN7content19WebContentsObserver21PepperInstanceCreatedEv to i8*), i8* bitcast (void (%"class.content::WebContentsObserver"*)* @_ZN7content19WebContentsObserver21PepperInstanceDeletedEv to i8*), i8* bitcast (void (%"class.content::WebContentsObserver"*, i32)* @_ZN7content19WebContentsObserver18ViewportFitChangedEN5blink5mojom11ViewportFitE to i8*), i8* bitcast (void (%"class.content::WebContentsObserver"*, %"class.base::FilePath"*, i32)* @_ZN7content19WebContentsObserver13PluginCrashedERKN4base8FilePathEi to i8*), i8* bitcast (void (%"class.content::WebContentsObserver"*, i32, %"class.base::FilePath"*, i1)* @_ZN7content19WebContentsObserver23PluginHungStatusChangedEiRKN4base8FilePathEb to i8*), i8* bitcast (void (%"class.content::WebContentsObserver"*, %"class.content::WebContents"*)* @_ZN7content19WebContentsObserver23InnerWebContentsCreatedEPNS_11WebContentsE to i8*), i8* bitcast (void (%"class.content::WebContentsObserver"*, %"class.content::WebContents"*, %"class.content::RenderFrameHost"*, i1)* @_ZN7content19WebContentsObserver24InnerWebContentsAttachedEPNS_11WebContentsEPNS_15RenderFrameHostEb to i8*), i8* bitcast (void (%"class.content::WebContentsObserver"*, %"class.content::WebContents"*)* @_ZN7content19WebContentsObserver24InnerWebContentsDetachedEPNS_11WebContentsE to i8*), i8* bitcast (void (%"class.content::WebContentsObserver"*, %"class.content::WebContents"*, %"class.content::WebContents"*)* @_ZN7content19WebContentsObserver24DidCloneToNewWebContentsEPNS_11WebContentsES2_ to i8*), i8* bitcast (void (%"class.content::WebContentsObserver"*)* @_ZN7content19WebContentsObserver20WebContentsDestroyedEv to i8*), i8* bitcast (void (%"class.content::WebContentsObserver"*, %"struct.blink::UserAgentOverride"*)* @_ZN7content19WebContentsObserver20UserAgentOverrideSetERKN5blink17UserAgentOverrideE to i8*), i8* bitcast (void (%"class.content::WebContentsObserver"*, %"class.content::RenderFrameHost"*, %"class.std::__1::vector.149"*)* @_ZN7content19WebContentsObserver19DidUpdateFaviconURLEPNS_15RenderFrameHostERKNSt3__16vectorIN4mojo9StructPtrIN5blink5mojom10FaviconURLEEENS3_9allocatorISA_EEEE to i8*), i8* bitcast (void (%"class.content::WebContentsObserver"*, i1)* @_ZN7content19WebContentsObserver19OnAudioStateChangedEb to i8*), i8* bitcast (void (%"class.content::WebContentsObserver"*, %"class.content::RenderFrameHost"*, i1)* @_ZN7content19WebContentsObserver24OnFrameAudioStateChangedEPNS_15RenderFrameHostEb to i8*), i8* bitcast (void (%"class.content::WebContentsObserver"*, i1)* @_ZN7content19WebContentsObserver37OnIsConnectedToBluetoothDeviceChangedEb to i8*), i8* bitcast (void (%"class.content::WebContentsObserver"*, i1)* @_ZN7content19WebContentsObserver25DidUpdateAudioMutingStateEb to i8*), i8* bitcast (void (%"class.content::WebContentsObserver"*, i1, i1)* @_ZN7content19WebContentsObserver29DidToggleFullscreenModeForTabEbb to i8*), i8* bitcast (void (%"class.content::WebContentsObserver"*, %"class.content::RenderFrameHost"*)* @_ZN7content19WebContentsObserver20DidAcquireFullscreenEPNS_15RenderFrameHostE to i8*), i8* bitcast (void (%"class.content::WebContentsObserver"*, i32)* @_ZN7content19WebContentsObserver32DidChangeVerticalScrollDirectionEN3viz23VerticalScrollDirectionE to i8*), i8* bitcast (void (%"class.content::WebContentsObserver"*)* @_ZN7content19WebContentsObserver27BeforeFormRepostWarningShowEv to i8*), i8* bitcast (void (%"class.content::WebContentsObserver"*, i1, %"class.base::TimeTicks"*)* @_ZN7content19WebContentsObserver17BeforeUnloadFiredEbRKN4base9TimeTicksE to i8*), i8* bitcast (void (%"class.content::WebContentsObserver"*)* @_ZN7content19WebContentsObserver27BeforeUnloadDialogCancelledEv to i8*), i8* bitcast (void (%"class.content::WebContentsObserver"*)* @_ZN7content19WebContentsObserver30AXTreeIDForMainFrameHasChangedEv to i8*), i8* bitcast (void (%"class.content::WebContentsObserver"*, %"struct.content::AXEventNotificationDetails"*)* @_ZN7content19WebContentsObserver26AccessibilityEventReceivedERKNS_26AXEventNotificationDetailsE to i8*), i8* bitcast (void (%"class.content::WebContentsObserver"*, %"class.std::__1::vector.150"*)* @_ZN7content19WebContentsObserver36AccessibilityLocationChangesReceivedERKNSt3__16vectorINS_35AXLocationChangeNotificationDetailsENS1_9allocatorIS3_EEEE to i8*), i8* bitcast (void (%"class.content::WebContentsObserver"*)* @_ZN7content19WebContentsObserver19DidChangeThemeColorEv to i8*), i8* bitcast (void (%"class.content::WebContentsObserver"*)* @_ZN7content19WebContentsObserver24OnBackgroundColorChangedEv to i8*), i8* bitcast (void (%"class.content::WebContentsObserver"*, %"class.content::RenderFrameHost"*, i32, %"class.std::__1::basic_string.97"*, i32, %"class.std::__1::basic_string.97"*, %"class.absl::optional.151"*)* @_ZN7content19WebContentsObserver24OnDidAddMessageToConsoleEPNS_15RenderFrameHostEN5blink5mojom19ConsoleMessageLevelERKNSt3__112basic_stringIDsNS6_11char_traitsIDsEENS6_9allocatorIDsEEEEiSE_RKN4absl8optionalISC_EE to i8*), i8* bitcast (void (%"class.content::WebContentsObserver"*, %"struct.content::WebContentsObserver::MediaPlayerInfo"*, %"struct.content::MediaPlayerId"*)* @_ZN7content19WebContentsObserver19MediaStartedPlayingERKNS0_15MediaPlayerInfoERKNS_13MediaPlayerIdE to i8*), i8* bitcast (void (%"class.content::WebContentsObserver"*, %"struct.content::WebContentsObserver::MediaPlayerInfo"*, %"struct.content::MediaPlayerId"*, i32)* @_ZN7content19WebContentsObserver19MediaStoppedPlayingERKNS0_15MediaPlayerInfoERKNS_13MediaPlayerIdENS0_18MediaStoppedReasonE to i8*), i8* bitcast (void (%"class.content::WebContentsObserver"*, %"class.gfx::Size"*, %"struct.content::MediaPlayerId"*)* @_ZN7content19WebContentsObserver12MediaResizedERKN3gfx4SizeERKNS_13MediaPlayerIdE to i8*), i8* bitcast (void (%"class.content::WebContentsObserver"*, i1)* @_ZN7content19WebContentsObserver33MediaEffectivelyFullscreenChangedEb to i8*), i8* bitcast (void (%"class.content::WebContentsObserver"*, i1)* @_ZN7content19WebContentsObserver28MediaPictureInPictureChangedEb to i8*), i8* bitcast (void (%"class.content::WebContentsObserver"*, %"struct.content::MediaPlayerId"*, i1)* @_ZN7content19WebContentsObserver23MediaMutedStatusChangedERKNS_13MediaPlayerIdEb to i8*), i8* bitcast (void (%"class.content::WebContentsObserver"*, %"struct.content::MediaPlayerId"*)* @_ZN7content19WebContentsObserver20MediaBufferUnderflowERKNS_13MediaPlayerIdE to i8*), i8* bitcast (void (%"class.content::WebContentsObserver"*, %"struct.content::MediaPlayerId"*)* @_ZN7content19WebContentsObserver15MediaPlayerSeekERKNS_13MediaPlayerIdE to i8*), i8* bitcast (void (%"class.content::WebContentsObserver"*, %"struct.content::MediaPlayerId"*)* @_ZN7content19WebContentsObserver14MediaDestroyedERKNS_13MediaPlayerIdE to i8*), i8* bitcast (void (%"class.content::WebContentsObserver"*, float)* @_ZN7content19WebContentsObserver24OnPageScaleFactorChangedEf to i8*), i8* bitcast (void (%"class.content::WebContentsObserver"*)* @_ZN7content19WebContentsObserver7OnPasteEv to i8*), i8* bitcast (i1 (%"class.content::WebContentsObserver"*, %"class.IPC::Message"*, %"class.content::RenderFrameHost"*)* @_ZN7content19WebContentsObserver17OnMessageReceivedERKN3IPC7MessageEPNS_15RenderFrameHostE to i8*), i8* bitcast (void (%"class.content::WebContentsObserver"*, %"class.content::RenderWidgetHost"*)* @_ZN7content19WebContentsObserver20OnWebContentsFocusedEPNS_16RenderWidgetHostE to i8*), i8* bitcast (void (%"class.content::WebContentsObserver"*, %"class.content::RenderWidgetHost"*)* @_ZN7content19WebContentsObserver22OnWebContentsLostFocusEPNS_16RenderWidgetHostE to i8*), i8* bitcast (void (%"class.content::WebContentsObserver"*, %"struct.content::FocusedNodeDetails"*)* @_ZN7content19WebContentsObserver20OnFocusChangedInPageEPNS_18FocusedNodeDetailsE to i8*), i8* bitcast (void (%"class.content::WebContentsObserver"*, %"class.content::RenderFrameHost"*, %"class.absl::optional.152"*)* @_ZN7content19WebContentsObserver23DidUpdateWebManifestURLEPNS_15RenderFrameHostERKN4absl8optionalI4GURLEE to i8*), i8* bitcast (void (%"class.content::WebContentsObserver"*, %"class.content::RenderFrameHost"*, %"class.std::__1::basic_string"*, %"class.mojo::ScopedHandleBase"*)* @_ZN7content19WebContentsObserver27OnInterfaceRequestFromFrameEPNS_15RenderFrameHostERKNSt3__112basic_stringIcNS3_11char_traitsIcEENS3_9allocatorIcEEEEPN4mojo16ScopedHandleBaseINSC_17MessagePipeHandleEEE to i8*), i8* bitcast (void (%"class.content::WebContentsObserver"*, %"struct.std::__1::pair"*)* @_ZN7content19WebContentsObserver27AudioContextPlaybackStartedERKNSt3__14pairIPNS_15RenderFrameHostEiEE to i8*), i8* bitcast (void (%"class.content::WebContentsObserver"*, %"struct.std::__1::pair"*)* @_ZN7content19WebContentsObserver27AudioContextPlaybackStoppedERKNSt3__14pairIPNS_15RenderFrameHostEiEE to i8*), i8* bitcast (void (%"class.content::WebContentsObserver"*, %"class.content::RenderFrameHost"*, %class.GURL*, i24)* @_ZN7content19WebContentsObserver23OnServiceWorkerAccessedEPNS_15RenderFrameHostERK4GURLNS_24AllowServiceWorkerResultE to i8*), i8* bitcast (void (%"class.content::WebContentsObserver"*, %"class.content::NavigationHandle"*, %class.GURL*, i24)* @_ZN7content19WebContentsObserver23OnServiceWorkerAccessedEPNS_16NavigationHandleERK4GURLNS_24AllowServiceWorkerResultE to i8*)], [5 x i8*] [i8* inttoptr (i64 -16 to i8*), i8* null, i8* bitcast (void (%class.ReputationWebContentsObserver*)* @_ZThn16_N29ReputationWebContentsObserverD1Ev to i8*), i8* bitcast (void (%class.ReputationWebContentsObserver*)* @_ZThn16_N29ReputationWebContentsObserverD0Ev to i8*), i8* bitcast (void ()* @_ZN4base16SupportsUserData4Data5CloneEv to i8*)] }, align 8
@.str = private unnamed_addr constant [35 x i8] c"Security.SafetyTips.SafetyTipShown\00", align 1
@.str.1 = private unnamed_addr constant [62 x i8] c"Security.SafetyTips.ReputationCheckComplete.VisibilityChanged\00", align 1
@.str.2 = private unnamed_addr constant [64 x i8] c"Security.SafetyTips.ReputationCheckComplete.DidFinishNavigation\00", align 1
@.str.3 = private unnamed_addr constant [45 x i8] c"Security.SafetyTips.SafetyTipIgnoredPageLoad\00", align 1
@.str.4 = private unnamed_addr constant [150 x i8] c"Chrome has determined that %s could be fake or fraudulent.\0A\0AIf you believe this is shown in error please visit https://g.co/chrome/lookalike-warnings\00", align 1
@_ZN10lookalikes8features27kLookalikeDigitalAssetLinksE = external global %"struct.base::Feature", align 8
@_ZN19LookalikeUrlService19kManifestFetchDelayE = external global %"struct.base::FeatureParam", align 8
@_ZN29ReputationWebContentsObserver12kUserDataKeyE = hidden local_unnamed_addr constant i32 0, align 4
@.str.5 = private unnamed_addr constant [14 x i8] c"UnexpectedUrl\00", align 1
@.str.6 = private unnamed_addr constant [8 x i8] c"Unknown\00", align 1
@.str.7 = private unnamed_addr constant [11 x i8] c"SameOrigin\00", align 1
@.str.8 = private unnamed_addr constant [14 x i8] c"SameRegDomain\00", align 1
@.str.9 = private unnamed_addr constant [12 x i8] c"CrossOrigin\00", align 1
@.str.10 = private unnamed_addr constant [41 x i8] c"Security.SafetyTips.StatusWithInitiator.\00", align 1
@_ZN14security_state8features12kSafetyTipUIE = external global %"struct.base::Feature", align 8
@_ZN14security_state8features28kSafetyTipUIOnDelayedWarningE = external global %"struct.base::Feature", align 8
@.str.11 = private unnamed_addr constant [16 x i8] c"suspicioussites\00", align 1
@_ZN12_GLOBAL__N_127kEnableSuspiciousSiteChecksE = internal constant { %"struct.base::Feature"*, i8*, i8 } { %"struct.base::Feature"* @_ZN14security_state8features12kSafetyTipUIE, i8* getelementptr inbounds ([16 x i8], [16 x i8]* @.str.11, i32 0, i32 0), i8 1 }, align 8
@.str.13 = private unnamed_addr constant [45 x i8] c"Security.SafetyTips.SafetyTipShown_AfterFlag\00", align 1
@.str.15 = private unnamed_addr constant [10 x i8] c"LeaveSite\00", align 1
@.str.16 = private unnamed_addr constant [15 x i8] c"DismissWithEsc\00", align 1
@.str.17 = private unnamed_addr constant [17 x i8] c"DismissWithClose\00", align 1
@.str.18 = private unnamed_addr constant [18 x i8] c"DismissWithIgnore\00", align 1
@.str.19 = private unnamed_addr constant [10 x i8] c"LearnMore\00", align 1
@.str.21 = private unnamed_addr constant [10 x i8] c"SwitchTab\00", align 1
@.str.22 = private unnamed_addr constant [19 x i8] c"StartNewNavigation\00", align 1
@.str.23 = private unnamed_addr constant [32 x i8] c"Security.SafetyTips.Interaction\00", align 1
@.str.24 = private unnamed_addr constant [37 x i8] c"Security.SafetyTips.OpenTime.Dismiss\00", align 1
@.str.25 = private unnamed_addr constant [30 x i8] c"Security.SafetyTips.OpenTime.\00", align 1
@.str.27 = private unnamed_addr constant [29 x i8] c"../../base/memory/weak_ptr.h\00", align 1
@.str.28 = private unnamed_addr constant [15 x i8] c"ref_.IsValid()\00", align 1
@_ZZN29ReputationWebContentsObserver27HandleReputationCheckResultElbb21ReputationCheckResultE24atomic_histogram_pointer.0.0.0.0.0 = internal unnamed_addr global i64 0, align 8
@_ZZN29ReputationWebContentsObserver27HandleReputationCheckResultElbb21ReputationCheckResultE24atomic_histogram_pointer_0.0.0.0.0.0 = internal unnamed_addr global i64 0, align 8
@_ZZN12_GLOBAL__N_128RecordPostFlagCheckHistogramEN14security_state15SafetyTipStatusEE24atomic_histogram_pointer.0.0.0.0.0 = internal unnamed_addr global i64 0, align 8

@_ZN29ReputationWebContentsObserverD1Ev = hidden unnamed_addr alias void (%class.ReputationWebContentsObserver*), void (%class.ReputationWebContentsObserver*)* @_ZN29ReputationWebContentsObserverD2Ev
@_ZN29ReputationWebContentsObserverC1EPN7content11WebContentsE = hidden unnamed_addr alias void (%class.ReputationWebContentsObserver*, %"class.content::WebContents"*), void (%class.ReputationWebContentsObserver*, %"class.content::WebContents"*)* @_ZN29ReputationWebContentsObserverC2EPN7content11WebContentsE

; Function Attrs: nounwind ssp uwtable
define hidden void @_ZN29ReputationWebContentsObserverD2Ev(%class.ReputationWebContentsObserver*) unnamed_addr #0 align 2 {
  %2 = getelementptr inbounds %class.ReputationWebContentsObserver, %class.ReputationWebContentsObserver* %0, i64 0, i32 0, i32 0, i32 0
  store i32 (...)** bitcast (i8** getelementptr inbounds ({ [109 x i8*], [5 x i8*] }, { [109 x i8*], [5 x i8*] }* @_ZTV29ReputationWebContentsObserver, i64 0, inrange i32 0, i64 2) to i32 (...)**), i32 (...)*** %2, align 8
  %3 = getelementptr inbounds %class.ReputationWebContentsObserver, %class.ReputationWebContentsObserver* %0, i64 0, i32 1, i32 0, i32 0
  store i32 (...)** bitcast (i8** getelementptr inbounds ({ [109 x i8*], [5 x i8*] }, { [109 x i8*], [5 x i8*] }* @_ZTV29ReputationWebContentsObserver, i64 0, inrange i32 1, i64 2) to i32 (...)**), i32 (...)*** %3, align 8
  %4 = getelementptr inbounds %class.ReputationWebContentsObserver, %class.ReputationWebContentsObserver* %0, i64 0, i32 11, i32 0
  tail call void @_ZN4base8internal18WeakPtrFactoryBaseD2Ev(%"class.base::internal::WeakPtrFactoryBase"* %4) #8
  %5 = getelementptr inbounds %class.ReputationWebContentsObserver, %class.ReputationWebContentsObserver* %0, i64 0, i32 10, i32 0, i32 0, i32 0
  %6 = load %class.DigitalAssetLinkCrossValidator*, %class.DigitalAssetLinkCrossValidator** %5, align 8
  store %class.DigitalAssetLinkCrossValidator* null, %class.DigitalAssetLinkCrossValidator** %5, align 8
  %7 = icmp eq %class.DigitalAssetLinkCrossValidator* %6, null
  br i1 %7, label %10, label %8

8:                                                ; preds = %1
  tail call void @_ZN30DigitalAssetLinkCrossValidatorD1Ev(%class.DigitalAssetLinkCrossValidator* nonnull %6) #8
  %9 = bitcast %class.DigitalAssetLinkCrossValidator* %6 to i8*
  tail call void @_ZdlPv(i8* %9) #9
  br label %10

10:                                               ; preds = %1, %8
  %11 = getelementptr inbounds %class.ReputationWebContentsObserver, %class.ReputationWebContentsObserver* %0, i64 0, i32 9, i32 0
  tail call void @_ZN4base8internal12CallbackBaseD2Ev(%"class.base::internal::CallbackBase"* %11) #8
  %12 = getelementptr inbounds %class.ReputationWebContentsObserver, %class.ReputationWebContentsObserver* %0, i64 0, i32 7, i32 0
  tail call void @_ZN4base8internal12CallbackBaseD2Ev(%"class.base::internal::CallbackBase"* %12) #8
  %13 = getelementptr inbounds %class.ReputationWebContentsObserver, %class.ReputationWebContentsObserver* %0, i64 0, i32 6
  tail call void @_ZN4GURLD1Ev(%class.GURL* %13) #8
  %14 = getelementptr inbounds %class.ReputationWebContentsObserver, %class.ReputationWebContentsObserver* %0, i64 0, i32 5, i32 0, i32 0, i32 0, i32 0
  %15 = load i8, i8* %14, align 8, !range !2
  %16 = icmp eq i8 %15, 0
  br i1 %16, label %19, label %17

17:                                               ; preds = %10
  %18 = getelementptr inbounds %class.ReputationWebContentsObserver, %class.ReputationWebContentsObserver* %0, i64 0, i32 5, i32 0, i32 0, i32 0, i32 1, i32 0
  tail call void @_ZN3url6OriginD1Ev(%"class.url::Origin"* %18) #8
  store i8 0, i8* %14, align 8
  br label %19

19:                                               ; preds = %10, %17
  %20 = getelementptr inbounds %class.ReputationWebContentsObserver, %class.ReputationWebContentsObserver* %0, i64 0, i32 3, i32 1
  tail call void @_ZN4GURLD1Ev(%class.GURL* %20) #8
  %21 = getelementptr inbounds %class.ReputationWebContentsObserver, %class.ReputationWebContentsObserver* %0, i64 0, i32 0
  tail call void @_ZN7content19WebContentsObserverD2Ev(%"class.content::WebContentsObserver"* %21) #8
  ret void
}

; Function Attrs: nounwind
declare void @_ZN4base8internal18WeakPtrFactoryBaseD2Ev(%"class.base::internal::WeakPtrFactoryBase"*) unnamed_addr #1

; Function Attrs: nounwind
declare void @_ZN4GURLD1Ev(%class.GURL*) unnamed_addr #1

; Function Attrs: nounwind
declare void @_ZN7content19WebContentsObserverD2Ev(%"class.content::WebContentsObserver"*) unnamed_addr #1

; Function Attrs: nounwind ssp uwtable
define hidden void @_ZThn16_N29ReputationWebContentsObserverD1Ev(%class.ReputationWebContentsObserver*) unnamed_addr #0 align 2 {
  %2 = getelementptr inbounds %class.ReputationWebContentsObserver, %class.ReputationWebContentsObserver* %0, i64 -1, i32 11
  %3 = bitcast %"class.base::WeakPtrFactory.71"* %2 to %class.ReputationWebContentsObserver*
  tail call void @_ZN29ReputationWebContentsObserverD2Ev(%class.ReputationWebContentsObserver* %3) #8
  ret void
}

; Function Attrs: nounwind ssp uwtable
define hidden void @_ZN29ReputationWebContentsObserverD0Ev(%class.ReputationWebContentsObserver*) unnamed_addr #0 align 2 {
  tail call void @_ZN29ReputationWebContentsObserverD2Ev(%class.ReputationWebContentsObserver* %0) #8
  %2 = bitcast %class.ReputationWebContentsObserver* %0 to i8*
  tail call void @_ZdlPv(i8* %2) #9
  ret void
}

; Function Attrs: nobuiltin nounwind
declare void @_ZdlPv(i8*) local_unnamed_addr #2

; Function Attrs: nounwind ssp uwtable
define hidden void @_ZThn16_N29ReputationWebContentsObserverD0Ev(%class.ReputationWebContentsObserver*) unnamed_addr #0 align 2 {
  %2 = getelementptr inbounds %class.ReputationWebContentsObserver, %class.ReputationWebContentsObserver* %0, i64 -1, i32 11
  %3 = bitcast %"class.base::WeakPtrFactory.71"* %2 to %class.ReputationWebContentsObserver*
  tail call void @_ZN29ReputationWebContentsObserverD2Ev(%class.ReputationWebContentsObserver* %3) #8
  %4 = bitcast %"class.base::WeakPtrFactory.71"* %2 to i8*
  tail call void @_ZdlPv(i8* %4) #9
  ret void
}

; Function Attrs: nounwind ssp uwtable
define hidden void @_ZN29ReputationWebContentsObserver19DidFinishNavigationEPN7content16NavigationHandleE(%class.ReputationWebContentsObserver*, %"class.content::NavigationHandle"*) unnamed_addr #0 align 2 {
  %3 = alloca %"class.base::OnceCallback", align 8
  %4 = alloca %"class.base::OnceCallback", align 8
  %5 = alloca %"struct.security_state::SafetyTipInfo", align 8
  %6 = bitcast %"class.content::NavigationHandle"* %1 to i1 (%"class.content::NavigationHandle"*)***
  %7 = load i1 (%"class.content::NavigationHandle"*)**, i1 (%"class.content::NavigationHandle"*)*** %6, align 8
  %8 = getelementptr inbounds i1 (%"class.content::NavigationHandle"*)*, i1 (%"class.content::NavigationHandle"*)** %7, i64 8
  %9 = load i1 (%"class.content::NavigationHandle"*)*, i1 (%"class.content::NavigationHandle"*)** %8, align 8
  %10 = tail call zeroext i1 %9(%"class.content::NavigationHandle"* %1) #8
  br i1 %10, label %11, label %21

11:                                               ; preds = %2
  %12 = load i1 (%"class.content::NavigationHandle"*)**, i1 (%"class.content::NavigationHandle"*)*** %6, align 8
  %13 = getelementptr inbounds i1 (%"class.content::NavigationHandle"*)*, i1 (%"class.content::NavigationHandle"*)** %12, i64 38
  %14 = load i1 (%"class.content::NavigationHandle"*)*, i1 (%"class.content::NavigationHandle"*)** %13, align 8
  %15 = tail call zeroext i1 %14(%"class.content::NavigationHandle"* %1) #8
  br i1 %15, label %16, label %21

16:                                               ; preds = %11
  %17 = load i1 (%"class.content::NavigationHandle"*)**, i1 (%"class.content::NavigationHandle"*)*** %6, align 8
  %18 = getelementptr inbounds i1 (%"class.content::NavigationHandle"*)*, i1 (%"class.content::NavigationHandle"*)** %17, i64 39
  %19 = load i1 (%"class.content::NavigationHandle"*)*, i1 (%"class.content::NavigationHandle"*)** %18, align 8
  %20 = tail call zeroext i1 %19(%"class.content::NavigationHandle"* %1) #8
  br i1 %20, label %21, label %33

21:                                               ; preds = %16, %11, %2
  %22 = getelementptr inbounds %class.ReputationWebContentsObserver, %class.ReputationWebContentsObserver* %0, i64 0, i32 7, i32 0, i32 0, i32 0
  %23 = load %"class.base::internal::BindStateBase"*, %"class.base::internal::BindStateBase"** %22, align 8
  %24 = icmp eq %"class.base::internal::BindStateBase"* %23, null
  br i1 %24, label %115, label %25

25:                                               ; preds = %21
  %26 = ptrtoint %"class.base::internal::BindStateBase"* %23 to i64
  %27 = bitcast %"class.base::OnceCallback"* %4 to i8*
  call void @llvm.lifetime.start.p0i8(i64 8, i8* nonnull %27) #8
  %28 = bitcast %"class.base::OnceCallback"* %4 to i64*
  store i64 %26, i64* %28, align 8
  store %"class.base::internal::BindStateBase"* null, %"class.base::internal::BindStateBase"** %22, align 8
  %29 = getelementptr inbounds %"class.base::OnceCallback", %"class.base::OnceCallback"* %4, i64 0, i32 0
  %30 = getelementptr inbounds %"class.base::internal::BindStateBase", %"class.base::internal::BindStateBase"* %23, i64 0, i32 1
  %31 = bitcast void ()** %30 to void (%"class.base::internal::BindStateBase"*)**
  %32 = load void (%"class.base::internal::BindStateBase"*)*, void (%"class.base::internal::BindStateBase"*)** %31, align 8
  tail call void %32(%"class.base::internal::BindStateBase"* nonnull %23) #8
  call void @_ZN4base8internal12CallbackBaseD2Ev(%"class.base::internal::CallbackBase"* nonnull %29) #8
  call void @llvm.lifetime.end.p0i8(i64 8, i8* nonnull %27) #8
  br label %115

33:                                               ; preds = %16
  %34 = load i1 (%"class.content::NavigationHandle"*)**, i1 (%"class.content::NavigationHandle"*)*** %6, align 8
  %35 = getelementptr inbounds i1 (%"class.content::NavigationHandle"*)*, i1 (%"class.content::NavigationHandle"*)** %34, i64 35
  %36 = load i1 (%"class.content::NavigationHandle"*)*, i1 (%"class.content::NavigationHandle"*)** %35, align 8
  %37 = tail call zeroext i1 %36(%"class.content::NavigationHandle"* %1) #8
  br i1 %37, label %38, label %68

38:                                               ; preds = %33
  %39 = getelementptr inbounds %class.ReputationWebContentsObserver, %class.ReputationWebContentsObserver* %0, i64 0, i32 0
  %40 = tail call %"class.content::WebContents"* @_ZNK7content19WebContentsObserver12web_contentsEv(%"class.content::WebContentsObserver"* %39) #8
  %41 = bitcast %"class.content::WebContents"* %40 to %"class.content::NavigationController"* (%"class.content::WebContents"*)***
  %42 = load %"class.content::NavigationController"* (%"class.content::WebContents"*)**, %"class.content::NavigationController"* (%"class.content::WebContents"*)*** %41, align 8
  %43 = getelementptr inbounds %"class.content::NavigationController"* (%"class.content::WebContents"*)*, %"class.content::NavigationController"* (%"class.content::WebContents"*)** %42, i64 5
  %44 = load %"class.content::NavigationController"* (%"class.content::WebContents"*)*, %"class.content::NavigationController"* (%"class.content::WebContents"*)** %43, align 8
  %45 = tail call dereferenceable(8) %"class.content::NavigationController"* %44(%"class.content::WebContents"* %40) #8
  %46 = bitcast %"class.content::NavigationController"* %45 to %"class.content::NavigationEntry"* (%"class.content::NavigationController"*)***
  %47 = load %"class.content::NavigationEntry"* (%"class.content::NavigationController"*)**, %"class.content::NavigationEntry"* (%"class.content::NavigationController"*)*** %46, align 8
  %48 = getelementptr inbounds %"class.content::NavigationEntry"* (%"class.content::NavigationController"*)*, %"class.content::NavigationEntry"* (%"class.content::NavigationController"*)** %47, i64 8
  %49 = load %"class.content::NavigationEntry"* (%"class.content::NavigationController"*)*, %"class.content::NavigationEntry"* (%"class.content::NavigationController"*)** %48, align 8
  %50 = tail call %"class.content::NavigationEntry"* %49(%"class.content::NavigationController"* %45) #8
  %51 = bitcast %"class.content::NavigationEntry"* %50 to i32 (%"class.content::NavigationEntry"*)***
  %52 = load i32 (%"class.content::NavigationEntry"*)**, i32 (%"class.content::NavigationEntry"*)*** %51, align 8
  %53 = getelementptr inbounds i32 (%"class.content::NavigationEntry"*)*, i32 (%"class.content::NavigationEntry"*)** %52, i64 2
  %54 = load i32 (%"class.content::NavigationEntry"*)*, i32 (%"class.content::NavigationEntry"*)** %53, align 8
  %55 = tail call i32 %54(%"class.content::NavigationEntry"* %50) #8
  %56 = getelementptr inbounds %class.ReputationWebContentsObserver, %class.ReputationWebContentsObserver* %0, i64 0, i32 4
  store i32 %55, i32* %56, align 8
  %57 = getelementptr inbounds %class.ReputationWebContentsObserver, %class.ReputationWebContentsObserver* %0, i64 0, i32 7, i32 0, i32 0, i32 0
  %58 = load %"class.base::internal::BindStateBase"*, %"class.base::internal::BindStateBase"** %57, align 8
  %59 = icmp eq %"class.base::internal::BindStateBase"* %58, null
  br i1 %59, label %115, label %60

60:                                               ; preds = %38
  %61 = ptrtoint %"class.base::internal::BindStateBase"* %58 to i64
  %62 = bitcast %"class.base::OnceCallback"* %3 to i8*
  call void @llvm.lifetime.start.p0i8(i64 8, i8* nonnull %62) #8
  %63 = bitcast %"class.base::OnceCallback"* %3 to i64*
  store i64 %61, i64* %63, align 8
  store %"class.base::internal::BindStateBase"* null, %"class.base::internal::BindStateBase"** %57, align 8
  %64 = getelementptr inbounds %"class.base::OnceCallback", %"class.base::OnceCallback"* %3, i64 0, i32 0
  %65 = getelementptr inbounds %"class.base::internal::BindStateBase", %"class.base::internal::BindStateBase"* %58, i64 0, i32 1
  %66 = bitcast void ()** %65 to void (%"class.base::internal::BindStateBase"*)**
  %67 = load void (%"class.base::internal::BindStateBase"*)*, void (%"class.base::internal::BindStateBase"*)** %66, align 8
  tail call void %67(%"class.base::internal::BindStateBase"* nonnull %58) #8
  call void @_ZN4base8internal12CallbackBaseD2Ev(%"class.base::internal::CallbackBase"* nonnull %64) #8
  call void @llvm.lifetime.end.p0i8(i64 8, i8* nonnull %62) #8
  br label %115

68:                                               ; preds = %33
  %69 = bitcast %"struct.security_state::SafetyTipInfo"* %5 to i8*
  call void @llvm.lifetime.start.p0i8(i64 128, i8* nonnull %69) #8
  %70 = getelementptr inbounds %"struct.security_state::SafetyTipInfo", %"struct.security_state::SafetyTipInfo"* %5, i64 0, i32 0
  store i32 0, i32* %70, align 8
  %71 = getelementptr inbounds %"struct.security_state::SafetyTipInfo", %"struct.security_state::SafetyTipInfo"* %5, i64 0, i32 1
  call void @_ZN4GURLC1Ev(%class.GURL* %71) #8
  %72 = load i32, i32* %70, align 8
  %73 = getelementptr inbounds %class.ReputationWebContentsObserver, %class.ReputationWebContentsObserver* %0, i64 0, i32 3, i32 0
  store i32 %72, i32* %73, align 8
  %74 = getelementptr inbounds %class.ReputationWebContentsObserver, %class.ReputationWebContentsObserver* %0, i64 0, i32 3, i32 1
  %75 = call dereferenceable(120) %class.GURL* @_ZN4GURLaSEOS_(%class.GURL* %74, %class.GURL* dereferenceable(120) %71) #8
  call void @_ZN4GURLD1Ev(%class.GURL* %71) #8
  call void @llvm.lifetime.end.p0i8(i64 128, i8* nonnull %69) #8
  %76 = getelementptr inbounds %class.ReputationWebContentsObserver, %class.ReputationWebContentsObserver* %0, i64 0, i32 4
  store i32 0, i32* %76, align 8
  %77 = bitcast %"class.content::NavigationHandle"* %1 to %"class.absl::optional"* (%"class.content::NavigationHandle"*)***
  %78 = load %"class.absl::optional"* (%"class.content::NavigationHandle"*)**, %"class.absl::optional"* (%"class.content::NavigationHandle"*)*** %77, align 8
  %79 = getelementptr inbounds %"class.absl::optional"* (%"class.content::NavigationHandle"*)*, %"class.absl::optional"* (%"class.content::NavigationHandle"*)** %78, i64 67
  %80 = load %"class.absl::optional"* (%"class.content::NavigationHandle"*)*, %"class.absl::optional"* (%"class.content::NavigationHandle"*)** %79, align 8
  %81 = call dereferenceable(88) %"class.absl::optional"* %80(%"class.content::NavigationHandle"* %1) #8
  %82 = getelementptr inbounds %class.ReputationWebContentsObserver, %class.ReputationWebContentsObserver* %0, i64 0, i32 5
  %83 = getelementptr inbounds %"class.absl::optional", %"class.absl::optional"* %81, i64 0, i32 0, i32 0, i32 0, i32 0
  %84 = load i8, i8* %83, align 8, !range !2
  %85 = icmp eq i8 %84, 0
  br i1 %85, label %95, label %86

86:                                               ; preds = %68
  %87 = getelementptr inbounds %"class.absl::optional", %"class.absl::optional"* %81, i64 0, i32 0, i32 0, i32 0, i32 1, i32 0
  %88 = getelementptr inbounds %"class.absl::optional", %"class.absl::optional"* %82, i64 0, i32 0, i32 0, i32 0, i32 0
  %89 = load i8, i8* %88, align 8, !range !2
  %90 = icmp eq i8 %89, 0
  %91 = getelementptr inbounds %class.ReputationWebContentsObserver, %class.ReputationWebContentsObserver* %0, i64 0, i32 5, i32 0, i32 0, i32 0, i32 1, i32 0
  br i1 %90, label %94, label %92

92:                                               ; preds = %86
  %93 = call dereferenceable(80) %"class.url::Origin"* @_ZN3url6OriginaSERKS0_(%"class.url::Origin"* %91, %"class.url::Origin"* dereferenceable(80) %87) #8
  br label %101

94:                                               ; preds = %86
  call void @_ZN3url6OriginC1ERKS0_(%"class.url::Origin"* %91, %"class.url::Origin"* dereferenceable(80) %87) #8
  store i8 1, i8* %88, align 8
  br label %101

95:                                               ; preds = %68
  %96 = getelementptr inbounds %"class.absl::optional", %"class.absl::optional"* %82, i64 0, i32 0, i32 0, i32 0, i32 0
  %97 = load i8, i8* %96, align 8, !range !2
  %98 = icmp eq i8 %97, 0
  br i1 %98, label %101, label %99

99:                                               ; preds = %95
  %100 = getelementptr inbounds %class.ReputationWebContentsObserver, %class.ReputationWebContentsObserver* %0, i64 0, i32 5, i32 0, i32 0, i32 0, i32 1, i32 0
  call void @_ZN3url6OriginD1Ev(%"class.url::Origin"* %100) #8
  store i8 0, i8* %96, align 8
  br label %101

101:                                              ; preds = %92, %94, %95, %99
  %102 = bitcast %"class.content::NavigationHandle"* %1 to %class.GURL* (%"class.content::NavigationHandle"*)***
  %103 = load %class.GURL* (%"class.content::NavigationHandle"*)**, %class.GURL* (%"class.content::NavigationHandle"*)*** %102, align 8
  %104 = getelementptr inbounds %class.GURL* (%"class.content::NavigationHandle"*)*, %class.GURL* (%"class.content::NavigationHandle"*)** %103, i64 4
  %105 = load %class.GURL* (%"class.content::NavigationHandle"*)*, %class.GURL* (%"class.content::NavigationHandle"*)** %104, align 8
  %106 = call dereferenceable(120) %class.GURL* %105(%"class.content::NavigationHandle"* %1) #8
  %107 = getelementptr inbounds %class.ReputationWebContentsObserver, %class.ReputationWebContentsObserver* %0, i64 0, i32 6
  %108 = call dereferenceable(120) %class.GURL* @_ZN4GURLaSERKS_(%class.GURL* %107, %class.GURL* dereferenceable(120) %106) #8
  %109 = bitcast %"class.content::NavigationHandle"* %1 to i64 (%"class.content::NavigationHandle"*)***
  %110 = load i64 (%"class.content::NavigationHandle"*)**, i64 (%"class.content::NavigationHandle"*)*** %109, align 8
  %111 = getelementptr inbounds i64 (%"class.content::NavigationHandle"*)*, i64 (%"class.content::NavigationHandle"*)** %110, i64 2
  %112 = load i64 (%"class.content::NavigationHandle"*)*, i64 (%"class.content::NavigationHandle"*)** %111, align 8
  %113 = call i64 %112(%"class.content::NavigationHandle"* %1) #8
  %114 = call i64 @_ZN3ukm17ConvertToSourceIdElNS_11SourceIdObj4TypeE(i64 %113, i64 1) #8
  call void @_ZN29ReputationWebContentsObserver18MaybeShowSafetyTipElbb(%class.ReputationWebContentsObserver* %0, i64 %114, i1 zeroext false, i1 zeroext true)
  br label %115

115:                                              ; preds = %60, %38, %25, %21, %101
  ret void
}

; Function Attrs: nounwind ssp uwtable
define hidden void @_ZN29ReputationWebContentsObserver32MaybeCallReputationCheckCallbackEb(%class.ReputationWebContentsObserver* nocapture, i1 zeroext) local_unnamed_addr #0 align 2 {
  %3 = alloca %"class.base::OnceCallback", align 8
  br i1 %1, label %4, label %6

4:                                                ; preds = %2
  %5 = getelementptr inbounds %class.ReputationWebContentsObserver, %class.ReputationWebContentsObserver* %0, i64 0, i32 8
  store i8 0, i8* %5, align 8
  br label %6

6:                                                ; preds = %4, %2
  %7 = getelementptr inbounds %class.ReputationWebContentsObserver, %class.ReputationWebContentsObserver* %0, i64 0, i32 7, i32 0, i32 0, i32 0
  %8 = load %"class.base::internal::BindStateBase"*, %"class.base::internal::BindStateBase"** %7, align 8
  %9 = icmp eq %"class.base::internal::BindStateBase"* %8, null
  br i1 %9, label %18, label %10

10:                                               ; preds = %6
  %11 = ptrtoint %"class.base::internal::BindStateBase"* %8 to i64
  %12 = bitcast %"class.base::OnceCallback"* %3 to i8*
  call void @llvm.lifetime.start.p0i8(i64 8, i8* nonnull %12) #8
  %13 = bitcast %"class.base::OnceCallback"* %3 to i64*
  store i64 %11, i64* %13, align 8
  store %"class.base::internal::BindStateBase"* null, %"class.base::internal::BindStateBase"** %7, align 8
  %14 = getelementptr inbounds %"class.base::OnceCallback", %"class.base::OnceCallback"* %3, i64 0, i32 0
  %15 = getelementptr inbounds %"class.base::internal::BindStateBase", %"class.base::internal::BindStateBase"* %8, i64 0, i32 1
  %16 = bitcast void ()** %15 to void (%"class.base::internal::BindStateBase"*)**
  %17 = load void (%"class.base::internal::BindStateBase"*)*, void (%"class.base::internal::BindStateBase"*)** %16, align 8
  tail call void %17(%"class.base::internal::BindStateBase"* nonnull %8) #8
  call void @_ZN4base8internal12CallbackBaseD2Ev(%"class.base::internal::CallbackBase"* nonnull %14) #8
  call void @llvm.lifetime.end.p0i8(i64 8, i8* nonnull %12) #8
  br label %18

18:                                               ; preds = %6, %10
  ret void
}

declare %"class.content::WebContents"* @_ZNK7content19WebContentsObserver12web_contentsEv(%"class.content::WebContentsObserver"*) local_unnamed_addr #3

; Function Attrs: argmemonly nounwind
declare void @llvm.lifetime.start.p0i8(i64 immarg, i8* nocapture) #4

declare void @_ZN4GURLC1Ev(%class.GURL*) unnamed_addr #3

; Function Attrs: argmemonly nounwind
declare void @llvm.lifetime.end.p0i8(i64 immarg, i8* nocapture) #4

declare dereferenceable(120) %class.GURL* @_ZN4GURLaSERKS_(%class.GURL*, %class.GURL* dereferenceable(120)) local_unnamed_addr #3

; Function Attrs: nounwind ssp uwtable
define hidden void @_ZN29ReputationWebContentsObserver18MaybeShowSafetyTipElbb(%class.ReputationWebContentsObserver*, i64, i1 zeroext, i1 zeroext) local_unnamed_addr #0 align 2 {
  %5 = alloca %"class.base::internal::WeakReference", align 8
  %6 = alloca %"class.base::OnceCallback", align 8
  %7 = alloca %"class.base::OnceCallback", align 8
  %8 = alloca %"class.base::OnceCallback", align 8
  %9 = alloca %"class.base::OnceCallback.82", align 8
  %10 = alloca %"class.base::WeakPtr.83", align 8
  %11 = zext i1 %2 to i8
  %12 = zext i1 %3 to i8
  %13 = getelementptr inbounds %class.ReputationWebContentsObserver, %class.ReputationWebContentsObserver* %0, i64 0, i32 0
  %14 = tail call %"class.content::WebContents"* @_ZNK7content19WebContentsObserver12web_contentsEv(%"class.content::WebContentsObserver"* %13) #8
  %15 = bitcast %"class.content::WebContents"* %14 to %"class.content::RenderFrameHost"* (%"class.content::WebContents"*)***
  %16 = load %"class.content::RenderFrameHost"* (%"class.content::WebContents"*)**, %"class.content::RenderFrameHost"* (%"class.content::WebContents"*)*** %15, align 8
  %17 = getelementptr inbounds %"class.content::RenderFrameHost"* (%"class.content::WebContents"*)*, %"class.content::RenderFrameHost"* (%"class.content::WebContents"*)** %16, i64 10
  %18 = load %"class.content::RenderFrameHost"* (%"class.content::WebContents"*)*, %"class.content::RenderFrameHost"* (%"class.content::WebContents"*)** %17, align 8
  %19 = tail call %"class.content::RenderFrameHost"* %18(%"class.content::WebContents"* %14) #8
  %20 = bitcast %"class.content::RenderFrameHost"* %19 to i32 (%"class.content::RenderFrameHost"*)***
  %21 = load i32 (%"class.content::RenderFrameHost"*)**, i32 (%"class.content::RenderFrameHost"*)*** %20, align 8
  %22 = getelementptr inbounds i32 (%"class.content::RenderFrameHost"*)*, i32 (%"class.content::RenderFrameHost"*)** %21, i64 55
  %23 = load i32 (%"class.content::RenderFrameHost"*)*, i32 (%"class.content::RenderFrameHost"*)** %22, align 8
  %24 = tail call i32 %23(%"class.content::RenderFrameHost"* %19) #8
  %25 = icmp eq i32 %24, 0
  br i1 %25, label %38, label %26

26:                                               ; preds = %4
  %27 = getelementptr inbounds %class.ReputationWebContentsObserver, %class.ReputationWebContentsObserver* %0, i64 0, i32 7, i32 0, i32 0, i32 0
  %28 = load %"class.base::internal::BindStateBase"*, %"class.base::internal::BindStateBase"** %27, align 8
  %29 = icmp eq %"class.base::internal::BindStateBase"* %28, null
  br i1 %29, label %118, label %30

30:                                               ; preds = %26
  %31 = ptrtoint %"class.base::internal::BindStateBase"* %28 to i64
  %32 = bitcast %"class.base::OnceCallback"* %8 to i8*
  call void @llvm.lifetime.start.p0i8(i64 8, i8* nonnull %32) #8
  %33 = bitcast %"class.base::OnceCallback"* %8 to i64*
  store i64 %31, i64* %33, align 8
  store %"class.base::internal::BindStateBase"* null, %"class.base::internal::BindStateBase"** %27, align 8
  %34 = getelementptr inbounds %"class.base::OnceCallback", %"class.base::OnceCallback"* %8, i64 0, i32 0
  %35 = getelementptr inbounds %"class.base::internal::BindStateBase", %"class.base::internal::BindStateBase"* %28, i64 0, i32 1
  %36 = bitcast void ()** %35 to void (%"class.base::internal::BindStateBase"*)**
  %37 = load void (%"class.base::internal::BindStateBase"*)*, void (%"class.base::internal::BindStateBase"*)** %36, align 8
  tail call void %37(%"class.base::internal::BindStateBase"* nonnull %28) #8
  call void @_ZN4base8internal12CallbackBaseD2Ev(%"class.base::internal::CallbackBase"* nonnull %34) #8
  call void @llvm.lifetime.end.p0i8(i64 8, i8* nonnull %32) #8
  br label %118

38:                                               ; preds = %4
  %39 = tail call %"class.content::WebContents"* @_ZNK7content19WebContentsObserver12web_contentsEv(%"class.content::WebContentsObserver"* %13) #8
  %40 = bitcast %"class.content::WebContents"* %39 to %"class.content::NavigationController"* (%"class.content::WebContents"*)***
  %41 = load %"class.content::NavigationController"* (%"class.content::WebContents"*)**, %"class.content::NavigationController"* (%"class.content::WebContents"*)*** %40, align 8
  %42 = getelementptr inbounds %"class.content::NavigationController"* (%"class.content::WebContents"*)*, %"class.content::NavigationController"* (%"class.content::WebContents"*)** %41, i64 5
  %43 = load %"class.content::NavigationController"* (%"class.content::WebContents"*)*, %"class.content::NavigationController"* (%"class.content::WebContents"*)** %42, align 8
  %44 = tail call dereferenceable(8) %"class.content::NavigationController"* %43(%"class.content::WebContents"* %39) #8
  %45 = bitcast %"class.content::NavigationController"* %44 to %"class.content::NavigationEntry"* (%"class.content::NavigationController"*)***
  %46 = load %"class.content::NavigationEntry"* (%"class.content::NavigationController"*)**, %"class.content::NavigationEntry"* (%"class.content::NavigationController"*)*** %45, align 8
  %47 = getelementptr inbounds %"class.content::NavigationEntry"* (%"class.content::NavigationController"*)*, %"class.content::NavigationEntry"* (%"class.content::NavigationController"*)** %46, i64 8
  %48 = load %"class.content::NavigationEntry"* (%"class.content::NavigationController"*)*, %"class.content::NavigationEntry"* (%"class.content::NavigationController"*)** %47, align 8
  %49 = tail call %"class.content::NavigationEntry"* %48(%"class.content::NavigationController"* %44) #8
  %50 = icmp eq %"class.content::NavigationEntry"* %49, null
  br i1 %50, label %58, label %51

51:                                               ; preds = %38
  %52 = bitcast %"class.content::NavigationEntry"* %49 to i32 (%"class.content::NavigationEntry"*)***
  %53 = load i32 (%"class.content::NavigationEntry"*)**, i32 (%"class.content::NavigationEntry"*)*** %52, align 8
  %54 = getelementptr inbounds i32 (%"class.content::NavigationEntry"*)*, i32 (%"class.content::NavigationEntry"*)** %53, i64 3
  %55 = load i32 (%"class.content::NavigationEntry"*)*, i32 (%"class.content::NavigationEntry"*)** %54, align 8
  %56 = tail call i32 %55(%"class.content::NavigationEntry"* nonnull %49) #8
  %57 = icmp eq i32 %56, 0
  br i1 %57, label %70, label %58

58:                                               ; preds = %51, %38
  %59 = getelementptr inbounds %class.ReputationWebContentsObserver, %class.ReputationWebContentsObserver* %0, i64 0, i32 7, i32 0, i32 0, i32 0
  %60 = load %"class.base::internal::BindStateBase"*, %"class.base::internal::BindStateBase"** %59, align 8
  %61 = icmp eq %"class.base::internal::BindStateBase"* %60, null
  br i1 %61, label %118, label %62

62:                                               ; preds = %58
  %63 = ptrtoint %"class.base::internal::BindStateBase"* %60 to i64
  %64 = bitcast %"class.base::OnceCallback"* %7 to i8*
  call void @llvm.lifetime.start.p0i8(i64 8, i8* nonnull %64) #8
  %65 = bitcast %"class.base::OnceCallback"* %7 to i64*
  store i64 %63, i64* %65, align 8
  store %"class.base::internal::BindStateBase"* null, %"class.base::internal::BindStateBase"** %59, align 8
  %66 = getelementptr inbounds %"class.base::OnceCallback", %"class.base::OnceCallback"* %7, i64 0, i32 0
  %67 = getelementptr inbounds %"class.base::internal::BindStateBase", %"class.base::internal::BindStateBase"* %60, i64 0, i32 1
  %68 = bitcast void ()** %67 to void (%"class.base::internal::BindStateBase"*)**
  %69 = load void (%"class.base::internal::BindStateBase"*)*, void (%"class.base::internal::BindStateBase"*)** %68, align 8
  tail call void %69(%"class.base::internal::BindStateBase"* nonnull %60) #8
  call void @_ZN4base8internal12CallbackBaseD2Ev(%"class.base::internal::CallbackBase"* nonnull %66) #8
  call void @llvm.lifetime.end.p0i8(i64 8, i8* nonnull %64) #8
  br label %118

70:                                               ; preds = %51
  %71 = tail call %"class.content::WebContents"* @_ZNK7content19WebContentsObserver12web_contentsEv(%"class.content::WebContentsObserver"* %13) #8
  %72 = bitcast %"class.content::WebContents"* %71 to %class.GURL* (%"class.content::WebContents"*)***
  %73 = load %class.GURL* (%"class.content::WebContents"*)**, %class.GURL* (%"class.content::WebContents"*)*** %72, align 8
  %74 = getelementptr inbounds %class.GURL* (%"class.content::WebContents"*)*, %class.GURL* (%"class.content::WebContents"*)** %73, i64 9
  %75 = load %class.GURL* (%"class.content::WebContents"*)*, %class.GURL* (%"class.content::WebContents"*)** %74, align 8
  %76 = tail call dereferenceable(120) %class.GURL* %75(%"class.content::WebContents"* %71) #8
  %77 = tail call zeroext i1 @_ZNK4GURL19SchemeIsHTTPOrHTTPSEv(%class.GURL* %76) #8
  br i1 %77, label %90, label %78

78:                                               ; preds = %70
  %79 = getelementptr inbounds %class.ReputationWebContentsObserver, %class.ReputationWebContentsObserver* %0, i64 0, i32 7, i32 0, i32 0, i32 0
  %80 = load %"class.base::internal::BindStateBase"*, %"class.base::internal::BindStateBase"** %79, align 8
  %81 = icmp eq %"class.base::internal::BindStateBase"* %80, null
  br i1 %81, label %118, label %82

82:                                               ; preds = %78
  %83 = ptrtoint %"class.base::internal::BindStateBase"* %80 to i64
  %84 = bitcast %"class.base::OnceCallback"* %6 to i8*
  call void @llvm.lifetime.start.p0i8(i64 8, i8* nonnull %84) #8
  %85 = bitcast %"class.base::OnceCallback"* %6 to i64*
  store i64 %83, i64* %85, align 8
  store %"class.base::internal::BindStateBase"* null, %"class.base::internal::BindStateBase"** %79, align 8
  %86 = getelementptr inbounds %"class.base::OnceCallback", %"class.base::OnceCallback"* %6, i64 0, i32 0
  %87 = getelementptr inbounds %"class.base::internal::BindStateBase", %"class.base::internal::BindStateBase"* %80, i64 0, i32 1
  %88 = bitcast void ()** %87 to void (%"class.base::internal::BindStateBase"*)**
  %89 = load void (%"class.base::internal::BindStateBase"*)*, void (%"class.base::internal::BindStateBase"*)** %88, align 8
  tail call void %89(%"class.base::internal::BindStateBase"* nonnull %80) #8
  call void @_ZN4base8internal12CallbackBaseD2Ev(%"class.base::internal::CallbackBase"* nonnull %86) #8
  call void @llvm.lifetime.end.p0i8(i64 8, i8* nonnull %84) #8
  br label %118

90:                                               ; preds = %70
  %91 = getelementptr inbounds %class.ReputationWebContentsObserver, %class.ReputationWebContentsObserver* %0, i64 0, i32 2
  %92 = load %class.Profile*, %class.Profile** %91, align 8
  %93 = tail call %class.ReputationService* @_ZN17ReputationService3GetEP7Profile(%class.Profile* %92) #8
  %94 = tail call %"class.content::WebContents"* @_ZNK7content19WebContentsObserver12web_contentsEv(%"class.content::WebContentsObserver"* %13) #8
  %95 = bitcast %"class.base::WeakPtr.83"* %10 to i8*
  call void @llvm.lifetime.start.p0i8(i64 16, i8* nonnull %95) #8
  %96 = bitcast %"class.base::internal::WeakReference"* %5 to i8*
  call void @llvm.lifetime.start.p0i8(i64 8, i8* nonnull %96) #8, !noalias !3
  %97 = getelementptr inbounds %class.ReputationWebContentsObserver, %class.ReputationWebContentsObserver* %0, i64 0, i32 11, i32 0, i32 0
  call void @_ZNK4base8internal18WeakReferenceOwner6GetRefEv(%"class.base::internal::WeakReference"* nonnull sret %5, %"class.base::internal::WeakReferenceOwner"* %97) #8, !noalias !3
  %98 = getelementptr inbounds %class.ReputationWebContentsObserver, %class.ReputationWebContentsObserver* %0, i64 0, i32 11, i32 0, i32 1
  %99 = load i64, i64* %98, align 8, !noalias !3
  %100 = getelementptr inbounds %"class.base::WeakPtr.83", %"class.base::WeakPtr.83"* %10, i64 0, i32 0
  call void @_ZN4base8internal11WeakPtrBaseC2ERKNS0_13WeakReferenceEm(%"class.base::internal::WeakPtrBase"* nonnull %100, %"class.base::internal::WeakReference"* nonnull dereferenceable(8) %5, i64 %99) #8
  call void @_ZN4base8internal13WeakReferenceD1Ev(%"class.base::internal::WeakReference"* nonnull %5) #8
  call void @llvm.lifetime.end.p0i8(i64 8, i8* nonnull %96) #8, !noalias !3
  %101 = call i8* @_Znwm(i64 80) #9, !noalias !6
  %102 = bitcast i8* %101 to %"class.base::internal::BindStateBase"*
  call void @_ZN4base8internal13BindStateBaseC2EPFvvEPFvPKS1_EPFbS5_NS1_21CancellationQueryModeEE(%"class.base::internal::BindStateBase"* nonnull %102, void ()* bitcast (void (%"class.base::internal::BindStateBase"*, %struct.ReputationCheckResult*)* @_ZN4base8internal7InvokerINS0_9BindStateIM29ReputationWebContentsObserverFvlbb21ReputationCheckResultEJNS_7WeakPtrIS3_EElbbEEEFvS4_EE7RunOnceEPNS0_13BindStateBaseEOS4_ to void ()*), void (%"class.base::internal::BindStateBase"*)* nonnull @_ZN4base8internal9BindStateIM29ReputationWebContentsObserverFvlbb21ReputationCheckResultEJNS_7WeakPtrIS2_EElbbEE7DestroyEPKNS0_13BindStateBaseE, i1 (%"class.base::internal::BindStateBase"*, i32)* nonnull @_ZN4base8internal23QueryCancellationTraitsINS0_9BindStateIM29ReputationWebContentsObserverFvlbb21ReputationCheckResultEJNS_7WeakPtrIS3_EElbbEEEEEbPKNS0_13BindStateBaseENSA_21CancellationQueryModeE) #8, !noalias !6
  %103 = getelementptr inbounds i8, i8* %101, i64 32
  %104 = bitcast i8* %103 to <2 x i64>*
  store <2 x i64> <i64 ptrtoint (void (%class.ReputationWebContentsObserver*, i64, i1, i1, %struct.ReputationCheckResult*)* @_ZN29ReputationWebContentsObserver27HandleReputationCheckResultElbb21ReputationCheckResult to i64), i64 0>, <2 x i64>* %104, align 8, !noalias !6
  %105 = getelementptr inbounds i8, i8* %101, i64 48
  %106 = bitcast i8* %105 to %"class.base::internal::WeakReference"*
  %107 = getelementptr inbounds %"class.base::WeakPtr.83", %"class.base::WeakPtr.83"* %10, i64 0, i32 0, i32 0
  call void @_ZN4base8internal13WeakReferenceC1EOS1_(%"class.base::internal::WeakReference"* %106, %"class.base::internal::WeakReference"* nonnull dereferenceable(8) %107) #8, !noalias !6
  %108 = getelementptr inbounds i8, i8* %101, i64 56
  %109 = bitcast i8* %108 to i64*
  %110 = getelementptr inbounds %"class.base::WeakPtr.83", %"class.base::WeakPtr.83"* %10, i64 0, i32 0, i32 1
  %111 = load i64, i64* %110, align 8, !noalias !6
  store i64 %111, i64* %109, align 8, !noalias !6
  %112 = getelementptr inbounds i8, i8* %101, i64 64
  %113 = bitcast i8* %112 to i64*
  store i64 %1, i64* %113, align 8, !noalias !6
  %114 = getelementptr inbounds i8, i8* %101, i64 72
  store i8 %11, i8* %114, align 1, !noalias !6
  %115 = getelementptr inbounds i8, i8* %101, i64 73
  store i8 %12, i8* %115, align 1, !noalias !6
  %116 = bitcast %"class.base::OnceCallback.82"* %9 to i8**
  store i8* %101, i8** %116, align 8, !alias.scope !6
  call void @_ZN17ReputationService19GetReputationStatusERK4GURLPN7content11WebContentsEN4base12OnceCallbackIFv21ReputationCheckResultEEE(%class.ReputationService* %93, %class.GURL* dereferenceable(120) %76, %"class.content::WebContents"* %94, %"class.base::OnceCallback.82"* nonnull %9) #8
  %117 = getelementptr inbounds %"class.base::OnceCallback.82", %"class.base::OnceCallback.82"* %9, i64 0, i32 0
  call void @_ZN4base8internal12CallbackBaseD2Ev(%"class.base::internal::CallbackBase"* nonnull %117) #8
  call void @_ZN4base8internal11WeakPtrBaseD2Ev(%"class.base::internal::WeakPtrBase"* nonnull %100) #8
  call void @llvm.lifetime.end.p0i8(i64 16, i8* nonnull %95) #8
  br label %118

118:                                              ; preds = %82, %78, %62, %58, %30, %26, %90
  ret void
}

declare i64 @_ZN3ukm17ConvertToSourceIdElNS_11SourceIdObj4TypeE(i64, i64) local_unnamed_addr #3

; Function Attrs: nounwind ssp uwtable
define hidden void @_ZN29ReputationWebContentsObserver19OnVisibilityChangedEN7content10VisibilityE(%class.ReputationWebContentsObserver*, i32) unnamed_addr #0 align 2 {
  %3 = getelementptr inbounds %class.ReputationWebContentsObserver, %class.ReputationWebContentsObserver* %0, i64 0, i32 0
  %4 = tail call %"class.content::WebContents"* @_ZNK7content19WebContentsObserver12web_contentsEv(%"class.content::WebContentsObserver"* %3) #8
  %5 = tail call i64 @_ZN3ukm33GetSourceIdForWebContentsDocumentEPKN7content11WebContentsE(%"class.content::WebContents"* %4) #8
  tail call void @_ZN29ReputationWebContentsObserver18MaybeShowSafetyTipElbb(%class.ReputationWebContentsObserver* %0, i64 %5, i1 zeroext true, i1 zeroext false)
  ret void
}

declare i64 @_ZN3ukm33GetSourceIdForWebContentsDocumentEPKN7content11WebContentsE(%"class.content::WebContents"*) local_unnamed_addr #3

; Function Attrs: nounwind ssp uwtable
define hidden void @_ZNK29ReputationWebContentsObserver36GetSafetyTipInfoForVisibleNavigationEv(%"struct.security_state::SafetyTipInfo"* noalias sret, %class.ReputationWebContentsObserver*) local_unnamed_addr #0 align 2 {
  %3 = getelementptr inbounds %class.ReputationWebContentsObserver, %class.ReputationWebContentsObserver* %1, i64 0, i32 0
  %4 = tail call %"class.content::WebContents"* @_ZNK7content19WebContentsObserver12web_contentsEv(%"class.content::WebContentsObserver"* %3) #8
  %5 = bitcast %"class.content::WebContents"* %4 to %"class.content::NavigationController"* (%"class.content::WebContents"*)***
  %6 = load %"class.content::NavigationController"* (%"class.content::WebContents"*)**, %"class.content::NavigationController"* (%"class.content::WebContents"*)*** %5, align 8
  %7 = getelementptr inbounds %"class.content::NavigationController"* (%"class.content::WebContents"*)*, %"class.content::NavigationController"* (%"class.content::WebContents"*)** %6, i64 5
  %8 = load %"class.content::NavigationController"* (%"class.content::WebContents"*)*, %"class.content::NavigationController"* (%"class.content::WebContents"*)** %7, align 8
  %9 = tail call dereferenceable(8) %"class.content::NavigationController"* %8(%"class.content::WebContents"* %4) #8
  %10 = bitcast %"class.content::NavigationController"* %9 to %"class.content::NavigationEntry"* (%"class.content::NavigationController"*)***
  %11 = load %"class.content::NavigationEntry"* (%"class.content::NavigationController"*)**, %"class.content::NavigationEntry"* (%"class.content::NavigationController"*)*** %10, align 8
  %12 = getelementptr inbounds %"class.content::NavigationEntry"* (%"class.content::NavigationController"*)*, %"class.content::NavigationEntry"* (%"class.content::NavigationController"*)** %11, i64 6
  %13 = load %"class.content::NavigationEntry"* (%"class.content::NavigationController"*)*, %"class.content::NavigationEntry"* (%"class.content::NavigationController"*)** %12, align 8
  %14 = tail call %"class.content::NavigationEntry"* %13(%"class.content::NavigationController"* %9) #8
  %15 = icmp eq %"class.content::NavigationEntry"* %14, null
  br i1 %15, label %16, label %19

16:                                               ; preds = %2
  %17 = getelementptr inbounds %"struct.security_state::SafetyTipInfo", %"struct.security_state::SafetyTipInfo"* %0, i64 0, i32 0
  store i32 0, i32* %17, align 8
  %18 = getelementptr inbounds %"struct.security_state::SafetyTipInfo", %"struct.security_state::SafetyTipInfo"* %0, i64 0, i32 1
  tail call void @_ZN4GURLC1Ev(%class.GURL* %18) #8
  br label %36

19:                                               ; preds = %2
  %20 = getelementptr inbounds %class.ReputationWebContentsObserver, %class.ReputationWebContentsObserver* %1, i64 0, i32 4
  %21 = load i32, i32* %20, align 8
  %22 = bitcast %"class.content::NavigationEntry"* %14 to i32 (%"class.content::NavigationEntry"*)***
  %23 = load i32 (%"class.content::NavigationEntry"*)**, i32 (%"class.content::NavigationEntry"*)*** %22, align 8
  %24 = getelementptr inbounds i32 (%"class.content::NavigationEntry"*)*, i32 (%"class.content::NavigationEntry"*)** %23, i64 2
  %25 = load i32 (%"class.content::NavigationEntry"*)*, i32 (%"class.content::NavigationEntry"*)** %24, align 8
  %26 = tail call i32 %25(%"class.content::NavigationEntry"* nonnull %14) #8
  %27 = icmp eq i32 %21, %26
  %28 = getelementptr inbounds %"struct.security_state::SafetyTipInfo", %"struct.security_state::SafetyTipInfo"* %0, i64 0, i32 0
  br i1 %27, label %29, label %34

29:                                               ; preds = %19
  %30 = getelementptr inbounds %class.ReputationWebContentsObserver, %class.ReputationWebContentsObserver* %1, i64 0, i32 3, i32 0
  %31 = load i32, i32* %30, align 8
  store i32 %31, i32* %28, align 8
  %32 = getelementptr inbounds %"struct.security_state::SafetyTipInfo", %"struct.security_state::SafetyTipInfo"* %0, i64 0, i32 1
  %33 = getelementptr inbounds %class.ReputationWebContentsObserver, %class.ReputationWebContentsObserver* %1, i64 0, i32 3, i32 1
  tail call void @_ZN4GURLC1ERKS_(%class.GURL* %32, %class.GURL* dereferenceable(120) %33) #8
  br label %36

34:                                               ; preds = %19
  store i32 0, i32* %28, align 8
  %35 = getelementptr inbounds %"struct.security_state::SafetyTipInfo", %"struct.security_state::SafetyTipInfo"* %0, i64 0, i32 1
  tail call void @_ZN4GURLC1Ev(%class.GURL* %35) #8
  br label %36

36:                                               ; preds = %29, %34, %16
  ret void
}

; Function Attrs: nounwind ssp uwtable
define hidden void @_ZN29ReputationWebContentsObserver41RegisterReputationCheckCallbackForTestingEN4base12OnceCallbackIFvvEEE(%class.ReputationWebContentsObserver*, %"class.base::OnceCallback"*) local_unnamed_addr #0 align 2 {
  %3 = getelementptr inbounds %class.ReputationWebContentsObserver, %class.ReputationWebContentsObserver* %0, i64 0, i32 7, i32 0
  %4 = getelementptr inbounds %"class.base::OnceCallback", %"class.base::OnceCallback"* %1, i64 0, i32 0
  %5 = tail call dereferenceable(8) %"class.base::internal::CallbackBase"* @_ZN4base8internal12CallbackBaseaSEOS1_(%"class.base::internal::CallbackBase"* %3, %"class.base::internal::CallbackBase"* dereferenceable(8) %4) #8
  ret void
}

; Function Attrs: nounwind ssp uwtable
define hidden void @_ZN29ReputationWebContentsObserver40RegisterSafetyTipCloseCallbackForTestingEN4base12OnceCallbackIFvvEEE(%class.ReputationWebContentsObserver*, %"class.base::OnceCallback"*) local_unnamed_addr #0 align 2 {
  %3 = getelementptr inbounds %class.ReputationWebContentsObserver, %class.ReputationWebContentsObserver* %0, i64 0, i32 9, i32 0
  %4 = getelementptr inbounds %"class.base::OnceCallback", %"class.base::OnceCallback"* %1, i64 0, i32 0
  %5 = tail call dereferenceable(8) %"class.base::internal::CallbackBase"* @_ZN4base8internal12CallbackBaseaSEOS1_(%"class.base::internal::CallbackBase"* %3, %"class.base::internal::CallbackBase"* dereferenceable(8) %4) #8
  ret void
}

; Function Attrs: nounwind ssp uwtable
define hidden void @_ZN29ReputationWebContentsObserverC2EPN7content11WebContentsE(%class.ReputationWebContentsObserver*, %"class.content::WebContents"*) unnamed_addr #0 align 2 {
  %3 = alloca %"struct.security_state::SafetyTipInfo", align 8
  %4 = getelementptr inbounds %class.ReputationWebContentsObserver, %class.ReputationWebContentsObserver* %0, i64 0, i32 0
  tail call void @_ZN7content19WebContentsObserverC2EPNS_11WebContentsE(%"class.content::WebContentsObserver"* %4, %"class.content::WebContents"* %1) #8
  %5 = getelementptr inbounds %class.ReputationWebContentsObserver, %class.ReputationWebContentsObserver* %0, i64 0, i32 1, i32 0, i32 0
  %6 = getelementptr inbounds %class.ReputationWebContentsObserver, %class.ReputationWebContentsObserver* %0, i64 0, i32 0, i32 0, i32 0
  store i32 (...)** bitcast (i8** getelementptr inbounds ({ [109 x i8*], [5 x i8*] }, { [109 x i8*], [5 x i8*] }* @_ZTV29ReputationWebContentsObserver, i64 0, inrange i32 0, i64 2) to i32 (...)**), i32 (...)*** %6, align 8
  store i32 (...)** bitcast (i8** getelementptr inbounds ({ [109 x i8*], [5 x i8*] }, { [109 x i8*], [5 x i8*] }* @_ZTV29ReputationWebContentsObserver, i64 0, inrange i32 1, i64 2) to i32 (...)**), i32 (...)*** %5, align 8
  %7 = getelementptr inbounds %class.ReputationWebContentsObserver, %class.ReputationWebContentsObserver* %0, i64 0, i32 2
  %8 = bitcast %"class.content::WebContents"* %1 to %"class.content::BrowserContext"* (%"class.content::WebContents"*)***
  %9 = load %"class.content::BrowserContext"* (%"class.content::WebContents"*)**, %"class.content::BrowserContext"* (%"class.content::WebContents"*)*** %8, align 8
  %10 = getelementptr inbounds %"class.content::BrowserContext"* (%"class.content::WebContents"*)*, %"class.content::BrowserContext"* (%"class.content::WebContents"*)** %9, i64 6
  %11 = load %"class.content::BrowserContext"* (%"class.content::WebContents"*)*, %"class.content::BrowserContext"* (%"class.content::WebContents"*)** %10, align 8
  %12 = tail call %"class.content::BrowserContext"* %11(%"class.content::WebContents"* %1) #8
  %13 = tail call %class.Profile* @_ZN7Profile18FromBrowserContextEPN7content14BrowserContextE(%"class.content::BrowserContext"* %12) #8
  store %class.Profile* %13, %class.Profile** %7, align 8
  %14 = getelementptr inbounds %class.ReputationWebContentsObserver, %class.ReputationWebContentsObserver* %0, i64 0, i32 3, i32 0
  store i32 0, i32* %14, align 8
  %15 = getelementptr inbounds %class.ReputationWebContentsObserver, %class.ReputationWebContentsObserver* %0, i64 0, i32 3, i32 1
  tail call void @_ZN4GURLC1Ev(%class.GURL* %15) #8
  %16 = getelementptr inbounds %class.ReputationWebContentsObserver, %class.ReputationWebContentsObserver* %0, i64 0, i32 4
  store i32 0, i32* %16, align 8
  %17 = getelementptr inbounds %class.ReputationWebContentsObserver, %class.ReputationWebContentsObserver* %0, i64 0, i32 5, i32 0, i32 0, i32 0, i32 0
  store i8 0, i8* %17, align 8
  %18 = getelementptr inbounds %class.ReputationWebContentsObserver, %class.ReputationWebContentsObserver* %0, i64 0, i32 5, i32 0, i32 0, i32 0, i32 1
  %19 = bitcast %union.anon.41* %18 to i8*
  tail call void @llvm.memset.p0i8.i64(i8* align 8 %19, i8 0, i64 80, i1 false) #8
  %20 = getelementptr inbounds %class.ReputationWebContentsObserver, %class.ReputationWebContentsObserver* %0, i64 0, i32 6
  tail call void @_ZN4GURLC1Ev(%class.GURL* %20) #8
  %21 = getelementptr inbounds %class.ReputationWebContentsObserver, %class.ReputationWebContentsObserver* %0, i64 0, i32 7, i32 0, i32 0, i32 0
  store %"class.base::internal::BindStateBase"* null, %"class.base::internal::BindStateBase"** %21, align 8
  %22 = getelementptr inbounds %class.ReputationWebContentsObserver, %class.ReputationWebContentsObserver* %0, i64 0, i32 8
  store i8 1, i8* %22, align 8
  %23 = getelementptr inbounds %class.ReputationWebContentsObserver, %class.ReputationWebContentsObserver* %0, i64 0, i32 9, i32 0, i32 0, i32 0
  %24 = getelementptr inbounds %class.ReputationWebContentsObserver, %class.ReputationWebContentsObserver* %0, i64 0, i32 11, i32 0
  %25 = ptrtoint %class.ReputationWebContentsObserver* %0 to i64
  %26 = bitcast %"class.base::internal::BindStateBase"** %23 to i8*
  call void @llvm.memset.p0i8.i64(i8* align 8 %26, i8 0, i64 16, i1 false)
  tail call void @_ZN4base8internal18WeakPtrFactoryBaseC2Em(%"class.base::internal::WeakPtrFactoryBase"* %24, i64 %25) #8
  %27 = bitcast %"struct.security_state::SafetyTipInfo"* %3 to i8*
  call void @llvm.lifetime.start.p0i8(i64 128, i8* nonnull %27) #8
  %28 = getelementptr inbounds %"struct.security_state::SafetyTipInfo", %"struct.security_state::SafetyTipInfo"* %3, i64 0, i32 0
  store i32 0, i32* %28, align 8
  %29 = getelementptr inbounds %"struct.security_state::SafetyTipInfo", %"struct.security_state::SafetyTipInfo"* %3, i64 0, i32 1
  call void @_ZN4GURLC1Ev(%class.GURL* %29) #8
  %30 = load i32, i32* %28, align 8
  store i32 %30, i32* %14, align 8
  %31 = call dereferenceable(120) %class.GURL* @_ZN4GURLaSEOS_(%class.GURL* %15, %class.GURL* dereferenceable(120) %29) #8
  call void @_ZN4GURLD1Ev(%class.GURL* %29) #8
  call void @llvm.lifetime.end.p0i8(i64 128, i8* nonnull %27) #8
  ret void
}

declare void @_ZN7content19WebContentsObserverC2EPNS_11WebContentsE(%"class.content::WebContentsObserver"*, %"class.content::WebContents"*) unnamed_addr #3

declare %class.Profile* @_ZN7Profile18FromBrowserContextEPN7content14BrowserContextE(%"class.content::BrowserContext"*) local_unnamed_addr #3

declare zeroext i1 @_ZNK4GURL19SchemeIsHTTPOrHTTPSEv(%class.GURL*) local_unnamed_addr #3

declare %class.ReputationService* @_ZN17ReputationService3GetEP7Profile(%class.Profile*) local_unnamed_addr #3

declare void @_ZN17ReputationService19GetReputationStatusERK4GURLPN7content11WebContentsEN4base12OnceCallbackIFv21ReputationCheckResultEEE(%class.ReputationService*, %class.GURL* dereferenceable(120), %"class.content::WebContents"*, %"class.base::OnceCallback.82"*) local_unnamed_addr #3

; Function Attrs: nounwind ssp uwtable
define hidden void @_ZN29ReputationWebContentsObserver27HandleReputationCheckResultElbb21ReputationCheckResult(%class.ReputationWebContentsObserver*, i64, i1 zeroext, i1 zeroext, %struct.ReputationCheckResult*) #0 align 2 {
  %6 = alloca %"class.base::internal::WeakReference", align 8
  %7 = alloca %"class.base::OnceCallback", align 8
  %8 = alloca %"class.std::__1::allocator.33", align 1
  %9 = alloca %"class.std::__1::allocator.33", align 1
  %10 = alloca %"class.std::__1::basic_string", align 8
  %11 = alloca %"class.std::__1::basic_string", align 8
  %12 = alloca %"class.std::__1::basic_string", align 8
  %13 = alloca %"class.std::__1::basic_string", align 8
  %14 = alloca %"class.std::__1::basic_string", align 8
  %15 = alloca %"class.base::OnceCallback.52", align 8
  %16 = alloca %"struct.security_state::SafetyTipInfo", align 8
  %17 = alloca %struct.ReputationCheckResult, align 8
  %18 = alloca %struct.ReputationCheckResult, align 8
  %19 = alloca %"class.std::__1::basic_string", align 8
  %20 = alloca %"class.std::__1::basic_string", align 8
  %21 = alloca %struct.ReputationCheckResult, align 8
  %22 = alloca %"class.base::OnceCallback.94", align 8
  %23 = alloca %"class.base::OnceCallback.94", align 8
  %24 = alloca %"class.url::Origin", align 8
  %25 = alloca %"class.url::Origin", align 8
  %26 = alloca %"class.base::OnceCallback.52", align 8
  %27 = alloca %"class.base::WeakPtr.83", align 8
  %28 = load atomic i64, i64* @_ZZN29ReputationWebContentsObserver27HandleReputationCheckResultElbb21ReputationCheckResultE24atomic_histogram_pointer.0.0.0.0.0 acquire, align 8
  %29 = inttoptr i64 %28 to %"class.base::HistogramBase"*
  %30 = icmp eq i64 %28, 0
  br i1 %30, label %31, label %34

31:                                               ; preds = %5
  %32 = tail call %"class.base::HistogramBase"* @_ZN4base15LinearHistogram10FactoryGetEPKciiji(i8* getelementptr inbounds ([35 x i8], [35 x i8]* @.str, i64 0, i64 0), i32 1, i32 8, i32 9, i32 1) #8
  %33 = ptrtoint %"class.base::HistogramBase"* %32 to i64
  store atomic i64 %33, i64* @_ZZN29ReputationWebContentsObserver27HandleReputationCheckResultElbb21ReputationCheckResultE24atomic_histogram_pointer.0.0.0.0.0 release, align 8
  br label %34

34:                                               ; preds = %5, %31
  %35 = phi %"class.base::HistogramBase"* [ %29, %5 ], [ %32, %31 ]
  %36 = getelementptr inbounds %struct.ReputationCheckResult, %struct.ReputationCheckResult* %4, i64 0, i32 0
  %37 = load i32, i32* %36, align 8
  %38 = bitcast %"class.base::HistogramBase"* %35 to void (%"class.base::HistogramBase"*, i32)***
  %39 = load void (%"class.base::HistogramBase"*, i32)**, void (%"class.base::HistogramBase"*, i32)*** %38, align 8
  %40 = getelementptr inbounds void (%"class.base::HistogramBase"*, i32)*, void (%"class.base::HistogramBase"*, i32)** %39, i64 6
  %41 = load void (%"class.base::HistogramBase"*, i32)*, void (%"class.base::HistogramBase"*, i32)** %40, align 8
  tail call void %41(%"class.base::HistogramBase"* %35, i32 %37) #8
  %42 = select i1 %2, i8* getelementptr inbounds ([62 x i8], [62 x i8]* @.str.1, i64 0, i64 0), i8* getelementptr inbounds ([64 x i8], [64 x i8]* @.str.2, i64 0, i64 0)
  %43 = load i32, i32* %36, align 8
  tail call void @_ZN4base23UmaHistogramExactLinearEPKcii(i8* %42, i32 %43, i32 8) #8
  br i1 %2, label %202, label %44

44:                                               ; preds = %34
  %45 = getelementptr inbounds %class.ReputationWebContentsObserver, %class.ReputationWebContentsObserver* %0, i64 0, i32 6
  %46 = getelementptr inbounds %struct.ReputationCheckResult, %struct.ReputationCheckResult* %4, i64 0, i32 2
  %47 = load i32, i32* %36, align 8
  %48 = bitcast %"class.std::__1::basic_string"* %10 to i8*
  call void @llvm.lifetime.start.p0i8(i64 24, i8* nonnull %48) #8
  %49 = getelementptr inbounds %"class.std::__1::basic_string", %"class.std::__1::basic_string"* %10, i64 0, i32 0, i32 0, i32 0, i32 0, i32 0, i32 0
  %50 = getelementptr inbounds %"class.std::__1::basic_string", %"class.std::__1::basic_string"* %10, i64 0, i32 0, i32 0, i32 0, i32 0, i32 0, i32 1
  call void @llvm.memset.p0i8.i64(i8* nonnull align 8 %48, i8 0, i64 24, i1 false) #8
  %51 = tail call zeroext i1 @_ZneRK4GURLS1_(%class.GURL* dereferenceable(120) %45, %class.GURL* dereferenceable(120) %46) #8
  br i1 %51, label %52, label %56

52:                                               ; preds = %44
  %53 = bitcast %"class.std::__1::basic_string"* %10 to %"struct.std::__1::basic_string<char, std::__1::char_traits<char>, std::__1::allocator<char> >::__short"*
  %54 = getelementptr inbounds %"struct.std::__1::basic_string<char, std::__1::char_traits<char>, std::__1::allocator<char> >::__short", %"struct.std::__1::basic_string<char, std::__1::char_traits<char>, std::__1::allocator<char> >::__short"* %53, i64 0, i32 1, i32 0
  store i8 13, i8* %54, align 1
  call void @llvm.memcpy.p0i8.p0i8.i64(i8* nonnull align 8 %48, i8* align 1 getelementptr inbounds ([14 x i8], [14 x i8]* @.str.5, i64 0, i64 0), i64 13, i1 false) #8
  %55 = getelementptr inbounds i8, i8* %48, i64 13
  store i8 0, i8* %55, align 1
  br label %185

56:                                               ; preds = %44
  %57 = getelementptr inbounds %class.ReputationWebContentsObserver, %class.ReputationWebContentsObserver* %0, i64 0, i32 5, i32 0, i32 0, i32 0, i32 0
  %58 = load i8, i8* %57, align 8, !range !2
  %59 = icmp eq i8 %58, 0
  br i1 %59, label %60, label %64

60:                                               ; preds = %56
  %61 = bitcast %"class.std::__1::basic_string"* %10 to %"struct.std::__1::basic_string<char, std::__1::char_traits<char>, std::__1::allocator<char> >::__short"*
  %62 = getelementptr inbounds %"struct.std::__1::basic_string<char, std::__1::char_traits<char>, std::__1::allocator<char> >::__short", %"struct.std::__1::basic_string<char, std::__1::char_traits<char>, std::__1::allocator<char> >::__short"* %61, i64 0, i32 1, i32 0
  store i8 7, i8* %62, align 1
  call void @llvm.memcpy.p0i8.p0i8.i64(i8* nonnull align 8 %48, i8* align 1 getelementptr inbounds ([8 x i8], [8 x i8]* @.str.6, i64 0, i64 0), i64 7, i1 false) #8
  %63 = getelementptr inbounds i8, i8* %48, i64 7
  store i8 0, i8* %63, align 1
  br label %185

64:                                               ; preds = %56
  %65 = getelementptr inbounds %class.ReputationWebContentsObserver, %class.ReputationWebContentsObserver* %0, i64 0, i32 5, i32 0, i32 0, i32 0, i32 1, i32 0
  %66 = tail call zeroext i1 @_ZNK3url6Origin16CanBeDerivedFromERK4GURL(%"class.url::Origin"* %65, %class.GURL* dereferenceable(120) %46) #8
  br i1 %66, label %67, label %71

67:                                               ; preds = %64
  %68 = bitcast %"class.std::__1::basic_string"* %10 to %"struct.std::__1::basic_string<char, std::__1::char_traits<char>, std::__1::allocator<char> >::__short"*
  %69 = getelementptr inbounds %"struct.std::__1::basic_string<char, std::__1::char_traits<char>, std::__1::allocator<char> >::__short", %"struct.std::__1::basic_string<char, std::__1::char_traits<char>, std::__1::allocator<char> >::__short"* %68, i64 0, i32 1, i32 0
  store i8 10, i8* %69, align 1
  call void @llvm.memcpy.p0i8.p0i8.i64(i8* nonnull align 8 %48, i8* align 1 getelementptr inbounds ([11 x i8], [11 x i8]* @.str.7, i64 0, i64 0), i64 10, i1 false) #8
  %70 = getelementptr inbounds i8, i8* %48, i64 10
  store i8 0, i8* %70, align 2
  br label %185

71:                                               ; preds = %64
  %72 = bitcast %"class.std::__1::basic_string"* %11 to i8*
  call void @llvm.lifetime.start.p0i8(i64 24, i8* nonnull %72) #8
  %73 = load i8, i8* %57, align 8, !range !2
  %74 = icmp eq i8 %73, 0
  br i1 %74, label %75, label %76

75:                                               ; preds = %71
  tail call void @_ZN4absl17optional_internal25throw_bad_optional_accessEv() #10
  unreachable

76:                                               ; preds = %71
  %77 = getelementptr inbounds %class.ReputationWebContentsObserver, %class.ReputationWebContentsObserver* %0, i64 0, i32 5, i32 0, i32 0, i32 0, i32 1, i32 0, i32 1, i32 0, i32 0, i32 0, i32 0
  %78 = load i8, i8* %77, align 8, !range !2
  %79 = icmp eq i8 %78, 0
  br i1 %79, label %80, label %82

80:                                               ; preds = %76
  %81 = getelementptr inbounds %class.ReputationWebContentsObserver, %class.ReputationWebContentsObserver* %0, i64 0, i32 5, i32 0, i32 0, i32 0, i32 1, i32 0, i32 0, i32 1
  br label %84

82:                                               ; preds = %76
  %83 = tail call dereferenceable(24) %"class.std::__1::basic_string"* @_ZN4base11EmptyStringEv() #8
  br label %84

84:                                               ; preds = %82, %80
  %85 = phi %"class.std::__1::basic_string"* [ %81, %80 ], [ %83, %82 ]
  call void @_Z14GetETLDPlusOneRKNSt3__112basic_stringIcNS_11char_traitsIcEENS_9allocatorIcEEEE(%"class.std::__1::basic_string"* nonnull sret %11, %"class.std::__1::basic_string"* dereferenceable(24) %85) #8
  %86 = bitcast %"class.std::__1::basic_string"* %12 to i8*
  call void @llvm.lifetime.start.p0i8(i64 24, i8* nonnull %86) #8
  %87 = bitcast %"class.std::__1::basic_string"* %13 to i8*
  call void @llvm.lifetime.start.p0i8(i64 24, i8* nonnull %87) #8
  %88 = getelementptr inbounds %struct.ReputationCheckResult, %struct.ReputationCheckResult* %4, i64 0, i32 2, i32 2, i32 3, i32 1
  %89 = load i32, i32* %88, align 4, !noalias !11
  %90 = icmp slt i32 %89, 1
  br i1 %90, label %91, label %92

91:                                               ; preds = %84
  call void @llvm.memset.p0i8.i64(i8* nonnull align 8 %87, i8 0, i64 24, i1 false) #8, !alias.scope !11
  br label %99

92:                                               ; preds = %84
  %93 = getelementptr inbounds %class.GURL, %class.GURL* %46, i64 0, i32 0
  %94 = getelementptr inbounds %struct.ReputationCheckResult, %struct.ReputationCheckResult* %4, i64 0, i32 2, i32 2, i32 3, i32 0
  %95 = load i32, i32* %94, align 4, !noalias !11
  %96 = sext i32 %95 to i64
  %97 = sext i32 %89 to i64
  %98 = getelementptr inbounds %"class.std::__1::allocator.33", %"class.std::__1::allocator.33"* %9, i64 0, i32 0
  call void @llvm.lifetime.start.p0i8(i64 1, i8* nonnull %98) #8, !noalias !11
  call void @_ZNSt3__112basic_stringIcNS_11char_traitsIcEENS_9allocatorIcEEEC1ERKS5_mmRKS4_(%"class.std::__1::basic_string"* nonnull %13, %"class.std::__1::basic_string"* dereferenceable(24) %93, i64 %96, i64 %97, %"class.std::__1::allocator.33"* nonnull dereferenceable(1) %9) #8
  call void @llvm.lifetime.end.p0i8(i64 1, i8* nonnull %98) #8, !noalias !11
  br label %99

99:                                               ; preds = %92, %91
  call void @_Z14GetETLDPlusOneRKNSt3__112basic_stringIcNS_11char_traitsIcEENS_9allocatorIcEEEE(%"class.std::__1::basic_string"* nonnull sret %12, %"class.std::__1::basic_string"* nonnull dereferenceable(24) %13) #8
  %100 = bitcast %"class.std::__1::basic_string"* %11 to %"struct.std::__1::basic_string<char, std::__1::char_traits<char>, std::__1::allocator<char> >::__short"*
  %101 = getelementptr inbounds %"struct.std::__1::basic_string<char, std::__1::char_traits<char>, std::__1::allocator<char> >::__short", %"struct.std::__1::basic_string<char, std::__1::char_traits<char>, std::__1::allocator<char> >::__short"* %100, i64 0, i32 1, i32 0
  %102 = load i8, i8* %101, align 1
  %103 = icmp slt i8 %102, 0
  %104 = getelementptr inbounds %"class.std::__1::basic_string", %"class.std::__1::basic_string"* %11, i64 0, i32 0, i32 0, i32 0, i32 0, i32 0, i32 1
  %105 = load i64, i64* %104, align 8
  %106 = zext i8 %102 to i64
  %107 = select i1 %103, i64 %105, i64 %106
  %108 = bitcast %"class.std::__1::basic_string"* %12 to %"struct.std::__1::basic_string<char, std::__1::char_traits<char>, std::__1::allocator<char> >::__short"*
  %109 = getelementptr inbounds %"struct.std::__1::basic_string<char, std::__1::char_traits<char>, std::__1::allocator<char> >::__short", %"struct.std::__1::basic_string<char, std::__1::char_traits<char>, std::__1::allocator<char> >::__short"* %108, i64 0, i32 1, i32 0
  %110 = load i8, i8* %109, align 1
  %111 = icmp slt i8 %110, 0
  %112 = getelementptr inbounds %"class.std::__1::basic_string", %"class.std::__1::basic_string"* %12, i64 0, i32 0, i32 0, i32 0, i32 0, i32 0, i32 1
  %113 = load i64, i64* %112, align 8
  %114 = zext i8 %110 to i64
  %115 = select i1 %111, i64 %113, i64 %114
  %116 = icmp eq i64 %107, %115
  br i1 %116, label %117, label %147

117:                                              ; preds = %99
  %118 = getelementptr inbounds %"class.std::__1::basic_string", %"class.std::__1::basic_string"* %11, i64 0, i32 0, i32 0, i32 0, i32 0, i32 0, i32 0
  %119 = load i8*, i8** %118, align 8
  %120 = select i1 %103, i8* %119, i8* %72
  %121 = getelementptr inbounds %"class.std::__1::basic_string", %"class.std::__1::basic_string"* %12, i64 0, i32 0, i32 0, i32 0, i32 0, i32 0, i32 0
  %122 = load i8*, i8** %121, align 8
  %123 = select i1 %111, i8* %122, i8* %86
  %124 = icmp eq i64 %107, 0
  br i1 %103, label %131, label %125

125:                                              ; preds = %117
  br i1 %124, label %147, label %126

126:                                              ; preds = %125
  %127 = ptrtoint i8* %119 to i64
  %128 = trunc i64 %127 to i8
  %129 = load i8, i8* %123, align 1
  %130 = icmp eq i8 %129, %128
  br i1 %130, label %135, label %147

131:                                              ; preds = %117
  br i1 %124, label %147, label %132

132:                                              ; preds = %131
  %133 = call i32 @bcmp(i8* %120, i8* %123, i64 %107) #8
  %134 = icmp eq i32 %133, 0
  br label %147

135:                                              ; preds = %126, %142
  %136 = phi i64 [ %139, %142 ], [ %106, %126 ]
  %137 = phi i8* [ %140, %142 ], [ %72, %126 ]
  %138 = phi i8* [ %143, %142 ], [ %123, %126 ]
  %139 = add i64 %136, -1
  %140 = getelementptr inbounds i8, i8* %137, i64 1
  %141 = icmp eq i64 %139, 0
  br i1 %141, label %147, label %142

142:                                              ; preds = %135
  %143 = getelementptr inbounds i8, i8* %138, i64 1
  %144 = load i8, i8* %140, align 1
  %145 = load i8, i8* %143, align 1
  %146 = icmp eq i8 %144, %145
  br i1 %146, label %135, label %147

147:                                              ; preds = %142, %135, %126, %132, %131, %125, %99
  %148 = phi i1 [ false, %99 ], [ %134, %132 ], [ true, %131 ], [ true, %125 ], [ false, %126 ], [ false, %142 ], [ true, %135 ]
  br i1 %111, label %149, label %152

149:                                              ; preds = %147
  %150 = getelementptr inbounds %"class.std::__1::basic_string", %"class.std::__1::basic_string"* %12, i64 0, i32 0, i32 0, i32 0, i32 0, i32 0, i32 0
  %151 = load i8*, i8** %150, align 8
  call void @_ZdlPv(i8* %151) #9
  br label %152

152:                                              ; preds = %149, %147
  %153 = bitcast %"class.std::__1::basic_string"* %13 to %"struct.std::__1::basic_string<char, std::__1::char_traits<char>, std::__1::allocator<char> >::__short"*
  %154 = getelementptr inbounds %"struct.std::__1::basic_string<char, std::__1::char_traits<char>, std::__1::allocator<char> >::__short", %"struct.std::__1::basic_string<char, std::__1::char_traits<char>, std::__1::allocator<char> >::__short"* %153, i64 0, i32 1, i32 0
  %155 = load i8, i8* %154, align 1
  %156 = icmp slt i8 %155, 0
  br i1 %156, label %157, label %160

157:                                              ; preds = %152
  %158 = getelementptr inbounds %"class.std::__1::basic_string", %"class.std::__1::basic_string"* %13, i64 0, i32 0, i32 0, i32 0, i32 0, i32 0, i32 0
  %159 = load i8*, i8** %158, align 8
  call void @_ZdlPv(i8* %159) #9
  br label %160

160:                                              ; preds = %157, %152
  call void @llvm.lifetime.end.p0i8(i64 24, i8* nonnull %87) #8
  call void @llvm.lifetime.end.p0i8(i64 24, i8* nonnull %86) #8
  %161 = load i8, i8* %101, align 1
  %162 = icmp slt i8 %161, 0
  br i1 %162, label %163, label %166

163:                                              ; preds = %160
  %164 = getelementptr inbounds %"class.std::__1::basic_string", %"class.std::__1::basic_string"* %11, i64 0, i32 0, i32 0, i32 0, i32 0, i32 0, i32 0
  %165 = load i8*, i8** %164, align 8
  call void @_ZdlPv(i8* %165) #9
  br label %166

166:                                              ; preds = %163, %160
  call void @llvm.lifetime.end.p0i8(i64 24, i8* nonnull %72) #8
  %167 = bitcast %"class.std::__1::basic_string"* %10 to %"struct.std::__1::basic_string<char, std::__1::char_traits<char>, std::__1::allocator<char> >::__short"*
  %168 = getelementptr inbounds %"struct.std::__1::basic_string<char, std::__1::char_traits<char>, std::__1::allocator<char> >::__short", %"struct.std::__1::basic_string<char, std::__1::char_traits<char>, std::__1::allocator<char> >::__short"* %167, i64 0, i32 1, i32 0
  %169 = load i8, i8* %168, align 1
  %170 = icmp slt i8 %169, 0
  br i1 %148, label %171, label %178

171:                                              ; preds = %166
  br i1 %170, label %172, label %174

172:                                              ; preds = %171
  store i64 13, i64* %50, align 8
  %173 = load i8*, i8** %49, align 8
  br label %175

174:                                              ; preds = %171
  store i8 13, i8* %168, align 1
  br label %175

175:                                              ; preds = %174, %172
  %176 = phi i8* [ %173, %172 ], [ %48, %174 ]
  call void @llvm.memcpy.p0i8.p0i8.i64(i8* align 1 %176, i8* align 1 getelementptr inbounds ([14 x i8], [14 x i8]* @.str.8, i64 0, i64 0), i64 13, i1 false) #8
  %177 = getelementptr inbounds i8, i8* %176, i64 13
  store i8 0, i8* %177, align 1
  br label %185

178:                                              ; preds = %166
  br i1 %170, label %179, label %181

179:                                              ; preds = %178
  store i64 11, i64* %50, align 8
  %180 = load i8*, i8** %49, align 8
  br label %182

181:                                              ; preds = %178
  store i8 11, i8* %168, align 1
  br label %182

182:                                              ; preds = %181, %179
  %183 = phi i8* [ %180, %179 ], [ %48, %181 ]
  call void @llvm.memcpy.p0i8.p0i8.i64(i8* align 1 %183, i8* align 1 getelementptr inbounds ([12 x i8], [12 x i8]* @.str.9, i64 0, i64 0), i64 11, i1 false) #8
  %184 = getelementptr inbounds i8, i8* %183, i64 11
  store i8 0, i8* %184, align 1
  br label %185

185:                                              ; preds = %182, %175, %67, %60, %52
  %186 = bitcast %"class.std::__1::basic_string"* %14 to i8*
  call void @llvm.lifetime.start.p0i8(i64 24, i8* nonnull %186) #8
  call void @_ZNSt3__1plIcNS_11char_traitsIcEENS_9allocatorIcEEEENS_12basic_stringIT_T0_T1_EEPKS6_RKS9_(%"class.std::__1::basic_string"* nonnull sret %14, i8* getelementptr inbounds ([41 x i8], [41 x i8]* @.str.10, i64 0, i64 0), %"class.std::__1::basic_string"* nonnull dereferenceable(24) %10) #8
  call void @_ZN4base23UmaHistogramExactLinearERKNSt3__112basic_stringIcNS0_11char_traitsIcEENS0_9allocatorIcEEEEii(%"class.std::__1::basic_string"* nonnull dereferenceable(24) %14, i32 %47, i32 8) #8
  %187 = bitcast %"class.std::__1::basic_string"* %14 to %"struct.std::__1::basic_string<char, std::__1::char_traits<char>, std::__1::allocator<char> >::__short"*
  %188 = getelementptr inbounds %"struct.std::__1::basic_string<char, std::__1::char_traits<char>, std::__1::allocator<char> >::__short", %"struct.std::__1::basic_string<char, std::__1::char_traits<char>, std::__1::allocator<char> >::__short"* %187, i64 0, i32 1, i32 0
  %189 = load i8, i8* %188, align 1
  %190 = icmp slt i8 %189, 0
  br i1 %190, label %191, label %194

191:                                              ; preds = %185
  %192 = getelementptr inbounds %"class.std::__1::basic_string", %"class.std::__1::basic_string"* %14, i64 0, i32 0, i32 0, i32 0, i32 0, i32 0, i32 0
  %193 = load i8*, i8** %192, align 8
  call void @_ZdlPv(i8* %193) #9
  br label %194

194:                                              ; preds = %191, %185
  call void @llvm.lifetime.end.p0i8(i64 24, i8* nonnull %186) #8
  %195 = bitcast %"class.std::__1::basic_string"* %10 to %"struct.std::__1::basic_string<char, std::__1::char_traits<char>, std::__1::allocator<char> >::__short"*
  %196 = getelementptr inbounds %"struct.std::__1::basic_string<char, std::__1::char_traits<char>, std::__1::allocator<char> >::__short", %"struct.std::__1::basic_string<char, std::__1::char_traits<char>, std::__1::allocator<char> >::__short"* %195, i64 0, i32 1, i32 0
  %197 = load i8, i8* %196, align 1
  %198 = icmp slt i8 %197, 0
  br i1 %198, label %199, label %201

199:                                              ; preds = %194
  %200 = load i8*, i8** %49, align 8
  call void @_ZdlPv(i8* %200) #9
  br label %201

201:                                              ; preds = %194, %199
  call void @llvm.lifetime.end.p0i8(i64 24, i8* nonnull %48) #8
  br label %202

202:                                              ; preds = %201, %34
  %203 = bitcast %"struct.security_state::SafetyTipInfo"* %16 to i8*
  call void @llvm.lifetime.start.p0i8(i64 128, i8* nonnull %203) #8
  %204 = getelementptr inbounds %"struct.security_state::SafetyTipInfo", %"struct.security_state::SafetyTipInfo"* %16, i64 0, i32 0
  %205 = load i32, i32* %36, align 8
  store i32 %205, i32* %204, align 8
  %206 = getelementptr inbounds %"struct.security_state::SafetyTipInfo", %"struct.security_state::SafetyTipInfo"* %16, i64 0, i32 1
  %207 = getelementptr inbounds %struct.ReputationCheckResult, %struct.ReputationCheckResult* %4, i64 0, i32 3
  call void @_ZN4GURLC1ERKS_(%class.GURL* %206, %class.GURL* dereferenceable(120) %207) #8
  %208 = load i32, i32* %204, align 8
  %209 = getelementptr inbounds %class.ReputationWebContentsObserver, %class.ReputationWebContentsObserver* %0, i64 0, i32 3, i32 0
  store i32 %208, i32* %209, align 8
  %210 = getelementptr inbounds %class.ReputationWebContentsObserver, %class.ReputationWebContentsObserver* %0, i64 0, i32 3, i32 1
  %211 = call dereferenceable(120) %class.GURL* @_ZN4GURLaSEOS_(%class.GURL* %210, %class.GURL* dereferenceable(120) %206) #8
  call void @_ZN4GURLD1Ev(%class.GURL* %206) #8
  call void @llvm.lifetime.end.p0i8(i64 128, i8* nonnull %203) #8
  %212 = getelementptr inbounds %class.ReputationWebContentsObserver, %class.ReputationWebContentsObserver* %0, i64 0, i32 0
  %213 = call %"class.content::WebContents"* @_ZNK7content19WebContentsObserver12web_contentsEv(%"class.content::WebContentsObserver"* %212) #8
  %214 = bitcast %"class.content::WebContents"* %213 to %"class.content::NavigationController"* (%"class.content::WebContents"*)***
  %215 = load %"class.content::NavigationController"* (%"class.content::WebContents"*)**, %"class.content::NavigationController"* (%"class.content::WebContents"*)*** %214, align 8
  %216 = getelementptr inbounds %"class.content::NavigationController"* (%"class.content::WebContents"*)*, %"class.content::NavigationController"* (%"class.content::WebContents"*)** %215, i64 5
  %217 = load %"class.content::NavigationController"* (%"class.content::WebContents"*)*, %"class.content::NavigationController"* (%"class.content::WebContents"*)** %216, align 8
  %218 = call dereferenceable(8) %"class.content::NavigationController"* %217(%"class.content::WebContents"* %213) #8
  %219 = bitcast %"class.content::NavigationController"* %218 to %"class.content::NavigationEntry"* (%"class.content::NavigationController"*)***
  %220 = load %"class.content::NavigationEntry"* (%"class.content::NavigationController"*)**, %"class.content::NavigationEntry"* (%"class.content::NavigationController"*)*** %219, align 8
  %221 = getelementptr inbounds %"class.content::NavigationEntry"* (%"class.content::NavigationController"*)*, %"class.content::NavigationEntry"* (%"class.content::NavigationController"*)** %220, i64 8
  %222 = load %"class.content::NavigationEntry"* (%"class.content::NavigationController"*)*, %"class.content::NavigationEntry"* (%"class.content::NavigationController"*)** %221, align 8
  %223 = call %"class.content::NavigationEntry"* %222(%"class.content::NavigationController"* %218) #8
  %224 = bitcast %"class.content::NavigationEntry"* %223 to i32 (%"class.content::NavigationEntry"*)***
  %225 = load i32 (%"class.content::NavigationEntry"*)**, i32 (%"class.content::NavigationEntry"*)*** %224, align 8
  %226 = getelementptr inbounds i32 (%"class.content::NavigationEntry"*)*, i32 (%"class.content::NavigationEntry"*)** %225, i64 2
  %227 = load i32 (%"class.content::NavigationEntry"*)*, i32 (%"class.content::NavigationEntry"*)** %226, align 8
  %228 = call i32 %227(%"class.content::NavigationEntry"* %223) #8
  %229 = getelementptr inbounds %class.ReputationWebContentsObserver, %class.ReputationWebContentsObserver* %0, i64 0, i32 4
  store i32 %228, i32* %229, align 8
  %230 = load i32, i32* %36, align 8
  %231 = icmp eq i32 %230, 1
  br i1 %231, label %239, label %232

232:                                              ; preds = %202
  %233 = call %"class.content::WebContents"* @_ZNK7content19WebContentsObserver12web_contentsEv(%"class.content::WebContentsObserver"* %212) #8
  %234 = bitcast %"class.content::WebContents"* %233 to void (%"class.content::WebContents"*)***
  %235 = load void (%"class.content::WebContents"*)**, void (%"class.content::WebContents"*)*** %234, align 8
  %236 = getelementptr inbounds void (%"class.content::WebContents"*)*, void (%"class.content::WebContents"*)** %235, i64 88
  %237 = load void (%"class.content::WebContents"*)*, void (%"class.content::WebContents"*)** %236, align 8
  call void %237(%"class.content::WebContents"* %233) #8
  %238 = load i32, i32* %36, align 8
  switch i32 %238, label %268 [
    i32 1, label %239
    i32 4, label %239
    i32 6, label %247
    i32 5, label %247
  ]

239:                                              ; preds = %202, %232, %232
  %240 = phi i32 [ %238, %232 ], [ %238, %232 ], [ 1, %202 ]
  %241 = getelementptr inbounds %struct.ReputationCheckResult, %struct.ReputationCheckResult* %17, i64 0, i32 0
  store i32 %240, i32* %241, align 8
  %242 = getelementptr inbounds %struct.ReputationCheckResult, %struct.ReputationCheckResult* %17, i64 0, i32 2
  %243 = getelementptr inbounds %struct.ReputationCheckResult, %struct.ReputationCheckResult* %4, i64 0, i32 2
  call void @_ZN4GURLC1ERKS_(%class.GURL* %242, %class.GURL* dereferenceable(120) %243) #8
  %244 = getelementptr inbounds %struct.ReputationCheckResult, %struct.ReputationCheckResult* %17, i64 0, i32 3
  call void @_ZN4GURLC1ERKS_(%class.GURL* %244, %class.GURL* dereferenceable(120) %207) #8
  %245 = getelementptr inbounds %struct.ReputationCheckResult, %struct.ReputationCheckResult* %17, i64 0, i32 4, i32 0
  %246 = getelementptr inbounds %struct.ReputationCheckResult, %struct.ReputationCheckResult* %4, i64 0, i32 4, i32 0
  call void @llvm.memcpy.p0i8.p0i8.i64(i8* align 8 %245, i8* align 8 %246, i64 3, i1 false) #8
  call void @_ZN29ReputationWebContentsObserver38FinalizeReputationCheckWhenTipNotShownEb21ReputationCheckResultl(%class.ReputationWebContentsObserver* %0, i1 zeroext %3, %struct.ReputationCheckResult* nonnull %17, i64 %1)
  call void @_ZN4GURLD1Ev(%class.GURL* %244) #8
  call void @_ZN4GURLD1Ev(%class.GURL* %242) #8
  br label %498

247:                                              ; preds = %232, %232
  %248 = load atomic i64, i64* @_ZZN29ReputationWebContentsObserver27HandleReputationCheckResultElbb21ReputationCheckResultE24atomic_histogram_pointer_0.0.0.0.0.0 acquire, align 8
  %249 = inttoptr i64 %248 to %"class.base::HistogramBase"*
  %250 = icmp eq i64 %248, 0
  br i1 %250, label %251, label %254

251:                                              ; preds = %247
  %252 = call %"class.base::HistogramBase"* @_ZN4base15LinearHistogram10FactoryGetEPKciiji(i8* getelementptr inbounds ([45 x i8], [45 x i8]* @.str.3, i64 0, i64 0), i32 1, i32 8, i32 9, i32 1) #8
  %253 = ptrtoint %"class.base::HistogramBase"* %252 to i64
  store atomic i64 %253, i64* @_ZZN29ReputationWebContentsObserver27HandleReputationCheckResultElbb21ReputationCheckResultE24atomic_histogram_pointer_0.0.0.0.0.0 release, align 8
  br label %254

254:                                              ; preds = %247, %251
  %255 = phi %"class.base::HistogramBase"* [ %249, %247 ], [ %252, %251 ]
  %256 = load i32, i32* %36, align 8
  %257 = bitcast %"class.base::HistogramBase"* %255 to void (%"class.base::HistogramBase"*, i32)***
  %258 = load void (%"class.base::HistogramBase"*, i32)**, void (%"class.base::HistogramBase"*, i32)*** %257, align 8
  %259 = getelementptr inbounds void (%"class.base::HistogramBase"*, i32)*, void (%"class.base::HistogramBase"*, i32)** %258, i64 6
  %260 = load void (%"class.base::HistogramBase"*, i32)*, void (%"class.base::HistogramBase"*, i32)** %259, align 8
  call void %260(%"class.base::HistogramBase"* %255, i32 %256) #8
  %261 = getelementptr inbounds %struct.ReputationCheckResult, %struct.ReputationCheckResult* %18, i64 0, i32 0
  %262 = load i32, i32* %36, align 8
  store i32 %262, i32* %261, align 8
  %263 = getelementptr inbounds %struct.ReputationCheckResult, %struct.ReputationCheckResult* %18, i64 0, i32 2
  %264 = getelementptr inbounds %struct.ReputationCheckResult, %struct.ReputationCheckResult* %4, i64 0, i32 2
  call void @_ZN4GURLC1ERKS_(%class.GURL* %263, %class.GURL* dereferenceable(120) %264) #8
  %265 = getelementptr inbounds %struct.ReputationCheckResult, %struct.ReputationCheckResult* %18, i64 0, i32 3
  call void @_ZN4GURLC1ERKS_(%class.GURL* %265, %class.GURL* dereferenceable(120) %207) #8
  %266 = getelementptr inbounds %struct.ReputationCheckResult, %struct.ReputationCheckResult* %18, i64 0, i32 4, i32 0
  %267 = getelementptr inbounds %struct.ReputationCheckResult, %struct.ReputationCheckResult* %4, i64 0, i32 4, i32 0
  call void @llvm.memcpy.p0i8.p0i8.i64(i8* align 8 %266, i8* align 8 %267, i64 3, i1 false) #8
  call void @_ZN29ReputationWebContentsObserver38FinalizeReputationCheckWhenTipNotShownEb21ReputationCheckResultl(%class.ReputationWebContentsObserver* %0, i1 zeroext %3, %struct.ReputationCheckResult* nonnull %18, i64 %1)
  call void @_ZN4GURLD1Ev(%class.GURL* %265) #8
  call void @_ZN4GURLD1Ev(%class.GURL* %263) #8
  br label %498

268:                                              ; preds = %232
  br i1 %2, label %320, label %269

269:                                              ; preds = %268
  %270 = call %"class.content::WebContents"* @_ZNK7content19WebContentsObserver12web_contentsEv(%"class.content::WebContentsObserver"* %212) #8
  %271 = bitcast %"class.content::WebContents"* %270 to %"class.content::RenderFrameHost"* (%"class.content::WebContents"*)***
  %272 = load %"class.content::RenderFrameHost"* (%"class.content::WebContents"*)**, %"class.content::RenderFrameHost"* (%"class.content::WebContents"*)*** %271, align 8
  %273 = getelementptr inbounds %"class.content::RenderFrameHost"* (%"class.content::WebContents"*)*, %"class.content::RenderFrameHost"* (%"class.content::WebContents"*)** %272, i64 10
  %274 = load %"class.content::RenderFrameHost"* (%"class.content::WebContents"*)*, %"class.content::RenderFrameHost"* (%"class.content::WebContents"*)** %273, align 8
  %275 = call %"class.content::RenderFrameHost"* %274(%"class.content::WebContents"* %270) #8
  %276 = bitcast %"class.std::__1::basic_string"* %19 to i8*
  call void @llvm.lifetime.start.p0i8(i64 24, i8* nonnull %276) #8
  %277 = bitcast %"class.std::__1::basic_string"* %20 to i8*
  call void @llvm.lifetime.start.p0i8(i64 24, i8* nonnull %277) #8
  %278 = getelementptr inbounds %struct.ReputationCheckResult, %struct.ReputationCheckResult* %4, i64 0, i32 2, i32 2, i32 3, i32 1
  %279 = load i32, i32* %278, align 4, !noalias !16
  %280 = icmp slt i32 %279, 1
  br i1 %280, label %281, label %283

281:                                              ; preds = %269
  call void @llvm.memset.p0i8.i64(i8* nonnull align 8 %277, i8 0, i64 24, i1 false) #8, !alias.scope !16
  %282 = bitcast %"class.std::__1::basic_string"* %20 to %"struct.std::__1::basic_string<char, std::__1::char_traits<char>, std::__1::allocator<char> >::__short"*
  br label %297

283:                                              ; preds = %269
  %284 = getelementptr inbounds %struct.ReputationCheckResult, %struct.ReputationCheckResult* %4, i64 0, i32 2, i32 0
  %285 = getelementptr inbounds %struct.ReputationCheckResult, %struct.ReputationCheckResult* %4, i64 0, i32 2, i32 2, i32 3, i32 0
  %286 = load i32, i32* %285, align 4, !noalias !16
  %287 = sext i32 %286 to i64
  %288 = sext i32 %279 to i64
  %289 = getelementptr inbounds %"class.std::__1::allocator.33", %"class.std::__1::allocator.33"* %8, i64 0, i32 0
  call void @llvm.lifetime.start.p0i8(i64 1, i8* nonnull %289) #8, !noalias !16
  call void @_ZNSt3__112basic_stringIcNS_11char_traitsIcEENS_9allocatorIcEEEC1ERKS5_mmRKS4_(%"class.std::__1::basic_string"* nonnull %20, %"class.std::__1::basic_string"* dereferenceable(24) %284, i64 %287, i64 %288, %"class.std::__1::allocator.33"* nonnull dereferenceable(1) %8) #8
  call void @llvm.lifetime.end.p0i8(i64 1, i8* nonnull %289) #8, !noalias !16
  %290 = bitcast %"class.std::__1::basic_string"* %20 to %"struct.std::__1::basic_string<char, std::__1::char_traits<char>, std::__1::allocator<char> >::__short"*
  %291 = getelementptr inbounds %"struct.std::__1::basic_string<char, std::__1::char_traits<char>, std::__1::allocator<char> >::__short", %"struct.std::__1::basic_string<char, std::__1::char_traits<char>, std::__1::allocator<char> >::__short"* %290, i64 0, i32 1, i32 0
  %292 = load i8, i8* %291, align 1
  %293 = getelementptr inbounds %"class.std::__1::basic_string", %"class.std::__1::basic_string"* %20, i64 0, i32 0, i32 0, i32 0, i32 0, i32 0, i32 0
  %294 = load i8*, i8** %293, align 8
  %295 = icmp slt i8 %292, 0
  %296 = select i1 %295, i8* %294, i8* %277
  br label %297

297:                                              ; preds = %281, %283
  %298 = phi %"struct.std::__1::basic_string<char, std::__1::char_traits<char>, std::__1::allocator<char> >::__short"* [ %282, %281 ], [ %290, %283 ]
  %299 = phi i8* [ %277, %281 ], [ %296, %283 ]
  %300 = getelementptr inbounds %"struct.std::__1::basic_string<char, std::__1::char_traits<char>, std::__1::allocator<char> >::__short", %"struct.std::__1::basic_string<char, std::__1::char_traits<char>, std::__1::allocator<char> >::__short"* %298, i64 0, i32 1, i32 0
  %301 = getelementptr inbounds %"class.std::__1::basic_string", %"class.std::__1::basic_string"* %20, i64 0, i32 0, i32 0, i32 0, i32 0, i32 0, i32 0
  call void (%"class.std::__1::basic_string"*, i8*, ...) @_ZN4base12StringPrintfEPKcz(%"class.std::__1::basic_string"* nonnull sret %19, i8* getelementptr inbounds ([150 x i8], [150 x i8]* @.str.4, i64 0, i64 0), i8* %299) #8
  %302 = bitcast %"class.content::RenderFrameHost"* %275 to void (%"class.content::RenderFrameHost"*, i32, %"class.std::__1::basic_string"*)***
  %303 = load void (%"class.content::RenderFrameHost"*, i32, %"class.std::__1::basic_string"*)**, void (%"class.content::RenderFrameHost"*, i32, %"class.std::__1::basic_string"*)*** %302, align 8
  %304 = getelementptr inbounds void (%"class.content::RenderFrameHost"*, i32, %"class.std::__1::basic_string"*)*, void (%"class.content::RenderFrameHost"*, i32, %"class.std::__1::basic_string"*)** %303, i64 41
  %305 = load void (%"class.content::RenderFrameHost"*, i32, %"class.std::__1::basic_string"*)*, void (%"class.content::RenderFrameHost"*, i32, %"class.std::__1::basic_string"*)** %304, align 8
  call void %305(%"class.content::RenderFrameHost"* %275, i32 2, %"class.std::__1::basic_string"* nonnull dereferenceable(24) %19) #8
  %306 = bitcast %"class.std::__1::basic_string"* %19 to %"struct.std::__1::basic_string<char, std::__1::char_traits<char>, std::__1::allocator<char> >::__short"*
  %307 = getelementptr inbounds %"struct.std::__1::basic_string<char, std::__1::char_traits<char>, std::__1::allocator<char> >::__short", %"struct.std::__1::basic_string<char, std::__1::char_traits<char>, std::__1::allocator<char> >::__short"* %306, i64 0, i32 1, i32 0
  %308 = load i8, i8* %307, align 1
  %309 = icmp slt i8 %308, 0
  br i1 %309, label %310, label %313

310:                                              ; preds = %297
  %311 = getelementptr inbounds %"class.std::__1::basic_string", %"class.std::__1::basic_string"* %19, i64 0, i32 0, i32 0, i32 0, i32 0, i32 0, i32 0
  %312 = load i8*, i8** %311, align 8
  call void @_ZdlPv(i8* %312) #9
  br label %313

313:                                              ; preds = %297, %310
  %314 = load i8, i8* %300, align 1
  %315 = icmp slt i8 %314, 0
  br i1 %315, label %316, label %318

316:                                              ; preds = %313
  %317 = load i8*, i8** %301, align 8
  call void @_ZdlPv(i8* %317) #9
  br label %318

318:                                              ; preds = %313, %316
  call void @llvm.lifetime.end.p0i8(i64 24, i8* nonnull %277) #8
  call void @llvm.lifetime.end.p0i8(i64 24, i8* nonnull %276) #8
  %319 = load i32, i32* %36, align 8
  br label %320

320:                                              ; preds = %318, %268
  %321 = phi i32 [ %319, %318 ], [ %238, %268 ]
  %322 = call zeroext i1 @_ZN14security_state27IsSafetyTipUIFeatureEnabledEv() #8
  br i1 %322, label %323, label %331

323:                                              ; preds = %320
  %324 = icmp eq i32 %321, 2
  br i1 %324, label %325, label %362

325:                                              ; preds = %323
  %326 = call zeroext i1 @_ZN4base11FeatureList9IsEnabledERKNS_7FeatureE(%"struct.base::Feature"* nonnull dereferenceable(16) @_ZN14security_state8features12kSafetyTipUIE) #8
  br i1 %326, label %327, label %329

327:                                              ; preds = %325
  %328 = call zeroext i1 @_ZNK4base12FeatureParamIbLb0EE3GetEv(%"struct.base::FeatureParam.157"* bitcast ({ %"struct.base::Feature"*, i8*, i8 }* @_ZN12_GLOBAL__N_127kEnableSuspiciousSiteChecksE to %"struct.base::FeatureParam.157"*)) #8
  br i1 %328, label %362, label %331

329:                                              ; preds = %325
  %330 = call zeroext i1 @_ZN4base11FeatureList9IsEnabledERKNS_7FeatureE(%"struct.base::Feature"* nonnull dereferenceable(16) @_ZN14security_state8features28kSafetyTipUIOnDelayedWarningE) #8
  br i1 %330, label %362, label %331

331:                                              ; preds = %320, %327, %329
  %332 = load i32, i32* %36, align 8
  %333 = and i32 %332, -2
  %334 = icmp eq i32 %333, 2
  br i1 %334, label %335, label %341

335:                                              ; preds = %331
  %336 = getelementptr inbounds %class.ReputationWebContentsObserver, %class.ReputationWebContentsObserver* %0, i64 0, i32 2
  %337 = load %class.Profile*, %class.Profile** %336, align 8
  %338 = call %class.ReputationService* @_ZN17ReputationService3GetEP7Profile(%class.Profile* %337) #8
  %339 = getelementptr inbounds %struct.ReputationCheckResult, %struct.ReputationCheckResult* %4, i64 0, i32 2
  call void @_ZN17ReputationService22OnUIDisabledFirstVisitERK4GURL(%class.ReputationService* %338, %class.GURL* dereferenceable(120) %339) #8
  %340 = load i32, i32* %36, align 8
  br label %341

341:                                              ; preds = %331, %335
  %342 = phi i32 [ %332, %331 ], [ %340, %335 ]
  %343 = load atomic i64, i64* @_ZZN12_GLOBAL__N_128RecordPostFlagCheckHistogramEN14security_state15SafetyTipStatusEE24atomic_histogram_pointer.0.0.0.0.0 acquire, align 8
  %344 = inttoptr i64 %343 to %"class.base::HistogramBase"*
  %345 = icmp eq i64 %343, 0
  br i1 %345, label %346, label %349

346:                                              ; preds = %341
  %347 = call %"class.base::HistogramBase"* @_ZN4base15LinearHistogram10FactoryGetEPKciiji(i8* getelementptr inbounds ([45 x i8], [45 x i8]* @.str.13, i64 0, i64 0), i32 1, i32 8, i32 9, i32 1) #8
  %348 = ptrtoint %"class.base::HistogramBase"* %347 to i64
  store atomic i64 %348, i64* @_ZZN12_GLOBAL__N_128RecordPostFlagCheckHistogramEN14security_state15SafetyTipStatusEE24atomic_histogram_pointer.0.0.0.0.0 release, align 8
  br label %349

349:                                              ; preds = %341, %346
  %350 = phi %"class.base::HistogramBase"* [ %344, %341 ], [ %347, %346 ]
  %351 = bitcast %"class.base::HistogramBase"* %350 to void (%"class.base::HistogramBase"*, i32)***
  %352 = load void (%"class.base::HistogramBase"*, i32)**, void (%"class.base::HistogramBase"*, i32)*** %351, align 8
  %353 = getelementptr inbounds void (%"class.base::HistogramBase"*, i32)*, void (%"class.base::HistogramBase"*, i32)** %352, i64 6
  %354 = load void (%"class.base::HistogramBase"*, i32)*, void (%"class.base::HistogramBase"*, i32)** %353, align 8
  call void %354(%"class.base::HistogramBase"* %350, i32 %342) #8
  %355 = getelementptr inbounds %struct.ReputationCheckResult, %struct.ReputationCheckResult* %21, i64 0, i32 0
  %356 = load i32, i32* %36, align 8
  store i32 %356, i32* %355, align 8
  %357 = getelementptr inbounds %struct.ReputationCheckResult, %struct.ReputationCheckResult* %21, i64 0, i32 2
  %358 = getelementptr inbounds %struct.ReputationCheckResult, %struct.ReputationCheckResult* %4, i64 0, i32 2
  call void @_ZN4GURLC1ERKS_(%class.GURL* %357, %class.GURL* dereferenceable(120) %358) #8
  %359 = getelementptr inbounds %struct.ReputationCheckResult, %struct.ReputationCheckResult* %21, i64 0, i32 3
  call void @_ZN4GURLC1ERKS_(%class.GURL* %359, %class.GURL* dereferenceable(120) %207) #8
  %360 = getelementptr inbounds %struct.ReputationCheckResult, %struct.ReputationCheckResult* %21, i64 0, i32 4, i32 0
  %361 = getelementptr inbounds %struct.ReputationCheckResult, %struct.ReputationCheckResult* %4, i64 0, i32 4, i32 0
  call void @llvm.memcpy.p0i8.p0i8.i64(i8* align 8 %360, i8* align 8 %361, i64 3, i1 false) #8
  call void @_ZN29ReputationWebContentsObserver38FinalizeReputationCheckWhenTipNotShownEb21ReputationCheckResultl(%class.ReputationWebContentsObserver* %0, i1 zeroext %3, %struct.ReputationCheckResult* nonnull %21, i64 %1)
  call void @_ZN4GURLD1Ev(%class.GURL* %359) #8
  call void @_ZN4GURLD1Ev(%class.GURL* %357) #8
  br label %498

362:                                              ; preds = %323, %327, %329
  %363 = call zeroext i1 @_ZN4base11FeatureList9IsEnabledERKNS_7FeatureE(%"struct.base::Feature"* nonnull dereferenceable(16) @_ZN10lookalikes8features27kLookalikeDigitalAssetLinksE) #8
  br i1 %363, label %364, label %368

364:                                              ; preds = %362
  %365 = getelementptr inbounds %struct.ReputationCheckResult, %struct.ReputationCheckResult* %4, i64 0, i32 3, i32 1
  %366 = load i8, i8* %365, align 8, !range !2
  %367 = icmp eq i8 %366, 0
  br i1 %367, label %368, label %438

368:                                              ; preds = %364, %362
  %369 = load i32, i32* %36, align 8
  %370 = load atomic i64, i64* @_ZZN12_GLOBAL__N_128RecordPostFlagCheckHistogramEN14security_state15SafetyTipStatusEE24atomic_histogram_pointer.0.0.0.0.0 acquire, align 8
  %371 = inttoptr i64 %370 to %"class.base::HistogramBase"*
  %372 = icmp eq i64 %370, 0
  br i1 %372, label %373, label %376

373:                                              ; preds = %368
  %374 = call %"class.base::HistogramBase"* @_ZN4base15LinearHistogram10FactoryGetEPKciiji(i8* getelementptr inbounds ([45 x i8], [45 x i8]* @.str.13, i64 0, i64 0), i32 1, i32 8, i32 9, i32 1) #8
  %375 = ptrtoint %"class.base::HistogramBase"* %374 to i64
  store atomic i64 %375, i64* @_ZZN12_GLOBAL__N_128RecordPostFlagCheckHistogramEN14security_state15SafetyTipStatusEE24atomic_histogram_pointer.0.0.0.0.0 release, align 8
  br label %376

376:                                              ; preds = %368, %373
  %377 = phi %"class.base::HistogramBase"* [ %371, %368 ], [ %374, %373 ]
  %378 = bitcast %"class.base::HistogramBase"* %377 to void (%"class.base::HistogramBase"*, i32)***
  %379 = load void (%"class.base::HistogramBase"*, i32)**, void (%"class.base::HistogramBase"*, i32)*** %378, align 8
  %380 = getelementptr inbounds void (%"class.base::HistogramBase"*, i32)*, void (%"class.base::HistogramBase"*, i32)** %379, i64 6
  %381 = load void (%"class.base::HistogramBase"*, i32)*, void (%"class.base::HistogramBase"*, i32)** %380, align 8
  call void %381(%"class.base::HistogramBase"* %377, i32 %369) #8
  %382 = bitcast %"class.base::OnceCallback.94"* %22 to i8*
  call void @llvm.lifetime.start.p0i8(i64 8, i8* nonnull %382) #8
  %383 = getelementptr inbounds %"class.base::OnceCallback.94", %"class.base::OnceCallback.94"* %22, i64 0, i32 0, i32 0, i32 0
  %384 = call i64 @_ZN4base4Time3NowEv() #8
  %385 = getelementptr inbounds %class.ReputationWebContentsObserver, %class.ReputationWebContentsObserver* %0, i64 0, i32 2
  %386 = getelementptr inbounds %struct.ReputationCheckResult, %struct.ReputationCheckResult* %4, i64 0, i32 2
  %387 = getelementptr inbounds %class.ReputationWebContentsObserver, %class.ReputationWebContentsObserver* %0, i64 0, i32 9
  %388 = call i8* @_Znwm(i64 456) #9, !noalias !21
  %389 = bitcast i8* %388 to %"class.base::internal::BindStateBase"*
  call void @_ZN4base8internal13BindStateBaseC2EPFvvEPFvPKS1_E(%"class.base::internal::BindStateBase"* nonnull %389, void ()* bitcast (void (%"class.base::internal::BindStateBase"*, i32)* @_ZN4base8internal7InvokerINS0_9BindStateIPFv21ReputationCheckResultNS_4TimeElP7ProfileRK4GURLN14security_state15SafetyTipStatusENS_12OnceCallbackIFvvEEE20SafetyTipInteractionEJS3_S4_lS6_S7_SB_SE_EEEFvSF_EE7RunOnceEPNS0_13BindStateBaseESF_ to void ()*), void (%"class.base::internal::BindStateBase"*)* nonnull @_ZN4base8internal9BindStateIPFv21ReputationCheckResultNS_4TimeElP7ProfileRK4GURLN14security_state15SafetyTipStatusENS_12OnceCallbackIFvvEEE20SafetyTipInteractionEJS2_S3_lS5_S6_SA_SD_EE7DestroyEPKNS0_13BindStateBaseE) #8, !noalias !21
  %390 = getelementptr inbounds i8, i8* %388, i64 32
  %391 = bitcast i8* %390 to void (%struct.ReputationCheckResult*, i64, i64, %class.Profile*, %class.GURL*, i32, %"class.base::OnceCallback"*, i32)**
  store void (%struct.ReputationCheckResult*, i64, i64, %class.Profile*, %class.GURL*, i32, %"class.base::OnceCallback"*, i32)* @_ZN12_GLOBAL__N_117OnSafetyTipClosedE21ReputationCheckResultN4base4TimeElP7ProfileRK4GURLN14security_state15SafetyTipStatusENS1_12OnceCallbackIFvvEEE20SafetyTipInteraction, void (%struct.ReputationCheckResult*, i64, i64, %class.Profile*, %class.GURL*, i32, %"class.base::OnceCallback"*, i32)** %391, align 8, !noalias !21
  %392 = getelementptr inbounds i8, i8* %388, i64 40
  %393 = bitcast i8* %392 to i32*
  %394 = load i32, i32* %36, align 8, !noalias !21
  store i32 %394, i32* %393, align 8, !noalias !21
  %395 = getelementptr inbounds i8, i8* %388, i64 48
  %396 = bitcast i8* %395 to %class.GURL*
  call void @_ZN4GURLC1ERKS_(%class.GURL* %396, %class.GURL* dereferenceable(120) %386) #8, !noalias !21
  %397 = getelementptr inbounds i8, i8* %388, i64 168
  %398 = bitcast i8* %397 to %class.GURL*
  call void @_ZN4GURLC1ERKS_(%class.GURL* %398, %class.GURL* dereferenceable(120) %207) #8, !noalias !21
  %399 = getelementptr inbounds i8, i8* %388, i64 288
  %400 = getelementptr inbounds %struct.ReputationCheckResult, %struct.ReputationCheckResult* %4, i64 0, i32 4, i32 0
  call void @llvm.memcpy.p0i8.p0i8.i64(i8* align 8 %399, i8* align 8 %400, i64 3, i1 false) #8, !noalias !21
  %401 = getelementptr inbounds i8, i8* %388, i64 296
  %402 = bitcast i8* %401 to i64*
  store i64 %384, i64* %402, align 8, !noalias !21
  %403 = getelementptr inbounds i8, i8* %388, i64 304
  %404 = bitcast i8* %403 to i64*
  store i64 %1, i64* %404, align 8, !noalias !21
  %405 = getelementptr inbounds i8, i8* %388, i64 312
  %406 = bitcast %class.Profile** %385 to i64*
  %407 = load i64, i64* %406, align 8, !noalias !21
  %408 = bitcast i8* %405 to i64*
  store i64 %407, i64* %408, align 8, !noalias !21
  %409 = getelementptr inbounds i8, i8* %388, i64 320
  %410 = bitcast i8* %409 to %class.GURL*
  call void @_ZN4GURLC1ERKS_(%class.GURL* %410, %class.GURL* dereferenceable(120) %386) #8, !noalias !21
  %411 = getelementptr inbounds i8, i8* %388, i64 440
  %412 = bitcast i8* %411 to i32*
  %413 = load i32, i32* %36, align 4, !noalias !21
  store i32 %413, i32* %412, align 4, !noalias !21
  %414 = getelementptr inbounds i8, i8* %388, i64 448
  %415 = getelementptr inbounds %"class.base::OnceCallback", %"class.base::OnceCallback"* %387, i64 0, i32 0, i32 0, i32 0
  %416 = bitcast %"class.base::OnceCallback"* %387 to i64*
  %417 = load i64, i64* %416, align 8, !noalias !21
  %418 = bitcast i8* %414 to i64*
  store i64 %417, i64* %418, align 8, !noalias !21
  store %"class.base::internal::BindStateBase"* null, %"class.base::internal::BindStateBase"** %415, align 8, !noalias !21
  %419 = call %"class.content::WebContents"* @_ZNK7content19WebContentsObserver12web_contentsEv(%"class.content::WebContentsObserver"* %212) #8
  %420 = load i32, i32* %36, align 8
  %421 = ptrtoint i8* %388 to i64
  %422 = bitcast %"class.base::OnceCallback.94"* %23 to i64*
  store i64 %421, i64* %422, align 8
  store %"class.base::internal::BindStateBase"* null, %"class.base::internal::BindStateBase"** %383, align 8
  call void @_Z19ShowSafetyTipDialogPN7content11WebContentsEN14security_state15SafetyTipStatusERK4GURLN4base12OnceCallbackIFv20SafetyTipInteractionEEE(%"class.content::WebContents"* %419, i32 %420, %class.GURL* dereferenceable(120) %207, %"class.base::OnceCallback.94"* nonnull %23) #8
  %423 = getelementptr inbounds %"class.base::OnceCallback.94", %"class.base::OnceCallback.94"* %23, i64 0, i32 0
  call void @_ZN4base8internal12CallbackBaseD2Ev(%"class.base::internal::CallbackBase"* nonnull %423) #8
  %424 = getelementptr inbounds %class.ReputationWebContentsObserver, %class.ReputationWebContentsObserver* %0, i64 0, i32 8
  store i8 0, i8* %424, align 8
  %425 = getelementptr inbounds %class.ReputationWebContentsObserver, %class.ReputationWebContentsObserver* %0, i64 0, i32 7, i32 0, i32 0, i32 0
  %426 = load %"class.base::internal::BindStateBase"*, %"class.base::internal::BindStateBase"** %425, align 8
  %427 = icmp eq %"class.base::internal::BindStateBase"* %426, null
  br i1 %427, label %436, label %428

428:                                              ; preds = %376
  %429 = ptrtoint %"class.base::internal::BindStateBase"* %426 to i64
  %430 = bitcast %"class.base::OnceCallback"* %7 to i8*
  call void @llvm.lifetime.start.p0i8(i64 8, i8* nonnull %430) #8
  %431 = bitcast %"class.base::OnceCallback"* %7 to i64*
  store i64 %429, i64* %431, align 8
  store %"class.base::internal::BindStateBase"* null, %"class.base::internal::BindStateBase"** %425, align 8
  %432 = getelementptr inbounds %"class.base::OnceCallback", %"class.base::OnceCallback"* %7, i64 0, i32 0
  %433 = getelementptr inbounds %"class.base::internal::BindStateBase", %"class.base::internal::BindStateBase"* %426, i64 0, i32 1
  %434 = bitcast void ()** %433 to void (%"class.base::internal::BindStateBase"*)**
  %435 = load void (%"class.base::internal::BindStateBase"*)*, void (%"class.base::internal::BindStateBase"*)** %434, align 8
  call void %435(%"class.base::internal::BindStateBase"* nonnull %426) #8
  call void @_ZN4base8internal12CallbackBaseD2Ev(%"class.base::internal::CallbackBase"* nonnull %432) #8
  call void @llvm.lifetime.end.p0i8(i64 8, i8* nonnull %430) #8
  br label %436

436:                                              ; preds = %376, %428
  %437 = getelementptr inbounds %"class.base::OnceCallback.94", %"class.base::OnceCallback.94"* %22, i64 0, i32 0
  call void @_ZN4base8internal12CallbackBaseD2Ev(%"class.base::internal::CallbackBase"* nonnull %437) #8
  call void @llvm.lifetime.end.p0i8(i64 8, i8* nonnull %382) #8
  br label %498

438:                                              ; preds = %364
  %439 = bitcast %"class.url::Origin"* %24 to i8*
  call void @llvm.lifetime.start.p0i8(i64 80, i8* nonnull %439) #8
  call void @llvm.memset.p0i8.i64(i8* nonnull align 8 %439, i8 -86, i64 80, i1 false)
  %440 = getelementptr inbounds %struct.ReputationCheckResult, %struct.ReputationCheckResult* %4, i64 0, i32 2
  call void @_ZN3url6Origin6CreateERK4GURL(%"class.url::Origin"* nonnull sret %24, %class.GURL* dereferenceable(120) %440) #8
  %441 = bitcast %"class.url::Origin"* %25 to i8*
  call void @llvm.lifetime.start.p0i8(i64 80, i8* nonnull %441) #8
  call void @llvm.memset.p0i8.i64(i8* nonnull align 8 %441, i8 -86, i64 80, i1 false)
  call void @_ZN3url6Origin6CreateERK4GURL(%"class.url::Origin"* nonnull sret %25, %class.GURL* dereferenceable(120) %207) #8
  %442 = bitcast %"class.base::OnceCallback.52"* %26 to i8*
  call void @llvm.lifetime.start.p0i8(i64 8, i8* nonnull %442) #8
  %443 = getelementptr inbounds %"class.base::OnceCallback.52", %"class.base::OnceCallback.52"* %26, i64 0, i32 0, i32 0, i32 0
  %444 = bitcast %"class.base::WeakPtr.83"* %27 to i8*
  call void @llvm.lifetime.start.p0i8(i64 16, i8* nonnull %444) #8
  %445 = bitcast %"class.base::internal::WeakReference"* %6 to i8*
  call void @llvm.lifetime.start.p0i8(i64 8, i8* nonnull %445) #8, !noalias !26
  %446 = getelementptr inbounds %class.ReputationWebContentsObserver, %class.ReputationWebContentsObserver* %0, i64 0, i32 11, i32 0, i32 0
  call void @_ZNK4base8internal18WeakReferenceOwner6GetRefEv(%"class.base::internal::WeakReference"* nonnull sret %6, %"class.base::internal::WeakReferenceOwner"* %446) #8, !noalias !26
  %447 = getelementptr inbounds %class.ReputationWebContentsObserver, %class.ReputationWebContentsObserver* %0, i64 0, i32 11, i32 0, i32 1
  %448 = load i64, i64* %447, align 8, !noalias !26
  %449 = getelementptr inbounds %"class.base::WeakPtr.83", %"class.base::WeakPtr.83"* %27, i64 0, i32 0
  call void @_ZN4base8internal11WeakPtrBaseC2ERKNS0_13WeakReferenceEm(%"class.base::internal::WeakPtrBase"* nonnull %449, %"class.base::internal::WeakReference"* nonnull dereferenceable(8) %6, i64 %448) #8
  call void @_ZN4base8internal13WeakReferenceD1Ev(%"class.base::internal::WeakReference"* nonnull %6) #8
  call void @llvm.lifetime.end.p0i8(i64 8, i8* nonnull %445) #8, !noalias !26
  %450 = call i8* @_Znwm(i64 328) #9, !noalias !29
  %451 = bitcast i8* %450 to %"class.base::internal::BindStateBase"*
  call void @_ZN4base8internal13BindStateBaseC2EPFvvEPFvPKS1_EPFbS5_NS1_21CancellationQueryModeEE(%"class.base::internal::BindStateBase"* nonnull %451, void ()* bitcast (void (%"class.base::internal::BindStateBase"*, i1)* @_ZN4base8internal7InvokerINS0_9BindStateIM29ReputationWebContentsObserverFv21ReputationCheckResultlbEJNS_7WeakPtrIS3_EES4_lEEEFvbEE7RunOnceEPNS0_13BindStateBaseEb to void ()*), void (%"class.base::internal::BindStateBase"*)* nonnull @_ZN4base8internal9BindStateIM29ReputationWebContentsObserverFv21ReputationCheckResultlbEJNS_7WeakPtrIS2_EES3_lEE7DestroyEPKNS0_13BindStateBaseE, i1 (%"class.base::internal::BindStateBase"*, i32)* nonnull @_ZN4base8internal23QueryCancellationTraitsINS0_9BindStateIM29ReputationWebContentsObserverFv21ReputationCheckResultlbEJNS_7WeakPtrIS3_EES4_lEEEEEbPKNS0_13BindStateBaseENSA_21CancellationQueryModeE) #8, !noalias !29
  %452 = getelementptr inbounds i8, i8* %450, i64 32
  %453 = bitcast i8* %452 to <2 x i64>*
  store <2 x i64> <i64 ptrtoint (void (%class.ReputationWebContentsObserver*, %struct.ReputationCheckResult*, i64, i1)* @_ZN29ReputationWebContentsObserver34OnDigitalAssetLinkValidationResultE21ReputationCheckResultlb to i64), i64 0>, <2 x i64>* %453, align 8, !noalias !29
  %454 = getelementptr inbounds i8, i8* %450, i64 48
  %455 = bitcast i8* %454 to %"class.base::internal::WeakReference"*
  %456 = getelementptr inbounds %"class.base::WeakPtr.83", %"class.base::WeakPtr.83"* %27, i64 0, i32 0, i32 0
  call void @_ZN4base8internal13WeakReferenceC1EOS1_(%"class.base::internal::WeakReference"* %455, %"class.base::internal::WeakReference"* nonnull dereferenceable(8) %456) #8, !noalias !29
  %457 = getelementptr inbounds i8, i8* %450, i64 56
  %458 = bitcast i8* %457 to i64*
  %459 = getelementptr inbounds %"class.base::WeakPtr.83", %"class.base::WeakPtr.83"* %27, i64 0, i32 0, i32 1
  %460 = load i64, i64* %459, align 8, !noalias !29
  store i64 %460, i64* %458, align 8, !noalias !29
  %461 = getelementptr inbounds i8, i8* %450, i64 64
  %462 = bitcast i8* %461 to i32*
  %463 = load i32, i32* %36, align 8, !noalias !29
  store i32 %463, i32* %462, align 8, !noalias !29
  %464 = getelementptr inbounds i8, i8* %450, i64 72
  %465 = bitcast i8* %464 to %class.GURL*
  call void @_ZN4GURLC1ERKS_(%class.GURL* %465, %class.GURL* dereferenceable(120) %440) #8, !noalias !29
  %466 = getelementptr inbounds i8, i8* %450, i64 192
  %467 = bitcast i8* %466 to %class.GURL*
  call void @_ZN4GURLC1ERKS_(%class.GURL* %467, %class.GURL* dereferenceable(120) %207) #8, !noalias !29
  %468 = getelementptr inbounds i8, i8* %450, i64 312
  %469 = getelementptr inbounds %struct.ReputationCheckResult, %struct.ReputationCheckResult* %4, i64 0, i32 4, i32 0
  call void @llvm.memcpy.p0i8.p0i8.i64(i8* align 8 %468, i8* align 8 %469, i64 3, i1 false) #8, !noalias !29
  %470 = getelementptr inbounds i8, i8* %450, i64 320
  %471 = bitcast i8* %470 to i64*
  store i64 %1, i64* %471, align 8, !noalias !29
  call void @_ZN4base8internal11WeakPtrBaseD2Ev(%"class.base::internal::WeakPtrBase"* nonnull %449) #8
  call void @llvm.lifetime.end.p0i8(i64 16, i8* nonnull %444) #8
  %472 = getelementptr inbounds %class.ReputationWebContentsObserver, %class.ReputationWebContentsObserver* %0, i64 0, i32 2
  %473 = call i64 @_ZNK4base12FeatureParamINS_9TimeDeltaELb0EE3GetEv(%"struct.base::FeatureParam"* nonnull @_ZN19LookalikeUrlService19kManifestFetchDelayE) #8
  %474 = load %class.Profile*, %class.Profile** %472, align 8
  %475 = call %class.LookalikeUrlService* @_ZN19LookalikeUrlService3GetEP7Profile(%class.Profile* %474) #8
  %476 = getelementptr inbounds %class.LookalikeUrlService, %class.LookalikeUrlService* %475, i64 0, i32 2
  %477 = load %"class.base::Clock"*, %"class.base::Clock"** %476, align 8
  %478 = bitcast %"class.base::OnceCallback.52"* %15 to i8*
  call void @llvm.lifetime.start.p0i8(i64 8, i8* nonnull %478)
  %479 = call i8* @_Znwm(i64 208) #9
  %480 = bitcast i8* %479 to %class.DigitalAssetLinkCrossValidator*
  %481 = load %class.Profile*, %class.Profile** %472, align 8
  %482 = ptrtoint i8* %450 to i64
  %483 = bitcast %"class.base::OnceCallback.52"* %15 to i64*
  store i64 %482, i64* %483, align 8
  store %"class.base::internal::BindStateBase"* null, %"class.base::internal::BindStateBase"** %443, align 8
  call void @_ZN30DigitalAssetLinkCrossValidatorC1EP7ProfileRKN3url6OriginES5_N4base9TimeDeltaEPNS6_5ClockENS6_12OnceCallbackIFvbEEE(%class.DigitalAssetLinkCrossValidator* nonnull %480, %class.Profile* %481, %"class.url::Origin"* nonnull dereferenceable(80) %24, %"class.url::Origin"* nonnull dereferenceable(80) %25, i64 %473, %"class.base::Clock"* %477, %"class.base::OnceCallback.52"* nonnull %15) #8
  %484 = getelementptr inbounds %"class.base::OnceCallback.52", %"class.base::OnceCallback.52"* %15, i64 0, i32 0
  call void @_ZN4base8internal12CallbackBaseD2Ev(%"class.base::internal::CallbackBase"* nonnull %484) #8
  call void @llvm.lifetime.end.p0i8(i64 8, i8* nonnull %478)
  %485 = ptrtoint i8* %479 to i64
  %486 = getelementptr inbounds %class.ReputationWebContentsObserver, %class.ReputationWebContentsObserver* %0, i64 0, i32 10
  %487 = getelementptr inbounds %"class.std::__1::unique_ptr.49", %"class.std::__1::unique_ptr.49"* %486, i64 0, i32 0, i32 0, i32 0
  %488 = load %class.DigitalAssetLinkCrossValidator*, %class.DigitalAssetLinkCrossValidator** %487, align 8
  %489 = bitcast %"class.std::__1::unique_ptr.49"* %486 to i64*
  store i64 %485, i64* %489, align 8
  %490 = icmp eq %class.DigitalAssetLinkCrossValidator* %488, null
  %491 = bitcast i8* %479 to %class.DigitalAssetLinkCrossValidator*
  br i1 %490, label %495, label %492

492:                                              ; preds = %438
  call void @_ZN30DigitalAssetLinkCrossValidatorD1Ev(%class.DigitalAssetLinkCrossValidator* nonnull %488) #8
  %493 = bitcast %class.DigitalAssetLinkCrossValidator* %488 to i8*
  call void @_ZdlPv(i8* %493) #9
  %494 = load %class.DigitalAssetLinkCrossValidator*, %class.DigitalAssetLinkCrossValidator** %487, align 8
  br label %495

495:                                              ; preds = %492, %438
  %496 = phi %class.DigitalAssetLinkCrossValidator* [ %494, %492 ], [ %491, %438 ]
  call void @_ZN30DigitalAssetLinkCrossValidator5StartEv(%class.DigitalAssetLinkCrossValidator* %496) #8
  %497 = getelementptr inbounds %"class.base::OnceCallback.52", %"class.base::OnceCallback.52"* %26, i64 0, i32 0
  call void @_ZN4base8internal12CallbackBaseD2Ev(%"class.base::internal::CallbackBase"* nonnull %497) #8
  call void @llvm.lifetime.end.p0i8(i64 8, i8* nonnull %442) #8
  call void @_ZN3url6OriginD1Ev(%"class.url::Origin"* nonnull %25) #8
  call void @llvm.lifetime.end.p0i8(i64 80, i8* nonnull %441) #8
  call void @_ZN3url6OriginD1Ev(%"class.url::Origin"* nonnull %24) #8
  call void @llvm.lifetime.end.p0i8(i64 80, i8* nonnull %439) #8
  br label %498

498:                                              ; preds = %495, %436, %349, %254, %239
  ret void
}

; Function Attrs: nounwind
declare void @_ZN4base8internal11WeakPtrBaseD2Ev(%"class.base::internal::WeakPtrBase"*) unnamed_addr #1

declare %"class.base::HistogramBase"* @_ZN4base15LinearHistogram10FactoryGetEPKciiji(i8*, i32, i32, i32, i32) local_unnamed_addr #3

declare void @_ZN4GURLC1ERKS_(%class.GURL*, %class.GURL* dereferenceable(120)) unnamed_addr #3

; Function Attrs: nounwind ssp uwtable
define hidden void @_ZN29ReputationWebContentsObserver38FinalizeReputationCheckWhenTipNotShownEb21ReputationCheckResultl(%class.ReputationWebContentsObserver* nocapture, i1 zeroext, %struct.ReputationCheckResult*, i64) local_unnamed_addr #0 align 2 {
  %5 = alloca %"class.base::OnceCallback", align 8
  %6 = alloca %struct.ReputationCheckResult, align 8
  br i1 %1, label %7, label %17

7:                                                ; preds = %4
  %8 = getelementptr inbounds %struct.ReputationCheckResult, %struct.ReputationCheckResult* %6, i64 0, i32 0
  %9 = getelementptr inbounds %struct.ReputationCheckResult, %struct.ReputationCheckResult* %2, i64 0, i32 0
  %10 = load i32, i32* %9, align 8
  store i32 %10, i32* %8, align 8
  %11 = getelementptr inbounds %struct.ReputationCheckResult, %struct.ReputationCheckResult* %6, i64 0, i32 2
  %12 = getelementptr inbounds %struct.ReputationCheckResult, %struct.ReputationCheckResult* %2, i64 0, i32 2
  call void @_ZN4GURLC1ERKS_(%class.GURL* %11, %class.GURL* dereferenceable(120) %12) #8
  %13 = getelementptr inbounds %struct.ReputationCheckResult, %struct.ReputationCheckResult* %6, i64 0, i32 3
  %14 = getelementptr inbounds %struct.ReputationCheckResult, %struct.ReputationCheckResult* %2, i64 0, i32 3
  call void @_ZN4GURLC1ERKS_(%class.GURL* %13, %class.GURL* dereferenceable(120) %14) #8
  %15 = getelementptr inbounds %struct.ReputationCheckResult, %struct.ReputationCheckResult* %6, i64 0, i32 4, i32 0
  %16 = getelementptr inbounds %struct.ReputationCheckResult, %struct.ReputationCheckResult* %2, i64 0, i32 4, i32 0
  call void @llvm.memcpy.p0i8.p0i8.i64(i8* align 8 %15, i8* align 8 %16, i64 3, i1 false) #8
  call fastcc void @_ZN12_GLOBAL__N_123RecordHeuristicsUKMDataE21ReputationCheckResultl20SafetyTipInteraction(%struct.ReputationCheckResult* nonnull %6, i64 %3, i32 7)
  call void @_ZN4GURLD1Ev(%class.GURL* %13) #8
  call void @_ZN4GURLD1Ev(%class.GURL* %11) #8
  br label %17

17:                                               ; preds = %7, %4
  %18 = getelementptr inbounds %class.ReputationWebContentsObserver, %class.ReputationWebContentsObserver* %0, i64 0, i32 8
  store i8 0, i8* %18, align 8
  %19 = getelementptr inbounds %class.ReputationWebContentsObserver, %class.ReputationWebContentsObserver* %0, i64 0, i32 7, i32 0, i32 0, i32 0
  %20 = load %"class.base::internal::BindStateBase"*, %"class.base::internal::BindStateBase"** %19, align 8
  %21 = icmp eq %"class.base::internal::BindStateBase"* %20, null
  br i1 %21, label %30, label %22

22:                                               ; preds = %17
  %23 = ptrtoint %"class.base::internal::BindStateBase"* %20 to i64
  %24 = bitcast %"class.base::OnceCallback"* %5 to i8*
  call void @llvm.lifetime.start.p0i8(i64 8, i8* nonnull %24) #8
  %25 = bitcast %"class.base::OnceCallback"* %5 to i64*
  store i64 %23, i64* %25, align 8
  store %"class.base::internal::BindStateBase"* null, %"class.base::internal::BindStateBase"** %19, align 8
  %26 = getelementptr inbounds %"class.base::OnceCallback", %"class.base::OnceCallback"* %5, i64 0, i32 0
  %27 = getelementptr inbounds %"class.base::internal::BindStateBase", %"class.base::internal::BindStateBase"* %20, i64 0, i32 1
  %28 = bitcast void ()** %27 to void (%"class.base::internal::BindStateBase"*)**
  %29 = load void (%"class.base::internal::BindStateBase"*)*, void (%"class.base::internal::BindStateBase"*)** %28, align 8
  call void %29(%"class.base::internal::BindStateBase"* nonnull %20) #8
  call void @_ZN4base8internal12CallbackBaseD2Ev(%"class.base::internal::CallbackBase"* nonnull %26) #8
  call void @llvm.lifetime.end.p0i8(i64 8, i8* nonnull %24) #8
  br label %30

30:                                               ; preds = %17, %22
  ret void
}

declare void @_ZN4base12StringPrintfEPKcz(%"class.std::__1::basic_string"* sret, i8*, ...) local_unnamed_addr #3

declare void @_ZN17ReputationService22OnUIDisabledFirstVisitERK4GURL(%class.ReputationService*, %class.GURL* dereferenceable(120)) local_unnamed_addr #3

declare zeroext i1 @_ZN4base11FeatureList9IsEnabledERKNS_7FeatureE(%"struct.base::Feature"* dereferenceable(16)) local_unnamed_addr #3

; Function Attrs: nounwind ssp uwtable
define internal void @_ZN12_GLOBAL__N_117OnSafetyTipClosedE21ReputationCheckResultN4base4TimeElP7ProfileRK4GURLN14security_state15SafetyTipStatusENS1_12OnceCallbackIFvvEEE20SafetyTipInteraction(%struct.ReputationCheckResult*, i64, i64, %class.Profile*, %class.GURL* dereferenceable(120), i32, %"class.base::OnceCallback"* nocapture, i32) #0 {
  %9 = alloca %"class.base::OnceCallback", align 8
  %10 = alloca %"class.std::__1::basic_string", align 8
  %11 = alloca %"class.std::__1::basic_string", align 8
  %12 = alloca %"class.std::__1::basic_string", align 8
  %13 = alloca %"class.std::__1::basic_string", align 8
  %14 = alloca %"class.std::__1::basic_string", align 8
  %15 = alloca %"class.std::__1::basic_string", align 8
  %16 = alloca %"class.std::__1::basic_string", align 8
  %17 = alloca %"class.std::__1::basic_string", align 8
  %18 = alloca %"class.std::__1::basic_string", align 8
  %19 = alloca %"class.std::__1::basic_string", align 8
  %20 = alloca %struct.ReputationCheckResult, align 8
  %21 = bitcast %"class.std::__1::basic_string"* %10 to i8*
  call void @llvm.lifetime.start.p0i8(i64 24, i8* nonnull %21) #8
  %22 = getelementptr inbounds %"class.std::__1::basic_string", %"class.std::__1::basic_string"* %10, i64 0, i32 0, i32 0, i32 0, i32 0, i32 0, i32 0
  %23 = getelementptr inbounds %"class.std::__1::basic_string", %"class.std::__1::basic_string"* %10, i64 0, i32 0, i32 0, i32 0, i32 0, i32 0, i32 1
  call void @llvm.memset.p0i8.i64(i8* nonnull align 8 %21, i8 0, i64 24, i1 false) #8
  switch i32 %7, label %115 [
    i32 2, label %24
    i32 1, label %30
    i32 10, label %61
    i32 3, label %34
    i32 4, label %38
    i32 5, label %43
    i32 6, label %47
    i32 9, label %57
    i32 8, label %51
  ]

24:                                               ; preds = %8
  %25 = bitcast %"class.std::__1::basic_string"* %10 to %"struct.std::__1::basic_string<char, std::__1::char_traits<char>, std::__1::allocator<char> >::__short"*
  %26 = getelementptr inbounds %"struct.std::__1::basic_string<char, std::__1::char_traits<char>, std::__1::allocator<char> >::__short", %"struct.std::__1::basic_string<char, std::__1::char_traits<char>, std::__1::allocator<char> >::__short"* %25, i64 0, i32 1, i32 0
  store i8 8, i8* %26, align 1
  %27 = bitcast %"class.std::__1::basic_string"* %10 to i64*
  store i64 7957695015189311310, i64* %27, align 8
  %28 = getelementptr inbounds %"class.std::__1::basic_string", %"class.std::__1::basic_string"* %10, i64 0, i32 0, i32 0, i32 0, i32 0, i32 0, i32 1
  %29 = bitcast i64* %28 to i8*
  store i8 0, i8* %29, align 8
  br label %115

30:                                               ; preds = %8
  %31 = bitcast %"class.std::__1::basic_string"* %10 to %"struct.std::__1::basic_string<char, std::__1::char_traits<char>, std::__1::allocator<char> >::__short"*
  %32 = getelementptr inbounds %"struct.std::__1::basic_string<char, std::__1::char_traits<char>, std::__1::allocator<char> >::__short", %"struct.std::__1::basic_string<char, std::__1::char_traits<char>, std::__1::allocator<char> >::__short"* %31, i64 0, i32 1, i32 0
  store i8 9, i8* %32, align 1
  call void @llvm.memcpy.p0i8.p0i8.i64(i8* nonnull align 8 %21, i8* align 1 getelementptr inbounds ([10 x i8], [10 x i8]* @.str.15, i64 0, i64 0), i64 9, i1 false) #8
  %33 = getelementptr inbounds i8, i8* %21, i64 9
  store i8 0, i8* %33, align 1
  br label %115

34:                                               ; preds = %8
  %35 = bitcast %"class.std::__1::basic_string"* %10 to %"struct.std::__1::basic_string<char, std::__1::char_traits<char>, std::__1::allocator<char> >::__short"*
  %36 = getelementptr inbounds %"struct.std::__1::basic_string<char, std::__1::char_traits<char>, std::__1::allocator<char> >::__short", %"struct.std::__1::basic_string<char, std::__1::char_traits<char>, std::__1::allocator<char> >::__short"* %35, i64 0, i32 1, i32 0
  store i8 14, i8* %36, align 1
  call void @llvm.memcpy.p0i8.p0i8.i64(i8* nonnull align 8 %21, i8* align 1 getelementptr inbounds ([15 x i8], [15 x i8]* @.str.16, i64 0, i64 0), i64 14, i1 false) #8
  %37 = getelementptr inbounds i8, i8* %21, i64 14
  store i8 0, i8* %37, align 2
  br label %65

38:                                               ; preds = %8
  %39 = bitcast %"class.std::__1::basic_string"* %10 to %"struct.std::__1::basic_string<char, std::__1::char_traits<char>, std::__1::allocator<char> >::__short"*
  %40 = getelementptr inbounds %"struct.std::__1::basic_string<char, std::__1::char_traits<char>, std::__1::allocator<char> >::__short", %"struct.std::__1::basic_string<char, std::__1::char_traits<char>, std::__1::allocator<char> >::__short"* %39, i64 0, i32 1, i32 0
  store i8 16, i8* %40, align 1
  call void @llvm.memcpy.p0i8.p0i8.i64(i8* nonnull align 8 %21, i8* align 1 getelementptr inbounds ([17 x i8], [17 x i8]* @.str.17, i64 0, i64 0), i64 16, i1 false) #8
  %41 = getelementptr inbounds %"class.std::__1::basic_string", %"class.std::__1::basic_string"* %10, i64 0, i32 0, i32 0, i32 0, i32 0, i32 0, i32 2
  %42 = bitcast i64* %41 to i8*
  store i8 0, i8* %42, align 8
  br label %65

43:                                               ; preds = %8
  %44 = bitcast %"class.std::__1::basic_string"* %10 to %"struct.std::__1::basic_string<char, std::__1::char_traits<char>, std::__1::allocator<char> >::__short"*
  %45 = getelementptr inbounds %"struct.std::__1::basic_string<char, std::__1::char_traits<char>, std::__1::allocator<char> >::__short", %"struct.std::__1::basic_string<char, std::__1::char_traits<char>, std::__1::allocator<char> >::__short"* %44, i64 0, i32 1, i32 0
  store i8 17, i8* %45, align 1
  call void @llvm.memcpy.p0i8.p0i8.i64(i8* nonnull align 8 %21, i8* align 1 getelementptr inbounds ([18 x i8], [18 x i8]* @.str.18, i64 0, i64 0), i64 17, i1 false) #8
  %46 = getelementptr inbounds i8, i8* %21, i64 17
  store i8 0, i8* %46, align 1
  br label %65

47:                                               ; preds = %8
  %48 = bitcast %"class.std::__1::basic_string"* %10 to %"struct.std::__1::basic_string<char, std::__1::char_traits<char>, std::__1::allocator<char> >::__short"*
  %49 = getelementptr inbounds %"struct.std::__1::basic_string<char, std::__1::char_traits<char>, std::__1::allocator<char> >::__short", %"struct.std::__1::basic_string<char, std::__1::char_traits<char>, std::__1::allocator<char> >::__short"* %48, i64 0, i32 1, i32 0
  store i8 9, i8* %49, align 1
  call void @llvm.memcpy.p0i8.p0i8.i64(i8* nonnull align 8 %21, i8* align 1 getelementptr inbounds ([10 x i8], [10 x i8]* @.str.19, i64 0, i64 0), i64 9, i1 false) #8
  %50 = getelementptr inbounds i8, i8* %21, i64 9
  store i8 0, i8* %50, align 1
  br label %115

51:                                               ; preds = %8
  %52 = bitcast %"class.std::__1::basic_string"* %10 to %"struct.std::__1::basic_string<char, std::__1::char_traits<char>, std::__1::allocator<char> >::__short"*
  %53 = getelementptr inbounds %"struct.std::__1::basic_string<char, std::__1::char_traits<char>, std::__1::allocator<char> >::__short", %"struct.std::__1::basic_string<char, std::__1::char_traits<char>, std::__1::allocator<char> >::__short"* %52, i64 0, i32 1, i32 0
  store i8 8, i8* %53, align 1
  %54 = bitcast %"class.std::__1::basic_string"* %10 to i64*
  store i64 7089040083162983491, i64* %54, align 8
  %55 = getelementptr inbounds %"class.std::__1::basic_string", %"class.std::__1::basic_string"* %10, i64 0, i32 0, i32 0, i32 0, i32 0, i32 0, i32 1
  %56 = bitcast i64* %55 to i8*
  store i8 0, i8* %56, align 8
  br label %115

57:                                               ; preds = %8
  %58 = bitcast %"class.std::__1::basic_string"* %10 to %"struct.std::__1::basic_string<char, std::__1::char_traits<char>, std::__1::allocator<char> >::__short"*
  %59 = getelementptr inbounds %"struct.std::__1::basic_string<char, std::__1::char_traits<char>, std::__1::allocator<char> >::__short", %"struct.std::__1::basic_string<char, std::__1::char_traits<char>, std::__1::allocator<char> >::__short"* %58, i64 0, i32 1, i32 0
  store i8 9, i8* %59, align 1
  call void @llvm.memcpy.p0i8.p0i8.i64(i8* nonnull align 8 %21, i8* align 1 getelementptr inbounds ([10 x i8], [10 x i8]* @.str.21, i64 0, i64 0), i64 9, i1 false) #8
  %60 = getelementptr inbounds i8, i8* %21, i64 9
  store i8 0, i8* %60, align 1
  br label %115

61:                                               ; preds = %8
  %62 = bitcast %"class.std::__1::basic_string"* %10 to %"struct.std::__1::basic_string<char, std::__1::char_traits<char>, std::__1::allocator<char> >::__short"*
  %63 = getelementptr inbounds %"struct.std::__1::basic_string<char, std::__1::char_traits<char>, std::__1::allocator<char> >::__short", %"struct.std::__1::basic_string<char, std::__1::char_traits<char>, std::__1::allocator<char> >::__short"* %62, i64 0, i32 1, i32 0
  store i8 18, i8* %63, align 1
  call void @llvm.memcpy.p0i8.p0i8.i64(i8* nonnull align 8 %21, i8* align 1 getelementptr inbounds ([19 x i8], [19 x i8]* @.str.22, i64 0, i64 0), i64 18, i1 false) #8
  %64 = getelementptr inbounds i8, i8* %21, i64 18
  store i8 0, i8* %64, align 2
  br label %115

65:                                               ; preds = %43, %38, %34
  %66 = tail call %class.ReputationService* @_ZN17ReputationService3GetEP7Profile(%class.Profile* %3) #8
  tail call void @_ZN17ReputationService13SetUserIgnoreERK4GURL(%class.ReputationService* %66, %class.GURL* dereferenceable(120) %4) #8
  %67 = bitcast %"class.std::__1::basic_string"* %11 to i8*
  call void @llvm.lifetime.start.p0i8(i64 24, i8* nonnull %67) #8
  %68 = bitcast %"class.std::__1::basic_string"* %12 to i8*
  call void @llvm.lifetime.start.p0i8(i64 24, i8* nonnull %68) #8
  %69 = tail call i8* @_Znwm(i64 32) #9
  %70 = getelementptr inbounds %"class.std::__1::basic_string", %"class.std::__1::basic_string"* %12, i64 0, i32 0, i32 0, i32 0, i32 0, i32 0, i32 0
  store i8* %69, i8** %70, align 8
  %71 = getelementptr inbounds %"class.std::__1::basic_string", %"class.std::__1::basic_string"* %12, i64 0, i32 0, i32 0, i32 0, i32 0, i32 0, i32 1
  %72 = bitcast i64* %71 to <2 x i64>*
  store <2 x i64> <i64 31, i64 -9223372036854775776>, <2 x i64>* %72, align 8
  call void @llvm.memcpy.p0i8.p0i8.i64(i8* nonnull align 1 %69, i8* align 1 getelementptr inbounds ([32 x i8], [32 x i8]* @.str.23, i64 0, i64 0), i64 31, i1 false) #8
  %73 = getelementptr inbounds i8, i8* %69, i64 31
  store i8 0, i8* %73, align 1
  call void @_ZN14security_state25GetSafetyTipHistogramNameERKNSt3__112basic_stringIcNS0_11char_traitsIcEENS0_9allocatorIcEEEENS_15SafetyTipStatusE(%"class.std::__1::basic_string"* nonnull sret %11, %"class.std::__1::basic_string"* nonnull dereferenceable(24) %12, i32 %5) #8
  call void @_ZN4base23UmaHistogramExactLinearERKNSt3__112basic_stringIcNS0_11char_traitsIcEENS0_9allocatorIcEEEEii(%"class.std::__1::basic_string"* nonnull dereferenceable(24) %11, i32 0, i32 11) #8
  %74 = bitcast %"class.std::__1::basic_string"* %11 to %"struct.std::__1::basic_string<char, std::__1::char_traits<char>, std::__1::allocator<char> >::__short"*
  %75 = getelementptr inbounds %"struct.std::__1::basic_string<char, std::__1::char_traits<char>, std::__1::allocator<char> >::__short", %"struct.std::__1::basic_string<char, std::__1::char_traits<char>, std::__1::allocator<char> >::__short"* %74, i64 0, i32 1, i32 0
  %76 = load i8, i8* %75, align 1
  %77 = icmp slt i8 %76, 0
  br i1 %77, label %78, label %81

78:                                               ; preds = %65
  %79 = getelementptr inbounds %"class.std::__1::basic_string", %"class.std::__1::basic_string"* %11, i64 0, i32 0, i32 0, i32 0, i32 0, i32 0, i32 0
  %80 = load i8*, i8** %79, align 8
  call void @_ZdlPv(i8* %80) #9
  br label %81

81:                                               ; preds = %65, %78
  %82 = bitcast %"class.std::__1::basic_string"* %12 to %"struct.std::__1::basic_string<char, std::__1::char_traits<char>, std::__1::allocator<char> >::__short"*
  %83 = getelementptr inbounds %"struct.std::__1::basic_string<char, std::__1::char_traits<char>, std::__1::allocator<char> >::__short", %"struct.std::__1::basic_string<char, std::__1::char_traits<char>, std::__1::allocator<char> >::__short"* %82, i64 0, i32 1, i32 0
  %84 = load i8, i8* %83, align 1
  %85 = icmp slt i8 %84, 0
  br i1 %85, label %86, label %88

86:                                               ; preds = %81
  %87 = load i8*, i8** %70, align 8
  call void @_ZdlPv(i8* %87) #9
  br label %88

88:                                               ; preds = %81, %86
  call void @llvm.lifetime.end.p0i8(i64 24, i8* nonnull %68) #8
  call void @llvm.lifetime.end.p0i8(i64 24, i8* nonnull %67) #8
  %89 = bitcast %"class.std::__1::basic_string"* %13 to i8*
  call void @llvm.lifetime.start.p0i8(i64 24, i8* nonnull %89) #8
  %90 = bitcast %"class.std::__1::basic_string"* %14 to i8*
  call void @llvm.lifetime.start.p0i8(i64 24, i8* nonnull %90) #8
  %91 = call i8* @_Znwm(i64 48) #9
  %92 = getelementptr inbounds %"class.std::__1::basic_string", %"class.std::__1::basic_string"* %14, i64 0, i32 0, i32 0, i32 0, i32 0, i32 0, i32 0
  store i8* %91, i8** %92, align 8
  %93 = getelementptr inbounds %"class.std::__1::basic_string", %"class.std::__1::basic_string"* %14, i64 0, i32 0, i32 0, i32 0, i32 0, i32 0, i32 1
  %94 = bitcast i64* %93 to <2 x i64>*
  store <2 x i64> <i64 36, i64 -9223372036854775760>, <2 x i64>* %94, align 8
  call void @llvm.memcpy.p0i8.p0i8.i64(i8* nonnull align 1 %91, i8* align 1 getelementptr inbounds ([37 x i8], [37 x i8]* @.str.24, i64 0, i64 0), i64 36, i1 false) #8
  %95 = getelementptr inbounds i8, i8* %91, i64 36
  store i8 0, i8* %95, align 1
  %96 = getelementptr inbounds %struct.ReputationCheckResult, %struct.ReputationCheckResult* %0, i64 0, i32 0
  %97 = load i32, i32* %96, align 8
  call void @_ZN14security_state25GetSafetyTipHistogramNameERKNSt3__112basic_stringIcNS0_11char_traitsIcEENS0_9allocatorIcEEEENS_15SafetyTipStatusE(%"class.std::__1::basic_string"* nonnull sret %13, %"class.std::__1::basic_string"* nonnull dereferenceable(24) %14, i32 %97) #8
  %98 = call i64 @_ZN4base4Time3NowEv() #8
  %99 = sub nsw i64 %98, %1
  call void @_ZN4base23UmaHistogramCustomTimesERKNSt3__112basic_stringIcNS0_11char_traitsIcEENS0_9allocatorIcEEEENS_9TimeDeltaES9_S9_i(%"class.std::__1::basic_string"* nonnull dereferenceable(24) %13, i64 %99, i64 1000, i64 3600000000, i32 100) #8
  %100 = bitcast %"class.std::__1::basic_string"* %13 to %"struct.std::__1::basic_string<char, std::__1::char_traits<char>, std::__1::allocator<char> >::__short"*
  %101 = getelementptr inbounds %"struct.std::__1::basic_string<char, std::__1::char_traits<char>, std::__1::allocator<char> >::__short", %"struct.std::__1::basic_string<char, std::__1::char_traits<char>, std::__1::allocator<char> >::__short"* %100, i64 0, i32 1, i32 0
  %102 = load i8, i8* %101, align 1
  %103 = icmp slt i8 %102, 0
  br i1 %103, label %104, label %107

104:                                              ; preds = %88
  %105 = getelementptr inbounds %"class.std::__1::basic_string", %"class.std::__1::basic_string"* %13, i64 0, i32 0, i32 0, i32 0, i32 0, i32 0, i32 0
  %106 = load i8*, i8** %105, align 8
  call void @_ZdlPv(i8* %106) #9
  br label %107

107:                                              ; preds = %88, %104
  %108 = bitcast %"class.std::__1::basic_string"* %14 to %"struct.std::__1::basic_string<char, std::__1::char_traits<char>, std::__1::allocator<char> >::__short"*
  %109 = getelementptr inbounds %"struct.std::__1::basic_string<char, std::__1::char_traits<char>, std::__1::allocator<char> >::__short", %"struct.std::__1::basic_string<char, std::__1::char_traits<char>, std::__1::allocator<char> >::__short"* %108, i64 0, i32 1, i32 0
  %110 = load i8, i8* %109, align 1
  %111 = icmp slt i8 %110, 0
  br i1 %111, label %112, label %114

112:                                              ; preds = %107
  %113 = load i8*, i8** %92, align 8
  call void @_ZdlPv(i8* %113) #9
  br label %114

114:                                              ; preds = %107, %112
  call void @llvm.lifetime.end.p0i8(i64 24, i8* nonnull %90) #8
  call void @llvm.lifetime.end.p0i8(i64 24, i8* nonnull %89) #8
  br label %115

115:                                              ; preds = %61, %57, %51, %47, %30, %24, %8, %114
  %116 = bitcast %"class.std::__1::basic_string"* %15 to i8*
  call void @llvm.lifetime.start.p0i8(i64 24, i8* nonnull %116) #8
  %117 = bitcast %"class.std::__1::basic_string"* %16 to i8*
  call void @llvm.lifetime.start.p0i8(i64 24, i8* nonnull %117) #8
  %118 = call i8* @_Znwm(i64 32) #9
  %119 = getelementptr inbounds %"class.std::__1::basic_string", %"class.std::__1::basic_string"* %16, i64 0, i32 0, i32 0, i32 0, i32 0, i32 0, i32 0
  store i8* %118, i8** %119, align 8
  %120 = getelementptr inbounds %"class.std::__1::basic_string", %"class.std::__1::basic_string"* %16, i64 0, i32 0, i32 0, i32 0, i32 0, i32 0, i32 1
  %121 = bitcast i64* %120 to <2 x i64>*
  store <2 x i64> <i64 31, i64 -9223372036854775776>, <2 x i64>* %121, align 8
  call void @llvm.memcpy.p0i8.p0i8.i64(i8* nonnull align 1 %118, i8* align 1 getelementptr inbounds ([32 x i8], [32 x i8]* @.str.23, i64 0, i64 0), i64 31, i1 false) #8
  %122 = getelementptr inbounds i8, i8* %118, i64 31
  store i8 0, i8* %122, align 1
  call void @_ZN14security_state25GetSafetyTipHistogramNameERKNSt3__112basic_stringIcNS0_11char_traitsIcEENS0_9allocatorIcEEEENS_15SafetyTipStatusE(%"class.std::__1::basic_string"* nonnull sret %15, %"class.std::__1::basic_string"* nonnull dereferenceable(24) %16, i32 %5) #8
  call void @_ZN4base23UmaHistogramExactLinearERKNSt3__112basic_stringIcNS0_11char_traitsIcEENS0_9allocatorIcEEEEii(%"class.std::__1::basic_string"* nonnull dereferenceable(24) %15, i32 %7, i32 11) #8
  %123 = bitcast %"class.std::__1::basic_string"* %15 to %"struct.std::__1::basic_string<char, std::__1::char_traits<char>, std::__1::allocator<char> >::__short"*
  %124 = getelementptr inbounds %"struct.std::__1::basic_string<char, std::__1::char_traits<char>, std::__1::allocator<char> >::__short", %"struct.std::__1::basic_string<char, std::__1::char_traits<char>, std::__1::allocator<char> >::__short"* %123, i64 0, i32 1, i32 0
  %125 = load i8, i8* %124, align 1
  %126 = icmp slt i8 %125, 0
  br i1 %126, label %127, label %130

127:                                              ; preds = %115
  %128 = getelementptr inbounds %"class.std::__1::basic_string", %"class.std::__1::basic_string"* %15, i64 0, i32 0, i32 0, i32 0, i32 0, i32 0, i32 0
  %129 = load i8*, i8** %128, align 8
  call void @_ZdlPv(i8* %129) #9
  br label %130

130:                                              ; preds = %115, %127
  %131 = bitcast %"class.std::__1::basic_string"* %16 to %"struct.std::__1::basic_string<char, std::__1::char_traits<char>, std::__1::allocator<char> >::__short"*
  %132 = getelementptr inbounds %"struct.std::__1::basic_string<char, std::__1::char_traits<char>, std::__1::allocator<char> >::__short", %"struct.std::__1::basic_string<char, std::__1::char_traits<char>, std::__1::allocator<char> >::__short"* %131, i64 0, i32 1, i32 0
  %133 = load i8, i8* %132, align 1
  %134 = icmp slt i8 %133, 0
  br i1 %134, label %135, label %137

135:                                              ; preds = %130
  %136 = load i8*, i8** %119, align 8
  call void @_ZdlPv(i8* %136) #9
  br label %137

137:                                              ; preds = %130, %135
  call void @llvm.lifetime.end.p0i8(i64 24, i8* nonnull %117) #8
  call void @llvm.lifetime.end.p0i8(i64 24, i8* nonnull %116) #8
  %138 = bitcast %"class.std::__1::basic_string"* %17 to i8*
  call void @llvm.lifetime.start.p0i8(i64 24, i8* nonnull %138) #8
  %139 = bitcast %"class.std::__1::basic_string"* %18 to i8*
  call void @llvm.lifetime.start.p0i8(i64 24, i8* nonnull %139) #8
  %140 = bitcast %"class.std::__1::basic_string"* %19 to i8*
  call void @llvm.lifetime.start.p0i8(i64 24, i8* nonnull %140) #8
  %141 = call i8* @_Znwm(i64 32) #9
  %142 = getelementptr inbounds %"class.std::__1::basic_string", %"class.std::__1::basic_string"* %19, i64 0, i32 0, i32 0, i32 0, i32 0, i32 0, i32 0
  store i8* %141, i8** %142, align 8
  %143 = getelementptr inbounds %"class.std::__1::basic_string", %"class.std::__1::basic_string"* %19, i64 0, i32 0, i32 0, i32 0, i32 0, i32 0, i32 1
  %144 = bitcast i64* %143 to <2 x i64>*
  store <2 x i64> <i64 29, i64 -9223372036854775776>, <2 x i64>* %144, align 8
  call void @llvm.memcpy.p0i8.p0i8.i64(i8* nonnull align 1 %141, i8* align 1 getelementptr inbounds ([30 x i8], [30 x i8]* @.str.25, i64 0, i64 0), i64 29, i1 false) #8
  %145 = getelementptr inbounds i8, i8* %141, i64 29
  store i8 0, i8* %145, align 1
  %146 = bitcast %"class.std::__1::basic_string"* %10 to %"struct.std::__1::basic_string<char, std::__1::char_traits<char>, std::__1::allocator<char> >::__short"*
  %147 = getelementptr inbounds %"struct.std::__1::basic_string<char, std::__1::char_traits<char>, std::__1::allocator<char> >::__short", %"struct.std::__1::basic_string<char, std::__1::char_traits<char>, std::__1::allocator<char> >::__short"* %146, i64 0, i32 1, i32 0
  %148 = load i8, i8* %147, align 1, !noalias !34
  %149 = icmp slt i8 %148, 0
  %150 = load i8*, i8** %22, align 8, !noalias !34
  %151 = load i64, i64* %23, align 8, !noalias !34
  %152 = zext i8 %148 to i64
  %153 = select i1 %149, i8* %150, i8* %21
  %154 = select i1 %149, i64 %151, i64 %152
  %155 = call dereferenceable(24) %"class.std::__1::basic_string"* @_ZNSt3__112basic_stringIcNS_11char_traitsIcEENS_9allocatorIcEEE6appendEPKcm(%"class.std::__1::basic_string"* nonnull %19, i8* %153, i64 %154) #8, !noalias !34
  %156 = bitcast %"class.std::__1::basic_string"* %155 to i8*
  call void @llvm.memcpy.p0i8.p0i8.i64(i8* nonnull align 8 %139, i8* align 8 %156, i64 24, i1 false) #8
  call void @llvm.memset.p0i8.i64(i8* align 8 %156, i8 0, i64 24, i1 false) #8, !noalias !34
  %157 = getelementptr inbounds %struct.ReputationCheckResult, %struct.ReputationCheckResult* %0, i64 0, i32 0
  %158 = load i32, i32* %157, align 8
  call void @_ZN14security_state25GetSafetyTipHistogramNameERKNSt3__112basic_stringIcNS0_11char_traitsIcEENS0_9allocatorIcEEEENS_15SafetyTipStatusE(%"class.std::__1::basic_string"* nonnull sret %17, %"class.std::__1::basic_string"* nonnull dereferenceable(24) %18, i32 %158) #8
  %159 = call i64 @_ZN4base4Time3NowEv() #8
  %160 = sub nsw i64 %159, %1
  call void @_ZN4base23UmaHistogramCustomTimesERKNSt3__112basic_stringIcNS0_11char_traitsIcEENS0_9allocatorIcEEEENS_9TimeDeltaES9_S9_i(%"class.std::__1::basic_string"* nonnull dereferenceable(24) %17, i64 %160, i64 1000, i64 3600000000, i32 100) #8
  %161 = bitcast %"class.std::__1::basic_string"* %17 to %"struct.std::__1::basic_string<char, std::__1::char_traits<char>, std::__1::allocator<char> >::__short"*
  %162 = getelementptr inbounds %"struct.std::__1::basic_string<char, std::__1::char_traits<char>, std::__1::allocator<char> >::__short", %"struct.std::__1::basic_string<char, std::__1::char_traits<char>, std::__1::allocator<char> >::__short"* %161, i64 0, i32 1, i32 0
  %163 = load i8, i8* %162, align 1
  %164 = icmp slt i8 %163, 0
  br i1 %164, label %165, label %168

165:                                              ; preds = %137
  %166 = getelementptr inbounds %"class.std::__1::basic_string", %"class.std::__1::basic_string"* %17, i64 0, i32 0, i32 0, i32 0, i32 0, i32 0, i32 0
  %167 = load i8*, i8** %166, align 8
  call void @_ZdlPv(i8* %167) #9
  br label %168

168:                                              ; preds = %137, %165
  %169 = bitcast %"class.std::__1::basic_string"* %18 to %"struct.std::__1::basic_string<char, std::__1::char_traits<char>, std::__1::allocator<char> >::__short"*
  %170 = getelementptr inbounds %"struct.std::__1::basic_string<char, std::__1::char_traits<char>, std::__1::allocator<char> >::__short", %"struct.std::__1::basic_string<char, std::__1::char_traits<char>, std::__1::allocator<char> >::__short"* %169, i64 0, i32 1, i32 0
  %171 = load i8, i8* %170, align 1
  %172 = icmp slt i8 %171, 0
  br i1 %172, label %173, label %176

173:                                              ; preds = %168
  %174 = getelementptr inbounds %"class.std::__1::basic_string", %"class.std::__1::basic_string"* %18, i64 0, i32 0, i32 0, i32 0, i32 0, i32 0, i32 0
  %175 = load i8*, i8** %174, align 8
  call void @_ZdlPv(i8* %175) #9
  br label %176

176:                                              ; preds = %168, %173
  %177 = bitcast %"class.std::__1::basic_string"* %19 to %"struct.std::__1::basic_string<char, std::__1::char_traits<char>, std::__1::allocator<char> >::__short"*
  %178 = getelementptr inbounds %"struct.std::__1::basic_string<char, std::__1::char_traits<char>, std::__1::allocator<char> >::__short", %"struct.std::__1::basic_string<char, std::__1::char_traits<char>, std::__1::allocator<char> >::__short"* %177, i64 0, i32 1, i32 0
  %179 = load i8, i8* %178, align 1
  %180 = icmp slt i8 %179, 0
  br i1 %180, label %181, label %183

181:                                              ; preds = %176
  %182 = load i8*, i8** %142, align 8
  call void @_ZdlPv(i8* %182) #9
  br label %183

183:                                              ; preds = %176, %181
  call void @llvm.lifetime.end.p0i8(i64 24, i8* nonnull %140) #8
  call void @llvm.lifetime.end.p0i8(i64 24, i8* nonnull %139) #8
  call void @llvm.lifetime.end.p0i8(i64 24, i8* nonnull %138) #8
  %184 = getelementptr inbounds %struct.ReputationCheckResult, %struct.ReputationCheckResult* %20, i64 0, i32 0
  %185 = load i32, i32* %157, align 8
  store i32 %185, i32* %184, align 8
  %186 = getelementptr inbounds %struct.ReputationCheckResult, %struct.ReputationCheckResult* %20, i64 0, i32 2
  %187 = getelementptr inbounds %struct.ReputationCheckResult, %struct.ReputationCheckResult* %0, i64 0, i32 2
  call void @_ZN4GURLC1ERKS_(%class.GURL* %186, %class.GURL* dereferenceable(120) %187) #8
  %188 = getelementptr inbounds %struct.ReputationCheckResult, %struct.ReputationCheckResult* %20, i64 0, i32 3
  %189 = getelementptr inbounds %struct.ReputationCheckResult, %struct.ReputationCheckResult* %0, i64 0, i32 3
  call void @_ZN4GURLC1ERKS_(%class.GURL* %188, %class.GURL* dereferenceable(120) %189) #8
  %190 = getelementptr inbounds %struct.ReputationCheckResult, %struct.ReputationCheckResult* %20, i64 0, i32 4, i32 0
  %191 = getelementptr inbounds %struct.ReputationCheckResult, %struct.ReputationCheckResult* %0, i64 0, i32 4, i32 0
  call void @llvm.memcpy.p0i8.p0i8.i64(i8* align 8 %190, i8* align 8 %191, i64 3, i1 false) #8
  call fastcc void @_ZN12_GLOBAL__N_123RecordHeuristicsUKMDataE21ReputationCheckResultl20SafetyTipInteraction(%struct.ReputationCheckResult* nonnull %20, i64 %2, i32 %7)
  call void @_ZN4GURLD1Ev(%class.GURL* %188) #8
  call void @_ZN4GURLD1Ev(%class.GURL* %186) #8
  %192 = getelementptr inbounds %"class.base::OnceCallback", %"class.base::OnceCallback"* %6, i64 0, i32 0, i32 0, i32 0
  %193 = load %"class.base::internal::BindStateBase"*, %"class.base::internal::BindStateBase"** %192, align 8
  %194 = icmp eq %"class.base::internal::BindStateBase"* %193, null
  br i1 %194, label %203, label %195

195:                                              ; preds = %183
  %196 = ptrtoint %"class.base::internal::BindStateBase"* %193 to i64
  %197 = bitcast %"class.base::OnceCallback"* %9 to i8*
  call void @llvm.lifetime.start.p0i8(i64 8, i8* nonnull %197) #8
  %198 = bitcast %"class.base::OnceCallback"* %9 to i64*
  store i64 %196, i64* %198, align 8
  store %"class.base::internal::BindStateBase"* null, %"class.base::internal::BindStateBase"** %192, align 8
  %199 = getelementptr inbounds %"class.base::OnceCallback", %"class.base::OnceCallback"* %9, i64 0, i32 0
  %200 = getelementptr inbounds %"class.base::internal::BindStateBase", %"class.base::internal::BindStateBase"* %193, i64 0, i32 1
  %201 = bitcast void ()** %200 to void (%"class.base::internal::BindStateBase"*)**
  %202 = load void (%"class.base::internal::BindStateBase"*)*, void (%"class.base::internal::BindStateBase"*)** %201, align 8
  call void %202(%"class.base::internal::BindStateBase"* nonnull %193) #8
  call void @_ZN4base8internal12CallbackBaseD2Ev(%"class.base::internal::CallbackBase"* nonnull %199) #8
  call void @llvm.lifetime.end.p0i8(i64 8, i8* nonnull %197) #8
  br label %203

203:                                              ; preds = %195, %183
  %204 = load i8, i8* %147, align 1
  %205 = icmp slt i8 %204, 0
  br i1 %205, label %206, label %208

206:                                              ; preds = %203
  %207 = load i8*, i8** %22, align 8
  call void @_ZdlPv(i8* %207) #9
  br label %208

208:                                              ; preds = %203, %206
  call void @llvm.lifetime.end.p0i8(i64 24, i8* nonnull %21) #8
  ret void
}

declare i64 @_ZN4base4Time3NowEv() local_unnamed_addr #3

declare void @_Z19ShowSafetyTipDialogPN7content11WebContentsEN14security_state15SafetyTipStatusERK4GURLN4base12OnceCallbackIFv20SafetyTipInteractionEEE(%"class.content::WebContents"*, i32, %class.GURL* dereferenceable(120), %"class.base::OnceCallback.94"*) local_unnamed_addr #3

; Function Attrs: argmemonly nounwind
declare void @llvm.memset.p0i8.i64(i8* nocapture writeonly, i8, i64, i1 immarg) #4

declare void @_ZN3url6Origin6CreateERK4GURL(%"class.url::Origin"* sret, %class.GURL* dereferenceable(120)) local_unnamed_addr #3

; Function Attrs: nounwind ssp uwtable
define hidden void @_ZN29ReputationWebContentsObserver34OnDigitalAssetLinkValidationResultE21ReputationCheckResultlb(%class.ReputationWebContentsObserver*, %struct.ReputationCheckResult*, i64, i1 zeroext) #0 align 2 {
  %5 = alloca %"class.base::OnceCallback", align 8
  %6 = alloca %"class.base::OnceCallback", align 8
  %7 = alloca %"class.base::OnceCallback.94", align 8
  %8 = alloca %"class.base::OnceCallback.94", align 8
  br i1 %3, label %9, label %34

9:                                                ; preds = %4
  tail call void @_ZN4base23UmaHistogramExactLinearEPKcii(i8* getelementptr inbounds ([64 x i8], [64 x i8]* @.str.2, i64 0, i64 0), i32 7, i32 8) #8
  %10 = load atomic i64, i64* @_ZZN12_GLOBAL__N_128RecordPostFlagCheckHistogramEN14security_state15SafetyTipStatusEE24atomic_histogram_pointer.0.0.0.0.0 acquire, align 8
  %11 = inttoptr i64 %10 to %"class.base::HistogramBase"*
  %12 = icmp eq i64 %10, 0
  br i1 %12, label %13, label %16

13:                                               ; preds = %9
  %14 = tail call %"class.base::HistogramBase"* @_ZN4base15LinearHistogram10FactoryGetEPKciiji(i8* getelementptr inbounds ([45 x i8], [45 x i8]* @.str.13, i64 0, i64 0), i32 1, i32 8, i32 9, i32 1) #8
  %15 = ptrtoint %"class.base::HistogramBase"* %14 to i64
  store atomic i64 %15, i64* @_ZZN12_GLOBAL__N_128RecordPostFlagCheckHistogramEN14security_state15SafetyTipStatusEE24atomic_histogram_pointer.0.0.0.0.0 release, align 8
  br label %16

16:                                               ; preds = %9, %13
  %17 = phi %"class.base::HistogramBase"* [ %11, %9 ], [ %14, %13 ]
  %18 = bitcast %"class.base::HistogramBase"* %17 to void (%"class.base::HistogramBase"*, i32)***
  %19 = load void (%"class.base::HistogramBase"*, i32)**, void (%"class.base::HistogramBase"*, i32)*** %18, align 8
  %20 = getelementptr inbounds void (%"class.base::HistogramBase"*, i32)*, void (%"class.base::HistogramBase"*, i32)** %19, i64 6
  %21 = load void (%"class.base::HistogramBase"*, i32)*, void (%"class.base::HistogramBase"*, i32)** %20, align 8
  tail call void %21(%"class.base::HistogramBase"* %17, i32 7) #8
  %22 = getelementptr inbounds %class.ReputationWebContentsObserver, %class.ReputationWebContentsObserver* %0, i64 0, i32 8
  store i8 0, i8* %22, align 8
  %23 = getelementptr inbounds %class.ReputationWebContentsObserver, %class.ReputationWebContentsObserver* %0, i64 0, i32 7, i32 0, i32 0, i32 0
  %24 = load %"class.base::internal::BindStateBase"*, %"class.base::internal::BindStateBase"** %23, align 8
  %25 = icmp eq %"class.base::internal::BindStateBase"* %24, null
  br i1 %25, label %110, label %26

26:                                               ; preds = %16
  %27 = ptrtoint %"class.base::internal::BindStateBase"* %24 to i64
  %28 = bitcast %"class.base::OnceCallback"* %6 to i8*
  call void @llvm.lifetime.start.p0i8(i64 8, i8* nonnull %28) #8
  %29 = bitcast %"class.base::OnceCallback"* %6 to i64*
  store i64 %27, i64* %29, align 8
  store %"class.base::internal::BindStateBase"* null, %"class.base::internal::BindStateBase"** %23, align 8
  %30 = getelementptr inbounds %"class.base::OnceCallback", %"class.base::OnceCallback"* %6, i64 0, i32 0
  %31 = getelementptr inbounds %"class.base::internal::BindStateBase", %"class.base::internal::BindStateBase"* %24, i64 0, i32 1
  %32 = bitcast void ()** %31 to void (%"class.base::internal::BindStateBase"*)**
  %33 = load void (%"class.base::internal::BindStateBase"*)*, void (%"class.base::internal::BindStateBase"*)** %32, align 8
  tail call void %33(%"class.base::internal::BindStateBase"* nonnull %24) #8
  br label %107

34:                                               ; preds = %4
  %35 = getelementptr inbounds %struct.ReputationCheckResult, %struct.ReputationCheckResult* %1, i64 0, i32 0
  %36 = load i32, i32* %35, align 8
  %37 = load atomic i64, i64* @_ZZN12_GLOBAL__N_128RecordPostFlagCheckHistogramEN14security_state15SafetyTipStatusEE24atomic_histogram_pointer.0.0.0.0.0 acquire, align 8
  %38 = inttoptr i64 %37 to %"class.base::HistogramBase"*
  %39 = icmp eq i64 %37, 0
  br i1 %39, label %40, label %43

40:                                               ; preds = %34
  %41 = tail call %"class.base::HistogramBase"* @_ZN4base15LinearHistogram10FactoryGetEPKciiji(i8* getelementptr inbounds ([45 x i8], [45 x i8]* @.str.13, i64 0, i64 0), i32 1, i32 8, i32 9, i32 1) #8
  %42 = ptrtoint %"class.base::HistogramBase"* %41 to i64
  store atomic i64 %42, i64* @_ZZN12_GLOBAL__N_128RecordPostFlagCheckHistogramEN14security_state15SafetyTipStatusEE24atomic_histogram_pointer.0.0.0.0.0 release, align 8
  br label %43

43:                                               ; preds = %34, %40
  %44 = phi %"class.base::HistogramBase"* [ %38, %34 ], [ %41, %40 ]
  %45 = bitcast %"class.base::HistogramBase"* %44 to void (%"class.base::HistogramBase"*, i32)***
  %46 = load void (%"class.base::HistogramBase"*, i32)**, void (%"class.base::HistogramBase"*, i32)*** %45, align 8
  %47 = getelementptr inbounds void (%"class.base::HistogramBase"*, i32)*, void (%"class.base::HistogramBase"*, i32)** %46, i64 6
  %48 = load void (%"class.base::HistogramBase"*, i32)*, void (%"class.base::HistogramBase"*, i32)** %47, align 8
  tail call void %48(%"class.base::HistogramBase"* %44, i32 %36) #8
  %49 = bitcast %"class.base::OnceCallback.94"* %7 to i8*
  call void @llvm.lifetime.start.p0i8(i64 8, i8* nonnull %49) #8
  %50 = getelementptr inbounds %"class.base::OnceCallback.94", %"class.base::OnceCallback.94"* %7, i64 0, i32 0, i32 0, i32 0
  %51 = tail call i64 @_ZN4base4Time3NowEv() #8
  %52 = getelementptr inbounds %class.ReputationWebContentsObserver, %class.ReputationWebContentsObserver* %0, i64 0, i32 2
  %53 = getelementptr inbounds %struct.ReputationCheckResult, %struct.ReputationCheckResult* %1, i64 0, i32 2
  %54 = getelementptr inbounds %class.ReputationWebContentsObserver, %class.ReputationWebContentsObserver* %0, i64 0, i32 9
  %55 = tail call i8* @_Znwm(i64 456) #9, !noalias !37
  %56 = bitcast i8* %55 to %"class.base::internal::BindStateBase"*
  tail call void @_ZN4base8internal13BindStateBaseC2EPFvvEPFvPKS1_E(%"class.base::internal::BindStateBase"* nonnull %56, void ()* bitcast (void (%"class.base::internal::BindStateBase"*, i32)* @_ZN4base8internal7InvokerINS0_9BindStateIPFv21ReputationCheckResultNS_4TimeElP7ProfileRK4GURLN14security_state15SafetyTipStatusENS_12OnceCallbackIFvvEEE20SafetyTipInteractionEJS3_S4_lS6_S7_SB_SE_EEEFvSF_EE7RunOnceEPNS0_13BindStateBaseESF_ to void ()*), void (%"class.base::internal::BindStateBase"*)* nonnull @_ZN4base8internal9BindStateIPFv21ReputationCheckResultNS_4TimeElP7ProfileRK4GURLN14security_state15SafetyTipStatusENS_12OnceCallbackIFvvEEE20SafetyTipInteractionEJS2_S3_lS5_S6_SA_SD_EE7DestroyEPKNS0_13BindStateBaseE) #8, !noalias !37
  %57 = getelementptr inbounds i8, i8* %55, i64 32
  %58 = bitcast i8* %57 to void (%struct.ReputationCheckResult*, i64, i64, %class.Profile*, %class.GURL*, i32, %"class.base::OnceCallback"*, i32)**
  store void (%struct.ReputationCheckResult*, i64, i64, %class.Profile*, %class.GURL*, i32, %"class.base::OnceCallback"*, i32)* @_ZN12_GLOBAL__N_117OnSafetyTipClosedE21ReputationCheckResultN4base4TimeElP7ProfileRK4GURLN14security_state15SafetyTipStatusENS1_12OnceCallbackIFvvEEE20SafetyTipInteraction, void (%struct.ReputationCheckResult*, i64, i64, %class.Profile*, %class.GURL*, i32, %"class.base::OnceCallback"*, i32)** %58, align 8, !noalias !37
  %59 = getelementptr inbounds i8, i8* %55, i64 40
  %60 = bitcast i8* %59 to i32*
  %61 = load i32, i32* %35, align 8, !noalias !37
  store i32 %61, i32* %60, align 8, !noalias !37
  %62 = getelementptr inbounds i8, i8* %55, i64 48
  %63 = bitcast i8* %62 to %class.GURL*
  tail call void @_ZN4GURLC1ERKS_(%class.GURL* %63, %class.GURL* dereferenceable(120) %53) #8, !noalias !37
  %64 = getelementptr inbounds i8, i8* %55, i64 168
  %65 = bitcast i8* %64 to %class.GURL*
  %66 = getelementptr inbounds %struct.ReputationCheckResult, %struct.ReputationCheckResult* %1, i64 0, i32 3
  tail call void @_ZN4GURLC1ERKS_(%class.GURL* %65, %class.GURL* dereferenceable(120) %66) #8, !noalias !37
  %67 = getelementptr inbounds i8, i8* %55, i64 288
  %68 = getelementptr inbounds %struct.ReputationCheckResult, %struct.ReputationCheckResult* %1, i64 0, i32 4, i32 0
  tail call void @llvm.memcpy.p0i8.p0i8.i64(i8* align 8 %67, i8* align 8 %68, i64 3, i1 false) #8, !noalias !37
  %69 = getelementptr inbounds i8, i8* %55, i64 296
  %70 = bitcast i8* %69 to i64*
  store i64 %51, i64* %70, align 8, !noalias !37
  %71 = getelementptr inbounds i8, i8* %55, i64 304
  %72 = bitcast i8* %71 to i64*
  store i64 %2, i64* %72, align 8, !noalias !37
  %73 = getelementptr inbounds i8, i8* %55, i64 312
  %74 = bitcast %class.Profile** %52 to i64*
  %75 = load i64, i64* %74, align 8, !noalias !37
  %76 = bitcast i8* %73 to i64*
  store i64 %75, i64* %76, align 8, !noalias !37
  %77 = getelementptr inbounds i8, i8* %55, i64 320
  %78 = bitcast i8* %77 to %class.GURL*
  tail call void @_ZN4GURLC1ERKS_(%class.GURL* %78, %class.GURL* dereferenceable(120) %53) #8, !noalias !37
  %79 = getelementptr inbounds i8, i8* %55, i64 440
  %80 = bitcast i8* %79 to i32*
  %81 = load i32, i32* %35, align 4, !noalias !37
  store i32 %81, i32* %80, align 4, !noalias !37
  %82 = getelementptr inbounds i8, i8* %55, i64 448
  %83 = getelementptr inbounds %"class.base::OnceCallback", %"class.base::OnceCallback"* %54, i64 0, i32 0, i32 0, i32 0
  %84 = bitcast %"class.base::OnceCallback"* %54 to i64*
  %85 = load i64, i64* %84, align 8, !noalias !37
  %86 = bitcast i8* %82 to i64*
  store i64 %85, i64* %86, align 8, !noalias !37
  store %"class.base::internal::BindStateBase"* null, %"class.base::internal::BindStateBase"** %83, align 8, !noalias !37
  %87 = getelementptr inbounds %class.ReputationWebContentsObserver, %class.ReputationWebContentsObserver* %0, i64 0, i32 0
  %88 = tail call %"class.content::WebContents"* @_ZNK7content19WebContentsObserver12web_contentsEv(%"class.content::WebContentsObserver"* %87) #8
  %89 = load i32, i32* %35, align 8
  %90 = ptrtoint i8* %55 to i64
  %91 = bitcast %"class.base::OnceCallback.94"* %8 to i64*
  store i64 %90, i64* %91, align 8
  store %"class.base::internal::BindStateBase"* null, %"class.base::internal::BindStateBase"** %50, align 8
  call void @_Z19ShowSafetyTipDialogPN7content11WebContentsEN14security_state15SafetyTipStatusERK4GURLN4base12OnceCallbackIFv20SafetyTipInteractionEEE(%"class.content::WebContents"* %88, i32 %89, %class.GURL* dereferenceable(120) %66, %"class.base::OnceCallback.94"* nonnull %8) #8
  %92 = getelementptr inbounds %"class.base::OnceCallback.94", %"class.base::OnceCallback.94"* %8, i64 0, i32 0
  call void @_ZN4base8internal12CallbackBaseD2Ev(%"class.base::internal::CallbackBase"* nonnull %92) #8
  %93 = getelementptr inbounds %class.ReputationWebContentsObserver, %class.ReputationWebContentsObserver* %0, i64 0, i32 8
  store i8 0, i8* %93, align 8
  %94 = getelementptr inbounds %class.ReputationWebContentsObserver, %class.ReputationWebContentsObserver* %0, i64 0, i32 7, i32 0, i32 0, i32 0
  %95 = load %"class.base::internal::BindStateBase"*, %"class.base::internal::BindStateBase"** %94, align 8
  %96 = icmp eq %"class.base::internal::BindStateBase"* %95, null
  br i1 %96, label %105, label %97

97:                                               ; preds = %43
  %98 = ptrtoint %"class.base::internal::BindStateBase"* %95 to i64
  %99 = bitcast %"class.base::OnceCallback"* %5 to i8*
  call void @llvm.lifetime.start.p0i8(i64 8, i8* nonnull %99) #8
  %100 = bitcast %"class.base::OnceCallback"* %5 to i64*
  store i64 %98, i64* %100, align 8
  store %"class.base::internal::BindStateBase"* null, %"class.base::internal::BindStateBase"** %94, align 8
  %101 = getelementptr inbounds %"class.base::OnceCallback", %"class.base::OnceCallback"* %5, i64 0, i32 0
  %102 = getelementptr inbounds %"class.base::internal::BindStateBase", %"class.base::internal::BindStateBase"* %95, i64 0, i32 1
  %103 = bitcast void ()** %102 to void (%"class.base::internal::BindStateBase"*)**
  %104 = load void (%"class.base::internal::BindStateBase"*)*, void (%"class.base::internal::BindStateBase"*)** %103, align 8
  call void %104(%"class.base::internal::BindStateBase"* nonnull %95) #8
  call void @_ZN4base8internal12CallbackBaseD2Ev(%"class.base::internal::CallbackBase"* nonnull %101) #8
  call void @llvm.lifetime.end.p0i8(i64 8, i8* nonnull %99) #8
  br label %105

105:                                              ; preds = %43, %97
  %106 = getelementptr inbounds %"class.base::OnceCallback.94", %"class.base::OnceCallback.94"* %7, i64 0, i32 0
  br label %107

107:                                              ; preds = %105, %26
  %108 = phi %"class.base::internal::CallbackBase"* [ %30, %26 ], [ %106, %105 ]
  %109 = phi i8* [ %28, %26 ], [ %49, %105 ]
  call void @_ZN4base8internal12CallbackBaseD2Ev(%"class.base::internal::CallbackBase"* nonnull %108) #8
  call void @llvm.lifetime.end.p0i8(i64 8, i8* nonnull %109) #8
  br label %110

110:                                              ; preds = %107, %16
  ret void
}

declare i64 @_ZNK4base12FeatureParamINS_9TimeDeltaELb0EE3GetEv(%"struct.base::FeatureParam"*) local_unnamed_addr #3

declare %class.LookalikeUrlService* @_ZN19LookalikeUrlService3GetEP7Profile(%class.Profile*) local_unnamed_addr #3

declare void @_ZN30DigitalAssetLinkCrossValidator5StartEv(%class.DigitalAssetLinkCrossValidator*) local_unnamed_addr #3

; Function Attrs: nounwind
declare void @_ZN4base8internal12CallbackBaseD2Ev(%"class.base::internal::CallbackBase"*) unnamed_addr #1

; Function Attrs: nounwind
declare void @_ZN3url6OriginD1Ev(%"class.url::Origin"*) unnamed_addr #1

; Function Attrs: nounwind ssp uwtable
define internal fastcc void @_ZN12_GLOBAL__N_123RecordHeuristicsUKMDataE21ReputationCheckResultl20SafetyTipInteraction(%struct.ReputationCheckResult* nocapture readonly, i64, i32) unnamed_addr #0 {
  %4 = alloca %"class.ukm::builders::Security_SafetyTip", align 8
  %5 = getelementptr inbounds %struct.ReputationCheckResult, %struct.ReputationCheckResult* %0, i64 0, i32 4, i32 0
  %6 = load i8, i8* %5, align 1, !range !2
  %7 = icmp eq i8 %6, 0
  br i1 %7, label %8, label %16

8:                                                ; preds = %3
  %9 = getelementptr inbounds %struct.ReputationCheckResult, %struct.ReputationCheckResult* %0, i64 0, i32 4, i32 1
  %10 = load i8, i8* %9, align 1, !range !2
  %11 = icmp eq i8 %10, 0
  br i1 %11, label %12, label %16

12:                                               ; preds = %8
  %13 = getelementptr inbounds %struct.ReputationCheckResult, %struct.ReputationCheckResult* %0, i64 0, i32 4, i32 2
  %14 = load i8, i8* %13, align 1, !range !2
  %15 = icmp eq i8 %14, 0
  br i1 %15, label %42, label %16

16:                                               ; preds = %12, %3, %8
  %17 = bitcast %"class.ukm::builders::Security_SafetyTip"* %4 to i8*
  call void @llvm.lifetime.start.p0i8(i64 16, i8* nonnull %17) #8
  call void @_ZN3ukm8builders18Security_SafetyTipC1El(%"class.ukm::builders::Security_SafetyTip"* nonnull %4, i64 %1) #8
  %18 = getelementptr inbounds %struct.ReputationCheckResult, %struct.ReputationCheckResult* %0, i64 0, i32 0
  %19 = load i32, i32* %18, align 8
  %20 = sext i32 %19 to i64
  %21 = call dereferenceable(16) %"class.ukm::builders::Security_SafetyTip"* @_ZN3ukm8builders18Security_SafetyTip18SetSafetyTipStatusEl(%"class.ukm::builders::Security_SafetyTip"* nonnull %4, i64 %20) #8
  %22 = sext i32 %2 to i64
  %23 = call dereferenceable(16) %"class.ukm::builders::Security_SafetyTip"* @_ZN3ukm8builders18Security_SafetyTip23SetSafetyTipInteractionEl(%"class.ukm::builders::Security_SafetyTip"* %21, i64 %22) #8
  %24 = getelementptr inbounds %struct.ReputationCheckResult, %struct.ReputationCheckResult* %0, i64 0, i32 4, i32 2
  %25 = load i8, i8* %24, align 2, !range !2
  %26 = zext i8 %25 to i64
  %27 = call dereferenceable(16) %"class.ukm::builders::Security_SafetyTip"* @_ZN3ukm8builders18Security_SafetyTip30SetTriggeredKeywordsHeuristicsEl(%"class.ukm::builders::Security_SafetyTip"* %23, i64 %26) #8
  %28 = getelementptr inbounds %struct.ReputationCheckResult, %struct.ReputationCheckResult* %0, i64 0, i32 4, i32 1
  %29 = load i8, i8* %28, align 1, !range !2
  %30 = zext i8 %29 to i64
  %31 = call dereferenceable(16) %"class.ukm::builders::Security_SafetyTip"* @_ZN3ukm8builders18Security_SafetyTip31SetTriggeredLookalikeHeuristicsEl(%"class.ukm::builders::Security_SafetyTip"* %27, i64 %30) #8
  %32 = load i8, i8* %5, align 8, !range !2
  %33 = zext i8 %32 to i64
  %34 = call dereferenceable(16) %"class.ukm::builders::Security_SafetyTip"* @_ZN3ukm8builders18Security_SafetyTip31SetTriggeredServerSideBlocklistEl(%"class.ukm::builders::Security_SafetyTip"* %31, i64 %33) #8
  %35 = load i32, i32* %18, align 8
  %36 = add i32 %35, -5
  %37 = icmp ult i32 %36, 2
  %38 = zext i1 %37 to i64
  %39 = call dereferenceable(16) %"class.ukm::builders::Security_SafetyTip"* @_ZN3ukm8builders18Security_SafetyTip24SetUserPreviouslyIgnoredEl(%"class.ukm::builders::Security_SafetyTip"* %34, i64 %38) #8
  %40 = getelementptr inbounds %"class.ukm::builders::Security_SafetyTip", %"class.ukm::builders::Security_SafetyTip"* %39, i64 0, i32 0
  %41 = call %"class.ukm::UkmRecorder"* @_ZN3ukm11UkmRecorder3GetEv() #8
  call void @_ZN3ukm8internal19UkmEntryBuilderBase6RecordEPNS_11UkmRecorderE(%"class.ukm::internal::UkmEntryBuilderBase"* %40, %"class.ukm::UkmRecorder"* %41) #8
  call void @_ZN3ukm8builders18Security_SafetyTipD1Ev(%"class.ukm::builders::Security_SafetyTip"* nonnull %4) #8
  call void @llvm.lifetime.end.p0i8(i64 16, i8* nonnull %17) #8
  br label %42

42:                                               ; preds = %12, %16
  ret void
}

declare zeroext i1 @_ZN7content19WebContentsObserver17OnMessageReceivedERKN3IPC7MessageE(%"class.content::WebContentsObserver"*, %"class.IPC::Message"* dereferenceable(56)) unnamed_addr #3

; Function Attrs: nounwind ssp uwtable
define linkonce_odr hidden void @_ZN3IPC8Listener18OnChannelConnectedEi(%"class.IPC::Listener"*, i32) unnamed_addr #0 comdat align 2 {
  ret void
}

; Function Attrs: nounwind ssp uwtable
define linkonce_odr hidden void @_ZN3IPC8Listener14OnChannelErrorEv(%"class.IPC::Listener"*) unnamed_addr #0 comdat align 2 {
  ret void
}

; Function Attrs: nounwind ssp uwtable
define linkonce_odr hidden void @_ZN3IPC8Listener20OnBadMessageReceivedERKNS_7MessageE(%"class.IPC::Listener"*, %"class.IPC::Message"* dereferenceable(56)) unnamed_addr #0 comdat align 2 {
  ret void
}

; Function Attrs: nounwind ssp uwtable
define linkonce_odr hidden void @_ZN3IPC8Listener28OnAssociatedInterfaceRequestERKNSt3__112basic_stringIcNS1_11char_traitsIcEENS1_9allocatorIcEEEEN4mojo29ScopedInterfaceEndpointHandleE(%"class.IPC::Listener"*, %"class.std::__1::basic_string"* dereferenceable(24), %"class.mojo::ScopedInterfaceEndpointHandle"*) unnamed_addr #0 comdat align 2 {
  ret void
}

; Function Attrs: nounwind ssp uwtable
define linkonce_odr hidden void @_ZN3IPC8Listener15OnChannelDeniedEv(%"class.IPC::Listener"*) unnamed_addr #0 comdat align 2 {
  ret void
}

; Function Attrs: nounwind ssp uwtable
define linkonce_odr hidden void @_ZN3IPC8Listener20OnChannelListenErrorEv(%"class.IPC::Listener"*) unnamed_addr #0 comdat align 2 {
  ret void
}

; Function Attrs: nounwind ssp uwtable
define linkonce_odr hidden void @_ZN7content19WebContentsObserver18RenderFrameCreatedEPNS_15RenderFrameHostE(%"class.content::WebContentsObserver"*, %"class.content::RenderFrameHost"*) unnamed_addr #0 comdat align 2 {
  ret void
}

; Function Attrs: nounwind ssp uwtable
define linkonce_odr hidden void @_ZN7content19WebContentsObserver18RenderFrameDeletedEPNS_15RenderFrameHostE(%"class.content::WebContentsObserver"*, %"class.content::RenderFrameHost"*) unnamed_addr #0 comdat align 2 {
  ret void
}

; Function Attrs: nounwind ssp uwtable
define linkonce_odr hidden void @_ZN7content19WebContentsObserver22RenderFrameHostChangedEPNS_15RenderFrameHostES2_(%"class.content::WebContentsObserver"*, %"class.content::RenderFrameHost"*, %"class.content::RenderFrameHost"*) unnamed_addr #0 comdat align 2 {
  ret void
}

; Function Attrs: nounwind ssp uwtable
define linkonce_odr hidden void @_ZN7content19WebContentsObserver12FrameDeletedEi(%"class.content::WebContentsObserver"*, i32) unnamed_addr #0 comdat align 2 {
  ret void
}

; Function Attrs: nounwind ssp uwtable
define linkonce_odr hidden void @_ZN7content19WebContentsObserver27RenderFrameHostStateChangedEPNS_15RenderFrameHostENS1_14LifecycleStateES3_(%"class.content::WebContentsObserver"*, %"class.content::RenderFrameHost"*, i32, i32) unnamed_addr #0 comdat align 2 {
  ret void
}

; Function Attrs: nounwind ssp uwtable
define linkonce_odr hidden void @_ZN7content19WebContentsObserver20CaptureTargetChangedEv(%"class.content::WebContentsObserver"*) unnamed_addr #0 comdat align 2 {
  ret void
}

; Function Attrs: nounwind ssp uwtable
define linkonce_odr hidden void @_ZN7content19WebContentsObserver27OnCaptureHandleConfigUpdateERKN5blink5mojom19CaptureHandleConfigE(%"class.content::WebContentsObserver"*, %"class.blink::mojom::CaptureHandleConfig"*) unnamed_addr #0 comdat align 2 {
  ret void
}

; Function Attrs: nounwind ssp uwtable
define linkonce_odr hidden void @_ZN7content19WebContentsObserver15RenderViewReadyEv(%"class.content::WebContentsObserver"*) unnamed_addr #0 comdat align 2 {
  ret void
}

; Function Attrs: nounwind ssp uwtable
define linkonce_odr hidden void @_ZN7content19WebContentsObserver17RenderViewDeletedEPNS_14RenderViewHostE(%"class.content::WebContentsObserver"*, %"class.content::RenderViewHost"*) unnamed_addr #0 comdat align 2 {
  ret void
}

; Function Attrs: nounwind ssp uwtable
define linkonce_odr hidden void @_ZN7content19WebContentsObserver17RenderProcessGoneEN4base17TerminationStatusE(%"class.content::WebContentsObserver"*, i32) unnamed_addr #0 comdat align 2 {
  ret void
}

; Function Attrs: nounwind ssp uwtable
define linkonce_odr hidden void @_ZN7content19WebContentsObserver21RenderViewHostChangedEPNS_14RenderViewHostES2_(%"class.content::WebContentsObserver"*, %"class.content::RenderViewHost"*, %"class.content::RenderViewHost"*) unnamed_addr #0 comdat align 2 {
  ret void
}

; Function Attrs: nounwind ssp uwtable
define linkonce_odr hidden void @_ZN7content19WebContentsObserver22OnRendererUnresponsiveEPNS_17RenderProcessHostE(%"class.content::WebContentsObserver"*, %"class.content::RenderProcessHost"*) unnamed_addr #0 comdat align 2 {
  ret void
}

; Function Attrs: nounwind ssp uwtable
define linkonce_odr hidden void @_ZN7content19WebContentsObserver20OnRendererResponsiveEPNS_17RenderProcessHostE(%"class.content::WebContentsObserver"*, %"class.content::RenderProcessHost"*) unnamed_addr #0 comdat align 2 {
  ret void
}

; Function Attrs: nounwind ssp uwtable
define linkonce_odr hidden void @_ZN7content19WebContentsObserver18DidStartNavigationEPNS_16NavigationHandleE(%"class.content::WebContentsObserver"*, %"class.content::NavigationHandle"*) unnamed_addr #0 comdat align 2 {
  ret void
}

; Function Attrs: nounwind ssp uwtable
define linkonce_odr hidden void @_ZN7content19WebContentsObserver21DidRedirectNavigationEPNS_16NavigationHandleE(%"class.content::WebContentsObserver"*, %"class.content::NavigationHandle"*) unnamed_addr #0 comdat align 2 {
  ret void
}

; Function Attrs: nounwind ssp uwtable
define linkonce_odr hidden void @_ZN7content19WebContentsObserver23ReadyToCommitNavigationEPNS_16NavigationHandleE(%"class.content::WebContentsObserver"*, %"class.content::NavigationHandle"*) unnamed_addr #0 comdat align 2 {
  ret void
}

; Function Attrs: nounwind ssp uwtable
define linkonce_odr hidden void @_ZN7content19WebContentsObserver17DidActivatePortalEPNS_11WebContentsEN4base9TimeTicksE(%"class.content::WebContentsObserver"*, %"class.content::WebContents"*, i64) unnamed_addr #0 comdat align 2 {
  ret void
}

; Function Attrs: nounwind ssp uwtable
define linkonce_odr hidden void @_ZN7content19WebContentsObserver15DidStartLoadingEv(%"class.content::WebContentsObserver"*) unnamed_addr #0 comdat align 2 {
  ret void
}

; Function Attrs: nounwind ssp uwtable
define linkonce_odr hidden void @_ZN7content19WebContentsObserver18DidReceiveResponseEv(%"class.content::WebContentsObserver"*) unnamed_addr #0 comdat align 2 {
  ret void
}

; Function Attrs: nounwind ssp uwtable
define linkonce_odr hidden void @_ZN7content19WebContentsObserver14DidStopLoadingEv(%"class.content::WebContentsObserver"*) unnamed_addr #0 comdat align 2 {
  ret void
}

; Function Attrs: nounwind ssp uwtable
define linkonce_odr hidden void @_ZN7content19WebContentsObserver19LoadProgressChangedEd(%"class.content::WebContentsObserver"*, double) unnamed_addr #0 comdat align 2 {
  ret void
}

; Function Attrs: nounwind ssp uwtable
define linkonce_odr hidden void @_ZN7content19WebContentsObserver28DocumentAvailableInMainFrameEPNS_15RenderFrameHostE(%"class.content::WebContentsObserver"*, %"class.content::RenderFrameHost"*) unnamed_addr #0 comdat align 2 {
  ret void
}

; Function Attrs: nounwind ssp uwtable
define linkonce_odr hidden void @_ZN7content19WebContentsObserver34DocumentOnLoadCompletedInMainFrameEPNS_15RenderFrameHostE(%"class.content::WebContentsObserver"*, %"class.content::RenderFrameHost"*) unnamed_addr #0 comdat align 2 {
  ret void
}

; Function Attrs: nounwind ssp uwtable
define linkonce_odr hidden void @_ZN7content19WebContentsObserver16DOMContentLoadedEPNS_15RenderFrameHostE(%"class.content::WebContentsObserver"*, %"class.content::RenderFrameHost"*) unnamed_addr #0 comdat align 2 {
  ret void
}

; Function Attrs: nounwind ssp uwtable
define linkonce_odr hidden void @_ZN7content19WebContentsObserver13DidFinishLoadEPNS_15RenderFrameHostERK4GURL(%"class.content::WebContentsObserver"*, %"class.content::RenderFrameHost"*, %class.GURL* dereferenceable(120)) unnamed_addr #0 comdat align 2 {
  ret void
}

; Function Attrs: nounwind ssp uwtable
define linkonce_odr hidden void @_ZN7content19WebContentsObserver11DidFailLoadEPNS_15RenderFrameHostERK4GURLi(%"class.content::WebContentsObserver"*, %"class.content::RenderFrameHost"*, %class.GURL* dereferenceable(120), i32) unnamed_addr #0 comdat align 2 {
  ret void
}

; Function Attrs: nounwind ssp uwtable
define linkonce_odr hidden void @_ZN7content19WebContentsObserver29DidChangeVisibleSecurityStateEv(%"class.content::WebContentsObserver"*) unnamed_addr #0 comdat align 2 {
  ret void
}

; Function Attrs: nounwind ssp uwtable
define linkonce_odr hidden void @_ZN7content19WebContentsObserver30DidLoadResourceFromMemoryCacheEPNS_15RenderFrameHostERK4GURLRKNSt3__112basic_stringIcNS6_11char_traitsIcEENS6_9allocatorIcEEEEN7network5mojom18RequestDestinationE(%"class.content::WebContentsObserver"*, %"class.content::RenderFrameHost"*, %class.GURL* dereferenceable(120), %"class.std::__1::basic_string"* dereferenceable(24), i32) unnamed_addr #0 comdat align 2 {
  ret void
}

; Function Attrs: nounwind ssp uwtable
define linkonce_odr hidden void @_ZN7content19WebContentsObserver20ResourceLoadCompleteEPNS_15RenderFrameHostERKNS_15GlobalRequestIDERKN5blink5mojom16ResourceLoadInfoE(%"class.content::WebContentsObserver"*, %"class.content::RenderFrameHost"*, %"struct.content::GlobalRequestID"* dereferenceable(8), %"class.blink::mojom::ResourceLoadInfo"*) unnamed_addr #0 comdat align 2 {
  ret void
}

; Function Attrs: nounwind ssp uwtable
define linkonce_odr hidden void @_ZN7content19WebContentsObserver17OnCookiesAccessedEPNS_15RenderFrameHostERKNS_19CookieAccessDetailsE(%"class.content::WebContentsObserver"*, %"class.content::RenderFrameHost"*, %"struct.content::CookieAccessDetails"* dereferenceable(280)) unnamed_addr #0 comdat align 2 {
  ret void
}

; Function Attrs: nounwind ssp uwtable
define linkonce_odr hidden void @_ZN7content19WebContentsObserver17OnCookiesAccessedEPNS_16NavigationHandleERKNS_19CookieAccessDetailsE(%"class.content::WebContentsObserver"*, %"class.content::NavigationHandle"*, %"struct.content::CookieAccessDetails"* dereferenceable(280)) unnamed_addr #0 comdat align 2 {
  ret void
}

; Function Attrs: nounwind ssp uwtable
define linkonce_odr hidden void @_ZN7content19WebContentsObserver24NavigationEntryCommittedERKNS_20LoadCommittedDetailsE(%"class.content::WebContentsObserver"*, %"struct.content::LoadCommittedDetails"*) unnamed_addr #0 comdat align 2 {
  ret void
}

; Function Attrs: nounwind ssp uwtable
define linkonce_odr hidden void @_ZN7content19WebContentsObserver20NavigationListPrunedERKNS_13PrunedDetailsE(%"class.content::WebContentsObserver"*, %"struct.content::PrunedDetails"*) unnamed_addr #0 comdat align 2 {
  ret void
}

; Function Attrs: nounwind ssp uwtable
define linkonce_odr hidden void @_ZN7content19WebContentsObserver24NavigationEntriesDeletedEv(%"class.content::WebContentsObserver"*) unnamed_addr #0 comdat align 2 {
  ret void
}

; Function Attrs: nounwind ssp uwtable
define linkonce_odr hidden void @_ZN7content19WebContentsObserver22NavigationEntryChangedERKNS_19EntryChangedDetailsE(%"class.content::WebContentsObserver"*, %"struct.content::EntryChangedDetails"*) unnamed_addr #0 comdat align 2 {
  ret void
}

; Function Attrs: nounwind ssp uwtable
define linkonce_odr hidden void @_ZN7content19WebContentsObserver19DidOpenRequestedURLEPNS_11WebContentsEPNS_15RenderFrameHostERK4GURLRKNS_8ReferrerE21WindowOpenDispositionN2ui14PageTransitionEbb(%"class.content::WebContentsObserver"*, %"class.content::WebContents"*, %"class.content::RenderFrameHost"*, %class.GURL* dereferenceable(120), %"struct.content::Referrer"* dereferenceable(128), i32, i32, i1 zeroext, i1 zeroext) unnamed_addr #0 comdat align 2 {
  ret void
}

; Function Attrs: nounwind ssp uwtable
define linkonce_odr hidden void @_ZN7content19WebContentsObserver29DidFirstVisuallyNonEmptyPaintEv(%"class.content::WebContentsObserver"*) unnamed_addr #0 comdat align 2 {
  ret void
}

; Function Attrs: nounwind ssp uwtable
define linkonce_odr hidden void @_ZN7content19WebContentsObserver17NavigationStoppedEv(%"class.content::WebContentsObserver"*) unnamed_addr #0 comdat align 2 {
  ret void
}

; Function Attrs: nounwind ssp uwtable
define linkonce_odr hidden void @_ZN7content19WebContentsObserver21DidGetUserInteractionERKN5blink13WebInputEventE(%"class.content::WebContentsObserver"*, %"class.blink::WebInputEvent"* dereferenceable(40)) unnamed_addr #0 comdat align 2 {
  ret void
}

; Function Attrs: nounwind ssp uwtable
define linkonce_odr hidden void @_ZN7content19WebContentsObserver20DidGetIgnoredUIEventEv(%"class.content::WebContentsObserver"*) unnamed_addr #0 comdat align 2 {
  ret void
}

; Function Attrs: nounwind ssp uwtable
define linkonce_odr hidden void @_ZN7content19WebContentsObserver19MainFrameWasResizedEb(%"class.content::WebContentsObserver"*, i1 zeroext) unnamed_addr #0 comdat align 2 {
  ret void
}

; Function Attrs: nounwind ssp uwtable
define linkonce_odr hidden void @_ZN7content19WebContentsObserver16FrameNameChangedEPNS_15RenderFrameHostERKNSt3__112basic_stringIcNS3_11char_traitsIcEENS3_9allocatorIcEEEE(%"class.content::WebContentsObserver"*, %"class.content::RenderFrameHost"*, %"class.std::__1::basic_string"* dereferenceable(24)) unnamed_addr #0 comdat align 2 {
  ret void
}

; Function Attrs: nounwind ssp uwtable
define linkonce_odr hidden void @_ZN7content19WebContentsObserver27FrameReceivedUserActivationEPNS_15RenderFrameHostE(%"class.content::WebContentsObserver"*, %"class.content::RenderFrameHost"*) unnamed_addr #0 comdat align 2 {
  ret void
}

; Function Attrs: nounwind ssp uwtable
define linkonce_odr hidden void @_ZN7content19WebContentsObserver24FrameDisplayStateChangedEPNS_15RenderFrameHostEb(%"class.content::WebContentsObserver"*, %"class.content::RenderFrameHost"*, i1 zeroext) unnamed_addr #0 comdat align 2 {
  ret void
}

; Function Attrs: nounwind ssp uwtable
define linkonce_odr hidden void @_ZN7content19WebContentsObserver16FrameSizeChangedEPNS_15RenderFrameHostERKN3gfx4SizeE(%"class.content::WebContentsObserver"*, %"class.content::RenderFrameHost"*, %"class.gfx::Size"* dereferenceable(8)) unnamed_addr #0 comdat align 2 {
  ret void
}

; Function Attrs: nounwind ssp uwtable
define linkonce_odr hidden void @_ZN7content19WebContentsObserver11TitleWasSetEPNS_15NavigationEntryE(%"class.content::WebContentsObserver"*, %"class.content::NavigationEntry"*) unnamed_addr #0 comdat align 2 {
  ret void
}

; Function Attrs: nounwind ssp uwtable
define linkonce_odr hidden void @_ZN7content19WebContentsObserver16AppCacheAccessedERK4GURLb(%"class.content::WebContentsObserver"*, %class.GURL* dereferenceable(120), i1 zeroext) unnamed_addr #0 comdat align 2 {
  ret void
}

; Function Attrs: nounwind ssp uwtable
define linkonce_odr hidden void @_ZN7content19WebContentsObserver21PepperInstanceCreatedEv(%"class.content::WebContentsObserver"*) unnamed_addr #0 comdat align 2 {
  ret void
}

; Function Attrs: nounwind ssp uwtable
define linkonce_odr hidden void @_ZN7content19WebContentsObserver21PepperInstanceDeletedEv(%"class.content::WebContentsObserver"*) unnamed_addr #0 comdat align 2 {
  ret void
}

; Function Attrs: nounwind ssp uwtable
define linkonce_odr hidden void @_ZN7content19WebContentsObserver18ViewportFitChangedEN5blink5mojom11ViewportFitE(%"class.content::WebContentsObserver"*, i32) unnamed_addr #0 comdat align 2 {
  ret void
}

; Function Attrs: nounwind ssp uwtable
define linkonce_odr hidden void @_ZN7content19WebContentsObserver13PluginCrashedERKN4base8FilePathEi(%"class.content::WebContentsObserver"*, %"class.base::FilePath"* dereferenceable(24), i32) unnamed_addr #0 comdat align 2 {
  ret void
}

; Function Attrs: nounwind ssp uwtable
define linkonce_odr hidden void @_ZN7content19WebContentsObserver23PluginHungStatusChangedEiRKN4base8FilePathEb(%"class.content::WebContentsObserver"*, i32, %"class.base::FilePath"* dereferenceable(24), i1 zeroext) unnamed_addr #0 comdat align 2 {
  ret void
}

; Function Attrs: nounwind ssp uwtable
define linkonce_odr hidden void @_ZN7content19WebContentsObserver23InnerWebContentsCreatedEPNS_11WebContentsE(%"class.content::WebContentsObserver"*, %"class.content::WebContents"*) unnamed_addr #0 comdat align 2 {
  ret void
}

; Function Attrs: nounwind ssp uwtable
define linkonce_odr hidden void @_ZN7content19WebContentsObserver24InnerWebContentsAttachedEPNS_11WebContentsEPNS_15RenderFrameHostEb(%"class.content::WebContentsObserver"*, %"class.content::WebContents"*, %"class.content::RenderFrameHost"*, i1 zeroext) unnamed_addr #0 comdat align 2 {
  ret void
}

; Function Attrs: nounwind ssp uwtable
define linkonce_odr hidden void @_ZN7content19WebContentsObserver24InnerWebContentsDetachedEPNS_11WebContentsE(%"class.content::WebContentsObserver"*, %"class.content::WebContents"*) unnamed_addr #0 comdat align 2 {
  ret void
}

; Function Attrs: nounwind ssp uwtable
define linkonce_odr hidden void @_ZN7content19WebContentsObserver24DidCloneToNewWebContentsEPNS_11WebContentsES2_(%"class.content::WebContentsObserver"*, %"class.content::WebContents"*, %"class.content::WebContents"*) unnamed_addr #0 comdat align 2 {
  ret void
}

; Function Attrs: nounwind ssp uwtable
define linkonce_odr hidden void @_ZN7content19WebContentsObserver20WebContentsDestroyedEv(%"class.content::WebContentsObserver"*) unnamed_addr #0 comdat align 2 {
  ret void
}

; Function Attrs: nounwind ssp uwtable
define linkonce_odr hidden void @_ZN7content19WebContentsObserver20UserAgentOverrideSetERKN5blink17UserAgentOverrideE(%"class.content::WebContentsObserver"*, %"struct.blink::UserAgentOverride"* dereferenceable(184)) unnamed_addr #0 comdat align 2 {
  ret void
}

; Function Attrs: nounwind ssp uwtable
define linkonce_odr hidden void @_ZN7content19WebContentsObserver19DidUpdateFaviconURLEPNS_15RenderFrameHostERKNSt3__16vectorIN4mojo9StructPtrIN5blink5mojom10FaviconURLEEENS3_9allocatorISA_EEEE(%"class.content::WebContentsObserver"*, %"class.content::RenderFrameHost"*, %"class.std::__1::vector.149"*) unnamed_addr #0 comdat align 2 {
  ret void
}

; Function Attrs: nounwind ssp uwtable
define linkonce_odr hidden void @_ZN7content19WebContentsObserver19OnAudioStateChangedEb(%"class.content::WebContentsObserver"*, i1 zeroext) unnamed_addr #0 comdat align 2 {
  ret void
}

; Function Attrs: nounwind ssp uwtable
define linkonce_odr hidden void @_ZN7content19WebContentsObserver24OnFrameAudioStateChangedEPNS_15RenderFrameHostEb(%"class.content::WebContentsObserver"*, %"class.content::RenderFrameHost"*, i1 zeroext) unnamed_addr #0 comdat align 2 {
  ret void
}

; Function Attrs: nounwind ssp uwtable
define linkonce_odr hidden void @_ZN7content19WebContentsObserver37OnIsConnectedToBluetoothDeviceChangedEb(%"class.content::WebContentsObserver"*, i1 zeroext) unnamed_addr #0 comdat align 2 {
  ret void
}

; Function Attrs: nounwind ssp uwtable
define linkonce_odr hidden void @_ZN7content19WebContentsObserver25DidUpdateAudioMutingStateEb(%"class.content::WebContentsObserver"*, i1 zeroext) unnamed_addr #0 comdat align 2 {
  ret void
}

; Function Attrs: nounwind ssp uwtable
define linkonce_odr hidden void @_ZN7content19WebContentsObserver29DidToggleFullscreenModeForTabEbb(%"class.content::WebContentsObserver"*, i1 zeroext, i1 zeroext) unnamed_addr #0 comdat align 2 {
  ret void
}

; Function Attrs: nounwind ssp uwtable
define linkonce_odr hidden void @_ZN7content19WebContentsObserver20DidAcquireFullscreenEPNS_15RenderFrameHostE(%"class.content::WebContentsObserver"*, %"class.content::RenderFrameHost"*) unnamed_addr #0 comdat align 2 {
  ret void
}

; Function Attrs: nounwind ssp uwtable
define linkonce_odr hidden void @_ZN7content19WebContentsObserver32DidChangeVerticalScrollDirectionEN3viz23VerticalScrollDirectionE(%"class.content::WebContentsObserver"*, i32) unnamed_addr #0 comdat align 2 {
  ret void
}

; Function Attrs: nounwind ssp uwtable
define linkonce_odr hidden void @_ZN7content19WebContentsObserver27BeforeFormRepostWarningShowEv(%"class.content::WebContentsObserver"*) unnamed_addr #0 comdat align 2 {
  ret void
}

; Function Attrs: nounwind ssp uwtable
define linkonce_odr hidden void @_ZN7content19WebContentsObserver17BeforeUnloadFiredEbRKN4base9TimeTicksE(%"class.content::WebContentsObserver"*, i1 zeroext, %"class.base::TimeTicks"* dereferenceable(8)) unnamed_addr #0 comdat align 2 {
  ret void
}

; Function Attrs: nounwind ssp uwtable
define linkonce_odr hidden void @_ZN7content19WebContentsObserver27BeforeUnloadDialogCancelledEv(%"class.content::WebContentsObserver"*) unnamed_addr #0 comdat align 2 {
  ret void
}

; Function Attrs: nounwind ssp uwtable
define linkonce_odr hidden void @_ZN7content19WebContentsObserver30AXTreeIDForMainFrameHasChangedEv(%"class.content::WebContentsObserver"*) unnamed_addr #0 comdat align 2 {
  ret void
}

; Function Attrs: nounwind ssp uwtable
define linkonce_odr hidden void @_ZN7content19WebContentsObserver26AccessibilityEventReceivedERKNS_26AXEventNotificationDetailsE(%"class.content::WebContentsObserver"*, %"struct.content::AXEventNotificationDetails"*) unnamed_addr #0 comdat align 2 {
  ret void
}

; Function Attrs: nounwind ssp uwtable
define linkonce_odr hidden void @_ZN7content19WebContentsObserver36AccessibilityLocationChangesReceivedERKNSt3__16vectorINS_35AXLocationChangeNotificationDetailsENS1_9allocatorIS3_EEEE(%"class.content::WebContentsObserver"*, %"class.std::__1::vector.150"*) unnamed_addr #0 comdat align 2 {
  ret void
}

; Function Attrs: nounwind ssp uwtable
define linkonce_odr hidden void @_ZN7content19WebContentsObserver19DidChangeThemeColorEv(%"class.content::WebContentsObserver"*) unnamed_addr #0 comdat align 2 {
  ret void
}

; Function Attrs: nounwind ssp uwtable
define linkonce_odr hidden void @_ZN7content19WebContentsObserver24OnBackgroundColorChangedEv(%"class.content::WebContentsObserver"*) unnamed_addr #0 comdat align 2 {
  ret void
}

; Function Attrs: nounwind ssp uwtable
define linkonce_odr hidden void @_ZN7content19WebContentsObserver24OnDidAddMessageToConsoleEPNS_15RenderFrameHostEN5blink5mojom19ConsoleMessageLevelERKNSt3__112basic_stringIDsNS6_11char_traitsIDsEENS6_9allocatorIDsEEEEiSE_RKN4absl8optionalISC_EE(%"class.content::WebContentsObserver"*, %"class.content::RenderFrameHost"*, i32, %"class.std::__1::basic_string.97"* dereferenceable(24), i32, %"class.std::__1::basic_string.97"* dereferenceable(24), %"class.absl::optional.151"*) unnamed_addr #0 comdat align 2 {
  ret void
}

; Function Attrs: nounwind ssp uwtable
define linkonce_odr hidden void @_ZN7content19WebContentsObserver19MediaStartedPlayingERKNS0_15MediaPlayerInfoERKNS_13MediaPlayerIdE(%"class.content::WebContentsObserver"*, %"struct.content::WebContentsObserver::MediaPlayerInfo"* dereferenceable(2), %"struct.content::MediaPlayerId"*) unnamed_addr #0 comdat align 2 {
  ret void
}

; Function Attrs: nounwind ssp uwtable
define linkonce_odr hidden void @_ZN7content19WebContentsObserver19MediaStoppedPlayingERKNS0_15MediaPlayerInfoERKNS_13MediaPlayerIdENS0_18MediaStoppedReasonE(%"class.content::WebContentsObserver"*, %"struct.content::WebContentsObserver::MediaPlayerInfo"* dereferenceable(2), %"struct.content::MediaPlayerId"*, i32) unnamed_addr #0 comdat align 2 {
  ret void
}

; Function Attrs: nounwind ssp uwtable
