; ModuleID = '../../third_party/dawn/src/dawn_native/vulkan/ResourceMemoryAllocatorVk.cpp'
source_filename = "../../third_party/dawn/src/dawn_native/vulkan/ResourceMemoryAllocatorVk.cpp"
target datalayout = "e-m:e-i64:64-f80:128-n8:16:32:64-S128"
target triple = "x86_64-unknown-linux-gnu"

module asm ".symver exp, exp@GLIBC_2.2.5"
module asm ".symver exp2, exp2@GLIBC_2.2.5"
module asm ".symver exp2f, exp2f@GLIBC_2.2.5"
module asm ".symver expf, expf@GLIBC_2.2.5"
module asm ".symver lgamma, lgamma@GLIBC_2.2.5"
module asm ".symver lgammaf, lgammaf@GLIBC_2.2.5"
module asm ".symver lgammal, lgammal@GLIBC_2.2.5"
module asm ".symver log, log@GLIBC_2.2.5"
module asm ".symver log2, log2@GLIBC_2.2.5"
module asm ".symver log2f, log2f@GLIBC_2.2.5"
module asm ".symver logf, logf@GLIBC_2.2.5"
module asm ".symver pow, pow@GLIBC_2.2.5"
module asm ".symver powf, powf@GLIBC_2.2.5"

%"class.dawn_native::vulkan::ResourceMemoryAllocator" = type { %"class.dawn_native::vulkan::Device"*, %"class.std::__1::vector.310", %class.SerialQueue.355 }
%"class.std::__1::vector.310" = type { %"class.std::__1::__vector_base.311" }
%"class.std::__1::__vector_base.311" = type { %"class.std::__1::unique_ptr.312"*, %"class.std::__1::unique_ptr.312"*, %"class.std::__1::__compressed_pair.350" }
%"class.std::__1::unique_ptr.312" = type { %"class.std::__1::__compressed_pair.313" }
%"class.std::__1::__compressed_pair.313" = type { %"struct.std::__1::__compressed_pair_elem.314" }
%"struct.std::__1::__compressed_pair_elem.314" = type { %"class.dawn_native::vulkan::ResourceMemoryAllocator::SingleTypeAllocator"* }
%"class.dawn_native::vulkan::ResourceMemoryAllocator::SingleTypeAllocator" = type { %"class.dawn_native::ResourceHeapAllocator", %"class.dawn_native::vulkan::Device"*, i64, i64, %"class.dawn_native::PooledResourceMemoryAllocator", %"class.dawn_native::BuddyMemoryAllocator" }
%"class.dawn_native::ResourceHeapAllocator" = type { i32 (...)** }
%"class.dawn_native::PooledResourceMemoryAllocator" = type { %"class.dawn_native::ResourceHeapAllocator", %"class.dawn_native::ResourceHeapAllocator"*, %"class.std::__1::deque.315" }
%"class.std::__1::deque.315" = type { %"class.std::__1::__deque_base.316" }
%"class.std::__1::__deque_base.316" = type { %"struct.std::__1::__split_buffer.317", i64, %"class.std::__1::__compressed_pair.329" }
%"struct.std::__1::__split_buffer.317" = type { %"class.std::__1::unique_ptr.318"**, %"class.std::__1::unique_ptr.318"**, %"class.std::__1::unique_ptr.318"**, %"class.std::__1::__compressed_pair.324" }
%"class.std::__1::unique_ptr.318" = type { %"class.std::__1::__compressed_pair.319" }
%"class.std::__1::__compressed_pair.319" = type { %"struct.std::__1::__compressed_pair_elem.320" }
%"struct.std::__1::__compressed_pair_elem.320" = type { %"class.dawn_native::ResourceHeapBase"* }
%"class.dawn_native::ResourceHeapBase" = type { i32 (...)** }
%"class.std::__1::__compressed_pair.324" = type { %"struct.std::__1::__compressed_pair_elem.325" }
%"struct.std::__1::__compressed_pair_elem.325" = type { %"class.std::__1::unique_ptr.318"** }
%"class.std::__1::__compressed_pair.329" = type { %"struct.std::__1::__compressed_pair_elem.265" }
%"struct.std::__1::__compressed_pair_elem.265" = type { i64 }
%"class.dawn_native::BuddyMemoryAllocator" = type { i64, %"class.dawn_native::BuddyAllocator", %"class.dawn_native::ResourceHeapAllocator"*, %"class.std::__1::vector.340" }
%"class.dawn_native::BuddyAllocator" = type { %"struct.dawn_native::BuddyAllocator::BuddyBlock"*, i64, %"class.std::__1::vector.333" }
%"struct.dawn_native::BuddyAllocator::BuddyBlock" = type { i64, i64, %"struct.dawn_native::BuddyAllocator::BuddyBlock"*, %"struct.dawn_native::BuddyAllocator::BuddyBlock"*, i32, %union.anon }
%union.anon = type { %"struct.dawn_native::BuddyAllocator::BuddyBlock::FreeLinks" }
%"struct.dawn_native::BuddyAllocator::BuddyBlock::FreeLinks" = type { %"struct.dawn_native::BuddyAllocator::BuddyBlock"*, %"struct.dawn_native::BuddyAllocator::BuddyBlock"* }
%"class.std::__1::vector.333" = type { %"class.std::__1::__vector_base.334" }
%"class.std::__1::__vector_base.334" = type { %"struct.dawn_native::BuddyAllocator::BlockList"*, %"struct.dawn_native::BuddyAllocator::BlockList"*, %"class.std::__1::__compressed_pair.335" }
%"struct.dawn_native::BuddyAllocator::BlockList" = type { %"struct.dawn_native::BuddyAllocator::BuddyBlock"* }
%"class.std::__1::__compressed_pair.335" = type { %"struct.std::__1::__compressed_pair_elem.336" }
%"struct.std::__1::__compressed_pair_elem.336" = type { %"struct.dawn_native::BuddyAllocator::BlockList"* }
%"class.std::__1::vector.340" = type { %"class.std::__1::__vector_base.341" }
%"class.std::__1::__vector_base.341" = type { %"struct.dawn_native::BuddyMemoryAllocator::TrackedSubAllocations"*, %"struct.dawn_native::BuddyMemoryAllocator::TrackedSubAllocations"*, %"class.std::__1::__compressed_pair.342" }
%"struct.dawn_native::BuddyMemoryAllocator::TrackedSubAllocations" = type { i64, %"class.std::__1::unique_ptr.318" }
%"class.std::__1::__compressed_pair.342" = type { %"struct.std::__1::__compressed_pair_elem.343" }
%"struct.std::__1::__compressed_pair_elem.343" = type { %"struct.dawn_native::BuddyMemoryAllocator::TrackedSubAllocations"* }
%"class.std::__1::__compressed_pair.350" = type { %"struct.std::__1::__compressed_pair_elem.351" }
%"struct.std::__1::__compressed_pair_elem.351" = type { %"class.std::__1::unique_ptr.312"* }
%class.SerialQueue.355 = type { %class.SerialStorage.356 }
%class.SerialStorage.356 = type { %"class.std::__1::vector.357" }
%"class.std::__1::vector.357" = type { %"class.std::__1::__vector_base.358" }
%"class.std::__1::__vector_base.358" = type { %"struct.std::__1::pair.359"*, %"struct.std::__1::pair.359"*, %"class.std::__1::__compressed_pair.360" }
%"struct.std::__1::pair.359" = type { i64, %"class.std::__1::vector.388" }
%"class.std::__1::vector.388" = type { %"class.std::__1::__vector_base.389" }
%"class.std::__1::__vector_base.389" = type { %"class.dawn_native::ResourceMemoryAllocation"*, %"class.dawn_native::ResourceMemoryAllocation"*, %"class.std::__1::__compressed_pair.390" }
%"class.dawn_native::ResourceMemoryAllocation" = type { i32 (...)**, %"struct.dawn_native::AllocationInfo", i64, %"class.dawn_native::ResourceHeapBase"*, i8* }
%"struct.dawn_native::AllocationInfo" = type <{ i64, i32, [4 x i8] }>
%"class.std::__1::__compressed_pair.390" = type { %"struct.std::__1::__compressed_pair_elem.391" }
%"struct.std::__1::__compressed_pair_elem.391" = type { %"class.dawn_native::ResourceMemoryAllocation"* }
%"class.std::__1::__compressed_pair.360" = type { %"struct.std::__1::__compressed_pair_elem.361" }
%"struct.std::__1::__compressed_pair_elem.361" = type { %"struct.std::__1::pair.359"* }
%"class.dawn_native::vulkan::Device" = type { %"class.dawn_native::DeviceBase", %"struct.dawn_native::vulkan::VulkanFunctions", %"struct.dawn_native::vulkan::VulkanDeviceInfo", %struct.VkDevice_T*, i32, %struct.VkQueue_T*, i32, %class.SerialQueue, %"class.std::__1::unique_ptr.78", %"class.std::__1::unique_ptr.234", %"class.std::__1::unique_ptr.240", %"class.std::__1::unique_ptr.246", %"class.std::__1::unique_ptr.252", %"class.std::__1::queue", %"class.std::__1::vector.269", %class.SerialQueue.276, %"class.std::__1::vector.286", %"struct.dawn_native::vulkan::CommandRecordingContext" }
%"class.dawn_native::DeviceBase" = type { %class.RefCounted, i64, i64, i64, void (i32, i8*, i8*)*, i8*, void (i8*, i8*)*, i8*, %"class.std::__1::unique_ptr", %class.Ref, %"class.dawn_native::AdapterBase"*, %"class.std::__1::unique_ptr.2", %class.Ref.8, %"class.std::__1::unique_ptr.10", %"class.std::__1::unique_ptr.16", %class.Ref.22, %"class.std::__1::unique_ptr.24", i32, %"struct.std::__1::array", %"struct.dawn_native::TogglesSet", %"struct.dawn_native::TogglesSet", i64, %"struct.dawn_native::ExtensionsSet", %"class.std::__1::unique_ptr.33", %"class.std::__1::unique_ptr.39" }
%class.RefCounted = type { i32 (...)**, %"struct.std::__1::atomic" }
%"struct.std::__1::atomic" = type { %"struct.std::__1::__atomic_base" }
%"struct.std::__1::__atomic_base" = type { %"struct.std::__1::__atomic_base.0" }
%"struct.std::__1::__atomic_base.0" = type { %"struct.std::__1::__cxx_atomic_impl" }
%"struct.std::__1::__cxx_atomic_impl" = type { %"struct.std::__1::__cxx_atomic_base_impl" }
%"struct.std::__1::__cxx_atomic_base_impl" = type { i64 }
%"class.std::__1::unique_ptr" = type { %"class.std::__1::__compressed_pair" }
%"class.std::__1::__compressed_pair" = type { %"struct.std::__1::__compressed_pair_elem" }
%"struct.std::__1::__compressed_pair_elem" = type { %"class.dawn_native::ErrorScopeStack"* }
%"class.dawn_native::ErrorScopeStack" = type opaque
%class.Ref = type { %class.RefBase }
%class.RefBase = type { %"class.dawn_native::InstanceBase"* }
%"class.dawn_native::InstanceBase" = type opaque
%"class.dawn_native::AdapterBase" = type opaque
%"class.std::__1::unique_ptr.2" = type { %"class.std::__1::__compressed_pair.3" }
%"class.std::__1::__compressed_pair.3" = type { %"struct.std::__1::__compressed_pair_elem.4" }
%"struct.std::__1::__compressed_pair_elem.4" = type { %"struct.dawn_native::DeviceBase::Caches"* }
%"struct.dawn_native::DeviceBase::Caches" = type opaque
%class.Ref.8 = type { %class.RefBase.9 }
%class.RefBase.9 = type { %"class.dawn_native::BindGroupLayoutBase"* }
%"class.dawn_native::BindGroupLayoutBase" = type opaque
%"class.std::__1::unique_ptr.10" = type { %"class.std::__1::__compressed_pair.11" }
%"class.std::__1::__compressed_pair.11" = type { %"struct.std::__1::__compressed_pair_elem.12" }
%"struct.std::__1::__compressed_pair_elem.12" = type { %"class.dawn_native::DynamicUploader"* }
%"class.dawn_native::DynamicUploader" = type opaque
%"class.std::__1::unique_ptr.16" = type { %"class.std::__1::__compressed_pair.17" }
%"class.std::__1::__compressed_pair.17" = type { %"struct.std::__1::__compressed_pair_elem.18" }
%"struct.std::__1::__compressed_pair_elem.18" = type { %"class.dawn_native::CallbackTaskManager"* }
%"class.dawn_native::CallbackTaskManager" = type opaque
%class.Ref.22 = type { %class.RefBase.23 }
%class.RefBase.23 = type { %"class.dawn_native::QueueBase"* }
%"class.dawn_native::QueueBase" = type opaque
%"class.std::__1::unique_ptr.24" = type { %"class.std::__1::__compressed_pair.25" }
%"class.std::__1::__compressed_pair.25" = type { %"struct.std::__1::__compressed_pair_elem.26" }
%"struct.std::__1::__compressed_pair_elem.26" = type { %"struct.dawn_native::DeviceBase::DeprecationWarnings"* }
%"struct.dawn_native::DeviceBase::DeprecationWarnings" = type opaque
%"struct.std::__1::array" = type { [55 x %"struct.dawn_native::Format"] }
%"struct.dawn_native::Format" = type { i32, i8, i8, i8, i8, i8, %"struct.std::__1::array.30" }
%"struct.std::__1::array.30" = type { [3 x %"struct.dawn_native::AspectInfo"] }
%"struct.dawn_native::AspectInfo" = type { %"struct.dawn_native::TexelBlockInfo", i32, i8, i32 }
%"struct.dawn_native::TexelBlockInfo" = type { i32, i32, i32 }
%"struct.dawn_native::TogglesSet" = type { %"class.std::__1::bitset" }
%"class.std::__1::bitset" = type { %"class.std::__1::__bitset" }
%"class.std::__1::__bitset" = type { i64 }
%"struct.dawn_native::ExtensionsSet" = type { %"class.std::__1::bitset.31" }
%"class.std::__1::bitset.31" = type { %"class.std::__1::__bitset.32" }
%"class.std::__1::__bitset.32" = type { i64 }
%"class.std::__1::unique_ptr.33" = type { %"class.std::__1::__compressed_pair.34" }
%"class.std::__1::__compressed_pair.34" = type { %"struct.std::__1::__compressed_pair_elem.35" }
%"struct.std::__1::__compressed_pair_elem.35" = type { %"struct.dawn_native::InternalPipelineStore"* }
%"struct.dawn_native::InternalPipelineStore" = type opaque
%"class.std::__1::unique_ptr.39" = type { %"class.std::__1::__compressed_pair.40" }
%"class.std::__1::__compressed_pair.40" = type { %"struct.std::__1::__compressed_pair_elem.41" }
%"struct.std::__1::__compressed_pair_elem.41" = type { %"class.dawn_native::PersistentCache"* }
%"class.dawn_native::PersistentCache" = type opaque
%"struct.dawn_native::vulkan::VulkanFunctions" = type { void ()* (%struct.VkInstance_T*, i8*)*, i32 (%struct.VkInstanceCreateInfo*, %struct.VkAllocationCallbacks*, %struct.VkInstance_T**)*, i32 (i8*, i32*, %struct.VkExtensionProperties*)*, i32 (i32*, %struct.VkLayerProperties*)*, void (%struct.VkInstance_T*, %struct.VkAllocationCallbacks*)*, i32 (i32*)*, i32 (%struct.VkPhysicalDevice_T*, %struct.VkDeviceCreateInfo*, %struct.VkAllocationCallbacks*, %struct.VkDevice_T**)*, i32 (%struct.VkPhysicalDevice_T*, i8*, i32*, %struct.VkExtensionProperties*)*, i32 (%struct.VkPhysicalDevice_T*, i32*, %struct.VkLayerProperties*)*, i32 (%struct.VkInstance_T*, i32*, %struct.VkPhysicalDevice_T**)*, void ()* (%struct.VkDevice_T*, i8*)*, void (%struct.VkPhysicalDevice_T*, %struct.VkPhysicalDeviceFeatures*)*, void (%struct.VkPhysicalDevice_T*, i32, %struct.VkFormatProperties*)*, i32 (%struct.VkPhysicalDevice_T*, i32, i32, i32, i32, i32, %struct.VkImageFormatProperties*)*, void (%struct.VkPhysicalDevice_T*, %struct.VkPhysicalDeviceMemoryProperties*)*, void (%struct.VkPhysicalDevice_T*, %struct.VkPhysicalDeviceProperties*)*, void (%struct.VkPhysicalDevice_T*, i32*, %struct.VkQueueFamilyProperties*)*, void (%struct.VkPhysicalDevice_T*, i32, i32, i32, i32, i32, i32*, %struct.VkSparseImageFormatProperties*)*, void (%struct.VkDevice_T*, %struct.VkAllocationCallbacks*)*, void (%struct.VkCommandBuffer_T*, %struct.VkDebugUtilsLabelEXT*)*, void (%struct.VkCommandBuffer_T*)*, void (%struct.VkCommandBuffer_T*, %struct.VkDebugUtilsLabelEXT*)*, i32 (%struct.VkInstance_T*, %struct.VkDebugUtilsMessengerCreateInfoEXT*, %struct.VkAllocationCallbacks*, %struct.VkDebugUtilsMessengerEXT_T**)*, void (%struct.VkInstance_T*, %struct.VkDebugUtilsMessengerEXT_T*, %struct.VkAllocationCallbacks*)*, void (%struct.VkQueue_T*, %struct.VkDebugUtilsLabelEXT*)*, void (%struct.VkQueue_T*)*, void (%struct.VkQueue_T*, %struct.VkDebugUtilsLabelEXT*)*, i32 (%struct.VkDevice_T*, %struct.VkDebugUtilsObjectNameInfoEXT*)*, i32 (%struct.VkDevice_T*, %struct.VkDebugUtilsObjectTagInfoEXT*)*, void (%struct.VkInstance_T*, i32, i32, %struct.VkDebugUtilsMessengerCallbackDataEXT*)*, void (%struct.VkInstance_T*, %struct.VkSurfaceKHR_T*, %struct.VkAllocationCallbacks*)*, i32 (%struct.VkPhysicalDevice_T*, i32, %struct.VkSurfaceKHR_T*, i32*)*, i32 (%struct.VkPhysicalDevice_T*, %struct.VkSurfaceKHR_T*, %struct.VkSurfaceCapabilitiesKHR*)*, i32 (%struct.VkPhysicalDevice_T*, %struct.VkSurfaceKHR_T*, i32*, %struct.VkSurfaceFormatKHR*)*, i32 (%struct.VkPhysicalDevice_T*, %struct.VkSurfaceKHR_T*, i32*, i32*)*, void (%struct.VkPhysicalDevice_T*, %struct.VkPhysicalDeviceExternalBufferInfo*, %struct.VkExternalBufferProperties*)*, void (%struct.VkPhysicalDevice_T*, %struct.VkPhysicalDeviceExternalSemaphoreInfo*, %struct.VkExternalSemaphoreProperties*)*, void (%struct.VkPhysicalDevice_T*, %struct.VkPhysicalDeviceFeatures2*)*, void (%struct.VkPhysicalDevice_T*, %struct.VkPhysicalDeviceProperties2*)*, void (%struct.VkPhysicalDevice_T*, i32, %struct.VkFormatProperties2*)*, i32 (%struct.VkPhysicalDevice_T*, %struct.VkPhysicalDeviceImageFormatInfo2*, %struct.VkImageFormatProperties2*)*, void (%struct.VkPhysicalDevice_T*, i32*, %struct.VkQueueFamilyProperties2*)*, void (%struct.VkPhysicalDevice_T*, %struct.VkPhysicalDeviceMemoryProperties2*)*, void (%struct.VkPhysicalDevice_T*, %struct.VkPhysicalDeviceSparseImageFormatInfo2*, i32*, %struct.VkSparseImageFormatProperties2*)*, i32 (%struct.VkInstance_T*, %struct.VkXlibSurfaceCreateInfoKHR*, %struct.VkAllocationCallbacks*, %struct.VkSurfaceKHR_T**)*, i32 (%struct.VkPhysicalDevice_T*, i32, %struct._XDisplay*, i64)*, i32 (%struct.VkInstance_T*, %struct.VkXcbSurfaceCreateInfoKHR*, %struct.VkAllocationCallbacks*, %struct.VkSurfaceKHR_T**)*, i32 (%struct.VkPhysicalDevice_T*, i32, %struct.xcb_connection_t*, i32)*, i32 (%struct.VkDevice_T*, %struct.VkCommandBufferAllocateInfo*, %struct.VkCommandBuffer_T**)*, i32 (%struct.VkDevice_T*, %struct.VkDescriptorSetAllocateInfo*, %struct.VkDescriptorSet_T**)*, i32 (%struct.VkDevice_T*, %struct.VkMemoryAllocateInfo*, %struct.VkAllocationCallbacks*, %struct.VkDeviceMemory_T**)*, i32 (%struct.VkCommandBuffer_T*, %struct.VkCommandBufferBeginInfo*)*, i32 (%struct.VkDevice_T*, %struct.VkBuffer_T*, %struct.VkDeviceMemory_T*, i64)*, i32 (%struct.VkDevice_T*, %struct.VkImage_T*, %struct.VkDeviceMemory_T*, i64)*, void (%struct.VkCommandBuffer_T*, %struct.VkQueryPool_T*, i32, i32)*, void (%struct.VkCommandBuffer_T*, %struct.VkRenderPassBeginInfo*, i32)*, void (%struct.VkCommandBuffer_T*, i32, %struct.VkPipelineLayout_T*, i32, i32, %struct.VkDescriptorSet_T**, i32, i32*)*, void (%struct.VkCommandBuffer_T*, %struct.VkBuffer_T*, i64, i32)*, void (%struct.VkCommandBuffer_T*, i32, %struct.VkPipeline_T*)*, void (%struct.VkCommandBuffer_T*, i32, i32, %struct.VkBuffer_T**, i64*)*, void (%struct.VkCommandBuffer_T*, %struct.VkImage_T*, i32, %struct.VkImage_T*, i32, i32, %struct.VkImageBlit*, i32)*, void (%struct.VkCommandBuffer_T*, i32, %struct.VkClearAttachment*, i32, %struct.VkClearRect*)*, void (%struct.VkCommandBuffer_T*, %struct.VkImage_T*, i32, %union.VkClearColorValue*, i32, %struct.VkImageSubresourceRange*)*, void (%struct.VkCommandBuffer_T*, %struct.VkImage_T*, i32, %struct.VkClearDepthStencilValue*, i32, %struct.VkImageSubresourceRange*)*, void (%struct.VkCommandBuffer_T*, %struct.VkBuffer_T*, %struct.VkBuffer_T*, i32, %struct.VkBufferCopy*)*, void (%struct.VkCommandBuffer_T*, %struct.VkBuffer_T*, %struct.VkImage_T*, i32, i32, %struct.VkBufferImageCopy*)*, void (%struct.VkCommandBuffer_T*, %struct.VkImage_T*, i32, %struct.VkImage_T*, i32, i32, %struct.VkImageCopy*)*, void (%struct.VkCommandBuffer_T*, %struct.VkImage_T*, i32, %struct.VkBuffer_T*, i32, %struct.VkBufferImageCopy*)*, void (%struct.VkCommandBuffer_T*, %struct.VkQueryPool_T*, i32, i32, %struct.VkBuffer_T*, i64, i64, i32)*, void (%struct.VkCommandBuffer_T*, i32, i32, i32)*, void (%struct.VkCommandBuffer_T*, %struct.VkBuffer_T*, i64)*, void (%struct.VkCommandBuffer_T*, i32, i32, i32, i32)*, void (%struct.VkCommandBuffer_T*, i32, i32, i32, i32, i32)*, void (%struct.VkCommandBuffer_T*, %struct.VkBuffer_T*, i64, i32, i32)*, void (%struct.VkCommandBuffer_T*, %struct.VkBuffer_T*, i64, i32, i32)*, void (%struct.VkCommandBuffer_T*, %struct.VkQueryPool_T*, i32)*, void (%struct.VkCommandBuffer_T*)*, void (%struct.VkCommandBuffer_T*, i32, %struct.VkCommandBuffer_T**)*, void (%struct.VkCommandBuffer_T*, %struct.VkBuffer_T*, i64, i64, i32)*, void (%struct.VkCommandBuffer_T*, i32)*, void (%struct.VkCommandBuffer_T*, i32, i32, i32, i32, %struct.VkMemoryBarrier*, i32, %struct.VkBufferMemoryBarrier*, i32, %struct.VkImageMemoryBarrier*)*, void (%struct.VkCommandBuffer_T*, %struct.VkPipelineLayout_T*, i32, i32, i32, i8*)*, void (%struct.VkCommandBuffer_T*, %struct.VkEvent_T*, i32)*, void (%struct.VkCommandBuffer_T*, %struct.VkQueryPool_T*, i32, i32)*, void (%struct.VkCommandBuffer_T*, %struct.VkImage_T*, i32, %struct.VkImage_T*, i32, i32, %struct.VkImageResolve*)*, void (%struct.VkCommandBuffer_T*, float*)*, void (%struct.VkCommandBuffer_T*, float, float, float)*, void (%struct.VkCommandBuffer_T*, float, float)*, void (%struct.VkCommandBuffer_T*, %struct.VkEvent_T*, i32)*, void (%struct.VkCommandBuffer_T*, float)*, void (%struct.VkCommandBuffer_T*, i32, i32, %struct.VkRect2D*)*, void (%struct.VkCommandBuffer_T*, i32, i32)*, void (%struct.VkCommandBuffer_T*, i32, i32)*, void (%struct.VkCommandBuffer_T*, i32, i32)*, void (%struct.VkCommandBuffer_T*, i32, i32, %struct.VkViewport*)*, void (%struct.VkCommandBuffer_T*, %struct.VkBuffer_T*, i64, i64, i8*)*, void (%struct.VkCommandBuffer_T*, i32, %struct.VkEvent_T**, i32, i32, i32, %struct.VkMemoryBarrier*, i32, %struct.VkBufferMemoryBarrier*, i32, %struct.VkImageMemoryBarrier*)*, void (%struct.VkCommandBuffer_T*, i32, %struct.VkQueryPool_T*, i32)*, i32 (%struct.VkDevice_T*, %struct.VkBufferCreateInfo*, %struct.VkAllocationCallbacks*, %struct.VkBuffer_T**)*, i32 (%struct.VkDevice_T*, %struct.VkBufferViewCreateInfo*, %struct.VkAllocationCallbacks*, %struct.VkBufferView_T**)*, i32 (%struct.VkDevice_T*, %struct.VkCommandPoolCreateInfo*, %struct.VkAllocationCallbacks*, %struct.VkCommandPool_T**)*, i32 (%struct.VkDevice_T*, %struct.VkPipelineCache_T*, i32, %struct.VkComputePipelineCreateInfo*, %struct.VkAllocationCallbacks*, %struct.VkPipeline_T**)*, i32 (%struct.VkDevice_T*, %struct.VkDescriptorPoolCreateInfo*, %struct.VkAllocationCallbacks*, %struct.VkDescriptorPool_T**)*, i32 (%struct.VkDevice_T*, %struct.VkDescriptorSetLayoutCreateInfo*, %struct.VkAllocationCallbacks*, %struct.VkDescriptorSetLayout_T**)*, i32 (%struct.VkDevice_T*, %struct.VkEventCreateInfo*, %struct.VkAllocationCallbacks*, %struct.VkEvent_T**)*, i32 (%struct.VkDevice_T*, %struct.VkFenceCreateInfo*, %struct.VkAllocationCallbacks*, %struct.VkFence_T**)*, i32 (%struct.VkDevice_T*, %struct.VkFramebufferCreateInfo*, %struct.VkAllocationCallbacks*, %struct.VkFramebuffer_T**)*, i32 (%struct.VkDevice_T*, %struct.VkPipelineCache_T*, i32, %struct.VkGraphicsPipelineCreateInfo*, %struct.VkAllocationCallbacks*, %struct.VkPipeline_T**)*, i32 (%struct.VkDevice_T*, %struct.VkImageCreateInfo*, %struct.VkAllocationCallbacks*, %struct.VkImage_T**)*, i32 (%struct.VkDevice_T*, %struct.VkImageViewCreateInfo*, %struct.VkAllocationCallbacks*, %struct.VkImageView_T**)*, i32 (%struct.VkDevice_T*, %struct.VkPipelineCacheCreateInfo*, %struct.VkAllocationCallbacks*, %struct.VkPipelineCache_T**)*, i32 (%struct.VkDevice_T*, %struct.VkPipelineLayoutCreateInfo*, %struct.VkAllocationCallbacks*, %struct.VkPipelineLayout_T**)*, i32 (%struct.VkDevice_T*, %struct.VkQueryPoolCreateInfo*, %struct.VkAllocationCallbacks*, %struct.VkQueryPool_T**)*, i32 (%struct.VkDevice_T*, %struct.VkRenderPassCreateInfo*, %struct.VkAllocationCallbacks*, %struct.VkRenderPass_T**)*, i32 (%struct.VkDevice_T*, %struct.VkSamplerCreateInfo*, %struct.VkAllocationCallbacks*, %struct.VkSampler_T**)*, i32 (%struct.VkDevice_T*, %struct.VkSemaphoreCreateInfo*, %struct.VkAllocationCallbacks*, %struct.VkSemaphore_T**)*, i32 (%struct.VkDevice_T*, %struct.VkShaderModuleCreateInfo*, %struct.VkAllocationCallbacks*, %struct.VkShaderModule_T**)*, void (%struct.VkDevice_T*, %struct.VkBuffer_T*, %struct.VkAllocationCallbacks*)*, void (%struct.VkDevice_T*, %struct.VkBufferView_T*, %struct.VkAllocationCallbacks*)*, void (%struct.VkDevice_T*, %struct.VkCommandPool_T*, %struct.VkAllocationCallbacks*)*, void (%struct.VkDevice_T*, %struct.VkDescriptorPool_T*, %struct.VkAllocationCallbacks*)*, void (%struct.VkDevice_T*, %struct.VkDescriptorSetLayout_T*, %struct.VkAllocationCallbacks*)*, void (%struct.VkDevice_T*, %struct.VkEvent_T*, %struct.VkAllocationCallbacks*)*, void (%struct.VkDevice_T*, %struct.VkFence_T*, %struct.VkAllocationCallbacks*)*, void (%struct.VkDevice_T*, %struct.VkFramebuffer_T*, %struct.VkAllocationCallbacks*)*, void (%struct.VkDevice_T*, %struct.VkImage_T*, %struct.VkAllocationCallbacks*)*, void (%struct.VkDevice_T*, %struct.VkImageView_T*, %struct.VkAllocationCallbacks*)*, void (%struct.VkDevice_T*, %struct.VkPipeline_T*, %struct.VkAllocationCallbacks*)*, void (%struct.VkDevice_T*, %struct.VkPipelineCache_T*, %struct.VkAllocationCallbacks*)*, void (%struct.VkDevice_T*, %struct.VkPipelineLayout_T*, %struct.VkAllocationCallbacks*)*, void (%struct.VkDevice_T*, %struct.VkQueryPool_T*, %struct.VkAllocationCallbacks*)*, void (%struct.VkDevice_T*, %struct.VkRenderPass_T*, %struct.VkAllocationCallbacks*)*, void (%struct.VkDevice_T*, %struct.VkSampler_T*, %struct.VkAllocationCallbacks*)*, void (%struct.VkDevice_T*, %struct.VkSemaphore_T*, %struct.VkAllocationCallbacks*)*, void (%struct.VkDevice_T*, %struct.VkShaderModule_T*, %struct.VkAllocationCallbacks*)*, i32 (%struct.VkDevice_T*)*, i32 (%struct.VkCommandBuffer_T*)*, i32 (%struct.VkDevice_T*, i32, %struct.VkMappedMemoryRange*)*, void (%struct.VkDevice_T*, %struct.VkCommandPool_T*, i32, %struct.VkCommandBuffer_T**)*, i32 (%struct.VkDevice_T*, %struct.VkDescriptorPool_T*, i32, %struct.VkDescriptorSet_T**)*, void (%struct.VkDevice_T*, %struct.VkDeviceMemory_T*, %struct.VkAllocationCallbacks*)*, void (%struct.VkDevice_T*, %struct.VkBuffer_T*, %struct.VkMemoryRequirements*)*, void (%struct.VkDevice_T*, %struct.VkDeviceMemory_T*, i64*)*, void (%struct.VkDevice_T*, i32, i32, %struct.VkQueue_T**)*, i32 (%struct.VkDevice_T*, %struct.VkEvent_T*)*, i32 (%struct.VkDevice_T*, %struct.VkFence_T*)*, void (%struct.VkDevice_T*, %struct.VkImage_T*, %struct.VkMemoryRequirements*)*, void (%struct.VkDevice_T*, %struct.VkImage_T*, i32*, %struct.VkSparseImageMemoryRequirements*)*, void (%struct.VkDevice_T*, %struct.VkImage_T*, %struct.VkImageSubresource*, %struct.VkSubresourceLayout*)*, i32 (%struct.VkDevice_T*, %struct.VkPipelineCache_T*, i64*, i8*)*, i32 (%struct.VkDevice_T*, %struct.VkQueryPool_T*, i32, i32, i64, i8*, i64, i32)*, void (%struct.VkDevice_T*, %struct.VkRenderPass_T*, %struct.VkExtent2D*)*, i32 (%struct.VkDevice_T*, i32, %struct.VkMappedMemoryRange*)*, i32 (%struct.VkDevice_T*, %struct.VkDeviceMemory_T*, i64, i64, i32, i8**)*, i32 (%struct.VkDevice_T*, %struct.VkPipelineCache_T*, i32, %struct.VkPipelineCache_T**)*, i32 (%struct.VkQueue_T*, i32, %struct.VkBindSparseInfo*, %struct.VkFence_T*)*, i32 (%struct.VkQueue_T*, i32, %struct.VkSubmitInfo*, %struct.VkFence_T*)*, i32 (%struct.VkQueue_T*)*, i32 (%struct.VkCommandBuffer_T*, i32)*, i32 (%struct.VkDevice_T*, %struct.VkCommandPool_T*, i32)*, i32 (%struct.VkDevice_T*, %struct.VkDescriptorPool_T*, i32)*, i32 (%struct.VkDevice_T*, %struct.VkEvent_T*)*, i32 (%struct.VkDevice_T*, i32, %struct.VkFence_T**)*, i32 (%struct.VkDevice_T*, %struct.VkEvent_T*)*, void (%struct.VkDevice_T*, %struct.VkDeviceMemory_T*)*, void (%struct.VkDevice_T*, i32, %struct.VkWriteDescriptorSet*, i32, %struct.VkCopyDescriptorSet*)*, i32 (%struct.VkDevice_T*, i32, %struct.VkFence_T**, i32, i64)*, i32 (%struct.VkDevice_T*, %struct.VkSwapchainCreateInfoKHR*, %struct.VkAllocationCallbacks*, %struct.VkSwapchainKHR_T**)*, void (%struct.VkDevice_T*, %struct.VkSwapchainKHR_T*, %struct.VkAllocationCallbacks*)*, i32 (%struct.VkDevice_T*, %struct.VkSwapchainKHR_T*, i32*, %struct.VkImage_T**)*, i32 (%struct.VkDevice_T*, %struct.VkSwapchainKHR_T*, i64, %struct.VkSemaphore_T*, %struct.VkFence_T*, i32*)*, i32 (%struct.VkQueue_T*, %struct.VkPresentInfoKHR*)*, i32 (%struct.VkDevice_T*, %struct.VkMemoryGetFdInfoKHR*, i32*)*, i32 (%struct.VkDevice_T*, i32, i32, %struct.VkMemoryFdPropertiesKHR*)*, i32 (%struct.VkDevice_T*, %struct.VkImportSemaphoreFdInfoKHR*)*, i32 (%struct.VkDevice_T*, %struct.VkSemaphoreGetFdInfoKHR*, i32*)* }
%struct.VkInstance_T = type opaque
%struct.VkInstanceCreateInfo = type { i32, i8*, i32, %struct.VkApplicationInfo*, i32, i8**, i32, i8** }
%struct.VkApplicationInfo = type { i32, i8*, i8*, i32, i8*, i32, i32 }
%struct.VkAllocationCallbacks = type { i8*, i8* (i8*, i64, i64, i32)*, i8* (i8*, i8*, i64, i64, i32)*, void (i8*, i8*)*, void (i8*, i64, i32, i32)*, void (i8*, i64, i32, i32)* }
%struct.VkExtensionProperties = type { [256 x i8], i32 }
%struct.VkLayerProperties = type { [256 x i8], i32, i32, [256 x i8] }
%struct.VkPhysicalDevice_T = type opaque
%struct.VkDeviceCreateInfo = type { i32, i8*, i32, i32, %struct.VkDeviceQueueCreateInfo*, i32, i8**, i32, i8**, %struct.VkPhysicalDeviceFeatures* }
%struct.VkDeviceQueueCreateInfo = type { i32, i8*, i32, i32, i32, float* }
%struct.VkPhysicalDeviceFeatures = type { i32, i32, i32, i32, i32, i32, i32, i32, i32, i32, i32, i32, i32, i32, i32, i32, i32, i32, i32, i32, i32, i32, i32, i32, i32, i32, i32, i32, i32, i32, i32, i32, i32, i32, i32, i32, i32, i32, i32, i32, i32, i32, i32, i32, i32, i32, i32, i32, i32, i32, i32, i32, i32, i32, i32 }
%struct.VkFormatProperties = type { i32, i32, i32 }
%struct.VkImageFormatProperties = type { %struct.VkExtent3D, i32, i32, i32, i64 }
%struct.VkExtent3D = type { i32, i32, i32 }
%struct.VkPhysicalDeviceMemoryProperties = type { i32, [32 x %struct.VkMemoryType], i32, [16 x %struct.VkMemoryHeap] }
%struct.VkMemoryType = type { i32, i32 }
%struct.VkMemoryHeap = type { i64, i32 }
%struct.VkPhysicalDeviceProperties = type { i32, i32, i32, i32, i32, [256 x i8], [16 x i8], %struct.VkPhysicalDeviceLimits, %struct.VkPhysicalDeviceSparseProperties }
%struct.VkPhysicalDeviceLimits = type { i32, i32, i32, i32, i32, i32, i32, i32, i32, i32, i32, i64, i64, i32, i32, i32, i32, i32, i32, i32, i32, i32, i32, i32, i32, i32, i32, i32, i32, i32, i32, i32, i32, i32, i32, i32, i32, i32, i32, i32, i32, i32, i32, i32, i32, i32, i32, i32, i32, i32, i32, i32, [3 x i32], i32, [3 x i32], i32, i32, i32, i32, i32, float, float, i32, [2 x i32], [2 x float], i32, i64, i64, i64, i64, i32, i32, i32, i32, float, float, i32, i32, i32, i32, i32, i32, i32, i32, i32, i32, i32, i32, i32, i32, i32, i32, float, i32, i32, i32, i32, [2 x float], [2 x float], float, float, i32, i32, i64, i64, i64 }
%struct.VkPhysicalDeviceSparseProperties = type { i32, i32, i32, i32, i32 }
%struct.VkQueueFamilyProperties = type { i32, i32, i32, %struct.VkExtent3D }
%struct.VkSparseImageFormatProperties = type { i32, %struct.VkExtent3D, i32 }
%struct.VkCommandBuffer_T = type opaque
%struct.VkDebugUtilsLabelEXT = type { i32, i8*, i8*, [4 x float] }
%struct.VkDebugUtilsMessengerCreateInfoEXT = type { i32, i8*, i32, i32, i32, i32 (i32, i32, %struct.VkDebugUtilsMessengerCallbackDataEXT*, i8*)*, i8* }
%struct.VkDebugUtilsMessengerCallbackDataEXT = type { i32, i8*, i32, i8*, i32, i8*, i32, %struct.VkDebugUtilsLabelEXT*, i32, %struct.VkDebugUtilsLabelEXT*, i32, %struct.VkDebugUtilsObjectNameInfoEXT* }
%struct.VkDebugUtilsObjectNameInfoEXT = type { i32, i8*, i32, i64, i8* }
%struct.VkDebugUtilsMessengerEXT_T = type opaque
%struct.VkDebugUtilsObjectTagInfoEXT = type { i32, i8*, i32, i64, i64, i64, i8* }
%struct.VkSurfaceKHR_T = type opaque
%struct.VkSurfaceCapabilitiesKHR = type { i32, i32, %struct.VkExtent2D, %struct.VkExtent2D, %struct.VkExtent2D, i32, i32, i32, i32, i32 }
%struct.VkExtent2D = type { i32, i32 }
%struct.VkSurfaceFormatKHR = type { i32, i32 }
%struct.VkPhysicalDeviceExternalBufferInfo = type { i32, i8*, i32, i32, i32 }
%struct.VkExternalBufferProperties = type { i32, i8*, %struct.VkExternalMemoryProperties }
%struct.VkExternalMemoryProperties = type { i32, i32, i32 }
%struct.VkPhysicalDeviceExternalSemaphoreInfo = type { i32, i8*, i32 }
%struct.VkExternalSemaphoreProperties = type { i32, i8*, i32, i32, i32 }
%struct.VkPhysicalDeviceFeatures2 = type { i32, i8*, %struct.VkPhysicalDeviceFeatures }
%struct.VkPhysicalDeviceProperties2 = type { i32, i8*, %struct.VkPhysicalDeviceProperties }
%struct.VkFormatProperties2 = type { i32, i8*, %struct.VkFormatProperties }
%struct.VkPhysicalDeviceImageFormatInfo2 = type { i32, i8*, i32, i32, i32, i32, i32 }
%struct.VkImageFormatProperties2 = type { i32, i8*, %struct.VkImageFormatProperties }
%struct.VkQueueFamilyProperties2 = type { i32, i8*, %struct.VkQueueFamilyProperties }
%struct.VkPhysicalDeviceMemoryProperties2 = type { i32, i8*, %struct.VkPhysicalDeviceMemoryProperties }
%struct.VkPhysicalDeviceSparseImageFormatInfo2 = type { i32, i8*, i32, i32, i32, i32, i32 }
%struct.VkSparseImageFormatProperties2 = type { i32, i8*, %struct.VkSparseImageFormatProperties }
%struct.VkXlibSurfaceCreateInfoKHR = type { i32, i8*, i32, %struct._XDisplay*, i64 }
%struct._XDisplay = type opaque
%struct.VkXcbSurfaceCreateInfoKHR = type { i32, i8*, i32, %struct.xcb_connection_t*, i32 }
%struct.xcb_connection_t = type opaque
%struct.VkCommandBufferAllocateInfo = type { i32, i8*, %struct.VkCommandPool_T*, i32, i32 }
%struct.VkCommandPool_T = type opaque
%struct.VkDescriptorSetAllocateInfo = type { i32, i8*, %struct.VkDescriptorPool_T*, i32, %struct.VkDescriptorSetLayout_T** }
%struct.VkDescriptorPool_T = type opaque
%struct.VkDescriptorSetLayout_T = type opaque
%struct.VkDescriptorSet_T = type opaque
%struct.VkMemoryAllocateInfo = type { i32, i8*, i64, i32 }
%struct.VkDeviceMemory_T = type opaque
%struct.VkCommandBufferBeginInfo = type { i32, i8*, i32, %struct.VkCommandBufferInheritanceInfo* }
%struct.VkCommandBufferInheritanceInfo = type { i32, i8*, %struct.VkRenderPass_T*, i32, %struct.VkFramebuffer_T*, i32, i32, i32 }
%struct.VkRenderPass_T = type opaque
%struct.VkFramebuffer_T = type opaque
%struct.VkBuffer_T = type opaque
%struct.VkImage_T = type opaque
%struct.VkRenderPassBeginInfo = type { i32, i8*, %struct.VkRenderPass_T*, %struct.VkFramebuffer_T*, %struct.VkRect2D, i32, %union.VkClearValue* }
%struct.VkRect2D = type { %struct.VkOffset2D, %struct.VkExtent2D }
%struct.VkOffset2D = type { i32, i32 }
%union.VkClearValue = type { %union.VkClearColorValue }
%union.VkClearColorValue = type { [4 x float] }
%struct.VkPipelineLayout_T = type opaque
%struct.VkPipeline_T = type opaque
%struct.VkImageBlit = type { %struct.VkImageSubresourceLayers, [2 x %struct.VkOffset3D], %struct.VkImageSubresourceLayers, [2 x %struct.VkOffset3D] }
%struct.VkImageSubresourceLayers = type { i32, i32, i32, i32 }
%struct.VkOffset3D = type { i32, i32, i32 }
%struct.VkClearAttachment = type { i32, i32, %union.VkClearValue }
%struct.VkClearRect = type { %struct.VkRect2D, i32, i32 }
%struct.VkImageSubresourceRange = type { i32, i32, i32, i32, i32 }
%struct.VkClearDepthStencilValue = type { float, i32 }
%struct.VkBufferCopy = type { i64, i64, i64 }
%struct.VkBufferImageCopy = type { i64, i32, i32, %struct.VkImageSubresourceLayers, %struct.VkOffset3D, %struct.VkExtent3D }
%struct.VkImageCopy = type { %struct.VkImageSubresourceLayers, %struct.VkOffset3D, %struct.VkImageSubresourceLayers, %struct.VkOffset3D, %struct.VkExtent3D }
%struct.VkQueryPool_T = type opaque
%struct.VkMemoryBarrier = type { i32, i8*, i32, i32 }
%struct.VkBufferMemoryBarrier = type { i32, i8*, i32, i32, i32, i32, %struct.VkBuffer_T*, i64, i64 }
%struct.VkImageMemoryBarrier = type { i32, i8*, i32, i32, i32, i32, i32, i32, %struct.VkImage_T*, %struct.VkImageSubresourceRange }
%struct.VkImageResolve = type { %struct.VkImageSubresourceLayers, %struct.VkOffset3D, %struct.VkImageSubresourceLayers, %struct.VkOffset3D, %struct.VkExtent3D }
%struct.VkEvent_T = type opaque
%struct.VkViewport = type { float, float, float, float, float, float }
%struct.VkBufferCreateInfo = type { i32, i8*, i32, i64, i32, i32, i32, i32* }
%struct.VkBufferViewCreateInfo = type { i32, i8*, i32, %struct.VkBuffer_T*, i32, i64, i64 }
%struct.VkBufferView_T = type opaque
%struct.VkCommandPoolCreateInfo = type { i32, i8*, i32, i32 }
%struct.VkPipelineCache_T = type opaque
%struct.VkComputePipelineCreateInfo = type { i32, i8*, i32, %struct.VkPipelineShaderStageCreateInfo, %struct.VkPipelineLayout_T*, %struct.VkPipeline_T*, i32 }
%struct.VkPipelineShaderStageCreateInfo = type { i32, i8*, i32, i32, %struct.VkShaderModule_T*, i8*, %struct.VkSpecializationInfo* }
%struct.VkShaderModule_T = type opaque
%struct.VkSpecializationInfo = type { i32, %struct.VkSpecializationMapEntry*, i64, i8* }
%struct.VkSpecializationMapEntry = type { i32, i32, i64 }
%struct.VkDescriptorPoolCreateInfo = type { i32, i8*, i32, i32, i32, %struct.VkDescriptorPoolSize* }
%struct.VkDescriptorPoolSize = type { i32, i32 }
%struct.VkDescriptorSetLayoutCreateInfo = type { i32, i8*, i32, i32, %struct.VkDescriptorSetLayoutBinding* }
%struct.VkDescriptorSetLayoutBinding = type { i32, i32, i32, i32, %struct.VkSampler_T** }
%struct.VkSampler_T = type opaque
%struct.VkEventCreateInfo = type { i32, i8*, i32 }
%struct.VkFenceCreateInfo = type { i32, i8*, i32 }
%struct.VkFence_T = type opaque
%struct.VkFramebufferCreateInfo = type { i32, i8*, i32, %struct.VkRenderPass_T*, i32, %struct.VkImageView_T**, i32, i32, i32 }
%struct.VkImageView_T = type opaque
%struct.VkGraphicsPipelineCreateInfo = type { i32, i8*, i32, i32, %struct.VkPipelineShaderStageCreateInfo*, %struct.VkPipelineVertexInputStateCreateInfo*, %struct.VkPipelineInputAssemblyStateCreateInfo*, %struct.VkPipelineTessellationStateCreateInfo*, %struct.VkPipelineViewportStateCreateInfo*, %struct.VkPipelineRasterizationStateCreateInfo*, %struct.VkPipelineMultisampleStateCreateInfo*, %struct.VkPipelineDepthStencilStateCreateInfo*, %struct.VkPipelineColorBlendStateCreateInfo*, %struct.VkPipelineDynamicStateCreateInfo*, %struct.VkPipelineLayout_T*, %struct.VkRenderPass_T*, i32, %struct.VkPipeline_T*, i32 }
%struct.VkPipelineVertexInputStateCreateInfo = type { i32, i8*, i32, i32, %struct.VkVertexInputBindingDescription*, i32, %struct.VkVertexInputAttributeDescription* }
%struct.VkVertexInputBindingDescription = type { i32, i32, i32 }
%struct.VkVertexInputAttributeDescription = type { i32, i32, i32, i32 }
%struct.VkPipelineInputAssemblyStateCreateInfo = type { i32, i8*, i32, i32, i32 }
%struct.VkPipelineTessellationStateCreateInfo = type { i32, i8*, i32, i32 }
%struct.VkPipelineViewportStateCreateInfo = type { i32, i8*, i32, i32, %struct.VkViewport*, i32, %struct.VkRect2D* }
%struct.VkPipelineRasterizationStateCreateInfo = type { i32, i8*, i32, i32, i32, i32, i32, i32, i32, float, float, float, float }
%struct.VkPipelineMultisampleStateCreateInfo = type { i32, i8*, i32, i32, i32, float, i32*, i32, i32 }
%struct.VkPipelineDepthStencilStateCreateInfo = type { i32, i8*, i32, i32, i32, i32, i32, i32, %struct.VkStencilOpState, %struct.VkStencilOpState, float, float }
%struct.VkStencilOpState = type { i32, i32, i32, i32, i32, i32, i32 }
%struct.VkPipelineColorBlendStateCreateInfo = type { i32, i8*, i32, i32, i32, i32, %struct.VkPipelineColorBlendAttachmentState*, [4 x float] }
%struct.VkPipelineColorBlendAttachmentState = type { i32, i32, i32, i32, i32, i32, i32, i32 }
%struct.VkPipelineDynamicStateCreateInfo = type { i32, i8*, i32, i32, i32* }
%struct.VkImageCreateInfo = type { i32, i8*, i32, i32, i32, %struct.VkExtent3D, i32, i32, i32, i32, i32, i32, i32, i32*, i32 }
%struct.VkImageViewCreateInfo = type { i32, i8*, i32, %struct.VkImage_T*, i32, i32, %struct.VkComponentMapping, %struct.VkImageSubresourceRange }
%struct.VkComponentMapping = type { i32, i32, i32, i32 }
%struct.VkPipelineCacheCreateInfo = type { i32, i8*, i32, i64, i8* }
%struct.VkPipelineLayoutCreateInfo = type { i32, i8*, i32, i32, %struct.VkDescriptorSetLayout_T**, i32, %struct.VkPushConstantRange* }
%struct.VkPushConstantRange = type { i32, i32, i32 }
%struct.VkQueryPoolCreateInfo = type { i32, i8*, i32, i32, i32, i32 }
%struct.VkRenderPassCreateInfo = type { i32, i8*, i32, i32, %struct.VkAttachmentDescription*, i32, %struct.VkSubpassDescription*, i32, %struct.VkSubpassDependency* }
%struct.VkAttachmentDescription = type { i32, i32, i32, i32, i32, i32, i32, i32, i32 }
%struct.VkSubpassDescription = type { i32, i32, i32, %struct.VkAttachmentReference*, i32, %struct.VkAttachmentReference*, %struct.VkAttachmentReference*, %struct.VkAttachmentReference*, i32, i32* }
%struct.VkAttachmentReference = type { i32, i32 }
%struct.VkSubpassDependency = type { i32, i32, i32, i32, i32, i32, i32 }
%struct.VkSamplerCreateInfo = type { i32, i8*, i32, i32, i32, i32, i32, i32, i32, float, i32, float, i32, i32, float, float, i32, i32 }
%struct.VkSemaphoreCreateInfo = type { i32, i8*, i32 }
%struct.VkSemaphore_T = type opaque
%struct.VkShaderModuleCreateInfo = type { i32, i8*, i32, i64, i32* }
%struct.VkMemoryRequirements = type { i64, i64, i32 }
%struct.VkSparseImageMemoryRequirements = type { %struct.VkSparseImageFormatProperties, i32, i64, i64, i64 }
%struct.VkImageSubresource = type { i32, i32, i32 }
%struct.VkSubresourceLayout = type { i64, i64, i64, i64, i64 }
%struct.VkMappedMemoryRange = type { i32, i8*, %struct.VkDeviceMemory_T*, i64, i64 }
%struct.VkBindSparseInfo = type { i32, i8*, i32, %struct.VkSemaphore_T**, i32, %struct.VkSparseBufferMemoryBindInfo*, i32, %struct.VkSparseImageOpaqueMemoryBindInfo*, i32, %struct.VkSparseImageMemoryBindInfo*, i32, %struct.VkSemaphore_T** }
%struct.VkSparseBufferMemoryBindInfo = type { %struct.VkBuffer_T*, i32, %struct.VkSparseMemoryBind* }
%struct.VkSparseMemoryBind = type { i64, i64, %struct.VkDeviceMemory_T*, i64, i32 }
%struct.VkSparseImageOpaqueMemoryBindInfo = type { %struct.VkImage_T*, i32, %struct.VkSparseMemoryBind* }
%struct.VkSparseImageMemoryBindInfo = type { %struct.VkImage_T*, i32, %struct.VkSparseImageMemoryBind* }
%struct.VkSparseImageMemoryBind = type { %struct.VkImageSubresource, %struct.VkOffset3D, %struct.VkExtent3D, %struct.VkDeviceMemory_T*, i64, i32 }
%struct.VkSubmitInfo = type { i32, i8*, i32, %struct.VkSemaphore_T**, i32*, i32, %struct.VkCommandBuffer_T**, i32, %struct.VkSemaphore_T** }
%struct.VkWriteDescriptorSet = type { i32, i8*, %struct.VkDescriptorSet_T*, i32, i32, i32, i32, %struct.VkDescriptorImageInfo*, %struct.VkDescriptorBufferInfo*, %struct.VkBufferView_T** }
%struct.VkDescriptorImageInfo = type { %struct.VkSampler_T*, %struct.VkImageView_T*, i32 }
%struct.VkDescriptorBufferInfo = type { %struct.VkBuffer_T*, i64, i64 }
%struct.VkCopyDescriptorSet = type { i32, i8*, %struct.VkDescriptorSet_T*, i32, i32, %struct.VkDescriptorSet_T*, i32, i32, i32 }
%struct.VkSwapchainCreateInfoKHR = type { i32, i8*, i32, %struct.VkSurfaceKHR_T*, i32, i32, i32, %struct.VkExtent2D, i32, i32, i32, i32, i32*, i32, i32, i32, i32, %struct.VkSwapchainKHR_T* }
%struct.VkSwapchainKHR_T = type opaque
%struct.VkPresentInfoKHR = type { i32, i8*, i32, %struct.VkSemaphore_T**, i32, %struct.VkSwapchainKHR_T**, i32*, i32* }
%struct.VkMemoryGetFdInfoKHR = type { i32, i8*, %struct.VkDeviceMemory_T*, i32 }
%struct.VkMemoryFdPropertiesKHR = type { i32, i8*, i32 }
%struct.VkImportSemaphoreFdInfoKHR = type { i32, i8*, %struct.VkSemaphore_T*, i32, i32, i32 }
%struct.VkSemaphoreGetFdInfoKHR = type { i32, i8*, %struct.VkSemaphore_T*, i32 }
%"struct.dawn_native::vulkan::VulkanDeviceInfo" = type { %"struct.dawn_native::vulkan::VulkanDeviceKnobs", %struct.VkPhysicalDeviceProperties, %struct.VkPhysicalDeviceDriverProperties, %struct.VkPhysicalDeviceSubgroupSizeControlPropertiesEXT, %"class.std::__1::vector", %"class.std::__1::vector.50", %"class.std::__1::vector.57", %"class.std::__1::vector.64" }
%"struct.dawn_native::vulkan::VulkanDeviceKnobs" = type { %struct.VkPhysicalDeviceFeatures, %struct.VkPhysicalDeviceShaderFloat16Int8Features, %struct.VkPhysicalDevice16BitStorageFeatures, %struct.VkPhysicalDeviceSubgroupSizeControlFeaturesEXT, %"class.ityp::bitset" }
%struct.VkPhysicalDeviceShaderFloat16Int8Features = type { i32, i8*, i32, i32 }
%struct.VkPhysicalDevice16BitStorageFeatures = type { i32, i8*, i32, i32, i32, i32 }
%struct.VkPhysicalDeviceSubgroupSizeControlFeaturesEXT = type { i32, i8*, i32, i32 }
%"class.ityp::bitset" = type { %"class.std::__1::bitset.45" }
%"class.std::__1::bitset.45" = type { %"class.std::__1::__bitset.46" }
%"class.std::__1::__bitset.46" = type { i64 }
%struct.VkPhysicalDeviceDriverProperties = type { i32, i8*, i32, [256 x i8], [256 x i8], %struct.VkConformanceVersion }
%struct.VkConformanceVersion = type { i8, i8, i8, i8 }
%struct.VkPhysicalDeviceSubgroupSizeControlPropertiesEXT = type { i32, i8*, i32, i32, i32, i32 }
%"class.std::__1::vector" = type { %"class.std::__1::__vector_base" }
%"class.std::__1::__vector_base" = type { %struct.VkQueueFamilyProperties*, %struct.VkQueueFamilyProperties*, %"class.std::__1::__compressed_pair.47" }
%"class.std::__1::__compressed_pair.47" = type { %"struct.std::__1::__compressed_pair_elem.48" }
%"struct.std::__1::__compressed_pair_elem.48" = type { %struct.VkQueueFamilyProperties* }
%"class.std::__1::vector.50" = type { %"class.std::__1::__vector_base.51" }
%"class.std::__1::__vector_base.51" = type { %struct.VkMemoryType*, %struct.VkMemoryType*, %"class.std::__1::__compressed_pair.52" }
%"class.std::__1::__compressed_pair.52" = type { %"struct.std::__1::__compressed_pair_elem.53" }
%"struct.std::__1::__compressed_pair_elem.53" = type { %struct.VkMemoryType* }
%"class.std::__1::vector.57" = type { %"class.std::__1::__vector_base.58" }
%"class.std::__1::__vector_base.58" = type { %struct.VkMemoryHeap*, %struct.VkMemoryHeap*, %"class.std::__1::__compressed_pair.59" }
%"class.std::__1::__compressed_pair.59" = type { %"struct.std::__1::__compressed_pair_elem.60" }
%"struct.std::__1::__compressed_pair_elem.60" = type { %struct.VkMemoryHeap* }
%"class.std::__1::vector.64" = type { %"class.std::__1::__vector_base.65" }
%"class.std::__1::__vector_base.65" = type { %struct.VkLayerProperties*, %struct.VkLayerProperties*, %"class.std::__1::__compressed_pair.66" }
%"class.std::__1::__compressed_pair.66" = type { %"struct.std::__1::__compressed_pair_elem.67" }
%"struct.std::__1::__compressed_pair_elem.67" = type { %struct.VkLayerProperties* }
%struct.VkDevice_T = type opaque
%struct.VkQueue_T = type opaque
%class.SerialQueue = type { %class.SerialStorage }
%class.SerialStorage = type { %"class.std::__1::vector.71" }
%"class.std::__1::vector.71" = type { %"class.std::__1::__vector_base.72" }
%"class.std::__1::__vector_base.72" = type { %"struct.std::__1::pair"*, %"struct.std::__1::pair"*, %"class.std::__1::__compressed_pair.73" }
%"struct.std::__1::pair" = type opaque
%"class.std::__1::__compressed_pair.73" = type { %"struct.std::__1::__compressed_pair_elem.74" }
%"struct.std::__1::__compressed_pair_elem.74" = type { %"struct.std::__1::pair"* }
%"class.std::__1::unique_ptr.78" = type { %"class.std::__1::__compressed_pair.79" }
%"class.std::__1::__compressed_pair.79" = type { %"struct.std::__1::__compressed_pair_elem.80" }
%"struct.std::__1::__compressed_pair_elem.80" = type { %"class.dawn_native::vulkan::FencedDeleter"* }
%"class.dawn_native::vulkan::FencedDeleter" = type { %"class.dawn_native::vulkan::Device"*, %class.SerialQueue.81, %class.SerialQueue.91, %class.SerialQueue.101, %class.SerialQueue.111, %class.SerialQueue.121, %class.SerialQueue.131, %class.SerialQueue.141, %class.SerialQueue.151, %class.SerialQueue.161, %class.SerialQueue.171, %class.SerialQueue.181, %class.SerialQueue.191, %class.SerialQueue.201, %class.SerialQueue.211, %class.SerialQueue.221 }
%class.SerialQueue.81 = type { %class.SerialStorage.82 }
%class.SerialStorage.82 = type { %"class.std::__1::vector.83" }
%"class.std::__1::vector.83" = type { %"class.std::__1::__vector_base.84" }
%"class.std::__1::__vector_base.84" = type { %"struct.std::__1::pair.85"*, %"struct.std::__1::pair.85"*, %"class.std::__1::__compressed_pair.86" }
%"struct.std::__1::pair.85" = type opaque
%"class.std::__1::__compressed_pair.86" = type { %"struct.std::__1::__compressed_pair_elem.87" }
%"struct.std::__1::__compressed_pair_elem.87" = type { %"struct.std::__1::pair.85"* }
%class.SerialQueue.91 = type { %class.SerialStorage.92 }
%class.SerialStorage.92 = type { %"class.std::__1::vector.93" }
%"class.std::__1::vector.93" = type { %"class.std::__1::__vector_base.94" }
%"class.std::__1::__vector_base.94" = type { %"struct.std::__1::pair.95"*, %"struct.std::__1::pair.95"*, %"class.std::__1::__compressed_pair.96" }
%"struct.std::__1::pair.95" = type opaque
%"class.std::__1::__compressed_pair.96" = type { %"struct.std::__1::__compressed_pair_elem.97" }
%"struct.std::__1::__compressed_pair_elem.97" = type { %"struct.std::__1::pair.95"* }
%class.SerialQueue.101 = type { %class.SerialStorage.102 }
%class.SerialStorage.102 = type { %"class.std::__1::vector.103" }
%"class.std::__1::vector.103" = type { %"class.std::__1::__vector_base.104" }
%"class.std::__1::__vector_base.104" = type { %"struct.std::__1::pair.105"*, %"struct.std::__1::pair.105"*, %"class.std::__1::__compressed_pair.106" }
%"struct.std::__1::pair.105" = type opaque
%"class.std::__1::__compressed_pair.106" = type { %"struct.std::__1::__compressed_pair_elem.107" }
%"struct.std::__1::__compressed_pair_elem.107" = type { %"struct.std::__1::pair.105"* }
%class.SerialQueue.111 = type { %class.SerialStorage.112 }
%class.SerialStorage.112 = type { %"class.std::__1::vector.113" }
%"class.std::__1::vector.113" = type { %"class.std::__1::__vector_base.114" }
%"class.std::__1::__vector_base.114" = type { %"struct.std::__1::pair.115"*, %"struct.std::__1::pair.115"*, %"class.std::__1::__compressed_pair.116" }
%"struct.std::__1::pair.115" = type opaque
%"class.std::__1::__compressed_pair.116" = type { %"struct.std::__1::__compressed_pair_elem.117" }
%"struct.std::__1::__compressed_pair_elem.117" = type { %"struct.std::__1::pair.115"* }
%class.SerialQueue.121 = type { %class.SerialStorage.122 }
%class.SerialStorage.122 = type { %"class.std::__1::vector.123" }
%"class.std::__1::vector.123" = type { %"class.std::__1::__vector_base.124" }
%"class.std::__1::__vector_base.124" = type { %"struct.std::__1::pair.125"*, %"struct.std::__1::pair.125"*, %"class.std::__1::__compressed_pair.126" }
%"struct.std::__1::pair.125" = type opaque
%"class.std::__1::__compressed_pair.126" = type { %"struct.std::__1::__compressed_pair_elem.127" }
%"struct.std::__1::__compressed_pair_elem.127" = type { %"struct.std::__1::pair.125"* }
%class.SerialQueue.131 = type { %class.SerialStorage.132 }
%class.SerialStorage.132 = type { %"class.std::__1::vector.133" }
%"class.std::__1::vector.133" = type { %"class.std::__1::__vector_base.134" }
%"class.std::__1::__vector_base.134" = type { %"struct.std::__1::pair.135"*, %"struct.std::__1::pair.135"*, %"class.std::__1::__compressed_pair.136" }
%"struct.std::__1::pair.135" = type opaque
%"class.std::__1::__compressed_pair.136" = type { %"struct.std::__1::__compressed_pair_elem.137" }
%"struct.std::__1::__compressed_pair_elem.137" = type { %"struct.std::__1::pair.135"* }
%class.SerialQueue.141 = type { %class.SerialStorage.142 }
%class.SerialStorage.142 = type { %"class.std::__1::vector.143" }
%"class.std::__1::vector.143" = type { %"class.std::__1::__vector_base.144" }
%"class.std::__1::__vector_base.144" = type { %"struct.std::__1::pair.145"*, %"struct.std::__1::pair.145"*, %"class.std::__1::__compressed_pair.146" }
%"struct.std::__1::pair.145" = type opaque
%"class.std::__1::__compressed_pair.146" = type { %"struct.std::__1::__compressed_pair_elem.147" }
%"struct.std::__1::__compressed_pair_elem.147" = type { %"struct.std::__1::pair.145"* }
%class.SerialQueue.151 = type { %class.SerialStorage.152 }
%class.SerialStorage.152 = type { %"class.std::__1::vector.153" }
%"class.std::__1::vector.153" = type { %"class.std::__1::__vector_base.154" }
%"class.std::__1::__vector_base.154" = type { %"struct.std::__1::pair.155"*, %"struct.std::__1::pair.155"*, %"class.std::__1::__compressed_pair.156" }
%"struct.std::__1::pair.155" = type opaque
%"class.std::__1::__compressed_pair.156" = type { %"struct.std::__1::__compressed_pair_elem.157" }
%"struct.std::__1::__compressed_pair_elem.157" = type { %"struct.std::__1::pair.155"* }
%class.SerialQueue.161 = type { %class.SerialStorage.162 }
%class.SerialStorage.162 = type { %"class.std::__1::vector.163" }
%"class.std::__1::vector.163" = type { %"class.std::__1::__vector_base.164" }
%"class.std::__1::__vector_base.164" = type { %"struct.std::__1::pair.165"*, %"struct.std::__1::pair.165"*, %"class.std::__1::__compressed_pair.166" }
%"struct.std::__1::pair.165" = type opaque
%"class.std::__1::__compressed_pair.166" = type { %"struct.std::__1::__compressed_pair_elem.167" }
%"struct.std::__1::__compressed_pair_elem.167" = type { %"struct.std::__1::pair.165"* }
%class.SerialQueue.171 = type { %class.SerialStorage.172 }
%class.SerialStorage.172 = type { %"class.std::__1::vector.173" }
%"class.std::__1::vector.173" = type { %"class.std::__1::__vector_base.174" }
%"class.std::__1::__vector_base.174" = type { %"struct.std::__1::pair.175"*, %"struct.std::__1::pair.175"*, %"class.std::__1::__compressed_pair.176" }
%"struct.std::__1::pair.175" = type opaque
%"class.std::__1::__compressed_pair.176" = type { %"struct.std::__1::__compressed_pair_elem.177" }
%"struct.std::__1::__compressed_pair_elem.177" = type { %"struct.std::__1::pair.175"* }
%class.SerialQueue.181 = type { %class.SerialStorage.182 }
%class.SerialStorage.182 = type { %"class.std::__1::vector.183" }
%"class.std::__1::vector.183" = type { %"class.std::__1::__vector_base.184" }
%"class.std::__1::__vector_base.184" = type { %"struct.std::__1::pair.185"*, %"struct.std::__1::pair.185"*, %"class.std::__1::__compressed_pair.186" }
%"struct.std::__1::pair.185" = type opaque
%"class.std::__1::__compressed_pair.186" = type { %"struct.std::__1::__compressed_pair_elem.187" }
%"struct.std::__1::__compressed_pair_elem.187" = type { %"struct.std::__1::pair.185"* }
%class.SerialQueue.191 = type { %class.SerialStorage.192 }
%class.SerialStorage.192 = type { %"class.std::__1::vector.193" }
%"class.std::__1::vector.193" = type { %"class.std::__1::__vector_base.194" }
%"class.std::__1::__vector_base.194" = type { %"struct.std::__1::pair.195"*, %"struct.std::__1::pair.195"*, %"class.std::__1::__compressed_pair.196" }
%"struct.std::__1::pair.195" = type opaque
%"class.std::__1::__compressed_pair.196" = type { %"struct.std::__1::__compressed_pair_elem.197" }
%"struct.std::__1::__compressed_pair_elem.197" = type { %"struct.std::__1::pair.195"* }
%class.SerialQueue.201 = type { %class.SerialStorage.202 }
%class.SerialStorage.202 = type { %"class.std::__1::vector.203" }
%"class.std::__1::vector.203" = type { %"class.std::__1::__vector_base.204" }
%"class.std::__1::__vector_base.204" = type { %"struct.std::__1::pair.205"*, %"struct.std::__1::pair.205"*, %"class.std::__1::__compressed_pair.206" }
%"struct.std::__1::pair.205" = type opaque
%"class.std::__1::__compressed_pair.206" = type { %"struct.std::__1::__compressed_pair_elem.207" }
%"struct.std::__1::__compressed_pair_elem.207" = type { %"struct.std::__1::pair.205"* }
%class.SerialQueue.211 = type { %class.SerialStorage.212 }
%class.SerialStorage.212 = type { %"class.std::__1::vector.213" }
%"class.std::__1::vector.213" = type { %"class.std::__1::__vector_base.214" }
%"class.std::__1::__vector_base.214" = type { %"struct.std::__1::pair.215"*, %"struct.std::__1::pair.215"*, %"class.std::__1::__compressed_pair.216" }
%"struct.std::__1::pair.215" = type opaque
%"class.std::__1::__compressed_pair.216" = type { %"struct.std::__1::__compressed_pair_elem.217" }
%"struct.std::__1::__compressed_pair_elem.217" = type { %"struct.std::__1::pair.215"* }
%class.SerialQueue.221 = type { %class.SerialStorage.222 }
%class.SerialStorage.222 = type { %"class.std::__1::vector.223" }
%"class.std::__1::vector.223" = type { %"class.std::__1::__vector_base.224" }
%"class.std::__1::__vector_base.224" = type { %"struct.std::__1::pair.225"*, %"struct.std::__1::pair.225"*, %"class.std::__1::__compressed_pair.226" }
%"struct.std::__1::pair.225" = type opaque
%"class.std::__1::__compressed_pair.226" = type { %"struct.std::__1::__compressed_pair_elem.227" }
%"struct.std::__1::__compressed_pair_elem.227" = type { %"struct.std::__1::pair.225"* }
%"class.std::__1::unique_ptr.234" = type { %"class.std::__1::__compressed_pair.235" }
%"class.std::__1::__compressed_pair.235" = type { %"struct.std::__1::__compressed_pair_elem.236" }
%"struct.std::__1::__compressed_pair_elem.236" = type { %"class.dawn_native::vulkan::ResourceMemoryAllocator"* }
%"class.std::__1::unique_ptr.240" = type { %"class.std::__1::__compressed_pair.241" }
%"class.std::__1::__compressed_pair.241" = type { %"struct.std::__1::__compressed_pair_elem.242" }
%"struct.std::__1::__compressed_pair_elem.242" = type { %"class.dawn_native::vulkan::RenderPassCache"* }
%"class.dawn_native::vulkan::RenderPassCache" = type opaque
%"class.std::__1::unique_ptr.246" = type { %"class.std::__1::__compressed_pair.247" }
%"class.std::__1::__compressed_pair.247" = type { %"struct.std::__1::__compressed_pair_elem.248" }
%"struct.std::__1::__compressed_pair_elem.248" = type { %"class.dawn_native::vulkan::external_memory::Service"* }
%"class.dawn_native::vulkan::external_memory::Service" = type <{ %"class.dawn_native::vulkan::Device"*, i8, [7 x i8] }>
%"class.std::__1::unique_ptr.252" = type { %"class.std::__1::__compressed_pair.253" }
%"class.std::__1::__compressed_pair.253" = type { %"struct.std::__1::__compressed_pair_elem.254" }
%"struct.std::__1::__compressed_pair_elem.254" = type { %"class.dawn_native::vulkan::external_semaphore::Service"* }
%"class.dawn_native::vulkan::external_semaphore::Service" = type <{ %"class.dawn_native::vulkan::Device"*, i8, [7 x i8] }>
%"class.std::__1::queue" = type { %"class.std::__1::deque" }
%"class.std::__1::deque" = type { %"class.std::__1::__deque_base" }
%"class.std::__1::__deque_base" = type { %"struct.std::__1::__split_buffer", i64, %"class.std::__1::__compressed_pair.264" }
%"struct.std::__1::__split_buffer" = type { %"struct.std::__1::pair.258"**, %"struct.std::__1::pair.258"**, %"struct.std::__1::pair.258"**, %"class.std::__1::__compressed_pair.259" }
%"struct.std::__1::pair.258" = type opaque
%"class.std::__1::__compressed_pair.259" = type { %"struct.std::__1::__compressed_pair_elem.260" }
%"struct.std::__1::__compressed_pair_elem.260" = type { %"struct.std::__1::pair.258"** }
%"class.std::__1::__compressed_pair.264" = type { %"struct.std::__1::__compressed_pair_elem.265" }
%"class.std::__1::vector.269" = type { %"class.std::__1::__vector_base.270" }
%"class.std::__1::__vector_base.270" = type { %"class.dawn_native::vulkan::detail::VkHandle"*, %"class.dawn_native::vulkan::detail::VkHandle"*, %"class.std::__1::__compressed_pair.271" }
%"class.dawn_native::vulkan::detail::VkHandle" = type { %struct.VkFence_T* }
%"class.std::__1::__compressed_pair.271" = type { %"struct.std::__1::__compressed_pair_elem.272" }
%"struct.std::__1::__compressed_pair_elem.272" = type { %"class.dawn_native::vulkan::detail::VkHandle"* }
%class.SerialQueue.276 = type { %class.SerialStorage.277 }
%class.SerialStorage.277 = type { %"class.std::__1::vector.278" }
%"class.std::__1::vector.278" = type { %"class.std::__1::__vector_base.279" }
%"class.std::__1::__vector_base.279" = type { %"struct.std::__1::pair.280"*, %"struct.std::__1::pair.280"*, %"class.std::__1::__compressed_pair.281" }
%"struct.std::__1::pair.280" = type opaque
%"class.std::__1::__compressed_pair.281" = type { %"struct.std::__1::__compressed_pair_elem.282" }
%"struct.std::__1::__compressed_pair_elem.282" = type { %"struct.std::__1::pair.280"* }
%"class.std::__1::vector.286" = type { %"class.std::__1::__vector_base.287" }
%"class.std::__1::__vector_base.287" = type { %"struct.dawn_native::vulkan::Device::CommandPoolAndBuffer"*, %"struct.dawn_native::vulkan::Device::CommandPoolAndBuffer"*, %"class.std::__1::__compressed_pair.289" }
%"struct.dawn_native::vulkan::Device::CommandPoolAndBuffer" = type { %"class.dawn_native::vulkan::detail::VkHandle.288", %struct.VkCommandBuffer_T* }
%"class.dawn_native::vulkan::detail::VkHandle.288" = type { %struct.VkCommandPool_T* }
%"class.std::__1::__compressed_pair.289" = type { %"struct.std::__1::__compressed_pair_elem.290" }
%"struct.std::__1::__compressed_pair_elem.290" = type { %"struct.dawn_native::vulkan::Device::CommandPoolAndBuffer"* }
%"struct.dawn_native::vulkan::CommandRecordingContext" = type <{ %struct.VkCommandBuffer_T*, %"class.std::__1::vector.294", %"class.std::__1::vector.294", %"class.std::__1::vector.302", %"class.dawn_native::vulkan::detail::VkHandle.288", i8, [7 x i8] }>
%"class.std::__1::vector.294" = type { %"class.std::__1::__vector_base.295" }
%"class.std::__1::__vector_base.295" = type { %"class.dawn_native::vulkan::detail::VkHandle.296"*, %"class.dawn_native::vulkan::detail::VkHandle.296"*, %"class.std::__1::__compressed_pair.297" }
%"class.dawn_native::vulkan::detail::VkHandle.296" = type { %struct.VkSemaphore_T* }
%"class.std::__1::__compressed_pair.297" = type { %"struct.std::__1::__compressed_pair_elem.298" }
%"struct.std::__1::__compressed_pair_elem.298" = type { %"class.dawn_native::vulkan::detail::VkHandle.296"* }
%"class.std::__1::vector.302" = type { %"class.std::__1::__vector_base.303" }
%"class.std::__1::__vector_base.303" = type { %class.Ref.304*, %class.Ref.304*, %"class.std::__1::__compressed_pair.305" }
%class.Ref.304 = type opaque
%"class.std::__1::__compressed_pair.305" = type { %"struct.std::__1::__compressed_pair_elem.306" }
%"struct.std::__1::__compressed_pair_elem.306" = type { %class.Ref.304* }
%class.Result = type { i32, %"class.std::__1::unique_ptr.365", %"class.dawn_native::ResourceMemoryAllocation" }
%"class.std::__1::unique_ptr.365" = type { %"class.std::__1::__compressed_pair.366" }
%"class.std::__1::__compressed_pair.366" = type { %"struct.std::__1::__compressed_pair_elem.367" }
%"struct.std::__1::__compressed_pair_elem.367" = type { %"class.dawn_native::ErrorData"* }
%"class.dawn_native::ErrorData" = type { i32, %"class.std::__1::basic_string", %"class.std::__1::vector.374" }
%"class.std::__1::basic_string" = type { %"class.std::__1::__compressed_pair.368" }
%"class.std::__1::__compressed_pair.368" = type { %"struct.std::__1::__compressed_pair_elem.369" }
%"struct.std::__1::__compressed_pair_elem.369" = type { %"struct.std::__1::basic_string<char, std::__1::char_traits<char>, std::__1::allocator<char> >::__rep" }
%"struct.std::__1::basic_string<char, std::__1::char_traits<char>, std::__1::allocator<char> >::__rep" = type { %union.anon.370 }
%union.anon.370 = type { %"struct.std::__1::basic_string<char, std::__1::char_traits<char>, std::__1::allocator<char> >::__long" }
%"struct.std::__1::basic_string<char, std::__1::char_traits<char>, std::__1::allocator<char> >::__long" = type { i8*, i64, i64 }
%"class.std::__1::vector.374" = type { %"class.std::__1::__vector_base.375" }
%"class.std::__1::__vector_base.375" = type { %"struct.dawn_native::ErrorData::BacktraceRecord"*, %"struct.dawn_native::ErrorData::BacktraceRecord"*, %"class.std::__1::__compressed_pair.376" }
%"struct.dawn_native::ErrorData::BacktraceRecord" = type { i8*, i8*, i32 }
%"class.std::__1::__compressed_pair.376" = type { %"struct.std::__1::__compressed_pair_elem.377" }
%"struct.std::__1::__compressed_pair_elem.377" = type { %"struct.dawn_native::ErrorData::BacktraceRecord"* }
%class.Result.384 = type { i32, %"class.std::__1::unique_ptr.365", %"class.std::__1::unique_ptr.318" }
%class.Result.385 = type { %"class.std::__1::unique_ptr.365" }
%"struct.std::__1::basic_string<char, std::__1::char_traits<char>, std::__1::allocator<char> >::__short" = type { [23 x i8], %struct.anon }
%struct.anon = type { i8 }
%"class.dawn_native::vulkan::ResourceHeap" = type { %"class.dawn_native::ResourceHeapBase", %"class.dawn_native::vulkan::detail::VkHandle.386", i64 }
%"class.dawn_native::vulkan::detail::VkHandle.386" = type { %struct.VkDeviceMemory_T* }
%"class.std::__1::__vector_base_common" = type { i8 }

$_ZNSt3__16vectorINS_10unique_ptrIN11dawn_native6vulkan23ResourceMemoryAllocator19SingleTypeAllocatorENS_14default_deleteIS5_EEEENS_9allocatorIS8_EEE7reserveEm = comdat any

$_ZN11SerialQueueImN11dawn_native24ResourceMemoryAllocationEE7EnqueueERKS1_m = comdat any

$_ZN11dawn_native6vulkan23ResourceMemoryAllocator19SingleTypeAllocatorD2Ev = comdat any

$_ZN11dawn_native6vulkan23ResourceMemoryAllocator19SingleTypeAllocatorD0Ev = comdat any

$_ZN11dawn_native6vulkan23ResourceMemoryAllocator19SingleTypeAllocator20AllocateResourceHeapEm = comdat any

$_ZN11dawn_native6vulkan23ResourceMemoryAllocator19SingleTypeAllocator22DeallocateResourceHeapENSt3__110unique_ptrINS_16ResourceHeapBaseENS3_14default_deleteIS5_EEEE = comdat any

$_ZNSt3__112__deque_baseINS_10unique_ptrIN11dawn_native16ResourceHeapBaseENS_14default_deleteIS3_EEEENS_9allocatorIS6_EEE5clearEv = comdat any

$_ZNSt3__16vectorINS_10unique_ptrIN11dawn_native6vulkan23ResourceMemoryAllocator19SingleTypeAllocatorENS_14default_deleteIS5_EEEENS_9allocatorIS8_EEE24__emplace_back_slow_pathIJS8_EEEvDpOT_ = comdat any

$_ZNSt3__16vectorINS_4pairImNS0_IN11dawn_native24ResourceMemoryAllocationENS_9allocatorIS3_EEEEEENS4_IS7_EEE24__emplace_back_slow_pathIJRmS6_EEEvDpOT_ = comdat any

$_ZNSt3__16vectorINS_4pairImNS0_IN11dawn_native24ResourceMemoryAllocationENS_9allocatorIS3_EEEEEENS4_IS7_EEE5eraseENS_11__wrap_iterIPKS7_EESD_ = comdat any

$_ZTVN11dawn_native6vulkan23ResourceMemoryAllocator19SingleTypeAllocatorE = comdat any

@.str = private unnamed_addr constant [76 x i8] c"../../third_party/dawn/src/dawn_native/vulkan/ResourceMemoryAllocatorVk.cpp\00", align 1
@__func__._ZN11dawn_native6vulkan23ResourceMemoryAllocator8AllocateERK20VkMemoryRequirementsb = private unnamed_addr constant [9 x i8] c"Allocate\00", align 1
@.str.1 = private unnamed_addr constant [12 x i8] c"vkMapMemory\00", align 1
@_ZTVN11dawn_native6vulkan23ResourceMemoryAllocator19SingleTypeAllocatorE = linkonce_odr hidden unnamed_addr constant { [6 x i8*] } { [6 x i8*] [i8* null, i8* null, i8* bitcast (void (%"class.dawn_native::vulkan::ResourceMemoryAllocator::SingleTypeAllocator"*)* @_ZN11dawn_native6vulkan23ResourceMemoryAllocator19SingleTypeAllocatorD2Ev to i8*), i8* bitcast (void (%"class.dawn_native::vulkan::ResourceMemoryAllocator::SingleTypeAllocator"*)* @_ZN11dawn_native6vulkan23ResourceMemoryAllocator19SingleTypeAllocatorD0Ev to i8*), i8* bitcast (void (%class.Result.384*, %"class.dawn_native::vulkan::ResourceMemoryAllocator::SingleTypeAllocator"*, i64)* @_ZN11dawn_native6vulkan23ResourceMemoryAllocator19SingleTypeAllocator20AllocateResourceHeapEm to i8*), i8* bitcast (void (%"class.dawn_native::vulkan::ResourceMemoryAllocator::SingleTypeAllocator"*, %"class.dawn_native::ResourceHeapBase"*)* @_ZN11dawn_native6vulkan23ResourceMemoryAllocator19SingleTypeAllocator22DeallocateResourceHeapENSt3__110unique_ptrINS_16ResourceHeapBaseENS3_14default_deleteIS5_EEEE to i8*)] }, comdat, align 8
@_ZTVN11dawn_native29PooledResourceMemoryAllocatorE = external unnamed_addr constant { [6 x i8*] }, align 8
@.str.3 = private unnamed_addr constant [26 x i8] c"Allocation size too large\00", align 1
@__func__._ZN11dawn_native6vulkan23ResourceMemoryAllocator19SingleTypeAllocator20AllocateResourceHeapEm = private unnamed_addr constant [21 x i8] c"AllocateResourceHeap\00", align 1
@.str.4 = private unnamed_addr constant [17 x i8] c"vkAllocateMemory\00", align 1
@_ZTVN11dawn_native24ResourceMemoryAllocationE = external unnamed_addr constant { [5 x i8*] }, align 8

@_ZN11dawn_native6vulkan23ResourceMemoryAllocatorC1EPNS0_6DeviceE = hidden unnamed_addr alias void (%"class.dawn_native::vulkan::ResourceMemoryAllocator"*, %"class.dawn_native::vulkan::Device"*), void (%"class.dawn_native::vulkan::ResourceMemoryAllocator"*, %"class.dawn_native::vulkan::Device"*)* @_ZN11dawn_native6vulkan23ResourceMemoryAllocatorC2EPNS0_6DeviceE
@_ZN11dawn_native6vulkan23ResourceMemoryAllocatorD1Ev = hidden unnamed_addr alias void (%"class.dawn_native::vulkan::ResourceMemoryAllocator"*), void (%"class.dawn_native::vulkan::ResourceMemoryAllocator"*)* @_ZN11dawn_native6vulkan23ResourceMemoryAllocatorD2Ev

; Function Attrs: nounwind ssp uwtable
define hidden void @_ZN11dawn_native6vulkan23ResourceMemoryAllocatorC2EPNS0_6DeviceE(%"class.dawn_native::vulkan::ResourceMemoryAllocator"*, %"class.dawn_native::vulkan::Device"*) unnamed_addr #0 align 2 {
  %3 = alloca %"class.std::__1::unique_ptr.312", align 8
  %4 = getelementptr inbounds %"class.dawn_native::vulkan::ResourceMemoryAllocator", %"class.dawn_native::vulkan::ResourceMemoryAllocator"* %0, i64 0, i32 0
  store %"class.dawn_native::vulkan::Device"* %1, %"class.dawn_native::vulkan::Device"** %4, align 8
  %5 = getelementptr inbounds %"class.dawn_native::vulkan::ResourceMemoryAllocator", %"class.dawn_native::vulkan::ResourceMemoryAllocator"* %0, i64 0, i32 1
  %6 = bitcast %"class.std::__1::vector.310"* %5 to i8*
  call void @llvm.memset.p0i8.i64(i8* align 8 %6, i8 0, i64 48, i1 false)
  %7 = tail call dereferenceable(1800) %"struct.dawn_native::vulkan::VulkanDeviceInfo"* @_ZNK11dawn_native6vulkan6Device13GetDeviceInfoEv(%"class.dawn_native::vulkan::Device"* %1) #9
  %8 = getelementptr inbounds %"struct.dawn_native::vulkan::VulkanDeviceInfo", %"struct.dawn_native::vulkan::VulkanDeviceInfo"* %7, i64 0, i32 5
  %9 = getelementptr inbounds %"struct.dawn_native::vulkan::VulkanDeviceInfo", %"struct.dawn_native::vulkan::VulkanDeviceInfo"* %7, i64 0, i32 5, i32 0, i32 1
  %10 = bitcast %struct.VkMemoryType** %9 to i64*
  %11 = load i64, i64* %10, align 8
  %12 = bitcast %"class.std::__1::vector.50"* %8 to i64*
  %13 = load i64, i64* %12, align 8
  %14 = sub i64 %11, %13
  %15 = ashr exact i64 %14, 3
  tail call void @_ZNSt3__16vectorINS_10unique_ptrIN11dawn_native6vulkan23ResourceMemoryAllocator19SingleTypeAllocatorENS_14default_deleteIS5_EEEENS_9allocatorIS8_EEE7reserveEm(%"class.std::__1::vector.310"* %5, i64 %15)
  %16 = load i64, i64* %10, align 8
  %17 = load i64, i64* %12, align 8
  %18 = icmp eq i64 %16, %17
  br i1 %18, label %28, label %19

19:                                               ; preds = %2
  %20 = bitcast %"class.std::__1::unique_ptr.312"* %3 to i8*
  %21 = getelementptr inbounds %"struct.dawn_native::vulkan::VulkanDeviceInfo", %"struct.dawn_native::vulkan::VulkanDeviceInfo"* %7, i64 0, i32 6, i32 0, i32 0
  %22 = bitcast %"class.dawn_native::vulkan::ResourceMemoryAllocator"* %0 to i64*
  %23 = getelementptr inbounds %"class.std::__1::unique_ptr.312", %"class.std::__1::unique_ptr.312"* %3, i64 0, i32 0, i32 0, i32 0
  %24 = bitcast %"class.std::__1::unique_ptr.312"* %3 to i8**
  %25 = getelementptr inbounds %"class.dawn_native::vulkan::ResourceMemoryAllocator", %"class.dawn_native::vulkan::ResourceMemoryAllocator"* %0, i64 0, i32 1, i32 0, i32 1
  %26 = getelementptr inbounds %"class.dawn_native::vulkan::ResourceMemoryAllocator", %"class.dawn_native::vulkan::ResourceMemoryAllocator"* %0, i64 0, i32 1, i32 0, i32 2, i32 0, i32 0
  %27 = bitcast %"class.std::__1::unique_ptr.312"** %25 to i64*
  br label %29

28:                                               ; preds = %81, %2
  ret void

29:                                               ; preds = %19, %81
  %30 = phi i64 [ %17, %19 ], [ %84, %81 ]
  %31 = phi i64 [ 0, %19 ], [ %82, %81 ]
  %32 = inttoptr i64 %30 to %struct.VkMemoryType*
  call void @llvm.lifetime.start.p0i8(i64 8, i8* nonnull %20) #9
  %33 = getelementptr inbounds %struct.VkMemoryType, %struct.VkMemoryType* %32, i64 %31, i32 1
  %34 = load i32, i32* %33, align 4
  %35 = zext i32 %34 to i64
  %36 = load %struct.VkMemoryHeap*, %struct.VkMemoryHeap** %21, align 8
  %37 = getelementptr inbounds %struct.VkMemoryHeap, %struct.VkMemoryHeap* %36, i64 %35, i32 0
  %38 = call i8* @_Znwm(i64 176) #10
  %39 = load i64, i64* %22, align 8
  %40 = load i64, i64* %37, align 8
  %41 = bitcast i8* %38 to %"class.dawn_native::ResourceHeapAllocator"*
  %42 = bitcast i8* %38 to i32 (...)***
  store i32 (...)** bitcast (i8** getelementptr inbounds ({ [6 x i8*] }, { [6 x i8*] }* @_ZTVN11dawn_native6vulkan23ResourceMemoryAllocator19SingleTypeAllocatorE, i64 0, inrange i32 0, i64 2) to i32 (...)**), i32 (...)*** %42, align 8
  %43 = getelementptr inbounds i8, i8* %38, i64 8
  %44 = bitcast i8* %43 to i64*
  store i64 %39, i64* %44, align 8
  %45 = getelementptr inbounds i8, i8* %38, i64 16
  %46 = bitcast i8* %45 to i64*
  store i64 %31, i64* %46, align 8
  %47 = getelementptr inbounds i8, i8* %38, i64 24
  %48 = bitcast i8* %47 to i64*
  store i64 %40, i64* %48, align 8
  %49 = getelementptr inbounds i8, i8* %38, i64 32
  %50 = bitcast i8* %49 to %"class.dawn_native::PooledResourceMemoryAllocator"*
  call void @_ZN11dawn_native29PooledResourceMemoryAllocatorC1EPNS_21ResourceHeapAllocatorE(%"class.dawn_native::PooledResourceMemoryAllocator"* %50, %"class.dawn_native::ResourceHeapAllocator"* nonnull %41) #9
  %51 = getelementptr inbounds i8, i8* %38, i64 96
  %52 = bitcast i8* %51 to %"class.dawn_native::BuddyMemoryAllocator"*
  %53 = load i64, i64* %48, align 8
  %54 = call i32 @_Z4Log2m(i64 %53) #9
  %55 = zext i32 %54 to i64
  %56 = shl i64 1, %55
  %57 = load i64, i64* %48, align 8
  %58 = call i32 @_Z4Log2m(i64 %57) #9
  %59 = zext i32 %58 to i64
  %60 = shl i64 1, %59
  %61 = icmp ult i64 %60, 8388608
  %62 = select i1 %61, i64 %60, i64 8388608
  %63 = bitcast i8* %49 to %"class.dawn_native::ResourceHeapAllocator"*
  call void @_ZN11dawn_native20BuddyMemoryAllocatorC1EmmPNS_21ResourceHeapAllocatorE(%"class.dawn_native::BuddyMemoryAllocator"* %52, i64 %56, i64 %62, %"class.dawn_native::ResourceHeapAllocator"* %63) #9
  store i8* %38, i8** %24, align 8
  %64 = load %"class.std::__1::unique_ptr.312"*, %"class.std::__1::unique_ptr.312"** %25, align 8
  %65 = load %"class.std::__1::unique_ptr.312"*, %"class.std::__1::unique_ptr.312"** %26, align 8
  %66 = icmp ult %"class.std::__1::unique_ptr.312"* %64, %65
  br i1 %66, label %67, label %72

67:                                               ; preds = %29
  %68 = ptrtoint i8* %38 to i64
  store %"class.dawn_native::vulkan::ResourceMemoryAllocator::SingleTypeAllocator"* null, %"class.dawn_native::vulkan::ResourceMemoryAllocator::SingleTypeAllocator"** %23, align 8
  %69 = bitcast %"class.std::__1::unique_ptr.312"* %64 to i64*
  store i64 %68, i64* %69, align 8
  %70 = getelementptr inbounds %"class.std::__1::unique_ptr.312", %"class.std::__1::unique_ptr.312"* %64, i64 1
  %71 = ptrtoint %"class.std::__1::unique_ptr.312"* %70 to i64
  store i64 %71, i64* %27, align 8
  br label %73

72:                                               ; preds = %29
  call void @_ZNSt3__16vectorINS_10unique_ptrIN11dawn_native6vulkan23ResourceMemoryAllocator19SingleTypeAllocatorENS_14default_deleteIS5_EEEENS_9allocatorIS8_EEE24__emplace_back_slow_pathIJS8_EEEvDpOT_(%"class.std::__1::vector.310"* %5, %"class.std::__1::unique_ptr.312"* nonnull dereferenceable(8) %3) #9
  br label %73

73:                                               ; preds = %67, %72
  %74 = load %"class.dawn_native::vulkan::ResourceMemoryAllocator::SingleTypeAllocator"*, %"class.dawn_native::vulkan::ResourceMemoryAllocator::SingleTypeAllocator"** %23, align 8
  store %"class.dawn_native::vulkan::ResourceMemoryAllocator::SingleTypeAllocator"* null, %"class.dawn_native::vulkan::ResourceMemoryAllocator::SingleTypeAllocator"** %23, align 8
  %75 = icmp eq %"class.dawn_native::vulkan::ResourceMemoryAllocator::SingleTypeAllocator"* %74, null
  br i1 %75, label %81, label %76

76:                                               ; preds = %73
  %77 = bitcast %"class.dawn_native::vulkan::ResourceMemoryAllocator::SingleTypeAllocator"* %74 to void (%"class.dawn_native::vulkan::ResourceMemoryAllocator::SingleTypeAllocator"*)***
  %78 = load void (%"class.dawn_native::vulkan::ResourceMemoryAllocator::SingleTypeAllocator"*)**, void (%"class.dawn_native::vulkan::ResourceMemoryAllocator::SingleTypeAllocator"*)*** %77, align 8
  %79 = getelementptr inbounds void (%"class.dawn_native::vulkan::ResourceMemoryAllocator::SingleTypeAllocator"*)*, void (%"class.dawn_native::vulkan::ResourceMemoryAllocator::SingleTypeAllocator"*)** %78, i64 1
  %80 = load void (%"class.dawn_native::vulkan::ResourceMemoryAllocator::SingleTypeAllocator"*)*, void (%"class.dawn_native::vulkan::ResourceMemoryAllocator::SingleTypeAllocator"*)** %79, align 8
  call void %80(%"class.dawn_native::vulkan::ResourceMemoryAllocator::SingleTypeAllocator"* nonnull %74) #9
  br label %81

81:                                               ; preds = %73, %76
  call void @llvm.lifetime.end.p0i8(i64 8, i8* nonnull %20) #9
  %82 = add nuw i64 %31, 1
  %83 = load i64, i64* %10, align 8
  %84 = load i64, i64* %12, align 8
  %85 = sub i64 %83, %84
  %86 = ashr exact i64 %85, 3
  %87 = icmp ult i64 %82, %86
  br i1 %87, label %29, label %28
}

; Function Attrs: argmemonly nounwind
declare void @llvm.lifetime.start.p0i8(i64 immarg, i8* nocapture) #1

declare dereferenceable(1800) %"struct.dawn_native::vulkan::VulkanDeviceInfo"* @_ZNK11dawn_native6vulkan6Device13GetDeviceInfoEv(%"class.dawn_native::vulkan::Device"*) local_unnamed_addr #2

; Function Attrs: nounwind ssp uwtable
define linkonce_odr hidden void @_ZNSt3__16vectorINS_10unique_ptrIN11dawn_native6vulkan23ResourceMemoryAllocator19SingleTypeAllocatorENS_14default_deleteIS5_EEEENS_9allocatorIS8_EEE7reserveEm(%"class.std::__1::vector.310"*, i64) local_unnamed_addr #0 comdat align 2 {
  %3 = getelementptr inbounds %"class.std::__1::vector.310", %"class.std::__1::vector.310"* %0, i64 0, i32 0, i32 2, i32 0, i32 0
  %4 = bitcast %"class.std::__1::unique_ptr.312"** %3 to i64*
  %5 = load i64, i64* %4, align 8
  %6 = bitcast %"class.std::__1::vector.310"* %0 to i64*
  %7 = load i64, i64* %6, align 8
  %8 = sub i64 %5, %7
  %9 = ashr exact i64 %8, 3
  %10 = icmp ult i64 %9, %1
  %11 = inttoptr i64 %7 to %"class.std::__1::unique_ptr.312"*
  br i1 %10, label %12, label %135

12:                                               ; preds = %2
  %13 = getelementptr inbounds %"class.std::__1::vector.310", %"class.std::__1::vector.310"* %0, i64 0, i32 0, i32 1
  %14 = bitcast %"class.std::__1::unique_ptr.312"** %13 to i64*
  %15 = icmp ugt i64 %1, 2305843009213693951
  br i1 %15, label %16, label %17

16:                                               ; preds = %12
  tail call void @abort() #11
  unreachable

17:                                               ; preds = %12
  %18 = load i64, i64* %14, align 8
  %19 = sub i64 %18, %7
  %20 = ashr exact i64 %19, 3
  %21 = shl i64 %1, 3
  %22 = tail call i8* @_Znwm(i64 %21) #10
  %23 = bitcast i8* %22 to %"class.std::__1::unique_ptr.312"*
  %24 = getelementptr inbounds %"class.std::__1::unique_ptr.312", %"class.std::__1::unique_ptr.312"* %23, i64 %20
  %25 = ptrtoint %"class.std::__1::unique_ptr.312"* %24 to i64
  %26 = getelementptr inbounds %"class.std::__1::unique_ptr.312", %"class.std::__1::unique_ptr.312"* %23, i64 %1
  %27 = ptrtoint %"class.std::__1::unique_ptr.312"* %26 to i64
  %28 = inttoptr i64 %18 to %"class.std::__1::unique_ptr.312"*
  %29 = icmp eq %"class.std::__1::unique_ptr.312"* %28, %11
  br i1 %29, label %57, label %30

30:                                               ; preds = %17
  %31 = getelementptr %"class.std::__1::unique_ptr.312", %"class.std::__1::unique_ptr.312"* %28, i64 -1, i32 0, i32 0, i32 0
  %32 = bitcast %"class.dawn_native::vulkan::ResourceMemoryAllocator::SingleTypeAllocator"** %31 to i8*
  %33 = sub i64 0, %7
  %34 = getelementptr i8, i8* %32, i64 %33
  %35 = ptrtoint i8* %34 to i64
  %36 = lshr i64 %35, 3
  %37 = add nuw nsw i64 %36, 1
  %38 = and i64 %37, 7
  %39 = icmp eq i64 %38, 0
  br i1 %39, label %52, label %40

40:                                               ; preds = %30, %40
  %41 = phi %"class.std::__1::unique_ptr.312"* [ %44, %40 ], [ %24, %30 ]
  %42 = phi %"class.std::__1::unique_ptr.312"* [ %45, %40 ], [ %28, %30 ]
  %43 = phi i64 [ %50, %40 ], [ %38, %30 ]
  %44 = getelementptr inbounds %"class.std::__1::unique_ptr.312", %"class.std::__1::unique_ptr.312"* %41, i64 -1
  %45 = getelementptr inbounds %"class.std::__1::unique_ptr.312", %"class.std::__1::unique_ptr.312"* %42, i64 -1
  %46 = getelementptr inbounds %"class.std::__1::unique_ptr.312", %"class.std::__1::unique_ptr.312"* %45, i64 0, i32 0, i32 0, i32 0
  %47 = bitcast %"class.std::__1::unique_ptr.312"* %45 to i64*
  %48 = load i64, i64* %47, align 8
  store %"class.dawn_native::vulkan::ResourceMemoryAllocator::SingleTypeAllocator"* null, %"class.dawn_native::vulkan::ResourceMemoryAllocator::SingleTypeAllocator"** %46, align 8
  %49 = bitcast %"class.std::__1::unique_ptr.312"* %44 to i64*
  store i64 %48, i64* %49, align 8
  %50 = add i64 %43, -1
  %51 = icmp eq i64 %50, 0
  br i1 %51, label %52, label %40, !llvm.loop !2

52:                                               ; preds = %40, %30
  %53 = phi %"class.std::__1::unique_ptr.312"* [ undef, %30 ], [ %44, %40 ]
  %54 = phi %"class.std::__1::unique_ptr.312"* [ %24, %30 ], [ %44, %40 ]
  %55 = phi %"class.std::__1::unique_ptr.312"* [ %28, %30 ], [ %45, %40 ]
  %56 = icmp ult i8* %34, inttoptr (i64 56 to i8*)
  br i1 %56, label %110, label %58

57:                                               ; preds = %17
  store i64 %25, i64* %6, align 8
  store i64 %25, i64* %14, align 8
  store i64 %27, i64* %4, align 8
  br label %130

58:                                               ; preds = %52, %58
  %59 = phi %"class.std::__1::unique_ptr.312"* [ %103, %58 ], [ %54, %52 ]
  %60 = phi %"class.std::__1::unique_ptr.312"* [ %104, %58 ], [ %55, %52 ]
  %61 = getelementptr inbounds %"class.std::__1::unique_ptr.312", %"class.std::__1::unique_ptr.312"* %59, i64 -1
  %62 = getelementptr inbounds %"class.std::__1::unique_ptr.312", %"class.std::__1::unique_ptr.312"* %60, i64 -1
  %63 = getelementptr inbounds %"class.std::__1::unique_ptr.312", %"class.std::__1::unique_ptr.312"* %62, i64 0, i32 0, i32 0, i32 0
  %64 = bitcast %"class.std::__1::unique_ptr.312"* %62 to i64*
  %65 = load i64, i64* %64, align 8
  store %"class.dawn_native::vulkan::ResourceMemoryAllocator::SingleTypeAllocator"* null, %"class.dawn_native::vulkan::ResourceMemoryAllocator::SingleTypeAllocator"** %63, align 8
  %66 = bitcast %"class.std::__1::unique_ptr.312"* %61 to i64*
  store i64 %65, i64* %66, align 8
  %67 = getelementptr inbounds %"class.std::__1::unique_ptr.312", %"class.std::__1::unique_ptr.312"* %59, i64 -2
  %68 = getelementptr inbounds %"class.std::__1::unique_ptr.312", %"class.std::__1::unique_ptr.312"* %60, i64 -2
  %69 = getelementptr inbounds %"class.std::__1::unique_ptr.312", %"class.std::__1::unique_ptr.312"* %68, i64 0, i32 0, i32 0, i32 0
  %70 = bitcast %"class.std::__1::unique_ptr.312"* %68 to i64*
  %71 = load i64, i64* %70, align 8
  store %"class.dawn_native::vulkan::ResourceMemoryAllocator::SingleTypeAllocator"* null, %"class.dawn_native::vulkan::ResourceMemoryAllocator::SingleTypeAllocator"** %69, align 8
  %72 = bitcast %"class.std::__1::unique_ptr.312"* %67 to i64*
  store i64 %71, i64* %72, align 8
  %73 = getelementptr inbounds %"class.std::__1::unique_ptr.312", %"class.std::__1::unique_ptr.312"* %59, i64 -3
  %74 = getelementptr inbounds %"class.std::__1::unique_ptr.312", %"class.std::__1::unique_ptr.312"* %60, i64 -3
  %75 = getelementptr inbounds %"class.std::__1::unique_ptr.312", %"class.std::__1::unique_ptr.312"* %74, i64 0, i32 0, i32 0, i32 0
  %76 = bitcast %"class.std::__1::unique_ptr.312"* %74 to i64*
  %77 = load i64, i64* %76, align 8
  store %"class.dawn_native::vulkan::ResourceMemoryAllocator::SingleTypeAllocator"* null, %"class.dawn_native::vulkan::ResourceMemoryAllocator::SingleTypeAllocator"** %75, align 8
  %78 = bitcast %"class.std::__1::unique_ptr.312"* %73 to i64*
  store i64 %77, i64* %78, align 8
  %79 = getelementptr inbounds %"class.std::__1::unique_ptr.312", %"class.std::__1::unique_ptr.312"* %59, i64 -4
  %80 = getelementptr inbounds %"class.std::__1::unique_ptr.312", %"class.std::__1::unique_ptr.312"* %60, i64 -4
  %81 = getelementptr inbounds %"class.std::__1::unique_ptr.312", %"class.std::__1::unique_ptr.312"* %80, i64 0, i32 0, i32 0, i32 0
  %82 = bitcast %"class.std::__1::unique_ptr.312"* %80 to i64*
  %83 = load i64, i64* %82, align 8
  store %"class.dawn_native::vulkan::ResourceMemoryAllocator::SingleTypeAllocator"* null, %"class.dawn_native::vulkan::ResourceMemoryAllocator::SingleTypeAllocator"** %81, align 8
  %84 = bitcast %"class.std::__1::unique_ptr.312"* %79 to i64*
  store i64 %83, i64* %84, align 8
  %85 = getelementptr inbounds %"class.std::__1::unique_ptr.312", %"class.std::__1::unique_ptr.312"* %59, i64 -5
  %86 = getelementptr inbounds %"class.std::__1::unique_ptr.312", %"class.std::__1::unique_ptr.312"* %60, i64 -5
  %87 = getelementptr inbounds %"class.std::__1::unique_ptr.312", %"class.std::__1::unique_ptr.312"* %86, i64 0, i32 0, i32 0, i32 0
  %88 = bitcast %"class.std::__1::unique_ptr.312"* %86 to i64*
  %89 = load i64, i64* %88, align 8
  store %"class.dawn_native::vulkan::ResourceMemoryAllocator::SingleTypeAllocator"* null, %"class.dawn_native::vulkan::ResourceMemoryAllocator::SingleTypeAllocator"** %87, align 8
  %90 = bitcast %"class.std::__1::unique_ptr.312"* %85 to i64*
  store i64 %89, i64* %90, align 8
  %91 = getelementptr inbounds %"class.std::__1::unique_ptr.312", %"class.std::__1::unique_ptr.312"* %59, i64 -6
  %92 = getelementptr inbounds %"class.std::__1::unique_ptr.312", %"class.std::__1::unique_ptr.312"* %60, i64 -6
  %93 = getelementptr inbounds %"class.std::__1::unique_ptr.312", %"class.std::__1::unique_ptr.312"* %92, i64 0, i32 0, i32 0, i32 0
  %94 = bitcast %"class.std::__1::unique_ptr.312"* %92 to i64*
  %95 = load i64, i64* %94, align 8
  store %"class.dawn_native::vulkan::ResourceMemoryAllocator::SingleTypeAllocator"* null, %"class.dawn_native::vulkan::ResourceMemoryAllocator::SingleTypeAllocator"** %93, align 8
  %96 = bitcast %"class.std::__1::unique_ptr.312"* %91 to i64*
  store i64 %95, i64* %96, align 8
  %97 = getelementptr inbounds %"class.std::__1::unique_ptr.312", %"class.std::__1::unique_ptr.312"* %59, i64 -7
  %98 = getelementptr inbounds %"class.std::__1::unique_ptr.312", %"class.std::__1::unique_ptr.312"* %60, i64 -7
  %99 = getelementptr inbounds %"class.std::__1::unique_ptr.312", %"class.std::__1::unique_ptr.312"* %98, i64 0, i32 0, i32 0, i32 0
  %100 = bitcast %"class.std::__1::unique_ptr.312"* %98 to i64*
  %101 = load i64, i64* %100, align 8
  store %"class.dawn_native::vulkan::ResourceMemoryAllocator::SingleTypeAllocator"* null, %"class.dawn_native::vulkan::ResourceMemoryAllocator::SingleTypeAllocator"** %99, align 8
  %102 = bitcast %"class.std::__1::unique_ptr.312"* %97 to i64*
  store i64 %101, i64* %102, align 8
  %103 = getelementptr inbounds %"class.std::__1::unique_ptr.312", %"class.std::__1::unique_ptr.312"* %59, i64 -8
  %104 = getelementptr inbounds %"class.std::__1::unique_ptr.312", %"class.std::__1::unique_ptr.312"* %60, i64 -8
  %105 = getelementptr inbounds %"class.std::__1::unique_ptr.312", %"class.std::__1::unique_ptr.312"* %104, i64 0, i32 0, i32 0, i32 0
  %106 = bitcast %"class.std::__1::unique_ptr.312"* %104 to i64*
  %107 = load i64, i64* %106, align 8
  store %"class.dawn_native::vulkan::ResourceMemoryAllocator::SingleTypeAllocator"* null, %"class.dawn_native::vulkan::ResourceMemoryAllocator::SingleTypeAllocator"** %105, align 8
  %108 = bitcast %"class.std::__1::unique_ptr.312"* %103 to i64*
  store i64 %107, i64* %108, align 8
  %109 = icmp eq %"class.std::__1::unique_ptr.312"* %104, %11
  br i1 %109, label %110, label %58

110:                                              ; preds = %58, %52
  %111 = phi %"class.std::__1::unique_ptr.312"* [ %53, %52 ], [ %103, %58 ]
  %112 = ptrtoint %"class.std::__1::unique_ptr.312"* %111 to i64
  %113 = load i64, i64* %6, align 8
  %114 = load %"class.std::__1::unique_ptr.312"*, %"class.std::__1::unique_ptr.312"** %13, align 8
  %115 = inttoptr i64 %113 to %"class.std::__1::unique_ptr.312"*
  store i64 %112, i64* %6, align 8
  store i64 %25, i64* %14, align 8
  store i64 %27, i64* %4, align 8
  %116 = icmp eq %"class.std::__1::unique_ptr.312"* %114, %115
  br i1 %116, label %130, label %117

117:                                              ; preds = %110, %128
  %118 = phi %"class.std::__1::unique_ptr.312"* [ %119, %128 ], [ %114, %110 ]
  %119 = getelementptr inbounds %"class.std::__1::unique_ptr.312", %"class.std::__1::unique_ptr.312"* %118, i64 -1
  %120 = getelementptr inbounds %"class.std::__1::unique_ptr.312", %"class.std::__1::unique_ptr.312"* %119, i64 0, i32 0, i32 0, i32 0
  %121 = load %"class.dawn_native::vulkan::ResourceMemoryAllocator::SingleTypeAllocator"*, %"class.dawn_native::vulkan::ResourceMemoryAllocator::SingleTypeAllocator"** %120, align 8
  store %"class.dawn_native::vulkan::ResourceMemoryAllocator::SingleTypeAllocator"* null, %"class.dawn_native::vulkan::ResourceMemoryAllocator::SingleTypeAllocator"** %120, align 8
  %122 = icmp eq %"class.dawn_native::vulkan::ResourceMemoryAllocator::SingleTypeAllocator"* %121, null
  br i1 %122, label %128, label %123

123:                                              ; preds = %117
  %124 = bitcast %"class.dawn_native::vulkan::ResourceMemoryAllocator::SingleTypeAllocator"* %121 to void (%"class.dawn_native::vulkan::ResourceMemoryAllocator::SingleTypeAllocator"*)***
  %125 = load void (%"class.dawn_native::vulkan::ResourceMemoryAllocator::SingleTypeAllocator"*)**, void (%"class.dawn_native::vulkan::ResourceMemoryAllocator::SingleTypeAllocator"*)*** %124, align 8
  %126 = getelementptr inbounds void (%"class.dawn_native::vulkan::ResourceMemoryAllocator::SingleTypeAllocator"*)*, void (%"class.dawn_native::vulkan::ResourceMemoryAllocator::SingleTypeAllocator"*)** %125, i64 1
  %127 = load void (%"class.dawn_native::vulkan::ResourceMemoryAllocator::SingleTypeAllocator"*)*, void (%"class.dawn_native::vulkan::ResourceMemoryAllocator::SingleTypeAllocator"*)** %126, align 8
  tail call void %127(%"class.dawn_native::vulkan::ResourceMemoryAllocator::SingleTypeAllocator"* nonnull %121) #9
  br label %128

128:                                              ; preds = %123, %117
  %129 = icmp eq %"class.std::__1::unique_ptr.312"* %119, %115
  br i1 %129, label %130, label %117

130:                                              ; preds = %128, %57, %110
  %131 = phi i64 [ %7, %57 ], [ %113, %110 ], [ %113, %128 ]
  %132 = icmp eq i64 %131, 0
  br i1 %132, label %135, label %133

133:                                              ; preds = %130
  %134 = inttoptr i64 %131 to i8*
  tail call void @_ZdlPv(i8* %134) #10
  br label %135

135:                                              ; preds = %133, %130, %2
  ret void
}

; Function Attrs: argmemonly nounwind
declare void @llvm.lifetime.end.p0i8(i64 immarg, i8* nocapture) #1

; Function Attrs: nounwind ssp uwtable
define hidden void @_ZN11dawn_native6vulkan23ResourceMemoryAllocatorD2Ev(%"class.dawn_native::vulkan::ResourceMemoryAllocator"* nocapture) unnamed_addr #0 align 2 {
  %2 = getelementptr inbounds %"class.dawn_native::vulkan::ResourceMemoryAllocator", %"class.dawn_native::vulkan::ResourceMemoryAllocator"* %0, i64 0, i32 2, i32 0
  %3 = getelementptr inbounds %class.SerialStorage.356, %class.SerialStorage.356* %2, i64 0, i32 0, i32 0, i32 0
  %4 = load %"struct.std::__1::pair.359"*, %"struct.std::__1::pair.359"** %3, align 8
  %5 = icmp eq %"struct.std::__1::pair.359"* %4, null
  br i1 %5, label %42, label %6

6:                                                ; preds = %1
  %7 = bitcast %"struct.std::__1::pair.359"* %4 to i8*
  %8 = getelementptr inbounds %"class.dawn_native::vulkan::ResourceMemoryAllocator", %"class.dawn_native::vulkan::ResourceMemoryAllocator"* %0, i64 0, i32 2, i32 0, i32 0, i32 0, i32 1
  %9 = load %"struct.std::__1::pair.359"*, %"struct.std::__1::pair.359"** %8, align 8
  %10 = icmp eq %"struct.std::__1::pair.359"* %9, %4
  br i1 %10, label %40, label %11

11:                                               ; preds = %6, %35
  %12 = phi %"struct.std::__1::pair.359"* [ %13, %35 ], [ %9, %6 ]
  %13 = getelementptr inbounds %"struct.std::__1::pair.359", %"struct.std::__1::pair.359"* %12, i64 -1
  %14 = getelementptr inbounds %"struct.std::__1::pair.359", %"struct.std::__1::pair.359"* %12, i64 -1, i32 1
  %15 = getelementptr inbounds %"class.std::__1::vector.388", %"class.std::__1::vector.388"* %14, i64 0, i32 0, i32 0
  %16 = load %"class.dawn_native::ResourceMemoryAllocation"*, %"class.dawn_native::ResourceMemoryAllocation"** %15, align 8
  %17 = icmp eq %"class.dawn_native::ResourceMemoryAllocation"* %16, null
  br i1 %17, label %35, label %18

18:                                               ; preds = %11
  %19 = bitcast %"class.dawn_native::ResourceMemoryAllocation"* %16 to i8*
  %20 = getelementptr inbounds %"struct.std::__1::pair.359", %"struct.std::__1::pair.359"* %12, i64 -1, i32 1, i32 0, i32 1
  %21 = load %"class.dawn_native::ResourceMemoryAllocation"*, %"class.dawn_native::ResourceMemoryAllocation"** %20, align 8
  %22 = icmp eq %"class.dawn_native::ResourceMemoryAllocation"* %21, %16
  br i1 %22, label %33, label %23

23:                                               ; preds = %18, %23
  %24 = phi %"class.dawn_native::ResourceMemoryAllocation"* [ %25, %23 ], [ %21, %18 ]
  %25 = getelementptr inbounds %"class.dawn_native::ResourceMemoryAllocation", %"class.dawn_native::ResourceMemoryAllocation"* %24, i64 -1
  %26 = bitcast %"class.dawn_native::ResourceMemoryAllocation"* %25 to void (%"class.dawn_native::ResourceMemoryAllocation"*)***
  %27 = load void (%"class.dawn_native::ResourceMemoryAllocation"*)**, void (%"class.dawn_native::ResourceMemoryAllocation"*)*** %26, align 8
  %28 = load void (%"class.dawn_native::ResourceMemoryAllocation"*)*, void (%"class.dawn_native::ResourceMemoryAllocation"*)** %27, align 8
  tail call void %28(%"class.dawn_native::ResourceMemoryAllocation"* %25) #9
  %29 = icmp eq %"class.dawn_native::ResourceMemoryAllocation"* %25, %16
  br i1 %29, label %30, label %23

30:                                               ; preds = %23
  %31 = bitcast %"class.std::__1::vector.388"* %14 to i8**
  %32 = load i8*, i8** %31, align 8
  br label %33

33:                                               ; preds = %30, %18
  %34 = phi i8* [ %32, %30 ], [ %19, %18 ]
  store %"class.dawn_native::ResourceMemoryAllocation"* %16, %"class.dawn_native::ResourceMemoryAllocation"** %20, align 8
  tail call void @_ZdlPv(i8* %34) #10
  br label %35

35:                                               ; preds = %33, %11
  %36 = icmp eq %"struct.std::__1::pair.359"* %13, %4
  br i1 %36, label %37, label %11

37:                                               ; preds = %35
  %38 = bitcast %class.SerialStorage.356* %2 to i8**
  %39 = load i8*, i8** %38, align 8
  br label %40

40:                                               ; preds = %37, %6
  %41 = phi i8* [ %39, %37 ], [ %7, %6 ]
  store %"struct.std::__1::pair.359"* %4, %"struct.std::__1::pair.359"** %8, align 8
  tail call void @_ZdlPv(i8* %41) #10
  br label %42

42:                                               ; preds = %1, %40
  %43 = getelementptr inbounds %"class.dawn_native::vulkan::ResourceMemoryAllocator", %"class.dawn_native::vulkan::ResourceMemoryAllocator"* %0, i64 0, i32 1
  %44 = getelementptr inbounds %"class.std::__1::vector.310", %"class.std::__1::vector.310"* %43, i64 0, i32 0, i32 0
  %45 = load %"class.std::__1::unique_ptr.312"*, %"class.std::__1::unique_ptr.312"** %44, align 8
  %46 = icmp eq %"class.std::__1::unique_ptr.312"* %45, null
  br i1 %46, label %70, label %47

47:                                               ; preds = %42
  %48 = bitcast %"class.std::__1::unique_ptr.312"* %45 to i8*
  %49 = getelementptr inbounds %"class.dawn_native::vulkan::ResourceMemoryAllocator", %"class.dawn_native::vulkan::ResourceMemoryAllocator"* %0, i64 0, i32 1, i32 0, i32 1
  %50 = load %"class.std::__1::unique_ptr.312"*, %"class.std::__1::unique_ptr.312"** %49, align 8
  %51 = icmp eq %"class.std::__1::unique_ptr.312"* %50, %45
  br i1 %51, label %68, label %52

52:                                               ; preds = %47, %63
  %53 = phi %"class.std::__1::unique_ptr.312"* [ %54, %63 ], [ %50, %47 ]
  %54 = getelementptr inbounds %"class.std::__1::unique_ptr.312", %"class.std::__1::unique_ptr.312"* %53, i64 -1
  %55 = getelementptr inbounds %"class.std::__1::unique_ptr.312", %"class.std::__1::unique_ptr.312"* %54, i64 0, i32 0, i32 0, i32 0
  %56 = load %"class.dawn_native::vulkan::ResourceMemoryAllocator::SingleTypeAllocator"*, %"class.dawn_native::vulkan::ResourceMemoryAllocator::SingleTypeAllocator"** %55, align 8
  store %"class.dawn_native::vulkan::ResourceMemoryAllocator::SingleTypeAllocator"* null, %"class.dawn_native::vulkan::ResourceMemoryAllocator::SingleTypeAllocator"** %55, align 8
  %57 = icmp eq %"class.dawn_native::vulkan::ResourceMemoryAllocator::SingleTypeAllocator"* %56, null
  br i1 %57, label %63, label %58

58:                                               ; preds = %52
  %59 = bitcast %"class.dawn_native::vulkan::ResourceMemoryAllocator::SingleTypeAllocator"* %56 to void (%"class.dawn_native::vulkan::ResourceMemoryAllocator::SingleTypeAllocator"*)***
  %60 = load void (%"class.dawn_native::vulkan::ResourceMemoryAllocator::SingleTypeAllocator"*)**, void (%"class.dawn_native::vulkan::ResourceMemoryAllocator::SingleTypeAllocator"*)*** %59, align 8
  %61 = getelementptr inbounds void (%"class.dawn_native::vulkan::ResourceMemoryAllocator::SingleTypeAllocator"*)*, void (%"class.dawn_native::vulkan::ResourceMemoryAllocator::SingleTypeAllocator"*)** %60, i64 1
  %62 = load void (%"class.dawn_native::vulkan::ResourceMemoryAllocator::SingleTypeAllocator"*)*, void (%"class.dawn_native::vulkan::ResourceMemoryAllocator::SingleTypeAllocator"*)** %61, align 8
  tail call void %62(%"class.dawn_native::vulkan::ResourceMemoryAllocator::SingleTypeAllocator"* nonnull %56) #9
  br label %63

63:                                               ; preds = %58, %52
  %64 = icmp eq %"class.std::__1::unique_ptr.312"* %54, %45
  br i1 %64, label %65, label %52

65:                                               ; preds = %63
  %66 = bitcast %"class.std::__1::vector.310"* %43 to i8**
  %67 = load i8*, i8** %66, align 8
  br label %68

68:                                               ; preds = %65, %47
  %69 = phi i8* [ %67, %65 ], [ %48, %47 ]
  store %"class.std::__1::unique_ptr.312"* %45, %"class.std::__1::unique_ptr.312"** %49, align 8
  tail call void @_ZdlPv(i8* %69) #10
  br label %70

70:                                               ; preds = %42, %68
  ret void
}

; Function Attrs: nounwind ssp uwtable
define hidden void @_ZN11dawn_native6vulkan23ResourceMemoryAllocator8AllocateERK20VkMemoryRequirementsb(%class.Result* noalias sret, %"class.dawn_native::vulkan::ResourceMemoryAllocator"* nocapture readonly, %struct.VkMemoryRequirements* nocapture readonly dereferenceable(24), i1 zeroext) local_unnamed_addr #0 align 2 {
  %5 = alloca %"class.dawn_native::ResourceMemoryAllocation", align 8
  %6 = alloca %class.Result, align 8
  %7 = alloca %class.Result.384, align 8
  %8 = alloca i8*, align 8
  %9 = alloca %class.Result.385, align 8
  %10 = alloca %"struct.dawn_native::AllocationInfo", align 8
  %11 = alloca %"class.dawn_native::ResourceMemoryAllocation", align 8
  %12 = getelementptr inbounds %struct.VkMemoryRequirements, %struct.VkMemoryRequirements* %2, i64 0, i32 2
  %13 = load i32, i32* %12, align 8
  %14 = getelementptr inbounds %"class.dawn_native::vulkan::ResourceMemoryAllocator", %"class.dawn_native::vulkan::ResourceMemoryAllocator"* %1, i64 0, i32 0
  %15 = load %"class.dawn_native::vulkan::Device"*, %"class.dawn_native::vulkan::Device"** %14, align 8
  %16 = tail call dereferenceable(1800) %"struct.dawn_native::vulkan::VulkanDeviceInfo"* @_ZNK11dawn_native6vulkan6Device13GetDeviceInfoEv(%"class.dawn_native::vulkan::Device"* %15) #9
  %17 = getelementptr inbounds %"struct.dawn_native::vulkan::VulkanDeviceInfo", %"struct.dawn_native::vulkan::VulkanDeviceInfo"* %16, i64 0, i32 5
  %18 = getelementptr inbounds %"struct.dawn_native::vulkan::VulkanDeviceInfo", %"struct.dawn_native::vulkan::VulkanDeviceInfo"* %16, i64 0, i32 5, i32 0, i32 1
  %19 = bitcast %struct.VkMemoryType** %18 to i64*
  %20 = load i64, i64* %19, align 8
  %21 = bitcast %"class.std::__1::vector.50"* %17 to i64*
  %22 = load i64, i64* %21, align 8
  %23 = icmp eq i64 %20, %22
  %24 = inttoptr i64 %22 to %struct.VkMemoryType*
  br i1 %23, label %74, label %25

25:                                               ; preds = %4
  %26 = getelementptr inbounds %"struct.dawn_native::vulkan::VulkanDeviceInfo", %"struct.dawn_native::vulkan::VulkanDeviceInfo"* %16, i64 0, i32 6, i32 0, i32 0
  %27 = load %struct.VkMemoryHeap*, %struct.VkMemoryHeap** %26, align 8
  %28 = sub i64 %20, %22
  %29 = ashr exact i64 %28, 3
  br label %30

30:                                               ; preds = %70, %25
  %31 = phi i32 [ -1, %25 ], [ %71, %70 ]
  %32 = phi i64 [ 0, %25 ], [ %72, %70 ]
  %33 = trunc i64 %32 to i32
  %34 = shl i32 1, %33
  %35 = and i32 %34, %13
  %36 = icmp eq i32 %35, 0
  br i1 %36, label %70, label %37

37:                                               ; preds = %30
  br i1 %3, label %38, label %43

38:                                               ; preds = %37
  %39 = getelementptr inbounds %struct.VkMemoryType, %struct.VkMemoryType* %24, i64 %32, i32 0
  %40 = load i32, i32* %39, align 4
  %41 = and i32 %40, 6
  %42 = icmp eq i32 %41, 6
  br i1 %42, label %43, label %70

43:                                               ; preds = %38, %37
  %44 = icmp eq i32 %31, -1
  br i1 %44, label %70, label %45

45:                                               ; preds = %43
  %46 = sext i32 %31 to i64
  br i1 %3, label %57, label %47

47:                                               ; preds = %45
  %48 = getelementptr inbounds %struct.VkMemoryType, %struct.VkMemoryType* %24, i64 %46, i32 0
  %49 = load i32, i32* %48, align 4
  %50 = and i32 %49, 1
  %51 = icmp eq i32 %50, 0
  br i1 %51, label %52, label %57

52:                                               ; preds = %47
  %53 = getelementptr inbounds %struct.VkMemoryType, %struct.VkMemoryType* %24, i64 %32, i32 0
  %54 = load i32, i32* %53, align 4
  %55 = and i32 %54, 1
  %56 = icmp eq i32 %55, 0
  br i1 %56, label %57, label %70

57:                                               ; preds = %52, %47, %45
  %58 = getelementptr inbounds %struct.VkMemoryType, %struct.VkMemoryType* %24, i64 %46, i32 1
  %59 = load i32, i32* %58, align 4
  %60 = zext i32 %59 to i64
  %61 = getelementptr inbounds %struct.VkMemoryHeap, %struct.VkMemoryHeap* %27, i64 %60, i32 0
  %62 = load i64, i64* %61, align 8
  %63 = getelementptr inbounds %struct.VkMemoryType, %struct.VkMemoryType* %24, i64 %32, i32 1
  %64 = load i32, i32* %63, align 4
  %65 = zext i32 %64 to i64
  %66 = getelementptr inbounds %struct.VkMemoryHeap, %struct.VkMemoryHeap* %27, i64 %65, i32 0
  %67 = load i64, i64* %66, align 8
  %68 = icmp ugt i64 %67, %62
  %69 = select i1 %68, i32 %33, i32 %31
  br label %70

70:                                               ; preds = %57, %52, %43, %38, %30
  %71 = phi i32 [ %31, %30 ], [ %31, %38 ], [ %69, %57 ], [ %33, %43 ], [ %33, %52 ]
  %72 = add nuw i64 %32, 1
  %73 = icmp ult i64 %72, %29
  br i1 %73, label %30, label %74

74:                                               ; preds = %70, %4
  %75 = phi i32 [ -1, %4 ], [ %71, %70 ]
  %76 = getelementptr inbounds %struct.VkMemoryRequirements, %struct.VkMemoryRequirements* %2, i64 0, i32 0
  %77 = load i64, i64* %76, align 8
  %78 = icmp ugt i64 %77, 4194303
  %79 = or i1 %78, %3
  br i1 %79, label %80, label %82

80:                                               ; preds = %74
  %81 = sext i32 %75 to i64
  br label %152

82:                                               ; preds = %74
  %83 = bitcast %"class.dawn_native::ResourceMemoryAllocation"* %5 to i8*
  call void @llvm.lifetime.start.p0i8(i64 48, i8* nonnull %83) #9
  call void @llvm.memset.p0i8.i64(i8* nonnull align 8 %83, i8 -86, i64 48, i1 false)
  call void @_ZN11dawn_native24ResourceMemoryAllocationC1Ev(%"class.dawn_native::ResourceMemoryAllocation"* nonnull %5) #9
  %84 = bitcast %class.Result* %6 to i8*
  call void @llvm.lifetime.start.p0i8(i64 64, i8* nonnull %84) #9
  call void @llvm.memset.p0i8.i64(i8* nonnull align 8 %84, i8 -86, i64 64, i1 false)
  %85 = sext i32 %75 to i64
  %86 = getelementptr inbounds %"class.dawn_native::vulkan::ResourceMemoryAllocator", %"class.dawn_native::vulkan::ResourceMemoryAllocator"* %1, i64 0, i32 1, i32 0, i32 0
  %87 = load %"class.std::__1::unique_ptr.312"*, %"class.std::__1::unique_ptr.312"** %86, align 8
  %88 = getelementptr inbounds %"class.std::__1::unique_ptr.312", %"class.std::__1::unique_ptr.312"* %87, i64 %85, i32 0, i32 0, i32 0
  %89 = load %"class.dawn_native::vulkan::ResourceMemoryAllocator::SingleTypeAllocator"*, %"class.dawn_native::vulkan::ResourceMemoryAllocator::SingleTypeAllocator"** %88, align 8
  %90 = getelementptr inbounds %"class.dawn_native::vulkan::ResourceMemoryAllocator::SingleTypeAllocator", %"class.dawn_native::vulkan::ResourceMemoryAllocator::SingleTypeAllocator"* %89, i64 0, i32 5
  %91 = load i64, i64* %76, align 8, !noalias !4
  %92 = getelementptr inbounds %struct.VkMemoryRequirements, %struct.VkMemoryRequirements* %2, i64 0, i32 1
  %93 = load i64, i64* %92, align 8, !noalias !4
  call void @_ZN11dawn_native20BuddyMemoryAllocator8AllocateEmm(%class.Result* nonnull sret %6, %"class.dawn_native::BuddyMemoryAllocator"* %90, i64 %91, i64 %93) #9
  %94 = getelementptr inbounds %class.Result, %class.Result* %6, i64 0, i32 0
  %95 = load i32, i32* %94, align 8
  %96 = icmp eq i32 %95, 1
  store i32 2, i32* %94, align 8
  br i1 %96, label %97, label %105, !prof !7

97:                                               ; preds = %82
  %98 = getelementptr inbounds %class.Result, %class.Result* %6, i64 0, i32 1, i32 0, i32 0, i32 0
  %99 = load %"class.dawn_native::ErrorData"*, %"class.dawn_native::ErrorData"** %98, align 8
  store %"class.dawn_native::ErrorData"* null, %"class.dawn_native::ErrorData"** %98, align 8
  %100 = ptrtoint %"class.dawn_native::ErrorData"* %99 to i64
  call void @_ZN11dawn_native9ErrorData15AppendBacktraceEPKcS2_i(%"class.dawn_native::ErrorData"* %99, i8* getelementptr inbounds ([76 x i8], [76 x i8]* @.str, i64 0, i64 0), i8* getelementptr inbounds ([9 x i8], [9 x i8]* @__func__._ZN11dawn_native6vulkan23ResourceMemoryAllocator8AllocateERK20VkMemoryRequirementsb, i64 0, i64 0), i32 141) #9
  %101 = getelementptr inbounds %class.Result, %class.Result* %0, i64 0, i32 0
  store i32 1, i32* %101, align 8
  %102 = getelementptr inbounds %class.Result, %class.Result* %0, i64 0, i32 1
  %103 = bitcast %"class.std::__1::unique_ptr.365"* %102 to i64*
  store i64 %100, i64* %103, align 8
  %104 = getelementptr inbounds %class.Result, %class.Result* %0, i64 0, i32 2
  call void @_ZN11dawn_native24ResourceMemoryAllocationC1Ev(%"class.dawn_native::ResourceMemoryAllocation"* %104) #9
  br label %110

105:                                              ; preds = %82
  %106 = getelementptr inbounds %"class.dawn_native::ResourceMemoryAllocation", %"class.dawn_native::ResourceMemoryAllocation"* %5, i64 0, i32 1
  %107 = getelementptr inbounds %class.Result, %class.Result* %6, i64 0, i32 2, i32 1
  %108 = bitcast %"struct.dawn_native::AllocationInfo"* %106 to i8*
  %109 = bitcast %"struct.dawn_native::AllocationInfo"* %107 to i8*
  call void @llvm.memcpy.p0i8.p0i8.i64(i8* align 8 %108, i8* align 8 %109, i64 40, i1 false) #9
  br label %110

110:                                              ; preds = %105, %97
  %111 = phi i32 [ 1, %97 ], [ 0, %105 ]
  %112 = getelementptr inbounds %class.Result, %class.Result* %6, i64 0, i32 1, i32 0, i32 0, i32 0
  %113 = load %"class.dawn_native::ErrorData"*, %"class.dawn_native::ErrorData"** %112, align 8
  store %"class.dawn_native::ErrorData"* null, %"class.dawn_native::ErrorData"** %112, align 8
  %114 = icmp eq %"class.dawn_native::ErrorData"* %113, null
  br i1 %114, label %135, label %115

115:                                              ; preds = %110
  %116 = getelementptr inbounds %"class.dawn_native::ErrorData", %"class.dawn_native::ErrorData"* %113, i64 0, i32 2, i32 0, i32 0
  %117 = load %"struct.dawn_native::ErrorData::BacktraceRecord"*, %"struct.dawn_native::ErrorData::BacktraceRecord"** %116, align 8
  %118 = icmp eq %"struct.dawn_native::ErrorData::BacktraceRecord"* %117, null
  br i1 %118, label %124, label %119

119:                                              ; preds = %115
  %120 = ptrtoint %"struct.dawn_native::ErrorData::BacktraceRecord"* %117 to i64
  %121 = getelementptr inbounds %"class.dawn_native::ErrorData", %"class.dawn_native::ErrorData"* %113, i64 0, i32 2, i32 0, i32 1
  %122 = bitcast %"struct.dawn_native::ErrorData::BacktraceRecord"** %121 to i64*
  store i64 %120, i64* %122, align 8
  %123 = bitcast %"struct.dawn_native::ErrorData::BacktraceRecord"* %117 to i8*
  call void @_ZdlPv(i8* %123) #10
  br label %124

124:                                              ; preds = %119, %115
  %125 = getelementptr inbounds %"class.dawn_native::ErrorData", %"class.dawn_native::ErrorData"* %113, i64 0, i32 1
  %126 = bitcast %"class.std::__1::basic_string"* %125 to %"struct.std::__1::basic_string<char, std::__1::char_traits<char>, std::__1::allocator<char> >::__short"*
  %127 = getelementptr inbounds %"struct.std::__1::basic_string<char, std::__1::char_traits<char>, std::__1::allocator<char> >::__short", %"struct.std::__1::basic_string<char, std::__1::char_traits<char>, std::__1::allocator<char> >::__short"* %126, i64 0, i32 1, i32 0
  %128 = load i8, i8* %127, align 1
  %129 = icmp slt i8 %128, 0
  br i1 %129, label %130, label %133

130:                                              ; preds = %124
  %131 = getelementptr inbounds %"class.std::__1::basic_string", %"class.std::__1::basic_string"* %125, i64 0, i32 0, i32 0, i32 0, i32 0, i32 0, i32 0
  %132 = load i8*, i8** %131, align 8
  call void @_ZdlPv(i8* %132) #10
  br label %133

133:                                              ; preds = %130, %124
  %134 = bitcast %"class.dawn_native::ErrorData"* %113 to i8*
  call void @_ZdlPv(i8* %134) #10
  br label %135

135:                                              ; preds = %110, %133
  call void @llvm.lifetime.end.p0i8(i64 64, i8* nonnull %84) #9
  %136 = icmp eq i32 %111, 0
  br i1 %136, label %137, label %150

137:                                              ; preds = %135
  %138 = call { i64, i32 } @_ZNK11dawn_native24ResourceMemoryAllocation7GetInfoEv(%"class.dawn_native::ResourceMemoryAllocation"* nonnull %5) #9
  %139 = extractvalue { i64, i32 } %138, 1
  %140 = icmp eq i32 %139, 3
  br i1 %140, label %151, label %141

141:                                              ; preds = %137
  %142 = getelementptr inbounds %class.Result, %class.Result* %0, i64 0, i32 0
  store i32 0, i32* %142, align 8
  %143 = getelementptr inbounds %class.Result, %class.Result* %0, i64 0, i32 1
  %144 = bitcast %"class.std::__1::unique_ptr.365"* %143 to i64*
  store i64 0, i64* %144, align 8
  %145 = getelementptr inbounds %class.Result, %class.Result* %0, i64 0, i32 2, i32 0
  store i32 (...)** bitcast (i8** getelementptr inbounds ({ [5 x i8*] }, { [5 x i8*] }* @_ZTVN11dawn_native24ResourceMemoryAllocationE, i64 0, inrange i32 0, i64 2) to i32 (...)**), i32 (...)*** %145, align 8
  %146 = getelementptr inbounds %class.Result, %class.Result* %0, i64 0, i32 2, i32 1
  %147 = getelementptr inbounds %"class.dawn_native::ResourceMemoryAllocation", %"class.dawn_native::ResourceMemoryAllocation"* %5, i64 0, i32 1
  %148 = bitcast %"struct.dawn_native::AllocationInfo"* %146 to i8*
  %149 = bitcast %"struct.dawn_native::AllocationInfo"* %147 to i8*
  call void @llvm.memcpy.p0i8.p0i8.i64(i8* align 8 %148, i8* align 8 %149, i64 40, i1 false) #9
  br label %150

150:                                              ; preds = %141, %135
  call void @llvm.lifetime.end.p0i8(i64 48, i8* nonnull %83) #9
  br label %306

151:                                              ; preds = %137
  call void @llvm.lifetime.end.p0i8(i64 48, i8* nonnull %83) #9
  br label %152

152:                                              ; preds = %80, %151
  %153 = phi i64 [ %81, %80 ], [ %85, %151 ]
  %154 = bitcast %class.Result.384* %7 to i8*
  call void @llvm.lifetime.start.p0i8(i64 24, i8* nonnull %154) #9
  call void @llvm.memset.p0i8.i64(i8* nonnull align 8 %154, i8 -86, i64 24, i1 false)
  %155 = getelementptr inbounds %"class.dawn_native::vulkan::ResourceMemoryAllocator", %"class.dawn_native::vulkan::ResourceMemoryAllocator"* %1, i64 0, i32 1, i32 0, i32 0
  %156 = load %"class.std::__1::unique_ptr.312"*, %"class.std::__1::unique_ptr.312"** %155, align 8
  %157 = getelementptr inbounds %"class.std::__1::unique_ptr.312", %"class.std::__1::unique_ptr.312"* %156, i64 %153, i32 0, i32 0, i32 0
  %158 = load %"class.dawn_native::vulkan::ResourceMemoryAllocator::SingleTypeAllocator"*, %"class.dawn_native::vulkan::ResourceMemoryAllocator::SingleTypeAllocator"** %157, align 8
  %159 = bitcast %"class.dawn_native::vulkan::ResourceMemoryAllocator::SingleTypeAllocator"* %158 to void (%class.Result.384*, %"class.dawn_native::vulkan::ResourceMemoryAllocator::SingleTypeAllocator"*, i64)***
  %160 = load void (%class.Result.384*, %"class.dawn_native::vulkan::ResourceMemoryAllocator::SingleTypeAllocator"*, i64)**, void (%class.Result.384*, %"class.dawn_native::vulkan::ResourceMemoryAllocator::SingleTypeAllocator"*, i64)*** %159, align 8
  %161 = getelementptr inbounds void (%class.Result.384*, %"class.dawn_native::vulkan::ResourceMemoryAllocator::SingleTypeAllocator"*, i64)*, void (%class.Result.384*, %"class.dawn_native::vulkan::ResourceMemoryAllocator::SingleTypeAllocator"*, i64)** %160, i64 2
  %162 = load void (%class.Result.384*, %"class.dawn_native::vulkan::ResourceMemoryAllocator::SingleTypeAllocator"*, i64)*, void (%class.Result.384*, %"class.dawn_native::vulkan::ResourceMemoryAllocator::SingleTypeAllocator"*, i64)** %161, align 8
  call void %162(%class.Result.384* nonnull sret %7, %"class.dawn_native::vulkan::ResourceMemoryAllocator::SingleTypeAllocator"* %158, i64 %77) #9
  %163 = getelementptr inbounds %class.Result.384, %class.Result.384* %7, i64 0, i32 0
  %164 = load i32, i32* %163, align 8
  %165 = icmp eq i32 %164, 1
  store i32 2, i32* %163, align 8
  br i1 %165, label %166, label %206, !prof !7

166:                                              ; preds = %152
  %167 = getelementptr inbounds %class.Result.384, %class.Result.384* %7, i64 0, i32 1, i32 0, i32 0, i32 0
  %168 = load %"class.dawn_native::ErrorData"*, %"class.dawn_native::ErrorData"** %167, align 8
  store %"class.dawn_native::ErrorData"* null, %"class.dawn_native::ErrorData"** %167, align 8
  %169 = ptrtoint %"class.dawn_native::ErrorData"* %168 to i64
  call void @_ZN11dawn_native9ErrorData15AppendBacktraceEPKcS2_i(%"class.dawn_native::ErrorData"* %168, i8* getelementptr inbounds ([76 x i8], [76 x i8]* @.str, i64 0, i64 0), i8* getelementptr inbounds ([9 x i8], [9 x i8]* @__func__._ZN11dawn_native6vulkan23ResourceMemoryAllocator8AllocateERK20VkMemoryRequirementsb, i64 0, i64 0), i32 149) #9
  %170 = getelementptr inbounds %class.Result, %class.Result* %0, i64 0, i32 0
  store i32 1, i32* %170, align 8
  %171 = getelementptr inbounds %class.Result, %class.Result* %0, i64 0, i32 1
  %172 = bitcast %"class.std::__1::unique_ptr.365"* %171 to i64*
  store i64 %169, i64* %172, align 8
  %173 = getelementptr inbounds %class.Result, %class.Result* %0, i64 0, i32 2
  call void @_ZN11dawn_native24ResourceMemoryAllocationC1Ev(%"class.dawn_native::ResourceMemoryAllocation"* %173) #9
  %174 = getelementptr inbounds %class.Result.384, %class.Result.384* %7, i64 0, i32 2, i32 0, i32 0, i32 0
  %175 = load %"class.dawn_native::ResourceHeapBase"*, %"class.dawn_native::ResourceHeapBase"** %174, align 8
  store %"class.dawn_native::ResourceHeapBase"* null, %"class.dawn_native::ResourceHeapBase"** %174, align 8
  %176 = icmp eq %"class.dawn_native::ResourceHeapBase"* %175, null
  br i1 %176, label %182, label %177

177:                                              ; preds = %166
  %178 = bitcast %"class.dawn_native::ResourceHeapBase"* %175 to void (%"class.dawn_native::ResourceHeapBase"*)***
  %179 = load void (%"class.dawn_native::ResourceHeapBase"*)**, void (%"class.dawn_native::ResourceHeapBase"*)*** %178, align 8
  %180 = getelementptr inbounds void (%"class.dawn_native::ResourceHeapBase"*)*, void (%"class.dawn_native::ResourceHeapBase"*)** %179, i64 1
  %181 = load void (%"class.dawn_native::ResourceHeapBase"*)*, void (%"class.dawn_native::ResourceHeapBase"*)** %180, align 8
  call void %181(%"class.dawn_native::ResourceHeapBase"* nonnull %175) #9
  br label %182

182:                                              ; preds = %177, %166
  %183 = load %"class.dawn_native::ErrorData"*, %"class.dawn_native::ErrorData"** %167, align 8
  store %"class.dawn_native::ErrorData"* null, %"class.dawn_native::ErrorData"** %167, align 8
  %184 = icmp eq %"class.dawn_native::ErrorData"* %183, null
  br i1 %184, label %205, label %185

185:                                              ; preds = %182
  %186 = getelementptr inbounds %"class.dawn_native::ErrorData", %"class.dawn_native::ErrorData"* %183, i64 0, i32 2, i32 0, i32 0
  %187 = load %"struct.dawn_native::ErrorData::BacktraceRecord"*, %"struct.dawn_native::ErrorData::BacktraceRecord"** %186, align 8
  %188 = icmp eq %"struct.dawn_native::ErrorData::BacktraceRecord"* %187, null
  br i1 %188, label %194, label %189

189:                                              ; preds = %185
  %190 = ptrtoint %"struct.dawn_native::ErrorData::BacktraceRecord"* %187 to i64
  %191 = getelementptr inbounds %"class.dawn_native::ErrorData", %"class.dawn_native::ErrorData"* %183, i64 0, i32 2, i32 0, i32 1
  %192 = bitcast %"struct.dawn_native::ErrorData::BacktraceRecord"** %191 to i64*
  store i64 %190, i64* %192, align 8
  %193 = bitcast %"struct.dawn_native::ErrorData::BacktraceRecord"* %187 to i8*
  call void @_ZdlPv(i8* %193) #10
  br label %194

194:                                              ; preds = %189, %185
  %195 = getelementptr inbounds %"class.dawn_native::ErrorData", %"class.dawn_native::ErrorData"* %183, i64 0, i32 1
  %196 = bitcast %"class.std::__1::basic_string"* %195 to %"struct.std::__1::basic_string<char, std::__1::char_traits<char>, std::__1::allocator<char> >::__short"*
  %197 = getelementptr inbounds %"struct.std::__1::basic_string<char, std::__1::char_traits<char>, std::__1::allocator<char> >::__short", %"struct.std::__1::basic_string<char, std::__1::char_traits<char>, std::__1::allocator<char> >::__short"* %196, i64 0, i32 1, i32 0
  %198 = load i8, i8* %197, align 1
  %199 = icmp slt i8 %198, 0
  br i1 %199, label %200, label %203

200:                                              ; preds = %194
  %201 = getelementptr inbounds %"class.std::__1::basic_string", %"class.std::__1::basic_string"* %195, i64 0, i32 0, i32 0, i32 0, i32 0, i32 0, i32 0
  %202 = load i8*, i8** %201, align 8
  call void @_ZdlPv(i8* %202) #10
  br label %203

203:                                              ; preds = %200, %194
  %204 = bitcast %"class.dawn_native::ErrorData"* %183 to i8*
  call void @_ZdlPv(i8* %204) #10
  br label %205

205:                                              ; preds = %182, %203
  call void @llvm.lifetime.end.p0i8(i64 24, i8* nonnull %154) #9
  br label %306

206:                                              ; preds = %152
  %207 = getelementptr inbounds %class.Result.384, %class.Result.384* %7, i64 0, i32 2
  %208 = bitcast %"class.std::__1::unique_ptr.318"* %207 to i64*
  %209 = load i64, i64* %208, align 8
  %210 = getelementptr inbounds %class.Result.384, %class.Result.384* %7, i64 0, i32 2, i32 0, i32 0, i32 0
  store %"class.dawn_native::ResourceHeapBase"* null, %"class.dawn_native::ResourceHeapBase"** %210, align 8
  %211 = getelementptr inbounds %class.Result.384, %class.Result.384* %7, i64 0, i32 1, i32 0, i32 0, i32 0
  %212 = load %"class.dawn_native::ErrorData"*, %"class.dawn_native::ErrorData"** %211, align 8
  %213 = bitcast %"class.dawn_native::ErrorData"* %212 to i8*
  %214 = getelementptr inbounds %class.Result.384, %class.Result.384* %7, i64 0, i32 1, i32 0, i32 0, i32 0
  store %"class.dawn_native::ErrorData"* null, %"class.dawn_native::ErrorData"** %214, align 8
  %215 = icmp eq %"class.dawn_native::ErrorData"* %212, null
  br i1 %215, label %235, label %216

216:                                              ; preds = %206
  %217 = getelementptr inbounds %"class.dawn_native::ErrorData", %"class.dawn_native::ErrorData"* %212, i64 0, i32 2, i32 0, i32 0
  %218 = load %"struct.dawn_native::ErrorData::BacktraceRecord"*, %"struct.dawn_native::ErrorData::BacktraceRecord"** %217, align 8
  %219 = icmp eq %"struct.dawn_native::ErrorData::BacktraceRecord"* %218, null
  br i1 %219, label %225, label %220

220:                                              ; preds = %216
  %221 = ptrtoint %"struct.dawn_native::ErrorData::BacktraceRecord"* %218 to i64
  %222 = getelementptr inbounds %"class.dawn_native::ErrorData", %"class.dawn_native::ErrorData"* %212, i64 0, i32 2, i32 0, i32 1
  %223 = bitcast %"struct.dawn_native::ErrorData::BacktraceRecord"** %222 to i64*
  store i64 %221, i64* %223, align 8
  %224 = bitcast %"struct.dawn_native::ErrorData::BacktraceRecord"* %218 to i8*
  call void @_ZdlPv(i8* %224) #10
  br label %225

225:                                              ; preds = %220, %216
  %226 = getelementptr inbounds %"class.dawn_native::ErrorData", %"class.dawn_native::ErrorData"* %212, i64 0, i32 1
  %227 = bitcast %"class.std::__1::basic_string"* %226 to %"struct.std::__1::basic_string<char, std::__1::char_traits<char>, std::__1::allocator<char> >::__short"*
  %228 = getelementptr inbounds %"struct.std::__1::basic_string<char, std::__1::char_traits<char>, std::__1::allocator<char> >::__short", %"struct.std::__1::basic_string<char, std::__1::char_traits<char>, std::__1::allocator<char> >::__short"* %227, i64 0, i32 1, i32 0
  %229 = load i8, i8* %228, align 1
  %230 = icmp slt i8 %229, 0
  br i1 %230, label %231, label %234

231:                                              ; preds = %225
  %232 = getelementptr inbounds %"class.std::__1::basic_string", %"class.std::__1::basic_string"* %226, i64 0, i32 0, i32 0, i32 0, i32 0, i32 0, i32 0
  %233 = load i8*, i8** %232, align 8
  call void @_ZdlPv(i8* %233) #10
  br label %234

234:                                              ; preds = %231, %225
  call void @_ZdlPv(i8* %213) #10
  br label %235

235:                                              ; preds = %206, %234
  call void @llvm.lifetime.end.p0i8(i64 24, i8* nonnull %154) #9
  %236 = bitcast i8** %8 to i8*
  call void @llvm.lifetime.start.p0i8(i64 8, i8* nonnull %236) #9
  store i8* null, i8** %8, align 8
  br i1 %3, label %237, label %289

237:                                              ; preds = %235
  %238 = bitcast %class.Result.385* %9 to i8*
  call void @llvm.lifetime.start.p0i8(i64 8, i8* nonnull %238) #9
  %239 = getelementptr inbounds %class.Result.385, %class.Result.385* %9, i64 0, i32 0, i32 0, i32 0, i32 0
  store %"class.dawn_native::ErrorData"* inttoptr (i64 -6148914691236517206 to %"class.dawn_native::ErrorData"*), %"class.dawn_native::ErrorData"** %239, align 8
  %240 = load %"class.dawn_native::vulkan::Device"*, %"class.dawn_native::vulkan::Device"** %14, align 8
  %241 = getelementptr inbounds %"class.dawn_native::vulkan::Device", %"class.dawn_native::vulkan::Device"* %240, i64 0, i32 1, i32 153
  %242 = load i32 (%struct.VkDevice_T*, %struct.VkDeviceMemory_T*, i64, i64, i32, i8**)*, i32 (%struct.VkDevice_T*, %struct.VkDeviceMemory_T*, i64, i64, i32, i8**)** %241, align 8
  %243 = call %struct.VkDevice_T* @_ZNK11dawn_native6vulkan6Device11GetVkDeviceEv(%"class.dawn_native::vulkan::Device"* %240) #9
  %244 = inttoptr i64 %209 to %"class.dawn_native::vulkan::ResourceHeap"*
  %245 = call %struct.VkDeviceMemory_T* @_ZNK11dawn_native6vulkan12ResourceHeap9GetMemoryEv(%"class.dawn_native::vulkan::ResourceHeap"* %244) #9
  %246 = call i32 %242(%struct.VkDevice_T* %243, %struct.VkDeviceMemory_T* %245, i64 0, i64 %77, i32 0, i8** nonnull %8) #9
  call void @_ZN11dawn_native6vulkan18CheckVkSuccessImplENS0_8VkResultEPKc(%class.Result.385* nonnull sret %9, i32 %246, i8* getelementptr inbounds ([12 x i8], [12 x i8]* @.str.1, i64 0, i64 0)) #9
  %247 = load %"class.dawn_native::ErrorData"*, %"class.dawn_native::ErrorData"** %239, align 8
  %248 = icmp eq %"class.dawn_native::ErrorData"* %247, null
  br i1 %248, label %287, label %249, !prof !8

249:                                              ; preds = %237
  %250 = inttoptr i64 %209 to %"class.dawn_native::ResourceHeapBase"*
  %251 = load %"class.std::__1::unique_ptr.312"*, %"class.std::__1::unique_ptr.312"** %155, align 8
  %252 = getelementptr inbounds %"class.std::__1::unique_ptr.312", %"class.std::__1::unique_ptr.312"* %251, i64 %153, i32 0, i32 0, i32 0
  %253 = load %"class.dawn_native::vulkan::ResourceMemoryAllocator::SingleTypeAllocator"*, %"class.dawn_native::vulkan::ResourceMemoryAllocator::SingleTypeAllocator"** %252, align 8
  %254 = bitcast %"class.dawn_native::vulkan::ResourceMemoryAllocator::SingleTypeAllocator"* %253 to void (%"class.dawn_native::vulkan::ResourceMemoryAllocator::SingleTypeAllocator"*, %"class.dawn_native::ResourceHeapBase"*)***
  %255 = load void (%"class.dawn_native::vulkan::ResourceMemoryAllocator::SingleTypeAllocator"*, %"class.dawn_native::ResourceHeapBase"*)**, void (%"class.dawn_native::vulkan::ResourceMemoryAllocator::SingleTypeAllocator"*, %"class.dawn_native::ResourceHeapBase"*)*** %254, align 8
  %256 = getelementptr inbounds void (%"class.dawn_native::vulkan::ResourceMemoryAllocator::SingleTypeAllocator"*, %"class.dawn_native::ResourceHeapBase"*)*, void (%"class.dawn_native::vulkan::ResourceMemoryAllocator::SingleTypeAllocator"*, %"class.dawn_native::ResourceHeapBase"*)** %255, i64 3
  %257 = load void (%"class.dawn_native::vulkan::ResourceMemoryAllocator::SingleTypeAllocator"*, %"class.dawn_native::ResourceHeapBase"*)*, void (%"class.dawn_native::vulkan::ResourceMemoryAllocator::SingleTypeAllocator"*, %"class.dawn_native::ResourceHeapBase"*)** %256, align 8
  call void %257(%"class.dawn_native::vulkan::ResourceMemoryAllocator::SingleTypeAllocator"* %253, %"class.dawn_native::ResourceHeapBase"* %250) #9
  %258 = load %"class.dawn_native::ErrorData"*, %"class.dawn_native::ErrorData"** %239, align 8
  store %"class.dawn_native::ErrorData"* null, %"class.dawn_native::ErrorData"** %239, align 8
  %259 = ptrtoint %"class.dawn_native::ErrorData"* %258 to i64
  call void @_ZN11dawn_native9ErrorData15AppendBacktraceEPKcS2_i(%"class.dawn_native::ErrorData"* %258, i8* getelementptr inbounds ([76 x i8], [76 x i8]* @.str, i64 0, i64 0), i8* getelementptr inbounds ([9 x i8], [9 x i8]* @__func__._ZN11dawn_native6vulkan23ResourceMemoryAllocator8AllocateERK20VkMemoryRequirementsb, i64 0, i64 0), i32 160) #9
  %260 = getelementptr inbounds %class.Result, %class.Result* %0, i64 0, i32 0
  store i32 1, i32* %260, align 8
  %261 = getelementptr inbounds %class.Result, %class.Result* %0, i64 0, i32 1
  %262 = bitcast %"class.std::__1::unique_ptr.365"* %261 to i64*
  store i64 %259, i64* %262, align 8
  %263 = getelementptr inbounds %class.Result, %class.Result* %0, i64 0, i32 2
  call void @_ZN11dawn_native24ResourceMemoryAllocationC1Ev(%"class.dawn_native::ResourceMemoryAllocation"* %263) #9
  %264 = load %"class.dawn_native::ErrorData"*, %"class.dawn_native::ErrorData"** %239, align 8
  store %"class.dawn_native::ErrorData"* null, %"class.dawn_native::ErrorData"** %239, align 8
  %265 = icmp eq %"class.dawn_native::ErrorData"* %264, null
  br i1 %265, label %286, label %266

266:                                              ; preds = %249
  %267 = getelementptr inbounds %"class.dawn_native::ErrorData", %"class.dawn_native::ErrorData"* %264, i64 0, i32 2, i32 0, i32 0
  %268 = load %"struct.dawn_native::ErrorData::BacktraceRecord"*, %"struct.dawn_native::ErrorData::BacktraceRecord"** %267, align 8
  %269 = icmp eq %"struct.dawn_native::ErrorData::BacktraceRecord"* %268, null
  br i1 %269, label %275, label %270

270:                                              ; preds = %266
  %271 = ptrtoint %"struct.dawn_native::ErrorData::BacktraceRecord"* %268 to i64
  %272 = getelementptr inbounds %"class.dawn_native::ErrorData", %"class.dawn_native::ErrorData"* %264, i64 0, i32 2, i32 0, i32 1
  %273 = bitcast %"struct.dawn_native::ErrorData::BacktraceRecord"** %272 to i64*
  store i64 %271, i64* %273, align 8
  %274 = bitcast %"struct.dawn_native::ErrorData::BacktraceRecord"* %268 to i8*
  call void @_ZdlPv(i8* %274) #10
  br label %275

275:                                              ; preds = %270, %266
  %276 = getelementptr inbounds %"class.dawn_native::ErrorData", %"class.dawn_native::ErrorData"* %264, i64 0, i32 1
  %277 = bitcast %"class.std::__1::basic_string"* %276 to %"struct.std::__1::basic_string<char, std::__1::char_traits<char>, std::__1::allocator<char> >::__short"*
  %278 = getelementptr inbounds %"struct.std::__1::basic_string<char, std::__1::char_traits<char>, std::__1::allocator<char> >::__short", %"struct.std::__1::basic_string<char, std::__1::char_traits<char>, std::__1::allocator<char> >::__short"* %277, i64 0, i32 1, i32 0
  %279 = load i8, i8* %278, align 1
  %280 = icmp slt i8 %279, 0
  br i1 %280, label %281, label %284

281:                                              ; preds = %275
  %282 = getelementptr inbounds %"class.std::__1::basic_string", %"class.std::__1::basic_string"* %276, i64 0, i32 0, i32 0, i32 0, i32 0, i32 0, i32 0
  %283 = load i8*, i8** %282, align 8
  call void @_ZdlPv(i8* %283) #10
  br label %284

284:                                              ; preds = %281, %275
  %285 = bitcast %"class.dawn_native::ErrorData"* %264 to i8*
  call void @_ZdlPv(i8* %285) #10
  br label %286

286:                                              ; preds = %249, %284
  call void @llvm.lifetime.end.p0i8(i64 8, i8* nonnull %238) #9
  br label %305

287:                                              ; preds = %237
  call void @llvm.lifetime.end.p0i8(i64 8, i8* nonnull %238) #9
  %288 = load i8*, i8** %8, align 8
  br label %289

289:                                              ; preds = %287, %235
  %290 = phi i8* [ %288, %287 ], [ null, %235 ]
  %291 = bitcast %"struct.dawn_native::AllocationInfo"* %10 to i8*
  call void @llvm.lifetime.start.p0i8(i64 16, i8* nonnull %291) #9
  %292 = getelementptr inbounds %"struct.dawn_native::AllocationInfo", %"struct.dawn_native::AllocationInfo"* %10, i64 0, i32 0
  %293 = getelementptr inbounds %"struct.dawn_native::AllocationInfo", %"struct.dawn_native::AllocationInfo"* %10, i64 0, i32 1
  %294 = bitcast %"struct.dawn_native::AllocationInfo"* %10 to i8*
  call void @llvm.memset.p0i8.i64(i8* nonnull align 8 %294, i8 -86, i64 16, i1 false)
  store i64 0, i64* %292, align 8
  store i32 0, i32* %293, align 8
  %295 = bitcast %"class.dawn_native::ResourceMemoryAllocation"* %11 to i8*
  call void @llvm.lifetime.start.p0i8(i64 48, i8* nonnull %295) #9
  %296 = inttoptr i64 %209 to %"class.dawn_native::ResourceHeapBase"*
  call void @_ZN11dawn_native24ResourceMemoryAllocationC1ERKNS_14AllocationInfoEmPNS_16ResourceHeapBaseEPh(%"class.dawn_native::ResourceMemoryAllocation"* nonnull %11, %"struct.dawn_native::AllocationInfo"* nonnull dereferenceable(16) %10, i64 0, %"class.dawn_native::ResourceHeapBase"* %296, i8* %290) #9
  %297 = getelementptr inbounds %class.Result, %class.Result* %0, i64 0, i32 0
  store i32 0, i32* %297, align 8
  %298 = getelementptr inbounds %class.Result, %class.Result* %0, i64 0, i32 1
  %299 = bitcast %"class.std::__1::unique_ptr.365"* %298 to i64*
  store i64 0, i64* %299, align 8
  %300 = getelementptr inbounds %class.Result, %class.Result* %0, i64 0, i32 2, i32 0
  store i32 (...)** bitcast (i8** getelementptr inbounds ({ [5 x i8*] }, { [5 x i8*] }* @_ZTVN11dawn_native24ResourceMemoryAllocationE, i64 0, inrange i32 0, i64 2) to i32 (...)**), i32 (...)*** %300, align 8
  %301 = getelementptr inbounds %class.Result, %class.Result* %0, i64 0, i32 2, i32 1
  %302 = getelementptr inbounds %"class.dawn_native::ResourceMemoryAllocation", %"class.dawn_native::ResourceMemoryAllocation"* %11, i64 0, i32 1
  %303 = bitcast %"struct.dawn_native::AllocationInfo"* %301 to i8*
  %304 = bitcast %"struct.dawn_native::AllocationInfo"* %302 to i8*
  call void @llvm.memcpy.p0i8.p0i8.i64(i8* align 8 %303, i8* align 8 %304, i64 40, i1 false) #9
  call void @llvm.lifetime.end.p0i8(i64 48, i8* nonnull %295) #9
  call void @llvm.lifetime.end.p0i8(i64 16, i8* nonnull %291) #9
  br label %305

305:                                              ; preds = %286, %289
  call void @llvm.lifetime.end.p0i8(i64 8, i8* nonnull %236) #9
  br label %306

306:                                              ; preds = %205, %305, %150
  ret void
}

; Function Attrs: nounwind ssp uwtable
define hidden i32 @_ZN11dawn_native6vulkan23ResourceMemoryAllocator17FindBestTypeIndexE20VkMemoryRequirementsb(%"class.dawn_native::vulkan::ResourceMemoryAllocator"* nocapture readonly, %struct.VkMemoryRequirements* nocapture readonly byval(%struct.VkMemoryRequirements) align 8, i1 zeroext) local_unnamed_addr #0 align 2 {
  %4 = getelementptr inbounds %"class.dawn_native::vulkan::ResourceMemoryAllocator", %"class.dawn_native::vulkan::ResourceMemoryAllocator"* %0, i64 0, i32 0
  %5 = load %"class.dawn_native::vulkan::Device"*, %"class.dawn_native::vulkan::Device"** %4, align 8
  %6 = tail call dereferenceable(1800) %"struct.dawn_native::vulkan::VulkanDeviceInfo"* @_ZNK11dawn_native6vulkan6Device13GetDeviceInfoEv(%"class.dawn_native::vulkan::Device"* %5) #9
  %7 = getelementptr inbounds %"struct.dawn_native::vulkan::VulkanDeviceInfo", %"struct.dawn_native::vulkan::VulkanDeviceInfo"* %6, i64 0, i32 5
  %8 = getelementptr inbounds %"struct.dawn_native::vulkan::VulkanDeviceInfo", %"struct.dawn_native::vulkan::VulkanDeviceInfo"* %6, i64 0, i32 5, i32 0, i32 1
  %9 = bitcast %struct.VkMemoryType** %8 to i64*
  %10 = load i64, i64* %9, align 8
  %11 = bitcast %"class.std::__1::vector.50"* %7 to i64*
  %12 = load i64, i64* %11, align 8
  %13 = icmp eq i64 %10, %12
  %14 = inttoptr i64 %12 to %struct.VkMemoryType*
  br i1 %13, label %22, label %15

15:                                               ; preds = %3
  %16 = getelementptr inbounds %struct.VkMemoryRequirements, %struct.VkMemoryRequirements* %1, i64 0, i32 2
  %17 = load i32, i32* %16, align 8
  %18 = getelementptr inbounds %"struct.dawn_native::vulkan::VulkanDeviceInfo", %"struct.dawn_native::vulkan::VulkanDeviceInfo"* %6, i64 0, i32 6, i32 0, i32 0
  %19 = load %struct.VkMemoryHeap*, %struct.VkMemoryHeap** %18, align 8
  %20 = sub i64 %10, %12
  %21 = ashr exact i64 %20, 3
  br label %24

22:                                               ; preds = %64, %3
  %23 = phi i32 [ -1, %3 ], [ %65, %64 ]
  ret i32 %23

24:                                               ; preds = %15, %64
  %25 = phi i32 [ -1, %15 ], [ %65, %64 ]
  %26 = phi i64 [ 0, %15 ], [ %66, %64 ]
  %27 = trunc i64 %26 to i32
  %28 = shl i32 1, %27
  %29 = and i32 %17, %28
  %30 = icmp eq i32 %29, 0
  br i1 %30, label %64, label %31

31:                                               ; preds = %24
  br i1 %2, label %32, label %37

32:                                               ; preds = %31
  %33 = getelementptr inbounds %struct.VkMemoryType, %struct.VkMemoryType* %14, i64 %26, i32 0
  %34 = load i32, i32* %33, align 4
  %35 = and i32 %34, 6
  %36 = icmp eq i32 %35, 6
  br i1 %36, label %37, label %64

37:                                               ; preds = %32, %31
  %38 = icmp eq i32 %25, -1
  br i1 %38, label %64, label %39

39:                                               ; preds = %37
  %40 = sext i32 %25 to i64
  br i1 %2, label %51, label %41

41:                                               ; preds = %39
  %42 = getelementptr inbounds %struct.VkMemoryType, %struct.VkMemoryType* %14, i64 %40, i32 0
  %43 = load i32, i32* %42, align 4
  %44 = and i32 %43, 1
  %45 = icmp eq i32 %44, 0
  br i1 %45, label %46, label %51

46:                                               ; preds = %41
  %47 = getelementptr inbounds %struct.VkMemoryType, %struct.VkMemoryType* %14, i64 %26, i32 0
  %48 = load i32, i32* %47, align 4
  %49 = and i32 %48, 1
  %50 = icmp eq i32 %49, 0
  br i1 %50, label %51, label %64

51:                                               ; preds = %39, %46, %41
  %52 = getelementptr inbounds %struct.VkMemoryType, %struct.VkMemoryType* %14, i64 %40, i32 1
  %53 = load i32, i32* %52, align 4
  %54 = zext i32 %53 to i64
  %55 = getelementptr inbounds %struct.VkMemoryHeap, %struct.VkMemoryHeap* %19, i64 %54, i32 0
  %56 = load i64, i64* %55, align 8
  %57 = getelementptr inbounds %struct.VkMemoryType, %struct.VkMemoryType* %14, i64 %26, i32 1
  %58 = load i32, i32* %57, align 4
  %59 = zext i32 %58 to i64
  %60 = getelementptr inbounds %struct.VkMemoryHeap, %struct.VkMemoryHeap* %19, i64 %59, i32 0
  %61 = load i64, i64* %60, align 8
  %62 = icmp ugt i64 %61, %56
  %63 = select i1 %62, i32 %27, i32 %25
  br label %64

64:                                               ; preds = %32, %46, %37, %51, %24
  %65 = phi i32 [ %25, %24 ], [ %25, %32 ], [ %63, %51 ], [ %27, %37 ], [ %27, %46 ]
  %66 = add nuw i64 %26, 1
  %67 = icmp ult i64 %66, %21
  br i1 %67, label %24, label %22
}

; Function Attrs: argmemonly nounwind
declare void @llvm.memcpy.p0i8.p0i8.i64(i8* nocapture writeonly, i8* nocapture readonly, i64, i1 immarg) #1

; Function Attrs: argmemonly nounwind
declare void @llvm.memset.p0i8.i64(i8* nocapture writeonly, i8, i64, i1 immarg) #1

declare void @_ZN11dawn_native24ResourceMemoryAllocationC1Ev(%"class.dawn_native::ResourceMemoryAllocation"*) unnamed_addr #2

declare void @_ZN11dawn_native9ErrorData15AppendBacktraceEPKcS2_i(%"class.dawn_native::ErrorData"*, i8*, i8*, i32) local_unnamed_addr #2

declare { i64, i32 } @_ZNK11dawn_native24ResourceMemoryAllocation7GetInfoEv(%"class.dawn_native::ResourceMemoryAllocation"*) local_unnamed_addr #2

declare void @_ZN11dawn_native6vulkan18CheckVkSuccessImplENS0_8VkResultEPKc(%class.Result.385* sret, i32, i8*) local_unnamed_addr #2

declare %struct.VkDevice_T* @_ZNK11dawn_native6vulkan6Device11GetVkDeviceEv(%"class.dawn_native::vulkan::Device"*) local_unnamed_addr #2

declare %struct.VkDeviceMemory_T* @_ZNK11dawn_native6vulkan12ResourceHeap9GetMemoryEv(%"class.dawn_native::vulkan::ResourceHeap"*) local_unnamed_addr #2

declare void @_ZN11dawn_native24ResourceMemoryAllocationC1ERKNS_14AllocationInfoEmPNS_16ResourceHeapBaseEPh(%"class.dawn_native::ResourceMemoryAllocation"*, %"struct.dawn_native::AllocationInfo"* dereferenceable(16), i64, %"class.dawn_native::ResourceHeapBase"*, i8*) unnamed_addr #2

; Function Attrs: nounwind ssp uwtable
define hidden void @_ZN11dawn_native6vulkan23ResourceMemoryAllocator10DeallocateEPNS_24ResourceMemoryAllocationE(%"class.dawn_native::vulkan::ResourceMemoryAllocator"*, %"class.dawn_native::ResourceMemoryAllocation"*) local_unnamed_addr #0 align 2 {
  %3 = tail call { i64, i32 } @_ZNK11dawn_native24ResourceMemoryAllocation7GetInfoEv(%"class.dawn_native::ResourceMemoryAllocation"* %1) #9
  %4 = extractvalue { i64, i32 } %3, 1
  switch i32 %4, label %27 [
    i32 3, label %28
    i32 0, label %5
    i32 1, label %22
  ]

5:                                                ; preds = %2
  %6 = tail call %"class.dawn_native::ResourceHeapBase"* @_ZNK11dawn_native24ResourceMemoryAllocation15GetResourceHeapEv(%"class.dawn_native::ResourceMemoryAllocation"* %1) #9
  %7 = bitcast %"class.dawn_native::ResourceHeapBase"* %6 to %"class.dawn_native::vulkan::ResourceHeap"*
  %8 = bitcast %"class.dawn_native::ResourceMemoryAllocation"* %1 to void (%"class.dawn_native::ResourceMemoryAllocation"*)***
  %9 = load void (%"class.dawn_native::ResourceMemoryAllocation"*)**, void (%"class.dawn_native::ResourceMemoryAllocation"*)*** %8, align 8
  %10 = getelementptr inbounds void (%"class.dawn_native::ResourceMemoryAllocation"*)*, void (%"class.dawn_native::ResourceMemoryAllocation"*)** %9, i64 2
  %11 = load void (%"class.dawn_native::ResourceMemoryAllocation"*)*, void (%"class.dawn_native::ResourceMemoryAllocation"*)** %10, align 8
  tail call void %11(%"class.dawn_native::ResourceMemoryAllocation"* %1) #9
  %12 = getelementptr inbounds %"class.dawn_native::vulkan::ResourceMemoryAllocator", %"class.dawn_native::vulkan::ResourceMemoryAllocator"* %0, i64 0, i32 0
  %13 = load %"class.dawn_native::vulkan::Device"*, %"class.dawn_native::vulkan::Device"** %12, align 8
  %14 = tail call %"class.dawn_native::vulkan::FencedDeleter"* @_ZNK11dawn_native6vulkan6Device16GetFencedDeleterEv(%"class.dawn_native::vulkan::Device"* %13) #9
  %15 = tail call %struct.VkDeviceMemory_T* @_ZNK11dawn_native6vulkan12ResourceHeap9GetMemoryEv(%"class.dawn_native::vulkan::ResourceHeap"* %7) #9
  tail call void @_ZN11dawn_native6vulkan13FencedDeleter16DeleteWhenUnusedENS0_6detail8VkHandleINS0_19VkTagVkDeviceMemoryEP16VkDeviceMemory_TEE(%"class.dawn_native::vulkan::FencedDeleter"* %14, %struct.VkDeviceMemory_T* %15) #9
  %16 = icmp eq %"class.dawn_native::ResourceHeapBase"* %6, null
  br i1 %16, label %28, label %17

17:                                               ; preds = %5
  %18 = bitcast %"class.dawn_native::ResourceHeapBase"* %6 to void (%"class.dawn_native::vulkan::ResourceHeap"*)***
  %19 = load void (%"class.dawn_native::vulkan::ResourceHeap"*)**, void (%"class.dawn_native::vulkan::ResourceHeap"*)*** %18, align 8
  %20 = getelementptr inbounds void (%"class.dawn_native::vulkan::ResourceHeap"*)*, void (%"class.dawn_native::vulkan::ResourceHeap"*)** %19, i64 1
  %21 = load void (%"class.dawn_native::vulkan::ResourceHeap"*)*, void (%"class.dawn_native::vulkan::ResourceHeap"*)** %20, align 8
  tail call void %21(%"class.dawn_native::vulkan::ResourceHeap"* nonnull %7) #9
  br label %28

22:                                               ; preds = %2
  %23 = getelementptr inbounds %"class.dawn_native::vulkan::ResourceMemoryAllocator", %"class.dawn_native::vulkan::ResourceMemoryAllocator"* %0, i64 0, i32 2
  %24 = bitcast %"class.dawn_native::vulkan::ResourceMemoryAllocator"* %0 to %"class.dawn_native::DeviceBase"**
  %25 = load %"class.dawn_native::DeviceBase"*, %"class.dawn_native::DeviceBase"** %24, align 8
  %26 = tail call i64 @_ZNK11dawn_native10DeviceBase23GetPendingCommandSerialEv(%"class.dawn_native::DeviceBase"* %25) #9
  tail call void @_ZN11SerialQueueImN11dawn_native24ResourceMemoryAllocationEE7EnqueueERKS1_m(%class.SerialQueue.355* %23, %"class.dawn_native::ResourceMemoryAllocation"* dereferenceable(48) %1, i64 %26)
  br label %28

27:                                               ; preds = %2
  unreachable

28:                                               ; preds = %5, %17, %22, %2
  %29 = bitcast %"class.dawn_native::ResourceMemoryAllocation"* %1 to void (%"class.dawn_native::ResourceMemoryAllocation"*)***
  %30 = load void (%"class.dawn_native::ResourceMemoryAllocation"*)**, void (%"class.dawn_native::ResourceMemoryAllocation"*)*** %29, align 8
  %31 = getelementptr inbounds void (%"class.dawn_native::ResourceMemoryAllocation"*)*, void (%"class.dawn_native::ResourceMemoryAllocation"*)** %30, i64 2
  %32 = load void (%"class.dawn_native::ResourceMemoryAllocation"*)*, void (%"class.dawn_native::ResourceMemoryAllocation"*)** %31, align 8
  tail call void %32(%"class.dawn_native::ResourceMemoryAllocation"* %1) #9
  ret void
}

declare %"class.dawn_native::ResourceHeapBase"* @_ZNK11dawn_native24ResourceMemoryAllocation15GetResourceHeapEv(%"class.dawn_native::ResourceMemoryAllocation"*) local_unnamed_addr #2

declare %"class.dawn_native::vulkan::FencedDeleter"* @_ZNK11dawn_native6vulkan6Device16GetFencedDeleterEv(%"class.dawn_native::vulkan::Device"*) local_unnamed_addr #2

declare void @_ZN11dawn_native6vulkan13FencedDeleter16DeleteWhenUnusedENS0_6detail8VkHandleINS0_19VkTagVkDeviceMemoryEP16VkDeviceMemory_TEE(%"class.dawn_native::vulkan::FencedDeleter"*, %struct.VkDeviceMemory_T*) local_unnamed_addr #2

; Function Attrs: nounwind ssp uwtable
define linkonce_odr hidden void @_ZN11SerialQueueImN11dawn_native24ResourceMemoryAllocationEE7EnqueueERKS1_m(%class.SerialQueue.355*, %"class.dawn_native::ResourceMemoryAllocation"* dereferenceable(48), i64) local_unnamed_addr #0 comdat align 2 {
  %4 = alloca i64, align 8
  %5 = alloca %"class.std::__1::vector.388", align 8
  store i64 %2, i64* %4, align 8
  %6 = getelementptr inbounds %class.SerialQueue.355, %class.SerialQueue.355* %0, i64 0, i32 0, i32 0, i32 0, i32 0
  %7 = load %"struct.std::__1::pair.359"*, %"struct.std::__1::pair.359"** %6, align 8
  %8 = getelementptr inbounds %class.SerialQueue.355, %class.SerialQueue.355* %0, i64 0, i32 0, i32 0, i32 0, i32 1
  %9 = load %"struct.std::__1::pair.359"*, %"struct.std::__1::pair.359"** %8, align 8
  %10 = icmp eq %"struct.std::__1::pair.359"* %7, %9
  br i1 %10, label %15, label %11

11:                                               ; preds = %3
  %12 = getelementptr inbounds %"struct.std::__1::pair.359", %"struct.std::__1::pair.359"* %9, i64 -1, i32 0
  %13 = load i64, i64* %12, align 8
  %14 = icmp ult i64 %13, %2
  br i1 %14, label %15, label %63

15:                                               ; preds = %11, %3
  %16 = bitcast %"class.std::__1::vector.388"* %5 to i8*
  call void @llvm.lifetime.start.p0i8(i64 24, i8* nonnull %16) #9
  call void @llvm.memset.p0i8.i64(i8* nonnull align 8 %16, i8 0, i64 24, i1 false) #9
  %17 = getelementptr inbounds %class.SerialQueue.355, %class.SerialQueue.355* %0, i64 0, i32 0, i32 0, i32 0, i32 2, i32 0, i32 0
  %18 = load %"struct.std::__1::pair.359"*, %"struct.std::__1::pair.359"** %17, align 8
  %19 = icmp ult %"struct.std::__1::pair.359"* %9, %18
  br i1 %19, label %20, label %39

20:                                               ; preds = %15
  %21 = getelementptr inbounds %"struct.std::__1::pair.359", %"struct.std::__1::pair.359"* %9, i64 0, i32 0
  store i64 %2, i64* %21, align 8
  %22 = getelementptr inbounds %"struct.std::__1::pair.359", %"struct.std::__1::pair.359"* %9, i64 0, i32 1
  %23 = bitcast %"class.std::__1::vector.388"* %5 to i64*
  %24 = load i64, i64* %23, align 8
  %25 = bitcast %"class.std::__1::vector.388"* %22 to i64*
  store i64 %24, i64* %25, align 8
  %26 = getelementptr inbounds %"class.std::__1::vector.388", %"class.std::__1::vector.388"* %5, i64 0, i32 0, i32 1
  %27 = bitcast %"class.dawn_native::ResourceMemoryAllocation"** %26 to i64*
  %28 = load i64, i64* %27, align 8
  %29 = getelementptr inbounds %"struct.std::__1::pair.359", %"struct.std::__1::pair.359"* %9, i64 0, i32 1, i32 0, i32 1
  %30 = bitcast %"class.dawn_native::ResourceMemoryAllocation"** %29 to i64*
  store i64 %28, i64* %30, align 8
  %31 = getelementptr inbounds %"class.std::__1::vector.388", %"class.std::__1::vector.388"* %5, i64 0, i32 0, i32 2, i32 0, i32 0
  %32 = bitcast %"class.dawn_native::ResourceMemoryAllocation"** %31 to i64*
  %33 = load i64, i64* %32, align 8
  %34 = getelementptr inbounds %"struct.std::__1::pair.359", %"struct.std::__1::pair.359"* %9, i64 0, i32 1, i32 0, i32 2, i32 0, i32 0
  %35 = bitcast %"class.dawn_native::ResourceMemoryAllocation"** %34 to i64*
  store i64 %33, i64* %35, align 8
  call void @llvm.memset.p0i8.i64(i8* nonnull align 8 %16, i8 0, i64 24, i1 false) #9
  %36 = getelementptr inbounds %"struct.std::__1::pair.359", %"struct.std::__1::pair.359"* %9, i64 1
  %37 = ptrtoint %"struct.std::__1::pair.359"* %36 to i64
  %38 = bitcast %"struct.std::__1::pair.359"** %8 to i64*
  store i64 %37, i64* %38, align 8
  br label %61

39:                                               ; preds = %15
  %40 = getelementptr inbounds %class.SerialQueue.355, %class.SerialQueue.355* %0, i64 0, i32 0, i32 0
  call void @_ZNSt3__16vectorINS_4pairImNS0_IN11dawn_native24ResourceMemoryAllocationENS_9allocatorIS3_EEEEEENS4_IS7_EEE24__emplace_back_slow_pathIJRmS6_EEEvDpOT_(%"class.std::__1::vector.357"* %40, i64* nonnull dereferenceable(8) %4, %"class.std::__1::vector.388"* nonnull dereferenceable(24) %5) #9
  %41 = getelementptr inbounds %"class.std::__1::vector.388", %"class.std::__1::vector.388"* %5, i64 0, i32 0, i32 0
  %42 = load %"class.dawn_native::ResourceMemoryAllocation"*, %"class.dawn_native::ResourceMemoryAllocation"** %41, align 8
  %43 = icmp eq %"class.dawn_native::ResourceMemoryAllocation"* %42, null
  br i1 %43, label %61, label %44

44:                                               ; preds = %39
  %45 = bitcast %"class.dawn_native::ResourceMemoryAllocation"* %42 to i8*
  %46 = getelementptr inbounds %"class.std::__1::vector.388", %"class.std::__1::vector.388"* %5, i64 0, i32 0, i32 1
  %47 = load %"class.dawn_native::ResourceMemoryAllocation"*, %"class.dawn_native::ResourceMemoryAllocation"** %46, align 8
  %48 = icmp eq %"class.dawn_native::ResourceMemoryAllocation"* %47, %42
  br i1 %48, label %59, label %49

49:                                               ; preds = %44, %49
  %50 = phi %"class.dawn_native::ResourceMemoryAllocation"* [ %51, %49 ], [ %47, %44 ]
  %51 = getelementptr inbounds %"class.dawn_native::ResourceMemoryAllocation", %"class.dawn_native::ResourceMemoryAllocation"* %50, i64 -1
  %52 = bitcast %"class.dawn_native::ResourceMemoryAllocation"* %51 to void (%"class.dawn_native::ResourceMemoryAllocation"*)***
  %53 = load void (%"class.dawn_native::ResourceMemoryAllocation"*)**, void (%"class.dawn_native::ResourceMemoryAllocation"*)*** %52, align 8
  %54 = load void (%"class.dawn_native::ResourceMemoryAllocation"*)*, void (%"class.dawn_native::ResourceMemoryAllocation"*)** %53, align 8
  call void %54(%"class.dawn_native::ResourceMemoryAllocation"* %51) #9
  %55 = icmp eq %"class.dawn_native::ResourceMemoryAllocation"* %51, %42
  br i1 %55, label %56, label %49

56:                                               ; preds = %49
  %57 = bitcast %"class.std::__1::vector.388"* %5 to i8**
  %58 = load i8*, i8** %57, align 8
  br label %59

59:                                               ; preds = %56, %44
  %60 = phi i8* [ %58, %56 ], [ %45, %44 ]
  store %"class.dawn_native::ResourceMemoryAllocation"* %42, %"class.dawn_native::ResourceMemoryAllocation"** %46, align 8
  call void @_ZdlPv(i8* %60) #10
  br label %61

61:                                               ; preds = %20, %39, %59
  call void @llvm.lifetime.end.p0i8(i64 24, i8* nonnull %16) #9
  %62 = load %"struct.std::__1::pair.359"*, %"struct.std::__1::pair.359"** %8, align 8
  br label %63

63:                                               ; preds = %61, %11
  %64 = phi %"struct.std::__1::pair.359"* [ %62, %61 ], [ %9, %11 ]
  %65 = getelementptr inbounds %"struct.std::__1::pair.359", %"struct.std::__1::pair.359"* %64, i64 -1, i32 1
  %66 = getelementptr inbounds %"struct.std::__1::pair.359", %"struct.std::__1::pair.359"* %64, i64 -1, i32 1, i32 0, i32 1
  %67 = load %"class.dawn_native::ResourceMemoryAllocation"*, %"class.dawn_native::ResourceMemoryAllocation"** %66, align 8
  %68 = getelementptr inbounds %"struct.std::__1::pair.359", %"struct.std::__1::pair.359"* %64, i64 -1, i32 1, i32 0, i32 2, i32 0, i32 0
  %69 = load %"class.dawn_native::ResourceMemoryAllocation"*, %"class.dawn_native::ResourceMemoryAllocation"** %68, align 8
  %70 = icmp eq %"class.dawn_native::ResourceMemoryAllocation"* %67, %69
  %71 = ptrtoint %"class.dawn_native::ResourceMemoryAllocation"* %69 to i64
  br i1 %70, label %81, label %72

72:                                               ; preds = %63
  %73 = getelementptr inbounds %"class.dawn_native::ResourceMemoryAllocation", %"class.dawn_native::ResourceMemoryAllocation"* %67, i64 0, i32 0
  store i32 (...)** bitcast (i8** getelementptr inbounds ({ [5 x i8*] }, { [5 x i8*] }* @_ZTVN11dawn_native24ResourceMemoryAllocationE, i64 0, inrange i32 0, i64 2) to i32 (...)**), i32 (...)*** %73, align 8
  %74 = getelementptr inbounds %"class.dawn_native::ResourceMemoryAllocation", %"class.dawn_native::ResourceMemoryAllocation"* %67, i64 0, i32 1
  %75 = getelementptr inbounds %"class.dawn_native::ResourceMemoryAllocation", %"class.dawn_native::ResourceMemoryAllocation"* %1, i64 0, i32 1
  %76 = bitcast %"struct.dawn_native::AllocationInfo"* %74 to i8*
  %77 = bitcast %"struct.dawn_native::AllocationInfo"* %75 to i8*
  call void @llvm.memcpy.p0i8.p0i8.i64(i8* align 8 %76, i8* align 8 %77, i64 40, i1 false) #9
  %78 = getelementptr inbounds %"class.dawn_native::ResourceMemoryAllocation", %"class.dawn_native::ResourceMemoryAllocation"* %67, i64 1
  %79 = ptrtoint %"class.dawn_native::ResourceMemoryAllocation"* %78 to i64
  %80 = bitcast %"class.dawn_native::ResourceMemoryAllocation"** %66 to i64*
  store i64 %79, i64* %80, align 8
  br label %158

81:                                               ; preds = %63
  %82 = ptrtoint %"class.dawn_native::ResourceMemoryAllocation"* %67 to i64
  %83 = bitcast %"class.dawn_native::ResourceMemoryAllocation"** %66 to i64*
  %84 = bitcast %"class.std::__1::vector.388"* %65 to i64*
  %85 = load i64, i64* %84, align 8
  %86 = sub i64 %82, %85
  %87 = sdiv exact i64 %86, 48
  %88 = add nsw i64 %87, 1
  %89 = icmp ugt i64 %88, 384307168202282325
  br i1 %89, label %90, label %92

90:                                               ; preds = %81
  %91 = bitcast %"class.std::__1::vector.388"* %65 to %"class.std::__1::__vector_base_common"*
  call void @_ZNKSt3__120__vector_base_commonILb1EE20__throw_length_errorEv(%"class.std::__1::__vector_base_common"* %91) #11
  unreachable

92:                                               ; preds = %81
  %93 = bitcast %"class.dawn_native::ResourceMemoryAllocation"** %68 to i64*
  %94 = sub i64 %71, %85
  %95 = sdiv exact i64 %94, 48
  %96 = icmp ult i64 %95, 192153584101141162
  br i1 %96, label %97, label %102

97:                                               ; preds = %92
  %98 = shl nsw i64 %95, 1
  %99 = icmp ult i64 %98, %88
  %100 = select i1 %99, i64 %88, i64 %98
  %101 = icmp eq i64 %100, 0
  br i1 %101, label %107, label %102

102:                                              ; preds = %97, %92
  %103 = phi i64 [ %100, %97 ], [ 384307168202282325, %92 ]
  %104 = mul i64 %103, 48
  %105 = call i8* @_Znwm(i64 %104) #10
  %106 = bitcast i8* %105 to %"class.dawn_native::ResourceMemoryAllocation"*
  br label %107

107:                                              ; preds = %102, %97
  %108 = phi i64 [ %103, %102 ], [ 0, %97 ]
  %109 = phi %"class.dawn_native::ResourceMemoryAllocation"* [ %106, %102 ], [ null, %97 ]
  %110 = getelementptr inbounds %"class.dawn_native::ResourceMemoryAllocation", %"class.dawn_native::ResourceMemoryAllocation"* %109, i64 %87
  %111 = getelementptr inbounds %"class.dawn_native::ResourceMemoryAllocation", %"class.dawn_native::ResourceMemoryAllocation"* %109, i64 %108
  %112 = ptrtoint %"class.dawn_native::ResourceMemoryAllocation"* %111 to i64
  %113 = getelementptr inbounds %"class.dawn_native::ResourceMemoryAllocation", %"class.dawn_native::ResourceMemoryAllocation"* %110, i64 0, i32 0
  store i32 (...)** bitcast (i8** getelementptr inbounds ({ [5 x i8*] }, { [5 x i8*] }* @_ZTVN11dawn_native24ResourceMemoryAllocationE, i64 0, inrange i32 0, i64 2) to i32 (...)**), i32 (...)*** %113, align 8
  %114 = getelementptr inbounds %"class.dawn_native::ResourceMemoryAllocation", %"class.dawn_native::ResourceMemoryAllocation"* %109, i64 %87, i32 1
  %115 = getelementptr inbounds %"class.dawn_native::ResourceMemoryAllocation", %"class.dawn_native::ResourceMemoryAllocation"* %1, i64 0, i32 1
  %116 = bitcast %"struct.dawn_native::AllocationInfo"* %114 to i8*
  %117 = bitcast %"struct.dawn_native::AllocationInfo"* %115 to i8*
  call void @llvm.memcpy.p0i8.p0i8.i64(i8* align 8 %116, i8* align 8 %117, i64 40, i1 false) #9
  %118 = getelementptr inbounds %"class.dawn_native::ResourceMemoryAllocation", %"class.dawn_native::ResourceMemoryAllocation"* %110, i64 1
  %119 = ptrtoint %"class.dawn_native::ResourceMemoryAllocation"* %118 to i64
  %120 = getelementptr inbounds %"class.std::__1::vector.388", %"class.std::__1::vector.388"* %65, i64 0, i32 0, i32 0
  %121 = load %"class.dawn_native::ResourceMemoryAllocation"*, %"class.dawn_native::ResourceMemoryAllocation"** %120, align 8
  %122 = load %"class.dawn_native::ResourceMemoryAllocation"*, %"class.dawn_native::ResourceMemoryAllocation"** %66, align 8
  %123 = icmp eq %"class.dawn_native::ResourceMemoryAllocation"* %122, %121
  br i1 %123, label %124, label %126

124:                                              ; preds = %107
  %125 = ptrtoint %"class.dawn_native::ResourceMemoryAllocation"* %121 to i64
  br label %140

126:                                              ; preds = %107, %126
  %127 = phi %"class.dawn_native::ResourceMemoryAllocation"* [ %135, %126 ], [ %110, %107 ]
  %128 = phi %"class.dawn_native::ResourceMemoryAllocation"* [ %129, %126 ], [ %122, %107 ]
  %129 = getelementptr inbounds %"class.dawn_native::ResourceMemoryAllocation", %"class.dawn_native::ResourceMemoryAllocation"* %128, i64 -1
  %130 = getelementptr inbounds %"class.dawn_native::ResourceMemoryAllocation", %"class.dawn_native::ResourceMemoryAllocation"* %127, i64 -1, i32 0
  store i32 (...)** bitcast (i8** getelementptr inbounds ({ [5 x i8*] }, { [5 x i8*] }* @_ZTVN11dawn_native24ResourceMemoryAllocationE, i64 0, inrange i32 0, i64 2) to i32 (...)**), i32 (...)*** %130, align 8
  %131 = getelementptr inbounds %"class.dawn_native::ResourceMemoryAllocation", %"class.dawn_native::ResourceMemoryAllocation"* %127, i64 -1, i32 1
  %132 = getelementptr inbounds %"class.dawn_native::ResourceMemoryAllocation", %"class.dawn_native::ResourceMemoryAllocation"* %128, i64 -1, i32 1
  %133 = bitcast %"struct.dawn_native::AllocationInfo"* %131 to i8*
  %134 = bitcast %"struct.dawn_native::AllocationInfo"* %132 to i8*
  call void @llvm.memcpy.p0i8.p0i8.i64(i8* align 8 %133, i8* align 8 %134, i64 40, i1 false) #9
  %135 = getelementptr inbounds %"class.dawn_native::ResourceMemoryAllocation", %"class.dawn_native::ResourceMemoryAllocation"* %127, i64 -1
  %136 = icmp eq %"class.dawn_native::ResourceMemoryAllocation"* %129, %121
  br i1 %136, label %137, label %126

137:                                              ; preds = %126
  %138 = load i64, i64* %84, align 8
  %139 = load %"class.dawn_native::ResourceMemoryAllocation"*, %"class.dawn_native::ResourceMemoryAllocation"** %66, align 8
  br label %140

140:                                              ; preds = %137, %124
  %141 = phi %"class.dawn_native::ResourceMemoryAllocation"* [ %121, %124 ], [ %139, %137 ]
  %142 = phi %"class.dawn_native::ResourceMemoryAllocation"* [ %110, %124 ], [ %135, %137 ]
  %143 = phi i64 [ %125, %124 ], [ %138, %137 ]
  %144 = ptrtoint %"class.dawn_native::ResourceMemoryAllocation"* %142 to i64
  store i64 %144, i64* %84, align 8
  store i64 %119, i64* %83, align 8
  store i64 %112, i64* %93, align 8
  %145 = inttoptr i64 %143 to %"class.dawn_native::ResourceMemoryAllocation"*
  %146 = icmp eq %"class.dawn_native::ResourceMemoryAllocation"* %141, %145
  br i1 %146, label %154, label %147

147:                                              ; preds = %140, %147
  %148 = phi %"class.dawn_native::ResourceMemoryAllocation"* [ %149, %147 ], [ %141, %140 ]
  %149 = getelementptr inbounds %"class.dawn_native::ResourceMemoryAllocation", %"class.dawn_native::ResourceMemoryAllocation"* %148, i64 -1
  %150 = bitcast %"class.dawn_native::ResourceMemoryAllocation"* %149 to void (%"class.dawn_native::ResourceMemoryAllocation"*)***
  %151 = load void (%"class.dawn_native::ResourceMemoryAllocation"*)**, void (%"class.dawn_native::ResourceMemoryAllocation"*)*** %150, align 8
  %152 = load void (%"class.dawn_native::ResourceMemoryAllocation"*)*, void (%"class.dawn_native::ResourceMemoryAllocation"*)** %151, align 8
  call void %152(%"class.dawn_native::ResourceMemoryAllocation"* %149) #9
  %153 = icmp eq %"class.dawn_native::ResourceMemoryAllocation"* %149, %145
  br i1 %153, label %154, label %147

154:                                              ; preds = %147, %140
  %155 = icmp eq i64 %143, 0
  br i1 %155, label %158, label %156

156:                                              ; preds = %154
  %157 = inttoptr i64 %143 to i8*
  call void @_ZdlPv(i8* %157) #10
  br label %158

158:                                              ; preds = %156, %154, %72
  ret void
}

declare i64 @_ZNK11dawn_native10DeviceBase23GetPendingCommandSerialEv(%"class.dawn_native::DeviceBase"*) local_unnamed_addr #2

; Function Attrs: nounwind ssp uwtable
define hidden void @_ZN11dawn_native6vulkan23ResourceMemoryAllocator4TickEm(%"class.dawn_native::vulkan::ResourceMemoryAllocator"*, i64) local_unnamed_addr #0 align 2 {
  %3 = getelementptr inbounds %"class.dawn_native::vulkan::ResourceMemoryAllocator", %"class.dawn_native::vulkan::ResourceMemoryAllocator"* %0, i64 0, i32 2, i32 0
  %4 = getelementptr inbounds %class.SerialStorage.356, %class.SerialStorage.356* %3, i64 0, i32 0, i32 0, i32 0
  %5 = load %"struct.std::__1::pair.359"*, %"struct.std::__1::pair.359"** %4, align 8
  %6 = getelementptr inbounds %"class.dawn_native::vulkan::ResourceMemoryAllocator", %"class.dawn_native::vulkan::ResourceMemoryAllocator"* %0, i64 0, i32 2, i32 0, i32 0, i32 0, i32 1
  %7 = load %"struct.std::__1::pair.359"*, %"struct.std::__1::pair.359"** %6, align 8
  %8 = icmp eq %"struct.std::__1::pair.359"* %5, %7
  br i1 %8, label %25, label %9

9:                                                ; preds = %2, %14
  %10 = phi %"struct.std::__1::pair.359"* [ %15, %14 ], [ %5, %2 ]
  %11 = getelementptr inbounds %"struct.std::__1::pair.359", %"struct.std::__1::pair.359"* %10, i64 0, i32 0
  %12 = load i64, i64* %11, align 8
  %13 = icmp ugt i64 %12, %1
  br i1 %13, label %17, label %14

14:                                               ; preds = %9
  %15 = getelementptr inbounds %"struct.std::__1::pair.359", %"struct.std::__1::pair.359"* %10, i64 1
  %16 = icmp eq %"struct.std::__1::pair.359"* %15, %7
  br i1 %16, label %17, label %9

17:                                               ; preds = %9, %14
  %18 = phi %"struct.std::__1::pair.359"* [ %10, %9 ], [ %7, %14 ]
  %19 = icmp eq %"struct.std::__1::pair.359"* %18, %5
  br i1 %19, label %25, label %20

20:                                               ; preds = %17
  %21 = getelementptr inbounds %"class.dawn_native::vulkan::ResourceMemoryAllocator", %"class.dawn_native::vulkan::ResourceMemoryAllocator"* %0, i64 0, i32 1, i32 0, i32 0
  br label %41

22:                                               ; preds = %48
  %23 = load %"struct.std::__1::pair.359"*, %"struct.std::__1::pair.359"** %4, align 8
  %24 = load %"struct.std::__1::pair.359"*, %"struct.std::__1::pair.359"** %6, align 8
  br label %25

25:                                               ; preds = %2, %22, %17
  %26 = phi %"struct.std::__1::pair.359"* [ %24, %22 ], [ %7, %17 ], [ %7, %2 ]
  %27 = phi %"struct.std::__1::pair.359"* [ %23, %22 ], [ %5, %17 ], [ %5, %2 ]
  %28 = getelementptr inbounds %class.SerialStorage.356, %class.SerialStorage.356* %3, i64 0, i32 0
  %29 = icmp eq %"struct.std::__1::pair.359"* %27, %26
  br i1 %29, label %38, label %30

30:                                               ; preds = %25, %35
  %31 = phi %"struct.std::__1::pair.359"* [ %36, %35 ], [ %27, %25 ]
  %32 = getelementptr inbounds %"struct.std::__1::pair.359", %"struct.std::__1::pair.359"* %31, i64 0, i32 0
  %33 = load i64, i64* %32, align 8
  %34 = icmp ugt i64 %33, %1
  br i1 %34, label %38, label %35

35:                                               ; preds = %30
  %36 = getelementptr inbounds %"struct.std::__1::pair.359", %"struct.std::__1::pair.359"* %31, i64 1
  %37 = icmp eq %"struct.std::__1::pair.359"* %36, %26
  br i1 %37, label %38, label %30

38:                                               ; preds = %30, %35, %25
  %39 = phi %"struct.std::__1::pair.359"* [ %26, %25 ], [ %26, %35 ], [ %31, %30 ]
  %40 = tail call %"struct.std::__1::pair.359"* @_ZNSt3__16vectorINS_4pairImNS0_IN11dawn_native24ResourceMemoryAllocationENS_9allocatorIS3_EEEEEENS4_IS7_EEE5eraseENS_11__wrap_iterIPKS7_EESD_(%"class.std::__1::vector.357"* %28, %"struct.std::__1::pair.359"* %27, %"struct.std::__1::pair.359"* %39) #9
  ret void

41:                                               ; preds = %20, %48
  %42 = phi %"class.dawn_native::ResourceMemoryAllocation"* [ null, %20 ], [ %71, %48 ]
  %43 = phi %"struct.std::__1::pair.359"* [ %5, %20 ], [ %70, %48 ]
  %44 = icmp eq %"class.dawn_native::ResourceMemoryAllocation"* %42, null
  br i1 %44, label %45, label %48

45:                                               ; preds = %41
  %46 = getelementptr inbounds %"struct.std::__1::pair.359", %"struct.std::__1::pair.359"* %43, i64 0, i32 1, i32 0, i32 0
  %47 = load %"class.dawn_native::ResourceMemoryAllocation"*, %"class.dawn_native::ResourceMemoryAllocation"** %46, align 8
  br label %48

48:                                               ; preds = %41, %45
  %49 = phi %"class.dawn_native::ResourceMemoryAllocation"* [ %47, %45 ], [ %42, %41 ]
  %50 = tail call %"class.dawn_native::ResourceHeapBase"* @_ZNK11dawn_native24ResourceMemoryAllocation15GetResourceHeapEv(%"class.dawn_native::ResourceMemoryAllocation"* %49) #9
  %51 = bitcast %"class.dawn_native::ResourceHeapBase"* %50 to %"class.dawn_native::vulkan::ResourceHeap"*
  %52 = tail call i64 @_ZNK11dawn_native6vulkan12ResourceHeap13GetMemoryTypeEv(%"class.dawn_native::vulkan::ResourceHeap"* %51) #9
  %53 = load %"class.std::__1::unique_ptr.312"*, %"class.std::__1::unique_ptr.312"** %21, align 8
  %54 = getelementptr inbounds %"class.std::__1::unique_ptr.312", %"class.std::__1::unique_ptr.312"* %53, i64 %52, i32 0, i32 0, i32 0
  %55 = load %"class.dawn_native::vulkan::ResourceMemoryAllocator::SingleTypeAllocator"*, %"class.dawn_native::vulkan::ResourceMemoryAllocator::SingleTypeAllocator"** %54, align 8
  %56 = getelementptr inbounds %"class.dawn_native::vulkan::ResourceMemoryAllocator::SingleTypeAllocator", %"class.dawn_native::vulkan::ResourceMemoryAllocator::SingleTypeAllocator"* %55, i64 0, i32 5
  tail call void @_ZN11dawn_native20BuddyMemoryAllocator10DeallocateERKNS_24ResourceMemoryAllocationE(%"class.dawn_native::BuddyMemoryAllocator"* %56, %"class.dawn_native::ResourceMemoryAllocation"* dereferenceable(48) %49) #9
  %57 = getelementptr inbounds %"struct.std::__1::pair.359", %"struct.std::__1::pair.359"* %43, i64 0, i32 1, i32 0, i32 0
  %58 = load %"class.dawn_native::ResourceMemoryAllocation"*, %"class.dawn_native::ResourceMemoryAllocation"** %57, align 8
  %59 = select i1 %44, %"class.dawn_native::ResourceMemoryAllocation"* %58, %"class.dawn_native::ResourceMemoryAllocation"* %42
  %60 = getelementptr inbounds %"class.dawn_native::ResourceMemoryAllocation", %"class.dawn_native::ResourceMemoryAllocation"* %59, i64 1
  %61 = getelementptr inbounds %"struct.std::__1::pair.359", %"struct.std::__1::pair.359"* %43, i64 0, i32 1, i32 0, i32 1
  %62 = bitcast %"class.dawn_native::ResourceMemoryAllocation"** %61 to i64*
  %63 = load i64, i64* %62, align 8
  %64 = ptrtoint %"class.dawn_native::ResourceMemoryAllocation"* %58 to i64
  %65 = sub i64 %63, %64
  %66 = sdiv exact i64 %65, 48
  %67 = getelementptr inbounds %"class.dawn_native::ResourceMemoryAllocation", %"class.dawn_native::ResourceMemoryAllocation"* %58, i64 %66
  %68 = icmp ult %"class.dawn_native::ResourceMemoryAllocation"* %60, %67
  %69 = getelementptr inbounds %"struct.std::__1::pair.359", %"struct.std::__1::pair.359"* %43, i64 1
  %70 = select i1 %68, %"struct.std::__1::pair.359"* %43, %"struct.std::__1::pair.359"* %69
  %71 = select i1 %68, %"class.dawn_native::ResourceMemoryAllocation"* %60, %"class.dawn_native::ResourceMemoryAllocation"* null
  %72 = icmp ne %"struct.std::__1::pair.359"* %18, %70
  %73 = icmp ne %"class.dawn_native::ResourceMemoryAllocation"* %71, null
  %74 = or i1 %72, %73
  br i1 %74, label %41, label %22
}

declare i64 @_ZNK11dawn_native6vulkan12ResourceHeap13GetMemoryTypeEv(%"class.dawn_native::vulkan::ResourceHeap"*) local_unnamed_addr #2

; Function Attrs: nounwind ssp uwtable
define hidden void @_ZN11dawn_native6vulkan23ResourceMemoryAllocator11DestroyPoolEv(%"class.dawn_native::vulkan::ResourceMemoryAllocator"* nocapture readonly) local_unnamed_addr #0 align 2 {
  %2 = getelementptr inbounds %"class.dawn_native::vulkan::ResourceMemoryAllocator", %"class.dawn_native::vulkan::ResourceMemoryAllocator"* %0, i64 0, i32 1, i32 0, i32 0
  %3 = load %"class.std::__1::unique_ptr.312"*, %"class.std::__1::unique_ptr.312"** %2, align 8
  %4 = getelementptr inbounds %"class.dawn_native::vulkan::ResourceMemoryAllocator", %"class.dawn_native::vulkan::ResourceMemoryAllocator"* %0, i64 0, i32 1, i32 0, i32 1
  %5 = load %"class.std::__1::unique_ptr.312"*, %"class.std::__1::unique_ptr.312"** %4, align 8
  %6 = icmp eq %"class.std::__1::unique_ptr.312"* %3, %5
  br i1 %6, label %7, label %8

7:                                                ; preds = %8, %1
  ret void

8:                                                ; preds = %1, %8
  %9 = phi %"class.std::__1::unique_ptr.312"* [ %13, %8 ], [ %3, %1 ]
  %10 = getelementptr inbounds %"class.std::__1::unique_ptr.312", %"class.std::__1::unique_ptr.312"* %9, i64 0, i32 0, i32 0, i32 0
  %11 = load %"class.dawn_native::vulkan::ResourceMemoryAllocator::SingleTypeAllocator"*, %"class.dawn_native::vulkan::ResourceMemoryAllocator::SingleTypeAllocator"** %10, align 8
  %12 = getelementptr inbounds %"class.dawn_native::vulkan::ResourceMemoryAllocator::SingleTypeAllocator", %"class.dawn_native::vulkan::ResourceMemoryAllocator::SingleTypeAllocator"* %11, i64 0, i32 4
  tail call void @_ZN11dawn_native29PooledResourceMemoryAllocator11DestroyPoolEv(%"class.dawn_native::PooledResourceMemoryAllocator"* %12) #9
  %13 = getelementptr inbounds %"class.std::__1::unique_ptr.312", %"class.std::__1::unique_ptr.312"* %9, i64 1
  %14 = icmp eq %"class.std::__1::unique_ptr.312"* %13, %5
  br i1 %14, label %7, label %8
}

; Function Attrs: nobuiltin nounwind
declare void @_ZdlPv(i8*) local_unnamed_addr #3

declare void @_ZN11dawn_native20BuddyMemoryAllocator8AllocateEmm(%class.Result* sret, %"class.dawn_native::BuddyMemoryAllocator"*, i64, i64) local_unnamed_addr #2

declare void @_ZN11dawn_native20BuddyMemoryAllocator10DeallocateERKNS_24ResourceMemoryAllocationE(%"class.dawn_native::BuddyMemoryAllocator"*, %"class.dawn_native::ResourceMemoryAllocation"* dereferenceable(48)) local_unnamed_addr #2

declare void @_ZN11dawn_native29PooledResourceMemoryAllocator11DestroyPoolEv(%"class.dawn_native::PooledResourceMemoryAllocator"*) local_unnamed_addr #2

; Function Attrs: noreturn nounwind
declare void @abort() local_unnamed_addr #4

; Function Attrs: nobuiltin nofree
declare noalias nonnull i8* @_Znwm(i64) local_unnamed_addr #5

declare void @_ZN11dawn_native29PooledResourceMemoryAllocatorC1EPNS_21ResourceHeapAllocatorE(%"class.dawn_native::PooledResourceMemoryAllocator"*, %"class.dawn_native::ResourceHeapAllocator"*) unnamed_addr #2

declare i32 @_Z4Log2m(i64) local_unnamed_addr #2

declare void @_ZN11dawn_native20BuddyMemoryAllocatorC1EmmPNS_21ResourceHeapAllocatorE(%"class.dawn_native::BuddyMemoryAllocator"*, i64, i64, %"class.dawn_native::ResourceHeapAllocator"*) unnamed_addr #2

; Function Attrs: nounwind ssp uwtable
define linkonce_odr hidden void @_ZN11dawn_native6vulkan23ResourceMemoryAllocator19SingleTypeAllocatorD2Ev(%"class.dawn_native::vulkan::ResourceMemoryAllocator::SingleTypeAllocator"*) unnamed_addr #0 comdat align 2 {
  %2 = getelementptr inbounds %"class.dawn_native::vulkan::ResourceMemoryAllocator::SingleTypeAllocator", %"class.dawn_native::vulkan::ResourceMemoryAllocator::SingleTypeAllocator"* %0, i64 0, i32 0, i32 0
  store i32 (...)** bitcast (i8** getelementptr inbounds ({ [6 x i8*] }, { [6 x i8*] }* @_ZTVN11dawn_native6vulkan23ResourceMemoryAllocator19SingleTypeAllocatorE, i64 0, inrange i32 0, i64 2) to i32 (...)**), i32 (...)*** %2, align 8
  %3 = getelementptr inbounds %"class.dawn_native::vulkan::ResourceMemoryAllocator::SingleTypeAllocator", %"class.dawn_native::vulkan::ResourceMemoryAllocator::SingleTypeAllocator"* %0, i64 0, i32 5, i32 3
  %4 = getelementptr inbounds %"class.std::__1::vector.340", %"class.std::__1::vector.340"* %3, i64 0, i32 0, i32 0
  %5 = load %"struct.dawn_native::BuddyMemoryAllocator::TrackedSubAllocations"*, %"struct.dawn_native::BuddyMemoryAllocator::TrackedSubAllocations"** %4, align 8
  %6 = icmp eq %"struct.dawn_native::BuddyMemoryAllocator::TrackedSubAllocations"* %5, null
  br i1 %6, label %30, label %7

7:                                                ; preds = %1
  %8 = bitcast %"struct.dawn_native::BuddyMemoryAllocator::TrackedSubAllocations"* %5 to i8*
  %9 = getelementptr inbounds %"class.dawn_native::vulkan::ResourceMemoryAllocator::SingleTypeAllocator", %"class.dawn_native::vulkan::ResourceMemoryAllocator::SingleTypeAllocator"* %0, i64 0, i32 5, i32 3, i32 0, i32 1
  %10 = load %"struct.dawn_native::BuddyMemoryAllocator::TrackedSubAllocations"*, %"struct.dawn_native::BuddyMemoryAllocator::TrackedSubAllocations"** %9, align 8
  %11 = icmp eq %"struct.dawn_native::BuddyMemoryAllocator::TrackedSubAllocations"* %10, %5
  br i1 %11, label %28, label %12

12:                                               ; preds = %7, %23
  %13 = phi %"struct.dawn_native::BuddyMemoryAllocator::TrackedSubAllocations"* [ %14, %23 ], [ %10, %7 ]
  %14 = getelementptr inbounds %"struct.dawn_native::BuddyMemoryAllocator::TrackedSubAllocations", %"struct.dawn_native::BuddyMemoryAllocator::TrackedSubAllocations"* %13, i64 -1
  %15 = getelementptr inbounds %"struct.dawn_native::BuddyMemoryAllocator::TrackedSubAllocations", %"struct.dawn_native::BuddyMemoryAllocator::TrackedSubAllocations"* %13, i64 -1, i32 1, i32 0, i32 0, i32 0
  %16 = load %"class.dawn_native::ResourceHeapBase"*, %"class.dawn_native::ResourceHeapBase"** %15, align 8
  store %"class.dawn_native::ResourceHeapBase"* null, %"class.dawn_native::ResourceHeapBase"** %15, align 8
  %17 = icmp eq %"class.dawn_native::ResourceHeapBase"* %16, null
  br i1 %17, label %23, label %18

18:                                               ; preds = %12
  %19 = bitcast %"class.dawn_native::ResourceHeapBase"* %16 to void (%"class.dawn_native::ResourceHeapBase"*)***
  %20 = load void (%"class.dawn_native::ResourceHeapBase"*)**, void (%"class.dawn_native::ResourceHeapBase"*)*** %19, align 8
  %21 = getelementptr inbounds void (%"class.dawn_native::ResourceHeapBase"*)*, void (%"class.dawn_native::ResourceHeapBase"*)** %20, i64 1
  %22 = load void (%"class.dawn_native::ResourceHeapBase"*)*, void (%"class.dawn_native::ResourceHeapBase"*)** %21, align 8
  tail call void %22(%"class.dawn_native::ResourceHeapBase"* nonnull %16) #9
  br label %23

23:                                               ; preds = %18, %12
  %24 = icmp eq %"struct.dawn_native::BuddyMemoryAllocator::TrackedSubAllocations"* %14, %5
  br i1 %24, label %25, label %12

25:                                               ; preds = %23
  %26 = bitcast %"class.std::__1::vector.340"* %3 to i8**
  %27 = load i8*, i8** %26, align 8
  br label %28

28:                                               ; preds = %25, %7
  %29 = phi i8* [ %27, %25 ], [ %8, %7 ]
  store %"struct.dawn_native::BuddyMemoryAllocator::TrackedSubAllocations"* %5, %"struct.dawn_native::BuddyMemoryAllocator::TrackedSubAllocations"** %9, align 8
  tail call void @_ZdlPv(i8* %29) #10
  br label %30

30:                                               ; preds = %1, %28
  %31 = getelementptr inbounds %"class.dawn_native::vulkan::ResourceMemoryAllocator::SingleTypeAllocator", %"class.dawn_native::vulkan::ResourceMemoryAllocator::SingleTypeAllocator"* %0, i64 0, i32 5, i32 1
  tail call void @_ZN11dawn_native14BuddyAllocatorD1Ev(%"class.dawn_native::BuddyAllocator"* %31) #9
  %32 = getelementptr inbounds %"class.dawn_native::vulkan::ResourceMemoryAllocator::SingleTypeAllocator", %"class.dawn_native::vulkan::ResourceMemoryAllocator::SingleTypeAllocator"* %0, i64 0, i32 4, i32 0, i32 0
  store i32 (...)** bitcast (i8** getelementptr inbounds ({ [6 x i8*] }, { [6 x i8*] }* @_ZTVN11dawn_native29PooledResourceMemoryAllocatorE, i64 0, inrange i32 0, i64 2) to i32 (...)**), i32 (...)*** %32, align 8
  %33 = getelementptr inbounds %"class.dawn_native::vulkan::ResourceMemoryAllocator::SingleTypeAllocator", %"class.dawn_native::vulkan::ResourceMemoryAllocator::SingleTypeAllocator"* %0, i64 0, i32 4, i32 2, i32 0
  tail call void @_ZNSt3__112__deque_baseINS_10unique_ptrIN11dawn_native16ResourceHeapBaseENS_14default_deleteIS3_EEEENS_9allocatorIS6_EEE5clearEv(%"class.std::__1::__deque_base.316"* %33) #9
  %34 = getelementptr inbounds %"class.dawn_native::vulkan::ResourceMemoryAllocator::SingleTypeAllocator", %"class.dawn_native::vulkan::ResourceMemoryAllocator::SingleTypeAllocator"* %0, i64 0, i32 4, i32 2, i32 0, i32 0, i32 1
  %35 = load %"class.std::__1::unique_ptr.318"**, %"class.std::__1::unique_ptr.318"*** %34, align 8
  %36 = getelementptr inbounds %"class.dawn_native::vulkan::ResourceMemoryAllocator::SingleTypeAllocator", %"class.dawn_native::vulkan::ResourceMemoryAllocator::SingleTypeAllocator"* %0, i64 0, i32 4, i32 2, i32 0, i32 0, i32 2
  %37 = load %"class.std::__1::unique_ptr.318"**, %"class.std::__1::unique_ptr.318"*** %36, align 8
  %38 = icmp eq %"class.std::__1::unique_ptr.318"** %35, %37
  br i1 %38, label %57, label %39

39:                                               ; preds = %30, %39
  %40 = phi %"class.std::__1::unique_ptr.318"** [ %43, %39 ], [ %35, %30 ]
  %41 = bitcast %"class.std::__1::unique_ptr.318"** %40 to i8**
  %42 = load i8*, i8** %41, align 8
  tail call void @_ZdlPv(i8* %42) #10
  %43 = getelementptr inbounds %"class.std::__1::unique_ptr.318"*, %"class.std::__1::unique_ptr.318"** %40, i64 1
  %44 = icmp eq %"class.std::__1::unique_ptr.318"** %43, %37
  br i1 %44, label %45, label %39

45:                                               ; preds = %39
  %46 = load %"class.std::__1::unique_ptr.318"**, %"class.std::__1::unique_ptr.318"*** %34, align 8
  %47 = load %"class.std::__1::unique_ptr.318"**, %"class.std::__1::unique_ptr.318"*** %36, align 8
  %48 = icmp eq %"class.std::__1::unique_ptr.318"** %47, %46
  br i1 %48, label %57, label %49

49:                                               ; preds = %45
  %50 = ptrtoint %"class.std::__1::unique_ptr.318"** %46 to i64
  %51 = getelementptr %"class.std::__1::unique_ptr.318"*, %"class.std::__1::unique_ptr.318"** %47, i64 -1
  %52 = ptrtoint %"class.std::__1::unique_ptr.318"** %51 to i64
  %53 = sub i64 %52, %50
  %54 = lshr i64 %53, 3
  %55 = xor i64 %54, -1
  %56 = getelementptr %"class.std::__1::unique_ptr.318"*, %"class.std::__1::unique_ptr.318"** %47, i64 %55
  store %"class.std::__1::unique_ptr.318"** %56, %"class.std::__1::unique_ptr.318"*** %36, align 8
  br label %57

57:                                               ; preds = %49, %45, %30
  %58 = getelementptr inbounds %"class.std::__1::__deque_base.316", %"class.std::__1::__deque_base.316"* %33, i64 0, i32 0, i32 0
  %59 = load %"class.std::__1::unique_ptr.318"**, %"class.std::__1::unique_ptr.318"*** %58, align 8
  %60 = icmp eq %"class.std::__1::unique_ptr.318"** %59, null
  br i1 %60, label %63, label %61

61:                                               ; preds = %57
  %62 = bitcast %"class.std::__1::unique_ptr.318"** %59 to i8*
  tail call void @_ZdlPv(i8* %62) #10
  br label %63

63:                                               ; preds = %57, %61
  ret void
}

; Function Attrs: nounwind ssp uwtable
define linkonce_odr hidden void @_ZN11dawn_native6vulkan23ResourceMemoryAllocator19SingleTypeAllocatorD0Ev(%"class.dawn_native::vulkan::ResourceMemoryAllocator::SingleTypeAllocator"*) unnamed_addr #0 comdat align 2 {
  tail call void @_ZN11dawn_native6vulkan23ResourceMemoryAllocator19SingleTypeAllocatorD2Ev(%"class.dawn_native::vulkan::ResourceMemoryAllocator::SingleTypeAllocator"* %0) #9
  %2 = bitcast %"class.dawn_native::vulkan::ResourceMemoryAllocator::SingleTypeAllocator"* %0 to i8*
  tail call void @_ZdlPv(i8* %2) #10
  ret void
}

; Function Attrs: nounwind ssp uwtable
define linkonce_odr hidden void @_ZN11dawn_native6vulkan23ResourceMemoryAllocator19SingleTypeAllocator20AllocateResourceHeapEm(%class.Result.384* noalias sret, %"class.dawn_native::vulkan::ResourceMemoryAllocator::SingleTypeAllocator"*, i64) unnamed_addr #0 comdat align 2 {
  %4 = alloca %"class.std::__1::basic_string", align 8
  %5 = alloca %struct.VkMemoryAllocateInfo, align 8
  %6 = alloca %"class.dawn_native::vulkan::detail::VkHandle.386", align 8
  %7 = alloca %class.Result.385, align 8
  %8 = getelementptr inbounds %"class.dawn_native::vulkan::ResourceMemoryAllocator::SingleTypeAllocator", %"class.dawn_native::vulkan::ResourceMemoryAllocator::SingleTypeAllocator"* %1, i64 0, i32 3
  %9 = load i64, i64* %8, align 8
  %10 = icmp ult i64 %9, %2
  br i1 %10, label %11, label %30

11:                                               ; preds = %3
  %12 = tail call i8* @_Znwm(i64 32) #10
  %13 = getelementptr inbounds %"class.std::__1::basic_string", %"class.std::__1::basic_string"* %4, i64 0, i32 0, i32 0, i32 0, i32 0, i32 0, i32 0
  store i8* %12, i8** %13, align 8
  %14 = getelementptr inbounds %"class.std::__1::basic_string", %"class.std::__1::basic_string"* %4, i64 0, i32 0, i32 0, i32 0, i32 0, i32 0, i32 1
  %15 = bitcast i64* %14 to <2 x i64>*
  store <2 x i64> <i64 25, i64 -9223372036854775776>, <2 x i64>* %15, align 8
  tail call void @llvm.memcpy.p0i8.p0i8.i64(i8* nonnull align 1 %12, i8* align 1 getelementptr inbounds ([26 x i8], [26 x i8]* @.str.3, i64 0, i64 0), i64 25, i1 false) #9
  %16 = getelementptr inbounds i8, i8* %12, i64 25
  store i8 0, i8* %16, align 1
  %17 = call %"class.dawn_native::ErrorData"* @_ZN11dawn_native9ErrorData6CreateENS_17InternalErrorTypeENSt3__112basic_stringIcNS2_11char_traitsIcEENS2_9allocatorIcEEEEPKcSA_i(i32 3, %"class.std::__1::basic_string"* nonnull %4, i8* getelementptr inbounds ([76 x i8], [76 x i8]* @.str, i64 0, i64 0), i8* getelementptr inbounds ([21 x i8], [21 x i8]* @__func__._ZN11dawn_native6vulkan23ResourceMemoryAllocator19SingleTypeAllocator20AllocateResourceHeapEm, i64 0, i64 0), i32 79) #9
  %18 = ptrtoint %"class.dawn_native::ErrorData"* %17 to i64
  %19 = getelementptr inbounds %class.Result.384, %class.Result.384* %0, i64 0, i32 0
  store i32 1, i32* %19, align 8
  %20 = getelementptr inbounds %class.Result.384, %class.Result.384* %0, i64 0, i32 1
  %21 = bitcast %"class.std::__1::unique_ptr.365"* %20 to i64*
  store i64 %18, i64* %21, align 8
  %22 = getelementptr inbounds %class.Result.384, %class.Result.384* %0, i64 0, i32 2
  %23 = bitcast %"class.std::__1::unique_ptr.318"* %22 to i64*
  store i64 0, i64* %23, align 8
  %24 = bitcast %"class.std::__1::basic_string"* %4 to %"struct.std::__1::basic_string<char, std::__1::char_traits<char>, std::__1::allocator<char> >::__short"*
  %25 = getelementptr inbounds %"struct.std::__1::basic_string<char, std::__1::char_traits<char>, std::__1::allocator<char> >::__short", %"struct.std::__1::basic_string<char, std::__1::char_traits<char>, std::__1::allocator<char> >::__short"* %24, i64 0, i32 1, i32 0
  %26 = load i8, i8* %25, align 1
  %27 = icmp slt i8 %26, 0
  br i1 %27, label %28, label %93

28:                                               ; preds = %11
  %29 = load i8*, i8** %13, align 8
  call void @_ZdlPv(i8* %29) #10
  br label %93

30:                                               ; preds = %3
  %31 = bitcast %struct.VkMemoryAllocateInfo* %5 to i8*
  call void @llvm.lifetime.start.p0i8(i64 32, i8* nonnull %31) #9
  call void @llvm.memset.p0i8.i64(i8* nonnull align 8 %31, i8 -86, i64 32, i1 false)
  %32 = getelementptr inbounds %struct.VkMemoryAllocateInfo, %struct.VkMemoryAllocateInfo* %5, i64 0, i32 0
  store i32 5, i32* %32, align 8
  %33 = getelementptr inbounds %struct.VkMemoryAllocateInfo, %struct.VkMemoryAllocateInfo* %5, i64 0, i32 1
  store i8* null, i8** %33, align 8
  %34 = getelementptr inbounds %struct.VkMemoryAllocateInfo, %struct.VkMemoryAllocateInfo* %5, i64 0, i32 2
  store i64 %2, i64* %34, align 8
  %35 = getelementptr inbounds %"class.dawn_native::vulkan::ResourceMemoryAllocator::SingleTypeAllocator", %"class.dawn_native::vulkan::ResourceMemoryAllocator::SingleTypeAllocator"* %1, i64 0, i32 2
  %36 = load i64, i64* %35, align 8
  %37 = trunc i64 %36 to i32
  %38 = getelementptr inbounds %struct.VkMemoryAllocateInfo, %struct.VkMemoryAllocateInfo* %5, i64 0, i32 3
  store i32 %37, i32* %38, align 8
  %39 = bitcast %"class.dawn_native::vulkan::detail::VkHandle.386"* %6 to i8*
  call void @llvm.lifetime.start.p0i8(i64 8, i8* nonnull %39) #9
  %40 = getelementptr inbounds %"class.dawn_native::vulkan::detail::VkHandle.386", %"class.dawn_native::vulkan::detail::VkHandle.386"* %6, i64 0, i32 0
  store %struct.VkDeviceMemory_T* null, %struct.VkDeviceMemory_T** %40, align 8
  %41 = bitcast %class.Result.385* %7 to i8*
  call void @llvm.lifetime.start.p0i8(i64 8, i8* nonnull %41) #9
  %42 = getelementptr inbounds %class.Result.385, %class.Result.385* %7, i64 0, i32 0, i32 0, i32 0, i32 0
  store %"class.dawn_native::ErrorData"* inttoptr (i64 -6148914691236517206 to %"class.dawn_native::ErrorData"*), %"class.dawn_native::ErrorData"** %42, align 8
  %43 = getelementptr inbounds %"class.dawn_native::vulkan::ResourceMemoryAllocator::SingleTypeAllocator", %"class.dawn_native::vulkan::ResourceMemoryAllocator::SingleTypeAllocator"* %1, i64 0, i32 1
  %44 = load %"class.dawn_native::vulkan::Device"*, %"class.dawn_native::vulkan::Device"** %43, align 8
  %45 = getelementptr inbounds %"class.dawn_native::vulkan::Device", %"class.dawn_native::vulkan::Device"* %44, i64 0, i32 1, i32 50
  %46 = load i32 (%struct.VkDevice_T*, %struct.VkMemoryAllocateInfo*, %struct.VkAllocationCallbacks*, %struct.VkDeviceMemory_T**)*, i32 (%struct.VkDevice_T*, %struct.VkMemoryAllocateInfo*, %struct.VkAllocationCallbacks*, %struct.VkDeviceMemory_T**)** %45, align 8
  %47 = tail call %struct.VkDevice_T* @_ZNK11dawn_native6vulkan6Device11GetVkDeviceEv(%"class.dawn_native::vulkan::Device"* %44) #9
  %48 = call i32 %46(%struct.VkDevice_T* %47, %struct.VkMemoryAllocateInfo* nonnull %5, %struct.VkAllocationCallbacks* null, %struct.VkDeviceMemory_T** nonnull %40) #9
  call void @_ZN11dawn_native6vulkan25CheckVkOOMThenSuccessImplENS0_8VkResultEPKc(%class.Result.385* nonnull sret %7, i32 %48, i8* getelementptr inbounds ([17 x i8], [17 x i8]* @.str.4, i64 0, i64 0)) #9
  %49 = load %"class.dawn_native::ErrorData"*, %"class.dawn_native::ErrorData"** %42, align 8
  %50 = icmp eq %"class.dawn_native::ErrorData"* %49, null
  store %"class.dawn_native::ErrorData"* null, %"class.dawn_native::ErrorData"** %42, align 8
  br i1 %50, label %81, label %51, !prof !8

51:                                               ; preds = %30
  %52 = ptrtoint %"class.dawn_native::ErrorData"* %49 to i64
  call void @_ZN11dawn_native9ErrorData15AppendBacktraceEPKcS2_i(%"class.dawn_native::ErrorData"* nonnull %49, i8* getelementptr inbounds ([76 x i8], [76 x i8]* @.str, i64 0, i64 0), i8* getelementptr inbounds ([21 x i8], [21 x i8]* @__func__._ZN11dawn_native6vulkan23ResourceMemoryAllocator19SingleTypeAllocator20AllocateResourceHeapEm, i64 0, i64 0), i32 94) #9
  %53 = getelementptr inbounds %class.Result.384, %class.Result.384* %0, i64 0, i32 0
  store i32 1, i32* %53, align 8
  %54 = getelementptr inbounds %class.Result.384, %class.Result.384* %0, i64 0, i32 1
  %55 = bitcast %"class.std::__1::unique_ptr.365"* %54 to i64*
  store i64 %52, i64* %55, align 8
  %56 = getelementptr inbounds %class.Result.384, %class.Result.384* %0, i64 0, i32 2
  %57 = bitcast %"class.std::__1::unique_ptr.318"* %56 to i64*
  store i64 0, i64* %57, align 8
  %58 = load %"class.dawn_native::ErrorData"*, %"class.dawn_native::ErrorData"** %42, align 8
  store %"class.dawn_native::ErrorData"* null, %"class.dawn_native::ErrorData"** %42, align 8
  %59 = icmp eq %"class.dawn_native::ErrorData"* %58, null
  br i1 %59, label %80, label %60

60:                                               ; preds = %51
  %61 = getelementptr inbounds %"class.dawn_native::ErrorData", %"class.dawn_native::ErrorData"* %58, i64 0, i32 2, i32 0, i32 0
  %62 = load %"struct.dawn_native::ErrorData::BacktraceRecord"*, %"struct.dawn_native::ErrorData::BacktraceRecord"** %61, align 8
  %63 = icmp eq %"struct.dawn_native::ErrorData::BacktraceRecord"* %62, null
  br i1 %63, label %69, label %64

64:                                               ; preds = %60
  %65 = ptrtoint %"struct.dawn_native::ErrorData::BacktraceRecord"* %62 to i64
  %66 = getelementptr inbounds %"class.dawn_native::ErrorData", %"class.dawn_native::ErrorData"* %58, i64 0, i32 2, i32 0, i32 1
  %67 = bitcast %"struct.dawn_native::ErrorData::BacktraceRecord"** %66 to i64*
  store i64 %65, i64* %67, align 8
  %68 = bitcast %"struct.dawn_native::ErrorData::BacktraceRecord"* %62 to i8*
  call void @_ZdlPv(i8* %68) #10
  br label %69

69:                                               ; preds = %64, %60
  %70 = getelementptr inbounds %"class.dawn_native::ErrorData", %"class.dawn_native::ErrorData"* %58, i64 0, i32 1
  %71 = bitcast %"class.std::__1::basic_string"* %70 to %"struct.std::__1::basic_string<char, std::__1::char_traits<char>, std::__1::allocator<char> >::__short"*
  %72 = getelementptr inbounds %"struct.std::__1::basic_string<char, std::__1::char_traits<char>, std::__1::allocator<char> >::__short", %"struct.std::__1::basic_string<char, std::__1::char_traits<char>, std::__1::allocator<char> >::__short"* %71, i64 0, i32 1, i32 0
  %73 = load i8, i8* %72, align 1
  %74 = icmp slt i8 %73, 0
  br i1 %74, label %75, label %78

75:                                               ; preds = %69
  %76 = getelementptr inbounds %"class.std::__1::basic_string", %"class.std::__1::basic_string"* %70, i64 0, i32 0, i32 0, i32 0, i32 0, i32 0, i32 0
  %77 = load i8*, i8** %76, align 8
  call void @_ZdlPv(i8* %77) #10
  br label %78

78:                                               ; preds = %75, %69
  %79 = bitcast %"class.dawn_native::ErrorData"* %58 to i8*
  call void @_ZdlPv(i8* %79) #10
  br label %80

80:                                               ; preds = %51, %78
  call void @llvm.lifetime.end.p0i8(i64 8, i8* nonnull %41) #9
  br label %92

81:                                               ; preds = %30
  call void @llvm.lifetime.end.p0i8(i64 8, i8* nonnull %41) #9
  %82 = call i8* @_Znwm(i64 24) #10
  %83 = bitcast i8* %82 to %"class.dawn_native::vulkan::ResourceHeap"*
  %84 = load %struct.VkDeviceMemory_T*, %struct.VkDeviceMemory_T** %40, align 8
  %85 = load i64, i64* %35, align 8
  call void @_ZN11dawn_native6vulkan12ResourceHeapC1ENS0_6detail8VkHandleINS0_19VkTagVkDeviceMemoryEP16VkDeviceMemory_TEEm(%"class.dawn_native::vulkan::ResourceHeap"* nonnull %83, %struct.VkDeviceMemory_T* %84, i64 %85) #9
  %86 = ptrtoint i8* %82 to i64
  %87 = getelementptr inbounds %class.Result.384, %class.Result.384* %0, i64 0, i32 0
  store i32 0, i32* %87, align 8
  %88 = getelementptr inbounds %class.Result.384, %class.Result.384* %0, i64 0, i32 1
  %89 = bitcast %"class.std::__1::unique_ptr.365"* %88 to i64*
  store i64 0, i64* %89, align 8
  %90 = getelementptr inbounds %class.Result.384, %class.Result.384* %0, i64 0, i32 2
  %91 = bitcast %"class.std::__1::unique_ptr.318"* %90 to i64*
  store i64 %86, i64* %91, align 8
  br label %92

92:                                               ; preds = %80, %81
  call void @llvm.lifetime.end.p0i8(i64 8, i8* nonnull %39) #9
  call void @llvm.lifetime.end.p0i8(i64 32, i8* nonnull %31) #9
  br label %93

93:                                               ; preds = %28, %11, %92
  ret void
}

; Function Attrs: nounwind ssp uwtable
define linkonce_odr hidden void @_ZN11dawn_native6vulkan23ResourceMemoryAllocator19SingleTypeAllocator22DeallocateResourceHeapENSt3__110unique_ptrINS_16ResourceHeapBaseENS3_14default_deleteIS5_EEEE(%"class.dawn_native::vulkan::ResourceMemoryAllocator::SingleTypeAllocator"*, %"class.dawn_native::ResourceHeapBase"*) unnamed_addr #0 comdat align 2 {
  %3 = getelementptr inbounds %"class.dawn_native::vulkan::ResourceMemoryAllocator::SingleTypeAllocator", %"class.dawn_native::vulkan::ResourceMemoryAllocator::SingleTypeAllocator"* %0, i64 0, i32 1
  %4 = load %"class.dawn_native::vulkan::Device"*, %"class.dawn_native::vulkan::Device"** %3, align 8
  %5 = tail call %"class.dawn_native::vulkan::FencedDeleter"* @_ZNK11dawn_native6vulkan6Device16GetFencedDeleterEv(%"class.dawn_native::vulkan::Device"* %4) #9
  %6 = bitcast %"class.dawn_native::ResourceHeapBase"* %1 to %"class.dawn_native::vulkan::ResourceHeap"*
  %7 = tail call %struct.VkDeviceMemory_T* @_ZNK11dawn_native6vulkan12ResourceHeap9GetMemoryEv(%"class.dawn_native::vulkan::ResourceHeap"* %6) #9
  tail call void @_ZN11dawn_native6vulkan13FencedDeleter16DeleteWhenUnusedENS0_6detail8VkHandleINS0_19VkTagVkDeviceMemoryEP16VkDeviceMemory_TEE(%"class.dawn_native::vulkan::FencedDeleter"* %5, %struct.VkDeviceMemory_T* %7) #9
  %8 = icmp eq %"class.dawn_native::ResourceHeapBase"* %1, null
  br i1 %8, label %14, label %9

9:                                                ; preds = %2
  %10 = bitcast %"class.dawn_native::ResourceHeapBase"* %1 to void (%"class.dawn_native::ResourceHeapBase"*)***
  %11 = load void (%"class.dawn_native::ResourceHeapBase"*)**, void (%"class.dawn_native::ResourceHeapBase"*)*** %10, align 8
  %12 = getelementptr inbounds void (%"class.dawn_native::ResourceHeapBase"*)*, void (%"class.dawn_native::ResourceHeapBase"*)** %11, i64 1
  %13 = load void (%"class.dawn_native::ResourceHeapBase"*)*, void (%"class.dawn_native::ResourceHeapBase"*)** %12, align 8
  tail call void %13(%"class.dawn_native::ResourceHeapBase"* nonnull %1) #9
  br label %14

14:                                               ; preds = %2, %9
  ret void
}

; Function Attrs: nounwind
declare void @_ZN11dawn_native14BuddyAllocatorD1Ev(%"class.dawn_native::BuddyAllocator"*) unnamed_addr #6

; Function Attrs: nounwind ssp uwtable
define linkonce_odr hidden void @_ZNSt3__112__deque_baseINS_10unique_ptrIN11dawn_native16ResourceHeapBaseENS_14default_deleteIS3_EEEENS_9allocatorIS6_EEE5clearEv(%"class.std::__1::__deque_base.316"*) local_unnamed_addr #0 comdat align 2 {
  %2 = getelementptr inbounds %"class.std::__1::__deque_base.316", %"class.std::__1::__deque_base.316"* %0, i64 0, i32 0, i32 1
  %3 = load %"class.std::__1::unique_ptr.318"**, %"class.std::__1::unique_ptr.318"*** %2, align 8
  %4 = getelementptr inbounds %"class.std::__1::__deque_base.316", %"class.std::__1::__deque_base.316"* %0, i64 0, i32 1
  %5 = load i64, i64* %4, align 8
  %6 = lshr i64 %5, 9
  %7 = getelementptr inbounds %"class.std::__1::unique_ptr.318"*, %"class.std::__1::unique_ptr.318"** %3, i64 %6
  %8 = getelementptr inbounds %"class.std::__1::__deque_base.316", %"class.std::__1::__deque_base.316"* %0, i64 0, i32 0, i32 2
  %9 = load %"class.std::__1::unique_ptr.318"**, %"class.std::__1::unique_ptr.318"*** %8, align 8
  %10 = icmp eq %"class.std::__1::unique_ptr.318"** %9, %3
  %11 = ptrtoint %"class.std::__1::unique_ptr.318"** %9 to i64
  %12 = ptrtoint %"class.std::__1::unique_ptr.318"** %3 to i64
  %13 = bitcast %"class.std::__1::unique_ptr.318"** %3 to i8**
  br i1 %10, label %14, label %16

14:                                               ; preds = %1
  %15 = getelementptr inbounds %"class.std::__1::__deque_base.316", %"class.std::__1::__deque_base.316"* %0, i64 0, i32 2, i32 0, i32 0
  br label %29

16:                                               ; preds = %1
  %17 = load %"class.std::__1::unique_ptr.318"*, %"class.std::__1::unique_ptr.318"** %7, align 8
  %18 = and i64 %5, 511
  %19 = getelementptr inbounds %"class.std::__1::unique_ptr.318", %"class.std::__1::unique_ptr.318"* %17, i64 %18
  %20 = getelementptr inbounds %"class.std::__1::__deque_base.316", %"class.std::__1::__deque_base.316"* %0, i64 0, i32 2, i32 0, i32 0
  %21 = load i64, i64* %20, align 8
  %22 = add i64 %21, %5
  %23 = lshr i64 %22, 9
  %24 = getelementptr inbounds %"class.std::__1::unique_ptr.318"*, %"class.std::__1::unique_ptr.318"** %3, i64 %23
  %25 = load %"class.std::__1::unique_ptr.318"*, %"class.std::__1::unique_ptr.318"** %24, align 8
  %26 = and i64 %22, 511
  %27 = getelementptr inbounds %"class.std::__1::unique_ptr.318", %"class.std::__1::unique_ptr.318"* %25, i64 %26
  %28 = icmp eq %"class.std::__1::unique_ptr.318"* %27, %19
  br i1 %28, label %29, label %47

29:                                               ; preds = %14, %16
  %30 = phi i64* [ %15, %14 ], [ %20, %16 ]
  %31 = bitcast %"class.std::__1::unique_ptr.318"*** %8 to i64*
  br label %38

32:                                               ; preds = %69
  %33 = bitcast %"class.std::__1::unique_ptr.318"*** %8 to i64*
  %34 = load i64, i64* %33, align 8
  %35 = bitcast %"class.std::__1::unique_ptr.318"*** %2 to i64*
  %36 = load i64, i64* %35, align 8
  %37 = inttoptr i64 %36 to i8**
  br label %38

38:                                               ; preds = %29, %32
  %39 = phi i64* [ %30, %29 ], [ %20, %32 ]
  %40 = phi i64* [ %31, %29 ], [ %33, %32 ]
  %41 = phi i8** [ %13, %29 ], [ %37, %32 ]
  %42 = phi i64 [ %12, %29 ], [ %36, %32 ]
  %43 = phi i64 [ %11, %29 ], [ %34, %32 ]
  store i64 0, i64* %39, align 8
  %44 = sub i64 %43, %42
  %45 = ashr exact i64 %44, 3
  %46 = icmp ugt i64 %45, 2
  br i1 %46, label %74, label %85

47:                                               ; preds = %16, %69
  %48 = phi %"class.std::__1::unique_ptr.318"* [ %72, %69 ], [ %19, %16 ]
  %49 = phi %"class.std::__1::unique_ptr.318"** [ %71, %69 ], [ %7, %16 ]
  %50 = getelementptr inbounds %"class.std::__1::unique_ptr.318", %"class.std::__1::unique_ptr.318"* %48, i64 0, i32 0, i32 0, i32 0
  %51 = load %"class.dawn_native::ResourceHeapBase"*, %"class.dawn_native::ResourceHeapBase"** %50, align 8
  store %"class.dawn_native::ResourceHeapBase"* null, %"class.dawn_native::ResourceHeapBase"** %50, align 8
  %52 = icmp eq %"class.dawn_native::ResourceHeapBase"* %51, null
  br i1 %52, label %58, label %53

53:                                               ; preds = %47
  %54 = bitcast %"class.dawn_native::ResourceHeapBase"* %51 to void (%"class.dawn_native::ResourceHeapBase"*)***
  %55 = load void (%"class.dawn_native::ResourceHeapBase"*)**, void (%"class.dawn_native::ResourceHeapBase"*)*** %54, align 8
  %56 = getelementptr inbounds void (%"class.dawn_native::ResourceHeapBase"*)*, void (%"class.dawn_native::ResourceHeapBase"*)** %55, i64 1
  %57 = load void (%"class.dawn_native::ResourceHeapBase"*)*, void (%"class.dawn_native::ResourceHeapBase"*)** %56, align 8
  tail call void %57(%"class.dawn_native::ResourceHeapBase"* nonnull %51) #9
  br label %58

58:                                               ; preds = %47, %53
  %59 = getelementptr inbounds %"class.std::__1::unique_ptr.318", %"class.std::__1::unique_ptr.318"* %48, i64 1
  %60 = ptrtoint %"class.std::__1::unique_ptr.318"* %59 to i64
  %61 = bitcast %"class.std::__1::unique_ptr.318"** %49 to i64*
  %62 = load i64, i64* %61, align 8
  %63 = sub i64 %60, %62
  %64 = icmp eq i64 %63, 4096
  br i1 %64, label %65, label %69

65:                                               ; preds = %58
  %66 = getelementptr inbounds %"class.std::__1::unique_ptr.318"*, %"class.std::__1::unique_ptr.318"** %49, i64 1
  %67 = bitcast %"class.std::__1::unique_ptr.318"** %66 to i64*
  %68 = load i64, i64* %67, align 8
  br label %69

69:                                               ; preds = %58, %65
  %70 = phi i64 [ %68, %65 ], [ %60, %58 ]
  %71 = phi %"class.std::__1::unique_ptr.318"** [ %66, %65 ], [ %49, %58 ]
  %72 = inttoptr i64 %70 to %"class.std::__1::unique_ptr.318"*
  %73 = icmp eq %"class.std::__1::unique_ptr.318"* %27, %72
  br i1 %73, label %32, label %47

74:                                               ; preds = %38, %74
  %75 = phi i8** [ %84, %74 ], [ %41, %38 ]
  %76 = load i8*, i8** %75, align 8
  tail call void @_ZdlPv(i8* %76) #10
  %77 = load %"class.std::__1::unique_ptr.318"**, %"class.std::__1::unique_ptr.318"*** %2, align 8
  %78 = getelementptr inbounds %"class.std::__1::unique_ptr.318"*, %"class.std::__1::unique_ptr.318"** %77, i64 1
  store %"class.std::__1::unique_ptr.318"** %78, %"class.std::__1::unique_ptr.318"*** %2, align 8
  %79 = load i64, i64* %40, align 8
  %80 = ptrtoint %"class.std::__1::unique_ptr.318"** %78 to i64
  %81 = sub i64 %79, %80
  %82 = ashr exact i64 %81, 3
  %83 = icmp ugt i64 %82, 2
  %84 = bitcast %"class.std::__1::unique_ptr.318"** %78 to i8**
  br i1 %83, label %74, label %85

85:                                               ; preds = %74, %38
  %86 = phi i64 [ %45, %38 ], [ %82, %74 ]
  switch i64 %86, label %90 [
    i64 1, label %88
    i64 2, label %87
  ]

87:                                               ; preds = %85
  br label %88

88:                                               ; preds = %85, %87
  %89 = phi i64 [ 512, %87 ], [ 256, %85 ]
  store i64 %89, i64* %4, align 8
  br label %90

90:                                               ; preds = %88, %85
  ret void
}

declare %"class.dawn_native::ErrorData"* @_ZN11dawn_native9ErrorData6CreateENS_17InternalErrorTypeENSt3__112basic_stringIcNS2_11char_traitsIcEENS2_9allocatorIcEEEEPKcSA_i(i32, %"class.std::__1::basic_string"*, i8*, i8*, i32) local_unnamed_addr #2

declare void @_ZN11dawn_native6vulkan25CheckVkOOMThenSuccessImplENS0_8VkResultEPKc(%class.Result.385* sret, i32, i8*) local_unnamed_addr #2

declare void @_ZN11dawn_native6vulkan12ResourceHeapC1ENS0_6detail8VkHandleINS0_19VkTagVkDeviceMemoryEP16VkDeviceMemory_TEEm(%"class.dawn_native::vulkan::ResourceHeap"*, %struct.VkDeviceMemory_T*, i64) unnamed_addr #2

; Function Attrs: inlinehint nounwind ssp uwtable
define linkonce_odr hidden void @_ZNSt3__16vectorINS_10unique_ptrIN11dawn_native6vulkan23ResourceMemoryAllocator19SingleTypeAllocatorENS_14default_deleteIS5_EEEENS_9allocatorIS8_EEE24__emplace_back_slow_pathIJS8_EEEvDpOT_(%"class.std::__1::vector.310"*, %"class.std::__1::unique_ptr.312"* dereferenceable(8)) local_unnamed_addr #7 comdat align 2 {
  %3 = getelementptr inbounds %"class.std::__1::vector.310", %"class.std::__1::vector.310"* %0, i64 0, i32 0, i32 1
  %4 = bitcast %"class.std::__1::unique_ptr.312"** %3 to i64*
  %5 = load i64, i64* %4, align 8
  %6 = bitcast %"class.std::__1::vector.310"* %0 to i64*
  %7 = load i64, i64* %6, align 8
  %8 = sub i64 %5, %7
  %9 = ashr exact i64 %8, 3
  %10 = add nsw i64 %9, 1
  %11 = icmp ugt i64 %10, 2305843009213693951
  br i1 %11, label %12, label %14

12:                                               ; preds = %2
  %13 = bitcast %"class.std::__1::vector.310"* %0 to %"class.std::__1::__vector_base_common"*
  tail call void @_ZNKSt3__120__vector_base_commonILb1EE20__throw_length_errorEv(%"class.std::__1::__vector_base_common"* %13) #11
  unreachable

14:                                               ; preds = %2
  %15 = getelementptr inbounds %"class.std::__1::vector.310", %"class.std::__1::vector.310"* %0, i64 0, i32 0, i32 2, i32 0, i32 0
  %16 = bitcast %"class.std::__1::unique_ptr.312"** %15 to i64*
  %17 = load i64, i64* %16, align 8
  %18 = sub i64 %17, %7
  %19 = ashr exact i64 %18, 3
  %20 = icmp ult i64 %19, 1152921504606846975
  br i1 %20, label %21, label %29

21:                                               ; preds = %14
  %22 = ashr exact i64 %18, 2
  %23 = icmp ult i64 %22, %10
  %24 = select i1 %23, i64 %10, i64 %22
  %25 = icmp eq i64 %24, 0
  br i1 %25, label %34, label %26

26:                                               ; preds = %21
  %27 = icmp ugt i64 %24, 2305843009213693951
  br i1 %27, label %28, label %29

28:                                               ; preds = %26
  tail call void @abort() #11
  unreachable

29:                                               ; preds = %14, %26
  %30 = phi i64 [ %24, %26 ], [ 2305843009213693951, %14 ]
  %31 = shl i64 %30, 3
  %32 = tail call i8* @_Znwm(i64 %31) #10
  %33 = bitcast i8* %32 to %"class.std::__1::unique_ptr.312"*
  br label %34

34:                                               ; preds = %21, %29
  %35 = phi i64 [ %30, %29 ], [ 0, %21 ]
  %36 = phi %"class.std::__1::unique_ptr.312"* [ %33, %29 ], [ null, %21 ]
  %37 = getelementptr inbounds %"class.std::__1::unique_ptr.312", %"class.std::__1::unique_ptr.312"* %36, i64 %9
  %38 = getelementptr inbounds %"class.std::__1::unique_ptr.312", %"class.std::__1::unique_ptr.312"* %36, i64 %35
  %39 = ptrtoint %"class.std::__1::unique_ptr.312"* %38 to i64
  %40 = getelementptr inbounds %"class.std::__1::unique_ptr.312", %"class.std::__1::unique_ptr.312"* %1, i64 0, i32 0, i32 0, i32 0
  %41 = bitcast %"class.std::__1::unique_ptr.312"* %1 to i64*
  %42 = load i64, i64* %41, align 8
  store %"class.dawn_native::vulkan::ResourceMemoryAllocator::SingleTypeAllocator"* null, %"class.dawn_native::vulkan::ResourceMemoryAllocator::SingleTypeAllocator"** %40, align 8
  %43 = bitcast %"class.std::__1::unique_ptr.312"* %37 to i64*
  store i64 %42, i64* %43, align 8
  %44 = getelementptr inbounds %"class.std::__1::unique_ptr.312", %"class.std::__1::unique_ptr.312"* %37, i64 1
  %45 = ptrtoint %"class.std::__1::unique_ptr.312"* %44 to i64
  %46 = getelementptr inbounds %"class.std::__1::vector.310", %"class.std::__1::vector.310"* %0, i64 0, i32 0, i32 0
  %47 = load %"class.std::__1::unique_ptr.312"*, %"class.std::__1::unique_ptr.312"** %46, align 8
  %48 = ptrtoint %"class.std::__1::unique_ptr.312"* %47 to i64
  %49 = load %"class.std::__1::unique_ptr.312"*, %"class.std::__1::unique_ptr.312"** %3, align 8
  %50 = icmp eq %"class.std::__1::unique_ptr.312"* %49, %47
  br i1 %50, label %132, label %51

51:                                               ; preds = %34
  %52 = getelementptr %"class.std::__1::unique_ptr.312", %"class.std::__1::unique_ptr.312"* %49, i64 -1, i32 0, i32 0, i32 0
  %53 = ptrtoint %"class.dawn_native::vulkan::ResourceMemoryAllocator::SingleTypeAllocator"** %52 to i64
  %54 = sub i64 %53, %48
  %55 = lshr i64 %54, 3
  %56 = add nuw nsw i64 %55, 1
  %57 = and i64 %56, 7
  %58 = icmp eq i64 %57, 0
  br i1 %58, label %71, label %59

59:                                               ; preds = %51, %59
  %60 = phi %"class.std::__1::unique_ptr.312"* [ %63, %59 ], [ %37, %51 ]
  %61 = phi %"class.std::__1::unique_ptr.312"* [ %64, %59 ], [ %49, %51 ]
  %62 = phi i64 [ %69, %59 ], [ %57, %51 ]
  %63 = getelementptr inbounds %"class.std::__1::unique_ptr.312", %"class.std::__1::unique_ptr.312"* %60, i64 -1
  %64 = getelementptr inbounds %"class.std::__1::unique_ptr.312", %"class.std::__1::unique_ptr.312"* %61, i64 -1
  %65 = getelementptr inbounds %"class.std::__1::unique_ptr.312", %"class.std::__1::unique_ptr.312"* %64, i64 0, i32 0, i32 0, i32 0
  %66 = bitcast %"class.std::__1::unique_ptr.312"* %64 to i64*
  %67 = load i64, i64* %66, align 8
  store %"class.dawn_native::vulkan::ResourceMemoryAllocator::SingleTypeAllocator"* null, %"class.dawn_native::vulkan::ResourceMemoryAllocator::SingleTypeAllocator"** %65, align 8
  %68 = bitcast %"class.std::__1::unique_ptr.312"* %63 to i64*
  store i64 %67, i64* %68, align 8
  %69 = add i64 %62, -1
  %70 = icmp eq i64 %69, 0
  br i1 %70, label %71, label %59, !llvm.loop !9

71:                                               ; preds = %59, %51
  %72 = phi %"class.std::__1::unique_ptr.312"* [ undef, %51 ], [ %63, %59 ]
  %73 = phi %"class.std::__1::unique_ptr.312"* [ %37, %51 ], [ %63, %59 ]
  %74 = phi %"class.std::__1::unique_ptr.312"* [ %49, %51 ], [ %64, %59 ]
  %75 = icmp ult i64 %54, 56
  br i1 %75, label %128, label %76

76:                                               ; preds = %71, %76
  %77 = phi %"class.std::__1::unique_ptr.312"* [ %121, %76 ], [ %73, %71 ]
  %78 = phi %"class.std::__1::unique_ptr.312"* [ %122, %76 ], [ %74, %71 ]
  %79 = getelementptr inbounds %"class.std::__1::unique_ptr.312", %"class.std::__1::unique_ptr.312"* %77, i64 -1
  %80 = getelementptr inbounds %"class.std::__1::unique_ptr.312", %"class.std::__1::unique_ptr.312"* %78, i64 -1
  %81 = getelementptr inbounds %"class.std::__1::unique_ptr.312", %"class.std::__1::unique_ptr.312"* %80, i64 0, i32 0, i32 0, i32 0
  %82 = bitcast %"class.std::__1::unique_ptr.312"* %80 to i64*
  %83 = load i64, i64* %82, align 8
  store %"class.dawn_native::vulkan::ResourceMemoryAllocator::SingleTypeAllocator"* null, %"class.dawn_native::vulkan::ResourceMemoryAllocator::SingleTypeAllocator"** %81, align 8
  %84 = bitcast %"class.std::__1::unique_ptr.312"* %79 to i64*
  store i64 %83, i64* %84, align 8
  %85 = getelementptr inbounds %"class.std::__1::unique_ptr.312", %"class.std::__1::unique_ptr.312"* %77, i64 -2
  %86 = getelementptr inbounds %"class.std::__1::unique_ptr.312", %"class.std::__1::unique_ptr.312"* %78, i64 -2
  %87 = getelementptr inbounds %"class.std::__1::unique_ptr.312", %"class.std::__1::unique_ptr.312"* %86, i64 0, i32 0, i32 0, i32 0
  %88 = bitcast %"class.std::__1::unique_ptr.312"* %86 to i64*
  %89 = load i64, i64* %88, align 8
  store %"class.dawn_native::vulkan::ResourceMemoryAllocator::SingleTypeAllocator"* null, %"class.dawn_native::vulkan::ResourceMemoryAllocator::SingleTypeAllocator"** %87, align 8
  %90 = bitcast %"class.std::__1::unique_ptr.312"* %85 to i64*
  store i64 %89, i64* %90, align 8
  %91 = getelementptr inbounds %"class.std::__1::unique_ptr.312", %"class.std::__1::unique_ptr.312"* %77, i64 -3
  %92 = getelementptr inbounds %"class.std::__1::unique_ptr.312", %"class.std::__1::unique_ptr.312"* %78, i64 -3
  %93 = getelementptr inbounds %"class.std::__1::unique_ptr.312", %"class.std::__1::unique_ptr.312"* %92, i64 0, i32 0, i32 0, i32 0
  %94 = bitcast %"class.std::__1::unique_ptr.312"* %92 to i64*
  %95 = load i64, i64* %94, align 8
  store %"class.dawn_native::vulkan::ResourceMemoryAllocator::SingleTypeAllocator"* null, %"class.dawn_native::vulkan::ResourceMemoryAllocator::SingleTypeAllocator"** %93, align 8
  %96 = bitcast %"class.std::__1::unique_ptr.312"* %91 to i64*
  store i64 %95, i64* %96, align 8
  %97 = getelementptr inbounds %"class.std::__1::unique_ptr.312", %"class.std::__1::unique_ptr.312"* %77, i64 -4
  %98 = getelementptr inbounds %"class.std::__1::unique_ptr.312", %"class.std::__1::unique_ptr.312"* %78, i64 -4
  %99 = getelementptr inbounds %"class.std::__1::unique_ptr.312", %"class.std::__1::unique_ptr.312"* %98, i64 0, i32 0, i32 0, i32 0
  %100 = bitcast %"class.std::__1::unique_ptr.312"* %98 to i64*
  %101 = load i64, i64* %100, align 8
  store %"class.dawn_native::vulkan::ResourceMemoryAllocator::SingleTypeAllocator"* null, %"class.dawn_native::vulkan::ResourceMemoryAllocator::SingleTypeAllocator"** %99, align 8
  %102 = bitcast %"class.std::__1::unique_ptr.312"* %97 to i64*
  store i64 %101, i64* %102, align 8
  %103 = getelementptr inbounds %"class.std::__1::unique_ptr.312", %"class.std::__1::unique_ptr.312"* %77, i64 -5
  %104 = getelementptr inbounds %"class.std::__1::unique_ptr.312", %"class.std::__1::unique_ptr.312"* %78, i64 -5
  %105 = getelementptr inbounds %"class.std::__1::unique_ptr.312", %"class.std::__1::unique_ptr.312"* %104, i64 0, i32 0, i32 0, i32 0
  %106 = bitcast %"class.std::__1::unique_ptr.312"* %104 to i64*
  %107 = load i64, i64* %106, align 8
  store %"class.dawn_native::vulkan::ResourceMemoryAllocator::SingleTypeAllocator"* null, %"class.dawn_native::vulkan::ResourceMemoryAllocator::SingleTypeAllocator"** %105, align 8
  %108 = bitcast %"class.std::__1::unique_ptr.312"* %103 to i64*
  store i64 %107, i64* %108, align 8
  %109 = getelementptr inbounds %"class.std::__1::unique_ptr.312", %"class.std::__1::unique_ptr.312"* %77, i64 -6
  %110 = getelementptr inbounds %"class.std::__1::unique_ptr.312", %"class.std::__1::unique_ptr.312"* %78, i64 -6
  %111 = getelementptr inbounds %"class.std::__1::unique_ptr.312", %"class.std::__1::unique_ptr.312"* %110, i64 0, i32 0, i32 0, i32 0
  %112 = bitcast %"class.std::__1::unique_ptr.312"* %110 to i64*
  %113 = load i64, i64* %112, align 8
  store %"class.dawn_native::vulkan::ResourceMemoryAllocator::SingleTypeAllocator"* null, %"class.dawn_native::vulkan::ResourceMemoryAllocator::SingleTypeAllocator"** %111, align 8
  %114 = bitcast %"class.std::__1::unique_ptr.312"* %109 to i64*
  store i64 %113, i64* %114, align 8
  %115 = getelementptr inbounds %"class.std::__1::unique_ptr.312", %"class.std::__1::unique_ptr.312"* %77, i64 -7
  %116 = getelementptr inbounds %"class.std::__1::unique_ptr.312", %"class.std::__1::unique_ptr.312"* %78, i64 -7
  %117 = getelementptr inbounds %"class.std::__1::unique_ptr.312", %"class.std::__1::unique_ptr.312"* %116, i64 0, i32 0, i32 0, i32 0
  %118 = bitcast %"class.std::__1::unique_ptr.312"* %116 to i64*
  %119 = load i64, i64* %118, align 8
  store %"class.dawn_native::vulkan::ResourceMemoryAllocator::SingleTypeAllocator"* null, %"class.dawn_native::vulkan::ResourceMemoryAllocator::SingleTypeAllocator"** %117, align 8
  %120 = bitcast %"class.std::__1::unique_ptr.312"* %115 to i64*
  store i64 %119, i64* %120, align 8
  %121 = getelementptr inbounds %"class.std::__1::unique_ptr.312", %"class.std::__1::unique_ptr.312"* %77, i64 -8
  %122 = getelementptr inbounds %"class.std::__1::unique_ptr.312", %"class.std::__1::unique_ptr.312"* %78, i64 -8
  %123 = getelementptr inbounds %"class.std::__1::unique_ptr.312", %"class.std::__1::unique_ptr.312"* %122, i64 0, i32 0, i32 0, i32 0
  %124 = bitcast %"class.std::__1::unique_ptr.312"* %122 to i64*
  %125 = load i64, i64* %124, align 8
  store %"class.dawn_native::vulkan::ResourceMemoryAllocator::SingleTypeAllocator"* null, %"class.dawn_native::vulkan::ResourceMemoryAllocator::SingleTypeAllocator"** %123, align 8
  %126 = bitcast %"class.std::__1::unique_ptr.312"* %121 to i64*
  store i64 %125, i64* %126, align 8
  %127 = icmp eq %"class.std::__1::unique_ptr.312"* %122, %47
  br i1 %127, label %128, label %76

128:                                              ; preds = %76, %71
  %129 = phi %"class.std::__1::unique_ptr.312"* [ %72, %71 ], [ %121, %76 ]
  %130 = load i64, i64* %6, align 8
  %131 = load %"class.std::__1::unique_ptr.312"*, %"class.std::__1::unique_ptr.312"** %3, align 8
  br label %132

132:                                              ; preds = %34, %128
  %133 = phi %"class.std::__1::unique_ptr.312"* [ %131, %128 ], [ %47, %34 ]
  %134 = phi %"class.std::__1::unique_ptr.312"* [ %129, %128 ], [ %37, %34 ]
  %135 = phi i64 [ %130, %128 ], [ %48, %34 ]
  %136 = ptrtoint %"class.std::__1::unique_ptr.312"* %134 to i64
  store i64 %136, i64* %6, align 8
  store i64 %45, i64* %4, align 8
  store i64 %39, i64* %16, align 8
  %137 = inttoptr i64 %135 to %"class.std::__1::unique_ptr.312"*
  %138 = icmp eq %"class.std::__1::unique_ptr.312"* %133, %137
  br i1 %138, label %152, label %139

139:                                              ; preds = %132, %150
  %140 = phi %"class.std::__1::unique_ptr.312"* [ %141, %150 ], [ %133, %132 ]
  %141 = getelementptr inbounds %"class.std::__1::unique_ptr.312", %"class.std::__1::unique_ptr.312"* %140, i64 -1
  %142 = getelementptr inbounds %"class.std::__1::unique_ptr.312", %"class.std::__1::unique_ptr.312"* %141, i64 0, i32 0, i32 0, i32 0
  %143 = load %"class.dawn_native::vulkan::ResourceMemoryAllocator::SingleTypeAllocator"*, %"class.dawn_native::vulkan::ResourceMemoryAllocator::SingleTypeAllocator"** %142, align 8
  store %"class.dawn_native::vulkan::ResourceMemoryAllocator::SingleTypeAllocator"* null, %"class.dawn_native::vulkan::ResourceMemoryAllocator::SingleTypeAllocator"** %142, align 8
  %144 = icmp eq %"class.dawn_native::vulkan::ResourceMemoryAllocator::SingleTypeAllocator"* %143, null
  br i1 %144, label %150, label %145

145:                                              ; preds = %139
  %146 = bitcast %"class.dawn_native::vulkan::ResourceMemoryAllocator::SingleTypeAllocator"* %143 to void (%"class.dawn_native::vulkan::ResourceMemoryAllocator::SingleTypeAllocator"*)***
  %147 = load void (%"class.dawn_native::vulkan::ResourceMemoryAllocator::SingleTypeAllocator"*)**, void (%"class.dawn_native::vulkan::ResourceMemoryAllocator::SingleTypeAllocator"*)*** %146, align 8
  %148 = getelementptr inbounds void (%"class.dawn_native::vulkan::ResourceMemoryAllocator::SingleTypeAllocator"*)*, void (%"class.dawn_native::vulkan::ResourceMemoryAllocator::SingleTypeAllocator"*)** %147, i64 1
  %149 = load void (%"class.dawn_native::vulkan::ResourceMemoryAllocator::SingleTypeAllocator"*)*, void (%"class.dawn_native::vulkan::ResourceMemoryAllocator::SingleTypeAllocator"*)** %148, align 8
  tail call void %149(%"class.dawn_native::vulkan::ResourceMemoryAllocator::SingleTypeAllocator"* nonnull %143) #9
  br label %150

150:                                              ; preds = %145, %139
  %151 = icmp eq %"class.std::__1::unique_ptr.312"* %141, %137
  br i1 %151, label %152, label %139

152:                                              ; preds = %150, %132
  %153 = icmp eq i64 %135, 0
  br i1 %153, label %156, label %154

154:                                              ; preds = %152
  %155 = inttoptr i64 %135 to i8*
  tail call void @_ZdlPv(i8* %155) #10
  br label %156

156:                                              ; preds = %152, %154
  ret void
}

; Function Attrs: noreturn
declare void @_ZNKSt3__120__vector_base_commonILb1EE20__throw_length_errorEv(%"class.std::__1::__vector_base_common"*) local_unnamed_addr #8

; Function Attrs: inlinehint nounwind ssp uwtable
define linkonce_odr hidden void @_ZNSt3__16vectorINS_4pairImNS0_IN11dawn_native24ResourceMemoryAllocationENS_9allocatorIS3_EEEEEENS4_IS7_EEE24__emplace_back_slow_pathIJRmS6_EEEvDpOT_(%"class.std::__1::vector.357"*, i64* dereferenceable(8), %"class.std::__1::vector.388"* dereferenceable(24)) local_unnamed_addr #7 comdat align 2 {
  %4 = getelementptr inbounds %"class.std::__1::vector.357", %"class.std::__1::vector.357"* %0, i64 0, i32 0, i32 1
  %5 = bitcast %"struct.std::__1::pair.359"** %4 to i64*
  %6 = load i64, i64* %5, align 8
  %7 = bitcast %"class.std::__1::vector.357"* %0 to i64*
  %8 = load i64, i64* %7, align 8
  %9 = sub i64 %6, %8
  %10 = ashr exact i64 %9, 5
  %11 = add nsw i64 %10, 1
  %12 = icmp ugt i64 %11, 576460752303423487
  br i1 %12, label %13, label %15

13:                                               ; preds = %3
  %14 = bitcast %"class.std::__1::vector.357"* %0 to %"class.std::__1::__vector_base_common"*
  tail call void @_ZNKSt3__120__vector_base_commonILb1EE20__throw_length_errorEv(%"class.std::__1::__vector_base_common"* %14) #11
  unreachable

15:                                               ; preds = %3
  %16 = getelementptr inbounds %"class.std::__1::vector.357", %"class.std::__1::vector.357"* %0, i64 0, i32 0, i32 2, i32 0, i32 0
  %17 = bitcast %"struct.std::__1::pair.359"** %16 to i64*
  %18 = load i64, i64* %17, align 8
  %19 = sub i64 %18, %8
  %20 = ashr exact i64 %19, 5
  %21 = icmp ult i64 %20, 288230376151711743
  br i1 %21, label %22, label %30

22:                                               ; preds = %15
  %23 = ashr exact i64 %19, 4
  %24 = icmp ult i64 %23, %11
  %25 = select i1 %24, i64 %11, i64 %23
  %26 = icmp eq i64 %25, 0
  br i1 %26, label %35, label %27

27:                                               ; preds = %22
  %28 = icmp ugt i64 %25, 576460752303423487
  br i1 %28, label %29, label %30

29:                                               ; preds = %27
  tail call void @abort() #11
  unreachable

30:                                               ; preds = %15, %27
  %31 = phi i64 [ %25, %27 ], [ 576460752303423487, %15 ]
  %32 = shl i64 %31, 5
  %33 = tail call i8* @_Znwm(i64 %32) #10
  %34 = bitcast i8* %33 to %"struct.std::__1::pair.359"*
  br label %35

35:                                               ; preds = %22, %30
  %36 = phi i64 [ %31, %30 ], [ 0, %22 ]
  %37 = phi %"struct.std::__1::pair.359"* [ %34, %30 ], [ null, %22 ]
  %38 = getelementptr inbounds %"struct.std::__1::pair.359", %"struct.std::__1::pair.359"* %37, i64 %10
  %39 = getelementptr inbounds %"struct.std::__1::pair.359", %"struct.std::__1::pair.359"* %37, i64 %36
  %40 = ptrtoint %"struct.std::__1::pair.359"* %39 to i64
  %41 = getelementptr inbounds %"struct.std::__1::pair.359", %"struct.std::__1::pair.359"* %38, i64 0, i32 0
  %42 = load i64, i64* %1, align 8
  store i64 %42, i64* %41, align 8
  %43 = getelementptr inbounds %"struct.std::__1::pair.359", %"struct.std::__1::pair.359"* %37, i64 %10, i32 1
  %44 = bitcast %"class.std::__1::vector.388"* %43 to i8*
  tail call void @llvm.memset.p0i8.i64(i8* align 8 %44, i8 0, i64 24, i1 false) #9
  %45 = bitcast %"class.std::__1::vector.388"* %2 to i64*
  %46 = load i64, i64* %45, align 8
  %47 = bitcast %"class.std::__1::vector.388"* %43 to i64*
  store i64 %46, i64* %47, align 8
  %48 = getelementptr inbounds %"class.std::__1::vector.388", %"class.std::__1::vector.388"* %2, i64 0, i32 0, i32 1
  %49 = bitcast %"class.dawn_native::ResourceMemoryAllocation"** %48 to i64*
  %50 = load i64, i64* %49, align 8
  %51 = getelementptr inbounds %"struct.std::__1::pair.359", %"struct.std::__1::pair.359"* %37, i64 %10, i32 1, i32 0, i32 1
  %52 = bitcast %"class.dawn_native::ResourceMemoryAllocation"** %51 to i64*
  store i64 %50, i64* %52, align 8
  %53 = getelementptr inbounds %"class.std::__1::vector.388", %"class.std::__1::vector.388"* %2, i64 0, i32 0, i32 2, i32 0, i32 0
  %54 = bitcast %"class.dawn_native::ResourceMemoryAllocation"** %53 to i64*
  %55 = load i64, i64* %54, align 8
  %56 = getelementptr inbounds %"struct.std::__1::pair.359", %"struct.std::__1::pair.359"* %37, i64 %10, i32 1, i32 0, i32 2, i32 0, i32 0
  %57 = bitcast %"class.dawn_native::ResourceMemoryAllocation"** %56 to i64*
  store i64 %55, i64* %57, align 8
  %58 = bitcast %"class.std::__1::vector.388"* %2 to i8*
  tail call void @llvm.memset.p0i8.i64(i8* align 8 %58, i8 0, i64 24, i1 false) #9
  %59 = getelementptr inbounds %"struct.std::__1::pair.359", %"struct.std::__1::pair.359"* %38, i64 1
  %60 = ptrtoint %"struct.std::__1::pair.359"* %59 to i64
  %61 = getelementptr inbounds %"class.std::__1::vector.357", %"class.std::__1::vector.357"* %0, i64 0, i32 0, i32 0
  %62 = load %"struct.std::__1::pair.359"*, %"struct.std::__1::pair.359"** %61, align 8
  %63 = ptrtoint %"struct.std::__1::pair.359"* %62 to i64
  %64 = load %"struct.std::__1::pair.359"*, %"struct.std::__1::pair.359"** %4, align 8
  %65 = icmp eq %"struct.std::__1::pair.359"* %64, %62
  br i1 %65, label %150, label %66

66:                                               ; preds = %35
  %67 = getelementptr %"struct.std::__1::pair.359", %"struct.std::__1::pair.359"* %64, i64 -1, i32 0
  %68 = ptrtoint i64* %67 to i64
  %69 = sub i64 %68, %63
  %70 = and i64 %69, 32
  %71 = icmp eq i64 %70, 0
  br i1 %71, label %72, label %95

72:                                               ; preds = %66
  %73 = getelementptr inbounds %"struct.std::__1::pair.359", %"struct.std::__1::pair.359"* %64, i64 -1
  %74 = getelementptr inbounds %"struct.std::__1::pair.359", %"struct.std::__1::pair.359"* %38, i64 -1, i32 0
  %75 = getelementptr inbounds %"struct.std::__1::pair.359", %"struct.std::__1::pair.359"* %73, i64 0, i32 0
  %76 = load i64, i64* %75, align 8
  store i64 %76, i64* %74, align 8
  %77 = getelementptr inbounds %"struct.std::__1::pair.359", %"struct.std::__1::pair.359"* %38, i64 -1, i32 1
  %78 = getelementptr inbounds %"struct.std::__1::pair.359", %"struct.std::__1::pair.359"* %64, i64 -1, i32 1
  %79 = bitcast %"class.std::__1::vector.388"* %77 to i8*
  tail call void @llvm.memset.p0i8.i64(i8* align 8 %79, i8 0, i64 24, i1 false) #9
  %80 = bitcast %"class.std::__1::vector.388"* %78 to i64*
  %81 = load i64, i64* %80, align 8
  %82 = bitcast %"class.std::__1::vector.388"* %77 to i64*
  store i64 %81, i64* %82, align 8
  %83 = getelementptr inbounds %"struct.std::__1::pair.359", %"struct.std::__1::pair.359"* %64, i64 -1, i32 1, i32 0, i32 1
  %84 = bitcast %"class.dawn_native::ResourceMemoryAllocation"** %83 to i64*
  %85 = load i64, i64* %84, align 8
  %86 = getelementptr inbounds %"struct.std::__1::pair.359", %"struct.std::__1::pair.359"* %38, i64 -1, i32 1, i32 0, i32 1
  %87 = bitcast %"class.dawn_native::ResourceMemoryAllocation"** %86 to i64*
  store i64 %85, i64* %87, align 8
  %88 = getelementptr inbounds %"struct.std::__1::pair.359", %"struct.std::__1::pair.359"* %64, i64 -1, i32 1, i32 0, i32 2, i32 0, i32 0
  %89 = bitcast %"class.dawn_native::ResourceMemoryAllocation"** %88 to i64*
  %90 = load i64, i64* %89, align 8
  %91 = getelementptr inbounds %"struct.std::__1::pair.359", %"struct.std::__1::pair.359"* %38, i64 -1, i32 1, i32 0, i32 2, i32 0, i32 0
  %92 = bitcast %"class.dawn_native::ResourceMemoryAllocation"** %91 to i64*
  store i64 %90, i64* %92, align 8
  %93 = bitcast %"class.std::__1::vector.388"* %78 to i8*
  tail call void @llvm.memset.p0i8.i64(i8* align 8 %93, i8 0, i64 24, i1 false) #9
  %94 = getelementptr inbounds %"struct.std::__1::pair.359", %"struct.std::__1::pair.359"* %38, i64 -1
  br label %95

95:                                               ; preds = %72, %66
  %96 = phi %"struct.std::__1::pair.359"* [ undef, %66 ], [ %94, %72 ]
  %97 = phi %"struct.std::__1::pair.359"* [ %38, %66 ], [ %94, %72 ]
  %98 = phi %"struct.std::__1::pair.359"* [ %64, %66 ], [ %73, %72 ]
  %99 = icmp ult i64 %69, 32
  br i1 %99, label %146, label %100

100:                                              ; preds = %95, %100
  %101 = phi %"struct.std::__1::pair.359"* [ %144, %100 ], [ %97, %95 ]
  %102 = phi %"struct.std::__1::pair.359"* [ %123, %100 ], [ %98, %95 ]
  %103 = getelementptr inbounds %"struct.std::__1::pair.359", %"struct.std::__1::pair.359"* %101, i64 -1, i32 0
  %104 = getelementptr inbounds %"struct.std::__1::pair.359", %"struct.std::__1::pair.359"* %102, i64 -1, i32 0
  %105 = load i64, i64* %104, align 8
  store i64 %105, i64* %103, align 8
  %106 = getelementptr inbounds %"struct.std::__1::pair.359", %"struct.std::__1::pair.359"* %101, i64 -1, i32 1
  %107 = getelementptr inbounds %"struct.std::__1::pair.359", %"struct.std::__1::pair.359"* %102, i64 -1, i32 1
  %108 = bitcast %"class.std::__1::vector.388"* %106 to i8*
  tail call void @llvm.memset.p0i8.i64(i8* align 8 %108, i8 0, i64 24, i1 false) #9
  %109 = bitcast %"class.std::__1::vector.388"* %107 to i64*
  %110 = load i64, i64* %109, align 8
  %111 = bitcast %"class.std::__1::vector.388"* %106 to i64*
  store i64 %110, i64* %111, align 8
  %112 = getelementptr inbounds %"struct.std::__1::pair.359", %"struct.std::__1::pair.359"* %102, i64 -1, i32 1, i32 0, i32 1
  %113 = bitcast %"class.dawn_native::ResourceMemoryAllocation"** %112 to i64*
  %114 = load i64, i64* %113, align 8
  %115 = getelementptr inbounds %"struct.std::__1::pair.359", %"struct.std::__1::pair.359"* %101, i64 -1, i32 1, i32 0, i32 1
  %116 = bitcast %"class.dawn_native::ResourceMemoryAllocation"** %115 to i64*
  store i64 %114, i64* %116, align 8
  %117 = getelementptr inbounds %"struct.std::__1::pair.359", %"struct.std::__1::pair.359"* %102, i64 -1, i32 1, i32 0, i32 2, i32 0, i32 0
  %118 = bitcast %"class.dawn_native::ResourceMemoryAllocation"** %117 to i64*
  %119 = load i64, i64* %118, align 8
  %120 = getelementptr inbounds %"struct.std::__1::pair.359", %"struct.std::__1::pair.359"* %101, i64 -1, i32 1, i32 0, i32 2, i32 0, i32 0
  %121 = bitcast %"class.dawn_native::ResourceMemoryAllocation"** %120 to i64*
  store i64 %119, i64* %121, align 8
  %122 = bitcast %"class.std::__1::vector.388"* %107 to i8*
  tail call void @llvm.memset.p0i8.i64(i8* align 8 %122, i8 0, i64 24, i1 false) #9
  %123 = getelementptr inbounds %"struct.std::__1::pair.359", %"struct.std::__1::pair.359"* %102, i64 -2
  %124 = getelementptr inbounds %"struct.std::__1::pair.359", %"struct.std::__1::pair.359"* %101, i64 -2, i32 0
  %125 = getelementptr inbounds %"struct.std::__1::pair.359", %"struct.std::__1::pair.359"* %123, i64 0, i32 0
  %126 = load i64, i64* %125, align 8
  store i64 %126, i64* %124, align 8
  %127 = getelementptr inbounds %"struct.std::__1::pair.359", %"struct.std::__1::pair.359"* %101, i64 -2, i32 1
  %128 = getelementptr inbounds %"struct.std::__1::pair.359", %"struct.std::__1::pair.359"* %102, i64 -2, i32 1
  %129 = bitcast %"class.std::__1::vector.388"* %127 to i8*
  tail call void @llvm.memset.p0i8.i64(i8* align 8 %129, i8 0, i64 24, i1 false) #9
  %130 = bitcast %"class.std::__1::vector.388"* %128 to i64*
  %131 = load i64, i64* %130, align 8
  %132 = bitcast %"class.std::__1::vector.388"* %127 to i64*
  store i64 %131, i64* %132, align 8
  %133 = getelementptr inbounds %"struct.std::__1::pair.359", %"struct.std::__1::pair.359"* %102, i64 -2, i32 1, i32 0, i32 1
  %134 = bitcast %"class.dawn_native::ResourceMemoryAllocation"** %133 to i64*
  %135 = load i64, i64* %134, align 8
  %136 = getelementptr inbounds %"struct.std::__1::pair.359", %"struct.std::__1::pair.359"* %101, i64 -2, i32 1, i32 0, i32 1
  %137 = bitcast %"class.dawn_native::ResourceMemoryAllocation"** %136 to i64*
  store i64 %135, i64* %137, align 8
  %138 = getelementptr inbounds %"struct.std::__1::pair.359", %"struct.std::__1::pair.359"* %102, i64 -2, i32 1, i32 0, i32 2, i32 0, i32 0
  %139 = bitcast %"class.dawn_native::ResourceMemoryAllocation"** %138 to i64*
  %140 = load i64, i64* %139, align 8
  %141 = getelementptr inbounds %"struct.std::__1::pair.359", %"struct.std::__1::pair.359"* %101, i64 -2, i32 1, i32 0, i32 2, i32 0, i32 0
  %142 = bitcast %"class.dawn_native::ResourceMemoryAllocation"** %141 to i64*
  store i64 %140, i64* %142, align 8
  %143 = bitcast %"class.std::__1::vector.388"* %128 to i8*
  tail call void @llvm.memset.p0i8.i64(i8* align 8 %143, i8 0, i64 24, i1 false) #9
  %144 = getelementptr inbounds %"struct.std::__1::pair.359", %"struct.std::__1::pair.359"* %101, i64 -2
  %145 = icmp eq %"struct.std::__1::pair.359"* %123, %62
  br i1 %145, label %146, label %100

146:                                              ; preds = %100, %95
  %147 = phi %"struct.std::__1::pair.359"* [ %96, %95 ], [ %144, %100 ]
  %148 = load i64, i64* %7, align 8
  %149 = load %"struct.std::__1::pair.359"*, %"struct.std::__1::pair.359"** %4, align 8
  br label %150

150:                                              ; preds = %35, %146
  %151 = phi %"struct.std::__1::pair.359"* [ %149, %146 ], [ %62, %35 ]
  %152 = phi %"struct.std::__1::pair.359"* [ %147, %146 ], [ %38, %35 ]
  %153 = phi i64 [ %148, %146 ], [ %63, %35 ]
  %154 = ptrtoint %"struct.std::__1::pair.359"* %152 to i64
  store i64 %154, i64* %7, align 8
  store i64 %60, i64* %5, align 8
  store i64 %40, i64* %17, align 8
  %155 = inttoptr i64 %153 to %"struct.std::__1::pair.359"*
  %156 = icmp eq %"struct.std::__1::pair.359"* %151, %155
  br i1 %156, label %183, label %157

157:                                              ; preds = %150, %181
  %158 = phi %"struct.std::__1::pair.359"* [ %159, %181 ], [ %151, %150 ]
  %159 = getelementptr inbounds %"struct.std::__1::pair.359", %"struct.std::__1::pair.359"* %158, i64 -1
  %160 = getelementptr inbounds %"struct.std::__1::pair.359", %"struct.std::__1::pair.359"* %158, i64 -1, i32 1
  %161 = getelementptr inbounds %"class.std::__1::vector.388", %"class.std::__1::vector.388"* %160, i64 0, i32 0, i32 0
  %162 = load %"class.dawn_native::ResourceMemoryAllocation"*, %"class.dawn_native::ResourceMemoryAllocation"** %161, align 8
  %163 = icmp eq %"class.dawn_native::ResourceMemoryAllocation"* %162, null
  br i1 %163, label %181, label %164

164:                                              ; preds = %157
  %165 = bitcast %"class.dawn_native::ResourceMemoryAllocation"* %162 to i8*
  %166 = getelementptr inbounds %"struct.std::__1::pair.359", %"struct.std::__1::pair.359"* %158, i64 -1, i32 1, i32 0, i32 1
  %167 = load %"class.dawn_native::ResourceMemoryAllocation"*, %"class.dawn_native::ResourceMemoryAllocation"** %166, align 8
  %168 = icmp eq %"class.dawn_native::ResourceMemoryAllocation"* %167, %162
  br i1 %168, label %179, label %169

169:                                              ; preds = %164, %169
  %170 = phi %"class.dawn_native::ResourceMemoryAllocation"* [ %171, %169 ], [ %167, %164 ]
  %171 = getelementptr inbounds %"class.dawn_native::ResourceMemoryAllocation", %"class.dawn_native::ResourceMemoryAllocation"* %170, i64 -1
  %172 = bitcast %"class.dawn_native::ResourceMemoryAllocation"* %171 to void (%"class.dawn_native::ResourceMemoryAllocation"*)***
  %173 = load void (%"class.dawn_native::ResourceMemoryAllocation"*)**, void (%"class.dawn_native::ResourceMemoryAllocation"*)*** %172, align 8
  %174 = load void (%"class.dawn_native::ResourceMemoryAllocation"*)*, void (%"class.dawn_native::ResourceMemoryAllocation"*)** %173, align 8
  tail call void %174(%"class.dawn_native::ResourceMemoryAllocation"* %171) #9
  %175 = icmp eq %"class.dawn_native::ResourceMemoryAllocation"* %171, %162
  br i1 %175, label %176, label %169

176:                                              ; preds = %169
  %177 = bitcast %"class.std::__1::vector.388"* %160 to i8**
  %178 = load i8*, i8** %177, align 8
  br label %179

179:                                              ; preds = %176, %164
  %180 = phi i8* [ %178, %176 ], [ %165, %164 ]
  store %"class.dawn_native::ResourceMemoryAllocation"* %162, %"class.dawn_native::ResourceMemoryAllocation"** %166, align 8
  tail call void @_ZdlPv(i8* %180) #10
  br label %181

181:                                              ; preds = %179, %157
  %182 = icmp eq %"struct.std::__1::pair.359"* %159, %155
  br i1 %182, label %183, label %157

183:                                              ; preds = %181, %150
  %184 = icmp eq i64 %153, 0
  br i1 %184, label %187, label %185

185:                                              ; preds = %183
  %186 = inttoptr i64 %153 to i8*
  tail call void @_ZdlPv(i8* %186) #10
  br label %187

187:                                              ; preds = %183, %185
  ret void
}

; Function Attrs: nounwind ssp uwtable
define linkonce_odr hidden %"struct.std::__1::pair.359"* @_ZNSt3__16vectorINS_4pairImNS0_IN11dawn_native24ResourceMemoryAllocationENS_9allocatorIS3_EEEEEENS4_IS7_EEE5eraseENS_11__wrap_iterIPKS7_EESD_(%"class.std::__1::vector.357"*, %"struct.std::__1::pair.359"*, %"struct.std::__1::pair.359"*) local_unnamed_addr #0 comdat align 2 {
  %4 = icmp eq %"struct.std::__1::pair.359"* %1, %2
  br i1 %4, label %89, label %5

5:                                                ; preds = %3
  %6 = getelementptr inbounds %"class.std::__1::vector.357", %"class.std::__1::vector.357"* %0, i64 0, i32 0, i32 1
  %7 = load %"struct.std::__1::pair.359"*, %"struct.std::__1::pair.359"** %6, align 8
  %8 = icmp eq %"struct.std::__1::pair.359"* %7, %2
  br i1 %8, label %58, label %9

9:                                                ; preds = %5, %38
  %10 = phi %"struct.std::__1::pair.359"* [ %54, %38 ], [ %1, %5 ]
  %11 = phi %"struct.std::__1::pair.359"* [ %53, %38 ], [ %2, %5 ]
  %12 = getelementptr inbounds %"struct.std::__1::pair.359", %"struct.std::__1::pair.359"* %11, i64 0, i32 0
  %13 = load i64, i64* %12, align 8
  %14 = getelementptr inbounds %"struct.std::__1::pair.359", %"struct.std::__1::pair.359"* %10, i64 0, i32 0
  store i64 %13, i64* %14, align 8
  %15 = getelementptr inbounds %"struct.std::__1::pair.359", %"struct.std::__1::pair.359"* %11, i64 0, i32 1
  %16 = getelementptr inbounds %"struct.std::__1::pair.359", %"struct.std::__1::pair.359"* %10, i64 0, i32 1
  %17 = getelementptr inbounds %"class.std::__1::vector.388", %"class.std::__1::vector.388"* %16, i64 0, i32 0, i32 0
  %18 = load %"class.dawn_native::ResourceMemoryAllocation"*, %"class.dawn_native::ResourceMemoryAllocation"** %17, align 8
  %19 = icmp eq %"class.dawn_native::ResourceMemoryAllocation"* %18, null
  br i1 %19, label %38, label %20

20:                                               ; preds = %9
  %21 = bitcast %"class.dawn_native::ResourceMemoryAllocation"* %18 to i8*
  %22 = getelementptr inbounds %"struct.std::__1::pair.359", %"struct.std::__1::pair.359"* %10, i64 0, i32 1, i32 0, i32 1
  %23 = load %"class.dawn_native::ResourceMemoryAllocation"*, %"class.dawn_native::ResourceMemoryAllocation"** %22, align 8
  %24 = icmp eq %"class.dawn_native::ResourceMemoryAllocation"* %23, %18
  br i1 %24, label %35, label %25

25:                                               ; preds = %20, %25
  %26 = phi %"class.dawn_native::ResourceMemoryAllocation"* [ %27, %25 ], [ %23, %20 ]
  %27 = getelementptr inbounds %"class.dawn_native::ResourceMemoryAllocation", %"class.dawn_native::ResourceMemoryAllocation"* %26, i64 -1
  %28 = bitcast %"class.dawn_native::ResourceMemoryAllocation"* %27 to void (%"class.dawn_native::ResourceMemoryAllocation"*)***
  %29 = load void (%"class.dawn_native::ResourceMemoryAllocation"*)**, void (%"class.dawn_native::ResourceMemoryAllocation"*)*** %28, align 8
  %30 = load void (%"class.dawn_native::ResourceMemoryAllocation"*)*, void (%"class.dawn_native::ResourceMemoryAllocation"*)** %29, align 8
  tail call void %30(%"class.dawn_native::ResourceMemoryAllocation"* %27) #9
  %31 = icmp eq %"class.dawn_native::ResourceMemoryAllocation"* %27, %18
  br i1 %31, label %32, label %25

32:                                               ; preds = %25
  %33 = bitcast %"class.std::__1::vector.388"* %16 to i8**
  %34 = load i8*, i8** %33, align 8
  br label %35

35:                                               ; preds = %32, %20
  %36 = phi i8* [ %34, %32 ], [ %21, %20 ]
  store %"class.dawn_native::ResourceMemoryAllocation"* %18, %"class.dawn_native::ResourceMemoryAllocation"** %22, align 8
  tail call void @_ZdlPv(i8* %36) #10
  %37 = bitcast %"class.std::__1::vector.388"* %16 to i8*
  tail call void @llvm.memset.p0i8.i64(i8* align 8 %37, i8 0, i64 24, i1 false) #9
  br label %38

38:                                               ; preds = %35, %9
  %39 = bitcast %"class.std::__1::vector.388"* %15 to i64*
  %40 = load i64, i64* %39, align 8
  %41 = bitcast %"class.std::__1::vector.388"* %16 to i64*
  store i64 %40, i64* %41, align 8
  %42 = getelementptr inbounds %"struct.std::__1::pair.359", %"struct.std::__1::pair.359"* %11, i64 0, i32 1, i32 0, i32 1
  %43 = bitcast %"class.dawn_native::ResourceMemoryAllocation"** %42 to i64*
  %44 = load i64, i64* %43, align 8
  %45 = getelementptr inbounds %"struct.std::__1::pair.359", %"struct.std::__1::pair.359"* %10, i64 0, i32 1, i32 0, i32 1
  %46 = bitcast %"class.dawn_native::ResourceMemoryAllocation"** %45 to i64*
  store i64 %44, i64* %46, align 8
  %47 = getelementptr inbounds %"struct.std::__1::pair.359", %"struct.std::__1::pair.359"* %11, i64 0, i32 1, i32 0, i32 2, i32 0, i32 0
  %48 = bitcast %"class.dawn_native::ResourceMemoryAllocation"** %47 to i64*
  %49 = load i64, i64* %48, align 8
  %50 = getelementptr inbounds %"struct.std::__1::pair.359", %"struct.std::__1::pair.359"* %10, i64 0, i32 1, i32 0, i32 2, i32 0, i32 0
  %51 = bitcast %"class.dawn_native::ResourceMemoryAllocation"** %50 to i64*
  store i64 %49, i64* %51, align 8
  %52 = bitcast %"class.std::__1::vector.388"* %15 to i8*
  tail call void @llvm.memset.p0i8.i64(i8* align 8 %52, i8 0, i64 24, i1 false) #9
  %53 = getelementptr inbounds %"struct.std::__1::pair.359", %"struct.std::__1::pair.359"* %11, i64 1
  %54 = getelementptr inbounds %"struct.std::__1::pair.359", %"struct.std::__1::pair.359"* %10, i64 1
  %55 = icmp eq %"struct.std::__1::pair.359"* %53, %7
  br i1 %55, label %56, label %9

56:                                               ; preds = %38
  %57 = load %"struct.std::__1::pair.359"*, %"struct.std::__1::pair.359"** %6, align 8
  br label %58

58:                                               ; preds = %56, %5
  %59 = phi %"struct.std::__1::pair.359"* [ %2, %5 ], [ %57, %56 ]
  %60 = phi %"struct.std::__1::pair.359"* [ %1, %5 ], [ %54, %56 ]
  %61 = icmp eq %"struct.std::__1::pair.359"* %59, %60
  br i1 %61, label %88, label %62

62:                                               ; preds = %58, %86
  %63 = phi %"struct.std::__1::pair.359"* [ %64, %86 ], [ %59, %58 ]
  %64 = getelementptr inbounds %"struct.std::__1::pair.359", %"struct.std::__1::pair.359"* %63, i64 -1
  %65 = getelementptr inbounds %"struct.std::__1::pair.359", %"struct.std::__1::pair.359"* %63, i64 -1, i32 1
  %66 = getelementptr inbounds %"class.std::__1::vector.388", %"class.std::__1::vector.388"* %65, i64 0, i32 0, i32 0
  %67 = load %"class.dawn_native::ResourceMemoryAllocation"*, %"class.dawn_native::ResourceMemoryAllocation"** %66, align 8
  %68 = icmp eq %"class.dawn_native::ResourceMemoryAllocation"* %67, null
  br i1 %68, label %86, label %69

69:                                               ; preds = %62
  %70 = bitcast %"class.dawn_native::ResourceMemoryAllocation"* %67 to i8*
  %71 = getelementptr inbounds %"struct.std::__1::pair.359", %"struct.std::__1::pair.359"* %63, i64 -1, i32 1, i32 0, i32 1
  %72 = load %"class.dawn_native::ResourceMemoryAllocation"*, %"class.dawn_native::ResourceMemoryAllocation"** %71, align 8
  %73 = icmp eq %"class.dawn_native::ResourceMemoryAllocation"* %72, %67
  br i1 %73, label %84, label %74

74:                                               ; preds = %69, %74
  %75 = phi %"class.dawn_native::ResourceMemoryAllocation"* [ %76, %74 ], [ %72, %69 ]
  %76 = getelementptr inbounds %"class.dawn_native::ResourceMemoryAllocation", %"class.dawn_native::ResourceMemoryAllocation"* %75, i64 -1
  %77 = bitcast %"class.dawn_native::ResourceMemoryAllocation"* %76 to void (%"class.dawn_native::ResourceMemoryAllocation"*)***
  %78 = load void (%"class.dawn_native::ResourceMemoryAllocation"*)**, void (%"class.dawn_native::ResourceMemoryAllocation"*)*** %77, align 8
  %79 = load void (%"class.dawn_native::ResourceMemoryAllocation"*)*, void (%"class.dawn_native::ResourceMemoryAllocation"*)** %78, align 8
  tail call void %79(%"class.dawn_native::ResourceMemoryAllocation"* %76) #9
  %80 = icmp eq %"class.dawn_native::ResourceMemoryAllocation"* %76, %67
  br i1 %80, label %81, label %74

81:                                               ; preds = %74
  %82 = bitcast %"class.std::__1::vector.388"* %65 to i8**
  %83 = load i8*, i8** %82, align 8
  br label %84

84:                                               ; preds = %81, %69
  %85 = phi i8* [ %83, %81 ], [ %70, %69 ]
  store %"class.dawn_native::ResourceMemoryAllocation"* %67, %"class.dawn_native::ResourceMemoryAllocation"** %71, align 8
  tail call void @_ZdlPv(i8* %85) #10
  br label %86

86:                                               ; preds = %84, %62
  %87 = icmp eq %"struct.std::__1::pair.359"* %64, %60
  br i1 %87, label %88, label %62

88:                                               ; preds = %86, %58
  store %"struct.std::__1::pair.359"* %60, %"struct.std::__1::pair.359"** %6, align 8
  br label %89

89:                                               ; preds = %3, %88
  ret %"struct.std::__1::pair.359"* %1
}

attributes #0 = { nounwind ssp uwtable "correctly-rounded-divide-sqrt-fp-math"="false" "disable-tail-calls"="false" "less-precise-fpmad"="false" "min-legal-vector-width"="0" "no-frame-pointer-elim"="false" "no-frame-pointer-elim-non-leaf" "no-infs-fp-math"="false" "no-jump-tables"="false" "no-nans-fp-math"="false" "no-signed-zeros-fp-math"="false" "no-trapping-math"="false" "null-pointer-is-valid"="true" "stack-protector-buffer-size"="4" "target-cpu"="x86-64" "target-features"="+cx8,+fxsr,+mmx,+sse,+sse2,+sse3,+x87" "unsafe-fp-math"="false" "use-soft-float"="false" }
attributes #1 = { argmemonly nounwind }
attributes #2 = { "correctly-rounded-divide-sqrt-fp-math"="false" "disable-tail-calls"="false" "less-precise-fpmad"="false" "no-frame-pointer-elim"="false" "no-frame-pointer-elim-non-leaf" "no-infs-fp-math"="false" "no-nans-fp-math"="false" "no-signed-zeros-fp-math"="false" "no-trapping-math"="false" "null-pointer-is-valid"="true" "stack-protector-buffer-size"="4" "target-cpu"="x86-64" "target-features"="+cx8,+fxsr,+mmx,+sse,+sse2,+sse3,+x87" "unsafe-fp-math"="false" "use-soft-float"="false" }
attributes #3 = { nobuiltin nounwind "correctly-rounded-divide-sqrt-fp-math"="false" "disable-tail-calls"="false" "less-precise-fpmad"="false" "no-frame-pointer-elim"="false" "no-frame-pointer-elim-non-leaf" "no-infs-fp-math"="false" "no-nans-fp-math"="false" "no-signed-zeros-fp-math"="false" "no-trapping-math"="false" "null-pointer-is-valid"="true" "stack-protector-buffer-size"="4" "target-cpu"="x86-64" "target-features"="+cx8,+fxsr,+mmx,+sse,+sse2,+sse3,+x87" "unsafe-fp-math"="false" "use-soft-float"="false" }
attributes #4 = { noreturn nounwind "correctly-rounded-divide-sqrt-fp-math"="false" "disable-tail-calls"="false" "less-precise-fpmad"="false" "no-frame-pointer-elim"="false" "no-frame-pointer-elim-non-leaf" "no-infs-fp-math"="false" "no-nans-fp-math"="false" "no-signed-zeros-fp-math"="false" "no-trapping-math"="false" "null-pointer-is-valid"="true" "stack-protector-buffer-size"="4" "target-cpu"="x86-64" "target-features"="+cx8,+fxsr,+mmx,+sse,+sse2,+sse3,+x87" "unsafe-fp-math"="false" "use-soft-float"="false" }
attributes #5 = { nobuiltin nofree "correctly-rounded-divide-sqrt-fp-math"="false" "disable-tail-calls"="false" "less-precise-fpmad"="false" "no-frame-pointer-elim"="false" "no-frame-pointer-elim-non-leaf" "no-infs-fp-math"="false" "no-nans-fp-math"="false" "no-signed-zeros-fp-math"="false" "no-trapping-math"="false" "null-pointer-is-valid"="true" "stack-protector-buffer-size"="4" "target-cpu"="x86-64" "target-features"="+cx8,+fxsr,+mmx,+sse,+sse2,+sse3,+x87" "unsafe-fp-math"="false" "use-soft-float"="false" }
attributes #6 = { nounwind "correctly-rounded-divide-sqrt-fp-math"="false" "disable-tail-calls"="false" "less-precise-fpmad"="false" "no-frame-pointer-elim"="false" "no-frame-pointer-elim-non-leaf" "no-infs-fp-math"="false" "no-nans-fp-math"="false" "no-signed-zeros-fp-math"="false" "no-trapping-math"="false" "null-pointer-is-valid"="true" "stack-protector-buffer-size"="4" "target-cpu"="x86-64" "target-features"="+cx8,+fxsr,+mmx,+sse,+sse2,+sse3,+x87" "unsafe-fp-math"="false" "use-soft-float"="false" }
attributes #7 = { inlinehint nounwind ssp uwtable "correctly-rounded-divide-sqrt-fp-math"="false" "disable-tail-calls"="false" "less-precise-fpmad"="false" "min-legal-vector-width"="0" "no-frame-pointer-elim"="false" "no-frame-pointer-elim-non-leaf" "no-infs-fp-math"="false" "no-jump-tables"="false" "no-nans-fp-math"="false" "no-signed-zeros-fp-math"="false" "no-trapping-math"="false" "null-pointer-is-valid"="true" "stack-protector-buffer-size"="4" "target-cpu"="x86-64" "target-features"="+cx8,+fxsr,+mmx,+sse,+sse2,+sse3,+x87" "unsafe-fp-math"="false" "use-soft-float"="false" }
attributes #8 = { noreturn "correctly-rounded-divide-sqrt-fp-math"="false" "disable-tail-calls"="false" "less-precise-fpmad"="false" "no-frame-pointer-elim"="false" "no-frame-pointer-elim-non-leaf" "no-infs-fp-math"="false" "no-nans-fp-math"="false" "no-signed-zeros-fp-math"="false" "no-trapping-math"="false" "null-pointer-is-valid"="true" "stack-protector-buffer-size"="4" "target-cpu"="x86-64" "target-features"="+cx8,+fxsr,+mmx,+sse,+sse2,+sse3,+x87" "unsafe-fp-math"="false" "use-soft-float"="false" }
attributes #9 = { nounwind }
attributes #10 = { builtin nounwind }
attributes #11 = { noreturn nounwind }

!llvm.module.flags = !{!0, !1}

!0 = !{i32 1, !"wchar_size", i32 4}
!1 = !{i32 7, !"PIC Level", i32 2}
!2 = distinct !{!2, !3}
!3 = !{!"llvm.loop.unroll.disable"}
!4 = !{!5}
!5 = distinct !{!5, !6, !"_ZN11dawn_native6vulkan23ResourceMemoryAllocator19SingleTypeAllocator14AllocateMemoryERK20VkMemoryRequirements: argument 0"}
!6 = distinct !{!6, !"_ZN11dawn_native6vulkan23ResourceMemoryAllocator19SingleTypeAllocator14AllocateMemoryERK20VkMemoryRequirements"}
!7 = !{!"branch_weights", i32 1, i32 2000}
!8 = !{!"branch_weights", i32 2000, i32 1}
!9 = distinct !{!9, !3}
