; ModuleID = 'gen/services/network/public/mojom/restricted_cookie_manager.mojom-blink-test-utils.cc'
source_filename = "gen/services/network/public/mojom/restricted_cookie_manager.mojom-blink-test-utils.cc"
target datalayout = "e-m:e-i64:64-f80:128-n8:16:32:64-S128"
target triple = "x86_64-unknown-linux-gnu"

module asm ".symver exp, exp@GLIBC_2.2.5"
module asm ".symver exp2, exp2@GLIBC_2.2.5"
module asm ".symver exp2f, exp2f@GLIBC_2.2.5"
module asm ".symver expf, expf@GLIBC_2.2.5"
module asm ".symver lgamma, lgamma@GLIBC_2.2.5"
module asm ".symver lgammaf, lgammaf@GLIBC_2.2.5"
module asm ".symver lgammal, lgammal@GLIBC_2.2.5"
module asm ".symver log, log@GLIBC_2.2.5"
module asm ".symver log2, log2@GLIBC_2.2.5"
module asm ".symver log2f, log2f@GLIBC_2.2.5"
module asm ".symver logf, logf@GLIBC_2.2.5"
module asm ".symver pow, pow@GLIBC_2.2.5"
module asm ".symver powf, powf@GLIBC_2.2.5"

%"class.network::mojom::blink::RestrictedCookieManagerAsyncWaiter" = type { %"class.network::mojom::blink::RestrictedCookieManager"* }
%"class.network::mojom::blink::RestrictedCookieManager" = type { i32 (...)** }
%"class.network::mojom::blink::RestrictedCookieManagerInterceptorForTesting" = type { %"class.network::mojom::blink::RestrictedCookieManager" }
%"class.blink::KURL" = type { i8, i8, %"class.WTF::String", %"struct.url::Parsed", %"class.WTF::String", %"class.std::__1::unique_ptr" }
%"struct.url::Parsed" = type { %"struct.url::Component", %"struct.url::Component", %"struct.url::Component", %"struct.url::Component", %"struct.url::Component", %"struct.url::Component", %"struct.url::Component", %"struct.url::Component", i8, %"struct.url::Parsed"* }
%"struct.url::Component" = type { i32, i32 }
%"class.WTF::String" = type { %class.scoped_refptr }
%class.scoped_refptr = type { %"class.WTF::StringImpl"* }
%"class.WTF::StringImpl" = type { i32, i32, %"struct.std::__1::atomic" }
%"struct.std::__1::atomic" = type { %"struct.std::__1::__atomic_base" }
%"struct.std::__1::__atomic_base" = type { %"struct.std::__1::__atomic_base.0" }
%"struct.std::__1::__atomic_base.0" = type { %"struct.std::__1::__cxx_atomic_impl" }
%"struct.std::__1::__cxx_atomic_impl" = type { %"struct.std::__1::__cxx_atomic_base_impl" }
%"struct.std::__1::__cxx_atomic_base_impl" = type { i32 }
%"class.std::__1::unique_ptr" = type { %"class.std::__1::__compressed_pair" }
%"class.std::__1::__compressed_pair" = type { %"struct.std::__1::__compressed_pair_elem" }
%"struct.std::__1::__compressed_pair_elem" = type { %"class.blink::KURL"* }
%"class.net::SiteForCookies" = type <{ %"class.net::SchemefulSite", i8, [7 x i8] }>
%"class.net::SchemefulSite" = type { %"class.url::Origin" }
%"class.url::Origin" = type { %"class.url::SchemeHostPort", %"class.absl::optional" }
%"class.url::SchemeHostPort" = type <{ %"class.std::__1::basic_string", %"class.std::__1::basic_string", i16, [6 x i8] }>
%"class.std::__1::basic_string" = type { %"class.std::__1::__compressed_pair.2" }
%"class.std::__1::__compressed_pair.2" = type { %"struct.std::__1::__compressed_pair_elem.3" }
%"struct.std::__1::__compressed_pair_elem.3" = type { %"struct.std::__1::basic_string<char, std::__1::char_traits<char>, std::__1::allocator<char> >::__rep" }
%"struct.std::__1::basic_string<char, std::__1::char_traits<char>, std::__1::allocator<char> >::__rep" = type { %union.anon }
%union.anon = type { %"struct.std::__1::basic_string<char, std::__1::char_traits<char>, std::__1::allocator<char> >::__long" }
%"struct.std::__1::basic_string<char, std::__1::char_traits<char>, std::__1::allocator<char> >::__long" = type { i8*, i64, i64 }
%"class.absl::optional" = type { %"class.absl::optional_internal::optional_data" }
%"class.absl::optional_internal::optional_data" = type { %"class.absl::optional_internal::optional_data_base" }
%"class.absl::optional_internal::optional_data_base" = type { %"class.absl::optional_internal::optional_data_dtor_base" }
%"class.absl::optional_internal::optional_data_dtor_base" = type { i8, %union.anon.5 }
%union.anon.5 = type { %"class.url::Origin::Nonce" }
%"class.url::Origin::Nonce" = type { %"class.base::UnguessableToken" }
%"class.base::UnguessableToken" = type { %"class.base::Token" }
%"class.base::Token" = type { i64, i64 }
%class.scoped_refptr.6 = type { %"class.blink::SecurityOrigin"* }
%"class.blink::SecurityOrigin" = type { %"class.WTF::RefCounted", %"class.WTF::String", %"class.WTF::String", %"class.WTF::String", i16, %"class.absl::optional", i8, i8, i8, i8, i8, i8, %"class.base::UnguessableToken", %class.scoped_refptr.6 }
%"class.WTF::RefCounted" = type { %"class.base::RefCounted" }
%"class.base::RefCounted" = type { %"class.base::subtle::RefCountedBase" }
%"class.base::subtle::RefCountedBase" = type { i32 }
%"class.mojo::InlinedStructPtr" = type { %"class.network::mojom::blink::CookieManagerGetOptions", i32, [4 x i8] }
%"class.network::mojom::blink::CookieManagerGetOptions" = type <{ %"class.WTF::String", i32, [4 x i8] }>
%"class.base::OnceCallback" = type { %"class.base::internal::CallbackBase" }
%"class.base::internal::CallbackBase" = type { %class.scoped_refptr.7 }
%class.scoped_refptr.7 = type { %"class.base::internal::BindStateBase"* }
%"class.base::internal::BindStateBase" = type { %"class.base::RefCountedThreadSafe", void ()*, void (%"class.base::internal::BindStateBase"*)*, i1 (%"class.base::internal::BindStateBase"*, i32)* }
%"class.base::RefCountedThreadSafe" = type { %"class.base::subtle::RefCountedThreadSafeBase" }
%"class.base::subtle::RefCountedThreadSafeBase" = type { %"class.base::AtomicRefCount" }
%"class.base::AtomicRefCount" = type { %"struct.std::__1::atomic.8" }
%"struct.std::__1::atomic.8" = type { %"struct.std::__1::__atomic_base.9" }
%"struct.std::__1::__atomic_base.9" = type { %"struct.std::__1::__atomic_base.10" }
%"struct.std::__1::__atomic_base.10" = type { %"struct.std::__1::__cxx_atomic_impl.11" }
%"struct.std::__1::__cxx_atomic_impl.11" = type { %"struct.std::__1::__cxx_atomic_base_impl.12" }
%"struct.std::__1::__cxx_atomic_base_impl.12" = type { i32 }
%"class.net::CanonicalCookie" = type { %"class.std::__1::basic_string", %"class.std::__1::basic_string", %"class.std::__1::basic_string", %"class.std::__1::basic_string", %"class.base::Time", %"class.base::Time", %"class.base::Time", i8, i8, i32, i32, i8, i32, i32 }
%"class.base::Time" = type { %"class.base::time_internal::TimeBase" }
%"class.base::time_internal::TimeBase" = type { i64 }
%"class.base::OnceCallback.13" = type { %"class.base::internal::CallbackBase" }
%"class.mojo::PendingRemote" = type { %"struct.mojo::internal::PendingRemoteState" }
%"struct.mojo::internal::PendingRemoteState" = type { %"class.mojo::ScopedHandleBase", i32 }
%"class.mojo::ScopedHandleBase" = type { %"class.mojo::MessagePipeHandle" }
%"class.mojo::MessagePipeHandle" = type { %"class.mojo::Handle" }
%"class.mojo::Handle" = type { i32 }
%"class.base::OnceCallback.14" = type { %"class.base::internal::CallbackBase" }
%"class.base::OnceCallback.15" = type { %"class.base::internal::CallbackBase" }
%"class.WTF::Vector" = type { %"class.WTF::VectorBuffer" }
%"class.WTF::VectorBuffer" = type { %"class.WTF::VectorBufferBase" }
%"class.WTF::VectorBufferBase" = type { %"class.mojo::StructPtr"*, i32, i32 }
%"class.mojo::StructPtr" = type { %"class.std::__1::unique_ptr.16" }
%"class.std::__1::unique_ptr.16" = type { %"class.std::__1::__compressed_pair.17" }
%"class.std::__1::__compressed_pair.17" = type { %"struct.std::__1::__compressed_pair_elem.18" }
%"struct.std::__1::__compressed_pair_elem.18" = type { %"class.network::mojom::blink::CookieWithAccessResult"* }
%"class.network::mojom::blink::CookieWithAccessResult" = type { %"class.net::CanonicalCookie", %"class.mojo::StructPtr.19" }
%"class.mojo::StructPtr.19" = type { %"class.std::__1::unique_ptr.20" }
%"class.std::__1::unique_ptr.20" = type { %"class.std::__1::__compressed_pair.21" }
%"class.std::__1::__compressed_pair.21" = type { %"struct.std::__1::__compressed_pair_elem.22" }
%"struct.std::__1::__compressed_pair_elem.22" = type { %"class.network::mojom::blink::CookieAccessResult"* }
%"class.network::mojom::blink::CookieAccessResult" = type <{ i32, i32, %"class.mojo::InlinedStructPtr.23", i8, [3 x i8] }>
%"class.mojo::InlinedStructPtr.23" = type { %"class.network::mojom::blink::CookieInclusionStatus", i32 }
%"class.network::mojom::blink::CookieInclusionStatus" = type { i32, i32 }
%"class.base::RunLoop" = type { %"class.base::RunLoop::Delegate"*, i32, i8, i8, i8, i8, i8, %class.scoped_refptr.42, %"class.base::WeakPtrFactory" }
%"class.base::RunLoop::Delegate" = type <{ i32 (...)**, %"class.std::__1::stack", %"class.base::ObserverList", i8, [7 x i8] }>
%"class.std::__1::stack" = type { %"class.std::__1::vector" }
%"class.std::__1::vector" = type { %"class.std::__1::__vector_base" }
%"class.std::__1::__vector_base" = type { %"class.base::RunLoop"**, %"class.base::RunLoop"**, %"class.std::__1::__compressed_pair.30" }
%"class.std::__1::__compressed_pair.30" = type { %"struct.std::__1::__compressed_pair_elem.31" }
%"struct.std::__1::__compressed_pair_elem.31" = type { %"class.base::RunLoop"** }
%"class.base::ObserverList" = type <{ %"class.std::__1::vector.35", %"class.base::LinkedList", i64, i32, [4 x i8] }>
%"class.std::__1::vector.35" = type { %"class.std::__1::__vector_base.36" }
%"class.std::__1::__vector_base.36" = type { %"class.base::internal::UncheckedObserverAdapter"*, %"class.base::internal::UncheckedObserverAdapter"*, %"class.std::__1::__compressed_pair.37" }
%"class.base::internal::UncheckedObserverAdapter" = type { i8* }
%"class.std::__1::__compressed_pair.37" = type { %"struct.std::__1::__compressed_pair_elem.38" }
%"struct.std::__1::__compressed_pair_elem.38" = type { %"class.base::internal::UncheckedObserverAdapter"* }
%"class.base::LinkedList" = type { %"class.base::LinkNode" }
%"class.base::LinkNode" = type { %"class.base::internal::LinkNodeBase" }
%"class.base::internal::LinkNodeBase" = type { %"class.base::internal::LinkNodeBase"*, %"class.base::internal::LinkNodeBase"* }
%class.scoped_refptr.42 = type { %"class.base::SingleThreadTaskRunner"* }
%"class.base::SingleThreadTaskRunner" = type { %"class.base::SequencedTaskRunner.base", [4 x i8] }
%"class.base::SequencedTaskRunner.base" = type { %"class.base::TaskRunner.base" }
%"class.base::TaskRunner.base" = type <{ i32 (...)**, %"class.base::RefCountedThreadSafe.43" }>
%"class.base::RefCountedThreadSafe.43" = type { %"class.base::subtle::RefCountedThreadSafeBase" }
%"class.base::WeakPtrFactory" = type { %"class.base::internal::WeakPtrFactoryBase" }
%"class.base::internal::WeakPtrFactoryBase" = type { %"class.base::internal::WeakReferenceOwner", i64 }
%"class.base::internal::WeakReferenceOwner" = type { %class.scoped_refptr.44 }
%class.scoped_refptr.44 = type { %"class.base::internal::WeakReference::Flag"* }
%"class.base::internal::WeakReference::Flag" = type <{ %"class.base::RefCountedThreadSafe.45", %"class.base::AtomicFlag", [3 x i8] }>
%"class.base::RefCountedThreadSafe.45" = type { %"class.base::subtle::RefCountedThreadSafeBase" }
%"class.base::AtomicFlag" = type { %"struct.std::__1::atomic.46" }
%"struct.std::__1::atomic.46" = type { %"struct.std::__1::__atomic_base.47" }
%"struct.std::__1::__atomic_base.47" = type { %"struct.std::__1::__atomic_base.48" }
%"struct.std::__1::__atomic_base.48" = type { %"struct.std::__1::__cxx_atomic_impl.49" }
%"struct.std::__1::__cxx_atomic_impl.49" = type { %"struct.std::__1::__cxx_atomic_base_impl.50" }
%"struct.std::__1::__cxx_atomic_base_impl.50" = type { i8 }
%"class.base::Location" = type { i8*, i8*, i32, i8* }

$_ZN7network5mojom5blink23RestrictedCookieManagerD2Ev = comdat any

$_ZN7network5mojom5blink44RestrictedCookieManagerInterceptorForTestingD0Ev = comdat any

$_ZNSt3__14swapIN7network5mojom5blink23CookieManagerGetOptionsEEENS_9enable_ifIXaasr21is_move_constructibleIT_EE5valuesr18is_move_assignableIS6_EE5valueEvE4typeERS6_S9_ = comdat any

@.str = private unnamed_addr constant [13 x i8] c"GetAllForUrl\00", align 1
@.str.1 = private unnamed_addr constant [86 x i8] c"gen/services/network/public/mojom/restricted_cookie_manager.mojom-blink-test-utils.cc\00", align 1
@.str.2 = private unnamed_addr constant [19 x i8] c"SetCanonicalCookie\00", align 1
@.str.3 = private unnamed_addr constant [18 x i8] c"AddChangeListener\00", align 1
@.str.4 = private unnamed_addr constant [20 x i8] c"SetCookieFromString\00", align 1
@.str.5 = private unnamed_addr constant [17 x i8] c"GetCookiesString\00", align 1
@.str.6 = private unnamed_addr constant [18 x i8] c"CookiesEnabledFor\00", align 1
@_ZTVN7network5mojom5blink44RestrictedCookieManagerInterceptorForTestingE = hidden unnamed_addr constant { [14 x i8*] } { [14 x i8*] [i8* null, i8* null, i8* bitcast (void (%"class.network::mojom::blink::RestrictedCookieManager"*)* @_ZN7network5mojom5blink23RestrictedCookieManagerD2Ev to i8*), i8* bitcast (void (%"class.network::mojom::blink::RestrictedCookieManagerInterceptorForTesting"*)* @_ZN7network5mojom5blink44RestrictedCookieManagerInterceptorForTestingD0Ev to i8*), i8* bitcast (void (%"class.network::mojom::blink::RestrictedCookieManagerInterceptorForTesting"*, %"class.blink::KURL"*, %"class.net::SiteForCookies"*, %class.scoped_refptr.6*, %"class.mojo::InlinedStructPtr"*, %"class.base::OnceCallback"*)* @_ZN7network5mojom5blink44RestrictedCookieManagerInterceptorForTesting12GetAllForUrlERKN5blink4KURLERKN3net14SiteForCookiesERK13scoped_refptrIKNS3_14SecurityOriginEEN4mojo16InlinedStructPtrINS1_23CookieManagerGetOptionsEEEN4base12OnceCallbackIFvN3WTF6VectorINSH_9StructPtrINS1_22CookieWithAccessResultEEELj0ENSN_18PartitionAllocatorEEEEEE to i8*), i8* bitcast (void (%"class.network::mojom::blink::RestrictedCookieManagerInterceptorForTesting"*, %"class.net::CanonicalCookie"*, %"class.blink::KURL"*, %"class.net::SiteForCookies"*, %class.scoped_refptr.6*, %"class.base::OnceCallback.13"*)* @_ZN7network5mojom5blink44RestrictedCookieManagerInterceptorForTesting18SetCanonicalCookieERKN3net15CanonicalCookieERKN5blink4KURLERKNS3_14SiteForCookiesERK13scoped_refptrIKNS7_14SecurityOriginEEN4base12OnceCallbackIFvbEEE to i8*), i8* bitcast (void (%"class.network::mojom::blink::RestrictedCookieManagerInterceptorForTesting"*, %"class.blink::KURL"*, %"class.net::SiteForCookies"*, %class.scoped_refptr.6*, %"class.mojo::PendingRemote"*, %"class.base::OnceCallback.14"*)* @_ZN7network5mojom5blink44RestrictedCookieManagerInterceptorForTesting17AddChangeListenerERKN5blink4KURLERKN3net14SiteForCookiesERK13scoped_refptrIKNS3_14SecurityOriginEEN4mojo13PendingRemoteINS1_20CookieChangeListenerEEEN4base12OnceCallbackIFvvEEE to i8*), i8* bitcast (i1 (%"class.network::mojom::blink::RestrictedCookieManager"*, %"class.blink::KURL"*, %"class.net::SiteForCookies"*, %class.scoped_refptr.6*, %"class.WTF::String"*)* @_ZN7network5mojom5blink23RestrictedCookieManager19SetCookieFromStringERKN5blink4KURLERKN3net14SiteForCookiesERK13scoped_refptrIKNS3_14SecurityOriginEERKN3WTF6StringE to i8*), i8* bitcast (void (%"class.network::mojom::blink::RestrictedCookieManagerInterceptorForTesting"*, %"class.blink::KURL"*, %"class.net::SiteForCookies"*, %class.scoped_refptr.6*, %"class.WTF::String"*, %"class.base::OnceCallback.14"*)* @_ZN7network5mojom5blink44RestrictedCookieManagerInterceptorForTesting19SetCookieFromStringERKN5blink4KURLERKN3net14SiteForCookiesERK13scoped_refptrIKNS3_14SecurityOriginEERKN3WTF6StringEN4base12OnceCallbackIFvvEEE to i8*), i8* bitcast (i1 (%"class.network::mojom::blink::RestrictedCookieManager"*, %"class.blink::KURL"*, %"class.net::SiteForCookies"*, %class.scoped_refptr.6*, %"class.WTF::String"*)* @_ZN7network5mojom5blink23RestrictedCookieManager16GetCookiesStringERKN5blink4KURLERKN3net14SiteForCookiesERK13scoped_refptrIKNS3_14SecurityOriginEEPN3WTF6StringE to i8*), i8* bitcast (void (%"class.network::mojom::blink::RestrictedCookieManagerInterceptorForTesting"*, %"class.blink::KURL"*, %"class.net::SiteForCookies"*, %class.scoped_refptr.6*, %"class.base::OnceCallback.15"*)* @_ZN7network5mojom5blink44RestrictedCookieManagerInterceptorForTesting16GetCookiesStringERKN5blink4KURLERKN3net14SiteForCookiesERK13scoped_refptrIKNS3_14SecurityOriginEEN4base12OnceCallbackIFvRKN3WTF6StringEEEE to i8*), i8* bitcast (i1 (%"class.network::mojom::blink::RestrictedCookieManager"*, %"class.blink::KURL"*, %"class.net::SiteForCookies"*, %class.scoped_refptr.6*, i8*)* @_ZN7network5mojom5blink23RestrictedCookieManager17CookiesEnabledForERKN5blink4KURLERKN3net14SiteForCookiesERK13scoped_refptrIKNS3_14SecurityOriginEEPb to i8*), i8* bitcast (void (%"class.network::mojom::blink::RestrictedCookieManagerInterceptorForTesting"*, %"class.blink::KURL"*, %"class.net::SiteForCookies"*, %class.scoped_refptr.6*, %"class.base::OnceCallback.13"*)* @_ZN7network5mojom5blink44RestrictedCookieManagerInterceptorForTesting17CookiesEnabledForERKN5blink4KURLERKN3net14SiteForCookiesERK13scoped_refptrIKNS3_14SecurityOriginEEN4base12OnceCallbackIFvbEEE to i8*), i8* bitcast (void ()* @__cxa_pure_virtual to i8*)] }, align 8

@_ZN7network5mojom5blink34RestrictedCookieManagerAsyncWaiterC1EPNS1_23RestrictedCookieManagerE = hidden unnamed_addr alias void (%"class.network::mojom::blink::RestrictedCookieManagerAsyncWaiter"*, %"class.network::mojom::blink::RestrictedCookieManager"*), void (%"class.network::mojom::blink::RestrictedCookieManagerAsyncWaiter"*, %"class.network::mojom::blink::RestrictedCookieManager"*)* @_ZN7network5mojom5blink34RestrictedCookieManagerAsyncWaiterC2EPNS1_23RestrictedCookieManagerE
@_ZN7network5mojom5blink34RestrictedCookieManagerAsyncWaiterD1Ev = hidden unnamed_addr alias void (%"class.network::mojom::blink::RestrictedCookieManagerAsyncWaiter"*), void (%"class.network::mojom::blink::RestrictedCookieManagerAsyncWaiter"*)* @_ZN7network5mojom5blink34RestrictedCookieManagerAsyncWaiterD2Ev

; Function Attrs: nounwind ssp uwtable
define hidden void @_ZN7network5mojom5blink44RestrictedCookieManagerInterceptorForTesting12GetAllForUrlERKN5blink4KURLERKN3net14SiteForCookiesERK13scoped_refptrIKNS3_14SecurityOriginEEN4mojo16InlinedStructPtrINS1_23CookieManagerGetOptionsEEEN4base12OnceCallbackIFvN3WTF6VectorINSH_9StructPtrINS1_22CookieWithAccessResultEEELj0ENSN_18PartitionAllocatorEEEEEE(%"class.network::mojom::blink::RestrictedCookieManagerInterceptorForTesting"*, %"class.blink::KURL"* dereferenceable(112), %"class.net::SiteForCookies"* dereferenceable(88), %class.scoped_refptr.6* dereferenceable(8), %"class.mojo::InlinedStructPtr"*, %"class.base::OnceCallback"* nocapture) unnamed_addr #0 align 2 {
  %7 = alloca %"class.mojo::InlinedStructPtr", align 8
  %8 = alloca %"class.base::OnceCallback", align 8
  %9 = bitcast %"class.network::mojom::blink::RestrictedCookieManagerInterceptorForTesting"* %0 to %"class.network::mojom::blink::RestrictedCookieManager"* (%"class.network::mojom::blink::RestrictedCookieManagerInterceptorForTesting"*)***
  %10 = load %"class.network::mojom::blink::RestrictedCookieManager"* (%"class.network::mojom::blink::RestrictedCookieManagerInterceptorForTesting"*)**, %"class.network::mojom::blink::RestrictedCookieManager"* (%"class.network::mojom::blink::RestrictedCookieManagerInterceptorForTesting"*)*** %9, align 8
  %11 = getelementptr inbounds %"class.network::mojom::blink::RestrictedCookieManager"* (%"class.network::mojom::blink::RestrictedCookieManagerInterceptorForTesting"*)*, %"class.network::mojom::blink::RestrictedCookieManager"* (%"class.network::mojom::blink::RestrictedCookieManagerInterceptorForTesting"*)** %10, i64 11
  %12 = load %"class.network::mojom::blink::RestrictedCookieManager"* (%"class.network::mojom::blink::RestrictedCookieManagerInterceptorForTesting"*)*, %"class.network::mojom::blink::RestrictedCookieManager"* (%"class.network::mojom::blink::RestrictedCookieManagerInterceptorForTesting"*)** %11, align 8
  %13 = tail call %"class.network::mojom::blink::RestrictedCookieManager"* %12(%"class.network::mojom::blink::RestrictedCookieManagerInterceptorForTesting"* %0) #11
  %14 = getelementptr inbounds %"class.mojo::InlinedStructPtr", %"class.mojo::InlinedStructPtr"* %7, i64 0, i32 0
  call void @_ZN7network5mojom5blink23CookieManagerGetOptionsC1Ev(%"class.network::mojom::blink::CookieManagerGetOptions"* nonnull %14) #11
  %15 = getelementptr inbounds %"class.mojo::InlinedStructPtr", %"class.mojo::InlinedStructPtr"* %7, i64 0, i32 1
  store i32 0, i32* %15, align 8
  call void @_ZN7network5mojom5blink23CookieManagerGetOptionsD1Ev(%"class.network::mojom::blink::CookieManagerGetOptions"* nonnull %14) #11
  call void @_ZN7network5mojom5blink23CookieManagerGetOptionsC1Ev(%"class.network::mojom::blink::CookieManagerGetOptions"* nonnull %14) #11
  %16 = getelementptr inbounds %"class.mojo::InlinedStructPtr", %"class.mojo::InlinedStructPtr"* %4, i64 0, i32 0
  call void @_ZNSt3__14swapIN7network5mojom5blink23CookieManagerGetOptionsEEENS_9enable_ifIXaasr21is_move_constructibleIT_EE5valuesr18is_move_assignableIS6_EE5valueEvE4typeERS6_S9_(%"class.network::mojom::blink::CookieManagerGetOptions"* nonnull dereferenceable(16) %14, %"class.network::mojom::blink::CookieManagerGetOptions"* dereferenceable(16) %16) #11
  %17 = getelementptr inbounds %"class.mojo::InlinedStructPtr", %"class.mojo::InlinedStructPtr"* %4, i64 0, i32 1
  %18 = load i32, i32* %15, align 8
  %19 = load i32, i32* %17, align 4
  store i32 %19, i32* %15, align 8
  store i32 %18, i32* %17, align 4
  %20 = getelementptr inbounds %"class.base::OnceCallback", %"class.base::OnceCallback"* %5, i64 0, i32 0, i32 0, i32 0
  %21 = bitcast %"class.base::OnceCallback"* %5 to i64*
  %22 = load i64, i64* %21, align 8
  %23 = bitcast %"class.base::OnceCallback"* %8 to i64*
  store i64 %22, i64* %23, align 8
  store %"class.base::internal::BindStateBase"* null, %"class.base::internal::BindStateBase"** %20, align 8
  %24 = bitcast %"class.network::mojom::blink::RestrictedCookieManager"* %13 to void (%"class.network::mojom::blink::RestrictedCookieManager"*, %"class.blink::KURL"*, %"class.net::SiteForCookies"*, %class.scoped_refptr.6*, %"class.mojo::InlinedStructPtr"*, %"class.base::OnceCallback"*)***
  %25 = load void (%"class.network::mojom::blink::RestrictedCookieManager"*, %"class.blink::KURL"*, %"class.net::SiteForCookies"*, %class.scoped_refptr.6*, %"class.mojo::InlinedStructPtr"*, %"class.base::OnceCallback"*)**, void (%"class.network::mojom::blink::RestrictedCookieManager"*, %"class.blink::KURL"*, %"class.net::SiteForCookies"*, %class.scoped_refptr.6*, %"class.mojo::InlinedStructPtr"*, %"class.base::OnceCallback"*)*** %24, align 8
  %26 = getelementptr inbounds void (%"class.network::mojom::blink::RestrictedCookieManager"*, %"class.blink::KURL"*, %"class.net::SiteForCookies"*, %class.scoped_refptr.6*, %"class.mojo::InlinedStructPtr"*, %"class.base::OnceCallback"*)*, void (%"class.network::mojom::blink::RestrictedCookieManager"*, %"class.blink::KURL"*, %"class.net::SiteForCookies"*, %class.scoped_refptr.6*, %"class.mojo::InlinedStructPtr"*, %"class.base::OnceCallback"*)** %25, i64 2
  %27 = load void (%"class.network::mojom::blink::RestrictedCookieManager"*, %"class.blink::KURL"*, %"class.net::SiteForCookies"*, %class.scoped_refptr.6*, %"class.mojo::InlinedStructPtr"*, %"class.base::OnceCallback"*)*, void (%"class.network::mojom::blink::RestrictedCookieManager"*, %"class.blink::KURL"*, %"class.net::SiteForCookies"*, %class.scoped_refptr.6*, %"class.mojo::InlinedStructPtr"*, %"class.base::OnceCallback"*)** %26, align 8
  call void %27(%"class.network::mojom::blink::RestrictedCookieManager"* %13, %"class.blink::KURL"* dereferenceable(112) %1, %"class.net::SiteForCookies"* dereferenceable(88) %2, %class.scoped_refptr.6* dereferenceable(8) %3, %"class.mojo::InlinedStructPtr"* nonnull %7, %"class.base::OnceCallback"* nonnull %8) #11
  %28 = getelementptr inbounds %"class.base::OnceCallback", %"class.base::OnceCallback"* %8, i64 0, i32 0
  call void @_ZN4base8internal12CallbackBaseD2Ev(%"class.base::internal::CallbackBase"* nonnull %28) #11
  call void @_ZN7network5mojom5blink23CookieManagerGetOptionsD1Ev(%"class.network::mojom::blink::CookieManagerGetOptions"* nonnull %14) #11
  ret void
}

; Function Attrs: nounwind ssp uwtable
define hidden void @_ZN7network5mojom5blink44RestrictedCookieManagerInterceptorForTesting18SetCanonicalCookieERKN3net15CanonicalCookieERKN5blink4KURLERKNS3_14SiteForCookiesERK13scoped_refptrIKNS7_14SecurityOriginEEN4base12OnceCallbackIFvbEEE(%"class.network::mojom::blink::RestrictedCookieManagerInterceptorForTesting"*, %"class.net::CanonicalCookie"* dereferenceable(144), %"class.blink::KURL"* dereferenceable(112), %"class.net::SiteForCookies"* dereferenceable(88), %class.scoped_refptr.6* dereferenceable(8), %"class.base::OnceCallback.13"* nocapture) unnamed_addr #0 align 2 {
  %7 = alloca %"class.base::OnceCallback.13", align 8
  %8 = bitcast %"class.network::mojom::blink::RestrictedCookieManagerInterceptorForTesting"* %0 to %"class.network::mojom::blink::RestrictedCookieManager"* (%"class.network::mojom::blink::RestrictedCookieManagerInterceptorForTesting"*)***
  %9 = load %"class.network::mojom::blink::RestrictedCookieManager"* (%"class.network::mojom::blink::RestrictedCookieManagerInterceptorForTesting"*)**, %"class.network::mojom::blink::RestrictedCookieManager"* (%"class.network::mojom::blink::RestrictedCookieManagerInterceptorForTesting"*)*** %8, align 8
  %10 = getelementptr inbounds %"class.network::mojom::blink::RestrictedCookieManager"* (%"class.network::mojom::blink::RestrictedCookieManagerInterceptorForTesting"*)*, %"class.network::mojom::blink::RestrictedCookieManager"* (%"class.network::mojom::blink::RestrictedCookieManagerInterceptorForTesting"*)** %9, i64 11
  %11 = load %"class.network::mojom::blink::RestrictedCookieManager"* (%"class.network::mojom::blink::RestrictedCookieManagerInterceptorForTesting"*)*, %"class.network::mojom::blink::RestrictedCookieManager"* (%"class.network::mojom::blink::RestrictedCookieManagerInterceptorForTesting"*)** %10, align 8
  %12 = tail call %"class.network::mojom::blink::RestrictedCookieManager"* %11(%"class.network::mojom::blink::RestrictedCookieManagerInterceptorForTesting"* %0) #11
  %13 = getelementptr inbounds %"class.base::OnceCallback.13", %"class.base::OnceCallback.13"* %5, i64 0, i32 0, i32 0, i32 0
  %14 = bitcast %"class.base::OnceCallback.13"* %5 to i64*
  %15 = load i64, i64* %14, align 8
  %16 = bitcast %"class.base::OnceCallback.13"* %7 to i64*
  store i64 %15, i64* %16, align 8
  store %"class.base::internal::BindStateBase"* null, %"class.base::internal::BindStateBase"** %13, align 8
  %17 = bitcast %"class.network::mojom::blink::RestrictedCookieManager"* %12 to void (%"class.network::mojom::blink::RestrictedCookieManager"*, %"class.net::CanonicalCookie"*, %"class.blink::KURL"*, %"class.net::SiteForCookies"*, %class.scoped_refptr.6*, %"class.base::OnceCallback.13"*)***
  %18 = load void (%"class.network::mojom::blink::RestrictedCookieManager"*, %"class.net::CanonicalCookie"*, %"class.blink::KURL"*, %"class.net::SiteForCookies"*, %class.scoped_refptr.6*, %"class.base::OnceCallback.13"*)**, void (%"class.network::mojom::blink::RestrictedCookieManager"*, %"class.net::CanonicalCookie"*, %"class.blink::KURL"*, %"class.net::SiteForCookies"*, %class.scoped_refptr.6*, %"class.base::OnceCallback.13"*)*** %17, align 8
  %19 = getelementptr inbounds void (%"class.network::mojom::blink::RestrictedCookieManager"*, %"class.net::CanonicalCookie"*, %"class.blink::KURL"*, %"class.net::SiteForCookies"*, %class.scoped_refptr.6*, %"class.base::OnceCallback.13"*)*, void (%"class.network::mojom::blink::RestrictedCookieManager"*, %"class.net::CanonicalCookie"*, %"class.blink::KURL"*, %"class.net::SiteForCookies"*, %class.scoped_refptr.6*, %"class.base::OnceCallback.13"*)** %18, i64 3
  %20 = load void (%"class.network::mojom::blink::RestrictedCookieManager"*, %"class.net::CanonicalCookie"*, %"class.blink::KURL"*, %"class.net::SiteForCookies"*, %class.scoped_refptr.6*, %"class.base::OnceCallback.13"*)*, void (%"class.network::mojom::blink::RestrictedCookieManager"*, %"class.net::CanonicalCookie"*, %"class.blink::KURL"*, %"class.net::SiteForCookies"*, %class.scoped_refptr.6*, %"class.base::OnceCallback.13"*)** %19, align 8
  call void %20(%"class.network::mojom::blink::RestrictedCookieManager"* %12, %"class.net::CanonicalCookie"* dereferenceable(144) %1, %"class.blink::KURL"* dereferenceable(112) %2, %"class.net::SiteForCookies"* dereferenceable(88) %3, %class.scoped_refptr.6* dereferenceable(8) %4, %"class.base::OnceCallback.13"* nonnull %7) #11
  %21 = getelementptr inbounds %"class.base::OnceCallback.13", %"class.base::OnceCallback.13"* %7, i64 0, i32 0
  call void @_ZN4base8internal12CallbackBaseD2Ev(%"class.base::internal::CallbackBase"* nonnull %21) #11
  ret void
}

; Function Attrs: nounwind
declare void @_ZN4base8internal12CallbackBaseD2Ev(%"class.base::internal::CallbackBase"*) unnamed_addr #1

; Function Attrs: nounwind ssp uwtable
define hidden void @_ZN7network5mojom5blink44RestrictedCookieManagerInterceptorForTesting17AddChangeListenerERKN5blink4KURLERKN3net14SiteForCookiesERK13scoped_refptrIKNS3_14SecurityOriginEEN4mojo13PendingRemoteINS1_20CookieChangeListenerEEEN4base12OnceCallbackIFvvEEE(%"class.network::mojom::blink::RestrictedCookieManagerInterceptorForTesting"*, %"class.blink::KURL"* dereferenceable(112), %"class.net::SiteForCookies"* dereferenceable(88), %class.scoped_refptr.6* dereferenceable(8), %"class.mojo::PendingRemote"*, %"class.base::OnceCallback.14"* nocapture) unnamed_addr #0 align 2 {
  %7 = alloca %"class.mojo::PendingRemote", align 4
  %8 = alloca %"class.base::OnceCallback.14", align 8
  %9 = bitcast %"class.network::mojom::blink::RestrictedCookieManagerInterceptorForTesting"* %0 to %"class.network::mojom::blink::RestrictedCookieManager"* (%"class.network::mojom::blink::RestrictedCookieManagerInterceptorForTesting"*)***
  %10 = load %"class.network::mojom::blink::RestrictedCookieManager"* (%"class.network::mojom::blink::RestrictedCookieManagerInterceptorForTesting"*)**, %"class.network::mojom::blink::RestrictedCookieManager"* (%"class.network::mojom::blink::RestrictedCookieManagerInterceptorForTesting"*)*** %9, align 8
  %11 = getelementptr inbounds %"class.network::mojom::blink::RestrictedCookieManager"* (%"class.network::mojom::blink::RestrictedCookieManagerInterceptorForTesting"*)*, %"class.network::mojom::blink::RestrictedCookieManager"* (%"class.network::mojom::blink::RestrictedCookieManagerInterceptorForTesting"*)** %10, i64 11
  %12 = load %"class.network::mojom::blink::RestrictedCookieManager"* (%"class.network::mojom::blink::RestrictedCookieManagerInterceptorForTesting"*)*, %"class.network::mojom::blink::RestrictedCookieManager"* (%"class.network::mojom::blink::RestrictedCookieManagerInterceptorForTesting"*)** %11, align 8
  %13 = tail call %"class.network::mojom::blink::RestrictedCookieManager"* %12(%"class.network::mojom::blink::RestrictedCookieManagerInterceptorForTesting"* %0) #11
  %14 = getelementptr inbounds %"class.mojo::PendingRemote", %"class.mojo::PendingRemote"* %7, i64 0, i32 0
  %15 = getelementptr inbounds %"class.mojo::PendingRemote", %"class.mojo::PendingRemote"* %4, i64 0, i32 0
  call void @_ZN4mojo8internal18PendingRemoteStateC1EOS1_(%"struct.mojo::internal::PendingRemoteState"* nonnull %14, %"struct.mojo::internal::PendingRemoteState"* dereferenceable(8) %15) #11
  %16 = getelementptr inbounds %"class.base::OnceCallback.14", %"class.base::OnceCallback.14"* %5, i64 0, i32 0, i32 0, i32 0
  %17 = bitcast %"class.base::OnceCallback.14"* %5 to i64*
  %18 = load i64, i64* %17, align 8
  %19 = bitcast %"class.base::OnceCallback.14"* %8 to i64*
  store i64 %18, i64* %19, align 8
  store %"class.base::internal::BindStateBase"* null, %"class.base::internal::BindStateBase"** %16, align 8
  %20 = bitcast %"class.network::mojom::blink::RestrictedCookieManager"* %13 to void (%"class.network::mojom::blink::RestrictedCookieManager"*, %"class.blink::KURL"*, %"class.net::SiteForCookies"*, %class.scoped_refptr.6*, %"class.mojo::PendingRemote"*, %"class.base::OnceCallback.14"*)***
  %21 = load void (%"class.network::mojom::blink::RestrictedCookieManager"*, %"class.blink::KURL"*, %"class.net::SiteForCookies"*, %class.scoped_refptr.6*, %"class.mojo::PendingRemote"*, %"class.base::OnceCallback.14"*)**, void (%"class.network::mojom::blink::RestrictedCookieManager"*, %"class.blink::KURL"*, %"class.net::SiteForCookies"*, %class.scoped_refptr.6*, %"class.mojo::PendingRemote"*, %"class.base::OnceCallback.14"*)*** %20, align 8
  %22 = getelementptr inbounds void (%"class.network::mojom::blink::RestrictedCookieManager"*, %"class.blink::KURL"*, %"class.net::SiteForCookies"*, %class.scoped_refptr.6*, %"class.mojo::PendingRemote"*, %"class.base::OnceCallback.14"*)*, void (%"class.network::mojom::blink::RestrictedCookieManager"*, %"class.blink::KURL"*, %"class.net::SiteForCookies"*, %class.scoped_refptr.6*, %"class.mojo::PendingRemote"*, %"class.base::OnceCallback.14"*)** %21, i64 4
  %23 = load void (%"class.network::mojom::blink::RestrictedCookieManager"*, %"class.blink::KURL"*, %"class.net::SiteForCookies"*, %class.scoped_refptr.6*, %"class.mojo::PendingRemote"*, %"class.base::OnceCallback.14"*)*, void (%"class.network::mojom::blink::RestrictedCookieManager"*, %"class.blink::KURL"*, %"class.net::SiteForCookies"*, %class.scoped_refptr.6*, %"class.mojo::PendingRemote"*, %"class.base::OnceCallback.14"*)** %22, align 8
  call void %23(%"class.network::mojom::blink::RestrictedCookieManager"* %13, %"class.blink::KURL"* dereferenceable(112) %1, %"class.net::SiteForCookies"* dereferenceable(88) %2, %class.scoped_refptr.6* dereferenceable(8) %3, %"class.mojo::PendingRemote"* nonnull %7, %"class.base::OnceCallback.14"* nonnull %8) #11
  %24 = getelementptr inbounds %"class.base::OnceCallback.14", %"class.base::OnceCallback.14"* %8, i64 0, i32 0
  call void @_ZN4base8internal12CallbackBaseD2Ev(%"class.base::internal::CallbackBase"* nonnull %24) #11
  call void @_ZN4mojo8internal18PendingRemoteStateD1Ev(%"struct.mojo::internal::PendingRemoteState"* nonnull %14) #11
  ret void
}

; Function Attrs: nounwind ssp uwtable
define hidden void @_ZN7network5mojom5blink44RestrictedCookieManagerInterceptorForTesting19SetCookieFromStringERKN5blink4KURLERKN3net14SiteForCookiesERK13scoped_refptrIKNS3_14SecurityOriginEERKN3WTF6StringEN4base12OnceCallbackIFvvEEE(%"class.network::mojom::blink::RestrictedCookieManagerInterceptorForTesting"*, %"class.blink::KURL"* dereferenceable(112), %"class.net::SiteForCookies"* dereferenceable(88), %class.scoped_refptr.6* dereferenceable(8), %"class.WTF::String"* dereferenceable(8), %"class.base::OnceCallback.14"* nocapture) unnamed_addr #0 align 2 {
  %7 = alloca %"class.base::OnceCallback.14", align 8
  %8 = bitcast %"class.network::mojom::blink::RestrictedCookieManagerInterceptorForTesting"* %0 to %"class.network::mojom::blink::RestrictedCookieManager"* (%"class.network::mojom::blink::RestrictedCookieManagerInterceptorForTesting"*)***
  %9 = load %"class.network::mojom::blink::RestrictedCookieManager"* (%"class.network::mojom::blink::RestrictedCookieManagerInterceptorForTesting"*)**, %"class.network::mojom::blink::RestrictedCookieManager"* (%"class.network::mojom::blink::RestrictedCookieManagerInterceptorForTesting"*)*** %8, align 8
  %10 = getelementptr inbounds %"class.network::mojom::blink::RestrictedCookieManager"* (%"class.network::mojom::blink::RestrictedCookieManagerInterceptorForTesting"*)*, %"class.network::mojom::blink::RestrictedCookieManager"* (%"class.network::mojom::blink::RestrictedCookieManagerInterceptorForTesting"*)** %9, i64 11
  %11 = load %"class.network::mojom::blink::RestrictedCookieManager"* (%"class.network::mojom::blink::RestrictedCookieManagerInterceptorForTesting"*)*, %"class.network::mojom::blink::RestrictedCookieManager"* (%"class.network::mojom::blink::RestrictedCookieManagerInterceptorForTesting"*)** %10, align 8
  %12 = tail call %"class.network::mojom::blink::RestrictedCookieManager"* %11(%"class.network::mojom::blink::RestrictedCookieManagerInterceptorForTesting"* %0) #11
  %13 = getelementptr inbounds %"class.base::OnceCallback.14", %"class.base::OnceCallback.14"* %5, i64 0, i32 0, i32 0, i32 0
  %14 = bitcast %"class.base::OnceCallback.14"* %5 to i64*
  %15 = load i64, i64* %14, align 8
  %16 = bitcast %"class.base::OnceCallback.14"* %7 to i64*
  store i64 %15, i64* %16, align 8
  store %"class.base::internal::BindStateBase"* null, %"class.base::internal::BindStateBase"** %13, align 8
  %17 = bitcast %"class.network::mojom::blink::RestrictedCookieManager"* %12 to void (%"class.network::mojom::blink::RestrictedCookieManager"*, %"class.blink::KURL"*, %"class.net::SiteForCookies"*, %class.scoped_refptr.6*, %"class.WTF::String"*, %"class.base::OnceCallback.14"*)***
  %18 = load void (%"class.network::mojom::blink::RestrictedCookieManager"*, %"class.blink::KURL"*, %"class.net::SiteForCookies"*, %class.scoped_refptr.6*, %"class.WTF::String"*, %"class.base::OnceCallback.14"*)**, void (%"class.network::mojom::blink::RestrictedCookieManager"*, %"class.blink::KURL"*, %"class.net::SiteForCookies"*, %class.scoped_refptr.6*, %"class.WTF::String"*, %"class.base::OnceCallback.14"*)*** %17, align 8
  %19 = getelementptr inbounds void (%"class.network::mojom::blink::RestrictedCookieManager"*, %"class.blink::KURL"*, %"class.net::SiteForCookies"*, %class.scoped_refptr.6*, %"class.WTF::String"*, %"class.base::OnceCallback.14"*)*, void (%"class.network::mojom::blink::RestrictedCookieManager"*, %"class.blink::KURL"*, %"class.net::SiteForCookies"*, %class.scoped_refptr.6*, %"class.WTF::String"*, %"class.base::OnceCallback.14"*)** %18, i64 6
  %20 = load void (%"class.network::mojom::blink::RestrictedCookieManager"*, %"class.blink::KURL"*, %"class.net::SiteForCookies"*, %class.scoped_refptr.6*, %"class.WTF::String"*, %"class.base::OnceCallback.14"*)*, void (%"class.network::mojom::blink::RestrictedCookieManager"*, %"class.blink::KURL"*, %"class.net::SiteForCookies"*, %class.scoped_refptr.6*, %"class.WTF::String"*, %"class.base::OnceCallback.14"*)** %19, align 8
  call void %20(%"class.network::mojom::blink::RestrictedCookieManager"* %12, %"class.blink::KURL"* dereferenceable(112) %1, %"class.net::SiteForCookies"* dereferenceable(88) %2, %class.scoped_refptr.6* dereferenceable(8) %3, %"class.WTF::String"* dereferenceable(8) %4, %"class.base::OnceCallback.14"* nonnull %7) #11
  %21 = getelementptr inbounds %"class.base::OnceCallback.14", %"class.base::OnceCallback.14"* %7, i64 0, i32 0
  call void @_ZN4base8internal12CallbackBaseD2Ev(%"class.base::internal::CallbackBase"* nonnull %21) #11
  ret void
}

; Function Attrs: nounwind ssp uwtable
define hidden void @_ZN7network5mojom5blink44RestrictedCookieManagerInterceptorForTesting16GetCookiesStringERKN5blink4KURLERKN3net14SiteForCookiesERK13scoped_refptrIKNS3_14SecurityOriginEEN4base12OnceCallbackIFvRKN3WTF6StringEEEE(%"class.network::mojom::blink::RestrictedCookieManagerInterceptorForTesting"*, %"class.blink::KURL"* dereferenceable(112), %"class.net::SiteForCookies"* dereferenceable(88), %class.scoped_refptr.6* dereferenceable(8), %"class.base::OnceCallback.15"* nocapture) unnamed_addr #0 align 2 {
  %6 = alloca %"class.base::OnceCallback.15", align 8
  %7 = bitcast %"class.network::mojom::blink::RestrictedCookieManagerInterceptorForTesting"* %0 to %"class.network::mojom::blink::RestrictedCookieManager"* (%"class.network::mojom::blink::RestrictedCookieManagerInterceptorForTesting"*)***
  %8 = load %"class.network::mojom::blink::RestrictedCookieManager"* (%"class.network::mojom::blink::RestrictedCookieManagerInterceptorForTesting"*)**, %"class.network::mojom::blink::RestrictedCookieManager"* (%"class.network::mojom::blink::RestrictedCookieManagerInterceptorForTesting"*)*** %7, align 8
  %9 = getelementptr inbounds %"class.network::mojom::blink::RestrictedCookieManager"* (%"class.network::mojom::blink::RestrictedCookieManagerInterceptorForTesting"*)*, %"class.network::mojom::blink::RestrictedCookieManager"* (%"class.network::mojom::blink::RestrictedCookieManagerInterceptorForTesting"*)** %8, i64 11
  %10 = load %"class.network::mojom::blink::RestrictedCookieManager"* (%"class.network::mojom::blink::RestrictedCookieManagerInterceptorForTesting"*)*, %"class.network::mojom::blink::RestrictedCookieManager"* (%"class.network::mojom::blink::RestrictedCookieManagerInterceptorForTesting"*)** %9, align 8
  %11 = tail call %"class.network::mojom::blink::RestrictedCookieManager"* %10(%"class.network::mojom::blink::RestrictedCookieManagerInterceptorForTesting"* %0) #11
  %12 = getelementptr inbounds %"class.base::OnceCallback.15", %"class.base::OnceCallback.15"* %4, i64 0, i32 0, i32 0, i32 0
  %13 = bitcast %"class.base::OnceCallback.15"* %4 to i64*
  %14 = load i64, i64* %13, align 8
  %15 = bitcast %"class.base::OnceCallback.15"* %6 to i64*
  store i64 %14, i64* %15, align 8
  store %"class.base::internal::BindStateBase"* null, %"class.base::internal::BindStateBase"** %12, align 8
  %16 = bitcast %"class.network::mojom::blink::RestrictedCookieManager"* %11 to void (%"class.network::mojom::blink::RestrictedCookieManager"*, %"class.blink::KURL"*, %"class.net::SiteForCookies"*, %class.scoped_refptr.6*, %"class.base::OnceCallback.15"*)***
  %17 = load void (%"class.network::mojom::blink::RestrictedCookieManager"*, %"class.blink::KURL"*, %"class.net::SiteForCookies"*, %class.scoped_refptr.6*, %"class.base::OnceCallback.15"*)**, void (%"class.network::mojom::blink::RestrictedCookieManager"*, %"class.blink::KURL"*, %"class.net::SiteForCookies"*, %class.scoped_refptr.6*, %"class.base::OnceCallback.15"*)*** %16, align 8
  %18 = getelementptr inbounds void (%"class.network::mojom::blink::RestrictedCookieManager"*, %"class.blink::KURL"*, %"class.net::SiteForCookies"*, %class.scoped_refptr.6*, %"class.base::OnceCallback.15"*)*, void (%"class.network::mojom::blink::RestrictedCookieManager"*, %"class.blink::KURL"*, %"class.net::SiteForCookies"*, %class.scoped_refptr.6*, %"class.base::OnceCallback.15"*)** %17, i64 8
  %19 = load void (%"class.network::mojom::blink::RestrictedCookieManager"*, %"class.blink::KURL"*, %"class.net::SiteForCookies"*, %class.scoped_refptr.6*, %"class.base::OnceCallback.15"*)*, void (%"class.network::mojom::blink::RestrictedCookieManager"*, %"class.blink::KURL"*, %"class.net::SiteForCookies"*, %class.scoped_refptr.6*, %"class.base::OnceCallback.15"*)** %18, align 8
  call void %19(%"class.network::mojom::blink::RestrictedCookieManager"* %11, %"class.blink::KURL"* dereferenceable(112) %1, %"class.net::SiteForCookies"* dereferenceable(88) %2, %class.scoped_refptr.6* dereferenceable(8) %3, %"class.base::OnceCallback.15"* nonnull %6) #11
  %20 = getelementptr inbounds %"class.base::OnceCallback.15", %"class.base::OnceCallback.15"* %6, i64 0, i32 0
  call void @_ZN4base8internal12CallbackBaseD2Ev(%"class.base::internal::CallbackBase"* nonnull %20) #11
  ret void
}

; Function Attrs: nounwind ssp uwtable
define hidden void @_ZN7network5mojom5blink44RestrictedCookieManagerInterceptorForTesting17CookiesEnabledForERKN5blink4KURLERKN3net14SiteForCookiesERK13scoped_refptrIKNS3_14SecurityOriginEEN4base12OnceCallbackIFvbEEE(%"class.network::mojom::blink::RestrictedCookieManagerInterceptorForTesting"*, %"class.blink::KURL"* dereferenceable(112), %"class.net::SiteForCookies"* dereferenceable(88), %class.scoped_refptr.6* dereferenceable(8), %"class.base::OnceCallback.13"* nocapture) unnamed_addr #0 align 2 {
  %6 = alloca %"class.base::OnceCallback.13", align 8
  %7 = bitcast %"class.network::mojom::blink::RestrictedCookieManagerInterceptorForTesting"* %0 to %"class.network::mojom::blink::RestrictedCookieManager"* (%"class.network::mojom::blink::RestrictedCookieManagerInterceptorForTesting"*)***
  %8 = load %"class.network::mojom::blink::RestrictedCookieManager"* (%"class.network::mojom::blink::RestrictedCookieManagerInterceptorForTesting"*)**, %"class.network::mojom::blink::RestrictedCookieManager"* (%"class.network::mojom::blink::RestrictedCookieManagerInterceptorForTesting"*)*** %7, align 8
  %9 = getelementptr inbounds %"class.network::mojom::blink::RestrictedCookieManager"* (%"class.network::mojom::blink::RestrictedCookieManagerInterceptorForTesting"*)*, %"class.network::mojom::blink::RestrictedCookieManager"* (%"class.network::mojom::blink::RestrictedCookieManagerInterceptorForTesting"*)** %8, i64 11
  %10 = load %"class.network::mojom::blink::RestrictedCookieManager"* (%"class.network::mojom::blink::RestrictedCookieManagerInterceptorForTesting"*)*, %"class.network::mojom::blink::RestrictedCookieManager"* (%"class.network::mojom::blink::RestrictedCookieManagerInterceptorForTesting"*)** %9, align 8
  %11 = tail call %"class.network::mojom::blink::RestrictedCookieManager"* %10(%"class.network::mojom::blink::RestrictedCookieManagerInterceptorForTesting"* %0) #11
  %12 = getelementptr inbounds %"class.base::OnceCallback.13", %"class.base::OnceCallback.13"* %4, i64 0, i32 0, i32 0, i32 0
  %13 = bitcast %"class.base::OnceCallback.13"* %4 to i64*
  %14 = load i64, i64* %13, align 8
  %15 = bitcast %"class.base::OnceCallback.13"* %6 to i64*
  store i64 %14, i64* %15, align 8
  store %"class.base::internal::BindStateBase"* null, %"class.base::internal::BindStateBase"** %12, align 8
  %16 = bitcast %"class.network::mojom::blink::RestrictedCookieManager"* %11 to void (%"class.network::mojom::blink::RestrictedCookieManager"*, %"class.blink::KURL"*, %"class.net::SiteForCookies"*, %class.scoped_refptr.6*, %"class.base::OnceCallback.13"*)***
  %17 = load void (%"class.network::mojom::blink::RestrictedCookieManager"*, %"class.blink::KURL"*, %"class.net::SiteForCookies"*, %class.scoped_refptr.6*, %"class.base::OnceCallback.13"*)**, void (%"class.network::mojom::blink::RestrictedCookieManager"*, %"class.blink::KURL"*, %"class.net::SiteForCookies"*, %class.scoped_refptr.6*, %"class.base::OnceCallback.13"*)*** %16, align 8
  %18 = getelementptr inbounds void (%"class.network::mojom::blink::RestrictedCookieManager"*, %"class.blink::KURL"*, %"class.net::SiteForCookies"*, %class.scoped_refptr.6*, %"class.base::OnceCallback.13"*)*, void (%"class.network::mojom::blink::RestrictedCookieManager"*, %"class.blink::KURL"*, %"class.net::SiteForCookies"*, %class.scoped_refptr.6*, %"class.base::OnceCallback.13"*)** %17, i64 10
  %19 = load void (%"class.network::mojom::blink::RestrictedCookieManager"*, %"class.blink::KURL"*, %"class.net::SiteForCookies"*, %class.scoped_refptr.6*, %"class.base::OnceCallback.13"*)*, void (%"class.network::mojom::blink::RestrictedCookieManager"*, %"class.blink::KURL"*, %"class.net::SiteForCookies"*, %class.scoped_refptr.6*, %"class.base::OnceCallback.13"*)** %18, align 8
  call void %19(%"class.network::mojom::blink::RestrictedCookieManager"* %11, %"class.blink::KURL"* dereferenceable(112) %1, %"class.net::SiteForCookies"* dereferenceable(88) %2, %class.scoped_refptr.6* dereferenceable(8) %3, %"class.base::OnceCallback.13"* nonnull %6) #11
  %20 = getelementptr inbounds %"class.base::OnceCallback.13", %"class.base::OnceCallback.13"* %6, i64 0, i32 0
  call void @_ZN4base8internal12CallbackBaseD2Ev(%"class.base::internal::CallbackBase"* nonnull %20) #11
  ret void
}

; Function Attrs: nofree norecurse nounwind ssp uwtable writeonly
define hidden void @_ZN7network5mojom5blink34RestrictedCookieManagerAsyncWaiterC2EPNS1_23RestrictedCookieManagerE(%"class.network::mojom::blink::RestrictedCookieManagerAsyncWaiter"* nocapture, %"class.network::mojom::blink::RestrictedCookieManager"*) unnamed_addr #2 align 2 {
  %3 = getelementptr inbounds %"class.network::mojom::blink::RestrictedCookieManagerAsyncWaiter", %"class.network::mojom::blink::RestrictedCookieManagerAsyncWaiter"* %0, i64 0, i32 0
  store %"class.network::mojom::blink::RestrictedCookieManager"* %1, %"class.network::mojom::blink::RestrictedCookieManager"** %3, align 8
  ret void
}

; Function Attrs: norecurse nounwind readnone ssp uwtable
define hidden void @_ZN7network5mojom5blink34RestrictedCookieManagerAsyncWaiterD2Ev(%"class.network::mojom::blink::RestrictedCookieManagerAsyncWaiter"* nocapture) unnamed_addr #3 align 2 {
  ret void
}

; Function Attrs: nounwind ssp uwtable
define hidden void @_ZN7network5mojom5blink34RestrictedCookieManagerAsyncWaiter12GetAllForUrlERKN5blink4KURLERKN3net14SiteForCookiesERK13scoped_refptrIKNS3_14SecurityOriginEEN4mojo16InlinedStructPtrINS1_23CookieManagerGetOptionsEEEPN3WTF6VectorINSH_9StructPtrINS1_22CookieWithAccessResultEEELj0ENSL_18PartitionAllocatorEEE(%"class.network::mojom::blink::RestrictedCookieManagerAsyncWaiter"* nocapture readonly, %"class.blink::KURL"* dereferenceable(112), %"class.net::SiteForCookies"* dereferenceable(88), %class.scoped_refptr.6* dereferenceable(8), %"class.mojo::InlinedStructPtr"*, %"class.WTF::Vector"*) local_unnamed_addr #0 align 2 {
  %7 = alloca %"class.base::RunLoop", align 8
  %8 = alloca %"class.mojo::InlinedStructPtr", align 8
  %9 = alloca %"class.base::OnceCallback", align 8
  %10 = alloca %"class.base::Location", align 8
  %11 = ptrtoint %"class.WTF::Vector"* %5 to i64
  %12 = bitcast %"class.base::RunLoop"* %7 to i8*
  call void @llvm.lifetime.start.p0i8(i64 48, i8* nonnull %12) #11
  call void @llvm.memset.p0i8.i64(i8* nonnull align 8 %12, i8 -86, i64 48, i1 false)
  call void @_ZN4base7RunLoopC1ENS0_4TypeE(%"class.base::RunLoop"* nonnull %7, i32 0) #11
  %13 = getelementptr inbounds %"class.network::mojom::blink::RestrictedCookieManagerAsyncWaiter", %"class.network::mojom::blink::RestrictedCookieManagerAsyncWaiter"* %0, i64 0, i32 0
  %14 = load %"class.network::mojom::blink::RestrictedCookieManager"*, %"class.network::mojom::blink::RestrictedCookieManager"** %13, align 8
  %15 = getelementptr inbounds %"class.mojo::InlinedStructPtr", %"class.mojo::InlinedStructPtr"* %8, i64 0, i32 0
  call void @_ZN7network5mojom5blink23CookieManagerGetOptionsC1Ev(%"class.network::mojom::blink::CookieManagerGetOptions"* nonnull %15) #11
  %16 = getelementptr inbounds %"class.mojo::InlinedStructPtr", %"class.mojo::InlinedStructPtr"* %8, i64 0, i32 1
  store i32 0, i32* %16, align 8
  call void @_ZN7network5mojom5blink23CookieManagerGetOptionsD1Ev(%"class.network::mojom::blink::CookieManagerGetOptions"* nonnull %15) #11
  call void @_ZN7network5mojom5blink23CookieManagerGetOptionsC1Ev(%"class.network::mojom::blink::CookieManagerGetOptions"* nonnull %15) #11
  %17 = getelementptr inbounds %"class.mojo::InlinedStructPtr", %"class.mojo::InlinedStructPtr"* %4, i64 0, i32 0
  call void @_ZNSt3__14swapIN7network5mojom5blink23CookieManagerGetOptionsEEENS_9enable_ifIXaasr21is_move_constructibleIT_EE5valuesr18is_move_assignableIS6_EE5valueEvE4typeERS6_S9_(%"class.network::mojom::blink::CookieManagerGetOptions"* nonnull dereferenceable(16) %15, %"class.network::mojom::blink::CookieManagerGetOptions"* dereferenceable(16) %17) #11
  %18 = getelementptr inbounds %"class.mojo::InlinedStructPtr", %"class.mojo::InlinedStructPtr"* %4, i64 0, i32 1
  %19 = load i32, i32* %16, align 8
  %20 = load i32, i32* %18, align 4
  store i32 %20, i32* %16, align 8
  store i32 %19, i32* %18, align 4
  %21 = ptrtoint %"class.base::RunLoop"* %7 to i64
  %22 = call i8* @_Znwm(i64 56) #12, !noalias !2
  %23 = bitcast i8* %22 to %"class.base::internal::BindStateBase"*
  call void @_ZN4base8internal13BindStateBaseC2EPFvvEPFvPKS1_E(%"class.base::internal::BindStateBase"* nonnull %23, void ()* bitcast (void (%"class.base::internal::BindStateBase"*, %"class.WTF::Vector"*)* @"_ZN4base8internal7InvokerINS0_9BindStateIZN7network5mojom5blink34RestrictedCookieManagerAsyncWaiter12GetAllForUrlERKN5blink4KURLERKN3net14SiteForCookiesERK13scoped_refptrIKNS7_14SecurityOriginEEN4mojo16InlinedStructPtrINS5_23CookieManagerGetOptionsEEEPN3WTF6VectorINSL_9StructPtrINS5_22CookieWithAccessResultEEELj0ENSP_18PartitionAllocatorEEEE3$_0JPNS_7RunLoopESW_EEEFvSV_EE7RunOnceEPNS0_13BindStateBaseEOSV_" to void ()*), void (%"class.base::internal::BindStateBase"*)* nonnull @"_ZN4base8internal9BindStateIZN7network5mojom5blink34RestrictedCookieManagerAsyncWaiter12GetAllForUrlERKN5blink4KURLERKN3net14SiteForCookiesERK13scoped_refptrIKNS6_14SecurityOriginEEN4mojo16InlinedStructPtrINS4_23CookieManagerGetOptionsEEEPN3WTF6VectorINSK_9StructPtrINS4_22CookieWithAccessResultEEELj0ENSO_18PartitionAllocatorEEEE3$_0JPNS_7RunLoopESV_EE7DestroyEPKNS0_13BindStateBaseE") #11, !noalias !2
  %24 = getelementptr inbounds i8, i8* %22, i64 40
  %25 = bitcast i8* %24 to i64*
  store i64 %21, i64* %25, align 8, !noalias !2
  %26 = getelementptr inbounds i8, i8* %22, i64 48
  %27 = bitcast i8* %26 to i64*
  store i64 %11, i64* %27, align 8, !noalias !2
  %28 = bitcast %"class.base::OnceCallback"* %9 to i8**
  store i8* %22, i8** %28, align 8, !alias.scope !2
  %29 = bitcast %"class.network::mojom::blink::RestrictedCookieManager"* %14 to void (%"class.network::mojom::blink::RestrictedCookieManager"*, %"class.blink::KURL"*, %"class.net::SiteForCookies"*, %class.scoped_refptr.6*, %"class.mojo::InlinedStructPtr"*, %"class.base::OnceCallback"*)***
  %30 = load void (%"class.network::mojom::blink::RestrictedCookieManager"*, %"class.blink::KURL"*, %"class.net::SiteForCookies"*, %class.scoped_refptr.6*, %"class.mojo::InlinedStructPtr"*, %"class.base::OnceCallback"*)**, void (%"class.network::mojom::blink::RestrictedCookieManager"*, %"class.blink::KURL"*, %"class.net::SiteForCookies"*, %class.scoped_refptr.6*, %"class.mojo::InlinedStructPtr"*, %"class.base::OnceCallback"*)*** %29, align 8
  %31 = getelementptr inbounds void (%"class.network::mojom::blink::RestrictedCookieManager"*, %"class.blink::KURL"*, %"class.net::SiteForCookies"*, %class.scoped_refptr.6*, %"class.mojo::InlinedStructPtr"*, %"class.base::OnceCallback"*)*, void (%"class.network::mojom::blink::RestrictedCookieManager"*, %"class.blink::KURL"*, %"class.net::SiteForCookies"*, %class.scoped_refptr.6*, %"class.mojo::InlinedStructPtr"*, %"class.base::OnceCallback"*)** %30, i64 2
  %32 = load void (%"class.network::mojom::blink::RestrictedCookieManager"*, %"class.blink::KURL"*, %"class.net::SiteForCookies"*, %class.scoped_refptr.6*, %"class.mojo::InlinedStructPtr"*, %"class.base::OnceCallback"*)*, void (%"class.network::mojom::blink::RestrictedCookieManager"*, %"class.blink::KURL"*, %"class.net::SiteForCookies"*, %class.scoped_refptr.6*, %"class.mojo::InlinedStructPtr"*, %"class.base::OnceCallback"*)** %31, align 8
  call void %32(%"class.network::mojom::blink::RestrictedCookieManager"* %14, %"class.blink::KURL"* dereferenceable(112) %1, %"class.net::SiteForCookies"* dereferenceable(88) %2, %class.scoped_refptr.6* dereferenceable(8) %3, %"class.mojo::InlinedStructPtr"* nonnull %8, %"class.base::OnceCallback"* nonnull %9) #11
  %33 = getelementptr inbounds %"class.base::OnceCallback", %"class.base::OnceCallback"* %9, i64 0, i32 0
  call void @_ZN4base8internal12CallbackBaseD2Ev(%"class.base::internal::CallbackBase"* nonnull %33) #11
  call void @_ZN7network5mojom5blink23CookieManagerGetOptionsD1Ev(%"class.network::mojom::blink::CookieManagerGetOptions"* nonnull %15) #11
  %34 = bitcast %"class.base::Location"* %10 to i8*
  call void @llvm.lifetime.start.p0i8(i64 32, i8* nonnull %34) #11
  call void @_ZN4base8Location7CurrentEPKcS2_i(%"class.base::Location"* nonnull sret %10, i8* getelementptr inbounds ([13 x i8], [13 x i8]* @.str, i64 0, i64 0), i8* getelementptr inbounds ([86 x i8], [86 x i8]* @.str.1, i64 0, i64 0), i32 73) #11
  call void @_ZN4base7RunLoop3RunERKNS_8LocationE(%"class.base::RunLoop"* nonnull %7, %"class.base::Location"* nonnull dereferenceable(32) %10) #11
  call void @llvm.lifetime.end.p0i8(i64 32, i8* nonnull %34) #11
  call void @_ZN4base7RunLoopD1Ev(%"class.base::RunLoop"* nonnull %7) #11
  call void @llvm.lifetime.end.p0i8(i64 48, i8* nonnull %12) #11
  ret void
}

; Function Attrs: argmemonly nounwind
declare void @llvm.lifetime.start.p0i8(i64 immarg, i8* nocapture) #4

; Function Attrs: argmemonly nounwind
declare void @llvm.memset.p0i8.i64(i8* nocapture writeonly, i8, i64, i1 immarg) #4

declare void @_ZN4base7RunLoopC1ENS0_4TypeE(%"class.base::RunLoop"*, i32) unnamed_addr #5

; Function Attrs: argmemonly nounwind
declare void @llvm.lifetime.end.p0i8(i64 immarg, i8* nocapture) #4

declare void @_ZN4base7RunLoop3RunERKNS_8LocationE(%"class.base::RunLoop"*, %"class.base::Location"* dereferenceable(32)) local_unnamed_addr #5

declare void @_ZN4base8Location7CurrentEPKcS2_i(%"class.base::Location"* sret, i8*, i8*, i32) local_unnamed_addr #5

; Function Attrs: nounwind
declare void @_ZN4base7RunLoopD1Ev(%"class.base::RunLoop"*) unnamed_addr #1

; Function Attrs: nounwind ssp uwtable
define hidden void @_ZN7network5mojom5blink34RestrictedCookieManagerAsyncWaiter18SetCanonicalCookieERKN3net15CanonicalCookieERKN5blink4KURLERKNS3_14SiteForCookiesERK13scoped_refptrIKNS7_14SecurityOriginEEPb(%"class.network::mojom::blink::RestrictedCookieManagerAsyncWaiter"* nocapture readonly, %"class.net::CanonicalCookie"* dereferenceable(144), %"class.blink::KURL"* dereferenceable(112), %"class.net::SiteForCookies"* dereferenceable(88), %class.scoped_refptr.6* dereferenceable(8), i8*) local_unnamed_addr #0 align 2 {
  %7 = alloca %"class.base::RunLoop", align 8
  %8 = alloca %"class.base::OnceCallback.13", align 8
  %9 = alloca %"class.base::Location", align 8
  %10 = ptrtoint i8* %5 to i64
  %11 = bitcast %"class.base::RunLoop"* %7 to i8*
  call void @llvm.lifetime.start.p0i8(i64 48, i8* nonnull %11) #11
  call void @llvm.memset.p0i8.i64(i8* nonnull align 8 %11, i8 -86, i64 48, i1 false)
  call void @_ZN4base7RunLoopC1ENS0_4TypeE(%"class.base::RunLoop"* nonnull %7, i32 0) #11
  %12 = getelementptr inbounds %"class.network::mojom::blink::RestrictedCookieManagerAsyncWaiter", %"class.network::mojom::blink::RestrictedCookieManagerAsyncWaiter"* %0, i64 0, i32 0
  %13 = load %"class.network::mojom::blink::RestrictedCookieManager"*, %"class.network::mojom::blink::RestrictedCookieManager"** %12, align 8
  %14 = ptrtoint %"class.base::RunLoop"* %7 to i64
  %15 = call i8* @_Znwm(i64 56) #12, !noalias !7
  %16 = bitcast i8* %15 to %"class.base::internal::BindStateBase"*
  call void @_ZN4base8internal13BindStateBaseC2EPFvvEPFvPKS1_E(%"class.base::internal::BindStateBase"* nonnull %16, void ()* bitcast (void (%"class.base::internal::BindStateBase"*, i1)* @"_ZN4base8internal7InvokerINS0_9BindStateIZN7network5mojom5blink34RestrictedCookieManagerAsyncWaiter18SetCanonicalCookieERKN3net15CanonicalCookieERKN5blink4KURLERKNS7_14SiteForCookiesERK13scoped_refptrIKNSB_14SecurityOriginEEPbE3$_1JPNS_7RunLoopESO_EEEFvbEE7RunOnceEPNS0_13BindStateBaseEb" to void ()*), void (%"class.base::internal::BindStateBase"*)* nonnull @"_ZN4base8internal9BindStateIZN7network5mojom5blink34RestrictedCookieManagerAsyncWaiter18SetCanonicalCookieERKN3net15CanonicalCookieERKN5blink4KURLERKNS6_14SiteForCookiesERK13scoped_refptrIKNSA_14SecurityOriginEEPbE3$_1JPNS_7RunLoopESN_EE7DestroyEPKNS0_13BindStateBaseE") #11, !noalias !7
  %17 = getelementptr inbounds i8, i8* %15, i64 40
  %18 = bitcast i8* %17 to i64*
  store i64 %14, i64* %18, align 8, !noalias !7
  %19 = getelementptr inbounds i8, i8* %15, i64 48
  %20 = bitcast i8* %19 to i64*
  store i64 %10, i64* %20, align 8, !noalias !7
  %21 = bitcast %"class.base::OnceCallback.13"* %8 to i8**
  store i8* %15, i8** %21, align 8, !alias.scope !7
  %22 = bitcast %"class.network::mojom::blink::RestrictedCookieManager"* %13 to void (%"class.network::mojom::blink::RestrictedCookieManager"*, %"class.net::CanonicalCookie"*, %"class.blink::KURL"*, %"class.net::SiteForCookies"*, %class.scoped_refptr.6*, %"class.base::OnceCallback.13"*)***
  %23 = load void (%"class.network::mojom::blink::RestrictedCookieManager"*, %"class.net::CanonicalCookie"*, %"class.blink::KURL"*, %"class.net::SiteForCookies"*, %class.scoped_refptr.6*, %"class.base::OnceCallback.13"*)**, void (%"class.network::mojom::blink::RestrictedCookieManager"*, %"class.net::CanonicalCookie"*, %"class.blink::KURL"*, %"class.net::SiteForCookies"*, %class.scoped_refptr.6*, %"class.base::OnceCallback.13"*)*** %22, align 8
  %24 = getelementptr inbounds void (%"class.network::mojom::blink::RestrictedCookieManager"*, %"class.net::CanonicalCookie"*, %"class.blink::KURL"*, %"class.net::SiteForCookies"*, %class.scoped_refptr.6*, %"class.base::OnceCallback.13"*)*, void (%"class.network::mojom::blink::RestrictedCookieManager"*, %"class.net::CanonicalCookie"*, %"class.blink::KURL"*, %"class.net::SiteForCookies"*, %class.scoped_refptr.6*, %"class.base::OnceCallback.13"*)** %23, i64 3
  %25 = load void (%"class.network::mojom::blink::RestrictedCookieManager"*, %"class.net::CanonicalCookie"*, %"class.blink::KURL"*, %"class.net::SiteForCookies"*, %class.scoped_refptr.6*, %"class.base::OnceCallback.13"*)*, void (%"class.network::mojom::blink::RestrictedCookieManager"*, %"class.net::CanonicalCookie"*, %"class.blink::KURL"*, %"class.net::SiteForCookies"*, %class.scoped_refptr.6*, %"class.base::OnceCallback.13"*)** %24, align 8
  call void %25(%"class.network::mojom::blink::RestrictedCookieManager"* %13, %"class.net::CanonicalCookie"* dereferenceable(144) %1, %"class.blink::KURL"* dereferenceable(112) %2, %"class.net::SiteForCookies"* dereferenceable(88) %3, %class.scoped_refptr.6* dereferenceable(8) %4, %"class.base::OnceCallback.13"* nonnull %8) #11
  %26 = getelementptr inbounds %"class.base::OnceCallback.13", %"class.base::OnceCallback.13"* %8, i64 0, i32 0
  call void @_ZN4base8internal12CallbackBaseD2Ev(%"class.base::internal::CallbackBase"* nonnull %26) #11
  %27 = bitcast %"class.base::Location"* %9 to i8*
  call void @llvm.lifetime.start.p0i8(i64 32, i8* nonnull %27) #11
  call void @_ZN4base8Location7CurrentEPKcS2_i(%"class.base::Location"* nonnull sret %9, i8* getelementptr inbounds ([19 x i8], [19 x i8]* @.str.2, i64 0, i64 0), i8* getelementptr inbounds ([86 x i8], [86 x i8]* @.str.1, i64 0, i64 0), i32 88) #11
  call void @_ZN4base7RunLoop3RunERKNS_8LocationE(%"class.base::RunLoop"* nonnull %7, %"class.base::Location"* nonnull dereferenceable(32) %9) #11
  call void @llvm.lifetime.end.p0i8(i64 32, i8* nonnull %27) #11
  call void @_ZN4base7RunLoopD1Ev(%"class.base::RunLoop"* nonnull %7) #11
  call void @llvm.lifetime.end.p0i8(i64 48, i8* nonnull %11) #11
  ret void
}

; Function Attrs: nounwind ssp uwtable
define hidden void @_ZN7network5mojom5blink34RestrictedCookieManagerAsyncWaiter17AddChangeListenerERKN5blink4KURLERKN3net14SiteForCookiesERK13scoped_refptrIKNS3_14SecurityOriginEEN4mojo13PendingRemoteINS1_20CookieChangeListenerEEE(%"class.network::mojom::blink::RestrictedCookieManagerAsyncWaiter"* nocapture readonly, %"class.blink::KURL"* dereferenceable(112), %"class.net::SiteForCookies"* dereferenceable(88), %class.scoped_refptr.6* dereferenceable(8), %"class.mojo::PendingRemote"*) local_unnamed_addr #0 align 2 {
  %6 = alloca %"class.base::RunLoop", align 8
  %7 = alloca %"class.mojo::PendingRemote", align 4
  %8 = alloca %"class.base::OnceCallback.14", align 8
  %9 = alloca %"class.base::Location", align 8
  %10 = bitcast %"class.base::RunLoop"* %6 to i8*
  call void @llvm.lifetime.start.p0i8(i64 48, i8* nonnull %10) #11
  call void @llvm.memset.p0i8.i64(i8* nonnull align 8 %10, i8 -86, i64 48, i1 false)
  call void @_ZN4base7RunLoopC1ENS0_4TypeE(%"class.base::RunLoop"* nonnull %6, i32 0) #11
  %11 = getelementptr inbounds %"class.network::mojom::blink::RestrictedCookieManagerAsyncWaiter", %"class.network::mojom::blink::RestrictedCookieManagerAsyncWaiter"* %0, i64 0, i32 0
  %12 = load %"class.network::mojom::blink::RestrictedCookieManager"*, %"class.network::mojom::blink::RestrictedCookieManager"** %11, align 8
  %13 = getelementptr inbounds %"class.mojo::PendingRemote", %"class.mojo::PendingRemote"* %7, i64 0, i32 0
  %14 = getelementptr inbounds %"class.mojo::PendingRemote", %"class.mojo::PendingRemote"* %4, i64 0, i32 0
  call void @_ZN4mojo8internal18PendingRemoteStateC1EOS1_(%"struct.mojo::internal::PendingRemoteState"* nonnull %13, %"struct.mojo::internal::PendingRemoteState"* dereferenceable(8) %14) #11
  %15 = ptrtoint %"class.base::RunLoop"* %6 to i64
  %16 = call i8* @_Znwm(i64 48) #12, !noalias !12
  %17 = bitcast i8* %16 to %"class.base::internal::BindStateBase"*
  call void @_ZN4base8internal13BindStateBaseC2EPFvvEPFvPKS1_E(%"class.base::internal::BindStateBase"* nonnull %17, void ()* bitcast (void (%"class.base::internal::BindStateBase"*)* @"_ZN4base8internal7InvokerINS0_9BindStateIZN7network5mojom5blink34RestrictedCookieManagerAsyncWaiter17AddChangeListenerERKN5blink4KURLERKN3net14SiteForCookiesERK13scoped_refptrIKNS7_14SecurityOriginEEN4mojo13PendingRemoteINS5_20CookieChangeListenerEEEE3$_2JPNS_7RunLoopEEEEFvvEE7RunOnceEPNS0_13BindStateBaseE" to void ()*), void (%"class.base::internal::BindStateBase"*)* nonnull @"_ZN4base8internal9BindStateIZN7network5mojom5blink34RestrictedCookieManagerAsyncWaiter17AddChangeListenerERKN5blink4KURLERKN3net14SiteForCookiesERK13scoped_refptrIKNS6_14SecurityOriginEEN4mojo13PendingRemoteINS4_20CookieChangeListenerEEEE3$_2JPNS_7RunLoopEEE7DestroyEPKNS0_13BindStateBaseE") #11, !noalias !12
  %18 = getelementptr inbounds i8, i8* %16, i64 40
  %19 = bitcast i8* %18 to i64*
  store i64 %15, i64* %19, align 8, !noalias !12
  %20 = bitcast %"class.base::OnceCallback.14"* %8 to i8**
  store i8* %16, i8** %20, align 8, !alias.scope !12
  %21 = bitcast %"class.network::mojom::blink::RestrictedCookieManager"* %12 to void (%"class.network::mojom::blink::RestrictedCookieManager"*, %"class.blink::KURL"*, %"class.net::SiteForCookies"*, %class.scoped_refptr.6*, %"class.mojo::PendingRemote"*, %"class.base::OnceCallback.14"*)***
  %22 = load void (%"class.network::mojom::blink::RestrictedCookieManager"*, %"class.blink::KURL"*, %"class.net::SiteForCookies"*, %class.scoped_refptr.6*, %"class.mojo::PendingRemote"*, %"class.base::OnceCallback.14"*)**, void (%"class.network::mojom::blink::RestrictedCookieManager"*, %"class.blink::KURL"*, %"class.net::SiteForCookies"*, %class.scoped_refptr.6*, %"class.mojo::PendingRemote"*, %"class.base::OnceCallback.14"*)*** %21, align 8
  %23 = getelementptr inbounds void (%"class.network::mojom::blink::RestrictedCookieManager"*, %"class.blink::KURL"*, %"class.net::SiteForCookies"*, %class.scoped_refptr.6*, %"class.mojo::PendingRemote"*, %"class.base::OnceCallback.14"*)*, void (%"class.network::mojom::blink::RestrictedCookieManager"*, %"class.blink::KURL"*, %"class.net::SiteForCookies"*, %class.scoped_refptr.6*, %"class.mojo::PendingRemote"*, %"class.base::OnceCallback.14"*)** %22, i64 4
  %24 = load void (%"class.network::mojom::blink::RestrictedCookieManager"*, %"class.blink::KURL"*, %"class.net::SiteForCookies"*, %class.scoped_refptr.6*, %"class.mojo::PendingRemote"*, %"class.base::OnceCallback.14"*)*, void (%"class.network::mojom::blink::RestrictedCookieManager"*, %"class.blink::KURL"*, %"class.net::SiteForCookies"*, %class.scoped_refptr.6*, %"class.mojo::PendingRemote"*, %"class.base::OnceCallback.14"*)** %23, align 8
  call void %24(%"class.network::mojom::blink::RestrictedCookieManager"* %12, %"class.blink::KURL"* dereferenceable(112) %1, %"class.net::SiteForCookies"* dereferenceable(88) %2, %class.scoped_refptr.6* dereferenceable(8) %3, %"class.mojo::PendingRemote"* nonnull %7, %"class.base::OnceCallback.14"* nonnull %8) #11
  %25 = getelementptr inbounds %"class.base::OnceCallback.14", %"class.base::OnceCallback.14"* %8, i64 0, i32 0
  call void @_ZN4base8internal12CallbackBaseD2Ev(%"class.base::internal::CallbackBase"* nonnull %25) #11
  call void @_ZN4mojo8internal18PendingRemoteStateD1Ev(%"struct.mojo::internal::PendingRemoteState"* nonnull %13) #11
  %26 = bitcast %"class.base::Location"* %9 to i8*
  call void @llvm.lifetime.start.p0i8(i64 32, i8* nonnull %26) #11
  call void @_ZN4base8Location7CurrentEPKcS2_i(%"class.base::Location"* nonnull sret %9, i8* getelementptr inbounds ([18 x i8], [18 x i8]* @.str.3, i64 0, i64 0), i8* getelementptr inbounds ([86 x i8], [86 x i8]* @.str.1, i64 0, i64 0), i32 99) #11
  call void @_ZN4base7RunLoop3RunERKNS_8LocationE(%"class.base::RunLoop"* nonnull %6, %"class.base::Location"* nonnull dereferenceable(32) %9) #11
  call void @llvm.lifetime.end.p0i8(i64 32, i8* nonnull %26) #11
  call void @_ZN4base7RunLoopD1Ev(%"class.base::RunLoop"* nonnull %6) #11
  call void @llvm.lifetime.end.p0i8(i64 48, i8* nonnull %10) #11
  ret void
}

; Function Attrs: nounwind ssp uwtable
define hidden void @_ZN7network5mojom5blink34RestrictedCookieManagerAsyncWaiter19SetCookieFromStringERKN5blink4KURLERKN3net14SiteForCookiesERK13scoped_refptrIKNS3_14SecurityOriginEERKN3WTF6StringE(%"class.network::mojom::blink::RestrictedCookieManagerAsyncWaiter"* nocapture readonly, %"class.blink::KURL"* dereferenceable(112), %"class.net::SiteForCookies"* dereferenceable(88), %class.scoped_refptr.6* dereferenceable(8), %"class.WTF::String"* dereferenceable(8)) local_unnamed_addr #0 align 2 {
  %6 = alloca %"class.base::RunLoop", align 8
  %7 = alloca %"class.base::OnceCallback.14", align 8
  %8 = alloca %"class.base::Location", align 8
  %9 = bitcast %"class.base::RunLoop"* %6 to i8*
  call void @llvm.lifetime.start.p0i8(i64 48, i8* nonnull %9) #11
  call void @llvm.memset.p0i8.i64(i8* nonnull align 8 %9, i8 -86, i64 48, i1 false)
  call void @_ZN4base7RunLoopC1ENS0_4TypeE(%"class.base::RunLoop"* nonnull %6, i32 0) #11
  %10 = getelementptr inbounds %"class.network::mojom::blink::RestrictedCookieManagerAsyncWaiter", %"class.network::mojom::blink::RestrictedCookieManagerAsyncWaiter"* %0, i64 0, i32 0
  %11 = load %"class.network::mojom::blink::RestrictedCookieManager"*, %"class.network::mojom::blink::RestrictedCookieManager"** %10, align 8
  %12 = ptrtoint %"class.base::RunLoop"* %6 to i64
  %13 = call i8* @_Znwm(i64 48) #12, !noalias !17
  %14 = bitcast i8* %13 to %"class.base::internal::BindStateBase"*
  call void @_ZN4base8internal13BindStateBaseC2EPFvvEPFvPKS1_E(%"class.base::internal::BindStateBase"* nonnull %14, void ()* bitcast (void (%"class.base::internal::BindStateBase"*)* @"_ZN4base8internal7InvokerINS0_9BindStateIZN7network5mojom5blink34RestrictedCookieManagerAsyncWaiter19SetCookieFromStringERKN5blink4KURLERKN3net14SiteForCookiesERK13scoped_refptrIKNS7_14SecurityOriginEERKN3WTF6StringEE3$_3JPNS_7RunLoopEEEEFvvEE7RunOnceEPNS0_13BindStateBaseE" to void ()*), void (%"class.base::internal::BindStateBase"*)* nonnull @"_ZN4base8internal9BindStateIZN7network5mojom5blink34RestrictedCookieManagerAsyncWaiter19SetCookieFromStringERKN5blink4KURLERKN3net14SiteForCookiesERK13scoped_refptrIKNS6_14SecurityOriginEERKN3WTF6StringEE3$_3JPNS_7RunLoopEEE7DestroyEPKNS0_13BindStateBaseE") #11, !noalias !17
  %15 = getelementptr inbounds i8, i8* %13, i64 40
  %16 = bitcast i8* %15 to i64*
  store i64 %12, i64* %16, align 8, !noalias !17
  %17 = bitcast %"class.base::OnceCallback.14"* %7 to i8**
  store i8* %13, i8** %17, align 8, !alias.scope !17
  %18 = bitcast %"class.network::mojom::blink::RestrictedCookieManager"* %11 to void (%"class.network::mojom::blink::RestrictedCookieManager"*, %"class.blink::KURL"*, %"class.net::SiteForCookies"*, %class.scoped_refptr.6*, %"class.WTF::String"*, %"class.base::OnceCallback.14"*)***
  %19 = load void (%"class.network::mojom::blink::RestrictedCookieManager"*, %"class.blink::KURL"*, %"class.net::SiteForCookies"*, %class.scoped_refptr.6*, %"class.WTF::String"*, %"class.base::OnceCallback.14"*)**, void (%"class.network::mojom::blink::RestrictedCookieManager"*, %"class.blink::KURL"*, %"class.net::SiteForCookies"*, %class.scoped_refptr.6*, %"class.WTF::String"*, %"class.base::OnceCallback.14"*)*** %18, align 8
  %20 = getelementptr inbounds void (%"class.network::mojom::blink::RestrictedCookieManager"*, %"class.blink::KURL"*, %"class.net::SiteForCookies"*, %class.scoped_refptr.6*, %"class.WTF::String"*, %"class.base::OnceCallback.14"*)*, void (%"class.network::mojom::blink::RestrictedCookieManager"*, %"class.blink::KURL"*, %"class.net::SiteForCookies"*, %class.scoped_refptr.6*, %"class.WTF::String"*, %"class.base::OnceCallback.14"*)** %19, i64 6
  %21 = load void (%"class.network::mojom::blink::RestrictedCookieManager"*, %"class.blink::KURL"*, %"class.net::SiteForCookies"*, %class.scoped_refptr.6*, %"class.WTF::String"*, %"class.base::OnceCallback.14"*)*, void (%"class.network::mojom::blink::RestrictedCookieManager"*, %"class.blink::KURL"*, %"class.net::SiteForCookies"*, %class.scoped_refptr.6*, %"class.WTF::String"*, %"class.base::OnceCallback.14"*)** %20, align 8
  call void %21(%"class.network::mojom::blink::RestrictedCookieManager"* %11, %"class.blink::KURL"* dereferenceable(112) %1, %"class.net::SiteForCookies"* dereferenceable(88) %2, %class.scoped_refptr.6* dereferenceable(8) %3, %"class.WTF::String"* dereferenceable(8) %4, %"class.base::OnceCallback.14"* nonnull %7) #11
  %22 = getelementptr inbounds %"class.base::OnceCallback.14", %"class.base::OnceCallback.14"* %7, i64 0, i32 0
  call void @_ZN4base8internal12CallbackBaseD2Ev(%"class.base::internal::CallbackBase"* nonnull %22) #11
  %23 = bitcast %"class.base::Location"* %8 to i8*
  call void @llvm.lifetime.start.p0i8(i64 32, i8* nonnull %23) #11
  call void @_ZN4base8Location7CurrentEPKcS2_i(%"class.base::Location"* nonnull sret %8, i8* getelementptr inbounds ([20 x i8], [20 x i8]* @.str.4, i64 0, i64 0), i8* getelementptr inbounds ([86 x i8], [86 x i8]* @.str.1, i64 0, i64 0), i32 110) #11
  call void @_ZN4base7RunLoop3RunERKNS_8LocationE(%"class.base::RunLoop"* nonnull %6, %"class.base::Location"* nonnull dereferenceable(32) %8) #11
  call void @llvm.lifetime.end.p0i8(i64 32, i8* nonnull %23) #11
  call void @_ZN4base7RunLoopD1Ev(%"class.base::RunLoop"* nonnull %6) #11
  call void @llvm.lifetime.end.p0i8(i64 48, i8* nonnull %9) #11
  ret void
}

; Function Attrs: nounwind ssp uwtable
define hidden void @_ZN7network5mojom5blink34RestrictedCookieManagerAsyncWaiter16GetCookiesStringERKN5blink4KURLERKN3net14SiteForCookiesERK13scoped_refptrIKNS3_14SecurityOriginEEPN3WTF6StringE(%"class.network::mojom::blink::RestrictedCookieManagerAsyncWaiter"* nocapture readonly, %"class.blink::KURL"* dereferenceable(112), %"class.net::SiteForCookies"* dereferenceable(88), %class.scoped_refptr.6* dereferenceable(8), %"class.WTF::String"*) local_unnamed_addr #0 align 2 {
  %6 = alloca %"class.base::RunLoop", align 8
  %7 = alloca %"class.base::OnceCallback.15", align 8
  %8 = alloca %"class.base::Location", align 8
  %9 = ptrtoint %"class.WTF::String"* %4 to i64
  %10 = bitcast %"class.base::RunLoop"* %6 to i8*
  call void @llvm.lifetime.start.p0i8(i64 48, i8* nonnull %10) #11
  call void @llvm.memset.p0i8.i64(i8* nonnull align 8 %10, i8 -86, i64 48, i1 false)
  call void @_ZN4base7RunLoopC1ENS0_4TypeE(%"class.base::RunLoop"* nonnull %6, i32 0) #11
  %11 = getelementptr inbounds %"class.network::mojom::blink::RestrictedCookieManagerAsyncWaiter", %"class.network::mojom::blink::RestrictedCookieManagerAsyncWaiter"* %0, i64 0, i32 0
  %12 = load %"class.network::mojom::blink::RestrictedCookieManager"*, %"class.network::mojom::blink::RestrictedCookieManager"** %11, align 8
  %13 = ptrtoint %"class.base::RunLoop"* %6 to i64
  %14 = call i8* @_Znwm(i64 56) #12, !noalias !22
  %15 = bitcast i8* %14 to %"class.base::internal::BindStateBase"*
  call void @_ZN4base8internal13BindStateBaseC2EPFvvEPFvPKS1_E(%"class.base::internal::BindStateBase"* nonnull %15, void ()* bitcast (void (%"class.base::internal::BindStateBase"*, %"class.WTF::String"*)* @"_ZN4base8internal7InvokerINS0_9BindStateIZN7network5mojom5blink34RestrictedCookieManagerAsyncWaiter16GetCookiesStringERKN5blink4KURLERKN3net14SiteForCookiesERK13scoped_refptrIKNS7_14SecurityOriginEEPN3WTF6StringEE3$_4JPNS_7RunLoopESN_EEEFvRKSM_EE7RunOnceEPNS0_13BindStateBaseEST_" to void ()*), void (%"class.base::internal::BindStateBase"*)* nonnull @"_ZN4base8internal9BindStateIZN7network5mojom5blink34RestrictedCookieManagerAsyncWaiter16GetCookiesStringERKN5blink4KURLERKN3net14SiteForCookiesERK13scoped_refptrIKNS6_14SecurityOriginEEPN3WTF6StringEE3$_4JPNS_7RunLoopESM_EE7DestroyEPKNS0_13BindStateBaseE") #11, !noalias !22
  %16 = getelementptr inbounds i8, i8* %14, i64 40
  %17 = bitcast i8* %16 to i64*
  store i64 %13, i64* %17, align 8, !noalias !22
  %18 = getelementptr inbounds i8, i8* %14, i64 48
  %19 = bitcast i8* %18 to i64*
  store i64 %9, i64* %19, align 8, !noalias !22
  %20 = bitcast %"class.base::OnceCallback.15"* %7 to i8**
  store i8* %14, i8** %20, align 8, !alias.scope !22
  %21 = bitcast %"class.network::mojom::blink::RestrictedCookieManager"* %12 to void (%"class.network::mojom::blink::RestrictedCookieManager"*, %"class.blink::KURL"*, %"class.net::SiteForCookies"*, %class.scoped_refptr.6*, %"class.base::OnceCallback.15"*)***
  %22 = load void (%"class.network::mojom::blink::RestrictedCookieManager"*, %"class.blink::KURL"*, %"class.net::SiteForCookies"*, %class.scoped_refptr.6*, %"class.base::OnceCallback.15"*)**, void (%"class.network::mojom::blink::RestrictedCookieManager"*, %"class.blink::KURL"*, %"class.net::SiteForCookies"*, %class.scoped_refptr.6*, %"class.base::OnceCallback.15"*)*** %21, align 8
  %23 = getelementptr inbounds void (%"class.network::mojom::blink::RestrictedCookieManager"*, %"class.blink::KURL"*, %"class.net::SiteForCookies"*, %class.scoped_refptr.6*, %"class.base::OnceCallback.15"*)*, void (%"class.network::mojom::blink::RestrictedCookieManager"*, %"class.blink::KURL"*, %"class.net::SiteForCookies"*, %class.scoped_refptr.6*, %"class.base::OnceCallback.15"*)** %22, i64 8
  %24 = load void (%"class.network::mojom::blink::RestrictedCookieManager"*, %"class.blink::KURL"*, %"class.net::SiteForCookies"*, %class.scoped_refptr.6*, %"class.base::OnceCallback.15"*)*, void (%"class.network::mojom::blink::RestrictedCookieManager"*, %"class.blink::KURL"*, %"class.net::SiteForCookies"*, %class.scoped_refptr.6*, %"class.base::OnceCallback.15"*)** %23, align 8
  call void %24(%"class.network::mojom::blink::RestrictedCookieManager"* %12, %"class.blink::KURL"* dereferenceable(112) %1, %"class.net::SiteForCookies"* dereferenceable(88) %2, %class.scoped_refptr.6* dereferenceable(8) %3, %"class.base::OnceCallback.15"* nonnull %7) #11
  %25 = getelementptr inbounds %"class.base::OnceCallback.15", %"class.base::OnceCallback.15"* %7, i64 0, i32 0
  call void @_ZN4base8internal12CallbackBaseD2Ev(%"class.base::internal::CallbackBase"* nonnull %25) #11
  %26 = bitcast %"class.base::Location"* %8 to i8*
  call void @llvm.lifetime.start.p0i8(i64 32, i8* nonnull %26) #11
  call void @_ZN4base8Location7CurrentEPKcS2_i(%"class.base::Location"* nonnull sret %8, i8* getelementptr inbounds ([17 x i8], [17 x i8]* @.str.5, i64 0, i64 0), i8* getelementptr inbounds ([86 x i8], [86 x i8]* @.str.1, i64 0, i64 0), i32 125) #11
  call void @_ZN4base7RunLoop3RunERKNS_8LocationE(%"class.base::RunLoop"* nonnull %6, %"class.base::Location"* nonnull dereferenceable(32) %8) #11
  call void @llvm.lifetime.end.p0i8(i64 32, i8* nonnull %26) #11
  call void @_ZN4base7RunLoopD1Ev(%"class.base::RunLoop"* nonnull %6) #11
  call void @llvm.lifetime.end.p0i8(i64 48, i8* nonnull %10) #11
  ret void
}

; Function Attrs: nounwind ssp uwtable
define hidden void @_ZN7network5mojom5blink34RestrictedCookieManagerAsyncWaiter17CookiesEnabledForERKN5blink4KURLERKN3net14SiteForCookiesERK13scoped_refptrIKNS3_14SecurityOriginEEPb(%"class.network::mojom::blink::RestrictedCookieManagerAsyncWaiter"* nocapture readonly, %"class.blink::KURL"* dereferenceable(112), %"class.net::SiteForCookies"* dereferenceable(88), %class.scoped_refptr.6* dereferenceable(8), i8*) local_unnamed_addr #0 align 2 {
  %6 = alloca %"class.base::RunLoop", align 8
  %7 = alloca %"class.base::OnceCallback.13", align 8
  %8 = alloca %"class.base::Location", align 8
  %9 = ptrtoint i8* %4 to i64
  %10 = bitcast %"class.base::RunLoop"* %6 to i8*
  call void @llvm.lifetime.start.p0i8(i64 48, i8* nonnull %10) #11
  call void @llvm.memset.p0i8.i64(i8* nonnull align 8 %10, i8 -86, i64 48, i1 false)
  call void @_ZN4base7RunLoopC1ENS0_4TypeE(%"class.base::RunLoop"* nonnull %6, i32 0) #11
  %11 = getelementptr inbounds %"class.network::mojom::blink::RestrictedCookieManagerAsyncWaiter", %"class.network::mojom::blink::RestrictedCookieManagerAsyncWaiter"* %0, i64 0, i32 0
  %12 = load %"class.network::mojom::blink::RestrictedCookieManager"*, %"class.network::mojom::blink::RestrictedCookieManager"** %11, align 8
  %13 = ptrtoint %"class.base::RunLoop"* %6 to i64
  %14 = call i8* @_Znwm(i64 56) #12, !noalias !27
  %15 = bitcast i8* %14 to %"class.base::internal::BindStateBase"*
  call void @_ZN4base8internal13BindStateBaseC2EPFvvEPFvPKS1_E(%"class.base::internal::BindStateBase"* nonnull %15, void ()* bitcast (void (%"class.base::internal::BindStateBase"*, i1)* @"_ZN4base8internal7InvokerINS0_9BindStateIZN7network5mojom5blink34RestrictedCookieManagerAsyncWaiter17CookiesEnabledForERKN5blink4KURLERKN3net14SiteForCookiesERK13scoped_refptrIKNS7_14SecurityOriginEEPbE3$_5JPNS_7RunLoopESL_EEEFvbEE7RunOnceEPNS0_13BindStateBaseEb" to void ()*), void (%"class.base::internal::BindStateBase"*)* nonnull @"_ZN4base8internal9BindStateIZN7network5mojom5blink34RestrictedCookieManagerAsyncWaiter17CookiesEnabledForERKN5blink4KURLERKN3net14SiteForCookiesERK13scoped_refptrIKNS6_14SecurityOriginEEPbE3$_5JPNS_7RunLoopESK_EE7DestroyEPKNS0_13BindStateBaseE") #11, !noalias !27
  %16 = getelementptr inbounds i8, i8* %14, i64 40
  %17 = bitcast i8* %16 to i64*
  store i64 %13, i64* %17, align 8, !noalias !27
  %18 = getelementptr inbounds i8, i8* %14, i64 48
  %19 = bitcast i8* %18 to i64*
  store i64 %9, i64* %19, align 8, !noalias !27
  %20 = bitcast %"class.base::OnceCallback.13"* %7 to i8**
  store i8* %14, i8** %20, align 8, !alias.scope !27
  %21 = bitcast %"class.network::mojom::blink::RestrictedCookieManager"* %12 to void (%"class.network::mojom::blink::RestrictedCookieManager"*, %"class.blink::KURL"*, %"class.net::SiteForCookies"*, %class.scoped_refptr.6*, %"class.base::OnceCallback.13"*)***
  %22 = load void (%"class.network::mojom::blink::RestrictedCookieManager"*, %"class.blink::KURL"*, %"class.net::SiteForCookies"*, %class.scoped_refptr.6*, %"class.base::OnceCallback.13"*)**, void (%"class.network::mojom::blink::RestrictedCookieManager"*, %"class.blink::KURL"*, %"class.net::SiteForCookies"*, %class.scoped_refptr.6*, %"class.base::OnceCallback.13"*)*** %21, align 8
  %23 = getelementptr inbounds void (%"class.network::mojom::blink::RestrictedCookieManager"*, %"class.blink::KURL"*, %"class.net::SiteForCookies"*, %class.scoped_refptr.6*, %"class.base::OnceCallback.13"*)*, void (%"class.network::mojom::blink::RestrictedCookieManager"*, %"class.blink::KURL"*, %"class.net::SiteForCookies"*, %class.scoped_refptr.6*, %"class.base::OnceCallback.13"*)** %22, i64 10
  %24 = load void (%"class.network::mojom::blink::RestrictedCookieManager"*, %"class.blink::KURL"*, %"class.net::SiteForCookies"*, %class.scoped_refptr.6*, %"class.base::OnceCallback.13"*)*, void (%"class.network::mojom::blink::RestrictedCookieManager"*, %"class.blink::KURL"*, %"class.net::SiteForCookies"*, %class.scoped_refptr.6*, %"class.base::OnceCallback.13"*)** %23, align 8
  call void %24(%"class.network::mojom::blink::RestrictedCookieManager"* %12, %"class.blink::KURL"* dereferenceable(112) %1, %"class.net::SiteForCookies"* dereferenceable(88) %2, %class.scoped_refptr.6* dereferenceable(8) %3, %"class.base::OnceCallback.13"* nonnull %7) #11
  %25 = getelementptr inbounds %"class.base::OnceCallback.13", %"class.base::OnceCallback.13"* %7, i64 0, i32 0
  call void @_ZN4base8internal12CallbackBaseD2Ev(%"class.base::internal::CallbackBase"* nonnull %25) #11
  %26 = bitcast %"class.base::Location"* %8 to i8*
  call void @llvm.lifetime.start.p0i8(i64 32, i8* nonnull %26) #11
  call void @_ZN4base8Location7CurrentEPKcS2_i(%"class.base::Location"* nonnull sret %8, i8* getelementptr inbounds ([18 x i8], [18 x i8]* @.str.6, i64 0, i64 0), i8* getelementptr inbounds ([86 x i8], [86 x i8]* @.str.1, i64 0, i64 0), i32 140) #11
  call void @_ZN4base7RunLoop3RunERKNS_8LocationE(%"class.base::RunLoop"* nonnull %6, %"class.base::Location"* nonnull dereferenceable(32) %8) #11
  call void @llvm.lifetime.end.p0i8(i64 32, i8* nonnull %26) #11
  call void @_ZN4base7RunLoopD1Ev(%"class.base::RunLoop"* nonnull %6) #11
  call void @llvm.lifetime.end.p0i8(i64 48, i8* nonnull %10) #11
  ret void
}

; Function Attrs: nounwind ssp uwtable
define linkonce_odr hidden void @_ZN7network5mojom5blink23RestrictedCookieManagerD2Ev(%"class.network::mojom::blink::RestrictedCookieManager"*) unnamed_addr #0 comdat align 2 {
  ret void
}

; Function Attrs: inlinehint nounwind ssp uwtable
define linkonce_odr hidden void @_ZN7network5mojom5blink44RestrictedCookieManagerInterceptorForTestingD0Ev(%"class.network::mojom::blink::RestrictedCookieManagerInterceptorForTesting"*) unnamed_addr #6 comdat align 2 {
  tail call void @llvm.trap() #13
  unreachable
}

declare zeroext i1 @_ZN7network5mojom5blink23RestrictedCookieManager19SetCookieFromStringERKN5blink4KURLERKN3net14SiteForCookiesERK13scoped_refptrIKNS3_14SecurityOriginEERKN3WTF6StringE(%"class.network::mojom::blink::RestrictedCookieManager"*, %"class.blink::KURL"* dereferenceable(112), %"class.net::SiteForCookies"* dereferenceable(88), %class.scoped_refptr.6* dereferenceable(8), %"class.WTF::String"* dereferenceable(8)) unnamed_addr #5

declare zeroext i1 @_ZN7network5mojom5blink23RestrictedCookieManager16GetCookiesStringERKN5blink4KURLERKN3net14SiteForCookiesERK13scoped_refptrIKNS3_14SecurityOriginEEPN3WTF6StringE(%"class.network::mojom::blink::RestrictedCookieManager"*, %"class.blink::KURL"* dereferenceable(112), %"class.net::SiteForCookies"* dereferenceable(88), %class.scoped_refptr.6* dereferenceable(8), %"class.WTF::String"*) unnamed_addr #5

declare zeroext i1 @_ZN7network5mojom5blink23RestrictedCookieManager17CookiesEnabledForERKN5blink4KURLERKN3net14SiteForCookiesERK13scoped_refptrIKNS3_14SecurityOriginEEPb(%"class.network::mojom::blink::RestrictedCookieManager"*, %"class.blink::KURL"* dereferenceable(112), %"class.net::SiteForCookies"* dereferenceable(88), %class.scoped_refptr.6* dereferenceable(8), i8*) unnamed_addr #5

declare void @__cxa_pure_virtual() unnamed_addr

; Function Attrs: nounwind
declare void @_ZN7network5mojom5blink23CookieManagerGetOptionsD1Ev(%"class.network::mojom::blink::CookieManagerGetOptions"*) unnamed_addr #1

; Function Attrs: nounwind
declare void @_ZN4mojo8internal18PendingRemoteStateC1EOS1_(%"struct.mojo::internal::PendingRemoteState"*, %"struct.mojo::internal::PendingRemoteState"* dereferenceable(8)) unnamed_addr #1

; Function Attrs: nounwind
declare void @_ZN4mojo8internal18PendingRemoteStateD1Ev(%"struct.mojo::internal::PendingRemoteState"*) unnamed_addr #1

; Function Attrs: cold noreturn nounwind
declare void @llvm.trap() #7

declare void @_ZN7network5mojom5blink23CookieManagerGetOptionsC1Ev(%"class.network::mojom::blink::CookieManagerGetOptions"*) unnamed_addr #5

; Function Attrs: inlinehint nounwind ssp uwtable
define linkonce_odr hidden void @_ZNSt3__14swapIN7network5mojom5blink23CookieManagerGetOptionsEEENS_9enable_ifIXaasr21is_move_constructibleIT_EE5valuesr18is_move_assignableIS6_EE5valueEvE4typeERS6_S9_(%"class.network::mojom::blink::CookieManagerGetOptions"* dereferenceable(16), %"class.network::mojom::blink::CookieManagerGetOptions"* dereferenceable(16)) local_unnamed_addr #6 comdat {
  %3 = alloca %"class.network::mojom::blink::CookieManagerGetOptions", align 8
  %4 = bitcast %"class.network::mojom::blink::CookieManagerGetOptions"* %3 to i8*
  call void @llvm.lifetime.start.p0i8(i64 16, i8* nonnull %4) #11
  %5 = getelementptr inbounds %"class.network::mojom::blink::CookieManagerGetOptions", %"class.network::mojom::blink::CookieManagerGetOptions"* %3, i64 0, i32 0, i32 0, i32 0
  %6 = getelementptr inbounds %"class.network::mojom::blink::CookieManagerGetOptions", %"class.network::mojom::blink::CookieManagerGetOptions"* %3, i64 0, i32 1
  %7 = getelementptr inbounds %"class.network::mojom::blink::CookieManagerGetOptions", %"class.network::mojom::blink::CookieManagerGetOptions"* %0, i64 0, i32 0, i32 0, i32 0
  %8 = getelementptr inbounds %"class.network::mojom::blink::CookieManagerGetOptions", %"class.network::mojom::blink::CookieManagerGetOptions"* %3, i64 0, i32 1
  %9 = bitcast i32* %8 to i64*
  store i64 -6148914691236517206, i64* %9, align 8
  %10 = load %"class.WTF::StringImpl"*, %"class.WTF::StringImpl"** %7, align 8
  store %"class.WTF::StringImpl"* %10, %"class.WTF::StringImpl"** %5, align 8
  %11 = icmp eq %"class.WTF::StringImpl"* %10, null
  br i1 %11, label %29, label %12

12:                                               ; preds = %2
  %13 = getelementptr inbounds %"class.WTF::StringImpl", %"class.WTF::StringImpl"* %10, i64 0, i32 2, i32 0, i32 0, i32 0, i32 0, i32 0
  %14 = load atomic i32, i32* %13 monotonic, align 4
  %15 = and i32 %14, 2
  %16 = icmp eq i32 %15, 0
  br i1 %16, label %17, label %29

17:                                               ; preds = %12
  %18 = getelementptr inbounds %"class.WTF::StringImpl", %"class.WTF::StringImpl"* %10, i64 0, i32 0
  %19 = load i32, i32* %18, align 4
  %20 = zext i32 %19 to i33
  %21 = tail call { i33, i1 } @llvm.sadd.with.overflow.i33(i33 %20, i33 1) #11
  %22 = extractvalue { i33, i1 } %21, 1
  %23 = extractvalue { i33, i1 } %21, 0
  %24 = icmp slt i33 %23, 0
  %25 = or i1 %22, %24
  br i1 %25, label %26, label %27, !prof !32

26:                                               ; preds = %17
  tail call void @llvm.trap() #11
  unreachable

27:                                               ; preds = %17
  %28 = trunc i33 %23 to i32
  store i32 %28, i32* %18, align 4
  br label %29

29:                                               ; preds = %2, %12, %27
  %30 = getelementptr inbounds %"class.network::mojom::blink::CookieManagerGetOptions", %"class.network::mojom::blink::CookieManagerGetOptions"* %0, i64 0, i32 1
  %31 = load i32, i32* %30, align 8
  store i32 %31, i32* %6, align 8
  %32 = getelementptr inbounds %"class.network::mojom::blink::CookieManagerGetOptions", %"class.network::mojom::blink::CookieManagerGetOptions"* %1, i64 0, i32 0, i32 0, i32 0
  %33 = load %"class.WTF::StringImpl"*, %"class.WTF::StringImpl"** %32, align 8
  %34 = icmp eq %"class.WTF::StringImpl"* %33, null
  br i1 %34, label %52, label %35

35:                                               ; preds = %29
  %36 = getelementptr inbounds %"class.WTF::StringImpl", %"class.WTF::StringImpl"* %33, i64 0, i32 2, i32 0, i32 0, i32 0, i32 0, i32 0
  %37 = load atomic i32, i32* %36 monotonic, align 4
  %38 = and i32 %37, 2
  %39 = icmp eq i32 %38, 0
  br i1 %39, label %40, label %52

40:                                               ; preds = %35
  %41 = getelementptr inbounds %"class.WTF::StringImpl", %"class.WTF::StringImpl"* %33, i64 0, i32 0
  %42 = load i32, i32* %41, align 4
  %43 = zext i32 %42 to i33
  %44 = tail call { i33, i1 } @llvm.sadd.with.overflow.i33(i33 %43, i33 1) #11
  %45 = extractvalue { i33, i1 } %44, 1
  %46 = extractvalue { i33, i1 } %44, 0
  %47 = icmp slt i33 %46, 0
  %48 = or i1 %45, %47
  br i1 %48, label %49, label %50, !prof !32

49:                                               ; preds = %40
  tail call void @llvm.trap() #11
  unreachable

50:                                               ; preds = %40
  %51 = trunc i33 %46 to i32
  store i32 %51, i32* %41, align 4
  br label %52

52:                                               ; preds = %50, %35, %29
  %53 = ptrtoint %"class.WTF::StringImpl"* %33 to i64
  %54 = bitcast %"class.network::mojom::blink::CookieManagerGetOptions"* %0 to i64*
  %55 = load %"class.WTF::StringImpl"*, %"class.WTF::StringImpl"** %7, align 8
  store i64 %53, i64* %54, align 8
  %56 = icmp eq %"class.WTF::StringImpl"* %55, null
  br i1 %56, label %70, label %57

57:                                               ; preds = %52
  %58 = getelementptr inbounds %"class.WTF::StringImpl", %"class.WTF::StringImpl"* %55, i64 0, i32 2, i32 0, i32 0, i32 0, i32 0, i32 0
  %59 = load atomic i32, i32* %58 monotonic, align 4
  %60 = and i32 %59, 2
  %61 = icmp eq i32 %60, 0
  %62 = getelementptr inbounds %"class.WTF::StringImpl", %"class.WTF::StringImpl"* %55, i64 0, i32 0
  %63 = load i32, i32* %62, align 4
  br i1 %61, label %64, label %66

64:                                               ; preds = %57
  %65 = add i32 %63, -1
  store i32 %65, i32* %62, align 4
  br label %66

66:                                               ; preds = %64, %57
  %67 = phi i32 [ %65, %64 ], [ %63, %57 ]
  %68 = icmp eq i32 %67, 0
  br i1 %68, label %69, label %70

69:                                               ; preds = %66
  tail call void @_ZNK3WTF10StringImpl18DestroyIfNotStaticEv(%"class.WTF::StringImpl"* nonnull %55) #11
  br label %70

70:                                               ; preds = %52, %66, %69
  %71 = getelementptr inbounds %"class.network::mojom::blink::CookieManagerGetOptions", %"class.network::mojom::blink::CookieManagerGetOptions"* %1, i64 0, i32 1
  %72 = load i32, i32* %71, align 8
  store i32 %72, i32* %30, align 8
  %73 = load %"class.WTF::StringImpl"*, %"class.WTF::StringImpl"** %5, align 8
  %74 = icmp eq %"class.WTF::StringImpl"* %73, null
  br i1 %74, label %92, label %75

75:                                               ; preds = %70
  %76 = getelementptr inbounds %"class.WTF::StringImpl", %"class.WTF::StringImpl"* %73, i64 0, i32 2, i32 0, i32 0, i32 0, i32 0, i32 0
  %77 = load atomic i32, i32* %76 monotonic, align 4
  %78 = and i32 %77, 2
  %79 = icmp eq i32 %78, 0
  br i1 %79, label %80, label %92

80:                                               ; preds = %75
  %81 = getelementptr inbounds %"class.WTF::StringImpl", %"class.WTF::StringImpl"* %73, i64 0, i32 0
  %82 = load i32, i32* %81, align 4
  %83 = zext i32 %82 to i33
  %84 = tail call { i33, i1 } @llvm.sadd.with.overflow.i33(i33 %83, i33 1) #11
  %85 = extractvalue { i33, i1 } %84, 1
  %86 = extractvalue { i33, i1 } %84, 0
  %87 = icmp slt i33 %86, 0
  %88 = or i1 %85, %87
  br i1 %88, label %89, label %90, !prof !32

89:                                               ; preds = %80
  tail call void @llvm.trap() #11
  unreachable

90:                                               ; preds = %80
  %91 = trunc i33 %86 to i32
  store i32 %91, i32* %81, align 4
  br label %92

92:                                               ; preds = %90, %75, %70
  %93 = ptrtoint %"class.WTF::StringImpl"* %73 to i64
  %94 = bitcast %"class.network::mojom::blink::CookieManagerGetOptions"* %1 to i64*
  %95 = load %"class.WTF::StringImpl"*, %"class.WTF::StringImpl"** %32, align 8
  store i64 %93, i64* %94, align 8
  %96 = icmp eq %"class.WTF::StringImpl"* %95, null
  br i1 %96, label %110, label %97

97:                                               ; preds = %92
  %98 = getelementptr inbounds %"class.WTF::StringImpl", %"class.WTF::StringImpl"* %95, i64 0, i32 2, i32 0, i32 0, i32 0, i32 0, i32 0
  %99 = load atomic i32, i32* %98 monotonic, align 4
  %100 = and i32 %99, 2
  %101 = icmp eq i32 %100, 0
  %102 = getelementptr inbounds %"class.WTF::StringImpl", %"class.WTF::StringImpl"* %95, i64 0, i32 0
  %103 = load i32, i32* %102, align 4
  br i1 %101, label %104, label %106

104:                                              ; preds = %97
  %105 = add i32 %103, -1
  store i32 %105, i32* %102, align 4
  br label %106

106:                                              ; preds = %104, %97
  %107 = phi i32 [ %105, %104 ], [ %103, %97 ]
  %108 = icmp eq i32 %107, 0
  br i1 %108, label %109, label %110

109:                                              ; preds = %106
  tail call void @_ZNK3WTF10StringImpl18DestroyIfNotStaticEv(%"class.WTF::StringImpl"* nonnull %95) #11
  br label %110

110:                                              ; preds = %92, %106, %109
  %111 = load i32, i32* %6, align 8
  store i32 %111, i32* %71, align 8
  call void @_ZN7network5mojom5blink23CookieManagerGetOptionsD1Ev(%"class.network::mojom::blink::CookieManagerGetOptions"* nonnull %3) #11
  call void @llvm.lifetime.end.p0i8(i64 16, i8* nonnull %4) #11
  ret void
}

; Function Attrs: nounwind readnone speculatable
declare { i33, i1 } @llvm.sadd.with.overflow.i33(i33, i33) #8

declare void @_ZNK3WTF10StringImpl18DestroyIfNotStaticEv(%"class.WTF::StringImpl"*) local_unnamed_addr #5

; Function Attrs: nounwind ssp uwtable
define internal void @"_ZN4base8internal7InvokerINS0_9BindStateIZN7network5mojom5blink34RestrictedCookieManagerAsyncWaiter12GetAllForUrlERKN5blink4KURLERKN3net14SiteForCookiesERK13scoped_refptrIKNS7_14SecurityOriginEEN4mojo16InlinedStructPtrINS5_23CookieManagerGetOptionsEEEPN3WTF6VectorINSL_9StructPtrINS5_22CookieWithAccessResultEEELj0ENSP_18PartitionAllocatorEEEE3$_0JPNS_7RunLoopESW_EEEFvSV_EE7RunOnceEPNS0_13BindStateBaseEOSV_"(%"class.base::internal::BindStateBase"* nocapture readonly, %"class.WTF::Vector"* nocapture dereferenceable(16)) #0 align 2 {
  %3 = getelementptr inbounds %"class.base::internal::BindStateBase", %"class.base::internal::BindStateBase"* %0, i64 1, i32 1
  %4 = bitcast void ()** %3 to %"class.base::RunLoop"**
  %5 = getelementptr inbounds void ()*, void ()** %3, i64 1
  %6 = bitcast void ()** %5 to %"class.WTF::Vector"**
  %7 = load %"class.base::RunLoop"*, %"class.base::RunLoop"** %4, align 8
  %8 = load %"class.WTF::Vector"*, %"class.WTF::Vector"** %6, align 8
  %9 = bitcast %"class.WTF::Vector"* %1 to i64*
  %10 = load i64, i64* %9, align 8
  store atomic i64 0, i64* %9 monotonic, align 8
  %11 = getelementptr inbounds %"class.WTF::Vector", %"class.WTF::Vector"* %1, i64 0, i32 0, i32 0, i32 1
  %12 = load i32, i32* %11, align 4
  store i32 0, i32* %11, align 4
  %13 = getelementptr inbounds %"class.WTF::Vector", %"class.WTF::Vector"* %1, i64 0, i32 0, i32 0, i32 2
  %14 = load i32, i32* %13, align 4
  store i32 0, i32* %13, align 4
  %15 = bitcast %"class.WTF::Vector"* %8 to i64*
  %16 = load i64, i64* %15, align 8
  store atomic i64 %10, i64* %15 monotonic, align 8
  %17 = getelementptr inbounds %"class.WTF::Vector", %"class.WTF::Vector"* %8, i64 0, i32 0, i32 0, i32 1
  store i32 %12, i32* %17, align 4
  %18 = getelementptr inbounds %"class.WTF::Vector", %"class.WTF::Vector"* %8, i64 0, i32 0, i32 0, i32 2
  %19 = load i32, i32* %18, align 4
  store i32 %14, i32* %18, align 4
  tail call void @_ZN4base7RunLoop4QuitEv(%"class.base::RunLoop"* %7) #11
  %20 = inttoptr i64 %16 to %"class.mojo::StructPtr"*
  %21 = icmp eq i64 %16, 0
  br i1 %21, label %39, label %22, !prof !33

22:                                               ; preds = %2
  %23 = icmp eq i32 %19, 0
  br i1 %23, label %37, label %24, !prof !32

24:                                               ; preds = %22
  %25 = zext i32 %19 to i64
  %26 = getelementptr inbounds %"class.mojo::StructPtr", %"class.mojo::StructPtr"* %20, i64 %25
  br label %27

27:                                               ; preds = %34, %24
  %28 = phi %"class.mojo::StructPtr"* [ %35, %34 ], [ %20, %24 ]
  %29 = getelementptr inbounds %"class.mojo::StructPtr", %"class.mojo::StructPtr"* %28, i64 0, i32 0, i32 0, i32 0, i32 0
  %30 = load %"class.network::mojom::blink::CookieWithAccessResult"*, %"class.network::mojom::blink::CookieWithAccessResult"** %29, align 8
  store %"class.network::mojom::blink::CookieWithAccessResult"* null, %"class.network::mojom::blink::CookieWithAccessResult"** %29, align 8
  %31 = icmp eq %"class.network::mojom::blink::CookieWithAccessResult"* %30, null
  br i1 %31, label %34, label %32

32:                                               ; preds = %27
  tail call void @_ZN7network5mojom5blink22CookieWithAccessResultD1Ev(%"class.network::mojom::blink::CookieWithAccessResult"* nonnull %30) #11
  %33 = bitcast %"class.network::mojom::blink::CookieWithAccessResult"* %30 to i8*
  tail call void @_ZdlPv(i8* %33) #12
  br label %34

34:                                               ; preds = %32, %27
  %35 = getelementptr inbounds %"class.mojo::StructPtr", %"class.mojo::StructPtr"* %28, i64 1
  %36 = icmp eq %"class.mojo::StructPtr"* %35, %26
  br i1 %36, label %37, label %27

37:                                               ; preds = %34, %22
  %38 = inttoptr i64 %16 to i8*
  tail call void @_ZN3WTF18PartitionAllocator11FreeBackingEPv(i8* %38) #11
  br label %39

39:                                               ; preds = %2, %37
  ret void
}

declare void @_ZN4base7RunLoop4QuitEv(%"class.base::RunLoop"*) local_unnamed_addr #5

; Function Attrs: nounwind
declare void @_ZN7network5mojom5blink22CookieWithAccessResultD1Ev(%"class.network::mojom::blink::CookieWithAccessResult"*) unnamed_addr #1

; Function Attrs: nobuiltin nounwind
declare void @_ZdlPv(i8*) local_unnamed_addr #9

declare void @_ZN3WTF18PartitionAllocator11FreeBackingEPv(i8*) local_unnamed_addr #5

; Function Attrs: nobuiltin nofree
declare noalias nonnull i8* @_Znwm(i64) local_unnamed_addr #10

; Function Attrs: nounwind ssp uwtable
define internal void @"_ZN4base8internal9BindStateIZN7network5mojom5blink34RestrictedCookieManagerAsyncWaiter12GetAllForUrlERKN5blink4KURLERKN3net14SiteForCookiesERK13scoped_refptrIKNS6_14SecurityOriginEEN4mojo16InlinedStructPtrINS4_23CookieManagerGetOptionsEEEPN3WTF6VectorINSK_9StructPtrINS4_22CookieWithAccessResultEEELj0ENSO_18PartitionAllocatorEEEE3$_0JPNS_7RunLoopESV_EE7DestroyEPKNS0_13BindStateBaseE"(%"class.base::internal::BindStateBase"*) #0 align 2 {
  %2 = icmp eq %"class.base::internal::BindStateBase"* %0, null
  br i1 %2, label %5, label %3

3:                                                ; preds = %1
  %4 = bitcast %"class.base::internal::BindStateBase"* %0 to i8*
  tail call void @_ZdlPv(i8* %4) #12
  br label %5

5:                                                ; preds = %3, %1
  ret void
}

declare void @_ZN4base8internal13BindStateBaseC2EPFvvEPFvPKS1_E(%"class.base::internal::BindStateBase"*, void ()*, void (%"class.base::internal::BindStateBase"*)*) unnamed_addr #5

; Function Attrs: nounwind ssp uwtable
define internal void @"_ZN4base8internal7InvokerINS0_9BindStateIZN7network5mojom5blink34RestrictedCookieManagerAsyncWaiter18SetCanonicalCookieERKN3net15CanonicalCookieERKN5blink4KURLERKNS7_14SiteForCookiesERK13scoped_refptrIKNSB_14SecurityOriginEEPbE3$_1JPNS_7RunLoopESO_EEEFvbEE7RunOnceEPNS0_13BindStateBaseEb"(%"class.base::internal::BindStateBase"* nocapture readonly, i1 zeroext) #0 align 2 {
  %3 = zext i1 %1 to i8
  %4 = getelementptr inbounds %"class.base::internal::BindStateBase", %"class.base::internal::BindStateBase"* %0, i64 1, i32 1
  %5 = bitcast void ()** %4 to %"class.base::RunLoop"**
  %6 = getelementptr inbounds void ()*, void ()** %4, i64 1
  %7 = bitcast void ()** %6 to i8**
  %8 = load %"class.base::RunLoop"*, %"class.base::RunLoop"** %5, align 8
  %9 = load i8*, i8** %7, align 8
  store i8 %3, i8* %9, align 1
  tail call void @_ZN4base7RunLoop4QuitEv(%"class.base::RunLoop"* %8) #11
  ret void
}

; Function Attrs: nounwind ssp uwtable
define internal void @"_ZN4base8internal9BindStateIZN7network5mojom5blink34RestrictedCookieManagerAsyncWaiter18SetCanonicalCookieERKN3net15CanonicalCookieERKN5blink4KURLERKNS6_14SiteForCookiesERK13scoped_refptrIKNSA_14SecurityOriginEEPbE3$_1JPNS_7RunLoopESN_EE7DestroyEPKNS0_13BindStateBaseE"(%"class.base::internal::BindStateBase"*) #0 align 2 {
  %2 = icmp eq %"class.base::internal::BindStateBase"* %0, null
  br i1 %2, label %5, label %3

3:                                                ; preds = %1
  %4 = bitcast %"class.base::internal::BindStateBase"* %0 to i8*
  tail call void @_ZdlPv(i8* %4) #12
  br label %5

5:                                                ; preds = %3, %1
  ret void
}

; Function Attrs: nounwind ssp uwtable
define internal void @"_ZN4base8internal7InvokerINS0_9BindStateIZN7network5mojom5blink34RestrictedCookieManagerAsyncWaiter17AddChangeListenerERKN5blink4KURLERKN3net14SiteForCookiesERK13scoped_refptrIKNS7_14SecurityOriginEEN4mojo13PendingRemoteINS5_20CookieChangeListenerEEEE3$_2JPNS_7RunLoopEEEEFvvEE7RunOnceEPNS0_13BindStateBaseE"(%"class.base::internal::BindStateBase"* nocapture readonly) #0 align 2 {
  %2 = getelementptr inbounds %"class.base::internal::BindStateBase", %"class.base::internal::BindStateBase"* %0, i64 1, i32 1
  %3 = bitcast void ()** %2 to %"class.base::RunLoop"**
  %4 = load %"class.base::RunLoop"*, %"class.base::RunLoop"** %3, align 8
  tail call void @_ZN4base7RunLoop4QuitEv(%"class.base::RunLoop"* %4) #11
  ret void
}

; Function Attrs: nounwind ssp uwtable
define internal void @"_ZN4base8internal9BindStateIZN7network5mojom5blink34RestrictedCookieManagerAsyncWaiter17AddChangeListenerERKN5blink4KURLERKN3net14SiteForCookiesERK13scoped_refptrIKNS6_14SecurityOriginEEN4mojo13PendingRemoteINS4_20CookieChangeListenerEEEE3$_2JPNS_7RunLoopEEE7DestroyEPKNS0_13BindStateBaseE"(%"class.base::internal::BindStateBase"*) #0 align 2 {
  %2 = icmp eq %"class.base::internal::BindStateBase"* %0, null
  br i1 %2, label %5, label %3

3:                                                ; preds = %1
  %4 = bitcast %"class.base::internal::BindStateBase"* %0 to i8*
  tail call void @_ZdlPv(i8* %4) #12
  br label %5

5:                                                ; preds = %3, %1
  ret void
}

; Function Attrs: nounwind ssp uwtable
define internal void @"_ZN4base8internal7InvokerINS0_9BindStateIZN7network5mojom5blink34RestrictedCookieManagerAsyncWaiter19SetCookieFromStringERKN5blink4KURLERKN3net14SiteForCookiesERK13scoped_refptrIKNS7_14SecurityOriginEERKN3WTF6StringEE3$_3JPNS_7RunLoopEEEEFvvEE7RunOnceEPNS0_13BindStateBaseE"(%"class.base::internal::BindStateBase"* nocapture readonly) #0 align 2 {
  %2 = getelementptr inbounds %"class.base::internal::BindStateBase", %"class.base::internal::BindStateBase"* %0, i64 1, i32 1
  %3 = bitcast void ()** %2 to %"class.base::RunLoop"**
  %4 = load %"class.base::RunLoop"*, %"class.base::RunLoop"** %3, align 8
  tail call void @_ZN4base7RunLoop4QuitEv(%"class.base::RunLoop"* %4) #11
  ret void
}

; Function Attrs: nounwind ssp uwtable
define internal void @"_ZN4base8internal9BindStateIZN7network5mojom5blink34RestrictedCookieManagerAsyncWaiter19SetCookieFromStringERKN5blink4KURLERKN3net14SiteForCookiesERK13scoped_refptrIKNS6_14SecurityOriginEERKN3WTF6StringEE3$_3JPNS_7RunLoopEEE7DestroyEPKNS0_13BindStateBaseE"(%"class.base::internal::BindStateBase"*) #0 align 2 {
  %2 = icmp eq %"class.base::internal::BindStateBase"* %0, null
  br i1 %2, label %5, label %3

3:                                                ; preds = %1
  %4 = bitcast %"class.base::internal::BindStateBase"* %0 to i8*
  tail call void @_ZdlPv(i8* %4) #12
  br label %5

5:                                                ; preds = %3, %1
  ret void
}

; Function Attrs: nounwind ssp uwtable
define internal void @"_ZN4base8internal7InvokerINS0_9BindStateIZN7network5mojom5blink34RestrictedCookieManagerAsyncWaiter16GetCookiesStringERKN5blink4KURLERKN3net14SiteForCookiesERK13scoped_refptrIKNS7_14SecurityOriginEEPN3WTF6StringEE3$_4JPNS_7RunLoopESN_EEEFvRKSM_EE7RunOnceEPNS0_13BindStateBaseEST_"(%"class.base::internal::BindStateBase"* nocapture readonly, %"class.WTF::String"* nocapture readonly dereferenceable(8)) #0 align 2 {
  %3 = getelementptr inbounds %"class.base::internal::BindStateBase", %"class.base::internal::BindStateBase"* %0, i64 1, i32 1
  %4 = bitcast void ()** %3 to %"class.base::RunLoop"**
  %5 = getelementptr inbounds void ()*, void ()** %3, i64 1
  %6 = bitcast void ()** %5 to %"class.WTF::String"**
  %7 = load %"class.base::RunLoop"*, %"class.base::RunLoop"** %4, align 8
  %8 = load %"class.WTF::String"*, %"class.WTF::String"** %6, align 8
  %9 = getelementptr inbounds %"class.WTF::String", %"class.WTF::String"* %1, i64 0, i32 0, i32 0
  %10 = load %"class.WTF::StringImpl"*, %"class.WTF::StringImpl"** %9, align 8
  %11 = icmp eq %"class.WTF::StringImpl"* %10, null
  br i1 %11, label %29, label %12

12:                                               ; preds = %2
  %13 = getelementptr inbounds %"class.WTF::StringImpl", %"class.WTF::StringImpl"* %10, i64 0, i32 2, i32 0, i32 0, i32 0, i32 0, i32 0
  %14 = load atomic i32, i32* %13 monotonic, align 4
  %15 = and i32 %14, 2
  %16 = icmp eq i32 %15, 0
  br i1 %16, label %17, label %29

17:                                               ; preds = %12
  %18 = getelementptr inbounds %"class.WTF::StringImpl", %"class.WTF::StringImpl"* %10, i64 0, i32 0
  %19 = load i32, i32* %18, align 4
  %20 = zext i32 %19 to i33
  %21 = tail call { i33, i1 } @llvm.sadd.with.overflow.i33(i33 %20, i33 1) #11
  %22 = extractvalue { i33, i1 } %21, 1
  %23 = extractvalue { i33, i1 } %21, 0
  %24 = icmp slt i33 %23, 0
  %25 = or i1 %22, %24
  br i1 %25, label %26, label %27, !prof !32

26:                                               ; preds = %17
  tail call void @llvm.trap() #11
  unreachable

27:                                               ; preds = %17
  %28 = trunc i33 %23 to i32
  store i32 %28, i32* %18, align 4
  br label %29

29:                                               ; preds = %27, %12, %2
  %30 = ptrtoint %"class.WTF::StringImpl"* %10 to i64
  %31 = bitcast %"class.WTF::String"* %8 to i64*
  %32 = getelementptr inbounds %"class.WTF::String", %"class.WTF::String"* %8, i64 0, i32 0, i32 0
  %33 = load %"class.WTF::StringImpl"*, %"class.WTF::StringImpl"** %32, align 8
  store i64 %30, i64* %31, align 8
  %34 = icmp eq %"class.WTF::StringImpl"* %33, null
  br i1 %34, label %48, label %35

35:                                               ; preds = %29
  %36 = getelementptr inbounds %"class.WTF::StringImpl", %"class.WTF::StringImpl"* %33, i64 0, i32 2, i32 0, i32 0, i32 0, i32 0, i32 0
  %37 = load atomic i32, i32* %36 monotonic, align 4
  %38 = and i32 %37, 2
  %39 = icmp eq i32 %38, 0
  %40 = getelementptr inbounds %"class.WTF::StringImpl", %"class.WTF::StringImpl"* %33, i64 0, i32 0
  %41 = load i32, i32* %40, align 4
  br i1 %39, label %42, label %44

42:                                               ; preds = %35
  %43 = add i32 %41, -1
  store i32 %43, i32* %40, align 4
  br label %44

44:                                               ; preds = %42, %35
  %45 = phi i32 [ %43, %42 ], [ %41, %35 ]
  %46 = icmp eq i32 %45, 0
  br i1 %46, label %47, label %48

47:                                               ; preds = %44
  tail call void @_ZNK3WTF10StringImpl18DestroyIfNotStaticEv(%"class.WTF::StringImpl"* nonnull %33) #11
  br label %48

48:                                               ; preds = %29, %44, %47
  tail call void @_ZN4base7RunLoop4QuitEv(%"class.base::RunLoop"* %7) #11
  ret void
}

; Function Attrs: nounwind ssp uwtable
define internal void @"_ZN4base8internal9BindStateIZN7network5mojom5blink34RestrictedCookieManagerAsyncWaiter16GetCookiesStringERKN5blink4KURLERKN3net14SiteForCookiesERK13scoped_refptrIKNS6_14SecurityOriginEEPN3WTF6StringEE3$_4JPNS_7RunLoopESM_EE7DestroyEPKNS0_13BindStateBaseE"(%"class.base::internal::BindStateBase"*) #0 align 2 {
  %2 = icmp eq %"class.base::internal::BindStateBase"* %0, null
  br i1 %2, label %5, label %3

3:                                                ; preds = %1
  %4 = bitcast %"class.base::internal::BindStateBase"* %0 to i8*
  tail call void @_ZdlPv(i8* %4) #12
  br label %5

5:                                                ; preds = %3, %1
  ret void
}

; Function Attrs: nounwind ssp uwtable
define internal void @"_ZN4base8internal7InvokerINS0_9BindStateIZN7network5mojom5blink34RestrictedCookieManagerAsyncWaiter17CookiesEnabledForERKN5blink4KURLERKN3net14SiteForCookiesERK13scoped_refptrIKNS7_14SecurityOriginEEPbE3$_5JPNS_7RunLoopESL_EEEFvbEE7RunOnceEPNS0_13BindStateBaseEb"(%"class.base::internal::BindStateBase"* nocapture readonly, i1 zeroext) #0 align 2 {
  %3 = zext i1 %1 to i8
  %4 = getelementptr inbounds %"class.base::internal::BindStateBase", %"class.base::internal::BindStateBase"* %0, i64 1, i32 1
  %5 = bitcast void ()** %4 to %"class.base::RunLoop"**
  %6 = getelementptr inbounds void ()*, void ()** %4, i64 1
  %7 = bitcast void ()** %6 to i8**
  %8 = load %"class.base::RunLoop"*, %"class.base::RunLoop"** %5, align 8
  %9 = load i8*, i8** %7, align 8
  store i8 %3, i8* %9, align 1
  tail call void @_ZN4base7RunLoop4QuitEv(%"class.base::RunLoop"* %8) #11
  ret void
}

; Function Attrs: nounwind ssp uwtable
define internal void @"_ZN4base8internal9BindStateIZN7network5mojom5blink34RestrictedCookieManagerAsyncWaiter17CookiesEnabledForERKN5blink4KURLERKN3net14SiteForCookiesERK13scoped_refptrIKNS6_14SecurityOriginEEPbE3$_5JPNS_7RunLoopESK_EE7DestroyEPKNS0_13BindStateBaseE"(%"class.base::internal::BindStateBase"*) #0 align 2 {
  %2 = icmp eq %"class.base::internal::BindStateBase"* %0, null
  br i1 %2, label %5, label %3

3:                                                ; preds = %1
  %4 = bitcast %"class.base::internal::BindStateBase"* %0 to i8*
  tail call void @_ZdlPv(i8* %4) #12
  br label %5

5:                                                ; preds = %3, %1
  ret void
}

attributes #0 = { nounwind ssp uwtable "correctly-rounded-divide-sqrt-fp-math"="false" "disable-tail-calls"="false" "less-precise-fpmad"="false" "min-legal-vector-width"="0" "no-frame-pointer-elim"="false" "no-frame-pointer-elim-non-leaf" "no-infs-fp-math"="false" "no-jump-tables"="false" "no-nans-fp-math"="false" "no-signed-zeros-fp-math"="false" "no-trapping-math"="false" "null-pointer-is-valid"="true" "stack-protector-buffer-size"="4" "target-cpu"="x86-64" "target-features"="+cx8,+fxsr,+mmx,+sse,+sse2,+sse3,+x87" "unsafe-fp-math"="false" "use-soft-float"="false" }
attributes #1 = { nounwind "correctly-rounded-divide-sqrt-fp-math"="false" "disable-tail-calls"="false" "less-precise-fpmad"="false" "no-frame-pointer-elim"="false" "no-frame-pointer-elim-non-leaf" "no-infs-fp-math"="false" "no-nans-fp-math"="false" "no-signed-zeros-fp-math"="false" "no-trapping-math"="false" "null-pointer-is-valid"="true" "stack-protector-buffer-size"="4" "target-cpu"="x86-64" "target-features"="+cx8,+fxsr,+mmx,+sse,+sse2,+sse3,+x87" "unsafe-fp-math"="false" "use-soft-float"="false" }
attributes #2 = { nofree norecurse nounwind ssp uwtable writeonly "correctly-rounded-divide-sqrt-fp-math"="false" "disable-tail-calls"="false" "less-precise-fpmad"="false" "min-legal-vector-width"="0" "no-frame-pointer-elim"="false" "no-frame-pointer-elim-non-leaf" "no-infs-fp-math"="false" "no-jump-tables"="false" "no-nans-fp-math"="false" "no-signed-zeros-fp-math"="false" "no-trapping-math"="false" "null-pointer-is-valid"="true" "stack-protector-buffer-size"="4" "target-cpu"="x86-64" "target-features"="+cx8,+fxsr,+mmx,+sse,+sse2,+sse3,+x87" "unsafe-fp-math"="false" "use-soft-float"="false" }
attributes #3 = { norecurse nounwind readnone ssp uwtable "correctly-rounded-divide-sqrt-fp-math"="false" "disable-tail-calls"="false" "less-precise-fpmad"="false" "min-legal-vector-width"="0" "no-frame-pointer-elim"="false" "no-frame-pointer-elim-non-leaf" "no-infs-fp-math"="false" "no-jump-tables"="false" "no-nans-fp-math"="false" "no-signed-zeros-fp-math"="false" "no-trapping-math"="false" "null-pointer-is-valid"="true" "stack-protector-buffer-size"="4" "target-cpu"="x86-64" "target-features"="+cx8,+fxsr,+mmx,+sse,+sse2,+sse3,+x87" "unsafe-fp-math"="false" "use-soft-float"="false" }
attributes #4 = { argmemonly nounwind }
attributes #5 = { "correctly-rounded-divide-sqrt-fp-math"="false" "disable-tail-calls"="false" "less-precise-fpmad"="false" "no-frame-pointer-elim"="false" "no-frame-pointer-elim-non-leaf" "no-infs-fp-math"="false" "no-nans-fp-math"="false" "no-signed-zeros-fp-math"="false" "no-trapping-math"="false" "null-pointer-is-valid"="true" "stack-protector-buffer-size"="4" "target-cpu"="x86-64" "target-features"="+cx8,+fxsr,+mmx,+sse,+sse2,+sse3,+x87" "unsafe-fp-math"="false" "use-soft-float"="false" }
attributes #6 = { inlinehint nounwind ssp uwtable "correctly-rounded-divide-sqrt-fp-math"="false" "disable-tail-calls"="false" "less-precise-fpmad"="false" "min-legal-vector-width"="0" "no-frame-pointer-elim"="false" "no-frame-pointer-elim-non-leaf" "no-infs-fp-math"="false" "no-jump-tables"="false" "no-nans-fp-math"="false" "no-signed-zeros-fp-math"="false" "no-trapping-math"="false" "null-pointer-is-valid"="true" "stack-protector-buffer-size"="4" "target-cpu"="x86-64" "target-features"="+cx8,+fxsr,+mmx,+sse,+sse2,+sse3,+x87" "unsafe-fp-math"="false" "use-soft-float"="false" }
attributes #7 = { cold noreturn nounwind }
attributes #8 = { nounwind readnone speculatable }
attributes #9 = { nobuiltin nounwind "correctly-rounded-divide-sqrt-fp-math"="false" "disable-tail-calls"="false" "less-precise-fpmad"="false" "no-frame-pointer-elim"="false" "no-frame-pointer-elim-non-leaf" "no-infs-fp-math"="false" "no-nans-fp-math"="false" "no-signed-zeros-fp-math"="false" "no-trapping-math"="false" "null-pointer-is-valid"="true" "stack-protector-buffer-size"="4" "target-cpu"="x86-64" "target-features"="+cx8,+fxsr,+mmx,+sse,+sse2,+sse3,+x87" "unsafe-fp-math"="false" "use-soft-float"="false" }
attributes #10 = { nobuiltin nofree "correctly-rounded-divide-sqrt-fp-math"="false" "disable-tail-calls"="false" "less-precise-fpmad"="false" "no-frame-pointer-elim"="false" "no-frame-pointer-elim-non-leaf" "no-infs-fp-math"="false" "no-nans-fp-math"="false" "no-signed-zeros-fp-math"="false" "no-trapping-math"="false" "null-pointer-is-valid"="true" "stack-protector-buffer-size"="4" "target-cpu"="x86-64" "target-features"="+cx8,+fxsr,+mmx,+sse,+sse2,+sse3,+x87" "unsafe-fp-math"="false" "use-soft-float"="false" }
attributes #11 = { nounwind }
attributes #12 = { builtin nounwind }
attributes #13 = { noreturn nounwind }

!llvm.module.flags = !{!0, !1}

!0 = !{i32 1, !"wchar_size", i32 4}
!1 = !{i32 7, !"PIC Level", i32 2}
!2 = !{!3, !5}
!3 = distinct !{!3, !4, !"_ZN4base8internal8BindImplINS_12OnceCallbackEZN7network5mojom5blink34RestrictedCookieManagerAsyncWaiter12GetAllForUrlERKN5blink4KURLERKN3net14SiteForCookiesERK13scoped_refptrIKNS7_14SecurityOriginEEN4mojo16InlinedStructPtrINS5_23CookieManagerGetOptionsEEEPN3WTF6VectorINSL_9StructPtrINS5_22CookieWithAccessResultEEELj0ENSP_18PartitionAllocatorEEEE3$_0JPNS_7RunLoopERSW_EEEDcOT0_DpOT1_: argument 0"}
!4 = distinct !{!4, !"_ZN4base8internal8BindImplINS_12OnceCallbackEZN7network5mojom5blink34RestrictedCookieManagerAsyncWaiter12GetAllForUrlERKN5blink4KURLERKN3net14SiteForCookiesERK13scoped_refptrIKNS7_14SecurityOriginEEN4mojo16InlinedStructPtrINS5_23CookieManagerGetOptionsEEEPN3WTF6VectorINSL_9StructPtrINS5_22CookieWithAccessResultEEELj0ENSP_18PartitionAllocatorEEEE3$_0JPNS_7RunLoopERSW_EEEDcOT0_DpOT1_"}
!5 = distinct !{!5, !6, !"_ZN4base8BindOnceIZN7network5mojom5blink34RestrictedCookieManagerAsyncWaiter12GetAllForUrlERKN5blink4KURLERKN3net14SiteForCookiesERK13scoped_refptrIKNS5_14SecurityOriginEEN4mojo16InlinedStructPtrINS3_23CookieManagerGetOptionsEEEPN3WTF6VectorINSJ_9StructPtrINS3_22CookieWithAccessResultEEELj0ENSN_18PartitionAllocatorEEEE3$_0JPNS_7RunLoopERSU_EEENS_12OnceCallbackINS_8internal14BindTypeHelperIT_JDpT0_EE14UnboundRunTypeEEEOS12_DpOS13_: argument 0"}
!6 = distinct !{!6, !"_ZN4base8BindOnceIZN7network5mojom5blink34RestrictedCookieManagerAsyncWaiter12GetAllForUrlERKN5blink4KURLERKN3net14SiteForCookiesERK13scoped_refptrIKNS5_14SecurityOriginEEN4mojo16InlinedStructPtrINS3_23CookieManagerGetOptionsEEEPN3WTF6VectorINSJ_9StructPtrINS3_22CookieWithAccessResultEEELj0ENSN_18PartitionAllocatorEEEE3$_0JPNS_7RunLoopERSU_EEENS_12OnceCallbackINS_8internal14BindTypeHelperIT_JDpT0_EE14UnboundRunTypeEEEOS12_DpOS13_"}
!7 = !{!8, !10}
!8 = distinct !{!8, !9, !"_ZN4base8internal8BindImplINS_12OnceCallbackEZN7network5mojom5blink34RestrictedCookieManagerAsyncWaiter18SetCanonicalCookieERKN3net15CanonicalCookieERKN5blink4KURLERKNS7_14SiteForCookiesERK13scoped_refptrIKNSB_14SecurityOriginEEPbE3$_1JPNS_7RunLoopERSO_EEEDcOT0_DpOT1_: argument 0"}
!9 = distinct !{!9, !"_ZN4base8internal8BindImplINS_12OnceCallbackEZN7network5mojom5blink34RestrictedCookieManagerAsyncWaiter18SetCanonicalCookieERKN3net15CanonicalCookieERKN5blink4KURLERKNS7_14SiteForCookiesERK13scoped_refptrIKNSB_14SecurityOriginEEPbE3$_1JPNS_7RunLoopERSO_EEEDcOT0_DpOT1_"}
!10 = distinct !{!10, !11, !"_ZN4base8BindOnceIZN7network5mojom5blink34RestrictedCookieManagerAsyncWaiter18SetCanonicalCookieERKN3net15CanonicalCookieERKN5blink4KURLERKNS5_14SiteForCookiesERK13scoped_refptrIKNS9_14SecurityOriginEEPbE3$_1JPNS_7RunLoopERSM_EEENS_12OnceCallbackINS_8internal14BindTypeHelperIT_JDpT0_EE14UnboundRunTypeEEEOSU_DpOSV_: argument 0"}
!11 = distinct !{!11, !"_ZN4base8BindOnceIZN7network5mojom5blink34RestrictedCookieManagerAsyncWaiter18SetCanonicalCookieERKN3net15CanonicalCookieERKN5blink4KURLERKNS5_14SiteForCookiesERK13scoped_refptrIKNS9_14SecurityOriginEEPbE3$_1JPNS_7RunLoopERSM_EEENS_12OnceCallbackINS_8internal14BindTypeHelperIT_JDpT0_EE14UnboundRunTypeEEEOSU_DpOSV_"}
!12 = !{!13, !15}
!13 = distinct !{!13, !14, !"_ZN4base8internal8BindImplINS_12OnceCallbackEZN7network5mojom5blink34RestrictedCookieManagerAsyncWaiter17AddChangeListenerERKN5blink4KURLERKN3net14SiteForCookiesERK13scoped_refptrIKNS7_14SecurityOriginEEN4mojo13PendingRemoteINS5_20CookieChangeListenerEEEE3$_2JPNS_7RunLoopEEEEDcOT0_DpOT1_: argument 0"}
!14 = distinct !{!14, !"_ZN4base8internal8BindImplINS_12OnceCallbackEZN7network5mojom5blink34RestrictedCookieManagerAsyncWaiter17AddChangeListenerERKN5blink4KURLERKN3net14SiteForCookiesERK13scoped_refptrIKNS7_14SecurityOriginEEN4mojo13PendingRemoteINS5_20CookieChangeListenerEEEE3$_2JPNS_7RunLoopEEEEDcOT0_DpOT1_"}
!15 = distinct !{!15, !16, !"_ZN4base8BindOnceIZN7network5mojom5blink34RestrictedCookieManagerAsyncWaiter17AddChangeListenerERKN5blink4KURLERKN3net14SiteForCookiesERK13scoped_refptrIKNS5_14SecurityOriginEEN4mojo13PendingRemoteINS3_20CookieChangeListenerEEEE3$_2JPNS_7RunLoopEEEENS_12OnceCallbackINS_8internal14BindTypeHelperIT_JDpT0_EE14UnboundRunTypeEEEOST_DpOSU_: argument 0"}
!16 = distinct !{!16, !"_ZN4base8BindOnceIZN7network5mojom5blink34RestrictedCookieManagerAsyncWaiter17AddChangeListenerERKN5blink4KURLERKN3net14SiteForCookiesERK13scoped_refptrIKNS5_14SecurityOriginEEN4mojo13PendingRemoteINS3_20CookieChangeListenerEEEE3$_2JPNS_7RunLoopEEEENS_12OnceCallbackINS_8internal14BindTypeHelperIT_JDpT0_EE14UnboundRunTypeEEEOST_DpOSU_"}
!17 = !{!18, !20}
!18 = distinct !{!18, !19, !"_ZN4base8internal8BindImplINS_12OnceCallbackEZN7network5mojom5blink34RestrictedCookieManagerAsyncWaiter19SetCookieFromStringERKN5blink4KURLERKN3net14SiteForCookiesERK13scoped_refptrIKNS7_14SecurityOriginEERKN3WTF6StringEE3$_3JPNS_7RunLoopEEEEDcOT0_DpOT1_: argument 0"}
!19 = distinct !{!19, !"_ZN4base8internal8BindImplINS_12OnceCallbackEZN7network5mojom5blink34RestrictedCookieManagerAsyncWaiter19SetCookieFromStringERKN5blink4KURLERKN3net14SiteForCookiesERK13scoped_refptrIKNS7_14SecurityOriginEERKN3WTF6StringEE3$_3JPNS_7RunLoopEEEEDcOT0_DpOT1_"}
!20 = distinct !{!20, !21, !"_ZN4base8BindOnceIZN7network5mojom5blink34RestrictedCookieManagerAsyncWaiter19SetCookieFromStringERKN5blink4KURLERKN3net14SiteForCookiesERK13scoped_refptrIKNS5_14SecurityOriginEERKN3WTF6StringEE3$_3JPNS_7RunLoopEEEENS_12OnceCallbackINS_8internal14BindTypeHelperIT_JDpT0_EE14UnboundRunTypeEEEOST_DpOSU_: argument 0"}
!21 = distinct !{!21, !"_ZN4base8BindOnceIZN7network5mojom5blink34RestrictedCookieManagerAsyncWaiter19SetCookieFromStringERKN5blink4KURLERKN3net14SiteForCookiesERK13scoped_refptrIKNS5_14SecurityOriginEERKN3WTF6StringEE3$_3JPNS_7RunLoopEEEENS_12OnceCallbackINS_8internal14BindTypeHelperIT_JDpT0_EE14UnboundRunTypeEEEOST_DpOSU_"}
!22 = !{!23, !25}
!23 = distinct !{!23, !24, !"_ZN4base8internal8BindImplINS_12OnceCallbackEZN7network5mojom5blink34RestrictedCookieManagerAsyncWaiter16GetCookiesStringERKN5blink4KURLERKN3net14SiteForCookiesERK13scoped_refptrIKNS7_14SecurityOriginEEPN3WTF6StringEE3$_4JPNS_7RunLoopERSN_EEEDcOT0_DpOT1_: argument 0"}
!24 = distinct !{!24, !"_ZN4base8internal8BindImplINS_12OnceCallbackEZN7network5mojom5blink34RestrictedCookieManagerAsyncWaiter16GetCookiesStringERKN5blink4KURLERKN3net14SiteForCookiesERK13scoped_refptrIKNS7_14SecurityOriginEEPN3WTF6StringEE3$_4JPNS_7RunLoopERSN_EEEDcOT0_DpOT1_"}
!25 = distinct !{!25, !26, !"_ZN4base8BindOnceIZN7network5mojom5blink34RestrictedCookieManagerAsyncWaiter16GetCookiesStringERKN5blink4KURLERKN3net14SiteForCookiesERK13scoped_refptrIKNS5_14SecurityOriginEEPN3WTF6StringEE3$_4JPNS_7RunLoopERSL_EEENS_12OnceCallbackINS_8internal14BindTypeHelperIT_JDpT0_EE14UnboundRunTypeEEEOST_DpOSU_: argument 0"}
!26 = distinct !{!26, !"_ZN4base8BindOnceIZN7network5mojom5blink34RestrictedCookieManagerAsyncWaiter16GetCookiesStringERKN5blink4KURLERKN3net14SiteForCookiesERK13scoped_refptrIKNS5_14SecurityOriginEEPN3WTF6StringEE3$_4JPNS_7RunLoopERSL_EEENS_12OnceCallbackINS_8internal14BindTypeHelperIT_JDpT0_EE14UnboundRunTypeEEEOST_DpOSU_"}
!27 = !{!28, !30}
!28 = distinct !{!28, !29, !"_ZN4base8internal8BindImplINS_12OnceCallbackEZN7network5mojom5blink34RestrictedCookieManagerAsyncWaiter17CookiesEnabledForERKN5blink4KURLERKN3net14SiteForCookiesERK13scoped_refptrIKNS7_14SecurityOriginEEPbE3$_5JPNS_7RunLoopERSL_EEEDcOT0_DpOT1_: argument 0"}
!29 = distinct !{!29, !"_ZN4base8internal8BindImplINS_12OnceCallbackEZN7network5mojom5blink34RestrictedCookieManagerAsyncWaiter17CookiesEnabledForERKN5blink4KURLERKN3net14SiteForCookiesERK13scoped_refptrIKNS7_14SecurityOriginEEPbE3$_5JPNS_7RunLoopERSL_EEEDcOT0_DpOT1_"}
!30 = distinct !{!30, !31, !"_ZN4base8BindOnceIZN7network5mojom5blink34RestrictedCookieManagerAsyncWaiter17CookiesEnabledForERKN5blink4KURLERKN3net14SiteForCookiesERK13scoped_refptrIKNS5_14SecurityOriginEEPbE3$_5JPNS_7RunLoopERSJ_EEENS_12OnceCallbackINS_8internal14BindTypeHelperIT_JDpT0_EE14UnboundRunTypeEEEOSR_DpOSS_: argument 0"}
!31 = distinct !{!31, !"_ZN4base8BindOnceIZN7network5mojom5blink34RestrictedCookieManagerAsyncWaiter17CookiesEnabledForERKN5blink4KURLERKN3net14SiteForCookiesERK13scoped_refptrIKNS5_14SecurityOriginEEPbE3$_5JPNS_7RunLoopERSJ_EEENS_12OnceCallbackINS_8internal14BindTypeHelperIT_JDpT0_EE14UnboundRunTypeEEEOSR_DpOSS_"}
!32 = !{!"branch_weights", i32 1, i32 2000}
!33 = !{!"branch_weights", i32 2000, i32 1}
