; ModuleID = '../../third_party/blink/renderer/platform/peerconnection/rtc_video_encoder.cc'
source_filename = "../../third_party/blink/renderer/platform/peerconnection/rtc_video_encoder.cc"
target datalayout = "e-m:e-i64:64-f80:128-n8:16:32:64-S128"
target triple = "x86_64-unknown-linux-gnu"

module asm ".symver exp, exp@GLIBC_2.2.5"
module asm ".symver exp2, exp2@GLIBC_2.2.5"
module asm ".symver exp2f, exp2f@GLIBC_2.2.5"
module asm ".symver expf, expf@GLIBC_2.2.5"
module asm ".symver lgamma, lgamma@GLIBC_2.2.5"
module asm ".symver lgammaf, lgammaf@GLIBC_2.2.5"
module asm ".symver lgammal, lgammal@GLIBC_2.2.5"
module asm ".symver log, log@GLIBC_2.2.5"
module asm ".symver log2, log2@GLIBC_2.2.5"
module asm ".symver log2f, log2f@GLIBC_2.2.5"
module asm ".symver logf, logf@GLIBC_2.2.5"
module asm ".symver pow, pow@GLIBC_2.2.5"
module asm ".symver powf, powf@GLIBC_2.2.5"

%"struct.base::Feature" = type { i8*, i32 }
%"struct.webrtc::VideoPlayoutDelay" = type { i32, i32 }
%"class.rtc::scoped_refptr.222" = type { %"class.webrtc::EncodedImageBufferInterface"* }
%"class.webrtc::EncodedImageBufferInterface" = type { %"class.rtc::RefCountInterface" }
%"class.rtc::RefCountInterface" = type { i32 (...)** }
%union.anon.15 = type { i32 }
%"class.std::__1::map" = type { %"class.std::__1::__tree" }
%"class.std::__1::__tree" = type { %"class.std::__1::__tree_end_node"*, %"class.std::__1::__compressed_pair.223", %"class.std::__1::__compressed_pair.228" }
%"class.std::__1::__tree_end_node" = type { %"class.std::__1::__tree_node_base"* }
%"class.std::__1::__tree_node_base" = type <{ %"class.std::__1::__tree_end_node", %"class.std::__1::__tree_node_base"*, %"class.std::__1::__tree_end_node"*, i8, [7 x i8] }>
%"class.std::__1::__compressed_pair.223" = type { %"struct.std::__1::__compressed_pair_elem.224" }
%"struct.std::__1::__compressed_pair_elem.224" = type { %"class.std::__1::__tree_end_node" }
%"class.std::__1::__compressed_pair.228" = type { %"struct.std::__1::__compressed_pair_elem" }
%"struct.std::__1::__compressed_pair_elem" = type { i64 }
%union.anon.10 = type { %"struct.webrtc::HdrMetadata" }
%"struct.webrtc::HdrMetadata" = type { %"struct.webrtc::HdrMasteringMetadata", i32, i32 }
%"struct.webrtc::HdrMasteringMetadata" = type { %"struct.webrtc::HdrMasteringMetadata::Chromaticity", %"struct.webrtc::HdrMasteringMetadata::Chromaticity", %"struct.webrtc::HdrMasteringMetadata::Chromaticity", %"struct.webrtc::HdrMasteringMetadata::Chromaticity", float, float }
%"struct.webrtc::HdrMasteringMetadata::Chromaticity" = type { float, float }
%union.anon.234 = type { i16 }
%"class.webrtc::RtpPacketInfos" = type { %"class.rtc::scoped_refptr.21" }
%"class.rtc::scoped_refptr.21" = type { %"class.webrtc::RtpPacketInfos::Data"* }
%"class.webrtc::RtpPacketInfos::Data" = type { %"class.rtc::RefCountedBase.base", %"class.std::__1::vector" }
%"class.rtc::RefCountedBase.base" = type <{ i32 (...)**, %"class.webrtc::webrtc_impl::RefCounter" }>
%"class.webrtc::webrtc_impl::RefCounter" = type { %"struct.std::__1::atomic" }
%"struct.std::__1::atomic" = type { %"struct.std::__1::__atomic_base" }
%"struct.std::__1::__atomic_base" = type { %"struct.std::__1::__atomic_base.0" }
%"struct.std::__1::__atomic_base.0" = type { %"struct.std::__1::__cxx_atomic_impl" }
%"struct.std::__1::__cxx_atomic_impl" = type { %"struct.std::__1::__cxx_atomic_base_impl" }
%"struct.std::__1::__cxx_atomic_base_impl" = type { i32 }
%"class.std::__1::vector" = type { %"class.std::__1::__vector_base" }
%"class.std::__1::__vector_base" = type { %"class.webrtc::RtpPacketInfo"*, %"class.webrtc::RtpPacketInfo"*, %"class.std::__1::__compressed_pair.44" }
%"class.webrtc::RtpPacketInfo" = type { i32, %"class.std::__1::vector.22", i32, %"class.absl::optional.29", %"class.absl::optional.34", %"class.absl::optional.39", %"class.webrtc::Timestamp" }
%"class.std::__1::vector.22" = type { %"class.std::__1::__vector_base.23" }
%"class.std::__1::__vector_base.23" = type { i32*, i32*, %"class.std::__1::__compressed_pair.24" }
%"class.std::__1::__compressed_pair.24" = type { %"struct.std::__1::__compressed_pair_elem.25" }
%"struct.std::__1::__compressed_pair_elem.25" = type { i32* }
%"class.absl::optional.29" = type { %"class.absl::optional_internal::optional_data.30" }
%"class.absl::optional_internal::optional_data.30" = type { %"class.absl::optional_internal::optional_data_base.31" }
%"class.absl::optional_internal::optional_data_base.31" = type { %"class.absl::optional_internal::optional_data_dtor_base.32" }
%"class.absl::optional_internal::optional_data_dtor_base.32" = type { i8, %union.anon.33 }
%union.anon.33 = type { i8 }
%"class.absl::optional.34" = type { %"class.absl::optional_internal::optional_data.35" }
%"class.absl::optional_internal::optional_data.35" = type { %"class.absl::optional_internal::optional_data_base.36" }
%"class.absl::optional_internal::optional_data_base.36" = type { %"class.absl::optional_internal::optional_data_dtor_base.37" }
%"class.absl::optional_internal::optional_data_dtor_base.37" = type { i8, %union.anon.38 }
%union.anon.38 = type { %"struct.webrtc::AbsoluteCaptureTime" }
%"struct.webrtc::AbsoluteCaptureTime" = type { i64, %"class.absl::optional.39" }
%"class.absl::optional.39" = type { %"class.absl::optional_internal::optional_data.40" }
%"class.absl::optional_internal::optional_data.40" = type { %"class.absl::optional_internal::optional_data_base.41" }
%"class.absl::optional_internal::optional_data_base.41" = type { %"class.absl::optional_internal::optional_data_dtor_base.42" }
%"class.absl::optional_internal::optional_data_dtor_base.42" = type { i8, %union.anon.43 }
%union.anon.43 = type { i64 }
%"class.webrtc::Timestamp" = type { %"class.webrtc::rtc_units_impl::UnitBase" }
%"class.webrtc::rtc_units_impl::UnitBase" = type { i64 }
%"class.std::__1::__compressed_pair.44" = type { %"struct.std::__1::__compressed_pair_elem.45" }
%"struct.std::__1::__compressed_pair_elem.45" = type { %"class.webrtc::RtpPacketInfo"* }
%"class.std::__1::locale::id" = type <{ %"struct.std::__1::once_flag", i32, [4 x i8] }>
%"struct.std::__1::once_flag" = type { i64 }
%"class.blink::RTCVideoEncoder::Impl" = type <{ %"class.media::VideoEncodeAccelerator::Client", %"class.base::RefCountedThreadSafe", [4 x i8], %"class.media::GpuVideoAcceleratorFactories"*, %"class.(anonymous namespace)::ScopedSignaledValue", %"class.(anonymous namespace)::ScopedSignaledValue", %"class.std::__1::unique_ptr", %"class.WTF::Deque", i8, [7 x i8], %"class.webrtc::VideoFrame"*, i8, [3 x i8], %"class.gfx::Size", %"class.gfx::Size", [4 x i8], %"class.WTF::Vector", %"class.WTF::Vector.63", %"class.WTF::Vector.68", i32, i8, [3 x i8], %class.scoped_refptr.73, %"class.webrtc::EncodedImageCallback"*, i32, i8, [3 x i8], %"struct.webrtc::VideoEncoder::EncoderInfo", %"class.absl::InlinedVector.95", %"class.base::Lock", i32, [4 x i8] }>
%"class.media::VideoEncodeAccelerator::Client" = type { i32 (...)** }
%"class.base::RefCountedThreadSafe" = type { %"class.base::subtle::RefCountedThreadSafeBase" }
%"class.base::subtle::RefCountedThreadSafeBase" = type { %"class.base::AtomicRefCount" }
%"class.base::AtomicRefCount" = type { %"struct.std::__1::atomic" }
%"class.(anonymous namespace)::ScopedSignaledValue" = type { %"class.(anonymous namespace)::SignaledValue" }
%"class.(anonymous namespace)::SignaledValue" = type { %"class.base::WaitableEvent"*, i32* }
%"class.base::WaitableEvent" = type <{ %class.scoped_refptr, i8, [7 x i8] }>
%class.scoped_refptr = type { %"struct.base::WaitableEvent::WaitableEventKernel"* }
%"struct.base::WaitableEvent::WaitableEventKernel" = type { %"class.base::RefCountedThreadSafe.1", %"class.base::Lock", i8, i8, %"class.std::__1::list" }
%"class.base::RefCountedThreadSafe.1" = type { %"class.base::subtle::RefCountedThreadSafeBase" }
%"class.std::__1::list" = type { %"class.std::__1::__list_imp" }
%"class.std::__1::__list_imp" = type { %"struct.std::__1::__list_node_base", %"class.std::__1::__compressed_pair" }
%"struct.std::__1::__list_node_base" = type { %"struct.std::__1::__list_node_base"*, %"struct.std::__1::__list_node_base"* }
%"class.std::__1::__compressed_pair" = type { %"struct.std::__1::__compressed_pair_elem" }
%"class.std::__1::unique_ptr" = type { %"class.std::__1::__compressed_pair.3" }
%"class.std::__1::__compressed_pair.3" = type { %"struct.std::__1::__compressed_pair_elem.4" }
%"struct.std::__1::__compressed_pair_elem.4" = type { %"class.media::VideoEncodeAccelerator"* }
%"class.media::VideoEncodeAccelerator" = type { i32 (...)** }
%"class.WTF::Deque" = type { %"class.WTF::Deque<blink::(anonymous namespace)::RTCTimestamps, 0, WTF::PartitionAllocator>::BackingBuffer", i32, i32 }
%"class.WTF::Deque<blink::(anonymous namespace)::RTCTimestamps, 0, WTF::PartitionAllocator>::BackingBuffer" = type { %"class.WTF::VectorBuffer" }
%"class.WTF::VectorBuffer" = type { %"class.WTF::VectorBufferBase" }
%"class.WTF::VectorBufferBase" = type { %"struct.blink::(anonymous namespace)::RTCTimestamps"*, i32, i32 }
%"struct.blink::(anonymous namespace)::RTCTimestamps" = type { %"class.base::TimeDelta", i32, i64 }
%"class.base::TimeDelta" = type { i64 }
%"class.webrtc::VideoFrame" = type { i16, %"class.rtc::scoped_refptr", i32, i64, i64, i32, %"class.absl::optional", %"class.absl::optional.11", %"class.absl::optional.16", %"class.webrtc::RtpPacketInfos", %"class.absl::optional.49" }
%"class.rtc::scoped_refptr" = type { %"class.webrtc::VideoFrameBuffer"* }
%"class.webrtc::VideoFrameBuffer" = type { %"class.rtc::RefCountInterface" }
%"class.absl::optional" = type { %"class.absl::optional_internal::optional_data" }
%"class.absl::optional_internal::optional_data" = type { %"class.absl::optional_internal::optional_data_base" }
%"class.absl::optional_internal::optional_data_base" = type { %"class.absl::optional_internal::optional_data_dtor_base" }
%"class.absl::optional_internal::optional_data_dtor_base" = type { i8, %union.anon }
%union.anon = type { %"class.webrtc::ColorSpace" }
%"class.webrtc::ColorSpace" = type { i8, i8, i8, i32, i32, i32, %"class.absl::optional.6" }
%"class.absl::optional.6" = type { %"class.absl::optional_internal::optional_data.7" }
%"class.absl::optional_internal::optional_data.7" = type { %"class.absl::optional_internal::optional_data_base.8" }
%"class.absl::optional_internal::optional_data_base.8" = type { %"class.absl::optional_internal::optional_data_dtor_base.9" }
%"class.absl::optional_internal::optional_data_dtor_base.9" = type { i8, %union.anon.10 }
%"class.absl::optional.11" = type { %"class.absl::optional_internal::optional_data.12" }
%"class.absl::optional_internal::optional_data.12" = type { %"class.absl::optional_internal::optional_data_base.13" }
%"class.absl::optional_internal::optional_data_base.13" = type { %"class.absl::optional_internal::optional_data_dtor_base.14" }
%"class.absl::optional_internal::optional_data_dtor_base.14" = type { i8, %union.anon.15 }
%"class.absl::optional.16" = type { %"class.absl::optional_internal::optional_data.17" }
%"class.absl::optional_internal::optional_data.17" = type { %"class.absl::optional_internal::optional_data_base.18" }
%"class.absl::optional_internal::optional_data_base.18" = type { %"class.absl::optional_internal::optional_data_dtor_base.19" }
%"class.absl::optional_internal::optional_data_dtor_base.19" = type { i8, %union.anon.20 }
%union.anon.20 = type { %"struct.webrtc::VideoFrame::UpdateRect" }
%"struct.webrtc::VideoFrame::UpdateRect" = type { i32, i32, i32, i32 }
%"class.absl::optional.49" = type { %"class.absl::optional_internal::optional_data.50" }
%"class.absl::optional_internal::optional_data.50" = type { %"class.absl::optional_internal::optional_data_base.51" }
%"class.absl::optional_internal::optional_data_base.51" = type { %"class.absl::optional_internal::optional_data_dtor_base.52" }
%"class.absl::optional_internal::optional_data_dtor_base.52" = type { i8, %union.anon.53 }
%union.anon.53 = type { %"struct.webrtc::VideoFrame::ProcessingTime" }
%"struct.webrtc::VideoFrame::ProcessingTime" = type { %"class.webrtc::Timestamp", %"class.webrtc::Timestamp" }
%"class.gfx::Size" = type { i32, i32 }
%"class.WTF::Vector" = type { %"class.WTF::VectorBuffer.54" }
%"class.WTF::VectorBuffer.54" = type { %"class.WTF::VectorBufferBase.55" }
%"class.WTF::VectorBufferBase.55" = type { %"class.std::__1::unique_ptr.56"*, i32, i32 }
%"class.std::__1::unique_ptr.56" = type { %"class.std::__1::__compressed_pair.57" }
%"class.std::__1::__compressed_pair.57" = type { %"struct.std::__1::__compressed_pair_elem.58" }
%"struct.std::__1::__compressed_pair_elem.58" = type { %"struct.std::__1::pair"* }
%"struct.std::__1::pair" = type { %"class.base::UnsafeSharedMemoryRegion", %"class.base::WritableSharedMemoryMapping" }
%"class.base::UnsafeSharedMemoryRegion" = type { %"class.base::subtle::PlatformSharedMemoryRegion" }
%"class.base::subtle::PlatformSharedMemoryRegion" = type { %"struct.base::subtle::ScopedFDPair", i32, i64, %"class.base::UnguessableToken" }
%"struct.base::subtle::ScopedFDPair" = type { %"class.base::ScopedGeneric", %"class.base::ScopedGeneric" }
%"class.base::ScopedGeneric" = type <{ i32 (...)**, %"struct.base::ScopedGeneric<int, base::internal::ScopedFDCloseTraits>::Data", i8, [3 x i8] }>
%"struct.base::ScopedGeneric<int, base::internal::ScopedFDCloseTraits>::Data" = type { i32 }
%"class.base::UnguessableToken" = type { %"class.base::Token" }
%"class.base::Token" = type { i64, i64 }
%"class.base::WritableSharedMemoryMapping" = type { %"class.base::SharedMemoryMapping" }
%"class.base::SharedMemoryMapping" = type { i32 (...)**, i8*, i64, i64, %"class.base::UnguessableToken" }
%"class.WTF::Vector.63" = type { %"class.WTF::VectorBuffer.64" }
%"class.WTF::VectorBuffer.64" = type { %"class.WTF::VectorBufferBase.65" }
%"class.WTF::VectorBufferBase.65" = type { %"struct.std::__1::pair"*, i32, i32 }
%"class.WTF::Vector.68" = type { %"class.WTF::VectorBuffer.69" }
%"class.WTF::VectorBuffer.69" = type { %"class.WTF::VectorBufferBase.70" }
%"class.WTF::VectorBufferBase.70" = type { i32*, i32, i32 }
%class.scoped_refptr.73 = type { %"class.media::VideoFrame"* }
%"class.media::VideoFrame" = type { i32 (...)**, %"class.base::RefCountedThreadSafe.102", %"class.media::VideoFrameLayout", %class.scoped_refptr.73, i32, %"class.gfx::Rect", %"class.gfx::Size", [4 x i8*], [4 x %"struct.gpu::MailboxHolder"], %"class.base::OnceCallback", %"class.base::UnsafeSharedMemoryRegion"*, %"class.base::UnsafeSharedMemoryRegion", %"class.base::WritableSharedMemoryMapping", %"class.std::__1::unique_ptr.112", %class.scoped_refptr.118, %"class.std::__1::vector.119", %"class.base::TimeDelta", %"class.base::Lock", %"struct.gpu::SyncToken", %"struct.media::VideoFrameMetadata", i32, %"class.gfx::ColorSpace", %"class.absl::optional.162", [4 x i8], %"class.absl::optional.167", %"class.std::__1::unique_ptr.172" }
%"class.base::RefCountedThreadSafe.102" = type { %"class.base::subtle::RefCountedThreadSafeBase" }
%"class.media::VideoFrameLayout" = type { i32, %"class.gfx::Size", %"class.std::__1::vector.103", i8, i64, i64 }
%"class.std::__1::vector.103" = type { %"class.std::__1::__vector_base.104" }
%"class.std::__1::__vector_base.104" = type { %"struct.media::ColorPlaneLayout"*, %"struct.media::ColorPlaneLayout"*, %"class.std::__1::__compressed_pair.105" }
%"struct.media::ColorPlaneLayout" = type { i32, i64, i64 }
%"class.std::__1::__compressed_pair.105" = type { %"struct.std::__1::__compressed_pair_elem.106" }
%"struct.std::__1::__compressed_pair_elem.106" = type { %"struct.media::ColorPlaneLayout"* }
%"class.gfx::Rect" = type { %"class.gfx::Point", %"class.gfx::Size" }
%"class.gfx::Point" = type { i32, i32 }
%"struct.gpu::MailboxHolder" = type <{ %"struct.gpu::Mailbox", %"struct.gpu::SyncToken", i32, [4 x i8] }>
%"struct.gpu::Mailbox" = type { [16 x i8] }
%"class.base::OnceCallback" = type { %"class.base::internal::CallbackBase" }
%"class.base::internal::CallbackBase" = type { %class.scoped_refptr.110 }
%class.scoped_refptr.110 = type { %"class.base::internal::BindStateBase"* }
%"class.base::internal::BindStateBase" = type { %"class.base::RefCountedThreadSafe.111", void ()*, void (%"class.base::internal::BindStateBase"*)*, i1 (%"class.base::internal::BindStateBase"*, i32)* }
%"class.base::RefCountedThreadSafe.111" = type { %"class.base::subtle::RefCountedThreadSafeBase" }
%"class.std::__1::unique_ptr.112" = type { %"class.std::__1::__compressed_pair.113" }
%"class.std::__1::__compressed_pair.113" = type { %"struct.std::__1::__compressed_pair_elem.114" }
%"struct.std::__1::__compressed_pair_elem.114" = type { %"class.gfx::GpuMemoryBuffer"* }
%"class.gfx::GpuMemoryBuffer" = type { i32 (...)** }
%class.scoped_refptr.118 = type { %"class.media::VideoFrame::DmabufHolder"* }
%"class.media::VideoFrame::DmabufHolder" = type opaque
%"class.std::__1::vector.119" = type { %"class.std::__1::__vector_base.120" }
%"class.std::__1::__vector_base.120" = type { %"class.base::OnceCallback.121"*, %"class.base::OnceCallback.121"*, %"class.std::__1::__compressed_pair.122" }
%"class.base::OnceCallback.121" = type { %"class.base::internal::CallbackBase" }
%"class.std::__1::__compressed_pair.122" = type { %"struct.std::__1::__compressed_pair_elem.123" }
%"struct.std::__1::__compressed_pair_elem.123" = type { %"class.base::OnceCallback.121"* }
%"struct.gpu::SyncToken" = type { i8, i8, %"class.util::IdType", i64 }
%"class.util::IdType" = type { %"class.base::StrongAlias" }
%"class.base::StrongAlias" = type { i64 }
%"struct.media::VideoFrameMetadata" = type { i8, %"class.absl::optional.127", %"class.absl::optional.127", %"class.absl::optional.11", %"class.absl::optional.132", %"class.absl::optional.137", i8, %"class.absl::optional.142", %"class.absl::optional.147", i8, %"class.absl::optional.127", i8, [3 x i8], %"class.absl::optional.152", i8, i8, i8, i8, i32, %"class.absl::optional.157", i8, %"class.absl::optional.147", %"class.absl::optional.147", %"class.absl::optional.147", %"class.absl::optional.147", %"class.absl::optional.147", %"class.absl::optional.127", %"class.absl::optional.127", %"class.absl::optional.142", %"class.absl::optional.147", %"class.absl::optional.127", %"class.absl::optional.142", %"class.absl::optional.11" }
%"class.absl::optional.132" = type { %"class.absl::optional_internal::optional_data.133" }
%"class.absl::optional_internal::optional_data.133" = type { %"class.absl::optional_internal::optional_data_base.134" }
%"class.absl::optional_internal::optional_data_base.134" = type { %"class.absl::optional_internal::optional_data_dtor_base.135" }
%"class.absl::optional_internal::optional_data_dtor_base.135" = type { i8, %union.anon.136 }
%union.anon.136 = type { %"class.gfx::Rect" }
%"class.absl::optional.137" = type { %"class.absl::optional_internal::optional_data.138" }
%"class.absl::optional_internal::optional_data.138" = type { %"class.absl::optional_internal::optional_data_base.139" }
%"class.absl::optional_internal::optional_data_base.139" = type { %"class.absl::optional_internal::optional_data_dtor_base.140" }
%"class.absl::optional_internal::optional_data_dtor_base.140" = type { i8, %union.anon.141 }
%union.anon.141 = type { i32 }
%"class.absl::optional.152" = type { %"class.absl::optional_internal::optional_data.153" }
%"class.absl::optional_internal::optional_data.153" = type { %"class.absl::optional_internal::optional_data_base.154" }
%"class.absl::optional_internal::optional_data_base.154" = type { %"class.absl::optional_internal::optional_data_dtor_base.155" }
%"class.absl::optional_internal::optional_data_dtor_base.155" = type { i8, [3 x i8], %union.anon.156 }
%union.anon.156 = type { %"struct.media::VideoTransformation" }
%"struct.media::VideoTransformation" = type <{ i32, i8, [3 x i8] }>
%"class.absl::optional.157" = type { %"class.absl::optional_internal::optional_data.158" }
%"class.absl::optional_internal::optional_data.158" = type { %"class.absl::optional_internal::optional_data_base.159" }
%"class.absl::optional_internal::optional_data_base.159" = type { %"class.absl::optional_internal::optional_data_dtor_base.160" }
%"class.absl::optional_internal::optional_data_dtor_base.160" = type { i8, %union.anon.161 }
%union.anon.161 = type { %"class.base::UnguessableToken" }
%"class.absl::optional.147" = type { %"class.absl::optional_internal::optional_data.148" }
%"class.absl::optional_internal::optional_data.148" = type { %"class.absl::optional_internal::optional_data_base.149" }
%"class.absl::optional_internal::optional_data_base.149" = type { %"class.absl::optional_internal::optional_data_dtor_base.150" }
%"class.absl::optional_internal::optional_data_dtor_base.150" = type { i8, %union.anon.151 }
%union.anon.151 = type { double }
%"class.absl::optional.127" = type { %"class.absl::optional_internal::optional_data.128" }
%"class.absl::optional_internal::optional_data.128" = type { %"class.absl::optional_internal::optional_data_base.129" }
%"class.absl::optional_internal::optional_data_base.129" = type { %"class.absl::optional_internal::optional_data_dtor_base.130" }
%"class.absl::optional_internal::optional_data_dtor_base.130" = type { i8, %union.anon.131 }
%union.anon.131 = type { %"class.base::TimeTicks" }
%"class.base::TimeTicks" = type { %"class.base::time_internal::TimeBase" }
%"class.base::time_internal::TimeBase" = type { i64 }
%"class.absl::optional.142" = type { %"class.absl::optional_internal::optional_data.143" }
%"class.absl::optional_internal::optional_data.143" = type { %"class.absl::optional_internal::optional_data_base.144" }
%"class.absl::optional_internal::optional_data_base.144" = type { %"class.absl::optional_internal::optional_data_dtor_base.145" }
%"class.absl::optional_internal::optional_data_dtor_base.145" = type { i8, %union.anon.146 }
%union.anon.146 = type { %"class.base::TimeDelta" }
%"class.gfx::ColorSpace" = type { i8, i8, i8, i8, [9 x float], [7 x float] }
%"class.absl::optional.162" = type { %"class.absl::optional_internal::optional_data.163" }
%"class.absl::optional_internal::optional_data.163" = type { %"class.absl::optional_internal::optional_data_base.164" }
%"class.absl::optional_internal::optional_data_base.164" = type { %"class.absl::optional_internal::optional_data_dtor_base.165" }
%"class.absl::optional_internal::optional_data_dtor_base.165" = type { i8, %union.anon.166 }
%union.anon.166 = type { %"struct.gfx::HDRMetadata" }
%"struct.gfx::HDRMetadata" = type { %"struct.gfx::MasteringMetadata", i32, i32 }
%"struct.gfx::MasteringMetadata" = type { %"class.gfx::PointF", %"class.gfx::PointF", %"class.gfx::PointF", %"class.gfx::PointF", float, float }
%"class.gfx::PointF" = type { float, float }
%"class.absl::optional.167" = type { %"class.absl::optional_internal::optional_data.168" }
%"class.absl::optional_internal::optional_data.168" = type { %"class.absl::optional_internal::optional_data_base.169" }
%"class.absl::optional_internal::optional_data_base.169" = type { %"class.absl::optional_internal::optional_data_dtor_base.170" }
%"class.absl::optional_internal::optional_data_dtor_base.170" = type { i8, [7 x i8], %union.anon.171 }
%union.anon.171 = type { %"struct.gpu::VulkanYCbCrInfo" }
%"struct.gpu::VulkanYCbCrInfo" = type <{ i32, [4 x i8], i64, i32, i32, i32, i32, i32, [4 x i8] }>
%"class.std::__1::unique_ptr.172" = type { %"class.std::__1::__compressed_pair.173" }
%"class.std::__1::__compressed_pair.173" = type { %"struct.std::__1::__compressed_pair_elem.174" }
%"struct.std::__1::__compressed_pair_elem.174" = type { i8* }
%"class.webrtc::EncodedImageCallback" = type { i32 (...)** }
%"struct.webrtc::VideoEncoder::EncoderInfo" = type { %"struct.webrtc::VideoEncoder::ScalingSettings", i32, i8, i8, %"class.std::__1::basic_string", i8, i8, i8, [5 x %"class.absl::InlinedVector"], %"class.std::__1::vector.88", i8, %"class.absl::InlinedVector.95" }
%"struct.webrtc::VideoEncoder::ScalingSettings" = type { %"class.absl::optional.74", i32 }
%"class.absl::optional.74" = type { %"class.absl::optional_internal::optional_data.75" }
%"class.absl::optional_internal::optional_data.75" = type { %"class.absl::optional_internal::optional_data_base.76" }
%"class.absl::optional_internal::optional_data_base.76" = type { %"class.absl::optional_internal::optional_data_dtor_base.77" }
%"class.absl::optional_internal::optional_data_dtor_base.77" = type { i8, %union.anon.78 }
%union.anon.78 = type { %"struct.webrtc::VideoEncoder::QpThresholds" }
%"struct.webrtc::VideoEncoder::QpThresholds" = type { i32, i32 }
%"class.std::__1::basic_string" = type { %"class.std::__1::__compressed_pair.79" }
%"class.std::__1::__compressed_pair.79" = type { %"struct.std::__1::__compressed_pair_elem.80" }
%"struct.std::__1::__compressed_pair_elem.80" = type { %"struct.std::__1::basic_string<char, std::__1::char_traits<char>, std::__1::allocator<char> >::__rep" }
%"struct.std::__1::basic_string<char, std::__1::char_traits<char>, std::__1::allocator<char> >::__rep" = type { %union.anon.81 }
%union.anon.81 = type { %"struct.std::__1::basic_string<char, std::__1::char_traits<char>, std::__1::allocator<char> >::__long" }
%"struct.std::__1::basic_string<char, std::__1::char_traits<char>, std::__1::allocator<char> >::__long" = type { i8*, i64, i64 }
%"class.absl::InlinedVector" = type { %"class.absl::inlined_vector_internal::Storage" }
%"class.absl::inlined_vector_internal::Storage" = type { %"class.absl::container_internal::CompressedTuple", %"union.absl::inlined_vector_internal::Storage<unsigned char, 4, std::__1::allocator<unsigned char> >::Data" }
%"class.absl::container_internal::CompressedTuple" = type { %"struct.absl::container_internal::internal_compressed_tuple::CompressedTupleImpl" }
%"struct.absl::container_internal::internal_compressed_tuple::CompressedTupleImpl" = type { %"struct.absl::container_internal::internal_compressed_tuple::Storage.87" }
%"struct.absl::container_internal::internal_compressed_tuple::Storage.87" = type { i64 }
%"union.absl::inlined_vector_internal::Storage<unsigned char, 4, std::__1::allocator<unsigned char> >::Data" = type { %"struct.absl::inlined_vector_internal::Storage<unsigned char, 4, std::__1::allocator<unsigned char> >::Allocated" }
%"struct.absl::inlined_vector_internal::Storage<unsigned char, 4, std::__1::allocator<unsigned char> >::Allocated" = type { i8*, i64 }
%"class.std::__1::vector.88" = type { %"class.std::__1::__vector_base.89" }
%"class.std::__1::__vector_base.89" = type { %"struct.webrtc::VideoEncoder::ResolutionBitrateLimits"*, %"struct.webrtc::VideoEncoder::ResolutionBitrateLimits"*, %"class.std::__1::__compressed_pair.90" }
%"struct.webrtc::VideoEncoder::ResolutionBitrateLimits" = type { i32, i32, i32, i32 }
%"class.std::__1::__compressed_pair.90" = type { %"struct.std::__1::__compressed_pair_elem.91" }
%"struct.std::__1::__compressed_pair_elem.91" = type { %"struct.webrtc::VideoEncoder::ResolutionBitrateLimits"* }
%"class.absl::InlinedVector.95" = type { %"class.absl::inlined_vector_internal::Storage.96" }
%"class.absl::inlined_vector_internal::Storage.96" = type { %"class.absl::container_internal::CompressedTuple.97", %"union.absl::inlined_vector_internal::Storage<webrtc::VideoFrameBuffer::Type, 5, std::__1::allocator<webrtc::VideoFrameBuffer::Type> >::Data" }
%"class.absl::container_internal::CompressedTuple.97" = type { %"struct.absl::container_internal::internal_compressed_tuple::CompressedTupleImpl.98" }
%"struct.absl::container_internal::internal_compressed_tuple::CompressedTupleImpl.98" = type { %"struct.absl::container_internal::internal_compressed_tuple::Storage.87" }
%"union.absl::inlined_vector_internal::Storage<webrtc::VideoFrameBuffer::Type, 5, std::__1::allocator<webrtc::VideoFrameBuffer::Type> >::Data" = type { %"struct.absl::inlined_vector_internal::Storage<webrtc::VideoFrameBuffer::Type, 5, std::__1::allocator<webrtc::VideoFrameBuffer::Type> >::Allocated", [8 x i8] }
%"struct.absl::inlined_vector_internal::Storage<webrtc::VideoFrameBuffer::Type, 5, std::__1::allocator<webrtc::VideoFrameBuffer::Type> >::Allocated" = type { i32*, i64 }
%"class.base::Lock" = type { %"class.base::internal::LockImpl" }
%"class.base::internal::LockImpl" = type { %union.pthread_mutex_t }
%union.pthread_mutex_t = type { %struct.__pthread_mutex_s }
%struct.__pthread_mutex_s = type { i32, i32, i32, i32, i32, i16, i16, %struct.__pthread_internal_list }
%struct.__pthread_internal_list = type { %struct.__pthread_internal_list*, %struct.__pthread_internal_list* }
%"class.media::GpuVideoAcceleratorFactories" = type { i32 (...)** }
%"class.blink::RTCVideoEncoder" = type { %"class.webrtc::VideoEncoder", i32, i8, %"class.media::GpuVideoAcceleratorFactories"*, %class.scoped_refptr.290, %class.scoped_refptr.289 }
%"class.webrtc::VideoEncoder" = type { i32 (...)** }
%class.scoped_refptr.290 = type { %"class.base::SequencedTaskRunner"* }
%"class.base::SequencedTaskRunner" = type { %"class.base::TaskRunner.base", [4 x i8] }
%"class.base::TaskRunner.base" = type <{ i32 (...)**, %"class.base::RefCountedThreadSafe.291" }>
%"class.base::RefCountedThreadSafe.291" = type { %"class.base::subtle::RefCountedThreadSafeBase" }
%class.scoped_refptr.289 = type { %"class.blink::RTCVideoEncoder::Impl"* }
%"struct.std::__1::basic_string<char, std::__1::char_traits<char>, std::__1::allocator<char> >::__short" = type { [23 x i8], %struct.anon }
%struct.anon = type { i8 }
%"struct.media::VideoEncoderInfo" = type { %"class.std::__1::basic_string", i8, i8, i8, i8, [5 x %"class.std::__1::vector.177"], %"class.std::__1::vector.181" }
%"class.std::__1::vector.177" = type { %"class.std::__1::__vector_base.178" }
%"class.std::__1::__vector_base.178" = type { i8*, i8*, %"class.std::__1::__compressed_pair.179" }
%"class.std::__1::__compressed_pair.179" = type { %"struct.std::__1::__compressed_pair_elem.174" }
%"class.std::__1::vector.181" = type { %"class.std::__1::__vector_base.182" }
%"class.std::__1::__vector_base.182" = type { %"struct.media::ResolutionBitrateLimit"*, %"struct.media::ResolutionBitrateLimit"*, %"class.std::__1::__compressed_pair.183" }
%"struct.media::ResolutionBitrateLimit" = type { %"class.gfx::Size", i32, i32, i32 }
%"class.std::__1::__compressed_pair.183" = type { %"struct.std::__1::__compressed_pair_elem.184" }
%"struct.std::__1::__compressed_pair_elem.184" = type { %"struct.media::ResolutionBitrateLimit"* }
%"class.std::__1::__vector_base_common" = type { i8 }
%"class.media::BitstreamBuffer" = type { i32, %"class.base::subtle::PlatformSharedMemoryRegion", i64, i64, %"class.base::TimeDelta", %"class.std::__1::basic_string", %"class.std::__1::basic_string", %"class.std::__1::vector.188" }
%"class.std::__1::vector.188" = type { %"class.std::__1::__vector_base.189" }
%"class.std::__1::__vector_base.189" = type { %"struct.media::SubsampleEntry"*, %"struct.media::SubsampleEntry"*, %"class.std::__1::__compressed_pair.190" }
%"struct.media::SubsampleEntry" = type { i32, i32 }
%"class.std::__1::__compressed_pair.190" = type { %"struct.std::__1::__compressed_pair_elem.191" }
%"struct.std::__1::__compressed_pair_elem.191" = type { %"struct.media::SubsampleEntry"* }
%"struct.webrtc::VideoEncoder::RateControlParameters" = type { i32 (...)**, %"class.webrtc::VideoBitrateAllocation", %"class.webrtc::VideoBitrateAllocation", double, %"class.webrtc::DataRate" }
%"class.webrtc::VideoBitrateAllocation" = type <{ i32, [5 x [4 x %"class.absl::optional.195"]], i8, [3 x i8] }>
%"class.absl::optional.195" = type { %"class.absl::optional_internal::optional_data.196" }
%"class.absl::optional_internal::optional_data.196" = type { %"class.absl::optional_internal::optional_data_base.197" }
%"class.absl::optional_internal::optional_data_base.197" = type { %"class.absl::optional_internal::optional_data_dtor_base.198" }
%"class.absl::optional_internal::optional_data_dtor_base.198" = type { i8, %union.anon.199 }
%union.anon.199 = type { i32 }
%"class.webrtc::DataRate" = type { %"class.webrtc::rtc_units_impl::RelativeUnit" }
%"class.webrtc::rtc_units_impl::RelativeUnit" = type { %"class.webrtc::rtc_units_impl::UnitBase.200" }
%"class.webrtc::rtc_units_impl::UnitBase.200" = type { i64 }
%"class.logging::CheckOpResult" = type { i8* }
%"class.media::VideoBitrateAllocation" = type { i32, [5 x [4 x i32]] }
%"class.logging::CheckError" = type { %"class.logging::LogMessage"* }
%"class.logging::LogMessage" = type { i32 (...)**, i32, %"class.std::__1::basic_ostringstream", i64, i8*, i32, %"class.base::ScopedClearLastErrorBase" }
%"class.std::__1::basic_ostringstream" = type { %"class.std::__1::basic_ostream.base", %"class.std::__1::basic_stringbuf", %"class.std::__1::basic_ios.base" }
%"class.std::__1::basic_ostream.base" = type { i32 (...)** }
%"class.std::__1::basic_stringbuf" = type <{ %"class.std::__1::basic_streambuf", %"class.std::__1::basic_string", i8*, i32, [4 x i8] }>
%"class.std::__1::basic_streambuf" = type { i32 (...)**, %"class.std::__1::locale", i8*, i8*, i8*, i8*, i8*, i8* }
%"class.std::__1::locale" = type { %"class.std::__1::locale::__imp"* }
%"class.std::__1::locale::__imp" = type opaque
%"class.std::__1::basic_ios.base" = type <{ %"class.std::__1::ios_base", %"class.std::__1::basic_ostream"*, i32 }>
%"class.std::__1::ios_base" = type { i32 (...)**, i32, i64, i64, i32, i32, i8*, i8*, void (i32, %"class.std::__1::ios_base"*, i32)**, i32*, i64, i64, i64*, i64, i64, i8**, i64, i64 }
%"class.std::__1::basic_ostream" = type { i32 (...)**, %"class.std::__1::basic_ios.base" }
%"class.base::ScopedClearLastErrorBase" = type { i32 }
%"class.base::HistogramBase" = type <{ i32 (...)**, i8*, %"struct.std::__1::atomic.206", [4 x i8] }>
%"struct.std::__1::atomic.206" = type { %"struct.std::__1::__atomic_base.207" }
%"struct.std::__1::__atomic_base.207" = type { %"struct.std::__1::__atomic_base.208" }
%"struct.std::__1::__atomic_base.208" = type { %"struct.std::__1::__cxx_atomic_impl.209" }
%"struct.std::__1::__cxx_atomic_impl.209" = type { %"struct.std::__1::__cxx_atomic_base_impl.210" }
%"struct.std::__1::__cxx_atomic_base_impl.210" = type { i32 }
%"class.base::Location" = type { i8*, i8*, i32, i8* }
%"class.WTF::String" = type { %class.scoped_refptr.211 }
%class.scoped_refptr.211 = type { %"class.WTF::StringImpl"* }
%"class.WTF::StringImpl" = type { i32, i32, %"struct.std::__1::atomic.206" }
%"struct.media::BitstreamBufferMetadata" = type { i64, i8, %"class.base::TimeDelta", %"class.absl::optional.212", %"class.absl::optional.217" }
%"class.absl::optional.212" = type { %"class.absl::optional_internal::optional_data.213" }
%"class.absl::optional_internal::optional_data.213" = type { %"class.absl::optional_internal::optional_data_base.214" }
%"class.absl::optional_internal::optional_data_base.214" = type { %"class.absl::optional_internal::optional_data_dtor_base.215" }
%"class.absl::optional_internal::optional_data_dtor_base.215" = type { i8, %union.anon.216 }
%union.anon.216 = type { %"struct.media::Vp8Metadata" }
%"struct.media::Vp8Metadata" = type { i8, i8, i8 }
%"class.absl::optional.217" = type { %"class.absl::optional_internal::optional_data.218" }
%"class.absl::optional_internal::optional_data.218" = type { %"class.absl::optional_internal::optional_data_base.219" }
%"class.absl::optional_internal::optional_data_base.219" = type { %"class.absl::optional_internal::optional_data_dtor_base.220" }
%"class.absl::optional_internal::optional_data_dtor_base.220" = type { i8, %union.anon.221 }
%union.anon.221 = type { %"struct.media::Vp9Metadata" }
%"struct.media::Vp9Metadata" = type { i8, i8, i8, %"class.std::__1::vector.177" }
%"class.webrtc::EncodedImage" = type <{ i32, i32, i64, i64, i32, i32, i8, [3 x i8], i32, %"struct.webrtc::VideoPlayoutDelay", %"struct.webrtc::EncodedImage::Timing", %"class.rtc::scoped_refptr.222", i64, i32, %"class.absl::optional.11", [4 x i8], %"class.std::__1::map", %"class.absl::optional", %"class.absl::optional.230", [4 x i8], %"class.webrtc::RtpPacketInfos", i8, [7 x i8] }>
%"struct.webrtc::EncodedImage::Timing" = type { i8, i64, i64, i64, i64, i64, i64, i64, i64 }
%"class.absl::optional.230" = type { %"class.absl::optional_internal::optional_data.231" }
%"class.absl::optional_internal::optional_data.231" = type { %"class.absl::optional_internal::optional_data_base.232" }
%"class.absl::optional_internal::optional_data_base.232" = type { %"class.absl::optional_internal::optional_data_dtor_base.233" }
%"class.absl::optional_internal::optional_data_dtor_base.233" = type { i8, %union.anon.234 }
%"class.rtc::scoped_refptr.235" = type { %"class.webrtc::EncodedImageBuffer"* }
%"class.webrtc::EncodedImageBuffer" = type { %"class.webrtc::EncodedImageBufferInterface", i64, i8* }
%"struct.webrtc::CodecSpecificInfo" = type { i32, %"union.webrtc::CodecSpecificInfoUnion", i8, %"class.absl::optional.236", %"class.absl::optional.267" }
%"union.webrtc::CodecSpecificInfoUnion" = type { %"struct.webrtc::CodecSpecificInfoVP9" }
%"struct.webrtc::CodecSpecificInfoVP9" = type { i8, i8, i8, i8, i8, i8, i8, i8, i8, i64, i64, i8, [8 x i16], [8 x i16], %"struct.webrtc::GofInfoVP9", i8, [3 x i8], i8 }
%"struct.webrtc::GofInfoVP9" = type { i64, [255 x i8], [255 x i8], [255 x i8], [255 x [3 x i8]], i16 }
%"class.absl::optional.236" = type { %"class.absl::optional_internal::optional_data.237" }
%"class.absl::optional_internal::optional_data.237" = type { %"class.absl::optional_internal::optional_data_base.238" }
%"class.absl::optional_internal::optional_data_base.238" = type { %"class.absl::optional_internal::optional_data_dtor_base.239" }
%"class.absl::optional_internal::optional_data_dtor_base.239" = type { i8, %union.anon.240 }
%union.anon.240 = type { %"struct.webrtc::GenericFrameInfo" }
%"struct.webrtc::GenericFrameInfo" = type { %"struct.webrtc::FrameDependencyTemplate", %"class.absl::InlinedVector.255", %"class.std::__1::vector.262", %"class.std::__1::bitset" }
%"struct.webrtc::FrameDependencyTemplate" = type { i32, i32, %"class.absl::InlinedVector.241", %"class.absl::InlinedVector.248", %"class.absl::InlinedVector.248" }
%"class.absl::InlinedVector.241" = type { %"class.absl::inlined_vector_internal::Storage.242" }
%"class.absl::inlined_vector_internal::Storage.242" = type { %"class.absl::container_internal::CompressedTuple.243", %"union.absl::inlined_vector_internal::Storage<webrtc::DecodeTargetIndication, 10, std::__1::allocator<webrtc::DecodeTargetIndication> >::Data" }
%"class.absl::container_internal::CompressedTuple.243" = type { %"struct.absl::container_internal::internal_compressed_tuple::CompressedTupleImpl.244" }
%"struct.absl::container_internal::internal_compressed_tuple::CompressedTupleImpl.244" = type { %"struct.absl::container_internal::internal_compressed_tuple::Storage.87" }
%"union.absl::inlined_vector_internal::Storage<webrtc::DecodeTargetIndication, 10, std::__1::allocator<webrtc::DecodeTargetIndication> >::Data" = type { %"struct.absl::inlined_vector_internal::Storage<webrtc::DecodeTargetIndication, 10, std::__1::allocator<webrtc::DecodeTargetIndication> >::Allocated", [24 x i8] }
%"struct.absl::inlined_vector_internal::Storage<webrtc::DecodeTargetIndication, 10, std::__1::allocator<webrtc::DecodeTargetIndication> >::Allocated" = type { i32*, i64 }
%"class.absl::InlinedVector.248" = type { %"class.absl::inlined_vector_internal::Storage.249" }
%"class.absl::inlined_vector_internal::Storage.249" = type { %"class.absl::container_internal::CompressedTuple.250", %"union.absl::inlined_vector_internal::Storage<int, 4, std::__1::allocator<int> >::Data" }
%"class.absl::container_internal::CompressedTuple.250" = type { %"struct.absl::container_internal::internal_compressed_tuple::CompressedTupleImpl.251" }
%"struct.absl::container_internal::internal_compressed_tuple::CompressedTupleImpl.251" = type { %"struct.absl::container_internal::internal_compressed_tuple::Storage.87" }
%"union.absl::inlined_vector_internal::Storage<int, 4, std::__1::allocator<int> >::Data" = type { %"struct.absl::inlined_vector_internal::Storage<int, 4, std::__1::allocator<int> >::Allocated" }
%"struct.absl::inlined_vector_internal::Storage<int, 4, std::__1::allocator<int> >::Allocated" = type { i32*, i64 }
%"class.absl::InlinedVector.255" = type { %"class.absl::inlined_vector_internal::Storage.256" }
%"class.absl::inlined_vector_internal::Storage.256" = type { %"class.absl::container_internal::CompressedTuple.257", %"union.absl::inlined_vector_internal::Storage<webrtc::CodecBufferUsage, 8, std::__1::allocator<webrtc::CodecBufferUsage> >::Data" }
%"class.absl::container_internal::CompressedTuple.257" = type { %"struct.absl::container_internal::internal_compressed_tuple::CompressedTupleImpl.258" }
%"struct.absl::container_internal::internal_compressed_tuple::CompressedTupleImpl.258" = type { %"struct.absl::container_internal::internal_compressed_tuple::Storage.87" }
%"union.absl::inlined_vector_internal::Storage<webrtc::CodecBufferUsage, 8, std::__1::allocator<webrtc::CodecBufferUsage> >::Data" = type { %"struct.absl::inlined_vector_internal::Storage<webrtc::CodecBufferUsage, 8, std::__1::allocator<webrtc::CodecBufferUsage> >::Allocated", [48 x i8] }
%"struct.absl::inlined_vector_internal::Storage<webrtc::CodecBufferUsage, 8, std::__1::allocator<webrtc::CodecBufferUsage> >::Allocated" = type { %"struct.webrtc::CodecBufferUsage"*, i64 }
%"struct.webrtc::CodecBufferUsage" = type <{ i32, i8, i8, [2 x i8] }>
%"class.std::__1::vector.262" = type { i64*, i64, %"class.std::__1::__compressed_pair.263" }
%"class.std::__1::__compressed_pair.263" = type { %"struct.std::__1::__compressed_pair_elem" }
%"class.std::__1::bitset" = type { %"class.std::__1::__bitset" }
%"class.std::__1::__bitset" = type { i64 }
%"class.absl::optional.267" = type { %"class.absl::optional_internal::optional_data.268" }
%"class.absl::optional_internal::optional_data.268" = type { %"class.absl::optional_internal::optional_data_base.269" }
%"class.absl::optional_internal::optional_data_base.269" = type { %"class.absl::optional_internal::optional_data_dtor_base.270" }
%"class.absl::optional_internal::optional_data_dtor_base.270" = type { i8, %union.anon.271 }
%union.anon.271 = type { %"struct.webrtc::FrameDependencyStructure" }
%"struct.webrtc::FrameDependencyStructure" = type { i32, i32, i32, %"class.absl::InlinedVector.272", %"class.absl::InlinedVector.274", %"class.std::__1::vector.281" }
%"class.absl::InlinedVector.272" = type { %"class.absl::inlined_vector_internal::Storage.273" }
%"class.absl::inlined_vector_internal::Storage.273" = type { %"class.absl::container_internal::CompressedTuple.250", %"union.absl::inlined_vector_internal::Storage<int, 10, std::__1::allocator<int> >::Data" }
%"union.absl::inlined_vector_internal::Storage<int, 10, std::__1::allocator<int> >::Data" = type { %"struct.absl::inlined_vector_internal::Storage<int, 10, std::__1::allocator<int> >::Allocated", [24 x i8] }
%"struct.absl::inlined_vector_internal::Storage<int, 10, std::__1::allocator<int> >::Allocated" = type { i32*, i64 }
%"class.absl::InlinedVector.274" = type { %"class.absl::inlined_vector_internal::Storage.275" }
%"class.absl::inlined_vector_internal::Storage.275" = type { %"class.absl::container_internal::CompressedTuple.276", %"union.absl::inlined_vector_internal::Storage<webrtc::RenderResolution, 4, std::__1::allocator<webrtc::RenderResolution> >::Data" }
%"class.absl::container_internal::CompressedTuple.276" = type { %"struct.absl::container_internal::internal_compressed_tuple::CompressedTupleImpl.277" }
%"struct.absl::container_internal::internal_compressed_tuple::CompressedTupleImpl.277" = type { %"struct.absl::container_internal::internal_compressed_tuple::Storage.87" }
%"union.absl::inlined_vector_internal::Storage<webrtc::RenderResolution, 4, std::__1::allocator<webrtc::RenderResolution> >::Data" = type { %"struct.absl::inlined_vector_internal::Storage<webrtc::RenderResolution, 4, std::__1::allocator<webrtc::RenderResolution> >::Allocated", [16 x i8] }
%"struct.absl::inlined_vector_internal::Storage<webrtc::RenderResolution, 4, std::__1::allocator<webrtc::RenderResolution> >::Allocated" = type { %"class.webrtc::RenderResolution"*, i64 }
%"class.webrtc::RenderResolution" = type { i32, i32 }
%"class.std::__1::vector.281" = type { %"class.std::__1::__vector_base.282" }
%"class.std::__1::__vector_base.282" = type { %"struct.webrtc::FrameDependencyTemplate"*, %"struct.webrtc::FrameDependencyTemplate"*, %"class.std::__1::__compressed_pair.283" }
%"class.std::__1::__compressed_pair.283" = type { %"struct.std::__1::__compressed_pair_elem.284" }
%"struct.std::__1::__compressed_pair_elem.284" = type { %"struct.webrtc::FrameDependencyTemplate"* }
%"struct.std::__1::default_delete" = type { i8 }
%"class.rtc::scoped_refptr.288" = type { %"class.webrtc::I420BufferInterface"* }
%"class.webrtc::I420BufferInterface" = type { %"class.webrtc::PlanarYuv8Buffer" }
%"class.webrtc::PlanarYuv8Buffer" = type { %"class.webrtc::PlanarYuvBuffer" }
%"class.webrtc::PlanarYuvBuffer" = type { %"class.webrtc::VideoFrameBuffer" }
%"class.blink::WebRtcVideoFrameAdapterInterface" = type { %"class.webrtc::VideoFrameBuffer" }
%"class.base::TaskRunner" = type <{ i32 (...)**, %"class.base::RefCountedThreadSafe.291", [4 x i8] }>
%"class.webrtc::VideoCodec" = type { i32, i16, i16, i32, i32, i32, i32, i8, i32, i8, [3 x %"struct.webrtc::SpatialLayer"], [5 x %"struct.webrtc::SpatialLayer"], i32, i8, %"class.absl::optional.11", %"struct.webrtc::VideoCodec::TimingFrameTriggerThresholds", i8, %"union.webrtc::VideoCodecUnion", %"class.std::__1::basic_string" }
%"struct.webrtc::SpatialLayer" = type { i16, i16, float, i8, i32, i32, i32, i32, i8 }
%"struct.webrtc::VideoCodec::TimingFrameTriggerThresholds" = type { i64, i16 }
%"union.webrtc::VideoCodecUnion" = type { %"struct.webrtc::VideoCodecVP9" }
%"struct.webrtc::VideoCodecVP9" = type { i32, i8, i8, i8, i32, i8, i8, i8, i8, i32 }
%"struct.webrtc::VideoEncoder::Settings" = type { %"struct.webrtc::VideoEncoder::Capabilities", i32, i64 }
%"struct.webrtc::VideoEncoder::Capabilities" = type { i8 }
%"class.WTF::CrossThreadOnceFunction" = type { %"class.base::OnceCallback.121" }
%"class.std::__1::vector.292" = type { %"class.std::__1::__vector_base.293" }
%"class.std::__1::__vector_base.293" = type { %"struct.media::VideoEncodeAccelerator::Config::SpatialLayer"*, %"struct.media::VideoEncodeAccelerator::Config::SpatialLayer"*, %"class.std::__1::__compressed_pair.294" }
%"struct.media::VideoEncodeAccelerator::Config::SpatialLayer" = type <{ i32, i32, i32, i32, i8, i8, [2 x i8] }>
%"class.std::__1::__compressed_pair.294" = type { %"struct.std::__1::__compressed_pair_elem.295" }
%"struct.std::__1::__compressed_pair_elem.295" = type { %"struct.media::VideoEncodeAccelerator::Config::SpatialLayer"* }
%"class.base::ScopedAllowBaseSyncPrimitivesOutsideBlockingScope" = type { %"class.base::IgnoreHangsInScope" }
%"class.base::IgnoreHangsInScope" = type { i8 }
%"struct.webrtc::VideoCodecVP8" = type { i32, i8, i8, i8, i8, i32 }
%"class.absl::optional.341" = type { %"class.absl::optional_internal::optional_data.342" }
%"class.absl::optional_internal::optional_data.342" = type { %"class.absl::optional_internal::optional_data_base.343" }
%"class.absl::optional_internal::optional_data_base.343" = type { %"class.absl::optional_internal::optional_data_dtor_base.344" }
%"class.absl::optional_internal::optional_data_dtor_base.344" = type { i8, %union.anon.345 }
%union.anon.345 = type { %"class.std::__1::vector.334" }
%"class.std::__1::vector.334" = type { %"class.std::__1::__vector_base.335" }
%"class.std::__1::__vector_base.335" = type { %"struct.media::VideoEncodeAccelerator::SupportedProfile"*, %"struct.media::VideoEncodeAccelerator::SupportedProfile"*, %"class.std::__1::__compressed_pair.336" }
%"struct.media::VideoEncodeAccelerator::SupportedProfile" = type { i32, %"class.gfx::Size", %"class.gfx::Size", i32, i32 }
%"class.std::__1::__compressed_pair.336" = type { %"struct.std::__1::__compressed_pair_elem.337" }
%"struct.std::__1::__compressed_pair_elem.337" = type { %"struct.media::VideoEncodeAccelerator::SupportedProfile"* }
%"struct.media::VideoEncodeAccelerator::Config" = type <{ i32, %"class.gfx::Size", i32, i32, %"class.absl::optional.195", %"class.absl::optional.195", %"class.absl::optional.29", i8, i8, %"class.absl::optional.364", i32, [4 x i8], %"class.std::__1::vector.292", i8, [7 x i8] }>
%"class.absl::optional.364" = type { %"class.absl::optional_internal::optional_data.365" }
%"class.absl::optional_internal::optional_data.365" = type { %"class.absl::optional_internal::optional_data_base.366" }
%"class.absl::optional_internal::optional_data_base.366" = type { %"class.absl::optional_internal::optional_data_dtor_base.367" }
%"class.absl::optional_internal::optional_data_dtor_base.367" = type { i8, %union.anon.368 }
%union.anon.368 = type { i32 }
%"class.base::CommandLine" = type { %"class.std::__1::vector.347", %"class.std::__1::map.354", i64 }
%"class.std::__1::vector.347" = type { %"class.std::__1::__vector_base.348" }
%"class.std::__1::__vector_base.348" = type { %"class.std::__1::basic_string"*, %"class.std::__1::basic_string"*, %"class.std::__1::__compressed_pair.349" }
%"class.std::__1::__compressed_pair.349" = type { %"struct.std::__1::__compressed_pair_elem.350" }
%"struct.std::__1::__compressed_pair_elem.350" = type { %"class.std::__1::basic_string"* }
%"class.std::__1::map.354" = type { %"class.std::__1::__tree.355" }
%"class.std::__1::__tree.355" = type { %"class.std::__1::__tree_end_node"*, %"class.std::__1::__compressed_pair.356", %"class.std::__1::__compressed_pair.360" }
%"class.std::__1::__compressed_pair.356" = type { %"struct.std::__1::__compressed_pair_elem.224" }
%"class.std::__1::__compressed_pair.360" = type { %"struct.std::__1::__compressed_pair_elem" }
%"class.std::__1::vector.299" = type { %"class.std::__1::__vector_base.300" }
%"class.std::__1::__vector_base.300" = type { i32*, i32*, %"class.std::__1::__compressed_pair.301" }
%"class.std::__1::__compressed_pair.301" = type { %"struct.std::__1::__compressed_pair_elem.302" }
%"struct.std::__1::__compressed_pair_elem.302" = type { i32* }
%"class.webrtc::FecControllerOverride" = type { i32 (...)** }
%"struct.webrtc::VideoEncoder::LossNotification" = type { i32, i32, %"class.absl::optional.308", %"class.absl::optional.308" }
%"class.absl::optional.308" = type { %"class.absl::optional_internal::optional_data.309" }
%"class.absl::optional_internal::optional_data.309" = type { %"class.absl::optional_internal::optional_data_base.310" }
%"class.absl::optional_internal::optional_data_base.310" = type { %"class.absl::optional_internal::optional_data_dtor_base.311" }
%"class.absl::optional_internal::optional_data_dtor_base.311" = type { i8, %union.anon.312 }
%union.anon.312 = type { i8 }
%"class.std::__1::tuple" = type { %"struct.std::__1::__tuple_impl" }
%"struct.std::__1::__tuple_impl" = type { %"class.std::__1::__tuple_leaf", %"class.std::__1::__tuple_leaf.326", %"class.std::__1::__tuple_leaf.327", %"class.std::__1::__tuple_leaf.328", %"class.std::__1::__tuple_leaf.329", %"class.std::__1::__tuple_leaf.330", %"class.std::__1::__tuple_leaf.331" }
%"class.std::__1::__tuple_leaf" = type { %class.scoped_refptr.289 }
%"class.std::__1::__tuple_leaf.326" = type { %"class.gfx::Size" }
%"class.std::__1::__tuple_leaf.327" = type { i32 }
%"class.std::__1::__tuple_leaf.328" = type { i32 }
%"class.std::__1::__tuple_leaf.329" = type { i8 }
%"class.std::__1::__tuple_leaf.330" = type { %"class.std::__1::vector.292" }
%"class.std::__1::__tuple_leaf.331" = type { %"class.(anonymous namespace)::SignaledValue" }
%"class.std::__1::basic_ostream<char, std::__1::char_traits<char> >::sentry" = type { i8, %"class.std::__1::basic_ostream"* }
%"class.std::__1::locale::facet" = type { %"class.std::__1::__shared_count" }
%"class.std::__1::__shared_count" = type { i32 (...)**, i64 }
%"class.std::__1::ctype" = type <{ %"class.std::__1::locale::facet", i16*, i8, [7 x i8] }>
%"class.base::internal::BindPostTaskTrampoline" = type { %class.scoped_refptr.427, %"class.base::Location", %"class.base::OnceCallback.121" }
%class.scoped_refptr.427 = type { %"class.base::TaskRunner"* }

$_ZN6webrtc12VideoEncoder11EncoderInfoaSERKS1_ = comdat any

$_ZN4absl23inlined_vector_internal7StorageIhLm4ENSt3__19allocatorIhEEE6AssignINS0_20IteratorValueAdapterIS4_PKhEEEEvT_m = comdat any

$_ZNSt3__16vectorIN6webrtc12VideoEncoder23ResolutionBitrateLimitsENS_9allocatorIS3_EEE6assignIPS3_EENS_9enable_ifIXaasr27__is_cpp17_forward_iteratorIT_EE5valuesr16is_constructibleIS3_NS_15iterator_traitsISA_E9referenceEEE5valueEvE4typeESA_SA_ = comdat any

$_ZNSt3__16vectorIN5media22VideoEncodeAccelerator6Config12SpatialLayerENS_9allocatorIS4_EEE8__appendEm = comdat any

$_ZN4base8internal7InvokerINS0_9BindStateIMN5blink15RTCVideoEncoder4ImplEFvRKN6webrtc12VideoEncoder21RateControlParametersEEJ13scoped_refptrIS5_ES8_EEEFvvEE7RunOnceEPNS0_13BindStateBaseE = comdat any

$_ZN4base8internal9BindStateIMN5blink15RTCVideoEncoder4ImplEFvRKN6webrtc12VideoEncoder21RateControlParametersEEJ13scoped_refptrIS4_ES7_EE7DestroyEPKNS0_13BindStateBaseE = comdat any

$_ZNSt3__124__put_character_sequenceIcNS_11char_traitsIcEEEERNS_13basic_ostreamIT_T0_EES7_PKS4_m = comdat any

$_ZNSt3__116__pad_and_outputIcNS_11char_traitsIcEEEENS_19ostreambuf_iteratorIT_T0_EES6_PKS4_S8_S8_RNS_8ios_baseES4_ = comdat any

$_ZN4absl23inlined_vector_internal7StorageIN6webrtc16VideoFrameBuffer4TypeELm5ENSt3__19allocatorIS4_EEE6AssignINS0_20IteratorValueAdapterIS7_PKS4_EEEEvT_m = comdat any

$_ZN3WTF6VectorINSt3__14pairIN4base24UnsafeSharedMemoryRegionENS3_27WritableSharedMemoryMappingEEELj0ENS_18PartitionAllocatorEE2atEj = comdat any

$_ZN3WTF6VectorINSt3__110unique_ptrINS1_4pairIN4base24UnsafeSharedMemoryRegionENS4_27WritableSharedMemoryMappingEEENS1_14default_deleteIS7_EEEELj0ENS_18PartitionAllocatorEE14AppendSlowCaseISA_EEvOT_ = comdat any

$_ZN3WTF18PartitionAllocator13QuantizedSizeINSt3__110unique_ptrINS2_4pairIN4base24UnsafeSharedMemoryRegionENS5_27WritableSharedMemoryMappingEEENS2_14default_deleteIS8_EEEEEEmm = comdat any

$_ZN3WTF6VectorIiLj0ENS_18PartitionAllocatorEE14AppendSlowCaseIRjEEvOT_ = comdat any

$_ZN3WTF18PartitionAllocator13QuantizedSizeIiEEmm = comdat any

$_ZN3WTF6VectorINSt3__14pairIN4base24UnsafeSharedMemoryRegionENS3_27WritableSharedMemoryMappingEEELj0ENS_18PartitionAllocatorEE14AppendSlowCaseIS6_EEvOT_ = comdat any

$_ZN3WTF6VectorINSt3__14pairIN4base24UnsafeSharedMemoryRegionENS3_27WritableSharedMemoryMappingEEELj0ENS_18PartitionAllocatorEE16ReallocateBufferEj = comdat any

$_ZN3WTF18PartitionAllocator13QuantizedSizeINSt3__14pairIN4base24UnsafeSharedMemoryRegionENS4_27WritableSharedMemoryMappingEEEEEmm = comdat any

$_ZN3WTF6VectorIiLj0ENS_18PartitionAllocatorEE2atEj = comdat any

$_ZN3WTF6VectorINSt3__110unique_ptrINS1_4pairIN4base24UnsafeSharedMemoryRegionENS4_27WritableSharedMemoryMappingEEENS1_14default_deleteIS7_EEEELj0ENS_18PartitionAllocatorEE2atEj = comdat any

$_ZN4base8internal7InvokerINS0_9BindStateIMN5blink15RTCVideoEncoder4ImplEFviEJ13scoped_refptrIS5_EiEEEFvvEE7RunOnceEPNS0_13BindStateBaseE = comdat any

$_ZN4base8internal9BindStateIMN5blink15RTCVideoEncoder4ImplEFviEJ13scoped_refptrIS4_EiEE7DestroyEPKNS0_13BindStateBaseE = comdat any

$_ZN4base12BindPostTaskIvJEEENS_12OnceCallbackIFvDpT0_EEE13scoped_refptrINS_10TaskRunnerEENS1_IFT_S3_EEERKNS_8LocationE = comdat any

$_ZN4base8internal22BindPostTaskTrampolineINS_12OnceCallbackIFvvEEEE3RunIJEEEvDpT_ = comdat any

$_ZN4base8internal7InvokerINS0_9BindStateIMNS0_22BindPostTaskTrampolineINS_12OnceCallbackIFvvEEEEEFvvEJNSt3__110unique_ptrIS7_NSA_14default_deleteIS7_EEEEEEES5_E7RunOnceEPNS0_13BindStateBaseE = comdat any

$_ZN4base8internal9BindStateIMNS0_22BindPostTaskTrampolineINS_12OnceCallbackIFvvEEEEEFvvEJNSt3__110unique_ptrIS6_NS9_14default_deleteIS6_EEEEEE7DestroyEPKNS0_13BindStateBaseE = comdat any

$_ZN4base8internal22BindPostTaskTrampolineINS_12OnceCallbackIFvvEEEED2Ev = comdat any

$_ZN4base8internal22BindPostTaskTrampolineINS_12OnceCallbackIFvvEEEE27DestroyCallbackOnTaskRunnerES4_ = comdat any

$_ZN4base8internal7InvokerINS0_9BindStateIPFvNS_12OnceCallbackIFvvEEEEJS5_EEES4_E7RunOnceEPNS0_13BindStateBaseE = comdat any

$_ZN4base8internal9BindStateIPFvNS_12OnceCallbackIFvvEEEEJS4_EE7DestroyEPKNS0_13BindStateBaseE = comdat any

$_ZN4base8internal7InvokerINS0_9BindStateIMN5blink15RTCVideoEncoder4ImplEFviEJN3WTF28CrossThreadUnretainedWrapperIS5_EEiEEEFvvEE7RunOnceEPNS0_13BindStateBaseE = comdat any

$_ZN4base8internal9BindStateIMN5blink15RTCVideoEncoder4ImplEFviEJN3WTF28CrossThreadUnretainedWrapperIS4_EEiEE7DestroyEPKNS0_13BindStateBaseE = comdat any

$_ZN3WTF6VectorIiLj0ENS_18PartitionAllocatorEE14AppendSlowCaseIRiEEvOT_ = comdat any

@.str = private unnamed_addr constant [28 x i8] c"WebRtcScreenshareSwEncoding\00", align 1
@_ZN5blink8features28kWebRtcScreenshareSwEncodingE = hidden constant %"struct.base::Feature" { i8* getelementptr inbounds ([28 x i8], [28 x i8]* @.str, i32 0, i32 0), i32 0 }, align 8
@_ZTVN5blink15RTCVideoEncoder4ImplE = hidden unnamed_addr constant { [8 x i8*] } { [8 x i8*] [i8* null, i8* null, i8* bitcast (void (%"class.blink::RTCVideoEncoder::Impl"*, i32, %"class.gfx::Size"*, i64)* @_ZN5blink15RTCVideoEncoder4Impl23RequireBitstreamBuffersEjRKN3gfx4SizeEm to i8*), i8* bitcast (void (%"class.blink::RTCVideoEncoder::Impl"*, i32, %"struct.media::BitstreamBufferMetadata"*)* @_ZN5blink15RTCVideoEncoder4Impl20BitstreamBufferReadyEiRKN5media23BitstreamBufferMetadataE to i8*), i8* bitcast (void (%"class.blink::RTCVideoEncoder::Impl"*, i32)* @_ZN5blink15RTCVideoEncoder4Impl11NotifyErrorEN5media22VideoEncodeAccelerator5ErrorE to i8*), i8* bitcast (void (%"class.blink::RTCVideoEncoder::Impl"*, %"struct.media::VideoEncoderInfo"*)* @_ZN5blink15RTCVideoEncoder4Impl23NotifyEncoderInfoChangeERKN5media16VideoEncoderInfoE to i8*), i8* bitcast (void (%"class.blink::RTCVideoEncoder::Impl"*)* @_ZN5blink15RTCVideoEncoder4ImplD2Ev to i8*), i8* bitcast (void (%"class.blink::RTCVideoEncoder::Impl"*)* @_ZN5blink15RTCVideoEncoder4ImplD0Ev to i8*)] }, align 8
@.str.1 = private unnamed_addr constant [16 x i8] c"ExternalEncoder\00", align 1
@.ref.tmp = private constant [1 x i8] c"\FF", align 1
@.ref.tmp.2 = private constant [1 x i32] [i32 1], align 4
@.str.3 = private unnamed_addr constant [72 x i8] c"layer_bitrate <= static_cast<uint32_t>(std::numeric_limits<int>::max())\00", align 1
@.str.4 = private unnamed_addr constant [78 x i8] c"../../third_party/blink/renderer/platform/peerconnection/rtc_video_encoder.cc\00", align 1
@.str.5 = private unnamed_addr constant [33 x i8] c"Overflow in bitrate allocation: \00", align 1
@.str.6 = private unnamed_addr constant [43 x i8] c"Media.RTCVideoEncoderTimestampMatchSuccess\00", align 1
@.str.7 = private unnamed_addr constant [24 x i8] c"RequireBitstreamBuffers\00", align 1
@.str.8 = private unnamed_addr constant [31 x i8] c"failed to create input buffer \00", align 1
@.str.9 = private unnamed_addr constant [31 x i8] c"failed to create output buffer\00", align 1
@.str.10 = private unnamed_addr constant [21 x i8] c"BitstreamBufferReady\00", align 1
@.str.11 = private unnamed_addr constant [28 x i8] c"invalid bitstream_buffer_id\00", align 1
@.str.12 = private unnamed_addr constant [21 x i8] c"invalid payload_size\00", align 1
@__const._ZN5blink15RTCVideoEncoder4Impl20BitstreamBufferReadyEiRKN5media23BitstreamBufferMetadataE.image = private unnamed_addr constant <{ i32, i32, i64, i64, i32, i32, i8, [3 x i8], i32, %"struct.webrtc::VideoPlayoutDelay", { i8, [7 x i8], i64, i64, i64, i64, i64, i64, i64, i64 }, %"class.rtc::scoped_refptr.222", i64, i32, { { { { i8, [3 x i8], %union.anon.15 } } } }, [4 x i8], %"class.std::__1::map", { { { { i8, [3 x i8], { { i8, i8, i8, [1 x i8], i32, i32, i32, { { { { i8, [3 x i8], %union.anon.10 } } } } } } } } } }, { { { { i8, [1 x i8], %union.anon.234 } } } }, [4 x i8], %"class.webrtc::RtpPacketInfos", i8, [7 x i8] }> <{ i32 -1431655766, i32 -1431655766, i64 -6148914691236517206, i64 -6148914691236517206, i32 -1431655766, i32 -1431655766, i8 -86, [3 x i8] c"\AA\AA\AA", i32 -1431655766, %"struct.webrtc::VideoPlayoutDelay" { i32 -1431655766, i32 -1431655766 }, { i8, [7 x i8], i64, i64, i64, i64, i64, i64, i64, i64 } { i8 -86, [7 x i8] c"\AA\AA\AA\AA\AA\AA\AA", i64 -6148914691236517206, i64 -6148914691236517206, i64 -6148914691236517206, i64 -6148914691236517206, i64 -6148914691236517206, i64 -6148914691236517206, i64 -6148914691236517206, i64 -6148914691236517206 }, %"class.rtc::scoped_refptr.222" { %"class.webrtc::EncodedImageBufferInterface"* inttoptr (i64 -6148914691236517206 to %"class.webrtc::EncodedImageBufferInterface"*) }, i64 -6148914691236517206, i32 -1431655766, { { { { i8, [3 x i8], %union.anon.15 } } } } { { { { i8, [3 x i8], %union.anon.15 } } } { { { i8, [3 x i8], %union.anon.15 } } { { i8, [3 x i8], %union.anon.15 } { i8 -86, [3 x i8] c"\AA\AA\AA", %union.anon.15 { i32 -1431655766 } } } } }, [4 x i8] c"\AA\AA\AA\AA", %"class.std::__1::map" { %"class.std::__1::__tree" { %"class.std::__1::__tree_end_node"* inttoptr (i64 -6148914691236517206 to %"class.std::__1::__tree_end_node"*), %"class.std::__1::__compressed_pair.223" { %"struct.std::__1::__compressed_pair_elem.224" { %"class.std::__1::__tree_end_node" { %"class.std::__1::__tree_node_base"* inttoptr (i64 -6148914691236517206 to %"class.std::__1::__tree_node_base"*) } } }, %"class.std::__1::__compressed_pair.228" { %"struct.std::__1::__compressed_pair_elem" { i64 -6148914691236517206 } } } }, { { { { i8, [3 x i8], { { i8, i8, i8, [1 x i8], i32, i32, i32, { { { { i8, [3 x i8], %union.anon.10 } } } } } } } } } } { { { { i8, [3 x i8], { { i8, i8, i8, [1 x i8], i32, i32, i32, { { { { i8, [3 x i8], %union.anon.10 } } } } } } } } } { { { i8, [3 x i8], { { i8, i8, i8, [1 x i8], i32, i32, i32, { { { { i8, [3 x i8], %union.anon.10 } } } } } } } } { { i8, [3 x i8], { { i8, i8, i8, [1 x i8], i32, i32, i32, { { { { i8, [3 x i8], %union.anon.10 } } } } } } } { i8 -86, [3 x i8] c"\AA\AA\AA", { { i8, i8, i8, [1 x i8], i32, i32, i32, { { { { i8, [3 x i8], %union.anon.10 } } } } } } { { i8, i8, i8, [1 x i8], i32, i32, i32, { { { { i8, [3 x i8], %union.anon.10 } } } } } { i8 -86, i8 -86, i8 -86, [1 x i8] c"\AA", i32 -1431655766, i32 -1431655766, i32 -1431655766, { { { { i8, [3 x i8], %union.anon.10 } } } } { { { { i8, [3 x i8], %union.anon.10 } } } { { { i8, [3 x i8], %union.anon.10 } } { { i8, [3 x i8], %union.anon.10 } { i8 -86, [3 x i8] c"\AA\AA\AA", %union.anon.10 { %"struct.webrtc::HdrMetadata" { %"struct.webrtc::HdrMasteringMetadata" { %"struct.webrtc::HdrMasteringMetadata::Chromaticity" { float 0xFFFFFFFFE0000000, float 0xFFFFFFFFE0000000 }, %"struct.webrtc::HdrMasteringMetadata::Chromaticity" { float 0xFFFFFFFFE0000000, float 0xFFFFFFFFE0000000 }, %"struct.webrtc::HdrMasteringMetadata::Chromaticity" { float 0xFFFFFFFFE0000000, float 0xFFFFFFFFE0000000 }, %"struct.webrtc::HdrMasteringMetadata::Chromaticity" { float 0xFFFFFFFFE0000000, float 0xFFFFFFFFE0000000 }, float 0xFFFFFFFFE0000000, float 0xFFFFFFFFE0000000 }, i32 -1431655766, i32 -1431655766 } } } } } } } } } } } }, { { { { i8, [1 x i8], %union.anon.234 } } } } { { { { i8, [1 x i8], %union.anon.234 } } } { { { i8, [1 x i8], %union.anon.234 } } { { i8, [1 x i8], %union.anon.234 } { i8 -86, [1 x i8] c"\AA", %union.anon.234 { i16 -21846 } } } } }, [4 x i8] c"\AA\AA\AA\AA", %"class.webrtc::RtpPacketInfos" { %"class.rtc::scoped_refptr.21" { %"class.webrtc::RtpPacketInfos::Data"* inttoptr (i64 -6148914691236517206 to %"class.webrtc::RtpPacketInfos::Data"*) } }, i8 -86, [7 x i8] c"\AA\AA\AA\AA\AA\AA\AA" }>, align 8
@.str.16 = private unnamed_addr constant [15 x i8] c"EncodeOneFrame\00", align 1
@.str.17 = private unnamed_addr constant [40 x i8] c"Failed to map or convert buffer to I420\00", align 1
@.str.18 = private unnamed_addr constant [60 x i8] c"Failed to convert WebRTC mapped buffer to media::VideoFrame\00", align 1
@.str.19 = private unnamed_addr constant [23 x i8] c"failed to create frame\00", align 1
@.str.20 = private unnamed_addr constant [22 x i8] c"Failed to copy buffer\00", align 1
@.str.21 = private unnamed_addr constant [30 x i8] c"EncodeOneFrameWithNativeInput\00", align 1
@.str.22 = private unnamed_addr constant [45 x i8] c"frame isn't GpuMemoryBuffer based VideoFrame\00", align 1
@.str.23 = private unnamed_addr constant [17 x i8] c"IsBitrateTooHigh\00", align 1
@.str.24 = private unnamed_addr constant [45 x i8] c"Overflow converting bitrate from kbps to bps\00", align 1
@_ZTVN5blink15RTCVideoEncoderE = hidden unnamed_addr constant { [15 x i8*] } { [15 x i8*] [i8* null, i8* null, i8* bitcast (void (%"class.blink::RTCVideoEncoder"*)* @_ZN5blink15RTCVideoEncoderD2Ev to i8*), i8* bitcast (void (%"class.blink::RTCVideoEncoder"*)* @_ZN5blink15RTCVideoEncoderD0Ev to i8*), i8* bitcast (void (%"class.webrtc::VideoEncoder"*, %"class.webrtc::FecControllerOverride"*)* @_ZN6webrtc12VideoEncoder24SetFecControllerOverrideEPNS_21FecControllerOverrideE to i8*), i8* bitcast (i32 (%"class.webrtc::VideoEncoder"*, %"class.webrtc::VideoCodec"*, i32, i64)* @_ZN6webrtc12VideoEncoder10InitEncodeEPKNS_10VideoCodecEim to i8*), i8* bitcast (i32 (%"class.blink::RTCVideoEncoder"*, %"class.webrtc::VideoCodec"*, %"struct.webrtc::VideoEncoder::Settings"*)* @_ZN5blink15RTCVideoEncoder10InitEncodeEPKN6webrtc10VideoCodecERKNS1_12VideoEncoder8SettingsE to i8*), i8* bitcast (i32 (%"class.blink::RTCVideoEncoder"*, %"class.webrtc::EncodedImageCallback"*)* @_ZN5blink15RTCVideoEncoder30RegisterEncodeCompleteCallbackEPN6webrtc20EncodedImageCallbackE to i8*), i8* bitcast (i32 (%"class.blink::RTCVideoEncoder"*)* @_ZN5blink15RTCVideoEncoder7ReleaseEv to i8*), i8* bitcast (i32 (%"class.blink::RTCVideoEncoder"*, %"class.webrtc::VideoFrame"*, %"class.std::__1::vector.299"*)* @_ZN5blink15RTCVideoEncoder6EncodeERKN6webrtc10VideoFrameEPKNSt3__16vectorINS1_14VideoFrameTypeENS5_9allocatorIS7_EEEE to i8*), i8* bitcast (void (%"class.blink::RTCVideoEncoder"*, %"struct.webrtc::VideoEncoder::RateControlParameters"*)* @_ZN5blink15RTCVideoEncoder8SetRatesERKN6webrtc12VideoEncoder21RateControlParametersE to i8*), i8* bitcast (void (%"class.webrtc::VideoEncoder"*, float)* @_ZN6webrtc12VideoEncoder22OnPacketLossRateUpdateEf to i8*), i8* bitcast (void (%"class.webrtc::VideoEncoder"*, i64)* @_ZN6webrtc12VideoEncoder11OnRttUpdateEl to i8*), i8* bitcast (void (%"class.webrtc::VideoEncoder"*, %"struct.webrtc::VideoEncoder::LossNotification"*)* @_ZN6webrtc12VideoEncoder18OnLossNotificationERKNS0_16LossNotificationE to i8*), i8* bitcast (void (%"struct.webrtc::VideoEncoder::EncoderInfo"*, %"class.blink::RTCVideoEncoder"*)* @_ZNK5blink15RTCVideoEncoder14GetEncoderInfoEv to i8*)] }, align 8
@.str.25 = private unnamed_addr constant [11 x i8] c"InitEncode\00", align 1
@.str.26 = private unnamed_addr constant [7 x i8] c"Encode\00", align 1
@.str.27 = private unnamed_addr constant [31 x i8] c"RegisterEncodeCompleteCallback\00", align 1
@.str.28 = private unnamed_addr constant [8 x i8] c"Release\00", align 1
@.str.29 = private unnamed_addr constant [9 x i8] c"SetRates\00", align 1
@_ZN5blink8features29kWebRtcUseMinMaxVEADimensionsE = external global %"struct.base::Feature", align 8
@.str.31 = private unnamed_addr constant [23 x i8] c"CreateAndInitializeVEA\00", align 1
@.str.32 = private unnamed_addr constant [62 x i8] c"Requested dimensions (%s) beyond accelerator limits (%s - %s)\00", align 1
@.str.33 = private unnamed_addr constant [38 x i8] c"Error creating VideoEncodeAccelerator\00", align 1
@_ZN8switches38kDisableVideoCaptureUseGpuMemoryBufferE = external constant [0 x i8], align 1
@_ZN8switches31kVideoCaptureUseGpuMemoryBufferE = external constant [0 x i8], align 1
@.ref.tmp.34 = private constant [1 x i32] [i32 5], align 4
@.str.35 = private unnamed_addr constant [33 x i8] c"Error initializing video_encoder\00", align 1
@.str.36 = private unnamed_addr constant [39 x i8] c"Media.RTCVideoEncoderInitEncodeSuccess\00", align 1
@.str.37 = private unnamed_addr constant [29 x i8] c"Media.RTCVideoEncoderProfile\00", align 1
@_ZTVN6webrtc12VideoEncoder21RateControlParametersE = external unnamed_addr constant { [4 x i8*] }, align 8
@_ZNSt3__15ctypeIcE2idE = external global %"class.std::__1::locale::id", align 8
@.str.38 = private unnamed_addr constant [11 x i8] c"i < size()\00", align 1
@.str.39 = private unnamed_addr constant [55 x i8] c"../../third_party/blink/renderer/platform/wtf/vector.h\00", align 1
@.str.41 = private unnamed_addr constant [44 x i8] c"count <= MaxElementCountInBackingStore<T>()\00", align 1
@.str.42 = private unnamed_addr constant [78 x i8] c"../../third_party/blink/renderer/platform/wtf/allocator/partition_allocator.h\00", align 1
@__PRETTY_FUNCTION__._ZN3WTF21GetStringWithTypeNameINSt3__110unique_ptrINS1_4pairIN4base24UnsafeSharedMemoryRegionENS4_27WritableSharedMemoryMappingEEENS1_14default_deleteIS7_EEEEEEPKcv = private unnamed_addr constant [262 x i8] c"const char *WTF::GetStringWithTypeName() [T = std::__1::unique_ptr<std::__1::pair<base::UnsafeSharedMemoryRegion, base::WritableSharedMemoryMapping>, std::__1::default_delete<std::__1::pair<base::UnsafeSharedMemoryRegion, base::WritableSharedMemoryMapping> > >]\00", align 1
@__PRETTY_FUNCTION__._ZN3WTF21GetStringWithTypeNameIiEEPKcv = private unnamed_addr constant [51 x i8] c"const char *WTF::GetStringWithTypeName() [T = int]\00", align 1
@__PRETTY_FUNCTION__._ZN3WTF21GetStringWithTypeNameINSt3__14pairIN4base24UnsafeSharedMemoryRegionENS3_27WritableSharedMemoryMappingEEEEEPKcv = private unnamed_addr constant [129 x i8] c"const char *WTF::GetStringWithTypeName() [T = std::__1::pair<base::UnsafeSharedMemoryRegion, base::WritableSharedMemoryMapping>]\00", align 1
@.str.43 = private unnamed_addr constant [37 x i8] c"../../base/bind_post_task_internal.h\00", align 1
@.str.44 = private unnamed_addr constant [10 x i8] c"callback_\00", align 1
@__PRETTY_FUNCTION__._ZN3WTF21GetStringWithTypeNameIN5blink12_GLOBAL__N_113RTCTimestampsEEEPKcv = private unnamed_addr constant [91 x i8] c"const char *WTF::GetStringWithTypeName() [T = blink::(anonymous namespace)::RTCTimestamps]\00", align 1
@_ZZNK5blink15RTCVideoEncoder4Impl23RecordTimestampMatchUMAEvE24atomic_histogram_pointer.0.0.0.0.0 = internal unnamed_addr global i64 0, align 8
@_ZZN5blink12_GLOBAL__N_119RecordInitEncodeUMAEiN5media17VideoCodecProfileEE24atomic_histogram_pointer.0.0.0.0.0 = internal unnamed_addr global i64 0, align 8
@_ZZN5blink12_GLOBAL__N_119RecordInitEncodeUMAEiN5media17VideoCodecProfileEE24atomic_histogram_pointer_0.0.0.0.0.0 = internal unnamed_addr global i64 0, align 8

@_ZN5blink15RTCVideoEncoder4ImplC1EPN5media28GpuVideoAcceleratorFactoriesEN6webrtc14VideoCodecTypeENS5_16VideoContentTypeE = hidden unnamed_addr alias void (%"class.blink::RTCVideoEncoder::Impl"*, %"class.media::GpuVideoAcceleratorFactories"*, i32, i8), void (%"class.blink::RTCVideoEncoder::Impl"*, %"class.media::GpuVideoAcceleratorFactories"*, i32, i8)* @_ZN5blink15RTCVideoEncoder4ImplC2EPN5media28GpuVideoAcceleratorFactoriesEN6webrtc14VideoCodecTypeENS5_16VideoContentTypeE
@_ZN5blink15RTCVideoEncoder4ImplD1Ev = hidden unnamed_addr alias void (%"class.blink::RTCVideoEncoder::Impl"*), void (%"class.blink::RTCVideoEncoder::Impl"*)* @_ZN5blink15RTCVideoEncoder4ImplD2Ev
@_ZN5blink15RTCVideoEncoderC1EN5media17VideoCodecProfileEbPNS1_28GpuVideoAcceleratorFactoriesE = hidden unnamed_addr alias void (%"class.blink::RTCVideoEncoder"*, i32, i1, %"class.media::GpuVideoAcceleratorFactories"*), void (%"class.blink::RTCVideoEncoder"*, i32, i1, %"class.media::GpuVideoAcceleratorFactories"*)* @_ZN5blink15RTCVideoEncoderC2EN5media17VideoCodecProfileEbPNS1_28GpuVideoAcceleratorFactoriesE
@_ZN5blink15RTCVideoEncoderD1Ev = hidden unnamed_addr alias void (%"class.blink::RTCVideoEncoder"*), void (%"class.blink::RTCVideoEncoder"*)* @_ZN5blink15RTCVideoEncoderD2Ev

; Function Attrs: nounwind ssp uwtable
define hidden void @_ZN5blink15RTCVideoEncoder4ImplC2EPN5media28GpuVideoAcceleratorFactoriesEN6webrtc14VideoCodecTypeENS5_16VideoContentTypeE(%"class.blink::RTCVideoEncoder::Impl"*, %"class.media::GpuVideoAcceleratorFactories"*, i32, i8 zeroext) unnamed_addr #0 align 2 {
  %5 = alloca %"struct.webrtc::VideoEncoder::ScalingSettings", align 4
  %6 = getelementptr inbounds %"class.blink::RTCVideoEncoder::Impl", %"class.blink::RTCVideoEncoder::Impl"* %0, i64 0, i32 0, i32 0
  %7 = getelementptr inbounds %"class.blink::RTCVideoEncoder::Impl", %"class.blink::RTCVideoEncoder::Impl"* %0, i64 0, i32 1, i32 0, i32 0, i32 0, i32 0, i32 0, i32 0, i32 0, i32 0
  store i32 0, i32* %7, align 4
  store i32 (...)** bitcast (i8** getelementptr inbounds ({ [8 x i8*] }, { [8 x i8*] }* @_ZTVN5blink15RTCVideoEncoder4ImplE, i64 0, inrange i32 0, i64 2) to i32 (...)**), i32 (...)*** %6, align 8
  %8 = getelementptr inbounds %"class.blink::RTCVideoEncoder::Impl", %"class.blink::RTCVideoEncoder::Impl"* %0, i64 0, i32 3
  store %"class.media::GpuVideoAcceleratorFactories"* %1, %"class.media::GpuVideoAcceleratorFactories"** %8, align 8
  %9 = getelementptr inbounds %"class.blink::RTCVideoEncoder::Impl", %"class.blink::RTCVideoEncoder::Impl"* %0, i64 0, i32 4
  %10 = getelementptr inbounds %"class.blink::RTCVideoEncoder::Impl", %"class.blink::RTCVideoEncoder::Impl"* %0, i64 0, i32 10
  store %"class.webrtc::VideoFrame"* null, %"class.webrtc::VideoFrame"** %10, align 8
  %11 = getelementptr inbounds %"class.blink::RTCVideoEncoder::Impl", %"class.blink::RTCVideoEncoder::Impl"* %0, i64 0, i32 11
  store i8 0, i8* %11, align 8
  %12 = getelementptr inbounds %"class.blink::RTCVideoEncoder::Impl", %"class.blink::RTCVideoEncoder::Impl"* %0, i64 0, i32 13, i32 0
  %13 = getelementptr inbounds %"class.blink::RTCVideoEncoder::Impl", %"class.blink::RTCVideoEncoder::Impl"* %0, i64 0, i32 16
  %14 = getelementptr inbounds %"class.blink::RTCVideoEncoder::Impl", %"class.blink::RTCVideoEncoder::Impl"* %0, i64 0, i32 22, i32 0
  %15 = getelementptr inbounds %"class.blink::RTCVideoEncoder::Impl", %"class.blink::RTCVideoEncoder::Impl"* %0, i64 0, i32 24
  %16 = bitcast %"class.(anonymous namespace)::ScopedSignaledValue"* %9 to i8*
  call void @llvm.memset.p0i8.i64(i8* align 8 %16, i8 0, i64 65, i1 false)
  %17 = bitcast i32* %12 to i8*
  call void @llvm.memset.p0i8.i64(i8* align 4 %17, i8 0, i64 16, i1 false)
  %18 = bitcast %"class.WTF::Vector"* %13 to i8*
  call void @llvm.memset.p0i8.i64(i8* align 8 %18, i8 0, i64 53, i1 false)
  %19 = bitcast %"class.media::VideoFrame"** %14 to i8*
  call void @llvm.memset.p0i8.i64(i8* align 8 %19, i8 0, i64 16, i1 false)
  store i32 %2, i32* %15, align 8
  %20 = getelementptr inbounds %"class.blink::RTCVideoEncoder::Impl", %"class.blink::RTCVideoEncoder::Impl"* %0, i64 0, i32 25
  store i8 %3, i8* %20, align 4
  %21 = getelementptr inbounds %"class.blink::RTCVideoEncoder::Impl", %"class.blink::RTCVideoEncoder::Impl"* %0, i64 0, i32 27
  tail call void @_ZN6webrtc12VideoEncoder11EncoderInfoC1Ev(%"struct.webrtc::VideoEncoder::EncoderInfo"* %21) #14
  %22 = getelementptr inbounds %"class.blink::RTCVideoEncoder::Impl", %"class.blink::RTCVideoEncoder::Impl"* %0, i64 0, i32 28
  %23 = getelementptr inbounds %"class.absl::InlinedVector.95", %"class.absl::InlinedVector.95"* %22, i64 0, i32 0, i32 0, i32 0, i32 0, i32 0
  store i64 0, i64* %23, align 8
  %24 = getelementptr inbounds %"class.blink::RTCVideoEncoder::Impl", %"class.blink::RTCVideoEncoder::Impl"* %0, i64 0, i32 29, i32 0
  tail call void @_ZN4base8internal8LockImplC1Ev(%"class.base::internal::LockImpl"* %24) #14
  %25 = getelementptr inbounds %"class.blink::RTCVideoEncoder::Impl", %"class.blink::RTCVideoEncoder::Impl"* %0, i64 0, i32 30
  store i32 -7, i32* %25, align 8
  %26 = getelementptr inbounds %"struct.webrtc::VideoEncoder::ScalingSettings", %"struct.webrtc::VideoEncoder::ScalingSettings"* %5, i64 0, i32 0, i32 0, i32 0, i32 0, i32 0
  call void @llvm.lifetime.start.p0i8(i64 16, i8* nonnull %26) #14
  call void @_ZN6webrtc12VideoEncoder15ScalingSettingsC1ENS1_4KOffE(%"struct.webrtc::VideoEncoder::ScalingSettings"* nonnull %5) #14
  %27 = getelementptr inbounds %"struct.webrtc::VideoEncoder::EncoderInfo", %"struct.webrtc::VideoEncoder::EncoderInfo"* %21, i64 0, i32 0, i32 0, i32 0, i32 0, i32 0, i32 0
  call void @llvm.memcpy.p0i8.p0i8.i64(i8* align 8 %27, i8* nonnull align 4 %26, i64 16, i1 false)
  call void @_ZN6webrtc12VideoEncoder15ScalingSettingsD1Ev(%"struct.webrtc::VideoEncoder::ScalingSettings"* nonnull %5) #14
  call void @llvm.lifetime.end.p0i8(i64 16, i8* nonnull %26) #14
  %28 = getelementptr inbounds %"class.blink::RTCVideoEncoder::Impl", %"class.blink::RTCVideoEncoder::Impl"* %0, i64 0, i32 27, i32 1
  store i32 1, i32* %28, align 8
  %29 = getelementptr inbounds %"class.blink::RTCVideoEncoder::Impl", %"class.blink::RTCVideoEncoder::Impl"* %0, i64 0, i32 27, i32 2
  store i8 0, i8* %29, align 4
  %30 = getelementptr inbounds %"class.blink::RTCVideoEncoder::Impl", %"class.blink::RTCVideoEncoder::Impl"* %0, i64 0, i32 27, i32 3
  store i8 1, i8* %30, align 1
  %31 = getelementptr inbounds %"class.blink::RTCVideoEncoder::Impl", %"class.blink::RTCVideoEncoder::Impl"* %0, i64 0, i32 27, i32 4
  %32 = bitcast %"class.std::__1::basic_string"* %31 to %"struct.std::__1::basic_string<char, std::__1::char_traits<char>, std::__1::allocator<char> >::__short"*
  %33 = getelementptr inbounds %"struct.std::__1::basic_string<char, std::__1::char_traits<char>, std::__1::allocator<char> >::__short", %"struct.std::__1::basic_string<char, std::__1::char_traits<char>, std::__1::allocator<char> >::__short"* %32, i64 0, i32 1, i32 0
  %34 = load i8, i8* %33, align 1
  %35 = icmp slt i8 %34, 0
  br i1 %35, label %36, label %40

36:                                               ; preds = %4
  %37 = getelementptr inbounds %"class.blink::RTCVideoEncoder::Impl", %"class.blink::RTCVideoEncoder::Impl"* %0, i64 0, i32 27, i32 4, i32 0, i32 0, i32 0, i32 0, i32 0, i32 1
  store i64 15, i64* %37, align 8
  %38 = getelementptr inbounds %"class.std::__1::basic_string", %"class.std::__1::basic_string"* %31, i64 0, i32 0, i32 0, i32 0, i32 0, i32 0, i32 0
  %39 = load i8*, i8** %38, align 8
  br label %42

40:                                               ; preds = %4
  store i8 15, i8* %33, align 1
  %41 = bitcast %"class.std::__1::basic_string"* %31 to i8*
  br label %42

42:                                               ; preds = %36, %40
  %43 = phi i8* [ %39, %36 ], [ %41, %40 ]
  call void @llvm.memcpy.p0i8.p0i8.i64(i8* align 1 %43, i8* align 1 getelementptr inbounds ([16 x i8], [16 x i8]* @.str.1, i64 0, i64 0), i64 15, i1 false) #14
  %44 = getelementptr inbounds i8, i8* %43, i64 15
  store i8 0, i8* %44, align 1
  %45 = getelementptr inbounds %"class.blink::RTCVideoEncoder::Impl", %"class.blink::RTCVideoEncoder::Impl"* %0, i64 0, i32 27, i32 5
  store i8 1, i8* %45, align 8
  %46 = getelementptr inbounds %"class.blink::RTCVideoEncoder::Impl", %"class.blink::RTCVideoEncoder::Impl"* %0, i64 0, i32 27, i32 6
  store i8 1, i8* %46, align 1
  %47 = getelementptr inbounds %"class.blink::RTCVideoEncoder::Impl", %"class.blink::RTCVideoEncoder::Impl"* %0, i64 0, i32 27, i32 7
  store i8 0, i8* %47, align 2
  %48 = getelementptr inbounds %"class.blink::RTCVideoEncoder::Impl", %"class.blink::RTCVideoEncoder::Impl"* %0, i64 0, i32 27, i32 8, i64 0, i32 0
  call void @_ZN4absl23inlined_vector_internal7StorageIhLm4ENSt3__19allocatorIhEEE6AssignINS0_20IteratorValueAdapterIS4_PKhEEEEvT_m(%"class.absl::inlined_vector_internal::Storage"* %48, i8* getelementptr inbounds ([1 x i8], [1 x i8]* @.ref.tmp, i64 0, i64 0), i64 1) #14
  %49 = getelementptr inbounds %"class.blink::RTCVideoEncoder::Impl", %"class.blink::RTCVideoEncoder::Impl"* %0, i64 0, i32 27, i32 10
  store i8 0, i8* %49, align 8
  %50 = getelementptr inbounds %"class.absl::InlinedVector.95", %"class.absl::InlinedVector.95"* %22, i64 0, i32 0
  call void @_ZN4absl23inlined_vector_internal7StorageIN6webrtc16VideoFrameBuffer4TypeELm5ENSt3__19allocatorIS4_EEE6AssignINS0_20IteratorValueAdapterIS7_PKS4_EEEEvT_m(%"class.absl::inlined_vector_internal::Storage.96"* %50, i32* getelementptr inbounds ([1 x i32], [1 x i32]* @.ref.tmp.2, i64 0, i64 0), i64 1) #14
  %51 = load i64, i64* %23, align 8
  %52 = and i64 %51, 1
  %53 = icmp eq i64 %52, 0
  %54 = getelementptr inbounds %"class.blink::RTCVideoEncoder::Impl", %"class.blink::RTCVideoEncoder::Impl"* %0, i64 0, i32 28, i32 0, i32 1, i32 0, i32 0
  %55 = load i32*, i32** %54, align 8
  %56 = getelementptr inbounds %"class.blink::RTCVideoEncoder::Impl", %"class.blink::RTCVideoEncoder::Impl"* %0, i64 0, i32 28, i32 0, i32 1
  %57 = bitcast %"union.absl::inlined_vector_internal::Storage<webrtc::VideoFrameBuffer::Type, 5, std::__1::allocator<webrtc::VideoFrameBuffer::Type> >::Data"* %56 to i32*
  %58 = select i1 %53, i32* %57, i32* %55
  %59 = lshr i64 %51, 1
  %60 = getelementptr inbounds %"class.blink::RTCVideoEncoder::Impl", %"class.blink::RTCVideoEncoder::Impl"* %0, i64 0, i32 27, i32 11, i32 0
  %61 = shl nuw i64 %59, 2
  %62 = ashr exact i64 %61, 2
  call void @_ZN4absl23inlined_vector_internal7StorageIN6webrtc16VideoFrameBuffer4TypeELm5ENSt3__19allocatorIS4_EEE6AssignINS0_20IteratorValueAdapterIS7_PKS4_EEEEvT_m(%"class.absl::inlined_vector_internal::Storage.96"* %60, i32* %58, i64 %62) #14
  ret void
}

declare void @_ZN6webrtc12VideoEncoder11EncoderInfoC1Ev(%"struct.webrtc::VideoEncoder::EncoderInfo"*) unnamed_addr #1

; Function Attrs: argmemonly nounwind
declare void @llvm.lifetime.start.p0i8(i64 immarg, i8* nocapture) #2

declare void @_ZN6webrtc12VideoEncoder15ScalingSettingsC1ENS1_4KOffE(%"struct.webrtc::VideoEncoder::ScalingSettings"*) unnamed_addr #1

; Function Attrs: argmemonly nounwind
declare void @llvm.memcpy.p0i8.p0i8.i64(i8* nocapture writeonly, i8* nocapture readonly, i64, i1 immarg) #2

; Function Attrs: nounwind
declare void @_ZN6webrtc12VideoEncoder15ScalingSettingsD1Ev(%"struct.webrtc::VideoEncoder::ScalingSettings"*) unnamed_addr #3

; Function Attrs: argmemonly nounwind
declare void @llvm.lifetime.end.p0i8(i64 immarg, i8* nocapture) #2

; Function Attrs: nounwind ssp uwtable
define hidden void @_ZNK5blink15RTCVideoEncoder4Impl14GetEncoderInfoEv(%"struct.webrtc::VideoEncoder::EncoderInfo"* noalias sret, %"class.blink::RTCVideoEncoder::Impl"*) local_unnamed_addr #0 align 2 {
  %3 = getelementptr inbounds %"class.blink::RTCVideoEncoder::Impl", %"class.blink::RTCVideoEncoder::Impl"* %1, i64 0, i32 29
  %4 = getelementptr inbounds %"class.base::Lock", %"class.base::Lock"* %3, i64 0, i32 0, i32 0
  %5 = tail call i32 @pthread_mutex_trylock(%union.pthread_mutex_t* %4) #14
  %6 = icmp eq i32 %5, 0
  br i1 %6, label %9, label %7, !prof !2

7:                                                ; preds = %2
  %8 = getelementptr inbounds %"class.base::Lock", %"class.base::Lock"* %3, i64 0, i32 0
  tail call void @_ZN4base8internal8LockImpl24LockInternalWithTrackingEv(%"class.base::internal::LockImpl"* %8) #14
  br label %9

9:                                                ; preds = %2, %7
  %10 = getelementptr inbounds %"class.blink::RTCVideoEncoder::Impl", %"class.blink::RTCVideoEncoder::Impl"* %1, i64 0, i32 27
  tail call void @_ZN6webrtc12VideoEncoder11EncoderInfoC1ERKS1_(%"struct.webrtc::VideoEncoder::EncoderInfo"* %0, %"struct.webrtc::VideoEncoder::EncoderInfo"* dereferenceable(240) %10) #14
  %11 = tail call i32 @pthread_mutex_unlock(%union.pthread_mutex_t* %4) #14
  ret void
}

declare void @_ZN6webrtc12VideoEncoder11EncoderInfoC1ERKS1_(%"struct.webrtc::VideoEncoder::EncoderInfo"*, %"struct.webrtc::VideoEncoder::EncoderInfo"* dereferenceable(240)) unnamed_addr #1

; Function Attrs: nounwind ssp uwtable
define hidden void @_ZN5blink15RTCVideoEncoder4Impl23NotifyEncoderInfoChangeERKN5media16VideoEncoderInfoE(%"class.blink::RTCVideoEncoder::Impl"*, %"struct.media::VideoEncoderInfo"* dereferenceable(176)) unnamed_addr #0 align 2 {
  %3 = alloca %"class.absl::InlinedVector", align 8
  %4 = alloca %"struct.webrtc::VideoEncoder::EncoderInfo", align 8
  %5 = getelementptr inbounds %"class.blink::RTCVideoEncoder::Impl", %"class.blink::RTCVideoEncoder::Impl"* %0, i64 0, i32 29
  %6 = getelementptr inbounds %"class.base::Lock", %"class.base::Lock"* %5, i64 0, i32 0, i32 0
  %7 = tail call i32 @pthread_mutex_trylock(%union.pthread_mutex_t* %6) #14
  %8 = icmp eq i32 %7, 0
  br i1 %8, label %11, label %9, !prof !2

9:                                                ; preds = %2
  %10 = getelementptr inbounds %"class.base::Lock", %"class.base::Lock"* %5, i64 0, i32 0
  tail call void @_ZN4base8internal8LockImpl24LockInternalWithTrackingEv(%"class.base::internal::LockImpl"* %10) #14
  br label %11

11:                                               ; preds = %2, %9
  %12 = getelementptr inbounds %"struct.webrtc::VideoEncoder::EncoderInfo", %"struct.webrtc::VideoEncoder::EncoderInfo"* %4, i64 0, i32 0, i32 0, i32 0, i32 0, i32 0, i32 0
  call void @llvm.lifetime.start.p0i8(i64 240, i8* nonnull %12) #14
  call void @llvm.memset.p0i8.i64(i8* nonnull align 8 %12, i8 -86, i64 240, i1 false) #14, !alias.scope !3
  call void @_ZN6webrtc12VideoEncoder11EncoderInfoC1Ev(%"struct.webrtc::VideoEncoder::EncoderInfo"* nonnull %4) #14
  %13 = getelementptr inbounds %"struct.media::VideoEncoderInfo", %"struct.media::VideoEncoderInfo"* %1, i64 0, i32 0
  %14 = getelementptr inbounds %"struct.webrtc::VideoEncoder::EncoderInfo", %"struct.webrtc::VideoEncoder::EncoderInfo"* %4, i64 0, i32 4
  %15 = icmp eq %"class.std::__1::basic_string"* %14, %13
  br i1 %15, label %45, label %16

16:                                               ; preds = %11
  %17 = bitcast %"class.std::__1::basic_string"* %14 to %"struct.std::__1::basic_string<char, std::__1::char_traits<char>, std::__1::allocator<char> >::__short"*
  %18 = getelementptr inbounds %"struct.std::__1::basic_string<char, std::__1::char_traits<char>, std::__1::allocator<char> >::__short", %"struct.std::__1::basic_string<char, std::__1::char_traits<char>, std::__1::allocator<char> >::__short"* %17, i64 0, i32 1, i32 0
  %19 = load i8, i8* %18, align 1, !alias.scope !3
  %20 = icmp slt i8 %19, 0
  %21 = bitcast %"struct.media::VideoEncoderInfo"* %1 to %"struct.std::__1::basic_string<char, std::__1::char_traits<char>, std::__1::allocator<char> >::__short"*
  %22 = getelementptr inbounds %"struct.std::__1::basic_string<char, std::__1::char_traits<char>, std::__1::allocator<char> >::__short", %"struct.std::__1::basic_string<char, std::__1::char_traits<char>, std::__1::allocator<char> >::__short"* %21, i64 0, i32 1, i32 0
  %23 = load i8, i8* %22, align 1, !noalias !3
  %24 = icmp slt i8 %23, 0
  br i1 %20, label %35, label %25

25:                                               ; preds = %16
  br i1 %24, label %29, label %26

26:                                               ; preds = %25
  %27 = bitcast %"class.std::__1::basic_string"* %14 to i8*
  %28 = bitcast %"struct.media::VideoEncoderInfo"* %1 to i8*
  call void @llvm.memcpy.p0i8.p0i8.i64(i8* align 8 %27, i8* align 8 %28, i64 24, i1 false) #14
  br label %45

29:                                               ; preds = %25
  %30 = getelementptr inbounds %"struct.media::VideoEncoderInfo", %"struct.media::VideoEncoderInfo"* %1, i64 0, i32 0, i32 0, i32 0, i32 0, i32 0, i32 0, i32 0
  %31 = load i8*, i8** %30, align 8, !noalias !3
  %32 = getelementptr inbounds %"struct.media::VideoEncoderInfo", %"struct.media::VideoEncoderInfo"* %1, i64 0, i32 0, i32 0, i32 0, i32 0, i32 0, i32 0, i32 1
  %33 = load i64, i64* %32, align 8, !noalias !3
  %34 = call dereferenceable(24) %"class.std::__1::basic_string"* @_ZNSt3__112basic_stringIcNS_11char_traitsIcEENS_9allocatorIcEEE17__assign_no_aliasILb1EEERS5_PKcm(%"class.std::__1::basic_string"* %14, i8* %31, i64 %33) #14
  br label %45

35:                                               ; preds = %16
  %36 = getelementptr inbounds %"struct.media::VideoEncoderInfo", %"struct.media::VideoEncoderInfo"* %1, i64 0, i32 0, i32 0, i32 0, i32 0, i32 0, i32 0, i32 0
  %37 = load i8*, i8** %36, align 8, !noalias !3
  %38 = getelementptr inbounds %"struct.media::VideoEncoderInfo", %"struct.media::VideoEncoderInfo"* %1, i64 0, i32 0, i32 0, i32 0, i32 0, i32 0, i32 0, i32 1
  %39 = load i64, i64* %38, align 8, !noalias !3
  %40 = bitcast %"struct.media::VideoEncoderInfo"* %1 to i8*
  %41 = zext i8 %23 to i64
  %42 = select i1 %24, i8* %37, i8* %40
  %43 = select i1 %24, i64 %39, i64 %41
  %44 = call dereferenceable(24) %"class.std::__1::basic_string"* @_ZNSt3__112basic_stringIcNS_11char_traitsIcEENS_9allocatorIcEEE17__assign_no_aliasILb0EEERS5_PKcm(%"class.std::__1::basic_string"* %14, i8* %42, i64 %43) #14
  br label %45

45:                                               ; preds = %35, %29, %26, %11
  %46 = getelementptr inbounds %"struct.media::VideoEncoderInfo", %"struct.media::VideoEncoderInfo"* %1, i64 0, i32 1
  %47 = load i8, i8* %46, align 8, !range !6, !noalias !3
  %48 = getelementptr inbounds %"struct.webrtc::VideoEncoder::EncoderInfo", %"struct.webrtc::VideoEncoder::EncoderInfo"* %4, i64 0, i32 3
  store i8 %47, i8* %48, align 1, !alias.scope !3
  %49 = getelementptr inbounds %"struct.media::VideoEncoderInfo", %"struct.media::VideoEncoderInfo"* %1, i64 0, i32 2
  %50 = load i8, i8* %49, align 1, !range !6, !noalias !3
  %51 = getelementptr inbounds %"struct.webrtc::VideoEncoder::EncoderInfo", %"struct.webrtc::VideoEncoder::EncoderInfo"* %4, i64 0, i32 5
  store i8 %50, i8* %51, align 8, !alias.scope !3
  %52 = getelementptr inbounds %"struct.media::VideoEncoderInfo", %"struct.media::VideoEncoderInfo"* %1, i64 0, i32 3
  %53 = load i8, i8* %52, align 2, !range !6, !noalias !3
  %54 = getelementptr inbounds %"struct.webrtc::VideoEncoder::EncoderInfo", %"struct.webrtc::VideoEncoder::EncoderInfo"* %4, i64 0, i32 6
  store i8 %53, i8* %54, align 1, !alias.scope !3
  %55 = getelementptr inbounds %"struct.media::VideoEncoderInfo", %"struct.media::VideoEncoderInfo"* %1, i64 0, i32 4
  %56 = load i8, i8* %55, align 1, !range !6, !noalias !3
  %57 = getelementptr inbounds %"struct.webrtc::VideoEncoder::EncoderInfo", %"struct.webrtc::VideoEncoder::EncoderInfo"* %4, i64 0, i32 10
  store i8 %56, i8* %57, align 8, !alias.scope !3
  %58 = bitcast %"class.absl::InlinedVector"* %3 to i8*
  %59 = getelementptr inbounds %"class.absl::InlinedVector", %"class.absl::InlinedVector"* %3, i64 0, i32 0, i32 0, i32 0, i32 0, i32 0
  %60 = getelementptr inbounds %"class.absl::InlinedVector", %"class.absl::InlinedVector"* %3, i64 0, i32 0, i32 1
  %61 = bitcast %"union.absl::inlined_vector_internal::Storage<unsigned char, 4, std::__1::allocator<unsigned char> >::Data"* %60 to i8*
  %62 = getelementptr inbounds %"class.absl::InlinedVector", %"class.absl::InlinedVector"* %3, i64 0, i32 0, i32 1, i32 0, i32 0
  %63 = getelementptr inbounds %"class.absl::InlinedVector", %"class.absl::InlinedVector"* %3, i64 0, i32 0, i32 1, i32 0, i32 1
  br label %77

64:                                               ; preds = %244
  %65 = getelementptr inbounds %"struct.media::VideoEncoderInfo", %"struct.media::VideoEncoderInfo"* %1, i64 0, i32 6, i32 0, i32 0
  %66 = load %"struct.media::ResolutionBitrateLimit"*, %"struct.media::ResolutionBitrateLimit"** %65, align 8, !noalias !3
  %67 = getelementptr inbounds %"struct.media::VideoEncoderInfo", %"struct.media::VideoEncoderInfo"* %1, i64 0, i32 6, i32 0, i32 1
  %68 = load %"struct.media::ResolutionBitrateLimit"*, %"struct.media::ResolutionBitrateLimit"** %67, align 8, !noalias !3
  %69 = icmp eq %"struct.media::ResolutionBitrateLimit"* %66, %68
  br i1 %69, label %321, label %70

70:                                               ; preds = %64
  %71 = getelementptr inbounds %"struct.webrtc::VideoEncoder::EncoderInfo", %"struct.webrtc::VideoEncoder::EncoderInfo"* %4, i64 0, i32 9
  %72 = getelementptr inbounds %"struct.webrtc::VideoEncoder::EncoderInfo", %"struct.webrtc::VideoEncoder::EncoderInfo"* %4, i64 0, i32 9, i32 0, i32 1
  %73 = getelementptr inbounds %"struct.webrtc::VideoEncoder::EncoderInfo", %"struct.webrtc::VideoEncoder::EncoderInfo"* %4, i64 0, i32 9, i32 0, i32 2, i32 0, i32 0
  %74 = bitcast %"struct.webrtc::VideoEncoder::ResolutionBitrateLimits"** %72 to i64*
  %75 = bitcast %"class.std::__1::vector.88"* %71 to i64*
  %76 = bitcast %"struct.webrtc::VideoEncoder::ResolutionBitrateLimits"** %73 to i64*
  br label %247

77:                                               ; preds = %244, %45
  %78 = phi i64 [ 0, %45 ], [ %245, %244 ]
  %79 = getelementptr inbounds %"struct.media::VideoEncoderInfo", %"struct.media::VideoEncoderInfo"* %1, i64 0, i32 5, i64 %78, i32 0, i32 0
  %80 = load i8*, i8** %79, align 8, !noalias !3
  %81 = getelementptr inbounds %"struct.media::VideoEncoderInfo", %"struct.media::VideoEncoderInfo"* %1, i64 0, i32 5, i64 %78, i32 0, i32 1
  %82 = load i8*, i8** %81, align 8, !noalias !3
  %83 = icmp eq i8* %80, %82
  br i1 %83, label %244, label %84

84:                                               ; preds = %77
  call void @llvm.lifetime.start.p0i8(i64 24, i8* nonnull %58) #14, !noalias !3
  %85 = ptrtoint i8* %80 to i64
  store i64 0, i64* %59, align 8, !noalias !3
  %86 = ptrtoint i8* %82 to i64
  %87 = sub i64 %86, %85
  %88 = icmp ugt i64 %87, 4
  br i1 %88, label %89, label %93

89:                                               ; preds = %84
  %90 = icmp ugt i64 %87, 8
  %91 = select i1 %90, i64 %87, i64 8
  %92 = call i8* @_Znwm(i64 %91) #15
  store i8* %92, i8** %62, align 8, !noalias !3
  store i64 %91, i64* %63, align 8, !noalias !3
  store i64 1, i64* %59, align 8, !noalias !3
  br label %95

93:                                               ; preds = %84
  %94 = icmp eq i64 %87, 0
  br i1 %94, label %230, label %95

95:                                               ; preds = %93, %89
  %96 = phi i8* [ %92, %89 ], [ %61, %93 ]
  %97 = sub i64 %86, %85
  %98 = icmp ult i64 %97, 32
  br i1 %98, label %185, label %99

99:                                               ; preds = %95
  %100 = sub i64 %86, %85
  %101 = getelementptr i8, i8* %96, i64 %100
  %102 = icmp ult i8* %96, %82
  %103 = icmp ult i8* %80, %101
  %104 = and i1 %102, %103
  br i1 %104, label %185, label %105

105:                                              ; preds = %99
  %106 = and i64 %97, -32
  %107 = getelementptr i8, i8* %80, i64 %106
  %108 = add i64 %106, -32
  %109 = lshr exact i64 %108, 5
  %110 = add nuw nsw i64 %109, 1
  %111 = and i64 %110, 3
  %112 = icmp ult i64 %108, 96
  br i1 %112, label %164, label %113

113:                                              ; preds = %105
  %114 = sub nsw i64 %110, %111
  br label %115

115:                                              ; preds = %115, %113
  %116 = phi i64 [ 0, %113 ], [ %161, %115 ]
  %117 = phi i64 [ %114, %113 ], [ %162, %115 ]
  %118 = getelementptr i8, i8* %80, i64 %116
  %119 = getelementptr inbounds i8, i8* %96, i64 %116
  %120 = bitcast i8* %118 to <16 x i8>*
  %121 = load <16 x i8>, <16 x i8>* %120, align 1, !alias.scope !7
  %122 = getelementptr i8, i8* %118, i64 16
  %123 = bitcast i8* %122 to <16 x i8>*
  %124 = load <16 x i8>, <16 x i8>* %123, align 1, !alias.scope !7
  %125 = bitcast i8* %119 to <16 x i8>*
  store <16 x i8> %121, <16 x i8>* %125, align 1, !alias.scope !10, !noalias !12
  %126 = getelementptr inbounds i8, i8* %119, i64 16
  %127 = bitcast i8* %126 to <16 x i8>*
  store <16 x i8> %124, <16 x i8>* %127, align 1, !alias.scope !10, !noalias !12
  %128 = or i64 %116, 32
  %129 = getelementptr i8, i8* %80, i64 %128
  %130 = getelementptr inbounds i8, i8* %96, i64 %128
  %131 = bitcast i8* %129 to <16 x i8>*
  %132 = load <16 x i8>, <16 x i8>* %131, align 1, !alias.scope !7
  %133 = getelementptr i8, i8* %129, i64 16
  %134 = bitcast i8* %133 to <16 x i8>*
  %135 = load <16 x i8>, <16 x i8>* %134, align 1, !alias.scope !7
  %136 = bitcast i8* %130 to <16 x i8>*
  store <16 x i8> %132, <16 x i8>* %136, align 1, !alias.scope !10, !noalias !12
  %137 = getelementptr inbounds i8, i8* %130, i64 16
  %138 = bitcast i8* %137 to <16 x i8>*
  store <16 x i8> %135, <16 x i8>* %138, align 1, !alias.scope !10, !noalias !12
  %139 = or i64 %116, 64
  %140 = getelementptr i8, i8* %80, i64 %139
  %141 = getelementptr inbounds i8, i8* %96, i64 %139
  %142 = bitcast i8* %140 to <16 x i8>*
  %143 = load <16 x i8>, <16 x i8>* %142, align 1, !alias.scope !7
  %144 = getelementptr i8, i8* %140, i64 16
  %145 = bitcast i8* %144 to <16 x i8>*
  %146 = load <16 x i8>, <16 x i8>* %145, align 1, !alias.scope !7
  %147 = bitcast i8* %141 to <16 x i8>*
  store <16 x i8> %143, <16 x i8>* %147, align 1, !alias.scope !10, !noalias !12
  %148 = getelementptr inbounds i8, i8* %141, i64 16
  %149 = bitcast i8* %148 to <16 x i8>*
  store <16 x i8> %146, <16 x i8>* %149, align 1, !alias.scope !10, !noalias !12
  %150 = or i64 %116, 96
  %151 = getelementptr i8, i8* %80, i64 %150
  %152 = getelementptr inbounds i8, i8* %96, i64 %150
  %153 = bitcast i8* %151 to <16 x i8>*
  %154 = load <16 x i8>, <16 x i8>* %153, align 1, !alias.scope !7
  %155 = getelementptr i8, i8* %151, i64 16
  %156 = bitcast i8* %155 to <16 x i8>*
  %157 = load <16 x i8>, <16 x i8>* %156, align 1, !alias.scope !7
  %158 = bitcast i8* %152 to <16 x i8>*
  store <16 x i8> %154, <16 x i8>* %158, align 1, !alias.scope !10, !noalias !12
  %159 = getelementptr inbounds i8, i8* %152, i64 16
  %160 = bitcast i8* %159 to <16 x i8>*
  store <16 x i8> %157, <16 x i8>* %160, align 1, !alias.scope !10, !noalias !12
  %161 = add i64 %116, 128
  %162 = add i64 %117, -4
  %163 = icmp eq i64 %162, 0
  br i1 %163, label %164, label %115, !llvm.loop !13

164:                                              ; preds = %115, %105
  %165 = phi i64 [ 0, %105 ], [ %161, %115 ]
  %166 = icmp eq i64 %111, 0
  br i1 %166, label %183, label %167

167:                                              ; preds = %164, %167
  %168 = phi i64 [ %180, %167 ], [ %165, %164 ]
  %169 = phi i64 [ %181, %167 ], [ %111, %164 ]
  %170 = getelementptr i8, i8* %80, i64 %168
  %171 = getelementptr inbounds i8, i8* %96, i64 %168
  %172 = bitcast i8* %170 to <16 x i8>*
  %173 = load <16 x i8>, <16 x i8>* %172, align 1, !alias.scope !7
  %174 = getelementptr i8, i8* %170, i64 16
  %175 = bitcast i8* %174 to <16 x i8>*
  %176 = load <16 x i8>, <16 x i8>* %175, align 1, !alias.scope !7
  %177 = bitcast i8* %171 to <16 x i8>*
  store <16 x i8> %173, <16 x i8>* %177, align 1, !alias.scope !10, !noalias !12
  %178 = getelementptr inbounds i8, i8* %171, i64 16
  %179 = bitcast i8* %178 to <16 x i8>*
  store <16 x i8> %176, <16 x i8>* %179, align 1, !alias.scope !10, !noalias !12
  %180 = add i64 %168, 32
  %181 = add i64 %169, -1
  %182 = icmp eq i64 %181, 0
  br i1 %182, label %183, label %167, !llvm.loop !15

183:                                              ; preds = %167, %164
  %184 = icmp eq i64 %97, %106
  br i1 %184, label %228, label %185

185:                                              ; preds = %183, %99, %95
  %186 = phi i8* [ %80, %99 ], [ %80, %95 ], [ %107, %183 ]
  %187 = phi i64 [ 0, %99 ], [ 0, %95 ], [ %106, %183 ]
  %188 = sub i64 %86, %85
  %189 = xor i64 %187, -1
  %190 = add i64 %189, %86
  %191 = sub i64 %190, %85
  %192 = and i64 %188, 3
  %193 = icmp eq i64 %192, 0
  br i1 %193, label %204, label %194

194:                                              ; preds = %185, %194
  %195 = phi i8* [ %200, %194 ], [ %186, %185 ]
  %196 = phi i64 [ %201, %194 ], [ %187, %185 ]
  %197 = phi i64 [ %202, %194 ], [ %192, %185 ]
  %198 = getelementptr inbounds i8, i8* %96, i64 %196
  %199 = load i8, i8* %195, align 1
  store i8 %199, i8* %198, align 1, !noalias !3
  %200 = getelementptr inbounds i8, i8* %195, i64 1
  %201 = add nuw i64 %196, 1
  %202 = add i64 %197, -1
  %203 = icmp eq i64 %202, 0
  br i1 %203, label %204, label %194, !llvm.loop !17

204:                                              ; preds = %194, %185
  %205 = phi i8* [ %186, %185 ], [ %200, %194 ]
  %206 = phi i64 [ %187, %185 ], [ %201, %194 ]
  %207 = icmp ult i64 %191, 3
  br i1 %207, label %228, label %208

208:                                              ; preds = %204, %208
  %209 = phi i8* [ %225, %208 ], [ %205, %204 ]
  %210 = phi i64 [ %226, %208 ], [ %206, %204 ]
  %211 = getelementptr inbounds i8, i8* %96, i64 %210
  %212 = load i8, i8* %209, align 1
  store i8 %212, i8* %211, align 1, !noalias !3
  %213 = getelementptr inbounds i8, i8* %209, i64 1
  %214 = add nuw i64 %210, 1
  %215 = getelementptr inbounds i8, i8* %96, i64 %214
  %216 = load i8, i8* %213, align 1
  store i8 %216, i8* %215, align 1, !noalias !3
  %217 = getelementptr inbounds i8, i8* %209, i64 2
  %218 = add nuw i64 %210, 2
  %219 = getelementptr inbounds i8, i8* %96, i64 %218
  %220 = load i8, i8* %217, align 1
  store i8 %220, i8* %219, align 1, !noalias !3
  %221 = getelementptr inbounds i8, i8* %209, i64 3
  %222 = add nuw i64 %210, 3
  %223 = getelementptr inbounds i8, i8* %96, i64 %222
  %224 = load i8, i8* %221, align 1
  store i8 %224, i8* %223, align 1, !noalias !3
  %225 = getelementptr inbounds i8, i8* %209, i64 4
  %226 = add nuw i64 %210, 4
  %227 = icmp eq i64 %226, %87
  br i1 %227, label %228, label %208, !llvm.loop !18

228:                                              ; preds = %204, %208, %183
  %229 = load i64, i64* %59, align 8, !noalias !3
  br label %230

230:                                              ; preds = %228, %93
  %231 = phi i64 [ %229, %228 ], [ 0, %93 ]
  %232 = shl i64 %87, 1
  %233 = add i64 %231, %232
  store i64 %233, i64* %59, align 8, !noalias !3
  %234 = getelementptr inbounds %"struct.webrtc::VideoEncoder::EncoderInfo", %"struct.webrtc::VideoEncoder::EncoderInfo"* %4, i64 0, i32 8, i64 %78, i32 0, i32 0, i32 0, i32 0, i32 0
  %235 = load i64, i64* %234, align 8, !alias.scope !3
  %236 = and i64 %235, 1
  %237 = icmp eq i64 %236, 0
  br i1 %237, label %241, label %238

238:                                              ; preds = %230
  %239 = getelementptr inbounds %"struct.webrtc::VideoEncoder::EncoderInfo", %"struct.webrtc::VideoEncoder::EncoderInfo"* %4, i64 0, i32 8, i64 %78, i32 0, i32 1, i32 0, i32 0
  %240 = load i8*, i8** %239, align 8, !alias.scope !3
  call void @_ZdlPv(i8* %240) #15
  br label %241

241:                                              ; preds = %238, %230
  store i64 %233, i64* %234, align 8, !alias.scope !3
  %242 = getelementptr inbounds %"struct.webrtc::VideoEncoder::EncoderInfo", %"struct.webrtc::VideoEncoder::EncoderInfo"* %4, i64 0, i32 8, i64 %78, i32 0, i32 1
  %243 = bitcast %"union.absl::inlined_vector_internal::Storage<unsigned char, 4, std::__1::allocator<unsigned char> >::Data"* %242 to i8*
  call void @llvm.memcpy.p0i8.p0i8.i64(i8* align 8 %243, i8* align 8 %61, i64 16, i1 false) #14
  call void @llvm.lifetime.end.p0i8(i64 24, i8* nonnull %58) #14, !noalias !3
  br label %244

244:                                              ; preds = %241, %77
  %245 = add nuw nsw i64 %78, 1
  %246 = icmp eq i64 %245, 5
  br i1 %246, label %64, label %77

247:                                              ; preds = %318, %70
  %248 = phi %"struct.media::ResolutionBitrateLimit"* [ %66, %70 ], [ %319, %318 ]
  %249 = getelementptr inbounds %"struct.media::ResolutionBitrateLimit", %"struct.media::ResolutionBitrateLimit"* %248, i64 0, i32 0
  %250 = call i32 @_ZNK3gfx4Size7GetAreaEv(%"class.gfx::Size"* %249) #14
  %251 = getelementptr inbounds %"struct.media::ResolutionBitrateLimit", %"struct.media::ResolutionBitrateLimit"* %248, i64 0, i32 1
  %252 = getelementptr inbounds %"struct.media::ResolutionBitrateLimit", %"struct.media::ResolutionBitrateLimit"* %248, i64 0, i32 2
  %253 = getelementptr inbounds %"struct.media::ResolutionBitrateLimit", %"struct.media::ResolutionBitrateLimit"* %248, i64 0, i32 3
  %254 = load %"struct.webrtc::VideoEncoder::ResolutionBitrateLimits"*, %"struct.webrtc::VideoEncoder::ResolutionBitrateLimits"** %72, align 8, !alias.scope !3
  %255 = load %"struct.webrtc::VideoEncoder::ResolutionBitrateLimits"*, %"struct.webrtc::VideoEncoder::ResolutionBitrateLimits"** %73, align 8, !alias.scope !3
  %256 = icmp ult %"struct.webrtc::VideoEncoder::ResolutionBitrateLimits"* %254, %255
  %257 = ptrtoint %"struct.webrtc::VideoEncoder::ResolutionBitrateLimits"* %255 to i64
  br i1 %256, label %258, label %268

258:                                              ; preds = %247
  %259 = load i32, i32* %251, align 4
  %260 = load i32, i32* %252, align 4
  %261 = load i32, i32* %253, align 4
  %262 = getelementptr inbounds %"struct.webrtc::VideoEncoder::ResolutionBitrateLimits", %"struct.webrtc::VideoEncoder::ResolutionBitrateLimits"* %254, i64 0, i32 0
  store i32 %250, i32* %262, align 4
  %263 = getelementptr inbounds %"struct.webrtc::VideoEncoder::ResolutionBitrateLimits", %"struct.webrtc::VideoEncoder::ResolutionBitrateLimits"* %254, i64 0, i32 1
  store i32 %259, i32* %263, align 4
  %264 = getelementptr inbounds %"struct.webrtc::VideoEncoder::ResolutionBitrateLimits", %"struct.webrtc::VideoEncoder::ResolutionBitrateLimits"* %254, i64 0, i32 2
  store i32 %260, i32* %264, align 4
  %265 = getelementptr inbounds %"struct.webrtc::VideoEncoder::ResolutionBitrateLimits", %"struct.webrtc::VideoEncoder::ResolutionBitrateLimits"* %254, i64 0, i32 3
  store i32 %261, i32* %265, align 4
  %266 = getelementptr inbounds %"struct.webrtc::VideoEncoder::ResolutionBitrateLimits", %"struct.webrtc::VideoEncoder::ResolutionBitrateLimits"* %254, i64 1
  %267 = ptrtoint %"struct.webrtc::VideoEncoder::ResolutionBitrateLimits"* %266 to i64
  store i64 %267, i64* %74, align 8, !alias.scope !3
  br label %318

268:                                              ; preds = %247
  %269 = ptrtoint %"struct.webrtc::VideoEncoder::ResolutionBitrateLimits"* %254 to i64
  %270 = load i64, i64* %75, align 8, !alias.scope !3
  %271 = sub i64 %269, %270
  %272 = ashr exact i64 %271, 4
  %273 = add nsw i64 %272, 1
  %274 = icmp ugt i64 %273, 1152921504606846975
  br i1 %274, label %275, label %277

275:                                              ; preds = %268
  %276 = bitcast %"class.std::__1::vector.88"* %71 to %"class.std::__1::__vector_base_common"*
  call void @_ZNKSt3__120__vector_base_commonILb1EE20__throw_length_errorEv(%"class.std::__1::__vector_base_common"* %276) #16
  unreachable

277:                                              ; preds = %268
  %278 = sub i64 %257, %270
  %279 = ashr exact i64 %278, 4
  %280 = icmp ult i64 %279, 576460752303423487
  br i1 %280, label %281, label %289

281:                                              ; preds = %277
  %282 = ashr exact i64 %278, 3
  %283 = icmp ult i64 %282, %273
  %284 = select i1 %283, i64 %273, i64 %282
  %285 = icmp eq i64 %284, 0
  br i1 %285, label %294, label %286

286:                                              ; preds = %281
  %287 = icmp ugt i64 %284, 1152921504606846975
  br i1 %287, label %288, label %289

288:                                              ; preds = %286
  call void @abort() #16
  unreachable

289:                                              ; preds = %286, %277
  %290 = phi i64 [ %284, %286 ], [ 1152921504606846975, %277 ]
  %291 = shl i64 %290, 4
  %292 = call i8* @_Znwm(i64 %291) #15
  %293 = bitcast i8* %292 to %"struct.webrtc::VideoEncoder::ResolutionBitrateLimits"*
  br label %294

294:                                              ; preds = %289, %281
  %295 = phi i64 [ %290, %289 ], [ 0, %281 ]
  %296 = phi i8* [ %292, %289 ], [ null, %281 ]
  %297 = phi %"struct.webrtc::VideoEncoder::ResolutionBitrateLimits"* [ %293, %289 ], [ null, %281 ]
  %298 = getelementptr inbounds %"struct.webrtc::VideoEncoder::ResolutionBitrateLimits", %"struct.webrtc::VideoEncoder::ResolutionBitrateLimits"* %297, i64 %272
  %299 = getelementptr inbounds %"struct.webrtc::VideoEncoder::ResolutionBitrateLimits", %"struct.webrtc::VideoEncoder::ResolutionBitrateLimits"* %297, i64 %295
  %300 = ptrtoint %"struct.webrtc::VideoEncoder::ResolutionBitrateLimits"* %299 to i64
  %301 = load i32, i32* %251, align 4
  %302 = load i32, i32* %252, align 4
  %303 = load i32, i32* %253, align 4
  %304 = getelementptr inbounds %"struct.webrtc::VideoEncoder::ResolutionBitrateLimits", %"struct.webrtc::VideoEncoder::ResolutionBitrateLimits"* %298, i64 0, i32 0
  store i32 %250, i32* %304, align 4, !noalias !3
  %305 = getelementptr inbounds %"struct.webrtc::VideoEncoder::ResolutionBitrateLimits", %"struct.webrtc::VideoEncoder::ResolutionBitrateLimits"* %297, i64 %272, i32 1
  store i32 %301, i32* %305, align 4, !noalias !3
  %306 = getelementptr inbounds %"struct.webrtc::VideoEncoder::ResolutionBitrateLimits", %"struct.webrtc::VideoEncoder::ResolutionBitrateLimits"* %297, i64 %272, i32 2
  store i32 %302, i32* %306, align 4, !noalias !3
  %307 = getelementptr inbounds %"struct.webrtc::VideoEncoder::ResolutionBitrateLimits", %"struct.webrtc::VideoEncoder::ResolutionBitrateLimits"* %297, i64 %272, i32 3
  store i32 %303, i32* %307, align 4, !noalias !3
  %308 = getelementptr inbounds %"struct.webrtc::VideoEncoder::ResolutionBitrateLimits", %"struct.webrtc::VideoEncoder::ResolutionBitrateLimits"* %298, i64 1
  %309 = ptrtoint %"struct.webrtc::VideoEncoder::ResolutionBitrateLimits"* %308 to i64
  %310 = ptrtoint %"struct.webrtc::VideoEncoder::ResolutionBitrateLimits"* %297 to i64
  %311 = icmp sgt i64 %271, 0
  br i1 %311, label %312, label %314

312:                                              ; preds = %294
  %313 = inttoptr i64 %270 to i8*
  call void @llvm.memcpy.p0i8.p0i8.i64(i8* align 4 %296, i8* align 4 %313, i64 %271, i1 false) #14
  br label %314

314:                                              ; preds = %312, %294
  store i64 %310, i64* %75, align 8, !alias.scope !3
  store i64 %309, i64* %74, align 8, !alias.scope !3
  store i64 %300, i64* %76, align 8, !alias.scope !3
  %315 = icmp eq i64 %270, 0
  br i1 %315, label %318, label %316

316:                                              ; preds = %314
  %317 = inttoptr i64 %270 to i8*
  call void @_ZdlPv(i8* %317) #15
  br label %318

318:                                              ; preds = %316, %314, %258
  %319 = getelementptr inbounds %"struct.media::ResolutionBitrateLimit", %"struct.media::ResolutionBitrateLimit"* %248, i64 1
  %320 = icmp eq %"struct.media::ResolutionBitrateLimit"* %319, %68
  br i1 %320, label %321, label %247

321:                                              ; preds = %318, %64
  %322 = getelementptr inbounds %"class.blink::RTCVideoEncoder::Impl", %"class.blink::RTCVideoEncoder::Impl"* %0, i64 0, i32 27
  %323 = call dereferenceable(240) %"struct.webrtc::VideoEncoder::EncoderInfo"* @_ZN6webrtc12VideoEncoder11EncoderInfoaSERKS1_(%"struct.webrtc::VideoEncoder::EncoderInfo"* %322, %"struct.webrtc::VideoEncoder::EncoderInfo"* nonnull dereferenceable(240) %4)
  call void @_ZN6webrtc12VideoEncoder11EncoderInfoD1Ev(%"struct.webrtc::VideoEncoder::EncoderInfo"* nonnull %4) #14
  call void @llvm.lifetime.end.p0i8(i64 240, i8* nonnull %12) #14
  %324 = call i32 @pthread_mutex_unlock(%union.pthread_mutex_t* %6) #14
  ret void
}

; Function Attrs: inlinehint nounwind ssp uwtable
define linkonce_odr hidden dereferenceable(240) %"struct.webrtc::VideoEncoder::EncoderInfo"* @_ZN6webrtc12VideoEncoder11EncoderInfoaSERKS1_(%"struct.webrtc::VideoEncoder::EncoderInfo"*, %"struct.webrtc::VideoEncoder::EncoderInfo"* dereferenceable(240)) local_unnamed_addr #4 comdat align 2 {
  %3 = getelementptr inbounds %"struct.webrtc::VideoEncoder::EncoderInfo", %"struct.webrtc::VideoEncoder::EncoderInfo"* %0, i64 0, i32 0, i32 0, i32 0, i32 0, i32 0, i32 0
  %4 = getelementptr inbounds %"struct.webrtc::VideoEncoder::EncoderInfo", %"struct.webrtc::VideoEncoder::EncoderInfo"* %1, i64 0, i32 0, i32 0, i32 0, i32 0, i32 0, i32 0
  tail call void @llvm.memcpy.p0i8.p0i8.i64(i8* align 8 %3, i8* align 8 %4, i64 22, i1 false)
  %5 = getelementptr inbounds %"struct.webrtc::VideoEncoder::EncoderInfo", %"struct.webrtc::VideoEncoder::EncoderInfo"* %0, i64 0, i32 4
  %6 = getelementptr inbounds %"struct.webrtc::VideoEncoder::EncoderInfo", %"struct.webrtc::VideoEncoder::EncoderInfo"* %1, i64 0, i32 4
  %7 = icmp eq %"struct.webrtc::VideoEncoder::EncoderInfo"* %0, %1
  br i1 %7, label %117, label %8

8:                                                ; preds = %2
  %9 = bitcast %"class.std::__1::basic_string"* %5 to %"struct.std::__1::basic_string<char, std::__1::char_traits<char>, std::__1::allocator<char> >::__short"*
  %10 = getelementptr inbounds %"struct.std::__1::basic_string<char, std::__1::char_traits<char>, std::__1::allocator<char> >::__short", %"struct.std::__1::basic_string<char, std::__1::char_traits<char>, std::__1::allocator<char> >::__short"* %9, i64 0, i32 1, i32 0
  %11 = load i8, i8* %10, align 1
  %12 = icmp slt i8 %11, 0
  %13 = bitcast %"class.std::__1::basic_string"* %6 to %"struct.std::__1::basic_string<char, std::__1::char_traits<char>, std::__1::allocator<char> >::__short"*
  %14 = getelementptr inbounds %"struct.std::__1::basic_string<char, std::__1::char_traits<char>, std::__1::allocator<char> >::__short", %"struct.std::__1::basic_string<char, std::__1::char_traits<char>, std::__1::allocator<char> >::__short"* %13, i64 0, i32 1, i32 0
  %15 = load i8, i8* %14, align 1
  %16 = icmp slt i8 %15, 0
  br i1 %12, label %27, label %17

17:                                               ; preds = %8
  br i1 %16, label %21, label %18

18:                                               ; preds = %17
  %19 = bitcast %"class.std::__1::basic_string"* %5 to i8*
  %20 = bitcast %"class.std::__1::basic_string"* %6 to i8*
  tail call void @llvm.memcpy.p0i8.p0i8.i64(i8* align 8 %19, i8* align 8 %20, i64 24, i1 false) #14
  br label %37

21:                                               ; preds = %17
  %22 = getelementptr inbounds %"class.std::__1::basic_string", %"class.std::__1::basic_string"* %6, i64 0, i32 0, i32 0, i32 0, i32 0, i32 0, i32 0
  %23 = load i8*, i8** %22, align 8
  %24 = getelementptr inbounds %"struct.webrtc::VideoEncoder::EncoderInfo", %"struct.webrtc::VideoEncoder::EncoderInfo"* %1, i64 0, i32 4, i32 0, i32 0, i32 0, i32 0, i32 0, i32 1
  %25 = load i64, i64* %24, align 8
  %26 = tail call dereferenceable(24) %"class.std::__1::basic_string"* @_ZNSt3__112basic_stringIcNS_11char_traitsIcEENS_9allocatorIcEEE17__assign_no_aliasILb1EEERS5_PKcm(%"class.std::__1::basic_string"* %5, i8* %23, i64 %25) #14
  br label %37

27:                                               ; preds = %8
  %28 = getelementptr inbounds %"class.std::__1::basic_string", %"class.std::__1::basic_string"* %6, i64 0, i32 0, i32 0, i32 0, i32 0, i32 0, i32 0
  %29 = load i8*, i8** %28, align 8
  %30 = getelementptr inbounds %"struct.webrtc::VideoEncoder::EncoderInfo", %"struct.webrtc::VideoEncoder::EncoderInfo"* %1, i64 0, i32 4, i32 0, i32 0, i32 0, i32 0, i32 0, i32 1
  %31 = load i64, i64* %30, align 8
  %32 = bitcast %"class.std::__1::basic_string"* %6 to i8*
  %33 = zext i8 %15 to i64
  %34 = select i1 %16, i8* %29, i8* %32
  %35 = select i1 %16, i64 %31, i64 %33
  %36 = tail call dereferenceable(24) %"class.std::__1::basic_string"* @_ZNSt3__112basic_stringIcNS_11char_traitsIcEENS_9allocatorIcEEE17__assign_no_aliasILb0EEERS5_PKcm(%"class.std::__1::basic_string"* %5, i8* %34, i64 %35) #14
  br label %37

37:                                               ; preds = %18, %21, %27
  %38 = getelementptr inbounds %"struct.webrtc::VideoEncoder::EncoderInfo", %"struct.webrtc::VideoEncoder::EncoderInfo"* %0, i64 0, i32 5
  %39 = getelementptr inbounds %"struct.webrtc::VideoEncoder::EncoderInfo", %"struct.webrtc::VideoEncoder::EncoderInfo"* %1, i64 0, i32 5
  tail call void @llvm.memcpy.p0i8.p0i8.i64(i8* align 8 %38, i8* align 8 %39, i64 3, i1 false)
  %40 = getelementptr inbounds %"struct.webrtc::VideoEncoder::EncoderInfo", %"struct.webrtc::VideoEncoder::EncoderInfo"* %1, i64 0, i32 8, i64 0, i32 0, i32 0, i32 0, i32 0, i32 0
  %41 = load i64, i64* %40, align 8
  %42 = and i64 %41, 1
  %43 = icmp eq i64 %42, 0
  %44 = getelementptr inbounds %"struct.webrtc::VideoEncoder::EncoderInfo", %"struct.webrtc::VideoEncoder::EncoderInfo"* %1, i64 0, i32 8, i64 0, i32 0, i32 1, i32 0, i32 0
  %45 = load i8*, i8** %44, align 8
  %46 = getelementptr inbounds %"struct.webrtc::VideoEncoder::EncoderInfo", %"struct.webrtc::VideoEncoder::EncoderInfo"* %1, i64 0, i32 8, i64 0, i32 0, i32 1
  %47 = bitcast %"union.absl::inlined_vector_internal::Storage<unsigned char, 4, std::__1::allocator<unsigned char> >::Data"* %46 to i8*
  %48 = select i1 %43, i8* %47, i8* %45
  %49 = lshr i64 %41, 1
  %50 = getelementptr inbounds %"struct.webrtc::VideoEncoder::EncoderInfo", %"struct.webrtc::VideoEncoder::EncoderInfo"* %0, i64 0, i32 8, i64 0, i32 0
  tail call void @_ZN4absl23inlined_vector_internal7StorageIhLm4ENSt3__19allocatorIhEEE6AssignINS0_20IteratorValueAdapterIS4_PKhEEEEvT_m(%"class.absl::inlined_vector_internal::Storage"* %50, i8* %48, i64 %49) #14
  %51 = getelementptr inbounds %"struct.webrtc::VideoEncoder::EncoderInfo", %"struct.webrtc::VideoEncoder::EncoderInfo"* %1, i64 0, i32 8, i64 1, i32 0, i32 0, i32 0, i32 0, i32 0
  %52 = load i64, i64* %51, align 8
  %53 = and i64 %52, 1
  %54 = icmp eq i64 %53, 0
  %55 = getelementptr inbounds %"struct.webrtc::VideoEncoder::EncoderInfo", %"struct.webrtc::VideoEncoder::EncoderInfo"* %1, i64 0, i32 8, i64 1, i32 0, i32 1, i32 0, i32 0
  %56 = load i8*, i8** %55, align 8
  %57 = getelementptr inbounds %"struct.webrtc::VideoEncoder::EncoderInfo", %"struct.webrtc::VideoEncoder::EncoderInfo"* %1, i64 0, i32 8, i64 1, i32 0, i32 1
  %58 = bitcast %"union.absl::inlined_vector_internal::Storage<unsigned char, 4, std::__1::allocator<unsigned char> >::Data"* %57 to i8*
  %59 = select i1 %54, i8* %58, i8* %56
  %60 = lshr i64 %52, 1
  %61 = getelementptr inbounds %"struct.webrtc::VideoEncoder::EncoderInfo", %"struct.webrtc::VideoEncoder::EncoderInfo"* %0, i64 0, i32 8, i64 1, i32 0
  tail call void @_ZN4absl23inlined_vector_internal7StorageIhLm4ENSt3__19allocatorIhEEE6AssignINS0_20IteratorValueAdapterIS4_PKhEEEEvT_m(%"class.absl::inlined_vector_internal::Storage"* %61, i8* %59, i64 %60) #14
  %62 = getelementptr inbounds %"struct.webrtc::VideoEncoder::EncoderInfo", %"struct.webrtc::VideoEncoder::EncoderInfo"* %1, i64 0, i32 8, i64 2, i32 0, i32 0, i32 0, i32 0, i32 0
  %63 = load i64, i64* %62, align 8
  %64 = and i64 %63, 1
  %65 = icmp eq i64 %64, 0
  %66 = getelementptr inbounds %"struct.webrtc::VideoEncoder::EncoderInfo", %"struct.webrtc::VideoEncoder::EncoderInfo"* %1, i64 0, i32 8, i64 2, i32 0, i32 1, i32 0, i32 0
  %67 = load i8*, i8** %66, align 8
  %68 = getelementptr inbounds %"struct.webrtc::VideoEncoder::EncoderInfo", %"struct.webrtc::VideoEncoder::EncoderInfo"* %1, i64 0, i32 8, i64 2, i32 0, i32 1
  %69 = bitcast %"union.absl::inlined_vector_internal::Storage<unsigned char, 4, std::__1::allocator<unsigned char> >::Data"* %68 to i8*
  %70 = select i1 %65, i8* %69, i8* %67
  %71 = lshr i64 %63, 1
  %72 = getelementptr inbounds %"struct.webrtc::VideoEncoder::EncoderInfo", %"struct.webrtc::VideoEncoder::EncoderInfo"* %0, i64 0, i32 8, i64 2, i32 0
  tail call void @_ZN4absl23inlined_vector_internal7StorageIhLm4ENSt3__19allocatorIhEEE6AssignINS0_20IteratorValueAdapterIS4_PKhEEEEvT_m(%"class.absl::inlined_vector_internal::Storage"* %72, i8* %70, i64 %71) #14
  %73 = getelementptr inbounds %"struct.webrtc::VideoEncoder::EncoderInfo", %"struct.webrtc::VideoEncoder::EncoderInfo"* %1, i64 0, i32 8, i64 3, i32 0, i32 0, i32 0, i32 0, i32 0
  %74 = load i64, i64* %73, align 8
  %75 = and i64 %74, 1
  %76 = icmp eq i64 %75, 0
  %77 = getelementptr inbounds %"struct.webrtc::VideoEncoder::EncoderInfo", %"struct.webrtc::VideoEncoder::EncoderInfo"* %1, i64 0, i32 8, i64 3, i32 0, i32 1, i32 0, i32 0
  %78 = load i8*, i8** %77, align 8
  %79 = getelementptr inbounds %"struct.webrtc::VideoEncoder::EncoderInfo", %"struct.webrtc::VideoEncoder::EncoderInfo"* %1, i64 0, i32 8, i64 3, i32 0, i32 1
  %80 = bitcast %"union.absl::inlined_vector_internal::Storage<unsigned char, 4, std::__1::allocator<unsigned char> >::Data"* %79 to i8*
  %81 = select i1 %76, i8* %80, i8* %78
  %82 = lshr i64 %74, 1
  %83 = getelementptr inbounds %"struct.webrtc::VideoEncoder::EncoderInfo", %"struct.webrtc::VideoEncoder::EncoderInfo"* %0, i64 0, i32 8, i64 3, i32 0
  tail call void @_ZN4absl23inlined_vector_internal7StorageIhLm4ENSt3__19allocatorIhEEE6AssignINS0_20IteratorValueAdapterIS4_PKhEEEEvT_m(%"class.absl::inlined_vector_internal::Storage"* %83, i8* %81, i64 %82) #14
  %84 = getelementptr inbounds %"struct.webrtc::VideoEncoder::EncoderInfo", %"struct.webrtc::VideoEncoder::EncoderInfo"* %1, i64 0, i32 8, i64 4, i32 0, i32 0, i32 0, i32 0, i32 0
  %85 = load i64, i64* %84, align 8
  %86 = and i64 %85, 1
  %87 = icmp eq i64 %86, 0
  %88 = getelementptr inbounds %"struct.webrtc::VideoEncoder::EncoderInfo", %"struct.webrtc::VideoEncoder::EncoderInfo"* %1, i64 0, i32 8, i64 4, i32 0, i32 1, i32 0, i32 0
  %89 = load i8*, i8** %88, align 8
  %90 = getelementptr inbounds %"struct.webrtc::VideoEncoder::EncoderInfo", %"struct.webrtc::VideoEncoder::EncoderInfo"* %1, i64 0, i32 8, i64 4, i32 0, i32 1
  %91 = bitcast %"union.absl::inlined_vector_internal::Storage<unsigned char, 4, std::__1::allocator<unsigned char> >::Data"* %90 to i8*
  %92 = select i1 %87, i8* %91, i8* %89
  %93 = lshr i64 %85, 1
  %94 = getelementptr inbounds %"struct.webrtc::VideoEncoder::EncoderInfo", %"struct.webrtc::VideoEncoder::EncoderInfo"* %0, i64 0, i32 8, i64 4, i32 0
  tail call void @_ZN4absl23inlined_vector_internal7StorageIhLm4ENSt3__19allocatorIhEEE6AssignINS0_20IteratorValueAdapterIS4_PKhEEEEvT_m(%"class.absl::inlined_vector_internal::Storage"* %94, i8* %92, i64 %93) #14
  %95 = getelementptr inbounds %"struct.webrtc::VideoEncoder::EncoderInfo", %"struct.webrtc::VideoEncoder::EncoderInfo"* %0, i64 0, i32 9
  %96 = getelementptr inbounds %"struct.webrtc::VideoEncoder::EncoderInfo", %"struct.webrtc::VideoEncoder::EncoderInfo"* %1, i64 0, i32 9, i32 0, i32 0
  %97 = load %"struct.webrtc::VideoEncoder::ResolutionBitrateLimits"*, %"struct.webrtc::VideoEncoder::ResolutionBitrateLimits"** %96, align 8
  %98 = getelementptr inbounds %"struct.webrtc::VideoEncoder::EncoderInfo", %"struct.webrtc::VideoEncoder::EncoderInfo"* %1, i64 0, i32 9, i32 0, i32 1
  %99 = load %"struct.webrtc::VideoEncoder::ResolutionBitrateLimits"*, %"struct.webrtc::VideoEncoder::ResolutionBitrateLimits"** %98, align 8
  tail call void @_ZNSt3__16vectorIN6webrtc12VideoEncoder23ResolutionBitrateLimitsENS_9allocatorIS3_EEE6assignIPS3_EENS_9enable_ifIXaasr27__is_cpp17_forward_iteratorIT_EE5valuesr16is_constructibleIS3_NS_15iterator_traitsISA_E9referenceEEE5valueEvE4typeESA_SA_(%"class.std::__1::vector.88"* %95, %"struct.webrtc::VideoEncoder::ResolutionBitrateLimits"* %97, %"struct.webrtc::VideoEncoder::ResolutionBitrateLimits"* %99) #14
  %100 = getelementptr inbounds %"struct.webrtc::VideoEncoder::EncoderInfo", %"struct.webrtc::VideoEncoder::EncoderInfo"* %1, i64 0, i32 10
  %101 = load i8, i8* %100, align 8, !range !6
  %102 = getelementptr inbounds %"struct.webrtc::VideoEncoder::EncoderInfo", %"struct.webrtc::VideoEncoder::EncoderInfo"* %0, i64 0, i32 10
  store i8 %101, i8* %102, align 8
  %103 = getelementptr inbounds %"struct.webrtc::VideoEncoder::EncoderInfo", %"struct.webrtc::VideoEncoder::EncoderInfo"* %1, i64 0, i32 11, i32 0, i32 0, i32 0, i32 0, i32 0
  %104 = load i64, i64* %103, align 8
  %105 = and i64 %104, 1
  %106 = icmp eq i64 %105, 0
  %107 = getelementptr inbounds %"struct.webrtc::VideoEncoder::EncoderInfo", %"struct.webrtc::VideoEncoder::EncoderInfo"* %1, i64 0, i32 11, i32 0, i32 1, i32 0, i32 0
  %108 = load i32*, i32** %107, align 8
  %109 = getelementptr inbounds %"struct.webrtc::VideoEncoder::EncoderInfo", %"struct.webrtc::VideoEncoder::EncoderInfo"* %1, i64 0, i32 11, i32 0, i32 1
  %110 = bitcast %"union.absl::inlined_vector_internal::Storage<webrtc::VideoFrameBuffer::Type, 5, std::__1::allocator<webrtc::VideoFrameBuffer::Type> >::Data"* %109 to i32*
  %111 = select i1 %106, i32* %110, i32* %108
  %112 = lshr i64 %104, 1
  %113 = getelementptr inbounds %"struct.webrtc::VideoEncoder::EncoderInfo", %"struct.webrtc::VideoEncoder::EncoderInfo"* %0, i64 0, i32 11, i32 0
  %114 = shl nuw i64 %112, 2
  %115 = ashr exact i64 %114, 2
  tail call void @_ZN4absl23inlined_vector_internal7StorageIN6webrtc16VideoFrameBuffer4TypeELm5ENSt3__19allocatorIS4_EEE6AssignINS0_20IteratorValueAdapterIS7_PKS4_EEEEvT_m(%"class.absl::inlined_vector_internal::Storage.96"* %113, i32* %111, i64 %115) #14
  br label %116

116:                                              ; preds = %117, %37
  ret %"struct.webrtc::VideoEncoder::EncoderInfo"* %0

117:                                              ; preds = %2
  %118 = getelementptr inbounds %"struct.webrtc::VideoEncoder::EncoderInfo", %"struct.webrtc::VideoEncoder::EncoderInfo"* %0, i64 0, i32 5
  %119 = getelementptr inbounds %"struct.webrtc::VideoEncoder::EncoderInfo", %"struct.webrtc::VideoEncoder::EncoderInfo"* %1, i64 0, i32 5
  tail call void @llvm.memcpy.p0i8.p0i8.i64(i8* align 8 %118, i8* align 8 %119, i64 3, i1 false)
  %120 = getelementptr inbounds %"struct.webrtc::VideoEncoder::EncoderInfo", %"struct.webrtc::VideoEncoder::EncoderInfo"* %1, i64 0, i32 10
  %121 = load i8, i8* %120, align 8, !range !6
  %122 = getelementptr inbounds %"struct.webrtc::VideoEncoder::EncoderInfo", %"struct.webrtc::VideoEncoder::EncoderInfo"* %0, i64 0, i32 10
  store i8 %121, i8* %122, align 8
  br label %116
}

; Function Attrs: nounwind
declare void @_ZN6webrtc12VideoEncoder11EncoderInfoD1Ev(%"struct.webrtc::VideoEncoder::EncoderInfo"*) unnamed_addr #3

; Function Attrs: nounwind ssp uwtable
define hidden void @_ZN5blink15RTCVideoEncoder4Impl26UseOutputBitstreamBufferIdEi(%"class.blink::RTCVideoEncoder::Impl"*, i32) local_unnamed_addr #0 align 2 {
  %3 = alloca %"class.media::BitstreamBuffer", align 8
  %4 = alloca %"class.base::UnsafeSharedMemoryRegion", align 8
  %5 = getelementptr inbounds %"class.blink::RTCVideoEncoder::Impl", %"class.blink::RTCVideoEncoder::Impl"* %0, i64 0, i32 6, i32 0, i32 0, i32 0
  %6 = load %"class.media::VideoEncodeAccelerator"*, %"class.media::VideoEncodeAccelerator"** %5, align 8
  %7 = icmp eq %"class.media::VideoEncodeAccelerator"* %6, null
  br i1 %7, label %22, label %8

8:                                                ; preds = %2
  %9 = getelementptr inbounds %"class.blink::RTCVideoEncoder::Impl", %"class.blink::RTCVideoEncoder::Impl"* %0, i64 0, i32 17
  %10 = tail call dereferenceable(112) %"struct.std::__1::pair"* @_ZN3WTF6VectorINSt3__14pairIN4base24UnsafeSharedMemoryRegionENS3_27WritableSharedMemoryMappingEEELj0ENS_18PartitionAllocatorEE2atEj(%"class.WTF::Vector.63"* %9, i32 %1) #14
  %11 = getelementptr inbounds %"struct.std::__1::pair", %"struct.std::__1::pair"* %10, i64 0, i32 0
  call void @_ZNK4base24UnsafeSharedMemoryRegion9DuplicateEv(%"class.base::UnsafeSharedMemoryRegion"* nonnull sret %4, %"class.base::UnsafeSharedMemoryRegion"* %11) #14
  %12 = call dereferenceable(112) %"struct.std::__1::pair"* @_ZN3WTF6VectorINSt3__14pairIN4base24UnsafeSharedMemoryRegionENS3_27WritableSharedMemoryMappingEEELj0ENS_18PartitionAllocatorEE2atEj(%"class.WTF::Vector.63"* %9, i32 %1) #14
  %13 = getelementptr inbounds %"struct.std::__1::pair", %"struct.std::__1::pair"* %12, i64 0, i32 0, i32 0, i32 2
  %14 = load i64, i64* %13, align 8
  call void @_ZN5media15BitstreamBufferC1EiN4base24UnsafeSharedMemoryRegionEmlNS1_9TimeDeltaE(%"class.media::BitstreamBuffer"* nonnull %3, i32 %1, %"class.base::UnsafeSharedMemoryRegion"* nonnull %4, i64 %14, i64 0, i64 -9223372036854775808) #14
  %15 = bitcast %"class.media::VideoEncodeAccelerator"* %6 to void (%"class.media::VideoEncodeAccelerator"*, %"class.media::BitstreamBuffer"*)***
  %16 = load void (%"class.media::VideoEncodeAccelerator"*, %"class.media::BitstreamBuffer"*)**, void (%"class.media::VideoEncodeAccelerator"*, %"class.media::BitstreamBuffer"*)*** %15, align 8
  %17 = getelementptr inbounds void (%"class.media::VideoEncodeAccelerator"*, %"class.media::BitstreamBuffer"*)*, void (%"class.media::VideoEncodeAccelerator"*, %"class.media::BitstreamBuffer"*)** %16, i64 3
  %18 = load void (%"class.media::VideoEncodeAccelerator"*, %"class.media::BitstreamBuffer"*)*, void (%"class.media::VideoEncodeAccelerator"*, %"class.media::BitstreamBuffer"*)** %17, align 8
  call void %18(%"class.media::VideoEncodeAccelerator"* nonnull %6, %"class.media::BitstreamBuffer"* nonnull %3) #14
  call void @_ZN5media15BitstreamBufferD1Ev(%"class.media::BitstreamBuffer"* nonnull %3) #14
  call void @_ZN4base24UnsafeSharedMemoryRegionD1Ev(%"class.base::UnsafeSharedMemoryRegion"* nonnull %4) #14
  %19 = getelementptr inbounds %"class.blink::RTCVideoEncoder::Impl", %"class.blink::RTCVideoEncoder::Impl"* %0, i64 0, i32 19
  %20 = load i32, i32* %19, align 8
  %21 = add nsw i32 %20, 1
  store i32 %21, i32* %19, align 8
  br label %22

22:                                               ; preds = %2, %8
  ret void
}

declare void @_ZNK4base24UnsafeSharedMemoryRegion9DuplicateEv(%"class.base::UnsafeSharedMemoryRegion"* sret, %"class.base::UnsafeSharedMemoryRegion"*) local_unnamed_addr #1

declare void @_ZN5media15BitstreamBufferC1EiN4base24UnsafeSharedMemoryRegionEmlNS1_9TimeDeltaE(%"class.media::BitstreamBuffer"*, i32, %"class.base::UnsafeSharedMemoryRegion"*, i64, i64, i64) unnamed_addr #1

; Function Attrs: nounwind
declare void @_ZN5media15BitstreamBufferD1Ev(%"class.media::BitstreamBuffer"*) unnamed_addr #3

; Function Attrs: nounwind
declare void @_ZN4base24UnsafeSharedMemoryRegionD1Ev(%"class.base::UnsafeSharedMemoryRegion"*) unnamed_addr #3

; Function Attrs: nounwind ssp uwtable
define hidden void @_ZN5blink15RTCVideoEncoder4Impl31RequestEncodingParametersChangeERKN6webrtc12VideoEncoder21RateControlParametersE(%"class.blink::RTCVideoEncoder::Impl"* nocapture readonly, %"struct.webrtc::VideoEncoder::RateControlParameters"* dereferenceable(360)) #0 align 2 {
  %3 = alloca %"class.logging::CheckOpResult", align 8
  %4 = alloca %"class.media::VideoBitrateAllocation", align 4
  %5 = alloca %"class.logging::CheckOpResult", align 8
  %6 = alloca %"class.logging::CheckError", align 8
  %7 = alloca %"class.logging::LogMessage", align 8
  %8 = alloca %"class.std::__1::basic_string", align 8
  %9 = getelementptr inbounds %"class.blink::RTCVideoEncoder::Impl", %"class.blink::RTCVideoEncoder::Impl"* %0, i64 0, i32 6, i32 0, i32 0, i32 0
  %10 = load %"class.media::VideoEncodeAccelerator"*, %"class.media::VideoEncodeAccelerator"** %9, align 8
  %11 = icmp eq %"class.media::VideoEncodeAccelerator"* %10, null
  br i1 %11, label %85, label %12

12:                                               ; preds = %2
  %13 = bitcast %"class.media::VideoBitrateAllocation"* %4 to i8*
  call void @llvm.lifetime.start.p0i8(i64 84, i8* nonnull %13) #14
  call void @llvm.memset.p0i8.i64(i8* nonnull align 4 %13, i8 -86, i64 84, i1 false)
  call void @_ZN5media22VideoBitrateAllocationC1Ev(%"class.media::VideoBitrateAllocation"* nonnull %4) #14
  %14 = getelementptr inbounds %"struct.webrtc::VideoEncoder::RateControlParameters", %"struct.webrtc::VideoEncoder::RateControlParameters"* %1, i64 0, i32 2
  %15 = getelementptr inbounds %"class.webrtc::VideoBitrateAllocation", %"class.webrtc::VideoBitrateAllocation"* %14, i64 0, i32 0
  %16 = load i32, i32* %15, align 4
  %17 = icmp eq i32 %16, 0
  br i1 %17, label %18, label %20

18:                                               ; preds = %12
  %19 = call zeroext i1 @_ZN5media22VideoBitrateAllocation10SetBitrateEmmi(%"class.media::VideoBitrateAllocation"* nonnull %4, i64 0, i64 0, i32 1) #14
  br label %20

20:                                               ; preds = %18, %12
  %21 = getelementptr inbounds %"struct.webrtc::VideoEncoder::RateControlParameters", %"struct.webrtc::VideoEncoder::RateControlParameters"* %1, i64 0, i32 3
  %22 = load double, double* %21, align 8
  %23 = fadd double %22, 5.000000e-01
  %24 = fptoui double %23 to i32
  %25 = icmp ugt i32 %24, 1
  %26 = bitcast %"class.logging::CheckOpResult"* %5 to i8*
  %27 = getelementptr inbounds %"class.logging::CheckOpResult", %"class.logging::CheckOpResult"* %5, i64 0, i32 0
  %28 = bitcast %"class.logging::CheckOpResult"* %3 to i8*
  %29 = getelementptr inbounds %"class.logging::CheckOpResult", %"class.logging::CheckOpResult"* %3, i64 0, i32 0
  %30 = bitcast %"class.logging::CheckError"* %6 to i8*
  %31 = bitcast %"class.logging::LogMessage"* %7 to i8*
  %32 = getelementptr inbounds %"class.logging::LogMessage", %"class.logging::LogMessage"* %7, i64 0, i32 2
  %33 = bitcast %"class.std::__1::basic_ostringstream"* %32 to %"class.std::__1::basic_ostream"*
  %34 = bitcast %"class.std::__1::basic_string"* %8 to i8*
  %35 = bitcast %"class.std::__1::basic_string"* %8 to %"struct.std::__1::basic_string<char, std::__1::char_traits<char>, std::__1::allocator<char> >::__short"*
  %36 = getelementptr inbounds %"struct.std::__1::basic_string<char, std::__1::char_traits<char>, std::__1::allocator<char> >::__short", %"struct.std::__1::basic_string<char, std::__1::char_traits<char>, std::__1::allocator<char> >::__short"* %35, i64 0, i32 1, i32 0
  %37 = getelementptr inbounds %"class.std::__1::basic_string", %"class.std::__1::basic_string"* %8, i64 0, i32 0, i32 0, i32 0, i32 0, i32 0, i32 0
  %38 = getelementptr inbounds %"class.std::__1::basic_string", %"class.std::__1::basic_string"* %8, i64 0, i32 0, i32 0, i32 0, i32 0, i32 0, i32 1
  br label %39

39:                                               ; preds = %82, %20
  %40 = phi i64 [ 0, %20 ], [ %83, %82 ]
  br label %50

41:                                               ; preds = %82
  %42 = select i1 %25, i32 %24, i32 1
  %43 = load %"class.media::VideoEncodeAccelerator"*, %"class.media::VideoEncodeAccelerator"** %9, align 8
  %44 = bitcast %"class.media::VideoEncodeAccelerator"* %43 to void (%"class.media::VideoEncodeAccelerator"*, %"class.media::VideoBitrateAllocation"*, i32)***
  %45 = load void (%"class.media::VideoEncodeAccelerator"*, %"class.media::VideoBitrateAllocation"*, i32)**, void (%"class.media::VideoEncodeAccelerator"*, %"class.media::VideoBitrateAllocation"*, i32)*** %44, align 8
  %46 = getelementptr inbounds void (%"class.media::VideoEncodeAccelerator"*, %"class.media::VideoBitrateAllocation"*, i32)*, void (%"class.media::VideoEncodeAccelerator"*, %"class.media::VideoBitrateAllocation"*, i32)** %45, i64 5
  %47 = load void (%"class.media::VideoEncodeAccelerator"*, %"class.media::VideoBitrateAllocation"*, i32)*, void (%"class.media::VideoEncodeAccelerator"*, %"class.media::VideoBitrateAllocation"*, i32)** %46, align 8
  call void %47(%"class.media::VideoEncodeAccelerator"* %43, %"class.media::VideoBitrateAllocation"* nonnull dereferenceable(84) %4, i32 %42) #14
  call void @llvm.lifetime.end.p0i8(i64 84, i8* nonnull %13) #14
  br label %85

48:                                               ; preds = %62
  %49 = icmp eq i64 %64, 4
  br i1 %49, label %82, label %50

50:                                               ; preds = %48, %39
  %51 = phi i64 [ 0, %39 ], [ %64, %48 ]
  %52 = call i32 @_ZNK6webrtc22VideoBitrateAllocation10GetBitrateEmm(%"class.webrtc::VideoBitrateAllocation"* %14, i64 %40, i64 %51) #14
  call void @llvm.lifetime.start.p0i8(i64 8, i8* nonnull %26) #14
  store i8* inttoptr (i64 -6148914691236517206 to i8*), i8** %27, align 8
  call void @llvm.lifetime.start.p0i8(i64 8, i8* nonnull %28)
  %53 = icmp slt i32 %52, 0
  br i1 %53, label %55, label %54

54:                                               ; preds = %50
  call void @llvm.lifetime.end.p0i8(i64 8, i8* nonnull %28)
  store i8* null, i8** %27, align 8
  br label %62

55:                                               ; preds = %50
  %56 = call i8* @_ZN7logging15CheckOpValueStrEj(i32 %52) #14
  %57 = call i8* @_ZN7logging15CheckOpValueStrEj(i32 2147483647) #14
  call void @_ZN7logging13CheckOpResultC1EPKcPcS3_(%"class.logging::CheckOpResult"* nonnull %3, i8* getelementptr inbounds ([72 x i8], [72 x i8]* @.str.3, i64 0, i64 0), i8* %56, i8* %57) #14
  %58 = load i8*, i8** %29, align 8
  call void @llvm.lifetime.end.p0i8(i64 8, i8* nonnull %28)
  store i8* %58, i8** %27, align 8
  %59 = icmp eq i8* %58, null
  br i1 %59, label %62, label %60

60:                                               ; preds = %55
  call void @llvm.lifetime.start.p0i8(i64 8, i8* nonnull %30) #14
  call void @_ZN7logging10CheckError7CheckOpEPKciPNS_13CheckOpResultE(%"class.logging::CheckError"* nonnull sret %6, i8* getelementptr inbounds ([78 x i8], [78 x i8]* @.str.4, i64 0, i64 0), i32 761, %"class.logging::CheckOpResult"* nonnull %5) #14
  %61 = call dereferenceable(160) %"class.std::__1::basic_ostream"* @_ZN7logging10CheckError6streamEv(%"class.logging::CheckError"* nonnull %6) #14
  call void @_ZN7logging10CheckErrorD1Ev(%"class.logging::CheckError"* nonnull %6) #14
  call void @llvm.lifetime.end.p0i8(i64 8, i8* nonnull %30) #14
  br label %62

62:                                               ; preds = %54, %55, %60
  call void @llvm.lifetime.end.p0i8(i64 8, i8* nonnull %26) #14
  %63 = call zeroext i1 @_ZN5media22VideoBitrateAllocation10SetBitrateEmmi(%"class.media::VideoBitrateAllocation"* nonnull %4, i64 %40, i64 %51, i32 %52) #14
  %64 = add nuw nsw i64 %51, 1
  br i1 %63, label %48, label %65

65:                                               ; preds = %62
  %66 = call zeroext i1 @_ZN7logging22ShouldCreateLogMessageEi(i32 1) #14
  br i1 %66, label %67, label %82

67:                                               ; preds = %65
  call void @llvm.lifetime.start.p0i8(i64 304, i8* nonnull %31) #14
  call void @_ZN7logging10LogMessageC1EPKcii(%"class.logging::LogMessage"* nonnull %7, i8* getelementptr inbounds ([78 x i8], [78 x i8]* @.str.4, i64 0, i64 0), i32 763, i32 1) #14
  %68 = call dereferenceable(160) %"class.std::__1::basic_ostream"* @_ZNSt3__124__put_character_sequenceIcNS_11char_traitsIcEEEERNS_13basic_ostreamIT_T0_EES7_PKS4_m(%"class.std::__1::basic_ostream"* dereferenceable(160) %33, i8* getelementptr inbounds ([33 x i8], [33 x i8]* @.str.5, i64 0, i64 0), i64 32) #14
  call void @llvm.lifetime.start.p0i8(i64 24, i8* nonnull %34) #14
  call void @_ZNK6webrtc22VideoBitrateAllocation8ToStringEv(%"class.std::__1::basic_string"* nonnull sret %8, %"class.webrtc::VideoBitrateAllocation"* %14) #14
  %69 = load i8, i8* %36, align 1
  %70 = icmp slt i8 %69, 0
  %71 = load i8*, i8** %37, align 8
  %72 = load i64, i64* %38, align 8
  %73 = zext i8 %69 to i64
  %74 = select i1 %70, i8* %71, i8* %34
  %75 = select i1 %70, i64 %72, i64 %73
  %76 = call dereferenceable(160) %"class.std::__1::basic_ostream"* @_ZNSt3__124__put_character_sequenceIcNS_11char_traitsIcEEEERNS_13basic_ostreamIT_T0_EES7_PKS4_m(%"class.std::__1::basic_ostream"* dereferenceable(160) %68, i8* %74, i64 %75) #14
  %77 = load i8, i8* %36, align 1
  %78 = icmp slt i8 %77, 0
  br i1 %78, label %79, label %81

79:                                               ; preds = %67
  %80 = load i8*, i8** %37, align 8
  call void @_ZdlPv(i8* %80) #15
  br label %81

81:                                               ; preds = %67, %79
  call void @llvm.lifetime.end.p0i8(i64 24, i8* nonnull %34) #14
  call void @_ZN7logging10LogMessageD1Ev(%"class.logging::LogMessage"* nonnull %7) #14
  call void @llvm.lifetime.end.p0i8(i64 304, i8* nonnull %31) #14
  br label %82

82:                                               ; preds = %48, %81, %65
  %83 = add nuw nsw i64 %40, 1
  %84 = icmp eq i64 %83, 5
  br i1 %84, label %41, label %39

85:                                               ; preds = %2, %41
  ret void
}

; Function Attrs: argmemonly nounwind
declare void @llvm.memset.p0i8.i64(i8* nocapture writeonly, i8, i64, i1 immarg) #2

declare void @_ZN5media22VideoBitrateAllocationC1Ev(%"class.media::VideoBitrateAllocation"*) unnamed_addr #1

declare zeroext i1 @_ZN5media22VideoBitrateAllocation10SetBitrateEmmi(%"class.media::VideoBitrateAllocation"*, i64, i64, i32) local_unnamed_addr #1

declare i32 @_ZNK6webrtc22VideoBitrateAllocation10GetBitrateEmm(%"class.webrtc::VideoBitrateAllocation"*, i64, i64) local_unnamed_addr #1

declare void @_ZN7logging10CheckError7CheckOpEPKciPNS_13CheckOpResultE(%"class.logging::CheckError"* sret, i8*, i32, %"class.logging::CheckOpResult"*) local_unnamed_addr #1

declare dereferenceable(160) %"class.std::__1::basic_ostream"* @_ZN7logging10CheckError6streamEv(%"class.logging::CheckError"*) local_unnamed_addr #1

; Function Attrs: nounwind
declare void @_ZN7logging10CheckErrorD1Ev(%"class.logging::CheckError"*) unnamed_addr #3

declare zeroext i1 @_ZN7logging22ShouldCreateLogMessageEi(i32) local_unnamed_addr #1

declare void @_ZN7logging10LogMessageC1EPKcii(%"class.logging::LogMessage"*, i8*, i32, i32) unnamed_addr #1

declare void @_ZNK6webrtc22VideoBitrateAllocation8ToStringEv(%"class.std::__1::basic_string"* sret, %"class.webrtc::VideoBitrateAllocation"*) local_unnamed_addr #1

; Function Attrs: nounwind
declare void @_ZN7logging10LogMessageD1Ev(%"class.logging::LogMessage"*) unnamed_addr #3

; Function Attrs: nounwind ssp uwtable
define hidden i32 @_ZNK5blink15RTCVideoEncoder4Impl9GetStatusEv(%"class.blink::RTCVideoEncoder::Impl"*) local_unnamed_addr #0 align 2 {
  %2 = getelementptr inbounds %"class.blink::RTCVideoEncoder::Impl", %"class.blink::RTCVideoEncoder::Impl"* %0, i64 0, i32 29
  %3 = getelementptr inbounds %"class.base::Lock", %"class.base::Lock"* %2, i64 0, i32 0, i32 0
  %4 = tail call i32 @pthread_mutex_trylock(%union.pthread_mutex_t* %3) #14
  %5 = icmp eq i32 %4, 0
  br i1 %5, label %8, label %6, !prof !2

6:                                                ; preds = %1
  %7 = getelementptr inbounds %"class.base::Lock", %"class.base::Lock"* %2, i64 0, i32 0
  tail call void @_ZN4base8internal8LockImpl24LockInternalWithTrackingEv(%"class.base::internal::LockImpl"* %7) #14
  br label %8

8:                                                ; preds = %1, %6
  %9 = getelementptr inbounds %"class.blink::RTCVideoEncoder::Impl", %"class.blink::RTCVideoEncoder::Impl"* %0, i64 0, i32 30
  %10 = load i32, i32* %9, align 8
  %11 = tail call i32 @pthread_mutex_unlock(%union.pthread_mutex_t* %3) #14
  ret i32 %10
}

; Function Attrs: nounwind ssp uwtable
define hidden void @_ZN5blink15RTCVideoEncoder4Impl9SetStatusEi(%"class.blink::RTCVideoEncoder::Impl"*, i32) local_unnamed_addr #0 align 2 {
  %3 = getelementptr inbounds %"class.blink::RTCVideoEncoder::Impl", %"class.blink::RTCVideoEncoder::Impl"* %0, i64 0, i32 29
  %4 = getelementptr inbounds %"class.base::Lock", %"class.base::Lock"* %3, i64 0, i32 0, i32 0
  %5 = tail call i32 @pthread_mutex_trylock(%union.pthread_mutex_t* %4) #14
  %6 = icmp eq i32 %5, 0
  br i1 %6, label %9, label %7, !prof !2

7:                                                ; preds = %2
  %8 = getelementptr inbounds %"class.base::Lock", %"class.base::Lock"* %3, i64 0, i32 0
  tail call void @_ZN4base8internal8LockImpl24LockInternalWithTrackingEv(%"class.base::internal::LockImpl"* %8) #14
  br label %9

9:                                                ; preds = %2, %7
  %10 = getelementptr inbounds %"class.blink::RTCVideoEncoder::Impl", %"class.blink::RTCVideoEncoder::Impl"* %0, i64 0, i32 30
  store i32 %1, i32* %10, align 8
  %11 = tail call i32 @pthread_mutex_unlock(%union.pthread_mutex_t* %4) #14
  ret void
}

; Function Attrs: nounwind ssp uwtable
define hidden void @_ZNK5blink15RTCVideoEncoder4Impl23RecordTimestampMatchUMAEv(%"class.blink::RTCVideoEncoder::Impl"* nocapture readonly) local_unnamed_addr #0 align 2 {
  %2 = load atomic i64, i64* @_ZZNK5blink15RTCVideoEncoder4Impl23RecordTimestampMatchUMAEvE24atomic_histogram_pointer.0.0.0.0.0 acquire, align 8
  %3 = inttoptr i64 %2 to %"class.base::HistogramBase"*
  %4 = icmp eq i64 %2, 0
  br i1 %4, label %5, label %8

5:                                                ; preds = %1
  %6 = tail call %"class.base::HistogramBase"* @_ZN4base16BooleanHistogram10FactoryGetEPKci(i8* getelementptr inbounds ([43 x i8], [43 x i8]* @.str.6, i64 0, i64 0), i32 1) #14
  %7 = ptrtoint %"class.base::HistogramBase"* %6 to i64
  store atomic i64 %7, i64* @_ZZNK5blink15RTCVideoEncoder4Impl23RecordTimestampMatchUMAEvE24atomic_histogram_pointer.0.0.0.0.0 release, align 8
  br label %8

8:                                                ; preds = %1, %5
  %9 = phi %"class.base::HistogramBase"* [ %3, %1 ], [ %6, %5 ]
  %10 = getelementptr inbounds %"class.blink::RTCVideoEncoder::Impl", %"class.blink::RTCVideoEncoder::Impl"* %0, i64 0, i32 8
  %11 = load i8, i8* %10, align 8, !range !6
  %12 = icmp eq i8 %11, 0
  tail call void @_ZN4base13HistogramBase10AddBooleanEb(%"class.base::HistogramBase"* %9, i1 zeroext %12) #14
  ret void
}

declare %"class.base::HistogramBase"* @_ZN4base16BooleanHistogram10FactoryGetEPKci(i8*, i32) local_unnamed_addr #1

declare void @_ZN4base13HistogramBase10AddBooleanEb(%"class.base::HistogramBase"*, i1 zeroext) local_unnamed_addr #1

; Function Attrs: nounwind ssp uwtable
define hidden void @_ZN5blink15RTCVideoEncoder4Impl23RequireBitstreamBuffersEjRKN3gfx4SizeEm(%"class.blink::RTCVideoEncoder::Impl"*, i32, %"class.gfx::Size"* dereferenceable(8), i64) unnamed_addr #0 align 2 {
  %5 = alloca i32, align 4
  %6 = alloca %"class.base::UnsafeSharedMemoryRegion", align 8
  %7 = alloca %"class.base::Location", align 8
  %8 = alloca %"class.WTF::String", align 8
  %9 = alloca %"class.base::WritableSharedMemoryMapping", align 8
  %10 = alloca %"class.base::Location", align 8
  %11 = alloca %"class.WTF::String", align 8
  %12 = alloca %"class.std::__1::unique_ptr.56", align 8
  %13 = alloca %"class.base::UnsafeSharedMemoryRegion", align 8
  %14 = alloca %"class.base::WritableSharedMemoryMapping", align 8
  %15 = alloca %"class.base::Location", align 8
  %16 = alloca %"class.WTF::String", align 8
  %17 = alloca %"struct.std::__1::pair", align 8
  %18 = alloca %"class.media::BitstreamBuffer", align 8
  %19 = alloca %"class.base::UnsafeSharedMemoryRegion", align 8
  %20 = getelementptr inbounds %"class.blink::RTCVideoEncoder::Impl", %"class.blink::RTCVideoEncoder::Impl"* %0, i64 0, i32 4
  %21 = bitcast %"class.(anonymous namespace)::ScopedSignaledValue"* %20 to i64*
  %22 = load i64, i64* %21, align 8
  %23 = getelementptr inbounds %"class.blink::RTCVideoEncoder::Impl", %"class.blink::RTCVideoEncoder::Impl"* %0, i64 0, i32 4, i32 0, i32 1
  %24 = load i32*, i32** %23, align 8
  %25 = bitcast %"class.(anonymous namespace)::ScopedSignaledValue"* %20 to i8*
  tail call void @llvm.memset.p0i8.i64(i8* align 8 %25, i8 0, i64 16, i1 false) #14
  %26 = getelementptr inbounds %"class.blink::RTCVideoEncoder::Impl", %"class.blink::RTCVideoEncoder::Impl"* %0, i64 0, i32 6, i32 0, i32 0, i32 0
  %27 = load %"class.media::VideoEncodeAccelerator"*, %"class.media::VideoEncodeAccelerator"** %26, align 8
  %28 = icmp eq %"class.media::VideoEncodeAccelerator"* %27, null
  br i1 %28, label %261, label %29

29:                                               ; preds = %4
  %30 = getelementptr inbounds %"class.blink::RTCVideoEncoder::Impl", %"class.blink::RTCVideoEncoder::Impl"* %0, i64 0, i32 13
  %31 = bitcast %"class.gfx::Size"* %2 to i64*
  %32 = bitcast %"class.gfx::Size"* %30 to i64*
  %33 = load i64, i64* %31, align 4
  store i64 %33, i64* %32, align 4
  %34 = getelementptr inbounds %"class.blink::RTCVideoEncoder::Impl", %"class.blink::RTCVideoEncoder::Impl"* %0, i64 0, i32 20
  %35 = load i8, i8* %34, align 4, !range !6
  %36 = icmp eq i8 %35, 0
  br i1 %36, label %37, label %158

37:                                               ; preds = %29
  %38 = bitcast i32* %5 to i8*
  call void @llvm.lifetime.start.p0i8(i64 4, i8* nonnull %38) #14
  store i32 0, i32* %5, align 4
  %39 = add i32 %1, 1
  %40 = icmp eq i32 %39, 0
  br i1 %40, label %65, label %41

41:                                               ; preds = %37
  %42 = bitcast %"class.base::UnsafeSharedMemoryRegion"* %6 to i8*
  %43 = bitcast %"class.base::Location"* %7 to i8*
  %44 = bitcast %"class.WTF::String"* %8 to i8*
  %45 = bitcast %"class.blink::RTCVideoEncoder::Impl"* %0 to void (%"class.blink::RTCVideoEncoder::Impl"*, i32)***
  %46 = getelementptr inbounds %"class.WTF::String", %"class.WTF::String"* %8, i64 0, i32 0, i32 0
  %47 = bitcast %"class.base::WritableSharedMemoryMapping"* %9 to i8*
  %48 = getelementptr inbounds %"class.base::WritableSharedMemoryMapping", %"class.base::WritableSharedMemoryMapping"* %9, i64 0, i32 0, i32 1
  %49 = getelementptr inbounds %"class.base::WritableSharedMemoryMapping", %"class.base::WritableSharedMemoryMapping"* %9, i64 0, i32 0
  %50 = getelementptr inbounds %"class.blink::RTCVideoEncoder::Impl", %"class.blink::RTCVideoEncoder::Impl"* %0, i64 0, i32 16
  %51 = bitcast %"class.std::__1::unique_ptr.56"* %12 to i8*
  %52 = getelementptr inbounds %"class.std::__1::unique_ptr.56", %"class.std::__1::unique_ptr.56"* %12, i64 0, i32 0, i32 0, i32 0
  %53 = bitcast %"class.std::__1::unique_ptr.56"* %12 to i8**
  %54 = getelementptr inbounds %"class.blink::RTCVideoEncoder::Impl", %"class.blink::RTCVideoEncoder::Impl"* %0, i64 0, i32 16, i32 0, i32 0, i32 2
  %55 = getelementptr inbounds %"class.blink::RTCVideoEncoder::Impl", %"class.blink::RTCVideoEncoder::Impl"* %0, i64 0, i32 16, i32 0, i32 0, i32 1
  %56 = getelementptr inbounds %"class.WTF::Vector", %"class.WTF::Vector"* %50, i64 0, i32 0, i32 0, i32 0
  %57 = getelementptr inbounds %"class.blink::RTCVideoEncoder::Impl", %"class.blink::RTCVideoEncoder::Impl"* %0, i64 0, i32 18
  %58 = getelementptr inbounds %"class.blink::RTCVideoEncoder::Impl", %"class.blink::RTCVideoEncoder::Impl"* %0, i64 0, i32 18, i32 0, i32 0, i32 2
  %59 = getelementptr inbounds %"class.blink::RTCVideoEncoder::Impl", %"class.blink::RTCVideoEncoder::Impl"* %0, i64 0, i32 18, i32 0, i32 0, i32 1
  %60 = getelementptr inbounds %"class.WTF::Vector.68", %"class.WTF::Vector.68"* %57, i64 0, i32 0, i32 0, i32 0
  %61 = bitcast %"class.base::Location"* %10 to i8*
  %62 = bitcast %"class.WTF::String"* %11 to i8*
  %63 = getelementptr inbounds %"class.WTF::String", %"class.WTF::String"* %11, i64 0, i32 0, i32 0
  %64 = bitcast %"class.base::WritableSharedMemoryMapping"* %9 to i8*
  br label %66

65:                                               ; preds = %153, %37
  call void @llvm.lifetime.end.p0i8(i64 4, i8* nonnull %38) #14
  br label %158

66:                                               ; preds = %41, %153
  call void @llvm.lifetime.start.p0i8(i64 64, i8* nonnull %42) #14
  call void @llvm.memset.p0i8.i64(i8* nonnull align 8 %42, i8 -86, i64 64, i1 false)
  %67 = call i64 @_ZN5media10VideoFrame14AllocationSizeENS_16VideoPixelFormatERKN3gfx4SizeE(i32 1, %"class.gfx::Size"* dereferenceable(8) %2) #14
  call void @_ZN4base24UnsafeSharedMemoryRegion6CreateEm(%"class.base::UnsafeSharedMemoryRegion"* nonnull sret %6, i64 %67) #14
  %68 = call zeroext i1 @_ZNK4base24UnsafeSharedMemoryRegion7IsValidEv(%"class.base::UnsafeSharedMemoryRegion"* nonnull %6) #14
  br i1 %68, label %89, label %69

69:                                               ; preds = %66
  call void @llvm.lifetime.start.p0i8(i64 32, i8* nonnull %43) #14
  call void @_ZN4base8Location7CurrentEPKcS2_i(%"class.base::Location"* nonnull sret %7, i8* getelementptr inbounds ([24 x i8], [24 x i8]* @.str.7, i64 0, i64 0), i8* getelementptr inbounds ([78 x i8], [78 x i8]* @.str.4, i64 0, i64 0), i32 827) #14
  call void @llvm.lifetime.start.p0i8(i64 8, i8* nonnull %44) #14
  call void @_ZN3WTF6StringC2EPKcm(%"class.WTF::String"* nonnull %8, i8* getelementptr inbounds ([31 x i8], [31 x i8]* @.str.8, i64 0, i64 0), i64 30) #14
  %70 = load void (%"class.blink::RTCVideoEncoder::Impl"*, i32)**, void (%"class.blink::RTCVideoEncoder::Impl"*, i32)*** %45, align 8
  %71 = getelementptr inbounds void (%"class.blink::RTCVideoEncoder::Impl"*, i32)*, void (%"class.blink::RTCVideoEncoder::Impl"*, i32)** %70, i64 2
  %72 = load void (%"class.blink::RTCVideoEncoder::Impl"*, i32)*, void (%"class.blink::RTCVideoEncoder::Impl"*, i32)** %71, align 8
  call void %72(%"class.blink::RTCVideoEncoder::Impl"* %0, i32 2) #14
  %73 = load %"class.WTF::StringImpl"*, %"class.WTF::StringImpl"** %46, align 8
  %74 = icmp eq %"class.WTF::StringImpl"* %73, null
  br i1 %74, label %88, label %75

75:                                               ; preds = %69
  %76 = getelementptr inbounds %"class.WTF::StringImpl", %"class.WTF::StringImpl"* %73, i64 0, i32 2, i32 0, i32 0, i32 0, i32 0, i32 0
  %77 = load atomic i32, i32* %76 monotonic, align 4
  %78 = and i32 %77, 2
  %79 = icmp eq i32 %78, 0
  %80 = getelementptr inbounds %"class.WTF::StringImpl", %"class.WTF::StringImpl"* %73, i64 0, i32 0
  %81 = load i32, i32* %80, align 4
  br i1 %79, label %82, label %84

82:                                               ; preds = %75
  %83 = add i32 %81, -1
  store i32 %83, i32* %80, align 4
  br label %84

84:                                               ; preds = %82, %75
  %85 = phi i32 [ %83, %82 ], [ %81, %75 ]
  %86 = icmp eq i32 %85, 0
  br i1 %86, label %87, label %88

87:                                               ; preds = %84
  call void @_ZNK3WTF10StringImpl18DestroyIfNotStaticEv(%"class.WTF::StringImpl"* nonnull %73) #14
  br label %88

88:                                               ; preds = %69, %84, %87
  call void @llvm.lifetime.end.p0i8(i64 8, i8* nonnull %44) #14
  call void @llvm.lifetime.end.p0i8(i64 32, i8* nonnull %43) #14
  br label %150

89:                                               ; preds = %66
  call void @llvm.lifetime.start.p0i8(i64 48, i8* nonnull %47) #14
  call void @llvm.memset.p0i8.i64(i8* nonnull align 8 %64, i8 -86, i64 48, i1 false)
  call void @_ZNK4base24UnsafeSharedMemoryRegion3MapEv(%"class.base::WritableSharedMemoryMapping"* nonnull sret %9, %"class.base::UnsafeSharedMemoryRegion"* nonnull %6) #14
  %90 = load i8*, i8** %48, align 8
  %91 = icmp eq i8* %90, null
  br i1 %91, label %92, label %112

92:                                               ; preds = %89
  call void @llvm.lifetime.start.p0i8(i64 32, i8* nonnull %61) #14
  call void @_ZN4base8Location7CurrentEPKcS2_i(%"class.base::Location"* nonnull sret %10, i8* getelementptr inbounds ([24 x i8], [24 x i8]* @.str.7, i64 0, i64 0), i8* getelementptr inbounds ([78 x i8], [78 x i8]* @.str.4, i64 0, i64 0), i32 833) #14
  call void @llvm.lifetime.start.p0i8(i64 8, i8* nonnull %62) #14
  call void @_ZN3WTF6StringC2EPKcm(%"class.WTF::String"* nonnull %11, i8* getelementptr inbounds ([31 x i8], [31 x i8]* @.str.8, i64 0, i64 0), i64 30) #14
  %93 = load void (%"class.blink::RTCVideoEncoder::Impl"*, i32)**, void (%"class.blink::RTCVideoEncoder::Impl"*, i32)*** %45, align 8
  %94 = getelementptr inbounds void (%"class.blink::RTCVideoEncoder::Impl"*, i32)*, void (%"class.blink::RTCVideoEncoder::Impl"*, i32)** %93, i64 2
  %95 = load void (%"class.blink::RTCVideoEncoder::Impl"*, i32)*, void (%"class.blink::RTCVideoEncoder::Impl"*, i32)** %94, align 8
  call void %95(%"class.blink::RTCVideoEncoder::Impl"* %0, i32 2) #14
  %96 = load %"class.WTF::StringImpl"*, %"class.WTF::StringImpl"** %63, align 8
  %97 = icmp eq %"class.WTF::StringImpl"* %96, null
  br i1 %97, label %111, label %98

98:                                               ; preds = %92
  %99 = getelementptr inbounds %"class.WTF::StringImpl", %"class.WTF::StringImpl"* %96, i64 0, i32 2, i32 0, i32 0, i32 0, i32 0, i32 0
  %100 = load atomic i32, i32* %99 monotonic, align 4
  %101 = and i32 %100, 2
  %102 = icmp eq i32 %101, 0
  %103 = getelementptr inbounds %"class.WTF::StringImpl", %"class.WTF::StringImpl"* %96, i64 0, i32 0
  %104 = load i32, i32* %103, align 4
  br i1 %102, label %105, label %107

105:                                              ; preds = %98
  %106 = add i32 %104, -1
  store i32 %106, i32* %103, align 4
  br label %107

107:                                              ; preds = %105, %98
  %108 = phi i32 [ %106, %105 ], [ %104, %98 ]
  %109 = icmp eq i32 %108, 0
  br i1 %109, label %110, label %111

110:                                              ; preds = %107
  call void @_ZNK3WTF10StringImpl18DestroyIfNotStaticEv(%"class.WTF::StringImpl"* nonnull %96) #14
  br label %111

111:                                              ; preds = %92, %107, %110
  call void @llvm.lifetime.end.p0i8(i64 8, i8* nonnull %62) #14
  call void @llvm.lifetime.end.p0i8(i64 32, i8* nonnull %61) #14
  br label %148

112:                                              ; preds = %89
  call void @llvm.lifetime.start.p0i8(i64 8, i8* nonnull %51) #14
  %113 = call i8* @_Znwm(i64 112) #15
  %114 = bitcast i8* %113 to %"class.base::UnsafeSharedMemoryRegion"*
  call void @_ZN4base24UnsafeSharedMemoryRegionC1EOS0_(%"class.base::UnsafeSharedMemoryRegion"* nonnull %114, %"class.base::UnsafeSharedMemoryRegion"* nonnull dereferenceable(64) %6) #14
  %115 = getelementptr inbounds i8, i8* %113, i64 64
  %116 = bitcast i8* %115 to %"class.base::WritableSharedMemoryMapping"*
  call void @_ZN4base27WritableSharedMemoryMappingC1EOS0_(%"class.base::WritableSharedMemoryMapping"* %116, %"class.base::WritableSharedMemoryMapping"* nonnull dereferenceable(48) %9) #14
  store i8* %113, i8** %53, align 8
  %117 = load i32, i32* %54, align 4
  %118 = load i32, i32* %55, align 8
  %119 = icmp eq i32 %117, %118
  br i1 %119, label %128, label %120, !prof !19

120:                                              ; preds = %112
  %121 = ptrtoint i8* %113 to i64
  %122 = load %"class.std::__1::unique_ptr.56"*, %"class.std::__1::unique_ptr.56"** %56, align 8
  %123 = zext i32 %117 to i64
  %124 = getelementptr inbounds %"class.std::__1::unique_ptr.56", %"class.std::__1::unique_ptr.56"* %122, i64 %123
  store %"struct.std::__1::pair"* null, %"struct.std::__1::pair"** %52, align 8
  %125 = bitcast %"class.std::__1::unique_ptr.56"* %124 to i64*
  store i64 %121, i64* %125, align 8
  %126 = load i32, i32* %54, align 4
  %127 = add i32 %126, 1
  store i32 %127, i32* %54, align 4
  br label %129

128:                                              ; preds = %112
  call void @_ZN3WTF6VectorINSt3__110unique_ptrINS1_4pairIN4base24UnsafeSharedMemoryRegionENS4_27WritableSharedMemoryMappingEEENS1_14default_deleteIS7_EEEELj0ENS_18PartitionAllocatorEE14AppendSlowCaseISA_EEvOT_(%"class.WTF::Vector"* %50, %"class.std::__1::unique_ptr.56"* nonnull dereferenceable(8) %12) #14
  br label %129

129:                                              ; preds = %120, %128
  %130 = load %"struct.std::__1::pair"*, %"struct.std::__1::pair"** %52, align 8
  store %"struct.std::__1::pair"* null, %"struct.std::__1::pair"** %52, align 8
  %131 = icmp eq %"struct.std::__1::pair"* %130, null
  br i1 %131, label %136, label %132

132:                                              ; preds = %129
  %133 = getelementptr inbounds %"struct.std::__1::pair", %"struct.std::__1::pair"* %130, i64 0, i32 1, i32 0
  call void @_ZN4base19SharedMemoryMappingD2Ev(%"class.base::SharedMemoryMapping"* %133) #14
  %134 = getelementptr inbounds %"struct.std::__1::pair", %"struct.std::__1::pair"* %130, i64 0, i32 0
  call void @_ZN4base24UnsafeSharedMemoryRegionD1Ev(%"class.base::UnsafeSharedMemoryRegion"* %134) #14
  %135 = bitcast %"struct.std::__1::pair"* %130 to i8*
  call void @_ZdlPv(i8* %135) #15
  br label %136

136:                                              ; preds = %129, %132
  call void @llvm.lifetime.end.p0i8(i64 8, i8* nonnull %51) #14
  %137 = load i32, i32* %58, align 4
  %138 = load i32, i32* %59, align 8
  %139 = icmp eq i32 %137, %138
  br i1 %139, label %147, label %140, !prof !19

140:                                              ; preds = %136
  %141 = load i32*, i32** %60, align 8
  %142 = zext i32 %137 to i64
  %143 = getelementptr inbounds i32, i32* %141, i64 %142
  %144 = load i32, i32* %5, align 4
  store i32 %144, i32* %143, align 4
  %145 = load i32, i32* %58, align 4
  %146 = add i32 %145, 1
  store i32 %146, i32* %58, align 4
  br label %148

147:                                              ; preds = %136
  call void @_ZN3WTF6VectorIiLj0ENS_18PartitionAllocatorEE14AppendSlowCaseIRjEEvOT_(%"class.WTF::Vector.68"* %57, i32* nonnull dereferenceable(4) %5) #14
  br label %148

148:                                              ; preds = %147, %140, %111
  %149 = phi i32 [ 1, %111 ], [ 0, %140 ], [ 0, %147 ]
  call void @_ZN4base19SharedMemoryMappingD2Ev(%"class.base::SharedMemoryMapping"* nonnull %49) #14
  call void @llvm.lifetime.end.p0i8(i64 48, i8* nonnull %47) #14
  br label %150

150:                                              ; preds = %148, %88
  %151 = phi i32 [ %149, %148 ], [ 1, %88 ]
  call void @_ZN4base24UnsafeSharedMemoryRegionD1Ev(%"class.base::UnsafeSharedMemoryRegion"* nonnull %6) #14
  call void @llvm.lifetime.end.p0i8(i64 64, i8* nonnull %42) #14
  %152 = icmp eq i32 %151, 0
  br i1 %152, label %153, label %157

153:                                              ; preds = %150
  %154 = load i32, i32* %5, align 4
  %155 = add i32 %154, 1
  store i32 %155, i32* %5, align 4
  %156 = icmp ult i32 %155, %39
  br i1 %156, label %66, label %65

157:                                              ; preds = %150
  call void @llvm.lifetime.end.p0i8(i64 4, i8* nonnull %38) #14
  br label %261

158:                                              ; preds = %65, %29
  %159 = bitcast %"class.base::UnsafeSharedMemoryRegion"* %13 to i8*
  %160 = getelementptr inbounds %"class.blink::RTCVideoEncoder::Impl", %"class.blink::RTCVideoEncoder::Impl"* %0, i64 0, i32 3
  %161 = bitcast %"class.base::WritableSharedMemoryMapping"* %14 to i8*
  %162 = getelementptr inbounds %"class.base::WritableSharedMemoryMapping", %"class.base::WritableSharedMemoryMapping"* %14, i64 0, i32 0, i32 1
  %163 = getelementptr inbounds %"class.base::WritableSharedMemoryMapping", %"class.base::WritableSharedMemoryMapping"* %14, i64 0, i32 0
  %164 = getelementptr inbounds %"class.blink::RTCVideoEncoder::Impl", %"class.blink::RTCVideoEncoder::Impl"* %0, i64 0, i32 17
  %165 = bitcast %"struct.std::__1::pair"* %17 to i8*
  %166 = getelementptr inbounds %"struct.std::__1::pair", %"struct.std::__1::pair"* %17, i64 0, i32 0
  %167 = getelementptr inbounds %"struct.std::__1::pair", %"struct.std::__1::pair"* %17, i64 0, i32 1
  %168 = getelementptr inbounds %"class.blink::RTCVideoEncoder::Impl", %"class.blink::RTCVideoEncoder::Impl"* %0, i64 0, i32 17, i32 0, i32 0, i32 2
  %169 = getelementptr inbounds %"class.blink::RTCVideoEncoder::Impl", %"class.blink::RTCVideoEncoder::Impl"* %0, i64 0, i32 17, i32 0, i32 0, i32 1
  %170 = getelementptr inbounds %"class.WTF::Vector.63", %"class.WTF::Vector.63"* %164, i64 0, i32 0, i32 0, i32 0
  %171 = getelementptr inbounds %"struct.std::__1::pair", %"struct.std::__1::pair"* %17, i64 0, i32 1, i32 0
  %172 = bitcast %"class.base::WritableSharedMemoryMapping"* %14 to i8*
  br label %178

173:                                              ; preds = %223
  %174 = load i32, i32* %168, align 4
  %175 = icmp eq i32 %174, 0
  br i1 %175, label %226, label %176

176:                                              ; preds = %173
  %177 = getelementptr inbounds %"class.blink::RTCVideoEncoder::Impl", %"class.blink::RTCVideoEncoder::Impl"* %0, i64 0, i32 19
  br label %242

178:                                              ; preds = %223, %158
  %179 = phi i32 [ 0, %158 ], [ %224, %223 ]
  call void @llvm.lifetime.start.p0i8(i64 64, i8* nonnull %159) #14
  call void @llvm.memset.p0i8.i64(i8* nonnull align 8 %159, i8 -86, i64 64, i1 false)
  %180 = load %"class.media::GpuVideoAcceleratorFactories"*, %"class.media::GpuVideoAcceleratorFactories"** %160, align 8
  %181 = bitcast %"class.media::GpuVideoAcceleratorFactories"* %180 to void (%"class.base::UnsafeSharedMemoryRegion"*, %"class.media::GpuVideoAcceleratorFactories"*, i64)***
  %182 = load void (%"class.base::UnsafeSharedMemoryRegion"*, %"class.media::GpuVideoAcceleratorFactories"*, i64)**, void (%"class.base::UnsafeSharedMemoryRegion"*, %"class.media::GpuVideoAcceleratorFactories"*, i64)*** %181, align 8
  %183 = getelementptr inbounds void (%"class.base::UnsafeSharedMemoryRegion"*, %"class.media::GpuVideoAcceleratorFactories"*, i64)*, void (%"class.base::UnsafeSharedMemoryRegion"*, %"class.media::GpuVideoAcceleratorFactories"*, i64)** %182, i64 17
  %184 = load void (%"class.base::UnsafeSharedMemoryRegion"*, %"class.media::GpuVideoAcceleratorFactories"*, i64)*, void (%"class.base::UnsafeSharedMemoryRegion"*, %"class.media::GpuVideoAcceleratorFactories"*, i64)** %183, align 8
  call void %184(%"class.base::UnsafeSharedMemoryRegion"* nonnull sret %13, %"class.media::GpuVideoAcceleratorFactories"* %180, i64 %3) #14
  call void @llvm.lifetime.start.p0i8(i64 48, i8* nonnull %161) #14
  call void @llvm.memset.p0i8.i64(i8* nonnull align 8 %172, i8 -86, i64 48, i1 false)
  call void @_ZNK4base24UnsafeSharedMemoryRegion3MapEv(%"class.base::WritableSharedMemoryMapping"* nonnull sret %14, %"class.base::UnsafeSharedMemoryRegion"* nonnull %13) #14
  %185 = load i8*, i8** %162, align 8
  %186 = icmp eq i8* %185, null
  br i1 %186, label %187, label %211

187:                                              ; preds = %178
  %188 = bitcast %"class.base::Location"* %15 to i8*
  call void @llvm.lifetime.start.p0i8(i64 32, i8* nonnull %188) #14
  call void @_ZN4base8Location7CurrentEPKcS2_i(%"class.base::Location"* nonnull sret %15, i8* getelementptr inbounds ([24 x i8], [24 x i8]* @.str.7, i64 0, i64 0), i8* getelementptr inbounds ([78 x i8], [78 x i8]* @.str.4, i64 0, i64 0), i32 850) #14
  %189 = bitcast %"class.WTF::String"* %16 to i8*
  call void @llvm.lifetime.start.p0i8(i64 8, i8* nonnull %189) #14
  call void @_ZN3WTF6StringC2EPKcm(%"class.WTF::String"* nonnull %16, i8* getelementptr inbounds ([31 x i8], [31 x i8]* @.str.9, i64 0, i64 0), i64 30) #14
  %190 = bitcast %"class.blink::RTCVideoEncoder::Impl"* %0 to void (%"class.blink::RTCVideoEncoder::Impl"*, i32)***
  %191 = load void (%"class.blink::RTCVideoEncoder::Impl"*, i32)**, void (%"class.blink::RTCVideoEncoder::Impl"*, i32)*** %190, align 8
  %192 = getelementptr inbounds void (%"class.blink::RTCVideoEncoder::Impl"*, i32)*, void (%"class.blink::RTCVideoEncoder::Impl"*, i32)** %191, i64 2
  %193 = load void (%"class.blink::RTCVideoEncoder::Impl"*, i32)*, void (%"class.blink::RTCVideoEncoder::Impl"*, i32)** %192, align 8
  call void %193(%"class.blink::RTCVideoEncoder::Impl"* %0, i32 2) #14
  %194 = getelementptr inbounds %"class.WTF::String", %"class.WTF::String"* %16, i64 0, i32 0, i32 0
  %195 = load %"class.WTF::StringImpl"*, %"class.WTF::StringImpl"** %194, align 8
  %196 = icmp eq %"class.WTF::StringImpl"* %195, null
  br i1 %196, label %210, label %197

197:                                              ; preds = %187
  %198 = getelementptr inbounds %"class.WTF::StringImpl", %"class.WTF::StringImpl"* %195, i64 0, i32 2, i32 0, i32 0, i32 0, i32 0, i32 0
  %199 = load atomic i32, i32* %198 monotonic, align 4
  %200 = and i32 %199, 2
  %201 = icmp eq i32 %200, 0
  %202 = getelementptr inbounds %"class.WTF::StringImpl", %"class.WTF::StringImpl"* %195, i64 0, i32 0
  %203 = load i32, i32* %202, align 4
  br i1 %201, label %204, label %206

204:                                              ; preds = %197
  %205 = add i32 %203, -1
  store i32 %205, i32* %202, align 4
  br label %206

206:                                              ; preds = %204, %197
  %207 = phi i32 [ %205, %204 ], [ %203, %197 ]
  %208 = icmp eq i32 %207, 0
  br i1 %208, label %209, label %210

209:                                              ; preds = %206
  call void @_ZNK3WTF10StringImpl18DestroyIfNotStaticEv(%"class.WTF::StringImpl"* nonnull %195) #14
  br label %210

210:                                              ; preds = %187, %206, %209
  call void @llvm.lifetime.end.p0i8(i64 8, i8* nonnull %189) #14
  call void @llvm.lifetime.end.p0i8(i64 32, i8* nonnull %188) #14
  call void @_ZN4base19SharedMemoryMappingD2Ev(%"class.base::SharedMemoryMapping"* nonnull %163) #14
  call void @llvm.lifetime.end.p0i8(i64 48, i8* nonnull %161) #14
  call void @_ZN4base24UnsafeSharedMemoryRegionD1Ev(%"class.base::UnsafeSharedMemoryRegion"* nonnull %13) #14
  call void @llvm.lifetime.end.p0i8(i64 64, i8* nonnull %159) #14
  br label %261

211:                                              ; preds = %178
  call void @llvm.lifetime.start.p0i8(i64 112, i8* nonnull %165) #14
  call void @_ZN4base24UnsafeSharedMemoryRegionC1EOS0_(%"class.base::UnsafeSharedMemoryRegion"* nonnull %166, %"class.base::UnsafeSharedMemoryRegion"* nonnull dereferenceable(64) %13) #14
  call void @_ZN4base27WritableSharedMemoryMappingC1EOS0_(%"class.base::WritableSharedMemoryMapping"* %167, %"class.base::WritableSharedMemoryMapping"* nonnull dereferenceable(48) %14) #14
  %212 = load i32, i32* %168, align 4
  %213 = load i32, i32* %169, align 8
  %214 = icmp eq i32 %212, %213
  br i1 %214, label %222, label %215, !prof !19

215:                                              ; preds = %211
  %216 = load %"struct.std::__1::pair"*, %"struct.std::__1::pair"** %170, align 8
  %217 = zext i32 %212 to i64
  %218 = getelementptr inbounds %"struct.std::__1::pair", %"struct.std::__1::pair"* %216, i64 %217, i32 0
  call void @_ZN4base24UnsafeSharedMemoryRegionC1EOS0_(%"class.base::UnsafeSharedMemoryRegion"* %218, %"class.base::UnsafeSharedMemoryRegion"* nonnull dereferenceable(64) %166) #14
  %219 = getelementptr inbounds %"struct.std::__1::pair", %"struct.std::__1::pair"* %216, i64 %217, i32 1
  call void @_ZN4base27WritableSharedMemoryMappingC1EOS0_(%"class.base::WritableSharedMemoryMapping"* %219, %"class.base::WritableSharedMemoryMapping"* dereferenceable(48) %167) #14
  %220 = load i32, i32* %168, align 4
  %221 = add i32 %220, 1
  store i32 %221, i32* %168, align 4
  br label %223

222:                                              ; preds = %211
  call void @_ZN3WTF6VectorINSt3__14pairIN4base24UnsafeSharedMemoryRegionENS3_27WritableSharedMemoryMappingEEELj0ENS_18PartitionAllocatorEE14AppendSlowCaseIS6_EEvOT_(%"class.WTF::Vector.63"* %164, %"struct.std::__1::pair"* nonnull dereferenceable(112) %17) #14
  br label %223

223:                                              ; preds = %215, %222
  call void @_ZN4base19SharedMemoryMappingD2Ev(%"class.base::SharedMemoryMapping"* %171) #14
  call void @_ZN4base24UnsafeSharedMemoryRegionD1Ev(%"class.base::UnsafeSharedMemoryRegion"* nonnull %166) #14
  call void @llvm.lifetime.end.p0i8(i64 112, i8* nonnull %165) #14
  call void @_ZN4base19SharedMemoryMappingD2Ev(%"class.base::SharedMemoryMapping"* nonnull %163) #14
  call void @llvm.lifetime.end.p0i8(i64 48, i8* nonnull %161) #14
  call void @_ZN4base24UnsafeSharedMemoryRegionD1Ev(%"class.base::UnsafeSharedMemoryRegion"* nonnull %13) #14
  call void @llvm.lifetime.end.p0i8(i64 64, i8* nonnull %159) #14
  %224 = add nuw nsw i32 %179, 1
  %225 = icmp eq i32 %224, 3
  br i1 %225, label %173, label %178

226:                                              ; preds = %242, %173
  %227 = getelementptr inbounds %"class.blink::RTCVideoEncoder::Impl", %"class.blink::RTCVideoEncoder::Impl"* %0, i64 0, i32 29
  %228 = getelementptr inbounds %"class.base::Lock", %"class.base::Lock"* %227, i64 0, i32 0, i32 0
  %229 = call i32 @pthread_mutex_trylock(%union.pthread_mutex_t* %228) #14
  %230 = icmp eq i32 %229, 0
  br i1 %230, label %233, label %231, !prof !2

231:                                              ; preds = %226
  %232 = getelementptr inbounds %"class.base::Lock", %"class.base::Lock"* %227, i64 0, i32 0
  call void @_ZN4base8internal8LockImpl24LockInternalWithTrackingEv(%"class.base::internal::LockImpl"* %232) #14
  br label %233

233:                                              ; preds = %226, %231
  %234 = getelementptr inbounds %"class.blink::RTCVideoEncoder::Impl", %"class.blink::RTCVideoEncoder::Impl"* %0, i64 0, i32 30
  store i32 0, i32* %234, align 8
  %235 = call i32 @pthread_mutex_unlock(%union.pthread_mutex_t* %228) #14
  %236 = icmp eq i32* %24, null
  br i1 %236, label %238, label %237

237:                                              ; preds = %233
  store i32 0, i32* %24, align 4
  br label %238

238:                                              ; preds = %237, %233
  %239 = icmp eq i64 %22, 0
  br i1 %239, label %265, label %240

240:                                              ; preds = %238
  %241 = inttoptr i64 %22 to %"class.base::WaitableEvent"*
  call void @_ZN4base13WaitableEvent6SignalEv(%"class.base::WaitableEvent"* nonnull %241) #14
  br label %265

242:                                              ; preds = %176, %242
  %243 = phi i64 [ 0, %176 ], [ %257, %242 ]
  %244 = load %"class.media::VideoEncodeAccelerator"*, %"class.media::VideoEncodeAccelerator"** %26, align 8
  %245 = trunc i64 %243 to i32
  %246 = call dereferenceable(112) %"struct.std::__1::pair"* @_ZN3WTF6VectorINSt3__14pairIN4base24UnsafeSharedMemoryRegionENS3_27WritableSharedMemoryMappingEEELj0ENS_18PartitionAllocatorEE2atEj(%"class.WTF::Vector.63"* %164, i32 %245) #14
  %247 = getelementptr inbounds %"struct.std::__1::pair", %"struct.std::__1::pair"* %246, i64 0, i32 0
  call void @_ZNK4base24UnsafeSharedMemoryRegion9DuplicateEv(%"class.base::UnsafeSharedMemoryRegion"* nonnull sret %19, %"class.base::UnsafeSharedMemoryRegion"* %247) #14
  %248 = call dereferenceable(112) %"struct.std::__1::pair"* @_ZN3WTF6VectorINSt3__14pairIN4base24UnsafeSharedMemoryRegionENS3_27WritableSharedMemoryMappingEEELj0ENS_18PartitionAllocatorEE2atEj(%"class.WTF::Vector.63"* %164, i32 %245) #14
  %249 = getelementptr inbounds %"struct.std::__1::pair", %"struct.std::__1::pair"* %248, i64 0, i32 0, i32 0, i32 2
  %250 = load i64, i64* %249, align 8
  call void @_ZN5media15BitstreamBufferC1EiN4base24UnsafeSharedMemoryRegionEmlNS1_9TimeDeltaE(%"class.media::BitstreamBuffer"* nonnull %18, i32 %245, %"class.base::UnsafeSharedMemoryRegion"* nonnull %19, i64 %250, i64 0, i64 -9223372036854775808) #14
  %251 = bitcast %"class.media::VideoEncodeAccelerator"* %244 to void (%"class.media::VideoEncodeAccelerator"*, %"class.media::BitstreamBuffer"*)***
  %252 = load void (%"class.media::VideoEncodeAccelerator"*, %"class.media::BitstreamBuffer"*)**, void (%"class.media::VideoEncodeAccelerator"*, %"class.media::BitstreamBuffer"*)*** %251, align 8
  %253 = getelementptr inbounds void (%"class.media::VideoEncodeAccelerator"*, %"class.media::BitstreamBuffer"*)*, void (%"class.media::VideoEncodeAccelerator"*, %"class.media::BitstreamBuffer"*)** %252, i64 3
  %254 = load void (%"class.media::VideoEncodeAccelerator"*, %"class.media::BitstreamBuffer"*)*, void (%"class.media::VideoEncodeAccelerator"*, %"class.media::BitstreamBuffer"*)** %253, align 8
  call void %254(%"class.media::VideoEncodeAccelerator"* %244, %"class.media::BitstreamBuffer"* nonnull %18) #14
  call void @_ZN5media15BitstreamBufferD1Ev(%"class.media::BitstreamBuffer"* nonnull %18) #14
  call void @_ZN4base24UnsafeSharedMemoryRegionD1Ev(%"class.base::UnsafeSharedMemoryRegion"* nonnull %19) #14
  %255 = load i32, i32* %177, align 8
  %256 = add nsw i32 %255, 1
  store i32 %256, i32* %177, align 8
  %257 = add nuw nsw i64 %243, 1
  %258 = load i32, i32* %168, align 4
  %259 = zext i32 %258 to i64
  %260 = icmp ult i64 %257, %259
  br i1 %260, label %242, label %226

261:                                              ; preds = %210, %4, %157
  %262 = icmp eq i64 %22, 0
  br i1 %262, label %265, label %263

263:                                              ; preds = %261
  %264 = inttoptr i64 %22 to %"class.base::WaitableEvent"*
  call void @_ZN4base13WaitableEvent6SignalEv(%"class.base::WaitableEvent"* nonnull %264) #14
  br label %265

265:                                              ; preds = %240, %238, %261, %263
  ret void
}

declare void @_ZN4base24UnsafeSharedMemoryRegion6CreateEm(%"class.base::UnsafeSharedMemoryRegion"* sret, i64) local_unnamed_addr #1

declare i64 @_ZN5media10VideoFrame14AllocationSizeENS_16VideoPixelFormatERKN3gfx4SizeE(i32, %"class.gfx::Size"* dereferenceable(8)) local_unnamed_addr #1

declare zeroext i1 @_ZNK4base24UnsafeSharedMemoryRegion7IsValidEv(%"class.base::UnsafeSharedMemoryRegion"*) local_unnamed_addr #1

; Function Attrs: nounwind ssp uwtable
define hidden void @_ZN5blink15RTCVideoEncoder4Impl17LogAndNotifyErrorERKN4base8LocationERKN3WTF6StringEN5media22VideoEncodeAccelerator5ErrorE(%"class.blink::RTCVideoEncoder::Impl"*, %"class.base::Location"* nocapture readnone dereferenceable(32), %"class.WTF::String"* nocapture readnone dereferenceable(8), i32) local_unnamed_addr #0 align 2 {
  %5 = bitcast %"class.blink::RTCVideoEncoder::Impl"* %0 to void (%"class.blink::RTCVideoEncoder::Impl"*, i32)***
  %6 = load void (%"class.blink::RTCVideoEncoder::Impl"*, i32)**, void (%"class.blink::RTCVideoEncoder::Impl"*, i32)*** %5, align 8
  %7 = getelementptr inbounds void (%"class.blink::RTCVideoEncoder::Impl"*, i32)*, void (%"class.blink::RTCVideoEncoder::Impl"*, i32)** %6, i64 2
  %8 = load void (%"class.blink::RTCVideoEncoder::Impl"*, i32)*, void (%"class.blink::RTCVideoEncoder::Impl"*, i32)** %7, align 8
  tail call void %8(%"class.blink::RTCVideoEncoder::Impl"* %0, i32 %3) #14
  ret void
}

declare void @_ZN4base8Location7CurrentEPKcS2_i(%"class.base::Location"* sret, i8*, i8*, i32) local_unnamed_addr #1

declare void @_ZNK4base24UnsafeSharedMemoryRegion3MapEv(%"class.base::WritableSharedMemoryMapping"* sret, %"class.base::UnsafeSharedMemoryRegion"*) local_unnamed_addr #1

; Function Attrs: nounwind
declare void @_ZN4base19SharedMemoryMappingD2Ev(%"class.base::SharedMemoryMapping"*) unnamed_addr #3

; Function Attrs: nounwind ssp uwtable
define hidden void @_ZN5blink15RTCVideoEncoder4Impl20BitstreamBufferReadyEiRKN5media23BitstreamBufferMetadataE(%"class.blink::RTCVideoEncoder::Impl"*, i32, %"struct.media::BitstreamBufferMetadata"* nocapture readonly dereferenceable(72)) unnamed_addr #0 align 2 {
  %4 = alloca %"class.base::Location", align 8
  %5 = alloca %"class.WTF::String", align 8
  %6 = alloca %"class.base::Location", align 8
  %7 = alloca %"class.WTF::String", align 8
  %8 = alloca %"class.webrtc::EncodedImage", align 8
  %9 = alloca %"class.rtc::scoped_refptr.235", align 8
  %10 = alloca %"struct.webrtc::CodecSpecificInfo", align 8
  %11 = bitcast %"struct.webrtc::CodecSpecificInfo"* %10 to i8*
  %12 = icmp slt i32 %1, 0
  br i1 %12, label %18, label %13

13:                                               ; preds = %3
  %14 = getelementptr inbounds %"class.blink::RTCVideoEncoder::Impl", %"class.blink::RTCVideoEncoder::Impl"* %0, i64 0, i32 17
  %15 = getelementptr inbounds %"class.blink::RTCVideoEncoder::Impl", %"class.blink::RTCVideoEncoder::Impl"* %0, i64 0, i32 17, i32 0, i32 0, i32 2
  %16 = load i32, i32* %15, align 4
  %17 = icmp sgt i32 %16, %1
  br i1 %17, label %42, label %18

18:                                               ; preds = %13, %3
  %19 = bitcast %"class.base::Location"* %4 to i8*
  call void @llvm.lifetime.start.p0i8(i64 32, i8* nonnull %19) #14
  call void @_ZN4base8Location7CurrentEPKcS2_i(%"class.base::Location"* nonnull sret %4, i8* getelementptr inbounds ([21 x i8], [21 x i8]* @.str.10, i64 0, i64 0), i8* getelementptr inbounds ([78 x i8], [78 x i8]* @.str.4, i64 0, i64 0), i32 882) #14
  %20 = bitcast %"class.WTF::String"* %5 to i8*
  call void @llvm.lifetime.start.p0i8(i64 8, i8* nonnull %20) #14
  call void @_ZN3WTF6StringC2EPKcm(%"class.WTF::String"* nonnull %5, i8* getelementptr inbounds ([28 x i8], [28 x i8]* @.str.11, i64 0, i64 0), i64 27) #14
  %21 = bitcast %"class.blink::RTCVideoEncoder::Impl"* %0 to void (%"class.blink::RTCVideoEncoder::Impl"*, i32)***
  %22 = load void (%"class.blink::RTCVideoEncoder::Impl"*, i32)**, void (%"class.blink::RTCVideoEncoder::Impl"*, i32)*** %21, align 8
  %23 = getelementptr inbounds void (%"class.blink::RTCVideoEncoder::Impl"*, i32)*, void (%"class.blink::RTCVideoEncoder::Impl"*, i32)** %22, i64 2
  %24 = load void (%"class.blink::RTCVideoEncoder::Impl"*, i32)*, void (%"class.blink::RTCVideoEncoder::Impl"*, i32)** %23, align 8
  call void %24(%"class.blink::RTCVideoEncoder::Impl"* %0, i32 2) #14
  %25 = getelementptr inbounds %"class.WTF::String", %"class.WTF::String"* %5, i64 0, i32 0, i32 0
  %26 = load %"class.WTF::StringImpl"*, %"class.WTF::StringImpl"** %25, align 8
  %27 = icmp eq %"class.WTF::StringImpl"* %26, null
  br i1 %27, label %41, label %28

28:                                               ; preds = %18
  %29 = getelementptr inbounds %"class.WTF::StringImpl", %"class.WTF::StringImpl"* %26, i64 0, i32 2, i32 0, i32 0, i32 0, i32 0, i32 0
  %30 = load atomic i32, i32* %29 monotonic, align 4
  %31 = and i32 %30, 2
  %32 = icmp eq i32 %31, 0
  %33 = getelementptr inbounds %"class.WTF::StringImpl", %"class.WTF::StringImpl"* %26, i64 0, i32 0
  %34 = load i32, i32* %33, align 4
  br i1 %32, label %35, label %37

35:                                               ; preds = %28
  %36 = add i32 %34, -1
  store i32 %36, i32* %33, align 4
  br label %37

37:                                               ; preds = %35, %28
  %38 = phi i32 [ %36, %35 ], [ %34, %28 ]
  %39 = icmp eq i32 %38, 0
  br i1 %39, label %40, label %41

40:                                               ; preds = %37
  call void @_ZNK3WTF10StringImpl18DestroyIfNotStaticEv(%"class.WTF::StringImpl"* nonnull %26) #14
  br label %41

41:                                               ; preds = %18, %37, %40
  call void @llvm.lifetime.end.p0i8(i64 8, i8* nonnull %20) #14
  call void @llvm.lifetime.end.p0i8(i64 32, i8* nonnull %19) #14
  br label %415

42:                                               ; preds = %13
  %43 = tail call dereferenceable(112) %"struct.std::__1::pair"* @_ZN3WTF6VectorINSt3__14pairIN4base24UnsafeSharedMemoryRegionENS3_27WritableSharedMemoryMappingEEELj0ENS_18PartitionAllocatorEE2atEj(%"class.WTF::Vector.63"* %14, i32 %1) #14
  %44 = getelementptr inbounds %"struct.std::__1::pair", %"struct.std::__1::pair"* %43, i64 0, i32 1, i32 0, i32 1
  %45 = load i8*, i8** %44, align 8
  %46 = getelementptr inbounds %"struct.media::BitstreamBufferMetadata", %"struct.media::BitstreamBufferMetadata"* %2, i64 0, i32 0
  %47 = load i64, i64* %46, align 8
  %48 = tail call dereferenceable(112) %"struct.std::__1::pair"* @_ZN3WTF6VectorINSt3__14pairIN4base24UnsafeSharedMemoryRegionENS3_27WritableSharedMemoryMappingEEELj0ENS_18PartitionAllocatorEE2atEj(%"class.WTF::Vector.63"* %14, i32 %1) #14
  %49 = getelementptr inbounds %"struct.std::__1::pair", %"struct.std::__1::pair"* %48, i64 0, i32 1, i32 0, i32 2
  %50 = load i64, i64* %49, align 8
  %51 = icmp ugt i64 %47, %50
  br i1 %51, label %52, label %76

52:                                               ; preds = %42
  %53 = bitcast %"class.base::Location"* %6 to i8*
  call void @llvm.lifetime.start.p0i8(i64 32, i8* nonnull %53) #14
  call void @_ZN4base8Location7CurrentEPKcS2_i(%"class.base::Location"* nonnull sret %6, i8* getelementptr inbounds ([21 x i8], [21 x i8]* @.str.10, i64 0, i64 0), i8* getelementptr inbounds ([78 x i8], [78 x i8]* @.str.4, i64 0, i64 0), i32 890) #14
  %54 = bitcast %"class.WTF::String"* %7 to i8*
  call void @llvm.lifetime.start.p0i8(i64 8, i8* nonnull %54) #14
  call void @_ZN3WTF6StringC2EPKcm(%"class.WTF::String"* nonnull %7, i8* getelementptr inbounds ([21 x i8], [21 x i8]* @.str.12, i64 0, i64 0), i64 20) #14
  %55 = bitcast %"class.blink::RTCVideoEncoder::Impl"* %0 to void (%"class.blink::RTCVideoEncoder::Impl"*, i32)***
  %56 = load void (%"class.blink::RTCVideoEncoder::Impl"*, i32)**, void (%"class.blink::RTCVideoEncoder::Impl"*, i32)*** %55, align 8
  %57 = getelementptr inbounds void (%"class.blink::RTCVideoEncoder::Impl"*, i32)*, void (%"class.blink::RTCVideoEncoder::Impl"*, i32)** %56, i64 2
  %58 = load void (%"class.blink::RTCVideoEncoder::Impl"*, i32)*, void (%"class.blink::RTCVideoEncoder::Impl"*, i32)** %57, align 8
  call void %58(%"class.blink::RTCVideoEncoder::Impl"* %0, i32 2) #14
  %59 = getelementptr inbounds %"class.WTF::String", %"class.WTF::String"* %7, i64 0, i32 0, i32 0
  %60 = load %"class.WTF::StringImpl"*, %"class.WTF::StringImpl"** %59, align 8
  %61 = icmp eq %"class.WTF::StringImpl"* %60, null
  br i1 %61, label %75, label %62

62:                                               ; preds = %52
  %63 = getelementptr inbounds %"class.WTF::StringImpl", %"class.WTF::StringImpl"* %60, i64 0, i32 2, i32 0, i32 0, i32 0, i32 0, i32 0
  %64 = load atomic i32, i32* %63 monotonic, align 4
  %65 = and i32 %64, 2
  %66 = icmp eq i32 %65, 0
  %67 = getelementptr inbounds %"class.WTF::StringImpl", %"class.WTF::StringImpl"* %60, i64 0, i32 0
  %68 = load i32, i32* %67, align 4
  br i1 %66, label %69, label %71

69:                                               ; preds = %62
  %70 = add i32 %68, -1
  store i32 %70, i32* %67, align 4
  br label %71

71:                                               ; preds = %69, %62
  %72 = phi i32 [ %70, %69 ], [ %68, %62 ]
  %73 = icmp eq i32 %72, 0
  br i1 %73, label %74, label %75

74:                                               ; preds = %71
  call void @_ZNK3WTF10StringImpl18DestroyIfNotStaticEv(%"class.WTF::StringImpl"* nonnull %60) #14
  br label %75

75:                                               ; preds = %52, %71, %74
  call void @llvm.lifetime.end.p0i8(i64 8, i8* nonnull %54) #14
  call void @llvm.lifetime.end.p0i8(i64 32, i8* nonnull %53) #14
  br label %415

76:                                               ; preds = %42
  %77 = getelementptr inbounds %"class.blink::RTCVideoEncoder::Impl", %"class.blink::RTCVideoEncoder::Impl"* %0, i64 0, i32 19
  %78 = load i32, i32* %77, align 8
  %79 = add nsw i32 %78, -1
  store i32 %79, i32* %77, align 8
  %80 = getelementptr inbounds %"class.blink::RTCVideoEncoder::Impl", %"class.blink::RTCVideoEncoder::Impl"* %0, i64 0, i32 8
  %81 = load i8, i8* %80, align 8, !range !6
  %82 = icmp eq i8 %81, 0
  br i1 %82, label %83, label %119

83:                                               ; preds = %76
  %84 = getelementptr inbounds %"class.blink::RTCVideoEncoder::Impl", %"class.blink::RTCVideoEncoder::Impl"* %0, i64 0, i32 7, i32 1
  %85 = load i32, i32* %84, align 8
  %86 = getelementptr inbounds %"class.blink::RTCVideoEncoder::Impl", %"class.blink::RTCVideoEncoder::Impl"* %0, i64 0, i32 7, i32 2
  %87 = load i32, i32* %86, align 4
  %88 = icmp eq i32 %85, %87
  br i1 %88, label %119, label %89

89:                                               ; preds = %83
  %90 = getelementptr inbounds %"class.blink::RTCVideoEncoder::Impl", %"class.blink::RTCVideoEncoder::Impl"* %0, i64 0, i32 7, i32 0, i32 0, i32 0, i32 0
  %91 = getelementptr inbounds %"struct.media::BitstreamBufferMetadata", %"struct.media::BitstreamBufferMetadata"* %2, i64 0, i32 2, i32 0
  %92 = getelementptr inbounds %"class.blink::RTCVideoEncoder::Impl", %"class.blink::RTCVideoEncoder::Impl"* %0, i64 0, i32 7, i32 0, i32 0, i32 0, i32 1
  %93 = load %"struct.blink::(anonymous namespace)::RTCTimestamps"*, %"struct.blink::(anonymous namespace)::RTCTimestamps"** %90, align 8
  br label %94

94:                                               ; preds = %89, %101
  %95 = phi i32 [ %85, %89 ], [ %106, %101 ]
  %96 = zext i32 %95 to i64
  %97 = load i64, i64* %91, align 8
  %98 = getelementptr inbounds %"struct.blink::(anonymous namespace)::RTCTimestamps", %"struct.blink::(anonymous namespace)::RTCTimestamps"* %93, i64 %96, i32 0, i32 0
  %99 = load i64, i64* %98, align 8
  %100 = icmp eq i64 %99, %97
  br i1 %100, label %108, label %101

101:                                              ; preds = %94
  %102 = load i32, i32* %92, align 8
  %103 = add i32 %102, -1
  %104 = icmp eq i32 %95, %103
  %105 = add i32 %95, 1
  %106 = select i1 %104, i32 0, i32 %105
  store i32 %106, i32* %84, align 8
  %107 = icmp eq i32 %106, %87
  br i1 %107, label %119, label %94

108:                                              ; preds = %94
  %109 = zext i32 %95 to i64
  %110 = getelementptr inbounds %"struct.blink::(anonymous namespace)::RTCTimestamps", %"struct.blink::(anonymous namespace)::RTCTimestamps"* %93, i64 %109, i32 1
  %111 = load i32, i32* %110, align 4
  %112 = getelementptr inbounds %"struct.blink::(anonymous namespace)::RTCTimestamps", %"struct.blink::(anonymous namespace)::RTCTimestamps"* %93, i64 %109, i32 2
  %113 = load i64, i64* %112, align 8
  %114 = load i32, i32* %92, align 8
  %115 = add i32 %114, -1
  %116 = icmp eq i32 %95, %115
  %117 = add i32 %95, 1
  %118 = select i1 %116, i32 0, i32 %117
  store i32 %118, i32* %84, align 8
  br label %132

119:                                              ; preds = %101, %83, %76
  store i8 1, i8* %80, align 8
  %120 = getelementptr inbounds %"class.blink::RTCVideoEncoder::Impl", %"class.blink::RTCVideoEncoder::Impl"* %0, i64 0, i32 7
  %121 = getelementptr inbounds %"class.blink::RTCVideoEncoder::Impl", %"class.blink::RTCVideoEncoder::Impl"* %0, i64 0, i32 7, i32 1
  store i32 0, i32* %121, align 8
  %122 = getelementptr inbounds %"class.blink::RTCVideoEncoder::Impl", %"class.blink::RTCVideoEncoder::Impl"* %0, i64 0, i32 7, i32 2
  store i32 0, i32* %122, align 4
  %123 = bitcast %"class.WTF::Deque"* %120 to i8**
  %124 = load i8*, i8** %123, align 8
  tail call void @_ZN3WTF18PartitionAllocator11FreeBackingEPv(i8* %124) #14
  %125 = bitcast %"class.WTF::Deque"* %120 to i64*
  store atomic i64 0, i64* %125 monotonic, align 8
  %126 = getelementptr inbounds %"class.blink::RTCVideoEncoder::Impl", %"class.blink::RTCVideoEncoder::Impl"* %0, i64 0, i32 7, i32 0, i32 0, i32 0, i32 1
  store i32 0, i32* %126, align 8
  %127 = tail call i64 @_ZN3rtc10TimeMicrosEv() #14
  %128 = sdiv i64 %127, 1000
  %129 = mul i64 %128, 386547056640
  %130 = lshr exact i64 %129, 32
  %131 = trunc i64 %130 to i32
  br label %132

132:                                              ; preds = %108, %119
  %133 = phi i64 [ %113, %108 ], [ %128, %119 ]
  %134 = phi i32 [ %111, %108 ], [ %131, %119 ]
  %135 = bitcast %"class.webrtc::EncodedImage"* %8 to i8*
  call void @llvm.lifetime.start.p0i8(i64 272, i8* nonnull %135) #14
  call void @llvm.memcpy.p0i8.p0i8.i64(i8* nonnull align 8 %135, i8* align 8 bitcast (<{ i32, i32, i64, i64, i32, i32, i8, [3 x i8], i32, %"struct.webrtc::VideoPlayoutDelay", { i8, [7 x i8], i64, i64, i64, i64, i64, i64, i64, i64 }, %"class.rtc::scoped_refptr.222", i64, i32, { { { { i8, [3 x i8], %union.anon.15 } } } }, [4 x i8], %"class.std::__1::map", { { { { i8, [3 x i8], { { i8, i8, i8, [1 x i8], i32, i32, i32, { { { { i8, [3 x i8], %union.anon.10 } } } } } } } } } }, { { { { i8, [1 x i8], %union.anon.234 } } } }, [4 x i8], %"class.webrtc::RtpPacketInfos", i8, [7 x i8] }>* @__const._ZN5blink15RTCVideoEncoder4Impl20BitstreamBufferReadyEiRKN5media23BitstreamBufferMetadataE.image to i8*), i64 272, i1 false)
  call void @_ZN6webrtc12EncodedImageC1Ev(%"class.webrtc::EncodedImage"* nonnull %8) #14
  %136 = bitcast %"class.rtc::scoped_refptr.235"* %9 to i8*
  call void @llvm.lifetime.start.p0i8(i64 8, i8* nonnull %136) #14
  %137 = load i64, i64* %46, align 8
  call void @_ZN6webrtc18EncodedImageBuffer6CreateEPKhm(%"class.rtc::scoped_refptr.235"* nonnull sret %9, i8* %45, i64 %137) #14
  %138 = getelementptr inbounds %"class.rtc::scoped_refptr.235", %"class.rtc::scoped_refptr.235"* %9, i64 0, i32 0
  %139 = load %"class.webrtc::EncodedImageBuffer"*, %"class.webrtc::EncodedImageBuffer"** %138, align 8
  store %"class.webrtc::EncodedImageBuffer"* null, %"class.webrtc::EncodedImageBuffer"** %138, align 8
  %140 = getelementptr inbounds %"class.webrtc::EncodedImageBuffer", %"class.webrtc::EncodedImageBuffer"* %139, i64 0, i32 0
  %141 = icmp eq %"class.webrtc::EncodedImageBuffer"* %139, null
  br i1 %141, label %147, label %142

142:                                              ; preds = %132
  %143 = getelementptr inbounds %"class.webrtc::EncodedImageBuffer", %"class.webrtc::EncodedImageBuffer"* %139, i64 0, i32 0, i32 0
  %144 = bitcast %"class.webrtc::EncodedImageBuffer"* %139 to void (%"class.rtc::RefCountInterface"*)***
  %145 = load void (%"class.rtc::RefCountInterface"*)**, void (%"class.rtc::RefCountInterface"*)*** %144, align 8
  %146 = load void (%"class.rtc::RefCountInterface"*)*, void (%"class.rtc::RefCountInterface"*)** %145, align 8
  call void %146(%"class.rtc::RefCountInterface"* %143) #14
  br label %147

147:                                              ; preds = %142, %132
  %148 = getelementptr inbounds %"class.webrtc::EncodedImage", %"class.webrtc::EncodedImage"* %8, i64 0, i32 11, i32 0
  %149 = load %"class.webrtc::EncodedImageBufferInterface"*, %"class.webrtc::EncodedImageBufferInterface"** %148, align 8
  %150 = icmp eq %"class.webrtc::EncodedImageBufferInterface"* %149, null
  br i1 %150, label %158, label %151

151:                                              ; preds = %147
  %152 = getelementptr inbounds %"class.webrtc::EncodedImageBufferInterface", %"class.webrtc::EncodedImageBufferInterface"* %149, i64 0, i32 0
  %153 = bitcast %"class.webrtc::EncodedImageBufferInterface"* %149 to i32 (%"class.rtc::RefCountInterface"*)***
  %154 = load i32 (%"class.rtc::RefCountInterface"*)**, i32 (%"class.rtc::RefCountInterface"*)*** %153, align 8
  %155 = getelementptr inbounds i32 (%"class.rtc::RefCountInterface"*)*, i32 (%"class.rtc::RefCountInterface"*)** %154, i64 1
  %156 = load i32 (%"class.rtc::RefCountInterface"*)*, i32 (%"class.rtc::RefCountInterface"*)** %155, align 8
  %157 = call i32 %156(%"class.rtc::RefCountInterface"* %152) #14
  br label %158

158:                                              ; preds = %147, %151
  store %"class.webrtc::EncodedImageBufferInterface"* %140, %"class.webrtc::EncodedImageBufferInterface"** %148, align 8
  %159 = bitcast %"class.webrtc::EncodedImageBuffer"* %139 to i64 (%"class.webrtc::EncodedImageBufferInterface"*)***
  %160 = load i64 (%"class.webrtc::EncodedImageBufferInterface"*)**, i64 (%"class.webrtc::EncodedImageBufferInterface"*)*** %159, align 8
  %161 = getelementptr inbounds i64 (%"class.webrtc::EncodedImageBufferInterface"*)*, i64 (%"class.webrtc::EncodedImageBufferInterface"*)** %160, i64 6
  %162 = load i64 (%"class.webrtc::EncodedImageBufferInterface"*)*, i64 (%"class.webrtc::EncodedImageBufferInterface"*)** %161, align 8
  %163 = call i64 %162(%"class.webrtc::EncodedImageBufferInterface"* %140) #14
  %164 = getelementptr inbounds %"class.webrtc::EncodedImage", %"class.webrtc::EncodedImage"* %8, i64 0, i32 12
  store i64 %163, i64* %164, align 8
  br i1 %141, label %172, label %165

165:                                              ; preds = %158
  %166 = getelementptr inbounds %"class.webrtc::EncodedImageBuffer", %"class.webrtc::EncodedImageBuffer"* %139, i64 0, i32 0, i32 0
  %167 = bitcast %"class.webrtc::EncodedImageBuffer"* %139 to i32 (%"class.rtc::RefCountInterface"*)***
  %168 = load i32 (%"class.rtc::RefCountInterface"*)**, i32 (%"class.rtc::RefCountInterface"*)*** %167, align 8
  %169 = getelementptr inbounds i32 (%"class.rtc::RefCountInterface"*)*, i32 (%"class.rtc::RefCountInterface"*)** %168, i64 1
  %170 = load i32 (%"class.rtc::RefCountInterface"*)*, i32 (%"class.rtc::RefCountInterface"*)** %169, align 8
  %171 = call i32 %170(%"class.rtc::RefCountInterface"* %166) #14
  br label %172

172:                                              ; preds = %158, %165
  %173 = load %"class.webrtc::EncodedImageBuffer"*, %"class.webrtc::EncodedImageBuffer"** %138, align 8
  %174 = icmp eq %"class.webrtc::EncodedImageBuffer"* %173, null
  br i1 %174, label %182, label %175

175:                                              ; preds = %172
  %176 = getelementptr inbounds %"class.webrtc::EncodedImageBuffer", %"class.webrtc::EncodedImageBuffer"* %173, i64 0, i32 0, i32 0
  %177 = bitcast %"class.webrtc::EncodedImageBuffer"* %173 to i32 (%"class.rtc::RefCountInterface"*)***
  %178 = load i32 (%"class.rtc::RefCountInterface"*)**, i32 (%"class.rtc::RefCountInterface"*)*** %177, align 8
  %179 = getelementptr inbounds i32 (%"class.rtc::RefCountInterface"*)*, i32 (%"class.rtc::RefCountInterface"*)** %178, i64 1
  %180 = load i32 (%"class.rtc::RefCountInterface"*)*, i32 (%"class.rtc::RefCountInterface"*)** %179, align 8
  %181 = call i32 %180(%"class.rtc::RefCountInterface"* %176) #14
  br label %182

182:                                              ; preds = %172, %175
  call void @llvm.lifetime.end.p0i8(i64 8, i8* nonnull %136) #14
  %183 = getelementptr inbounds %"class.blink::RTCVideoEncoder::Impl", %"class.blink::RTCVideoEncoder::Impl"* %0, i64 0, i32 14, i32 0
  %184 = load i32, i32* %183, align 4
  %185 = getelementptr inbounds %"class.webrtc::EncodedImage", %"class.webrtc::EncodedImage"* %8, i64 0, i32 0
  store i32 %184, i32* %185, align 8
  %186 = getelementptr inbounds %"class.blink::RTCVideoEncoder::Impl", %"class.blink::RTCVideoEncoder::Impl"* %0, i64 0, i32 14, i32 1
  %187 = load i32, i32* %186, align 4
  %188 = getelementptr inbounds %"class.webrtc::EncodedImage", %"class.webrtc::EncodedImage"* %8, i64 0, i32 1
  store i32 %187, i32* %188, align 4
  %189 = getelementptr inbounds %"class.webrtc::EncodedImage", %"class.webrtc::EncodedImage"* %8, i64 0, i32 13
  store i32 %134, i32* %189, align 8
  %190 = getelementptr inbounds %"class.webrtc::EncodedImage", %"class.webrtc::EncodedImage"* %8, i64 0, i32 3
  store i64 %133, i64* %190, align 8
  %191 = getelementptr inbounds %"struct.media::BitstreamBufferMetadata", %"struct.media::BitstreamBufferMetadata"* %2, i64 0, i32 1
  %192 = load i8, i8* %191, align 8, !range !6
  %193 = icmp eq i8 %192, 0
  %194 = select i1 %193, i32 4, i32 3
  %195 = getelementptr inbounds %"class.webrtc::EncodedImage", %"class.webrtc::EncodedImage"* %8, i64 0, i32 4
  store i32 %194, i32* %195, align 8
  %196 = getelementptr inbounds %"class.blink::RTCVideoEncoder::Impl", %"class.blink::RTCVideoEncoder::Impl"* %0, i64 0, i32 25
  %197 = load i8, i8* %196, align 4
  %198 = getelementptr inbounds %"class.webrtc::EncodedImage", %"class.webrtc::EncodedImage"* %8, i64 0, i32 6
  store i8 %197, i8* %198, align 8
  call void @llvm.lifetime.start.p0i8(i64 1992, i8* nonnull %11) #14
  call void @llvm.memset.p0i8.i64(i8* nonnull align 8 %11, i8 -86, i64 1992, i1 false)
  call void @_ZN6webrtc17CodecSpecificInfoC1Ev(%"struct.webrtc::CodecSpecificInfo"* nonnull %10) #14
  %199 = getelementptr inbounds %"class.blink::RTCVideoEncoder::Impl", %"class.blink::RTCVideoEncoder::Impl"* %0, i64 0, i32 24
  %200 = load i32, i32* %199, align 8
  %201 = getelementptr inbounds %"struct.webrtc::CodecSpecificInfo", %"struct.webrtc::CodecSpecificInfo"* %10, i64 0, i32 0
  store i32 %200, i32* %201, align 8
  switch i32 %200, label %404 [
    i32 1, label %202
    i32 2, label %204
  ]

202:                                              ; preds = %182
  %203 = getelementptr inbounds %"struct.webrtc::CodecSpecificInfo", %"struct.webrtc::CodecSpecificInfo"* %10, i64 0, i32 1, i32 0, i32 3
  store i8 -1, i8* %203, align 1
  br label %404

204:                                              ; preds = %182
  %205 = load i32, i32* %195, align 8
  %206 = icmp eq i32 %205, 3
  %207 = zext i1 %206 to i8
  %208 = getelementptr inbounds %"struct.webrtc::CodecSpecificInfo", %"struct.webrtc::CodecSpecificInfo"* %10, i64 0, i32 1, i32 0
  %209 = getelementptr inbounds %"struct.webrtc::CodecSpecificInfo", %"struct.webrtc::CodecSpecificInfo"* %10, i64 0, i32 2
  store i8 1, i8* %209, align 8
  %210 = getelementptr inbounds %"struct.media::BitstreamBufferMetadata", %"struct.media::BitstreamBufferMetadata"* %2, i64 0, i32 4, i32 0, i32 0, i32 0, i32 0
  %211 = load i8, i8* %210, align 8, !range !6
  %212 = icmp eq i8 %211, 0
  br i1 %212, label %379, label %213

213:                                              ; preds = %204
  %214 = getelementptr inbounds %"struct.webrtc::CodecSpecificInfoVP9", %"struct.webrtc::CodecSpecificInfoVP9"* %208, i64 0, i32 0
  store i8 1, i8* %214, align 8
  %215 = getelementptr inbounds %"struct.media::BitstreamBufferMetadata", %"struct.media::BitstreamBufferMetadata"* %2, i64 0, i32 4, i32 0, i32 0, i32 0, i32 1, i32 0, i32 0
  %216 = load i8, i8* %215, align 8, !range !6
  %217 = getelementptr inbounds %"struct.webrtc::CodecSpecificInfo", %"struct.webrtc::CodecSpecificInfo"* %10, i64 0, i32 1, i32 0, i32 1
  store i8 %216, i8* %217, align 1
  %218 = getelementptr inbounds %"struct.webrtc::CodecSpecificInfo", %"struct.webrtc::CodecSpecificInfo"* %10, i64 0, i32 1, i32 0, i32 2
  store i8 1, i8* %218, align 2
  %219 = getelementptr inbounds %"struct.webrtc::CodecSpecificInfo", %"struct.webrtc::CodecSpecificInfo"* %10, i64 0, i32 1, i32 0, i32 4
  store i8 0, i8* %219, align 4
  %220 = getelementptr inbounds %"struct.media::BitstreamBufferMetadata", %"struct.media::BitstreamBufferMetadata"* %2, i64 0, i32 4, i32 0, i32 0, i32 0, i32 1, i32 0, i32 2
  %221 = load i8, i8* %220, align 2
  %222 = getelementptr inbounds %"struct.webrtc::CodecSpecificInfo", %"struct.webrtc::CodecSpecificInfo"* %10, i64 0, i32 1, i32 0, i32 5
  store i8 %221, i8* %222, align 1
  %223 = getelementptr inbounds %"struct.media::BitstreamBufferMetadata", %"struct.media::BitstreamBufferMetadata"* %2, i64 0, i32 4, i32 0, i32 0, i32 0, i32 1, i32 0, i32 1
  %224 = load i8, i8* %223, align 1, !range !6
  %225 = getelementptr inbounds %"struct.webrtc::CodecSpecificInfo", %"struct.webrtc::CodecSpecificInfo"* %10, i64 0, i32 1, i32 0, i32 6
  store i8 %224, i8* %225, align 2
  %226 = getelementptr inbounds %"struct.webrtc::CodecSpecificInfo", %"struct.webrtc::CodecSpecificInfo"* %10, i64 0, i32 1, i32 0, i32 7
  store i8 0, i8* %226, align 1
  %227 = getelementptr inbounds %"struct.webrtc::CodecSpecificInfo", %"struct.webrtc::CodecSpecificInfo"* %10, i64 0, i32 1, i32 0, i32 8
  store i8 0, i8* %227, align 8
  %228 = getelementptr inbounds %"struct.media::BitstreamBufferMetadata", %"struct.media::BitstreamBufferMetadata"* %2, i64 0, i32 4, i32 0, i32 0, i32 0, i32 1, i32 0, i32 3
  %229 = getelementptr inbounds %"struct.media::BitstreamBufferMetadata", %"struct.media::BitstreamBufferMetadata"* %2, i64 0, i32 4, i32 0, i32 0, i32 0, i32 1, i32 0, i32 3, i32 0, i32 1
  %230 = bitcast i8** %229 to i64*
  %231 = load i64, i64* %230, align 8
  %232 = bitcast %"class.std::__1::vector.177"* %228 to i64*
  %233 = load i64, i64* %232, align 8
  %234 = sub i64 %231, %233
  %235 = trunc i64 %234 to i8
  %236 = getelementptr inbounds %"struct.webrtc::CodecSpecificInfo", %"struct.webrtc::CodecSpecificInfo"* %10, i64 0, i32 1, i32 0, i32 15
  store i8 %235, i8* %236, align 8
  %237 = icmp eq i64 %234, 0
  %238 = inttoptr i64 %233 to i8*
  br i1 %237, label %349, label %239

239:                                              ; preds = %213
  %240 = icmp ult i64 %234, 32
  br i1 %240, label %241, label %261

241:                                              ; preds = %347, %261, %239
  %242 = phi i64 [ 0, %261 ], [ 0, %239 ], [ %271, %347 ]
  %243 = sub i64 %231, %233
  %244 = xor i64 %242, -1
  %245 = add i64 %231, %244
  %246 = sub i64 %245, %233
  %247 = and i64 %243, 3
  %248 = icmp eq i64 %247, 0
  br i1 %248, label %258, label %249

249:                                              ; preds = %241, %249
  %250 = phi i64 [ %255, %249 ], [ %242, %241 ]
  %251 = phi i64 [ %256, %249 ], [ %247, %241 ]
  %252 = getelementptr inbounds i8, i8* %238, i64 %250
  %253 = load i8, i8* %252, align 1
  %254 = getelementptr inbounds %"struct.webrtc::CodecSpecificInfo", %"struct.webrtc::CodecSpecificInfo"* %10, i64 0, i32 1, i32 0, i32 16, i64 %250
  store i8 %253, i8* %254, align 1
  %255 = add nuw i64 %250, 1
  %256 = add i64 %251, -1
  %257 = icmp eq i64 %256, 0
  br i1 %257, label %258, label %249, !llvm.loop !20

258:                                              ; preds = %249, %241
  %259 = phi i64 [ %242, %241 ], [ %255, %249 ]
  %260 = icmp ult i64 %246, 3
  br i1 %260, label %349, label %360

261:                                              ; preds = %239
  %262 = getelementptr inbounds %"struct.webrtc::CodecSpecificInfo", %"struct.webrtc::CodecSpecificInfo"* %10, i64 0, i32 1, i32 0, i32 16, i64 0
  %263 = add i64 %231, 1625
  %264 = sub i64 %263, %233
  %265 = getelementptr i8, i8* %11, i64 %264
  %266 = getelementptr i8, i8* %238, i64 %234
  %267 = icmp ult i8* %262, %266
  %268 = icmp ugt i8* %265, %238
  %269 = and i1 %267, %268
  br i1 %269, label %241, label %270

270:                                              ; preds = %261
  %271 = and i64 %234, -32
  %272 = add i64 %271, -32
  %273 = lshr exact i64 %272, 5
  %274 = add nuw nsw i64 %273, 1
  %275 = and i64 %274, 3
  %276 = icmp ult i64 %272, 96
  br i1 %276, label %328, label %277

277:                                              ; preds = %270
  %278 = sub nsw i64 %274, %275
  br label %279

279:                                              ; preds = %279, %277
  %280 = phi i64 [ 0, %277 ], [ %325, %279 ]
  %281 = phi i64 [ %278, %277 ], [ %326, %279 ]
  %282 = getelementptr inbounds i8, i8* %238, i64 %280
  %283 = bitcast i8* %282 to <16 x i8>*
  %284 = load <16 x i8>, <16 x i8>* %283, align 1, !alias.scope !21
  %285 = getelementptr inbounds i8, i8* %282, i64 16
  %286 = bitcast i8* %285 to <16 x i8>*
  %287 = load <16 x i8>, <16 x i8>* %286, align 1, !alias.scope !21
  %288 = getelementptr inbounds %"struct.webrtc::CodecSpecificInfo", %"struct.webrtc::CodecSpecificInfo"* %10, i64 0, i32 1, i32 0, i32 16, i64 %280
  %289 = bitcast i8* %288 to <16 x i8>*
  store <16 x i8> %284, <16 x i8>* %289, align 1, !alias.scope !24, !noalias !21
  %290 = getelementptr inbounds i8, i8* %288, i64 16
  %291 = bitcast i8* %290 to <16 x i8>*
  store <16 x i8> %287, <16 x i8>* %291, align 1, !alias.scope !24, !noalias !21
  %292 = or i64 %280, 32
  %293 = getelementptr inbounds i8, i8* %238, i64 %292
  %294 = bitcast i8* %293 to <16 x i8>*
  %295 = load <16 x i8>, <16 x i8>* %294, align 1, !alias.scope !21
  %296 = getelementptr inbounds i8, i8* %293, i64 16
  %297 = bitcast i8* %296 to <16 x i8>*
  %298 = load <16 x i8>, <16 x i8>* %297, align 1, !alias.scope !21
  %299 = getelementptr inbounds %"struct.webrtc::CodecSpecificInfo", %"struct.webrtc::CodecSpecificInfo"* %10, i64 0, i32 1, i32 0, i32 16, i64 %292
  %300 = bitcast i8* %299 to <16 x i8>*
  store <16 x i8> %295, <16 x i8>* %300, align 1, !alias.scope !24, !noalias !21
  %301 = getelementptr inbounds i8, i8* %299, i64 16
  %302 = bitcast i8* %301 to <16 x i8>*
  store <16 x i8> %298, <16 x i8>* %302, align 1, !alias.scope !24, !noalias !21
  %303 = or i64 %280, 64
  %304 = getelementptr inbounds i8, i8* %238, i64 %303
  %305 = bitcast i8* %304 to <16 x i8>*
  %306 = load <16 x i8>, <16 x i8>* %305, align 1, !alias.scope !21
  %307 = getelementptr inbounds i8, i8* %304, i64 16
  %308 = bitcast i8* %307 to <16 x i8>*
  %309 = load <16 x i8>, <16 x i8>* %308, align 1, !alias.scope !21
  %310 = getelementptr inbounds %"struct.webrtc::CodecSpecificInfo", %"struct.webrtc::CodecSpecificInfo"* %10, i64 0, i32 1, i32 0, i32 16, i64 %303
  %311 = bitcast i8* %310 to <16 x i8>*
  store <16 x i8> %306, <16 x i8>* %311, align 1, !alias.scope !24, !noalias !21
  %312 = getelementptr inbounds i8, i8* %310, i64 16
  %313 = bitcast i8* %312 to <16 x i8>*
  store <16 x i8> %309, <16 x i8>* %313, align 1, !alias.scope !24, !noalias !21
  %314 = or i64 %280, 96
  %315 = getelementptr inbounds i8, i8* %238, i64 %314
  %316 = bitcast i8* %315 to <16 x i8>*
  %317 = load <16 x i8>, <16 x i8>* %316, align 1, !alias.scope !21
  %318 = getelementptr inbounds i8, i8* %315, i64 16
  %319 = bitcast i8* %318 to <16 x i8>*
  %320 = load <16 x i8>, <16 x i8>* %319, align 1, !alias.scope !21
  %321 = getelementptr inbounds %"struct.webrtc::CodecSpecificInfo", %"struct.webrtc::CodecSpecificInfo"* %10, i64 0, i32 1, i32 0, i32 16, i64 %314
  %322 = bitcast i8* %321 to <16 x i8>*
  store <16 x i8> %317, <16 x i8>* %322, align 1, !alias.scope !24, !noalias !21
  %323 = getelementptr inbounds i8, i8* %321, i64 16
  %324 = bitcast i8* %323 to <16 x i8>*
  store <16 x i8> %320, <16 x i8>* %324, align 1, !alias.scope !24, !noalias !21
  %325 = add i64 %280, 128
  %326 = add i64 %281, -4
  %327 = icmp eq i64 %326, 0
  br i1 %327, label %328, label %279, !llvm.loop !26

328:                                              ; preds = %279, %270
  %329 = phi i64 [ 0, %270 ], [ %325, %279 ]
  %330 = icmp eq i64 %275, 0
  br i1 %330, label %347, label %331

331:                                              ; preds = %328, %331
  %332 = phi i64 [ %344, %331 ], [ %329, %328 ]
  %333 = phi i64 [ %345, %331 ], [ %275, %328 ]
  %334 = getelementptr inbounds i8, i8* %238, i64 %332
  %335 = bitcast i8* %334 to <16 x i8>*
  %336 = load <16 x i8>, <16 x i8>* %335, align 1, !alias.scope !21
  %337 = getelementptr inbounds i8, i8* %334, i64 16
  %338 = bitcast i8* %337 to <16 x i8>*
  %339 = load <16 x i8>, <16 x i8>* %338, align 1, !alias.scope !21
  %340 = getelementptr inbounds %"struct.webrtc::CodecSpecificInfo", %"struct.webrtc::CodecSpecificInfo"* %10, i64 0, i32 1, i32 0, i32 16, i64 %332
  %341 = bitcast i8* %340 to <16 x i8>*
  store <16 x i8> %336, <16 x i8>* %341, align 1, !alias.scope !24, !noalias !21
  %342 = getelementptr inbounds i8, i8* %340, i64 16
  %343 = bitcast i8* %342 to <16 x i8>*
  store <16 x i8> %339, <16 x i8>* %343, align 1, !alias.scope !24, !noalias !21
  %344 = add i64 %332, 32
  %345 = add i64 %333, -1
  %346 = icmp eq i64 %345, 0
  br i1 %346, label %347, label %331, !llvm.loop !27

347:                                              ; preds = %331, %328
  %348 = icmp eq i64 %234, %271
  br i1 %348, label %349, label %241

349:                                              ; preds = %258, %360, %347, %213
  %350 = getelementptr inbounds %"struct.webrtc::CodecSpecificInfo", %"struct.webrtc::CodecSpecificInfo"* %10, i64 0, i32 1, i32 0, i32 3
  store i8 %207, i8* %350, align 1
  %351 = getelementptr inbounds %"struct.webrtc::CodecSpecificInfo", %"struct.webrtc::CodecSpecificInfo"* %10, i64 0, i32 1, i32 0, i32 11
  store i8 1, i8* %351, align 8
  %352 = getelementptr inbounds %"struct.webrtc::CodecSpecificInfo", %"struct.webrtc::CodecSpecificInfo"* %10, i64 0, i32 1, i32 0, i32 9
  %353 = bitcast i64* %352 to <2 x i64>*
  store <2 x i64> <i64 1, i64 0>, <2 x i64>* %353, align 8
  %354 = load i32, i32* %185, align 8
  %355 = trunc i32 %354 to i16
  %356 = getelementptr inbounds %"struct.webrtc::CodecSpecificInfo", %"struct.webrtc::CodecSpecificInfo"* %10, i64 0, i32 1, i32 0, i32 12, i64 0
  store i16 %355, i16* %356, align 2
  %357 = load i32, i32* %188, align 4
  %358 = trunc i32 %357 to i16
  %359 = getelementptr inbounds %"struct.webrtc::CodecSpecificInfo", %"struct.webrtc::CodecSpecificInfo"* %10, i64 0, i32 1, i32 0, i32 13, i64 0
  store i16 %358, i16* %359, align 2
  br label %404

360:                                              ; preds = %258, %360
  %361 = phi i64 [ %377, %360 ], [ %259, %258 ]
  %362 = getelementptr inbounds i8, i8* %238, i64 %361
  %363 = load i8, i8* %362, align 1
  %364 = getelementptr inbounds %"struct.webrtc::CodecSpecificInfo", %"struct.webrtc::CodecSpecificInfo"* %10, i64 0, i32 1, i32 0, i32 16, i64 %361
  store i8 %363, i8* %364, align 1
  %365 = add nuw i64 %361, 1
  %366 = getelementptr inbounds i8, i8* %238, i64 %365
  %367 = load i8, i8* %366, align 1
  %368 = getelementptr inbounds %"struct.webrtc::CodecSpecificInfo", %"struct.webrtc::CodecSpecificInfo"* %10, i64 0, i32 1, i32 0, i32 16, i64 %365
  store i8 %367, i8* %368, align 1
  %369 = add nuw i64 %361, 2
  %370 = getelementptr inbounds i8, i8* %238, i64 %369
  %371 = load i8, i8* %370, align 1
  %372 = getelementptr inbounds %"struct.webrtc::CodecSpecificInfo", %"struct.webrtc::CodecSpecificInfo"* %10, i64 0, i32 1, i32 0, i32 16, i64 %369
  store i8 %371, i8* %372, align 1
  %373 = add nuw i64 %361, 3
  %374 = getelementptr inbounds i8, i8* %238, i64 %373
  %375 = load i8, i8* %374, align 1
  %376 = getelementptr inbounds %"struct.webrtc::CodecSpecificInfo", %"struct.webrtc::CodecSpecificInfo"* %10, i64 0, i32 1, i32 0, i32 16, i64 %373
  store i8 %375, i8* %376, align 1
  %377 = add nuw i64 %361, 4
  %378 = icmp eq i64 %377, %234
  br i1 %378, label %349, label %360, !llvm.loop !28

379:                                              ; preds = %204
  %380 = getelementptr inbounds %"struct.webrtc::CodecSpecificInfo", %"struct.webrtc::CodecSpecificInfo"* %10, i64 0, i32 1, i32 0, i32 2
  store i8 0, i8* %380, align 2
  %381 = getelementptr inbounds %"struct.webrtc::CodecSpecificInfo", %"struct.webrtc::CodecSpecificInfo"* %10, i64 0, i32 1, i32 0, i32 5
  store i8 -1, i8* %381, align 1
  %382 = getelementptr inbounds %"struct.webrtc::CodecSpecificInfo", %"struct.webrtc::CodecSpecificInfo"* %10, i64 0, i32 1, i32 0, i32 6
  store i8 1, i8* %382, align 2
  %383 = getelementptr inbounds %"struct.webrtc::CodecSpecificInfo", %"struct.webrtc::CodecSpecificInfo"* %10, i64 0, i32 1, i32 0, i32 7
  store i8 0, i8* %383, align 1
  %384 = getelementptr inbounds %"struct.webrtc::CodecSpecificInfo", %"struct.webrtc::CodecSpecificInfo"* %10, i64 0, i32 1, i32 0, i32 8
  store i8 0, i8* %384, align 8
  %385 = getelementptr inbounds %"struct.webrtc::CodecSpecificInfo", %"struct.webrtc::CodecSpecificInfo"* %10, i64 0, i32 1, i32 0, i32 9
  store i64 1, i64* %385, align 8
  %386 = getelementptr inbounds %"struct.webrtc::CodecSpecificInfoVP9", %"struct.webrtc::CodecSpecificInfoVP9"* %208, i64 0, i32 0
  store i8 1, i8* %386, align 8
  %387 = getelementptr inbounds %"struct.webrtc::CodecSpecificInfo", %"struct.webrtc::CodecSpecificInfo"* %10, i64 0, i32 1, i32 0, i32 11
  store i8 0, i8* %387, align 8
  %388 = xor i1 %206, true
  %389 = getelementptr inbounds %"struct.webrtc::CodecSpecificInfo", %"struct.webrtc::CodecSpecificInfo"* %10, i64 0, i32 1, i32 0, i32 1
  %390 = zext i1 %388 to i8
  store i8 %390, i8* %389, align 1
  %391 = getelementptr inbounds %"struct.webrtc::CodecSpecificInfo", %"struct.webrtc::CodecSpecificInfo"* %10, i64 0, i32 1, i32 0, i32 3
  store i8 %207, i8* %391, align 1
  br i1 %206, label %392, label %404

392:                                              ; preds = %379
  store i8 1, i8* %387, align 8
  %393 = load i32, i32* %185, align 8
  %394 = trunc i32 %393 to i16
  %395 = getelementptr inbounds %"struct.webrtc::CodecSpecificInfo", %"struct.webrtc::CodecSpecificInfo"* %10, i64 0, i32 1, i32 0, i32 12, i64 0
  store i16 %394, i16* %395, align 2
  %396 = load i32, i32* %188, align 4
  %397 = trunc i32 %396 to i16
  %398 = getelementptr inbounds %"struct.webrtc::CodecSpecificInfo", %"struct.webrtc::CodecSpecificInfo"* %10, i64 0, i32 1, i32 0, i32 13, i64 0
  store i16 %397, i16* %398, align 2
  %399 = getelementptr inbounds %"struct.webrtc::CodecSpecificInfo", %"struct.webrtc::CodecSpecificInfo"* %10, i64 0, i32 1, i32 0, i32 14, i32 0
  store i64 1, i64* %399, align 8
  %400 = getelementptr inbounds %"struct.webrtc::CodecSpecificInfo", %"struct.webrtc::CodecSpecificInfo"* %10, i64 0, i32 1, i32 0, i32 14, i32 1, i64 0
  store i8 0, i8* %400, align 8
  %401 = getelementptr inbounds %"struct.webrtc::CodecSpecificInfo", %"struct.webrtc::CodecSpecificInfo"* %10, i64 0, i32 1, i32 0, i32 14, i32 2, i64 0
  store i8 0, i8* %401, align 1
  %402 = getelementptr inbounds %"struct.webrtc::CodecSpecificInfo", %"struct.webrtc::CodecSpecificInfo"* %10, i64 0, i32 1, i32 0, i32 14, i32 3, i64 0
  store i8 1, i8* %402, align 2
  %403 = getelementptr inbounds %"struct.webrtc::CodecSpecificInfo", %"struct.webrtc::CodecSpecificInfo"* %10, i64 0, i32 1, i32 0, i32 14, i32 4, i64 0, i64 0
  store i8 1, i8* %403, align 1
  br label %404

404:                                              ; preds = %349, %392, %379, %182, %202
  %405 = getelementptr inbounds %"class.blink::RTCVideoEncoder::Impl", %"class.blink::RTCVideoEncoder::Impl"* %0, i64 0, i32 23
  %406 = load %"class.webrtc::EncodedImageCallback"*, %"class.webrtc::EncodedImageCallback"** %405, align 8
  %407 = icmp eq %"class.webrtc::EncodedImageCallback"* %406, null
  br i1 %407, label %414, label %408

408:                                              ; preds = %404
  %409 = bitcast %"class.webrtc::EncodedImageCallback"* %406 to { i64, i8 } (%"class.webrtc::EncodedImageCallback"*, %"class.webrtc::EncodedImage"*, %"struct.webrtc::CodecSpecificInfo"*)***
  %410 = load { i64, i8 } (%"class.webrtc::EncodedImageCallback"*, %"class.webrtc::EncodedImage"*, %"struct.webrtc::CodecSpecificInfo"*)**, { i64, i8 } (%"class.webrtc::EncodedImageCallback"*, %"class.webrtc::EncodedImage"*, %"struct.webrtc::CodecSpecificInfo"*)*** %409, align 8
  %411 = getelementptr inbounds { i64, i8 } (%"class.webrtc::EncodedImageCallback"*, %"class.webrtc::EncodedImage"*, %"struct.webrtc::CodecSpecificInfo"*)*, { i64, i8 } (%"class.webrtc::EncodedImageCallback"*, %"class.webrtc::EncodedImage"*, %"struct.webrtc::CodecSpecificInfo"*)** %410, i64 2
  %412 = load { i64, i8 } (%"class.webrtc::EncodedImageCallback"*, %"class.webrtc::EncodedImage"*, %"struct.webrtc::CodecSpecificInfo"*)*, { i64, i8 } (%"class.webrtc::EncodedImageCallback"*, %"class.webrtc::EncodedImage"*, %"struct.webrtc::CodecSpecificInfo"*)** %411, align 8
  %413 = call { i64, i8 } %412(%"class.webrtc::EncodedImageCallback"* nonnull %406, %"class.webrtc::EncodedImage"* nonnull dereferenceable(272) %8, %"struct.webrtc::CodecSpecificInfo"* nonnull %10) #14
  call void @_ZN5blink15RTCVideoEncoder4Impl26UseOutputBitstreamBufferIdEi(%"class.blink::RTCVideoEncoder::Impl"* %0, i32 %1) #14
  br label %414

414:                                              ; preds = %404, %408
  call void @_ZN6webrtc17CodecSpecificInfoD1Ev(%"struct.webrtc::CodecSpecificInfo"* nonnull %10) #14
  call void @llvm.lifetime.end.p0i8(i64 1992, i8* nonnull %11) #14
  call void @_ZN6webrtc12EncodedImageD1Ev(%"class.webrtc::EncodedImage"* nonnull %8) #14
  call void @llvm.lifetime.end.p0i8(i64 272, i8* nonnull %135) #14
  br label %415

415:                                              ; preds = %75, %414, %41
  ret void
}

declare i64 @_ZN3rtc10TimeMicrosEv() local_unnamed_addr #1

declare void @_ZN6webrtc12EncodedImageC1Ev(%"class.webrtc::EncodedImage"*) unnamed_addr #1

declare void @_ZN6webrtc18EncodedImageBuffer6CreateEPKhm(%"class.rtc::scoped_refptr.235"* sret, i8*, i64) local_unnamed_addr #1

declare void @_ZN6webrtc17CodecSpecificInfoC1Ev(%"struct.webrtc::CodecSpecificInfo"*) unnamed_addr #1

; Function Attrs: nounwind ssp uwtable
define hidden void @_ZN5blink15RTCVideoEncoder4Impl18ReturnEncodedImageERKN6webrtc12EncodedImageERKNS2_17CodecSpecificInfoEi(%"class.blink::RTCVideoEncoder::Impl"*, %"class.webrtc::EncodedImage"* dereferenceable(272), %"struct.webrtc::CodecSpecificInfo"* dereferenceable(1992), i32) local_unnamed_addr #0 align 2 {
  %5 = getelementptr inbounds %"class.blink::RTCVideoEncoder::Impl", %"class.blink::RTCVideoEncoder::Impl"* %0, i64 0, i32 23
  %6 = load %"class.webrtc::EncodedImageCallback"*, %"class.webrtc::EncodedImageCallback"** %5, align 8
  %7 = icmp eq %"class.webrtc::EncodedImageCallback"* %6, null
  br i1 %7, label %14, label %8

8:                                                ; preds = %4
  %9 = bitcast %"class.webrtc::EncodedImageCallback"* %6 to { i64, i8 } (%"class.webrtc::EncodedImageCallback"*, %"class.webrtc::EncodedImage"*, %"struct.webrtc::CodecSpecificInfo"*)***
  %10 = load { i64, i8 } (%"class.webrtc::EncodedImageCallback"*, %"class.webrtc::EncodedImage"*, %"struct.webrtc::CodecSpecificInfo"*)**, { i64, i8 } (%"class.webrtc::EncodedImageCallback"*, %"class.webrtc::EncodedImage"*, %"struct.webrtc::CodecSpecificInfo"*)*** %9, align 8
  %11 = getelementptr inbounds { i64, i8 } (%"class.webrtc::EncodedImageCallback"*, %"class.webrtc::EncodedImage"*, %"struct.webrtc::CodecSpecificInfo"*)*, { i64, i8 } (%"class.webrtc::EncodedImageCallback"*, %"class.webrtc::EncodedImage"*, %"struct.webrtc::CodecSpecificInfo"*)** %10, i64 2
  %12 = load { i64, i8 } (%"class.webrtc::EncodedImageCallback"*, %"class.webrtc::EncodedImage"*, %"struct.webrtc::CodecSpecificInfo"*)*, { i64, i8 } (%"class.webrtc::EncodedImageCallback"*, %"class.webrtc::EncodedImage"*, %"struct.webrtc::CodecSpecificInfo"*)** %11, align 8
  %13 = tail call { i64, i8 } %12(%"class.webrtc::EncodedImageCallback"* nonnull %6, %"class.webrtc::EncodedImage"* dereferenceable(272) %1, %"struct.webrtc::CodecSpecificInfo"* %2) #14
  tail call void @_ZN5blink15RTCVideoEncoder4Impl26UseOutputBitstreamBufferIdEi(%"class.blink::RTCVideoEncoder::Impl"* %0, i32 %3)
  br label %14

14:                                               ; preds = %4, %8
  ret void
}

; Function Attrs: nounwind
declare void @_ZN6webrtc17CodecSpecificInfoD1Ev(%"struct.webrtc::CodecSpecificInfo"*) unnamed_addr #3

; Function Attrs: nounwind
declare void @_ZN6webrtc12EncodedImageD1Ev(%"class.webrtc::EncodedImage"*) unnamed_addr #3

; Function Attrs: nounwind ssp uwtable
define hidden void @_ZN5blink15RTCVideoEncoder4Impl11NotifyErrorEN5media22VideoEncodeAccelerator5ErrorE(%"class.blink::RTCVideoEncoder::Impl"*, i32) unnamed_addr #0 align 2 {
  switch i32 %1, label %11 [
    i32 1, label %3
    i32 2, label %4
  ]

3:                                                ; preds = %2
  br label %11

4:                                                ; preds = %2
  %5 = getelementptr inbounds %"class.blink::RTCVideoEncoder::Impl", %"class.blink::RTCVideoEncoder::Impl"* %0, i64 0, i32 24
  %6 = load i32, i32* %5, align 8
  %7 = icmp eq i32 %6, 4
  br i1 %7, label %8, label %11

8:                                                ; preds = %4
  %9 = tail call zeroext i1 @_ZN6webrtc11H264Encoder11IsSupportedEv() #14
  %10 = select i1 %9, i32 -13, i32 -1
  br label %11

11:                                               ; preds = %8, %4, %2, %3
  %12 = phi i32 [ -4, %3 ], [ -1, %2 ], [ -13, %4 ], [ %10, %8 ]
  %13 = getelementptr inbounds %"class.blink::RTCVideoEncoder::Impl", %"class.blink::RTCVideoEncoder::Impl"* %0, i64 0, i32 6
  %14 = getelementptr inbounds %"class.std::__1::unique_ptr", %"class.std::__1::unique_ptr"* %13, i64 0, i32 0, i32 0, i32 0
  %15 = load %"class.media::VideoEncodeAccelerator"*, %"class.media::VideoEncodeAccelerator"** %14, align 8
  store %"class.media::VideoEncodeAccelerator"* null, %"class.media::VideoEncodeAccelerator"** %14, align 8
  %16 = icmp eq %"class.media::VideoEncodeAccelerator"* %15, null
  br i1 %16, label %19, label %17

17:                                               ; preds = %11
  %18 = bitcast %"class.std::__1::unique_ptr"* %13 to %"struct.std::__1::default_delete"*
  tail call void @_ZNKSt3__114default_deleteIN5media22VideoEncodeAcceleratorEEclEPS2_(%"struct.std::__1::default_delete"* %18, %"class.media::VideoEncodeAccelerator"* nonnull %15) #14
  br label %19

19:                                               ; preds = %11, %17
  %20 = getelementptr inbounds %"class.blink::RTCVideoEncoder::Impl", %"class.blink::RTCVideoEncoder::Impl"* %0, i64 0, i32 29
  %21 = getelementptr inbounds %"class.base::Lock", %"class.base::Lock"* %20, i64 0, i32 0, i32 0
  %22 = tail call i32 @pthread_mutex_trylock(%union.pthread_mutex_t* %21) #14
  %23 = icmp eq i32 %22, 0
  br i1 %23, label %26, label %24, !prof !2

24:                                               ; preds = %19
  %25 = getelementptr inbounds %"class.base::Lock", %"class.base::Lock"* %20, i64 0, i32 0
  tail call void @_ZN4base8internal8LockImpl24LockInternalWithTrackingEv(%"class.base::internal::LockImpl"* %25) #14
  br label %26

26:                                               ; preds = %19, %24
  %27 = getelementptr inbounds %"class.blink::RTCVideoEncoder::Impl", %"class.blink::RTCVideoEncoder::Impl"* %0, i64 0, i32 30
  store i32 %12, i32* %27, align 8
  %28 = tail call i32 @pthread_mutex_unlock(%union.pthread_mutex_t* %21) #14
  %29 = getelementptr inbounds %"class.blink::RTCVideoEncoder::Impl", %"class.blink::RTCVideoEncoder::Impl"* %0, i64 0, i32 4
  %30 = getelementptr inbounds %"class.blink::RTCVideoEncoder::Impl", %"class.blink::RTCVideoEncoder::Impl"* %0, i64 0, i32 4, i32 0, i32 1
  %31 = load i32*, i32** %30, align 8
  %32 = icmp eq i32* %31, null
  br i1 %32, label %34, label %33

33:                                               ; preds = %26
  store i32 %12, i32* %31, align 4
  br label %34

34:                                               ; preds = %33, %26
  %35 = getelementptr inbounds %"class.(anonymous namespace)::ScopedSignaledValue", %"class.(anonymous namespace)::ScopedSignaledValue"* %29, i64 0, i32 0, i32 0
  %36 = load %"class.base::WaitableEvent"*, %"class.base::WaitableEvent"** %35, align 8
  %37 = icmp eq %"class.base::WaitableEvent"* %36, null
  br i1 %37, label %39, label %38

38:                                               ; preds = %34
  tail call void @_ZN4base13WaitableEvent6SignalEv(%"class.base::WaitableEvent"* nonnull %36) #14
  store %"class.base::WaitableEvent"* null, %"class.base::WaitableEvent"** %35, align 8
  br label %39

39:                                               ; preds = %34, %38
  %40 = bitcast %"class.(anonymous namespace)::ScopedSignaledValue"* %29 to i8*
  tail call void @llvm.memset.p0i8.i64(i8* align 8 %40, i8 0, i64 16, i1 false) #14
  %41 = getelementptr inbounds %"class.blink::RTCVideoEncoder::Impl", %"class.blink::RTCVideoEncoder::Impl"* %0, i64 0, i32 5
  %42 = getelementptr inbounds %"class.blink::RTCVideoEncoder::Impl", %"class.blink::RTCVideoEncoder::Impl"* %0, i64 0, i32 5, i32 0, i32 1
  %43 = load i32*, i32** %42, align 8
  %44 = icmp eq i32* %43, null
  br i1 %44, label %46, label %45

45:                                               ; preds = %39
  store i32 %12, i32* %43, align 4
  br label %46

46:                                               ; preds = %45, %39
  %47 = getelementptr inbounds %"class.(anonymous namespace)::ScopedSignaledValue", %"class.(anonymous namespace)::ScopedSignaledValue"* %41, i64 0, i32 0, i32 0
  %48 = load %"class.base::WaitableEvent"*, %"class.base::WaitableEvent"** %47, align 8
  %49 = icmp eq %"class.base::WaitableEvent"* %48, null
  br i1 %49, label %51, label %50

50:                                               ; preds = %46
  tail call void @_ZN4base13WaitableEvent6SignalEv(%"class.base::WaitableEvent"* nonnull %48) #14
  store %"class.base::WaitableEvent"* null, %"class.base::WaitableEvent"** %47, align 8
  br label %51

51:                                               ; preds = %46, %50
  %52 = bitcast %"class.(anonymous namespace)::ScopedSignaledValue"* %41 to i8*
  tail call void @llvm.memset.p0i8.i64(i8* align 8 %52, i8 0, i64 16, i1 false) #14
  ret void
}

declare zeroext i1 @_ZN6webrtc11H264Encoder11IsSupportedEv() local_unnamed_addr #1

; Function Attrs: nounwind ssp uwtable
define hidden void @_ZN5blink15RTCVideoEncoder4ImplD2Ev(%"class.blink::RTCVideoEncoder::Impl"*) unnamed_addr #0 align 2 {
  %2 = getelementptr inbounds %"class.blink::RTCVideoEncoder::Impl", %"class.blink::RTCVideoEncoder::Impl"* %0, i64 0, i32 0, i32 0
  store i32 (...)** bitcast (i8** getelementptr inbounds ({ [8 x i8*] }, { [8 x i8*] }* @_ZTVN5blink15RTCVideoEncoder4ImplE, i64 0, inrange i32 0, i64 2) to i32 (...)**), i32 (...)*** %2, align 8
  %3 = getelementptr inbounds %"class.blink::RTCVideoEncoder::Impl", %"class.blink::RTCVideoEncoder::Impl"* %0, i64 0, i32 29, i32 0
  tail call void @_ZN4base8internal8LockImplD1Ev(%"class.base::internal::LockImpl"* %3) #14
  %4 = getelementptr inbounds %"class.blink::RTCVideoEncoder::Impl", %"class.blink::RTCVideoEncoder::Impl"* %0, i64 0, i32 28, i32 0, i32 0, i32 0, i32 0, i32 0
  %5 = load i64, i64* %4, align 8
  %6 = and i64 %5, 1
  %7 = icmp eq i64 %6, 0
  br i1 %7, label %12, label %8

8:                                                ; preds = %1
  %9 = getelementptr inbounds %"class.blink::RTCVideoEncoder::Impl", %"class.blink::RTCVideoEncoder::Impl"* %0, i64 0, i32 28, i32 0, i32 1, i32 0, i32 0
  %10 = bitcast i32** %9 to i8**
  %11 = load i8*, i8** %10, align 8
  tail call void @_ZdlPv(i8* %11) #15
  br label %12

12:                                               ; preds = %1, %8
  %13 = getelementptr inbounds %"class.blink::RTCVideoEncoder::Impl", %"class.blink::RTCVideoEncoder::Impl"* %0, i64 0, i32 27
  tail call void @_ZN6webrtc12VideoEncoder11EncoderInfoD1Ev(%"struct.webrtc::VideoEncoder::EncoderInfo"* %13) #14
  %14 = getelementptr inbounds %"class.blink::RTCVideoEncoder::Impl", %"class.blink::RTCVideoEncoder::Impl"* %0, i64 0, i32 22, i32 0
  %15 = load %"class.media::VideoFrame"*, %"class.media::VideoFrame"** %14, align 8
  %16 = icmp eq %"class.media::VideoFrame"* %15, null
  br i1 %16, label %29, label %17

17:                                               ; preds = %12
  %18 = getelementptr inbounds %"class.media::VideoFrame", %"class.media::VideoFrame"* %15, i64 0, i32 1
  %19 = getelementptr inbounds %"class.base::RefCountedThreadSafe.102", %"class.base::RefCountedThreadSafe.102"* %18, i64 0, i32 0, i32 0, i32 0, i32 0, i32 0, i32 0, i32 0, i32 0
  %20 = atomicrmw sub i32* %19, i32 1 acq_rel
  %21 = icmp eq i32 %20, 1
  br i1 %21, label %22, label %29

22:                                               ; preds = %17
  %23 = getelementptr inbounds %"class.base::RefCountedThreadSafe.102", %"class.base::RefCountedThreadSafe.102"* %18, i64 -2
  %24 = bitcast %"class.base::RefCountedThreadSafe.102"* %23 to %"class.media::VideoFrame"*
  %25 = bitcast %"class.base::RefCountedThreadSafe.102"* %23 to void (%"class.media::VideoFrame"*)***
  %26 = load void (%"class.media::VideoFrame"*)**, void (%"class.media::VideoFrame"*)*** %25, align 8
  %27 = getelementptr inbounds void (%"class.media::VideoFrame"*)*, void (%"class.media::VideoFrame"*)** %26, i64 1
  %28 = load void (%"class.media::VideoFrame"*)*, void (%"class.media::VideoFrame"*)** %27, align 8
  tail call void %28(%"class.media::VideoFrame"* nonnull %24) #14
  br label %29

29:                                               ; preds = %12, %17, %22
  %30 = getelementptr inbounds %"class.blink::RTCVideoEncoder::Impl", %"class.blink::RTCVideoEncoder::Impl"* %0, i64 0, i32 18, i32 0, i32 0, i32 0
  %31 = load i32*, i32** %30, align 8
  %32 = icmp eq i32* %31, null
  %33 = bitcast i32* %31 to i8*
  br i1 %32, label %40, label %34, !prof !2

34:                                               ; preds = %29
  %35 = getelementptr inbounds %"class.blink::RTCVideoEncoder::Impl", %"class.blink::RTCVideoEncoder::Impl"* %0, i64 0, i32 18, i32 0, i32 0, i32 2
  %36 = load i32, i32* %35, align 4
  %37 = icmp eq i32 %36, 0
  br i1 %37, label %39, label %38, !prof !19

38:                                               ; preds = %34
  store i32 0, i32* %35, align 4
  br label %39

39:                                               ; preds = %38, %34
  tail call void @_ZN3WTF18PartitionAllocator11FreeBackingEPv(i8* nonnull %33) #14
  store i32* null, i32** %30, align 8
  br label %40

40:                                               ; preds = %29, %39
  %41 = getelementptr inbounds %"class.blink::RTCVideoEncoder::Impl", %"class.blink::RTCVideoEncoder::Impl"* %0, i64 0, i32 17
  %42 = getelementptr inbounds %"class.WTF::Vector.63", %"class.WTF::Vector.63"* %41, i64 0, i32 0, i32 0, i32 0
  %43 = load %"struct.std::__1::pair"*, %"struct.std::__1::pair"** %42, align 8
  %44 = icmp eq %"struct.std::__1::pair"* %43, null
  br i1 %44, label %64, label %45, !prof !2

45:                                               ; preds = %40
  %46 = bitcast %"struct.std::__1::pair"* %43 to i8*
  %47 = getelementptr inbounds %"class.blink::RTCVideoEncoder::Impl", %"class.blink::RTCVideoEncoder::Impl"* %0, i64 0, i32 17, i32 0, i32 0, i32 2
  %48 = load i32, i32* %47, align 4
  %49 = icmp eq i32 %48, 0
  br i1 %49, label %62, label %50, !prof !19

50:                                               ; preds = %45
  %51 = zext i32 %48 to i64
  %52 = getelementptr inbounds %"struct.std::__1::pair", %"struct.std::__1::pair"* %43, i64 %51
  br label %53

53:                                               ; preds = %53, %50
  %54 = phi %"struct.std::__1::pair"* [ %57, %53 ], [ %43, %50 ]
  %55 = getelementptr inbounds %"struct.std::__1::pair", %"struct.std::__1::pair"* %54, i64 0, i32 1, i32 0
  tail call void @_ZN4base19SharedMemoryMappingD2Ev(%"class.base::SharedMemoryMapping"* %55) #14
  %56 = getelementptr inbounds %"struct.std::__1::pair", %"struct.std::__1::pair"* %54, i64 0, i32 0
  tail call void @_ZN4base24UnsafeSharedMemoryRegionD1Ev(%"class.base::UnsafeSharedMemoryRegion"* %56) #14
  %57 = getelementptr inbounds %"struct.std::__1::pair", %"struct.std::__1::pair"* %54, i64 1
  %58 = icmp eq %"struct.std::__1::pair"* %57, %52
  br i1 %58, label %59, label %53

59:                                               ; preds = %53
  store i32 0, i32* %47, align 4
  %60 = bitcast %"class.WTF::Vector.63"* %41 to i8**
  %61 = load i8*, i8** %60, align 8
  br label %62

62:                                               ; preds = %59, %45
  %63 = phi i8* [ %61, %59 ], [ %46, %45 ]
  tail call void @_ZN3WTF18PartitionAllocator11FreeBackingEPv(i8* %63) #14
  store %"struct.std::__1::pair"* null, %"struct.std::__1::pair"** %42, align 8
  br label %64

64:                                               ; preds = %40, %62
  %65 = getelementptr inbounds %"class.blink::RTCVideoEncoder::Impl", %"class.blink::RTCVideoEncoder::Impl"* %0, i64 0, i32 16
  %66 = getelementptr inbounds %"class.WTF::Vector", %"class.WTF::Vector"* %65, i64 0, i32 0, i32 0, i32 0
  %67 = load %"class.std::__1::unique_ptr.56"*, %"class.std::__1::unique_ptr.56"** %66, align 8
  %68 = icmp eq %"class.std::__1::unique_ptr.56"* %67, null
  br i1 %68, label %94, label %69, !prof !2

69:                                               ; preds = %64
  %70 = bitcast %"class.std::__1::unique_ptr.56"* %67 to i8*
  %71 = getelementptr inbounds %"class.blink::RTCVideoEncoder::Impl", %"class.blink::RTCVideoEncoder::Impl"* %0, i64 0, i32 16, i32 0, i32 0, i32 2
  %72 = load i32, i32* %71, align 4
  %73 = icmp eq i32 %72, 0
  br i1 %73, label %92, label %74, !prof !19

74:                                               ; preds = %69
  %75 = zext i32 %72 to i64
  %76 = getelementptr inbounds %"class.std::__1::unique_ptr.56", %"class.std::__1::unique_ptr.56"* %67, i64 %75
  br label %77

77:                                               ; preds = %86, %74
  %78 = phi %"class.std::__1::unique_ptr.56"* [ %87, %86 ], [ %67, %74 ]
  %79 = getelementptr inbounds %"class.std::__1::unique_ptr.56", %"class.std::__1::unique_ptr.56"* %78, i64 0, i32 0, i32 0, i32 0
  %80 = load %"struct.std::__1::pair"*, %"struct.std::__1::pair"** %79, align 8
  store %"struct.std::__1::pair"* null, %"struct.std::__1::pair"** %79, align 8
  %81 = icmp eq %"struct.std::__1::pair"* %80, null
  br i1 %81, label %86, label %82

82:                                               ; preds = %77
  %83 = getelementptr inbounds %"struct.std::__1::pair", %"struct.std::__1::pair"* %80, i64 0, i32 1, i32 0
  tail call void @_ZN4base19SharedMemoryMappingD2Ev(%"class.base::SharedMemoryMapping"* %83) #14
  %84 = getelementptr inbounds %"struct.std::__1::pair", %"struct.std::__1::pair"* %80, i64 0, i32 0
  tail call void @_ZN4base24UnsafeSharedMemoryRegionD1Ev(%"class.base::UnsafeSharedMemoryRegion"* %84) #14
  %85 = bitcast %"struct.std::__1::pair"* %80 to i8*
  tail call void @_ZdlPv(i8* %85) #15
  br label %86

86:                                               ; preds = %82, %77
  %87 = getelementptr inbounds %"class.std::__1::unique_ptr.56", %"class.std::__1::unique_ptr.56"* %78, i64 1
  %88 = icmp eq %"class.std::__1::unique_ptr.56"* %87, %76
  br i1 %88, label %89, label %77

89:                                               ; preds = %86
  store i32 0, i32* %71, align 4
  %90 = bitcast %"class.WTF::Vector"* %65 to i8**
  %91 = load i8*, i8** %90, align 8
  br label %92

92:                                               ; preds = %89, %69
  %93 = phi i8* [ %91, %89 ], [ %70, %69 ]
  tail call void @_ZN3WTF18PartitionAllocator11FreeBackingEPv(i8* %93) #14
  store %"class.std::__1::unique_ptr.56"* null, %"class.std::__1::unique_ptr.56"** %66, align 8
  br label %94

94:                                               ; preds = %64, %92
  %95 = getelementptr inbounds %"class.blink::RTCVideoEncoder::Impl", %"class.blink::RTCVideoEncoder::Impl"* %0, i64 0, i32 7, i32 0, i32 0, i32 0, i32 0
  %96 = load %"struct.blink::(anonymous namespace)::RTCTimestamps"*, %"struct.blink::(anonymous namespace)::RTCTimestamps"** %95, align 8
  %97 = icmp eq %"struct.blink::(anonymous namespace)::RTCTimestamps"* %96, null
  br i1 %97, label %100, label %98

98:                                               ; preds = %94
  %99 = bitcast %"struct.blink::(anonymous namespace)::RTCTimestamps"* %96 to i8*
  tail call void @_ZN3WTF18PartitionAllocator11FreeBackingEPv(i8* nonnull %99) #14
  store %"struct.blink::(anonymous namespace)::RTCTimestamps"* null, %"struct.blink::(anonymous namespace)::RTCTimestamps"** %95, align 8
  br label %100

100:                                              ; preds = %94, %98
  %101 = getelementptr inbounds %"class.blink::RTCVideoEncoder::Impl", %"class.blink::RTCVideoEncoder::Impl"* %0, i64 0, i32 6
  %102 = getelementptr inbounds %"class.std::__1::unique_ptr", %"class.std::__1::unique_ptr"* %101, i64 0, i32 0, i32 0, i32 0
  %103 = load %"class.media::VideoEncodeAccelerator"*, %"class.media::VideoEncodeAccelerator"** %102, align 8
  store %"class.media::VideoEncodeAccelerator"* null, %"class.media::VideoEncodeAccelerator"** %102, align 8
  %104 = icmp eq %"class.media::VideoEncodeAccelerator"* %103, null
  br i1 %104, label %107, label %105

105:                                              ; preds = %100
  %106 = bitcast %"class.std::__1::unique_ptr"* %101 to %"struct.std::__1::default_delete"*
  tail call void @_ZNKSt3__114default_deleteIN5media22VideoEncodeAcceleratorEEclEPS2_(%"struct.std::__1::default_delete"* %106, %"class.media::VideoEncodeAccelerator"* nonnull %103) #14
  br label %107

107:                                              ; preds = %100, %105
  %108 = getelementptr inbounds %"class.blink::RTCVideoEncoder::Impl", %"class.blink::RTCVideoEncoder::Impl"* %0, i64 0, i32 5, i32 0, i32 0
  %109 = load %"class.base::WaitableEvent"*, %"class.base::WaitableEvent"** %108, align 8
  %110 = icmp eq %"class.base::WaitableEvent"* %109, null
  br i1 %110, label %112, label %111

111:                                              ; preds = %107
  tail call void @_ZN4base13WaitableEvent6SignalEv(%"class.base::WaitableEvent"* nonnull %109) #14
  store %"class.base::WaitableEvent"* null, %"class.base::WaitableEvent"** %108, align 8
  br label %112

112:                                              ; preds = %107, %111
  %113 = getelementptr inbounds %"class.blink::RTCVideoEncoder::Impl", %"class.blink::RTCVideoEncoder::Impl"* %0, i64 0, i32 4, i32 0, i32 0
  %114 = load %"class.base::WaitableEvent"*, %"class.base::WaitableEvent"** %113, align 8
  %115 = icmp eq %"class.base::WaitableEvent"* %114, null
  br i1 %115, label %117, label %116

116:                                              ; preds = %112
  tail call void @_ZN4base13WaitableEvent6SignalEv(%"class.base::WaitableEvent"* nonnull %114) #14
  store %"class.base::WaitableEvent"* null, %"class.base::WaitableEvent"** %113, align 8
  br label %117

117:                                              ; preds = %112, %116
  ret void
}

; Function Attrs: nounwind ssp uwtable
define hidden void @_ZN5blink15RTCVideoEncoder4ImplD0Ev(%"class.blink::RTCVideoEncoder::Impl"*) unnamed_addr #0 align 2 {
  tail call void @_ZN5blink15RTCVideoEncoder4ImplD2Ev(%"class.blink::RTCVideoEncoder::Impl"* %0) #14
  %2 = bitcast %"class.blink::RTCVideoEncoder::Impl"* %0 to i8*
  tail call void @_ZdlPv(i8* %2) #15
  ret void
}

; Function Attrs: nobuiltin nounwind
declare void @_ZdlPv(i8*) local_unnamed_addr #5

; Function Attrs: nounwind ssp uwtable
define hidden void @_ZN5blink15RTCVideoEncoder4Impl14EncodeOneFrameEv(%"class.blink::RTCVideoEncoder::Impl"*) local_unnamed_addr #0 align 2 {
  %2 = alloca %"class.base::OnceCallback.121", align 8
  %3 = alloca %"class.rtc::scoped_refptr", align 8
  %4 = alloca %"class.rtc::scoped_refptr", align 8
  %5 = alloca %"class.rtc::scoped_refptr", align 8
  %6 = alloca %"class.rtc::scoped_refptr.288", align 8
  %7 = alloca %"class.base::Location", align 8
  %8 = alloca %"class.WTF::String", align 8
  %9 = alloca %"class.rtc::scoped_refptr", align 8
  %10 = alloca %"class.base::Location", align 8
  %11 = alloca %"class.WTF::String", align 8
  %12 = alloca %"class.gfx::Rect", align 4
  %13 = alloca %"class.base::Location", align 8
  %14 = alloca %"class.WTF::String", align 8
  %15 = alloca %"class.rtc::scoped_refptr.288", align 8
  %16 = alloca %"class.rtc::scoped_refptr", align 8
  %17 = alloca %"class.base::Location", align 8
  %18 = alloca %"class.WTF::String", align 8
  %19 = alloca %"class.base::OnceCallback.121", align 8
  %20 = alloca %"class.base::OnceCallback.121", align 8
  %21 = alloca %"class.base::Location", align 8
  %22 = alloca %"class.base::TimeDelta", align 8
  %23 = alloca i32, align 4
  %24 = alloca i64, align 8
  %25 = getelementptr inbounds %"class.blink::RTCVideoEncoder::Impl", %"class.blink::RTCVideoEncoder::Impl"* %0, i64 0, i32 10
  %26 = load %"class.webrtc::VideoFrame"*, %"class.webrtc::VideoFrame"** %25, align 8
  %27 = getelementptr inbounds %"class.blink::RTCVideoEncoder::Impl", %"class.blink::RTCVideoEncoder::Impl"* %0, i64 0, i32 11
  %28 = load i8, i8* %27, align 8, !range !6
  %29 = icmp ne i8 %28, 0
  store %"class.webrtc::VideoFrame"* null, %"class.webrtc::VideoFrame"** %25, align 8
  store i8 0, i8* %27, align 8
  %30 = getelementptr inbounds %"class.blink::RTCVideoEncoder::Impl", %"class.blink::RTCVideoEncoder::Impl"* %0, i64 0, i32 6, i32 0, i32 0, i32 0
  %31 = load %"class.media::VideoEncodeAccelerator"*, %"class.media::VideoEncodeAccelerator"** %30, align 8
  %32 = icmp eq %"class.media::VideoEncodeAccelerator"* %31, null
  br i1 %32, label %33, label %46

33:                                               ; preds = %1
  %34 = getelementptr inbounds %"class.blink::RTCVideoEncoder::Impl", %"class.blink::RTCVideoEncoder::Impl"* %0, i64 0, i32 5
  %35 = getelementptr inbounds %"class.blink::RTCVideoEncoder::Impl", %"class.blink::RTCVideoEncoder::Impl"* %0, i64 0, i32 5, i32 0, i32 1
  %36 = load i32*, i32** %35, align 8
  %37 = icmp eq i32* %36, null
  br i1 %37, label %39, label %38

38:                                               ; preds = %33
  store i32 -1, i32* %36, align 4
  br label %39

39:                                               ; preds = %38, %33
  %40 = getelementptr inbounds %"class.(anonymous namespace)::ScopedSignaledValue", %"class.(anonymous namespace)::ScopedSignaledValue"* %34, i64 0, i32 0, i32 0
  %41 = load %"class.base::WaitableEvent"*, %"class.base::WaitableEvent"** %40, align 8
  %42 = icmp eq %"class.base::WaitableEvent"* %41, null
  br i1 %42, label %44, label %43

43:                                               ; preds = %39
  tail call void @_ZN4base13WaitableEvent6SignalEv(%"class.base::WaitableEvent"* nonnull %41) #14
  store %"class.base::WaitableEvent"* null, %"class.base::WaitableEvent"** %40, align 8
  br label %44

44:                                               ; preds = %39, %43
  %45 = bitcast %"class.(anonymous namespace)::ScopedSignaledValue"* %34 to i8*
  tail call void @llvm.memset.p0i8.i64(i8* align 8 %45, i8 0, i64 16, i1 false) #14
  br label %620

46:                                               ; preds = %1
  %47 = getelementptr inbounds %"class.blink::RTCVideoEncoder::Impl", %"class.blink::RTCVideoEncoder::Impl"* %0, i64 0, i32 18
  %48 = getelementptr inbounds %"class.blink::RTCVideoEncoder::Impl", %"class.blink::RTCVideoEncoder::Impl"* %0, i64 0, i32 18, i32 0, i32 0, i32 2
  %49 = load i32, i32* %48, align 4
  %50 = add i32 %49, -1
  %51 = tail call dereferenceable(4) i32* @_ZN3WTF6VectorIiLj0ENS_18PartitionAllocatorEE2atEj(%"class.WTF::Vector.68"* %47, i32 %50) #14
  %52 = load i32, i32* %51, align 4
  %53 = bitcast %"class.rtc::scoped_refptr"* %3 to i8*
  call void @llvm.lifetime.start.p0i8(i64 8, i8* nonnull %53) #14
  %54 = getelementptr inbounds %"class.rtc::scoped_refptr", %"class.rtc::scoped_refptr"* %3, i64 0, i32 0
  store %"class.webrtc::VideoFrameBuffer"* inttoptr (i64 -6148914691236517206 to %"class.webrtc::VideoFrameBuffer"*), %"class.webrtc::VideoFrameBuffer"** %54, align 8
  call void @_ZNK6webrtc10VideoFrame18video_frame_bufferEv(%"class.rtc::scoped_refptr"* nonnull sret %3, %"class.webrtc::VideoFrame"* %26) #14
  %55 = load %"class.webrtc::VideoFrameBuffer"*, %"class.webrtc::VideoFrameBuffer"** %54, align 8
  %56 = bitcast %"class.webrtc::VideoFrameBuffer"* %55 to i32 (%"class.webrtc::VideoFrameBuffer"*)***
  %57 = load i32 (%"class.webrtc::VideoFrameBuffer"*)**, i32 (%"class.webrtc::VideoFrameBuffer"*)*** %56, align 8
  %58 = getelementptr inbounds i32 (%"class.webrtc::VideoFrameBuffer"*)*, i32 (%"class.webrtc::VideoFrameBuffer"*)** %57, i64 4
  %59 = load i32 (%"class.webrtc::VideoFrameBuffer"*)*, i32 (%"class.webrtc::VideoFrameBuffer"*)** %58, align 8
  %60 = call i32 %59(%"class.webrtc::VideoFrameBuffer"* %55) #14
  %61 = icmp eq i32 %60, 0
  br i1 %61, label %62, label %117

62:                                               ; preds = %46
  %63 = load %"class.webrtc::VideoFrameBuffer"*, %"class.webrtc::VideoFrameBuffer"** %54, align 8
  %64 = bitcast %"class.webrtc::VideoFrameBuffer"* %63 to %"class.blink::WebRtcVideoFrameAdapterInterface"*
  %65 = bitcast %"class.webrtc::VideoFrameBuffer"* %63 to i1 (%"class.blink::WebRtcVideoFrameAdapterInterface"*)***
  %66 = load i1 (%"class.blink::WebRtcVideoFrameAdapterInterface"*)**, i1 (%"class.blink::WebRtcVideoFrameAdapterInterface"*)*** %65, align 8
  %67 = getelementptr inbounds i1 (%"class.blink::WebRtcVideoFrameAdapterInterface"*)*, i1 (%"class.blink::WebRtcVideoFrameAdapterInterface"*)** %66, i64 11
  %68 = load i1 (%"class.blink::WebRtcVideoFrameAdapterInterface"*)*, i1 (%"class.blink::WebRtcVideoFrameAdapterInterface"*)** %67, align 8
  %69 = call zeroext i1 %68(%"class.blink::WebRtcVideoFrameAdapterInterface"* %64) #14
  %70 = bitcast %"class.webrtc::VideoFrameBuffer"* %63 to %"class.media::VideoFrame"* (%"class.blink::WebRtcVideoFrameAdapterInterface"*)***
  %71 = load %"class.media::VideoFrame"* (%"class.blink::WebRtcVideoFrameAdapterInterface"*)**, %"class.media::VideoFrame"* (%"class.blink::WebRtcVideoFrameAdapterInterface"*)*** %70, align 8
  %72 = getelementptr inbounds %"class.media::VideoFrame"* (%"class.blink::WebRtcVideoFrameAdapterInterface"*)*, %"class.media::VideoFrame"* (%"class.blink::WebRtcVideoFrameAdapterInterface"*)** %71, i64 12
  %73 = load %"class.media::VideoFrame"* (%"class.blink::WebRtcVideoFrameAdapterInterface"*)*, %"class.media::VideoFrame"* (%"class.blink::WebRtcVideoFrameAdapterInterface"*)** %72, align 8
  %74 = call %"class.media::VideoFrame"* %73(%"class.blink::WebRtcVideoFrameAdapterInterface"* %64) #14
  %75 = ptrtoint %"class.media::VideoFrame"* %74 to i64
  %76 = getelementptr inbounds %"class.media::VideoFrame", %"class.media::VideoFrame"* %74, i64 0, i32 4
  %77 = load i32, i32* %76, align 8
  %78 = getelementptr inbounds %"class.media::VideoFrame", %"class.media::VideoFrame"* %74, i64 0, i32 2, i32 1, i32 0
  %79 = load i32, i32* %78, align 4
  %80 = getelementptr inbounds %"class.blink::RTCVideoEncoder::Impl", %"class.blink::RTCVideoEncoder::Impl"* %0, i64 0, i32 13, i32 0
  %81 = load i32, i32* %80, align 4
  %82 = icmp eq i32 %79, %81
  br i1 %82, label %83, label %112

83:                                               ; preds = %62
  %84 = getelementptr inbounds %"class.media::VideoFrame", %"class.media::VideoFrame"* %74, i64 0, i32 2, i32 1, i32 1
  %85 = load i32, i32* %84, align 4
  %86 = getelementptr inbounds %"class.blink::RTCVideoEncoder::Impl", %"class.blink::RTCVideoEncoder::Impl"* %0, i64 0, i32 13, i32 1
  %87 = load i32, i32* %86, align 4
  %88 = icmp eq i32 %85, %87
  br i1 %88, label %89, label %112

89:                                               ; preds = %83
  %90 = getelementptr inbounds %"class.blink::RTCVideoEncoder::Impl", %"class.blink::RTCVideoEncoder::Impl"* %0, i64 0, i32 14
  %91 = bitcast %"class.gfx::Size"* %90 to i64*
  %92 = load i64, i64* %91, align 4
  %93 = getelementptr inbounds %"class.media::VideoFrame", %"class.media::VideoFrame"* %74, i64 0, i32 5, i32 0, i32 0
  %94 = load i32, i32* %93, align 4
  %95 = icmp eq i32 %94, 0
  br i1 %95, label %96, label %112

96:                                               ; preds = %89
  %97 = getelementptr inbounds %"class.media::VideoFrame", %"class.media::VideoFrame"* %74, i64 0, i32 5, i32 0, i32 1
  %98 = load i32, i32* %97, align 4
  %99 = icmp eq i32 %98, 0
  br i1 %99, label %100, label %112

100:                                              ; preds = %96
  %101 = getelementptr inbounds %"class.media::VideoFrame", %"class.media::VideoFrame"* %74, i64 0, i32 5, i32 1, i32 0
  %102 = load i32, i32* %101, align 4
  %103 = trunc i64 %92 to i32
  %104 = icmp eq i32 %102, %103
  br i1 %104, label %105, label %112

105:                                              ; preds = %100
  %106 = getelementptr inbounds %"class.media::VideoFrame", %"class.media::VideoFrame"* %74, i64 0, i32 5, i32 1, i32 1
  %107 = load i32, i32* %106, align 4
  %108 = lshr i64 %92, 32
  %109 = trunc i64 %108 to i32
  %110 = icmp eq i32 %107, %109
  br i1 %110, label %111, label %112

111:                                              ; preds = %105
  switch i32 %77, label %112 [
    i32 7, label %523
    i32 4, label %523
  ]

112:                                              ; preds = %105, %111, %62, %89, %100, %96, %83
  %113 = icmp eq %"class.media::VideoFrame"* %74, null
  br i1 %113, label %117, label %114

114:                                              ; preds = %112
  %115 = getelementptr inbounds %"class.media::VideoFrame", %"class.media::VideoFrame"* %74, i64 0, i32 16, i32 0
  %116 = load i64, i64* %115, align 8
  br i1 %69, label %128, label %318

117:                                              ; preds = %112, %46
  %118 = phi i64 [ %75, %112 ], [ 0, %46 ]
