; ModuleID = 'gen/third_party/blink/renderer/modules/peerconnection/rtc_error_event_init.cc'
source_filename = "gen/third_party/blink/renderer/modules/peerconnection/rtc_error_event_init.cc"
target datalayout = "e-m:e-i64:64-f80:128-n8:16:32:64-S128"
target triple = "x86_64-unknown-linux-gnu"

module asm ".symver exp, exp@GLIBC_2.2.5"
module asm ".symver exp2, exp2@GLIBC_2.2.5"
module asm ".symver exp2f, exp2f@GLIBC_2.2.5"
module asm ".symver expf, expf@GLIBC_2.2.5"
module asm ".symver lgamma, lgamma@GLIBC_2.2.5"
module asm ".symver lgammaf, lgammaf@GLIBC_2.2.5"
module asm ".symver lgammal, lgammal@GLIBC_2.2.5"
module asm ".symver log, log@GLIBC_2.2.5"
module asm ".symver log2, log2@GLIBC_2.2.5"
module asm ".symver log2f, log2f@GLIBC_2.2.5"
module asm ".symver logf, logf@GLIBC_2.2.5"
module asm ".symver pow, pow@GLIBC_2.2.5"
module asm ".symver powf, powf@GLIBC_2.2.5"

%"class.blink::RTCErrorEventInit" = type { %"class.blink::EventInit.base", %"class.blink::Member" }
%"class.blink::EventInit.base" = type <{ %"class.blink::IDLDictionaryBase", i8, i8, i8, i8, i8, i8 }>
%"class.blink::IDLDictionaryBase" = type { i32 (...)** }
%"class.blink::Member" = type { %"class.blink::MemberBase" }
%"class.blink::MemberBase" = type { %"class.blink::RTCError"* }
%"class.blink::RTCError" = type { %"class.blink::DOMException", %"class.WTF::String", %"class.absl::optional", %"class.absl::optional", %"class.absl::optional", %"class.absl::optional.3", %"class.absl::optional.3" }
%"class.blink::DOMException" = type { %"class.blink::ScriptWrappable", i16, %"class.WTF::String", %"class.WTF::String", %"class.WTF::String" }
%"class.blink::ScriptWrappable" = type { %"class.blink::NameClient", %"class.blink::TraceWrapperV8Reference" }
%"class.blink::NameClient" = type { i32 (...)** }
%"class.blink::TraceWrapperV8Reference" = type { %"class.v8::TracedReference" }
%"class.v8::TracedReference" = type { %"class.v8::BasicTracedReference" }
%"class.v8::BasicTracedReference" = type { %"class.v8::TracedReferenceBase" }
%"class.v8::TracedReferenceBase" = type { i64* }
%"class.WTF::String" = type { %class.scoped_refptr }
%class.scoped_refptr = type { %"class.WTF::StringImpl"* }
%"class.WTF::StringImpl" = type { i32, i32, %"struct.std::__1::atomic" }
%"struct.std::__1::atomic" = type { %"struct.std::__1::__atomic_base" }
%"struct.std::__1::__atomic_base" = type { %"struct.std::__1::__atomic_base.2" }
%"struct.std::__1::__atomic_base.2" = type { %"struct.std::__1::__cxx_atomic_impl" }
%"struct.std::__1::__cxx_atomic_impl" = type { %"struct.std::__1::__cxx_atomic_base_impl" }
%"struct.std::__1::__cxx_atomic_base_impl" = type { i32 }
%"class.absl::optional" = type { %"class.absl::optional_internal::optional_data" }
%"class.absl::optional_internal::optional_data" = type { %"class.absl::optional_internal::optional_data_base" }
%"class.absl::optional_internal::optional_data_base" = type { %"class.absl::optional_internal::optional_data_dtor_base" }
%"class.absl::optional_internal::optional_data_dtor_base" = type { i8, %union.anon }
%union.anon = type { i32 }
%"class.absl::optional.3" = type { %"class.absl::optional_internal::optional_data.4" }
%"class.absl::optional_internal::optional_data.4" = type { %"class.absl::optional_internal::optional_data_base.5" }
%"class.absl::optional_internal::optional_data_base.5" = type { %"class.absl::optional_internal::optional_data_dtor_base.6" }
%"class.absl::optional_internal::optional_data_dtor_base.6" = type { i8, %union.anon.7 }
%union.anon.7 = type { i32 }
%"class.blink::EventInit" = type <{ %"class.blink::IDLDictionaryBase", i8, i8, i8, i8, i8, i8, [2 x i8] }>
%"class.blink::Visitor" = type { i32 (...)**, %"class.blink::ThreadState"* }
%"class.blink::ThreadState" = type <{ %"class.std::__1::unique_ptr", i32, [4 x i8], %"class.std::__1::unique_ptr.134", %"class.std::__1::unique_ptr.134", i8**, i8, i8, i8, i8, i8, i8, [2 x i8], i64, i64, i32, i32, i32, [4 x i8], %"class.WTF::Deque", %"class.v8::Isolate"*, void (%"class.v8::Isolate"*, %"class.v8::EmbedderGraph"*, i8*)*, %"class.std::__1::unique_ptr.144", %"class.std::__1::unique_ptr.150", %"struct.blink::ThreadState::GCData", %"class.std::__1::unique_ptr.162", %"class.std::__1::unique_ptr.168", %"class.base::JobHandle", %"class.base::JobHandle", %"struct.std::__1::atomic.175", [7 x i8], i64, i8, [7 x i8], i64, %"class.base::TimeTicks", i8, i8, [6 x i8] }>
%"class.std::__1::unique_ptr" = type { %"class.std::__1::__compressed_pair" }
%"class.std::__1::__compressed_pair" = type { %"struct.std::__1::__compressed_pair_elem" }
%"struct.std::__1::__compressed_pair_elem" = type { %"class.blink::ThreadHeap"* }
%"class.blink::ThreadHeap" = type { %"class.blink::ThreadState"*, %"class.std::__1::unique_ptr.8", %"class.std::__1::unique_ptr.12", %"class.std::__1::unique_ptr.18", %"class.std::__1::unique_ptr.24", %"class.std::__1::unique_ptr.30", %"class.std::__1::unique_ptr.36", %"class.std::__1::unique_ptr.47", %"class.std::__1::unique_ptr.54", %"class.std::__1::unique_ptr.54", %"class.std::__1::unique_ptr.61", %"class.std::__1::unique_ptr.68", %"class.std::__1::unique_ptr.75", %"class.std::__1::unique_ptr.75", %"class.std::__1::unique_ptr.82", %"class.std::__1::unique_ptr.89", %"class.std::__1::unique_ptr.96", %"class.std::__1::unique_ptr.119", %"struct.blink::ThreadHeap::LastAllocatedRegion", [9 x %"class.blink::BaseArena"*], i64, i64 }
%"class.std::__1::unique_ptr.8" = type { %"class.std::__1::__compressed_pair.9" }
%"class.std::__1::__compressed_pair.9" = type { %"struct.std::__1::__compressed_pair_elem.10" }
%"struct.std::__1::__compressed_pair_elem.10" = type { %"class.blink::ThreadHeapStatsCollector"* }
%"class.blink::ThreadHeapStatsCollector" = type opaque
%"class.std::__1::unique_ptr.12" = type { %"class.std::__1::__compressed_pair.13" }
%"class.std::__1::__compressed_pair.13" = type { %"struct.std::__1::__compressed_pair_elem.14" }
%"struct.std::__1::__compressed_pair_elem.14" = type { %"class.blink::RegionTree"* }
%"class.blink::RegionTree" = type opaque
%"class.std::__1::unique_ptr.18" = type { %"class.std::__1::__compressed_pair.19" }
%"class.std::__1::__compressed_pair.19" = type { %"struct.std::__1::__compressed_pair_elem.20" }
%"struct.std::__1::__compressed_pair_elem.20" = type { %"class.blink::PageBloomFilter"* }
%"class.blink::PageBloomFilter" = type opaque
%"class.std::__1::unique_ptr.24" = type { %"class.std::__1::__compressed_pair.25" }
%"class.std::__1::__compressed_pair.25" = type { %"struct.std::__1::__compressed_pair_elem.26" }
%"struct.std::__1::__compressed_pair_elem.26" = type { %"class.blink::PagePool"* }
%"class.blink::PagePool" = type opaque
%"class.std::__1::unique_ptr.30" = type { %"class.std::__1::__compressed_pair.31" }
%"class.std::__1::__compressed_pair.31" = type { %"struct.std::__1::__compressed_pair_elem.32" }
%"struct.std::__1::__compressed_pair_elem.32" = type { %"class.blink::ProcessHeapReporter"* }
%"class.blink::ProcessHeapReporter" = type opaque
%"class.std::__1::unique_ptr.36" = type { %"class.std::__1::__compressed_pair.37" }
%"class.std::__1::__compressed_pair.37" = type { %"struct.std::__1::__compressed_pair_elem.38" }
%"struct.std::__1::__compressed_pair_elem.38" = type { %"class.blink::Worklist"* }
%"class.blink::Worklist" = type { [4 x %"struct.blink::Worklist<blink::TraceDescriptor, 512, 4>::PrivateSegmentHolder"], %"class.blink::Worklist<blink::TraceDescriptor, 512, 4>::GlobalPool" }
%"struct.blink::Worklist<blink::TraceDescriptor, 512, 4>::PrivateSegmentHolder" = type { %"class.blink::Worklist<blink::TraceDescriptor, 512, 4>::Segment"*, %"class.blink::Worklist<blink::TraceDescriptor, 512, 4>::Segment"*, [64 x i8] }
%"class.blink::Worklist<blink::TraceDescriptor, 512, 4>::Segment" = type { %"class.blink::Worklist<blink::TraceDescriptor, 512, 4>::Segment"*, i64, [512 x %"struct.blink::TraceDescriptor"] }
%"struct.blink::TraceDescriptor" = type { i8*, void (%"class.blink::Visitor"*, i8*)* }
%"class.blink::Worklist<blink::TraceDescriptor, 512, 4>::GlobalPool" = type { %"class.base::Lock", %"class.blink::Worklist<blink::TraceDescriptor, 512, 4>::Segment"*, %"struct.std::__1::atomic.39" }
%"class.base::Lock" = type { %"class.base::internal::LockImpl" }
%"class.base::internal::LockImpl" = type { %union.pthread_mutex_t }
%union.pthread_mutex_t = type { %struct.__pthread_mutex_s }
%struct.__pthread_mutex_s = type { i32, i32, i32, i32, i32, i16, i16, %struct.__pthread_internal_list }
%struct.__pthread_internal_list = type { %struct.__pthread_internal_list*, %struct.__pthread_internal_list* }
%"struct.std::__1::atomic.39" = type { %"struct.std::__1::__atomic_base.40" }
%"struct.std::__1::__atomic_base.40" = type { %"struct.std::__1::__atomic_base.41" }
%"struct.std::__1::__atomic_base.41" = type { %"struct.std::__1::__cxx_atomic_impl.42" }
%"struct.std::__1::__cxx_atomic_impl.42" = type { %"struct.std::__1::__cxx_atomic_base_impl.43" }
%"struct.std::__1::__cxx_atomic_base_impl.43" = type { i64 }
%"class.std::__1::unique_ptr.47" = type { %"class.std::__1::__compressed_pair.48" }
%"class.std::__1::__compressed_pair.48" = type { %"struct.std::__1::__compressed_pair_elem.49" }
%"struct.std::__1::__compressed_pair_elem.49" = type { %"class.blink::Worklist.50"* }
%"class.blink::Worklist.50" = type { [4 x %"struct.blink::Worklist<blink::HeapObjectHeader *, 64, 4>::PrivateSegmentHolder"], %"class.blink::Worklist<blink::HeapObjectHeader *, 64, 4>::GlobalPool" }
%"struct.blink::Worklist<blink::HeapObjectHeader *, 64, 4>::PrivateSegmentHolder" = type { %"class.blink::Worklist<blink::HeapObjectHeader *, 64, 4>::Segment"*, %"class.blink::Worklist<blink::HeapObjectHeader *, 64, 4>::Segment"*, [64 x i8] }
%"class.blink::Worklist<blink::HeapObjectHeader *, 64, 4>::Segment" = type opaque
%"class.blink::Worklist<blink::HeapObjectHeader *, 64, 4>::GlobalPool" = type { %"class.base::Lock", %"class.blink::Worklist<blink::HeapObjectHeader *, 64, 4>::Segment"*, %"struct.std::__1::atomic.39" }
%"class.std::__1::unique_ptr.54" = type { %"class.std::__1::__compressed_pair.55" }
%"class.std::__1::__compressed_pair.55" = type { %"struct.std::__1::__compressed_pair_elem.56" }
%"struct.std::__1::__compressed_pair_elem.56" = type { %"class.blink::Worklist.57"* }
%"class.blink::Worklist.57" = type { [4 x %"struct.blink::Worklist<const void *, 16, 4>::PrivateSegmentHolder"], %"class.blink::Worklist<const void *, 16, 4>::GlobalPool" }
%"struct.blink::Worklist<const void *, 16, 4>::PrivateSegmentHolder" = type { %"class.blink::Worklist<const void *, 16, 4>::Segment"*, %"class.blink::Worklist<const void *, 16, 4>::Segment"*, [64 x i8] }
%"class.blink::Worklist<const void *, 16, 4>::Segment" = type { %"class.blink::Worklist<const void *, 16, 4>::Segment"*, i64, [16 x i8*] }
%"class.blink::Worklist<const void *, 16, 4>::GlobalPool" = type { %"class.base::Lock", %"class.blink::Worklist<const void *, 16, 4>::Segment"*, %"struct.std::__1::atomic.39" }
%"class.std::__1::unique_ptr.61" = type { %"class.std::__1::__compressed_pair.62" }
%"class.std::__1::__compressed_pair.62" = type { %"struct.std::__1::__compressed_pair_elem.63" }
%"struct.std::__1::__compressed_pair_elem.63" = type { %"class.blink::Worklist.64"* }
%"class.blink::Worklist.64" = type { [4 x %"struct.blink::Worklist<blink::CustomCallbackItem, 64, 4>::PrivateSegmentHolder"], %"class.blink::Worklist<blink::CustomCallbackItem, 64, 4>::GlobalPool" }
%"struct.blink::Worklist<blink::CustomCallbackItem, 64, 4>::PrivateSegmentHolder" = type { %"class.blink::Worklist<blink::CustomCallbackItem, 64, 4>::Segment"*, %"class.blink::Worklist<blink::CustomCallbackItem, 64, 4>::Segment"*, [64 x i8] }
%"class.blink::Worklist<blink::CustomCallbackItem, 64, 4>::Segment" = type opaque
%"class.blink::Worklist<blink::CustomCallbackItem, 64, 4>::GlobalPool" = type { %"class.base::Lock", %"class.blink::Worklist<blink::CustomCallbackItem, 64, 4>::Segment"*, %"struct.std::__1::atomic.39" }
%"class.std::__1::unique_ptr.68" = type { %"class.std::__1::__compressed_pair.69" }
%"class.std::__1::__compressed_pair.69" = type { %"struct.std::__1::__compressed_pair_elem.70" }
%"struct.std::__1::__compressed_pair_elem.70" = type { %"class.blink::Worklist.71"* }
%"class.blink::Worklist.71" = type { [4 x %"struct.blink::Worklist<const void *const *, 256, 4>::PrivateSegmentHolder"], %"class.blink::Worklist<const void *const *, 256, 4>::GlobalPool" }
%"struct.blink::Worklist<const void *const *, 256, 4>::PrivateSegmentHolder" = type { %"class.blink::Worklist<const void *const *, 256, 4>::Segment"*, %"class.blink::Worklist<const void *const *, 256, 4>::Segment"*, [64 x i8] }
%"class.blink::Worklist<const void *const *, 256, 4>::Segment" = type opaque
%"class.blink::Worklist<const void *const *, 256, 4>::GlobalPool" = type { %"class.base::Lock", %"class.blink::Worklist<const void *const *, 256, 4>::Segment"*, %"struct.std::__1::atomic.39" }
%"class.std::__1::unique_ptr.75" = type { %"class.std::__1::__compressed_pair.76" }
%"class.std::__1::__compressed_pair.76" = type { %"struct.std::__1::__compressed_pair_elem.77" }
%"struct.std::__1::__compressed_pair_elem.77" = type { %"class.blink::Worklist.78"* }
%"class.blink::Worklist.78" = type { [4 x %"struct.blink::Worklist<blink::EphemeronPairItem, 64, 4>::PrivateSegmentHolder"], %"class.blink::Worklist<blink::EphemeronPairItem, 64, 4>::GlobalPool" }
%"struct.blink::Worklist<blink::EphemeronPairItem, 64, 4>::PrivateSegmentHolder" = type { %"class.blink::Worklist<blink::EphemeronPairItem, 64, 4>::Segment"*, %"class.blink::Worklist<blink::EphemeronPairItem, 64, 4>::Segment"*, [64 x i8] }
%"class.blink::Worklist<blink::EphemeronPairItem, 64, 4>::Segment" = type opaque
%"class.blink::Worklist<blink::EphemeronPairItem, 64, 4>::GlobalPool" = type { %"class.base::Lock", %"class.blink::Worklist<blink::EphemeronPairItem, 64, 4>::Segment"*, %"struct.std::__1::atomic.39" }
%"class.std::__1::unique_ptr.82" = type { %"class.std::__1::__compressed_pair.83" }
%"class.std::__1::__compressed_pair.83" = type { %"struct.std::__1::__compressed_pair_elem.84" }
%"struct.std::__1::__compressed_pair_elem.84" = type { %"class.blink::Worklist.85"* }
%"class.blink::Worklist.85" = type { [4 x %"struct.blink::Worklist<const blink::TraceWrapperV8Reference<v8::Value> *, 16, 4>::PrivateSegmentHolder"], %"class.blink::Worklist<const blink::TraceWrapperV8Reference<v8::Value> *, 16, 4>::GlobalPool" }
%"struct.blink::Worklist<const blink::TraceWrapperV8Reference<v8::Value> *, 16, 4>::PrivateSegmentHolder" = type { %"class.blink::Worklist<const blink::TraceWrapperV8Reference<v8::Value> *, 16, 4>::Segment"*, %"class.blink::Worklist<const blink::TraceWrapperV8Reference<v8::Value> *, 16, 4>::Segment"*, [64 x i8] }
%"class.blink::Worklist<const blink::TraceWrapperV8Reference<v8::Value> *, 16, 4>::Segment" = type opaque
%"class.blink::Worklist<const blink::TraceWrapperV8Reference<v8::Value> *, 16, 4>::GlobalPool" = type { %"class.base::Lock", %"class.blink::Worklist<const blink::TraceWrapperV8Reference<v8::Value> *, 16, 4>::Segment"*, %"struct.std::__1::atomic.39" }
%"class.std::__1::unique_ptr.89" = type { %"class.std::__1::__compressed_pair.90" }
%"class.std::__1::__compressed_pair.90" = type { %"struct.std::__1::__compressed_pair_elem.91" }
%"struct.std::__1::__compressed_pair_elem.91" = type { %"class.blink::Worklist.92"* }
%"class.blink::Worklist.92" = type { [4 x %"struct.blink::Worklist<blink::NotSafeToConcurrentlyTraceItem, 64, 4>::PrivateSegmentHolder"], %"class.blink::Worklist<blink::NotSafeToConcurrentlyTraceItem, 64, 4>::GlobalPool" }
%"struct.blink::Worklist<blink::NotSafeToConcurrentlyTraceItem, 64, 4>::PrivateSegmentHolder" = type { %"class.blink::Worklist<blink::NotSafeToConcurrentlyTraceItem, 64, 4>::Segment"*, %"class.blink::Worklist<blink::NotSafeToConcurrentlyTraceItem, 64, 4>::Segment"*, [64 x i8] }
%"class.blink::Worklist<blink::NotSafeToConcurrentlyTraceItem, 64, 4>::Segment" = type { %"class.blink::Worklist<blink::NotSafeToConcurrentlyTraceItem, 64, 4>::Segment"*, i64, [64 x %"struct.blink::NotSafeToConcurrentlyTraceItem"] }
%"struct.blink::NotSafeToConcurrentlyTraceItem" = type { %"struct.blink::TraceDescriptor", i64 }
%"class.blink::Worklist<blink::NotSafeToConcurrentlyTraceItem, 64, 4>::GlobalPool" = type { %"class.base::Lock", %"class.blink::Worklist<blink::NotSafeToConcurrentlyTraceItem, 64, 4>::Segment"*, %"struct.std::__1::atomic.39" }
%"class.std::__1::unique_ptr.96" = type { %"class.std::__1::__compressed_pair.97" }
%"class.std::__1::__compressed_pair.97" = type { %"struct.std::__1::__compressed_pair_elem.98" }
%"struct.std::__1::__compressed_pair_elem.98" = type { %"class.blink::WeakContainersWorklist"* }
%"class.blink::WeakContainersWorklist" = type { %"class.WTF::Mutex", %"class.std::__1::unordered_set" }
%"class.WTF::Mutex" = type { %"class.WTF::MutexBase" }
%"class.WTF::MutexBase" = type { %"struct.WTF::PlatformMutex" }
%"struct.WTF::PlatformMutex" = type { %union.pthread_mutex_t }
%"class.std::__1::unordered_set" = type { %"class.std::__1::__hash_table" }
%"class.std::__1::__hash_table" = type <{ %"class.std::__1::unique_ptr.99", %"class.std::__1::__compressed_pair.106", %"class.std::__1::__compressed_pair.111", %"class.std::__1::__compressed_pair.113", [4 x i8] }>
%"class.std::__1::unique_ptr.99" = type { %"class.std::__1::__compressed_pair.100" }
%"class.std::__1::__compressed_pair.100" = type { %"struct.std::__1::__compressed_pair_elem.101", %"struct.std::__1::__compressed_pair_elem.102" }
%"struct.std::__1::__compressed_pair_elem.101" = type { %"struct.std::__1::__hash_node_base"** }
%"struct.std::__1::__hash_node_base" = type { %"struct.std::__1::__hash_node_base"* }
%"struct.std::__1::__compressed_pair_elem.102" = type { %"class.std::__1::__bucket_list_deallocator" }
%"class.std::__1::__bucket_list_deallocator" = type { %"class.std::__1::__compressed_pair.103" }
%"class.std::__1::__compressed_pair.103" = type { %"struct.std::__1::__compressed_pair_elem.104" }
%"struct.std::__1::__compressed_pair_elem.104" = type { i64 }
%"class.std::__1::__compressed_pair.106" = type { %"struct.std::__1::__compressed_pair_elem.107" }
%"struct.std::__1::__compressed_pair_elem.107" = type { %"struct.std::__1::__hash_node_base" }
%"class.std::__1::__compressed_pair.111" = type { %"struct.std::__1::__compressed_pair_elem.104" }
%"class.std::__1::__compressed_pair.113" = type { %"struct.std::__1::__compressed_pair_elem.114" }
%"struct.std::__1::__compressed_pair_elem.114" = type { float }
%"class.std::__1::unique_ptr.119" = type { %"class.std::__1::__compressed_pair.120" }
%"class.std::__1::__compressed_pair.120" = type { %"struct.std::__1::__compressed_pair_elem.121" }
%"struct.std::__1::__compressed_pair_elem.121" = type { %"class.blink::HeapCompact"* }
%"class.blink::HeapCompact" = type <{ %"class.blink::ThreadHeap"*, %"class.std::__1::unique_ptr.122", i8, [7 x i8], i64, i64, i32, [4 x i8], i64, i8, [7 x i8] }>
%"class.std::__1::unique_ptr.122" = type { %"class.std::__1::__compressed_pair.123" }
%"class.std::__1::__compressed_pair.123" = type { %"struct.std::__1::__compressed_pair_elem.124" }
%"struct.std::__1::__compressed_pair_elem.124" = type { %"class.blink::HeapCompact::MovableObjectFixups"* }
%"class.blink::HeapCompact::MovableObjectFixups" = type opaque
%"struct.blink::ThreadHeap::LastAllocatedRegion" = type { i8*, i64 }
%"class.blink::BaseArena" = type <{ i32 (...)**, %"class.blink::PageStackThreadSafe", %"class.blink::PageStackThreadSafe", %"class.blink::PageStackThreadSafe", %"class.blink::PageStackThreadSafe", %"class.blink::ThreadState"*, i32, [4 x i8] }>
%"class.blink::PageStackThreadSafe" = type { %"class.blink::PageStack", %"class.WTF::Mutex" }
%"class.blink::PageStack" = type { %"class.WTF::Vector" }
%"class.WTF::Vector" = type { %"class.WTF::VectorBuffer" }
%"class.WTF::VectorBuffer" = type { %"class.WTF::VectorBufferBase" }
%"class.WTF::VectorBufferBase" = type { %"class.blink::BasePage"**, i32, i32 }
%"class.blink::BasePage" = type <{ i32 (...)**, %"class.blink::PageMemory"*, %"class.blink::BaseArena"*, %"class.blink::ThreadState"*, i64, i8, i8, i8, [5 x i8] }>
%"class.blink::PageMemory" = type opaque
%"class.std::__1::unique_ptr.134" = type { %"class.std::__1::__compressed_pair.135" }
%"class.std::__1::__compressed_pair.135" = type { %"struct.std::__1::__compressed_pair_elem.136" }
%"struct.std::__1::__compressed_pair_elem.136" = type { %"class.blink::PersistentRegion"* }
%"class.blink::PersistentRegion" = type { %"class.blink::PersistentRegionBase" }
%"class.blink::PersistentRegionBase" = type { %"class.blink::PersistentNode"*, %"struct.blink::PersistentNodeSlots"* }
%"class.blink::PersistentNode" = type { i8*, void (%"class.blink::Visitor"*, i8*)* }
%"struct.blink::PersistentNodeSlots" = type { %"struct.blink::PersistentNodeSlots"*, [256 x %"class.blink::PersistentNode"] }
%"class.WTF::Deque" = type { %"class.WTF::Deque<std::__1::pair<void *, bool (*)(const blink::LivenessBroker &, void *)>, 0, WTF::PartitionAllocator>::BackingBuffer", i32, i32 }
%"class.WTF::Deque<std::__1::pair<void *, bool (*)(const blink::LivenessBroker &, void *)>, 0, WTF::PartitionAllocator>::BackingBuffer" = type { %"class.WTF::VectorBuffer.142" }
%"class.WTF::VectorBuffer.142" = type { %"class.WTF::VectorBufferBase.143" }
%"class.WTF::VectorBufferBase.143" = type { %"struct.std::__1::pair"*, i32, i32 }
%"struct.std::__1::pair" = type { i8*, i1 (%"class.blink::LivenessBroker"*, i8*)* }
%"class.blink::LivenessBroker" = type { i8 }
%"class.v8::Isolate" = type { i8 }
%"class.v8::EmbedderGraph" = type opaque
%"class.std::__1::unique_ptr.144" = type { %"class.std::__1::__compressed_pair.145" }
%"class.std::__1::__compressed_pair.145" = type { %"struct.std::__1::__compressed_pair_elem.146" }
%"struct.std::__1::__compressed_pair_elem.146" = type { %"class.blink::UnifiedHeapController"* }
%"class.blink::UnifiedHeapController" = type opaque
%"class.std::__1::unique_ptr.150" = type { %"class.std::__1::__compressed_pair.151" }
%"class.std::__1::__compressed_pair.151" = type { %"struct.std::__1::__compressed_pair_elem.152" }
%"struct.std::__1::__compressed_pair_elem.152" = type { %"class.v8::EmbedderRootsHandler"* }
%"class.v8::EmbedderRootsHandler" = type { i32 (...)** }
%"struct.blink::ThreadState::GCData" = type { i32, i32, i32, i32, %"class.std::__1::unique_ptr.156" }
%"class.std::__1::unique_ptr.156" = type { %"class.std::__1::__compressed_pair.157" }
%"class.std::__1::__compressed_pair.157" = type { %"struct.std::__1::__compressed_pair_elem.158" }
%"struct.std::__1::__compressed_pair_elem.158" = type { %"class.blink::MarkingVisitor"* }
%"class.blink::MarkingVisitor" = type { %"class.blink::MarkingVisitorBase", %"class.blink::MarkingVisitor::RecentlyRetracedWeakContainers" }
%"class.blink::MarkingVisitorBase" = type { %"class.blink::Visitor", %"class.blink::Worklist<blink::TraceDescriptor, 512, 4>::View", %"class.blink::Worklist<blink::HeapObjectHeader *, 64, 4>::View", %"class.blink::Worklist<const void *, 16, 4>::View", %"class.blink::Worklist<blink::CustomCallbackItem, 64, 4>::View", %"class.blink::Worklist<const void *const *, 256, 4>::View", %"class.blink::Worklist<blink::EphemeronPairItem, 64, 4>::View", %"class.blink::Worklist<blink::EphemeronPairItem, 64, 4>::View", %"class.blink::WeakContainersWorklist"*, i64, i32, i32 }
%"class.blink::Worklist<blink::TraceDescriptor, 512, 4>::View" = type <{ %"class.blink::Worklist"*, i32, [4 x i8] }>
%"class.blink::Worklist<blink::HeapObjectHeader *, 64, 4>::View" = type <{ %"class.blink::Worklist.50"*, i32, [4 x i8] }>
%"class.blink::Worklist<const void *, 16, 4>::View" = type <{ %"class.blink::Worklist.57"*, i32, [4 x i8] }>
%"class.blink::Worklist<blink::CustomCallbackItem, 64, 4>::View" = type <{ %"class.blink::Worklist.64"*, i32, [4 x i8] }>
%"class.blink::Worklist<const void *const *, 256, 4>::View" = type <{ %"class.blink::Worklist.71"*, i32, [4 x i8] }>
%"class.blink::Worklist<blink::EphemeronPairItem, 64, 4>::View" = type <{ %"class.blink::Worklist.78"*, i32, [4 x i8] }>
%"class.blink::MarkingVisitor::RecentlyRetracedWeakContainers" = type { %"class.std::__1::vector", i64 }
%"class.std::__1::vector" = type { %"class.std::__1::__vector_base" }
%"class.std::__1::__vector_base" = type { %"class.blink::HeapObjectHeader"**, %"class.blink::HeapObjectHeader"**, %"class.std::__1::__compressed_pair.179" }
%"class.blink::HeapObjectHeader" = type { i32, i16, i16 }
%"class.std::__1::__compressed_pair.179" = type { %"struct.std::__1::__compressed_pair_elem.180" }
%"struct.std::__1::__compressed_pair_elem.180" = type { %"class.blink::HeapObjectHeader"** }
%"class.std::__1::unique_ptr.162" = type { %"class.std::__1::__compressed_pair.163" }
%"class.std::__1::__compressed_pair.163" = type { %"struct.std::__1::__compressed_pair_elem.164" }
%"struct.std::__1::__compressed_pair_elem.164" = type { %"class.blink::ThreadState::IncrementalMarkingScheduler"* }
%"class.blink::ThreadState::IncrementalMarkingScheduler" = type opaque
%"class.std::__1::unique_ptr.168" = type { %"class.std::__1::__compressed_pair.169" }
%"class.std::__1::__compressed_pair.169" = type { %"struct.std::__1::__compressed_pair_elem.170" }
%"struct.std::__1::__compressed_pair_elem.170" = type { %"class.blink::MarkingSchedulingOracle"* }
%"class.blink::MarkingSchedulingOracle" = type opaque
%"class.base::JobHandle" = type { %class.scoped_refptr.174 }
%class.scoped_refptr.174 = type { %"class.base::internal::JobTaskSource"* }
%"class.base::internal::JobTaskSource" = type opaque
%"struct.std::__1::atomic.175" = type { %"struct.std::__1::__atomic_base.176" }
%"struct.std::__1::__atomic_base.176" = type { %"struct.std::__1::__cxx_atomic_impl.177" }
%"struct.std::__1::__cxx_atomic_impl.177" = type { %"struct.std::__1::__cxx_atomic_base_impl.178" }
%"struct.std::__1::__cxx_atomic_base_impl.178" = type { i8 }
%"class.base::TimeTicks" = type { %"class.base::time_internal::TimeBase" }
%"class.base::time_internal::TimeBase" = type { i64 }
%"class.v8::Value" = type { i8 }
%"class.v8::Object" = type { i8 }

$_ZN5blink10TraceTraitINS_8RTCErrorEE5TraceEPNS_7VisitorEPKv = comdat any

@_ZTVN5blink17RTCErrorEventInitE = hidden unnamed_addr constant { [6 x i8*] } { [6 x i8*] [i8* null, i8* null, i8* bitcast (void (%"class.blink::RTCErrorEventInit"*)* @_ZN5blink17RTCErrorEventInitD2Ev to i8*), i8* bitcast (void (%"class.blink::RTCErrorEventInit"*)* @_ZN5blink17RTCErrorEventInitD0Ev to i8*), i8* bitcast (%"class.v8::Value"* (%"class.blink::RTCErrorEventInit"*, %"class.v8::Object"*, %"class.v8::Isolate"*)* @_ZNK5blink17RTCErrorEventInit8ToV8ImplEN2v85LocalINS1_6ObjectEEEPNS1_7IsolateE to i8*), i8* bitcast (void (%"class.blink::RTCErrorEventInit"*, %"class.blink::Visitor"*)* @_ZNK5blink17RTCErrorEventInit5TraceEPNS_7VisitorE to i8*)] }, align 8

@_ZN5blink17RTCErrorEventInitC1Ev = hidden unnamed_addr alias void (%"class.blink::RTCErrorEventInit"*), void (%"class.blink::RTCErrorEventInit"*)* @_ZN5blink17RTCErrorEventInitC2Ev
@_ZN5blink17RTCErrorEventInitD1Ev = hidden unnamed_addr alias void (%"class.blink::RTCErrorEventInit"*), void (%"class.blink::RTCErrorEventInit"*)* @_ZN5blink17RTCErrorEventInitD2Ev

; Function Attrs: nounwind ssp uwtable
define hidden void @_ZN5blink17RTCErrorEventInitC2Ev(%"class.blink::RTCErrorEventInit"*) unnamed_addr #0 align 2 {
  %2 = bitcast %"class.blink::RTCErrorEventInit"* %0 to %"class.blink::EventInit"*
  tail call void @_ZN5blink9EventInitC2Ev(%"class.blink::EventInit"* %2) #3
  %3 = getelementptr inbounds %"class.blink::RTCErrorEventInit", %"class.blink::RTCErrorEventInit"* %0, i64 0, i32 0, i32 0, i32 0
  store i32 (...)** bitcast (i8** getelementptr inbounds ({ [6 x i8*] }, { [6 x i8*] }* @_ZTVN5blink17RTCErrorEventInitE, i64 0, inrange i32 0, i64 2) to i32 (...)**), i32 (...)*** %3, align 8
  %4 = getelementptr inbounds %"class.blink::RTCErrorEventInit", %"class.blink::RTCErrorEventInit"* %0, i64 0, i32 1, i32 0, i32 0
  store %"class.blink::RTCError"* null, %"class.blink::RTCError"** %4, align 8
  ret void
}

declare void @_ZN5blink9EventInitC2Ev(%"class.blink::EventInit"*) unnamed_addr #1

; Function Attrs: nounwind
declare void @_ZN5blink9EventInitD2Ev(%"class.blink::EventInit"*) unnamed_addr #2

; Function Attrs: nounwind ssp uwtable
define hidden void @_ZN5blink17RTCErrorEventInitD2Ev(%"class.blink::RTCErrorEventInit"*) unnamed_addr #0 align 2 {
  %2 = bitcast %"class.blink::RTCErrorEventInit"* %0 to %"class.blink::EventInit"*
  tail call void @_ZN5blink9EventInitD2Ev(%"class.blink::EventInit"* %2) #3
  ret void
}

; Function Attrs: nounwind ssp uwtable
define hidden void @_ZN5blink17RTCErrorEventInitD0Ev(%"class.blink::RTCErrorEventInit"*) unnamed_addr #0 align 2 {
  %2 = bitcast %"class.blink::RTCErrorEventInit"* %0 to %"class.blink::EventInit"*
  tail call void @_ZN5blink9EventInitD2Ev(%"class.blink::EventInit"* %2) #3
  ret void
}

; Function Attrs: nounwind ssp uwtable
define hidden void @_ZNK5blink17RTCErrorEventInit5TraceEPNS_7VisitorE(%"class.blink::RTCErrorEventInit"*, %"class.blink::Visitor"*) unnamed_addr #0 align 2 {
  %3 = getelementptr inbounds %"class.blink::RTCErrorEventInit", %"class.blink::RTCErrorEventInit"* %0, i64 0, i32 1
  %4 = bitcast %"class.blink::Member"* %3 to i64*
  %5 = load atomic i64, i64* %4 monotonic, align 8
  %6 = icmp eq i64 %5, 0
  br i1 %6, label %13, label %7

7:                                                ; preds = %2
  %8 = inttoptr i64 %5 to i8*
  %9 = bitcast %"class.blink::Visitor"* %1 to void (%"class.blink::Visitor"*, i8*, i8*, void (%"class.blink::Visitor"*, i8*)*)***
  %10 = load void (%"class.blink::Visitor"*, i8*, i8*, void (%"class.blink::Visitor"*, i8*)*)**, void (%"class.blink::Visitor"*, i8*, i8*, void (%"class.blink::Visitor"*, i8*)*)*** %9, align 8
  %11 = getelementptr inbounds void (%"class.blink::Visitor"*, i8*, i8*, void (%"class.blink::Visitor"*, i8*)*)*, void (%"class.blink::Visitor"*, i8*, i8*, void (%"class.blink::Visitor"*, i8*)*)** %10, i64 5
  %12 = load void (%"class.blink::Visitor"*, i8*, i8*, void (%"class.blink::Visitor"*, i8*)*)*, void (%"class.blink::Visitor"*, i8*, i8*, void (%"class.blink::Visitor"*, i8*)*)** %11, align 8
  tail call void %12(%"class.blink::Visitor"* %1, i8* nonnull %8, i8* nonnull %8, void (%"class.blink::Visitor"*, i8*)* nonnull @_ZN5blink10TraceTraitINS_8RTCErrorEE5TraceEPNS_7VisitorEPKv) #3
  br label %13

13:                                               ; preds = %2, %7
  %14 = bitcast %"class.blink::RTCErrorEventInit"* %0 to %"class.blink::EventInit"*
  tail call void @_ZNK5blink9EventInit5TraceEPNS_7VisitorE(%"class.blink::EventInit"* %14, %"class.blink::Visitor"* %1) #3
  ret void
}

declare void @_ZNK5blink9EventInit5TraceEPNS_7VisitorE(%"class.blink::EventInit"*, %"class.blink::Visitor"*) unnamed_addr #1

declare %"class.v8::Value"* @_ZNK5blink17RTCErrorEventInit8ToV8ImplEN2v85LocalINS1_6ObjectEEEPNS1_7IsolateE(%"class.blink::RTCErrorEventInit"*, %"class.v8::Object"*, %"class.v8::Isolate"*) unnamed_addr #1

; Function Attrs: nounwind ssp uwtable
define linkonce_odr hidden void @_ZN5blink10TraceTraitINS_8RTCErrorEE5TraceEPNS_7VisitorEPKv(%"class.blink::Visitor"*, i8*) #0 comdat align 2 {
  %3 = bitcast i8* %1 to %"class.blink::ScriptWrappable"*
  tail call void @_ZNK5blink15ScriptWrappable5TraceEPNS_7VisitorE(%"class.blink::ScriptWrappable"* %3, %"class.blink::Visitor"* %0) #3
  ret void
}

declare void @_ZNK5blink15ScriptWrappable5TraceEPNS_7VisitorE(%"class.blink::ScriptWrappable"*, %"class.blink::Visitor"*) unnamed_addr #1

attributes #0 = { nounwind ssp uwtable "correctly-rounded-divide-sqrt-fp-math"="false" "disable-tail-calls"="false" "less-precise-fpmad"="false" "min-legal-vector-width"="0" "no-frame-pointer-elim"="false" "no-frame-pointer-elim-non-leaf" "no-infs-fp-math"="false" "no-jump-tables"="false" "no-nans-fp-math"="false" "no-signed-zeros-fp-math"="false" "no-trapping-math"="false" "null-pointer-is-valid"="true" "stack-protector-buffer-size"="4" "target-cpu"="x86-64" "target-features"="+cx8,+fxsr,+mmx,+sse,+sse2,+sse3,+x87" "unsafe-fp-math"="false" "use-soft-float"="false" }
attributes #1 = { "correctly-rounded-divide-sqrt-fp-math"="false" "disable-tail-calls"="false" "less-precise-fpmad"="false" "no-frame-pointer-elim"="false" "no-frame-pointer-elim-non-leaf" "no-infs-fp-math"="false" "no-nans-fp-math"="false" "no-signed-zeros-fp-math"="false" "no-trapping-math"="false" "null-pointer-is-valid"="true" "stack-protector-buffer-size"="4" "target-cpu"="x86-64" "target-features"="+cx8,+fxsr,+mmx,+sse,+sse2,+sse3,+x87" "unsafe-fp-math"="false" "use-soft-float"="false" }
attributes #2 = { nounwind "correctly-rounded-divide-sqrt-fp-math"="false" "disable-tail-calls"="false" "less-precise-fpmad"="false" "no-frame-pointer-elim"="false" "no-frame-pointer-elim-non-leaf" "no-infs-fp-math"="false" "no-nans-fp-math"="false" "no-signed-zeros-fp-math"="false" "no-trapping-math"="false" "null-pointer-is-valid"="true" "stack-protector-buffer-size"="4" "target-cpu"="x86-64" "target-features"="+cx8,+fxsr,+mmx,+sse,+sse2,+sse3,+x87" "unsafe-fp-math"="false" "use-soft-float"="false" }
attributes #3 = { nounwind }

!llvm.module.flags = !{!0, !1}

!0 = !{i32 1, !"wchar_size", i32 4}
!1 = !{i32 7, !"PIC Level", i32 2}
